; Listing generated by Microsoft (R) Optimizing Compiler Version 19.29.30137.0 

	TITLE	C:\Users\murat\Desktop\Siveps2-1-99-Project\source\client\Client\PRTerrainLib\Distribute\TextureSet.obj
	.686P
	.XMM
	include listing.inc
	.model	flat

INCLUDELIB LIBCMT
INCLUDELIB OLDNAMES

CONST	SEGMENT
?piecewise_construct@std@@3Upiecewise_construct_t@1@B	ORG $+1 ; std::piecewise_construct
?_Fake_alloc@std@@3U_Fake_allocator@1@B	ORG $+1		; std::_Fake_alloc
CONST	ENDS
PUBLIC	___local_stdio_printf_options
PUBLIC	_fprintf
PUBLIC	__snprintf
PUBLIC	??0exception@std@@QAE@ABV01@@Z			; std::exception::exception
PUBLIC	??1exception@std@@UAE@XZ			; std::exception::~exception
PUBLIC	?what@exception@std@@UBEPBDXZ			; std::exception::what
PUBLIC	??_Gexception@std@@UAEPAXI@Z			; std::exception::`scalar deleting destructor'
PUBLIC	??0bad_alloc@std@@QAE@ABV01@@Z			; std::bad_alloc::bad_alloc
PUBLIC	??_Gbad_alloc@std@@UAEPAXI@Z			; std::bad_alloc::`scalar deleting destructor'
PUBLIC	??0bad_array_new_length@std@@QAE@XZ		; std::bad_array_new_length::bad_array_new_length
PUBLIC	??1bad_array_new_length@std@@UAE@XZ		; std::bad_array_new_length::~bad_array_new_length
PUBLIC	??0bad_array_new_length@std@@QAE@ABV01@@Z	; std::bad_array_new_length::bad_array_new_length
PUBLIC	??_Gbad_array_new_length@std@@UAEPAXI@Z		; std::bad_array_new_length::`scalar deleting destructor'
PUBLIC	?_Throw_bad_array_new_length@std@@YAXXZ		; std::_Throw_bad_array_new_length
PUBLIC	?_Xlen_string@std@@YAXXZ			; std::_Xlen_string
PUBLIC	??1?$basic_string@DU?$char_traits@D@std@@V?$allocator@D@2@@std@@QAE@XZ ; std::basic_string<char,std::char_traits<char>,std::allocator<char> >::~basic_string<char,std::char_traits<char>,std::allocator<char> >
PUBLIC	?assign@?$basic_string@DU?$char_traits@D@std@@V?$allocator@D@2@@std@@QAEAAV12@QBDI@Z ; std::basic_string<char,std::char_traits<char>,std::allocator<char> >::assign
PUBLIC	?_Throw_tree_length_error@std@@YAXXZ		; std::_Throw_tree_length_error
PUBLIC	??1?$vector@V?$basic_string@DU?$char_traits@D@std@@V?$allocator@D@2@@std@@V?$allocator@V?$basic_string@DU?$char_traits@D@std@@V?$allocator@D@2@@std@@@2@@std@@QAE@XZ ; std::vector<std::basic_string<char,std::char_traits<char>,std::allocator<char> >,std::allocator<std::basic_string<char,std::char_traits<char>,std::allocator<char> > > >::~vector<std::basic_string<char,std::char_traits<char>,std::allocator<char> >,std::allocator<std::basic_string<char,std::char_traits<char>,std::allocator<char> > > >
PUBLIC	??$_Traits_compare@U?$char_traits@D@std@@@std@@YAHQBDI0I@Z ; std::_Traits_compare<std::char_traits<char> >
PUBLIC	??$_Allocate_manually_vector_aligned@U_Default_allocate_traits@std@@@std@@YAPAXI@Z ; std::_Allocate_manually_vector_aligned<std::_Default_allocate_traits>
PUBLIC	??_GCGraphicImageInstance@@UAEPAXI@Z		; CGraphicImageInstance::`scalar deleting destructor'
PUBLIC	??0STerrainTexture@@QAE@XZ			; STerrainTexture::STerrainTexture
PUBLIC	??1STerrainTexture@@QAE@XZ			; STerrainTexture::~STerrainTexture
PUBLIC	??0STerrainTexture@@QAE@ABU0@@Z			; STerrainTexture::STerrainTexture
PUBLIC	??0CTextureSet@@QAE@XZ				; CTextureSet::CTextureSet
PUBLIC	??1CTextureSet@@UAE@XZ				; CTextureSet::~CTextureSet
PUBLIC	?Initialize@CTextureSet@@QAEXXZ			; CTextureSet::Initialize
PUBLIC	?Clear@CTextureSet@@QAEXXZ			; CTextureSet::Clear
PUBLIC	?Create@CTextureSet@@QAEXXZ			; CTextureSet::Create
PUBLIC	?Load@CTextureSet@@QAE_NPBDM@Z			; CTextureSet::Load
PUBLIC	?Save@CTextureSet@@QAE_NPBD@Z			; CTextureSet::Save
PUBLIC	?GetTextureCount@CTextureSet@@QAEKXZ		; CTextureSet::GetTextureCount
PUBLIC	?GetTexture@CTextureSet@@QAEAAUSTerrainTexture@@K@Z ; CTextureSet::GetTexture
PUBLIC	?RemoveTexture@CTextureSet@@QAE_NK@Z		; CTextureSet::RemoveTexture
PUBLIC	?SetTexture@CTextureSet@@QAE_NKPBDMMMM_NGGM@Z	; CTextureSet::SetTexture
PUBLIC	?Reload@CTextureSet@@QAEXM@Z			; CTextureSet::Reload
PUBLIC	?AddTexture@CTextureSet@@QAE_NPBDMMMM_NGGM@Z	; CTextureSet::AddTexture
PUBLIC	?AddEmptyTexture@CTextureSet@@IAEXXZ		; CTextureSet::AddEmptyTexture
PUBLIC	?deallocate@?$allocator@USTerrainTexture@@@std@@QAEXQAUSTerrainTexture@@I@Z ; std::allocator<STerrainTexture>::deallocate
PUBLIC	??1?$vector@USTerrainTexture@@V?$allocator@USTerrainTexture@@@std@@@std@@QAE@XZ ; std::vector<STerrainTexture,std::allocator<STerrainTexture> >::~vector<STerrainTexture,std::allocator<STerrainTexture> >
PUBLIC	?_Reallocate_exactly@?$vector@USTerrainTexture@@V?$allocator@USTerrainTexture@@@std@@@std@@AAEXI@Z ; std::vector<STerrainTexture,std::allocator<STerrainTexture> >::_Reallocate_exactly
PUBLIC	?_Ufill@?$vector@USTerrainTexture@@V?$allocator@USTerrainTexture@@@std@@@std@@AAEPAUSTerrainTexture@@PAU3@IU_Value_init_tag@2@@Z ; std::vector<STerrainTexture,std::allocator<STerrainTexture> >::_Ufill
PUBLIC	?_Umove@?$vector@USTerrainTexture@@V?$allocator@USTerrainTexture@@@std@@@std@@AAEPAUSTerrainTexture@@PAU3@00@Z ; std::vector<STerrainTexture,std::allocator<STerrainTexture> >::_Umove
PUBLIC	?_Umove_if_noexcept@?$vector@USTerrainTexture@@V?$allocator@USTerrainTexture@@@std@@@std@@AAEXPAUSTerrainTexture@@00@Z ; std::vector<STerrainTexture,std::allocator<STerrainTexture> >::_Umove_if_noexcept
PUBLIC	?_Destroy@?$vector@USTerrainTexture@@V?$allocator@USTerrainTexture@@@std@@@std@@AAEXPAUSTerrainTexture@@0@Z ; std::vector<STerrainTexture,std::allocator<STerrainTexture> >::_Destroy
PUBLIC	?_Change_array@?$vector@USTerrainTexture@@V?$allocator@USTerrainTexture@@@std@@@std@@AAEXQAUSTerrainTexture@@II@Z ; std::vector<STerrainTexture,std::allocator<STerrainTexture> >::_Change_array
PUBLIC	?_Xlength@?$vector@USTerrainTexture@@V?$allocator@USTerrainTexture@@@std@@@std@@CAXXZ ; std::vector<STerrainTexture,std::allocator<STerrainTexture> >::_Xlength
PUBLIC	?_Getal@?$vector@USTerrainTexture@@V?$allocator@USTerrainTexture@@@std@@@std@@AAEAAV?$allocator@USTerrainTexture@@@2@XZ ; std::vector<STerrainTexture,std::allocator<STerrainTexture> >::_Getal
PUBLIC	??_GCTextureSet@@UAEPAXI@Z			; CTextureSet::`scalar deleting destructor'
PUBLIC	?_Insert_node@?$_Tree_val@U?$_Tree_simple_types@U?$pair@$$CBV?$basic_string@DU?$char_traits@D@std@@V?$allocator@D@2@@std@@V?$vector@V?$basic_string@DU?$char_traits@D@std@@V?$allocator@D@2@@std@@V?$allocator@V?$basic_string@DU?$char_traits@D@std@@V?$allocator@D@2@@std@@@2@@2@@std@@@std@@@std@@QAEPAU?$_Tree_node@U?$pair@$$CBV?$basic_string@DU?$char_traits@D@std@@V?$allocator@D@2@@std@@V?$vector@V?$basic_string@DU?$char_traits@D@std@@V?$allocator@D@2@@std@@V?$allocator@V?$basic_string@DU?$char_traits@D@std@@V?$allocator@D@2@@std@@@2@@2@@std@@PAX@2@U?$_Tree_id@PAU?$_Tree_node@U?$pair@$$CBV?$basic_string@DU?$char_traits@D@std@@V?$allocator@D@2@@std@@V?$vector@V?$basic_string@DU?$char_traits@D@std@@V?$allocator@D@2@@std@@V?$allocator@V?$basic_string@DU?$char_traits@D@std@@V?$allocator@D@2@@std@@@2@@2@@std@@PAX@std@@@2@QAU32@@Z ; std::_Tree_val<std::_Tree_simple_types<std::pair<std::basic_string<char,std::char_traits<char>,std::allocator<char> > const ,std::vector<std::basic_string<char,std::char_traits<char>,std::allocator<char> >,std::allocator<std::basic_string<char,std::char_traits<char>,std::allocator<char> > > > > > >::_Insert_node
PUBLIC	??1?$map@V?$basic_string@DU?$char_traits@D@std@@V?$allocator@D@2@@std@@V?$vector@V?$basic_string@DU?$char_traits@D@std@@V?$allocator@D@2@@std@@V?$allocator@V?$basic_string@DU?$char_traits@D@std@@V?$allocator@D@2@@std@@@2@@2@U?$less@V?$basic_string@DU?$char_traits@D@std@@V?$allocator@D@2@@std@@@2@V?$allocator@U?$pair@$$CBV?$basic_string@DU?$char_traits@D@std@@V?$allocator@D@2@@std@@V?$vector@V?$basic_string@DU?$char_traits@D@std@@V?$allocator@D@2@@std@@V?$allocator@V?$basic_string@DU?$char_traits@D@std@@V?$allocator@D@2@@std@@@2@@2@@std@@@2@@std@@QAE@XZ ; std::map<std::basic_string<char,std::char_traits<char>,std::allocator<char> >,std::vector<std::basic_string<char,std::char_traits<char>,std::allocator<char> >,std::allocator<std::basic_string<char,std::char_traits<char>,std::allocator<char> > > >,std::less<std::basic_string<char,std::char_traits<char>,std::allocator<char> > >,std::allocator<std::pair<std::basic_string<char,std::char_traits<char>,std::allocator<char> > const ,std::vector<std::basic_string<char,std::char_traits<char>,std::allocator<char> >,std::allocator<std::basic_string<char,std::char_traits<char>,std::allocator<char> > > > > > >::~map<std::basic_string<char,std::char_traits<char>,std::allocator<char> >,std::vector<std::basic_string<char,std::char_traits<char>,std::allocator<char> >,std::allocator<std::basic_string<char,std::char_traits<char>,std::allocator<char> > > >,std::less<std::basic_string<char,std::char_traits<char>,std::allocator<char> > >,std::allocator<std::pair<std::basic_string<char,std::char_traits<char>,std::allocator<char> > const ,std::vector<std::basic_string<char,std::char_traits<char>,std::allocator<char> >,std::allocator<std::basic_string<char,std::char_traits<char>,std::allocator<char> > > > > > >
PUBLIC	??$destroy@USTerrainTexture@@@?$_Default_allocator_traits@V?$allocator@USTerrainTexture@@@std@@@std@@SAXAAV?$allocator@USTerrainTexture@@@1@QAUSTerrainTexture@@@Z ; std::_Default_allocator_traits<std::allocator<STerrainTexture> >::destroy<STerrainTexture>
PUBLIC	??$_Emplace_reallocate@ABUSTerrainTexture@@@?$vector@USTerrainTexture@@V?$allocator@USTerrainTexture@@@std@@@std@@QAEPAUSTerrainTexture@@QAU2@ABU2@@Z ; std::vector<STerrainTexture,std::allocator<STerrainTexture> >::_Emplace_reallocate<STerrainTexture const &>
PUBLIC	??$_Destroy_range@V?$allocator@USTerrainTexture@@@std@@@std@@YAXPAUSTerrainTexture@@QAU1@AAV?$allocator@USTerrainTexture@@@0@@Z ; std::_Destroy_range<std::allocator<STerrainTexture> >
PUBLIC	??$_Find_lower_bound@V?$basic_string@DU?$char_traits@D@std@@V?$allocator@D@2@@std@@@?$_Tree@V?$_Tmap_traits@V?$basic_string@DU?$char_traits@D@std@@V?$allocator@D@2@@std@@V?$vector@V?$basic_string@DU?$char_traits@D@std@@V?$allocator@D@2@@std@@V?$allocator@V?$basic_string@DU?$char_traits@D@std@@V?$allocator@D@2@@std@@@2@@2@U?$less@V?$basic_string@DU?$char_traits@D@std@@V?$allocator@D@2@@std@@@2@V?$allocator@U?$pair@$$CBV?$basic_string@DU?$char_traits@D@std@@V?$allocator@D@2@@std@@V?$vector@V?$basic_string@DU?$char_traits@D@std@@V?$allocator@D@2@@std@@V?$allocator@V?$basic_string@DU?$char_traits@D@std@@V?$allocator@D@2@@std@@@2@@2@@std@@@2@$0A@@std@@@std@@IBE?AU?$_Tree_find_result@PAU?$_Tree_node@U?$pair@$$CBV?$basic_string@DU?$char_traits@D@std@@V?$allocator@D@2@@std@@V?$vector@V?$basic_string@DU?$char_traits@D@std@@V?$allocator@D@2@@std@@V?$allocator@V?$basic_string@DU?$char_traits@D@std@@V?$allocator@D@2@@std@@@2@@2@@std@@PAX@std@@@1@ABV?$basic_string@DU?$char_traits@D@std@@V?$allocator@D@2@@1@@Z ; std::_Tree<std::_Tmap_traits<std::basic_string<char,std::char_traits<char>,std::allocator<char> >,std::vector<std::basic_string<char,std::char_traits<char>,std::allocator<char> >,std::allocator<std::basic_string<char,std::char_traits<char>,std::allocator<char> > > >,std::less<std::basic_string<char,std::char_traits<char>,std::allocator<char> > >,std::allocator<std::pair<std::basic_string<char,std::char_traits<char>,std::allocator<char> > const ,std::vector<std::basic_string<char,std::char_traits<char>,std::allocator<char> >,std::allocator<std::basic_string<char,std::char_traits<char>,std::allocator<char> > > > > >,0> >::_Find_lower_bound<std::basic_string<char,std::char_traits<char>,std::allocator<char> > >
PUBLIC	??1?$_Alloc_construct_ptr@V?$allocator@U?$_Tree_node@U?$pair@$$CBV?$basic_string@DU?$char_traits@D@std@@V?$allocator@D@2@@std@@V?$vector@V?$basic_string@DU?$char_traits@D@std@@V?$allocator@D@2@@std@@V?$allocator@V?$basic_string@DU?$char_traits@D@std@@V?$allocator@D@2@@std@@@2@@2@@std@@PAX@std@@@std@@@std@@QAE@XZ ; std::_Alloc_construct_ptr<std::allocator<std::_Tree_node<std::pair<std::basic_string<char,std::char_traits<char>,std::allocator<char> > const ,std::vector<std::basic_string<char,std::char_traits<char>,std::allocator<char> >,std::allocator<std::basic_string<char,std::char_traits<char>,std::allocator<char> > > > >,void *> > >::~_Alloc_construct_ptr<std::allocator<std::_Tree_node<std::pair<std::basic_string<char,std::char_traits<char>,std::allocator<char> > const ,std::vector<std::basic_string<char,std::char_traits<char>,std::allocator<char> >,std::allocator<std::basic_string<char,std::char_traits<char>,std::allocator<char> > > > >,void *> > >
PUBLIC	??$_Erase_tree@V?$allocator@U?$_Tree_node@U?$pair@$$CBV?$basic_string@DU?$char_traits@D@std@@V?$allocator@D@2@@std@@V?$vector@V?$basic_string@DU?$char_traits@D@std@@V?$allocator@D@2@@std@@V?$allocator@V?$basic_string@DU?$char_traits@D@std@@V?$allocator@D@2@@std@@@2@@2@@std@@PAX@std@@@std@@@?$_Tree_val@U?$_Tree_simple_types@U?$pair@$$CBV?$basic_string@DU?$char_traits@D@std@@V?$allocator@D@2@@std@@V?$vector@V?$basic_string@DU?$char_traits@D@std@@V?$allocator@D@2@@std@@V?$allocator@V?$basic_string@DU?$char_traits@D@std@@V?$allocator@D@2@@std@@@2@@2@@std@@@std@@@std@@QAEXAAV?$allocator@U?$_Tree_node@U?$pair@$$CBV?$basic_string@DU?$char_traits@D@std@@V?$allocator@D@2@@std@@V?$vector@V?$basic_string@DU?$char_traits@D@std@@V?$allocator@D@2@@std@@V?$allocator@V?$basic_string@DU?$char_traits@D@std@@V?$allocator@D@2@@std@@@2@@2@@std@@PAX@std@@@1@PAU?$_Tree_node@U?$pair@$$CBV?$basic_string@DU?$char_traits@D@std@@V?$allocator@D@2@@std@@V?$vector@V?$basic_string@DU?$char_traits@D@std@@V?$allocator@D@2@@std@@V?$allocator@V?$basic_string@DU?$char_traits@D@std@@V?$allocator@D@2@@std@@@2@@2@@std@@PAX@1@@Z ; std::_Tree_val<std::_Tree_simple_types<std::pair<std::basic_string<char,std::char_traits<char>,std::allocator<char> > const ,std::vector<std::basic_string<char,std::char_traits<char>,std::allocator<char> >,std::allocator<std::basic_string<char,std::char_traits<char>,std::allocator<char> > > > > > >::_Erase_tree<std::allocator<std::_Tree_node<std::pair<std::basic_string<char,std::char_traits<char>,std::allocator<char> > const ,std::vector<std::basic_string<char,std::char_traits<char>,std::allocator<char> >,std::allocator<std::basic_string<char,std::char_traits<char>,std::allocator<char> > > > >,void *> > >
PUBLIC	??$_Resize_reallocate@U_Value_init_tag@std@@@?$vector@USTerrainTexture@@V?$allocator@USTerrainTexture@@@std@@@std@@AAEXIABU_Value_init_tag@1@@Z ; std::vector<STerrainTexture,std::allocator<STerrainTexture> >::_Resize_reallocate<std::_Value_init_tag>
PUBLIC	??1?$_Uninitialized_backout_al@V?$allocator@USTerrainTexture@@@std@@@std@@QAE@XZ ; std::_Uninitialized_backout_al<std::allocator<STerrainTexture> >::~_Uninitialized_backout_al<std::allocator<STerrainTexture> >
PUBLIC	??$destroy@U?$pair@$$CBV?$basic_string@DU?$char_traits@D@std@@V?$allocator@D@2@@std@@V?$vector@V?$basic_string@DU?$char_traits@D@std@@V?$allocator@D@2@@std@@V?$allocator@V?$basic_string@DU?$char_traits@D@std@@V?$allocator@D@2@@std@@@2@@2@@std@@@?$_Default_allocator_traits@V?$allocator@U?$_Tree_node@U?$pair@$$CBV?$basic_string@DU?$char_traits@D@std@@V?$allocator@D@2@@std@@V?$vector@V?$basic_string@DU?$char_traits@D@std@@V?$allocator@D@2@@std@@V?$allocator@V?$basic_string@DU?$char_traits@D@std@@V?$allocator@D@2@@std@@@2@@2@@std@@PAX@std@@@std@@@std@@SAXAAV?$allocator@U?$_Tree_node@U?$pair@$$CBV?$basic_string@DU?$char_traits@D@std@@V?$allocator@D@2@@std@@V?$vector@V?$basic_string@DU?$char_traits@D@std@@V?$allocator@D@2@@std@@V?$allocator@V?$basic_string@DU?$char_traits@D@std@@V?$allocator@D@2@@std@@@2@@2@@std@@PAX@std@@@1@QAU?$pair@$$CBV?$basic_string@DU?$char_traits@D@std@@V?$allocator@D@2@@std@@V?$vector@V?$basic_string@DU?$char_traits@D@std@@V?$allocator@D@2@@std@@V?$allocator@V?$basic_string@DU?$char_traits@D@std@@V?$allocator@D@2@@std@@@2@@2@@1@@Z ; std::_Default_allocator_traits<std::allocator<std::_Tree_node<std::pair<std::basic_string<char,std::char_traits<char>,std::allocator<char> > const ,std::vector<std::basic_string<char,std::char_traits<char>,std::allocator<char> >,std::allocator<std::basic_string<char,std::char_traits<char>,std::allocator<char> > > > >,void *> > >::destroy<std::pair<std::basic_string<char,std::char_traits<char>,std::allocator<char> > const ,std::vector<std::basic_string<char,std::char_traits<char>,std::allocator<char> >,std::allocator<std::basic_string<char,std::char_traits<char>,std::allocator<char> > > > > >
PUBLIC	??$?MDU?$char_traits@D@std@@V?$allocator@D@1@@std@@YA_NABV?$basic_string@DU?$char_traits@D@std@@V?$allocator@D@2@@0@0@Z ; std::operator<<char,std::char_traits<char>,std::allocator<char> >
PUBLIC	?_OptionsStorage@?1??__local_stdio_printf_options@@9@4_KA ; `__local_stdio_printf_options'::`2'::_OptionsStorage
PUBLIC	??_7exception@std@@6B@				; std::exception::`vftable'
PUBLIC	??_C@_0BC@EOODALEL@Unknown?5exception@		; `string'
PUBLIC	??_7bad_alloc@std@@6B@				; std::bad_alloc::`vftable'
PUBLIC	??_7bad_array_new_length@std@@6B@		; std::bad_array_new_length::`vftable'
PUBLIC	??_C@_0BF@KINCDENJ@bad?5array?5new?5length@	; `string'
PUBLIC	__TI3?AVbad_array_new_length@std@@
PUBLIC	__CTA3?AVbad_array_new_length@std@@
PUBLIC	??_R0?AVbad_array_new_length@std@@@8		; std::bad_array_new_length `RTTI Type Descriptor'
PUBLIC	__CT??_R0?AVbad_array_new_length@std@@@8??0bad_array_new_length@std@@QAE@ABV01@@Z12
PUBLIC	??_R0?AVbad_alloc@std@@@8			; std::bad_alloc `RTTI Type Descriptor'
PUBLIC	__CT??_R0?AVbad_alloc@std@@@8??0bad_alloc@std@@QAE@ABV01@@Z12
PUBLIC	??_R0?AVexception@std@@@8			; std::exception `RTTI Type Descriptor'
PUBLIC	__CT??_R0?AVexception@std@@@8??0exception@std@@QAE@ABV01@@Z12
PUBLIC	??_C@_0BA@JFNIOLAK@string?5too?5long@		; `string'
PUBLIC	??_C@_0BB@GCADKGJO@map?1set?5too?5long@		; `string'
PUBLIC	?ms_singleton@?$CSingleton@VCResourceManager@@@@0PAVCResourceManager@@A ; CSingleton<CResourceManager>::ms_singleton
PUBLIC	??_R4exception@std@@6B@				; std::exception::`RTTI Complete Object Locator'
PUBLIC	??_R3exception@std@@8				; std::exception::`RTTI Class Hierarchy Descriptor'
PUBLIC	??_R2exception@std@@8				; std::exception::`RTTI Base Class Array'
PUBLIC	??_R1A@?0A@EA@exception@std@@8			; std::exception::`RTTI Base Class Descriptor at (0,-1,0,64)'
PUBLIC	??_R4bad_alloc@std@@6B@				; std::bad_alloc::`RTTI Complete Object Locator'
PUBLIC	??_R3bad_alloc@std@@8				; std::bad_alloc::`RTTI Class Hierarchy Descriptor'
PUBLIC	??_R2bad_alloc@std@@8				; std::bad_alloc::`RTTI Base Class Array'
PUBLIC	??_R1A@?0A@EA@bad_alloc@std@@8			; std::bad_alloc::`RTTI Base Class Descriptor at (0,-1,0,64)'
PUBLIC	??_R4bad_array_new_length@std@@6B@		; std::bad_array_new_length::`RTTI Complete Object Locator'
PUBLIC	??_R3bad_array_new_length@std@@8		; std::bad_array_new_length::`RTTI Class Hierarchy Descriptor'
PUBLIC	??_R2bad_array_new_length@std@@8		; std::bad_array_new_length::`RTTI Base Class Array'
PUBLIC	??_R1A@?0A@EA@bad_array_new_length@std@@8	; std::bad_array_new_length::`RTTI Base Class Descriptor at (0,-1,0,64)'
PUBLIC	??_7CGraphicImageInstance@@6B@			; CGraphicImageInstance::`vftable'
PUBLIC	??_7CTextureSet@@6B@				; CTextureSet::`vftable'
PUBLIC	??_C@_0BP@PGALBFBK@d?3?1ymir?5work?1special?1error?4tga@ ; `string'
PUBLIC	??_C@_0CC@NFEEIIKK@TextureSet?3?3Load?5?3?5cannot?5load?5@ ; `string'
PUBLIC	??_C@_0L@FLIBEPMB@textureset@			; `string'
PUBLIC	??_C@_0DL@HIELGKBC@TextureSet?3?3Load?5?3?5syntax?5error@ ; `string'
PUBLIC	??_C@_0N@MMECMGAI@texturecount@			; `string'
PUBLIC	??_C@_0DN@FCLAEMJC@TextureSet?3?3Load?5?3?5syntax?5error@ ; `string'
PUBLIC	??_C@_0M@NDPMIDHE@texture?$CF03d@		; `string'
PUBLIC	??_C@_0DF@CFOIFDDM@CTextureSet?3?3Load?5?3?5SetTexture?5@ ; `string'
PUBLIC	??_C@_0FF@IFFABLMH@CTextureSet?3?3SetTexture?5?3?5Index@ ; `string'
PUBLIC	??_C@_0DF@JOIEGDLH@CTerrainImpl?3?3GenerateTexture?5?3@ ; `string'
PUBLIC	??_C@_0CG@GCCGCFA@You?5cannot?5add?5more?5than?5255?5te@ ; `string'
PUBLIC	??_C@_09OINHJNMP@Duplicate@			; `string'
PUBLIC	??_C@_0CJ@ELAAMMOC@Texture?5of?5the?5same?5name?5alread@ ; `string'
PUBLIC	??_C@_0DL@BLPPCNGA@CTerrainImpl?3?3GenerateTexture?5?3@ ; `string'
PUBLIC	??_C@_01NOFIACDB@w@				; `string'
PUBLIC	??_C@_0M@MPCHGPBP@TextureSet?6@			; `string'
PUBLIC	??_C@_01EEMJAFIK@?6@				; `string'
PUBLIC	??_C@_0BC@GGJBGKJP@TextureCount?5?$CFld?6@	; `string'
PUBLIC	??_C@_0BD@BJELLKNB@Start?5Texture?$CF03d?6@	; `string'
PUBLIC	??_C@_09BMPLDMAP@?5?5?5?5?$CC?$CFs?$CC?6@	; `string'
PUBLIC	??_C@_07ELCCFBHK@?5?5?5?5?$CFf?6@		; `string'
PUBLIC	??_C@_07EIKGIFBE@?5?5?5?5?$CFd?6@		; `string'
PUBLIC	??_C@_08PFAGAKKH@?5?5?5?5?$CFhu?6@		; `string'
PUBLIC	??_C@_0BB@GNLMPHOK@End?5Texture?$CF03d?6@	; `string'
PUBLIC	??_C@_0BA@FOIKENOD@vector?5too?5long@		; `string'
PUBLIC	??_R4CGraphicImageInstance@@6B@			; CGraphicImageInstance::`RTTI Complete Object Locator'
PUBLIC	??_R0?AVCGraphicImageInstance@@@8		; CGraphicImageInstance `RTTI Type Descriptor'
PUBLIC	??_R3CGraphicImageInstance@@8			; CGraphicImageInstance::`RTTI Class Hierarchy Descriptor'
PUBLIC	??_R2CGraphicImageInstance@@8			; CGraphicImageInstance::`RTTI Base Class Array'
PUBLIC	??_R1A@?0A@EA@CGraphicImageInstance@@8		; CGraphicImageInstance::`RTTI Base Class Descriptor at (0,-1,0,64)'
PUBLIC	??_R4CTextureSet@@6B@				; CTextureSet::`RTTI Complete Object Locator'
PUBLIC	??_R0?AVCTextureSet@@@8				; CTextureSet `RTTI Type Descriptor'
PUBLIC	??_R3CTextureSet@@8				; CTextureSet::`RTTI Class Hierarchy Descriptor'
PUBLIC	??_R2CTextureSet@@8				; CTextureSet::`RTTI Base Class Array'
PUBLIC	??_R1A@?0A@EA@CTextureSet@@8			; CTextureSet::`RTTI Base Class Descriptor at (0,-1,0,64)'
PUBLIC	__xmm@80000000800000008000000080000000
EXTRN	??2@YAPAXI@Z:PROC				; operator new
EXTRN	??3@YAXPAXI@Z:PROC				; operator delete
EXTRN	__invalid_parameter_noinfo_noreturn:PROC
EXTRN	_atof:PROC
EXTRN	_atol:PROC
EXTRN	__atoi64:PROC
EXTRN	_D3DXMatrixScaling@16:PROC
EXTRN	_fclose:PROC
EXTRN	_fopen:PROC
EXTRN	___stdio_common_vfprintf:PROC
EXTRN	___stdio_common_vsprintf:PROC
EXTRN	___std_exception_copy:PROC
EXTRN	___std_exception_destroy:PROC
EXTRN	??_Eexception@std@@UAEPAXI@Z:PROC		; std::exception::`vector deleting destructor'
EXTRN	??_Ebad_alloc@std@@UAEPAXI@Z:PROC		; std::bad_alloc::`vector deleting destructor'
EXTRN	??_Ebad_array_new_length@std@@UAEPAXI@Z:PROC	; std::bad_array_new_length::`vector deleting destructor'
EXTRN	?_Xlength_error@std@@YAXPBD@Z:PROC		; std::_Xlength_error
EXTRN	?TraceError@@YAXPBDZZ:PROC			; TraceError
EXTRN	?LogBox@@YAXPBD0PAUHWND__@@@Z:PROC		; LogBox
EXTRN	?LoadMultipleTextData@@YA_NPBDAAV?$map@V?$basic_string@DU?$char_traits@D@std@@V?$allocator@D@2@@std@@V?$vector@V?$basic_string@DU?$char_traits@D@std@@V?$allocator@D@2@@std@@V?$allocator@V?$basic_string@DU?$char_traits@D@std@@V?$allocator@D@2@@std@@@2@@2@U?$less@V?$basic_string@DU?$char_traits@D@std@@V?$allocator@D@2@@std@@@2@V?$allocator@U?$pair@$$CBV?$basic_string@DU?$char_traits@D@std@@V?$allocator@D@2@@std@@V?$vector@V?$basic_string@DU?$char_traits@D@std@@V?$allocator@D@2@@std@@V?$allocator@V?$basic_string@DU?$char_traits@D@std@@V?$allocator@D@2@@std@@@2@@2@@std@@@2@@std@@@Z:PROC ; LoadMultipleTextData
EXTRN	?AddReference@CReferenceObject@@QAEXXZ:PROC	; CReferenceObject::AddReference
EXTRN	?Release@CReferenceObject@@QAEXXZ:PROC		; CReferenceObject::Release
EXTRN	?IsType@CResource@@QAE_NK@Z:PROC		; CResource::IsType
EXTRN	?GetResourcePointer@CResourceManager@@QAEPAVCResource@@PBD@Z:PROC ; CResourceManager::GetResourcePointer
EXTRN	?GetD3DTexture@CGraphicTexture@@QBEPAUIDirect3DTexture8@@XZ:PROC ; CGraphicTexture::GetD3DTexture
EXTRN	?Type@CGraphicImage@@SAKXZ:PROC			; CGraphicImage::Type
EXTRN	??0CGraphicImageInstance@@QAE@XZ:PROC		; CGraphicImageInstance::CGraphicImageInstance
EXTRN	??1CGraphicImageInstance@@UAE@XZ:PROC		; CGraphicImageInstance::~CGraphicImageInstance
EXTRN	?Destroy@CGraphicImageInstance@@QAEXXZ:PROC	; CGraphicImageInstance::Destroy
EXTRN	?SetImagePointer@CGraphicImageInstance@@QAEXPAVCGraphicImage@@@Z:PROC ; CGraphicImageInstance::SetImagePointer
EXTRN	?ReloadImagePointer@CGraphicImageInstance@@QAEXPAVCGraphicImage@@@Z:PROC ; CGraphicImageInstance::ReloadImagePointer
EXTRN	?OnRenderCoolTime@CGraphicImageInstance@@UAEXM@Z:PROC ; CGraphicImageInstance::OnRenderCoolTime
EXTRN	?GetTexturePointer@CGraphicImageInstance@@QAEPAVCGraphicTexture@@XZ:PROC ; CGraphicImageInstance::GetTexturePointer
EXTRN	?OnRender@CGraphicImageInstance@@MAEXXZ:PROC	; CGraphicImageInstance::OnRender
EXTRN	?OnSetImagePointer@CGraphicImageInstance@@MAEXXZ:PROC ; CGraphicImageInstance::OnSetImagePointer
EXTRN	?OnIsType@CGraphicImageInstance@@MAEHK@Z:PROC	; CGraphicImageInstance::OnIsType
EXTRN	??_ECGraphicImageInstance@@UAEPAXI@Z:PROC	; CGraphicImageInstance::`vector deleting destructor'
EXTRN	??_ECTextureSet@@UAEPAXI@Z:PROC			; CTextureSet::`vector deleting destructor'
EXTRN	@__security_check_cookie@4:PROC
EXTRN	__CxxThrowException@8:PROC
EXTRN	___CxxFrameHandler3:PROC
EXTRN	_memcpy:PROC
EXTRN	_memmove:PROC
EXTRN	??_7type_info@@6B@:QWORD			; type_info::`vftable'
EXTRN	___security_cookie:DWORD
EXTRN	__fltused:DWORD
;	COMDAT ?_OptionsStorage@?1??__local_stdio_printf_options@@9@4_KA
_BSS	SEGMENT
?_OptionsStorage@?1??__local_stdio_printf_options@@9@4_KA DQ 01H DUP (?) ; `__local_stdio_printf_options'::`2'::_OptionsStorage
_BSS	ENDS
;	COMDAT ?ms_singleton@?$CSingleton@VCResourceManager@@@@0PAVCResourceManager@@A
_BSS	SEGMENT
?ms_singleton@?$CSingleton@VCResourceManager@@@@0PAVCResourceManager@@A DD 01H DUP (?) ; CSingleton<CResourceManager>::ms_singleton
_BSS	ENDS
;	COMDAT __xmm@80000000800000008000000080000000
CONST	SEGMENT
__xmm@80000000800000008000000080000000 DB 00H, 00H, 00H, 080H, 00H, 00H, 00H
	DB	080H, 00H, 00H, 00H, 080H, 00H, 00H, 00H, 080H
CONST	ENDS
;	COMDAT ??_R1A@?0A@EA@CTextureSet@@8
rdata$r	SEGMENT
??_R1A@?0A@EA@CTextureSet@@8 DD FLAT:??_R0?AVCTextureSet@@@8 ; CTextureSet::`RTTI Base Class Descriptor at (0,-1,0,64)'
	DD	00H
	DD	00H
	DD	0ffffffffH
	DD	00H
	DD	040H
	DD	FLAT:??_R3CTextureSet@@8
rdata$r	ENDS
;	COMDAT ??_R2CTextureSet@@8
rdata$r	SEGMENT
??_R2CTextureSet@@8 DD FLAT:??_R1A@?0A@EA@CTextureSet@@8 ; CTextureSet::`RTTI Base Class Array'
rdata$r	ENDS
;	COMDAT ??_R3CTextureSet@@8
rdata$r	SEGMENT
??_R3CTextureSet@@8 DD 00H				; CTextureSet::`RTTI Class Hierarchy Descriptor'
	DD	00H
	DD	01H
	DD	FLAT:??_R2CTextureSet@@8
rdata$r	ENDS
;	COMDAT ??_R0?AVCTextureSet@@@8
data$rs	SEGMENT
??_R0?AVCTextureSet@@@8 DD FLAT:??_7type_info@@6B@	; CTextureSet `RTTI Type Descriptor'
	DD	00H
	DB	'.?AVCTextureSet@@', 00H
data$rs	ENDS
;	COMDAT ??_R4CTextureSet@@6B@
rdata$r	SEGMENT
??_R4CTextureSet@@6B@ DD 00H				; CTextureSet::`RTTI Complete Object Locator'
	DD	00H
	DD	00H
	DD	FLAT:??_R0?AVCTextureSet@@@8
	DD	FLAT:??_R3CTextureSet@@8
rdata$r	ENDS
;	COMDAT ??_R1A@?0A@EA@CGraphicImageInstance@@8
rdata$r	SEGMENT
??_R1A@?0A@EA@CGraphicImageInstance@@8 DD FLAT:??_R0?AVCGraphicImageInstance@@@8 ; CGraphicImageInstance::`RTTI Base Class Descriptor at (0,-1,0,64)'
	DD	00H
	DD	00H
	DD	0ffffffffH
	DD	00H
	DD	040H
	DD	FLAT:??_R3CGraphicImageInstance@@8
rdata$r	ENDS
;	COMDAT ??_R2CGraphicImageInstance@@8
rdata$r	SEGMENT
??_R2CGraphicImageInstance@@8 DD FLAT:??_R1A@?0A@EA@CGraphicImageInstance@@8 ; CGraphicImageInstance::`RTTI Base Class Array'
rdata$r	ENDS
;	COMDAT ??_R3CGraphicImageInstance@@8
rdata$r	SEGMENT
??_R3CGraphicImageInstance@@8 DD 00H			; CGraphicImageInstance::`RTTI Class Hierarchy Descriptor'
	DD	00H
	DD	01H
	DD	FLAT:??_R2CGraphicImageInstance@@8
rdata$r	ENDS
;	COMDAT ??_R0?AVCGraphicImageInstance@@@8
data$rs	SEGMENT
??_R0?AVCGraphicImageInstance@@@8 DD FLAT:??_7type_info@@6B@ ; CGraphicImageInstance `RTTI Type Descriptor'
	DD	00H
	DB	'.?AVCGraphicImageInstance@@', 00H
data$rs	ENDS
;	COMDAT ??_R4CGraphicImageInstance@@6B@
rdata$r	SEGMENT
??_R4CGraphicImageInstance@@6B@ DD 00H			; CGraphicImageInstance::`RTTI Complete Object Locator'
	DD	00H
	DD	00H
	DD	FLAT:??_R0?AVCGraphicImageInstance@@@8
	DD	FLAT:??_R3CGraphicImageInstance@@8
rdata$r	ENDS
;	COMDAT ??_C@_0BA@FOIKENOD@vector?5too?5long@
CONST	SEGMENT
??_C@_0BA@FOIKENOD@vector?5too?5long@ DB 'vector too long', 00H ; `string'
CONST	ENDS
;	COMDAT ??_C@_0BB@GNLMPHOK@End?5Texture?$CF03d?6@
CONST	SEGMENT
??_C@_0BB@GNLMPHOK@End?5Texture?$CF03d?6@ DB 'End Texture%03d', 0aH, 00H ; `string'
CONST	ENDS
;	COMDAT ??_C@_08PFAGAKKH@?5?5?5?5?$CFhu?6@
CONST	SEGMENT
??_C@_08PFAGAKKH@?5?5?5?5?$CFhu?6@ DB '    %hu', 0aH, 00H ; `string'
CONST	ENDS
;	COMDAT ??_C@_07EIKGIFBE@?5?5?5?5?$CFd?6@
CONST	SEGMENT
??_C@_07EIKGIFBE@?5?5?5?5?$CFd?6@ DB '    %d', 0aH, 00H	; `string'
CONST	ENDS
;	COMDAT ??_C@_07ELCCFBHK@?5?5?5?5?$CFf?6@
CONST	SEGMENT
??_C@_07ELCCFBHK@?5?5?5?5?$CFf?6@ DB '    %f', 0aH, 00H	; `string'
CONST	ENDS
;	COMDAT ??_C@_09BMPLDMAP@?5?5?5?5?$CC?$CFs?$CC?6@
CONST	SEGMENT
??_C@_09BMPLDMAP@?5?5?5?5?$CC?$CFs?$CC?6@ DB '    "%s"', 0aH, 00H ; `string'
CONST	ENDS
;	COMDAT ??_C@_0BD@BJELLKNB@Start?5Texture?$CF03d?6@
CONST	SEGMENT
??_C@_0BD@BJELLKNB@Start?5Texture?$CF03d?6@ DB 'Start Texture%03d', 0aH, 00H ; `string'
CONST	ENDS
;	COMDAT ??_C@_0BC@GGJBGKJP@TextureCount?5?$CFld?6@
CONST	SEGMENT
??_C@_0BC@GGJBGKJP@TextureCount?5?$CFld?6@ DB 'TextureCount %ld', 0aH, 00H ; `string'
CONST	ENDS
;	COMDAT ??_C@_01EEMJAFIK@?6@
CONST	SEGMENT
??_C@_01EEMJAFIK@?6@ DB 0aH, 00H			; `string'
CONST	ENDS
;	COMDAT ??_C@_0M@MPCHGPBP@TextureSet?6@
CONST	SEGMENT
??_C@_0M@MPCHGPBP@TextureSet?6@ DB 'TextureSet', 0aH, 00H ; `string'
CONST	ENDS
;	COMDAT ??_C@_01NOFIACDB@w@
CONST	SEGMENT
??_C@_01NOFIACDB@w@ DB 'w', 00H				; `string'
CONST	ENDS
;	COMDAT ??_C@_0DL@BLPPCNGA@CTerrainImpl?3?3GenerateTexture?5?3@
CONST	SEGMENT
??_C@_0DL@BLPPCNGA@CTerrainImpl?3?3GenerateTexture?5?3@ DB 'CTerrainImpl:'
	DB	':GenerateTexture : It''s not an image file. %s', 00H ; `string'
CONST	ENDS
;	COMDAT ??_C@_0CJ@ELAAMMOC@Texture?5of?5the?5same?5name?5alread@
CONST	SEGMENT
??_C@_0CJ@ELAAMMOC@Texture?5of?5the?5same?5name?5alread@ DB 'Texture of t'
	DB	'he same name already exists.', 00H		; `string'
CONST	ENDS
;	COMDAT ??_C@_09OINHJNMP@Duplicate@
CONST	SEGMENT
??_C@_09OINHJNMP@Duplicate@ DB 'Duplicate', 00H		; `string'
CONST	ENDS
;	COMDAT ??_C@_0CG@GCCGCFA@You?5cannot?5add?5more?5than?5255?5te@
CONST	SEGMENT
??_C@_0CG@GCCGCFA@You?5cannot?5add?5more?5than?5255?5te@ DB 'You cannot a'
	DB	'dd more than 255 texture.', 00H		; `string'
CONST	ENDS
;	COMDAT ??_C@_0DF@JOIEGDLH@CTerrainImpl?3?3GenerateTexture?5?3@
CONST	SEGMENT
??_C@_0DF@JOIEGDLH@CTerrainImpl?3?3GenerateTexture?5?3@ DB 'CTerrainImpl:'
	DB	':GenerateTexture : %s is NOT Image File', 00H ; `string'
CONST	ENDS
;	COMDAT ??_C@_0FF@IFFABLMH@CTextureSet?3?3SetTexture?5?3?5Index@
CONST	SEGMENT
??_C@_0FF@IFFABLMH@CTextureSet?3?3SetTexture?5?3?5Index@ DB 'CTextureSet:'
	DB	':SetTexture : Index Error : Index(%d) is Larger than TextureS'
	DB	'et Size(%d)', 00H				; `string'
CONST	ENDS
;	COMDAT ??_C@_0DF@CFOIFDDM@CTextureSet?3?3Load?5?3?5SetTexture?5@
CONST	SEGMENT
??_C@_0DF@CFOIFDDM@CTextureSet?3?3Load?5?3?5SetTexture?5@ DB 'CTextureSet'
	DB	'::Load : SetTexture failed : Filename: %s', 00H ; `string'
CONST	ENDS
;	COMDAT ??_C@_0M@NDPMIDHE@texture?$CF03d@
CONST	SEGMENT
??_C@_0M@NDPMIDHE@texture?$CF03d@ DB 'texture%03d', 00H	; `string'
CONST	ENDS
;	COMDAT ??_C@_0DN@FCLAEMJC@TextureSet?3?3Load?5?3?5syntax?5error@
CONST	SEGMENT
??_C@_0DN@FCLAEMJC@TextureSet?3?3Load?5?3?5syntax?5error@ DB 'TextureSet:'
	DB	':Load : syntax error, TextureCount (filename: %s)', 00H ; `string'
CONST	ENDS
;	COMDAT ??_C@_0N@MMECMGAI@texturecount@
CONST	SEGMENT
??_C@_0N@MMECMGAI@texturecount@ DB 'texturecount', 00H	; `string'
CONST	ENDS
;	COMDAT ??_C@_0DL@HIELGKBC@TextureSet?3?3Load?5?3?5syntax?5error@
CONST	SEGMENT
??_C@_0DL@HIELGKBC@TextureSet?3?3Load?5?3?5syntax?5error@ DB 'TextureSet:'
	DB	':Load : syntax error, TextureSet (filename: %s)', 00H ; `string'
CONST	ENDS
;	COMDAT ??_C@_0L@FLIBEPMB@textureset@
CONST	SEGMENT
??_C@_0L@FLIBEPMB@textureset@ DB 'textureset', 00H	; `string'
CONST	ENDS
;	COMDAT ??_C@_0CC@NFEEIIKK@TextureSet?3?3Load?5?3?5cannot?5load?5@
CONST	SEGMENT
??_C@_0CC@NFEEIIKK@TextureSet?3?3Load?5?3?5cannot?5load?5@ DB 'TextureSet'
	DB	'::Load : cannot load %s', 00H		; `string'
CONST	ENDS
;	COMDAT ??_C@_0BP@PGALBFBK@d?3?1ymir?5work?1special?1error?4tga@
CONST	SEGMENT
??_C@_0BP@PGALBFBK@d?3?1ymir?5work?1special?1error?4tga@ DB 'd:/ymir work'
	DB	'/special/error.tga', 00H			; `string'
CONST	ENDS
;	COMDAT ??_7CTextureSet@@6B@
CONST	SEGMENT
??_7CTextureSet@@6B@ DD FLAT:??_R4CTextureSet@@6B@	; CTextureSet::`vftable'
	DD	FLAT:??_ECTextureSet@@UAEPAXI@Z
CONST	ENDS
;	COMDAT ??_7CGraphicImageInstance@@6B@
CONST	SEGMENT
??_7CGraphicImageInstance@@6B@ DD FLAT:??_R4CGraphicImageInstance@@6B@ ; CGraphicImageInstance::`vftable'
	DD	FLAT:??_ECGraphicImageInstance@@UAEPAXI@Z
	DD	FLAT:?OnRenderCoolTime@CGraphicImageInstance@@UAEXM@Z
	DD	FLAT:?OnRender@CGraphicImageInstance@@MAEXXZ
	DD	FLAT:?OnSetImagePointer@CGraphicImageInstance@@MAEXXZ
	DD	FLAT:?OnIsType@CGraphicImageInstance@@MAEHK@Z
CONST	ENDS
;	COMDAT ??_R1A@?0A@EA@bad_array_new_length@std@@8
rdata$r	SEGMENT
??_R1A@?0A@EA@bad_array_new_length@std@@8 DD FLAT:??_R0?AVbad_array_new_length@std@@@8 ; std::bad_array_new_length::`RTTI Base Class Descriptor at (0,-1,0,64)'
	DD	02H
	DD	00H
	DD	0ffffffffH
	DD	00H
	DD	040H
	DD	FLAT:??_R3bad_array_new_length@std@@8
rdata$r	ENDS
;	COMDAT ??_R2bad_array_new_length@std@@8
rdata$r	SEGMENT
??_R2bad_array_new_length@std@@8 DD FLAT:??_R1A@?0A@EA@bad_array_new_length@std@@8 ; std::bad_array_new_length::`RTTI Base Class Array'
	DD	FLAT:??_R1A@?0A@EA@bad_alloc@std@@8
	DD	FLAT:??_R1A@?0A@EA@exception@std@@8
rdata$r	ENDS
;	COMDAT ??_R3bad_array_new_length@std@@8
rdata$r	SEGMENT
??_R3bad_array_new_length@std@@8 DD 00H			; std::bad_array_new_length::`RTTI Class Hierarchy Descriptor'
	DD	00H
	DD	03H
	DD	FLAT:??_R2bad_array_new_length@std@@8
rdata$r	ENDS
;	COMDAT ??_R4bad_array_new_length@std@@6B@
rdata$r	SEGMENT
??_R4bad_array_new_length@std@@6B@ DD 00H		; std::bad_array_new_length::`RTTI Complete Object Locator'
	DD	00H
	DD	00H
	DD	FLAT:??_R0?AVbad_array_new_length@std@@@8
	DD	FLAT:??_R3bad_array_new_length@std@@8
rdata$r	ENDS
;	COMDAT ??_R1A@?0A@EA@bad_alloc@std@@8
rdata$r	SEGMENT
??_R1A@?0A@EA@bad_alloc@std@@8 DD FLAT:??_R0?AVbad_alloc@std@@@8 ; std::bad_alloc::`RTTI Base Class Descriptor at (0,-1,0,64)'
	DD	01H
	DD	00H
	DD	0ffffffffH
	DD	00H
	DD	040H
	DD	FLAT:??_R3bad_alloc@std@@8
rdata$r	ENDS
;	COMDAT ??_R2bad_alloc@std@@8
rdata$r	SEGMENT
??_R2bad_alloc@std@@8 DD FLAT:??_R1A@?0A@EA@bad_alloc@std@@8 ; std::bad_alloc::`RTTI Base Class Array'
	DD	FLAT:??_R1A@?0A@EA@exception@std@@8
rdata$r	ENDS
;	COMDAT ??_R3bad_alloc@std@@8
rdata$r	SEGMENT
??_R3bad_alloc@std@@8 DD 00H				; std::bad_alloc::`RTTI Class Hierarchy Descriptor'
	DD	00H
	DD	02H
	DD	FLAT:??_R2bad_alloc@std@@8
rdata$r	ENDS
;	COMDAT ??_R4bad_alloc@std@@6B@
rdata$r	SEGMENT
??_R4bad_alloc@std@@6B@ DD 00H				; std::bad_alloc::`RTTI Complete Object Locator'
	DD	00H
	DD	00H
	DD	FLAT:??_R0?AVbad_alloc@std@@@8
	DD	FLAT:??_R3bad_alloc@std@@8
rdata$r	ENDS
;	COMDAT ??_R1A@?0A@EA@exception@std@@8
rdata$r	SEGMENT
??_R1A@?0A@EA@exception@std@@8 DD FLAT:??_R0?AVexception@std@@@8 ; std::exception::`RTTI Base Class Descriptor at (0,-1,0,64)'
	DD	00H
	DD	00H
	DD	0ffffffffH
	DD	00H
	DD	040H
	DD	FLAT:??_R3exception@std@@8
rdata$r	ENDS
;	COMDAT ??_R2exception@std@@8
rdata$r	SEGMENT
??_R2exception@std@@8 DD FLAT:??_R1A@?0A@EA@exception@std@@8 ; std::exception::`RTTI Base Class Array'
rdata$r	ENDS
;	COMDAT ??_R3exception@std@@8
rdata$r	SEGMENT
??_R3exception@std@@8 DD 00H				; std::exception::`RTTI Class Hierarchy Descriptor'
	DD	00H
	DD	01H
	DD	FLAT:??_R2exception@std@@8
rdata$r	ENDS
;	COMDAT ??_R4exception@std@@6B@
rdata$r	SEGMENT
??_R4exception@std@@6B@ DD 00H				; std::exception::`RTTI Complete Object Locator'
	DD	00H
	DD	00H
	DD	FLAT:??_R0?AVexception@std@@@8
	DD	FLAT:??_R3exception@std@@8
rdata$r	ENDS
;	COMDAT ??_C@_0BB@GCADKGJO@map?1set?5too?5long@
CONST	SEGMENT
??_C@_0BB@GCADKGJO@map?1set?5too?5long@ DB 'map/set too long', 00H ; `string'
CONST	ENDS
;	COMDAT ??_C@_0BA@JFNIOLAK@string?5too?5long@
CONST	SEGMENT
??_C@_0BA@JFNIOLAK@string?5too?5long@ DB 'string too long', 00H ; `string'
CONST	ENDS
;	COMDAT __CT??_R0?AVexception@std@@@8??0exception@std@@QAE@ABV01@@Z12
xdata$x	SEGMENT
__CT??_R0?AVexception@std@@@8??0exception@std@@QAE@ABV01@@Z12 DD 00H
	DD	FLAT:??_R0?AVexception@std@@@8
	DD	00H
	DD	0ffffffffH
	ORG $+4
	DD	0cH
	DD	FLAT:??0exception@std@@QAE@ABV01@@Z
xdata$x	ENDS
;	COMDAT ??_R0?AVexception@std@@@8
data$r	SEGMENT
??_R0?AVexception@std@@@8 DD FLAT:??_7type_info@@6B@	; std::exception `RTTI Type Descriptor'
	DD	00H
	DB	'.?AVexception@std@@', 00H
data$r	ENDS
;	COMDAT __CT??_R0?AVbad_alloc@std@@@8??0bad_alloc@std@@QAE@ABV01@@Z12
xdata$x	SEGMENT
__CT??_R0?AVbad_alloc@std@@@8??0bad_alloc@std@@QAE@ABV01@@Z12 DD 010H
	DD	FLAT:??_R0?AVbad_alloc@std@@@8
	DD	00H
	DD	0ffffffffH
	ORG $+4
	DD	0cH
	DD	FLAT:??0bad_alloc@std@@QAE@ABV01@@Z
xdata$x	ENDS
;	COMDAT ??_R0?AVbad_alloc@std@@@8
data$r	SEGMENT
??_R0?AVbad_alloc@std@@@8 DD FLAT:??_7type_info@@6B@	; std::bad_alloc `RTTI Type Descriptor'
	DD	00H
	DB	'.?AVbad_alloc@std@@', 00H
data$r	ENDS
;	COMDAT __CT??_R0?AVbad_array_new_length@std@@@8??0bad_array_new_length@std@@QAE@ABV01@@Z12
xdata$x	SEGMENT
__CT??_R0?AVbad_array_new_length@std@@@8??0bad_array_new_length@std@@QAE@ABV01@@Z12 DD 00H
	DD	FLAT:??_R0?AVbad_array_new_length@std@@@8
	DD	00H
	DD	0ffffffffH
	ORG $+4
	DD	0cH
	DD	FLAT:??0bad_array_new_length@std@@QAE@ABV01@@Z
xdata$x	ENDS
;	COMDAT ??_R0?AVbad_array_new_length@std@@@8
data$r	SEGMENT
??_R0?AVbad_array_new_length@std@@@8 DD FLAT:??_7type_info@@6B@ ; std::bad_array_new_length `RTTI Type Descriptor'
	DD	00H
	DB	'.?AVbad_array_new_length@std@@', 00H
data$r	ENDS
;	COMDAT __CTA3?AVbad_array_new_length@std@@
xdata$x	SEGMENT
__CTA3?AVbad_array_new_length@std@@ DD 03H
	DD	FLAT:__CT??_R0?AVbad_array_new_length@std@@@8??0bad_array_new_length@std@@QAE@ABV01@@Z12
	DD	FLAT:__CT??_R0?AVbad_alloc@std@@@8??0bad_alloc@std@@QAE@ABV01@@Z12
	DD	FLAT:__CT??_R0?AVexception@std@@@8??0exception@std@@QAE@ABV01@@Z12
xdata$x	ENDS
;	COMDAT __TI3?AVbad_array_new_length@std@@
xdata$x	SEGMENT
__TI3?AVbad_array_new_length@std@@ DD 00H
	DD	FLAT:??1bad_array_new_length@std@@UAE@XZ
	DD	00H
	DD	FLAT:__CTA3?AVbad_array_new_length@std@@
xdata$x	ENDS
;	COMDAT ??_C@_0BF@KINCDENJ@bad?5array?5new?5length@
CONST	SEGMENT
??_C@_0BF@KINCDENJ@bad?5array?5new?5length@ DB 'bad array new length', 00H ; `string'
CONST	ENDS
;	COMDAT ??_7bad_array_new_length@std@@6B@
CONST	SEGMENT
??_7bad_array_new_length@std@@6B@ DD FLAT:??_R4bad_array_new_length@std@@6B@ ; std::bad_array_new_length::`vftable'
	DD	FLAT:??_Ebad_array_new_length@std@@UAEPAXI@Z
	DD	FLAT:?what@exception@std@@UBEPBDXZ
CONST	ENDS
;	COMDAT ??_7bad_alloc@std@@6B@
CONST	SEGMENT
??_7bad_alloc@std@@6B@ DD FLAT:??_R4bad_alloc@std@@6B@	; std::bad_alloc::`vftable'
	DD	FLAT:??_Ebad_alloc@std@@UAEPAXI@Z
	DD	FLAT:?what@exception@std@@UBEPBDXZ
CONST	ENDS
;	COMDAT ??_C@_0BC@EOODALEL@Unknown?5exception@
CONST	SEGMENT
??_C@_0BC@EOODALEL@Unknown?5exception@ DB 'Unknown exception', 00H ; `string'
CONST	ENDS
;	COMDAT ??_7exception@std@@6B@
CONST	SEGMENT
??_7exception@std@@6B@ DD FLAT:??_R4exception@std@@6B@	; std::exception::`vftable'
	DD	FLAT:??_Eexception@std@@UAEPAXI@Z
	DD	FLAT:?what@exception@std@@UBEPBDXZ
CONST	ENDS
;	COMDAT xdata$x
xdata$x	SEGMENT
__unwindtable$??$_Uninitialized_value_construct_n@V?$allocator@USTerrainTexture@@@std@@@std@@YAPAUSTerrainTexture@@PAU1@IAAV?$allocator@USTerrainTexture@@@0@@Z DD 0ffffffffH
	DD	FLAT:__unwindfunclet$??$_Uninitialized_value_construct_n@V?$allocator@USTerrainTexture@@@std@@@std@@YAPAUSTerrainTexture@@PAU1@IAAV?$allocator@USTerrainTexture@@@0@@Z$0
__ehfuncinfo$??$_Uninitialized_value_construct_n@V?$allocator@USTerrainTexture@@@std@@@std@@YAPAUSTerrainTexture@@PAU1@IAAV?$allocator@USTerrainTexture@@@0@@Z DD 019930522H
	DD	01H
	DD	FLAT:__unwindtable$??$_Uninitialized_value_construct_n@V?$allocator@USTerrainTexture@@@std@@@std@@YAPAUSTerrainTexture@@PAU1@IAAV?$allocator@USTerrainTexture@@@0@@Z
	DD	2 DUP(00H)
	DD	2 DUP(00H)
	DD	00H
	DD	01H
xdata$x	ENDS
;	COMDAT xdata$x
xdata$x	SEGMENT
__unwindtable$??$_Uninitialized_move@PAUSTerrainTexture@@V?$allocator@USTerrainTexture@@@std@@@std@@YAPAUSTerrainTexture@@QAU1@0PAU1@AAV?$allocator@USTerrainTexture@@@0@@Z DD 0ffffffffH
	DD	FLAT:__unwindfunclet$??$_Uninitialized_move@PAUSTerrainTexture@@V?$allocator@USTerrainTexture@@@std@@@std@@YAPAUSTerrainTexture@@QAU1@0PAU1@AAV?$allocator@USTerrainTexture@@@0@@Z$0
__ehfuncinfo$??$_Uninitialized_move@PAUSTerrainTexture@@V?$allocator@USTerrainTexture@@@std@@@std@@YAPAUSTerrainTexture@@QAU1@0PAU1@AAV?$allocator@USTerrainTexture@@@0@@Z DD 019930522H
	DD	01H
	DD	FLAT:__unwindtable$??$_Uninitialized_move@PAUSTerrainTexture@@V?$allocator@USTerrainTexture@@@std@@@std@@YAPAUSTerrainTexture@@QAU1@0PAU1@AAV?$allocator@USTerrainTexture@@@0@@Z
	DD	2 DUP(00H)
	DD	2 DUP(00H)
	DD	00H
	DD	01H
xdata$x	ENDS
;	COMDAT xdata$x
xdata$x	SEGMENT
__catchsym$??$_Resize_reallocate@U_Value_init_tag@std@@@?$vector@USTerrainTexture@@V?$allocator@USTerrainTexture@@@std@@@std@@AAEXIABU_Value_init_tag@1@@Z$2 DD 040H
	DD	00H
	DD	00H
	DD	FLAT:__catch$??$_Resize_reallocate@U_Value_init_tag@std@@@?$vector@USTerrainTexture@@V?$allocator@USTerrainTexture@@@std@@@std@@AAEXIABU_Value_init_tag@1@@Z$0
__unwindtable$??$_Resize_reallocate@U_Value_init_tag@std@@@?$vector@USTerrainTexture@@V?$allocator@USTerrainTexture@@@std@@@std@@AAEXIABU_Value_init_tag@1@@Z DD 0ffffffffH
	DD	00H
	DD	0ffffffffH
	DD	00H
__tryblocktable$??$_Resize_reallocate@U_Value_init_tag@std@@@?$vector@USTerrainTexture@@V?$allocator@USTerrainTexture@@@std@@@std@@AAEXIABU_Value_init_tag@1@@Z DD 00H
	DD	00H
	DD	01H
	DD	01H
	DD	FLAT:__catchsym$??$_Resize_reallocate@U_Value_init_tag@std@@@?$vector@USTerrainTexture@@V?$allocator@USTerrainTexture@@@std@@@std@@AAEXIABU_Value_init_tag@1@@Z$2
__ehfuncinfo$??$_Resize_reallocate@U_Value_init_tag@std@@@?$vector@USTerrainTexture@@V?$allocator@USTerrainTexture@@@std@@@std@@AAEXIABU_Value_init_tag@1@@Z DD 019930522H
	DD	02H
	DD	FLAT:__unwindtable$??$_Resize_reallocate@U_Value_init_tag@std@@@?$vector@USTerrainTexture@@V?$allocator@USTerrainTexture@@@std@@@std@@AAEXIABU_Value_init_tag@1@@Z
	DD	01H
	DD	FLAT:__tryblocktable$??$_Resize_reallocate@U_Value_init_tag@std@@@?$vector@USTerrainTexture@@V?$allocator@USTerrainTexture@@@std@@@std@@AAEXIABU_Value_init_tag@1@@Z
	DD	2 DUP(00H)
	DD	00H
	DD	01H
xdata$x	ENDS
;	COMDAT xdata$x
xdata$x	SEGMENT
__unwindtable$??$?0ABUpiecewise_construct_t@std@@V?$tuple@$$QAV?$basic_string@DU?$char_traits@D@std@@V?$allocator@D@2@@std@@@1@V?$tuple@$$V@1@@?$_Tree_temp_node@V?$allocator@U?$_Tree_node@U?$pair@$$CBV?$basic_string@DU?$char_traits@D@std@@V?$allocator@D@2@@std@@V?$vector@V?$basic_string@DU?$char_traits@D@std@@V?$allocator@D@2@@std@@V?$allocator@V?$basic_string@DU?$char_traits@D@std@@V?$allocator@D@2@@std@@@2@@2@@std@@PAX@std@@@std@@@std@@QAE@AAV?$allocator@U?$_Tree_node@U?$pair@$$CBV?$basic_string@DU?$char_traits@D@std@@V?$allocator@D@2@@std@@V?$vector@V?$basic_string@DU?$char_traits@D@std@@V?$allocator@D@2@@std@@V?$allocator@V?$basic_string@DU?$char_traits@D@std@@V?$allocator@D@2@@std@@@2@@2@@std@@PAX@std@@@1@PAU?$_Tree_node@U?$pair@$$CBV?$basic_string@DU?$char_traits@D@std@@V?$allocator@D@2@@std@@V?$vector@V?$basic_string@DU?$char_traits@D@std@@V?$allocator@D@2@@std@@V?$allocator@V?$basic_string@DU?$char_traits@D@std@@V?$allocator@D@2@@std@@@2@@2@@std@@PAX@1@ABUpiecewise_construct_t@1@$$QAV?$tuple@$$QAV?$basic_string@DU?$char_traits@D@std@@V?$allocator@D@2@@std@@@1@$$QAV?$tuple@$$V@1@@Z DD 0ffffffffH
	DD	FLAT:__unwindfunclet$??$?0ABUpiecewise_construct_t@std@@V?$tuple@$$QAV?$basic_string@DU?$char_traits@D@std@@V?$allocator@D@2@@std@@@1@V?$tuple@$$V@1@@?$_Tree_temp_node@V?$allocator@U?$_Tree_node@U?$pair@$$CBV?$basic_string@DU?$char_traits@D@std@@V?$allocator@D@2@@std@@V?$vector@V?$basic_string@DU?$char_traits@D@std@@V?$allocator@D@2@@std@@V?$allocator@V?$basic_string@DU?$char_traits@D@std@@V?$allocator@D@2@@std@@@2@@2@@std@@PAX@std@@@std@@@std@@QAE@AAV?$allocator@U?$_Tree_node@U?$pair@$$CBV?$basic_string@DU?$char_traits@D@std@@V?$allocator@D@2@@std@@V?$vector@V?$basic_string@DU?$char_traits@D@std@@V?$allocator@D@2@@std@@V?$allocator@V?$basic_string@DU?$char_traits@D@std@@V?$allocator@D@2@@std@@@2@@2@@std@@PAX@std@@@1@PAU?$_Tree_node@U?$pair@$$CBV?$basic_string@DU?$char_traits@D@std@@V?$allocator@D@2@@std@@V?$vector@V?$basic_string@DU?$char_traits@D@std@@V?$allocator@D@2@@std@@V?$allocator@V?$basic_string@DU?$char_traits@D@std@@V?$allocator@D@2@@std@@@2@@2@@std@@PAX@1@ABUpiecewise_construct_t@1@$$QAV?$tuple@$$QAV?$basic_string@DU?$char_traits@D@std@@V?$allocator@D@2@@std@@@1@$$QAV?$tuple@$$V@1@@Z$1
__ehfuncinfo$??$?0ABUpiecewise_construct_t@std@@V?$tuple@$$QAV?$basic_string@DU?$char_traits@D@std@@V?$allocator@D@2@@std@@@1@V?$tuple@$$V@1@@?$_Tree_temp_node@V?$allocator@U?$_Tree_node@U?$pair@$$CBV?$basic_string@DU?$char_traits@D@std@@V?$allocator@D@2@@std@@V?$vector@V?$basic_string@DU?$char_traits@D@std@@V?$allocator@D@2@@std@@V?$allocator@V?$basic_string@DU?$char_traits@D@std@@V?$allocator@D@2@@std@@@2@@2@@std@@PAX@std@@@std@@@std@@QAE@AAV?$allocator@U?$_Tree_node@U?$pair@$$CBV?$basic_string@DU?$char_traits@D@std@@V?$allocator@D@2@@std@@V?$vector@V?$basic_string@DU?$char_traits@D@std@@V?$allocator@D@2@@std@@V?$allocator@V?$basic_string@DU?$char_traits@D@std@@V?$allocator@D@2@@std@@@2@@2@@std@@PAX@std@@@1@PAU?$_Tree_node@U?$pair@$$CBV?$basic_string@DU?$char_traits@D@std@@V?$allocator@D@2@@std@@V?$vector@V?$basic_string@DU?$char_traits@D@std@@V?$allocator@D@2@@std@@V?$allocator@V?$basic_string@DU?$char_traits@D@std@@V?$allocator@D@2@@std@@@2@@2@@std@@PAX@1@ABUpiecewise_construct_t@1@$$QAV?$tuple@$$QAV?$basic_string@DU?$char_traits@D@std@@V?$allocator@D@2@@std@@@1@$$QAV?$tuple@$$V@1@@Z DD 019930522H
	DD	01H
	DD	FLAT:__unwindtable$??$?0ABUpiecewise_construct_t@std@@V?$tuple@$$QAV?$basic_string@DU?$char_traits@D@std@@V?$allocator@D@2@@std@@@1@V?$tuple@$$V@1@@?$_Tree_temp_node@V?$allocator@U?$_Tree_node@U?$pair@$$CBV?$basic_string@DU?$char_traits@D@std@@V?$allocator@D@2@@std@@V?$vector@V?$basic_string@DU?$char_traits@D@std@@V?$allocator@D@2@@std@@V?$allocator@V?$basic_string@DU?$char_traits@D@std@@V?$allocator@D@2@@std@@@2@@2@@std@@PAX@std@@@std@@@std@@QAE@AAV?$allocator@U?$_Tree_node@U?$pair@$$CBV?$basic_string@DU?$char_traits@D@std@@V?$allocator@D@2@@std@@V?$vector@V?$basic_string@DU?$char_traits@D@std@@V?$allocator@D@2@@std@@V?$allocator@V?$basic_string@DU?$char_traits@D@std@@V?$allocator@D@2@@std@@@2@@2@@std@@PAX@std@@@1@PAU?$_Tree_node@U?$pair@$$CBV?$basic_string@DU?$char_traits@D@std@@V?$allocator@D@2@@std@@V?$vector@V?$basic_string@DU?$char_traits@D@std@@V?$allocator@D@2@@std@@V?$allocator@V?$basic_string@DU?$char_traits@D@std@@V?$allocator@D@2@@std@@@2@@2@@std@@PAX@1@ABUpiecewise_construct_t@1@$$QAV?$tuple@$$QAV?$basic_string@DU?$char_traits@D@std@@V?$allocator@D@2@@std@@@1@$$QAV?$tuple@$$V@1@@Z
	DD	2 DUP(00H)
	DD	2 DUP(00H)
	DD	00H
	DD	01H
xdata$x	ENDS
;	COMDAT xdata$x
xdata$x	SEGMENT
__unwindtable$??0?$_Tree_temp_node_alloc@V?$allocator@U?$_Tree_node@U?$pair@$$CBV?$basic_string@DU?$char_traits@D@std@@V?$allocator@D@2@@std@@V?$vector@V?$basic_string@DU?$char_traits@D@std@@V?$allocator@D@2@@std@@V?$allocator@V?$basic_string@DU?$char_traits@D@std@@V?$allocator@D@2@@std@@@2@@2@@std@@PAX@std@@@std@@@std@@QAE@AAV?$allocator@U?$_Tree_node@U?$pair@$$CBV?$basic_string@DU?$char_traits@D@std@@V?$allocator@D@2@@std@@V?$vector@V?$basic_string@DU?$char_traits@D@std@@V?$allocator@D@2@@std@@V?$allocator@V?$basic_string@DU?$char_traits@D@std@@V?$allocator@D@2@@std@@@2@@2@@std@@PAX@std@@@1@@Z DD 0ffffffffH
	DD	FLAT:__unwindfunclet$??0?$_Tree_temp_node_alloc@V?$allocator@U?$_Tree_node@U?$pair@$$CBV?$basic_string@DU?$char_traits@D@std@@V?$allocator@D@2@@std@@V?$vector@V?$basic_string@DU?$char_traits@D@std@@V?$allocator@D@2@@std@@V?$allocator@V?$basic_string@DU?$char_traits@D@std@@V?$allocator@D@2@@std@@@2@@2@@std@@PAX@std@@@std@@@std@@QAE@AAV?$allocator@U?$_Tree_node@U?$pair@$$CBV?$basic_string@DU?$char_traits@D@std@@V?$allocator@D@2@@std@@V?$vector@V?$basic_string@DU?$char_traits@D@std@@V?$allocator@D@2@@std@@V?$allocator@V?$basic_string@DU?$char_traits@D@std@@V?$allocator@D@2@@std@@@2@@2@@std@@PAX@std@@@1@@Z$0
__ehfuncinfo$??0?$_Tree_temp_node_alloc@V?$allocator@U?$_Tree_node@U?$pair@$$CBV?$basic_string@DU?$char_traits@D@std@@V?$allocator@D@2@@std@@V?$vector@V?$basic_string@DU?$char_traits@D@std@@V?$allocator@D@2@@std@@V?$allocator@V?$basic_string@DU?$char_traits@D@std@@V?$allocator@D@2@@std@@@2@@2@@std@@PAX@std@@@std@@@std@@QAE@AAV?$allocator@U?$_Tree_node@U?$pair@$$CBV?$basic_string@DU?$char_traits@D@std@@V?$allocator@D@2@@std@@V?$vector@V?$basic_string@DU?$char_traits@D@std@@V?$allocator@D@2@@std@@V?$allocator@V?$basic_string@DU?$char_traits@D@std@@V?$allocator@D@2@@std@@@2@@2@@std@@PAX@std@@@1@@Z DD 019930522H
	DD	01H
	DD	FLAT:__unwindtable$??0?$_Tree_temp_node_alloc@V?$allocator@U?$_Tree_node@U?$pair@$$CBV?$basic_string@DU?$char_traits@D@std@@V?$allocator@D@2@@std@@V?$vector@V?$basic_string@DU?$char_traits@D@std@@V?$allocator@D@2@@std@@V?$allocator@V?$basic_string@DU?$char_traits@D@std@@V?$allocator@D@2@@std@@@2@@2@@std@@PAX@std@@@std@@@std@@QAE@AAV?$allocator@U?$_Tree_node@U?$pair@$$CBV?$basic_string@DU?$char_traits@D@std@@V?$allocator@D@2@@std@@V?$vector@V?$basic_string@DU?$char_traits@D@std@@V?$allocator@D@2@@std@@V?$allocator@V?$basic_string@DU?$char_traits@D@std@@V?$allocator@D@2@@std@@@2@@2@@std@@PAX@std@@@1@@Z
	DD	2 DUP(00H)
	DD	2 DUP(00H)
	DD	00H
	DD	01H
xdata$x	ENDS
;	COMDAT xdata$x
xdata$x	SEGMENT
__unwindtable$??$_Uninitialized_copy@PAUSTerrainTexture@@V?$allocator@USTerrainTexture@@@std@@@std@@YAPAUSTerrainTexture@@QAU1@0PAU1@AAV?$allocator@USTerrainTexture@@@0@@Z DD 0ffffffffH
	DD	FLAT:__unwindfunclet$??$_Uninitialized_copy@PAUSTerrainTexture@@V?$allocator@USTerrainTexture@@@std@@@std@@YAPAUSTerrainTexture@@QAU1@0PAU1@AAV?$allocator@USTerrainTexture@@@0@@Z$0
__ehfuncinfo$??$_Uninitialized_copy@PAUSTerrainTexture@@V?$allocator@USTerrainTexture@@@std@@@std@@YAPAUSTerrainTexture@@QAU1@0PAU1@AAV?$allocator@USTerrainTexture@@@0@@Z DD 019930522H
	DD	01H
	DD	FLAT:__unwindtable$??$_Uninitialized_copy@PAUSTerrainTexture@@V?$allocator@USTerrainTexture@@@std@@@std@@YAPAUSTerrainTexture@@QAU1@0PAU1@AAV?$allocator@USTerrainTexture@@@0@@Z
	DD	2 DUP(00H)
	DD	2 DUP(00H)
	DD	00H
	DD	01H
xdata$x	ENDS
;	COMDAT xdata$x
xdata$x	SEGMENT
__catchsym$??$_Emplace_reallocate@ABUSTerrainTexture@@@?$vector@USTerrainTexture@@V?$allocator@USTerrainTexture@@@std@@@std@@QAEPAUSTerrainTexture@@QAU2@ABU2@@Z$2 DD 040H
	DD	00H
	DD	00H
	DD	FLAT:__catch$??$_Emplace_reallocate@ABUSTerrainTexture@@@?$vector@USTerrainTexture@@V?$allocator@USTerrainTexture@@@std@@@std@@QAEPAUSTerrainTexture@@QAU2@ABU2@@Z$0
__unwindtable$??$_Emplace_reallocate@ABUSTerrainTexture@@@?$vector@USTerrainTexture@@V?$allocator@USTerrainTexture@@@std@@@std@@QAEPAUSTerrainTexture@@QAU2@ABU2@@Z DD 0ffffffffH
	DD	00H
	DD	0ffffffffH
	DD	00H
__tryblocktable$??$_Emplace_reallocate@ABUSTerrainTexture@@@?$vector@USTerrainTexture@@V?$allocator@USTerrainTexture@@@std@@@std@@QAEPAUSTerrainTexture@@QAU2@ABU2@@Z DD 00H
	DD	00H
	DD	01H
	DD	01H
	DD	FLAT:__catchsym$??$_Emplace_reallocate@ABUSTerrainTexture@@@?$vector@USTerrainTexture@@V?$allocator@USTerrainTexture@@@std@@@std@@QAEPAUSTerrainTexture@@QAU2@ABU2@@Z$2
__ehfuncinfo$??$_Emplace_reallocate@ABUSTerrainTexture@@@?$vector@USTerrainTexture@@V?$allocator@USTerrainTexture@@@std@@@std@@QAEPAUSTerrainTexture@@QAU2@ABU2@@Z DD 019930522H
	DD	02H
	DD	FLAT:__unwindtable$??$_Emplace_reallocate@ABUSTerrainTexture@@@?$vector@USTerrainTexture@@V?$allocator@USTerrainTexture@@@std@@@std@@QAEPAUSTerrainTexture@@QAU2@ABU2@@Z
	DD	01H
	DD	FLAT:__tryblocktable$??$_Emplace_reallocate@ABUSTerrainTexture@@@?$vector@USTerrainTexture@@V?$allocator@USTerrainTexture@@@std@@@std@@QAEPAUSTerrainTexture@@QAU2@ABU2@@Z
	DD	2 DUP(00H)
	DD	00H
	DD	01H
xdata$x	ENDS
;	COMDAT xdata$x
xdata$x	SEGMENT
__unwindtable$??$_Try_emplace@V?$basic_string@DU?$char_traits@D@std@@V?$allocator@D@2@@std@@$$V@?$map@V?$basic_string@DU?$char_traits@D@std@@V?$allocator@D@2@@std@@V?$vector@V?$basic_string@DU?$char_traits@D@std@@V?$allocator@D@2@@std@@V?$allocator@V?$basic_string@DU?$char_traits@D@std@@V?$allocator@D@2@@std@@@2@@2@U?$less@V?$basic_string@DU?$char_traits@D@std@@V?$allocator@D@2@@std@@@2@V?$allocator@U?$pair@$$CBV?$basic_string@DU?$char_traits@D@std@@V?$allocator@D@2@@std@@V?$vector@V?$basic_string@DU?$char_traits@D@std@@V?$allocator@D@2@@std@@V?$allocator@V?$basic_string@DU?$char_traits@D@std@@V?$allocator@D@2@@std@@@2@@2@@std@@@2@@std@@AAE?AU?$pair@PAU?$_Tree_node@U?$pair@$$CBV?$basic_string@DU?$char_traits@D@std@@V?$allocator@D@2@@std@@V?$vector@V?$basic_string@DU?$char_traits@D@std@@V?$allocator@D@2@@std@@V?$allocator@V?$basic_string@DU?$char_traits@D@std@@V?$allocator@D@2@@std@@@2@@2@@std@@PAX@std@@_N@1@$$QAV?$basic_string@DU?$char_traits@D@std@@V?$allocator@D@2@@1@@Z DD 0ffffffffH
	DD	FLAT:__unwindfunclet$??$_Try_emplace@V?$basic_string@DU?$char_traits@D@std@@V?$allocator@D@2@@std@@$$V@?$map@V?$basic_string@DU?$char_traits@D@std@@V?$allocator@D@2@@std@@V?$vector@V?$basic_string@DU?$char_traits@D@std@@V?$allocator@D@2@@std@@V?$allocator@V?$basic_string@DU?$char_traits@D@std@@V?$allocator@D@2@@std@@@2@@2@U?$less@V?$basic_string@DU?$char_traits@D@std@@V?$allocator@D@2@@std@@@2@V?$allocator@U?$pair@$$CBV?$basic_string@DU?$char_traits@D@std@@V?$allocator@D@2@@std@@V?$vector@V?$basic_string@DU?$char_traits@D@std@@V?$allocator@D@2@@std@@V?$allocator@V?$basic_string@DU?$char_traits@D@std@@V?$allocator@D@2@@std@@@2@@2@@std@@@2@@std@@AAE?AU?$pair@PAU?$_Tree_node@U?$pair@$$CBV?$basic_string@DU?$char_traits@D@std@@V?$allocator@D@2@@std@@V?$vector@V?$basic_string@DU?$char_traits@D@std@@V?$allocator@D@2@@std@@V?$allocator@V?$basic_string@DU?$char_traits@D@std@@V?$allocator@D@2@@std@@@2@@2@@std@@PAX@std@@_N@1@$$QAV?$basic_string@DU?$char_traits@D@std@@V?$allocator@D@2@@1@@Z$2
__ehfuncinfo$??$_Try_emplace@V?$basic_string@DU?$char_traits@D@std@@V?$allocator@D@2@@std@@$$V@?$map@V?$basic_string@DU?$char_traits@D@std@@V?$allocator@D@2@@std@@V?$vector@V?$basic_string@DU?$char_traits@D@std@@V?$allocator@D@2@@std@@V?$allocator@V?$basic_string@DU?$char_traits@D@std@@V?$allocator@D@2@@std@@@2@@2@U?$less@V?$basic_string@DU?$char_traits@D@std@@V?$allocator@D@2@@std@@@2@V?$allocator@U?$pair@$$CBV?$basic_string@DU?$char_traits@D@std@@V?$allocator@D@2@@std@@V?$vector@V?$basic_string@DU?$char_traits@D@std@@V?$allocator@D@2@@std@@V?$allocator@V?$basic_string@DU?$char_traits@D@std@@V?$allocator@D@2@@std@@@2@@2@@std@@@2@@std@@AAE?AU?$pair@PAU?$_Tree_node@U?$pair@$$CBV?$basic_string@DU?$char_traits@D@std@@V?$allocator@D@2@@std@@V?$vector@V?$basic_string@DU?$char_traits@D@std@@V?$allocator@D@2@@std@@V?$allocator@V?$basic_string@DU?$char_traits@D@std@@V?$allocator@D@2@@std@@@2@@2@@std@@PAX@std@@_N@1@$$QAV?$basic_string@DU?$char_traits@D@std@@V?$allocator@D@2@@1@@Z DD 019930522H
	DD	01H
	DD	FLAT:__unwindtable$??$_Try_emplace@V?$basic_string@DU?$char_traits@D@std@@V?$allocator@D@2@@std@@$$V@?$map@V?$basic_string@DU?$char_traits@D@std@@V?$allocator@D@2@@std@@V?$vector@V?$basic_string@DU?$char_traits@D@std@@V?$allocator@D@2@@std@@V?$allocator@V?$basic_string@DU?$char_traits@D@std@@V?$allocator@D@2@@std@@@2@@2@U?$less@V?$basic_string@DU?$char_traits@D@std@@V?$allocator@D@2@@std@@@2@V?$allocator@U?$pair@$$CBV?$basic_string@DU?$char_traits@D@std@@V?$allocator@D@2@@std@@V?$vector@V?$basic_string@DU?$char_traits@D@std@@V?$allocator@D@2@@std@@V?$allocator@V?$basic_string@DU?$char_traits@D@std@@V?$allocator@D@2@@std@@@2@@2@@std@@@2@@std@@AAE?AU?$pair@PAU?$_Tree_node@U?$pair@$$CBV?$basic_string@DU?$char_traits@D@std@@V?$allocator@D@2@@std@@V?$vector@V?$basic_string@DU?$char_traits@D@std@@V?$allocator@D@2@@std@@V?$allocator@V?$basic_string@DU?$char_traits@D@std@@V?$allocator@D@2@@std@@@2@@2@@std@@PAX@std@@_N@1@$$QAV?$basic_string@DU?$char_traits@D@std@@V?$allocator@D@2@@1@@Z
	DD	2 DUP(00H)
	DD	2 DUP(00H)
	DD	00H
	DD	01H
xdata$x	ENDS
;	COMDAT xdata$x
xdata$x	SEGMENT
__unwindtable$??A?$map@V?$basic_string@DU?$char_traits@D@std@@V?$allocator@D@2@@std@@V?$vector@V?$basic_string@DU?$char_traits@D@std@@V?$allocator@D@2@@std@@V?$allocator@V?$basic_string@DU?$char_traits@D@std@@V?$allocator@D@2@@std@@@2@@2@U?$less@V?$basic_string@DU?$char_traits@D@std@@V?$allocator@D@2@@std@@@2@V?$allocator@U?$pair@$$CBV?$basic_string@DU?$char_traits@D@std@@V?$allocator@D@2@@std@@V?$vector@V?$basic_string@DU?$char_traits@D@std@@V?$allocator@D@2@@std@@V?$allocator@V?$basic_string@DU?$char_traits@D@std@@V?$allocator@D@2@@std@@@2@@2@@std@@@2@@std@@QAEAAV?$vector@V?$basic_string@DU?$char_traits@D@std@@V?$allocator@D@2@@std@@V?$allocator@V?$basic_string@DU?$char_traits@D@std@@V?$allocator@D@2@@std@@@2@@1@$$QAV?$basic_string@DU?$char_traits@D@std@@V?$allocator@D@2@@1@@Z DD 0ffffffffH
	DD	FLAT:__unwindfunclet$??A?$map@V?$basic_string@DU?$char_traits@D@std@@V?$allocator@D@2@@std@@V?$vector@V?$basic_string@DU?$char_traits@D@std@@V?$allocator@D@2@@std@@V?$allocator@V?$basic_string@DU?$char_traits@D@std@@V?$allocator@D@2@@std@@@2@@2@U?$less@V?$basic_string@DU?$char_traits@D@std@@V?$allocator@D@2@@std@@@2@V?$allocator@U?$pair@$$CBV?$basic_string@DU?$char_traits@D@std@@V?$allocator@D@2@@std@@V?$vector@V?$basic_string@DU?$char_traits@D@std@@V?$allocator@D@2@@std@@V?$allocator@V?$basic_string@DU?$char_traits@D@std@@V?$allocator@D@2@@std@@@2@@2@@std@@@2@@std@@QAEAAV?$vector@V?$basic_string@DU?$char_traits@D@std@@V?$allocator@D@2@@std@@V?$allocator@V?$basic_string@DU?$char_traits@D@std@@V?$allocator@D@2@@std@@@2@@1@$$QAV?$basic_string@DU?$char_traits@D@std@@V?$allocator@D@2@@1@@Z$2
__ehfuncinfo$??A?$map@V?$basic_string@DU?$char_traits@D@std@@V?$allocator@D@2@@std@@V?$vector@V?$basic_string@DU?$char_traits@D@std@@V?$allocator@D@2@@std@@V?$allocator@V?$basic_string@DU?$char_traits@D@std@@V?$allocator@D@2@@std@@@2@@2@U?$less@V?$basic_string@DU?$char_traits@D@std@@V?$allocator@D@2@@std@@@2@V?$allocator@U?$pair@$$CBV?$basic_string@DU?$char_traits@D@std@@V?$allocator@D@2@@std@@V?$vector@V?$basic_string@DU?$char_traits@D@std@@V?$allocator@D@2@@std@@V?$allocator@V?$basic_string@DU?$char_traits@D@std@@V?$allocator@D@2@@std@@@2@@2@@std@@@2@@std@@QAEAAV?$vector@V?$basic_string@DU?$char_traits@D@std@@V?$allocator@D@2@@std@@V?$allocator@V?$basic_string@DU?$char_traits@D@std@@V?$allocator@D@2@@std@@@2@@1@$$QAV?$basic_string@DU?$char_traits@D@std@@V?$allocator@D@2@@1@@Z DD 019930522H
	DD	01H
	DD	FLAT:__unwindtable$??A?$map@V?$basic_string@DU?$char_traits@D@std@@V?$allocator@D@2@@std@@V?$vector@V?$basic_string@DU?$char_traits@D@std@@V?$allocator@D@2@@std@@V?$allocator@V?$basic_string@DU?$char_traits@D@std@@V?$allocator@D@2@@std@@@2@@2@U?$less@V?$basic_string@DU?$char_traits@D@std@@V?$allocator@D@2@@std@@@2@V?$allocator@U?$pair@$$CBV?$basic_string@DU?$char_traits@D@std@@V?$allocator@D@2@@std@@V?$vector@V?$basic_string@DU?$char_traits@D@std@@V?$allocator@D@2@@std@@V?$allocator@V?$basic_string@DU?$char_traits@D@std@@V?$allocator@D@2@@std@@@2@@2@@std@@@2@@std@@QAEAAV?$vector@V?$basic_string@DU?$char_traits@D@std@@V?$allocator@D@2@@std@@V?$allocator@V?$basic_string@DU?$char_traits@D@std@@V?$allocator@D@2@@std@@@2@@1@$$QAV?$basic_string@DU?$char_traits@D@std@@V?$allocator@D@2@@1@@Z
	DD	2 DUP(00H)
	DD	2 DUP(00H)
	DD	00H
	DD	01H
xdata$x	ENDS
;	COMDAT xdata$x
xdata$x	SEGMENT
__unwindtable$?_Umove_if_noexcept@?$vector@USTerrainTexture@@V?$allocator@USTerrainTexture@@@std@@@std@@AAEXPAUSTerrainTexture@@00@Z DD 0ffffffffH
	DD	FLAT:__unwindfunclet$?_Umove_if_noexcept@?$vector@USTerrainTexture@@V?$allocator@USTerrainTexture@@@std@@@std@@AAEXPAUSTerrainTexture@@00@Z$0
__ehfuncinfo$?_Umove_if_noexcept@?$vector@USTerrainTexture@@V?$allocator@USTerrainTexture@@@std@@@std@@AAEXPAUSTerrainTexture@@00@Z DD 019930522H
	DD	01H
	DD	FLAT:__unwindtable$?_Umove_if_noexcept@?$vector@USTerrainTexture@@V?$allocator@USTerrainTexture@@@std@@@std@@AAEXPAUSTerrainTexture@@00@Z
	DD	2 DUP(00H)
	DD	2 DUP(00H)
	DD	00H
	DD	01H
xdata$x	ENDS
;	COMDAT xdata$x
xdata$x	SEGMENT
__unwindtable$?_Umove_if_noexcept1@?$vector@USTerrainTexture@@V?$allocator@USTerrainTexture@@@std@@@std@@AAEXPAUSTerrainTexture@@00U?$integral_constant@_N$0A@@2@@Z DD 0ffffffffH
	DD	FLAT:__unwindfunclet$?_Umove_if_noexcept1@?$vector@USTerrainTexture@@V?$allocator@USTerrainTexture@@@std@@@std@@AAEXPAUSTerrainTexture@@00U?$integral_constant@_N$0A@@2@@Z$0
__ehfuncinfo$?_Umove_if_noexcept1@?$vector@USTerrainTexture@@V?$allocator@USTerrainTexture@@@std@@@std@@AAEXPAUSTerrainTexture@@00U?$integral_constant@_N$0A@@2@@Z DD 019930522H
	DD	01H
	DD	FLAT:__unwindtable$?_Umove_if_noexcept1@?$vector@USTerrainTexture@@V?$allocator@USTerrainTexture@@@std@@@std@@AAEXPAUSTerrainTexture@@00U?$integral_constant@_N$0A@@2@@Z
	DD	2 DUP(00H)
	DD	2 DUP(00H)
	DD	00H
	DD	01H
xdata$x	ENDS
;	COMDAT xdata$x
xdata$x	SEGMENT
__unwindtable$?_Umove@?$vector@USTerrainTexture@@V?$allocator@USTerrainTexture@@@std@@@std@@AAEPAUSTerrainTexture@@PAU3@00@Z DD 0ffffffffH
	DD	FLAT:__unwindfunclet$?_Umove@?$vector@USTerrainTexture@@V?$allocator@USTerrainTexture@@@std@@@std@@AAEPAUSTerrainTexture@@PAU3@00@Z$0
__ehfuncinfo$?_Umove@?$vector@USTerrainTexture@@V?$allocator@USTerrainTexture@@@std@@@std@@AAEPAUSTerrainTexture@@PAU3@00@Z DD 019930522H
	DD	01H
	DD	FLAT:__unwindtable$?_Umove@?$vector@USTerrainTexture@@V?$allocator@USTerrainTexture@@@std@@@std@@AAEPAUSTerrainTexture@@PAU3@00@Z
	DD	2 DUP(00H)
	DD	2 DUP(00H)
	DD	00H
	DD	01H
xdata$x	ENDS
;	COMDAT xdata$x
xdata$x	SEGMENT
__unwindtable$?_Ufill@?$vector@USTerrainTexture@@V?$allocator@USTerrainTexture@@@std@@@std@@AAEPAUSTerrainTexture@@PAU3@IU_Value_init_tag@2@@Z DD 0ffffffffH
	DD	FLAT:__unwindfunclet$?_Ufill@?$vector@USTerrainTexture@@V?$allocator@USTerrainTexture@@@std@@@std@@AAEPAUSTerrainTexture@@PAU3@IU_Value_init_tag@2@@Z$0
__ehfuncinfo$?_Ufill@?$vector@USTerrainTexture@@V?$allocator@USTerrainTexture@@@std@@@std@@AAEPAUSTerrainTexture@@PAU3@IU_Value_init_tag@2@@Z DD 019930522H
	DD	01H
	DD	FLAT:__unwindtable$?_Ufill@?$vector@USTerrainTexture@@V?$allocator@USTerrainTexture@@@std@@@std@@AAEPAUSTerrainTexture@@PAU3@IU_Value_init_tag@2@@Z
	DD	2 DUP(00H)
	DD	2 DUP(00H)
	DD	00H
	DD	01H
xdata$x	ENDS
;	COMDAT xdata$x
xdata$x	SEGMENT
__catchsym$?_Reallocate_exactly@?$vector@USTerrainTexture@@V?$allocator@USTerrainTexture@@@std@@@std@@AAEXI@Z$2 DD 040H
	DD	00H
	DD	00H
	DD	FLAT:__catch$?_Reallocate_exactly@?$vector@USTerrainTexture@@V?$allocator@USTerrainTexture@@@std@@@std@@AAEXI@Z$0
__unwindtable$?_Reallocate_exactly@?$vector@USTerrainTexture@@V?$allocator@USTerrainTexture@@@std@@@std@@AAEXI@Z DD 0ffffffffH
	DD	00H
	DD	0ffffffffH
	DD	00H
__tryblocktable$?_Reallocate_exactly@?$vector@USTerrainTexture@@V?$allocator@USTerrainTexture@@@std@@@std@@AAEXI@Z DD 00H
	DD	00H
	DD	01H
	DD	01H
	DD	FLAT:__catchsym$?_Reallocate_exactly@?$vector@USTerrainTexture@@V?$allocator@USTerrainTexture@@@std@@@std@@AAEXI@Z$2
__ehfuncinfo$?_Reallocate_exactly@?$vector@USTerrainTexture@@V?$allocator@USTerrainTexture@@@std@@@std@@AAEXI@Z DD 019930522H
	DD	02H
	DD	FLAT:__unwindtable$?_Reallocate_exactly@?$vector@USTerrainTexture@@V?$allocator@USTerrainTexture@@@std@@@std@@AAEXI@Z
	DD	01H
	DD	FLAT:__tryblocktable$?_Reallocate_exactly@?$vector@USTerrainTexture@@V?$allocator@USTerrainTexture@@@std@@@std@@AAEXI@Z
	DD	2 DUP(00H)
	DD	00H
	DD	01H
xdata$x	ENDS
;	COMDAT xdata$x
xdata$x	SEGMENT
__unwindtable$?AddEmptyTexture@CTextureSet@@IAEXXZ DD 0ffffffffH
	DD	FLAT:__unwindfunclet$?AddEmptyTexture@CTextureSet@@IAEXXZ$0
__ehfuncinfo$?AddEmptyTexture@CTextureSet@@IAEXXZ DD 019930522H
	DD	01H
	DD	FLAT:__unwindtable$?AddEmptyTexture@CTextureSet@@IAEXXZ
	DD	2 DUP(00H)
	DD	2 DUP(00H)
	DD	00H
	DD	01H
xdata$x	ENDS
;	COMDAT xdata$x
xdata$x	SEGMENT
__ehfuncinfo$?Load@CTextureSet@@QAE_NPBDM@Z DD 019930522H
	DD	0dH
	DD	FLAT:__unwindtable$?Load@CTextureSet@@QAE_NPBDM@Z
	DD	2 DUP(00H)
	DD	2 DUP(00H)
	DD	00H
	DD	01H
__unwindtable$?Load@CTextureSet@@QAE_NPBDM@Z DD 0ffffffffH
	DD	FLAT:__unwindfunclet$?Load@CTextureSet@@QAE_NPBDM@Z$0
	DD	00H
	DD	FLAT:__unwindfunclet$?Load@CTextureSet@@QAE_NPBDM@Z$3
	DD	01H
	DD	FLAT:__unwindfunclet$?Load@CTextureSet@@QAE_NPBDM@Z$25
	DD	00H
	DD	FLAT:__unwindfunclet$?Load@CTextureSet@@QAE_NPBDM@Z$5
	DD	03H
	DD	FLAT:__unwindfunclet$?Load@CTextureSet@@QAE_NPBDM@Z$39
	DD	00H
	DD	FLAT:__unwindfunclet$?Load@CTextureSet@@QAE_NPBDM@Z$6
	DD	05H
	DD	FLAT:__unwindfunclet$?Load@CTextureSet@@QAE_NPBDM@Z$7
	DD	06H
	DD	FLAT:__unwindfunclet$?Load@CTextureSet@@QAE_NPBDM@Z$8
	DD	07H
	DD	FLAT:__unwindfunclet$?Load@CTextureSet@@QAE_NPBDM@Z$9
	DD	08H
	DD	FLAT:__unwindfunclet$?Load@CTextureSet@@QAE_NPBDM@Z$10
	DD	09H
	DD	FLAT:__unwindfunclet$?Load@CTextureSet@@QAE_NPBDM@Z$11
	DD	0aH
	DD	FLAT:__unwindfunclet$?Load@CTextureSet@@QAE_NPBDM@Z$12
	DD	0bH
	DD	FLAT:__unwindfunclet$?Load@CTextureSet@@QAE_NPBDM@Z$13
xdata$x	ENDS
;	COMDAT xdata$x
xdata$x	SEGMENT
__ehfuncinfo$??1CTextureSet@@UAE@XZ DD 019930522H
	DD	00H
	DD	00H
	DD	2 DUP(00H)
	DD	2 DUP(00H)
	DD	00H
	DD	05H
xdata$x	ENDS
;	COMDAT xdata$x
xdata$x	SEGMENT
__unwindtable$??0CTextureSet@@QAE@XZ DD 0ffffffffH
	DD	FLAT:__unwindfunclet$??0CTextureSet@@QAE@XZ$0
__ehfuncinfo$??0CTextureSet@@QAE@XZ DD 019930522H
	DD	01H
	DD	FLAT:__unwindtable$??0CTextureSet@@QAE@XZ
	DD	2 DUP(00H)
	DD	2 DUP(00H)
	DD	00H
	DD	01H
xdata$x	ENDS
;	COMDAT xdata$x
xdata$x	SEGMENT
__unwindtable$??0STerrainTexture@@QAE@ABU0@@Z DD 0ffffffffH
	DD	FLAT:__unwindfunclet$??0STerrainTexture@@QAE@ABU0@@Z$0
__ehfuncinfo$??0STerrainTexture@@QAE@ABU0@@Z DD 019930522H
	DD	01H
	DD	FLAT:__unwindtable$??0STerrainTexture@@QAE@ABU0@@Z
	DD	2 DUP(00H)
	DD	2 DUP(00H)
	DD	00H
	DD	01H
xdata$x	ENDS
;	COMDAT xdata$x
xdata$x	SEGMENT
__unwindtable$??0STerrainTexture@@QAE@XZ DD 0ffffffffH
	DD	FLAT:__unwindfunclet$??0STerrainTexture@@QAE@XZ$0
__ehfuncinfo$??0STerrainTexture@@QAE@XZ DD 019930522H
	DD	01H
	DD	FLAT:__unwindtable$??0STerrainTexture@@QAE@XZ
	DD	2 DUP(00H)
	DD	2 DUP(00H)
	DD	00H
	DD	01H
xdata$x	ENDS
;	COMDAT xdata$x
xdata$x	SEGMENT
__ehfuncinfo$??1?$CRef@VCGraphicImage@@@@QAE@XZ DD 019930522H
	DD	00H
	DD	00H
	DD	2 DUP(00H)
	DD	2 DUP(00H)
	DD	00H
	DD	05H
xdata$x	ENDS
; Function compile flags: /Ogtp
; File C:\Program Files (x86)\Microsoft Visual Studio\2019\Professional\VC\Tools\MSVC\14.29.30133\include\xstring
;	COMDAT ??$?MDU?$char_traits@D@std@@V?$allocator@D@1@@std@@YA_NABV?$basic_string@DU?$char_traits@D@std@@V?$allocator@D@2@@0@0@Z
_TEXT	SEGMENT
__Left$ = 8						; size = 4
__Right$ = 12						; size = 4
??$?MDU?$char_traits@D@std@@V?$allocator@D@1@@std@@YA_NABV?$basic_string@DU?$char_traits@D@std@@V?$allocator@D@2@@0@0@Z PROC ; std::operator<<char,std::char_traits<char>,std::allocator<char> >, COMDAT

; 4842 :     const basic_string<_Elem, _Traits, _Alloc>& _Left, const basic_string<_Elem, _Traits, _Alloc>& _Right) noexcept {

  00000	55		 push	 ebp
  00001	8b ec		 mov	 ebp, esp

; 2305 :         const value_type* _Result = _Bx._Buf;

  00003	8b 45 0c	 mov	 eax, DWORD PTR __Right$[ebp]
  00006	8b d0		 mov	 edx, eax

; 2319 :         return _BUF_SIZE <= _Myres;

  00008	83 78 14 10	 cmp	 DWORD PTR [eax+20], 16	; 00000010H

; 2306 :         if (_Large_string_engaged()) {

  0000c	72 02		 jb	 SHORT $LN6@operator

; 2307 :             _Result = _Unfancy(_Bx._Ptr);

  0000e	8b 10		 mov	 edx, DWORD PTR [eax]
$LN6@operator:

; 2305 :         const value_type* _Result = _Bx._Buf;

  00010	8b 4d 08	 mov	 ecx, DWORD PTR __Left$[ebp]
  00013	56		 push	 esi
  00014	8b f1		 mov	 esi, ecx

; 2319 :         return _BUF_SIZE <= _Myres;

  00016	83 79 14 10	 cmp	 DWORD PTR [ecx+20], 16	; 00000010H

; 2306 :         if (_Large_string_engaged()) {

  0001a	72 02		 jb	 SHORT $LN11@operator

; 2307 :             _Result = _Unfancy(_Bx._Ptr);

  0001c	8b 31		 mov	 esi, DWORD PTR [ecx]
$LN11@operator:

; 4414 :         return _Traits_compare<_Traits>(_Mypair._Myval2._Myptr(), _Mypair._Myval2._Mysize,

  0001e	ff 70 10	 push	 DWORD PTR [eax+16]
  00021	52		 push	 edx
  00022	ff 71 10	 push	 DWORD PTR [ecx+16]
  00025	56		 push	 esi
  00026	e8 00 00 00 00	 call	 ??$_Traits_compare@U?$char_traits@D@std@@@std@@YAHQBDI0I@Z ; std::_Traits_compare<std::char_traits<char> >
  0002b	83 c4 10	 add	 esp, 16			; 00000010H

; 4843 :     return _Left.compare(_Right) < 0;

  0002e	c1 e8 1f	 shr	 eax, 31			; 0000001fH
  00031	5e		 pop	 esi

; 4844 : }

  00032	5d		 pop	 ebp
  00033	c3		 ret	 0
??$?MDU?$char_traits@D@std@@V?$allocator@D@1@@std@@YA_NABV?$basic_string@DU?$char_traits@D@std@@V?$allocator@D@2@@0@0@Z ENDP ; std::operator<<char,std::char_traits<char>,std::allocator<char> >
_TEXT	ENDS
; Function compile flags: /Ogtp
; File C:\Program Files (x86)\Microsoft Visual Studio\2019\Professional\VC\Tools\MSVC\14.29.30133\include\xmemory
; File C:\Program Files (x86)\Microsoft Visual Studio\2019\Professional\VC\Tools\MSVC\14.29.30133\include\xstring
; File C:\Program Files (x86)\Microsoft Visual Studio\2019\Professional\VC\Tools\MSVC\14.29.30133\include\xmemory
; File C:\Program Files (x86)\Microsoft Visual Studio\2019\Professional\VC\Tools\MSVC\14.29.30133\include\xstring
; File C:\Program Files (x86)\Microsoft Visual Studio\2019\Professional\VC\Tools\MSVC\14.29.30133\include\xmemory
; File C:\Program Files (x86)\Microsoft Visual Studio\2019\Professional\VC\Tools\MSVC\14.29.30133\include\xstring
; File C:\Program Files (x86)\Microsoft Visual Studio\2019\Professional\VC\Tools\MSVC\14.29.30133\include\xmemory
;	COMDAT ??$destroy@U?$pair@$$CBV?$basic_string@DU?$char_traits@D@std@@V?$allocator@D@2@@std@@V?$vector@V?$basic_string@DU?$char_traits@D@std@@V?$allocator@D@2@@std@@V?$allocator@V?$basic_string@DU?$char_traits@D@std@@V?$allocator@D@2@@std@@@2@@2@@std@@@?$_Default_allocator_traits@V?$allocator@U?$_Tree_node@U?$pair@$$CBV?$basic_string@DU?$char_traits@D@std@@V?$allocator@D@2@@std@@V?$vector@V?$basic_string@DU?$char_traits@D@std@@V?$allocator@D@2@@std@@V?$allocator@V?$basic_string@DU?$char_traits@D@std@@V?$allocator@D@2@@std@@@2@@2@@std@@PAX@std@@@std@@@std@@SAXAAV?$allocator@U?$_Tree_node@U?$pair@$$CBV?$basic_string@DU?$char_traits@D@std@@V?$allocator@D@2@@std@@V?$vector@V?$basic_string@DU?$char_traits@D@std@@V?$allocator@D@2@@std@@V?$allocator@V?$basic_string@DU?$char_traits@D@std@@V?$allocator@D@2@@std@@@2@@2@@std@@PAX@std@@@1@QAU?$pair@$$CBV?$basic_string@DU?$char_traits@D@std@@V?$allocator@D@2@@std@@V?$vector@V?$basic_string@DU?$char_traits@D@std@@V?$allocator@D@2@@std@@V?$allocator@V?$basic_string@DU?$char_traits@D@std@@V?$allocator@D@2@@std@@@2@@2@@1@@Z
_TEXT	SEGMENT
___formal$ = 8						; size = 4
__Ptr$ = 12						; size = 4
??$destroy@U?$pair@$$CBV?$basic_string@DU?$char_traits@D@std@@V?$allocator@D@2@@std@@V?$vector@V?$basic_string@DU?$char_traits@D@std@@V?$allocator@D@2@@std@@V?$allocator@V?$basic_string@DU?$char_traits@D@std@@V?$allocator@D@2@@std@@@2@@2@@std@@@?$_Default_allocator_traits@V?$allocator@U?$_Tree_node@U?$pair@$$CBV?$basic_string@DU?$char_traits@D@std@@V?$allocator@D@2@@std@@V?$vector@V?$basic_string@DU?$char_traits@D@std@@V?$allocator@D@2@@std@@V?$allocator@V?$basic_string@DU?$char_traits@D@std@@V?$allocator@D@2@@std@@@2@@2@@std@@PAX@std@@@std@@@std@@SAXAAV?$allocator@U?$_Tree_node@U?$pair@$$CBV?$basic_string@DU?$char_traits@D@std@@V?$allocator@D@2@@std@@V?$vector@V?$basic_string@DU?$char_traits@D@std@@V?$allocator@D@2@@std@@V?$allocator@V?$basic_string@DU?$char_traits@D@std@@V?$allocator@D@2@@std@@@2@@2@@std@@PAX@std@@@1@QAU?$pair@$$CBV?$basic_string@DU?$char_traits@D@std@@V?$allocator@D@2@@std@@V?$vector@V?$basic_string@DU?$char_traits@D@std@@V?$allocator@D@2@@std@@V?$allocator@V?$basic_string@DU?$char_traits@D@std@@V?$allocator@D@2@@std@@@2@@2@@1@@Z PROC ; std::_Default_allocator_traits<std::allocator<std::_Tree_node<std::pair<std::basic_string<char,std::char_traits<char>,std::allocator<char> > const ,std::vector<std::basic_string<char,std::char_traits<char>,std::allocator<char> >,std::allocator<std::basic_string<char,std::char_traits<char>,std::allocator<char> > > > >,void *> > >::destroy<std::pair<std::basic_string<char,std::char_traits<char>,std::allocator<char> > const ,std::vector<std::basic_string<char,std::char_traits<char>,std::allocator<char> >,std::allocator<std::basic_string<char,std::char_traits<char>,std::allocator<char> > > > > >, COMDAT

; 719  :     static _CONSTEXPR20_DYNALLOC void destroy(_Alloc&, _Uty* const _Ptr) {

  00000	55		 push	 ebp
  00001	8b ec		 mov	 ebp, esp
  00003	56		 push	 esi
  00004	8b 75 0c	 mov	 esi, DWORD PTR __Ptr$[ebp]
  00007	8d 4e 18	 lea	 ecx, DWORD PTR [esi+24]
  0000a	e8 00 00 00 00	 call	 ??1?$vector@V?$basic_string@DU?$char_traits@D@std@@V?$allocator@D@2@@std@@V?$allocator@V?$basic_string@DU?$char_traits@D@std@@V?$allocator@D@2@@std@@@2@@std@@QAE@XZ ; std::vector<std::basic_string<char,std::char_traits<char>,std::allocator<char> >,std::allocator<std::basic_string<char,std::char_traits<char>,std::allocator<char> > > >::~vector<std::basic_string<char,std::char_traits<char>,std::allocator<char> >,std::allocator<std::basic_string<char,std::char_traits<char>,std::allocator<char> > > >
; File C:\Program Files (x86)\Microsoft Visual Studio\2019\Professional\VC\Tools\MSVC\14.29.30133\include\xstring

; 2319 :         return _BUF_SIZE <= _Myres;

  0000f	8b 4e 14	 mov	 ecx, DWORD PTR [esi+20]
  00012	83 f9 10	 cmp	 ecx, 16			; 00000010H

; 4618 :         if (_Mypair._Myval2._Large_string_engaged()) {

  00015	72 27		 jb	 SHORT $LN21@destroy
; File C:\Program Files (x86)\Microsoft Visual Studio\2019\Professional\VC\Tools\MSVC\14.29.30133\include\xmemory

; 835  :         _Deallocate<_New_alignof<_Ty>>(_Ptr, sizeof(_Ty) * _Count);

  00017	8b 06		 mov	 eax, DWORD PTR [esi]
; File C:\Program Files (x86)\Microsoft Visual Studio\2019\Professional\VC\Tools\MSVC\14.29.30133\include\xstring

; 4622 :             _Al.deallocate(_Ptr, _Mypair._Myval2._Myres + 1);

  00019	41		 inc	 ecx
; File C:\Program Files (x86)\Microsoft Visual Studio\2019\Professional\VC\Tools\MSVC\14.29.30133\include\xmemory

; 260  :         if (_Bytes >= _Big_allocation_threshold) { // boost the alignment of big allocations to help autovectorization

  0001a	81 f9 00 10 00
	00		 cmp	 ecx, 4096		; 00001000H
  00020	72 12		 jb	 SHORT $LN31@destroy

; 158  :     const uintptr_t _Ptr_container   = _Ptr_user[-1];

  00022	8b 50 fc	 mov	 edx, DWORD PTR [eax-4]
  00025	83 c1 23	 add	 ecx, 35			; 00000023H

; 159  : 
; 160  :     // If the following asserts, it likely means that we are performing
; 161  :     // an aligned delete on memory coming from an unaligned allocation.
; 162  :     _STL_ASSERT(_Ptr_user[-2] == _Big_allocation_sentinel, "invalid argument");
; 163  : 
; 164  :     // Extra paranoia on aligned allocation/deallocation; ensure _Ptr_container is
; 165  :     // in range [_Min_back_shift, _Non_user_size]
; 166  : #ifdef _DEBUG
; 167  :     constexpr uintptr_t _Min_back_shift = 2 * sizeof(void*);
; 168  : #else // ^^^ _DEBUG ^^^ // vvv !_DEBUG vvv
; 169  :     constexpr uintptr_t _Min_back_shift = sizeof(void*);
; 170  : #endif // _DEBUG
; 171  :     const uintptr_t _Back_shift = reinterpret_cast<uintptr_t>(_Ptr) - _Ptr_container;

  00028	2b c2		 sub	 eax, edx

; 172  :     _STL_VERIFY(_Back_shift >= _Min_back_shift && _Back_shift <= _Non_user_size, "invalid argument");

  0002a	83 c0 fc	 add	 eax, -4			; fffffffcH
  0002d	83 f8 1f	 cmp	 eax, 31			; 0000001fH
  00030	77 20		 ja	 SHORT $LN28@destroy

; 173  :     _Ptr = reinterpret_cast<void*>(_Ptr_container);

  00032	8b c2		 mov	 eax, edx
$LN31@destroy:

; 264  :         ::operator delete(_Ptr, _Bytes);

  00034	51		 push	 ecx
  00035	50		 push	 eax
  00036	e8 00 00 00 00	 call	 ??3@YAXPAXI@Z		; operator delete
  0003b	83 c4 08	 add	 esp, 8
$LN21@destroy:
; File C:\Program Files (x86)\Microsoft Visual Studio\2019\Professional\VC\Tools\MSVC\14.29.30133\include\xstring

; 4633 :             _Mypair._Myval2._Mysize = 0;

  0003e	c7 46 10 00 00
	00 00		 mov	 DWORD PTR [esi+16], 0

; 4634 :             _Mypair._Myval2._Myres  = _BUF_SIZE - 1;

  00045	c7 46 14 0f 00
	00 00		 mov	 DWORD PTR [esi+20], 15	; 0000000fH

; 4635 :             // the _Traits::assign is last so the codegen doesn't think the char write can alias this
; 4636 :             _Traits::assign(_Mypair._Myval2._Bx._Buf[0], _Elem());

  0004c	c6 06 00	 mov	 BYTE PTR [esi], 0
  0004f	5e		 pop	 esi
; File C:\Program Files (x86)\Microsoft Visual Studio\2019\Professional\VC\Tools\MSVC\14.29.30133\include\xmemory

; 725  :     }

  00050	5d		 pop	 ebp
  00051	c3		 ret	 0
$LN28@destroy:

; 172  :     _STL_VERIFY(_Back_shift >= _Min_back_shift && _Back_shift <= _Non_user_size, "invalid argument");

  00052	e8 00 00 00 00	 call	 __invalid_parameter_noinfo_noreturn
$LN39@destroy:
  00057	cc		 int	 3
??$destroy@U?$pair@$$CBV?$basic_string@DU?$char_traits@D@std@@V?$allocator@D@2@@std@@V?$vector@V?$basic_string@DU?$char_traits@D@std@@V?$allocator@D@2@@std@@V?$allocator@V?$basic_string@DU?$char_traits@D@std@@V?$allocator@D@2@@std@@@2@@2@@std@@@?$_Default_allocator_traits@V?$allocator@U?$_Tree_node@U?$pair@$$CBV?$basic_string@DU?$char_traits@D@std@@V?$allocator@D@2@@std@@V?$vector@V?$basic_string@DU?$char_traits@D@std@@V?$allocator@D@2@@std@@V?$allocator@V?$basic_string@DU?$char_traits@D@std@@V?$allocator@D@2@@std@@@2@@2@@std@@PAX@std@@@std@@@std@@SAXAAV?$allocator@U?$_Tree_node@U?$pair@$$CBV?$basic_string@DU?$char_traits@D@std@@V?$allocator@D@2@@std@@V?$vector@V?$basic_string@DU?$char_traits@D@std@@V?$allocator@D@2@@std@@V?$allocator@V?$basic_string@DU?$char_traits@D@std@@V?$allocator@D@2@@std@@@2@@2@@std@@PAX@std@@@1@QAU?$pair@$$CBV?$basic_string@DU?$char_traits@D@std@@V?$allocator@D@2@@std@@V?$vector@V?$basic_string@DU?$char_traits@D@std@@V?$allocator@D@2@@std@@V?$allocator@V?$basic_string@DU?$char_traits@D@std@@V?$allocator@D@2@@std@@@2@@2@@1@@Z ENDP ; std::_Default_allocator_traits<std::allocator<std::_Tree_node<std::pair<std::basic_string<char,std::char_traits<char>,std::allocator<char> > const ,std::vector<std::basic_string<char,std::char_traits<char>,std::allocator<char> >,std::allocator<std::basic_string<char,std::char_traits<char>,std::allocator<char> > > > >,void *> > >::destroy<std::pair<std::basic_string<char,std::char_traits<char>,std::allocator<char> > const ,std::vector<std::basic_string<char,std::char_traits<char>,std::allocator<char> >,std::allocator<std::basic_string<char,std::char_traits<char>,std::allocator<char> > > > > >
_TEXT	ENDS
; Function compile flags: /Ogtp
; File C:\Program Files (x86)\Microsoft Visual Studio\2019\Professional\VC\Tools\MSVC\14.29.30133\include\xmemory
;	COMDAT ??1?$_Uninitialized_backout_al@V?$allocator@USTerrainTexture@@@std@@@std@@QAE@XZ
_TEXT	SEGMENT
??1?$_Uninitialized_backout_al@V?$allocator@USTerrainTexture@@@std@@@std@@QAE@XZ PROC ; std::_Uninitialized_backout_al<std::allocator<STerrainTexture> >::~_Uninitialized_backout_al<std::allocator<STerrainTexture> >, COMDAT
; _this$ = ecx

; 1626 :         _Destroy_range(_First, _Last, _Al);

  00000	ff 71 08	 push	 DWORD PTR [ecx+8]
  00003	ff 71 04	 push	 DWORD PTR [ecx+4]
  00006	ff 31		 push	 DWORD PTR [ecx]
  00008	e8 00 00 00 00	 call	 ??$_Destroy_range@V?$allocator@USTerrainTexture@@@std@@@std@@YAXPAUSTerrainTexture@@QAU1@AAV?$allocator@USTerrainTexture@@@0@@Z ; std::_Destroy_range<std::allocator<STerrainTexture> >
  0000d	83 c4 0c	 add	 esp, 12			; 0000000cH

; 1627 :     }

  00010	c3		 ret	 0
??1?$_Uninitialized_backout_al@V?$allocator@USTerrainTexture@@@std@@@std@@QAE@XZ ENDP ; std::_Uninitialized_backout_al<std::allocator<STerrainTexture> >::~_Uninitialized_backout_al<std::allocator<STerrainTexture> >
_TEXT	ENDS
; Function compile flags: /Ogtp
; File C:\Program Files (x86)\Microsoft Visual Studio\2019\Professional\VC\Tools\MSVC\14.29.30133\include\vector
; File C:\Program Files (x86)\Microsoft Visual Studio\2019\Professional\VC\Tools\MSVC\14.29.30133\include\xmemory
; File C:\Program Files (x86)\Microsoft Visual Studio\2019\Professional\VC\Tools\MSVC\14.29.30133\include\vector
; File C:\Program Files (x86)\Microsoft Visual Studio\2019\Professional\VC\Tools\MSVC\14.29.30133\include\xmemory
; File C:\Program Files (x86)\Microsoft Visual Studio\2019\Professional\VC\Tools\MSVC\14.29.30133\include\vector
; File C:\Program Files (x86)\Microsoft Visual Studio\2019\Professional\VC\Tools\MSVC\14.29.30133\include\xmemory
; File C:\Program Files (x86)\Microsoft Visual Studio\2019\Professional\VC\Tools\MSVC\14.29.30133\include\vector
; File C:\Program Files (x86)\Microsoft Visual Studio\2019\Professional\VC\Tools\MSVC\14.29.30133\include\xmemory
; File C:\Program Files (x86)\Microsoft Visual Studio\2019\Professional\VC\Tools\MSVC\14.29.30133\include\vector
; File C:\Program Files (x86)\Microsoft Visual Studio\2019\Professional\VC\Tools\MSVC\14.29.30133\include\xmemory
; File C:\Program Files (x86)\Microsoft Visual Studio\2019\Professional\VC\Tools\MSVC\14.29.30133\include\vector
;	COMDAT ??$_Resize_reallocate@U_Value_init_tag@std@@@?$vector@USTerrainTexture@@V?$allocator@USTerrainTexture@@@std@@@std@@AAEXIABU_Value_init_tag@1@@Z
_TEXT	SEGMENT
_this$ = -36						; size = 4
__Appended_first$ = -32					; size = 4
__Oldsize$1$ = -28					; size = 4
__Appended_last$ = -28					; size = 4
$T2 = -24						; size = 4
__Newcapacity$ = -20					; size = 4
__$EHRec$ = -16						; size = 16
__Newsize$ = 8						; size = 4
__Val$ = 12						; size = 4
??$_Resize_reallocate@U_Value_init_tag@std@@@?$vector@USTerrainTexture@@V?$allocator@USTerrainTexture@@@std@@@std@@AAEXIABU_Value_init_tag@1@@Z PROC ; std::vector<STerrainTexture,std::allocator<STerrainTexture> >::_Resize_reallocate<std::_Value_init_tag>, COMDAT
; _this$ = ecx

; 1229 :     _CONSTEXPR20_CONTAINER void _Resize_reallocate(const size_type _Newsize, const _Ty2& _Val) {

  00000	55		 push	 ebp
  00001	8b ec		 mov	 ebp, esp
  00003	6a ff		 push	 -1
  00005	68 00 00 00 00	 push	 __ehhandler$??$_Resize_reallocate@U_Value_init_tag@std@@@?$vector@USTerrainTexture@@V?$allocator@USTerrainTexture@@@std@@@std@@AAEXIABU_Value_init_tag@1@@Z
  0000a	64 a1 00 00 00
	00		 mov	 eax, DWORD PTR fs:0
  00010	50		 push	 eax
  00011	83 ec 18	 sub	 esp, 24			; 00000018H
  00014	53		 push	 ebx
  00015	56		 push	 esi
  00016	57		 push	 edi
  00017	a1 00 00 00 00	 mov	 eax, DWORD PTR ___security_cookie
  0001c	33 c5		 xor	 eax, ebp
  0001e	50		 push	 eax
  0001f	8d 45 f4	 lea	 eax, DWORD PTR __$EHRec$[ebp+4]
  00022	64 a3 00 00 00
	00		 mov	 DWORD PTR fs:0, eax
  00028	89 65 f0	 mov	 DWORD PTR __$EHRec$[ebp], esp
  0002b	8b d9		 mov	 ebx, ecx
  0002d	89 5d dc	 mov	 DWORD PTR _this$[ebp], ebx

; 1230 :         if (_Newsize > max_size()) {

  00030	8b 7d 08	 mov	 edi, DWORD PTR __Newsize$[ebp]
  00033	81 ff 91 cf ba
	01		 cmp	 edi, 29020049		; 01bacf91H
  00039	0f 87 35 01 00
	00		 ja	 $LN33@Resize_rea

; 1232 :         }
; 1233 : 
; 1234 :         auto& _My_data    = _Mypair._Myval2;
; 1235 :         pointer& _Myfirst = _My_data._Myfirst;
; 1236 :         pointer& _Mylast  = _My_data._Mylast;
; 1237 : 
; 1238 :         const auto _Oldsize          = static_cast<size_type>(_Mylast - _Myfirst);

  0003f	8b 4b 04	 mov	 ecx, DWORD PTR [ebx+4]
  00042	b8 a7 c8 67 dd	 mov	 eax, -580400985		; dd67c8a7H
  00047	2b 0b		 sub	 ecx, DWORD PTR [ebx]
  00049	f7 e9		 imul	 ecx
  0004b	03 d1		 add	 edx, ecx

; 1559 :         return static_cast<size_type>(_My_data._Myend - _My_data._Myfirst);

  0004d	8b 4b 08	 mov	 ecx, DWORD PTR [ebx+8]
  00050	2b 0b		 sub	 ecx, DWORD PTR [ebx]

; 1232 :         }
; 1233 : 
; 1234 :         auto& _My_data    = _Mypair._Myval2;
; 1235 :         pointer& _Myfirst = _My_data._Myfirst;
; 1236 :         pointer& _Mylast  = _My_data._Mylast;
; 1237 : 
; 1238 :         const auto _Oldsize          = static_cast<size_type>(_Mylast - _Myfirst);

  00052	c1 fa 07	 sar	 edx, 7
  00055	8b c2		 mov	 eax, edx
  00057	c1 e8 1f	 shr	 eax, 31			; 0000001fH
  0005a	03 c2		 add	 eax, edx
  0005c	89 45 e4	 mov	 DWORD PTR __Oldsize$1$[ebp], eax

; 1559 :         return static_cast<size_type>(_My_data._Myend - _My_data._Myfirst);

  0005f	b8 a7 c8 67 dd	 mov	 eax, -580400985		; dd67c8a7H
  00064	f7 e9		 imul	 ecx

; 1688 :         if (_Oldcapacity > _Max - _Oldcapacity / 2) {

  00066	b8 91 cf ba 01	 mov	 eax, 29020049		; 01bacf91H

; 1559 :         return static_cast<size_type>(_My_data._Myend - _My_data._Myfirst);

  0006b	03 d1		 add	 edx, ecx
  0006d	c1 fa 07	 sar	 edx, 7
  00070	8b ca		 mov	 ecx, edx
  00072	c1 e9 1f	 shr	 ecx, 31			; 0000001fH
  00075	03 ca		 add	 ecx, edx

; 1688 :         if (_Oldcapacity > _Max - _Oldcapacity / 2) {

  00077	8b d1		 mov	 edx, ecx
  00079	d1 ea		 shr	 edx, 1
  0007b	2b c2		 sub	 eax, edx
  0007d	3b c8		 cmp	 ecx, eax
  0007f	76 1a		 jbe	 SHORT $LN10@Resize_rea

; 1689 :             return _Max; // geometric growth would overflow

  00081	b8 d4 ff ff ff	 mov	 eax, -44		; ffffffd4H
  00086	be 91 cf ba 01	 mov	 esi, 29020049		; 01bacf91H
; File C:\Program Files (x86)\Microsoft Visual Studio\2019\Professional\VC\Tools\MSVC\14.29.30133\include\xmemory

; 238  :             return _Allocate_manually_vector_aligned<_Traits>(_Bytes);

  0008b	50		 push	 eax
; File C:\Program Files (x86)\Microsoft Visual Studio\2019\Professional\VC\Tools\MSVC\14.29.30133\include\vector

; 1689 :             return _Max; // geometric growth would overflow

  0008c	89 75 ec	 mov	 DWORD PTR __Newcapacity$[ebp], esi
; File C:\Program Files (x86)\Microsoft Visual Studio\2019\Professional\VC\Tools\MSVC\14.29.30133\include\xmemory

; 238  :             return _Allocate_manually_vector_aligned<_Traits>(_Bytes);

  0008f	e8 00 00 00 00	 call	 ??$_Allocate_manually_vector_aligned@U_Default_allocate_traits@std@@@std@@YAPAXI@Z ; std::_Allocate_manually_vector_aligned<std::_Default_allocate_traits>
  00094	83 c4 04	 add	 esp, 4
  00097	8b f8		 mov	 edi, eax
  00099	eb 4d		 jmp	 SHORT $LN31@Resize_rea
$LN10@Resize_rea:
; File C:\Program Files (x86)\Microsoft Visual Studio\2019\Professional\VC\Tools\MSVC\14.29.30133\include\vector

; 1692 :         const size_type _Geometric = _Oldcapacity + _Oldcapacity / 2;

  0009b	8d 34 0a	 lea	 esi, DWORD PTR [edx+ecx]

; 1693 : 
; 1694 :         if (_Geometric < _Newsize) {

  0009e	3b f7		 cmp	 esi, edi
  000a0	73 1f		 jae	 SHORT $LN11@Resize_rea

; 1695 :             return _Newsize; // geometric growth would be insufficient

  000a2	8b f7		 mov	 esi, edi
  000a4	89 75 ec	 mov	 DWORD PTR __Newcapacity$[ebp], esi
$LN18@Resize_rea:
; File C:\Program Files (x86)\Microsoft Visual Studio\2019\Professional\VC\Tools\MSVC\14.29.30133\include\xmemory

; 69   :     return _Count * _Ty_size;

  000a7	69 c6 94 00 00
	00		 imul	 eax, esi, 148

; 237  :         if (_Bytes >= _Big_allocation_threshold) { // boost the alignment of big allocations to help autovectorization

  000ad	3d 00 10 00 00	 cmp	 eax, 4096		; 00001000H
  000b2	72 1e		 jb	 SHORT $LN22@Resize_rea

; 238  :             return _Allocate_manually_vector_aligned<_Traits>(_Bytes);

  000b4	50		 push	 eax
  000b5	e8 00 00 00 00	 call	 ??$_Allocate_manually_vector_aligned@U_Default_allocate_traits@std@@@std@@YAPAXI@Z ; std::_Allocate_manually_vector_aligned<std::_Default_allocate_traits>
  000ba	83 c4 04	 add	 esp, 4
  000bd	8b f8		 mov	 edi, eax
  000bf	eb 27		 jmp	 SHORT $LN31@Resize_rea
$LN11@Resize_rea:
; File C:\Program Files (x86)\Microsoft Visual Studio\2019\Professional\VC\Tools\MSVC\14.29.30133\include\vector

; 1698 :         return _Geometric; // geometric growth is sufficient

  000c1	89 75 ec	 mov	 DWORD PTR __Newcapacity$[ebp], esi
; File C:\Program Files (x86)\Microsoft Visual Studio\2019\Professional\VC\Tools\MSVC\14.29.30133\include\xmemory

; 64   :         if (_Count > _Max_possible) {

  000c4	81 fe 91 cf ba
	01		 cmp	 esi, 29020049		; 01bacf91H
  000ca	0f 87 a9 00 00
	00		 ja	 $LN34@Resize_rea
  000d0	eb d5		 jmp	 SHORT $LN18@Resize_rea
$LN22@Resize_rea:

; 243  :     if (_Bytes != 0) {

  000d2	85 c0		 test	 eax, eax
  000d4	74 10		 je	 SHORT $LN23@Resize_rea

; 85   :         return ::operator new(_Bytes);

  000d6	50		 push	 eax
  000d7	e8 00 00 00 00	 call	 ??2@YAPAXI@Z		; operator new
  000dc	83 c4 04	 add	 esp, 4

; 244  :         return _Traits::_Allocate(_Bytes);

  000df	89 45 e8	 mov	 DWORD PTR $T2[ebp], eax
  000e2	8b f8		 mov	 edi, eax
  000e4	eb 05		 jmp	 SHORT $LN21@Resize_rea
$LN23@Resize_rea:

; 245  :     }
; 246  : 
; 247  :     return nullptr;

  000e6	33 ff		 xor	 edi, edi
$LN31@Resize_rea:
; File C:\Program Files (x86)\Microsoft Visual Studio\2019\Professional\VC\Tools\MSVC\14.29.30133\include\vector

; 1242 :         const pointer _Appended_first = _Newvec + _Oldsize;

  000e8	89 7d e8	 mov	 DWORD PTR $T2[ebp], edi
$LN21@Resize_rea:

; 1243 :         pointer _Appended_last        = _Appended_first;
; 1244 : 
; 1245 :         _TRY_BEGIN
; 1246 :         _Appended_last = _Ufill(_Appended_first, _Newsize - _Oldsize, _Val);

  000eb	8b 45 0c	 mov	 eax, DWORD PTR __Val$[ebp]
  000ee	8b 55 e4	 mov	 edx, DWORD PTR __Oldsize$1$[ebp]
  000f1	69 ca 94 00 00
	00		 imul	 ecx, edx, 148
  000f7	c7 45 fc 00 00
	00 00		 mov	 DWORD PTR __$EHRec$[ebp+12], 0
  000fe	0f b6 00	 movzx	 eax, BYTE PTR [eax]
  00101	50		 push	 eax
  00102	8b 45 08	 mov	 eax, DWORD PTR __Newsize$[ebp]
  00105	03 cf		 add	 ecx, edi
  00107	2b c2		 sub	 eax, edx
  00109	50		 push	 eax
  0010a	89 4d e0	 mov	 DWORD PTR __Appended_first$[ebp], ecx
  0010d	89 4d e4	 mov	 DWORD PTR __Appended_last$[ebp], ecx
  00110	51		 push	 ecx
  00111	8b cb		 mov	 ecx, ebx
  00113	e8 00 00 00 00	 call	 ?_Ufill@?$vector@USTerrainTexture@@V?$allocator@USTerrainTexture@@@std@@@std@@AAEPAUSTerrainTexture@@PAU3@IU_Value_init_tag@2@@Z ; std::vector<STerrainTexture,std::allocator<STerrainTexture> >::_Ufill

; 1247 :         _Umove_if_noexcept(_Myfirst, _Mylast, _Newvec);

  00118	57		 push	 edi
  00119	ff 73 04	 push	 DWORD PTR [ebx+4]
  0011c	8b cb		 mov	 ecx, ebx
  0011e	89 45 e4	 mov	 DWORD PTR __Appended_last$[ebp], eax
  00121	ff 33		 push	 DWORD PTR [ebx]
  00123	e8 00 00 00 00	 call	 ?_Umove_if_noexcept@?$vector@USTerrainTexture@@V?$allocator@USTerrainTexture@@@std@@@std@@AAEXPAUSTerrainTexture@@00@Z ; std::vector<STerrainTexture,std::allocator<STerrainTexture> >::_Umove_if_noexcept

; 1252 :         _CATCH_END
; 1253 : 
; 1254 :         _Change_array(_Newvec, _Newsize, _Newcapacity);

  00128	56		 push	 esi
  00129	ff 75 08	 push	 DWORD PTR __Newsize$[ebp]
  0012c	8b cb		 mov	 ecx, ebx
  0012e	57		 push	 edi
  0012f	e8 00 00 00 00	 call	 ?_Change_array@?$vector@USTerrainTexture@@V?$allocator@USTerrainTexture@@@std@@@std@@AAEXQAUSTerrainTexture@@II@Z ; std::vector<STerrainTexture,std::allocator<STerrainTexture> >::_Change_array

; 1255 :     }

  00134	8b 4d f4	 mov	 ecx, DWORD PTR __$EHRec$[ebp+4]
  00137	64 89 0d 00 00
	00 00		 mov	 DWORD PTR fs:0, ecx
  0013e	59		 pop	 ecx
  0013f	5f		 pop	 edi
  00140	5e		 pop	 esi
  00141	5b		 pop	 ebx
  00142	8b e5		 mov	 esp, ebp
  00144	5d		 pop	 ebp
  00145	c2 08 00	 ret	 8
__catch$??$_Resize_reallocate@U_Value_init_tag@std@@@?$vector@USTerrainTexture@@V?$allocator@USTerrainTexture@@@std@@@std@@AAEXIABU_Value_init_tag@1@@Z$0:

; 1248 :         _CATCH_ALL
; 1249 :         _Destroy(_Appended_first, _Appended_last);

  00148	ff 75 e4	 push	 DWORD PTR __Appended_last$[ebp]
  0014b	8b 4d dc	 mov	 ecx, DWORD PTR _this$[ebp]
  0014e	ff 75 e0	 push	 DWORD PTR __Appended_first$[ebp]
  00151	e8 00 00 00 00	 call	 ?_Destroy@?$vector@USTerrainTexture@@V?$allocator@USTerrainTexture@@@std@@@std@@AAEXPAUSTerrainTexture@@0@Z ; std::vector<STerrainTexture,std::allocator<STerrainTexture> >::_Destroy

; 1250 :         _Getal().deallocate(_Newvec, _Newcapacity);

  00156	ff 75 ec	 push	 DWORD PTR __Newcapacity$[ebp]
  00159	8b 4d dc	 mov	 ecx, DWORD PTR _this$[ebp]
  0015c	ff 75 e8	 push	 DWORD PTR $T2[ebp]
  0015f	e8 00 00 00 00	 call	 ?_Getal@?$vector@USTerrainTexture@@V?$allocator@USTerrainTexture@@@std@@@std@@AAEAAV?$allocator@USTerrainTexture@@@2@XZ ; std::vector<STerrainTexture,std::allocator<STerrainTexture> >::_Getal
  00164	8b c8		 mov	 ecx, eax
  00166	e8 00 00 00 00	 call	 ?deallocate@?$allocator@USTerrainTexture@@@std@@QAEXQAUSTerrainTexture@@I@Z ; std::allocator<STerrainTexture>::deallocate

; 1251 :         _RERAISE;

  0016b	6a 00		 push	 0
  0016d	6a 00		 push	 0
  0016f	e8 00 00 00 00	 call	 __CxxThrowException@8
$LN33@Resize_rea:

; 1231 :             _Xlength();

  00174	e8 00 00 00 00	 call	 ?_Xlength@?$vector@USTerrainTexture@@V?$allocator@USTerrainTexture@@@std@@@std@@CAXXZ ; std::vector<STerrainTexture,std::allocator<STerrainTexture> >::_Xlength
$LN34@Resize_rea:
; File C:\Program Files (x86)\Microsoft Visual Studio\2019\Professional\VC\Tools\MSVC\14.29.30133\include\xmemory

; 65   :             _Throw_bad_array_new_length(); // multiply overflow

  00179	e8 00 00 00 00	 call	 ?_Throw_bad_array_new_length@std@@YAXXZ ; std::_Throw_bad_array_new_length
$LN30@Resize_rea:
  0017e	cc		 int	 3
  0017f	cc		 int	 3
  00180	cc		 int	 3
  00181	cc		 int	 3
  00182	cc		 int	 3
  00183	cc		 int	 3
_TEXT	ENDS
;	COMDAT text$x
text$x	SEGMENT
__ehhandler$??$_Resize_reallocate@U_Value_init_tag@std@@@?$vector@USTerrainTexture@@V?$allocator@USTerrainTexture@@@std@@@std@@AAEXIABU_Value_init_tag@1@@Z:
  00000	90		 npad	 1
  00001	90		 npad	 1
  00002	8b 54 24 08	 mov	 edx, DWORD PTR [esp+8]
  00006	8d 42 0c	 lea	 eax, DWORD PTR [edx+12]
  00009	8b 4a d8	 mov	 ecx, DWORD PTR [edx-40]
  0000c	33 c8		 xor	 ecx, eax
  0000e	e8 00 00 00 00	 call	 @__security_check_cookie@4
  00013	b8 00 00 00 00	 mov	 eax, OFFSET __ehfuncinfo$??$_Resize_reallocate@U_Value_init_tag@std@@@?$vector@USTerrainTexture@@V?$allocator@USTerrainTexture@@@std@@@std@@AAEXIABU_Value_init_tag@1@@Z
  00018	e9 00 00 00 00	 jmp	 ___CxxFrameHandler3
text$x	ENDS
??$_Resize_reallocate@U_Value_init_tag@std@@@?$vector@USTerrainTexture@@V?$allocator@USTerrainTexture@@@std@@@std@@AAEXIABU_Value_init_tag@1@@Z ENDP ; std::vector<STerrainTexture,std::allocator<STerrainTexture> >::_Resize_reallocate<std::_Value_init_tag>
; Function compile flags: /Ogtp
; File C:\Program Files (x86)\Microsoft Visual Studio\2019\Professional\VC\Tools\MSVC\14.29.30133\include\xtree
; File C:\Program Files (x86)\Microsoft Visual Studio\2019\Professional\VC\Tools\MSVC\14.29.30133\include\utility
; File C:\Program Files (x86)\Microsoft Visual Studio\2019\Professional\VC\Tools\MSVC\14.29.30133\include\xtree
; File C:\Program Files (x86)\Microsoft Visual Studio\2019\Professional\VC\Tools\MSVC\14.29.30133\include\xmemory
; File C:\Program Files (x86)\Microsoft Visual Studio\2019\Professional\VC\Tools\MSVC\14.29.30133\include\xtree
; File C:\Program Files (x86)\Microsoft Visual Studio\2019\Professional\VC\Tools\MSVC\14.29.30133\include\xmemory
; File C:\Program Files (x86)\Microsoft Visual Studio\2019\Professional\VC\Tools\MSVC\14.29.30133\include\xtree
;	COMDAT ??$_Erase_tree@V?$allocator@U?$_Tree_node@U?$pair@$$CBV?$basic_string@DU?$char_traits@D@std@@V?$allocator@D@2@@std@@V?$vector@V?$basic_string@DU?$char_traits@D@std@@V?$allocator@D@2@@std@@V?$allocator@V?$basic_string@DU?$char_traits@D@std@@V?$allocator@D@2@@std@@@2@@2@@std@@PAX@std@@@std@@@?$_Tree_val@U?$_Tree_simple_types@U?$pair@$$CBV?$basic_string@DU?$char_traits@D@std@@V?$allocator@D@2@@std@@V?$vector@V?$basic_string@DU?$char_traits@D@std@@V?$allocator@D@2@@std@@V?$allocator@V?$basic_string@DU?$char_traits@D@std@@V?$allocator@D@2@@std@@@2@@2@@std@@@std@@@std@@QAEXAAV?$allocator@U?$_Tree_node@U?$pair@$$CBV?$basic_string@DU?$char_traits@D@std@@V?$allocator@D@2@@std@@V?$vector@V?$basic_string@DU?$char_traits@D@std@@V?$allocator@D@2@@std@@V?$allocator@V?$basic_string@DU?$char_traits@D@std@@V?$allocator@D@2@@std@@@2@@2@@std@@PAX@std@@@1@PAU?$_Tree_node@U?$pair@$$CBV?$basic_string@DU?$char_traits@D@std@@V?$allocator@D@2@@std@@V?$vector@V?$basic_string@DU?$char_traits@D@std@@V?$allocator@D@2@@std@@V?$allocator@V?$basic_string@DU?$char_traits@D@std@@V?$allocator@D@2@@std@@@2@@2@@std@@PAX@1@@Z
_TEXT	SEGMENT
_this$1$ = -4						; size = 4
__Al$ = 8						; size = 4
__Rootnode$ = 12					; size = 4
??$_Erase_tree@V?$allocator@U?$_Tree_node@U?$pair@$$CBV?$basic_string@DU?$char_traits@D@std@@V?$allocator@D@2@@std@@V?$vector@V?$basic_string@DU?$char_traits@D@std@@V?$allocator@D@2@@std@@V?$allocator@V?$basic_string@DU?$char_traits@D@std@@V?$allocator@D@2@@std@@@2@@2@@std@@PAX@std@@@std@@@?$_Tree_val@U?$_Tree_simple_types@U?$pair@$$CBV?$basic_string@DU?$char_traits@D@std@@V?$allocator@D@2@@std@@V?$vector@V?$basic_string@DU?$char_traits@D@std@@V?$allocator@D@2@@std@@V?$allocator@V?$basic_string@DU?$char_traits@D@std@@V?$allocator@D@2@@std@@@2@@2@@std@@@std@@@std@@QAEXAAV?$allocator@U?$_Tree_node@U?$pair@$$CBV?$basic_string@DU?$char_traits@D@std@@V?$allocator@D@2@@std@@V?$vector@V?$basic_string@DU?$char_traits@D@std@@V?$allocator@D@2@@std@@V?$allocator@V?$basic_string@DU?$char_traits@D@std@@V?$allocator@D@2@@std@@@2@@2@@std@@PAX@std@@@1@PAU?$_Tree_node@U?$pair@$$CBV?$basic_string@DU?$char_traits@D@std@@V?$allocator@D@2@@std@@V?$vector@V?$basic_string@DU?$char_traits@D@std@@V?$allocator@D@2@@std@@V?$allocator@V?$basic_string@DU?$char_traits@D@std@@V?$allocator@D@2@@std@@@2@@2@@std@@PAX@1@@Z PROC ; std::_Tree_val<std::_Tree_simple_types<std::pair<std::basic_string<char,std::char_traits<char>,std::allocator<char> > const ,std::vector<std::basic_string<char,std::char_traits<char>,std::allocator<char> >,std::allocator<std::basic_string<char,std::char_traits<char>,std::allocator<char> > > > > > >::_Erase_tree<std::allocator<std::_Tree_node<std::pair<std::basic_string<char,std::char_traits<char>,std::allocator<char> > const ,std::vector<std::basic_string<char,std::char_traits<char>,std::allocator<char> >,std::allocator<std::basic_string<char,std::char_traits<char>,std::allocator<char> > > > >,void *> > >, COMDAT
; _this$ = ecx

; 748  :     void _Erase_tree(_Alnode& _Al, _Nodeptr _Rootnode) noexcept {

  00000	55		 push	 ebp
  00001	8b ec		 mov	 ebp, esp
  00003	51		 push	 ecx
  00004	56		 push	 esi

; 749  :         while (!_Rootnode->_Isnil) { // free subtrees, then node

  00005	8b 75 0c	 mov	 esi, DWORD PTR __Rootnode$[ebp]
  00008	8b c1		 mov	 eax, ecx
  0000a	89 45 fc	 mov	 DWORD PTR _this$1$[ebp], eax
  0000d	80 7e 0d 00	 cmp	 BYTE PTR [esi+13], 0
  00011	75 34		 jne	 SHORT $LN3@Erase_tree
  00013	53		 push	 ebx
  00014	8b 5d 08	 mov	 ebx, DWORD PTR __Al$[ebp]
  00017	57		 push	 edi
$LL2@Erase_tree:

; 750  :             _Erase_tree(_Al, _Rootnode->_Right);

  00018	ff 76 08	 push	 DWORD PTR [esi+8]
  0001b	8b c8		 mov	 ecx, eax
  0001d	53		 push	 ebx
  0001e	e8 00 00 00 00	 call	 ??$_Erase_tree@V?$allocator@U?$_Tree_node@U?$pair@$$CBV?$basic_string@DU?$char_traits@D@std@@V?$allocator@D@2@@std@@V?$vector@V?$basic_string@DU?$char_traits@D@std@@V?$allocator@D@2@@std@@V?$allocator@V?$basic_string@DU?$char_traits@D@std@@V?$allocator@D@2@@std@@@2@@2@@std@@PAX@std@@@std@@@?$_Tree_val@U?$_Tree_simple_types@U?$pair@$$CBV?$basic_string@DU?$char_traits@D@std@@V?$allocator@D@2@@std@@V?$vector@V?$basic_string@DU?$char_traits@D@std@@V?$allocator@D@2@@std@@V?$allocator@V?$basic_string@DU?$char_traits@D@std@@V?$allocator@D@2@@std@@@2@@2@@std@@@std@@@std@@QAEXAAV?$allocator@U?$_Tree_node@U?$pair@$$CBV?$basic_string@DU?$char_traits@D@std@@V?$allocator@D@2@@std@@V?$vector@V?$basic_string@DU?$char_traits@D@std@@V?$allocator@D@2@@std@@V?$allocator@V?$basic_string@DU?$char_traits@D@std@@V?$allocator@D@2@@std@@@2@@2@@std@@PAX@std@@@1@PAU?$_Tree_node@U?$pair@$$CBV?$basic_string@DU?$char_traits@D@std@@V?$allocator@D@2@@std@@V?$vector@V?$basic_string@DU?$char_traits@D@std@@V?$allocator@D@2@@std@@V?$allocator@V?$basic_string@DU?$char_traits@D@std@@V?$allocator@D@2@@std@@@2@@2@@std@@PAX@1@@Z ; std::_Tree_val<std::_Tree_simple_types<std::pair<std::basic_string<char,std::char_traits<char>,std::allocator<char> > const ,std::vector<std::basic_string<char,std::char_traits<char>,std::allocator<char> >,std::allocator<std::basic_string<char,std::char_traits<char>,std::allocator<char> > > > > > >::_Erase_tree<std::allocator<std::_Tree_node<std::pair<std::basic_string<char,std::char_traits<char>,std::allocator<char> > const ,std::vector<std::basic_string<char,std::char_traits<char>,std::allocator<char> >,std::allocator<std::basic_string<char,std::char_traits<char>,std::allocator<char> > > > >,void *> > >
; File C:\Program Files (x86)\Microsoft Visual Studio\2019\Professional\VC\Tools\MSVC\14.29.30133\include\utility

; 616  :     _Ty _Old_val = static_cast<_Ty&&>(_Val);

  00023	8b fe		 mov	 edi, esi

; 617  :     _Val         = static_cast<_Other&&>(_New_val);

  00025	8b 36		 mov	 esi, DWORD PTR [esi]
; File C:\Program Files (x86)\Microsoft Visual Studio\2019\Professional\VC\Tools\MSVC\14.29.30133\include\xtree

; 385  :         allocator_traits<_Alloc>::destroy(_Al, _STD addressof(_Ptr->_Myval));

  00027	8d 47 10	 lea	 eax, DWORD PTR [edi+16]
  0002a	50		 push	 eax
  0002b	53		 push	 ebx
  0002c	e8 00 00 00 00	 call	 ??$destroy@U?$pair@$$CBV?$basic_string@DU?$char_traits@D@std@@V?$allocator@D@2@@std@@V?$vector@V?$basic_string@DU?$char_traits@D@std@@V?$allocator@D@2@@std@@V?$allocator@V?$basic_string@DU?$char_traits@D@std@@V?$allocator@D@2@@std@@@2@@2@@std@@@?$_Default_allocator_traits@V?$allocator@U?$_Tree_node@U?$pair@$$CBV?$basic_string@DU?$char_traits@D@std@@V?$allocator@D@2@@std@@V?$vector@V?$basic_string@DU?$char_traits@D@std@@V?$allocator@D@2@@std@@V?$allocator@V?$basic_string@DU?$char_traits@D@std@@V?$allocator@D@2@@std@@@2@@2@@std@@PAX@std@@@std@@@std@@SAXAAV?$allocator@U?$_Tree_node@U?$pair@$$CBV?$basic_string@DU?$char_traits@D@std@@V?$allocator@D@2@@std@@V?$vector@V?$basic_string@DU?$char_traits@D@std@@V?$allocator@D@2@@std@@V?$allocator@V?$basic_string@DU?$char_traits@D@std@@V?$allocator@D@2@@std@@@2@@2@@std@@PAX@std@@@1@QAU?$pair@$$CBV?$basic_string@DU?$char_traits@D@std@@V?$allocator@D@2@@std@@V?$vector@V?$basic_string@DU?$char_traits@D@std@@V?$allocator@D@2@@std@@V?$allocator@V?$basic_string@DU?$char_traits@D@std@@V?$allocator@D@2@@std@@@2@@2@@1@@Z ; std::_Default_allocator_traits<std::allocator<std::_Tree_node<std::pair<std::basic_string<char,std::char_traits<char>,std::allocator<char> > const ,std::vector<std::basic_string<char,std::char_traits<char>,std::allocator<char> >,std::allocator<std::basic_string<char,std::char_traits<char>,std::allocator<char> > > > >,void *> > >::destroy<std::pair<std::basic_string<char,std::char_traits<char>,std::allocator<char> > const ,std::vector<std::basic_string<char,std::char_traits<char>,std::allocator<char> >,std::allocator<std::basic_string<char,std::char_traits<char>,std::allocator<char> > > > > >
; File C:\Program Files (x86)\Microsoft Visual Studio\2019\Professional\VC\Tools\MSVC\14.29.30133\include\xmemory

; 264  :         ::operator delete(_Ptr, _Bytes);

  00031	6a 34		 push	 52			; 00000034H
  00033	57		 push	 edi
  00034	e8 00 00 00 00	 call	 ??3@YAXPAXI@Z		; operator delete
; File C:\Program Files (x86)\Microsoft Visual Studio\2019\Professional\VC\Tools\MSVC\14.29.30133\include\xtree

; 749  :         while (!_Rootnode->_Isnil) { // free subtrees, then node

  00039	8b 45 fc	 mov	 eax, DWORD PTR _this$1$[ebp]
; File C:\Program Files (x86)\Microsoft Visual Studio\2019\Professional\VC\Tools\MSVC\14.29.30133\include\xmemory

; 264  :         ::operator delete(_Ptr, _Bytes);

  0003c	83 c4 10	 add	 esp, 16			; 00000010H
; File C:\Program Files (x86)\Microsoft Visual Studio\2019\Professional\VC\Tools\MSVC\14.29.30133\include\xtree

; 749  :         while (!_Rootnode->_Isnil) { // free subtrees, then node

  0003f	80 7e 0d 00	 cmp	 BYTE PTR [esi+13], 0
  00043	74 d3		 je	 SHORT $LL2@Erase_tree
  00045	5f		 pop	 edi
  00046	5b		 pop	 ebx
$LN3@Erase_tree:
  00047	5e		 pop	 esi

; 751  :             _Alnode::value_type::_Freenode(_Al, _STD exchange(_Rootnode, _Rootnode->_Left));
; 752  :         }
; 753  :     }

  00048	8b e5		 mov	 esp, ebp
  0004a	5d		 pop	 ebp
  0004b	c2 08 00	 ret	 8
??$_Erase_tree@V?$allocator@U?$_Tree_node@U?$pair@$$CBV?$basic_string@DU?$char_traits@D@std@@V?$allocator@D@2@@std@@V?$vector@V?$basic_string@DU?$char_traits@D@std@@V?$allocator@D@2@@std@@V?$allocator@V?$basic_string@DU?$char_traits@D@std@@V?$allocator@D@2@@std@@@2@@2@@std@@PAX@std@@@std@@@?$_Tree_val@U?$_Tree_simple_types@U?$pair@$$CBV?$basic_string@DU?$char_traits@D@std@@V?$allocator@D@2@@std@@V?$vector@V?$basic_string@DU?$char_traits@D@std@@V?$allocator@D@2@@std@@V?$allocator@V?$basic_string@DU?$char_traits@D@std@@V?$allocator@D@2@@std@@@2@@2@@std@@@std@@@std@@QAEXAAV?$allocator@U?$_Tree_node@U?$pair@$$CBV?$basic_string@DU?$char_traits@D@std@@V?$allocator@D@2@@std@@V?$vector@V?$basic_string@DU?$char_traits@D@std@@V?$allocator@D@2@@std@@V?$allocator@V?$basic_string@DU?$char_traits@D@std@@V?$allocator@D@2@@std@@@2@@2@@std@@PAX@std@@@1@PAU?$_Tree_node@U?$pair@$$CBV?$basic_string@DU?$char_traits@D@std@@V?$allocator@D@2@@std@@V?$vector@V?$basic_string@DU?$char_traits@D@std@@V?$allocator@D@2@@std@@V?$allocator@V?$basic_string@DU?$char_traits@D@std@@V?$allocator@D@2@@std@@@2@@2@@std@@PAX@1@@Z ENDP ; std::_Tree_val<std::_Tree_simple_types<std::pair<std::basic_string<char,std::char_traits<char>,std::allocator<char> > const ,std::vector<std::basic_string<char,std::char_traits<char>,std::allocator<char> >,std::allocator<std::basic_string<char,std::char_traits<char>,std::allocator<char> > > > > > >::_Erase_tree<std::allocator<std::_Tree_node<std::pair<std::basic_string<char,std::char_traits<char>,std::allocator<char> > const ,std::vector<std::basic_string<char,std::char_traits<char>,std::allocator<char> >,std::allocator<std::basic_string<char,std::char_traits<char>,std::allocator<char> > > > >,void *> > >
_TEXT	ENDS
; Function compile flags: /Ogtp
; File C:\Program Files (x86)\Microsoft Visual Studio\2019\Professional\VC\Tools\MSVC\14.29.30133\include\xmemory
;	COMDAT ??1?$_Alloc_construct_ptr@V?$allocator@U?$_Tree_node@U?$pair@$$CBV?$basic_string@DU?$char_traits@D@std@@V?$allocator@D@2@@std@@V?$vector@V?$basic_string@DU?$char_traits@D@std@@V?$allocator@D@2@@std@@V?$allocator@V?$basic_string@DU?$char_traits@D@std@@V?$allocator@D@2@@std@@@2@@2@@std@@PAX@std@@@std@@@std@@QAE@XZ
_TEXT	SEGMENT
??1?$_Alloc_construct_ptr@V?$allocator@U?$_Tree_node@U?$pair@$$CBV?$basic_string@DU?$char_traits@D@std@@V?$allocator@D@2@@std@@V?$vector@V?$basic_string@DU?$char_traits@D@std@@V?$allocator@D@2@@std@@V?$allocator@V?$basic_string@DU?$char_traits@D@std@@V?$allocator@D@2@@std@@@2@@2@@std@@PAX@std@@@std@@@std@@QAE@XZ PROC ; std::_Alloc_construct_ptr<std::allocator<std::_Tree_node<std::pair<std::basic_string<char,std::char_traits<char>,std::allocator<char> > const ,std::vector<std::basic_string<char,std::char_traits<char>,std::allocator<char> >,std::allocator<std::basic_string<char,std::char_traits<char>,std::allocator<char> > > > >,void *> > >::~_Alloc_construct_ptr<std::allocator<std::_Tree_node<std::pair<std::basic_string<char,std::char_traits<char>,std::allocator<char> > const ,std::vector<std::basic_string<char,std::char_traits<char>,std::allocator<char> >,std::allocator<std::basic_string<char,std::char_traits<char>,std::allocator<char> > > > >,void *> > >, COMDAT
; _this$ = ecx

; 1024 :         if (_Ptr) {

  00000	8b 41 04	 mov	 eax, DWORD PTR [ecx+4]
  00003	85 c0		 test	 eax, eax
  00005	74 0b		 je	 SHORT $LN8@Alloc_cons

; 264  :         ::operator delete(_Ptr, _Bytes);

  00007	6a 34		 push	 52			; 00000034H
  00009	50		 push	 eax
  0000a	e8 00 00 00 00	 call	 ??3@YAXPAXI@Z		; operator delete
  0000f	83 c4 08	 add	 esp, 8
$LN8@Alloc_cons:

; 1025 :             _Al.deallocate(_Ptr, 1);
; 1026 :         }
; 1027 :     }

  00012	c3		 ret	 0
??1?$_Alloc_construct_ptr@V?$allocator@U?$_Tree_node@U?$pair@$$CBV?$basic_string@DU?$char_traits@D@std@@V?$allocator@D@2@@std@@V?$vector@V?$basic_string@DU?$char_traits@D@std@@V?$allocator@D@2@@std@@V?$allocator@V?$basic_string@DU?$char_traits@D@std@@V?$allocator@D@2@@std@@@2@@2@@std@@PAX@std@@@std@@@std@@QAE@XZ ENDP ; std::_Alloc_construct_ptr<std::allocator<std::_Tree_node<std::pair<std::basic_string<char,std::char_traits<char>,std::allocator<char> > const ,std::vector<std::basic_string<char,std::char_traits<char>,std::allocator<char> >,std::allocator<std::basic_string<char,std::char_traits<char>,std::allocator<char> > > > >,void *> > >::~_Alloc_construct_ptr<std::allocator<std::_Tree_node<std::pair<std::basic_string<char,std::char_traits<char>,std::allocator<char> > const ,std::vector<std::basic_string<char,std::char_traits<char>,std::allocator<char> >,std::allocator<std::basic_string<char,std::char_traits<char>,std::allocator<char> > > > >,void *> > >
_TEXT	ENDS
; Function compile flags: /Ogtp
; File C:\Program Files (x86)\Microsoft Visual Studio\2019\Professional\VC\Tools\MSVC\14.29.30133\include\xtree
; File C:\Program Files (x86)\Microsoft Visual Studio\2019\Professional\VC\Tools\MSVC\14.29.30133\include\xstddef
; File C:\Program Files (x86)\Microsoft Visual Studio\2019\Professional\VC\Tools\MSVC\14.29.30133\include\xtree
;	COMDAT ??$_Find_lower_bound@V?$basic_string@DU?$char_traits@D@std@@V?$allocator@D@2@@std@@@?$_Tree@V?$_Tmap_traits@V?$basic_string@DU?$char_traits@D@std@@V?$allocator@D@2@@std@@V?$vector@V?$basic_string@DU?$char_traits@D@std@@V?$allocator@D@2@@std@@V?$allocator@V?$basic_string@DU?$char_traits@D@std@@V?$allocator@D@2@@std@@@2@@2@U?$less@V?$basic_string@DU?$char_traits@D@std@@V?$allocator@D@2@@std@@@2@V?$allocator@U?$pair@$$CBV?$basic_string@DU?$char_traits@D@std@@V?$allocator@D@2@@std@@V?$vector@V?$basic_string@DU?$char_traits@D@std@@V?$allocator@D@2@@std@@V?$allocator@V?$basic_string@DU?$char_traits@D@std@@V?$allocator@D@2@@std@@@2@@2@@std@@@2@$0A@@std@@@std@@IBE?AU?$_Tree_find_result@PAU?$_Tree_node@U?$pair@$$CBV?$basic_string@DU?$char_traits@D@std@@V?$allocator@D@2@@std@@V?$vector@V?$basic_string@DU?$char_traits@D@std@@V?$allocator@D@2@@std@@V?$allocator@V?$basic_string@DU?$char_traits@D@std@@V?$allocator@D@2@@std@@@2@@2@@std@@PAX@std@@@1@ABV?$basic_string@DU?$char_traits@D@std@@V?$allocator@D@2@@1@@Z
_TEXT	SEGMENT
___$ReturnUdt$ = 8					; size = 4
__Keyval$ = 12						; size = 4
??$_Find_lower_bound@V?$basic_string@DU?$char_traits@D@std@@V?$allocator@D@2@@std@@@?$_Tree@V?$_Tmap_traits@V?$basic_string@DU?$char_traits@D@std@@V?$allocator@D@2@@std@@V?$vector@V?$basic_string@DU?$char_traits@D@std@@V?$allocator@D@2@@std@@V?$allocator@V?$basic_string@DU?$char_traits@D@std@@V?$allocator@D@2@@std@@@2@@2@U?$less@V?$basic_string@DU?$char_traits@D@std@@V?$allocator@D@2@@std@@@2@V?$allocator@U?$pair@$$CBV?$basic_string@DU?$char_traits@D@std@@V?$allocator@D@2@@std@@V?$vector@V?$basic_string@DU?$char_traits@D@std@@V?$allocator@D@2@@std@@V?$allocator@V?$basic_string@DU?$char_traits@D@std@@V?$allocator@D@2@@std@@@2@@2@@std@@@2@$0A@@std@@@std@@IBE?AU?$_Tree_find_result@PAU?$_Tree_node@U?$pair@$$CBV?$basic_string@DU?$char_traits@D@std@@V?$allocator@D@2@@std@@V?$vector@V?$basic_string@DU?$char_traits@D@std@@V?$allocator@D@2@@std@@V?$allocator@V?$basic_string@DU?$char_traits@D@std@@V?$allocator@D@2@@std@@@2@@2@@std@@PAX@std@@@1@ABV?$basic_string@DU?$char_traits@D@std@@V?$allocator@D@2@@1@@Z PROC ; std::_Tree<std::_Tmap_traits<std::basic_string<char,std::char_traits<char>,std::allocator<char> >,std::vector<std::basic_string<char,std::char_traits<char>,std::allocator<char> >,std::allocator<std::basic_string<char,std::char_traits<char>,std::allocator<char> > > >,std::less<std::basic_string<char,std::char_traits<char>,std::allocator<char> > >,std::allocator<std::pair<std::basic_string<char,std::char_traits<char>,std::allocator<char> > const ,std::vector<std::basic_string<char,std::char_traits<char>,std::allocator<char> >,std::allocator<std::basic_string<char,std::char_traits<char>,std::allocator<char> > > > > >,0> >::_Find_lower_bound<std::basic_string<char,std::char_traits<char>,std::allocator<char> > >, COMDAT
; _this$ = ecx

; 1603 :     _Tree_find_result<_Nodeptr> _Find_lower_bound(const _Keyty& _Keyval) const {

  00000	55		 push	 ebp
  00001	8b ec		 mov	 ebp, esp

; 1604 :         const auto _Scary = _Get_scary();
; 1605 :         _Tree_find_result<_Nodeptr> _Result{{_Scary->_Myhead->_Parent, _Tree_child::_Right}, _Scary->_Myhead};

  00003	8b 01		 mov	 eax, DWORD PTR [ecx]
  00005	56		 push	 esi
  00006	57		 push	 edi
  00007	8b 7d 08	 mov	 edi, DWORD PTR ___$ReturnUdt$[ebp]
  0000a	8b 70 04	 mov	 esi, DWORD PTR [eax+4]
  0000d	89 37		 mov	 DWORD PTR [edi], esi

; 1606 :         _Nodeptr _Trynode = _Result._Location._Parent;
; 1607 :         while (!_Trynode->_Isnil) {

  0000f	80 7e 0d 00	 cmp	 BYTE PTR [esi+13], 0
  00013	c7 47 04 00 00
	00 00		 mov	 DWORD PTR [edi+4], 0
  0001a	89 47 08	 mov	 DWORD PTR [edi+8], eax
  0001d	75 32		 jne	 SHORT $LN12@Find_lower
  0001f	53		 push	 ebx
  00020	8b 5d 0c	 mov	 ebx, DWORD PTR __Keyval$[ebp]
$LL2@Find_lower:

; 1609 :             if (_DEBUG_LT_PRED(_Getcomp(), _Traits::_Kfn(_Trynode->_Myval), _Keyval)) {

  00023	8d 46 10	 lea	 eax, DWORD PTR [esi+16]
  00026	89 37		 mov	 DWORD PTR [edi], esi
; File C:\Program Files (x86)\Microsoft Visual Studio\2019\Professional\VC\Tools\MSVC\14.29.30133\include\xstddef

; 127  :         return _Left < _Right;

  00028	53		 push	 ebx
  00029	50		 push	 eax
  0002a	e8 00 00 00 00	 call	 ??$?MDU?$char_traits@D@std@@V?$allocator@D@1@@std@@YA_NABV?$basic_string@DU?$char_traits@D@std@@V?$allocator@D@2@@0@0@Z ; std::operator<<char,std::char_traits<char>,std::allocator<char> >
  0002f	83 c4 08	 add	 esp, 8
; File C:\Program Files (x86)\Microsoft Visual Studio\2019\Professional\VC\Tools\MSVC\14.29.30133\include\xtree

; 1609 :             if (_DEBUG_LT_PRED(_Getcomp(), _Traits::_Kfn(_Trynode->_Myval), _Keyval)) {

  00032	84 c0		 test	 al, al
  00034	74 07		 je	 SHORT $LN4@Find_lower

; 1610 :                 _Result._Location._Child = _Tree_child::_Right;
; 1611 :                 _Trynode                 = _Trynode->_Right;

  00036	8b 76 08	 mov	 esi, DWORD PTR [esi+8]
  00039	33 c0		 xor	 eax, eax

; 1612 :             } else {

  0003b	eb 0a		 jmp	 SHORT $LN5@Find_lower
$LN4@Find_lower:

; 1613 :                 _Result._Location._Child = _Tree_child::_Left;
; 1614 :                 _Result._Bound           = _Trynode;

  0003d	89 77 08	 mov	 DWORD PTR [edi+8], esi

; 1615 :                 _Trynode                 = _Trynode->_Left;

  00040	b8 01 00 00 00	 mov	 eax, 1
  00045	8b 36		 mov	 esi, DWORD PTR [esi]
$LN5@Find_lower:

; 1606 :         _Nodeptr _Trynode = _Result._Location._Parent;
; 1607 :         while (!_Trynode->_Isnil) {

  00047	89 47 04	 mov	 DWORD PTR [edi+4], eax
  0004a	80 7e 0d 00	 cmp	 BYTE PTR [esi+13], 0
  0004e	74 d3		 je	 SHORT $LL2@Find_lower

; 1616 :             }
; 1617 :         }
; 1618 : 
; 1619 :         return _Result;

  00050	5b		 pop	 ebx
$LN12@Find_lower:

; 1620 :     }

  00051	8b c7		 mov	 eax, edi
  00053	5f		 pop	 edi
  00054	5e		 pop	 esi
  00055	5d		 pop	 ebp
  00056	c2 08 00	 ret	 8
??$_Find_lower_bound@V?$basic_string@DU?$char_traits@D@std@@V?$allocator@D@2@@std@@@?$_Tree@V?$_Tmap_traits@V?$basic_string@DU?$char_traits@D@std@@V?$allocator@D@2@@std@@V?$vector@V?$basic_string@DU?$char_traits@D@std@@V?$allocator@D@2@@std@@V?$allocator@V?$basic_string@DU?$char_traits@D@std@@V?$allocator@D@2@@std@@@2@@2@U?$less@V?$basic_string@DU?$char_traits@D@std@@V?$allocator@D@2@@std@@@2@V?$allocator@U?$pair@$$CBV?$basic_string@DU?$char_traits@D@std@@V?$allocator@D@2@@std@@V?$vector@V?$basic_string@DU?$char_traits@D@std@@V?$allocator@D@2@@std@@V?$allocator@V?$basic_string@DU?$char_traits@D@std@@V?$allocator@D@2@@std@@@2@@2@@std@@@2@$0A@@std@@@std@@IBE?AU?$_Tree_find_result@PAU?$_Tree_node@U?$pair@$$CBV?$basic_string@DU?$char_traits@D@std@@V?$allocator@D@2@@std@@V?$vector@V?$basic_string@DU?$char_traits@D@std@@V?$allocator@D@2@@std@@V?$allocator@V?$basic_string@DU?$char_traits@D@std@@V?$allocator@D@2@@std@@@2@@2@@std@@PAX@std@@@1@ABV?$basic_string@DU?$char_traits@D@std@@V?$allocator@D@2@@1@@Z ENDP ; std::_Tree<std::_Tmap_traits<std::basic_string<char,std::char_traits<char>,std::allocator<char> >,std::vector<std::basic_string<char,std::char_traits<char>,std::allocator<char> >,std::allocator<std::basic_string<char,std::char_traits<char>,std::allocator<char> > > >,std::less<std::basic_string<char,std::char_traits<char>,std::allocator<char> > >,std::allocator<std::pair<std::basic_string<char,std::char_traits<char>,std::allocator<char> > const ,std::vector<std::basic_string<char,std::char_traits<char>,std::allocator<char> >,std::allocator<std::basic_string<char,std::char_traits<char>,std::allocator<char> > > > > >,0> >::_Find_lower_bound<std::basic_string<char,std::char_traits<char>,std::allocator<char> > >
_TEXT	ENDS
; Function compile flags: /Ogtp
; File C:\Program Files (x86)\Microsoft Visual Studio\2019\Professional\VC\Tools\MSVC\14.29.30133\include\xmemory
; File C:\Users\murat\Desktop\Siveps2-1-99-Project\source\client\Client\PRTerrainLib\TextureSet.h
; File C:\Program Files (x86)\Microsoft Visual Studio\2019\Professional\VC\Tools\MSVC\14.29.30133\include\xstring
; File C:\Program Files (x86)\Microsoft Visual Studio\2019\Professional\VC\Tools\MSVC\14.29.30133\include\xmemory
; File C:\Program Files (x86)\Microsoft Visual Studio\2019\Professional\VC\Tools\MSVC\14.29.30133\include\xstring
; File C:\Program Files (x86)\Microsoft Visual Studio\2019\Professional\VC\Tools\MSVC\14.29.30133\include\xmemory
; File C:\Program Files (x86)\Microsoft Visual Studio\2019\Professional\VC\Tools\MSVC\14.29.30133\include\xstring
; File C:\Program Files (x86)\Microsoft Visual Studio\2019\Professional\VC\Tools\MSVC\14.29.30133\include\xmemory
;	COMDAT ??$_Destroy_range@V?$allocator@USTerrainTexture@@@std@@@std@@YAXPAUSTerrainTexture@@QAU1@AAV?$allocator@USTerrainTexture@@@0@@Z
_TEXT	SEGMENT
__First$ = 8						; size = 4
__Last$ = 12						; size = 4
__Al$ = 16						; size = 4
??$_Destroy_range@V?$allocator@USTerrainTexture@@@std@@@std@@YAXPAUSTerrainTexture@@QAU1@AAV?$allocator@USTerrainTexture@@@0@@Z PROC ; std::_Destroy_range<std::allocator<STerrainTexture> >, COMDAT

; 945  :     _Alloc_ptr_t<_Alloc> _First, const _Alloc_ptr_t<_Alloc> _Last, _Alloc& _Al) noexcept {

  00000	55		 push	 ebp
  00001	8b ec		 mov	 ebp, esp
  00003	56		 push	 esi

; 949  :         for (; _First != _Last; ++_First) {

  00004	8b 75 08	 mov	 esi, DWORD PTR __First$[ebp]
  00007	57		 push	 edi
  00008	8b 7d 0c	 mov	 edi, DWORD PTR __Last$[ebp]
  0000b	3b f7		 cmp	 esi, edi
  0000d	74 58		 je	 SHORT $LN49@Destroy_ra
  0000f	83 c6 14	 add	 esi, 20			; 00000014H
$LL4@Destroy_ra:
; File C:\Users\murat\Desktop\Siveps2-1-99-Project\source\client\Client\PRTerrainLib\TextureSet.h

; 21   : 	}

  00012	8d 4e 08	 lea	 ecx, DWORD PTR [esi+8]
  00015	e8 00 00 00 00	 call	 ??1CGraphicImageInstance@@UAE@XZ ; CGraphicImageInstance::~CGraphicImageInstance
; File C:\Program Files (x86)\Microsoft Visual Studio\2019\Professional\VC\Tools\MSVC\14.29.30133\include\xstring

; 2319 :         return _BUF_SIZE <= _Myres;

  0001a	8b 0e		 mov	 ecx, DWORD PTR [esi]
  0001c	83 f9 10	 cmp	 ecx, 16			; 00000010H

; 4618 :         if (_Mypair._Myval2._Large_string_engaged()) {

  0001f	72 28		 jb	 SHORT $LN26@Destroy_ra
; File C:\Program Files (x86)\Microsoft Visual Studio\2019\Professional\VC\Tools\MSVC\14.29.30133\include\xmemory

; 835  :         _Deallocate<_New_alignof<_Ty>>(_Ptr, sizeof(_Ty) * _Count);

  00021	8b 46 ec	 mov	 eax, DWORD PTR [esi-20]
; File C:\Program Files (x86)\Microsoft Visual Studio\2019\Professional\VC\Tools\MSVC\14.29.30133\include\xstring

; 4622 :             _Al.deallocate(_Ptr, _Mypair._Myval2._Myres + 1);

  00024	41		 inc	 ecx
; File C:\Program Files (x86)\Microsoft Visual Studio\2019\Professional\VC\Tools\MSVC\14.29.30133\include\xmemory

; 260  :         if (_Bytes >= _Big_allocation_threshold) { // boost the alignment of big allocations to help autovectorization

  00025	81 f9 00 10 00
	00		 cmp	 ecx, 4096		; 00001000H
  0002b	72 12		 jb	 SHORT $LN36@Destroy_ra

; 158  :     const uintptr_t _Ptr_container   = _Ptr_user[-1];

  0002d	8b 50 fc	 mov	 edx, DWORD PTR [eax-4]
  00030	83 c1 23	 add	 ecx, 35			; 00000023H

; 159  : 
; 160  :     // If the following asserts, it likely means that we are performing
; 161  :     // an aligned delete on memory coming from an unaligned allocation.
; 162  :     _STL_ASSERT(_Ptr_user[-2] == _Big_allocation_sentinel, "invalid argument");
; 163  : 
; 164  :     // Extra paranoia on aligned allocation/deallocation; ensure _Ptr_container is
; 165  :     // in range [_Min_back_shift, _Non_user_size]
; 166  : #ifdef _DEBUG
; 167  :     constexpr uintptr_t _Min_back_shift = 2 * sizeof(void*);
; 168  : #else // ^^^ _DEBUG ^^^ // vvv !_DEBUG vvv
; 169  :     constexpr uintptr_t _Min_back_shift = sizeof(void*);
; 170  : #endif // _DEBUG
; 171  :     const uintptr_t _Back_shift = reinterpret_cast<uintptr_t>(_Ptr) - _Ptr_container;

  00033	2b c2		 sub	 eax, edx

; 172  :     _STL_VERIFY(_Back_shift >= _Min_back_shift && _Back_shift <= _Non_user_size, "invalid argument");

  00035	83 c0 fc	 add	 eax, -4			; fffffffcH
  00038	83 f8 1f	 cmp	 eax, 31			; 0000001fH
  0003b	77 2e		 ja	 SHORT $LN33@Destroy_ra

; 173  :     _Ptr = reinterpret_cast<void*>(_Ptr_container);

  0003d	8b c2		 mov	 eax, edx
$LN36@Destroy_ra:

; 264  :         ::operator delete(_Ptr, _Bytes);

  0003f	51		 push	 ecx
  00040	50		 push	 eax
  00041	e8 00 00 00 00	 call	 ??3@YAXPAXI@Z		; operator delete
  00046	83 c4 08	 add	 esp, 8
$LN26@Destroy_ra:
; File C:\Program Files (x86)\Microsoft Visual Studio\2019\Professional\VC\Tools\MSVC\14.29.30133\include\xstring

; 4633 :             _Mypair._Myval2._Mysize = 0;

  00049	c7 46 fc 00 00
	00 00		 mov	 DWORD PTR [esi-4], 0

; 4634 :             _Mypair._Myval2._Myres  = _BUF_SIZE - 1;

  00050	c7 06 0f 00 00
	00		 mov	 DWORD PTR [esi], 15	; 0000000fH

; 4635 :             // the _Traits::assign is last so the codegen doesn't think the char write can alias this
; 4636 :             _Traits::assign(_Mypair._Myval2._Bx._Buf[0], _Elem());

  00056	c6 46 ec 00	 mov	 BYTE PTR [esi-20], 0
; File C:\Program Files (x86)\Microsoft Visual Studio\2019\Professional\VC\Tools\MSVC\14.29.30133\include\xmemory

; 949  :         for (; _First != _Last; ++_First) {

  0005a	81 c6 94 00 00
	00		 add	 esi, 148		; 00000094H
  00060	8d 46 ec	 lea	 eax, DWORD PTR [esi-20]
  00063	3b c7		 cmp	 eax, edi
  00065	75 ab		 jne	 SHORT $LL4@Destroy_ra
$LN49@Destroy_ra:
  00067	5f		 pop	 edi

; 950  :             allocator_traits<_Alloc>::destroy(_Al, _Unfancy(_First));
; 951  :         }
; 952  :     }
; 953  : }

  00068	5e		 pop	 esi
  00069	5d		 pop	 ebp
  0006a	c3		 ret	 0
$LN33@Destroy_ra:

; 172  :     _STL_VERIFY(_Back_shift >= _Min_back_shift && _Back_shift <= _Non_user_size, "invalid argument");

  0006b	e8 00 00 00 00	 call	 __invalid_parameter_noinfo_noreturn
$LN50@Destroy_ra:
  00070	cc		 int	 3
??$_Destroy_range@V?$allocator@USTerrainTexture@@@std@@@std@@YAXPAUSTerrainTexture@@QAU1@AAV?$allocator@USTerrainTexture@@@0@@Z ENDP ; std::_Destroy_range<std::allocator<STerrainTexture> >
_TEXT	ENDS
; Function compile flags: /Ogtp
; File C:\Program Files (x86)\Microsoft Visual Studio\2019\Professional\VC\Tools\MSVC\14.29.30133\include\vector
; File C:\Program Files (x86)\Microsoft Visual Studio\2019\Professional\VC\Tools\MSVC\14.29.30133\include\xmemory
; File C:\Program Files (x86)\Microsoft Visual Studio\2019\Professional\VC\Tools\MSVC\14.29.30133\include\vector
; File C:\Program Files (x86)\Microsoft Visual Studio\2019\Professional\VC\Tools\MSVC\14.29.30133\include\xmemory
; File C:\Program Files (x86)\Microsoft Visual Studio\2019\Professional\VC\Tools\MSVC\14.29.30133\include\vector
; File C:\Program Files (x86)\Microsoft Visual Studio\2019\Professional\VC\Tools\MSVC\14.29.30133\include\xmemory
; File C:\Program Files (x86)\Microsoft Visual Studio\2019\Professional\VC\Tools\MSVC\14.29.30133\include\vector
; File C:\Program Files (x86)\Microsoft Visual Studio\2019\Professional\VC\Tools\MSVC\14.29.30133\include\xmemory
; File C:\Program Files (x86)\Microsoft Visual Studio\2019\Professional\VC\Tools\MSVC\14.29.30133\include\vector
; File C:\Program Files (x86)\Microsoft Visual Studio\2019\Professional\VC\Tools\MSVC\14.29.30133\include\xmemory
; File C:\Program Files (x86)\Microsoft Visual Studio\2019\Professional\VC\Tools\MSVC\14.29.30133\include\vector
; File C:\Program Files (x86)\Microsoft Visual Studio\2019\Professional\VC\Tools\MSVC\14.29.30133\include\xmemory
; File C:\Program Files (x86)\Microsoft Visual Studio\2019\Professional\VC\Tools\MSVC\14.29.30133\include\vector
;	COMDAT ??$_Emplace_reallocate@ABUSTerrainTexture@@@?$vector@USTerrainTexture@@V?$allocator@USTerrainTexture@@@std@@@std@@QAEPAUSTerrainTexture@@QAU2@ABU2@@Z
_TEXT	SEGMENT
_this$ = -44						; size = 4
__Oldsize$1$ = -40					; size = 4
__Whereoff$1$ = -36					; size = 4
__Constructed_last$ = -36				; size = 4
tv318 = -32						; size = 4
$T2 = -28						; size = 4
__Constructed_first$ = -24				; size = 4
__Newcapacity$ = -20					; size = 4
__$EHRec$ = -16						; size = 16
__Whereptr$ = 8						; size = 4
_<_Val_0>$ = 12						; size = 4
??$_Emplace_reallocate@ABUSTerrainTexture@@@?$vector@USTerrainTexture@@V?$allocator@USTerrainTexture@@@std@@@std@@QAEPAUSTerrainTexture@@QAU2@ABU2@@Z PROC ; std::vector<STerrainTexture,std::allocator<STerrainTexture> >::_Emplace_reallocate<STerrainTexture const &>, COMDAT
; _this$ = ecx

; 765  :     _CONSTEXPR20_CONTAINER pointer _Emplace_reallocate(const pointer _Whereptr, _Valty&&... _Val) {

  00000	55		 push	 ebp
  00001	8b ec		 mov	 ebp, esp
  00003	6a ff		 push	 -1
  00005	68 00 00 00 00	 push	 __ehhandler$??$_Emplace_reallocate@ABUSTerrainTexture@@@?$vector@USTerrainTexture@@V?$allocator@USTerrainTexture@@@std@@@std@@QAEPAUSTerrainTexture@@QAU2@ABU2@@Z
  0000a	64 a1 00 00 00
	00		 mov	 eax, DWORD PTR fs:0
  00010	50		 push	 eax
  00011	83 ec 20	 sub	 esp, 32			; 00000020H
  00014	53		 push	 ebx
  00015	56		 push	 esi
  00016	57		 push	 edi
  00017	a1 00 00 00 00	 mov	 eax, DWORD PTR ___security_cookie
  0001c	33 c5		 xor	 eax, ebp
  0001e	50		 push	 eax
  0001f	8d 45 f4	 lea	 eax, DWORD PTR __$EHRec$[ebp+4]
  00022	64 a3 00 00 00
	00		 mov	 DWORD PTR fs:0, eax
  00028	89 65 f0	 mov	 DWORD PTR __$EHRec$[ebp], esp
  0002b	8b d9		 mov	 ebx, ecx
  0002d	89 5d d4	 mov	 DWORD PTR _this$[ebp], ebx

; 766  :         // reallocate and insert by perfectly forwarding _Val at _Whereptr
; 767  :         _Alty& _Al        = _Getal();
; 768  :         auto& _My_data    = _Mypair._Myval2;
; 769  :         pointer& _Myfirst = _My_data._Myfirst;
; 770  :         pointer& _Mylast  = _My_data._Mylast;
; 771  : 
; 772  :         _STL_INTERNAL_CHECK(_Mylast == _My_data._Myend); // check that we have no unused capacity
; 773  : 
; 774  :         const auto _Whereoff = static_cast<size_type>(_Whereptr - _Myfirst);

  00030	8b 75 08	 mov	 esi, DWORD PTR __Whereptr$[ebp]
  00033	b8 a7 c8 67 dd	 mov	 eax, -580400985		; dd67c8a7H
  00038	2b 33		 sub	 esi, DWORD PTR [ebx]

; 775  :         const auto _Oldsize  = static_cast<size_type>(_Mylast - _Myfirst);

  0003a	8b 4b 04	 mov	 ecx, DWORD PTR [ebx+4]
  0003d	2b 0b		 sub	 ecx, DWORD PTR [ebx]
  0003f	f7 ee		 imul	 esi
  00041	03 d6		 add	 edx, esi
  00043	c1 fa 07	 sar	 edx, 7
  00046	8b c2		 mov	 eax, edx
  00048	c1 e8 1f	 shr	 eax, 31			; 0000001fH
  0004b	03 c2		 add	 eax, edx
  0004d	89 45 dc	 mov	 DWORD PTR __Whereoff$1$[ebp], eax
  00050	b8 a7 c8 67 dd	 mov	 eax, -580400985		; dd67c8a7H
  00055	f7 e9		 imul	 ecx
  00057	03 d1		 add	 edx, ecx
  00059	c1 fa 07	 sar	 edx, 7
  0005c	8b c2		 mov	 eax, edx
  0005e	c1 e8 1f	 shr	 eax, 31			; 0000001fH
  00061	03 c2		 add	 eax, edx
  00063	89 45 d8	 mov	 DWORD PTR __Oldsize$1$[ebp], eax

; 776  : 
; 777  :         if (_Oldsize == max_size()) {

  00066	3d 91 cf ba 01	 cmp	 eax, 29020049		; 01bacf91H
  0006b	0f 84 3d 01 00
	00		 je	 $LN39@Emplace_re

; 1559 :         return static_cast<size_type>(_My_data._Myend - _My_data._Myfirst);

  00071	8b 4b 08	 mov	 ecx, DWORD PTR [ebx+8]

; 779  :         }
; 780  : 
; 781  :         const size_type _Newsize     = _Oldsize + 1;

  00074	8d 78 01	 lea	 edi, DWORD PTR [eax+1]

; 1559 :         return static_cast<size_type>(_My_data._Myend - _My_data._Myfirst);

  00077	2b 0b		 sub	 ecx, DWORD PTR [ebx]
  00079	b8 a7 c8 67 dd	 mov	 eax, -580400985		; dd67c8a7H
  0007e	f7 e9		 imul	 ecx

; 1688 :         if (_Oldcapacity > _Max - _Oldcapacity / 2) {

  00080	b8 91 cf ba 01	 mov	 eax, 29020049		; 01bacf91H

; 1559 :         return static_cast<size_type>(_My_data._Myend - _My_data._Myfirst);

  00085	03 d1		 add	 edx, ecx
  00087	c1 fa 07	 sar	 edx, 7
  0008a	8b ca		 mov	 ecx, edx
  0008c	c1 e9 1f	 shr	 ecx, 31			; 0000001fH
  0008f	03 ca		 add	 ecx, edx

; 1688 :         if (_Oldcapacity > _Max - _Oldcapacity / 2) {

  00091	8b d1		 mov	 edx, ecx
  00093	d1 ea		 shr	 edx, 1
  00095	2b c2		 sub	 eax, edx
  00097	3b c8		 cmp	 ecx, eax
  00099	76 1a		 jbe	 SHORT $LN12@Emplace_re

; 1689 :             return _Max; // geometric growth would overflow

  0009b	b8 d4 ff ff ff	 mov	 eax, -44		; ffffffd4H
  000a0	be 91 cf ba 01	 mov	 esi, 29020049		; 01bacf91H
; File C:\Program Files (x86)\Microsoft Visual Studio\2019\Professional\VC\Tools\MSVC\14.29.30133\include\xmemory

; 238  :             return _Allocate_manually_vector_aligned<_Traits>(_Bytes);

  000a5	50		 push	 eax
; File C:\Program Files (x86)\Microsoft Visual Studio\2019\Professional\VC\Tools\MSVC\14.29.30133\include\vector

; 1689 :             return _Max; // geometric growth would overflow

  000a6	89 75 ec	 mov	 DWORD PTR __Newcapacity$[ebp], esi
; File C:\Program Files (x86)\Microsoft Visual Studio\2019\Professional\VC\Tools\MSVC\14.29.30133\include\xmemory

; 238  :             return _Allocate_manually_vector_aligned<_Traits>(_Bytes);

  000a9	e8 00 00 00 00	 call	 ??$_Allocate_manually_vector_aligned@U_Default_allocate_traits@std@@@std@@YAPAXI@Z ; std::_Allocate_manually_vector_aligned<std::_Default_allocate_traits>
  000ae	83 c4 04	 add	 esp, 4
  000b1	8b f8		 mov	 edi, eax
  000b3	eb 49		 jmp	 SHORT $LN36@Emplace_re
$LN12@Emplace_re:
; File C:\Program Files (x86)\Microsoft Visual Studio\2019\Professional\VC\Tools\MSVC\14.29.30133\include\vector

; 1692 :         const size_type _Geometric = _Oldcapacity + _Oldcapacity / 2;

  000b5	8d 04 0a	 lea	 eax, DWORD PTR [edx+ecx]
; File C:\Program Files (x86)\Microsoft Visual Studio\2019\Professional\VC\Tools\MSVC\14.29.30133\include\xmemory

; 64   :         if (_Count > _Max_possible) {

  000b8	8b f7		 mov	 esi, edi
  000ba	3b c7		 cmp	 eax, edi
  000bc	0f 43 f0	 cmovae	 esi, eax
  000bf	81 fe 91 cf ba
	01		 cmp	 esi, 29020049		; 01bacf91H
  000c5	0f 87 e8 00 00
	00		 ja	 $LN40@Emplace_re

; 66   :         }
; 67   :     }
; 68   : 
; 69   :     return _Count * _Ty_size;

  000cb	69 c6 94 00 00
	00		 imul	 eax, esi, 148
  000d1	89 75 ec	 mov	 DWORD PTR __Newcapacity$[ebp], esi

; 237  :         if (_Bytes >= _Big_allocation_threshold) { // boost the alignment of big allocations to help autovectorization

  000d4	3d 00 10 00 00	 cmp	 eax, 4096		; 00001000H
  000d9	72 0d		 jb	 SHORT $LN24@Emplace_re

; 238  :             return _Allocate_manually_vector_aligned<_Traits>(_Bytes);

  000db	50		 push	 eax
  000dc	e8 00 00 00 00	 call	 ??$_Allocate_manually_vector_aligned@U_Default_allocate_traits@std@@@std@@YAPAXI@Z ; std::_Allocate_manually_vector_aligned<std::_Default_allocate_traits>
  000e1	83 c4 04	 add	 esp, 4
  000e4	8b f8		 mov	 edi, eax
  000e6	eb 16		 jmp	 SHORT $LN36@Emplace_re
$LN24@Emplace_re:

; 239  :         }
; 240  :     }
; 241  : #endif // defined(_M_IX86) || defined(_M_X64)
; 242  : 
; 243  :     if (_Bytes != 0) {

  000e8	85 c0		 test	 eax, eax
  000ea	74 0d		 je	 SHORT $LN25@Emplace_re

; 85   :         return ::operator new(_Bytes);

  000ec	50		 push	 eax
  000ed	e8 00 00 00 00	 call	 ??2@YAPAXI@Z		; operator new
  000f2	83 c4 04	 add	 esp, 4

; 244  :         return _Traits::_Allocate(_Bytes);

  000f5	8b f8		 mov	 edi, eax
  000f7	eb 02		 jmp	 SHORT $LN37@Emplace_re
$LN25@Emplace_re:

; 245  :     }
; 246  : 
; 247  :     return nullptr;

  000f9	33 ff		 xor	 edi, edi
$LN37@Emplace_re:
; File C:\Program Files (x86)\Microsoft Visual Studio\2019\Professional\VC\Tools\MSVC\14.29.30133\include\vector

; 785  :         const pointer _Constructed_last = _Newvec + _Whereoff + 1;

  000fb	89 75 ec	 mov	 DWORD PTR __Newcapacity$[ebp], esi
$LN36@Emplace_re:
  000fe	69 45 dc 94 00
	00 00		 imul	 eax, DWORD PTR __Whereoff$1$[ebp], 148
; File C:\Program Files (x86)\Microsoft Visual Studio\2019\Professional\VC\Tools\MSVC\14.29.30133\include\xmemory

; 714  :             ::new (_Voidify_iter(_Ptr)) _Objty(_STD forward<_Types>(_Args)...);

  00105	ff 75 0c	 push	 DWORD PTR _<_Val_0>$[ebp]
; File C:\Program Files (x86)\Microsoft Visual Studio\2019\Professional\VC\Tools\MSVC\14.29.30133\include\vector

; 785  :         const pointer _Constructed_last = _Newvec + _Whereoff + 1;

  00108	89 7d e4	 mov	 DWORD PTR $T2[ebp], edi

; 786  :         pointer _Constructed_first      = _Constructed_last;
; 787  : 
; 788  :         _TRY_BEGIN

  0010b	c7 45 fc 00 00
	00 00		 mov	 DWORD PTR __$EHRec$[ebp+12], 0
  00112	03 c7		 add	 eax, edi
  00114	89 45 e0	 mov	 DWORD PTR tv318[ebp], eax
  00117	8d 88 94 00 00
	00		 lea	 ecx, DWORD PTR [eax+148]
  0011d	89 4d dc	 mov	 DWORD PTR __Constructed_last$[ebp], ecx
  00120	89 4d e8	 mov	 DWORD PTR __Constructed_first$[ebp], ecx
; File C:\Program Files (x86)\Microsoft Visual Studio\2019\Professional\VC\Tools\MSVC\14.29.30133\include\xmemory

; 714  :             ::new (_Voidify_iter(_Ptr)) _Objty(_STD forward<_Types>(_Args)...);

  00123	8b c8		 mov	 ecx, eax
  00125	e8 00 00 00 00	 call	 ??0STerrainTexture@@QAE@ABU0@@Z
; File C:\Program Files (x86)\Microsoft Visual Studio\2019\Professional\VC\Tools\MSVC\14.29.30133\include\vector

; 790  :         _Constructed_first = _Newvec + _Whereoff;

  0012a	8b 45 e0	 mov	 eax, DWORD PTR tv318[ebp]

; 791  : 
; 792  :         if (_Whereptr == _Mylast) { // at back, provide strong guarantee

  0012d	8b 4b 04	 mov	 ecx, DWORD PTR [ebx+4]
  00130	8b 55 08	 mov	 edx, DWORD PTR __Whereptr$[ebp]
  00133	89 45 e8	 mov	 DWORD PTR __Constructed_first$[ebp], eax
  00136	8b 03		 mov	 eax, DWORD PTR [ebx]
  00138	57		 push	 edi
  00139	3b d1		 cmp	 edx, ecx
  0013b	75 0b		 jne	 SHORT $LN4@Emplace_re

; 793  :             _Umove_if_noexcept(_Myfirst, _Mylast, _Newvec);

  0013d	51		 push	 ecx
  0013e	50		 push	 eax
  0013f	8b cb		 mov	 ecx, ebx
  00141	e8 00 00 00 00	 call	 ?_Umove_if_noexcept@?$vector@USTerrainTexture@@V?$allocator@USTerrainTexture@@@std@@@std@@AAEXPAUSTerrainTexture@@00@Z ; std::vector<STerrainTexture,std::allocator<STerrainTexture> >::_Umove_if_noexcept

; 794  :         } else { // provide basic guarantee

  00146	eb 1c		 jmp	 SHORT $LN5@Emplace_re
$LN4@Emplace_re:

; 795  :             _Umove(_Myfirst, _Whereptr, _Newvec);

  00148	52		 push	 edx
  00149	50		 push	 eax
  0014a	8b cb		 mov	 ecx, ebx
  0014c	e8 00 00 00 00	 call	 ?_Umove@?$vector@USTerrainTexture@@V?$allocator@USTerrainTexture@@@std@@@std@@AAEPAUSTerrainTexture@@PAU3@00@Z ; std::vector<STerrainTexture,std::allocator<STerrainTexture> >::_Umove

; 796  :             _Constructed_first = _Newvec;
; 797  :             _Umove(_Whereptr, _Mylast, _Newvec + _Whereoff + 1);

  00151	ff 75 dc	 push	 DWORD PTR __Constructed_last$[ebp]
  00154	8b cb		 mov	 ecx, ebx
  00156	89 7d e8	 mov	 DWORD PTR __Constructed_first$[ebp], edi
  00159	ff 73 04	 push	 DWORD PTR [ebx+4]
  0015c	ff 75 08	 push	 DWORD PTR __Whereptr$[ebp]
  0015f	e8 00 00 00 00	 call	 ?_Umove@?$vector@USTerrainTexture@@V?$allocator@USTerrainTexture@@@std@@@std@@AAEPAUSTerrainTexture@@PAU3@00@Z ; std::vector<STerrainTexture,std::allocator<STerrainTexture> >::_Umove
$LN5@Emplace_re:

; 803  :         _CATCH_END
; 804  : 
; 805  :         _Change_array(_Newvec, _Newsize, _Newcapacity);

  00164	8b 45 d8	 mov	 eax, DWORD PTR __Oldsize$1$[ebp]
  00167	8b cb		 mov	 ecx, ebx
  00169	56		 push	 esi
  0016a	40		 inc	 eax
  0016b	50		 push	 eax
  0016c	57		 push	 edi
  0016d	e8 00 00 00 00	 call	 ?_Change_array@?$vector@USTerrainTexture@@V?$allocator@USTerrainTexture@@@std@@@std@@AAEXQAUSTerrainTexture@@II@Z ; std::vector<STerrainTexture,std::allocator<STerrainTexture> >::_Change_array

; 806  :         return _Newvec + _Whereoff;

  00172	8b 45 e0	 mov	 eax, DWORD PTR tv318[ebp]

; 807  :     }

  00175	8b 4d f4	 mov	 ecx, DWORD PTR __$EHRec$[ebp+4]
  00178	64 89 0d 00 00
	00 00		 mov	 DWORD PTR fs:0, ecx
  0017f	59		 pop	 ecx
  00180	5f		 pop	 edi
  00181	5e		 pop	 esi
  00182	5b		 pop	 ebx
  00183	8b e5		 mov	 esp, ebp
  00185	5d		 pop	 ebp
  00186	c2 08 00	 ret	 8
__catch$??$_Emplace_reallocate@ABUSTerrainTexture@@@?$vector@USTerrainTexture@@V?$allocator@USTerrainTexture@@@std@@@std@@QAEPAUSTerrainTexture@@QAU2@ABU2@@Z$0:

; 798  :         }
; 799  :         _CATCH_ALL
; 800  :         _Destroy(_Constructed_first, _Constructed_last);

  00189	ff 75 dc	 push	 DWORD PTR __Constructed_last$[ebp]
  0018c	8b 4d d4	 mov	 ecx, DWORD PTR _this$[ebp]
  0018f	ff 75 e8	 push	 DWORD PTR __Constructed_first$[ebp]
  00192	e8 00 00 00 00	 call	 ?_Destroy@?$vector@USTerrainTexture@@V?$allocator@USTerrainTexture@@@std@@@std@@AAEXPAUSTerrainTexture@@0@Z ; std::vector<STerrainTexture,std::allocator<STerrainTexture> >::_Destroy

; 801  :         _Al.deallocate(_Newvec, _Newcapacity);

  00197	ff 75 ec	 push	 DWORD PTR __Newcapacity$[ebp]
  0019a	8b 4d d4	 mov	 ecx, DWORD PTR _this$[ebp]
  0019d	ff 75 e4	 push	 DWORD PTR $T2[ebp]
  001a0	e8 00 00 00 00	 call	 ?deallocate@?$allocator@USTerrainTexture@@@std@@QAEXQAUSTerrainTexture@@I@Z ; std::allocator<STerrainTexture>::deallocate

; 802  :         _RERAISE;

  001a5	6a 00		 push	 0
  001a7	6a 00		 push	 0
  001a9	e8 00 00 00 00	 call	 __CxxThrowException@8
$LN39@Emplace_re:

; 778  :             _Xlength();

  001ae	e8 00 00 00 00	 call	 ?_Xlength@?$vector@USTerrainTexture@@V?$allocator@USTerrainTexture@@@std@@@std@@CAXXZ ; std::vector<STerrainTexture,std::allocator<STerrainTexture> >::_Xlength
$LN40@Emplace_re:
; File C:\Program Files (x86)\Microsoft Visual Studio\2019\Professional\VC\Tools\MSVC\14.29.30133\include\xmemory

; 65   :             _Throw_bad_array_new_length(); // multiply overflow

  001b3	e8 00 00 00 00	 call	 ?_Throw_bad_array_new_length@std@@YAXXZ ; std::_Throw_bad_array_new_length
$LN35@Emplace_re:
  001b8	cc		 int	 3
  001b9	cc		 int	 3
  001ba	cc		 int	 3
  001bb	cc		 int	 3
  001bc	cc		 int	 3
  001bd	cc		 int	 3
_TEXT	ENDS
;	COMDAT text$x
text$x	SEGMENT
__ehhandler$??$_Emplace_reallocate@ABUSTerrainTexture@@@?$vector@USTerrainTexture@@V?$allocator@USTerrainTexture@@@std@@@std@@QAEPAUSTerrainTexture@@QAU2@ABU2@@Z:
  00000	90		 npad	 1
  00001	90		 npad	 1
  00002	8b 54 24 08	 mov	 edx, DWORD PTR [esp+8]
  00006	8d 42 0c	 lea	 eax, DWORD PTR [edx+12]
  00009	8b 4a d0	 mov	 ecx, DWORD PTR [edx-48]
  0000c	33 c8		 xor	 ecx, eax
  0000e	e8 00 00 00 00	 call	 @__security_check_cookie@4
  00013	b8 00 00 00 00	 mov	 eax, OFFSET __ehfuncinfo$??$_Emplace_reallocate@ABUSTerrainTexture@@@?$vector@USTerrainTexture@@V?$allocator@USTerrainTexture@@@std@@@std@@QAEPAUSTerrainTexture@@QAU2@ABU2@@Z
  00018	e9 00 00 00 00	 jmp	 ___CxxFrameHandler3
text$x	ENDS
??$_Emplace_reallocate@ABUSTerrainTexture@@@?$vector@USTerrainTexture@@V?$allocator@USTerrainTexture@@@std@@@std@@QAEPAUSTerrainTexture@@QAU2@ABU2@@Z ENDP ; std::vector<STerrainTexture,std::allocator<STerrainTexture> >::_Emplace_reallocate<STerrainTexture const &>
; Function compile flags: /Ogtp
; File C:\Program Files (x86)\Microsoft Visual Studio\2019\Professional\VC\Tools\MSVC\14.29.30133\include\xmemory
; File C:\Users\murat\Desktop\Siveps2-1-99-Project\source\client\Client\PRTerrainLib\TextureSet.h
; File C:\Program Files (x86)\Microsoft Visual Studio\2019\Professional\VC\Tools\MSVC\14.29.30133\include\xstring
; File C:\Program Files (x86)\Microsoft Visual Studio\2019\Professional\VC\Tools\MSVC\14.29.30133\include\xmemory
; File C:\Program Files (x86)\Microsoft Visual Studio\2019\Professional\VC\Tools\MSVC\14.29.30133\include\xstring
; File C:\Program Files (x86)\Microsoft Visual Studio\2019\Professional\VC\Tools\MSVC\14.29.30133\include\xmemory
; File C:\Program Files (x86)\Microsoft Visual Studio\2019\Professional\VC\Tools\MSVC\14.29.30133\include\xstring
; File C:\Program Files (x86)\Microsoft Visual Studio\2019\Professional\VC\Tools\MSVC\14.29.30133\include\xmemory
;	COMDAT ??$destroy@USTerrainTexture@@@?$_Default_allocator_traits@V?$allocator@USTerrainTexture@@@std@@@std@@SAXAAV?$allocator@USTerrainTexture@@@1@QAUSTerrainTexture@@@Z
_TEXT	SEGMENT
___formal$ = 8						; size = 4
__Ptr$ = 12						; size = 4
??$destroy@USTerrainTexture@@@?$_Default_allocator_traits@V?$allocator@USTerrainTexture@@@std@@@std@@SAXAAV?$allocator@USTerrainTexture@@@1@QAUSTerrainTexture@@@Z PROC ; std::_Default_allocator_traits<std::allocator<STerrainTexture> >::destroy<STerrainTexture>, COMDAT

; 719  :     static _CONSTEXPR20_DYNALLOC void destroy(_Alloc&, _Uty* const _Ptr) {

  00000	55		 push	 ebp
  00001	8b ec		 mov	 ebp, esp
  00003	56		 push	 esi
; File C:\Users\murat\Desktop\Siveps2-1-99-Project\source\client\Client\PRTerrainLib\TextureSet.h

; 21   : 	}

  00004	8b 75 0c	 mov	 esi, DWORD PTR __Ptr$[ebp]
  00007	8d 4e 1c	 lea	 ecx, DWORD PTR [esi+28]
  0000a	e8 00 00 00 00	 call	 ??1CGraphicImageInstance@@UAE@XZ ; CGraphicImageInstance::~CGraphicImageInstance
; File C:\Program Files (x86)\Microsoft Visual Studio\2019\Professional\VC\Tools\MSVC\14.29.30133\include\xstring

; 2319 :         return _BUF_SIZE <= _Myres;

  0000f	8b 4e 14	 mov	 ecx, DWORD PTR [esi+20]
  00012	83 f9 10	 cmp	 ecx, 16			; 00000010H

; 4618 :         if (_Mypair._Myval2._Large_string_engaged()) {

  00015	72 27		 jb	 SHORT $LN21@destroy
; File C:\Program Files (x86)\Microsoft Visual Studio\2019\Professional\VC\Tools\MSVC\14.29.30133\include\xmemory

; 835  :         _Deallocate<_New_alignof<_Ty>>(_Ptr, sizeof(_Ty) * _Count);

  00017	8b 06		 mov	 eax, DWORD PTR [esi]
; File C:\Program Files (x86)\Microsoft Visual Studio\2019\Professional\VC\Tools\MSVC\14.29.30133\include\xstring

; 4622 :             _Al.deallocate(_Ptr, _Mypair._Myval2._Myres + 1);

  00019	41		 inc	 ecx
; File C:\Program Files (x86)\Microsoft Visual Studio\2019\Professional\VC\Tools\MSVC\14.29.30133\include\xmemory

; 260  :         if (_Bytes >= _Big_allocation_threshold) { // boost the alignment of big allocations to help autovectorization

  0001a	81 f9 00 10 00
	00		 cmp	 ecx, 4096		; 00001000H
  00020	72 12		 jb	 SHORT $LN31@destroy

; 158  :     const uintptr_t _Ptr_container   = _Ptr_user[-1];

  00022	8b 50 fc	 mov	 edx, DWORD PTR [eax-4]
  00025	83 c1 23	 add	 ecx, 35			; 00000023H

; 159  : 
; 160  :     // If the following asserts, it likely means that we are performing
; 161  :     // an aligned delete on memory coming from an unaligned allocation.
; 162  :     _STL_ASSERT(_Ptr_user[-2] == _Big_allocation_sentinel, "invalid argument");
; 163  : 
; 164  :     // Extra paranoia on aligned allocation/deallocation; ensure _Ptr_container is
; 165  :     // in range [_Min_back_shift, _Non_user_size]
; 166  : #ifdef _DEBUG
; 167  :     constexpr uintptr_t _Min_back_shift = 2 * sizeof(void*);
; 168  : #else // ^^^ _DEBUG ^^^ // vvv !_DEBUG vvv
; 169  :     constexpr uintptr_t _Min_back_shift = sizeof(void*);
; 170  : #endif // _DEBUG
; 171  :     const uintptr_t _Back_shift = reinterpret_cast<uintptr_t>(_Ptr) - _Ptr_container;

  00028	2b c2		 sub	 eax, edx

; 172  :     _STL_VERIFY(_Back_shift >= _Min_back_shift && _Back_shift <= _Non_user_size, "invalid argument");

  0002a	83 c0 fc	 add	 eax, -4			; fffffffcH
  0002d	83 f8 1f	 cmp	 eax, 31			; 0000001fH
  00030	77 20		 ja	 SHORT $LN28@destroy

; 173  :     _Ptr = reinterpret_cast<void*>(_Ptr_container);

  00032	8b c2		 mov	 eax, edx
$LN31@destroy:

; 264  :         ::operator delete(_Ptr, _Bytes);

  00034	51		 push	 ecx
  00035	50		 push	 eax
  00036	e8 00 00 00 00	 call	 ??3@YAXPAXI@Z		; operator delete
  0003b	83 c4 08	 add	 esp, 8
$LN21@destroy:
; File C:\Program Files (x86)\Microsoft Visual Studio\2019\Professional\VC\Tools\MSVC\14.29.30133\include\xstring

; 4633 :             _Mypair._Myval2._Mysize = 0;

  0003e	c7 46 10 00 00
	00 00		 mov	 DWORD PTR [esi+16], 0

; 4634 :             _Mypair._Myval2._Myres  = _BUF_SIZE - 1;

  00045	c7 46 14 0f 00
	00 00		 mov	 DWORD PTR [esi+20], 15	; 0000000fH

; 4635 :             // the _Traits::assign is last so the codegen doesn't think the char write can alias this
; 4636 :             _Traits::assign(_Mypair._Myval2._Bx._Buf[0], _Elem());

  0004c	c6 06 00	 mov	 BYTE PTR [esi], 0
  0004f	5e		 pop	 esi
; File C:\Program Files (x86)\Microsoft Visual Studio\2019\Professional\VC\Tools\MSVC\14.29.30133\include\xmemory

; 725  :     }

  00050	5d		 pop	 ebp
  00051	c3		 ret	 0
$LN28@destroy:

; 172  :     _STL_VERIFY(_Back_shift >= _Min_back_shift && _Back_shift <= _Non_user_size, "invalid argument");

  00052	e8 00 00 00 00	 call	 __invalid_parameter_noinfo_noreturn
$LN39@destroy:
  00057	cc		 int	 3
??$destroy@USTerrainTexture@@@?$_Default_allocator_traits@V?$allocator@USTerrainTexture@@@std@@@std@@SAXAAV?$allocator@USTerrainTexture@@@1@QAUSTerrainTexture@@@Z ENDP ; std::_Default_allocator_traits<std::allocator<STerrainTexture> >::destroy<STerrainTexture>
_TEXT	ENDS
; Function compile flags: /Ogtp
; File C:\Program Files (x86)\Microsoft Visual Studio\2019\Professional\VC\Tools\MSVC\14.29.30133\include\xtree
; File C:\Program Files (x86)\Microsoft Visual Studio\2019\Professional\VC\Tools\MSVC\14.29.30133\include\xmemory
;	COMDAT ??1?$map@V?$basic_string@DU?$char_traits@D@std@@V?$allocator@D@2@@std@@V?$vector@V?$basic_string@DU?$char_traits@D@std@@V?$allocator@D@2@@std@@V?$allocator@V?$basic_string@DU?$char_traits@D@std@@V?$allocator@D@2@@std@@@2@@2@U?$less@V?$basic_string@DU?$char_traits@D@std@@V?$allocator@D@2@@std@@@2@V?$allocator@U?$pair@$$CBV?$basic_string@DU?$char_traits@D@std@@V?$allocator@D@2@@std@@V?$vector@V?$basic_string@DU?$char_traits@D@std@@V?$allocator@D@2@@std@@V?$allocator@V?$basic_string@DU?$char_traits@D@std@@V?$allocator@D@2@@std@@@2@@2@@std@@@2@@std@@QAE@XZ
_TEXT	SEGMENT
??1?$map@V?$basic_string@DU?$char_traits@D@std@@V?$allocator@D@2@@std@@V?$vector@V?$basic_string@DU?$char_traits@D@std@@V?$allocator@D@2@@std@@V?$allocator@V?$basic_string@DU?$char_traits@D@std@@V?$allocator@D@2@@std@@@2@@2@U?$less@V?$basic_string@DU?$char_traits@D@std@@V?$allocator@D@2@@std@@@2@V?$allocator@U?$pair@$$CBV?$basic_string@DU?$char_traits@D@std@@V?$allocator@D@2@@std@@V?$vector@V?$basic_string@DU?$char_traits@D@std@@V?$allocator@D@2@@std@@V?$allocator@V?$basic_string@DU?$char_traits@D@std@@V?$allocator@D@2@@std@@@2@@2@@std@@@2@@std@@QAE@XZ PROC ; std::map<std::basic_string<char,std::char_traits<char>,std::allocator<char> >,std::vector<std::basic_string<char,std::char_traits<char>,std::allocator<char> >,std::allocator<std::basic_string<char,std::char_traits<char>,std::allocator<char> > > >,std::less<std::basic_string<char,std::char_traits<char>,std::allocator<char> > >,std::allocator<std::pair<std::basic_string<char,std::char_traits<char>,std::allocator<char> > const ,std::vector<std::basic_string<char,std::char_traits<char>,std::allocator<char> >,std::allocator<std::basic_string<char,std::char_traits<char>,std::allocator<char> > > > > > >::~map<std::basic_string<char,std::char_traits<char>,std::allocator<char> >,std::vector<std::basic_string<char,std::char_traits<char>,std::allocator<char> >,std::allocator<std::basic_string<char,std::char_traits<char>,std::allocator<char> > > >,std::less<std::basic_string<char,std::char_traits<char>,std::allocator<char> > >,std::allocator<std::pair<std::basic_string<char,std::char_traits<char>,std::allocator<char> > const ,std::vector<std::basic_string<char,std::char_traits<char>,std::allocator<char> >,std::allocator<std::basic_string<char,std::char_traits<char>,std::allocator<char> > > > > > >, COMDAT
; _this$ = ecx
; File C:\Program Files (x86)\Microsoft Visual Studio\2019\Professional\VC\Tools\MSVC\14.29.30133\include\xtree

; 758  :         _Erase_tree(_Al, _Myhead->_Parent);

  00000	56		 push	 esi
  00001	8b f1		 mov	 esi, ecx
  00003	8b 06		 mov	 eax, DWORD PTR [esi]
  00005	ff 70 04	 push	 DWORD PTR [eax+4]
  00008	56		 push	 esi
  00009	e8 00 00 00 00	 call	 ??$_Erase_tree@V?$allocator@U?$_Tree_node@U?$pair@$$CBV?$basic_string@DU?$char_traits@D@std@@V?$allocator@D@2@@std@@V?$vector@V?$basic_string@DU?$char_traits@D@std@@V?$allocator@D@2@@std@@V?$allocator@V?$basic_string@DU?$char_traits@D@std@@V?$allocator@D@2@@std@@@2@@2@@std@@PAX@std@@@std@@@?$_Tree_val@U?$_Tree_simple_types@U?$pair@$$CBV?$basic_string@DU?$char_traits@D@std@@V?$allocator@D@2@@std@@V?$vector@V?$basic_string@DU?$char_traits@D@std@@V?$allocator@D@2@@std@@V?$allocator@V?$basic_string@DU?$char_traits@D@std@@V?$allocator@D@2@@std@@@2@@2@@std@@@std@@@std@@QAEXAAV?$allocator@U?$_Tree_node@U?$pair@$$CBV?$basic_string@DU?$char_traits@D@std@@V?$allocator@D@2@@std@@V?$vector@V?$basic_string@DU?$char_traits@D@std@@V?$allocator@D@2@@std@@V?$allocator@V?$basic_string@DU?$char_traits@D@std@@V?$allocator@D@2@@std@@@2@@2@@std@@PAX@std@@@1@PAU?$_Tree_node@U?$pair@$$CBV?$basic_string@DU?$char_traits@D@std@@V?$allocator@D@2@@std@@V?$vector@V?$basic_string@DU?$char_traits@D@std@@V?$allocator@D@2@@std@@V?$allocator@V?$basic_string@DU?$char_traits@D@std@@V?$allocator@D@2@@std@@@2@@2@@std@@PAX@1@@Z ; std::_Tree_val<std::_Tree_simple_types<std::pair<std::basic_string<char,std::char_traits<char>,std::allocator<char> > const ,std::vector<std::basic_string<char,std::char_traits<char>,std::allocator<char> >,std::allocator<std::basic_string<char,std::char_traits<char>,std::allocator<char> > > > > > >::_Erase_tree<std::allocator<std::_Tree_node<std::pair<std::basic_string<char,std::char_traits<char>,std::allocator<char> > const ,std::vector<std::basic_string<char,std::char_traits<char>,std::allocator<char> >,std::allocator<std::basic_string<char,std::char_traits<char>,std::allocator<char> > > > >,void *> > >
; File C:\Program Files (x86)\Microsoft Visual Studio\2019\Professional\VC\Tools\MSVC\14.29.30133\include\xmemory

; 264  :         ::operator delete(_Ptr, _Bytes);

  0000e	6a 34		 push	 52			; 00000034H
  00010	ff 36		 push	 DWORD PTR [esi]
  00012	e8 00 00 00 00	 call	 ??3@YAXPAXI@Z		; operator delete
  00017	83 c4 08	 add	 esp, 8
  0001a	5e		 pop	 esi
  0001b	c3		 ret	 0
??1?$map@V?$basic_string@DU?$char_traits@D@std@@V?$allocator@D@2@@std@@V?$vector@V?$basic_string@DU?$char_traits@D@std@@V?$allocator@D@2@@std@@V?$allocator@V?$basic_string@DU?$char_traits@D@std@@V?$allocator@D@2@@std@@@2@@2@U?$less@V?$basic_string@DU?$char_traits@D@std@@V?$allocator@D@2@@std@@@2@V?$allocator@U?$pair@$$CBV?$basic_string@DU?$char_traits@D@std@@V?$allocator@D@2@@std@@V?$vector@V?$basic_string@DU?$char_traits@D@std@@V?$allocator@D@2@@std@@V?$allocator@V?$basic_string@DU?$char_traits@D@std@@V?$allocator@D@2@@std@@@2@@2@@std@@@2@@std@@QAE@XZ ENDP ; std::map<std::basic_string<char,std::char_traits<char>,std::allocator<char> >,std::vector<std::basic_string<char,std::char_traits<char>,std::allocator<char> >,std::allocator<std::basic_string<char,std::char_traits<char>,std::allocator<char> > > >,std::less<std::basic_string<char,std::char_traits<char>,std::allocator<char> > >,std::allocator<std::pair<std::basic_string<char,std::char_traits<char>,std::allocator<char> > const ,std::vector<std::basic_string<char,std::char_traits<char>,std::allocator<char> >,std::allocator<std::basic_string<char,std::char_traits<char>,std::allocator<char> > > > > > >::~map<std::basic_string<char,std::char_traits<char>,std::allocator<char> >,std::vector<std::basic_string<char,std::char_traits<char>,std::allocator<char> >,std::allocator<std::basic_string<char,std::char_traits<char>,std::allocator<char> > > >,std::less<std::basic_string<char,std::char_traits<char>,std::allocator<char> > >,std::allocator<std::pair<std::basic_string<char,std::char_traits<char>,std::allocator<char> > const ,std::vector<std::basic_string<char,std::char_traits<char>,std::allocator<char> >,std::allocator<std::basic_string<char,std::char_traits<char>,std::allocator<char> > > > > > >
_TEXT	ENDS
; Function compile flags: /Ogtp
; File C:\Program Files (x86)\Microsoft Visual Studio\2019\Professional\VC\Tools\MSVC\14.29.30133\include\xtree
;	COMDAT ?_Insert_node@?$_Tree_val@U?$_Tree_simple_types@U?$pair@$$CBV?$basic_string@DU?$char_traits@D@std@@V?$allocator@D@2@@std@@V?$vector@V?$basic_string@DU?$char_traits@D@std@@V?$allocator@D@2@@std@@V?$allocator@V?$basic_string@DU?$char_traits@D@std@@V?$allocator@D@2@@std@@@2@@2@@std@@@std@@@std@@QAEPAU?$_Tree_node@U?$pair@$$CBV?$basic_string@DU?$char_traits@D@std@@V?$allocator@D@2@@std@@V?$vector@V?$basic_string@DU?$char_traits@D@std@@V?$allocator@D@2@@std@@V?$allocator@V?$basic_string@DU?$char_traits@D@std@@V?$allocator@D@2@@std@@@2@@2@@std@@PAX@2@U?$_Tree_id@PAU?$_Tree_node@U?$pair@$$CBV?$basic_string@DU?$char_traits@D@std@@V?$allocator@D@2@@std@@V?$vector@V?$basic_string@DU?$char_traits@D@std@@V?$allocator@D@2@@std@@V?$allocator@V?$basic_string@DU?$char_traits@D@std@@V?$allocator@D@2@@std@@@2@@2@@std@@PAX@std@@@2@QAU32@@Z
_TEXT	SEGMENT
__Head$1$ = -8						; size = 4
_this$1$ = -4						; size = 4
__Loc$ = 8						; size = 8
__Newnode$ = 16						; size = 4
?_Insert_node@?$_Tree_val@U?$_Tree_simple_types@U?$pair@$$CBV?$basic_string@DU?$char_traits@D@std@@V?$allocator@D@2@@std@@V?$vector@V?$basic_string@DU?$char_traits@D@std@@V?$allocator@D@2@@std@@V?$allocator@V?$basic_string@DU?$char_traits@D@std@@V?$allocator@D@2@@std@@@2@@2@@std@@@std@@@std@@QAEPAU?$_Tree_node@U?$pair@$$CBV?$basic_string@DU?$char_traits@D@std@@V?$allocator@D@2@@std@@V?$vector@V?$basic_string@DU?$char_traits@D@std@@V?$allocator@D@2@@std@@V?$allocator@V?$basic_string@DU?$char_traits@D@std@@V?$allocator@D@2@@std@@@2@@2@@std@@PAX@2@U?$_Tree_id@PAU?$_Tree_node@U?$pair@$$CBV?$basic_string@DU?$char_traits@D@std@@V?$allocator@D@2@@std@@V?$vector@V?$basic_string@DU?$char_traits@D@std@@V?$allocator@D@2@@std@@V?$allocator@V?$basic_string@DU?$char_traits@D@std@@V?$allocator@D@2@@std@@@2@@2@@std@@PAX@std@@@2@QAU32@@Z PROC ; std::_Tree_val<std::_Tree_simple_types<std::pair<std::basic_string<char,std::char_traits<char>,std::allocator<char> > const ,std::vector<std::basic_string<char,std::char_traits<char>,std::allocator<char> >,std::allocator<std::basic_string<char,std::char_traits<char>,std::allocator<char> > > > > > >::_Insert_node, COMDAT
; _this$ = ecx

; 650  :     _Nodeptr _Insert_node(const _Tree_id<_Nodeptr> _Loc, const _Nodeptr _Newnode) noexcept {

  00000	55		 push	 ebp
  00001	8b ec		 mov	 ebp, esp
  00003	83 ec 08	 sub	 esp, 8

; 651  :         ++_Mysize;
; 652  :         const auto _Head  = _Myhead;
; 653  :         _Newnode->_Parent = _Loc._Parent;

  00006	8b 55 08	 mov	 edx, DWORD PTR __Loc$[ebp]
  00009	8b c1		 mov	 eax, ecx
  0000b	89 45 fc	 mov	 DWORD PTR _this$1$[ebp], eax
  0000e	8b 08		 mov	 ecx, DWORD PTR [eax]
  00010	ff 40 04	 inc	 DWORD PTR [eax+4]
  00013	8b 45 10	 mov	 eax, DWORD PTR __Newnode$[ebp]
  00016	89 4d f8	 mov	 DWORD PTR __Head$1$[ebp], ecx
  00019	89 50 04	 mov	 DWORD PTR [eax+4], edx

; 654  :         if (_Loc._Parent == _Head) { // first node in tree, just set head values

  0001c	3b d1		 cmp	 edx, ecx
  0001e	75 12		 jne	 SHORT $LN5@Insert_nod

; 655  :             _Head->_Left     = _Newnode;

  00020	89 01		 mov	 DWORD PTR [ecx], eax

; 656  :             _Head->_Parent   = _Newnode;

  00022	89 41 04	 mov	 DWORD PTR [ecx+4], eax

; 657  :             _Head->_Right    = _Newnode;

  00025	89 41 08	 mov	 DWORD PTR [ecx+8], eax

; 658  :             _Newnode->_Color = _Black; // the root is black

  00028	c6 40 0c 01	 mov	 BYTE PTR [eax+12], 1

; 717  :     }

  0002c	8b e5		 mov	 esp, ebp
  0002e	5d		 pop	 ebp
  0002f	c2 0c 00	 ret	 12			; 0000000cH
$LN5@Insert_nod:

; 659  :             return _Newnode;
; 660  :         }
; 661  : 
; 662  :         _STL_INTERNAL_CHECK(_Loc._Child != _Tree_child::_Unused);
; 663  :         if (_Loc._Child == _Tree_child::_Right) { // add to right of _Loc._Parent

  00032	83 7d 0c 00	 cmp	 DWORD PTR __Loc$[ebp+4], 0
  00036	75 0d		 jne	 SHORT $LN6@Insert_nod

; 664  :             _STL_INTERNAL_CHECK(_Loc._Parent->_Right->_Isnil);
; 665  :             _Loc._Parent->_Right = _Newnode;

  00038	89 42 08	 mov	 DWORD PTR [edx+8], eax

; 666  :             if (_Loc._Parent == _Head->_Right) { // remember rightmost node

  0003b	3b 51 08	 cmp	 edx, DWORD PTR [ecx+8]
  0003e	75 0d		 jne	 SHORT $LN9@Insert_nod

; 667  :                 _Head->_Right = _Newnode;

  00040	89 41 08	 mov	 DWORD PTR [ecx+8], eax

; 668  :             }
; 669  :         } else { // add to left of _Loc._Parent

  00043	eb 08		 jmp	 SHORT $LN9@Insert_nod
$LN6@Insert_nod:

; 670  :             _STL_INTERNAL_CHECK(_Loc._Parent->_Left->_Isnil);
; 671  :             _Loc._Parent->_Left = _Newnode;

  00045	89 02		 mov	 DWORD PTR [edx], eax

; 672  :             if (_Loc._Parent == _Head->_Left) { // remember leftmost node

  00047	3b 11		 cmp	 edx, DWORD PTR [ecx]
  00049	75 02		 jne	 SHORT $LN9@Insert_nod

; 673  :                 _Head->_Left = _Newnode;

  0004b	89 01		 mov	 DWORD PTR [ecx], eax
$LN9@Insert_nod:

; 674  :             }
; 675  :         }
; 676  : 
; 677  :         for (_Nodeptr _Pnode = _Newnode; _Pnode->_Parent->_Color == _Red;) {

  0004d	8b d0		 mov	 edx, eax
  0004f	8b 40 04	 mov	 eax, DWORD PTR [eax+4]
  00052	80 78 0c 00	 cmp	 BYTE PTR [eax+12], 0
  00056	0f 85 99 01 00
	00		 jne	 $LN3@Insert_nod
  0005c	53		 push	 ebx
  0005d	56		 push	 esi
  0005e	57		 push	 edi
  0005f	90		 npad	 1
$LL2@Insert_nod:

; 678  :             if (_Pnode->_Parent == _Pnode->_Parent->_Parent->_Left) { // fixup red-red in left subtree

  00060	8b 4a 04	 mov	 ecx, DWORD PTR [edx+4]
  00063	8d 7a 04	 lea	 edi, DWORD PTR [edx+4]
  00066	8b 71 04	 mov	 esi, DWORD PTR [ecx+4]
  00069	8d 59 04	 lea	 ebx, DWORD PTR [ecx+4]
  0006c	8b 06		 mov	 eax, DWORD PTR [esi]
  0006e	3b c8		 cmp	 ecx, eax
  00070	0f 85 ba 00 00
	00		 jne	 $LN10@Insert_nod

; 679  :                 const auto _Parent_sibling = _Pnode->_Parent->_Parent->_Right;

  00076	8b 46 08	 mov	 eax, DWORD PTR [esi+8]

; 680  :                 if (_Parent_sibling->_Color == _Red) { // parent's sibling has two red children, blacken both

  00079	80 78 0c 00	 cmp	 BYTE PTR [eax+12], 0
  0007d	0f 84 b3 00 00
	00		 je	 $LN53@Insert_nod

; 681  :                     _Pnode->_Parent->_Color          = _Black;
; 682  :                     _Parent_sibling->_Color          = _Black;
; 683  :                     _Pnode->_Parent->_Parent->_Color = _Red;
; 684  :                     _Pnode                           = _Pnode->_Parent->_Parent;
; 685  :                 } else { // parent's sibling has red and black children
; 686  :                     if (_Pnode == _Pnode->_Parent->_Right) { // rotate right child to left

  00083	8b 71 08	 mov	 esi, DWORD PTR [ecx+8]
  00086	3b d6		 cmp	 edx, esi
  00088	75 47		 jne	 SHORT $LN51@Insert_nod

; 466  :         _Wherenode->_Right = _Pnode->_Left;

  0008a	8b 06		 mov	 eax, DWORD PTR [esi]

; 687  :                         _Pnode = _Pnode->_Parent;

  0008c	8b d1		 mov	 edx, ecx

; 466  :         _Wherenode->_Right = _Pnode->_Left;

  0008e	89 42 08	 mov	 DWORD PTR [edx+8], eax

; 467  : 
; 468  :         if (!_Pnode->_Left->_Isnil) {

  00091	8b 06		 mov	 eax, DWORD PTR [esi]
  00093	80 78 0d 00	 cmp	 BYTE PTR [eax+13], 0
  00097	75 03		 jne	 SHORT $LN20@Insert_nod

; 469  :             _Pnode->_Left->_Parent = _Wherenode;

  00099	89 50 04	 mov	 DWORD PTR [eax+4], edx
$LN20@Insert_nod:

; 470  :         }
; 471  : 
; 472  :         _Pnode->_Parent = _Wherenode->_Parent;

  0009c	8b 03		 mov	 eax, DWORD PTR [ebx]
  0009e	89 46 04	 mov	 DWORD PTR [esi+4], eax

; 473  : 
; 474  :         if (_Wherenode == _Myhead->_Parent) {

  000a1	8b 45 fc	 mov	 eax, DWORD PTR _this$1$[ebp]
  000a4	8b 00		 mov	 eax, DWORD PTR [eax]
  000a6	3b 50 04	 cmp	 edx, DWORD PTR [eax+4]
  000a9	75 0b		 jne	 SHORT $LN21@Insert_nod

; 475  :             _Myhead->_Parent = _Pnode;

  000ab	89 70 04	 mov	 DWORD PTR [eax+4], esi

; 483  :         _Wherenode->_Parent = _Pnode;

  000ae	8b fb		 mov	 edi, ebx
  000b0	89 16		 mov	 DWORD PTR [esi], edx
  000b2	89 33		 mov	 DWORD PTR [ebx], esi
  000b4	eb 1d		 jmp	 SHORT $LN49@Insert_nod
$LN21@Insert_nod:

; 476  :         } else if (_Wherenode == _Wherenode->_Parent->_Left) {

  000b6	8b 03		 mov	 eax, DWORD PTR [ebx]
  000b8	3b 10		 cmp	 edx, DWORD PTR [eax]
  000ba	75 0a		 jne	 SHORT $LN23@Insert_nod

; 477  :             _Wherenode->_Parent->_Left = _Pnode;

  000bc	89 30		 mov	 DWORD PTR [eax], esi

; 483  :         _Wherenode->_Parent = _Pnode;

  000be	8b fb		 mov	 edi, ebx
  000c0	89 16		 mov	 DWORD PTR [esi], edx
  000c2	89 33		 mov	 DWORD PTR [ebx], esi
  000c4	eb 0d		 jmp	 SHORT $LN49@Insert_nod
$LN23@Insert_nod:

; 479  :             _Wherenode->_Parent->_Right = _Pnode;

  000c6	89 70 08	 mov	 DWORD PTR [eax+8], esi

; 483  :         _Wherenode->_Parent = _Pnode;

  000c9	8b fb		 mov	 edi, ebx
  000cb	89 16		 mov	 DWORD PTR [esi], edx
  000cd	89 33		 mov	 DWORD PTR [ebx], esi
  000cf	eb 02		 jmp	 SHORT $LN49@Insert_nod
$LN51@Insert_nod:
  000d1	8b f1		 mov	 esi, ecx
$LN49@Insert_nod:

; 688  :                         _Lrotate(_Pnode);
; 689  :                     }
; 690  : 
; 691  :                     _Pnode->_Parent->_Color          = _Black; // propagate red up

  000d3	c6 46 0c 01	 mov	 BYTE PTR [esi+12], 1

; 692  :                     _Pnode->_Parent->_Parent->_Color = _Red;

  000d7	8b 07		 mov	 eax, DWORD PTR [edi]
  000d9	8b 40 04	 mov	 eax, DWORD PTR [eax+4]
  000dc	c6 40 0c 00	 mov	 BYTE PTR [eax+12], 0

; 693  :                     _Rrotate(_Pnode->_Parent->_Parent);

  000e0	8b 07		 mov	 eax, DWORD PTR [edi]
  000e2	8b 48 04	 mov	 ecx, DWORD PTR [eax+4]

; 487  :         _Nodeptr _Pnode   = _Wherenode->_Left;

  000e5	8b 31		 mov	 esi, DWORD PTR [ecx]

; 488  :         _Wherenode->_Left = _Pnode->_Right;

  000e7	8b 46 08	 mov	 eax, DWORD PTR [esi+8]
  000ea	89 01		 mov	 DWORD PTR [ecx], eax

; 489  : 
; 490  :         if (!_Pnode->_Right->_Isnil) {

  000ec	8b 46 08	 mov	 eax, DWORD PTR [esi+8]
  000ef	80 78 0d 00	 cmp	 BYTE PTR [eax+13], 0
  000f3	75 03		 jne	 SHORT $LN27@Insert_nod

; 491  :             _Pnode->_Right->_Parent = _Wherenode;

  000f5	89 48 04	 mov	 DWORD PTR [eax+4], ecx
$LN27@Insert_nod:

; 492  :         }
; 493  : 
; 494  :         _Pnode->_Parent = _Wherenode->_Parent;

  000f8	8b 41 04	 mov	 eax, DWORD PTR [ecx+4]
  000fb	89 46 04	 mov	 DWORD PTR [esi+4], eax

; 495  : 
; 496  :         if (_Wherenode == _Myhead->_Parent) {

  000fe	8b 45 fc	 mov	 eax, DWORD PTR _this$1$[ebp]
  00101	8b 00		 mov	 eax, DWORD PTR [eax]
  00103	3b 48 04	 cmp	 ecx, DWORD PTR [eax+4]
  00106	75 0b		 jne	 SHORT $LN28@Insert_nod

; 497  :             _Myhead->_Parent = _Pnode;

  00108	89 70 04	 mov	 DWORD PTR [eax+4], esi

; 502  :         }
; 503  : 
; 504  :         _Pnode->_Right      = _Wherenode;

  0010b	89 4e 08	 mov	 DWORD PTR [esi+8], ecx

; 694  :                 }
; 695  :             } else { // fixup red-red in right subtree

  0010e	e9 cc 00 00 00	 jmp	 $LN52@Insert_nod
$LN28@Insert_nod:

; 498  :         } else if (_Wherenode == _Wherenode->_Parent->_Right) {

  00113	8b 41 04	 mov	 eax, DWORD PTR [ecx+4]
  00116	3b 48 08	 cmp	 ecx, DWORD PTR [eax+8]
  00119	75 0b		 jne	 SHORT $LN30@Insert_nod

; 499  :             _Wherenode->_Parent->_Right = _Pnode;

  0011b	89 70 08	 mov	 DWORD PTR [eax+8], esi

; 502  :         }
; 503  : 
; 504  :         _Pnode->_Right      = _Wherenode;

  0011e	89 4e 08	 mov	 DWORD PTR [esi+8], ecx

; 694  :                 }
; 695  :             } else { // fixup red-red in right subtree

  00121	e9 b9 00 00 00	 jmp	 $LN52@Insert_nod
$LN30@Insert_nod:

; 501  :             _Wherenode->_Parent->_Left = _Pnode;

  00126	89 30		 mov	 DWORD PTR [eax], esi

; 502  :         }
; 503  : 
; 504  :         _Pnode->_Right      = _Wherenode;

  00128	89 4e 08	 mov	 DWORD PTR [esi+8], ecx

; 694  :                 }
; 695  :             } else { // fixup red-red in right subtree

  0012b	e9 af 00 00 00	 jmp	 $LN52@Insert_nod
$LN10@Insert_nod:

; 696  :                 const auto _Parent_sibling = _Pnode->_Parent->_Parent->_Left;
; 697  :                 if (_Parent_sibling->_Color == _Red) { // parent's sibling has two red children, blacken both

  00130	80 78 0c 00	 cmp	 BYTE PTR [eax+12], 0
  00134	75 1b		 jne	 SHORT $LN15@Insert_nod
$LN53@Insert_nod:

; 674  :             }
; 675  :         }
; 676  : 
; 677  :         for (_Nodeptr _Pnode = _Newnode; _Pnode->_Parent->_Color == _Red;) {

  00136	c6 41 0c 01	 mov	 BYTE PTR [ecx+12], 1
  0013a	c6 40 0c 01	 mov	 BYTE PTR [eax+12], 1
  0013e	8b 07		 mov	 eax, DWORD PTR [edi]
  00140	8b 40 04	 mov	 eax, DWORD PTR [eax+4]
  00143	c6 40 0c 00	 mov	 BYTE PTR [eax+12], 0
  00147	8b 07		 mov	 eax, DWORD PTR [edi]
  00149	8b 50 04	 mov	 edx, DWORD PTR [eax+4]
  0014c	e9 91 00 00 00	 jmp	 $LN46@Insert_nod
$LN15@Insert_nod:

; 698  :                     _Pnode->_Parent->_Color          = _Black;
; 699  :                     _Parent_sibling->_Color          = _Black;
; 700  :                     _Pnode->_Parent->_Parent->_Color = _Red;
; 701  :                     _Pnode                           = _Pnode->_Parent->_Parent;
; 702  :                 } else { // parent's sibling has red and black children
; 703  :                     if (_Pnode == _Pnode->_Parent->_Left) { // rotate left child to right

  00151	8b 01		 mov	 eax, DWORD PTR [ecx]
  00153	3b d0		 cmp	 edx, eax
  00155	75 3e		 jne	 SHORT $LN39@Insert_nod

; 704  :                         _Pnode = _Pnode->_Parent;

  00157	8b d1		 mov	 edx, ecx

; 487  :         _Nodeptr _Pnode   = _Wherenode->_Left;

  00159	8b c8		 mov	 ecx, eax

; 488  :         _Wherenode->_Left = _Pnode->_Right;

  0015b	8b 41 08	 mov	 eax, DWORD PTR [ecx+8]
  0015e	89 02		 mov	 DWORD PTR [edx], eax

; 489  : 
; 490  :         if (!_Pnode->_Right->_Isnil) {

  00160	8b 41 08	 mov	 eax, DWORD PTR [ecx+8]
  00163	80 78 0d 00	 cmp	 BYTE PTR [eax+13], 0
  00167	75 03		 jne	 SHORT $LN34@Insert_nod

; 491  :             _Pnode->_Right->_Parent = _Wherenode;

  00169	89 50 04	 mov	 DWORD PTR [eax+4], edx
$LN34@Insert_nod:

; 492  :         }
; 493  : 
; 494  :         _Pnode->_Parent = _Wherenode->_Parent;

  0016c	8b 03		 mov	 eax, DWORD PTR [ebx]
  0016e	89 41 04	 mov	 DWORD PTR [ecx+4], eax

; 495  : 
; 496  :         if (_Wherenode == _Myhead->_Parent) {

  00171	8b 45 fc	 mov	 eax, DWORD PTR _this$1$[ebp]
  00174	8b 00		 mov	 eax, DWORD PTR [eax]
  00176	3b 50 04	 cmp	 edx, DWORD PTR [eax+4]
  00179	75 05		 jne	 SHORT $LN35@Insert_nod

; 497  :             _Myhead->_Parent = _Pnode;

  0017b	89 48 04	 mov	 DWORD PTR [eax+4], ecx
  0017e	eb 0e		 jmp	 SHORT $LN38@Insert_nod
$LN35@Insert_nod:

; 498  :         } else if (_Wherenode == _Wherenode->_Parent->_Right) {

  00180	8b 03		 mov	 eax, DWORD PTR [ebx]
  00182	3b 50 08	 cmp	 edx, DWORD PTR [eax+8]
  00185	75 05		 jne	 SHORT $LN37@Insert_nod

; 499  :             _Wherenode->_Parent->_Right = _Pnode;

  00187	89 48 08	 mov	 DWORD PTR [eax+8], ecx

; 500  :         } else {

  0018a	eb 02		 jmp	 SHORT $LN38@Insert_nod
$LN37@Insert_nod:

; 501  :             _Wherenode->_Parent->_Left = _Pnode;

  0018c	89 08		 mov	 DWORD PTR [eax], ecx
$LN38@Insert_nod:

; 502  :         }
; 503  : 
; 504  :         _Pnode->_Right      = _Wherenode;

  0018e	89 51 08	 mov	 DWORD PTR [ecx+8], edx

; 505  :         _Wherenode->_Parent = _Pnode;

  00191	8b fb		 mov	 edi, ebx
  00193	89 0b		 mov	 DWORD PTR [ebx], ecx
$LN39@Insert_nod:

; 705  :                         _Rrotate(_Pnode);
; 706  :                     }
; 707  : 
; 708  :                     _Pnode->_Parent->_Color          = _Black; // propagate red up

  00195	c6 41 0c 01	 mov	 BYTE PTR [ecx+12], 1

; 709  :                     _Pnode->_Parent->_Parent->_Color = _Red;

  00199	8b 07		 mov	 eax, DWORD PTR [edi]
  0019b	8b 40 04	 mov	 eax, DWORD PTR [eax+4]
  0019e	c6 40 0c 00	 mov	 BYTE PTR [eax+12], 0

; 710  :                     _Lrotate(_Pnode->_Parent->_Parent);

  001a2	8b 07		 mov	 eax, DWORD PTR [edi]
  001a4	8b 48 04	 mov	 ecx, DWORD PTR [eax+4]

; 465  :         _Nodeptr _Pnode    = _Wherenode->_Right;

  001a7	8b 71 08	 mov	 esi, DWORD PTR [ecx+8]

; 466  :         _Wherenode->_Right = _Pnode->_Left;

  001aa	8b 06		 mov	 eax, DWORD PTR [esi]
  001ac	89 41 08	 mov	 DWORD PTR [ecx+8], eax

; 467  : 
; 468  :         if (!_Pnode->_Left->_Isnil) {

  001af	8b 06		 mov	 eax, DWORD PTR [esi]
  001b1	80 78 0d 00	 cmp	 BYTE PTR [eax+13], 0
  001b5	75 03		 jne	 SHORT $LN41@Insert_nod

; 469  :             _Pnode->_Left->_Parent = _Wherenode;

  001b7	89 48 04	 mov	 DWORD PTR [eax+4], ecx
$LN41@Insert_nod:

; 470  :         }
; 471  : 
; 472  :         _Pnode->_Parent = _Wherenode->_Parent;

  001ba	8b 41 04	 mov	 eax, DWORD PTR [ecx+4]
  001bd	89 46 04	 mov	 DWORD PTR [esi+4], eax

; 473  : 
; 474  :         if (_Wherenode == _Myhead->_Parent) {

  001c0	8b 45 fc	 mov	 eax, DWORD PTR _this$1$[ebp]
  001c3	8b 00		 mov	 eax, DWORD PTR [eax]
  001c5	3b 48 04	 cmp	 ecx, DWORD PTR [eax+4]
  001c8	75 05		 jne	 SHORT $LN42@Insert_nod

; 475  :             _Myhead->_Parent = _Pnode;

  001ca	89 70 04	 mov	 DWORD PTR [eax+4], esi
  001cd	eb 0e		 jmp	 SHORT $LN45@Insert_nod
$LN42@Insert_nod:

; 476  :         } else if (_Wherenode == _Wherenode->_Parent->_Left) {

  001cf	8b 41 04	 mov	 eax, DWORD PTR [ecx+4]
  001d2	3b 08		 cmp	 ecx, DWORD PTR [eax]
  001d4	75 04		 jne	 SHORT $LN44@Insert_nod

; 477  :             _Wherenode->_Parent->_Left = _Pnode;

  001d6	89 30		 mov	 DWORD PTR [eax], esi

; 478  :         } else {

  001d8	eb 03		 jmp	 SHORT $LN45@Insert_nod
$LN44@Insert_nod:

; 479  :             _Wherenode->_Parent->_Right = _Pnode;

  001da	89 70 08	 mov	 DWORD PTR [eax+8], esi
$LN45@Insert_nod:

; 480  :         }
; 481  : 
; 482  :         _Pnode->_Left       = _Wherenode;

  001dd	89 0e		 mov	 DWORD PTR [esi], ecx
$LN52@Insert_nod:

; 674  :             }
; 675  :         }
; 676  : 
; 677  :         for (_Nodeptr _Pnode = _Newnode; _Pnode->_Parent->_Color == _Red;) {

  001df	89 71 04	 mov	 DWORD PTR [ecx+4], esi
$LN46@Insert_nod:
  001e2	8b 42 04	 mov	 eax, DWORD PTR [edx+4]
  001e5	80 78 0c 00	 cmp	 BYTE PTR [eax+12], 0
  001e9	0f 84 71 fe ff
	ff		 je	 $LL2@Insert_nod
  001ef	8b 4d f8	 mov	 ecx, DWORD PTR __Head$1$[ebp]
  001f2	5f		 pop	 edi
  001f3	5e		 pop	 esi
  001f4	5b		 pop	 ebx
$LN3@Insert_nod:

; 711  :                 }
; 712  :             }
; 713  :         }
; 714  : 
; 715  :         _Head->_Parent->_Color = _Black; // root is always black

  001f5	8b 41 04	 mov	 eax, DWORD PTR [ecx+4]
  001f8	c6 40 0c 01	 mov	 BYTE PTR [eax+12], 1

; 716  :         return _Newnode;

  001fc	8b 45 10	 mov	 eax, DWORD PTR __Newnode$[ebp]

; 717  :     }

  001ff	8b e5		 mov	 esp, ebp
  00201	5d		 pop	 ebp
  00202	c2 0c 00	 ret	 12			; 0000000cH
?_Insert_node@?$_Tree_val@U?$_Tree_simple_types@U?$pair@$$CBV?$basic_string@DU?$char_traits@D@std@@V?$allocator@D@2@@std@@V?$vector@V?$basic_string@DU?$char_traits@D@std@@V?$allocator@D@2@@std@@V?$allocator@V?$basic_string@DU?$char_traits@D@std@@V?$allocator@D@2@@std@@@2@@2@@std@@@std@@@std@@QAEPAU?$_Tree_node@U?$pair@$$CBV?$basic_string@DU?$char_traits@D@std@@V?$allocator@D@2@@std@@V?$vector@V?$basic_string@DU?$char_traits@D@std@@V?$allocator@D@2@@std@@V?$allocator@V?$basic_string@DU?$char_traits@D@std@@V?$allocator@D@2@@std@@@2@@2@@std@@PAX@2@U?$_Tree_id@PAU?$_Tree_node@U?$pair@$$CBV?$basic_string@DU?$char_traits@D@std@@V?$allocator@D@2@@std@@V?$vector@V?$basic_string@DU?$char_traits@D@std@@V?$allocator@D@2@@std@@V?$allocator@V?$basic_string@DU?$char_traits@D@std@@V?$allocator@D@2@@std@@@2@@2@@std@@PAX@std@@@2@QAU32@@Z ENDP ; std::_Tree_val<std::_Tree_simple_types<std::pair<std::basic_string<char,std::char_traits<char>,std::allocator<char> > const ,std::vector<std::basic_string<char,std::char_traits<char>,std::allocator<char> >,std::allocator<std::basic_string<char,std::char_traits<char>,std::allocator<char> > > > > > >::_Insert_node
_TEXT	ENDS
; Function compile flags: /Ogtp
;	COMDAT ??_GCTextureSet@@UAEPAXI@Z
_TEXT	SEGMENT
___flags$ = 8						; size = 4
??_GCTextureSet@@UAEPAXI@Z PROC				; CTextureSet::`scalar deleting destructor', COMDAT
; _this$ = ecx
  00000	55		 push	 ebp
  00001	8b ec		 mov	 ebp, esp
  00003	56		 push	 esi
  00004	8b f1		 mov	 esi, ecx
  00006	e8 00 00 00 00	 call	 ??1CTextureSet@@UAE@XZ	; CTextureSet::~CTextureSet
  0000b	f6 45 08 01	 test	 BYTE PTR ___flags$[ebp], 1
  0000f	74 0e		 je	 SHORT $LN4@scalar
  00011	68 bc 00 00 00	 push	 188			; 000000bcH
  00016	56		 push	 esi
  00017	e8 00 00 00 00	 call	 ??3@YAXPAXI@Z		; operator delete
  0001c	83 c4 08	 add	 esp, 8
$LN4@scalar:
  0001f	8b c6		 mov	 eax, esi
  00021	5e		 pop	 esi
  00022	5d		 pop	 ebp
  00023	c2 04 00	 ret	 4
??_GCTextureSet@@UAEPAXI@Z ENDP				; CTextureSet::`scalar deleting destructor'
_TEXT	ENDS
; Function compile flags: /Ogtp
; File C:\Program Files (x86)\Microsoft Visual Studio\2019\Professional\VC\Tools\MSVC\14.29.30133\include\vector
;	COMDAT ?_Getal@?$vector@USTerrainTexture@@V?$allocator@USTerrainTexture@@@std@@@std@@AAEAAV?$allocator@USTerrainTexture@@@2@XZ
_TEXT	SEGMENT
?_Getal@?$vector@USTerrainTexture@@V?$allocator@USTerrainTexture@@@std@@@std@@AAEAAV?$allocator@USTerrainTexture@@@2@XZ PROC ; std::vector<STerrainTexture,std::allocator<STerrainTexture> >::_Getal, COMDAT
; _this$ = ecx

; 1818 :         return _Mypair._Get_first();

  00000	8b c1		 mov	 eax, ecx

; 1819 :     }

  00002	c3		 ret	 0
?_Getal@?$vector@USTerrainTexture@@V?$allocator@USTerrainTexture@@@std@@@std@@AAEAAV?$allocator@USTerrainTexture@@@2@XZ ENDP ; std::vector<STerrainTexture,std::allocator<STerrainTexture> >::_Getal
_TEXT	ENDS
; Function compile flags: /Ogtp
; File C:\Program Files (x86)\Microsoft Visual Studio\2019\Professional\VC\Tools\MSVC\14.29.30133\include\vector
;	COMDAT ?_Xlength@?$vector@USTerrainTexture@@V?$allocator@USTerrainTexture@@@std@@@std@@CAXXZ
_TEXT	SEGMENT
?_Xlength@?$vector@USTerrainTexture@@V?$allocator@USTerrainTexture@@@std@@@std@@CAXXZ PROC ; std::vector<STerrainTexture,std::allocator<STerrainTexture> >::_Xlength, COMDAT

; 1774 :         _Xlength_error("vector too long");

  00000	68 00 00 00 00	 push	 OFFSET ??_C@_0BA@FOIKENOD@vector?5too?5long@
  00005	e8 00 00 00 00	 call	 ?_Xlength_error@std@@YAXPBD@Z ; std::_Xlength_error
$LN3@Xlength:
  0000a	cc		 int	 3
?_Xlength@?$vector@USTerrainTexture@@V?$allocator@USTerrainTexture@@@std@@@std@@CAXXZ ENDP ; std::vector<STerrainTexture,std::allocator<STerrainTexture> >::_Xlength
_TEXT	ENDS
; Function compile flags: /Ogtp
; File C:\Program Files (x86)\Microsoft Visual Studio\2019\Professional\VC\Tools\MSVC\14.29.30133\include\vector
; File C:\Program Files (x86)\Microsoft Visual Studio\2019\Professional\VC\Tools\MSVC\14.29.30133\include\xmemory
; File C:\Program Files (x86)\Microsoft Visual Studio\2019\Professional\VC\Tools\MSVC\14.29.30133\include\vector
; File C:\Program Files (x86)\Microsoft Visual Studio\2019\Professional\VC\Tools\MSVC\14.29.30133\include\xmemory
; File C:\Program Files (x86)\Microsoft Visual Studio\2019\Professional\VC\Tools\MSVC\14.29.30133\include\vector
;	COMDAT ?_Change_array@?$vector@USTerrainTexture@@V?$allocator@USTerrainTexture@@@std@@@std@@AAEXQAUSTerrainTexture@@II@Z
_TEXT	SEGMENT
__Newvec$ = 8						; size = 4
__Newsize$ = 12						; size = 4
__Newcapacity$ = 16					; size = 4
?_Change_array@?$vector@USTerrainTexture@@V?$allocator@USTerrainTexture@@@std@@@std@@AAEXQAUSTerrainTexture@@II@Z PROC ; std::vector<STerrainTexture,std::allocator<STerrainTexture> >::_Change_array, COMDAT
; _this$ = ecx

; 1736 :         const pointer _Newvec, const size_type _Newsize, const size_type _Newcapacity) {

  00000	55		 push	 ebp
  00001	8b ec		 mov	 ebp, esp
  00003	56		 push	 esi
  00004	8b f1		 mov	 esi, ecx

; 1737 :         // orphan all iterators, discard old array, acquire new array
; 1738 :         auto& _My_data    = _Mypair._Myval2;
; 1739 :         pointer& _Myfirst = _My_data._Myfirst;
; 1740 :         pointer& _Mylast  = _My_data._Mylast;
; 1741 :         pointer& _Myend   = _My_data._Myend;
; 1742 : 
; 1743 :         _My_data._Orphan_all();
; 1744 : 
; 1745 :         if (_Myfirst) { // destroy and deallocate old array

  00006	8b 06		 mov	 eax, DWORD PTR [esi]
  00008	85 c0		 test	 eax, eax
  0000a	74 53		 je	 SHORT $LN10@Change_arr

; 1680 :         _Destroy_range(_First, _Last, _Getal());

  0000c	57		 push	 edi
  0000d	56		 push	 esi
  0000e	ff 76 04	 push	 DWORD PTR [esi+4]
  00011	50		 push	 eax
  00012	e8 00 00 00 00	 call	 ??$_Destroy_range@V?$allocator@USTerrainTexture@@@std@@@std@@YAXPAUSTerrainTexture@@QAU1@AAV?$allocator@USTerrainTexture@@@0@@Z ; std::_Destroy_range<std::allocator<STerrainTexture> >

; 1746 :             _Destroy(_Myfirst, _Mylast);
; 1747 :             _Getal().deallocate(_Myfirst, static_cast<size_type>(_Myend - _Myfirst));

  00017	8b 4e 08	 mov	 ecx, DWORD PTR [esi+8]
  0001a	b8 a7 c8 67 dd	 mov	 eax, -580400985		; dd67c8a7H
  0001f	8b 3e		 mov	 edi, DWORD PTR [esi]

; 1680 :         _Destroy_range(_First, _Last, _Getal());

  00021	83 c4 0c	 add	 esp, 12			; 0000000cH

; 1746 :             _Destroy(_Myfirst, _Mylast);
; 1747 :             _Getal().deallocate(_Myfirst, static_cast<size_type>(_Myend - _Myfirst));

  00024	2b cf		 sub	 ecx, edi
  00026	f7 e9		 imul	 ecx
  00028	03 d1		 add	 edx, ecx
  0002a	c1 fa 07	 sar	 edx, 7
  0002d	8b c2		 mov	 eax, edx
  0002f	c1 e8 1f	 shr	 eax, 31			; 0000001fH
  00032	03 c2		 add	 eax, edx
; File C:\Program Files (x86)\Microsoft Visual Studio\2019\Professional\VC\Tools\MSVC\14.29.30133\include\xmemory

; 835  :         _Deallocate<_New_alignof<_Ty>>(_Ptr, sizeof(_Ty) * _Count);

  00034	69 c8 94 00 00
	00		 imul	 ecx, eax, 148

; 260  :         if (_Bytes >= _Big_allocation_threshold) { // boost the alignment of big allocations to help autovectorization

  0003a	81 f9 00 10 00
	00		 cmp	 ecx, 4096		; 00001000H
  00040	72 12		 jb	 SHORT $LN20@Change_arr

; 158  :     const uintptr_t _Ptr_container   = _Ptr_user[-1];

  00042	8b 57 fc	 mov	 edx, DWORD PTR [edi-4]
  00045	83 c1 23	 add	 ecx, 35			; 00000023H

; 159  : 
; 160  :     // If the following asserts, it likely means that we are performing
; 161  :     // an aligned delete on memory coming from an unaligned allocation.
; 162  :     _STL_ASSERT(_Ptr_user[-2] == _Big_allocation_sentinel, "invalid argument");
; 163  : 
; 164  :     // Extra paranoia on aligned allocation/deallocation; ensure _Ptr_container is
; 165  :     // in range [_Min_back_shift, _Non_user_size]
; 166  : #ifdef _DEBUG
; 167  :     constexpr uintptr_t _Min_back_shift = 2 * sizeof(void*);
; 168  : #else // ^^^ _DEBUG ^^^ // vvv !_DEBUG vvv
; 169  :     constexpr uintptr_t _Min_back_shift = sizeof(void*);
; 170  : #endif // _DEBUG
; 171  :     const uintptr_t _Back_shift = reinterpret_cast<uintptr_t>(_Ptr) - _Ptr_container;

  00048	2b fa		 sub	 edi, edx

; 172  :     _STL_VERIFY(_Back_shift >= _Min_back_shift && _Back_shift <= _Non_user_size, "invalid argument");

  0004a	8d 47 fc	 lea	 eax, DWORD PTR [edi-4]
  0004d	83 f8 1f	 cmp	 eax, 31			; 0000001fH
  00050	77 2f		 ja	 SHORT $LN17@Change_arr

; 173  :     _Ptr = reinterpret_cast<void*>(_Ptr_container);

  00052	8b fa		 mov	 edi, edx
$LN20@Change_arr:

; 264  :         ::operator delete(_Ptr, _Bytes);

  00054	51		 push	 ecx
  00055	57		 push	 edi
  00056	e8 00 00 00 00	 call	 ??3@YAXPAXI@Z		; operator delete
  0005b	83 c4 08	 add	 esp, 8
  0005e	5f		 pop	 edi
$LN10@Change_arr:
; File C:\Program Files (x86)\Microsoft Visual Studio\2019\Professional\VC\Tools\MSVC\14.29.30133\include\vector

; 1751 :         _Mylast  = _Newvec + _Newsize;

  0005f	69 45 0c 94 00
	00 00		 imul	 eax, DWORD PTR __Newsize$[ebp], 148
  00066	8b 4d 08	 mov	 ecx, DWORD PTR __Newvec$[ebp]
  00069	89 0e		 mov	 DWORD PTR [esi], ecx
  0006b	03 c1		 add	 eax, ecx
  0006d	89 46 04	 mov	 DWORD PTR [esi+4], eax

; 1752 :         _Myend   = _Newvec + _Newcapacity;

  00070	69 45 10 94 00
	00 00		 imul	 eax, DWORD PTR __Newcapacity$[ebp], 148
  00077	03 c1		 add	 eax, ecx
  00079	89 46 08	 mov	 DWORD PTR [esi+8], eax
  0007c	5e		 pop	 esi

; 1753 :     }

  0007d	5d		 pop	 ebp
  0007e	c2 0c 00	 ret	 12			; 0000000cH
$LN17@Change_arr:
; File C:\Program Files (x86)\Microsoft Visual Studio\2019\Professional\VC\Tools\MSVC\14.29.30133\include\xmemory

; 172  :     _STL_VERIFY(_Back_shift >= _Min_back_shift && _Back_shift <= _Non_user_size, "invalid argument");

  00081	e8 00 00 00 00	 call	 __invalid_parameter_noinfo_noreturn
$LN24@Change_arr:
  00086	cc		 int	 3
?_Change_array@?$vector@USTerrainTexture@@V?$allocator@USTerrainTexture@@@std@@@std@@AAEXQAUSTerrainTexture@@II@Z ENDP ; std::vector<STerrainTexture,std::allocator<STerrainTexture> >::_Change_array
_TEXT	ENDS
; Function compile flags: /Ogtp
; File C:\Program Files (x86)\Microsoft Visual Studio\2019\Professional\VC\Tools\MSVC\14.29.30133\include\vector
;	COMDAT ?_Destroy@?$vector@USTerrainTexture@@V?$allocator@USTerrainTexture@@@std@@@std@@AAEXPAUSTerrainTexture@@0@Z
_TEXT	SEGMENT
__First$ = 8						; size = 4
__Last$ = 12						; size = 4
?_Destroy@?$vector@USTerrainTexture@@V?$allocator@USTerrainTexture@@@std@@@std@@AAEXPAUSTerrainTexture@@0@Z PROC ; std::vector<STerrainTexture,std::allocator<STerrainTexture> >::_Destroy, COMDAT
; _this$ = ecx

; 1678 :     _CONSTEXPR20_CONTAINER void _Destroy(pointer _First, pointer _Last) {

  00000	55		 push	 ebp
  00001	8b ec		 mov	 ebp, esp

; 1679 :         // destroy [_First, _Last) using allocator
; 1680 :         _Destroy_range(_First, _Last, _Getal());

  00003	51		 push	 ecx
  00004	ff 75 0c	 push	 DWORD PTR __Last$[ebp]
  00007	ff 75 08	 push	 DWORD PTR __First$[ebp]
  0000a	e8 00 00 00 00	 call	 ??$_Destroy_range@V?$allocator@USTerrainTexture@@@std@@@std@@YAXPAUSTerrainTexture@@QAU1@AAV?$allocator@USTerrainTexture@@@0@@Z ; std::_Destroy_range<std::allocator<STerrainTexture> >
  0000f	83 c4 0c	 add	 esp, 12			; 0000000cH

; 1681 :     }

  00012	5d		 pop	 ebp
  00013	c2 08 00	 ret	 8
?_Destroy@?$vector@USTerrainTexture@@V?$allocator@USTerrainTexture@@@std@@@std@@AAEXPAUSTerrainTexture@@0@Z ENDP ; std::vector<STerrainTexture,std::allocator<STerrainTexture> >::_Destroy
_TEXT	ENDS
; Function compile flags: /Ogtp
; File C:\Program Files (x86)\Microsoft Visual Studio\2019\Professional\VC\Tools\MSVC\14.29.30133\include\vector
; File C:\Program Files (x86)\Microsoft Visual Studio\2019\Professional\VC\Tools\MSVC\14.29.30133\include\xmemory
; File C:\Program Files (x86)\Microsoft Visual Studio\2019\Professional\VC\Tools\MSVC\14.29.30133\include\vector
;	COMDAT ?_Umove_if_noexcept@?$vector@USTerrainTexture@@V?$allocator@USTerrainTexture@@@std@@@std@@AAEXPAUSTerrainTexture@@00@Z
_TEXT	SEGMENT
__Backout$2 = -28					; size = 12
_this$1$ = -16						; size = 4
__$EHRec$ = -12						; size = 12
__First$ = 8						; size = 4
__Last$ = 12						; size = 4
__Dest$ = 16						; size = 4
?_Umove_if_noexcept@?$vector@USTerrainTexture@@V?$allocator@USTerrainTexture@@@std@@@std@@AAEXPAUSTerrainTexture@@00@Z PROC ; std::vector<STerrainTexture,std::allocator<STerrainTexture> >::_Umove_if_noexcept, COMDAT
; _this$ = ecx

; 1672 :     _CONSTEXPR20_CONTAINER void _Umove_if_noexcept(pointer _First, pointer _Last, pointer _Dest) {

  00000	55		 push	 ebp
  00001	8b ec		 mov	 ebp, esp
  00003	6a ff		 push	 -1
  00005	68 00 00 00 00	 push	 __ehhandler$?_Umove_if_noexcept@?$vector@USTerrainTexture@@V?$allocator@USTerrainTexture@@@std@@@std@@AAEXPAUSTerrainTexture@@00@Z
  0000a	64 a1 00 00 00
	00		 mov	 eax, DWORD PTR fs:0
  00010	50		 push	 eax
  00011	83 ec 10	 sub	 esp, 16			; 00000010H
  00014	53		 push	 ebx
  00015	56		 push	 esi
  00016	57		 push	 edi
  00017	a1 00 00 00 00	 mov	 eax, DWORD PTR ___security_cookie
  0001c	33 c5		 xor	 eax, ebp
  0001e	50		 push	 eax
  0001f	8d 45 f4	 lea	 eax, DWORD PTR __$EHRec$[ebp]
  00022	64 a3 00 00 00
	00		 mov	 DWORD PTR fs:0, eax
  00028	8b c1		 mov	 eax, ecx
  0002a	89 45 f0	 mov	 DWORD PTR _this$1$[ebp], eax
; File C:\Program Files (x86)\Microsoft Visual Studio\2019\Professional\VC\Tools\MSVC\14.29.30133\include\xmemory

; 1620 :         : _First(_Dest), _Last(_Dest), _Al(_Al_) {}

  0002d	8b 7d 10	 mov	 edi, DWORD PTR __Dest$[ebp]

; 1654 :     auto _UFirst      = _Get_unwrapped(_First);

  00030	8b 75 08	 mov	 esi, DWORD PTR __First$[ebp]

; 1620 :         : _First(_Dest), _Last(_Dest), _Al(_Al_) {}

  00033	89 7d e4	 mov	 DWORD PTR __Backout$2[ebp], edi
  00036	89 7d e8	 mov	 DWORD PTR __Backout$2[ebp+4], edi
  00039	89 45 ec	 mov	 DWORD PTR __Backout$2[ebp+8], eax

; 1670 :     for (; _UFirst != _ULast; ++_UFirst) {

  0003c	8b 5d 0c	 mov	 ebx, DWORD PTR __Last$[ebp]
  0003f	c7 45 fc 00 00
	00 00		 mov	 DWORD PTR __$EHRec$[ebp+8], 0
  00046	3b f3		 cmp	 esi, ebx
  00048	74 24		 je	 SHORT $LN7@Umove_if_n
  0004a	66 0f 1f 44 00
	00		 npad	 6
$LL8@Umove_if_n:

; 714  :             ::new (_Voidify_iter(_Ptr)) _Objty(_STD forward<_Types>(_Args)...);

  00050	56		 push	 esi
  00051	8b cf		 mov	 ecx, edi
  00053	e8 00 00 00 00	 call	 ??0STerrainTexture@@QAE@ABU0@@Z

; 1632 :         ++_Last;

  00058	81 c7 94 00 00
	00		 add	 edi, 148		; 00000094H

; 1670 :     for (; _UFirst != _ULast; ++_UFirst) {

  0005e	81 c6 94 00 00
	00		 add	 esi, 148		; 00000094H

; 1632 :         ++_Last;

  00064	89 7d e8	 mov	 DWORD PTR __Backout$2[ebp+4], edi

; 1670 :     for (; _UFirst != _ULast; ++_UFirst) {

  00067	3b f3		 cmp	 esi, ebx
  00069	75 e5		 jne	 SHORT $LL8@Umove_if_n
  0006b	8b 45 f0	 mov	 eax, DWORD PTR _this$1$[ebp]
$LN7@Umove_if_n:

; 1626 :         _Destroy_range(_First, _Last, _Al);

  0006e	50		 push	 eax
  0006f	57		 push	 edi
  00070	57		 push	 edi
  00071	e8 00 00 00 00	 call	 ??$_Destroy_range@V?$allocator@USTerrainTexture@@@std@@@std@@YAXPAUSTerrainTexture@@QAU1@AAV?$allocator@USTerrainTexture@@@0@@Z ; std::_Destroy_range<std::allocator<STerrainTexture> >
  00076	83 c4 0c	 add	 esp, 12			; 0000000cH
; File C:\Program Files (x86)\Microsoft Visual Studio\2019\Professional\VC\Tools\MSVC\14.29.30133\include\vector

; 1676 :     }

  00079	8b 4d f4	 mov	 ecx, DWORD PTR __$EHRec$[ebp]
  0007c	64 89 0d 00 00
	00 00		 mov	 DWORD PTR fs:0, ecx
  00083	59		 pop	 ecx
  00084	5f		 pop	 edi
  00085	5e		 pop	 esi
  00086	5b		 pop	 ebx
  00087	8b e5		 mov	 esp, ebp
  00089	5d		 pop	 ebp
  0008a	c2 0c 00	 ret	 12			; 0000000cH
_TEXT	ENDS
;	COMDAT text$x
text$x	SEGMENT
__unwindfunclet$?_Umove_if_noexcept@?$vector@USTerrainTexture@@V?$allocator@USTerrainTexture@@@std@@@std@@AAEXPAUSTerrainTexture@@00@Z$0:
  00000	8d 4d e4	 lea	 ecx, DWORD PTR __Backout$2[ebp]
  00003	e9 00 00 00 00	 jmp	 ??1?$_Uninitialized_backout_al@V?$allocator@USTerrainTexture@@@std@@@std@@QAE@XZ ; std::_Uninitialized_backout_al<std::allocator<STerrainTexture> >::~_Uninitialized_backout_al<std::allocator<STerrainTexture> >
  00008	cc		 int	 3
  00009	cc		 int	 3
  0000a	cc		 int	 3
  0000b	cc		 int	 3
  0000c	cc		 int	 3
__ehhandler$?_Umove_if_noexcept@?$vector@USTerrainTexture@@V?$allocator@USTerrainTexture@@@std@@@std@@AAEXPAUSTerrainTexture@@00@Z:
  0000d	90		 npad	 1
  0000e	90		 npad	 1
  0000f	8b 54 24 08	 mov	 edx, DWORD PTR [esp+8]
  00013	8d 42 0c	 lea	 eax, DWORD PTR [edx+12]
  00016	8b 4a e0	 mov	 ecx, DWORD PTR [edx-32]
  00019	33 c8		 xor	 ecx, eax
  0001b	e8 00 00 00 00	 call	 @__security_check_cookie@4
  00020	b8 00 00 00 00	 mov	 eax, OFFSET __ehfuncinfo$?_Umove_if_noexcept@?$vector@USTerrainTexture@@V?$allocator@USTerrainTexture@@@std@@@std@@AAEXPAUSTerrainTexture@@00@Z
  00025	e9 00 00 00 00	 jmp	 ___CxxFrameHandler3
text$x	ENDS
?_Umove_if_noexcept@?$vector@USTerrainTexture@@V?$allocator@USTerrainTexture@@@std@@@std@@AAEXPAUSTerrainTexture@@00@Z ENDP ; std::vector<STerrainTexture,std::allocator<STerrainTexture> >::_Umove_if_noexcept
; Function compile flags: /Ogtp
; File C:\Program Files (x86)\Microsoft Visual Studio\2019\Professional\VC\Tools\MSVC\14.29.30133\include\vector
; File C:\Program Files (x86)\Microsoft Visual Studio\2019\Professional\VC\Tools\MSVC\14.29.30133\include\xmemory
; File C:\Program Files (x86)\Microsoft Visual Studio\2019\Professional\VC\Tools\MSVC\14.29.30133\include\vector
;	COMDAT ?_Umove@?$vector@USTerrainTexture@@V?$allocator@USTerrainTexture@@@std@@@std@@AAEPAUSTerrainTexture@@PAU3@00@Z
_TEXT	SEGMENT
__Backout$2 = -28					; size = 12
_this$1$ = -16						; size = 4
__$EHRec$ = -12						; size = 12
__First$ = 8						; size = 4
__Last$ = 12						; size = 4
__Dest$ = 16						; size = 4
?_Umove@?$vector@USTerrainTexture@@V?$allocator@USTerrainTexture@@@std@@@std@@AAEPAUSTerrainTexture@@PAU3@00@Z PROC ; std::vector<STerrainTexture,std::allocator<STerrainTexture> >::_Umove, COMDAT
; _this$ = ecx

; 1657 :     _CONSTEXPR20_CONTAINER pointer _Umove(pointer _First, pointer _Last, pointer _Dest) {

  00000	55		 push	 ebp
  00001	8b ec		 mov	 ebp, esp
  00003	6a ff		 push	 -1
  00005	68 00 00 00 00	 push	 __ehhandler$?_Umove@?$vector@USTerrainTexture@@V?$allocator@USTerrainTexture@@@std@@@std@@AAEPAUSTerrainTexture@@PAU3@00@Z
  0000a	64 a1 00 00 00
	00		 mov	 eax, DWORD PTR fs:0
  00010	50		 push	 eax
  00011	83 ec 10	 sub	 esp, 16			; 00000010H
  00014	53		 push	 ebx
  00015	56		 push	 esi
  00016	57		 push	 edi
  00017	a1 00 00 00 00	 mov	 eax, DWORD PTR ___security_cookie
  0001c	33 c5		 xor	 eax, ebp
  0001e	50		 push	 eax
  0001f	8d 45 f4	 lea	 eax, DWORD PTR __$EHRec$[ebp]
  00022	64 a3 00 00 00
	00		 mov	 DWORD PTR fs:0, eax
  00028	8b c1		 mov	 eax, ecx
  0002a	89 45 f0	 mov	 DWORD PTR _this$1$[ebp], eax
; File C:\Program Files (x86)\Microsoft Visual Studio\2019\Professional\VC\Tools\MSVC\14.29.30133\include\xmemory

; 1620 :         : _First(_Dest), _Last(_Dest), _Al(_Al_) {}

  0002d	8b 7d 10	 mov	 edi, DWORD PTR __Dest$[ebp]

; 1717 :     auto _UFirst      = _Get_unwrapped(_First);

  00030	8b 75 08	 mov	 esi, DWORD PTR __First$[ebp]

; 1620 :         : _First(_Dest), _Last(_Dest), _Al(_Al_) {}

  00033	89 7d e4	 mov	 DWORD PTR __Backout$2[ebp], edi
  00036	89 7d e8	 mov	 DWORD PTR __Backout$2[ebp+4], edi
  00039	89 45 ec	 mov	 DWORD PTR __Backout$2[ebp+8], eax

; 1731 :     for (; _UFirst != _ULast; ++_UFirst) {

  0003c	8b 5d 0c	 mov	 ebx, DWORD PTR __Last$[ebp]
  0003f	c7 45 fc 00 00
	00 00		 mov	 DWORD PTR __$EHRec$[ebp+8], 0
  00046	3b f3		 cmp	 esi, ebx
  00048	74 24		 je	 SHORT $LN5@Umove
  0004a	66 0f 1f 44 00
	00		 npad	 6
$LL6@Umove:

; 714  :             ::new (_Voidify_iter(_Ptr)) _Objty(_STD forward<_Types>(_Args)...);

  00050	56		 push	 esi
  00051	8b cf		 mov	 ecx, edi
  00053	e8 00 00 00 00	 call	 ??0STerrainTexture@@QAE@ABU0@@Z

; 1632 :         ++_Last;

  00058	81 c7 94 00 00
	00		 add	 edi, 148		; 00000094H

; 1731 :     for (; _UFirst != _ULast; ++_UFirst) {

  0005e	81 c6 94 00 00
	00		 add	 esi, 148		; 00000094H

; 1632 :         ++_Last;

  00064	89 7d e8	 mov	 DWORD PTR __Backout$2[ebp+4], edi

; 1731 :     for (; _UFirst != _ULast; ++_UFirst) {

  00067	3b f3		 cmp	 esi, ebx
  00069	75 e5		 jne	 SHORT $LL6@Umove
  0006b	8b 45 f0	 mov	 eax, DWORD PTR _this$1$[ebp]
$LN5@Umove:

; 1626 :         _Destroy_range(_First, _Last, _Al);

  0006e	50		 push	 eax
  0006f	57		 push	 edi
  00070	57		 push	 edi
  00071	e8 00 00 00 00	 call	 ??$_Destroy_range@V?$allocator@USTerrainTexture@@@std@@@std@@YAXPAUSTerrainTexture@@QAU1@AAV?$allocator@USTerrainTexture@@@0@@Z ; std::_Destroy_range<std::allocator<STerrainTexture> >
  00076	83 c4 0c	 add	 esp, 12			; 0000000cH
; File C:\Program Files (x86)\Microsoft Visual Studio\2019\Professional\VC\Tools\MSVC\14.29.30133\include\vector

; 1659 :         return _Uninitialized_move(_First, _Last, _Dest, _Getal());

  00079	8b c7		 mov	 eax, edi

; 1660 :     }

  0007b	8b 4d f4	 mov	 ecx, DWORD PTR __$EHRec$[ebp]
  0007e	64 89 0d 00 00
	00 00		 mov	 DWORD PTR fs:0, ecx
  00085	59		 pop	 ecx
  00086	5f		 pop	 edi
  00087	5e		 pop	 esi
  00088	5b		 pop	 ebx
  00089	8b e5		 mov	 esp, ebp
  0008b	5d		 pop	 ebp
  0008c	c2 0c 00	 ret	 12			; 0000000cH
_TEXT	ENDS
;	COMDAT text$x
text$x	SEGMENT
__unwindfunclet$?_Umove@?$vector@USTerrainTexture@@V?$allocator@USTerrainTexture@@@std@@@std@@AAEPAUSTerrainTexture@@PAU3@00@Z$0:
  00000	8d 4d e4	 lea	 ecx, DWORD PTR __Backout$2[ebp]
  00003	e9 00 00 00 00	 jmp	 ??1?$_Uninitialized_backout_al@V?$allocator@USTerrainTexture@@@std@@@std@@QAE@XZ ; std::_Uninitialized_backout_al<std::allocator<STerrainTexture> >::~_Uninitialized_backout_al<std::allocator<STerrainTexture> >
  00008	cc		 int	 3
  00009	cc		 int	 3
  0000a	cc		 int	 3
  0000b	cc		 int	 3
  0000c	cc		 int	 3
__ehhandler$?_Umove@?$vector@USTerrainTexture@@V?$allocator@USTerrainTexture@@@std@@@std@@AAEPAUSTerrainTexture@@PAU3@00@Z:
  0000d	90		 npad	 1
  0000e	90		 npad	 1
  0000f	8b 54 24 08	 mov	 edx, DWORD PTR [esp+8]
  00013	8d 42 0c	 lea	 eax, DWORD PTR [edx+12]
  00016	8b 4a e0	 mov	 ecx, DWORD PTR [edx-32]
  00019	33 c8		 xor	 ecx, eax
  0001b	e8 00 00 00 00	 call	 @__security_check_cookie@4
  00020	b8 00 00 00 00	 mov	 eax, OFFSET __ehfuncinfo$?_Umove@?$vector@USTerrainTexture@@V?$allocator@USTerrainTexture@@@std@@@std@@AAEPAUSTerrainTexture@@PAU3@00@Z
  00025	e9 00 00 00 00	 jmp	 ___CxxFrameHandler3
text$x	ENDS
?_Umove@?$vector@USTerrainTexture@@V?$allocator@USTerrainTexture@@@std@@@std@@AAEPAUSTerrainTexture@@PAU3@00@Z ENDP ; std::vector<STerrainTexture,std::allocator<STerrainTexture> >::_Umove
; Function compile flags: /Ogtp
; File C:\Program Files (x86)\Microsoft Visual Studio\2019\Professional\VC\Tools\MSVC\14.29.30133\include\vector
; File C:\Program Files (x86)\Microsoft Visual Studio\2019\Professional\VC\Tools\MSVC\14.29.30133\include\xmemory
; File C:\Program Files (x86)\Microsoft Visual Studio\2019\Professional\VC\Tools\MSVC\14.29.30133\include\vector
; File C:\Program Files (x86)\Microsoft Visual Studio\2019\Professional\VC\Tools\MSVC\14.29.30133\include\xmemory
; File C:\Program Files (x86)\Microsoft Visual Studio\2019\Professional\VC\Tools\MSVC\14.29.30133\include\vector
;	COMDAT ?_Ufill@?$vector@USTerrainTexture@@V?$allocator@USTerrainTexture@@@std@@@std@@AAEPAUSTerrainTexture@@PAU3@IU_Value_init_tag@2@@Z
_TEXT	SEGMENT
__Backout$2 = -24					; size = 12
__$EHRec$ = -12						; size = 12
__Dest$ = 8						; size = 4
__Count$ = 12						; size = 4
___formal$ = 16						; size = 1
?_Ufill@?$vector@USTerrainTexture@@V?$allocator@USTerrainTexture@@@std@@@std@@AAEPAUSTerrainTexture@@PAU3@IU_Value_init_tag@2@@Z PROC ; std::vector<STerrainTexture,std::allocator<STerrainTexture> >::_Ufill, COMDAT
; _this$ = ecx

; 1646 :     _CONSTEXPR20_CONTAINER pointer _Ufill(pointer _Dest, const size_type _Count, _Value_init_tag) {

  00000	55		 push	 ebp
  00001	8b ec		 mov	 ebp, esp
  00003	6a ff		 push	 -1
  00005	68 00 00 00 00	 push	 __ehhandler$?_Ufill@?$vector@USTerrainTexture@@V?$allocator@USTerrainTexture@@@std@@@std@@AAEPAUSTerrainTexture@@PAU3@IU_Value_init_tag@2@@Z
  0000a	64 a1 00 00 00
	00		 mov	 eax, DWORD PTR fs:0
  00010	50		 push	 eax
  00011	83 ec 0c	 sub	 esp, 12			; 0000000cH
  00014	53		 push	 ebx
  00015	56		 push	 esi
  00016	57		 push	 edi
  00017	a1 00 00 00 00	 mov	 eax, DWORD PTR ___security_cookie
  0001c	33 c5		 xor	 eax, ebp
  0001e	50		 push	 eax
  0001f	8d 45 f4	 lea	 eax, DWORD PTR __$EHRec$[ebp]
  00022	64 a3 00 00 00
	00		 mov	 DWORD PTR fs:0, eax
  00028	8b d9		 mov	 ebx, ecx
; File C:\Program Files (x86)\Microsoft Visual Studio\2019\Professional\VC\Tools\MSVC\14.29.30133\include\xmemory

; 1620 :         : _First(_Dest), _Last(_Dest), _Al(_Al_) {}

  0002a	8b 7d 08	 mov	 edi, DWORD PTR __Dest$[ebp]
; File C:\Program Files (x86)\Microsoft Visual Studio\2019\Professional\VC\Tools\MSVC\14.29.30133\include\vector

; 1648 :         return _Uninitialized_value_construct_n(_Dest, _Count, _Getal());

  0002d	8b 75 0c	 mov	 esi, DWORD PTR __Count$[ebp]
; File C:\Program Files (x86)\Microsoft Visual Studio\2019\Professional\VC\Tools\MSVC\14.29.30133\include\xmemory

; 1620 :         : _First(_Dest), _Last(_Dest), _Al(_Al_) {}

  00030	89 7d e8	 mov	 DWORD PTR __Backout$2[ebp], edi
  00033	89 7d ec	 mov	 DWORD PTR __Backout$2[ebp+4], edi
  00036	89 5d f0	 mov	 DWORD PTR __Backout$2[ebp+8], ebx

; 1829 :     _Uninitialized_backout_al<_Alloc> _Backout{_First, _Al};

  00039	c7 45 fc 00 00
	00 00		 mov	 DWORD PTR __$EHRec$[ebp+8], 0

; 1830 :     for (; 0 < _Count; --_Count) {

  00040	85 f6		 test	 esi, esi
  00042	74 15		 je	 SHORT $LN5@Ufill
$LL6@Ufill:

; 714  :             ::new (_Voidify_iter(_Ptr)) _Objty(_STD forward<_Types>(_Args)...);

  00044	8b cf		 mov	 ecx, edi
  00046	e8 00 00 00 00	 call	 ??0STerrainTexture@@QAE@XZ ; STerrainTexture::STerrainTexture

; 1632 :         ++_Last;

  0004b	81 c7 94 00 00
	00		 add	 edi, 148		; 00000094H
  00051	89 7d ec	 mov	 DWORD PTR __Backout$2[ebp+4], edi

; 1830 :     for (; 0 < _Count; --_Count) {

  00054	83 ee 01	 sub	 esi, 1
  00057	75 eb		 jne	 SHORT $LL6@Ufill
$LN5@Ufill:

; 1626 :         _Destroy_range(_First, _Last, _Al);

  00059	53		 push	 ebx
  0005a	57		 push	 edi
  0005b	57		 push	 edi
  0005c	e8 00 00 00 00	 call	 ??$_Destroy_range@V?$allocator@USTerrainTexture@@@std@@@std@@YAXPAUSTerrainTexture@@QAU1@AAV?$allocator@USTerrainTexture@@@0@@Z ; std::_Destroy_range<std::allocator<STerrainTexture> >
  00061	83 c4 0c	 add	 esp, 12			; 0000000cH
; File C:\Program Files (x86)\Microsoft Visual Studio\2019\Professional\VC\Tools\MSVC\14.29.30133\include\vector

; 1648 :         return _Uninitialized_value_construct_n(_Dest, _Count, _Getal());

  00064	8b c7		 mov	 eax, edi

; 1649 :     }

  00066	8b 4d f4	 mov	 ecx, DWORD PTR __$EHRec$[ebp]
  00069	64 89 0d 00 00
	00 00		 mov	 DWORD PTR fs:0, ecx
  00070	59		 pop	 ecx
  00071	5f		 pop	 edi
  00072	5e		 pop	 esi
  00073	5b		 pop	 ebx
  00074	8b e5		 mov	 esp, ebp
  00076	5d		 pop	 ebp
  00077	c2 0c 00	 ret	 12			; 0000000cH
_TEXT	ENDS
;	COMDAT text$x
text$x	SEGMENT
__unwindfunclet$?_Ufill@?$vector@USTerrainTexture@@V?$allocator@USTerrainTexture@@@std@@@std@@AAEPAUSTerrainTexture@@PAU3@IU_Value_init_tag@2@@Z$0:
  00000	8d 4d e8	 lea	 ecx, DWORD PTR __Backout$2[ebp]
  00003	e9 00 00 00 00	 jmp	 ??1?$_Uninitialized_backout_al@V?$allocator@USTerrainTexture@@@std@@@std@@QAE@XZ ; std::_Uninitialized_backout_al<std::allocator<STerrainTexture> >::~_Uninitialized_backout_al<std::allocator<STerrainTexture> >
  00008	cc		 int	 3
  00009	cc		 int	 3
  0000a	cc		 int	 3
  0000b	cc		 int	 3
  0000c	cc		 int	 3
__ehhandler$?_Ufill@?$vector@USTerrainTexture@@V?$allocator@USTerrainTexture@@@std@@@std@@AAEPAUSTerrainTexture@@PAU3@IU_Value_init_tag@2@@Z:
  0000d	90		 npad	 1
  0000e	90		 npad	 1
  0000f	8b 54 24 08	 mov	 edx, DWORD PTR [esp+8]
  00013	8d 42 0c	 lea	 eax, DWORD PTR [edx+12]
  00016	8b 4a e4	 mov	 ecx, DWORD PTR [edx-28]
  00019	33 c8		 xor	 ecx, eax
  0001b	e8 00 00 00 00	 call	 @__security_check_cookie@4
  00020	b8 00 00 00 00	 mov	 eax, OFFSET __ehfuncinfo$?_Ufill@?$vector@USTerrainTexture@@V?$allocator@USTerrainTexture@@@std@@@std@@AAEPAUSTerrainTexture@@PAU3@IU_Value_init_tag@2@@Z
  00025	e9 00 00 00 00	 jmp	 ___CxxFrameHandler3
text$x	ENDS
?_Ufill@?$vector@USTerrainTexture@@V?$allocator@USTerrainTexture@@@std@@@std@@AAEPAUSTerrainTexture@@PAU3@IU_Value_init_tag@2@@Z ENDP ; std::vector<STerrainTexture,std::allocator<STerrainTexture> >::_Ufill
; Function compile flags: /Ogtp
; File C:\Program Files (x86)\Microsoft Visual Studio\2019\Professional\VC\Tools\MSVC\14.29.30133\include\vector
; File C:\Program Files (x86)\Microsoft Visual Studio\2019\Professional\VC\Tools\MSVC\14.29.30133\include\xmemory
; File C:\Program Files (x86)\Microsoft Visual Studio\2019\Professional\VC\Tools\MSVC\14.29.30133\include\vector
; File C:\Program Files (x86)\Microsoft Visual Studio\2019\Professional\VC\Tools\MSVC\14.29.30133\include\xmemory
; File C:\Program Files (x86)\Microsoft Visual Studio\2019\Professional\VC\Tools\MSVC\14.29.30133\include\vector
; File C:\Program Files (x86)\Microsoft Visual Studio\2019\Professional\VC\Tools\MSVC\14.29.30133\include\xmemory
; File C:\Program Files (x86)\Microsoft Visual Studio\2019\Professional\VC\Tools\MSVC\14.29.30133\include\vector
;	COMDAT ?_Reallocate_exactly@?$vector@USTerrainTexture@@V?$allocator@USTerrainTexture@@@std@@@std@@AAEXI@Z
_TEXT	SEGMENT
_this$ = -28						; size = 4
__Size$1$ = -24						; size = 4
$T2 = -20						; size = 4
__$EHRec$ = -16						; size = 16
__Newcapacity$ = 8					; size = 4
?_Reallocate_exactly@?$vector@USTerrainTexture@@V?$allocator@USTerrainTexture@@@std@@@std@@AAEXI@Z PROC ; std::vector<STerrainTexture,std::allocator<STerrainTexture> >::_Reallocate_exactly, COMDAT
; _this$ = ecx

; 1299 :     _CONSTEXPR20_CONTAINER void _Reallocate_exactly(const size_type _Newcapacity) {

  00000	55		 push	 ebp
  00001	8b ec		 mov	 ebp, esp
  00003	6a ff		 push	 -1
  00005	68 00 00 00 00	 push	 __ehhandler$?_Reallocate_exactly@?$vector@USTerrainTexture@@V?$allocator@USTerrainTexture@@@std@@@std@@AAEXI@Z
  0000a	64 a1 00 00 00
	00		 mov	 eax, DWORD PTR fs:0
  00010	50		 push	 eax
  00011	83 ec 10	 sub	 esp, 16			; 00000010H
  00014	53		 push	 ebx
  00015	56		 push	 esi
  00016	57		 push	 edi
  00017	a1 00 00 00 00	 mov	 eax, DWORD PTR ___security_cookie
  0001c	33 c5		 xor	 eax, ebp
  0001e	50		 push	 eax
  0001f	8d 45 f4	 lea	 eax, DWORD PTR __$EHRec$[ebp+4]
  00022	64 a3 00 00 00
	00		 mov	 DWORD PTR fs:0, eax
  00028	89 65 f0	 mov	 DWORD PTR __$EHRec$[ebp], esp
  0002b	8b f9		 mov	 edi, ecx
  0002d	89 7d e4	 mov	 DWORD PTR _this$[ebp], edi

; 1305 :         const auto _Size = static_cast<size_type>(_Mylast - _Myfirst);

  00030	8b 77 04	 mov	 esi, DWORD PTR [edi+4]
  00033	b8 a7 c8 67 dd	 mov	 eax, -580400985		; dd67c8a7H
  00038	2b 37		 sub	 esi, DWORD PTR [edi]
; File C:\Program Files (x86)\Microsoft Visual Studio\2019\Professional\VC\Tools\MSVC\14.29.30133\include\xmemory

; 64   :         if (_Count > _Max_possible) {

  0003a	8b 5d 08	 mov	 ebx, DWORD PTR __Newcapacity$[ebp]
; File C:\Program Files (x86)\Microsoft Visual Studio\2019\Professional\VC\Tools\MSVC\14.29.30133\include\vector

; 1305 :         const auto _Size = static_cast<size_type>(_Mylast - _Myfirst);

  0003d	f7 ee		 imul	 esi
  0003f	03 d6		 add	 edx, esi
  00041	c1 fa 07	 sar	 edx, 7
  00044	8b c2		 mov	 eax, edx
  00046	c1 e8 1f	 shr	 eax, 31			; 0000001fH
  00049	03 c2		 add	 eax, edx
  0004b	89 45 e8	 mov	 DWORD PTR __Size$1$[ebp], eax
; File C:\Program Files (x86)\Microsoft Visual Studio\2019\Professional\VC\Tools\MSVC\14.29.30133\include\xmemory

; 64   :         if (_Count > _Max_possible) {

  0004e	81 fb 91 cf ba
	01		 cmp	 ebx, 29020049		; 01bacf91H
  00054	0f 87 85 00 00
	00		 ja	 $LN25@Reallocate

; 66   :         }
; 67   :     }
; 68   : 
; 69   :     return _Count * _Ty_size;

  0005a	69 c3 94 00 00
	00		 imul	 eax, ebx, 148

; 237  :         if (_Bytes >= _Big_allocation_threshold) { // boost the alignment of big allocations to help autovectorization

  00060	3d 00 10 00 00	 cmp	 eax, 4096		; 00001000H
  00065	72 0d		 jb	 SHORT $LN15@Reallocate

; 238  :             return _Allocate_manually_vector_aligned<_Traits>(_Bytes);

  00067	50		 push	 eax
  00068	e8 00 00 00 00	 call	 ??$_Allocate_manually_vector_aligned@U_Default_allocate_traits@std@@@std@@YAPAXI@Z ; std::_Allocate_manually_vector_aligned<std::_Default_allocate_traits>
  0006d	83 c4 04	 add	 esp, 4
  00070	8b f0		 mov	 esi, eax
  00072	eb 16		 jmp	 SHORT $LN23@Reallocate
$LN15@Reallocate:

; 239  :         }
; 240  :     }
; 241  : #endif // defined(_M_IX86) || defined(_M_X64)
; 242  : 
; 243  :     if (_Bytes != 0) {

  00074	85 c0		 test	 eax, eax
  00076	74 10		 je	 SHORT $LN16@Reallocate

; 85   :         return ::operator new(_Bytes);

  00078	50		 push	 eax
  00079	e8 00 00 00 00	 call	 ??2@YAPAXI@Z		; operator new
  0007e	83 c4 04	 add	 esp, 4

; 244  :         return _Traits::_Allocate(_Bytes);

  00081	89 45 ec	 mov	 DWORD PTR $T2[ebp], eax
  00084	8b f0		 mov	 esi, eax
  00086	eb 05		 jmp	 SHORT $LN14@Reallocate
$LN16@Reallocate:

; 245  :     }
; 246  : 
; 247  :     return nullptr;

  00088	33 f6		 xor	 esi, esi
$LN23@Reallocate:
; File C:\Program Files (x86)\Microsoft Visual Studio\2019\Professional\VC\Tools\MSVC\14.29.30133\include\vector

; 1309 :         _TRY_BEGIN

  0008a	89 75 ec	 mov	 DWORD PTR $T2[ebp], esi
$LN14@Reallocate:

; 1310 :         _Umove_if_noexcept(_Myfirst, _Mylast, _Newvec);

  0008d	56		 push	 esi
  0008e	ff 77 04	 push	 DWORD PTR [edi+4]
  00091	8b cf		 mov	 ecx, edi
  00093	c7 45 fc 00 00
	00 00		 mov	 DWORD PTR __$EHRec$[ebp+12], 0
  0009a	ff 37		 push	 DWORD PTR [edi]
  0009c	e8 00 00 00 00	 call	 ?_Umove_if_noexcept@?$vector@USTerrainTexture@@V?$allocator@USTerrainTexture@@@std@@@std@@AAEXPAUSTerrainTexture@@00@Z ; std::vector<STerrainTexture,std::allocator<STerrainTexture> >::_Umove_if_noexcept

; 1314 :         _CATCH_END
; 1315 : 
; 1316 :         _Change_array(_Newvec, _Size, _Newcapacity);

  000a1	53		 push	 ebx
  000a2	ff 75 e8	 push	 DWORD PTR __Size$1$[ebp]
  000a5	8b cf		 mov	 ecx, edi
  000a7	56		 push	 esi
  000a8	e8 00 00 00 00	 call	 ?_Change_array@?$vector@USTerrainTexture@@V?$allocator@USTerrainTexture@@@std@@@std@@AAEXQAUSTerrainTexture@@II@Z ; std::vector<STerrainTexture,std::allocator<STerrainTexture> >::_Change_array

; 1317 :     }

  000ad	8b 4d f4	 mov	 ecx, DWORD PTR __$EHRec$[ebp+4]
  000b0	64 89 0d 00 00
	00 00		 mov	 DWORD PTR fs:0, ecx
  000b7	59		 pop	 ecx
  000b8	5f		 pop	 edi
  000b9	5e		 pop	 esi
  000ba	5b		 pop	 ebx
  000bb	8b e5		 mov	 esp, ebp
  000bd	5d		 pop	 ebp
  000be	c2 04 00	 ret	 4
__catch$?_Reallocate_exactly@?$vector@USTerrainTexture@@V?$allocator@USTerrainTexture@@@std@@@std@@AAEXI@Z$0:

; 1311 :         _CATCH_ALL
; 1312 :         _Getal().deallocate(_Newvec, _Newcapacity);

  000c1	ff 75 08	 push	 DWORD PTR __Newcapacity$[ebp]
  000c4	8b 4d e4	 mov	 ecx, DWORD PTR _this$[ebp]
  000c7	ff 75 ec	 push	 DWORD PTR $T2[ebp]
  000ca	e8 00 00 00 00	 call	 ?_Getal@?$vector@USTerrainTexture@@V?$allocator@USTerrainTexture@@@std@@@std@@AAEAAV?$allocator@USTerrainTexture@@@2@XZ ; std::vector<STerrainTexture,std::allocator<STerrainTexture> >::_Getal
  000cf	8b c8		 mov	 ecx, eax
  000d1	e8 00 00 00 00	 call	 ?deallocate@?$allocator@USTerrainTexture@@@std@@QAEXQAUSTerrainTexture@@I@Z ; std::allocator<STerrainTexture>::deallocate

; 1313 :         _RERAISE;

  000d6	6a 00		 push	 0
  000d8	6a 00		 push	 0
  000da	e8 00 00 00 00	 call	 __CxxThrowException@8
$LN25@Reallocate:
; File C:\Program Files (x86)\Microsoft Visual Studio\2019\Professional\VC\Tools\MSVC\14.29.30133\include\xmemory

; 65   :             _Throw_bad_array_new_length(); // multiply overflow

  000df	e8 00 00 00 00	 call	 ?_Throw_bad_array_new_length@std@@YAXXZ ; std::_Throw_bad_array_new_length
$LN22@Reallocate:
  000e4	cc		 int	 3
  000e5	cc		 int	 3
  000e6	cc		 int	 3
  000e7	cc		 int	 3
  000e8	cc		 int	 3
  000e9	cc		 int	 3
_TEXT	ENDS
;	COMDAT text$x
text$x	SEGMENT
__ehhandler$?_Reallocate_exactly@?$vector@USTerrainTexture@@V?$allocator@USTerrainTexture@@@std@@@std@@AAEXI@Z:
  00000	90		 npad	 1
  00001	90		 npad	 1
  00002	8b 54 24 08	 mov	 edx, DWORD PTR [esp+8]
  00006	8d 42 0c	 lea	 eax, DWORD PTR [edx+12]
  00009	8b 4a e0	 mov	 ecx, DWORD PTR [edx-32]
  0000c	33 c8		 xor	 ecx, eax
  0000e	e8 00 00 00 00	 call	 @__security_check_cookie@4
  00013	b8 00 00 00 00	 mov	 eax, OFFSET __ehfuncinfo$?_Reallocate_exactly@?$vector@USTerrainTexture@@V?$allocator@USTerrainTexture@@@std@@@std@@AAEXI@Z
  00018	e9 00 00 00 00	 jmp	 ___CxxFrameHandler3
text$x	ENDS
?_Reallocate_exactly@?$vector@USTerrainTexture@@V?$allocator@USTerrainTexture@@@std@@@std@@AAEXI@Z ENDP ; std::vector<STerrainTexture,std::allocator<STerrainTexture> >::_Reallocate_exactly
; Function compile flags: /Ogtp
; File C:\Program Files (x86)\Microsoft Visual Studio\2019\Professional\VC\Tools\MSVC\14.29.30133\include\vector
; File C:\Program Files (x86)\Microsoft Visual Studio\2019\Professional\VC\Tools\MSVC\14.29.30133\include\xmemory
; File C:\Program Files (x86)\Microsoft Visual Studio\2019\Professional\VC\Tools\MSVC\14.29.30133\include\vector
; File C:\Program Files (x86)\Microsoft Visual Studio\2019\Professional\VC\Tools\MSVC\14.29.30133\include\xmemory
; File C:\Program Files (x86)\Microsoft Visual Studio\2019\Professional\VC\Tools\MSVC\14.29.30133\include\vector
;	COMDAT ??1?$vector@USTerrainTexture@@V?$allocator@USTerrainTexture@@@std@@@std@@QAE@XZ
_TEXT	SEGMENT
??1?$vector@USTerrainTexture@@V?$allocator@USTerrainTexture@@@std@@@std@@QAE@XZ PROC ; std::vector<STerrainTexture,std::allocator<STerrainTexture> >::~vector<STerrainTexture,std::allocator<STerrainTexture> >, COMDAT
; _this$ = ecx

; 711  :     _CONSTEXPR20_CONTAINER ~vector() noexcept {

  00000	56		 push	 esi
  00001	8b f1		 mov	 esi, ecx

; 1763 :         if (_Myfirst) { // destroy and deallocate old array

  00003	8b 06		 mov	 eax, DWORD PTR [esi]
  00005	85 c0		 test	 eax, eax
  00007	74 67		 je	 SHORT $LN4@vector

; 1680 :         _Destroy_range(_First, _Last, _Getal());

  00009	57		 push	 edi
  0000a	56		 push	 esi
  0000b	ff 76 04	 push	 DWORD PTR [esi+4]
  0000e	50		 push	 eax
  0000f	e8 00 00 00 00	 call	 ??$_Destroy_range@V?$allocator@USTerrainTexture@@@std@@@std@@YAXPAUSTerrainTexture@@QAU1@AAV?$allocator@USTerrainTexture@@@0@@Z ; std::_Destroy_range<std::allocator<STerrainTexture> >

; 1765 :             _Getal().deallocate(_Myfirst, static_cast<size_type>(_Myend - _Myfirst));

  00014	8b 4e 08	 mov	 ecx, DWORD PTR [esi+8]
  00017	b8 a7 c8 67 dd	 mov	 eax, -580400985		; dd67c8a7H
  0001c	8b 3e		 mov	 edi, DWORD PTR [esi]

; 1680 :         _Destroy_range(_First, _Last, _Getal());

  0001e	83 c4 0c	 add	 esp, 12			; 0000000cH

; 1765 :             _Getal().deallocate(_Myfirst, static_cast<size_type>(_Myend - _Myfirst));

  00021	2b cf		 sub	 ecx, edi
  00023	f7 e9		 imul	 ecx
  00025	03 d1		 add	 edx, ecx
  00027	c1 fa 07	 sar	 edx, 7
  0002a	8b c2		 mov	 eax, edx
  0002c	c1 e8 1f	 shr	 eax, 31			; 0000001fH
  0002f	03 c2		 add	 eax, edx
; File C:\Program Files (x86)\Microsoft Visual Studio\2019\Professional\VC\Tools\MSVC\14.29.30133\include\xmemory

; 835  :         _Deallocate<_New_alignof<_Ty>>(_Ptr, sizeof(_Ty) * _Count);

  00031	69 c8 94 00 00
	00		 imul	 ecx, eax, 148

; 260  :         if (_Bytes >= _Big_allocation_threshold) { // boost the alignment of big allocations to help autovectorization

  00037	81 f9 00 10 00
	00		 cmp	 ecx, 4096		; 00001000H
  0003d	72 12		 jb	 SHORT $LN22@vector

; 158  :     const uintptr_t _Ptr_container   = _Ptr_user[-1];

  0003f	8b 57 fc	 mov	 edx, DWORD PTR [edi-4]
  00042	83 c1 23	 add	 ecx, 35			; 00000023H

; 159  : 
; 160  :     // If the following asserts, it likely means that we are performing
; 161  :     // an aligned delete on memory coming from an unaligned allocation.
; 162  :     _STL_ASSERT(_Ptr_user[-2] == _Big_allocation_sentinel, "invalid argument");
; 163  : 
; 164  :     // Extra paranoia on aligned allocation/deallocation; ensure _Ptr_container is
; 165  :     // in range [_Min_back_shift, _Non_user_size]
; 166  : #ifdef _DEBUG
; 167  :     constexpr uintptr_t _Min_back_shift = 2 * sizeof(void*);
; 168  : #else // ^^^ _DEBUG ^^^ // vvv !_DEBUG vvv
; 169  :     constexpr uintptr_t _Min_back_shift = sizeof(void*);
; 170  : #endif // _DEBUG
; 171  :     const uintptr_t _Back_shift = reinterpret_cast<uintptr_t>(_Ptr) - _Ptr_container;

  00045	2b fa		 sub	 edi, edx

; 172  :     _STL_VERIFY(_Back_shift >= _Min_back_shift && _Back_shift <= _Non_user_size, "invalid argument");

  00047	8d 47 fc	 lea	 eax, DWORD PTR [edi-4]
  0004a	83 f8 1f	 cmp	 eax, 31			; 0000001fH
  0004d	77 23		 ja	 SHORT $LN19@vector

; 173  :     _Ptr = reinterpret_cast<void*>(_Ptr_container);

  0004f	8b fa		 mov	 edi, edx
$LN22@vector:

; 264  :         ::operator delete(_Ptr, _Bytes);

  00051	51		 push	 ecx
  00052	57		 push	 edi
  00053	e8 00 00 00 00	 call	 ??3@YAXPAXI@Z		; operator delete
  00058	83 c4 08	 add	 esp, 8
; File C:\Program Files (x86)\Microsoft Visual Studio\2019\Professional\VC\Tools\MSVC\14.29.30133\include\vector

; 1767 :             _Myfirst = nullptr;

  0005b	c7 06 00 00 00
	00		 mov	 DWORD PTR [esi], 0

; 1768 :             _Mylast  = nullptr;

  00061	c7 46 04 00 00
	00 00		 mov	 DWORD PTR [esi+4], 0

; 1769 :             _Myend   = nullptr;

  00068	c7 46 08 00 00
	00 00		 mov	 DWORD PTR [esi+8], 0
  0006f	5f		 pop	 edi
$LN4@vector:
  00070	5e		 pop	 esi

; 717  :     }

  00071	c3		 ret	 0
$LN19@vector:
; File C:\Program Files (x86)\Microsoft Visual Studio\2019\Professional\VC\Tools\MSVC\14.29.30133\include\xmemory

; 172  :     _STL_VERIFY(_Back_shift >= _Min_back_shift && _Back_shift <= _Non_user_size, "invalid argument");

  00072	e8 00 00 00 00	 call	 __invalid_parameter_noinfo_noreturn
$LN27@vector:
  00077	cc		 int	 3
??1?$vector@USTerrainTexture@@V?$allocator@USTerrainTexture@@@std@@@std@@QAE@XZ ENDP ; std::vector<STerrainTexture,std::allocator<STerrainTexture> >::~vector<STerrainTexture,std::allocator<STerrainTexture> >
_TEXT	ENDS
; Function compile flags: /Ogtp
; File C:\Program Files (x86)\Microsoft Visual Studio\2019\Professional\VC\Tools\MSVC\14.29.30133\include\xmemory
;	COMDAT ?deallocate@?$allocator@USTerrainTexture@@@std@@QAEXQAUSTerrainTexture@@I@Z
_TEXT	SEGMENT
__Ptr$ = 8						; size = 4
__Count$ = 12						; size = 4
?deallocate@?$allocator@USTerrainTexture@@@std@@QAEXQAUSTerrainTexture@@I@Z PROC ; std::allocator<STerrainTexture>::deallocate, COMDAT
; _this$ = ecx

; 833  :     _CONSTEXPR20_DYNALLOC void deallocate(_Ty* const _Ptr, const size_t _Count) {

  00000	55		 push	 ebp
  00001	8b ec		 mov	 ebp, esp

; 834  :         // no overflow check on the following multiply; we assume _Allocate did that check
; 835  :         _Deallocate<_New_alignof<_Ty>>(_Ptr, sizeof(_Ty) * _Count);

  00003	69 4d 0c 94 00
	00 00		 imul	 ecx, DWORD PTR __Count$[ebp], 148
  0000a	8b 45 08	 mov	 eax, DWORD PTR __Ptr$[ebp]

; 260  :         if (_Bytes >= _Big_allocation_threshold) { // boost the alignment of big allocations to help autovectorization

  0000d	81 f9 00 10 00
	00		 cmp	 ecx, 4096		; 00001000H
  00013	72 12		 jb	 SHORT $LN15@deallocate

; 158  :     const uintptr_t _Ptr_container   = _Ptr_user[-1];

  00015	8b 50 fc	 mov	 edx, DWORD PTR [eax-4]
  00018	83 c1 23	 add	 ecx, 35			; 00000023H

; 159  : 
; 160  :     // If the following asserts, it likely means that we are performing
; 161  :     // an aligned delete on memory coming from an unaligned allocation.
; 162  :     _STL_ASSERT(_Ptr_user[-2] == _Big_allocation_sentinel, "invalid argument");
; 163  : 
; 164  :     // Extra paranoia on aligned allocation/deallocation; ensure _Ptr_container is
; 165  :     // in range [_Min_back_shift, _Non_user_size]
; 166  : #ifdef _DEBUG
; 167  :     constexpr uintptr_t _Min_back_shift = 2 * sizeof(void*);
; 168  : #else // ^^^ _DEBUG ^^^ // vvv !_DEBUG vvv
; 169  :     constexpr uintptr_t _Min_back_shift = sizeof(void*);
; 170  : #endif // _DEBUG
; 171  :     const uintptr_t _Back_shift = reinterpret_cast<uintptr_t>(_Ptr) - _Ptr_container;

  0001b	2b c2		 sub	 eax, edx

; 172  :     _STL_VERIFY(_Back_shift >= _Min_back_shift && _Back_shift <= _Non_user_size, "invalid argument");

  0001d	83 c0 fc	 add	 eax, -4			; fffffffcH
  00020	83 f8 1f	 cmp	 eax, 31			; 0000001fH
  00023	77 10		 ja	 SHORT $LN12@deallocate

; 173  :     _Ptr = reinterpret_cast<void*>(_Ptr_container);

  00025	8b c2		 mov	 eax, edx
$LN15@deallocate:

; 264  :         ::operator delete(_Ptr, _Bytes);

  00027	51		 push	 ecx
  00028	50		 push	 eax
  00029	e8 00 00 00 00	 call	 ??3@YAXPAXI@Z		; operator delete
  0002e	83 c4 08	 add	 esp, 8

; 836  :     }

  00031	5d		 pop	 ebp
  00032	c2 08 00	 ret	 8
$LN12@deallocate:

; 172  :     _STL_VERIFY(_Back_shift >= _Min_back_shift && _Back_shift <= _Non_user_size, "invalid argument");

  00035	e8 00 00 00 00	 call	 __invalid_parameter_noinfo_noreturn
$LN18@deallocate:
  0003a	cc		 int	 3
?deallocate@?$allocator@USTerrainTexture@@@std@@QAEXQAUSTerrainTexture@@I@Z ENDP ; std::allocator<STerrainTexture>::deallocate
_TEXT	ENDS
; Function compile flags: /Ogtp
; File C:\Users\murat\Desktop\Siveps2-1-99-Project\source\client\Client\PRTerrainLib\TextureSet.cpp
; File C:\Program Files (x86)\Microsoft Visual Studio\2019\Professional\VC\Tools\MSVC\14.29.30133\include\vector
; File C:\Users\murat\Desktop\Siveps2-1-99-Project\source\client\Client\PRTerrainLib\TextureSet.cpp
; File C:\Program Files (x86)\Microsoft Visual Studio\2019\Professional\VC\Tools\MSVC\14.29.30133\include\vector
; File C:\Program Files (x86)\Microsoft Visual Studio\2019\Professional\VC\Tools\MSVC\14.29.30133\include\xmemory
; File C:\Program Files (x86)\Microsoft Visual Studio\2019\Professional\VC\Tools\MSVC\14.29.30133\include\vector
; File C:\Users\murat\Desktop\Siveps2-1-99-Project\source\client\Client\PRTerrainLib\TextureSet.h
; File C:\Program Files (x86)\Microsoft Visual Studio\2019\Professional\VC\Tools\MSVC\14.29.30133\include\xstring
; File C:\Program Files (x86)\Microsoft Visual Studio\2019\Professional\VC\Tools\MSVC\14.29.30133\include\xmemory
; File C:\Program Files (x86)\Microsoft Visual Studio\2019\Professional\VC\Tools\MSVC\14.29.30133\include\xstring
; File C:\Program Files (x86)\Microsoft Visual Studio\2019\Professional\VC\Tools\MSVC\14.29.30133\include\xmemory
; File C:\Users\murat\Desktop\Siveps2-1-99-Project\source\client\Client\PRTerrainLib\TextureSet.cpp
; File C:\Program Files (x86)\Microsoft Visual Studio\2019\Professional\VC\Tools\MSVC\14.29.30133\include\xmemory
; File C:\Users\murat\Desktop\Siveps2-1-99-Project\source\client\Client\PRTerrainLib\TextureSet.cpp
;	COMDAT ?AddEmptyTexture@CTextureSet@@IAEXXZ
_TEXT	SEGMENT
_eraser$ = -164						; size = 148
__$ArrayPad$ = -16					; size = 4
__$EHRec$ = -12						; size = 12
?AddEmptyTexture@CTextureSet@@IAEXXZ PROC		; CTextureSet::AddEmptyTexture, COMDAT
; _this$ = ecx

; 106  : {

  00000	55		 push	 ebp
  00001	8b ec		 mov	 ebp, esp
  00003	6a ff		 push	 -1
  00005	68 00 00 00 00	 push	 __ehhandler$?AddEmptyTexture@CTextureSet@@IAEXXZ
  0000a	64 a1 00 00 00
	00		 mov	 eax, DWORD PTR fs:0
  00010	50		 push	 eax
  00011	81 ec 98 00 00
	00		 sub	 esp, 152		; 00000098H
  00017	a1 00 00 00 00	 mov	 eax, DWORD PTR ___security_cookie
  0001c	33 c5		 xor	 eax, ebp
  0001e	89 45 f0	 mov	 DWORD PTR __$ArrayPad$[ebp], eax
  00021	56		 push	 esi
  00022	50		 push	 eax
  00023	8d 45 f4	 lea	 eax, DWORD PTR __$EHRec$[ebp]
  00026	64 a3 00 00 00
	00		 mov	 DWORD PTR fs:0, eax
  0002c	8b f1		 mov	 esi, ecx

; 107  : 	TTerrainTexture eraser;

  0002e	8d 8d 5c ff ff
	ff		 lea	 ecx, DWORD PTR _eraser$[ebp]
  00034	e8 00 00 00 00	 call	 ??0STerrainTexture@@QAE@XZ ; STerrainTexture::STerrainTexture
; File C:\Program Files (x86)\Microsoft Visual Studio\2019\Professional\VC\Tools\MSVC\14.29.30133\include\vector

; 743  :         if (_Mylast != _My_data._Myend) {

  00039	8b 46 08	 mov	 eax, DWORD PTR [esi+8]
  0003c	8d 8d 5c ff ff
	ff		 lea	 ecx, DWORD PTR _eraser$[ebp]
; File C:\Users\murat\Desktop\Siveps2-1-99-Project\source\client\Client\PRTerrainLib\TextureSet.cpp

; 107  : 	TTerrainTexture eraser;

  00042	c7 45 fc 00 00
	00 00		 mov	 DWORD PTR __$EHRec$[ebp+8], 0
; File C:\Program Files (x86)\Microsoft Visual Studio\2019\Professional\VC\Tools\MSVC\14.29.30133\include\vector

; 743  :         if (_Mylast != _My_data._Myend) {

  00049	51		 push	 ecx
  0004a	3b 46 0c	 cmp	 eax, DWORD PTR [esi+12]
  0004d	74 10		 je	 SHORT $LN7@AddEmptyTe
; File C:\Program Files (x86)\Microsoft Visual Studio\2019\Professional\VC\Tools\MSVC\14.29.30133\include\xmemory

; 714  :             ::new (_Voidify_iter(_Ptr)) _Objty(_STD forward<_Types>(_Args)...);

  0004f	8b c8		 mov	 ecx, eax
  00051	e8 00 00 00 00	 call	 ??0STerrainTexture@@QAE@ABU0@@Z
; File C:\Program Files (x86)\Microsoft Visual Studio\2019\Professional\VC\Tools\MSVC\14.29.30133\include\vector

; 729  :         ++_Mylast;

  00056	81 46 08 94 00
	00 00		 add	 DWORD PTR [esi+8], 148	; 00000094H

; 744  :             return _Emplace_back_with_unused_capacity(_STD forward<_Valty>(_Val)...);

  0005d	eb 09		 jmp	 SHORT $LN6@AddEmptyTe
$LN7@AddEmptyTe:

; 745  :         }
; 746  : 
; 747  :         _Ty& _Result = *_Emplace_reallocate(_Mylast, _STD forward<_Valty>(_Val)...);

  0005f	50		 push	 eax
  00060	8d 4e 04	 lea	 ecx, DWORD PTR [esi+4]
  00063	e8 00 00 00 00	 call	 ??$_Emplace_reallocate@ABUSTerrainTexture@@@?$vector@USTerrainTexture@@V?$allocator@USTerrainTexture@@@std@@@std@@QAEPAUSTerrainTexture@@QAU2@ABU2@@Z ; std::vector<STerrainTexture,std::allocator<STerrainTexture> >::_Emplace_reallocate<STerrainTexture const &>
$LN6@AddEmptyTe:
; File C:\Users\murat\Desktop\Siveps2-1-99-Project\source\client\Client\PRTerrainLib\TextureSet.h

; 21   : 	}

  00068	8d 8d 78 ff ff
	ff		 lea	 ecx, DWORD PTR _eraser$[ebp+28]
  0006e	e8 00 00 00 00	 call	 ??1CGraphicImageInstance@@UAE@XZ ; CGraphicImageInstance::~CGraphicImageInstance
; File C:\Program Files (x86)\Microsoft Visual Studio\2019\Professional\VC\Tools\MSVC\14.29.30133\include\xstring

; 2319 :         return _BUF_SIZE <= _Myres;

  00073	8b 95 70 ff ff
	ff		 mov	 edx, DWORD PTR _eraser$[ebp+20]
  00079	83 fa 10	 cmp	 edx, 16			; 00000010H

; 4618 :         if (_Mypair._Myval2._Large_string_engaged()) {

  0007c	72 2b		 jb	 SHORT $LN28@AddEmptyTe
; File C:\Program Files (x86)\Microsoft Visual Studio\2019\Professional\VC\Tools\MSVC\14.29.30133\include\xmemory

; 835  :         _Deallocate<_New_alignof<_Ty>>(_Ptr, sizeof(_Ty) * _Count);

  0007e	8b 8d 5c ff ff
	ff		 mov	 ecx, DWORD PTR _eraser$[ebp]
; File C:\Program Files (x86)\Microsoft Visual Studio\2019\Professional\VC\Tools\MSVC\14.29.30133\include\xstring

; 4622 :             _Al.deallocate(_Ptr, _Mypair._Myval2._Myres + 1);

  00084	42		 inc	 edx
; File C:\Program Files (x86)\Microsoft Visual Studio\2019\Professional\VC\Tools\MSVC\14.29.30133\include\xmemory

; 835  :         _Deallocate<_New_alignof<_Ty>>(_Ptr, sizeof(_Ty) * _Count);

  00085	8b c1		 mov	 eax, ecx

; 260  :         if (_Bytes >= _Big_allocation_threshold) { // boost the alignment of big allocations to help autovectorization

  00087	81 fa 00 10 00
	00		 cmp	 edx, 4096		; 00001000H
  0008d	72 10		 jb	 SHORT $LN38@AddEmptyTe

; 158  :     const uintptr_t _Ptr_container   = _Ptr_user[-1];

  0008f	8b 49 fc	 mov	 ecx, DWORD PTR [ecx-4]
  00092	83 c2 23	 add	 edx, 35			; 00000023H
  00095	2b c1		 sub	 eax, ecx

; 172  :     _STL_VERIFY(_Back_shift >= _Min_back_shift && _Back_shift <= _Non_user_size, "invalid argument");

  00097	83 c0 fc	 add	 eax, -4			; fffffffcH
  0009a	83 f8 1f	 cmp	 eax, 31			; 0000001fH
  0009d	77 24		 ja	 SHORT $LN48@AddEmptyTe
$LN38@AddEmptyTe:

; 264  :         ::operator delete(_Ptr, _Bytes);

  0009f	52		 push	 edx
  000a0	51		 push	 ecx
  000a1	e8 00 00 00 00	 call	 ??3@YAXPAXI@Z		; operator delete
  000a6	83 c4 08	 add	 esp, 8
$LN28@AddEmptyTe:
; File C:\Users\murat\Desktop\Siveps2-1-99-Project\source\client\Client\PRTerrainLib\TextureSet.cpp

; 109  : }

  000a9	8b 4d f4	 mov	 ecx, DWORD PTR __$EHRec$[ebp]
  000ac	64 89 0d 00 00
	00 00		 mov	 DWORD PTR fs:0, ecx
  000b3	59		 pop	 ecx
  000b4	5e		 pop	 esi
  000b5	8b 4d f0	 mov	 ecx, DWORD PTR __$ArrayPad$[ebp]
  000b8	33 cd		 xor	 ecx, ebp
  000ba	e8 00 00 00 00	 call	 @__security_check_cookie@4
  000bf	8b e5		 mov	 esp, ebp
  000c1	5d		 pop	 ebp
  000c2	c3		 ret	 0
$LN48@AddEmptyTe:
; File C:\Program Files (x86)\Microsoft Visual Studio\2019\Professional\VC\Tools\MSVC\14.29.30133\include\xmemory

; 172  :     _STL_VERIFY(_Back_shift >= _Min_back_shift && _Back_shift <= _Non_user_size, "invalid argument");

  000c3	e8 00 00 00 00	 call	 __invalid_parameter_noinfo_noreturn
$LN46@AddEmptyTe:
  000c8	cc		 int	 3
_TEXT	ENDS
;	COMDAT text$x
text$x	SEGMENT
__unwindfunclet$?AddEmptyTexture@CTextureSet@@IAEXXZ$0:
  00000	8d 8d 5c ff ff
	ff		 lea	 ecx, DWORD PTR _eraser$[ebp]
  00006	e9 00 00 00 00	 jmp	 ??1STerrainTexture@@QAE@XZ ; STerrainTexture::~STerrainTexture
  0000b	cc		 int	 3
  0000c	cc		 int	 3
  0000d	cc		 int	 3
  0000e	cc		 int	 3
  0000f	cc		 int	 3
__ehhandler$?AddEmptyTexture@CTextureSet@@IAEXXZ:
  00010	90		 npad	 1
  00011	90		 npad	 1
  00012	8b 54 24 08	 mov	 edx, DWORD PTR [esp+8]
  00016	8d 42 0c	 lea	 eax, DWORD PTR [edx+12]
  00019	8b 8a 60 ff ff
	ff		 mov	 ecx, DWORD PTR [edx-160]
  0001f	33 c8		 xor	 ecx, eax
  00021	e8 00 00 00 00	 call	 @__security_check_cookie@4
  00026	8b 4a fc	 mov	 ecx, DWORD PTR [edx-4]
  00029	33 c8		 xor	 ecx, eax
  0002b	e8 00 00 00 00	 call	 @__security_check_cookie@4
  00030	b8 00 00 00 00	 mov	 eax, OFFSET __ehfuncinfo$?AddEmptyTexture@CTextureSet@@IAEXXZ
  00035	e9 00 00 00 00	 jmp	 ___CxxFrameHandler3
text$x	ENDS
?AddEmptyTexture@CTextureSet@@IAEXXZ ENDP		; CTextureSet::AddEmptyTexture
; Function compile flags: /Ogtp
; File C:\Users\murat\Desktop\Siveps2-1-99-Project\source\client\Client\PRTerrainLib\TextureSet.cpp
; File C:\Program Files (x86)\Microsoft Visual Studio\2019\Professional\VC\Tools\MSVC\14.29.30133\include\vector
; File C:\Program Files (x86)\Microsoft Visual Studio\2019\Professional\VC\Tools\MSVC\14.29.30133\include\xstring
; File C:\Users\murat\Desktop\Siveps2-1-99-Project\source\client\Client\PRTerrainLib\TextureSet.cpp
; File C:\Program Files (x86)\Microsoft Visual Studio\2019\Professional\VC\Tools\MSVC\14.29.30133\include\xstring
; File C:\Users\murat\Desktop\Siveps2-1-99-Project\source\client\Client\PRTerrainLib\TextureSet.cpp
; File C:\Program Files (x86)\Microsoft Visual Studio\2019\Professional\VC\Tools\MSVC\14.29.30133\include\vector
; File C:\Users\murat\Desktop\Siveps2-1-99-Project\source\client\Client\PRTerrainLib\TextureSet.cpp
; File C:\Program Files (x86)\Microsoft Visual Studio\2019\Professional\VC\Tools\MSVC\14.29.30133\include\vector
; File C:\Users\murat\Desktop\Siveps2-1-99-Project\source\client\Client\PRTerrainLib\TextureSet.cpp
; File C:\Program Files (x86)\Microsoft Visual Studio\2019\Professional\VC\Tools\MSVC\14.29.30133\include\vector
; File C:\Users\murat\Desktop\Siveps2-1-99-Project\source\client\Client\PRTerrainLib\TextureSet.cpp
; File C:\Program Files (x86)\Microsoft Visual Studio\2019\Professional\VC\Tools\MSVC\14.29.30133\include\vector
; File C:\Users\murat\Desktop\Siveps2-1-99-Project\source\client\Client\PRTerrainLib\TextureSet.cpp
; File C:\Program Files (x86)\Microsoft Visual Studio\2019\Professional\VC\Tools\MSVC\14.29.30133\include\vector
; File C:\Users\murat\Desktop\Siveps2-1-99-Project\source\client\Client\PRTerrainLib\TextureSet.cpp
; File C:\Program Files (x86)\Microsoft Visual Studio\2019\Professional\VC\Tools\MSVC\14.29.30133\include\vector
; File C:\Users\murat\Desktop\Siveps2-1-99-Project\source\client\Client\PRTerrainLib\TextureSet.cpp
; File C:\Program Files (x86)\Microsoft Visual Studio\2019\Professional\VC\Tools\MSVC\14.29.30133\include\vector
; File C:\Users\murat\Desktop\Siveps2-1-99-Project\source\client\Client\PRTerrainLib\TextureSet.cpp
; File C:\Program Files (x86)\Microsoft Visual Studio\2019\Professional\VC\Tools\MSVC\14.29.30133\include\vector
; File C:\Users\murat\Desktop\Siveps2-1-99-Project\source\client\Client\PRTerrainLib\TextureSet.cpp
; File C:\Program Files (x86)\Microsoft Visual Studio\2019\Professional\VC\Tools\MSVC\14.29.30133\include\vector
; File C:\Users\murat\Desktop\Siveps2-1-99-Project\source\client\Client\PRTerrainLib\TextureSet.cpp
; File C:\Program Files (x86)\Microsoft Visual Studio\2019\Professional\VC\Tools\MSVC\14.29.30133\include\vector
; File C:\Users\murat\Desktop\Siveps2-1-99-Project\source\client\Client\PRTerrainLib\TextureSet.cpp
;	COMDAT ?AddTexture@CTextureSet@@QAE_NPBDMMMM_NGGM@Z
_TEXT	SEGMENT
_this$1$ = -8						; size = 4
$T1 = -4						; size = 4
__Newcapacity$1$ = 8					; size = 4
_c_szFileName$ = 8					; size = 4
_fuScale$ = 12						; size = 4
_fvScale$ = 16						; size = 4
_fuOffset$ = 20						; size = 4
_fvOffset$ = 24						; size = 4
_bSplat$ = 28						; size = 1
_usBegin$ = 32						; size = 2
_usEnd$ = 36						; size = 2
_fTerrainTexCoordBase$ = 40				; size = 4
?AddTexture@CTextureSet@@QAE_NPBDMMMM_NGGM@Z PROC	; CTextureSet::AddTexture, COMDAT
; _this$ = ecx

; 197  : {

  00000	55		 push	 ebp
  00001	8b ec		 mov	 ebp, esp
  00003	83 ec 08	 sub	 esp, 8
  00006	56		 push	 esi
  00007	8b f1		 mov	 esi, ecx
  00009	89 75 f8	 mov	 DWORD PTR _this$1$[ebp], esi

; 198  : 	if (GetTextureCount() >= 256)

  0000c	e8 00 00 00 00	 call	 ?GetTextureCount@CTextureSet@@QAEKXZ ; CTextureSet::GetTextureCount
  00011	3d 00 01 00 00	 cmp	 eax, 256		; 00000100H
  00016	72 1a		 jb	 SHORT $LN5@AddTexture

; 199  : 	{
; 200  : 		LogBox("You cannot add more than 255 texture.");

  00018	6a 00		 push	 0
  0001a	6a 00		 push	 0
  0001c	68 00 00 00 00	 push	 OFFSET ??_C@_0CG@GCCGCFA@You?5cannot?5add?5more?5than?5255?5te@
  00021	e8 00 00 00 00	 call	 ?LogBox@@YAXPBD0PAUHWND__@@@Z ; LogBox
  00026	83 c4 0c	 add	 esp, 12			; 0000000cH

; 201  : 		return false;

  00029	32 c0		 xor	 al, al
  0002b	5e		 pop	 esi

; 240  : }

  0002c	8b e5		 mov	 esp, ebp
  0002e	5d		 pop	 ebp
  0002f	c2 24 00	 ret	 36			; 00000024H
$LN5@AddTexture:
  00032	53		 push	 ebx
  00033	57		 push	 edi

; 202  : 	}
; 203  : 
; 204  : 	for (unsigned long i = 1; i < GetTextureCount(); ++i)

  00034	8b ce		 mov	 ecx, esi
  00036	bf 01 00 00 00	 mov	 edi, 1
  0003b	e8 00 00 00 00	 call	 ?GetTextureCount@CTextureSet@@QAEKXZ ; CTextureSet::GetTextureCount
  00040	8b 5d 08	 mov	 ebx, DWORD PTR _c_szFileName$[ebp]
  00043	89 45 fc	 mov	 DWORD PTR $T1[ebp], eax
  00046	3b c7		 cmp	 eax, edi
  00048	76 3f		 jbe	 SHORT $LN3@AddTexture
; File C:\Program Files (x86)\Microsoft Visual Studio\2019\Professional\VC\Tools\MSVC\14.29.30133\include\vector

; 1569 :         return _My_data._Myfirst[_Pos];

  0004a	8b 76 04	 mov	 esi, DWORD PTR [esi+4]
  0004d	81 c6 94 00 00
	00		 add	 esi, 148		; 00000094H
$LL4@AddTexture:
; File C:\Program Files (x86)\Microsoft Visual Studio\2019\Professional\VC\Tools\MSVC\14.29.30133\include\xstring

; 412  :         return _CSTD strlen(reinterpret_cast<const char*>(_First));

  00053	8b cb		 mov	 ecx, ebx
  00055	8d 51 01	 lea	 edx, DWORD PTR [ecx+1]
$LL46@AddTexture:
  00058	8a 01		 mov	 al, BYTE PTR [ecx]
  0005a	41		 inc	 ecx
  0005b	84 c0		 test	 al, al
  0005d	75 f9		 jne	 SHORT $LL46@AddTexture
  0005f	2b ca		 sub	 ecx, edx

; 2305 :         const value_type* _Result = _Bx._Buf;

  00061	8b c6		 mov	 eax, esi

; 2319 :         return _BUF_SIZE <= _Myres;

  00063	83 7e 14 10	 cmp	 DWORD PTR [esi+20], 16	; 00000010H

; 2306 :         if (_Large_string_engaged()) {

  00067	72 02		 jb	 SHORT $LN17@AddTexture

; 2307 :             _Result = _Unfancy(_Bx._Ptr);

  00069	8b 06		 mov	 eax, DWORD PTR [esi]
$LN17@AddTexture:

; 4436 :         return _Traits_compare<_Traits>(_Mypair._Myval2._Myptr(), _Mypair._Myval2._Mysize, _Ptr, _Traits::length(_Ptr));

  0006b	51		 push	 ecx
  0006c	53		 push	 ebx
  0006d	ff 76 10	 push	 DWORD PTR [esi+16]
  00070	50		 push	 eax
  00071	e8 00 00 00 00	 call	 ??$_Traits_compare@U?$char_traits@D@std@@@std@@YAHQBDI0I@Z ; std::_Traits_compare<std::char_traits<char> >
  00076	83 c4 10	 add	 esp, 16			; 00000010H
; File C:\Users\murat\Desktop\Siveps2-1-99-Project\source\client\Client\PRTerrainLib\TextureSet.cpp

; 206  : 		if (0 == m_Textures[i].stFilename.compare(c_szFileName))

  00079	85 c0		 test	 eax, eax
  0007b	74 51		 je	 SHORT $LN42@AddTexture

; 202  : 	}
; 203  : 
; 204  : 	for (unsigned long i = 1; i < GetTextureCount(); ++i)

  0007d	47		 inc	 edi
  0007e	81 c6 94 00 00
	00		 add	 esi, 148		; 00000094H
  00084	3b 7d fc	 cmp	 edi, DWORD PTR $T1[ebp]
  00087	72 ca		 jb	 SHORT $LL4@AddTexture
$LN3@AddTexture:

; 210  : 		}
; 211  : 	}
; 212  : 
; 213  : 	CResource * pResource = CResourceManager::Instance().GetResourcePointer(c_szFileName);

  00089	8b 0d 00 00 00
	00		 mov	 ecx, DWORD PTR ?ms_singleton@?$CSingleton@VCResourceManager@@@@0PAVCResourceManager@@A ; CSingleton<CResourceManager>::ms_singleton
  0008f	53		 push	 ebx
  00090	e8 00 00 00 00	 call	 ?GetResourcePointer@CResourceManager@@QAEPAVCResource@@PBD@Z ; CResourceManager::GetResourcePointer
  00095	8b f0		 mov	 esi, eax

; 214  : 
; 215  : 	if (!pResource->IsType(CGraphicImage::Type()))

  00097	e8 00 00 00 00	 call	 ?Type@CGraphicImage@@SAKXZ ; CGraphicImage::Type
  0009c	50		 push	 eax
  0009d	8b ce		 mov	 ecx, esi
  0009f	e8 00 00 00 00	 call	 ?IsType@CResource@@QAE_NK@Z ; CResource::IsType
  000a4	84 c0		 test	 al, al
  000a6	75 45		 jne	 SHORT $LN7@AddTexture
; File C:\Program Files (x86)\Microsoft Visual Studio\2019\Professional\VC\Tools\MSVC\14.29.30133\include\xstring

; 2319 :         return _BUF_SIZE <= _Myres;

  000a8	83 7e 20 10	 cmp	 DWORD PTR [esi+32], 16	; 00000010H

; 3922 :         return _Mypair._Myval2._Myptr();

  000ac	8d 46 0c	 lea	 eax, DWORD PTR [esi+12]

; 2306 :         if (_Large_string_engaged()) {

  000af	72 02		 jb	 SHORT $LN26@AddTexture

; 2307 :             _Result = _Unfancy(_Bx._Ptr);

  000b1	8b 00		 mov	 eax, DWORD PTR [eax]
$LN26@AddTexture:
; File C:\Users\murat\Desktop\Siveps2-1-99-Project\source\client\Client\PRTerrainLib\TextureSet.cpp

; 217  : 		LogBox("CTerrainImpl::GenerateTexture : It's not an image file. %s", pResource->GetFileName());

  000b3	6a 00		 push	 0
  000b5	50		 push	 eax
  000b6	68 00 00 00 00	 push	 OFFSET ??_C@_0DL@BLPPCNGA@CTerrainImpl?3?3GenerateTexture?5?3@
  000bb	e8 00 00 00 00	 call	 ?LogBox@@YAXPBD0PAUHWND__@@@Z ; LogBox
  000c0	83 c4 0c	 add	 esp, 12			; 0000000cH
$LN50@AddTexture:

; 218  : 		return false;

  000c3	5f		 pop	 edi
  000c4	5b		 pop	 ebx
  000c5	32 c0		 xor	 al, al
  000c7	5e		 pop	 esi

; 240  : }

  000c8	8b e5		 mov	 esp, ebp
  000ca	5d		 pop	 ebp
  000cb	c2 24 00	 ret	 36			; 00000024H
$LN42@AddTexture:

; 207  : 		{
; 208  : 			LogBox("Texture of the same name already exists.", "Duplicate");

  000ce	6a 00		 push	 0
  000d0	68 00 00 00 00	 push	 OFFSET ??_C@_09OINHJNMP@Duplicate@
  000d5	68 00 00 00 00	 push	 OFFSET ??_C@_0CJ@ELAAMMOC@Texture?5of?5the?5same?5name?5alread@
  000da	e8 00 00 00 00	 call	 ?LogBox@@YAXPBD0PAUHWND__@@@Z ; LogBox
  000df	83 c4 0c	 add	 esp, 12			; 0000000cH

; 209  : 			return false;

  000e2	32 c0		 xor	 al, al
  000e4	5f		 pop	 edi
  000e5	5b		 pop	 ebx
  000e6	5e		 pop	 esi

; 240  : }

  000e7	8b e5		 mov	 esp, ebp
  000e9	5d		 pop	 ebp
  000ea	c2 24 00	 ret	 36			; 00000024H
$LN7@AddTexture:

; 219  : 	}
; 220  : 
; 221  : 	if (!pResource)

  000ed	85 f6		 test	 esi, esi
  000ef	74 d2		 je	 SHORT $LN50@AddTexture
; File C:\Program Files (x86)\Microsoft Visual Studio\2019\Professional\VC\Tools\MSVC\14.29.30133\include\vector

; 1548 :         auto& _My_data = _Mypair._Myval2;

  000f1	8b 7d f8	 mov	 edi, DWORD PTR _this$1$[ebp]

; 1549 :         return static_cast<size_type>(_My_data._Mylast - _My_data._Myfirst);

  000f4	b8 a7 c8 67 dd	 mov	 eax, -580400985		; dd67c8a7H
  000f9	8b 4f 08	 mov	 ecx, DWORD PTR [edi+8]
  000fc	2b 4f 04	 sub	 ecx, DWORD PTR [edi+4]
  000ff	f7 e9		 imul	 ecx
  00101	03 d1		 add	 edx, ecx

; 1559 :         return static_cast<size_type>(_My_data._Myend - _My_data._Myfirst);

  00103	8b 4f 0c	 mov	 ecx, DWORD PTR [edi+12]
  00106	2b 4f 04	 sub	 ecx, DWORD PTR [edi+4]

; 1549 :         return static_cast<size_type>(_My_data._Mylast - _My_data._Myfirst);

  00109	c1 fa 07	 sar	 edx, 7
  0010c	8b c2		 mov	 eax, edx
; File C:\Users\murat\Desktop\Siveps2-1-99-Project\source\client\Client\PRTerrainLib\TextureSet.cpp

; 224  : 	m_Textures.reserve(m_Textures.size() + 1);

  0010e	42		 inc	 edx
; File C:\Program Files (x86)\Microsoft Visual Studio\2019\Professional\VC\Tools\MSVC\14.29.30133\include\vector

; 1549 :         return static_cast<size_type>(_My_data._Mylast - _My_data._Myfirst);

  0010f	c1 e8 1f	 shr	 eax, 31			; 0000001fH
; File C:\Users\murat\Desktop\Siveps2-1-99-Project\source\client\Client\PRTerrainLib\TextureSet.cpp

; 224  : 	m_Textures.reserve(m_Textures.size() + 1);

  00112	03 c2		 add	 eax, edx
  00114	89 45 08	 mov	 DWORD PTR __Newcapacity$1$[ebp], eax
; File C:\Program Files (x86)\Microsoft Visual Studio\2019\Professional\VC\Tools\MSVC\14.29.30133\include\vector

; 1559 :         return static_cast<size_type>(_My_data._Myend - _My_data._Myfirst);

  00117	b8 a7 c8 67 dd	 mov	 eax, -580400985		; dd67c8a7H
  0011c	f7 e9		 imul	 ecx
  0011e	03 d1		 add	 edx, ecx

; 1371 :         if (_Newcapacity > capacity()) { // something to do (reserve() never shrinks)

  00120	8b 4d 08	 mov	 ecx, DWORD PTR __Newcapacity$1$[ebp]

; 1559 :         return static_cast<size_type>(_My_data._Myend - _My_data._Myfirst);

  00123	c1 fa 07	 sar	 edx, 7
  00126	8b c2		 mov	 eax, edx
  00128	c1 e8 1f	 shr	 eax, 31			; 0000001fH
  0012b	03 c2		 add	 eax, edx

; 1371 :         if (_Newcapacity > capacity()) { // something to do (reserve() never shrinks)

  0012d	3b c8		 cmp	 ecx, eax
  0012f	76 15		 jbe	 SHORT $LN33@AddTexture

; 1372 :             if (_Newcapacity > max_size()) {

  00131	81 f9 91 cf ba
	01		 cmp	 ecx, 29020049		; 01bacf91H
  00137	0f 87 80 00 00
	00		 ja	 $LN52@AddTexture

; 1374 :             }
; 1375 : 
; 1376 :             _Reallocate_exactly(_Newcapacity);

  0013d	51		 push	 ecx
  0013e	8d 4f 04	 lea	 ecx, DWORD PTR [edi+4]
  00141	e8 00 00 00 00	 call	 ?_Reallocate_exactly@?$vector@USTerrainTexture@@V?$allocator@USTerrainTexture@@@std@@@std@@AAEXI@Z ; std::vector<STerrainTexture,std::allocator<STerrainTexture> >::_Reallocate_exactly
$LN33@AddTexture:
; File C:\Users\murat\Desktop\Siveps2-1-99-Project\source\client\Client\PRTerrainLib\TextureSet.cpp

; 227  : 	AddEmptyTexture();

  00146	8b cf		 mov	 ecx, edi
  00148	e8 00 00 00 00	 call	 ?AddEmptyTexture@CTextureSet@@IAEXXZ ; CTextureSet::AddEmptyTexture

; 228  : 	SetTexture(m_Textures.size() - 1,

  0014d	f3 0f 10 45 28	 movss	 xmm0, DWORD PTR _fTerrainTexCoordBase$[ebp]
; File C:\Program Files (x86)\Microsoft Visual Studio\2019\Professional\VC\Tools\MSVC\14.29.30133\include\vector

; 1549 :         return static_cast<size_type>(_My_data._Mylast - _My_data._Myfirst);

  00152	b8 a7 c8 67 dd	 mov	 eax, -580400985		; dd67c8a7H
; File C:\Users\murat\Desktop\Siveps2-1-99-Project\source\client\Client\PRTerrainLib\TextureSet.cpp

; 228  : 	SetTexture(m_Textures.size() - 1,

  00157	51		 push	 ecx
; File C:\Program Files (x86)\Microsoft Visual Studio\2019\Professional\VC\Tools\MSVC\14.29.30133\include\vector

; 1549 :         return static_cast<size_type>(_My_data._Mylast - _My_data._Myfirst);

  00158	8b 4f 08	 mov	 ecx, DWORD PTR [edi+8]
  0015b	2b 4f 04	 sub	 ecx, DWORD PTR [edi+4]
; File C:\Users\murat\Desktop\Siveps2-1-99-Project\source\client\Client\PRTerrainLib\TextureSet.cpp

; 228  : 	SetTexture(m_Textures.size() - 1,

  0015e	f3 0f 11 04 24	 movss	 DWORD PTR [esp], xmm0
  00163	ff 75 24	 push	 DWORD PTR _usEnd$[ebp]
  00166	f3 0f 10 45 18	 movss	 xmm0, DWORD PTR _fvOffset$[ebp]
  0016b	ff 75 20	 push	 DWORD PTR _usBegin$[ebp]
; File C:\Program Files (x86)\Microsoft Visual Studio\2019\Professional\VC\Tools\MSVC\14.29.30133\include\vector

; 1549 :         return static_cast<size_type>(_My_data._Mylast - _My_data._Myfirst);

  0016e	f7 e9		 imul	 ecx
; File C:\Users\murat\Desktop\Siveps2-1-99-Project\source\client\Client\PRTerrainLib\TextureSet.cpp

; 228  : 	SetTexture(m_Textures.size() - 1,

  00170	ff 75 1c	 push	 DWORD PTR _bSplat$[ebp]
; File C:\Program Files (x86)\Microsoft Visual Studio\2019\Professional\VC\Tools\MSVC\14.29.30133\include\vector

; 1549 :         return static_cast<size_type>(_My_data._Mylast - _My_data._Myfirst);

  00173	03 d1		 add	 edx, ecx
; File C:\Users\murat\Desktop\Siveps2-1-99-Project\source\client\Client\PRTerrainLib\TextureSet.cpp

; 228  : 	SetTexture(m_Textures.size() - 1,

  00175	8b cf		 mov	 ecx, edi
  00177	83 ec 10	 sub	 esp, 16			; 00000010H
; File C:\Program Files (x86)\Microsoft Visual Studio\2019\Professional\VC\Tools\MSVC\14.29.30133\include\vector

; 1549 :         return static_cast<size_type>(_My_data._Mylast - _My_data._Myfirst);

  0017a	c1 fa 07	 sar	 edx, 7
  0017d	8b c2		 mov	 eax, edx
; File C:\Users\murat\Desktop\Siveps2-1-99-Project\source\client\Client\PRTerrainLib\TextureSet.cpp

; 228  : 	SetTexture(m_Textures.size() - 1,

  0017f	4a		 dec	 edx
; File C:\Program Files (x86)\Microsoft Visual Studio\2019\Professional\VC\Tools\MSVC\14.29.30133\include\vector

; 1549 :         return static_cast<size_type>(_My_data._Mylast - _My_data._Myfirst);

  00180	c1 e8 1f	 shr	 eax, 31			; 0000001fH
; File C:\Users\murat\Desktop\Siveps2-1-99-Project\source\client\Client\PRTerrainLib\TextureSet.cpp

; 228  : 	SetTexture(m_Textures.size() - 1,

  00183	03 c2		 add	 eax, edx
  00185	f3 0f 11 44 24
	0c		 movss	 DWORD PTR [esp+12], xmm0
  0018b	f3 0f 10 45 14	 movss	 xmm0, DWORD PTR _fuOffset$[ebp]
  00190	f3 0f 11 44 24
	08		 movss	 DWORD PTR [esp+8], xmm0
  00196	f3 0f 10 45 10	 movss	 xmm0, DWORD PTR _fvScale$[ebp]
  0019b	f3 0f 11 44 24
	04		 movss	 DWORD PTR [esp+4], xmm0
  001a1	f3 0f 10 45 0c	 movss	 xmm0, DWORD PTR _fuScale$[ebp]
  001a6	f3 0f 11 04 24	 movss	 DWORD PTR [esp], xmm0
  001ab	53		 push	 ebx
  001ac	50		 push	 eax
  001ad	e8 00 00 00 00	 call	 ?SetTexture@CTextureSet@@QAE_NKPBDMMMM_NGGM@Z ; CTextureSet::SetTexture
  001b2	5f		 pop	 edi
  001b3	5b		 pop	 ebx

; 229  : 			   c_szFileName,
; 230  : 			   fuScale,
; 231  : 			   fvScale,
; 232  : 			   fuOffset,
; 233  : 			   fvOffset,
; 234  : 			   bSplat,
; 235  : 			   usBegin,
; 236  : 			   usEnd,
; 237  : 			   fTerrainTexCoordBase);
; 238  : 
; 239  : 	return true;

  001b4	b0 01		 mov	 al, 1
  001b6	5e		 pop	 esi

; 240  : }

  001b7	8b e5		 mov	 esp, ebp
  001b9	5d		 pop	 ebp
  001ba	c2 24 00	 ret	 36			; 00000024H
$LN52@AddTexture:
; File C:\Program Files (x86)\Microsoft Visual Studio\2019\Professional\VC\Tools\MSVC\14.29.30133\include\vector

; 1373 :                 _Xlength();

  001bd	e8 00 00 00 00	 call	 ?_Xlength@?$vector@USTerrainTexture@@V?$allocator@USTerrainTexture@@@std@@@std@@CAXXZ ; std::vector<STerrainTexture,std::allocator<STerrainTexture> >::_Xlength
$LN49@AddTexture:
  001c2	cc		 int	 3
?AddTexture@CTextureSet@@QAE_NPBDMMMM_NGGM@Z ENDP	; CTextureSet::AddTexture
_TEXT	ENDS
; Function compile flags: /Ogtp
; File C:\Users\murat\Desktop\Siveps2-1-99-Project\source\client\Client\PRTerrainLib\TextureSet.cpp
; File C:\Program Files (x86)\Microsoft Visual Studio\2019\Professional\VC\Tools\MSVC\14.29.30133\include\vector
; File C:\Program Files (x86)\Microsoft Visual Studio\2019\Professional\VC\Tools\MSVC\14.29.30133\include\xstring
; File C:\Users\murat\Desktop\Siveps2-1-99-Project\source\client\Client\PRTerrainLib\TextureSet.cpp
;	COMDAT ?Reload@CTextureSet@@QAEXM@Z
_TEXT	SEGMENT
_this$1$ = -16						; size = 4
tv248 = -12						; size = 4
_dwIndex$1$ = -8					; size = 4
tv249 = -4						; size = 4
_fTerrainTexCoordBase$ = 8				; size = 4
?Reload@CTextureSet@@QAEXM@Z PROC			; CTextureSet::Reload, COMDAT
; _this$ = ecx

; 174  : {

  00000	55		 push	 ebp
  00001	8b ec		 mov	 ebp, esp
  00003	83 ec 10	 sub	 esp, 16			; 00000010H
  00006	56		 push	 esi
  00007	8b f1		 mov	 esi, ecx

; 175  : 	for (DWORD dwIndex = 1; dwIndex < GetTextureCount(); ++dwIndex)

  00009	c7 45 f8 01 00
	00 00		 mov	 DWORD PTR _dwIndex$1$[ebp], 1
  00010	89 75 f0	 mov	 DWORD PTR _this$1$[ebp], esi
  00013	e8 00 00 00 00	 call	 ?GetTextureCount@CTextureSet@@QAEKXZ ; CTextureSet::GetTextureCount
  00018	83 f8 01	 cmp	 eax, 1
  0001b	0f 86 c9 00 00
	00		 jbe	 $LN3@Reload
  00021	f3 0f 10 45 08	 movss	 xmm0, DWORD PTR _fTerrainTexCoordBase$[ebp]
  00026	b8 94 00 00 00	 mov	 eax, 148		; 00000094H
  0002b	0f 57 05 00 00
	00 00		 xorps	 xmm0, DWORD PTR __xmm@80000000800000008000000080000000
  00032	f3 0f 11 45 f4	 movss	 DWORD PTR tv248[ebp], xmm0
  00037	89 45 fc	 mov	 DWORD PTR tv249[ebp], eax
  0003a	57		 push	 edi
  0003b	0f 1f 44 00 00	 npad	 5
$LL4@Reload:
; File C:\Program Files (x86)\Microsoft Visual Studio\2019\Professional\VC\Tools\MSVC\14.29.30133\include\vector

; 1569 :         return _My_data._Myfirst[_Pos];

  00040	8b 7e 04	 mov	 edi, DWORD PTR [esi+4]
  00043	03 f8		 add	 edi, eax
; File C:\Program Files (x86)\Microsoft Visual Studio\2019\Professional\VC\Tools\MSVC\14.29.30133\include\xstring

; 2305 :         const value_type* _Result = _Bx._Buf;

  00045	8b c7		 mov	 eax, edi

; 2319 :         return _BUF_SIZE <= _Myres;

  00047	83 7f 14 10	 cmp	 DWORD PTR [edi+20], 16	; 00000010H

; 2306 :         if (_Large_string_engaged()) {

  0004b	72 02		 jb	 SHORT $LN11@Reload

; 2307 :             _Result = _Unfancy(_Bx._Ptr);

  0004d	8b 07		 mov	 eax, DWORD PTR [edi]
$LN11@Reload:
; File C:\Users\murat\Desktop\Siveps2-1-99-Project\source\client\Client\PRTerrainLib\TextureSet.cpp

; 179  : 		tex.ImageInstance.ReloadImagePointer((CGraphicImage *) CResourceManager::Instance().GetResourcePointer(tex.stFilename.c_str()));

  0004f	8b 0d 00 00 00
	00		 mov	 ecx, DWORD PTR ?ms_singleton@?$CSingleton@VCResourceManager@@@@0PAVCResourceManager@@A ; CSingleton<CResourceManager>::ms_singleton
  00055	50		 push	 eax
  00056	e8 00 00 00 00	 call	 ?GetResourcePointer@CResourceManager@@QAEPAVCResource@@PBD@Z ; CResourceManager::GetResourcePointer
  0005b	50		 push	 eax
  0005c	8d 4f 1c	 lea	 ecx, DWORD PTR [edi+28]
  0005f	e8 00 00 00 00	 call	 ?ReloadImagePointer@CGraphicImageInstance@@QAEXPAVCGraphicImage@@@Z ; CGraphicImageInstance::ReloadImagePointer

; 180  : 		tex.pd3dTexture = tex.ImageInstance.GetTexturePointer()->GetD3DTexture();

  00064	8d 4f 1c	 lea	 ecx, DWORD PTR [edi+28]
  00067	e8 00 00 00 00	 call	 ?GetTexturePointer@CGraphicImageInstance@@QAEPAVCGraphicTexture@@XZ ; CGraphicImageInstance::GetTexturePointer
  0006c	8b c8		 mov	 ecx, eax
  0006e	e8 00 00 00 00	 call	 ?GetD3DTexture@CGraphicTexture@@QBEPAUIDirect3DTexture8@@XZ ; CGraphicTexture::GetD3DTexture

; 181  : 
; 182  : 		D3DXMatrixScaling(&tex.m_matTransform, fTerrainTexCoordBase * tex.UScale, -fTerrainTexCoordBase * tex.VScale, 0.0f);

  00073	f3 0f 10 45 f4	 movss	 xmm0, DWORD PTR tv248[ebp]
  00078	83 ec 0c	 sub	 esp, 12			; 0000000cH
  0007b	f3 0f 59 47 40	 mulss	 xmm0, DWORD PTR [edi+64]
  00080	89 47 18	 mov	 DWORD PTR [edi+24], eax
  00083	8d 47 54	 lea	 eax, DWORD PTR [edi+84]
  00086	c7 44 24 08 00
	00 00 00	 mov	 DWORD PTR [esp+8], 0
  0008e	f3 0f 11 44 24
	04		 movss	 DWORD PTR [esp+4], xmm0
  00094	f3 0f 10 45 08	 movss	 xmm0, DWORD PTR _fTerrainTexCoordBase$[ebp]
  00099	f3 0f 59 47 3c	 mulss	 xmm0, DWORD PTR [edi+60]
  0009e	f3 0f 11 04 24	 movss	 DWORD PTR [esp], xmm0
  000a3	50		 push	 eax
  000a4	e8 00 00 00 00	 call	 _D3DXMatrixScaling@16

; 183  : 		tex.m_matTransform._41 = tex.UOffset;
; 184  : 		tex.m_matTransform._42 = -tex.VOffset;

  000a9	f3 0f 10 47 48	 movss	 xmm0, DWORD PTR [edi+72]
  000ae	8b 47 44	 mov	 eax, DWORD PTR [edi+68]
  000b1	0f 57 05 00 00
	00 00		 xorps	 xmm0, DWORD PTR __xmm@80000000800000008000000080000000
  000b8	8b 75 f0	 mov	 esi, DWORD PTR _this$1$[ebp]
  000bb	8b ce		 mov	 ecx, esi
  000bd	81 45 fc 94 00
	00 00		 add	 DWORD PTR tv249[ebp], 148 ; 00000094H
  000c4	89 87 84 00 00
	00		 mov	 DWORD PTR [edi+132], eax
  000ca	f3 0f 11 87 88
	00 00 00	 movss	 DWORD PTR [edi+136], xmm0
  000d2	8b 7d f8	 mov	 edi, DWORD PTR _dwIndex$1$[ebp]
  000d5	47		 inc	 edi
  000d6	89 7d f8	 mov	 DWORD PTR _dwIndex$1$[ebp], edi
  000d9	e8 00 00 00 00	 call	 ?GetTextureCount@CTextureSet@@QAEKXZ ; CTextureSet::GetTextureCount
  000de	3b f8		 cmp	 edi, eax
  000e0	8b 45 fc	 mov	 eax, DWORD PTR tv249[ebp]
  000e3	0f 82 57 ff ff
	ff		 jb	 $LL4@Reload
  000e9	5f		 pop	 edi
$LN3@Reload:
  000ea	5e		 pop	 esi

; 185  : 	}
; 186  : }

  000eb	8b e5		 mov	 esp, ebp
  000ed	5d		 pop	 ebp
  000ee	c2 04 00	 ret	 4
?Reload@CTextureSet@@QAEXM@Z ENDP			; CTextureSet::Reload
_TEXT	ENDS
; Function compile flags: /Ogtp
; File C:\Users\murat\Desktop\Siveps2-1-99-Project\source\client\Client\PRTerrainLib\TextureSet.cpp
; File C:\Program Files (x86)\Microsoft Visual Studio\2019\Professional\VC\Tools\MSVC\14.29.30133\include\vector
; File C:\Users\murat\Desktop\Siveps2-1-99-Project\source\client\Client\PRTerrainLib\TextureSet.cpp
; File C:\Program Files (x86)\Microsoft Visual Studio\2019\Professional\VC\Tools\MSVC\14.29.30133\include\vector
; File C:\Users\murat\Desktop\Siveps2-1-99-Project\source\client\Client\PRTerrainLib\TextureSet.cpp
; File C:\Program Files (x86)\Microsoft Visual Studio\2019\Professional\VC\Tools\MSVC\14.29.30133\include\xstring
; File C:\Users\murat\Desktop\Siveps2-1-99-Project\source\client\Client\PRTerrainLib\TextureSet.cpp
; File C:\Program Files (x86)\Microsoft Visual Studio\2019\Professional\VC\Tools\MSVC\14.29.30133\include\xstring
; File C:\Program Files (x86)\Microsoft Visual Studio\2019\Professional\VC\Tools\MSVC\14.29.30133\include\vector
; File C:\Program Files (x86)\Microsoft Visual Studio\2019\Professional\VC\Tools\MSVC\14.29.30133\include\xstring
; File C:\Program Files (x86)\Microsoft Visual Studio\2019\Professional\VC\Tools\MSVC\14.29.30133\include\vector
; File C:\Program Files (x86)\Microsoft Visual Studio\2019\Professional\VC\Tools\MSVC\14.29.30133\include\xstring
; File C:\Users\murat\Desktop\Siveps2-1-99-Project\source\client\Client\PRTerrainLib\TextureSet.cpp
;	COMDAT ?SetTexture@CTextureSet@@QAE_NKPBDMMMM_NGGM@Z
_TEXT	SEGMENT
_this$1$ = -4						; size = 4
_pResource$1$ = 8					; size = 4
_ulIndex$ = 8						; size = 4
_c_szFileName$ = 12					; size = 4
_fuScale$ = 16						; size = 4
_fvScale$ = 20						; size = 4
_fuOffset$ = 24						; size = 4
_fvOffset$ = 28						; size = 4
_bSplat$ = 32						; size = 1
_usBegin$ = 36						; size = 2
_usEnd$ = 40						; size = 2
_fTerrainTexCoordBase$ = 44				; size = 4
?SetTexture@CTextureSet@@QAE_NKPBDMMMM_NGGM@Z PROC	; CTextureSet::SetTexture, COMDAT
; _this$ = ecx

; 134  : {

  00000	55		 push	 ebp
  00001	8b ec		 mov	 ebp, esp
  00003	51		 push	 ecx
  00004	8b c1		 mov	 eax, ecx
  00006	56		 push	 esi
  00007	89 45 fc	 mov	 DWORD PTR _this$1$[ebp], eax
  0000a	57		 push	 edi
; File C:\Program Files (x86)\Microsoft Visual Studio\2019\Professional\VC\Tools\MSVC\14.29.30133\include\vector

; 1549 :         return static_cast<size_type>(_My_data._Mylast - _My_data._Myfirst);

  0000b	8b 70 08	 mov	 esi, DWORD PTR [eax+8]
  0000e	2b 70 04	 sub	 esi, DWORD PTR [eax+4]
  00011	b8 a7 c8 67 dd	 mov	 eax, -580400985		; dd67c8a7H
; File C:\Users\murat\Desktop\Siveps2-1-99-Project\source\client\Client\PRTerrainLib\TextureSet.cpp

; 136  : 	if (ulIndex >= m_Textures.size())

  00016	8b 7d 08	 mov	 edi, DWORD PTR _ulIndex$[ebp]
