; Listing generated by Microsoft (R) Optimizing Compiler Version 19.29.30137.0 

	TITLE	C:\Users\murat\Desktop\Siveps2-1-99-Project\source\client\Client\eterPythonLib\Distribute\PythonGridSlotWindow.obj
	.686P
	.XMM
	include listing.inc
	.model	flat

INCLUDELIB LIBCMT
INCLUDELIB OLDNAMES

CONST	SEGMENT
?_Fake_alloc@std@@3U_Fake_allocator@1@B	ORG $+1		; std::_Fake_alloc
CONST	ENDS
PUBLIC	??0exception@std@@QAE@ABV01@@Z			; std::exception::exception
PUBLIC	??1exception@std@@UAE@XZ			; std::exception::~exception
PUBLIC	?what@exception@std@@UBEPBDXZ			; std::exception::what
PUBLIC	??_Gexception@std@@UAEPAXI@Z			; std::exception::`scalar deleting destructor'
PUBLIC	??0bad_alloc@std@@QAE@ABV01@@Z			; std::bad_alloc::bad_alloc
PUBLIC	??_Gbad_alloc@std@@UAEPAXI@Z			; std::bad_alloc::`scalar deleting destructor'
PUBLIC	??0bad_array_new_length@std@@QAE@XZ		; std::bad_array_new_length::bad_array_new_length
PUBLIC	??1bad_array_new_length@std@@UAE@XZ		; std::bad_array_new_length::~bad_array_new_length
PUBLIC	??0bad_array_new_length@std@@QAE@ABV01@@Z	; std::bad_array_new_length::bad_array_new_length
PUBLIC	??_Gbad_array_new_length@std@@UAEPAXI@Z		; std::bad_array_new_length::`scalar deleting destructor'
PUBLIC	?_Throw_bad_array_new_length@std@@YAXXZ		; std::_Throw_bad_array_new_length
PUBLIC	??$_Allocate_manually_vector_aligned@U_Default_allocate_traits@std@@@std@@YAPAXI@Z ; std::_Allocate_manually_vector_aligned<std::_Default_allocate_traits>
PUBLIC	?OnChangePosition@CWindow@UI@@UAEXXZ		; UI::CWindow::OnChangePosition
PUBLIC	?SetColor@CWindow@UI@@UAEXK@Z			; UI::CWindow::SetColor
PUBLIC	?IsWindow@CWindow@UI@@UAEHXZ			; UI::CWindow::IsWindow
PUBLIC	?Type@CGridSlotWindow@UI@@SAKXZ			; UI::CGridSlotWindow::Type
PUBLIC	??0CGridSlotWindow@UI@@QAE@PAU_object@@@Z	; UI::CGridSlotWindow::CGridSlotWindow
PUBLIC	??1CGridSlotWindow@UI@@UAE@XZ			; UI::CGridSlotWindow::~CGridSlotWindow
PUBLIC	?Destroy@CGridSlotWindow@UI@@QAEXXZ		; UI::CGridSlotWindow::Destroy
PUBLIC	?ArrangeGridSlot@CGridSlotWindow@UI@@QAEXKKKHHHH@Z ; UI::CGridSlotWindow::ArrangeGridSlot
PUBLIC	?__Initialize@CGridSlotWindow@UI@@IAEXXZ	; UI::CGridSlotWindow::__Initialize
PUBLIC	?GetPickedSlotPointer@CGridSlotWindow@UI@@MAEHPAPAUSSlot@CSlotWindow@2@@Z ; UI::CGridSlotWindow::GetPickedSlotPointer
PUBLIC	?GetPickedSlotList@CGridSlotWindow@UI@@IAEHHHPAV?$list@PAUSSlot@CSlotWindow@UI@@V?$allocator@PAUSSlot@CSlotWindow@UI@@@std@@@std@@@Z ; UI::CGridSlotWindow::GetPickedSlotList
PUBLIC	?GetGridSlotPointer@CGridSlotWindow@UI@@IAEHHHPAPAUSSlot@CSlotWindow@2@@Z ; UI::CGridSlotWindow::GetGridSlotPointer
PUBLIC	?GetPickedGridSlotPosition@CGridSlotWindow@UI@@IAEHHHPAH0@Z ; UI::CGridSlotWindow::GetPickedGridSlotPosition
PUBLIC	?CheckMoving@CGridSlotWindow@UI@@IAEHKKABV?$list@PAUSSlot@CSlotWindow@UI@@V?$allocator@PAUSSlot@CSlotWindow@UI@@@std@@@std@@@Z ; UI::CGridSlotWindow::CheckMoving
PUBLIC	?OnIsType@CGridSlotWindow@UI@@MAEHK@Z		; UI::CGridSlotWindow::OnIsType
PUBLIC	?OnRefreshSlot@CGridSlotWindow@UI@@MAEXXZ	; UI::CGridSlotWindow::OnRefreshSlot
PUBLIC	?OnRenderPickingSlot@CGridSlotWindow@UI@@MAEXXZ	; UI::CGridSlotWindow::OnRenderPickingSlot
PUBLIC	?_Xlength@?$vector@PAUSSlot@CSlotWindow@UI@@V?$allocator@PAUSSlot@CSlotWindow@UI@@@std@@@std@@CAXXZ ; std::vector<UI::CSlotWindow::SSlot *,std::allocator<UI::CSlotWindow::SSlot *> >::_Xlength
PUBLIC	??_GCGridSlotWindow@UI@@UAEPAXI@Z		; UI::CGridSlotWindow::`scalar deleting destructor'
PUBLIC	??1?$list@PAUSSlot@CSlotWindow@UI@@V?$allocator@PAUSSlot@CSlotWindow@UI@@@std@@@std@@QAE@XZ ; std::list<UI::CSlotWindow::SSlot *,std::allocator<UI::CSlotWindow::SSlot *> >::~list<UI::CSlotWindow::SSlot *,std::allocator<UI::CSlotWindow::SSlot *> >
PUBLIC	??1?$_Alloc_construct_ptr@V?$allocator@U?$_List_node@PAUSSlot@CSlotWindow@UI@@PAX@std@@@std@@@std@@QAE@XZ ; std::_Alloc_construct_ptr<std::allocator<std::_List_node<UI::CSlotWindow::SSlot *,void *> > >::~_Alloc_construct_ptr<std::allocator<std::_List_node<UI::CSlotWindow::SSlot *,void *> > >
PUBLIC	??$_Resize_reallocate@U_Value_init_tag@std@@@?$vector@PAUSSlot@CSlotWindow@UI@@V?$allocator@PAUSSlot@CSlotWindow@UI@@@std@@@std@@AAEXIABU_Value_init_tag@1@@Z ; std::vector<UI::CSlotWindow::SSlot *,std::allocator<UI::CSlotWindow::SSlot *> >::_Resize_reallocate<std::_Value_init_tag>
PUBLIC	??$_Zero_range@PAPAUSSlot@CSlotWindow@UI@@@std@@YAPAPAUSSlot@CSlotWindow@UI@@QAPAU123@0@Z ; std::_Zero_range<UI::CSlotWindow::SSlot * *>
PUBLIC	??$_Copy_memmove@PAPAUSSlot@CSlotWindow@UI@@PAPAU123@@std@@YAPAPAUSSlot@CSlotWindow@UI@@PAPAU123@00@Z ; std::_Copy_memmove<UI::CSlotWindow::SSlot * *,UI::CSlotWindow::SSlot * *>
PUBLIC	??_7exception@std@@6B@				; std::exception::`vftable'
PUBLIC	??_C@_0BC@EOODALEL@Unknown?5exception@		; `string'
PUBLIC	??_7bad_alloc@std@@6B@				; std::bad_alloc::`vftable'
PUBLIC	??_7bad_array_new_length@std@@6B@		; std::bad_array_new_length::`vftable'
PUBLIC	??_C@_0BF@KINCDENJ@bad?5array?5new?5length@	; `string'
PUBLIC	__TI3?AVbad_array_new_length@std@@
PUBLIC	__CTA3?AVbad_array_new_length@std@@
PUBLIC	??_R0?AVbad_array_new_length@std@@@8		; std::bad_array_new_length `RTTI Type Descriptor'
PUBLIC	__CT??_R0?AVbad_array_new_length@std@@@8??0bad_array_new_length@std@@QAE@ABV01@@Z12
PUBLIC	??_R0?AVbad_alloc@std@@@8			; std::bad_alloc `RTTI Type Descriptor'
PUBLIC	__CT??_R0?AVbad_alloc@std@@@8??0bad_alloc@std@@QAE@ABV01@@Z12
PUBLIC	??_R0?AVexception@std@@@8			; std::exception `RTTI Type Descriptor'
PUBLIC	__CT??_R0?AVexception@std@@@8??0exception@std@@QAE@ABV01@@Z12
PUBLIC	?ms_singleton@?$CSingleton@VCPythonGraphic@@@@0PAVCPythonGraphic@@A ; CSingleton<CPythonGraphic>::ms_singleton
PUBLIC	?ms_singleton@?$CSingleton@VCWindowManager@UI@@@@0PAVCWindowManager@UI@@A ; CSingleton<UI::CWindowManager>::ms_singleton
PUBLIC	??_C@_0BA@FOIKENOD@vector?5too?5long@		; `string'
PUBLIC	??_R4exception@std@@6B@				; std::exception::`RTTI Complete Object Locator'
PUBLIC	??_R3exception@std@@8				; std::exception::`RTTI Class Hierarchy Descriptor'
PUBLIC	??_R2exception@std@@8				; std::exception::`RTTI Base Class Array'
PUBLIC	??_R1A@?0A@EA@exception@std@@8			; std::exception::`RTTI Base Class Descriptor at (0,-1,0,64)'
PUBLIC	??_R4bad_alloc@std@@6B@				; std::bad_alloc::`RTTI Complete Object Locator'
PUBLIC	??_R3bad_alloc@std@@8				; std::bad_alloc::`RTTI Class Hierarchy Descriptor'
PUBLIC	??_R2bad_alloc@std@@8				; std::bad_alloc::`RTTI Base Class Array'
PUBLIC	??_R1A@?0A@EA@bad_alloc@std@@8			; std::bad_alloc::`RTTI Base Class Descriptor at (0,-1,0,64)'
PUBLIC	??_R4bad_array_new_length@std@@6B@		; std::bad_array_new_length::`RTTI Complete Object Locator'
PUBLIC	??_R3bad_array_new_length@std@@8		; std::bad_array_new_length::`RTTI Class Hierarchy Descriptor'
PUBLIC	??_R2bad_array_new_length@std@@8		; std::bad_array_new_length::`RTTI Base Class Array'
PUBLIC	??_R1A@?0A@EA@bad_array_new_length@std@@8	; std::bad_array_new_length::`RTTI Base Class Descriptor at (0,-1,0,64)'
PUBLIC	??_7CGridSlotWindow@UI@@6B@			; UI::CGridSlotWindow::`vftable'
PUBLIC	??_C@_0BA@BFEGLPNH@CGridSlotWindow@		; `string'
PUBLIC	??_C@_0O@NKNMEGII@list?5too?5long@		; `string'
PUBLIC	??_R1A@?0A@EA@CWindow@UI@@8			; UI::CWindow::`RTTI Base Class Descriptor at (0,-1,0,64)'
PUBLIC	??_R0?AVCWindow@UI@@@8				; UI::CWindow `RTTI Type Descriptor'
PUBLIC	??_R3CWindow@UI@@8				; UI::CWindow::`RTTI Class Hierarchy Descriptor'
PUBLIC	??_R2CWindow@UI@@8				; UI::CWindow::`RTTI Base Class Array'
PUBLIC	??_R4CGridSlotWindow@UI@@6B@			; UI::CGridSlotWindow::`RTTI Complete Object Locator'
PUBLIC	??_R0?AVCGridSlotWindow@UI@@@8			; UI::CGridSlotWindow `RTTI Type Descriptor'
PUBLIC	??_R3CGridSlotWindow@UI@@8			; UI::CGridSlotWindow::`RTTI Class Hierarchy Descriptor'
PUBLIC	??_R2CGridSlotWindow@UI@@8			; UI::CGridSlotWindow::`RTTI Base Class Array'
PUBLIC	??_R1A@?0A@EA@CGridSlotWindow@UI@@8		; UI::CGridSlotWindow::`RTTI Base Class Descriptor at (0,-1,0,64)'
PUBLIC	??_R1A@?0A@EA@CSlotWindow@UI@@8			; UI::CSlotWindow::`RTTI Base Class Descriptor at (0,-1,0,64)'
PUBLIC	??_R0?AVCSlotWindow@UI@@@8			; UI::CSlotWindow `RTTI Type Descriptor'
PUBLIC	??_R3CSlotWindow@UI@@8				; UI::CSlotWindow::`RTTI Class Hierarchy Descriptor'
PUBLIC	??_R2CSlotWindow@UI@@8				; UI::CSlotWindow::`RTTI Base Class Array'
EXTRN	??2@YAPAXI@Z:PROC				; operator new
EXTRN	??3@YAXPAXI@Z:PROC				; operator delete
EXTRN	__Init_thread_header:PROC
EXTRN	__Init_thread_abort:PROC
EXTRN	__Init_thread_footer:PROC
EXTRN	__invalid_parameter_noinfo_noreturn:PROC
EXTRN	___std_exception_copy:PROC
EXTRN	___std_exception_destroy:PROC
EXTRN	??_Eexception@std@@UAEPAXI@Z:PROC		; std::exception::`vector deleting destructor'
EXTRN	??_Ebad_alloc@std@@UAEPAXI@Z:PROC		; std::bad_alloc::`vector deleting destructor'
EXTRN	??_Ebad_array_new_length@std@@UAEPAXI@Z:PROC	; std::bad_array_new_length::`vector deleting destructor'
EXTRN	?_Xlength_error@std@@YAXPBD@Z:PROC		; std::_Xlength_error
EXTRN	?GetCRC32@@YAKPBDI@Z:PROC			; GetCRC32
EXTRN	?RenderBar2d@CScreen@@QAEXMMMMM@Z:PROC		; CScreen::RenderBar2d
EXTRN	?SetDiffuseColor@CScreen@@QAEXMMMM@Z:PROC	; CScreen::SetDiffuseColor
EXTRN	?IsAttaching@CWindowManager@UI@@QAEHXZ:PROC	; UI::CWindowManager::IsAttaching
EXTRN	?GetAttachingIndex@CWindowManager@UI@@QAEKXZ:PROC ; UI::CWindowManager::GetAttachingIndex
EXTRN	?GetAttachingSlotNumber@CWindowManager@UI@@QAEKXZ:PROC ; UI::CWindowManager::GetAttachingSlotNumber
EXTRN	?GetAttachingIconSize@CWindowManager@UI@@QAEXPAE0@Z:PROC ; UI::CWindowManager::GetAttachingIconSize
EXTRN	?SetSize@CWindow@UI@@QAEXJJ@Z:PROC		; UI::CWindow::SetSize
EXTRN	?GetMouseLocalPosition@CWindow@UI@@QAEXAAJ0@Z:PROC ; UI::CWindow::GetMouseLocalPosition
EXTRN	?OnSetFocus@CWindow@UI@@UAEXXZ:PROC		; UI::CWindow::OnSetFocus
EXTRN	?OnKillFocus@CWindow@UI@@UAEXXZ:PROC		; UI::CWindow::OnKillFocus
EXTRN	?OnMouseDrag@CWindow@UI@@UAEXJJ@Z:PROC		; UI::CWindow::OnMouseDrag
EXTRN	?OnMouseOverIn@CWindow@UI@@UAEXXZ:PROC		; UI::CWindow::OnMouseOverIn
EXTRN	?OnDrop@CWindow@UI@@UAEXXZ:PROC			; UI::CWindow::OnDrop
EXTRN	?OnTop@CWindow@UI@@UAEXXZ:PROC			; UI::CWindow::OnTop
EXTRN	?OnIMEUpdate@CWindow@UI@@UAEXXZ:PROC		; UI::CWindow::OnIMEUpdate
EXTRN	?OnMoveWindow@CWindow@UI@@UAEXJJ@Z:PROC		; UI::CWindow::OnMoveWindow
EXTRN	?OnIMETabEvent@CWindow@UI@@UAEHXZ:PROC		; UI::CWindow::OnIMETabEvent
EXTRN	?OnIMEReturnEvent@CWindow@UI@@UAEHXZ:PROC	; UI::CWindow::OnIMEReturnEvent
EXTRN	?OnIMEKeyDownEvent@CWindow@UI@@UAEHH@Z:PROC	; UI::CWindow::OnIMEKeyDownEvent
EXTRN	?OnIMEChangeCodePage@CWindow@UI@@UAEHXZ:PROC	; UI::CWindow::OnIMEChangeCodePage
EXTRN	?OnIMEOpenCandidateListEvent@CWindow@UI@@UAEHXZ:PROC ; UI::CWindow::OnIMEOpenCandidateListEvent
EXTRN	?OnIMECloseCandidateListEvent@CWindow@UI@@UAEHXZ:PROC ; UI::CWindow::OnIMECloseCandidateListEvent
EXTRN	?OnIMEOpenReadingWndEvent@CWindow@UI@@UAEHXZ:PROC ; UI::CWindow::OnIMEOpenReadingWndEvent
EXTRN	?OnIMECloseReadingWndEvent@CWindow@UI@@UAEHXZ:PROC ; UI::CWindow::OnIMECloseReadingWndEvent
EXTRN	?OnMouseRightButtonUp@CWindow@UI@@UAEHXZ:PROC	; UI::CWindow::OnMouseRightButtonUp
EXTRN	?OnMouseRightButtonDoubleClick@CWindow@UI@@UAEHXZ:PROC ; UI::CWindow::OnMouseRightButtonDoubleClick
EXTRN	?OnMouseMiddleButtonDown@CWindow@UI@@UAEHXZ:PROC ; UI::CWindow::OnMouseMiddleButtonDown
EXTRN	?OnMouseMiddleButtonUp@CWindow@UI@@UAEHXZ:PROC	; UI::CWindow::OnMouseMiddleButtonUp
EXTRN	?OnMouseWheelScroll@CWindow@UI@@UAEHF@Z:PROC	; UI::CWindow::OnMouseWheelScroll
EXTRN	?SetScrollable@CWindow@UI@@UAEXXZ:PROC		; UI::CWindow::SetScrollable
EXTRN	?OnKeyDown@CWindow@UI@@UAEHH@Z:PROC		; UI::CWindow::OnKeyDown
EXTRN	?OnKeyUp@CWindow@UI@@UAEHH@Z:PROC		; UI::CWindow::OnKeyUp
EXTRN	?OnPressEscapeKey@CWindow@UI@@UAEHXZ:PROC	; UI::CWindow::OnPressEscapeKey
EXTRN	?OnPressExitKey@CWindow@UI@@UAEHXZ:PROC		; UI::CWindow::OnPressExitKey
EXTRN	??0CSlotWindow@UI@@QAE@PAU_object@@@Z:PROC	; UI::CSlotWindow::CSlotWindow
EXTRN	??1CSlotWindow@UI@@UAE@XZ:PROC			; UI::CSlotWindow::~CSlotWindow
EXTRN	?Destroy@CSlotWindow@UI@@QAEXXZ:PROC		; UI::CSlotWindow::Destroy
EXTRN	?AppendSlot@CSlotWindow@UI@@QAEXKHHHH@Z:PROC	; UI::CSlotWindow::AppendSlot
EXTRN	?OnUpdate@CSlotWindow@UI@@MAEXXZ:PROC		; UI::CSlotWindow::OnUpdate
EXTRN	?OnRender@CSlotWindow@UI@@MAEXXZ:PROC		; UI::CSlotWindow::OnRender
EXTRN	?OnMouseLeftButtonDown@CSlotWindow@UI@@MAEHXZ:PROC ; UI::CSlotWindow::OnMouseLeftButtonDown
EXTRN	?OnMouseLeftButtonUp@CSlotWindow@UI@@MAEHXZ:PROC ; UI::CSlotWindow::OnMouseLeftButtonUp
EXTRN	?OnMouseRightButtonDown@CSlotWindow@UI@@MAEHXZ:PROC ; UI::CSlotWindow::OnMouseRightButtonDown
EXTRN	?OnMouseLeftButtonDoubleClick@CSlotWindow@UI@@MAEHXZ:PROC ; UI::CSlotWindow::OnMouseLeftButtonDoubleClick
EXTRN	?OnMouseOverOut@CSlotWindow@UI@@MAEXXZ:PROC	; UI::CSlotWindow::OnMouseOverOut
EXTRN	?OnMouseOver@CSlotWindow@UI@@MAEXXZ:PROC	; UI::CSlotWindow::OnMouseOver
EXTRN	?OnRenderSelectedSlot@CSlotWindow@UI@@MAEXXZ:PROC ; UI::CSlotWindow::OnRenderSelectedSlot
EXTRN	?GetSlotPointer@CSlotWindow@UI@@IAEHKPAPAUSSlot@12@@Z:PROC ; UI::CSlotWindow::GetSlotPointer
EXTRN	?GetPickedSlotPointer@CSlotWindow@UI@@MAEHPAPAUSSlot@12@@Z:PROC ; UI::CSlotWindow::GetPickedSlotPointer
EXTRN	?OnIsType@CSlotWindow@UI@@MAEHK@Z:PROC		; UI::CSlotWindow::OnIsType
EXTRN	??_ECGridSlotWindow@UI@@UAEPAXI@Z:PROC		; UI::CGridSlotWindow::`vector deleting destructor'
EXTRN	@__security_check_cookie@4:PROC
EXTRN	__CxxThrowException@8:PROC
EXTRN	___CxxFrameHandler3:PROC
EXTRN	_memmove:PROC
EXTRN	_memset:PROC
EXTRN	__Init_thread_epoch:DWORD
EXTRN	??_7type_info@@6B@:QWORD			; type_info::`vftable'
EXTRN	___security_cookie:DWORD
EXTRN	__fltused:DWORD
EXTRN	__tls_array:DWORD
EXTRN	__tls_index:DWORD
;	COMDAT ?ms_singleton@?$CSingleton@VCPythonGraphic@@@@0PAVCPythonGraphic@@A
_BSS	SEGMENT
?ms_singleton@?$CSingleton@VCPythonGraphic@@@@0PAVCPythonGraphic@@A DD 01H DUP (?) ; CSingleton<CPythonGraphic>::ms_singleton
_BSS	ENDS
;	COMDAT ?ms_singleton@?$CSingleton@VCWindowManager@UI@@@@0PAVCWindowManager@UI@@A
_BSS	SEGMENT
?ms_singleton@?$CSingleton@VCWindowManager@UI@@@@0PAVCWindowManager@UI@@A DD 01H DUP (?) ; CSingleton<UI::CWindowManager>::ms_singleton
_BSS	ENDS
;	COMDAT ?s_Type@?1??Type@CGridSlotWindow@UI@@SAKXZ@4HA
_BSS	SEGMENT
?s_Type@?1??Type@CGridSlotWindow@UI@@SAKXZ@4HA DD 01H DUP (?) ; `UI::CGridSlotWindow::Type'::`2'::s_Type
_BSS	ENDS
;	COMDAT ?$TSS0@?1??Type@CGridSlotWindow@UI@@SAKXZ@4HA
_BSS	SEGMENT
?$TSS0@?1??Type@CGridSlotWindow@UI@@SAKXZ@4HA DD 01H DUP (?) ; `UI::CGridSlotWindow::Type'::`2'::$TSS0
_BSS	ENDS
;	COMDAT ??_R2CSlotWindow@UI@@8
rdata$r	SEGMENT
??_R2CSlotWindow@UI@@8 DD FLAT:??_R1A@?0A@EA@CSlotWindow@UI@@8 ; UI::CSlotWindow::`RTTI Base Class Array'
	DD	FLAT:??_R1A@?0A@EA@CWindow@UI@@8
rdata$r	ENDS
;	COMDAT ??_R3CSlotWindow@UI@@8
rdata$r	SEGMENT
??_R3CSlotWindow@UI@@8 DD 00H				; UI::CSlotWindow::`RTTI Class Hierarchy Descriptor'
	DD	00H
	DD	02H
	DD	FLAT:??_R2CSlotWindow@UI@@8
rdata$r	ENDS
;	COMDAT ??_R0?AVCSlotWindow@UI@@@8
data$rs	SEGMENT
??_R0?AVCSlotWindow@UI@@@8 DD FLAT:??_7type_info@@6B@	; UI::CSlotWindow `RTTI Type Descriptor'
	DD	00H
	DB	'.?AVCSlotWindow@UI@@', 00H
data$rs	ENDS
;	COMDAT ??_R1A@?0A@EA@CSlotWindow@UI@@8
rdata$r	SEGMENT
??_R1A@?0A@EA@CSlotWindow@UI@@8 DD FLAT:??_R0?AVCSlotWindow@UI@@@8 ; UI::CSlotWindow::`RTTI Base Class Descriptor at (0,-1,0,64)'
	DD	01H
	DD	00H
	DD	0ffffffffH
	DD	00H
	DD	040H
	DD	FLAT:??_R3CSlotWindow@UI@@8
rdata$r	ENDS
;	COMDAT ??_R1A@?0A@EA@CGridSlotWindow@UI@@8
rdata$r	SEGMENT
??_R1A@?0A@EA@CGridSlotWindow@UI@@8 DD FLAT:??_R0?AVCGridSlotWindow@UI@@@8 ; UI::CGridSlotWindow::`RTTI Base Class Descriptor at (0,-1,0,64)'
	DD	02H
	DD	00H
	DD	0ffffffffH
	DD	00H
	DD	040H
	DD	FLAT:??_R3CGridSlotWindow@UI@@8
rdata$r	ENDS
;	COMDAT ??_R2CGridSlotWindow@UI@@8
rdata$r	SEGMENT
??_R2CGridSlotWindow@UI@@8 DD FLAT:??_R1A@?0A@EA@CGridSlotWindow@UI@@8 ; UI::CGridSlotWindow::`RTTI Base Class Array'
	DD	FLAT:??_R1A@?0A@EA@CSlotWindow@UI@@8
	DD	FLAT:??_R1A@?0A@EA@CWindow@UI@@8
rdata$r	ENDS
;	COMDAT ??_R3CGridSlotWindow@UI@@8
rdata$r	SEGMENT
??_R3CGridSlotWindow@UI@@8 DD 00H			; UI::CGridSlotWindow::`RTTI Class Hierarchy Descriptor'
	DD	00H
	DD	03H
	DD	FLAT:??_R2CGridSlotWindow@UI@@8
rdata$r	ENDS
;	COMDAT ??_R0?AVCGridSlotWindow@UI@@@8
data$rs	SEGMENT
??_R0?AVCGridSlotWindow@UI@@@8 DD FLAT:??_7type_info@@6B@ ; UI::CGridSlotWindow `RTTI Type Descriptor'
	DD	00H
	DB	'.?AVCGridSlotWindow@UI@@', 00H
data$rs	ENDS
;	COMDAT ??_R4CGridSlotWindow@UI@@6B@
rdata$r	SEGMENT
??_R4CGridSlotWindow@UI@@6B@ DD 00H			; UI::CGridSlotWindow::`RTTI Complete Object Locator'
	DD	00H
	DD	00H
	DD	FLAT:??_R0?AVCGridSlotWindow@UI@@@8
	DD	FLAT:??_R3CGridSlotWindow@UI@@8
rdata$r	ENDS
;	COMDAT ??_R2CWindow@UI@@8
rdata$r	SEGMENT
??_R2CWindow@UI@@8 DD FLAT:??_R1A@?0A@EA@CWindow@UI@@8	; UI::CWindow::`RTTI Base Class Array'
rdata$r	ENDS
;	COMDAT ??_R3CWindow@UI@@8
rdata$r	SEGMENT
??_R3CWindow@UI@@8 DD 00H				; UI::CWindow::`RTTI Class Hierarchy Descriptor'
	DD	00H
	DD	01H
	DD	FLAT:??_R2CWindow@UI@@8
rdata$r	ENDS
;	COMDAT ??_R0?AVCWindow@UI@@@8
data$rs	SEGMENT
??_R0?AVCWindow@UI@@@8 DD FLAT:??_7type_info@@6B@	; UI::CWindow `RTTI Type Descriptor'
	DD	00H
	DB	'.?AVCWindow@UI@@', 00H
data$rs	ENDS
;	COMDAT ??_R1A@?0A@EA@CWindow@UI@@8
rdata$r	SEGMENT
??_R1A@?0A@EA@CWindow@UI@@8 DD FLAT:??_R0?AVCWindow@UI@@@8 ; UI::CWindow::`RTTI Base Class Descriptor at (0,-1,0,64)'
	DD	00H
	DD	00H
	DD	0ffffffffH
	DD	00H
	DD	040H
	DD	FLAT:??_R3CWindow@UI@@8
rdata$r	ENDS
;	COMDAT ??_C@_0O@NKNMEGII@list?5too?5long@
CONST	SEGMENT
??_C@_0O@NKNMEGII@list?5too?5long@ DB 'list too long', 00H ; `string'
CONST	ENDS
;	COMDAT ??_C@_0BA@BFEGLPNH@CGridSlotWindow@
CONST	SEGMENT
??_C@_0BA@BFEGLPNH@CGridSlotWindow@ DB 'CGridSlotWindow', 00H ; `string'
CONST	ENDS
;	COMDAT ??_7CGridSlotWindow@UI@@6B@
CONST	SEGMENT
??_7CGridSlotWindow@UI@@6B@ DD FLAT:??_R4CGridSlotWindow@UI@@6B@ ; UI::CGridSlotWindow::`vftable'
	DD	FLAT:??_ECGridSlotWindow@UI@@UAEPAXI@Z
	DD	FLAT:?OnRender@CSlotWindow@UI@@MAEXXZ
	DD	FLAT:?OnUpdate@CSlotWindow@UI@@MAEXXZ
	DD	FLAT:?OnChangePosition@CWindow@UI@@UAEXXZ
	DD	FLAT:?OnSetFocus@CWindow@UI@@UAEXXZ
	DD	FLAT:?OnKillFocus@CWindow@UI@@UAEXXZ
	DD	FLAT:?OnMouseDrag@CWindow@UI@@UAEXJJ@Z
	DD	FLAT:?OnMouseOverIn@CWindow@UI@@UAEXXZ
	DD	FLAT:?OnMouseOverOut@CSlotWindow@UI@@MAEXXZ
	DD	FLAT:?OnMouseOver@CSlotWindow@UI@@MAEXXZ
	DD	FLAT:?OnDrop@CWindow@UI@@UAEXXZ
	DD	FLAT:?OnTop@CWindow@UI@@UAEXXZ
	DD	FLAT:?OnIMEUpdate@CWindow@UI@@UAEXXZ
	DD	FLAT:?OnMoveWindow@CWindow@UI@@UAEXJJ@Z
	DD	FLAT:?OnIMETabEvent@CWindow@UI@@UAEHXZ
	DD	FLAT:?OnIMEReturnEvent@CWindow@UI@@UAEHXZ
	DD	FLAT:?OnIMEKeyDownEvent@CWindow@UI@@UAEHH@Z
	DD	FLAT:?OnIMEChangeCodePage@CWindow@UI@@UAEHXZ
	DD	FLAT:?OnIMEOpenCandidateListEvent@CWindow@UI@@UAEHXZ
	DD	FLAT:?OnIMECloseCandidateListEvent@CWindow@UI@@UAEHXZ
	DD	FLAT:?OnIMEOpenReadingWndEvent@CWindow@UI@@UAEHXZ
	DD	FLAT:?OnIMECloseReadingWndEvent@CWindow@UI@@UAEHXZ
	DD	FLAT:?OnMouseLeftButtonDown@CSlotWindow@UI@@MAEHXZ
	DD	FLAT:?OnMouseLeftButtonUp@CSlotWindow@UI@@MAEHXZ
	DD	FLAT:?OnMouseLeftButtonDoubleClick@CSlotWindow@UI@@MAEHXZ
	DD	FLAT:?OnMouseRightButtonDown@CSlotWindow@UI@@MAEHXZ
	DD	FLAT:?OnMouseRightButtonUp@CWindow@UI@@UAEHXZ
	DD	FLAT:?OnMouseRightButtonDoubleClick@CWindow@UI@@UAEHXZ
	DD	FLAT:?OnMouseMiddleButtonDown@CWindow@UI@@UAEHXZ
	DD	FLAT:?OnMouseMiddleButtonUp@CWindow@UI@@UAEHXZ
	DD	FLAT:?OnMouseWheelScroll@CWindow@UI@@UAEHF@Z
	DD	FLAT:?SetScrollable@CWindow@UI@@UAEXXZ
	DD	FLAT:?OnKeyDown@CWindow@UI@@UAEHH@Z
	DD	FLAT:?OnKeyUp@CWindow@UI@@UAEHH@Z
	DD	FLAT:?OnPressEscapeKey@CWindow@UI@@UAEHXZ
	DD	FLAT:?OnPressExitKey@CWindow@UI@@UAEHXZ
	DD	FLAT:?SetColor@CWindow@UI@@UAEXK@Z
	DD	FLAT:?OnIsType@CGridSlotWindow@UI@@MAEHK@Z
	DD	FLAT:?IsWindow@CWindow@UI@@UAEHXZ
	DD	FLAT:?OnRenderPickingSlot@CGridSlotWindow@UI@@MAEXXZ
	DD	FLAT:?OnRenderSelectedSlot@CSlotWindow@UI@@MAEXXZ
	DD	FLAT:?GetPickedSlotPointer@CGridSlotWindow@UI@@MAEHPAPAUSSlot@CSlotWindow@2@@Z
	DD	FLAT:?OnRefreshSlot@CGridSlotWindow@UI@@MAEXXZ
CONST	ENDS
;	COMDAT ??_R1A@?0A@EA@bad_array_new_length@std@@8
rdata$r	SEGMENT
??_R1A@?0A@EA@bad_array_new_length@std@@8 DD FLAT:??_R0?AVbad_array_new_length@std@@@8 ; std::bad_array_new_length::`RTTI Base Class Descriptor at (0,-1,0,64)'
	DD	02H
	DD	00H
	DD	0ffffffffH
	DD	00H
	DD	040H
	DD	FLAT:??_R3bad_array_new_length@std@@8
rdata$r	ENDS
;	COMDAT ??_R2bad_array_new_length@std@@8
rdata$r	SEGMENT
??_R2bad_array_new_length@std@@8 DD FLAT:??_R1A@?0A@EA@bad_array_new_length@std@@8 ; std::bad_array_new_length::`RTTI Base Class Array'
	DD	FLAT:??_R1A@?0A@EA@bad_alloc@std@@8
	DD	FLAT:??_R1A@?0A@EA@exception@std@@8
rdata$r	ENDS
;	COMDAT ??_R3bad_array_new_length@std@@8
rdata$r	SEGMENT
??_R3bad_array_new_length@std@@8 DD 00H			; std::bad_array_new_length::`RTTI Class Hierarchy Descriptor'
	DD	00H
	DD	03H
	DD	FLAT:??_R2bad_array_new_length@std@@8
rdata$r	ENDS
;	COMDAT ??_R4bad_array_new_length@std@@6B@
rdata$r	SEGMENT
??_R4bad_array_new_length@std@@6B@ DD 00H		; std::bad_array_new_length::`RTTI Complete Object Locator'
	DD	00H
	DD	00H
	DD	FLAT:??_R0?AVbad_array_new_length@std@@@8
	DD	FLAT:??_R3bad_array_new_length@std@@8
rdata$r	ENDS
;	COMDAT ??_R1A@?0A@EA@bad_alloc@std@@8
rdata$r	SEGMENT
??_R1A@?0A@EA@bad_alloc@std@@8 DD FLAT:??_R0?AVbad_alloc@std@@@8 ; std::bad_alloc::`RTTI Base Class Descriptor at (0,-1,0,64)'
	DD	01H
	DD	00H
	DD	0ffffffffH
	DD	00H
	DD	040H
	DD	FLAT:??_R3bad_alloc@std@@8
rdata$r	ENDS
;	COMDAT ??_R2bad_alloc@std@@8
rdata$r	SEGMENT
??_R2bad_alloc@std@@8 DD FLAT:??_R1A@?0A@EA@bad_alloc@std@@8 ; std::bad_alloc::`RTTI Base Class Array'
	DD	FLAT:??_R1A@?0A@EA@exception@std@@8
rdata$r	ENDS
;	COMDAT ??_R3bad_alloc@std@@8
rdata$r	SEGMENT
??_R3bad_alloc@std@@8 DD 00H				; std::bad_alloc::`RTTI Class Hierarchy Descriptor'
	DD	00H
	DD	02H
	DD	FLAT:??_R2bad_alloc@std@@8
rdata$r	ENDS
;	COMDAT ??_R4bad_alloc@std@@6B@
rdata$r	SEGMENT
??_R4bad_alloc@std@@6B@ DD 00H				; std::bad_alloc::`RTTI Complete Object Locator'
	DD	00H
	DD	00H
	DD	FLAT:??_R0?AVbad_alloc@std@@@8
	DD	FLAT:??_R3bad_alloc@std@@8
rdata$r	ENDS
;	COMDAT ??_R1A@?0A@EA@exception@std@@8
rdata$r	SEGMENT
??_R1A@?0A@EA@exception@std@@8 DD FLAT:??_R0?AVexception@std@@@8 ; std::exception::`RTTI Base Class Descriptor at (0,-1,0,64)'
	DD	00H
	DD	00H
	DD	0ffffffffH
	DD	00H
	DD	040H
	DD	FLAT:??_R3exception@std@@8
rdata$r	ENDS
;	COMDAT ??_R2exception@std@@8
rdata$r	SEGMENT
??_R2exception@std@@8 DD FLAT:??_R1A@?0A@EA@exception@std@@8 ; std::exception::`RTTI Base Class Array'
rdata$r	ENDS
;	COMDAT ??_R3exception@std@@8
rdata$r	SEGMENT
??_R3exception@std@@8 DD 00H				; std::exception::`RTTI Class Hierarchy Descriptor'
	DD	00H
	DD	01H
	DD	FLAT:??_R2exception@std@@8
rdata$r	ENDS
;	COMDAT ??_R4exception@std@@6B@
rdata$r	SEGMENT
??_R4exception@std@@6B@ DD 00H				; std::exception::`RTTI Complete Object Locator'
	DD	00H
	DD	00H
	DD	FLAT:??_R0?AVexception@std@@@8
	DD	FLAT:??_R3exception@std@@8
rdata$r	ENDS
;	COMDAT ??_C@_0BA@FOIKENOD@vector?5too?5long@
CONST	SEGMENT
??_C@_0BA@FOIKENOD@vector?5too?5long@ DB 'vector too long', 00H ; `string'
CONST	ENDS
;	COMDAT __CT??_R0?AVexception@std@@@8??0exception@std@@QAE@ABV01@@Z12
xdata$x	SEGMENT
__CT??_R0?AVexception@std@@@8??0exception@std@@QAE@ABV01@@Z12 DD 00H
	DD	FLAT:??_R0?AVexception@std@@@8
	DD	00H
	DD	0ffffffffH
	ORG $+4
	DD	0cH
	DD	FLAT:??0exception@std@@QAE@ABV01@@Z
xdata$x	ENDS
;	COMDAT ??_R0?AVexception@std@@@8
data$r	SEGMENT
??_R0?AVexception@std@@@8 DD FLAT:??_7type_info@@6B@	; std::exception `RTTI Type Descriptor'
	DD	00H
	DB	'.?AVexception@std@@', 00H
data$r	ENDS
;	COMDAT __CT??_R0?AVbad_alloc@std@@@8??0bad_alloc@std@@QAE@ABV01@@Z12
xdata$x	SEGMENT
__CT??_R0?AVbad_alloc@std@@@8??0bad_alloc@std@@QAE@ABV01@@Z12 DD 010H
	DD	FLAT:??_R0?AVbad_alloc@std@@@8
	DD	00H
	DD	0ffffffffH
	ORG $+4
	DD	0cH
	DD	FLAT:??0bad_alloc@std@@QAE@ABV01@@Z
xdata$x	ENDS
;	COMDAT ??_R0?AVbad_alloc@std@@@8
data$r	SEGMENT
??_R0?AVbad_alloc@std@@@8 DD FLAT:??_7type_info@@6B@	; std::bad_alloc `RTTI Type Descriptor'
	DD	00H
	DB	'.?AVbad_alloc@std@@', 00H
data$r	ENDS
;	COMDAT __CT??_R0?AVbad_array_new_length@std@@@8??0bad_array_new_length@std@@QAE@ABV01@@Z12
xdata$x	SEGMENT
__CT??_R0?AVbad_array_new_length@std@@@8??0bad_array_new_length@std@@QAE@ABV01@@Z12 DD 00H
	DD	FLAT:??_R0?AVbad_array_new_length@std@@@8
	DD	00H
	DD	0ffffffffH
	ORG $+4
	DD	0cH
	DD	FLAT:??0bad_array_new_length@std@@QAE@ABV01@@Z
xdata$x	ENDS
;	COMDAT ??_R0?AVbad_array_new_length@std@@@8
data$r	SEGMENT
??_R0?AVbad_array_new_length@std@@@8 DD FLAT:??_7type_info@@6B@ ; std::bad_array_new_length `RTTI Type Descriptor'
	DD	00H
	DB	'.?AVbad_array_new_length@std@@', 00H
data$r	ENDS
;	COMDAT __CTA3?AVbad_array_new_length@std@@
xdata$x	SEGMENT
__CTA3?AVbad_array_new_length@std@@ DD 03H
	DD	FLAT:__CT??_R0?AVbad_array_new_length@std@@@8??0bad_array_new_length@std@@QAE@ABV01@@Z12
	DD	FLAT:__CT??_R0?AVbad_alloc@std@@@8??0bad_alloc@std@@QAE@ABV01@@Z12
	DD	FLAT:__CT??_R0?AVexception@std@@@8??0exception@std@@QAE@ABV01@@Z12
xdata$x	ENDS
;	COMDAT __TI3?AVbad_array_new_length@std@@
xdata$x	SEGMENT
__TI3?AVbad_array_new_length@std@@ DD 00H
	DD	FLAT:??1bad_array_new_length@std@@UAE@XZ
	DD	00H
	DD	FLAT:__CTA3?AVbad_array_new_length@std@@
xdata$x	ENDS
;	COMDAT ??_C@_0BF@KINCDENJ@bad?5array?5new?5length@
CONST	SEGMENT
??_C@_0BF@KINCDENJ@bad?5array?5new?5length@ DB 'bad array new length', 00H ; `string'
CONST	ENDS
;	COMDAT ??_7bad_array_new_length@std@@6B@
CONST	SEGMENT
??_7bad_array_new_length@std@@6B@ DD FLAT:??_R4bad_array_new_length@std@@6B@ ; std::bad_array_new_length::`vftable'
	DD	FLAT:??_Ebad_array_new_length@std@@UAEPAXI@Z
	DD	FLAT:?what@exception@std@@UBEPBDXZ
CONST	ENDS
;	COMDAT ??_7bad_alloc@std@@6B@
CONST	SEGMENT
??_7bad_alloc@std@@6B@ DD FLAT:??_R4bad_alloc@std@@6B@	; std::bad_alloc::`vftable'
	DD	FLAT:??_Ebad_alloc@std@@UAEPAXI@Z
	DD	FLAT:?what@exception@std@@UBEPBDXZ
CONST	ENDS
;	COMDAT ??_C@_0BC@EOODALEL@Unknown?5exception@
CONST	SEGMENT
??_C@_0BC@EOODALEL@Unknown?5exception@ DB 'Unknown exception', 00H ; `string'
CONST	ENDS
;	COMDAT ??_7exception@std@@6B@
CONST	SEGMENT
??_7exception@std@@6B@ DD FLAT:??_R4exception@std@@6B@	; std::exception::`vftable'
	DD	FLAT:??_Eexception@std@@UAEPAXI@Z
	DD	FLAT:?what@exception@std@@UBEPBDXZ
CONST	ENDS
;	COMDAT xdata$x
xdata$x	SEGMENT
__unwindtable$??$?0ABQAUSSlot@CSlotWindow@UI@@@?$_List_node_emplace_op2@V?$allocator@U?$_List_node@PAUSSlot@CSlotWindow@UI@@PAX@std@@@std@@@std@@QAE@AAV?$allocator@U?$_List_node@PAUSSlot@CSlotWindow@UI@@PAX@std@@@1@ABQAUSSlot@CSlotWindow@UI@@@Z DD 0ffffffffH
	DD	FLAT:__unwindfunclet$??$?0ABQAUSSlot@CSlotWindow@UI@@@?$_List_node_emplace_op2@V?$allocator@U?$_List_node@PAUSSlot@CSlotWindow@UI@@PAX@std@@@std@@@std@@QAE@AAV?$allocator@U?$_List_node@PAUSSlot@CSlotWindow@UI@@PAX@std@@@1@ABQAUSSlot@CSlotWindow@UI@@@Z$0
__ehfuncinfo$??$?0ABQAUSSlot@CSlotWindow@UI@@@?$_List_node_emplace_op2@V?$allocator@U?$_List_node@PAUSSlot@CSlotWindow@UI@@PAX@std@@@std@@@std@@QAE@AAV?$allocator@U?$_List_node@PAUSSlot@CSlotWindow@UI@@PAX@std@@@1@ABQAUSSlot@CSlotWindow@UI@@@Z DD 019930522H
	DD	01H
	DD	FLAT:__unwindtable$??$?0ABQAUSSlot@CSlotWindow@UI@@@?$_List_node_emplace_op2@V?$allocator@U?$_List_node@PAUSSlot@CSlotWindow@UI@@PAX@std@@@std@@@std@@QAE@AAV?$allocator@U?$_List_node@PAUSSlot@CSlotWindow@UI@@PAX@std@@@1@ABQAUSSlot@CSlotWindow@UI@@@Z
	DD	2 DUP(00H)
	DD	2 DUP(00H)
	DD	00H
	DD	01H
xdata$x	ENDS
;	COMDAT xdata$x
xdata$x	SEGMENT
__unwindtable$??$_Emplace@ABQAUSSlot@CSlotWindow@UI@@@?$list@PAUSSlot@CSlotWindow@UI@@V?$allocator@PAUSSlot@CSlotWindow@UI@@@std@@@std@@QAEPAU?$_List_node@PAUSSlot@CSlotWindow@UI@@PAX@1@QAU21@ABQAUSSlot@CSlotWindow@UI@@@Z DD 0ffffffffH
	DD	FLAT:__unwindfunclet$??$_Emplace@ABQAUSSlot@CSlotWindow@UI@@@?$list@PAUSSlot@CSlotWindow@UI@@V?$allocator@PAUSSlot@CSlotWindow@UI@@@std@@@std@@QAEPAU?$_List_node@PAUSSlot@CSlotWindow@UI@@PAX@1@QAU21@ABQAUSSlot@CSlotWindow@UI@@@Z$1
__ehfuncinfo$??$_Emplace@ABQAUSSlot@CSlotWindow@UI@@@?$list@PAUSSlot@CSlotWindow@UI@@V?$allocator@PAUSSlot@CSlotWindow@UI@@@std@@@std@@QAEPAU?$_List_node@PAUSSlot@CSlotWindow@UI@@PAX@1@QAU21@ABQAUSSlot@CSlotWindow@UI@@@Z DD 019930522H
	DD	01H
	DD	FLAT:__unwindtable$??$_Emplace@ABQAUSSlot@CSlotWindow@UI@@@?$list@PAUSSlot@CSlotWindow@UI@@V?$allocator@PAUSSlot@CSlotWindow@UI@@@std@@@std@@QAEPAU?$_List_node@PAUSSlot@CSlotWindow@UI@@PAX@1@QAU21@ABQAUSSlot@CSlotWindow@UI@@@Z
	DD	2 DUP(00H)
	DD	2 DUP(00H)
	DD	00H
	DD	01H
xdata$x	ENDS
;	COMDAT xdata$x
xdata$x	SEGMENT
__unwindtable$?push_back@?$list@PAUSSlot@CSlotWindow@UI@@V?$allocator@PAUSSlot@CSlotWindow@UI@@@std@@@std@@QAEXABQAUSSlot@CSlotWindow@UI@@@Z DD 0ffffffffH
	DD	FLAT:__unwindfunclet$?push_back@?$list@PAUSSlot@CSlotWindow@UI@@V?$allocator@PAUSSlot@CSlotWindow@UI@@@std@@@std@@QAEXABQAUSSlot@CSlotWindow@UI@@@Z$1
__ehfuncinfo$?push_back@?$list@PAUSSlot@CSlotWindow@UI@@V?$allocator@PAUSSlot@CSlotWindow@UI@@@std@@@std@@QAEXABQAUSSlot@CSlotWindow@UI@@@Z DD 019930522H
	DD	01H
	DD	FLAT:__unwindtable$?push_back@?$list@PAUSSlot@CSlotWindow@UI@@V?$allocator@PAUSSlot@CSlotWindow@UI@@@std@@@std@@QAEXABQAUSSlot@CSlotWindow@UI@@@Z
	DD	2 DUP(00H)
	DD	2 DUP(00H)
	DD	00H
	DD	01H
xdata$x	ENDS
;	COMDAT xdata$x
xdata$x	SEGMENT
__unwindtable$?OnRenderPickingSlot@CGridSlotWindow@UI@@MAEXXZ DD 0ffffffffH
	DD	FLAT:__unwindfunclet$?OnRenderPickingSlot@CGridSlotWindow@UI@@MAEXXZ$0
__ehfuncinfo$?OnRenderPickingSlot@CGridSlotWindow@UI@@MAEXXZ DD 019930522H
	DD	01H
	DD	FLAT:__unwindtable$?OnRenderPickingSlot@CGridSlotWindow@UI@@MAEXXZ
	DD	2 DUP(00H)
	DD	2 DUP(00H)
	DD	00H
	DD	01H
xdata$x	ENDS
;	COMDAT xdata$x
xdata$x	SEGMENT
__unwindtable$?GetPickedSlotList@CGridSlotWindow@UI@@IAEHHHPAV?$list@PAUSSlot@CSlotWindow@UI@@V?$allocator@PAUSSlot@CSlotWindow@UI@@@std@@@std@@@Z DD 0ffffffffH
	DD	FLAT:__unwindfunclet$?GetPickedSlotList@CGridSlotWindow@UI@@IAEHHHPAV?$list@PAUSSlot@CSlotWindow@UI@@V?$allocator@PAUSSlot@CSlotWindow@UI@@@std@@@std@@@Z$1
	DD	0ffffffffH
	DD	FLAT:__unwindfunclet$?GetPickedSlotList@CGridSlotWindow@UI@@IAEHHHPAV?$list@PAUSSlot@CSlotWindow@UI@@V?$allocator@PAUSSlot@CSlotWindow@UI@@@std@@@std@@@Z$4
__ehfuncinfo$?GetPickedSlotList@CGridSlotWindow@UI@@IAEHHHPAV?$list@PAUSSlot@CSlotWindow@UI@@V?$allocator@PAUSSlot@CSlotWindow@UI@@@std@@@std@@@Z DD 019930522H
	DD	02H
	DD	FLAT:__unwindtable$?GetPickedSlotList@CGridSlotWindow@UI@@IAEHHHPAV?$list@PAUSSlot@CSlotWindow@UI@@V?$allocator@PAUSSlot@CSlotWindow@UI@@@std@@@std@@@Z
	DD	2 DUP(00H)
	DD	2 DUP(00H)
	DD	00H
	DD	01H
xdata$x	ENDS
;	COMDAT xdata$x
xdata$x	SEGMENT
__unwindtable$?GetPickedSlotPointer@CGridSlotWindow@UI@@MAEHPAPAUSSlot@CSlotWindow@2@@Z DD 0ffffffffH
	DD	FLAT:__unwindfunclet$?GetPickedSlotPointer@CGridSlotWindow@UI@@MAEHPAPAUSSlot@CSlotWindow@2@@Z$0
__ehfuncinfo$?GetPickedSlotPointer@CGridSlotWindow@UI@@MAEHPAPAUSSlot@CSlotWindow@2@@Z DD 019930522H
	DD	01H
	DD	FLAT:__unwindtable$?GetPickedSlotPointer@CGridSlotWindow@UI@@MAEHPAPAUSSlot@CSlotWindow@2@@Z
	DD	2 DUP(00H)
	DD	2 DUP(00H)
	DD	00H
	DD	01H
xdata$x	ENDS
;	COMDAT xdata$x
xdata$x	SEGMENT
__unwindtable$?Type@CGridSlotWindow@UI@@SAKXZ DD 0ffffffffH
	DD	FLAT:__unwindfunclet$?Type@CGridSlotWindow@UI@@SAKXZ$0
__ehfuncinfo$?Type@CGridSlotWindow@UI@@SAKXZ DD 019930522H
	DD	01H
	DD	FLAT:__unwindtable$?Type@CGridSlotWindow@UI@@SAKXZ
	DD	2 DUP(00H)
	DD	2 DUP(00H)
	DD	00H
	DD	01H
xdata$x	ENDS
; Function compile flags: /Ogtp
; File C:\Program Files (x86)\Microsoft Visual Studio\2019\Professional\VC\Tools\MSVC\14.29.30133\include\xutility
;	COMDAT ??$_Copy_memmove@PAPAUSSlot@CSlotWindow@UI@@PAPAU123@@std@@YAPAPAUSSlot@CSlotWindow@UI@@PAPAU123@00@Z
_TEXT	SEGMENT
__First$ = 8						; size = 4
__Last$ = 12						; size = 4
__Dest$ = 16						; size = 4
??$_Copy_memmove@PAPAUSSlot@CSlotWindow@UI@@PAPAU123@@std@@YAPAPAUSSlot@CSlotWindow@UI@@PAPAU123@00@Z PROC ; std::_Copy_memmove<UI::CSlotWindow::SSlot * *,UI::CSlotWindow::SSlot * *>, COMDAT

; 4159 : _OutCtgIt _Copy_memmove(_CtgIt _First, _CtgIt _Last, _OutCtgIt _Dest) {

  00000	55		 push	 ebp
  00001	8b ec		 mov	 ebp, esp

; 4160 :     auto _FirstPtr              = _To_address(_First);
; 4161 :     auto _LastPtr               = _To_address(_Last);
; 4162 :     auto _DestPtr               = _To_address(_Dest);
; 4163 :     const char* const _First_ch = const_cast<const char*>(reinterpret_cast<const volatile char*>(_FirstPtr));
; 4164 :     const char* const _Last_ch  = const_cast<const char*>(reinterpret_cast<const volatile char*>(_LastPtr));
; 4165 :     char* const _Dest_ch        = const_cast<char*>(reinterpret_cast<const volatile char*>(_DestPtr));
; 4166 :     const auto _Count           = static_cast<size_t>(_Last_ch - _First_ch);

  00003	8b 45 08	 mov	 eax, DWORD PTR __First$[ebp]
  00006	56		 push	 esi

; 4167 :     _CSTD memmove(_Dest_ch, _First_ch, _Count);

  00007	8b 75 10	 mov	 esi, DWORD PTR __Dest$[ebp]
  0000a	57		 push	 edi
  0000b	8b 7d 0c	 mov	 edi, DWORD PTR __Last$[ebp]
  0000e	2b f8		 sub	 edi, eax
  00010	57		 push	 edi
  00011	50		 push	 eax
  00012	56		 push	 esi
  00013	e8 00 00 00 00	 call	 _memmove
  00018	83 c4 0c	 add	 esp, 12			; 0000000cH

; 4168 :     if constexpr (is_pointer_v<_OutCtgIt>) {
; 4169 :         return reinterpret_cast<_OutCtgIt>(_Dest_ch + _Count);

  0001b	8d 04 37	 lea	 eax, DWORD PTR [edi+esi]
  0001e	5f		 pop	 edi
  0001f	5e		 pop	 esi

; 4170 :     } else {
; 4171 :         return _Dest + (_LastPtr - _FirstPtr);
; 4172 :     }
; 4173 : }

  00020	5d		 pop	 ebp
  00021	c3		 ret	 0
??$_Copy_memmove@PAPAUSSlot@CSlotWindow@UI@@PAPAU123@@std@@YAPAPAUSSlot@CSlotWindow@UI@@PAPAU123@00@Z ENDP ; std::_Copy_memmove<UI::CSlotWindow::SSlot * *,UI::CSlotWindow::SSlot * *>
_TEXT	ENDS
; Function compile flags: /Ogtp
; File C:\Program Files (x86)\Microsoft Visual Studio\2019\Professional\VC\Tools\MSVC\14.29.30133\include\xmemory
;	COMDAT ??$_Zero_range@PAPAUSSlot@CSlotWindow@UI@@@std@@YAPAPAUSSlot@CSlotWindow@UI@@QAPAU123@0@Z
_TEXT	SEGMENT
__First$ = 8						; size = 4
__Last$ = 12						; size = 4
??$_Zero_range@PAPAUSSlot@CSlotWindow@UI@@@std@@YAPAPAUSSlot@CSlotWindow@UI@@QAPAU123@0@Z PROC ; std::_Zero_range<UI::CSlotWindow::SSlot * *>, COMDAT

; 1806 : _Ptr _Zero_range(const _Ptr _First, const _Ptr _Last) { // fill [_First, _Last) with zeroes

  00000	55		 push	 ebp
  00001	8b ec		 mov	 ebp, esp

; 1807 :     char* const _First_ch = reinterpret_cast<char*>(_To_address(_First));
; 1808 :     char* const _Last_ch  = reinterpret_cast<char*>(_To_address(_Last));
; 1809 :     _CSTD memset(_First_ch, 0, static_cast<size_t>(_Last_ch - _First_ch));

  00003	8b 55 08	 mov	 edx, DWORD PTR __First$[ebp]
  00006	8b 4d 0c	 mov	 ecx, DWORD PTR __Last$[ebp]
  00009	2b ca		 sub	 ecx, edx
  0000b	51		 push	 ecx
  0000c	6a 00		 push	 0
  0000e	52		 push	 edx
  0000f	e8 00 00 00 00	 call	 _memset

; 1810 :     return _Last;

  00014	8b 45 0c	 mov	 eax, DWORD PTR __Last$[ebp]
  00017	83 c4 0c	 add	 esp, 12			; 0000000cH

; 1811 : }

  0001a	5d		 pop	 ebp
  0001b	c3		 ret	 0
??$_Zero_range@PAPAUSSlot@CSlotWindow@UI@@@std@@YAPAPAUSSlot@CSlotWindow@UI@@QAPAU123@0@Z ENDP ; std::_Zero_range<UI::CSlotWindow::SSlot * *>
_TEXT	ENDS
; Function compile flags: /Ogtp
; File C:\Program Files (x86)\Microsoft Visual Studio\2019\Professional\VC\Tools\MSVC\14.29.30133\include\vector
; File C:\Program Files (x86)\Microsoft Visual Studio\2019\Professional\VC\Tools\MSVC\14.29.30133\include\xmemory
; File C:\Program Files (x86)\Microsoft Visual Studio\2019\Professional\VC\Tools\MSVC\14.29.30133\include\vector
; File C:\Program Files (x86)\Microsoft Visual Studio\2019\Professional\VC\Tools\MSVC\14.29.30133\include\xmemory
; File C:\Program Files (x86)\Microsoft Visual Studio\2019\Professional\VC\Tools\MSVC\14.29.30133\include\vector
; File C:\Program Files (x86)\Microsoft Visual Studio\2019\Professional\VC\Tools\MSVC\14.29.30133\include\xmemory
; File C:\Program Files (x86)\Microsoft Visual Studio\2019\Professional\VC\Tools\MSVC\14.29.30133\include\vector
; File C:\Program Files (x86)\Microsoft Visual Studio\2019\Professional\VC\Tools\MSVC\14.29.30133\include\xmemory
; File C:\Program Files (x86)\Microsoft Visual Studio\2019\Professional\VC\Tools\MSVC\14.29.30133\include\vector
; File C:\Program Files (x86)\Microsoft Visual Studio\2019\Professional\VC\Tools\MSVC\14.29.30133\include\xmemory
; File C:\Program Files (x86)\Microsoft Visual Studio\2019\Professional\VC\Tools\MSVC\14.29.30133\include\vector
; File C:\Program Files (x86)\Microsoft Visual Studio\2019\Professional\VC\Tools\MSVC\14.29.30133\include\xmemory
; File C:\Program Files (x86)\Microsoft Visual Studio\2019\Professional\VC\Tools\MSVC\14.29.30133\include\vector
; File C:\Program Files (x86)\Microsoft Visual Studio\2019\Professional\VC\Tools\MSVC\14.29.30133\include\xmemory
; File C:\Program Files (x86)\Microsoft Visual Studio\2019\Professional\VC\Tools\MSVC\14.29.30133\include\vector
; File C:\Program Files (x86)\Microsoft Visual Studio\2019\Professional\VC\Tools\MSVC\14.29.30133\include\xmemory
; File C:\Program Files (x86)\Microsoft Visual Studio\2019\Professional\VC\Tools\MSVC\14.29.30133\include\vector
;	COMDAT ??$_Resize_reallocate@U_Value_init_tag@std@@@?$vector@PAUSSlot@CSlotWindow@UI@@V?$allocator@PAUSSlot@CSlotWindow@UI@@@std@@@std@@AAEXIABU_Value_init_tag@1@@Z
_TEXT	SEGMENT
__Oldsize$1$ = -4					; size = 4
__Newsize$ = 8						; size = 4
__Val$ = 12						; size = 4
??$_Resize_reallocate@U_Value_init_tag@std@@@?$vector@PAUSSlot@CSlotWindow@UI@@V?$allocator@PAUSSlot@CSlotWindow@UI@@@std@@@std@@AAEXIABU_Value_init_tag@1@@Z PROC ; std::vector<UI::CSlotWindow::SSlot *,std::allocator<UI::CSlotWindow::SSlot *> >::_Resize_reallocate<std::_Value_init_tag>, COMDAT
; _this$ = ecx

; 1229 :     _CONSTEXPR20_CONTAINER void _Resize_reallocate(const size_type _Newsize, const _Ty2& _Val) {

  00000	55		 push	 ebp
  00001	8b ec		 mov	 ebp, esp
  00003	51		 push	 ecx
  00004	53		 push	 ebx

; 1230 :         if (_Newsize > max_size()) {

  00005	8b 5d 08	 mov	 ebx, DWORD PTR __Newsize$[ebp]
  00008	56		 push	 esi
  00009	8b f1		 mov	 esi, ecx
  0000b	57		 push	 edi
  0000c	81 fb ff ff ff
	3f		 cmp	 ebx, 1073741823		; 3fffffffH
  00012	0f 87 ea 00 00
	00		 ja	 $LN82@Resize_rea

; 1232 :         }
; 1233 : 
; 1234 :         auto& _My_data    = _Mypair._Myval2;
; 1235 :         pointer& _Myfirst = _My_data._Myfirst;
; 1236 :         pointer& _Mylast  = _My_data._Mylast;
; 1237 : 
; 1238 :         const auto _Oldsize          = static_cast<size_type>(_Mylast - _Myfirst);

  00018	8b 4e 04	 mov	 ecx, DWORD PTR [esi+4]

; 1688 :         if (_Oldcapacity > _Max - _Oldcapacity / 2) {

  0001b	b8 ff ff ff 3f	 mov	 eax, 1073741823		; 3fffffffH

; 1232 :         }
; 1233 : 
; 1234 :         auto& _My_data    = _Mypair._Myval2;
; 1235 :         pointer& _Myfirst = _My_data._Myfirst;
; 1236 :         pointer& _Mylast  = _My_data._Mylast;
; 1237 : 
; 1238 :         const auto _Oldsize          = static_cast<size_type>(_Mylast - _Myfirst);

  00020	2b 0e		 sub	 ecx, DWORD PTR [esi]
  00022	c1 f9 02	 sar	 ecx, 2
  00025	89 4d fc	 mov	 DWORD PTR __Oldsize$1$[ebp], ecx

; 1559 :         return static_cast<size_type>(_My_data._Myend - _My_data._Myfirst);

  00028	8b 4e 08	 mov	 ecx, DWORD PTR [esi+8]
  0002b	2b 0e		 sub	 ecx, DWORD PTR [esi]
  0002d	c1 f9 02	 sar	 ecx, 2

; 1688 :         if (_Oldcapacity > _Max - _Oldcapacity / 2) {

  00030	8b d1		 mov	 edx, ecx
  00032	d1 ea		 shr	 edx, 1
  00034	2b c2		 sub	 eax, edx
  00036	3b c8		 cmp	 ecx, eax
  00038	76 12		 jbe	 SHORT $LN10@Resize_rea

; 1689 :             return _Max; // geometric growth would overflow

  0003a	bf fc ff ff ff	 mov	 edi, -4			; fffffffcH
; File C:\Program Files (x86)\Microsoft Visual Studio\2019\Professional\VC\Tools\MSVC\14.29.30133\include\xmemory

; 238  :             return _Allocate_manually_vector_aligned<_Traits>(_Bytes);

  0003f	57		 push	 edi
  00040	e8 00 00 00 00	 call	 ??$_Allocate_manually_vector_aligned@U_Default_allocate_traits@std@@@std@@YAPAXI@Z ; std::_Allocate_manually_vector_aligned<std::_Default_allocate_traits>
  00045	83 c4 04	 add	 esp, 4
  00048	8b d8		 mov	 ebx, eax
  0004a	eb 42		 jmp	 SHORT $LN21@Resize_rea
$LN10@Resize_rea:
; File C:\Program Files (x86)\Microsoft Visual Studio\2019\Professional\VC\Tools\MSVC\14.29.30133\include\vector

; 1692 :         const size_type _Geometric = _Oldcapacity + _Oldcapacity / 2;

  0004c	8d 3c 0a	 lea	 edi, DWORD PTR [edx+ecx]

; 1693 : 
; 1694 :         if (_Geometric < _Newsize) {

  0004f	3b fb		 cmp	 edi, ebx
  00051	73 1a		 jae	 SHORT $LN11@Resize_rea

; 1695 :             return _Newsize; // geometric growth would be insufficient

  00053	8b fb		 mov	 edi, ebx
$LN18@Resize_rea:
; File C:\Program Files (x86)\Microsoft Visual Studio\2019\Professional\VC\Tools\MSVC\14.29.30133\include\xmemory

; 69   :     return _Count * _Ty_size;

  00055	c1 e7 02	 shl	 edi, 2

; 237  :         if (_Bytes >= _Big_allocation_threshold) { // boost the alignment of big allocations to help autovectorization

  00058	81 ff 00 10 00
	00		 cmp	 edi, 4096		; 00001000H
  0005e	72 1b		 jb	 SHORT $LN22@Resize_rea

; 238  :             return _Allocate_manually_vector_aligned<_Traits>(_Bytes);

  00060	57		 push	 edi
  00061	e8 00 00 00 00	 call	 ??$_Allocate_manually_vector_aligned@U_Default_allocate_traits@std@@@std@@YAPAXI@Z ; std::_Allocate_manually_vector_aligned<std::_Default_allocate_traits>
  00066	83 c4 04	 add	 esp, 4
  00069	8b d8		 mov	 ebx, eax
  0006b	eb 21		 jmp	 SHORT $LN21@Resize_rea
$LN11@Resize_rea:

; 64   :         if (_Count > _Max_possible) {

  0006d	81 ff ff ff ff
	3f		 cmp	 edi, 1073741823		; 3fffffffH
  00073	0f 87 8e 00 00
	00		 ja	 $LN83@Resize_rea
  00079	eb da		 jmp	 SHORT $LN18@Resize_rea
$LN22@Resize_rea:

; 243  :     if (_Bytes != 0) {

  0007b	85 ff		 test	 edi, edi
  0007d	74 0d		 je	 SHORT $LN23@Resize_rea

; 85   :         return ::operator new(_Bytes);

  0007f	57		 push	 edi
  00080	e8 00 00 00 00	 call	 ??2@YAPAXI@Z		; operator new
  00085	83 c4 04	 add	 esp, 4

; 244  :         return _Traits::_Allocate(_Bytes);

  00088	8b d8		 mov	 ebx, eax
  0008a	eb 02		 jmp	 SHORT $LN21@Resize_rea
$LN23@Resize_rea:

; 245  :     }
; 246  : 
; 247  :     return nullptr;

  0008c	33 db		 xor	 ebx, ebx
$LN21@Resize_rea:
; File C:\Program Files (x86)\Microsoft Visual Studio\2019\Professional\VC\Tools\MSVC\14.29.30133\include\vector

; 1242 :         const pointer _Appended_first = _Newvec + _Oldsize;

  0008e	8b 55 fc	 mov	 edx, DWORD PTR __Oldsize$1$[ebp]
; File C:\Program Files (x86)\Microsoft Visual Studio\2019\Professional\VC\Tools\MSVC\14.29.30133\include\xmemory

; 1824 :             _Zero_range(_PFirst, _PFirst + _Count);

  00091	8b 45 08	 mov	 eax, DWORD PTR __Newsize$[ebp]
  00094	2b c2		 sub	 eax, edx
; File C:\Program Files (x86)\Microsoft Visual Studio\2019\Professional\VC\Tools\MSVC\14.29.30133\include\vector

; 1242 :         const pointer _Appended_first = _Newvec + _Oldsize;

  00096	8d 0c 93	 lea	 ecx, DWORD PTR [ebx+edx*4]
; File C:\Program Files (x86)\Microsoft Visual Studio\2019\Professional\VC\Tools\MSVC\14.29.30133\include\xmemory

; 1824 :             _Zero_range(_PFirst, _PFirst + _Count);

  00099	8d 04 81	 lea	 eax, DWORD PTR [ecx+eax*4]
  0009c	50		 push	 eax
  0009d	51		 push	 ecx
  0009e	e8 00 00 00 00	 call	 ??$_Zero_range@PAPAUSSlot@CSlotWindow@UI@@@std@@YAPAPAUSSlot@CSlotWindow@UI@@QAPAU123@0@Z ; std::_Zero_range<UI::CSlotWindow::SSlot * *>

; 1725 :             _Copy_memmove(_UFirst, _ULast, _Unfancy(_Dest));

  000a3	53		 push	 ebx
  000a4	ff 76 04	 push	 DWORD PTR [esi+4]
  000a7	ff 36		 push	 DWORD PTR [esi]
  000a9	e8 00 00 00 00	 call	 ??$_Copy_memmove@PAPAUSSlot@CSlotWindow@UI@@PAPAU123@@std@@YAPAPAUSSlot@CSlotWindow@UI@@PAPAU123@00@Z ; std::_Copy_memmove<UI::CSlotWindow::SSlot * *,UI::CSlotWindow::SSlot * *>
; File C:\Program Files (x86)\Microsoft Visual Studio\2019\Professional\VC\Tools\MSVC\14.29.30133\include\vector

; 1745 :         if (_Myfirst) { // destroy and deallocate old array

  000ae	8b 06		 mov	 eax, DWORD PTR [esi]
; File C:\Program Files (x86)\Microsoft Visual Studio\2019\Professional\VC\Tools\MSVC\14.29.30133\include\xmemory

; 1725 :             _Copy_memmove(_UFirst, _ULast, _Unfancy(_Dest));

  000b0	83 c4 14	 add	 esp, 20			; 00000014H
; File C:\Program Files (x86)\Microsoft Visual Studio\2019\Professional\VC\Tools\MSVC\14.29.30133\include\vector

; 1745 :         if (_Myfirst) { // destroy and deallocate old array

  000b3	85 c0		 test	 eax, eax
  000b5	74 2c		 je	 SHORT $LN65@Resize_rea

; 1746 :             _Destroy(_Myfirst, _Mylast);
; 1747 :             _Getal().deallocate(_Myfirst, static_cast<size_type>(_Myend - _Myfirst));

  000b7	8b 4e 08	 mov	 ecx, DWORD PTR [esi+8]
  000ba	2b c8		 sub	 ecx, eax
; File C:\Program Files (x86)\Microsoft Visual Studio\2019\Professional\VC\Tools\MSVC\14.29.30133\include\xmemory

; 835  :         _Deallocate<_New_alignof<_Ty>>(_Ptr, sizeof(_Ty) * _Count);

  000bc	83 e1 fc	 and	 ecx, -4			; fffffffcH

; 260  :         if (_Bytes >= _Big_allocation_threshold) { // boost the alignment of big allocations to help autovectorization

  000bf	81 f9 00 10 00
	00		 cmp	 ecx, 4096		; 00001000H
  000c5	72 12		 jb	 SHORT $LN75@Resize_rea

; 158  :     const uintptr_t _Ptr_container   = _Ptr_user[-1];

  000c7	8b 50 fc	 mov	 edx, DWORD PTR [eax-4]
  000ca	83 c1 23	 add	 ecx, 35			; 00000023H

; 159  : 
; 160  :     // If the following asserts, it likely means that we are performing
; 161  :     // an aligned delete on memory coming from an unaligned allocation.
; 162  :     _STL_ASSERT(_Ptr_user[-2] == _Big_allocation_sentinel, "invalid argument");
; 163  : 
; 164  :     // Extra paranoia on aligned allocation/deallocation; ensure _Ptr_container is
; 165  :     // in range [_Min_back_shift, _Non_user_size]
; 166  : #ifdef _DEBUG
; 167  :     constexpr uintptr_t _Min_back_shift = 2 * sizeof(void*);
; 168  : #else // ^^^ _DEBUG ^^^ // vvv !_DEBUG vvv
; 169  :     constexpr uintptr_t _Min_back_shift = sizeof(void*);
; 170  : #endif // _DEBUG
; 171  :     const uintptr_t _Back_shift = reinterpret_cast<uintptr_t>(_Ptr) - _Ptr_container;

  000cd	2b c2		 sub	 eax, edx

; 172  :     _STL_VERIFY(_Back_shift >= _Min_back_shift && _Back_shift <= _Non_user_size, "invalid argument");

  000cf	83 c0 fc	 add	 eax, -4			; fffffffcH
  000d2	83 f8 1f	 cmp	 eax, 31			; 0000001fH
  000d5	77 26		 ja	 SHORT $LN72@Resize_rea

; 173  :     _Ptr = reinterpret_cast<void*>(_Ptr_container);

  000d7	8b c2		 mov	 eax, edx
$LN75@Resize_rea:

; 264  :         ::operator delete(_Ptr, _Bytes);

  000d9	51		 push	 ecx
  000da	50		 push	 eax
  000db	e8 00 00 00 00	 call	 ??3@YAXPAXI@Z		; operator delete
  000e0	83 c4 08	 add	 esp, 8
$LN65@Resize_rea:
; File C:\Program Files (x86)\Microsoft Visual Studio\2019\Professional\VC\Tools\MSVC\14.29.30133\include\vector

; 1751 :         _Mylast  = _Newvec + _Newsize;

  000e3	8b 45 08	 mov	 eax, DWORD PTR __Newsize$[ebp]
  000e6	89 1e		 mov	 DWORD PTR [esi], ebx
  000e8	8d 04 83	 lea	 eax, DWORD PTR [ebx+eax*4]
  000eb	89 46 04	 mov	 DWORD PTR [esi+4], eax

; 1752 :         _Myend   = _Newvec + _Newcapacity;

  000ee	8d 04 1f	 lea	 eax, DWORD PTR [edi+ebx]
  000f1	5f		 pop	 edi
  000f2	89 46 08	 mov	 DWORD PTR [esi+8], eax
  000f5	5e		 pop	 esi
  000f6	5b		 pop	 ebx

; 1255 :     }

  000f7	8b e5		 mov	 esp, ebp
  000f9	5d		 pop	 ebp
  000fa	c2 08 00	 ret	 8
$LN72@Resize_rea:
; File C:\Program Files (x86)\Microsoft Visual Studio\2019\Professional\VC\Tools\MSVC\14.29.30133\include\xmemory

; 172  :     _STL_VERIFY(_Back_shift >= _Min_back_shift && _Back_shift <= _Non_user_size, "invalid argument");

  000fd	e8 00 00 00 00	 call	 __invalid_parameter_noinfo_noreturn
$LN82@Resize_rea:
; File C:\Program Files (x86)\Microsoft Visual Studio\2019\Professional\VC\Tools\MSVC\14.29.30133\include\vector

; 1231 :             _Xlength();

  00102	e8 00 00 00 00	 call	 ?_Xlength@?$vector@PAUSSlot@CSlotWindow@UI@@V?$allocator@PAUSSlot@CSlotWindow@UI@@@std@@@std@@CAXXZ ; std::vector<UI::CSlotWindow::SSlot *,std::allocator<UI::CSlotWindow::SSlot *> >::_Xlength
$LN83@Resize_rea:
; File C:\Program Files (x86)\Microsoft Visual Studio\2019\Professional\VC\Tools\MSVC\14.29.30133\include\xmemory

; 65   :             _Throw_bad_array_new_length(); // multiply overflow

  00107	e8 00 00 00 00	 call	 ?_Throw_bad_array_new_length@std@@YAXXZ ; std::_Throw_bad_array_new_length
$LN80@Resize_rea:
  0010c	cc		 int	 3
??$_Resize_reallocate@U_Value_init_tag@std@@@?$vector@PAUSSlot@CSlotWindow@UI@@V?$allocator@PAUSSlot@CSlotWindow@UI@@@std@@@std@@AAEXIABU_Value_init_tag@1@@Z ENDP ; std::vector<UI::CSlotWindow::SSlot *,std::allocator<UI::CSlotWindow::SSlot *> >::_Resize_reallocate<std::_Value_init_tag>
_TEXT	ENDS
; Function compile flags: /Ogtp
; File C:\Program Files (x86)\Microsoft Visual Studio\2019\Professional\VC\Tools\MSVC\14.29.30133\include\xmemory
;	COMDAT ??1?$_Alloc_construct_ptr@V?$allocator@U?$_List_node@PAUSSlot@CSlotWindow@UI@@PAX@std@@@std@@@std@@QAE@XZ
_TEXT	SEGMENT
??1?$_Alloc_construct_ptr@V?$allocator@U?$_List_node@PAUSSlot@CSlotWindow@UI@@PAX@std@@@std@@@std@@QAE@XZ PROC ; std::_Alloc_construct_ptr<std::allocator<std::_List_node<UI::CSlotWindow::SSlot *,void *> > >::~_Alloc_construct_ptr<std::allocator<std::_List_node<UI::CSlotWindow::SSlot *,void *> > >, COMDAT
; _this$ = ecx

; 1024 :         if (_Ptr) {

  00000	8b 41 04	 mov	 eax, DWORD PTR [ecx+4]
  00003	85 c0		 test	 eax, eax
  00005	74 0b		 je	 SHORT $LN8@Alloc_cons

; 264  :         ::operator delete(_Ptr, _Bytes);

  00007	6a 0c		 push	 12			; 0000000cH
  00009	50		 push	 eax
  0000a	e8 00 00 00 00	 call	 ??3@YAXPAXI@Z		; operator delete
  0000f	83 c4 08	 add	 esp, 8
$LN8@Alloc_cons:

; 1025 :             _Al.deallocate(_Ptr, 1);
; 1026 :         }
; 1027 :     }

  00012	c3		 ret	 0
??1?$_Alloc_construct_ptr@V?$allocator@U?$_List_node@PAUSSlot@CSlotWindow@UI@@PAX@std@@@std@@@std@@QAE@XZ ENDP ; std::_Alloc_construct_ptr<std::allocator<std::_List_node<UI::CSlotWindow::SSlot *,void *> > >::~_Alloc_construct_ptr<std::allocator<std::_List_node<UI::CSlotWindow::SSlot *,void *> > >
_TEXT	ENDS
; Function compile flags: /Ogtp
; File C:\Program Files (x86)\Microsoft Visual Studio\2019\Professional\VC\Tools\MSVC\14.29.30133\include\list
; File C:\Program Files (x86)\Microsoft Visual Studio\2019\Professional\VC\Tools\MSVC\14.29.30133\include\xmemory
; File C:\Program Files (x86)\Microsoft Visual Studio\2019\Professional\VC\Tools\MSVC\14.29.30133\include\list
; File C:\Program Files (x86)\Microsoft Visual Studio\2019\Professional\VC\Tools\MSVC\14.29.30133\include\xmemory
; File C:\Program Files (x86)\Microsoft Visual Studio\2019\Professional\VC\Tools\MSVC\14.29.30133\include\list
;	COMDAT ??1?$list@PAUSSlot@CSlotWindow@UI@@V?$allocator@PAUSSlot@CSlotWindow@UI@@@std@@@std@@QAE@XZ
_TEXT	SEGMENT
??1?$list@PAUSSlot@CSlotWindow@UI@@V?$allocator@PAUSSlot@CSlotWindow@UI@@@std@@@std@@QAE@XZ PROC ; std::list<UI::CSlotWindow::SSlot *,std::allocator<UI::CSlotWindow::SSlot *> >::~list<UI::CSlotWindow::SSlot *,std::allocator<UI::CSlotWindow::SSlot *> >, COMDAT
; _this$ = ecx

; 1045 :     ~list() noexcept {

  00000	57		 push	 edi
  00001	8b f9		 mov	 edi, ecx

; 1440 :         _Node::_Free_non_head(_Al, _My_data._Myhead);

  00003	8b 17		 mov	 edx, DWORD PTR [edi]

; 328  :         _Head->_Prev->_Next = nullptr;

  00005	8b 42 04	 mov	 eax, DWORD PTR [edx+4]
  00008	c7 00 00 00 00
	00		 mov	 DWORD PTR [eax], 0

; 329  : 
; 330  :         auto _Pnode = _Head->_Next;

  0000e	8b 02		 mov	 eax, DWORD PTR [edx]

; 331  :         for (_Nodeptr _Pnext; _Pnode; _Pnode = _Pnext) {

  00010	85 c0		 test	 eax, eax
  00012	74 15		 je	 SHORT $LN7@list
  00014	56		 push	 esi
$LL8@list:

; 332  :             _Pnext = _Pnode->_Next;

  00015	8b 30		 mov	 esi, DWORD PTR [eax]
; File C:\Program Files (x86)\Microsoft Visual Studio\2019\Professional\VC\Tools\MSVC\14.29.30133\include\xmemory

; 264  :         ::operator delete(_Ptr, _Bytes);

  00017	6a 0c		 push	 12			; 0000000cH
  00019	50		 push	 eax
  0001a	e8 00 00 00 00	 call	 ??3@YAXPAXI@Z		; operator delete
  0001f	83 c4 08	 add	 esp, 8
; File C:\Program Files (x86)\Microsoft Visual Studio\2019\Professional\VC\Tools\MSVC\14.29.30133\include\list

; 331  :         for (_Nodeptr _Pnext; _Pnode; _Pnode = _Pnext) {

  00022	8b c6		 mov	 eax, esi
  00024	85 f6		 test	 esi, esi
  00026	75 ed		 jne	 SHORT $LL8@list
  00028	5e		 pop	 esi
$LN7@list:
; File C:\Program Files (x86)\Microsoft Visual Studio\2019\Professional\VC\Tools\MSVC\14.29.30133\include\xmemory

; 264  :         ::operator delete(_Ptr, _Bytes);

  00029	6a 0c		 push	 12			; 0000000cH
  0002b	ff 37		 push	 DWORD PTR [edi]
  0002d	e8 00 00 00 00	 call	 ??3@YAXPAXI@Z		; operator delete
  00032	83 c4 08	 add	 esp, 8
  00035	5f		 pop	 edi
; File C:\Program Files (x86)\Microsoft Visual Studio\2019\Professional\VC\Tools\MSVC\14.29.30133\include\list

; 1051 :     }

  00036	c3		 ret	 0
??1?$list@PAUSSlot@CSlotWindow@UI@@V?$allocator@PAUSSlot@CSlotWindow@UI@@@std@@@std@@QAE@XZ ENDP ; std::list<UI::CSlotWindow::SSlot *,std::allocator<UI::CSlotWindow::SSlot *> >::~list<UI::CSlotWindow::SSlot *,std::allocator<UI::CSlotWindow::SSlot *> >
_TEXT	ENDS
; Function compile flags: /Ogtp
;	COMDAT ??_GCGridSlotWindow@UI@@UAEPAXI@Z
_TEXT	SEGMENT
___flags$ = 8						; size = 4
??_GCGridSlotWindow@UI@@UAEPAXI@Z PROC			; UI::CGridSlotWindow::`scalar deleting destructor', COMDAT
; _this$ = ecx
  00000	55		 push	 ebp
  00001	8b ec		 mov	 ebp, esp
  00003	56		 push	 esi
  00004	8b f1		 mov	 esi, ecx
  00006	e8 00 00 00 00	 call	 ??1CGridSlotWindow@UI@@UAE@XZ ; UI::CGridSlotWindow::~CGridSlotWindow
  0000b	f6 45 08 01	 test	 BYTE PTR ___flags$[ebp], 1
  0000f	74 0e		 je	 SHORT $LN4@scalar
  00011	68 dc 00 00 00	 push	 220			; 000000dcH
  00016	56		 push	 esi
  00017	e8 00 00 00 00	 call	 ??3@YAXPAXI@Z		; operator delete
  0001c	83 c4 08	 add	 esp, 8
$LN4@scalar:
  0001f	8b c6		 mov	 eax, esi
  00021	5e		 pop	 esi
  00022	5d		 pop	 ebp
  00023	c2 04 00	 ret	 4
??_GCGridSlotWindow@UI@@UAEPAXI@Z ENDP			; UI::CGridSlotWindow::`scalar deleting destructor'
_TEXT	ENDS
; Function compile flags: /Ogtp
; File C:\Program Files (x86)\Microsoft Visual Studio\2019\Professional\VC\Tools\MSVC\14.29.30133\include\vector
;	COMDAT ?_Xlength@?$vector@PAUSSlot@CSlotWindow@UI@@V?$allocator@PAUSSlot@CSlotWindow@UI@@@std@@@std@@CAXXZ
_TEXT	SEGMENT
?_Xlength@?$vector@PAUSSlot@CSlotWindow@UI@@V?$allocator@PAUSSlot@CSlotWindow@UI@@@std@@@std@@CAXXZ PROC ; std::vector<UI::CSlotWindow::SSlot *,std::allocator<UI::CSlotWindow::SSlot *> >::_Xlength, COMDAT

; 1774 :         _Xlength_error("vector too long");

  00000	68 00 00 00 00	 push	 OFFSET ??_C@_0BA@FOIKENOD@vector?5too?5long@
  00005	e8 00 00 00 00	 call	 ?_Xlength_error@std@@YAXPBD@Z ; std::_Xlength_error
$LN3@Xlength:
  0000a	cc		 int	 3
?_Xlength@?$vector@PAUSSlot@CSlotWindow@UI@@V?$allocator@PAUSSlot@CSlotWindow@UI@@@std@@@std@@CAXXZ ENDP ; std::vector<UI::CSlotWindow::SSlot *,std::allocator<UI::CSlotWindow::SSlot *> >::_Xlength
_TEXT	ENDS
; Function compile flags: /Ogtp
; File C:\Users\murat\Desktop\Siveps2-1-99-Project\source\client\Client\eterPythonLib\PythonGridSlotWindow.cpp
; File C:\Program Files (x86)\Microsoft Visual Studio\2019\Professional\VC\Tools\MSVC\14.29.30133\include\xmemory
; File C:\Program Files (x86)\Microsoft Visual Studio\2019\Professional\VC\Tools\MSVC\14.29.30133\include\list
; File C:\Program Files (x86)\Microsoft Visual Studio\2019\Professional\VC\Tools\MSVC\14.29.30133\include\xmemory
; File C:\Program Files (x86)\Microsoft Visual Studio\2019\Professional\VC\Tools\MSVC\14.29.30133\include\list
; File C:\Users\murat\Desktop\Siveps2-1-99-Project\source\client\Client\eterPythonLib\PythonGridSlotWindow.cpp
; File C:\Program Files (x86)\Microsoft Visual Studio\2019\Professional\VC\Tools\MSVC\14.29.30133\include\list
; File C:\Users\murat\Desktop\Siveps2-1-99-Project\source\client\Client\eterPythonLib\PythonGridSlotWindow.cpp
; File C:\Program Files (x86)\Microsoft Visual Studio\2019\Professional\VC\Tools\MSVC\14.29.30133\include\list
; File C:\Users\murat\Desktop\Siveps2-1-99-Project\source\client\Client\eterPythonLib\PythonGridSlotWindow.cpp
; File C:\Program Files (x86)\Microsoft Visual Studio\2019\Professional\VC\Tools\MSVC\14.29.30133\include\list
; File C:\Users\murat\Desktop\Siveps2-1-99-Project\source\client\Client\eterPythonLib\PythonGridSlotWindow.cpp
; File C:\Program Files (x86)\Microsoft Visual Studio\2019\Professional\VC\Tools\MSVC\14.29.30133\include\list
; File C:\Users\murat\Desktop\Siveps2-1-99-Project\source\client\Client\eterPythonLib\PythonGridSlotWindow.cpp
; File C:\Program Files (x86)\Microsoft Visual Studio\2019\Professional\VC\Tools\MSVC\14.29.30133\include\list
; File C:\Users\murat\Desktop\Siveps2-1-99-Project\source\client\Client\eterPythonLib\PythonGridSlotWindow.cpp
; File C:\Program Files (x86)\Microsoft Visual Studio\2019\Professional\VC\Tools\MSVC\14.29.30133\include\list
; File C:\Users\murat\Desktop\Siveps2-1-99-Project\source\client\Client\eterPythonLib\PythonGridSlotWindow.cpp
; File C:\Program Files (x86)\Microsoft Visual Studio\2019\Professional\VC\Tools\MSVC\14.29.30133\include\list
; File C:\Users\murat\Desktop\Siveps2-1-99-Project\source\client\Client\eterPythonLib\PythonGridSlotWindow.cpp
; File C:\Program Files (x86)\Microsoft Visual Studio\2019\Professional\VC\Tools\MSVC\14.29.30133\include\list
; File C:\Users\murat\Desktop\Siveps2-1-99-Project\source\client\Client\eterPythonLib\PythonGridSlotWindow.cpp
; File C:\Program Files (x86)\Microsoft Visual Studio\2019\Professional\VC\Tools\MSVC\14.29.30133\include\list
; File C:\Users\murat\Desktop\Siveps2-1-99-Project\source\client\Client\eterPythonLib\PythonGridSlotWindow.cpp
; File C:\Program Files (x86)\Microsoft Visual Studio\2019\Professional\VC\Tools\MSVC\14.29.30133\include\list
; File C:\Program Files (x86)\Microsoft Visual Studio\2019\Professional\VC\Tools\MSVC\14.29.30133\include\xmemory
; File C:\Program Files (x86)\Microsoft Visual Studio\2019\Professional\VC\Tools\MSVC\14.29.30133\include\list
; File C:\Program Files (x86)\Microsoft Visual Studio\2019\Professional\VC\Tools\MSVC\14.29.30133\include\xmemory
; File C:\Users\murat\Desktop\Siveps2-1-99-Project\source\client\Client\eterPythonLib\PythonGridSlotWindow.cpp
;	COMDAT ?OnRenderPickingSlot@CGridSlotWindow@UI@@MAEXXZ
_TEXT	SEGMENT
_SlotList$ = -48					; size = 8
tv1010 = -40						; size = 4
tv1007 = -36						; size = 4
_Rect$1$sroa$576$1$ = -32				; size = 4
$T3 = -28						; size = 4
$T4 = -24						; size = 4
_Rect$1$sroa$577$1$ = -20				; size = 4
_pCenterSlot$5 = -20					; size = 4
_byWidth$ = -14						; size = 1
_byHeight$ = -13					; size = 1
__$EHRec$ = -12						; size = 12
?OnRenderPickingSlot@CGridSlotWindow@UI@@MAEXXZ PROC	; UI::CGridSlotWindow::OnRenderPickingSlot, COMDAT
; _this$ = ecx

; 8    : {

  00000	55		 push	 ebp
  00001	8b ec		 mov	 ebp, esp
  00003	6a ff		 push	 -1
  00005	68 00 00 00 00	 push	 __ehhandler$?OnRenderPickingSlot@CGridSlotWindow@UI@@MAEXXZ
  0000a	64 a1 00 00 00
	00		 mov	 eax, DWORD PTR fs:0
  00010	50		 push	 eax
  00011	83 ec 24	 sub	 esp, 36			; 00000024H
  00014	53		 push	 ebx
  00015	56		 push	 esi
  00016	57		 push	 edi
  00017	a1 00 00 00 00	 mov	 eax, DWORD PTR ___security_cookie
  0001c	33 c5		 xor	 eax, ebp
  0001e	50		 push	 eax
  0001f	8d 45 f4	 lea	 eax, DWORD PTR __$EHRec$[ebp]
  00022	64 a3 00 00 00
	00		 mov	 DWORD PTR fs:0, eax
  00028	8b f9		 mov	 edi, ecx

; 9    : 	if (!UI::CWindowManager::Instance().IsAttaching())

  0002a	8b 0d 00 00 00
	00		 mov	 ecx, DWORD PTR ?ms_singleton@?$CSingleton@VCWindowManager@UI@@@@0PAVCWindowManager@UI@@A ; CSingleton<UI::CWindowManager>::ms_singleton
  00030	e8 00 00 00 00	 call	 ?IsAttaching@CWindowManager@UI@@QAEHXZ ; UI::CWindowManager::IsAttaching
  00035	85 c0		 test	 eax, eax
  00037	0f 84 99 02 00
	00		 je	 $LN183@OnRenderPi

; 10   : 		return;
; 11   : 
; 12   : 	BYTE byWidth, byHeight;
; 13   : 	UI::CWindowManager::Instance().GetAttachingIconSize(&byWidth, &byHeight);

  0003d	8b 0d 00 00 00
	00		 mov	 ecx, DWORD PTR ?ms_singleton@?$CSingleton@VCWindowManager@UI@@@@0PAVCWindowManager@UI@@A ; CSingleton<UI::CWindowManager>::ms_singleton
  00043	8d 45 f3	 lea	 eax, DWORD PTR _byHeight$[ebp]
  00046	50		 push	 eax
  00047	8d 45 f2	 lea	 eax, DWORD PTR _byWidth$[ebp]
  0004a	50		 push	 eax
  0004b	e8 00 00 00 00	 call	 ?GetAttachingIconSize@CWindowManager@UI@@QAEXPAE0@Z ; UI::CWindowManager::GetAttachingIconSize
; File C:\Program Files (x86)\Microsoft Visual Studio\2019\Professional\VC\Tools\MSVC\14.29.30133\include\xmemory

; 85   :         return ::operator new(_Bytes);

  00050	6a 0c		 push	 12			; 0000000cH
; File C:\Program Files (x86)\Microsoft Visual Studio\2019\Professional\VC\Tools\MSVC\14.29.30133\include\list

; 358  :     _List_val() noexcept : _Myhead(), _Mysize(0) {} // initialize data

  00052	c7 45 d0 00 00
	00 00		 mov	 DWORD PTR _SlotList$[ebp], 0
  00059	c7 45 d4 00 00
	00 00		 mov	 DWORD PTR _SlotList$[ebp+4], 0
; File C:\Program Files (x86)\Microsoft Visual Studio\2019\Professional\VC\Tools\MSVC\14.29.30133\include\xmemory

; 85   :         return ::operator new(_Bytes);

  00060	e8 00 00 00 00	 call	 ??2@YAPAXI@Z		; operator new
  00065	83 c4 04	 add	 esp, 4
; File C:\Program Files (x86)\Microsoft Visual Studio\2019\Professional\VC\Tools\MSVC\14.29.30133\include\list

; 1776 :         _Construct_in_place(_Newhead->_Next, _Newhead);

  00068	89 00		 mov	 DWORD PTR [eax], eax

; 1777 :         _Construct_in_place(_Newhead->_Prev, _Newhead);

  0006a	89 40 04	 mov	 DWORD PTR [eax+4], eax

; 1778 :         _Mypair._Myval2._Myhead = _Newhead;

  0006d	89 45 d0	 mov	 DWORD PTR _SlotList$[ebp], eax
; File C:\Users\murat\Desktop\Siveps2-1-99-Project\source\client\Client\eterPythonLib\PythonGridSlotWindow.cpp

; 16   : 	if (GetPickedSlotList(byWidth, byHeight, &SlotList))

  00070	8d 45 d0	 lea	 eax, DWORD PTR _SlotList$[ebp]
  00073	c7 45 fc 00 00
	00 00		 mov	 DWORD PTR __$EHRec$[ebp+8], 0
  0007a	50		 push	 eax
  0007b	0f b6 45 f3	 movzx	 eax, BYTE PTR _byHeight$[ebp]
  0007f	8b cf		 mov	 ecx, edi
  00081	50		 push	 eax
  00082	0f b6 45 f2	 movzx	 eax, BYTE PTR _byWidth$[ebp]
  00086	50		 push	 eax
  00087	e8 00 00 00 00	 call	 ?GetPickedSlotList@CGridSlotWindow@UI@@IAEHHHPAV?$list@PAUSSlot@CSlotWindow@UI@@V?$allocator@PAUSSlot@CSlotWindow@UI@@@std@@@std@@@Z ; UI::CGridSlotWindow::GetPickedSlotList
  0008c	85 c0		 test	 eax, eax
  0008e	0f 84 10 02 00
	00		 je	 $LN6@OnRenderPi

; 17   : 	{
; 18   : 		DWORD dwSlotNumber = UI::CWindowManager::Instance().GetAttachingSlotNumber();

  00094	8b 0d 00 00 00
	00		 mov	 ecx, DWORD PTR ?ms_singleton@?$CSingleton@VCWindowManager@UI@@@@0PAVCWindowManager@UI@@A ; CSingleton<UI::CWindowManager>::ms_singleton
  0009a	e8 00 00 00 00	 call	 ?GetAttachingSlotNumber@CWindowManager@UI@@QAEKXZ ; UI::CWindowManager::GetAttachingSlotNumber

; 19   : 		DWORD dwItemIndex = UI::CWindowManager::Instance().GetAttachingIndex();

  0009f	8b 0d 00 00 00
	00		 mov	 ecx, DWORD PTR ?ms_singleton@?$CSingleton@VCWindowManager@UI@@@@0PAVCWindowManager@UI@@A ; CSingleton<UI::CWindowManager>::ms_singleton
  000a5	8b f0		 mov	 esi, eax
  000a7	e8 00 00 00 00	 call	 ?GetAttachingIndex@CWindowManager@UI@@QAEKXZ ; UI::CWindowManager::GetAttachingIndex

; 20   : 
; 21   : 		// UseMode ..
; 22   : 		if (m_isUseMode)

  000ac	83 bf 98 00 00
	00 00		 cmp	 DWORD PTR [edi+152], 0
  000b3	8b d8		 mov	 ebx, eax
  000b5	0f 84 d1 00 00
	00		 je	 $LN9@OnRenderPi
; File C:\Program Files (x86)\Microsoft Visual Studio\2019\Professional\VC\Tools\MSVC\14.29.30133\include\list

; 39   :     _List_unchecked_const_iterator(_Nodeptr _Pnode, const _Mylist* _Plist) noexcept : _Ptr(_Pnode) {

  000bb	8b 4d d0	 mov	 ecx, DWORD PTR _SlotList$[ebp]
; File C:\Users\murat\Desktop\Siveps2-1-99-Project\source\client\Client\eterPythonLib\PythonGridSlotWindow.cpp

; 27   : 			if (GetSlotPointer(pSlot->dwCenterSlotNumber, &pCenterSlot))

  000be	8d 45 ec	 lea	 eax, DWORD PTR _pCenterSlot$5[ebp]
  000c1	50		 push	 eax
; File C:\Program Files (x86)\Microsoft Visual Studio\2019\Professional\VC\Tools\MSVC\14.29.30133\include\list

; 39   :     _List_unchecked_const_iterator(_Nodeptr _Pnode, const _Mylist* _Plist) noexcept : _Ptr(_Pnode) {

  000c2	8b 09		 mov	 ecx, DWORD PTR [ecx]
; File C:\Users\murat\Desktop\Siveps2-1-99-Project\source\client\Client\eterPythonLib\PythonGridSlotWindow.cpp

; 25   : 			TSlot * pSlot = *SlotList.begin();

  000c4	8b 49 08	 mov	 ecx, DWORD PTR [ecx+8]

; 27   : 			if (GetSlotPointer(pSlot->dwCenterSlotNumber, &pCenterSlot))

  000c7	ff 71 08	 push	 DWORD PTR [ecx+8]
  000ca	8b cf		 mov	 ecx, edi
  000cc	e8 00 00 00 00	 call	 ?GetSlotPointer@CSlotWindow@UI@@IAEHKPAPAUSSlot@12@@Z ; UI::CSlotWindow::GetSlotPointer
  000d1	85 c0		 test	 eax, eax
  000d3	0f 84 b3 00 00
	00		 je	 $LN9@OnRenderPi

; 28   : 			if (pCenterSlot->isItem)

  000d9	8b 45 ec	 mov	 eax, DWORD PTR _pCenterSlot$5[ebp]
  000dc	83 78 10 00	 cmp	 DWORD PTR [eax+16], 0
  000e0	0f 84 a6 00 00
	00		 je	 $LN9@OnRenderPi

; 29   : 			{
; 30   : 				if (m_isUsableItem)

  000e6	8b 0d 00 00 00
	00		 mov	 ecx, DWORD PTR ?ms_singleton@?$CSingleton@VCPythonGraphic@@@@0PAVCPythonGraphic@@A ; CSingleton<CPythonGraphic>::ms_singleton
  000ec	83 ec 10	 sub	 esp, 16			; 00000010H
  000ef	83 bf 9c 00 00
	00 00		 cmp	 DWORD PTR [edi+156], 0
  000f6	c7 44 24 0c 00
	00 00 3f	 mov	 DWORD PTR [esp+12], 1056964608 ; 3f000000H
  000fe	c7 44 24 08 00
	00 00 00	 mov	 DWORD PTR [esp+8], 0
  00106	74 0a		 je	 SHORT $LN10@OnRenderPi

; 31   : 					CPythonGraphic::Instance().SetDiffuseColor(1.0f, 1.0f, 0.0f, 0.5f);

  00108	c7 44 24 04 00
	00 80 3f	 mov	 DWORD PTR [esp+4], 1065353216 ; 3f800000H
  00110	eb 08		 jmp	 SHORT $LN209@OnRenderPi
$LN10@OnRenderPi:

; 32   : 				else
; 33   : 					CPythonGraphic::Instance().SetDiffuseColor(1.0f, 0.0f, 0.0f, 0.5f);

  00112	c7 44 24 04 00
	00 00 00	 mov	 DWORD PTR [esp+4], 0
$LN209@OnRenderPi:

; 34   : 
; 35   : 				CPythonGraphic::Instance().RenderBar2d(	m_rect.left + pCenterSlot->ixPosition,

  0011a	c7 04 24 00 00
	80 3f		 mov	 DWORD PTR [esp], 1065353216 ; 3f800000H
  00121	e8 00 00 00 00	 call	 ?SetDiffuseColor@CScreen@@QAEXMMMM@Z ; CScreen::SetDiffuseColor
  00126	8b 4d ec	 mov	 ecx, DWORD PTR _pCenterSlot$5[ebp]
  00129	83 ec 14	 sub	 esp, 20			; 00000014H
  0012c	8b 57 38	 mov	 edx, DWORD PTR [edi+56]
  0012f	8b 7f 34	 mov	 edi, DWORD PTR [edi+52]
  00132	0f b6 41 35	 movzx	 eax, BYTE PTR [ecx+53]
  00136	8b 71 28	 mov	 esi, DWORD PTR [ecx+40]
  00139	8b 59 24	 mov	 ebx, DWORD PTR [ecx+36]
  0013c	c1 e0 05	 shl	 eax, 5
  0013f	03 c2		 add	 eax, edx
  00141	c7 44 24 10 00
	00 00 00	 mov	 DWORD PTR [esp+16], 0
  00149	03 c6		 add	 eax, esi
  0014b	66 0f 6e c0	 movd	 xmm0, eax
  0014f	0f b6 41 34	 movzx	 eax, BYTE PTR [ecx+52]
  00153	0f 5b c0	 cvtdq2ps xmm0, xmm0
  00156	c1 e0 05	 shl	 eax, 5
  00159	03 c7		 add	 eax, edi
  0015b	03 c3		 add	 eax, ebx
  0015d	f3 0f 11 44 24
	0c		 movss	 DWORD PTR [esp+12], xmm0
  00163	66 0f 6e c0	 movd	 xmm0, eax
  00167	8d 04 32	 lea	 eax, DWORD PTR [edx+esi]
  0016a	0f 5b c0	 cvtdq2ps xmm0, xmm0
  0016d	f3 0f 11 44 24
	08		 movss	 DWORD PTR [esp+8], xmm0
  00173	66 0f 6e c0	 movd	 xmm0, eax
  00177	8d 04 1f	 lea	 eax, DWORD PTR [edi+ebx]
  0017a	0f 5b c0	 cvtdq2ps xmm0, xmm0
  0017d	f3 0f 11 44 24
	04		 movss	 DWORD PTR [esp+4], xmm0
  00183	66 0f 6e c0	 movd	 xmm0, eax
  00187	e9 05 01 00 00	 jmp	 $LN210@OnRenderPi
$LN9@OnRenderPi:

; 36   : 														m_rect.top + pCenterSlot->iyPosition,
; 37   : 														m_rect.left + pCenterSlot->ixPosition + pCenterSlot->byxPlacedItemSize * ITEM_WIDTH,
; 38   : 														m_rect.top + pCenterSlot->iyPosition + pCenterSlot->byyPlacedItemSize * ITEM_HEIGHT);
; 39   : 				return;
; 40   : 			}
; 41   : 		}
; 42   : 
; 43   : 		//   
; 44   : 		if (CheckMoving(dwSlotNumber, dwItemIndex, SlotList))

  0018c	8d 45 d0	 lea	 eax, DWORD PTR _SlotList$[ebp]
  0018f	8b cf		 mov	 ecx, edi
  00191	50		 push	 eax
  00192	53		 push	 ebx
  00193	56		 push	 esi
  00194	e8 00 00 00 00	 call	 ?CheckMoving@CGridSlotWindow@UI@@IAEHKKABV?$list@PAUSSlot@CSlotWindow@UI@@V?$allocator@PAUSSlot@CSlotWindow@UI@@@std@@@std@@@Z ; UI::CGridSlotWindow::CheckMoving
  00199	8b 0d 00 00 00
	00		 mov	 ecx, DWORD PTR ?ms_singleton@?$CSingleton@VCPythonGraphic@@@@0PAVCPythonGraphic@@A ; CSingleton<CPythonGraphic>::ms_singleton
  0019f	83 ec 10	 sub	 esp, 16			; 00000010H
  001a2	c7 44 24 0c 00
	00 00 3f	 mov	 DWORD PTR [esp+12], 1056964608 ; 3f000000H
  001aa	85 c0		 test	 eax, eax
  001ac	74 12		 je	 SHORT $LN12@OnRenderPi

; 45   : 			CPythonGraphic::Instance().SetDiffuseColor(1.0f, 1.0f, 1.0f, 0.5f);

  001ae	c7 44 24 08 00
	00 80 3f	 mov	 DWORD PTR [esp+8], 1065353216 ; 3f800000H
  001b6	c7 44 24 04 00
	00 80 3f	 mov	 DWORD PTR [esp+4], 1065353216 ; 3f800000H
  001be	eb 10		 jmp	 SHORT $LN211@OnRenderPi
$LN12@OnRenderPi:

; 46   : 		else
; 47   : 			CPythonGraphic::Instance().SetDiffuseColor(1.0f, 0.0f, 0.0f, 0.5f);

  001c0	c7 44 24 08 00
	00 00 00	 mov	 DWORD PTR [esp+8], 0
  001c8	c7 44 24 04 00
	00 00 00	 mov	 DWORD PTR [esp+4], 0
$LN211@OnRenderPi:

; 48   : 
; 49   : 		RECT Rect;
; 50   : 		Rect.left = m_rect.right;

  001d0	c7 04 24 00 00
	80 3f		 mov	 DWORD PTR [esp], 1065353216 ; 3f800000H
  001d7	e8 00 00 00 00	 call	 ?SetDiffuseColor@CScreen@@QAEXMMMM@Z ; CScreen::SetDiffuseColor
; File C:\Program Files (x86)\Microsoft Visual Studio\2019\Professional\VC\Tools\MSVC\14.29.30133\include\list

; 39   :     _List_unchecked_const_iterator(_Nodeptr _Pnode, const _Mylist* _Plist) noexcept : _Ptr(_Pnode) {

  001dc	8b 45 d0	 mov	 eax, DWORD PTR _SlotList$[ebp]
; File C:\Users\murat\Desktop\Siveps2-1-99-Project\source\client\Client\eterPythonLib\PythonGridSlotWindow.cpp

; 52   : 		Rect.right = 0;

  001df	33 f6		 xor	 esi, esi
  001e1	8b 4f 3c	 mov	 ecx, DWORD PTR [edi+60]

; 53   : 		Rect.bottom = 0;

  001e4	33 d2		 xor	 edx, edx
  001e6	8b 5f 40	 mov	 ebx, DWORD PTR [edi+64]
  001e9	89 4d ec	 mov	 DWORD PTR _Rect$1$sroa$577$1$[ebp], ecx
; File C:\Program Files (x86)\Microsoft Visual Studio\2019\Professional\VC\Tools\MSVC\14.29.30133\include\list

; 39   :     _List_unchecked_const_iterator(_Nodeptr _Pnode, const _Mylist* _Plist) noexcept : _Ptr(_Pnode) {

  001ec	8b 00		 mov	 eax, DWORD PTR [eax]

; 201  :         return this->_Ptr == _Right._Ptr;

  001ee	3b 45 d0	 cmp	 eax, DWORD PTR _SlotList$[ebp]
; File C:\Users\murat\Desktop\Siveps2-1-99-Project\source\client\Client\eterPythonLib\PythonGridSlotWindow.cpp

; 55   : 		for (std::list<TSlot*>::iterator itor = SlotList.begin(); itor != SlotList.end(); ++itor)

  001f1	74 68		 je	 SHORT $LN3@OnRenderPi

; 58   : 			Rect.left = min(Rect.left, m_rect.left + pSlot->ixPosition);

  001f3	8b 4f 34	 mov	 ecx, DWORD PTR [edi+52]
  001f6	89 4d e8	 mov	 DWORD PTR $T4[ebp], ecx

; 59   : 			Rect.top = min(Rect.top, m_rect.top + pSlot->iyPosition);

  001f9	8b 4f 38	 mov	 ecx, DWORD PTR [edi+56]
  001fc	89 4d e4	 mov	 DWORD PTR $T3[ebp], ecx
  001ff	8b 4d ec	 mov	 ecx, DWORD PTR _Rect$1$sroa$577$1$[ebp]
$LL126@OnRenderPi:
; File C:\Program Files (x86)\Microsoft Visual Studio\2019\Professional\VC\Tools\MSVC\14.29.30133\include\list

; 154  :         return this->_Ptr->_Myval;

  00202	89 55 d8	 mov	 DWORD PTR tv1010[ebp], edx
; File C:\Users\murat\Desktop\Siveps2-1-99-Project\source\client\Client\eterPythonLib\PythonGridSlotWindow.cpp

; 57   : 			TSlot * pSlot = *itor;

  00205	8b 50 08	 mov	 edx, DWORD PTR [eax+8]
; File C:\Program Files (x86)\Microsoft Visual Studio\2019\Professional\VC\Tools\MSVC\14.29.30133\include\list

; 154  :         return this->_Ptr->_Myval;

  00208	89 75 dc	 mov	 DWORD PTR tv1007[ebp], esi
  0020b	8b f3		 mov	 esi, ebx
; File C:\Users\murat\Desktop\Siveps2-1-99-Project\source\client\Client\eterPythonLib\PythonGridSlotWindow.cpp

; 58   : 			Rect.left = min(Rect.left, m_rect.left + pSlot->ixPosition);

  0020d	8b 5d e8	 mov	 ebx, DWORD PTR $T4[ebp]
; File C:\Program Files (x86)\Microsoft Visual Studio\2019\Professional\VC\Tools\MSVC\14.29.30133\include\list

; 168  :         this->_Ptr = this->_Ptr->_Next;

  00210	8b 00		 mov	 eax, DWORD PTR [eax]
; File C:\Users\murat\Desktop\Siveps2-1-99-Project\source\client\Client\eterPythonLib\PythonGridSlotWindow.cpp

; 58   : 			Rect.left = min(Rect.left, m_rect.left + pSlot->ixPosition);

  00212	8b 7a 24	 mov	 edi, DWORD PTR [edx+36]
  00215	03 df		 add	 ebx, edi

; 59   : 			Rect.top = min(Rect.top, m_rect.top + pSlot->iyPosition);

  00217	3b cb		 cmp	 ecx, ebx
  00219	0f 4c d9	 cmovl	 ebx, ecx
  0021c	8b 4d e4	 mov	 ecx, DWORD PTR $T3[ebp]
  0021f	89 5d ec	 mov	 DWORD PTR _Rect$1$sroa$577$1$[ebp], ebx
  00222	8b 5a 28	 mov	 ebx, DWORD PTR [edx+40]
  00225	03 cb		 add	 ecx, ebx

; 60   : 			Rect.right = max(Rect.right, m_rect.left + pSlot->ixPosition + pSlot->byxPlacedItemSize*ITEM_WIDTH);

  00227	3b f1		 cmp	 esi, ecx
  00229	0f 4c ce	 cmovl	 ecx, esi
  0022c	89 4d e0	 mov	 DWORD PTR _Rect$1$sroa$576$1$[ebp], ecx
  0022f	0f b6 4a 34	 movzx	 ecx, BYTE PTR [edx+52]
  00233	c1 e1 05	 shl	 ecx, 5
  00236	8d 34 39	 lea	 esi, DWORD PTR [ecx+edi]
  00239	03 75 e8	 add	 esi, DWORD PTR $T4[ebp]

; 61   : 			Rect.bottom = max(Rect.bottom, m_rect.top + pSlot->iyPosition + pSlot->byxPlacedItemSize*ITEM_HEIGHT);

  0023c	8d 14 19	 lea	 edx, DWORD PTR [ecx+ebx]
  0023f	39 75 dc	 cmp	 DWORD PTR tv1007[ebp], esi
  00242	8b 4d ec	 mov	 ecx, DWORD PTR _Rect$1$sroa$577$1$[ebp]
  00245	0f 4f 75 dc	 cmovg	 esi, DWORD PTR tv1007[ebp]
  00249	03 55 e4	 add	 edx, DWORD PTR $T3[ebp]
; File C:\Program Files (x86)\Microsoft Visual Studio\2019\Professional\VC\Tools\MSVC\14.29.30133\include\list

; 168  :         this->_Ptr = this->_Ptr->_Next;

  0024c	39 55 d8	 cmp	 DWORD PTR tv1010[ebp], edx
; File C:\Users\murat\Desktop\Siveps2-1-99-Project\source\client\Client\eterPythonLib\PythonGridSlotWindow.cpp

; 55   : 		for (std::list<TSlot*>::iterator itor = SlotList.begin(); itor != SlotList.end(); ++itor)

  0024f	8b 5d e0	 mov	 ebx, DWORD PTR _Rect$1$sroa$576$1$[ebp]
; File C:\Program Files (x86)\Microsoft Visual Studio\2019\Professional\VC\Tools\MSVC\14.29.30133\include\list

; 168  :         this->_Ptr = this->_Ptr->_Next;

  00252	0f 4f 55 d8	 cmovg	 edx, DWORD PTR tv1010[ebp]

; 201  :         return this->_Ptr == _Right._Ptr;

  00256	3b 45 d0	 cmp	 eax, DWORD PTR _SlotList$[ebp]
; File C:\Users\murat\Desktop\Siveps2-1-99-Project\source\client\Client\eterPythonLib\PythonGridSlotWindow.cpp

; 55   : 		for (std::list<TSlot*>::iterator itor = SlotList.begin(); itor != SlotList.end(); ++itor)

  00259	75 a7		 jne	 SHORT $LL126@OnRenderPi
$LN3@OnRenderPi:

; 62   : 		}
; 63   : 
; 64   : 		CPythonGraphic::Instance().RenderBar2d(Rect.left, Rect.top, Rect.right, Rect.bottom);

  0025b	83 ec 14	 sub	 esp, 20			; 00000014H
  0025e	66 0f 6e c2	 movd	 xmm0, edx
  00262	0f 5b c0	 cvtdq2ps xmm0, xmm0
  00265	c7 44 24 10 00
	00 00 00	 mov	 DWORD PTR [esp+16], 0
  0026d	f3 0f 11 44 24
	0c		 movss	 DWORD PTR [esp+12], xmm0
  00273	66 0f 6e c6	 movd	 xmm0, esi
  00277	0f 5b c0	 cvtdq2ps xmm0, xmm0
  0027a	f3 0f 11 44 24
	08		 movss	 DWORD PTR [esp+8], xmm0
  00280	66 0f 6e c3	 movd	 xmm0, ebx
  00284	0f 5b c0	 cvtdq2ps xmm0, xmm0
  00287	f3 0f 11 44 24
	04		 movss	 DWORD PTR [esp+4], xmm0
  0028d	66 0f 6e c1	 movd	 xmm0, ecx
$LN210@OnRenderPi:
; File C:\Program Files (x86)\Microsoft Visual Studio\2019\Professional\VC\Tools\MSVC\14.29.30133\include\list

; 1440 :         _Node::_Free_non_head(_Al, _My_data._Myhead);

  00291	8b 0d 00 00 00
	00		 mov	 ecx, DWORD PTR ?ms_singleton@?$CSingleton@VCPythonGraphic@@@@0PAVCPythonGraphic@@A ; CSingleton<CPythonGraphic>::ms_singleton
  00297	0f 5b c0	 cvtdq2ps xmm0, xmm0
  0029a	f3 0f 11 04 24	 movss	 DWORD PTR [esp], xmm0
  0029f	e8 00 00 00 00	 call	 ?RenderBar2d@CScreen@@QAEXMMMMM@Z ; CScreen::RenderBar2d
$LN6@OnRenderPi:
  002a4	8b 4d d0	 mov	 ecx, DWORD PTR _SlotList$[ebp]

; 328  :         _Head->_Prev->_Next = nullptr;

  002a7	8b 41 04	 mov	 eax, DWORD PTR [ecx+4]
  002aa	c7 00 00 00 00
	00		 mov	 DWORD PTR [eax], 0

; 329  : 
; 330  :         auto _Pnode = _Head->_Next;

  002b0	8b 01		 mov	 eax, DWORD PTR [ecx]

; 331  :         for (_Nodeptr _Pnext; _Pnode; _Pnode = _Pnext) {

  002b2	85 c0		 test	 eax, eax
  002b4	74 13		 je	 SHORT $LN149@OnRenderPi
$LL150@OnRenderPi:

; 332  :             _Pnext = _Pnode->_Next;

  002b6	8b 30		 mov	 esi, DWORD PTR [eax]
; File C:\Program Files (x86)\Microsoft Visual Studio\2019\Professional\VC\Tools\MSVC\14.29.30133\include\xmemory

; 264  :         ::operator delete(_Ptr, _Bytes);

  002b8	6a 0c		 push	 12			; 0000000cH
  002ba	50		 push	 eax
  002bb	e8 00 00 00 00	 call	 ??3@YAXPAXI@Z		; operator delete
  002c0	83 c4 08	 add	 esp, 8
; File C:\Program Files (x86)\Microsoft Visual Studio\2019\Professional\VC\Tools\MSVC\14.29.30133\include\list

; 331  :         for (_Nodeptr _Pnext; _Pnode; _Pnode = _Pnext) {

  002c3	8b c6		 mov	 eax, esi
  002c5	85 f6		 test	 esi, esi
  002c7	75 ed		 jne	 SHORT $LL150@OnRenderPi
$LN149@OnRenderPi:
; File C:\Program Files (x86)\Microsoft Visual Studio\2019\Professional\VC\Tools\MSVC\14.29.30133\include\xmemory

; 264  :         ::operator delete(_Ptr, _Bytes);

  002c9	6a 0c		 push	 12			; 0000000cH
  002cb	ff 75 d0	 push	 DWORD PTR _SlotList$[ebp]
  002ce	e8 00 00 00 00	 call	 ??3@YAXPAXI@Z		; operator delete
  002d3	83 c4 08	 add	 esp, 8
$LN183@OnRenderPi:
; File C:\Users\murat\Desktop\Siveps2-1-99-Project\source\client\Client\eterPythonLib\PythonGridSlotWindow.cpp

; 66   : }

  002d6	8b 4d f4	 mov	 ecx, DWORD PTR __$EHRec$[ebp]
  002d9	64 89 0d 00 00
	00 00		 mov	 DWORD PTR fs:0, ecx
  002e0	59		 pop	 ecx
  002e1	5f		 pop	 edi
  002e2	5e		 pop	 esi
  002e3	5b		 pop	 ebx
  002e4	8b e5		 mov	 esp, ebp
  002e6	5d		 pop	 ebp
  002e7	c3		 ret	 0
_TEXT	ENDS
;	COMDAT text$x
text$x	SEGMENT
__unwindfunclet$?OnRenderPickingSlot@CGridSlotWindow@UI@@MAEXXZ$0:
  00000	8d 4d d0	 lea	 ecx, DWORD PTR _SlotList$[ebp]
  00003	e9 00 00 00 00	 jmp	 ??1?$list@PAUSSlot@CSlotWindow@UI@@V?$allocator@PAUSSlot@CSlotWindow@UI@@@std@@@std@@QAE@XZ ; std::list<UI::CSlotWindow::SSlot *,std::allocator<UI::CSlotWindow::SSlot *> >::~list<UI::CSlotWindow::SSlot *,std::allocator<UI::CSlotWindow::SSlot *> >
  00008	cc		 int	 3
  00009	cc		 int	 3
  0000a	cc		 int	 3
  0000b	cc		 int	 3
  0000c	cc		 int	 3
__ehhandler$?OnRenderPickingSlot@CGridSlotWindow@UI@@MAEXXZ:
  0000d	90		 npad	 1
  0000e	90		 npad	 1
  0000f	8b 54 24 08	 mov	 edx, DWORD PTR [esp+8]
  00013	8d 42 0c	 lea	 eax, DWORD PTR [edx+12]
  00016	8b 4a cc	 mov	 ecx, DWORD PTR [edx-52]
  00019	33 c8		 xor	 ecx, eax
  0001b	e8 00 00 00 00	 call	 @__security_check_cookie@4
  00020	b8 00 00 00 00	 mov	 eax, OFFSET __ehfuncinfo$?OnRenderPickingSlot@CGridSlotWindow@UI@@MAEXXZ
  00025	e9 00 00 00 00	 jmp	 ___CxxFrameHandler3
text$x	ENDS
?OnRenderPickingSlot@CGridSlotWindow@UI@@MAEXXZ ENDP	; UI::CGridSlotWindow::OnRenderPickingSlot
; Function compile flags: /Ogtp
; File C:\Users\murat\Desktop\Siveps2-1-99-Project\source\client\Client\eterPythonLib\PythonGridSlotWindow.cpp
;	COMDAT ?OnRefreshSlot@CGridSlotWindow@UI@@MAEXXZ
_TEXT	SEGMENT
_pSubSlot$1 = -20					; size = 4
_pSlot$2 = -16						; size = 4
_x$2$ = -12						; size = 4
_pSlot$3 = -12						; size = 4
_y$2$ = -8						; size = 4
_this$1$ = -4						; size = 4
?OnRefreshSlot@CGridSlotWindow@UI@@MAEXXZ PROC		; UI::CGridSlotWindow::OnRefreshSlot, COMDAT
; _this$ = ecx

; 303  : {

  00000	55		 push	 ebp
  00001	8b ec		 mov	 ebp, esp
  00003	83 ec 14	 sub	 esp, 20			; 00000014H
  00006	53		 push	 ebx
  00007	8b d9		 mov	 ebx, ecx
  00009	56		 push	 esi
  0000a	57		 push	 edi

; 304  : 	DWORD x, y;
; 305  : 
; 306  : 	for (x = 0; x < m_dwxCount; ++x)

  0000b	33 ff		 xor	 edi, edi
  0000d	89 5d fc	 mov	 DWORD PTR _this$1$[ebp], ebx
  00010	8b 83 c8 00 00
	00		 mov	 eax, DWORD PTR [ebx+200]
  00016	85 c0		 test	 eax, eax
  00018	74 44		 je	 SHORT $LN54@OnRefreshS
  0001a	66 0f 1f 44 00
	00		 npad	 6
$LL4@OnRefreshS:

; 307  : 	for (y = 0; y < m_dwyCount; ++y)

  00020	33 f6		 xor	 esi, esi
  00022	39 b3 cc 00 00
	00		 cmp	 DWORD PTR [ebx+204], esi
  00028	76 29		 jbe	 SHORT $LN2@OnRefreshS
  0002a	66 0f 1f 44 00
	00		 npad	 6
$LL7@OnRefreshS:

; 308  : 	{
; 309  : 		TSlot * pSlot;
; 310  : 		if (!GetGridSlotPointer(x, y, &pSlot))

  00030	8d 45 f4	 lea	 eax, DWORD PTR _pSlot$3[ebp]
  00033	8b cb		 mov	 ecx, ebx
  00035	50		 push	 eax
  00036	56		 push	 esi
  00037	57		 push	 edi
  00038	e8 00 00 00 00	 call	 ?GetGridSlotPointer@CGridSlotWindow@UI@@IAEHHHPAPAUSSlot@CSlotWindow@2@@Z ; UI::CGridSlotWindow::GetGridSlotPointer
  0003d	85 c0		 test	 eax, eax
  0003f	74 09		 je	 SHORT $LN5@OnRefreshS

; 311  : 			continue;
; 312  : 
; 313  : 		pSlot->dwCenterSlotNumber = pSlot->dwSlotNumber;

  00041	8b 4d f4	 mov	 ecx, DWORD PTR _pSlot$3[ebp]
  00044	8b 41 04	 mov	 eax, DWORD PTR [ecx+4]
  00047	89 41 08	 mov	 DWORD PTR [ecx+8], eax
$LN5@OnRefreshS:

; 307  : 	for (y = 0; y < m_dwyCount; ++y)

  0004a	46		 inc	 esi
  0004b	3b b3 cc 00 00
	00		 cmp	 esi, DWORD PTR [ebx+204]
  00051	72 dd		 jb	 SHORT $LL7@OnRefreshS
$LN2@OnRefreshS:

; 304  : 	DWORD x, y;
; 305  : 
; 306  : 	for (x = 0; x < m_dwxCount; ++x)

  00053	8b 83 c8 00 00
	00		 mov	 eax, DWORD PTR [ebx+200]
  00059	47		 inc	 edi
  0005a	3b f8		 cmp	 edi, eax
  0005c	72 c2		 jb	 SHORT $LL4@OnRefreshS
$LN54@OnRefreshS:

; 314  : 	}
; 315  : 
; 316  : 	for (x = 0; x < m_dwxCount; ++x)

  0005e	33 f6		 xor	 esi, esi
  00060	89 75 f4	 mov	 DWORD PTR _x$2$[ebp], esi
  00063	85 c0		 test	 eax, eax
  00065	0f 84 ab 00 00
	00		 je	 $LN9@OnRefreshS
  0006b	0f 1f 44 00 00	 npad	 5
$LL10@OnRefreshS:

; 317  : 	for (y = 0; y < m_dwyCount; ++y)

  00070	33 c0		 xor	 eax, eax
  00072	89 45 f8	 mov	 DWORD PTR _y$2$[ebp], eax
  00075	39 83 cc 00 00
	00		 cmp	 DWORD PTR [ebx+204], eax
  0007b	0f 86 85 00 00
	00		 jbe	 $LN8@OnRefreshS
$LL13@OnRefreshS:

; 318  : 	{
; 319  : 		TSlot * pSlot;
; 320  : 		if (!GetGridSlotPointer(x, y, &pSlot))

  00081	8d 4d f0	 lea	 ecx, DWORD PTR _pSlot$2[ebp]
  00084	51		 push	 ecx
  00085	50		 push	 eax
  00086	56		 push	 esi
  00087	8b cb		 mov	 ecx, ebx
  00089	e8 00 00 00 00	 call	 ?GetGridSlotPointer@CGridSlotWindow@UI@@IAEHHHPAPAUSSlot@CSlotWindow@2@@Z ; UI::CGridSlotWindow::GetGridSlotPointer
  0008e	85 c0		 test	 eax, eax
  00090	74 61		 je	 SHORT $LN11@OnRefreshS

; 321  : 			continue;
; 322  : 
; 323  : 		if (pSlot->isItem)

  00092	8b 7d f0	 mov	 edi, DWORD PTR _pSlot$2[ebp]
  00095	83 7f 10 00	 cmp	 DWORD PTR [edi+16], 0
  00099	0f 84 7e 00 00
	00		 je	 $LN22@OnRefreshS

; 324  : 		{
; 325  : 			for (DWORD xSub = 0; xSub < pSlot->byxPlacedItemSize; ++xSub)

  0009f	33 db		 xor	 ebx, ebx
  000a1	38 5f 34	 cmp	 BYTE PTR [edi+52], bl
  000a4	76 4a		 jbe	 SHORT $LN57@OnRefreshS
$LL16@OnRefreshS:

; 326  : 			for (DWORD ySub = 0; ySub < pSlot->byyPlacedItemSize; ++ySub)

  000a6	33 f6		 xor	 esi, esi
  000a8	80 7f 35 00	 cmp	 BYTE PTR [edi+53], 0
  000ac	76 36		 jbe	 SHORT $LN14@OnRefreshS
  000ae	66 90		 npad	 2
$LL19@OnRefreshS:

; 327  : 			{
; 328  : 				TSlot * pSubSlot;
; 329  : 				if (!GetGridSlotPointer(x+xSub, y+ySub, &pSubSlot))

  000b0	8b 4d fc	 mov	 ecx, DWORD PTR _this$1$[ebp]
  000b3	8d 45 ec	 lea	 eax, DWORD PTR _pSubSlot$1[ebp]
  000b6	50		 push	 eax
  000b7	8b 45 f8	 mov	 eax, DWORD PTR _y$2$[ebp]
  000ba	03 c6		 add	 eax, esi
  000bc	50		 push	 eax
  000bd	8b 45 f4	 mov	 eax, DWORD PTR _x$2$[ebp]
  000c0	03 c3		 add	 eax, ebx
  000c2	50		 push	 eax
  000c3	e8 00 00 00 00	 call	 ?GetGridSlotPointer@CGridSlotWindow@UI@@IAEHHHPAPAUSSlot@CSlotWindow@2@@Z ; UI::CGridSlotWindow::GetGridSlotPointer
  000c8	85 c0		 test	 eax, eax
  000ca	74 0f		 je	 SHORT $LN17@OnRefreshS

; 330  : 					continue;
; 331  : 
; 332  : 				pSubSlot->dwCenterSlotNumber = pSlot->dwSlotNumber;

  000cc	8b 4d ec	 mov	 ecx, DWORD PTR _pSubSlot$1[ebp]
  000cf	8b 47 04	 mov	 eax, DWORD PTR [edi+4]
  000d2	89 41 08	 mov	 DWORD PTR [ecx+8], eax

; 333  : 				pSubSlot->dwItemIndex = pSlot->dwItemIndex;

  000d5	8b 47 0c	 mov	 eax, DWORD PTR [edi+12]
  000d8	89 41 0c	 mov	 DWORD PTR [ecx+12], eax
$LN17@OnRefreshS:

; 326  : 			for (DWORD ySub = 0; ySub < pSlot->byyPlacedItemSize; ++ySub)

  000db	0f b6 47 35	 movzx	 eax, BYTE PTR [edi+53]
  000df	46		 inc	 esi
  000e0	3b f0		 cmp	 esi, eax
  000e2	72 cc		 jb	 SHORT $LL19@OnRefreshS
$LN14@OnRefreshS:

; 324  : 		{
; 325  : 			for (DWORD xSub = 0; xSub < pSlot->byxPlacedItemSize; ++xSub)

  000e4	0f b6 47 34	 movzx	 eax, BYTE PTR [edi+52]
  000e8	43		 inc	 ebx
  000e9	3b d8		 cmp	 ebx, eax
  000eb	72 b9		 jb	 SHORT $LL16@OnRefreshS

; 334  : 			}
; 335  : 		}

  000ed	8b 75 f4	 mov	 esi, DWORD PTR _x$2$[ebp]
$LN57@OnRefreshS:

; 317  : 	for (y = 0; y < m_dwyCount; ++y)

  000f0	8b 5d fc	 mov	 ebx, DWORD PTR _this$1$[ebp]
$LN11@OnRefreshS:
  000f3	8b 45 f8	 mov	 eax, DWORD PTR _y$2$[ebp]
  000f6	40		 inc	 eax
  000f7	89 45 f8	 mov	 DWORD PTR _y$2$[ebp], eax
  000fa	3b 83 cc 00 00
	00		 cmp	 eax, DWORD PTR [ebx+204]
  00100	0f 82 7b ff ff
	ff		 jb	 $LL13@OnRefreshS
$LN8@OnRefreshS:

; 314  : 	}
; 315  : 
; 316  : 	for (x = 0; x < m_dwxCount; ++x)

  00106	46		 inc	 esi
  00107	89 75 f4	 mov	 DWORD PTR _x$2$[ebp], esi
  0010a	3b b3 c8 00 00
	00		 cmp	 esi, DWORD PTR [ebx+200]
  00110	0f 82 5a ff ff
	ff		 jb	 $LL10@OnRefreshS
$LN9@OnRefreshS:
  00116	5f		 pop	 edi

; 339  : 		}
; 340  : 	}
; 341  : }

  00117	5e		 pop	 esi
  00118	5b		 pop	 ebx
  00119	8b e5		 mov	 esp, ebp
  0011b	5d		 pop	 ebp
  0011c	c3		 ret	 0
$LN22@OnRefreshS:

; 336  : 		else
; 337  : 		{
; 338  : 			pSlot->dwItemIndex = 0;

  0011d	c7 47 0c 00 00
	00 00		 mov	 DWORD PTR [edi+12], 0
  00124	eb cd		 jmp	 SHORT $LN11@OnRefreshS
?OnRefreshSlot@CGridSlotWindow@UI@@MAEXXZ ENDP		; UI::CGridSlotWindow::OnRefreshSlot
_TEXT	ENDS
; Function compile flags: /Ogtp
; File C:\Users\murat\Desktop\Siveps2-1-99-Project\source\client\Client\eterPythonLib\PythonGridSlotWindow.cpp
;	COMDAT ?OnIsType@CGridSlotWindow@UI@@MAEHK@Z
_TEXT	SEGMENT
_dwType$ = 8						; size = 4
?OnIsType@CGridSlotWindow@UI@@MAEHK@Z PROC		; UI::CGridSlotWindow::OnIsType, COMDAT
; _this$ = ecx

; 387  : {

  00000	55		 push	 ebp
  00001	8b ec		 mov	 ebp, esp
  00003	56		 push	 esi
  00004	8b f1		 mov	 esi, ecx

; 388  : 	if (CGridSlotWindow::Type() == dwType)

  00006	e8 00 00 00 00	 call	 ?Type@CGridSlotWindow@UI@@SAKXZ ; UI::CGridSlotWindow::Type
  0000b	8b 55 08	 mov	 edx, DWORD PTR _dwType$[ebp]
  0000e	3b c2		 cmp	 eax, edx
  00010	75 0a		 jne	 SHORT $LN2@OnIsType

; 389  : 		return TRUE;

  00012	b8 01 00 00 00	 mov	 eax, 1
  00017	5e		 pop	 esi

; 392  : }

  00018	5d		 pop	 ebp
  00019	c2 04 00	 ret	 4
$LN2@OnIsType:

; 390  : 
; 391  : 	return CSlotWindow::OnIsType(dwType);

  0001c	52		 push	 edx
  0001d	8b ce		 mov	 ecx, esi
  0001f	e8 00 00 00 00	 call	 ?OnIsType@CSlotWindow@UI@@MAEHK@Z ; UI::CSlotWindow::OnIsType
  00024	5e		 pop	 esi

; 392  : }

  00025	5d		 pop	 ebp
  00026	c2 04 00	 ret	 4
?OnIsType@CGridSlotWindow@UI@@MAEHK@Z ENDP		; UI::CGridSlotWindow::OnIsType
_TEXT	ENDS
; Function compile flags: /Ogtp
; File C:\Users\murat\Desktop\Siveps2-1-99-Project\source\client\Client\eterPythonLib\PythonGridSlotWindow.cpp
; File C:\Program Files (x86)\Microsoft Visual Studio\2019\Professional\VC\Tools\MSVC\14.29.30133\include\list
; File C:\Users\murat\Desktop\Siveps2-1-99-Project\source\client\Client\eterPythonLib\PythonGridSlotWindow.cpp
; File C:\Program Files (x86)\Microsoft Visual Studio\2019\Professional\VC\Tools\MSVC\14.29.30133\include\list
; File C:\Users\murat\Desktop\Siveps2-1-99-Project\source\client\Client\eterPythonLib\PythonGridSlotWindow.cpp
;	COMDAT ?CheckMoving@CGridSlotWindow@UI@@IAEHKKABV?$list@PAUSSlot@CSlotWindow@UI@@V?$allocator@PAUSSlot@CSlotWindow@UI@@@std@@@std@@@Z
_TEXT	SEGMENT
_dwSlotNumber$ = 8					; size = 4
_dwItemIndex$ = 12					; size = 4
_c_rSlotList$ = 16					; size = 4
?CheckMoving@CGridSlotWindow@UI@@IAEHKKABV?$list@PAUSSlot@CSlotWindow@UI@@V?$allocator@PAUSSlot@CSlotWindow@UI@@@std@@@std@@@Z PROC ; UI::CGridSlotWindow::CheckMoving, COMDAT
; _this$ = ecx

; 344  : {

  00000	55		 push	 ebp
  00001	8b ec		 mov	 ebp, esp

; 345  : 	if (m_dwSlotStyle != SLOT_STYLE_PICK_UP)

  00003	83 b9 80 00 00
	00 01		 cmp	 DWORD PTR [ecx+128], 1
  0000a	53		 push	 ebx
  0000b	56		 push	 esi
  0000c	57		 push	 edi
  0000d	75 32		 jne	 SHORT $LN37@CheckMovin
; File C:\Program Files (x86)\Microsoft Visual Studio\2019\Professional\VC\Tools\MSVC\14.29.30133\include\list

; 1096 :         return const_iterator(_Mypair._Myval2._Myhead->_Next, _STD addressof(_Mypair._Myval2));

  0000f	8b 4d 10	 mov	 ecx, DWORD PTR _c_rSlotList$[ebp]
  00012	8b 09		 mov	 ecx, DWORD PTR [ecx]

; 39   :     _List_unchecked_const_iterator(_Nodeptr _Pnode, const _Mylist* _Plist) noexcept : _Ptr(_Pnode) {

  00014	8b 01		 mov	 eax, DWORD PTR [ecx]
  00016	3b c1		 cmp	 eax, ecx
; File C:\Users\murat\Desktop\Siveps2-1-99-Project\source\client\Client\eterPythonLib\PythonGridSlotWindow.cpp

; 348  : 	for (std::list<TSlot*>::const_iterator itor = c_rSlotList.begin(); itor != c_rSlotList.end(); ++itor)

  00018	74 27		 je	 SHORT $LN37@CheckMovin
  0001a	8b 5d 0c	 mov	 ebx, DWORD PTR _dwItemIndex$[ebp]
  0001d	0f 1f 00	 npad	 3
$LL18@CheckMovin:

; 349  : 	{
; 350  : 		TSlot * pSlot = *itor;

  00020	8b 50 08	 mov	 edx, DWORD PTR [eax+8]

; 351  : 
; 352  : 		if (dwSlotNumber != pSlot->dwCenterSlotNumber) //    

  00023	8b 72 08	 mov	 esi, DWORD PTR [edx+8]
  00026	39 75 08	 cmp	 DWORD PTR _dwSlotNumber$[ebp], esi
  00029	74 10		 je	 SHORT $LN2@CheckMovin

; 353  : 		{
; 354  : 			if (0 != pSlot->dwItemIndex || pSlot->dwCenterSlotNumber != pSlot->dwSlotNumber) //  

  0002b	8b 7a 0c	 mov	 edi, DWORD PTR [edx+12]
  0002e	85 ff		 test	 edi, edi
  00030	75 05		 jne	 SHORT $LN35@CheckMovin
  00032	3b 72 04	 cmp	 esi, DWORD PTR [edx+4]
  00035	74 04		 je	 SHORT $LN2@CheckMovin
$LN35@CheckMovin:

; 355  : 			{
; 356  : 				if (dwItemIndex != pSlot->dwItemIndex) //    

  00037	3b df		 cmp	 ebx, edi
  00039	75 12		 jne	 SHORT $LN32@CheckMovin
$LN2@CheckMovin:
; File C:\Program Files (x86)\Microsoft Visual Studio\2019\Professional\VC\Tools\MSVC\14.29.30133\include\list

; 168  :         this->_Ptr = this->_Ptr->_Next;

  0003b	8b 00		 mov	 eax, DWORD PTR [eax]

; 201  :         return this->_Ptr == _Right._Ptr;

  0003d	3b c1		 cmp	 eax, ecx
; File C:\Users\murat\Desktop\Siveps2-1-99-Project\source\client\Client\eterPythonLib\PythonGridSlotWindow.cpp

; 348  : 	for (std::list<TSlot*>::const_iterator itor = c_rSlotList.begin(); itor != c_rSlotList.end(); ++itor)

  0003f	75 df		 jne	 SHORT $LL18@CheckMovin
$LN37@CheckMovin:
  00041	5f		 pop	 edi

; 357  : 					return false;
; 358  : 			}
; 359  : 		}
; 360  : 	}
; 361  : 
; 362  : 	return true;
; 363  : }

  00042	5e		 pop	 esi
  00043	b8 01 00 00 00	 mov	 eax, 1
  00048	5b		 pop	 ebx
  00049	5d		 pop	 ebp
  0004a	c2 0c 00	 ret	 12			; 0000000cH
$LN32@CheckMovin:
  0004d	5f		 pop	 edi
  0004e	5e		 pop	 esi
  0004f	33 c0		 xor	 eax, eax
  00051	5b		 pop	 ebx
  00052	5d		 pop	 ebp
  00053	c2 0c 00	 ret	 12			; 0000000cH
?CheckMoving@CGridSlotWindow@UI@@IAEHKKABV?$list@PAUSSlot@CSlotWindow@UI@@V?$allocator@PAUSSlot@CSlotWindow@UI@@@std@@@std@@@Z ENDP ; UI::CGridSlotWindow::CheckMoving
_TEXT	ENDS
; Function compile flags: /Ogtp
; File C:\Users\murat\Desktop\Siveps2-1-99-Project\source\client\Client\eterPythonLib\PythonGridSlotWindow.cpp
;	COMDAT ?GetPickedGridSlotPosition@CGridSlotWindow@UI@@IAEHHHPAH0@Z
_TEXT	SEGMENT
_pSlot$1 = -8						; size = 4
_x$1$ = -4						; size = 4
_ixLocal$ = 8						; size = 4
_iyLocal$ = 12						; size = 4
_pix$ = 16						; size = 4
_piy$ = 20						; size = 4
?GetPickedGridSlotPosition@CGridSlotWindow@UI@@IAEHHHPAH0@Z PROC ; UI::CGridSlotWindow::GetPickedGridSlotPosition, COMDAT
; _this$ = ecx

; 253  : {

  00000	55		 push	 ebp
  00001	8b ec		 mov	 ebp, esp
  00003	83 ec 08	 sub	 esp, 8
  00006	53		 push	 ebx
  00007	56		 push	 esi
  00008	8b d9		 mov	 ebx, ecx
  0000a	57		 push	 edi

; 254  : 	for (DWORD x = 0; x < m_dwxCount; ++x)

  0000b	33 ff		 xor	 edi, edi
  0000d	89 7d fc	 mov	 DWORD PTR _x$1$[ebp], edi
  00010	39 bb c8 00 00
	00		 cmp	 DWORD PTR [ebx+200], edi
  00016	76 68		 jbe	 SHORT $LN26@GetPickedG
  00018	0f 1f 84 00 00
	00 00 00	 npad	 8
$LL4@GetPickedG:

; 255  : 	for (DWORD y = 0; y < m_dwyCount; ++y)

  00020	33 f6		 xor	 esi, esi
  00022	39 b3 cc 00 00
	00		 cmp	 DWORD PTR [ebx+204], esi
  00028	76 4a		 jbe	 SHORT $LN2@GetPickedG
  0002a	66 0f 1f 44 00
	00		 npad	 6
$LL7@GetPickedG:

; 256  : 	{
; 257  : 		TSlot * pSlot;
; 258  : 		if (!GetGridSlotPointer(x, y, &pSlot))

  00030	8d 45 f8	 lea	 eax, DWORD PTR _pSlot$1[ebp]
  00033	8b cb		 mov	 ecx, ebx
  00035	50		 push	 eax
  00036	56		 push	 esi
  00037	57		 push	 edi
  00038	e8 00 00 00 00	 call	 ?GetGridSlotPointer@CGridSlotWindow@UI@@IAEHHHPAPAUSSlot@CSlotWindow@2@@Z ; UI::CGridSlotWindow::GetGridSlotPointer
  0003d	85 c0		 test	 eax, eax
  0003f	74 2a		 je	 SHORT $LN5@GetPickedG

; 259  : 			continue;
; 260  : 
; 261  : 		if (ixLocal >= pSlot->ixPosition)

  00041	8b 4d f8	 mov	 ecx, DWORD PTR _pSlot$1[ebp]
  00044	8b 51 24	 mov	 edx, DWORD PTR [ecx+36]
  00047	39 55 08	 cmp	 DWORD PTR _ixLocal$[ebp], edx
  0004a	7c 1f		 jl	 SHORT $LN5@GetPickedG

; 262  : 		if (iyLocal >= pSlot->iyPosition)

  0004c	8b 79 28	 mov	 edi, DWORD PTR [ecx+40]
  0004f	39 7d 0c	 cmp	 DWORD PTR _iyLocal$[ebp], edi
  00052	7c 14		 jl	 SHORT $LN29@GetPickedG

; 263  : 		if (ixLocal <= pSlot->ixPosition + pSlot->ixCellSize)

  00054	8b 41 2c	 mov	 eax, DWORD PTR [ecx+44]
  00057	03 c2		 add	 eax, edx
  00059	39 45 08	 cmp	 DWORD PTR _ixLocal$[ebp], eax
  0005c	7f 0a		 jg	 SHORT $LN29@GetPickedG

; 264  : 		if (iyLocal <= pSlot->iyPosition + pSlot->iyCellSize)

  0005e	8b 41 30	 mov	 eax, DWORD PTR [ecx+48]
  00061	03 c7		 add	 eax, edi
  00063	39 45 0c	 cmp	 DWORD PTR _iyLocal$[ebp], eax
  00066	7e 23		 jle	 SHORT $LN16@GetPickedG
$LN29@GetPickedG:

; 255  : 	for (DWORD y = 0; y < m_dwyCount; ++y)

  00068	8b 7d fc	 mov	 edi, DWORD PTR _x$1$[ebp]
$LN5@GetPickedG:
  0006b	46		 inc	 esi
  0006c	3b b3 cc 00 00
	00		 cmp	 esi, DWORD PTR [ebx+204]
  00072	72 bc		 jb	 SHORT $LL7@GetPickedG
$LN2@GetPickedG:

; 254  : 	for (DWORD x = 0; x < m_dwxCount; ++x)

  00074	47		 inc	 edi
  00075	89 7d fc	 mov	 DWORD PTR _x$1$[ebp], edi
  00078	3b bb c8 00 00
	00		 cmp	 edi, DWORD PTR [ebx+200]
  0007e	72 a0		 jb	 SHORT $LL4@GetPickedG
$LN26@GetPickedG:
  00080	5f		 pop	 edi

; 269  : 		}
; 270  : 	}
; 271  : 
; 272  : 	return FALSE;
; 273  : }

  00081	5e		 pop	 esi
  00082	33 c0		 xor	 eax, eax
  00084	5b		 pop	 ebx
  00085	8b e5		 mov	 esp, ebp
  00087	5d		 pop	 ebp
  00088	c2 10 00	 ret	 16			; 00000010H
$LN16@GetPickedG:

; 265  : 		{
; 266  : 			*pix = x;

  0008b	8b 45 10	 mov	 eax, DWORD PTR _pix$[ebp]
  0008e	8b 4d fc	 mov	 ecx, DWORD PTR _x$1$[ebp]
  00091	5f		 pop	 edi
  00092	89 08		 mov	 DWORD PTR [eax], ecx

; 267  : 			*piy = y;

  00094	8b 45 14	 mov	 eax, DWORD PTR _piy$[ebp]
  00097	89 30		 mov	 DWORD PTR [eax], esi

; 268  : 			return TRUE;

  00099	b8 01 00 00 00	 mov	 eax, 1

; 269  : 		}
; 270  : 	}
; 271  : 
; 272  : 	return FALSE;
; 273  : }

  0009e	5e		 pop	 esi
  0009f	5b		 pop	 ebx
  000a0	8b e5		 mov	 esp, ebp
  000a2	5d		 pop	 ebp
  000a3	c2 10 00	 ret	 16			; 00000010H
?GetPickedGridSlotPosition@CGridSlotWindow@UI@@IAEHHHPAH0@Z ENDP ; UI::CGridSlotWindow::GetPickedGridSlotPosition
_TEXT	ENDS
; Function compile flags: /Ogtp
; File C:\Users\murat\Desktop\Siveps2-1-99-Project\source\client\Client\eterPythonLib\PythonGridSlotWindow.cpp
; File C:\Program Files (x86)\Microsoft Visual Studio\2019\Professional\VC\Tools\MSVC\14.29.30133\include\vector
; File C:\Users\murat\Desktop\Siveps2-1-99-Project\source\client\Client\eterPythonLib\PythonGridSlotWindow.cpp
; File C:\Program Files (x86)\Microsoft Visual Studio\2019\Professional\VC\Tools\MSVC\14.29.30133\include\vector
; File C:\Users\murat\Desktop\Siveps2-1-99-Project\source\client\Client\eterPythonLib\PythonGridSlotWindow.cpp
;	COMDAT ?GetGridSlotPointer@CGridSlotWindow@UI@@IAEHHHPAPAUSSlot@CSlotWindow@2@@Z
_TEXT	SEGMENT
_ix$ = 8						; size = 4
_iy$ = 12						; size = 4
_ppSlot$ = 16						; size = 4
?GetGridSlotPointer@CGridSlotWindow@UI@@IAEHHHPAPAUSSlot@CSlotWindow@2@@Z PROC ; UI::CGridSlotWindow::GetGridSlotPointer, COMDAT
; _this$ = ecx

; 242  : {

  00000	55		 push	 ebp
  00001	8b ec		 mov	 ebp, esp

; 243  : 	DWORD dwSlotIndex = ix + iy*m_dwxCount;

  00003	8b 91 c8 00 00
	00		 mov	 edx, DWORD PTR [ecx+200]
  00009	0f af 55 0c	 imul	 edx, DWORD PTR _iy$[ebp]
; File C:\Program Files (x86)\Microsoft Visual Studio\2019\Professional\VC\Tools\MSVC\14.29.30133\include\vector

; 1549 :         return static_cast<size_type>(_My_data._Mylast - _My_data._Myfirst);

  0000d	8b 81 d4 00 00
	00		 mov	 eax, DWORD PTR [ecx+212]
; File C:\Users\murat\Desktop\Siveps2-1-99-Project\source\client\Client\eterPythonLib\PythonGridSlotWindow.cpp

; 242  : {

  00013	56		 push	 esi
; File C:\Program Files (x86)\Microsoft Visual Studio\2019\Professional\VC\Tools\MSVC\14.29.30133\include\vector

; 1549 :         return static_cast<size_type>(_My_data._Mylast - _My_data._Myfirst);

  00014	8b b1 d0 00 00
	00		 mov	 esi, DWORD PTR [ecx+208]
  0001a	2b c6		 sub	 eax, esi
  0001c	c1 f8 02	 sar	 eax, 2
; File C:\Users\murat\Desktop\Siveps2-1-99-Project\source\client\Client\eterPythonLib\PythonGridSlotWindow.cpp

; 243  : 	DWORD dwSlotIndex = ix + iy*m_dwxCount;

  0001f	03 55 08	 add	 edx, DWORD PTR _ix$[ebp]

; 244  : 	if (dwSlotIndex >= m_SlotVector.size())

  00022	3b d0		 cmp	 edx, eax
  00024	72 07		 jb	 SHORT $LN2@GetGridSlo

; 245  : 		return FALSE;

  00026	33 c0		 xor	 eax, eax
  00028	5e		 pop	 esi

; 250  : }

  00029	5d		 pop	 ebp
  0002a	c2 0c 00	 ret	 12			; 0000000cH
$LN2@GetGridSlo:

; 246  : 
; 247  : 	*ppSlot = m_SlotVector[dwSlotIndex];

  0002d	8b 45 10	 mov	 eax, DWORD PTR _ppSlot$[ebp]
  00030	8b 0c 96	 mov	 ecx, DWORD PTR [esi+edx*4]
  00033	5e		 pop	 esi
  00034	89 08		 mov	 DWORD PTR [eax], ecx

; 248  : 
; 249  : 	return TRUE;

  00036	b8 01 00 00 00	 mov	 eax, 1

; 250  : }

  0003b	5d		 pop	 ebp
  0003c	c2 0c 00	 ret	 12			; 0000000cH
?GetGridSlotPointer@CGridSlotWindow@UI@@IAEHHHPAPAUSSlot@CSlotWindow@2@@Z ENDP ; UI::CGridSlotWindow::GetGridSlotPointer
_TEXT	ENDS
; Function compile flags: /Ogtp
; File C:\Users\murat\Desktop\Siveps2-1-99-Project\source\client\Client\eterPythonLib\PythonGridSlotWindow.cpp
; File C:\Program Files (x86)\Microsoft Visual Studio\2019\Professional\VC\Tools\MSVC\14.29.30133\include\list
; File C:\Program Files (x86)\Microsoft Visual Studio\2019\Professional\VC\Tools\MSVC\14.29.30133\include\xmemory
; File C:\Program Files (x86)\Microsoft Visual Studio\2019\Professional\VC\Tools\MSVC\14.29.30133\include\list
; File C:\Users\murat\Desktop\Siveps2-1-99-Project\source\client\Client\eterPythonLib\PythonGridSlotWindow.cpp
; File C:\Program Files (x86)\Microsoft Visual Studio\2019\Professional\VC\Tools\MSVC\14.29.30133\include\list
; File C:\Users\murat\Desktop\Siveps2-1-99-Project\source\client\Client\eterPythonLib\PythonGridSlotWindow.cpp
; File C:\Program Files (x86)\Microsoft Visual Studio\2019\Professional\VC\Tools\MSVC\14.29.30133\include\list
; File C:\Users\murat\Desktop\Siveps2-1-99-Project\source\client\Client\eterPythonLib\PythonGridSlotWindow.cpp
; File C:\Program Files (x86)\Microsoft Visual Studio\2019\Professional\VC\Tools\MSVC\14.29.30133\include\list
; File C:\Program Files (x86)\Microsoft Visual Studio\2019\Professional\VC\Tools\MSVC\14.29.30133\include\xmemory
; File C:\Program Files (x86)\Microsoft Visual Studio\2019\Professional\VC\Tools\MSVC\14.29.30133\include\list
; File C:\Program Files (x86)\Microsoft Visual Studio\2019\Professional\VC\Tools\MSVC\14.29.30133\include\xmemory
; File C:\Program Files (x86)\Microsoft Visual Studio\2019\Professional\VC\Tools\MSVC\14.29.30133\include\list
; File C:\Program Files (x86)\Microsoft Visual Studio\2019\Professional\VC\Tools\MSVC\14.29.30133\include\xmemory
; File C:\Program Files (x86)\Microsoft Visual Studio\2019\Professional\VC\Tools\MSVC\14.29.30133\include\list
; File C:\Users\murat\Desktop\Siveps2-1-99-Project\source\client\Client\eterPythonLib\PythonGridSlotWindow.cpp
; File C:\Program Files (x86)\Microsoft Visual Studio\2019\Professional\VC\Tools\MSVC\14.29.30133\include\list
; File C:\Program Files (x86)\Microsoft Visual Studio\2019\Professional\VC\Tools\MSVC\14.29.30133\include\vector
; File C:\Program Files (x86)\Microsoft Visual Studio\2019\Professional\VC\Tools\MSVC\14.29.30133\include\list
; File C:\Users\murat\Desktop\Siveps2-1-99-Project\source\client\Client\eterPythonLib\PythonGridSlotWindow.cpp
; File C:\Program Files (x86)\Microsoft Visual Studio\2019\Professional\VC\Tools\MSVC\14.29.30133\include\list
; File C:\Program Files (x86)\Microsoft Visual Studio\2019\Professional\VC\Tools\MSVC\14.29.30133\include\xutility
; File C:\Program Files (x86)\Microsoft Visual Studio\2019\Professional\VC\Tools\MSVC\14.29.30133\include\list
; File C:\Program Files (x86)\Microsoft Visual Studio\2019\Professional\VC\Tools\MSVC\14.29.30133\include\xutility
; File C:\Users\murat\Desktop\Siveps2-1-99-Project\source\client\Client\eterPythonLib\PythonGridSlotWindow.cpp
; File C:\Program Files (x86)\Microsoft Visual Studio\2019\Professional\VC\Tools\MSVC\14.29.30133\include\list
; File C:\Program Files (x86)\Microsoft Visual Studio\2019\Professional\VC\Tools\MSVC\14.29.30133\include\xmemory
; File C:\Program Files (x86)\Microsoft Visual Studio\2019\Professional\VC\Tools\MSVC\14.29.30133\include\list
; File C:\Program Files (x86)\Microsoft Visual Studio\2019\Professional\VC\Tools\MSVC\14.29.30133\include\xmemory
; File C:\Program Files (x86)\Microsoft Visual Studio\2019\Professional\VC\Tools\MSVC\14.29.30133\include\list
; File C:\Program Files (x86)\Microsoft Visual Studio\2019\Professional\VC\Tools\MSVC\14.29.30133\include\xmemory
; File C:\Program Files (x86)\Microsoft Visual Studio\2019\Professional\VC\Tools\MSVC\14.29.30133\include\list
; File C:\Program Files (x86)\Microsoft Visual Studio\2019\Professional\VC\Tools\MSVC\14.29.30133\include\vector
; File C:\Users\murat\Desktop\Siveps2-1-99-Project\source\client\Client\eterPythonLib\PythonGridSlotWindow.cpp
; File C:\Program Files (x86)\Microsoft Visual Studio\2019\Professional\VC\Tools\MSVC\14.29.30133\include\list
; File C:\Users\murat\Desktop\Siveps2-1-99-Project\source\client\Client\eterPythonLib\PythonGridSlotWindow.cpp
; File C:\Program Files (x86)\Microsoft Visual Studio\2019\Professional\VC\Tools\MSVC\14.29.30133\include\list
; File C:\Users\murat\Desktop\Siveps2-1-99-Project\source\client\Client\eterPythonLib\PythonGridSlotWindow.cpp
;	COMDAT ?GetPickedSlotList@CGridSlotWindow@UI@@IAEHHHPAV?$list@PAUSSlot@CSlotWindow@UI@@V?$allocator@PAUSSlot@CSlotWindow@UI@@@std@@@std@@@Z
_TEXT	SEGMENT
__Op$2 = -44						; size = 8
__Op$3 = -44						; size = 8
_pSlot$4 = -36						; size = 4
_iyEnd$2$ = -32						; size = 4
_ix$ = -32						; size = 4
_lx$ = -28						; size = 4
_ly$ = -24						; size = 4
_this$1$ = -20						; size = 4
_iyStart$2$ = -16					; size = 4
_iy$ = -16						; size = 4
__$EHRec$ = -12						; size = 12
_pSlot$1$ = 8						; size = 4
_ixEnd$1$ = 8						; size = 4
tv1570 = 8						; size = 4
_iWidth$ = 8						; size = 4
_pMainSlot$1$ = 12					; size = 4
_i$1$ = 12						; size = 4
_iHeight$ = 12						; size = 4
_pSlotPointerList$ = 16					; size = 4
?GetPickedSlotList@CGridSlotWindow@UI@@IAEHHHPAV?$list@PAUSSlot@CSlotWindow@UI@@V?$allocator@PAUSSlot@CSlotWindow@UI@@@std@@@std@@@Z PROC ; UI::CGridSlotWindow::GetPickedSlotList, COMDAT
; _this$ = ecx

; 138  : {

  00000	55		 push	 ebp
  00001	8b ec		 mov	 ebp, esp
  00003	6a ff		 push	 -1
  00005	68 00 00 00 00	 push	 __ehhandler$?GetPickedSlotList@CGridSlotWindow@UI@@IAEHHHPAV?$list@PAUSSlot@CSlotWindow@UI@@V?$allocator@PAUSSlot@CSlotWindow@UI@@@std@@@std@@@Z
  0000a	64 a1 00 00 00
	00		 mov	 eax, DWORD PTR fs:0
  00010	50		 push	 eax
  00011	83 ec 20	 sub	 esp, 32			; 00000020H
  00014	53		 push	 ebx
  00015	56		 push	 esi
  00016	57		 push	 edi
  00017	a1 00 00 00 00	 mov	 eax, DWORD PTR ___security_cookie
  0001c	33 c5		 xor	 eax, ebp
  0001e	50		 push	 eax
  0001f	8d 45 f4	 lea	 eax, DWORD PTR __$EHRec$[ebp]
  00022	64 a3 00 00 00
	00		 mov	 DWORD PTR fs:0, eax
  00028	8b d9		 mov	 ebx, ecx
  0002a	89 5d ec	 mov	 DWORD PTR _this$1$[ebp], ebx

; 139  : 	long lx, ly;
; 140  : 	GetMouseLocalPosition(lx, ly);

  0002d	8d 45 e8	 lea	 eax, DWORD PTR _ly$[ebp]
  00030	50		 push	 eax
  00031	8d 45 e4	 lea	 eax, DWORD PTR _lx$[ebp]
  00034	50		 push	 eax
  00035	e8 00 00 00 00	 call	 ?GetMouseLocalPosition@CWindow@UI@@QAEXAAJ0@Z ; UI::CWindow::GetMouseLocalPosition

; 141  : 
; 142  : 	if (lx < 0)

  0003a	8b 4d e4	 mov	 ecx, DWORD PTR _lx$[ebp]
  0003d	85 c9		 test	 ecx, ecx
  0003f	0f 88 a0 02 00
	00		 js	 $LN29@GetPickedS

; 143  : 		return FALSE;
; 144  : 	if (ly < 0)

  00045	8b 45 e8	 mov	 eax, DWORD PTR _ly$[ebp]
  00048	85 c0		 test	 eax, eax
  0004a	0f 88 95 02 00
	00		 js	 $LN29@GetPickedS

; 145  : 		return FALSE;
; 146  : 	if (lx >= GetWidth())

  00050	3b 4b 2c	 cmp	 ecx, DWORD PTR [ebx+44]
  00053	0f 8d 8c 02 00
	00		 jge	 $LN29@GetPickedS

; 147  : 		return FALSE;
; 148  : 	if (ly >= GetHeight())

  00059	3b 43 30	 cmp	 eax, DWORD PTR [ebx+48]
  0005c	0f 8d 83 02 00
	00		 jge	 $LN29@GetPickedS
; File C:\Program Files (x86)\Microsoft Visual Studio\2019\Professional\VC\Tools\MSVC\14.29.30133\include\list

; 1429 :         _Node::_Free_non_head(_Getal(), _My_data._Myhead);

  00062	8b 7d 10	 mov	 edi, DWORD PTR _pSlotPointerList$[ebp]
  00065	8b 0f		 mov	 ecx, DWORD PTR [edi]

; 328  :         _Head->_Prev->_Next = nullptr;

  00067	8b 41 04	 mov	 eax, DWORD PTR [ecx+4]
  0006a	c7 00 00 00 00
	00		 mov	 DWORD PTR [eax], 0

; 329  : 
; 330  :         auto _Pnode = _Head->_Next;

  00070	8b 01		 mov	 eax, DWORD PTR [ecx]

; 331  :         for (_Nodeptr _Pnext; _Pnode; _Pnode = _Pnext) {

  00072	85 c0		 test	 eax, eax
  00074	74 13		 je	 SHORT $LN35@GetPickedS
$LL36@GetPickedS:

; 332  :             _Pnext = _Pnode->_Next;

  00076	8b 30		 mov	 esi, DWORD PTR [eax]
; File C:\Program Files (x86)\Microsoft Visual Studio\2019\Professional\VC\Tools\MSVC\14.29.30133\include\xmemory

; 264  :         ::operator delete(_Ptr, _Bytes);

  00078	6a 0c		 push	 12			; 0000000cH
  0007a	50		 push	 eax
  0007b	e8 00 00 00 00	 call	 ??3@YAXPAXI@Z		; operator delete
  00080	83 c4 08	 add	 esp, 8
; File C:\Program Files (x86)\Microsoft Visual Studio\2019\Professional\VC\Tools\MSVC\14.29.30133\include\list

; 331  :         for (_Nodeptr _Pnext; _Pnode; _Pnode = _Pnext) {

  00083	8b c6		 mov	 eax, esi
  00085	85 f6		 test	 esi, esi
  00087	75 ed		 jne	 SHORT $LL36@GetPickedS
$LN35@GetPickedS:

; 1430 :         _My_data._Myhead->_Next = _My_data._Myhead;

  00089	8b 07		 mov	 eax, DWORD PTR [edi]
; File C:\Users\murat\Desktop\Siveps2-1-99-Project\source\client\Client\eterPythonLib\PythonGridSlotWindow.cpp

; 154  : 	if (GetPickedGridSlotPosition(lx, ly, &ix, &iy))

  0008b	8b cb		 mov	 ecx, ebx
; File C:\Program Files (x86)\Microsoft Visual Studio\2019\Professional\VC\Tools\MSVC\14.29.30133\include\list

; 1430 :         _My_data._Myhead->_Next = _My_data._Myhead;

  0008d	89 00		 mov	 DWORD PTR [eax], eax

; 1431 :         _My_data._Myhead->_Prev = _My_data._Myhead;

  0008f	8b 07		 mov	 eax, DWORD PTR [edi]
  00091	89 40 04	 mov	 DWORD PTR [eax+4], eax
; File C:\Users\murat\Desktop\Siveps2-1-99-Project\source\client\Client\eterPythonLib\PythonGridSlotWindow.cpp

; 154  : 	if (GetPickedGridSlotPosition(lx, ly, &ix, &iy))

  00094	8d 45 f0	 lea	 eax, DWORD PTR _iy$[ebp]
  00097	50		 push	 eax
  00098	8d 45 e0	 lea	 eax, DWORD PTR _ix$[ebp]
; File C:\Program Files (x86)\Microsoft Visual Studio\2019\Professional\VC\Tools\MSVC\14.29.30133\include\list

; 1432 :         _My_data._Mysize        = 0;

  0009b	c7 47 04 00 00
	00 00		 mov	 DWORD PTR [edi+4], 0
; File C:\Users\murat\Desktop\Siveps2-1-99-Project\source\client\Client\eterPythonLib\PythonGridSlotWindow.cpp

; 154  : 	if (GetPickedGridSlotPosition(lx, ly, &ix, &iy))

  000a2	50		 push	 eax
  000a3	ff 75 e8	 push	 DWORD PTR _ly$[ebp]
  000a6	ff 75 e4	 push	 DWORD PTR _lx$[ebp]
  000a9	e8 00 00 00 00	 call	 ?GetPickedGridSlotPosition@CGridSlotWindow@UI@@IAEHHHPAH0@Z ; UI::CGridSlotWindow::GetPickedGridSlotPosition
  000ae	85 c0		 test	 eax, eax
  000b0	0f 84 2f 02 00
	00		 je	 $LN29@GetPickedS

; 155  : 	{
; 156  : 		int ixHalfStep = (iWidth / 2);

  000b6	8b 45 08	 mov	 eax, DWORD PTR _iWidth$[ebp]
  000b9	99		 cdq
  000ba	2b c2		 sub	 eax, edx
  000bc	d1 f8		 sar	 eax, 1

; 157  : 		//int iyHalfStep = (iHeight / 2);
; 158  : 
; 159  : 		int ixStart = int(ix) - int(ixHalfStep - (ixHalfStep % 2));

  000be	8b d0		 mov	 edx, eax
  000c0	81 e2 01 00 00
	80		 and	 edx, -2147483647	; 80000001H
  000c6	79 05		 jns	 SHORT $LN304@GetPickedS
  000c8	4a		 dec	 edx
  000c9	83 ca fe	 or	 edx, -2			; fffffffeH
  000cc	42		 inc	 edx
$LN304@GetPickedS:
  000cd	8b 4d e0	 mov	 ecx, DWORD PTR _ix$[ebp]
  000d0	2b d0		 sub	 edx, eax
  000d2	03 d1		 add	 edx, ecx

; 160  : 		int ixEnd = int(ix) + int(ixHalfStep);
; 161  : 
; 162  : 		// FIXME :      - [levites]
; 163  : 		int iyStart = 0, iyEnd = 0;

  000d4	33 f6		 xor	 esi, esi
  000d6	89 55 08	 mov	 DWORD PTR tv1570[ebp], edx
  000d9	33 d2		 xor	 edx, edx
  000db	8d 1c 08	 lea	 ebx, DWORD PTR [eax+ecx]

; 164  : 
; 165  : 		if (1 == iHeight)

  000de	8b 45 0c	 mov	 eax, DWORD PTR _iHeight$[ebp]
  000e1	83 f8 01	 cmp	 eax, 1
  000e4	75 07		 jne	 SHORT $LN16@GetPickedS

; 166  : 		{
; 167  : 			iyStart = iy;

  000e6	8b 55 f0	 mov	 edx, DWORD PTR _iy$[ebp]

; 168  : 			iyEnd = iy;

  000e9	8b f2		 mov	 esi, edx

; 169  : 		}

  000eb	eb 1b		 jmp	 SHORT $LN20@GetPickedS
$LN16@GetPickedS:

; 170  : 		else if (2 == iHeight)

  000ed	83 f8 02	 cmp	 eax, 2
  000f0	75 08		 jne	 SHORT $LN18@GetPickedS

; 171  : 		{
; 172  : 			iyStart = iy;

  000f2	8b 55 f0	 mov	 edx, DWORD PTR _iy$[ebp]
  000f5	8d 72 01	 lea	 esi, DWORD PTR [edx+1]

; 173  : 			iyEnd = iy + 1;
; 174  : 		}

  000f8	eb 0e		 jmp	 SHORT $LN20@GetPickedS
$LN18@GetPickedS:

; 175  : 		else if (3 == iHeight)

  000fa	83 f8 03	 cmp	 eax, 3
  000fd	75 09		 jne	 SHORT $LN20@GetPickedS

; 176  : 		{
; 177  : 			iyStart = iy - 1;

  000ff	8b 45 f0	 mov	 eax, DWORD PTR _iy$[ebp]
  00102	8d 50 ff	 lea	 edx, DWORD PTR [eax-1]

; 178  : 			iyEnd = iy + 1;

  00105	8d 70 01	 lea	 esi, DWORD PTR [eax+1]
$LN20@GetPickedS:

; 179  : 		}
; 180  : 
; 181  : 		if (ixStart < 0)
; 182  : 		{
; 183  : 			ixEnd += -ixStart;
; 184  : 			ixStart = 0;
; 185  : 		}
; 186  : 
; 187  : 		if (iyStart < 0)

  00108	8b 4d 08	 mov	 ecx, DWORD PTR tv1570[ebp]
  0010b	8b c3		 mov	 eax, ebx
  0010d	2b c1		 sub	 eax, ecx
  0010f	85 c9		 test	 ecx, ecx
  00111	0f 49 c3	 cmovns	 eax, ebx
  00114	33 db		 xor	 ebx, ebx
  00116	85 c9		 test	 ecx, ecx
  00118	89 45 08	 mov	 DWORD PTR _ixEnd$1$[ebp], eax
  0011b	0f 49 d9	 cmovns	 ebx, ecx

; 188  : 		{
; 189  : 			iyEnd += -iyStart;
; 190  : 			iyStart = 0;
; 191  : 		}
; 192  : 
; 193  : 		if (DWORD(ixEnd) >= m_dwxCount)

  0011e	8b ce		 mov	 ecx, esi
  00120	2b ca		 sub	 ecx, edx
  00122	89 5d 0c	 mov	 DWORD PTR _i$1$[ebp], ebx
  00125	85 d2		 test	 edx, edx
  00127	0f 49 ce	 cmovns	 ecx, esi
  0012a	33 f6		 xor	 esi, esi
  0012c	85 d2		 test	 edx, edx
  0012e	89 4d e0	 mov	 DWORD PTR _iyEnd$2$[ebp], ecx
  00131	0f 49 f2	 cmovns	 esi, edx
  00134	8b 55 ec	 mov	 edx, DWORD PTR _this$1$[ebp]
  00137	89 75 f0	 mov	 DWORD PTR _iyStart$2$[ebp], esi
  0013a	3b 82 c8 00 00
	00		 cmp	 eax, DWORD PTR [edx+200]
  00140	72 0f		 jb	 SHORT $LN23@GetPickedS

; 194  : 		{
; 195  : 			int ixTemporary = DWORD(ixEnd) - m_dwxCount + 1;

  00142	2b 82 c8 00 00
	00		 sub	 eax, DWORD PTR [edx+200]
  00148	40		 inc	 eax

; 196  : 			ixStart -= ixTemporary;

  00149	2b d8		 sub	 ebx, eax

; 197  : 			ixEnd -= ixTemporary;

  0014b	29 45 08	 sub	 DWORD PTR _ixEnd$1$[ebp], eax
  0014e	89 5d 0c	 mov	 DWORD PTR _i$1$[ebp], ebx
$LN23@GetPickedS:

; 198  : 		}
; 199  : 
; 200  : 		if (DWORD(iyEnd) >= m_dwyCount)

  00151	3b 8a cc 00 00
	00		 cmp	 ecx, DWORD PTR [edx+204]
  00157	72 13		 jb	 SHORT $LN24@GetPickedS

; 201  : 		{
; 202  : 			int iyTemporary = DWORD(iyEnd) - m_dwyCount + 1;

  00159	8b c1		 mov	 eax, ecx
  0015b	2b 82 cc 00 00
	00		 sub	 eax, DWORD PTR [edx+204]
  00161	40		 inc	 eax

; 203  : 			iyStart -= iyTemporary;

  00162	2b f0		 sub	 esi, eax

; 204  : 			iyEnd -= iyTemporary;

  00164	2b c8		 sub	 ecx, eax
  00166	89 75 f0	 mov	 DWORD PTR _iyStart$2$[ebp], esi
  00169	89 4d e0	 mov	 DWORD PTR _iyEnd$2$[ebp], ecx
$LN24@GetPickedS:

; 205  : 		}
; 206  : 
; 207  : 		for (int i = ixStart; i <= ixEnd; ++i)

  0016c	8b 45 08	 mov	 eax, DWORD PTR _ixEnd$1$[ebp]
  0016f	3b d8		 cmp	 ebx, eax
  00171	0f 8f 88 00 00
	00		 jg	 $LN3@GetPickedS
$LL4@GetPickedS:

; 208  : 		for (int j = iyStart; j <= iyEnd; ++j)

  00177	39 4d f0	 cmp	 DWORD PTR _iyStart$2$[ebp], ecx
  0017a	7f 74		 jg	 SHORT $LN2@GetPickedS
  0017c	0f 1f 40 00	 npad	 4
$LL7@GetPickedS:

; 209  : 		{
; 210  : 			TSlot * pSlot;
; 211  : 			if (GetGridSlotPointer(DWORD(i), DWORD(j), &pSlot))

  00180	8d 45 dc	 lea	 eax, DWORD PTR _pSlot$4[ebp]
  00183	8b ca		 mov	 ecx, edx
  00185	50		 push	 eax
  00186	56		 push	 esi
  00187	53		 push	 ebx
  00188	e8 00 00 00 00	 call	 ?GetGridSlotPointer@CGridSlotWindow@UI@@IAEHHHPAPAUSSlot@CSlotWindow@2@@Z ; UI::CGridSlotWindow::GetGridSlotPointer
  0018d	85 c0		 test	 eax, eax
  0018f	74 51		 je	 SHORT $LN5@GetPickedS
; File C:\Program Files (x86)\Microsoft Visual Studio\2019\Professional\VC\Tools\MSVC\14.29.30133\include\list

; 1014 :         if (_Mysize == max_size()) {

  00191	81 7f 04 55 55
	55 15		 cmp	 DWORD PTR [edi+4], 357913941 ; 15555555H

; 1252 :         _Emplace(_Mypair._Myval2._Myhead, _Val);

  00198	8b 1f		 mov	 ebx, DWORD PTR [edi]

; 1014 :         if (_Mysize == max_size()) {

  0019a	0f 84 5b 01 00
	00		 je	 $LN283@GetPickedS
; File C:\Program Files (x86)\Microsoft Visual Studio\2019\Professional\VC\Tools\MSVC\14.29.30133\include\xmemory

; 1012 :     _CONSTEXPR20_DYNALLOC explicit _Alloc_construct_ptr(_Alloc& _Al_) : _Al(_Al_), _Ptr(nullptr) {}

  001a0	89 7d d4	 mov	 DWORD PTR __Op$3[ebp], edi

; 85   :         return ::operator new(_Bytes);

  001a3	6a 0c		 push	 12			; 0000000cH
; File C:\Program Files (x86)\Microsoft Visual Studio\2019\Professional\VC\Tools\MSVC\14.29.30133\include\list

; 589  :     explicit _List_node_emplace_op2(_Alnode& _Al_, _Valtys&&... _Vals) : _Alloc_construct_ptr<_Alnode>(_Al_) {

  001a5	c7 45 fc 00 00
	00 00		 mov	 DWORD PTR __$EHRec$[ebp+8], 0
; File C:\Program Files (x86)\Microsoft Visual Studio\2019\Professional\VC\Tools\MSVC\14.29.30133\include\xmemory

; 1019 :         _Ptr = nullptr; // if allocate throws, prevents double-free

  001ac	c7 45 d8 00 00
	00 00		 mov	 DWORD PTR __Op$3[ebp+4], 0

; 85   :         return ::operator new(_Bytes);

  001b3	e8 00 00 00 00	 call	 ??2@YAPAXI@Z		; operator new
; File C:\Program Files (x86)\Microsoft Visual Studio\2019\Professional\VC\Tools\MSVC\14.29.30133\include\list

; 591  :         _Alnode_traits::construct(this->_Al, _STD addressof(this->_Ptr->_Myval), _STD forward<_Valtys>(_Vals)...);

  001b8	8b 4d dc	 mov	 ecx, DWORD PTR _pSlot$4[ebp]
; File C:\Program Files (x86)\Microsoft Visual Studio\2019\Professional\VC\Tools\MSVC\14.29.30133\include\xmemory

; 85   :         return ::operator new(_Bytes);

  001bb	83 c4 04	 add	 esp, 4
; File C:\Program Files (x86)\Microsoft Visual Studio\2019\Professional\VC\Tools\MSVC\14.29.30133\include\list

; 592  :     }

  001be	c7 45 fc ff ff
	ff ff		 mov	 DWORD PTR __$EHRec$[ebp+8], -1

; 608  :         this->_Ptr            = pointer{};

  001c5	c7 45 d8 00 00
	00 00		 mov	 DWORD PTR __Op$3[ebp+4], 0

; 591  :         _Alnode_traits::construct(this->_Al, _STD addressof(this->_Ptr->_Myval), _STD forward<_Valtys>(_Vals)...);

  001cc	89 48 08	 mov	 DWORD PTR [eax+8], ecx

; 1019 :         ++_Mysize;

  001cf	ff 47 04	 inc	 DWORD PTR [edi+4]

; 604  :         const pointer _Insert_after = _Insert_before->_Prev;

  001d2	8b 4b 04	 mov	 ecx, DWORD PTR [ebx+4]

; 605  :         _Construct_in_place(this->_Ptr->_Next, _Insert_before);

  001d5	89 18		 mov	 DWORD PTR [eax], ebx

; 606  :         _Construct_in_place(this->_Ptr->_Prev, _Insert_after);

  001d7	89 48 04	 mov	 DWORD PTR [eax+4], ecx

; 609  :         _Insert_before->_Prev = _Result;

  001da	89 43 04	 mov	 DWORD PTR [ebx+4], eax
  001dd	8b 5d 0c	 mov	 ebx, DWORD PTR _i$1$[ebp]

; 610  :         _Insert_after->_Next  = _Result;

  001e0	89 01		 mov	 DWORD PTR [ecx], eax
$LN5@GetPickedS:
; File C:\Users\murat\Desktop\Siveps2-1-99-Project\source\client\Client\eterPythonLib\PythonGridSlotWindow.cpp

; 208  : 		for (int j = iyStart; j <= iyEnd; ++j)

  001e2	8b 4d e0	 mov	 ecx, DWORD PTR _iyEnd$2$[ebp]
  001e5	46		 inc	 esi
  001e6	8b 55 ec	 mov	 edx, DWORD PTR _this$1$[ebp]
  001e9	3b f1		 cmp	 esi, ecx
  001eb	7e 93		 jle	 SHORT $LL7@GetPickedS
  001ed	8b 45 08	 mov	 eax, DWORD PTR _ixEnd$1$[ebp]
$LN2@GetPickedS:

; 205  : 		}
; 206  : 
; 207  : 		for (int i = ixStart; i <= ixEnd; ++i)

  001f0	8b 75 f0	 mov	 esi, DWORD PTR _iyStart$2$[ebp]
  001f3	43		 inc	 ebx
  001f4	89 5d 0c	 mov	 DWORD PTR _i$1$[ebp], ebx
  001f7	3b d8		 cmp	 ebx, eax
  001f9	0f 8e 78 ff ff
	ff		 jle	 $LL4@GetPickedS
$LN3@GetPickedS:

; 212  : 			{
; 213  : 				pSlotPointerList->push_back(pSlot);
; 214  : 			}
; 215  : 		}
; 216  : 
; 217  : 		// Refine Scroll    
; 218  : 		if (m_isUseMode && 1 == pSlotPointerList->size())

  001ff	83 ba 98 00 00
	00 00		 cmp	 DWORD PTR [edx+152], 0
  00206	0f 84 ba 00 00
	00		 je	 $LN301@GetPickedS
  0020c	83 7f 04 01	 cmp	 DWORD PTR [edi+4], 1
  00210	0f 85 b0 00 00
	00		 jne	 $LN301@GetPickedS
; File C:\Program Files (x86)\Microsoft Visual Studio\2019\Professional\VC\Tools\MSVC\14.29.30133\include\list

; 1092 :         return iterator(_Mypair._Myval2._Myhead->_Next, _STD addressof(_Mypair._Myval2));

  00216	8b 07		 mov	 eax, DWORD PTR [edi]
; File C:\Program Files (x86)\Microsoft Visual Studio\2019\Professional\VC\Tools\MSVC\14.29.30133\include\vector

; 42   :     _CONSTEXPR20_CONTAINER _Vector_const_iterator(_Tptr _Parg, const _Container_base* _Pvector) noexcept : _Ptr(_Parg) {

  00218	8b b2 d0 00 00
	00		 mov	 esi, DWORD PTR [edx+208]
; File C:\Program Files (x86)\Microsoft Visual Studio\2019\Professional\VC\Tools\MSVC\14.29.30133\include\list

; 39   :     _List_unchecked_const_iterator(_Nodeptr _Pnode, const _Mylist* _Plist) noexcept : _Ptr(_Pnode) {

  0021e	8b 00		 mov	 eax, DWORD PTR [eax]
; File C:\Users\murat\Desktop\Siveps2-1-99-Project\source\client\Client\eterPythonLib\PythonGridSlotWindow.cpp

; 220  : 			TSlot * pMainSlot = *pSlotPointerList->begin();

  00220	8b 48 08	 mov	 ecx, DWORD PTR [eax+8]
  00223	89 4d 0c	 mov	 DWORD PTR _pMainSlot$1$[ebp], ecx

; 223  : 			for (; itor != m_SlotVector.end(); ++itor)

  00226	3b b2 d4 00 00
	00		 cmp	 esi, DWORD PTR [edx+212]
  0022c	0f 84 94 00 00
	00		 je	 $LN301@GetPickedS
$LL142@GetPickedS:

; 224  : 			{
; 225  : 				TSlot * pSlot = *itor;

  00232	8b 06		 mov	 eax, DWORD PTR [esi]
  00234	89 45 08	 mov	 DWORD PTR _pSlot$1$[ebp], eax

; 226  : 				if (pSlot->dwCenterSlotNumber == pMainSlot->dwCenterSlotNumber)

  00237	8b 40 08	 mov	 eax, DWORD PTR [eax+8]
  0023a	3b 41 08	 cmp	 eax, DWORD PTR [ecx+8]
  0023d	75 74		 jne	 SHORT $LN8@GetPickedS
; File C:\Program Files (x86)\Microsoft Visual Studio\2019\Professional\VC\Tools\MSVC\14.29.30133\include\list

; 39   :     _List_unchecked_const_iterator(_Nodeptr _Pnode, const _Mylist* _Plist) noexcept : _Ptr(_Pnode) {

  0023f	8b 1f		 mov	 ebx, DWORD PTR [edi]
  00241	8b 03		 mov	 eax, DWORD PTR [ebx]
; File C:\Program Files (x86)\Microsoft Visual Studio\2019\Professional\VC\Tools\MSVC\14.29.30133\include\xutility

; 5306 :     for (; _First != _Last; ++_First) {

  00243	3b d8		 cmp	 ebx, eax
  00245	74 1d		 je	 SHORT $LN307@GetPickedS
  00247	8b 7d 08	 mov	 edi, DWORD PTR _pSlot$1$[ebp]
  0024a	66 0f 1f 44 00
	00		 npad	 6
$LL198@GetPickedS:

; 5307 :         if (*_First == _Val) {

  00250	39 78 08	 cmp	 DWORD PTR [eax+8], edi
  00253	74 08		 je	 SHORT $LN302@GetPickedS
; File C:\Program Files (x86)\Microsoft Visual Studio\2019\Professional\VC\Tools\MSVC\14.29.30133\include\list

; 52   :         _Ptr = _Ptr->_Next;

  00255	8b 08		 mov	 ecx, DWORD PTR [eax]
  00257	8b c1		 mov	 eax, ecx
; File C:\Program Files (x86)\Microsoft Visual Studio\2019\Professional\VC\Tools\MSVC\14.29.30133\include\xutility

; 5306 :     for (; _First != _Last; ++_First) {

  00259	3b cb		 cmp	 ecx, ebx
  0025b	75 f3		 jne	 SHORT $LL198@GetPickedS
$LN302@GetPickedS:
  0025d	8b 7d 10	 mov	 edi, DWORD PTR _pSlotPointerList$[ebp]
; File C:\Users\murat\Desktop\Siveps2-1-99-Project\source\client\Client\eterPythonLib\PythonGridSlotWindow.cpp

; 227  : 				if (pSlotPointerList->end() == std::find(pSlotPointerList->begin(), pSlotPointerList->end(), pSlot))

  00260	3b d8		 cmp	 ebx, eax
  00262	75 4f		 jne	 SHORT $LN8@GetPickedS
$LN307@GetPickedS:
; File C:\Program Files (x86)\Microsoft Visual Studio\2019\Professional\VC\Tools\MSVC\14.29.30133\include\list

; 1014 :         if (_Mysize == max_size()) {

  00264	81 7f 04 55 55
	55 15		 cmp	 DWORD PTR [edi+4], 357913941 ; 15555555H
  0026b	0f 84 8a 00 00
	00		 je	 $LN283@GetPickedS
; File C:\Program Files (x86)\Microsoft Visual Studio\2019\Professional\VC\Tools\MSVC\14.29.30133\include\xmemory

; 1012 :     _CONSTEXPR20_DYNALLOC explicit _Alloc_construct_ptr(_Alloc& _Al_) : _Al(_Al_), _Ptr(nullptr) {}

  00271	89 7d d4	 mov	 DWORD PTR __Op$2[ebp], edi

; 85   :         return ::operator new(_Bytes);

  00274	6a 0c		 push	 12			; 0000000cH
; File C:\Program Files (x86)\Microsoft Visual Studio\2019\Professional\VC\Tools\MSVC\14.29.30133\include\list

; 589  :     explicit _List_node_emplace_op2(_Alnode& _Al_, _Valtys&&... _Vals) : _Alloc_construct_ptr<_Alnode>(_Al_) {

  00276	c7 45 fc 01 00
	00 00		 mov	 DWORD PTR __$EHRec$[ebp+8], 1
; File C:\Program Files (x86)\Microsoft Visual Studio\2019\Professional\VC\Tools\MSVC\14.29.30133\include\xmemory

; 1019 :         _Ptr = nullptr; // if allocate throws, prevents double-free

  0027d	c7 45 d8 00 00
	00 00		 mov	 DWORD PTR __Op$2[ebp+4], 0

; 85   :         return ::operator new(_Bytes);

  00284	e8 00 00 00 00	 call	 ??2@YAPAXI@Z		; operator new
; File C:\Program Files (x86)\Microsoft Visual Studio\2019\Professional\VC\Tools\MSVC\14.29.30133\include\list

; 591  :         _Alnode_traits::construct(this->_Al, _STD addressof(this->_Ptr->_Myval), _STD forward<_Valtys>(_Vals)...);

  00289	8b 4d 08	 mov	 ecx, DWORD PTR _pSlot$1$[ebp]
; File C:\Program Files (x86)\Microsoft Visual Studio\2019\Professional\VC\Tools\MSVC\14.29.30133\include\xmemory

; 85   :         return ::operator new(_Bytes);

  0028c	83 c4 04	 add	 esp, 4
  0028f	8b 55 ec	 mov	 edx, DWORD PTR _this$1$[ebp]
; File C:\Program Files (x86)\Microsoft Visual Studio\2019\Professional\VC\Tools\MSVC\14.29.30133\include\list

; 592  :     }

  00292	c7 45 fc ff ff
	ff ff		 mov	 DWORD PTR __$EHRec$[ebp+8], -1
  00299	89 48 08	 mov	 DWORD PTR [eax+8], ecx

; 1019 :         ++_Mysize;

  0029c	ff 47 04	 inc	 DWORD PTR [edi+4]

; 604  :         const pointer _Insert_after = _Insert_before->_Prev;

  0029f	8b 4b 04	 mov	 ecx, DWORD PTR [ebx+4]

; 605  :         _Construct_in_place(this->_Ptr->_Next, _Insert_before);

  002a2	89 18		 mov	 DWORD PTR [eax], ebx

; 606  :         _Construct_in_place(this->_Ptr->_Prev, _Insert_after);

  002a4	89 48 04	 mov	 DWORD PTR [eax+4], ecx

; 609  :         _Insert_before->_Prev = _Result;

  002a7	89 43 04	 mov	 DWORD PTR [ebx+4], eax
  002aa	c7 45 d8 00 00
	00 00		 mov	 DWORD PTR __Op$2[ebp+4], 0

; 610  :         _Insert_after->_Next  = _Result;

  002b1	89 01		 mov	 DWORD PTR [ecx], eax
$LN8@GetPickedS:
; File C:\Program Files (x86)\Microsoft Visual Studio\2019\Professional\VC\Tools\MSVC\14.29.30133\include\vector

; 78   :         ++_Ptr;

  002b3	83 c6 04	 add	 esi, 4

; 154  :         return _Ptr == _Right._Ptr;

  002b6	3b b2 d4 00 00
	00		 cmp	 esi, DWORD PTR [edx+212]
; File C:\Users\murat\Desktop\Siveps2-1-99-Project\source\client\Client\eterPythonLib\PythonGridSlotWindow.cpp

; 223  : 			for (; itor != m_SlotVector.end(); ++itor)

  002bc	74 08		 je	 SHORT $LN301@GetPickedS
  002be	8b 4d 0c	 mov	 ecx, DWORD PTR _pMainSlot$1$[ebp]
  002c1	e9 6c ff ff ff	 jmp	 $LL142@GetPickedS
$LN301@GetPickedS:
; File C:\Program Files (x86)\Microsoft Visual Studio\2019\Professional\VC\Tools\MSVC\14.29.30133\include\list

; 1200 :         return _Mypair._Myval2._Mysize == 0;

  002c6	83 7f 04 00	 cmp	 DWORD PTR [edi+4], 0
; File C:\Users\murat\Desktop\Siveps2-1-99-Project\source\client\Client\eterPythonLib\PythonGridSlotWindow.cpp

; 234  : 		if (!pSlotPointerList->empty())

  002ca	74 19		 je	 SHORT $LN29@GetPickedS

; 235  : 			return TRUE;

  002cc	b8 01 00 00 00	 mov	 eax, 1

; 239  : }

  002d1	8b 4d f4	 mov	 ecx, DWORD PTR __$EHRec$[ebp]
  002d4	64 89 0d 00 00
	00 00		 mov	 DWORD PTR fs:0, ecx
  002db	59		 pop	 ecx
  002dc	5f		 pop	 edi
  002dd	5e		 pop	 esi
  002de	5b		 pop	 ebx
  002df	8b e5		 mov	 esp, ebp
  002e1	5d		 pop	 ebp
  002e2	c2 0c 00	 ret	 12			; 0000000cH
$LN29@GetPickedS:

; 236  : 	}
; 237  : 
; 238  : 	return FALSE;

  002e5	33 c0		 xor	 eax, eax

; 239  : }

  002e7	8b 4d f4	 mov	 ecx, DWORD PTR __$EHRec$[ebp]
  002ea	64 89 0d 00 00
	00 00		 mov	 DWORD PTR fs:0, ecx
  002f1	59		 pop	 ecx
  002f2	5f		 pop	 edi
  002f3	5e		 pop	 esi
  002f4	5b		 pop	 ebx
  002f5	8b e5		 mov	 esp, ebp
  002f7	5d		 pop	 ebp
  002f8	c2 0c 00	 ret	 12			; 0000000cH
$LN283@GetPickedS:
; File C:\Program Files (x86)\Microsoft Visual Studio\2019\Professional\VC\Tools\MSVC\14.29.30133\include\list

; 1015 :             _Xlength_error("list too long");

  002fb	68 00 00 00 00	 push	 OFFSET ??_C@_0O@NKNMEGII@list?5too?5long@
  00300	e8 00 00 00 00	 call	 ?_Xlength_error@std@@YAXPBD@Z ; std::_Xlength_error
$LN305@GetPickedS:
  00305	cc		 int	 3
_TEXT	ENDS
;	COMDAT text$x
text$x	SEGMENT
__unwindfunclet$?GetPickedSlotList@CGridSlotWindow@UI@@IAEHHHPAV?$list@PAUSSlot@CSlotWindow@UI@@V?$allocator@PAUSSlot@CSlotWindow@UI@@@std@@@std@@@Z$1:
  00000	8d 4d d4	 lea	 ecx, DWORD PTR __Op$3[ebp]
  00003	e9 00 00 00 00	 jmp	 ??1?$_Alloc_construct_ptr@V?$allocator@U?$_List_node@PAUSSlot@CSlotWindow@UI@@PAX@std@@@std@@@std@@QAE@XZ ; std::_Alloc_construct_ptr<std::allocator<std::_List_node<UI::CSlotWindow::SSlot *,void *> > >::~_Alloc_construct_ptr<std::allocator<std::_List_node<UI::CSlotWindow::SSlot *,void *> > >
__unwindfunclet$?GetPickedSlotList@CGridSlotWindow@UI@@IAEHHHPAV?$list@PAUSSlot@CSlotWindow@UI@@V?$allocator@PAUSSlot@CSlotWindow@UI@@@std@@@std@@@Z$4:
  00008	8d 4d d4	 lea	 ecx, DWORD PTR __Op$2[ebp]
  0000b	e9 00 00 00 00	 jmp	 ??1?$_Alloc_construct_ptr@V?$allocator@U?$_List_node@PAUSSlot@CSlotWindow@UI@@PAX@std@@@std@@@std@@QAE@XZ ; std::_Alloc_construct_ptr<std::allocator<std::_List_node<UI::CSlotWindow::SSlot *,void *> > >::~_Alloc_construct_ptr<std::allocator<std::_List_node<UI::CSlotWindow::SSlot *,void *> > >
  00010	cc		 int	 3
  00011	cc		 int	 3
  00012	cc		 int	 3
  00013	cc		 int	 3
  00014	cc		 int	 3
__ehhandler$?GetPickedSlotList@CGridSlotWindow@UI@@IAEHHHPAV?$list@PAUSSlot@CSlotWindow@UI@@V?$allocator@PAUSSlot@CSlotWindow@UI@@@std@@@std@@@Z:
  00015	90		 npad	 1
  00016	90		 npad	 1
  00017	8b 54 24 08	 mov	 edx, DWORD PTR [esp+8]
  0001b	8d 42 0c	 lea	 eax, DWORD PTR [edx+12]
  0001e	8b 4a d0	 mov	 ecx, DWORD PTR [edx-48]
  00021	33 c8		 xor	 ecx, eax
  00023	e8 00 00 00 00	 call	 @__security_check_cookie@4
  00028	b8 00 00 00 00	 mov	 eax, OFFSET __ehfuncinfo$?GetPickedSlotList@CGridSlotWindow@UI@@IAEHHHPAV?$list@PAUSSlot@CSlotWindow@UI@@V?$allocator@PAUSSlot@CSlotWindow@UI@@@std@@@std@@@Z
  0002d	e9 00 00 00 00	 jmp	 ___CxxFrameHandler3
text$x	ENDS
?GetPickedSlotList@CGridSlotWindow@UI@@IAEHHHPAV?$list@PAUSSlot@CSlotWindow@UI@@V?$allocator@PAUSSlot@CSlotWindow@UI@@@std@@@std@@@Z ENDP ; UI::CGridSlotWindow::GetPickedSlotList
; Function compile flags: /Ogtp
; File C:\Users\murat\Desktop\Siveps2-1-99-Project\source\client\Client\eterPythonLib\PythonGridSlotWindow.cpp
; File C:\Program Files (x86)\Microsoft Visual Studio\2019\Professional\VC\Tools\MSVC\14.29.30133\include\xmemory
; File C:\Program Files (x86)\Microsoft Visual Studio\2019\Professional\VC\Tools\MSVC\14.29.30133\include\list
; File C:\Program Files (x86)\Microsoft Visual Studio\2019\Professional\VC\Tools\MSVC\14.29.30133\include\xmemory
; File C:\Program Files (x86)\Microsoft Visual Studio\2019\Professional\VC\Tools\MSVC\14.29.30133\include\list
; File C:\Users\murat\Desktop\Siveps2-1-99-Project\source\client\Client\eterPythonLib\PythonGridSlotWindow.cpp
; File C:\Program Files (x86)\Microsoft Visual Studio\2019\Professional\VC\Tools\MSVC\14.29.30133\include\list
; File C:\Users\murat\Desktop\Siveps2-1-99-Project\source\client\Client\eterPythonLib\PythonGridSlotWindow.cpp
; File C:\Program Files (x86)\Microsoft Visual Studio\2019\Professional\VC\Tools\MSVC\14.29.30133\include\list
; File C:\Users\murat\Desktop\Siveps2-1-99-Project\source\client\Client\eterPythonLib\PythonGridSlotWindow.cpp
; File C:\Program Files (x86)\Microsoft Visual Studio\2019\Professional\VC\Tools\MSVC\14.29.30133\include\list
; File C:\Users\murat\Desktop\Siveps2-1-99-Project\source\client\Client\eterPythonLib\PythonGridSlotWindow.cpp
; File C:\Program Files (x86)\Microsoft Visual Studio\2019\Professional\VC\Tools\MSVC\14.29.30133\include\list
; File C:\Program Files (x86)\Microsoft Visual Studio\2019\Professional\VC\Tools\MSVC\14.29.30133\include\xmemory
; File C:\Program Files (x86)\Microsoft Visual Studio\2019\Professional\VC\Tools\MSVC\14.29.30133\include\list
; File C:\Program Files (x86)\Microsoft Visual Studio\2019\Professional\VC\Tools\MSVC\14.29.30133\include\xmemory
; File C:\Users\murat\Desktop\Siveps2-1-99-Project\source\client\Client\eterPythonLib\PythonGridSlotWindow.cpp
;	COMDAT ?GetPickedSlotPointer@CGridSlotWindow@UI@@MAEHPAPAUSSlot@CSlotWindow@2@@Z
_TEXT	SEGMENT
_SlotList$ = -28					; size = 8
_pCenterSlot$2 = -20					; size = 4
_byWidth$ = -14						; size = 1
_byHeight$ = -13					; size = 1
__$EHRec$ = -12						; size = 12
_ppSlot$ = 8						; size = 4
?GetPickedSlotPointer@CGridSlotWindow@UI@@MAEHPAPAUSSlot@CSlotWindow@2@@Z PROC ; UI::CGridSlotWindow::GetPickedSlotPointer, COMDAT
; _this$ = ecx

; 69   : {

  00000	55		 push	 ebp
  00001	8b ec		 mov	 ebp, esp
  00003	6a ff		 push	 -1
  00005	68 00 00 00 00	 push	 __ehhandler$?GetPickedSlotPointer@CGridSlotWindow@UI@@MAEHPAPAUSSlot@CSlotWindow@2@@Z
  0000a	64 a1 00 00 00
	00		 mov	 eax, DWORD PTR fs:0
  00010	50		 push	 eax
  00011	83 ec 10	 sub	 esp, 16			; 00000010H
  00014	53		 push	 ebx
  00015	56		 push	 esi
  00016	57		 push	 edi
  00017	a1 00 00 00 00	 mov	 eax, DWORD PTR ___security_cookie
  0001c	33 c5		 xor	 eax, ebp
  0001e	50		 push	 eax
  0001f	8d 45 f4	 lea	 eax, DWORD PTR __$EHRec$[ebp]
  00022	64 a3 00 00 00
	00		 mov	 DWORD PTR fs:0, eax
  00028	8b d9		 mov	 ebx, ecx

; 70   : 	if (!UI::CWindowManager::Instance().IsAttaching())

  0002a	8b 0d 00 00 00
	00		 mov	 ecx, DWORD PTR ?ms_singleton@?$CSingleton@VCWindowManager@UI@@@@0PAVCWindowManager@UI@@A ; CSingleton<UI::CWindowManager>::ms_singleton
  00030	e8 00 00 00 00	 call	 ?IsAttaching@CWindowManager@UI@@QAEHXZ ; UI::CWindowManager::IsAttaching
  00035	85 c0		 test	 eax, eax
  00037	75 1e		 jne	 SHORT $LN5@GetPickedS

; 71   : 		return CSlotWindow::GetPickedSlotPointer(ppSlot);

  00039	ff 75 08	 push	 DWORD PTR _ppSlot$[ebp]
  0003c	8b cb		 mov	 ecx, ebx
  0003e	e8 00 00 00 00	 call	 ?GetPickedSlotPointer@CSlotWindow@UI@@MAEHPAPAUSSlot@12@@Z ; UI::CSlotWindow::GetPickedSlotPointer

; 135  : }

  00043	8b 4d f4	 mov	 ecx, DWORD PTR __$EHRec$[ebp]
  00046	64 89 0d 00 00
	00 00		 mov	 DWORD PTR fs:0, ecx
  0004d	59		 pop	 ecx
  0004e	5f		 pop	 edi
  0004f	5e		 pop	 esi
  00050	5b		 pop	 ebx
  00051	8b e5		 mov	 esp, ebp
  00053	5d		 pop	 ebp
  00054	c2 04 00	 ret	 4
$LN5@GetPickedS:

; 72   : 
; 73   : 	BYTE byWidth, byHeight;
; 74   : 	UI::CWindowManager::Instance().GetAttachingIconSize(&byWidth, &byHeight);

  00057	8b 0d 00 00 00
	00		 mov	 ecx, DWORD PTR ?ms_singleton@?$CSingleton@VCWindowManager@UI@@@@0PAVCWindowManager@UI@@A ; CSingleton<UI::CWindowManager>::ms_singleton
  0005d	8d 45 f3	 lea	 eax, DWORD PTR _byHeight$[ebp]
  00060	50		 push	 eax
  00061	8d 45 f2	 lea	 eax, DWORD PTR _byWidth$[ebp]
  00064	50		 push	 eax
  00065	e8 00 00 00 00	 call	 ?GetAttachingIconSize@CWindowManager@UI@@QAEXPAE0@Z ; UI::CWindowManager::GetAttachingIconSize
; File C:\Program Files (x86)\Microsoft Visual Studio\2019\Professional\VC\Tools\MSVC\14.29.30133\include\xmemory

; 85   :         return ::operator new(_Bytes);

  0006a	6a 0c		 push	 12			; 0000000cH
; File C:\Program Files (x86)\Microsoft Visual Studio\2019\Professional\VC\Tools\MSVC\14.29.30133\include\list

; 358  :     _List_val() noexcept : _Myhead(), _Mysize(0) {} // initialize data

  0006c	c7 45 e4 00 00
	00 00		 mov	 DWORD PTR _SlotList$[ebp], 0
  00073	c7 45 e8 00 00
	00 00		 mov	 DWORD PTR _SlotList$[ebp+4], 0
; File C:\Program Files (x86)\Microsoft Visual Studio\2019\Professional\VC\Tools\MSVC\14.29.30133\include\xmemory

; 85   :         return ::operator new(_Bytes);

  0007a	e8 00 00 00 00	 call	 ??2@YAPAXI@Z		; operator new
  0007f	83 c4 04	 add	 esp, 4
; File C:\Program Files (x86)\Microsoft Visual Studio\2019\Professional\VC\Tools\MSVC\14.29.30133\include\list

; 1776 :         _Construct_in_place(_Newhead->_Next, _Newhead);

  00082	89 00		 mov	 DWORD PTR [eax], eax

; 1777 :         _Construct_in_place(_Newhead->_Prev, _Newhead);

  00084	89 40 04	 mov	 DWORD PTR [eax+4], eax

; 1778 :         _Mypair._Myval2._Myhead = _Newhead;

  00087	89 45 e4	 mov	 DWORD PTR _SlotList$[ebp], eax
; File C:\Users\murat\Desktop\Siveps2-1-99-Project\source\client\Client\eterPythonLib\PythonGridSlotWindow.cpp

; 77   : 	if (!GetPickedSlotList(byWidth, byHeight, &SlotList))

  0008a	8d 45 e4	 lea	 eax, DWORD PTR _SlotList$[ebp]
  0008d	c7 45 fc 00 00
	00 00		 mov	 DWORD PTR __$EHRec$[ebp+8], 0
  00094	50		 push	 eax
  00095	0f b6 45 f3	 movzx	 eax, BYTE PTR _byHeight$[ebp]
  00099	8b cb		 mov	 ecx, ebx
  0009b	50		 push	 eax
  0009c	0f b6 45 f2	 movzx	 eax, BYTE PTR _byWidth$[ebp]
  000a0	50		 push	 eax
  000a1	e8 00 00 00 00	 call	 ?GetPickedSlotList@CGridSlotWindow@UI@@IAEHHHPAV?$list@PAUSSlot@CSlotWindow@UI@@V?$allocator@PAUSSlot@CSlotWindow@UI@@@std@@@std@@@Z ; UI::CGridSlotWindow::GetPickedSlotList
  000a6	85 c0		 test	 eax, eax
  000a8	0f 84 88 00 00
	00		 je	 $LN302@GetPickedS
; File C:\Program Files (x86)\Microsoft Visual Studio\2019\Professional\VC\Tools\MSVC\14.29.30133\include\list

; 39   :     _List_unchecked_const_iterator(_Nodeptr _Pnode, const _Mylist* _Plist) noexcept : _Ptr(_Pnode) {

  000ae	8b 7d e4	 mov	 edi, DWORD PTR _SlotList$[ebp]
; File C:\Users\murat\Desktop\Siveps2-1-99-Project\source\client\Client\eterPythonLib\PythonGridSlotWindow.cpp

; 80   : 	TSlot * pMinSlot = NULL;

  000b1	33 f6		 xor	 esi, esi
; File C:\Program Files (x86)\Microsoft Visual Studio\2019\Professional\VC\Tools\MSVC\14.29.30133\include\list

; 39   :     _List_unchecked_const_iterator(_Nodeptr _Pnode, const _Mylist* _Plist) noexcept : _Ptr(_Pnode) {

  000b3	8b 07		 mov	 eax, DWORD PTR [edi]

; 201  :         return this->_Ptr == _Right._Ptr;

  000b5	3b c7		 cmp	 eax, edi
; File C:\Users\murat\Desktop\Siveps2-1-99-Project\source\client\Client\eterPythonLib\PythonGridSlotWindow.cpp

; 84   : 	for (std::list<TSlot*>::iterator itor = SlotList.begin(); itor != SlotList.end(); ++itor)

  000b7	0f 84 7c 00 00
	00		 je	 $LN20@GetPickedS
  000bd	0f 1f 00	 npad	 3
$LL111@GetPickedS:

; 85   : 	{
; 86   : 		TSlot * pSlot = *itor;

  000c0	8b 50 08	 mov	 edx, DWORD PTR [eax+8]

; 87   : 
; 88   : 		// NOTE :            .
; 89   : 		//          ..    ? - [levites]
; 90   : 		if (!pMinSlot)

  000c3	85 f6		 test	 esi, esi
  000c5	75 04		 jne	 SHORT $LN7@GetPickedS

; 91   : 		{
; 92   : 			pMinSlot = pSlot;

  000c7	8b f2		 mov	 esi, edx

; 93   : 		}

  000c9	eb 19		 jmp	 SHORT $LN2@GetPickedS
$LN7@GetPickedS:

; 94   : 		else
; 95   : 		{
; 96   : 			if (pSlot->dwSlotNumber < pMinSlot->dwSlotNumber)

  000cb	8b 4a 04	 mov	 ecx, DWORD PTR [edx+4]
  000ce	3b 4e 04	 cmp	 ecx, DWORD PTR [esi+4]
  000d1	73 04		 jae	 SHORT $LN9@GetPickedS

; 97   : 			{
; 98   : 				pMinSlot = pSlot;

  000d3	8b f2		 mov	 esi, edx

; 99   : 			}

  000d5	eb 0d		 jmp	 SHORT $LN2@GetPickedS
$LN9@GetPickedS:

; 100  : 			else
; 101  : 			{
; 102  : 				if (!pMinSlot->isItem && pSlot->isItem)

  000d7	83 7e 10 00	 cmp	 DWORD PTR [esi+16], 0
  000db	75 07		 jne	 SHORT $LN2@GetPickedS
  000dd	83 7a 10 00	 cmp	 DWORD PTR [edx+16], 0
  000e1	0f 45 f2	 cmovne	 esi, edx
$LN2@GetPickedS:
; File C:\Program Files (x86)\Microsoft Visual Studio\2019\Professional\VC\Tools\MSVC\14.29.30133\include\list

; 168  :         this->_Ptr = this->_Ptr->_Next;

  000e4	8b 00		 mov	 eax, DWORD PTR [eax]

; 201  :         return this->_Ptr == _Right._Ptr;

  000e6	3b c7		 cmp	 eax, edi
; File C:\Users\murat\Desktop\Siveps2-1-99-Project\source\client\Client\eterPythonLib\PythonGridSlotWindow.cpp

; 84   : 	for (std::list<TSlot*>::iterator itor = SlotList.begin(); itor != SlotList.end(); ++itor)

  000e8	75 d6		 jne	 SHORT $LL111@GetPickedS

; 103  : 				{
; 104  : 					pMinSlot = pSlot;
; 105  : 				}
; 106  : 			}
; 107  : 		}
; 108  : 	}
; 109  : 
; 110  : 	if (!pMinSlot)

  000ea	85 f6		 test	 esi, esi
  000ec	74 4b		 je	 SHORT $LN20@GetPickedS

; 111  : 	{
; 112  : 		return FALSE;
; 113  : 	}
; 114  : 	else
; 115  : 	{
; 116  : 		TSlot * pCenterSlot;
; 117  : 		if (!GetSlotPointer(pMinSlot->dwCenterSlotNumber, &pCenterSlot))

  000ee	8d 45 ec	 lea	 eax, DWORD PTR _pCenterSlot$2[ebp]
  000f1	8b cb		 mov	 ecx, ebx
  000f3	50		 push	 eax
  000f4	ff 76 08	 push	 DWORD PTR [esi+8]
  000f7	e8 00 00 00 00	 call	 ?GetSlotPointer@CSlotWindow@UI@@IAEHKPAPAUSSlot@12@@Z ; UI::CSlotWindow::GetSlotPointer
  000fc	85 c0		 test	 eax, eax
  000fe	74 36		 je	 SHORT $LN302@GetPickedS

; 118  : 			return FALSE;
; 119  : 
; 120  : 		*ppSlot = pCenterSlot;

  00100	8b 7d 08	 mov	 edi, DWORD PTR _ppSlot$[ebp]
  00103	8b 45 ec	 mov	 eax, DWORD PTR _pCenterSlot$2[ebp]
  00106	89 07		 mov	 DWORD PTR [edi], eax

; 121  : 
; 122  : 		//     ..
; 123  : 		if (UI::CWindowManager::Instance().IsAttaching())

  00108	8b 0d 00 00 00
	00		 mov	 ecx, DWORD PTR ?ms_singleton@?$CSingleton@VCWindowManager@UI@@@@0PAVCWindowManager@UI@@A ; CSingleton<UI::CWindowManager>::ms_singleton
  0010e	e8 00 00 00 00	 call	 ?IsAttaching@CWindowManager@UI@@QAEHXZ ; UI::CWindowManager::IsAttaching
  00113	85 c0		 test	 eax, eax
  00115	74 15		 je	 SHORT $LN16@GetPickedS

; 124  : 		{
; 125  : 			DWORD dwSlotNumber = UI::CWindowManager::Instance().GetAttachingSlotNumber();

  00117	8b 0d 00 00 00
	00		 mov	 ecx, DWORD PTR ?ms_singleton@?$CSingleton@VCWindowManager@UI@@@@0PAVCWindowManager@UI@@A ; CSingleton<UI::CWindowManager>::ms_singleton
  0011d	e8 00 00 00 00	 call	 ?GetAttachingSlotNumber@CWindowManager@UI@@QAEKXZ ; UI::CWindowManager::GetAttachingSlotNumber

; 126  : 
; 127  : 			if (dwSlotNumber == pCenterSlot->dwSlotNumber)

  00122	8b 4d ec	 mov	 ecx, DWORD PTR _pCenterSlot$2[ebp]
  00125	3b 41 04	 cmp	 eax, DWORD PTR [ecx+4]
  00128	75 02		 jne	 SHORT $LN16@GetPickedS

; 128  : 			{
; 129  : 				*ppSlot = pMinSlot;

  0012a	89 37		 mov	 DWORD PTR [edi], esi
$LN16@GetPickedS:

; 134  : 	return TRUE;

  0012c	8b 7d e4	 mov	 edi, DWORD PTR _SlotList$[ebp]
  0012f	bb 01 00 00 00	 mov	 ebx, 1
  00134	eb 05		 jmp	 SHORT $LN21@GetPickedS
$LN302@GetPickedS:

; 77   : 	if (!GetPickedSlotList(byWidth, byHeight, &SlotList))

  00136	8b 7d e4	 mov	 edi, DWORD PTR _SlotList$[ebp]
$LN20@GetPickedS:
  00139	33 db		 xor	 ebx, ebx
$LN21@GetPickedS:
; File C:\Program Files (x86)\Microsoft Visual Studio\2019\Professional\VC\Tools\MSVC\14.29.30133\include\list

; 328  :         _Head->_Prev->_Next = nullptr;

  0013b	8b 47 04	 mov	 eax, DWORD PTR [edi+4]
  0013e	c7 00 00 00 00
	00		 mov	 DWORD PTR [eax], 0

; 329  : 
; 330  :         auto _Pnode = _Head->_Next;

  00144	8b 07		 mov	 eax, DWORD PTR [edi]

; 331  :         for (_Nodeptr _Pnext; _Pnode; _Pnode = _Pnext) {

  00146	85 c0		 test	 eax, eax
  00148	74 19		 je	 SHORT $LN244@GetPickedS
  0014a	66 0f 1f 44 00
	00		 npad	 6
$LL245@GetPickedS:

; 332  :             _Pnext = _Pnode->_Next;

  00150	8b 30		 mov	 esi, DWORD PTR [eax]
; File C:\Program Files (x86)\Microsoft Visual Studio\2019\Professional\VC\Tools\MSVC\14.29.30133\include\xmemory

; 264  :         ::operator delete(_Ptr, _Bytes);

  00152	6a 0c		 push	 12			; 0000000cH
  00154	50		 push	 eax
  00155	e8 00 00 00 00	 call	 ??3@YAXPAXI@Z		; operator delete
  0015a	83 c4 08	 add	 esp, 8
; File C:\Program Files (x86)\Microsoft Visual Studio\2019\Professional\VC\Tools\MSVC\14.29.30133\include\list

; 331  :         for (_Nodeptr _Pnext; _Pnode; _Pnode = _Pnext) {

  0015d	8b c6		 mov	 eax, esi
  0015f	85 f6		 test	 esi, esi
  00161	75 ed		 jne	 SHORT $LL245@GetPickedS
$LN244@GetPickedS:
; File C:\Program Files (x86)\Microsoft Visual Studio\2019\Professional\VC\Tools\MSVC\14.29.30133\include\xmemory

; 264  :         ::operator delete(_Ptr, _Bytes);

  00163	6a 0c		 push	 12			; 0000000cH
  00165	ff 75 e4	 push	 DWORD PTR _SlotList$[ebp]
  00168	e8 00 00 00 00	 call	 ??3@YAXPAXI@Z		; operator delete
  0016d	83 c4 08	 add	 esp, 8
; File C:\Users\murat\Desktop\Siveps2-1-99-Project\source\client\Client\eterPythonLib\PythonGridSlotWindow.cpp

; 134  : 	return TRUE;

  00170	8b c3		 mov	 eax, ebx

; 135  : }

  00172	8b 4d f4	 mov	 ecx, DWORD PTR __$EHRec$[ebp]
  00175	64 89 0d 00 00
	00 00		 mov	 DWORD PTR fs:0, ecx
  0017c	59		 pop	 ecx
  0017d	5f		 pop	 edi
  0017e	5e		 pop	 esi
  0017f	5b		 pop	 ebx
  00180	8b e5		 mov	 esp, ebp
  00182	5d		 pop	 ebp
  00183	c2 04 00	 ret	 4
_TEXT	ENDS
;	COMDAT text$x
text$x	SEGMENT
__unwindfunclet$?GetPickedSlotPointer@CGridSlotWindow@UI@@MAEHPAPAUSSlot@CSlotWindow@2@@Z$0:
  00000	8d 4d e4	 lea	 ecx, DWORD PTR _SlotList$[ebp]
  00003	e9 00 00 00 00	 jmp	 ??1?$list@PAUSSlot@CSlotWindow@UI@@V?$allocator@PAUSSlot@CSlotWindow@UI@@@std@@@std@@QAE@XZ ; std::list<UI::CSlotWindow::SSlot *,std::allocator<UI::CSlotWindow::SSlot *> >::~list<UI::CSlotWindow::SSlot *,std::allocator<UI::CSlotWindow::SSlot *> >
  00008	cc		 int	 3
  00009	cc		 int	 3
  0000a	cc		 int	 3
  0000b	cc		 int	 3
  0000c	cc		 int	 3
__ehhandler$?GetPickedSlotPointer@CGridSlotWindow@UI@@MAEHPAPAUSSlot@CSlotWindow@2@@Z:
  0000d	90		 npad	 1
  0000e	90		 npad	 1
  0000f	8b 54 24 08	 mov	 edx, DWORD PTR [esp+8]
  00013	8d 42 0c	 lea	 eax, DWORD PTR [edx+12]
  00016	8b 4a e0	 mov	 ecx, DWORD PTR [edx-32]
  00019	33 c8		 xor	 ecx, eax
  0001b	e8 00 00 00 00	 call	 @__security_check_cookie@4
  00020	b8 00 00 00 00	 mov	 eax, OFFSET __ehfuncinfo$?GetPickedSlotPointer@CGridSlotWindow@UI@@MAEHPAPAUSSlot@CSlotWindow@2@@Z
  00025	e9 00 00 00 00	 jmp	 ___CxxFrameHandler3
text$x	ENDS
?GetPickedSlotPointer@CGridSlotWindow@UI@@MAEHPAPAUSSlot@CSlotWindow@2@@Z ENDP ; UI::CGridSlotWindow::GetPickedSlotPointer
; Function compile flags: /Ogtp
; File C:\Users\murat\Desktop\Siveps2-1-99-Project\source\client\Client\eterPythonLib\PythonGridSlotWindow.cpp
;	COMDAT ?__Initialize@CGridSlotWindow@UI@@IAEXXZ
_TEXT	SEGMENT
?__Initialize@CGridSlotWindow@UI@@IAEXXZ PROC		; UI::CGridSlotWindow::__Initialize, COMDAT
; _this$ = ecx

; 376  : 	m_dwxCount = 0;

  00000	c7 81 c8 00 00
	00 00 00 00 00	 mov	 DWORD PTR [ecx+200], 0

; 377  : 	m_dwyCount = 0;

  0000a	c7 81 cc 00 00
	00 00 00 00 00	 mov	 DWORD PTR [ecx+204], 0

; 378  : }

  00014	c3		 ret	 0
?__Initialize@CGridSlotWindow@UI@@IAEXXZ ENDP		; UI::CGridSlotWindow::__Initialize
_TEXT	ENDS
; Function compile flags: /Ogtp
; File C:\Users\murat\Desktop\Siveps2-1-99-Project\source\client\Client\eterPythonLib\PythonGridSlotWindow.cpp
; File C:\Program Files (x86)\Microsoft Visual Studio\2019\Professional\VC\Tools\MSVC\14.29.30133\include\vector
; File C:\Program Files (x86)\Microsoft Visual Studio\2019\Professional\VC\Tools\MSVC\14.29.30133\include\xmemory
; File C:\Program Files (x86)\Microsoft Visual Studio\2019\Professional\VC\Tools\MSVC\14.29.30133\include\vector
; File C:\Users\murat\Desktop\Siveps2-1-99-Project\source\client\Client\eterPythonLib\PythonGridSlotWindow.cpp
; File C:\Program Files (x86)\Microsoft Visual Studio\2019\Professional\VC\Tools\MSVC\14.29.30133\include\xutility
; File C:\Users\murat\Desktop\Siveps2-1-99-Project\source\client\Client\eterPythonLib\PythonGridSlotWindow.cpp
; File C:\Program Files (x86)\Microsoft Visual Studio\2019\Professional\VC\Tools\MSVC\14.29.30133\include\xutility
; File C:\Program Files (x86)\Microsoft Visual Studio\2019\Professional\VC\Tools\MSVC\14.29.30133\include\list
; File C:\Users\murat\Desktop\Siveps2-1-99-Project\source\client\Client\eterPythonLib\PythonGridSlotWindow.cpp
; File C:\Program Files (x86)\Microsoft Visual Studio\2019\Professional\VC\Tools\MSVC\14.29.30133\include\list
; File C:\Users\murat\Desktop\Siveps2-1-99-Project\source\client\Client\eterPythonLib\PythonGridSlotWindow.cpp
;	COMDAT ?ArrangeGridSlot@CGridSlotWindow@UI@@QAEXKKKHHHH@Z
_TEXT	SEGMENT
tv575 = -28						; size = 4
tv568 = -24						; size = 4
tv576 = -20						; size = 4
_x$1$ = -16						; size = 4
tv579 = -12						; size = 4
_this$1$ = -8						; size = 4
$T1 = -1						; size = 1
_dwStartIndex$ = 8					; size = 4
_dwxCount$ = 12						; size = 4
_dwyCount$ = 16						; size = 4
_ixSlotSize$ = 20					; size = 4
_iySlotSize$ = 24					; size = 4
_ixTemporarySize$ = 28					; size = 4
_iyTemporarySize$ = 32					; size = 4
?ArrangeGridSlot@CGridSlotWindow@UI@@QAEXKKKHHHH@Z PROC	; UI::CGridSlotWindow::ArrangeGridSlot, COMDAT
; _this$ = ecx

; 276  : {

  00000	55		 push	 ebp
  00001	8b ec		 mov	 ebp, esp
  00003	83 ec 1c	 sub	 esp, 28			; 0000001cH
  00006	53		 push	 ebx
  00007	56		 push	 esi
  00008	57		 push	 edi
  00009	89 4d f8	 mov	 DWORD PTR _this$1$[ebp], ecx

; 277  : 	Destroy();

  0000c	e8 00 00 00 00	 call	 ?Destroy@CGridSlotWindow@UI@@QAEXXZ ; UI::CGridSlotWindow::Destroy

; 278  : 
; 279  : 	m_dwxCount = dwxCount;

  00011	8b 5d 0c	 mov	 ebx, DWORD PTR _dwxCount$[ebp]

; 280  : 	m_dwyCount = dwyCount;
; 281  : 
; 282  : 	m_SlotVector.clear();
; 283  : 	m_SlotVector.resize(dwxCount*dwyCount);

  00014	8b cb		 mov	 ecx, ebx
  00016	8b 55 f8	 mov	 edx, DWORD PTR _this$1$[ebp]
  00019	8b 45 10	 mov	 eax, DWORD PTR _dwyCount$[ebp]
  0001c	8d ba d0 00 00
	00		 lea	 edi, DWORD PTR [edx+208]
  00022	8b 37		 mov	 esi, DWORD PTR [edi]
  00024	0f af c8	 imul	 ecx, eax
  00027	89 9a c8 00 00
	00		 mov	 DWORD PTR [edx+200], ebx
  0002d	89 82 cc 00 00
	00		 mov	 DWORD PTR [edx+204], eax
  00033	89 77 04	 mov	 DWORD PTR [edi+4], esi
; File C:\Program Files (x86)\Microsoft Visual Studio\2019\Professional\VC\Tools\MSVC\14.29.30133\include\vector

; 1272 :         if (_Newsize > _Oldsize) { // append

  00036	85 c9		 test	 ecx, ecx
  00038	74 2e		 je	 SHORT $LN13@ArrangeGri

; 1273 :             const auto _Oldcapacity = static_cast<size_type>(_My_data._Myend - _Myfirst);

  0003a	8b 47 08	 mov	 eax, DWORD PTR [edi+8]
  0003d	2b c6		 sub	 eax, esi
  0003f	c1 f8 02	 sar	 eax, 2

; 1274 :             if (_Newsize > _Oldcapacity) { // reallocate

  00042	3b c8		 cmp	 ecx, eax
  00044	76 0e		 jbe	 SHORT $LN14@ArrangeGri

; 1275 :                 _Resize_reallocate(_Newsize, _Val);

  00046	8d 45 ff	 lea	 eax, DWORD PTR $T1[ebp]
  00049	50		 push	 eax
  0004a	51		 push	 ecx
  0004b	8b cf		 mov	 ecx, edi
  0004d	e8 00 00 00 00	 call	 ??$_Resize_reallocate@U_Value_init_tag@std@@@?$vector@PAUSSlot@CSlotWindow@UI@@V?$allocator@PAUSSlot@CSlotWindow@UI@@@std@@@std@@AAEXIABU_Value_init_tag@1@@Z ; std::vector<UI::CSlotWindow::SSlot *,std::allocator<UI::CSlotWindow::SSlot *> >::_Resize_reallocate<std::_Value_init_tag>

; 1276 :                 return;

  00052	eb 11		 jmp	 SHORT $LN65@ArrangeGri
$LN14@ArrangeGri:
; File C:\Program Files (x86)\Microsoft Visual Studio\2019\Professional\VC\Tools\MSVC\14.29.30133\include\xmemory

; 1824 :             _Zero_range(_PFirst, _PFirst + _Count);

  00054	8d 34 8e	 lea	 esi, DWORD PTR [esi+ecx*4]
  00057	56		 push	 esi
  00058	ff 37		 push	 DWORD PTR [edi]
  0005a	e8 00 00 00 00	 call	 ??$_Zero_range@PAPAUSSlot@CSlotWindow@UI@@@std@@YAPAPAUSSlot@CSlotWindow@UI@@QAPAU123@0@Z ; std::_Zero_range<UI::CSlotWindow::SSlot * *>
  0005f	83 c4 08	 add	 esp, 8
; File C:\Program Files (x86)\Microsoft Visual Studio\2019\Professional\VC\Tools\MSVC\14.29.30133\include\vector

; 1280 :             _Mylast                = _Ufill(_Oldlast, _Newsize - _Oldsize, _Val);

  00062	89 77 04	 mov	 DWORD PTR [edi+4], esi
$LN65@ArrangeGri:
; File C:\Users\murat\Desktop\Siveps2-1-99-Project\source\client\Client\eterPythonLib\PythonGridSlotWindow.cpp

; 285  : 	for (DWORD x = 0; x < dwxCount; ++x)

  00065	8b 55 f8	 mov	 edx, DWORD PTR _this$1$[ebp]
$LN13@ArrangeGri:
  00068	8b 4d 10	 mov	 ecx, DWORD PTR _dwyCount$[ebp]
  0006b	33 c0		 xor	 eax, eax
  0006d	89 45 f0	 mov	 DWORD PTR _x$1$[ebp], eax
  00070	85 db		 test	 ebx, ebx
  00072	0f 84 87 00 00
	00		 je	 $LN3@ArrangeGri
$LL4@ArrangeGri:

; 286  : 	for (DWORD y = 0; y < dwyCount; ++y)

  00078	85 c9		 test	 ecx, ecx
  0007a	74 77		 je	 SHORT $LN2@ArrangeGri
  0007c	8b 4d 14	 mov	 ecx, DWORD PTR _ixSlotSize$[ebp]
  0007f	33 f6		 xor	 esi, esi
  00081	03 4d 1c	 add	 ecx, DWORD PTR _ixTemporarySize$[ebp]
  00084	8b 7d 18	 mov	 edi, DWORD PTR _iySlotSize$[ebp]
  00087	03 7d 20	 add	 edi, DWORD PTR _iyTemporarySize$[ebp]
  0008a	8b 55 f8	 mov	 edx, DWORD PTR _this$1$[ebp]
  0008d	c1 e3 02	 shl	 ebx, 2
  00090	0f af c8	 imul	 ecx, eax
  00093	89 5d e8	 mov	 DWORD PTR tv568[ebp], ebx
  00096	8b 5d 08	 mov	 ebx, DWORD PTR _dwStartIndex$[ebp]
  00099	89 7d ec	 mov	 DWORD PTR tv576[ebp], edi
  0009c	03 d8		 add	 ebx, eax
  0009e	8d 3c 85 00 00
	00 00		 lea	 edi, DWORD PTR [eax*4]
  000a5	8b 45 10	 mov	 eax, DWORD PTR _dwyCount$[ebp]
  000a8	89 4d e4	 mov	 DWORD PTR tv575[ebp], ecx
  000ab	89 45 f4	 mov	 DWORD PTR tv579[ebp], eax
  000ae	66 90		 npad	 2
$LL7@ArrangeGri:

; 287  : 	{
; 288  : 		DWORD dwIndex = dwStartIndex + x + y * dwxCount;
; 289  : 		int ixPosition = x * (ixSlotSize + ixTemporarySize);
; 290  : 		int iyPosition = y * (iySlotSize + iyTemporarySize);
; 291  : 
; 292  : 		AppendSlot(dwIndex, ixPosition, iyPosition, ixSlotSize, iySlotSize);

  000b0	ff 75 18	 push	 DWORD PTR _iySlotSize$[ebp]
  000b3	ff 75 14	 push	 DWORD PTR _ixSlotSize$[ebp]
  000b6	56		 push	 esi
  000b7	51		 push	 ecx
  000b8	53		 push	 ebx
  000b9	8b ca		 mov	 ecx, edx
  000bb	e8 00 00 00 00	 call	 ?AppendSlot@CSlotWindow@UI@@QAEXKHHHH@Z ; UI::CSlotWindow::AppendSlot
; File C:\Program Files (x86)\Microsoft Visual Studio\2019\Professional\VC\Tools\MSVC\14.29.30133\include\xutility

; 1660 :         : current(_STD move(_Right)) {}

  000c0	8b 55 f8	 mov	 edx, DWORD PTR _this$1$[ebp]
; File C:\Users\murat\Desktop\Siveps2-1-99-Project\source\client\Client\eterPythonLib\PythonGridSlotWindow.cpp

; 286  : 	for (DWORD y = 0; y < dwyCount; ++y)

  000c3	03 75 ec	 add	 esi, DWORD PTR tv576[ebp]
  000c6	03 5d 0c	 add	 ebx, DWORD PTR _dwxCount$[ebp]
; File C:\Program Files (x86)\Microsoft Visual Studio\2019\Professional\VC\Tools\MSVC\14.29.30133\include\xutility

; 1660 :         : current(_STD move(_Right)) {}

  000c9	8b 82 8c 00 00
	00		 mov	 eax, DWORD PTR [edx+140]
; File C:\Program Files (x86)\Microsoft Visual Studio\2019\Professional\VC\Tools\MSVC\14.29.30133\include\list

; 186  :         this->_Ptr = _New_ptr;

  000cf	8b 48 04	 mov	 ecx, DWORD PTR [eax+4]
; File C:\Users\murat\Desktop\Siveps2-1-99-Project\source\client\Client\eterPythonLib\PythonGridSlotWindow.cpp

; 294  : 		m_SlotVector[x+y*dwxCount] = &(*m_SlotList.rbegin());

  000d2	8b 82 d0 00 00
	00		 mov	 eax, DWORD PTR [edx+208]
; File C:\Program Files (x86)\Microsoft Visual Studio\2019\Professional\VC\Tools\MSVC\14.29.30133\include\list

; 186  :         this->_Ptr = _New_ptr;

  000d8	83 c1 08	 add	 ecx, 8
; File C:\Users\murat\Desktop\Siveps2-1-99-Project\source\client\Client\eterPythonLib\PythonGridSlotWindow.cpp

; 294  : 		m_SlotVector[x+y*dwxCount] = &(*m_SlotList.rbegin());

  000db	89 0c 07	 mov	 DWORD PTR [edi+eax], ecx
  000de	03 7d e8	 add	 edi, DWORD PTR tv568[ebp]
  000e1	83 6d f4 01	 sub	 DWORD PTR tv579[ebp], 1
  000e5	8b 4d e4	 mov	 ecx, DWORD PTR tv575[ebp]
  000e8	75 c6		 jne	 SHORT $LL7@ArrangeGri
  000ea	8b 45 f0	 mov	 eax, DWORD PTR _x$1$[ebp]
  000ed	8b 5d 0c	 mov	 ebx, DWORD PTR _dwxCount$[ebp]
  000f0	8b 4d 10	 mov	 ecx, DWORD PTR _dwyCount$[ebp]
$LN2@ArrangeGri:

; 285  : 	for (DWORD x = 0; x < dwxCount; ++x)

  000f3	40		 inc	 eax
  000f4	89 45 f0	 mov	 DWORD PTR _x$1$[ebp], eax
  000f7	3b c3		 cmp	 eax, ebx
  000f9	0f 82 79 ff ff
	ff		 jb	 $LL4@ArrangeGri
$LN3@ArrangeGri:

; 295  : 	}
; 296  : 
; 297  : 	int iWidth = dwxCount * (ixSlotSize + ixTemporarySize);
; 298  : 	int iHeight = dwyCount * (iySlotSize + iyTemporarySize);

  000ff	8b 45 18	 mov	 eax, DWORD PTR _iySlotSize$[ebp]
  00102	03 45 20	 add	 eax, DWORD PTR _iyTemporarySize$[ebp]
  00105	0f af c1	 imul	 eax, ecx

; 299  : 	SetSize(iWidth, iHeight);

  00108	8b ca		 mov	 ecx, edx
  0010a	50		 push	 eax
  0010b	8b 45 14	 mov	 eax, DWORD PTR _ixSlotSize$[ebp]
  0010e	03 45 1c	 add	 eax, DWORD PTR _ixTemporarySize$[ebp]
  00111	0f af c3	 imul	 eax, ebx
  00114	50		 push	 eax
  00115	e8 00 00 00 00	 call	 ?SetSize@CWindow@UI@@QAEXJJ@Z ; UI::CWindow::SetSize
  0011a	5f		 pop	 edi
  0011b	5e		 pop	 esi
  0011c	5b		 pop	 ebx

; 300  : }

  0011d	8b e5		 mov	 esp, ebp
  0011f	5d		 pop	 ebp
  00120	c2 1c 00	 ret	 28			; 0000001cH
?ArrangeGridSlot@CGridSlotWindow@UI@@QAEXKKKHHHH@Z ENDP	; UI::CGridSlotWindow::ArrangeGridSlot
_TEXT	ENDS
; Function compile flags: /Ogtp
; File C:\Users\murat\Desktop\Siveps2-1-99-Project\source\client\Client\eterPythonLib\PythonGridSlotWindow.cpp
;	COMDAT ?Destroy@CGridSlotWindow@UI@@QAEXXZ
_TEXT	SEGMENT
?Destroy@CGridSlotWindow@UI@@QAEXXZ PROC		; UI::CGridSlotWindow::Destroy, COMDAT
; _this$ = ecx

; 366  : {

  00000	56		 push	 esi
  00001	8b f1		 mov	 esi, ecx

; 367  : 	CSlotWindow::Destroy();

  00003	e8 00 00 00 00	 call	 ?Destroy@CSlotWindow@UI@@QAEXXZ ; UI::CSlotWindow::Destroy

; 368  : 
; 369  : 	m_SlotVector.clear();

  00008	8b 86 d0 00 00
	00		 mov	 eax, DWORD PTR [esi+208]

; 370  : 
; 371  : 	__Initialize();

  0000e	8b ce		 mov	 ecx, esi
  00010	89 86 d4 00 00
	00		 mov	 DWORD PTR [esi+212], eax
  00016	5e		 pop	 esi
  00017	e9 00 00 00 00	 jmp	 ?__Initialize@CGridSlotWindow@UI@@IAEXXZ ; UI::CGridSlotWindow::__Initialize
?Destroy@CGridSlotWindow@UI@@QAEXXZ ENDP		; UI::CGridSlotWindow::Destroy
_TEXT	ENDS
; Function compile flags: /Ogtp
; File C:\Users\murat\Desktop\Siveps2-1-99-Project\source\client\Client\eterPythonLib\PythonGridSlotWindow.cpp
; File C:\Program Files (x86)\Microsoft Visual Studio\2019\Professional\VC\Tools\MSVC\14.29.30133\include\vector
; File C:\Program Files (x86)\Microsoft Visual Studio\2019\Professional\VC\Tools\MSVC\14.29.30133\include\xmemory
; File C:\Program Files (x86)\Microsoft Visual Studio\2019\Professional\VC\Tools\MSVC\14.29.30133\include\vector
; File C:\Program Files (x86)\Microsoft Visual Studio\2019\Professional\VC\Tools\MSVC\14.29.30133\include\xmemory
; File C:\Program Files (x86)\Microsoft Visual Studio\2019\Professional\VC\Tools\MSVC\14.29.30133\include\vector
; File C:\Users\murat\Desktop\Siveps2-1-99-Project\source\client\Client\eterPythonLib\PythonGridSlotWindow.cpp
; File C:\Program Files (x86)\Microsoft Visual Studio\2019\Professional\VC\Tools\MSVC\14.29.30133\include\xmemory
; File C:\Users\murat\Desktop\Siveps2-1-99-Project\source\client\Client\eterPythonLib\PythonGridSlotWindow.cpp
;	COMDAT ??1CGridSlotWindow@UI@@UAE@XZ
_TEXT	SEGMENT
??1CGridSlotWindow@UI@@UAE@XZ PROC			; UI::CGridSlotWindow::~CGridSlotWindow, COMDAT
; _this$ = ecx

; 399  : {

  00000	56		 push	 esi
  00001	8b f1		 mov	 esi, ecx
  00003	c7 06 00 00 00
	00		 mov	 DWORD PTR [esi], OFFSET ??_7CGridSlotWindow@UI@@6B@
; File C:\Program Files (x86)\Microsoft Visual Studio\2019\Professional\VC\Tools\MSVC\14.29.30133\include\vector

; 1763 :         if (_Myfirst) { // destroy and deallocate old array

  00009	8b 86 d0 00 00
	00		 mov	 eax, DWORD PTR [esi+208]
  0000f	85 c0		 test	 eax, eax
  00011	74 4d		 je	 SHORT $LN6@CGridSlotW

; 1764 :             _Destroy(_Myfirst, _Mylast);
; 1765 :             _Getal().deallocate(_Myfirst, static_cast<size_type>(_Myend - _Myfirst));

  00013	8b 8e d8 00 00
	00		 mov	 ecx, DWORD PTR [esi+216]
  00019	2b c8		 sub	 ecx, eax
; File C:\Program Files (x86)\Microsoft Visual Studio\2019\Professional\VC\Tools\MSVC\14.29.30133\include\xmemory

; 835  :         _Deallocate<_New_alignof<_Ty>>(_Ptr, sizeof(_Ty) * _Count);

  0001b	83 e1 fc	 and	 ecx, -4			; fffffffcH

; 260  :         if (_Bytes >= _Big_allocation_threshold) { // boost the alignment of big allocations to help autovectorization

  0001e	81 f9 00 10 00
	00		 cmp	 ecx, 4096		; 00001000H
  00024	72 12		 jb	 SHORT $LN22@CGridSlotW

; 158  :     const uintptr_t _Ptr_container   = _Ptr_user[-1];

  00026	8b 50 fc	 mov	 edx, DWORD PTR [eax-4]
  00029	83 c1 23	 add	 ecx, 35			; 00000023H

; 159  : 
; 160  :     // If the following asserts, it likely means that we are performing
; 161  :     // an aligned delete on memory coming from an unaligned allocation.
; 162  :     _STL_ASSERT(_Ptr_user[-2] == _Big_allocation_sentinel, "invalid argument");
; 163  : 
; 164  :     // Extra paranoia on aligned allocation/deallocation; ensure _Ptr_container is
; 165  :     // in range [_Min_back_shift, _Non_user_size]
; 166  : #ifdef _DEBUG
; 167  :     constexpr uintptr_t _Min_back_shift = 2 * sizeof(void*);
; 168  : #else // ^^^ _DEBUG ^^^ // vvv !_DEBUG vvv
; 169  :     constexpr uintptr_t _Min_back_shift = sizeof(void*);
; 170  : #endif // _DEBUG
; 171  :     const uintptr_t _Back_shift = reinterpret_cast<uintptr_t>(_Ptr) - _Ptr_container;

  0002c	2b c2		 sub	 eax, edx

; 172  :     _STL_VERIFY(_Back_shift >= _Min_back_shift && _Back_shift <= _Non_user_size, "invalid argument");

  0002e	83 c0 fc	 add	 eax, -4			; fffffffcH
  00031	83 f8 1f	 cmp	 eax, 31			; 0000001fH
  00034	77 32		 ja	 SHORT $LN19@CGridSlotW

; 173  :     _Ptr = reinterpret_cast<void*>(_Ptr_container);

  00036	8b c2		 mov	 eax, edx
$LN22@CGridSlotW:

; 264  :         ::operator delete(_Ptr, _Bytes);

  00038	51		 push	 ecx
  00039	50		 push	 eax
  0003a	e8 00 00 00 00	 call	 ??3@YAXPAXI@Z		; operator delete
; File C:\Program Files (x86)\Microsoft Visual Studio\2019\Professional\VC\Tools\MSVC\14.29.30133\include\vector

; 1767 :             _Myfirst = nullptr;

  0003f	c7 86 d0 00 00
	00 00 00 00 00	 mov	 DWORD PTR [esi+208], 0
; File C:\Program Files (x86)\Microsoft Visual Studio\2019\Professional\VC\Tools\MSVC\14.29.30133\include\xmemory

; 264  :         ::operator delete(_Ptr, _Bytes);

  00049	83 c4 08	 add	 esp, 8
; File C:\Program Files (x86)\Microsoft Visual Studio\2019\Professional\VC\Tools\MSVC\14.29.30133\include\vector

; 1768 :             _Mylast  = nullptr;

  0004c	c7 86 d4 00 00
	00 00 00 00 00	 mov	 DWORD PTR [esi+212], 0

; 1769 :             _Myend   = nullptr;

  00056	c7 86 d8 00 00
	00 00 00 00 00	 mov	 DWORD PTR [esi+216], 0
$LN6@CGridSlotW:
; File C:\Users\murat\Desktop\Siveps2-1-99-Project\source\client\Client\eterPythonLib\PythonGridSlotWindow.cpp

; 400  : }

  00060	8b ce		 mov	 ecx, esi
  00062	5e		 pop	 esi
  00063	e9 00 00 00 00	 jmp	 ??1CSlotWindow@UI@@UAE@XZ ; UI::CSlotWindow::~CSlotWindow
$LN19@CGridSlotW:
; File C:\Program Files (x86)\Microsoft Visual Studio\2019\Professional\VC\Tools\MSVC\14.29.30133\include\xmemory

; 172  :     _STL_VERIFY(_Back_shift >= _Min_back_shift && _Back_shift <= _Non_user_size, "invalid argument");

  00068	e8 00 00 00 00	 call	 __invalid_parameter_noinfo_noreturn
$LN28@CGridSlotW:
  0006d	cc		 int	 3
??1CGridSlotWindow@UI@@UAE@XZ ENDP			; UI::CGridSlotWindow::~CGridSlotWindow
_TEXT	ENDS
; Function compile flags: /Ogtp
; File C:\Users\murat\Desktop\Siveps2-1-99-Project\source\client\Client\eterPythonLib\PythonGridSlotWindow.cpp
; File C:\Program Files (x86)\Microsoft Visual Studio\2019\Professional\VC\Tools\MSVC\14.29.30133\include\vector
; File C:\Users\murat\Desktop\Siveps2-1-99-Project\source\client\Client\eterPythonLib\PythonGridSlotWindow.cpp
;	COMDAT ??0CGridSlotWindow@UI@@QAE@PAU_object@@@Z
_TEXT	SEGMENT
_this$ = -4						; size = 4
_ppyObject$ = 8						; size = 4
??0CGridSlotWindow@UI@@QAE@PAU_object@@@Z PROC		; UI::CGridSlotWindow::CGridSlotWindow, COMDAT
; _this$ = ecx

; 395  : {

  00000	55		 push	 ebp
  00001	8b ec		 mov	 ebp, esp
  00003	51		 push	 ecx
  00004	56		 push	 esi
  00005	ff 75 08	 push	 DWORD PTR _ppyObject$[ebp]
  00008	8b f1		 mov	 esi, ecx
  0000a	89 75 fc	 mov	 DWORD PTR _this$[ebp], esi
  0000d	e8 00 00 00 00	 call	 ??0CSlotWindow@UI@@QAE@PAU_object@@@Z ; UI::CSlotWindow::CSlotWindow
  00012	c7 06 00 00 00
	00		 mov	 DWORD PTR [esi], OFFSET ??_7CGridSlotWindow@UI@@6B@

; 396  : }

  00018	8b c6		 mov	 eax, esi
; File C:\Program Files (x86)\Microsoft Visual Studio\2019\Professional\VC\Tools\MSVC\14.29.30133\include\vector

; 401  :     _CONSTEXPR20_CONTAINER _Vector_val() noexcept : _Myfirst(), _Mylast(), _Myend() {}

  0001a	c7 86 d0 00 00
	00 00 00 00 00	 mov	 DWORD PTR [esi+208], 0
  00024	c7 86 d4 00 00
	00 00 00 00 00	 mov	 DWORD PTR [esi+212], 0
  0002e	c7 86 d8 00 00
	00 00 00 00 00	 mov	 DWORD PTR [esi+216], 0
; File C:\Users\murat\Desktop\Siveps2-1-99-Project\source\client\Client\eterPythonLib\PythonGridSlotWindow.cpp

; 396  : }

  00038	5e		 pop	 esi
  00039	8b e5		 mov	 esp, ebp
  0003b	5d		 pop	 ebp
  0003c	c2 04 00	 ret	 4
??0CGridSlotWindow@UI@@QAE@PAU_object@@@Z ENDP		; UI::CGridSlotWindow::CGridSlotWindow
_TEXT	ENDS
; Function compile flags: /Ogtp
; File C:\Users\murat\Desktop\Siveps2-1-99-Project\source\client\Client\eterPythonLib\PythonGridSlotWindow.cpp
;	COMDAT ?Type@CGridSlotWindow@UI@@SAKXZ
_TEXT	SEGMENT
__$EHRec$ = -12						; size = 12
?Type@CGridSlotWindow@UI@@SAKXZ PROC			; UI::CGridSlotWindow::Type, COMDAT

; 381  : {

  00000	55		 push	 ebp
  00001	8b ec		 mov	 ebp, esp
  00003	6a ff		 push	 -1
  00005	68 00 00 00 00	 push	 __ehhandler$?Type@CGridSlotWindow@UI@@SAKXZ
  0000a	64 a1 00 00 00
	00		 mov	 eax, DWORD PTR fs:0
  00010	50		 push	 eax
  00011	a1 00 00 00 00	 mov	 eax, DWORD PTR ___security_cookie
  00016	33 c5		 xor	 eax, ebp
  00018	50		 push	 eax
  00019	8d 45 f4	 lea	 eax, DWORD PTR __$EHRec$[ebp]
  0001c	64 a3 00 00 00
	00		 mov	 DWORD PTR fs:0, eax

; 382  : 	static int s_Type = GetCRC32("CGridSlotWindow", strlen("CGridSlotWindow"));

  00022	64 a1 00 00 00
	00		 mov	 eax, DWORD PTR fs:__tls_array
  00028	8b 0d 00 00 00
	00		 mov	 ecx, DWORD PTR __tls_index
  0002e	8b 0c 88	 mov	 ecx, DWORD PTR [eax+ecx*4]
  00031	a1 00 00 00 00	 mov	 eax, DWORD PTR ?$TSS0@?1??Type@CGridSlotWindow@UI@@SAKXZ@4HA
  00036	3b 81 00 00 00
	00		 cmp	 eax, DWORD PTR __Init_thread_epoch[ecx]
  0003c	7f 14		 jg	 SHORT $LN9@Type
$LN5@Type:

; 383  : 	return s_Type;
; 384  : }

  0003e	a1 00 00 00 00	 mov	 eax, DWORD PTR ?s_Type@?1??Type@CGridSlotWindow@UI@@SAKXZ@4HA
  00043	8b 4d f4	 mov	 ecx, DWORD PTR __$EHRec$[ebp]
  00046	64 89 0d 00 00
	00 00		 mov	 DWORD PTR fs:0, ecx
  0004d	59		 pop	 ecx
  0004e	8b e5		 mov	 esp, ebp
  00050	5d		 pop	 ebp
  00051	c3		 ret	 0
$LN9@Type:

; 382  : 	static int s_Type = GetCRC32("CGridSlotWindow", strlen("CGridSlotWindow"));

  00052	68 00 00 00 00	 push	 OFFSET ?$TSS0@?1??Type@CGridSlotWindow@UI@@SAKXZ@4HA
  00057	e8 00 00 00 00	 call	 __Init_thread_header
  0005c	83 c4 04	 add	 esp, 4
  0005f	83 3d 00 00 00
	00 ff		 cmp	 DWORD PTR ?$TSS0@?1??Type@CGridSlotWindow@UI@@SAKXZ@4HA, -1
  00066	75 d6		 jne	 SHORT $LN5@Type
  00068	6a 0f		 push	 15			; 0000000fH
  0006a	68 00 00 00 00	 push	 OFFSET ??_C@_0BA@BFEGLPNH@CGridSlotWindow@
  0006f	c7 45 fc 00 00
	00 00		 mov	 DWORD PTR __$EHRec$[ebp+8], 0
  00076	e8 00 00 00 00	 call	 ?GetCRC32@@YAKPBDI@Z	; GetCRC32
  0007b	68 00 00 00 00	 push	 OFFSET ?$TSS0@?1??Type@CGridSlotWindow@UI@@SAKXZ@4HA
  00080	a3 00 00 00 00	 mov	 DWORD PTR ?s_Type@?1??Type@CGridSlotWindow@UI@@SAKXZ@4HA, eax
  00085	e8 00 00 00 00	 call	 __Init_thread_footer
  0008a	83 c4 0c	 add	 esp, 12			; 0000000cH
  0008d	eb af		 jmp	 SHORT $LN5@Type
_TEXT	ENDS
;	COMDAT text$x
text$x	SEGMENT
__unwindfunclet$?Type@CGridSlotWindow@UI@@SAKXZ$0:
  00000	68 00 00 00 00	 push	 OFFSET ?$TSS0@?1??Type@CGridSlotWindow@UI@@SAKXZ@4HA
  00005	e8 00 00 00 00	 call	 __Init_thread_abort
  0000a	59		 pop	 ecx
  0000b	c3		 ret	 0
  0000c	cc		 int	 3
  0000d	cc		 int	 3
  0000e	cc		 int	 3
  0000f	cc		 int	 3
  00010	cc		 int	 3
__ehhandler$?Type@CGridSlotWindow@UI@@SAKXZ:
  00011	90		 npad	 1
  00012	90		 npad	 1
  00013	8b 54 24 08	 mov	 edx, DWORD PTR [esp+8]
  00017	8d 42 0c	 lea	 eax, DWORD PTR [edx+12]
  0001a	8b 4a fc	 mov	 ecx, DWORD PTR [edx-4]
  0001d	33 c8		 xor	 ecx, eax
  0001f	e8 00 00 00 00	 call	 @__security_check_cookie@4
  00024	b8 00 00 00 00	 mov	 eax, OFFSET __ehfuncinfo$?Type@CGridSlotWindow@UI@@SAKXZ
  00029	e9 00 00 00 00	 jmp	 ___CxxFrameHandler3
text$x	ENDS
?Type@CGridSlotWindow@UI@@SAKXZ ENDP			; UI::CGridSlotWindow::Type
; Function compile flags: /Ogtp
; File C:\Users\murat\Desktop\Siveps2-1-99-Project\source\client\Client\eterPythonLib\PythonWindow.h
;	COMDAT ?IsWindow@CWindow@UI@@UAEHXZ
_TEXT	SEGMENT
?IsWindow@CWindow@UI@@UAEHXZ PROC			; UI::CWindow::IsWindow, COMDAT
; _this$ = ecx

; 164  : 			virtual BOOL	IsWindow() { return TRUE; }

  00000	b8 01 00 00 00	 mov	 eax, 1
  00005	c3		 ret	 0
?IsWindow@CWindow@UI@@UAEHXZ ENDP			; UI::CWindow::IsWindow
_TEXT	ENDS
; Function compile flags: /Ogtp
; File C:\Users\murat\Desktop\Siveps2-1-99-Project\source\client\Client\eterPythonLib\PythonWindow.h
;	COMDAT ?SetColor@CWindow@UI@@UAEXK@Z
_TEXT	SEGMENT
_dwColor$ = 8						; size = 4
?SetColor@CWindow@UI@@UAEXK@Z PROC			; UI::CWindow::SetColor, COMDAT
; _this$ = ecx

; 160  : 			virtual void	SetColor(DWORD dwColor){}

  00000	c2 04 00	 ret	 4
?SetColor@CWindow@UI@@UAEXK@Z ENDP			; UI::CWindow::SetColor
_TEXT	ENDS
; Function compile flags: /Ogtp
; File C:\Users\murat\Desktop\Siveps2-1-99-Project\source\client\Client\eterPythonLib\PythonWindow.h
;	COMDAT ?OnChangePosition@CWindow@UI@@UAEXXZ
_TEXT	SEGMENT
?OnChangePosition@CWindow@UI@@UAEXXZ PROC		; UI::CWindow::OnChangePosition, COMDAT
; _this$ = ecx

; 106  : 			virtual void	OnChangePosition(){}

  00000	c2 00 00	 ret	 0
?OnChangePosition@CWindow@UI@@UAEXXZ ENDP		; UI::CWindow::OnChangePosition
_TEXT	ENDS
; Function compile flags: /Ogtp
; File C:\Program Files (x86)\Microsoft Visual Studio\2019\Professional\VC\Tools\MSVC\14.29.30133\include\xmemory
;	COMDAT ??$_Allocate_manually_vector_aligned@U_Default_allocate_traits@std@@@std@@YAPAXI@Z
_TEXT	SEGMENT
__Bytes$ = 8						; size = 4
??$_Allocate_manually_vector_aligned@U_Default_allocate_traits@std@@@std@@YAPAXI@Z PROC ; std::_Allocate_manually_vector_aligned<std::_Default_allocate_traits>, COMDAT

; 134  : __declspec(allocator) void* _Allocate_manually_vector_aligned(const size_t _Bytes) {

  00000	55		 push	 ebp
  00001	8b ec		 mov	 ebp, esp

; 135  :     // allocate _Bytes manually aligned to at least _Big_allocation_alignment
; 136  :     const size_t _Block_size = _Non_user_size + _Bytes;

  00003	8b 45 08	 mov	 eax, DWORD PTR __Bytes$[ebp]
  00006	8d 48 23	 lea	 ecx, DWORD PTR [eax+35]

; 137  :     if (_Block_size <= _Bytes) {

  00009	3b c8		 cmp	 ecx, eax
  0000b	0f 86 00 00 00
	00		 jbe	 ?_Throw_bad_array_new_length@std@@YAXXZ ; std::_Throw_bad_array_new_length

; 85   :         return ::operator new(_Bytes);

  00011	51		 push	 ecx
  00012	e8 00 00 00 00	 call	 ??2@YAPAXI@Z		; operator new

; 138  :         _Throw_bad_array_new_length(); // add overflow
; 139  :     }
; 140  : 
; 141  :     const uintptr_t _Ptr_container = reinterpret_cast<uintptr_t>(_Traits::_Allocate(_Block_size));

  00017	8b c8		 mov	 ecx, eax

; 85   :         return ::operator new(_Bytes);

  00019	83 c4 04	 add	 esp, 4

; 142  :     _STL_VERIFY(_Ptr_container != 0, "invalid argument"); // validate even in release since we're doing p[-1]

  0001c	85 c9		 test	 ecx, ecx
  0001e	74 0b		 je	 SHORT $LN7@Allocate_m

; 143  :     void* const _Ptr = reinterpret_cast<void*>((_Ptr_container + _Non_user_size) & ~(_Big_allocation_alignment - 1));

  00020	8d 41 23	 lea	 eax, DWORD PTR [ecx+35]
  00023	83 e0 e0	 and	 eax, -32		; ffffffe0H

; 144  :     static_cast<uintptr_t*>(_Ptr)[-1] = _Ptr_container;

  00026	89 48 fc	 mov	 DWORD PTR [eax-4], ecx

; 145  : 
; 146  : #ifdef _DEBUG
; 147  :     static_cast<uintptr_t*>(_Ptr)[-2] = _Big_allocation_sentinel;
; 148  : #endif // _DEBUG
; 149  :     return _Ptr;
; 150  : }

  00029	5d		 pop	 ebp
  0002a	c3		 ret	 0
$LN7@Allocate_m:

; 142  :     _STL_VERIFY(_Ptr_container != 0, "invalid argument"); // validate even in release since we're doing p[-1]

  0002b	e9 00 00 00 00	 jmp	 __invalid_parameter_noinfo_noreturn
??$_Allocate_manually_vector_aligned@U_Default_allocate_traits@std@@@std@@YAPAXI@Z ENDP ; std::_Allocate_manually_vector_aligned<std::_Default_allocate_traits>
_TEXT	ENDS
; Function compile flags: /Ogtp
; File C:\Program Files (x86)\Microsoft Visual Studio\2019\Professional\VC\Tools\MSVC\14.29.30133\include\exception
;	COMDAT ?_Throw_bad_array_new_length@std@@YAXXZ
_TEXT	SEGMENT
$T1 = -12						; size = 12
?_Throw_bad_array_new_length@std@@YAXXZ PROC		; std::_Throw_bad_array_new_length, COMDAT

; 320  : [[noreturn]] inline void _Throw_bad_array_new_length() {

  00000	55		 push	 ebp
  00001	8b ec		 mov	 ebp, esp
  00003	83 ec 0c	 sub	 esp, 12			; 0000000cH

; 321  :     _THROW(bad_array_new_length{});

  00006	8d 4d f4	 lea	 ecx, DWORD PTR $T1[ebp]
  00009	e8 00 00 00 00	 call	 ??0bad_array_new_length@std@@QAE@XZ ; std::bad_array_new_length::bad_array_new_length
  0000e	68 00 00 00 00	 push	 OFFSET __TI3?AVbad_array_new_length@std@@
  00013	8d 45 f4	 lea	 eax, DWORD PTR $T1[ebp]
  00016	50		 push	 eax
  00017	e8 00 00 00 00	 call	 __CxxThrowException@8
$LN3@Throw_bad_:
  0001c	cc		 int	 3
?_Throw_bad_array_new_length@std@@YAXXZ ENDP		; std::_Throw_bad_array_new_length
_TEXT	ENDS
; Function compile flags: /Ogtp
; File C:\Program Files (x86)\Microsoft Visual Studio\2019\Professional\VC\Tools\MSVC\14.29.30133\include\vcruntime_exception.h
;	COMDAT ??_Gbad_array_new_length@std@@UAEPAXI@Z
_TEXT	SEGMENT
___flags$ = 8						; size = 4
??_Gbad_array_new_length@std@@UAEPAXI@Z PROC		; std::bad_array_new_length::`scalar deleting destructor', COMDAT
; _this$ = ecx
  00000	55		 push	 ebp
  00001	8b ec		 mov	 ebp, esp

; 89   :     {

  00003	56		 push	 esi
  00004	8b f1		 mov	 esi, ecx

; 90   :         __std_exception_destroy(&_Data);

  00006	8d 46 04	 lea	 eax, DWORD PTR [esi+4]
  00009	c7 06 00 00 00
	00		 mov	 DWORD PTR [esi], OFFSET ??_7exception@std@@6B@
  0000f	50		 push	 eax
  00010	e8 00 00 00 00	 call	 ___std_exception_destroy
  00015	83 c4 04	 add	 esp, 4
  00018	f6 45 08 01	 test	 BYTE PTR ___flags$[ebp], 1
  0001c	74 0b		 je	 SHORT $LN12@scalar
  0001e	6a 0c		 push	 12			; 0000000cH
  00020	56		 push	 esi
  00021	e8 00 00 00 00	 call	 ??3@YAXPAXI@Z		; operator delete
  00026	83 c4 08	 add	 esp, 8
$LN12@scalar:
  00029	8b c6		 mov	 eax, esi
  0002b	5e		 pop	 esi
  0002c	5d		 pop	 ebp
  0002d	c2 04 00	 ret	 4
??_Gbad_array_new_length@std@@UAEPAXI@Z ENDP		; std::bad_array_new_length::`scalar deleting destructor'
_TEXT	ENDS
; Function compile flags: /Ogtp
; File C:\Program Files (x86)\Microsoft Visual Studio\2019\Professional\VC\Tools\MSVC\14.29.30133\include\vcruntime_exception.h
;	COMDAT ??0bad_array_new_length@std@@QAE@ABV01@@Z
_TEXT	SEGMENT
___that$ = 8						; size = 4
??0bad_array_new_length@std@@QAE@ABV01@@Z PROC		; std::bad_array_new_length::bad_array_new_length, COMDAT
; _this$ = ecx
  00000	55		 push	 ebp
  00001	8b ec		 mov	 ebp, esp

; 72   :     {

  00003	56		 push	 esi
  00004	8b f1		 mov	 esi, ecx
  00006	0f 57 c0	 xorps	 xmm0, xmm0

; 71   :         : _Data()

  00009	8d 46 04	 lea	 eax, DWORD PTR [esi+4]

; 73   :         __std_exception_copy(&_Other._Data, &_Data);

  0000c	50		 push	 eax
  0000d	c7 06 00 00 00
	00		 mov	 DWORD PTR [esi], OFFSET ??_7exception@std@@6B@
  00013	66 0f d6 00	 movq	 QWORD PTR [eax], xmm0
  00017	8b 45 08	 mov	 eax, DWORD PTR ___that$[ebp]
  0001a	83 c0 04	 add	 eax, 4
  0001d	50		 push	 eax
  0001e	e8 00 00 00 00	 call	 ___std_exception_copy
  00023	83 c4 08	 add	 esp, 8
  00026	c7 06 00 00 00
	00		 mov	 DWORD PTR [esi], OFFSET ??_7bad_array_new_length@std@@6B@
  0002c	8b c6		 mov	 eax, esi
  0002e	5e		 pop	 esi
  0002f	5d		 pop	 ebp
  00030	c2 04 00	 ret	 4
??0bad_array_new_length@std@@QAE@ABV01@@Z ENDP		; std::bad_array_new_length::bad_array_new_length
_TEXT	ENDS
; Function compile flags: /Ogtp
; File C:\Program Files (x86)\Microsoft Visual Studio\2019\Professional\VC\Tools\MSVC\14.29.30133\include\vcruntime_exception.h
;	COMDAT ??1bad_array_new_length@std@@UAE@XZ
_TEXT	SEGMENT
??1bad_array_new_length@std@@UAE@XZ PROC		; std::bad_array_new_length::~bad_array_new_length, COMDAT
; _this$ = ecx

; 90   :         __std_exception_destroy(&_Data);

  00000	8d 41 04	 lea	 eax, DWORD PTR [ecx+4]
  00003	c7 01 00 00 00
	00		 mov	 DWORD PTR [ecx], OFFSET ??_7exception@std@@6B@
  00009	50		 push	 eax
  0000a	e8 00 00 00 00	 call	 ___std_exception_destroy
  0000f	59		 pop	 ecx
  00010	c3		 ret	 0
??1bad_array_new_length@std@@UAE@XZ ENDP		; std::bad_array_new_length::~bad_array_new_length
_TEXT	ENDS
; Function compile flags: /Ogtp
; File C:\Program Files (x86)\Microsoft Visual Studio\2019\Professional\VC\Tools\MSVC\14.29.30133\include\vcruntime_exception.h
;	COMDAT ??0bad_array_new_length@std@@QAE@XZ
_TEXT	SEGMENT
??0bad_array_new_length@std@@QAE@XZ PROC		; std::bad_array_new_length::bad_array_new_length, COMDAT
; _this$ = ecx

; 141  :     {

  00000	0f 57 c0	 xorps	 xmm0, xmm0

; 142  :     }

  00003	8b c1		 mov	 eax, ecx

; 65   :         : _Data()

  00005	66 0f d6 41 04	 movq	 QWORD PTR [ecx+4], xmm0

; 66   :     {
; 67   :         _Data._What = _Message;

  0000a	c7 41 04 00 00
	00 00		 mov	 DWORD PTR [ecx+4], OFFSET ??_C@_0BF@KINCDENJ@bad?5array?5new?5length@

; 141  :     {

  00011	c7 01 00 00 00
	00		 mov	 DWORD PTR [ecx], OFFSET ??_7bad_array_new_length@std@@6B@

; 142  :     }

  00017	c3		 ret	 0
??0bad_array_new_length@std@@QAE@XZ ENDP		; std::bad_array_new_length::bad_array_new_length
_TEXT	ENDS
; Function compile flags: /Ogtp
; File C:\Program Files (x86)\Microsoft Visual Studio\2019\Professional\VC\Tools\MSVC\14.29.30133\include\vcruntime_exception.h
;	COMDAT ??_Gbad_alloc@std@@UAEPAXI@Z
_TEXT	SEGMENT
___flags$ = 8						; size = 4
??_Gbad_alloc@std@@UAEPAXI@Z PROC			; std::bad_alloc::`scalar deleting destructor', COMDAT
; _this$ = ecx
  00000	55		 push	 ebp
  00001	8b ec		 mov	 ebp, esp

; 89   :     {

  00003	56		 push	 esi
  00004	8b f1		 mov	 esi, ecx

; 90   :         __std_exception_destroy(&_Data);

  00006	8d 46 04	 lea	 eax, DWORD PTR [esi+4]
  00009	c7 06 00 00 00
	00		 mov	 DWORD PTR [esi], OFFSET ??_7exception@std@@6B@
  0000f	50		 push	 eax
  00010	e8 00 00 00 00	 call	 ___std_exception_destroy
  00015	83 c4 04	 add	 esp, 4
  00018	f6 45 08 01	 test	 BYTE PTR ___flags$[ebp], 1
  0001c	74 0b		 je	 SHORT $LN9@scalar
  0001e	6a 0c		 push	 12			; 0000000cH
  00020	56		 push	 esi
  00021	e8 00 00 00 00	 call	 ??3@YAXPAXI@Z		; operator delete
  00026	83 c4 08	 add	 esp, 8
$LN9@scalar:
  00029	8b c6		 mov	 eax, esi
  0002b	5e		 pop	 esi
  0002c	5d		 pop	 ebp
  0002d	c2 04 00	 ret	 4
??_Gbad_alloc@std@@UAEPAXI@Z ENDP			; std::bad_alloc::`scalar deleting destructor'
_TEXT	ENDS
; Function compile flags: /Ogtp
; File C:\Program Files (x86)\Microsoft Visual Studio\2019\Professional\VC\Tools\MSVC\14.29.30133\include\vcruntime_exception.h
;	COMDAT ??0bad_alloc@std@@QAE@ABV01@@Z
_TEXT	SEGMENT
___that$ = 8						; size = 4
??0bad_alloc@std@@QAE@ABV01@@Z PROC			; std::bad_alloc::bad_alloc, COMDAT
; _this$ = ecx
  00000	55		 push	 ebp
  00001	8b ec		 mov	 ebp, esp

; 72   :     {

  00003	56		 push	 esi
  00004	8b f1		 mov	 esi, ecx
  00006	0f 57 c0	 xorps	 xmm0, xmm0

; 71   :         : _Data()

  00009	8d 46 04	 lea	 eax, DWORD PTR [esi+4]

; 73   :         __std_exception_copy(&_Other._Data, &_Data);

  0000c	50		 push	 eax
  0000d	c7 06 00 00 00
	00		 mov	 DWORD PTR [esi], OFFSET ??_7exception@std@@6B@
  00013	66 0f d6 00	 movq	 QWORD PTR [eax], xmm0
  00017	8b 45 08	 mov	 eax, DWORD PTR ___that$[ebp]
  0001a	83 c0 04	 add	 eax, 4
  0001d	50		 push	 eax
  0001e	e8 00 00 00 00	 call	 ___std_exception_copy
  00023	83 c4 08	 add	 esp, 8
  00026	c7 06 00 00 00
	00		 mov	 DWORD PTR [esi], OFFSET ??_7bad_alloc@std@@6B@
  0002c	8b c6		 mov	 eax, esi
  0002e	5e		 pop	 esi
  0002f	5d		 pop	 ebp
  00030	c2 04 00	 ret	 4
??0bad_alloc@std@@QAE@ABV01@@Z ENDP			; std::bad_alloc::bad_alloc
_TEXT	ENDS
; Function compile flags: /Ogtp
; File C:\Program Files (x86)\Microsoft Visual Studio\2019\Professional\VC\Tools\MSVC\14.29.30133\include\vcruntime_exception.h
;	COMDAT ??_Gexception@std@@UAEPAXI@Z
_TEXT	SEGMENT
___flags$ = 8						; size = 4
??_Gexception@std@@UAEPAXI@Z PROC			; std::exception::`scalar deleting destructor', COMDAT
; _this$ = ecx
  00000	55		 push	 ebp
  00001	8b ec		 mov	 ebp, esp

; 89   :     {

  00003	56		 push	 esi
  00004	8b f1		 mov	 esi, ecx

; 90   :         __std_exception_destroy(&_Data);

  00006	8d 46 04	 lea	 eax, DWORD PTR [esi+4]
  00009	c7 06 00 00 00
	00		 mov	 DWORD PTR [esi], OFFSET ??_7exception@std@@6B@
  0000f	50		 push	 eax
  00010	e8 00 00 00 00	 call	 ___std_exception_destroy
  00015	83 c4 04	 add	 esp, 4
  00018	f6 45 08 01	 test	 BYTE PTR ___flags$[ebp], 1
  0001c	74 0b		 je	 SHORT $LN6@scalar
  0001e	6a 0c		 push	 12			; 0000000cH
  00020	56		 push	 esi
  00021	e8 00 00 00 00	 call	 ??3@YAXPAXI@Z		; operator delete
  00026	83 c4 08	 add	 esp, 8
$LN6@scalar:
  00029	8b c6		 mov	 eax, esi
  0002b	5e		 pop	 esi
  0002c	5d		 pop	 ebp
  0002d	c2 04 00	 ret	 4
??_Gexception@std@@UAEPAXI@Z ENDP			; std::exception::`scalar deleting destructor'
_TEXT	ENDS
; Function compile flags: /Ogtp
; File C:\Program Files (x86)\Microsoft Visual Studio\2019\Professional\VC\Tools\MSVC\14.29.30133\include\vcruntime_exception.h
;	COMDAT ?what@exception@std@@UBEPBDXZ
_TEXT	SEGMENT
?what@exception@std@@UBEPBDXZ PROC			; std::exception::what, COMDAT
; _this$ = ecx

; 95   :         return _Data._What ? _Data._What : "Unknown exception";

  00000	8b 49 04	 mov	 ecx, DWORD PTR [ecx+4]
  00003	b8 00 00 00 00	 mov	 eax, OFFSET ??_C@_0BC@EOODALEL@Unknown?5exception@
  00008	85 c9		 test	 ecx, ecx
  0000a	0f 45 c1	 cmovne	 eax, ecx

; 96   :     }

  0000d	c3		 ret	 0
?what@exception@std@@UBEPBDXZ ENDP			; std::exception::what
_TEXT	ENDS
; Function compile flags: /Ogtp
; File C:\Program Files (x86)\Microsoft Visual Studio\2019\Professional\VC\Tools\MSVC\14.29.30133\include\vcruntime_exception.h
;	COMDAT ??1exception@std@@UAE@XZ
_TEXT	SEGMENT
??1exception@std@@UAE@XZ PROC				; std::exception::~exception, COMDAT
; _this$ = ecx

; 90   :         __std_exception_destroy(&_Data);

  00000	8d 41 04	 lea	 eax, DWORD PTR [ecx+4]
  00003	c7 01 00 00 00
	00		 mov	 DWORD PTR [ecx], OFFSET ??_7exception@std@@6B@
  00009	50		 push	 eax
  0000a	e8 00 00 00 00	 call	 ___std_exception_destroy
  0000f	59		 pop	 ecx

; 91   :     }

  00010	c3		 ret	 0
??1exception@std@@UAE@XZ ENDP				; std::exception::~exception
_TEXT	ENDS
; Function compile flags: /Ogtp
; File C:\Program Files (x86)\Microsoft Visual Studio\2019\Professional\VC\Tools\MSVC\14.29.30133\include\vcruntime_exception.h
;	COMDAT ??0exception@std@@QAE@ABV01@@Z
_TEXT	SEGMENT
__Other$ = 8						; size = 4
??0exception@std@@QAE@ABV01@@Z PROC			; std::exception::exception, COMDAT
; _this$ = ecx

; 72   :     {

  00000	55		 push	 ebp
  00001	8b ec		 mov	 ebp, esp
  00003	56		 push	 esi
  00004	8b f1		 mov	 esi, ecx
  00006	0f 57 c0	 xorps	 xmm0, xmm0
  00009	8d 46 04	 lea	 eax, DWORD PTR [esi+4]

; 73   :         __std_exception_copy(&_Other._Data, &_Data);

  0000c	50		 push	 eax
  0000d	c7 06 00 00 00
	00		 mov	 DWORD PTR [esi], OFFSET ??_7exception@std@@6B@
  00013	66 0f d6 00	 movq	 QWORD PTR [eax], xmm0
  00017	8b 45 08	 mov	 eax, DWORD PTR __Other$[ebp]
  0001a	83 c0 04	 add	 eax, 4
  0001d	50		 push	 eax
  0001e	e8 00 00 00 00	 call	 ___std_exception_copy
  00023	83 c4 08	 add	 esp, 8

; 74   :     }

  00026	8b c6		 mov	 eax, esi
  00028	5e		 pop	 esi
  00029	5d		 pop	 ebp
  0002a	c2 04 00	 ret	 4
??0exception@std@@QAE@ABV01@@Z ENDP			; std::exception::exception
_TEXT	ENDS
END
