; Listing generated by Microsoft (R) Optimizing Compiler Version 19.29.30137.0 

	TITLE	C:\Users\murat\Desktop\Siveps2-1-99-Project\source\client\Client\EterBase\Distribute\Poly.obj
	.686P
	.XMM
	include listing.inc
	.model	flat

INCLUDELIB LIBCMT
INCLUDELIB OLDNAMES

CONST	SEGMENT
?_Fake_alloc@std@@3U_Fake_allocator@1@B	ORG $+1		; std::_Fake_alloc
CONST	ENDS
PUBLIC	??0exception@std@@QAE@ABV01@@Z			; std::exception::exception
PUBLIC	??1exception@std@@UAE@XZ			; std::exception::~exception
PUBLIC	?what@exception@std@@UBEPBDXZ			; std::exception::what
PUBLIC	??_Gexception@std@@UAEPAXI@Z			; std::exception::`scalar deleting destructor'
PUBLIC	??0bad_alloc@std@@QAE@ABV01@@Z			; std::bad_alloc::bad_alloc
PUBLIC	??_Gbad_alloc@std@@UAEPAXI@Z			; std::bad_alloc::`scalar deleting destructor'
PUBLIC	??0bad_array_new_length@std@@QAE@XZ		; std::bad_array_new_length::bad_array_new_length
PUBLIC	??1bad_array_new_length@std@@UAE@XZ		; std::bad_array_new_length::~bad_array_new_length
PUBLIC	??0bad_array_new_length@std@@QAE@ABV01@@Z	; std::bad_array_new_length::bad_array_new_length
PUBLIC	??_Gbad_array_new_length@std@@UAEPAXI@Z		; std::bad_array_new_length::`scalar deleting destructor'
PUBLIC	?_Throw_bad_array_new_length@std@@YAXXZ		; std::_Throw_bad_array_new_length
PUBLIC	?_Xlen_string@std@@YAXXZ			; std::_Xlen_string
PUBLIC	??1?$basic_string@DU?$char_traits@D@std@@V?$allocator@D@2@@std@@QAE@XZ ; std::basic_string<char,std::char_traits<char>,std::allocator<char> >::~basic_string<char,std::char_traits<char>,std::allocator<char> >
PUBLIC	?assign@?$basic_string@DU?$char_traits@D@std@@V?$allocator@D@2@@std@@QAEAAV12@QBDI@Z ; std::basic_string<char,std::char_traits<char>,std::allocator<char> >::assign
PUBLIC	??0CPoly@@QAE@XZ				; CPoly::CPoly
PUBLIC	??1CPoly@@UAE@XZ				; CPoly::~CPoly
PUBLIC	?Analyze@CPoly@@QAEHPBD@Z			; CPoly::Analyze
PUBLIC	?Eval@CPoly@@QAEMXZ				; CPoly::Eval
PUBLIC	?SetRandom@CPoly@@QAEXH@Z			; CPoly::SetRandom
PUBLIC	?SetStr@CPoly@@QAEXABV?$basic_string@DU?$char_traits@D@std@@V?$allocator@D@2@@std@@@Z ; CPoly::SetStr
PUBLIC	?SetVar@CPoly@@QAEHABV?$basic_string@DU?$char_traits@D@std@@V?$allocator@D@2@@std@@N@Z ; CPoly::SetVar
PUBLIC	?GetVarCount@CPoly@@QAEHXZ			; CPoly::GetVarCount
PUBLIC	?GetVarName@CPoly@@QAEPBDI@Z			; CPoly::GetVarName
PUBLIC	?Clear@CPoly@@QAEXXZ				; CPoly::Clear
PUBLIC	?my_irandom@CPoly@@IAEHNN@Z			; CPoly::my_irandom
PUBLIC	?my_frandom@CPoly@@IAENNN@Z			; CPoly::my_frandom
PUBLIC	?init@CPoly@@IAEXXZ				; CPoly::init
PUBLIC	?insert@CPoly@@IAEHABV?$basic_string@DU?$char_traits@D@std@@V?$allocator@D@2@@std@@H@Z ; CPoly::insert
PUBLIC	?find@CPoly@@IAEHABV?$basic_string@DU?$char_traits@D@std@@V?$allocator@D@2@@std@@@Z ; CPoly::find
PUBLIC	?emit@CPoly@@IAEXHH@Z				; CPoly::emit
PUBLIC	?match@CPoly@@IAEXH@Z				; CPoly::match
PUBLIC	?expo@CPoly@@IAEXXZ				; CPoly::expo
PUBLIC	?factor@CPoly@@IAEXXZ				; CPoly::factor
PUBLIC	?term@CPoly@@IAEXXZ				; CPoly::term
PUBLIC	?lexan@CPoly@@IAEHXZ				; CPoly::lexan
PUBLIC	?error@CPoly@@IAEXXZ				; CPoly::error
PUBLIC	?expr@CPoly@@IAEXXZ				; CPoly::expr
PUBLIC	??1?$vector@HV?$allocator@H@std@@@std@@QAE@XZ	; std::vector<int,std::allocator<int> >::~vector<int,std::allocator<int> >
PUBLIC	?push_back@?$vector@HV?$allocator@H@std@@@std@@QAEXABH@Z ; std::vector<int,std::allocator<int> >::push_back
PUBLIC	?push_back@?$vector@HV?$allocator@H@std@@@std@@QAEX$$QAH@Z ; std::vector<int,std::allocator<int> >::push_back
PUBLIC	?_Change_array@?$vector@HV?$allocator@H@std@@@std@@AAEXQAHII@Z ; std::vector<int,std::allocator<int> >::_Change_array
PUBLIC	?_Xlength@?$vector@HV?$allocator@H@std@@@std@@CAXXZ ; std::vector<int,std::allocator<int> >::_Xlength
PUBLIC	??1?$vector@NV?$allocator@N@std@@@std@@QAE@XZ	; std::vector<double,std::allocator<double> >::~vector<double,std::allocator<double> >
PUBLIC	?_Xlength@?$vector@NV?$allocator@N@std@@@std@@CAXXZ ; std::vector<double,std::allocator<double> >::_Xlength
PUBLIC	??1?$vector@PAVCSymTable@@V?$allocator@PAVCSymTable@@@std@@@std@@QAE@XZ ; std::vector<CSymTable *,std::allocator<CSymTable *> >::~vector<CSymTable *,std::allocator<CSymTable *> >
PUBLIC	?_Reallocate_exactly@?$vector@PAVCSymTable@@V?$allocator@PAVCSymTable@@@std@@@std@@AAEXI@Z ; std::vector<CSymTable *,std::allocator<CSymTable *> >::_Reallocate_exactly
PUBLIC	?_Change_array@?$vector@PAVCSymTable@@V?$allocator@PAVCSymTable@@@std@@@std@@AAEXQAPAVCSymTable@@II@Z ; std::vector<CSymTable *,std::allocator<CSymTable *> >::_Change_array
PUBLIC	?_Xlength@?$vector@PAVCSymTable@@V?$allocator@PAVCSymTable@@@std@@@std@@CAXXZ ; std::vector<CSymTable *,std::allocator<CSymTable *> >::_Xlength
PUBLIC	??_GCPoly@@UAEPAXI@Z				; CPoly::`scalar deleting destructor'
PUBLIC	?_random@@YANXZ					; _random
PUBLIC	??$?MDU?$char_traits@D@std@@V?$allocator@D@1@@std@@YA_NABV?$basic_string@DU?$char_traits@D@std@@V?$allocator@D@2@@0@0@Z ; std::operator<<char,std::char_traits<char>,std::allocator<char> >
PUBLIC	??$_Emplace_reallocate@PAVCSymTable@@@?$vector@PAVCSymTable@@V?$allocator@PAVCSymTable@@@std@@@std@@QAEPAPAVCSymTable@@QAPAV2@$$QAPAV2@@Z ; std::vector<CSymTable *,std::allocator<CSymTable *> >::_Emplace_reallocate<CSymTable *>
PUBLIC	??$_Emplace_reallocate@ABN@?$vector@NV?$allocator@N@std@@@std@@QAEPANQANABN@Z ; std::vector<double,std::allocator<double> >::_Emplace_reallocate<double const &>
PUBLIC	??$_Emplace_reallocate@H@?$vector@HV?$allocator@H@std@@@std@@QAEPAHQAH$$QAH@Z ; std::vector<int,std::allocator<int> >::_Emplace_reallocate<int>
PUBLIC	??$_Emplace_reallocate@ABH@?$vector@HV?$allocator@H@std@@@std@@QAEPAHQAHABH@Z ; std::vector<int,std::allocator<int> >::_Emplace_reallocate<int const &>
PUBLIC	??$_Traits_compare@U?$char_traits@D@std@@@std@@YAHQBDI0I@Z ; std::_Traits_compare<std::char_traits<char> >
PUBLIC	??$_Allocate_manually_vector_aligned@U_Default_allocate_traits@std@@@std@@YAPAXI@Z ; std::_Allocate_manually_vector_aligned<std::_Default_allocate_traits>
PUBLIC	??$_Copy_memmove@PAPAVCSymTable@@PAPAV1@@std@@YAPAPAVCSymTable@@PAPAV1@00@Z ; std::_Copy_memmove<CSymTable * *,CSymTable * *>
PUBLIC	??$_Copy_backward_memmove@PAHPAH@std@@YAPAHPAH00@Z ; std::_Copy_backward_memmove<int *,int *>
PUBLIC	??$_Copy_memmove@PANPAN@std@@YAPANPAN00@Z	; std::_Copy_memmove<double *,double *>
PUBLIC	??$_Copy_memmove@PAHPAH@std@@YAPAHPAH00@Z	; std::_Copy_memmove<int *,int *>
PUBLIC	??_7exception@std@@6B@				; std::exception::`vftable'
PUBLIC	??_C@_0BC@EOODALEL@Unknown?5exception@		; `string'
PUBLIC	??_7bad_alloc@std@@6B@				; std::bad_alloc::`vftable'
PUBLIC	??_7bad_array_new_length@std@@6B@		; std::bad_array_new_length::`vftable'
PUBLIC	??_C@_0BF@KINCDENJ@bad?5array?5new?5length@	; `string'
PUBLIC	__TI3?AVbad_array_new_length@std@@
PUBLIC	__CTA3?AVbad_array_new_length@std@@
PUBLIC	??_R0?AVbad_array_new_length@std@@@8		; std::bad_array_new_length `RTTI Type Descriptor'
PUBLIC	__CT??_R0?AVbad_array_new_length@std@@@8??0bad_array_new_length@std@@QAE@ABV01@@Z12
PUBLIC	??_R0?AVbad_alloc@std@@@8			; std::bad_alloc `RTTI Type Descriptor'
PUBLIC	__CT??_R0?AVbad_alloc@std@@@8??0bad_alloc@std@@QAE@ABV01@@Z12
PUBLIC	??_R0?AVexception@std@@@8			; std::exception `RTTI Type Descriptor'
PUBLIC	__CT??_R0?AVexception@std@@@8??0exception@std@@QAE@ABV01@@Z12
PUBLIC	??_C@_0BA@JFNIOLAK@string?5too?5long@		; `string'
PUBLIC	??_7CPoly@@6B@					; CPoly::`vftable'
PUBLIC	??_C@_03KLIPLJLL@min@				; `string'
PUBLIC	??_C@_03LJAEFNNE@max@				; `string'
PUBLIC	??_C@_06EBGNBFIA@number@			; `string'
PUBLIC	??_C@_07OMLILGHE@irandom@			; `string'
PUBLIC	??_C@_05CCJGGLIO@irand@				; `string'
PUBLIC	??_C@_07DFJIKENI@frandom@			; `string'
PUBLIC	??_C@_05NDMANJFL@frand@				; `string'
PUBLIC	??_C@_03LALBNOCG@cos@				; `string'
PUBLIC	??_C@_03BLEJJJBH@sin@				; `string'
PUBLIC	??_C@_03IIINPABG@tan@				; `string'
PUBLIC	??_C@_03PPPAEIOB@cot@				; `string'
PUBLIC	??_C@_03OPEPJGGD@csc@				; `string'
PUBLIC	??_C@_05KCHJPNOJ@cosec@				; `string'
PUBLIC	??_C@_03KHPNBODO@sec@				; `string'
PUBLIC	??_C@_02OAHAJOFD@pi@				; `string'
PUBLIC	??_C@_01KGKMHCOC@e@				; `string'
PUBLIC	??_C@_03MGHMBJCF@log@				; `string'
PUBLIC	??_C@_02LKANFCIA@ln@				; `string'
PUBLIC	??_C@_05HGHHAHAP@log10@				; `string'
PUBLIC	??_C@_03BCGAIFPO@abs@				; `string'
PUBLIC	??_C@_03FFONCNID@mod@				; `string'
PUBLIC	??_C@_05PBJFFIGL@floor@				; `string'
PUBLIC	??_C@_0BA@FOIKENOD@vector?5too?5long@		; `string'
PUBLIC	??_R4exception@std@@6B@				; std::exception::`RTTI Complete Object Locator'
PUBLIC	??_R3exception@std@@8				; std::exception::`RTTI Class Hierarchy Descriptor'
PUBLIC	??_R2exception@std@@8				; std::exception::`RTTI Base Class Array'
PUBLIC	??_R1A@?0A@EA@exception@std@@8			; std::exception::`RTTI Base Class Descriptor at (0,-1,0,64)'
PUBLIC	??_R4bad_alloc@std@@6B@				; std::bad_alloc::`RTTI Complete Object Locator'
PUBLIC	??_R3bad_alloc@std@@8				; std::bad_alloc::`RTTI Class Hierarchy Descriptor'
PUBLIC	??_R2bad_alloc@std@@8				; std::bad_alloc::`RTTI Base Class Array'
PUBLIC	??_R1A@?0A@EA@bad_alloc@std@@8			; std::bad_alloc::`RTTI Base Class Descriptor at (0,-1,0,64)'
PUBLIC	??_R4bad_array_new_length@std@@6B@		; std::bad_array_new_length::`RTTI Complete Object Locator'
PUBLIC	??_R3bad_array_new_length@std@@8		; std::bad_array_new_length::`RTTI Class Hierarchy Descriptor'
PUBLIC	??_R2bad_array_new_length@std@@8		; std::bad_array_new_length::`RTTI Base Class Array'
PUBLIC	??_R1A@?0A@EA@bad_array_new_length@std@@8	; std::bad_array_new_length::`RTTI Base Class Descriptor at (0,-1,0,64)'
PUBLIC	??_R4CPoly@@6B@					; CPoly::`RTTI Complete Object Locator'
PUBLIC	??_R0?AVCPoly@@@8				; CPoly `RTTI Type Descriptor'
PUBLIC	??_R3CPoly@@8					; CPoly::`RTTI Class Hierarchy Descriptor'
PUBLIC	??_R2CPoly@@8					; CPoly::`RTTI Base Class Array'
PUBLIC	??_R1A@?0A@EA@CPoly@@8				; CPoly::`RTTI Base Class Descriptor at (0,-1,0,64)'
PUBLIC	__real@00000000
PUBLIC	__real@0000000000000000
PUBLIC	__real@3f00000000000000
PUBLIC	__real@3fb999999999999a
PUBLIC	__real@3fe0000000000000
PUBLIC	__real@3ff0000000000000
PUBLIC	__real@4005bf0a8b145769
PUBLIC	__real@400921fb54442d18
PUBLIC	__xmm@7fffffffffffffff7fffffffffffffff
EXTRN	??2@YAPAXI@Z:PROC				; operator new
EXTRN	??3@YAXPAXI@Z:PROC				; operator delete
EXTRN	__invalid_parameter_noinfo_noreturn:PROC
EXTRN	_isalpha:PROC
EXTRN	_isdigit:PROC
EXTRN	_rand:PROC
EXTRN	___std_exception_copy:PROC
EXTRN	___std_exception_destroy:PROC
EXTRN	??_Eexception@std@@UAEPAXI@Z:PROC		; std::exception::`vector deleting destructor'
EXTRN	??_Ebad_alloc@std@@UAEPAXI@Z:PROC		; std::bad_alloc::`vector deleting destructor'
EXTRN	??_Ebad_array_new_length@std@@UAEPAXI@Z:PROC	; std::bad_array_new_length::`vector deleting destructor'
EXTRN	?_Xlength_error@std@@YAXPBD@Z:PROC		; std::_Xlength_error
EXTRN	??0CSymTable@@QAE@HV?$basic_string@DU?$char_traits@D@std@@V?$allocator@D@2@@std@@@Z:PROC ; CSymTable::CSymTable
EXTRN	??_ECPoly@@UAEPAXI@Z:PROC			; CPoly::`vector deleting destructor'
EXTRN	@__security_check_cookie@4:PROC
EXTRN	__CIfmod:PROC
EXTRN	__CxxThrowException@8:PROC
EXTRN	___CxxFrameHandler3:PROC
EXTRN	__libm_sse2_cos_precise:PROC
EXTRN	__libm_sse2_log10_precise:PROC
EXTRN	__libm_sse2_log_precise:PROC
EXTRN	__libm_sse2_pow_precise:PROC
EXTRN	__libm_sse2_sin_precise:PROC
EXTRN	__libm_sse2_sqrt_precise:PROC
EXTRN	__libm_sse2_tan_precise:PROC
EXTRN	_floor:PROC
EXTRN	_memcpy:PROC
EXTRN	_memmove:PROC
EXTRN	??_7type_info@@6B@:QWORD			; type_info::`vftable'
EXTRN	___security_cookie:DWORD
EXTRN	__fltused:DWORD
;	COMDAT __xmm@7fffffffffffffff7fffffffffffffff
CONST	SEGMENT
__xmm@7fffffffffffffff7fffffffffffffff DB 0ffH, 0ffH, 0ffH, 0ffH, 0ffH, 0ffH
	DB	0ffH, 07fH, 0ffH, 0ffH, 0ffH, 0ffH, 0ffH, 0ffH, 0ffH, 07fH
CONST	ENDS
;	COMDAT __real@400921fb54442d18
CONST	SEGMENT
__real@400921fb54442d18 DQ 0400921fb54442d18r	; 3.14159
CONST	ENDS
;	COMDAT __real@4005bf0a8b145769
CONST	SEGMENT
__real@4005bf0a8b145769 DQ 04005bf0a8b145769r	; 2.71828
CONST	ENDS
;	COMDAT __real@3ff0000000000000
CONST	SEGMENT
__real@3ff0000000000000 DQ 03ff0000000000000r	; 1
CONST	ENDS
;	COMDAT __real@3fe0000000000000
CONST	SEGMENT
__real@3fe0000000000000 DQ 03fe0000000000000r	; 0.5
CONST	ENDS
;	COMDAT __real@3fb999999999999a
CONST	SEGMENT
__real@3fb999999999999a DQ 03fb999999999999ar	; 0.1
CONST	ENDS
;	COMDAT __real@3f00000000000000
CONST	SEGMENT
__real@3f00000000000000 DQ 03f00000000000000r	; 3.05176e-05
CONST	ENDS
;	COMDAT __real@0000000000000000
CONST	SEGMENT
__real@0000000000000000 DQ 00000000000000000r	; 0
CONST	ENDS
;	COMDAT __real@00000000
CONST	SEGMENT
__real@00000000 DD 000000000r			; 0
CONST	ENDS
;	COMDAT ??_R1A@?0A@EA@CPoly@@8
rdata$r	SEGMENT
??_R1A@?0A@EA@CPoly@@8 DD FLAT:??_R0?AVCPoly@@@8	; CPoly::`RTTI Base Class Descriptor at (0,-1,0,64)'
	DD	00H
	DD	00H
	DD	0ffffffffH
	DD	00H
	DD	040H
	DD	FLAT:??_R3CPoly@@8
rdata$r	ENDS
;	COMDAT ??_R2CPoly@@8
rdata$r	SEGMENT
??_R2CPoly@@8 DD FLAT:??_R1A@?0A@EA@CPoly@@8		; CPoly::`RTTI Base Class Array'
rdata$r	ENDS
;	COMDAT ??_R3CPoly@@8
rdata$r	SEGMENT
??_R3CPoly@@8 DD 00H					; CPoly::`RTTI Class Hierarchy Descriptor'
	DD	00H
	DD	01H
	DD	FLAT:??_R2CPoly@@8
rdata$r	ENDS
;	COMDAT ??_R0?AVCPoly@@@8
data$rs	SEGMENT
??_R0?AVCPoly@@@8 DD FLAT:??_7type_info@@6B@		; CPoly `RTTI Type Descriptor'
	DD	00H
	DB	'.?AVCPoly@@', 00H
data$rs	ENDS
;	COMDAT ??_R4CPoly@@6B@
rdata$r	SEGMENT
??_R4CPoly@@6B@ DD 00H					; CPoly::`RTTI Complete Object Locator'
	DD	00H
	DD	00H
	DD	FLAT:??_R0?AVCPoly@@@8
	DD	FLAT:??_R3CPoly@@8
rdata$r	ENDS
;	COMDAT ??_R1A@?0A@EA@bad_array_new_length@std@@8
rdata$r	SEGMENT
??_R1A@?0A@EA@bad_array_new_length@std@@8 DD FLAT:??_R0?AVbad_array_new_length@std@@@8 ; std::bad_array_new_length::`RTTI Base Class Descriptor at (0,-1,0,64)'
	DD	02H
	DD	00H
	DD	0ffffffffH
	DD	00H
	DD	040H
	DD	FLAT:??_R3bad_array_new_length@std@@8
rdata$r	ENDS
;	COMDAT ??_R2bad_array_new_length@std@@8
rdata$r	SEGMENT
??_R2bad_array_new_length@std@@8 DD FLAT:??_R1A@?0A@EA@bad_array_new_length@std@@8 ; std::bad_array_new_length::`RTTI Base Class Array'
	DD	FLAT:??_R1A@?0A@EA@bad_alloc@std@@8
	DD	FLAT:??_R1A@?0A@EA@exception@std@@8
rdata$r	ENDS
;	COMDAT ??_R3bad_array_new_length@std@@8
rdata$r	SEGMENT
??_R3bad_array_new_length@std@@8 DD 00H			; std::bad_array_new_length::`RTTI Class Hierarchy Descriptor'
	DD	00H
	DD	03H
	DD	FLAT:??_R2bad_array_new_length@std@@8
rdata$r	ENDS
;	COMDAT ??_R4bad_array_new_length@std@@6B@
rdata$r	SEGMENT
??_R4bad_array_new_length@std@@6B@ DD 00H		; std::bad_array_new_length::`RTTI Complete Object Locator'
	DD	00H
	DD	00H
	DD	FLAT:??_R0?AVbad_array_new_length@std@@@8
	DD	FLAT:??_R3bad_array_new_length@std@@8
rdata$r	ENDS
;	COMDAT ??_R1A@?0A@EA@bad_alloc@std@@8
rdata$r	SEGMENT
??_R1A@?0A@EA@bad_alloc@std@@8 DD FLAT:??_R0?AVbad_alloc@std@@@8 ; std::bad_alloc::`RTTI Base Class Descriptor at (0,-1,0,64)'
	DD	01H
	DD	00H
	DD	0ffffffffH
	DD	00H
	DD	040H
	DD	FLAT:??_R3bad_alloc@std@@8
rdata$r	ENDS
;	COMDAT ??_R2bad_alloc@std@@8
rdata$r	SEGMENT
??_R2bad_alloc@std@@8 DD FLAT:??_R1A@?0A@EA@bad_alloc@std@@8 ; std::bad_alloc::`RTTI Base Class Array'
	DD	FLAT:??_R1A@?0A@EA@exception@std@@8
rdata$r	ENDS
;	COMDAT ??_R3bad_alloc@std@@8
rdata$r	SEGMENT
??_R3bad_alloc@std@@8 DD 00H				; std::bad_alloc::`RTTI Class Hierarchy Descriptor'
	DD	00H
	DD	02H
	DD	FLAT:??_R2bad_alloc@std@@8
rdata$r	ENDS
;	COMDAT ??_R4bad_alloc@std@@6B@
rdata$r	SEGMENT
??_R4bad_alloc@std@@6B@ DD 00H				; std::bad_alloc::`RTTI Complete Object Locator'
	DD	00H
	DD	00H
	DD	FLAT:??_R0?AVbad_alloc@std@@@8
	DD	FLAT:??_R3bad_alloc@std@@8
rdata$r	ENDS
;	COMDAT ??_R1A@?0A@EA@exception@std@@8
rdata$r	SEGMENT
??_R1A@?0A@EA@exception@std@@8 DD FLAT:??_R0?AVexception@std@@@8 ; std::exception::`RTTI Base Class Descriptor at (0,-1,0,64)'
	DD	00H
	DD	00H
	DD	0ffffffffH
	DD	00H
	DD	040H
	DD	FLAT:??_R3exception@std@@8
rdata$r	ENDS
;	COMDAT ??_R2exception@std@@8
rdata$r	SEGMENT
??_R2exception@std@@8 DD FLAT:??_R1A@?0A@EA@exception@std@@8 ; std::exception::`RTTI Base Class Array'
rdata$r	ENDS
;	COMDAT ??_R3exception@std@@8
rdata$r	SEGMENT
??_R3exception@std@@8 DD 00H				; std::exception::`RTTI Class Hierarchy Descriptor'
	DD	00H
	DD	01H
	DD	FLAT:??_R2exception@std@@8
rdata$r	ENDS
;	COMDAT ??_R4exception@std@@6B@
rdata$r	SEGMENT
??_R4exception@std@@6B@ DD 00H				; std::exception::`RTTI Complete Object Locator'
	DD	00H
	DD	00H
	DD	FLAT:??_R0?AVexception@std@@@8
	DD	FLAT:??_R3exception@std@@8
rdata$r	ENDS
;	COMDAT ??_C@_0BA@FOIKENOD@vector?5too?5long@
CONST	SEGMENT
??_C@_0BA@FOIKENOD@vector?5too?5long@ DB 'vector too long', 00H ; `string'
CONST	ENDS
;	COMDAT ??_C@_05PBJFFIGL@floor@
CONST	SEGMENT
??_C@_05PBJFFIGL@floor@ DB 'floor', 00H			; `string'
CONST	ENDS
;	COMDAT ??_C@_03FFONCNID@mod@
CONST	SEGMENT
??_C@_03FFONCNID@mod@ DB 'mod', 00H			; `string'
CONST	ENDS
;	COMDAT ??_C@_03BCGAIFPO@abs@
CONST	SEGMENT
??_C@_03BCGAIFPO@abs@ DB 'abs', 00H			; `string'
CONST	ENDS
;	COMDAT ??_C@_05HGHHAHAP@log10@
CONST	SEGMENT
??_C@_05HGHHAHAP@log10@ DB 'log10', 00H			; `string'
CONST	ENDS
;	COMDAT ??_C@_02LKANFCIA@ln@
CONST	SEGMENT
??_C@_02LKANFCIA@ln@ DB 'ln', 00H			; `string'
CONST	ENDS
;	COMDAT ??_C@_03MGHMBJCF@log@
CONST	SEGMENT
??_C@_03MGHMBJCF@log@ DB 'log', 00H			; `string'
CONST	ENDS
;	COMDAT ??_C@_01KGKMHCOC@e@
CONST	SEGMENT
??_C@_01KGKMHCOC@e@ DB 'e', 00H				; `string'
CONST	ENDS
;	COMDAT ??_C@_02OAHAJOFD@pi@
CONST	SEGMENT
??_C@_02OAHAJOFD@pi@ DB 'pi', 00H			; `string'
CONST	ENDS
;	COMDAT ??_C@_03KHPNBODO@sec@
CONST	SEGMENT
??_C@_03KHPNBODO@sec@ DB 'sec', 00H			; `string'
CONST	ENDS
;	COMDAT ??_C@_05KCHJPNOJ@cosec@
CONST	SEGMENT
??_C@_05KCHJPNOJ@cosec@ DB 'cosec', 00H			; `string'
CONST	ENDS
;	COMDAT ??_C@_03OPEPJGGD@csc@
CONST	SEGMENT
??_C@_03OPEPJGGD@csc@ DB 'csc', 00H			; `string'
CONST	ENDS
;	COMDAT ??_C@_03PPPAEIOB@cot@
CONST	SEGMENT
??_C@_03PPPAEIOB@cot@ DB 'cot', 00H			; `string'
CONST	ENDS
;	COMDAT ??_C@_03IIINPABG@tan@
CONST	SEGMENT
??_C@_03IIINPABG@tan@ DB 'tan', 00H			; `string'
CONST	ENDS
;	COMDAT ??_C@_03BLEJJJBH@sin@
CONST	SEGMENT
??_C@_03BLEJJJBH@sin@ DB 'sin', 00H			; `string'
CONST	ENDS
;	COMDAT ??_C@_03LALBNOCG@cos@
CONST	SEGMENT
??_C@_03LALBNOCG@cos@ DB 'cos', 00H			; `string'
CONST	ENDS
;	COMDAT ??_C@_05NDMANJFL@frand@
CONST	SEGMENT
??_C@_05NDMANJFL@frand@ DB 'frand', 00H			; `string'
CONST	ENDS
;	COMDAT ??_C@_07DFJIKENI@frandom@
CONST	SEGMENT
??_C@_07DFJIKENI@frandom@ DB 'frandom', 00H		; `string'
CONST	ENDS
;	COMDAT ??_C@_05CCJGGLIO@irand@
CONST	SEGMENT
??_C@_05CCJGGLIO@irand@ DB 'irand', 00H			; `string'
CONST	ENDS
;	COMDAT ??_C@_07OMLILGHE@irandom@
CONST	SEGMENT
??_C@_07OMLILGHE@irandom@ DB 'irandom', 00H		; `string'
CONST	ENDS
;	COMDAT ??_C@_06EBGNBFIA@number@
CONST	SEGMENT
??_C@_06EBGNBFIA@number@ DB 'number', 00H		; `string'
CONST	ENDS
;	COMDAT ??_C@_03LJAEFNNE@max@
CONST	SEGMENT
??_C@_03LJAEFNNE@max@ DB 'max', 00H			; `string'
CONST	ENDS
;	COMDAT ??_C@_03KLIPLJLL@min@
CONST	SEGMENT
??_C@_03KLIPLJLL@min@ DB 'min', 00H			; `string'
CONST	ENDS
;	COMDAT ??_7CPoly@@6B@
CONST	SEGMENT
??_7CPoly@@6B@ DD FLAT:??_R4CPoly@@6B@			; CPoly::`vftable'
	DD	FLAT:??_ECPoly@@UAEPAXI@Z
CONST	ENDS
;	COMDAT ??_C@_0BA@JFNIOLAK@string?5too?5long@
CONST	SEGMENT
??_C@_0BA@JFNIOLAK@string?5too?5long@ DB 'string too long', 00H ; `string'
CONST	ENDS
;	COMDAT __CT??_R0?AVexception@std@@@8??0exception@std@@QAE@ABV01@@Z12
xdata$x	SEGMENT
__CT??_R0?AVexception@std@@@8??0exception@std@@QAE@ABV01@@Z12 DD 00H
	DD	FLAT:??_R0?AVexception@std@@@8
	DD	00H
	DD	0ffffffffH
	ORG $+4
	DD	0cH
	DD	FLAT:??0exception@std@@QAE@ABV01@@Z
xdata$x	ENDS
;	COMDAT ??_R0?AVexception@std@@@8
data$r	SEGMENT
??_R0?AVexception@std@@@8 DD FLAT:??_7type_info@@6B@	; std::exception `RTTI Type Descriptor'
	DD	00H
	DB	'.?AVexception@std@@', 00H
data$r	ENDS
;	COMDAT __CT??_R0?AVbad_alloc@std@@@8??0bad_alloc@std@@QAE@ABV01@@Z12
xdata$x	SEGMENT
__CT??_R0?AVbad_alloc@std@@@8??0bad_alloc@std@@QAE@ABV01@@Z12 DD 010H
	DD	FLAT:??_R0?AVbad_alloc@std@@@8
	DD	00H
	DD	0ffffffffH
	ORG $+4
	DD	0cH
	DD	FLAT:??0bad_alloc@std@@QAE@ABV01@@Z
xdata$x	ENDS
;	COMDAT ??_R0?AVbad_alloc@std@@@8
data$r	SEGMENT
??_R0?AVbad_alloc@std@@@8 DD FLAT:??_7type_info@@6B@	; std::bad_alloc `RTTI Type Descriptor'
	DD	00H
	DB	'.?AVbad_alloc@std@@', 00H
data$r	ENDS
;	COMDAT __CT??_R0?AVbad_array_new_length@std@@@8??0bad_array_new_length@std@@QAE@ABV01@@Z12
xdata$x	SEGMENT
__CT??_R0?AVbad_array_new_length@std@@@8??0bad_array_new_length@std@@QAE@ABV01@@Z12 DD 00H
	DD	FLAT:??_R0?AVbad_array_new_length@std@@@8
	DD	00H
	DD	0ffffffffH
	ORG $+4
	DD	0cH
	DD	FLAT:??0bad_array_new_length@std@@QAE@ABV01@@Z
xdata$x	ENDS
;	COMDAT ??_R0?AVbad_array_new_length@std@@@8
data$r	SEGMENT
??_R0?AVbad_array_new_length@std@@@8 DD FLAT:??_7type_info@@6B@ ; std::bad_array_new_length `RTTI Type Descriptor'
	DD	00H
	DB	'.?AVbad_array_new_length@std@@', 00H
data$r	ENDS
;	COMDAT __CTA3?AVbad_array_new_length@std@@
xdata$x	SEGMENT
__CTA3?AVbad_array_new_length@std@@ DD 03H
	DD	FLAT:__CT??_R0?AVbad_array_new_length@std@@@8??0bad_array_new_length@std@@QAE@ABV01@@Z12
	DD	FLAT:__CT??_R0?AVbad_alloc@std@@@8??0bad_alloc@std@@QAE@ABV01@@Z12
	DD	FLAT:__CT??_R0?AVexception@std@@@8??0exception@std@@QAE@ABV01@@Z12
xdata$x	ENDS
;	COMDAT __TI3?AVbad_array_new_length@std@@
xdata$x	SEGMENT
__TI3?AVbad_array_new_length@std@@ DD 00H
	DD	FLAT:??1bad_array_new_length@std@@UAE@XZ
	DD	00H
	DD	FLAT:__CTA3?AVbad_array_new_length@std@@
xdata$x	ENDS
;	COMDAT ??_C@_0BF@KINCDENJ@bad?5array?5new?5length@
CONST	SEGMENT
??_C@_0BF@KINCDENJ@bad?5array?5new?5length@ DB 'bad array new length', 00H ; `string'
CONST	ENDS
;	COMDAT ??_7bad_array_new_length@std@@6B@
CONST	SEGMENT
??_7bad_array_new_length@std@@6B@ DD FLAT:??_R4bad_array_new_length@std@@6B@ ; std::bad_array_new_length::`vftable'
	DD	FLAT:??_Ebad_array_new_length@std@@UAEPAXI@Z
	DD	FLAT:?what@exception@std@@UBEPBDXZ
CONST	ENDS
;	COMDAT ??_7bad_alloc@std@@6B@
CONST	SEGMENT
??_7bad_alloc@std@@6B@ DD FLAT:??_R4bad_alloc@std@@6B@	; std::bad_alloc::`vftable'
	DD	FLAT:??_Ebad_alloc@std@@UAEPAXI@Z
	DD	FLAT:?what@exception@std@@UBEPBDXZ
CONST	ENDS
;	COMDAT ??_C@_0BC@EOODALEL@Unknown?5exception@
CONST	SEGMENT
??_C@_0BC@EOODALEL@Unknown?5exception@ DB 'Unknown exception', 00H ; `string'
CONST	ENDS
;	COMDAT ??_7exception@std@@6B@
CONST	SEGMENT
??_7exception@std@@6B@ DD FLAT:??_R4exception@std@@6B@	; std::exception::`vftable'
	DD	FLAT:??_Eexception@std@@UAEPAXI@Z
	DD	FLAT:?what@exception@std@@UBEPBDXZ
CONST	ENDS
;	COMDAT xdata$x
xdata$x	SEGMENT
__unwindtable$?lexan@CPoly@@IAEHXZ DD 0ffffffffH
	DD	FLAT:__unwindfunclet$?lexan@CPoly@@IAEHXZ$0
__ehfuncinfo$?lexan@CPoly@@IAEHXZ DD 019930522H
	DD	01H
	DD	FLAT:__unwindtable$?lexan@CPoly@@IAEHXZ
	DD	2 DUP(00H)
	DD	2 DUP(00H)
	DD	00H
	DD	01H
xdata$x	ENDS
;	COMDAT xdata$x
xdata$x	SEGMENT
__unwindtable$?insert@CPoly@@IAEHABV?$basic_string@DU?$char_traits@D@std@@V?$allocator@D@2@@std@@H@Z DD 0ffffffffH
	DD	FLAT:__unwindfunclet$?insert@CPoly@@IAEHABV?$basic_string@DU?$char_traits@D@std@@V?$allocator@D@2@@std@@H@Z$0
__ehfuncinfo$?insert@CPoly@@IAEHABV?$basic_string@DU?$char_traits@D@std@@V?$allocator@D@2@@std@@H@Z DD 019930522H
	DD	01H
	DD	FLAT:__unwindtable$?insert@CPoly@@IAEHABV?$basic_string@DU?$char_traits@D@std@@V?$allocator@D@2@@std@@H@Z
	DD	2 DUP(00H)
	DD	2 DUP(00H)
	DD	00H
	DD	01H
xdata$x	ENDS
;	COMDAT xdata$x
xdata$x	SEGMENT
__ehfuncinfo$?init@CPoly@@IAEXXZ DD 019930522H
	DD	018H
	DD	FLAT:__unwindtable$?init@CPoly@@IAEXXZ
	DD	2 DUP(00H)
	DD	2 DUP(00H)
	DD	00H
	DD	01H
__unwindtable$?init@CPoly@@IAEXXZ DD 0ffffffffH
	DD	FLAT:__unwindfunclet$?init@CPoly@@IAEXXZ$0
	DD	0ffffffffH
	DD	FLAT:__unwindfunclet$?init@CPoly@@IAEXXZ$1
	DD	0ffffffffH
	DD	FLAT:__unwindfunclet$?init@CPoly@@IAEXXZ$2
	DD	0ffffffffH
	DD	FLAT:__unwindfunclet$?init@CPoly@@IAEXXZ$3
	DD	0ffffffffH
	DD	FLAT:__unwindfunclet$?init@CPoly@@IAEXXZ$4
	DD	0ffffffffH
	DD	FLAT:__unwindfunclet$?init@CPoly@@IAEXXZ$5
	DD	0ffffffffH
	DD	FLAT:__unwindfunclet$?init@CPoly@@IAEXXZ$6
	DD	0ffffffffH
	DD	FLAT:__unwindfunclet$?init@CPoly@@IAEXXZ$7
	DD	0ffffffffH
	DD	FLAT:__unwindfunclet$?init@CPoly@@IAEXXZ$8
	DD	0ffffffffH
	DD	FLAT:__unwindfunclet$?init@CPoly@@IAEXXZ$9
	DD	0ffffffffH
	DD	FLAT:__unwindfunclet$?init@CPoly@@IAEXXZ$10
	DD	0ffffffffH
	DD	FLAT:__unwindfunclet$?init@CPoly@@IAEXXZ$11
	DD	0ffffffffH
	DD	FLAT:__unwindfunclet$?init@CPoly@@IAEXXZ$12
	DD	0ffffffffH
	DD	FLAT:__unwindfunclet$?init@CPoly@@IAEXXZ$13
	DD	0ffffffffH
	DD	FLAT:__unwindfunclet$?init@CPoly@@IAEXXZ$14
	DD	0ffffffffH
	DD	FLAT:__unwindfunclet$?init@CPoly@@IAEXXZ$15
	DD	0ffffffffH
	DD	FLAT:__unwindfunclet$?init@CPoly@@IAEXXZ$16
	DD	0ffffffffH
	DD	FLAT:__unwindfunclet$?init@CPoly@@IAEXXZ$18
	DD	0ffffffffH
	DD	FLAT:__unwindfunclet$?init@CPoly@@IAEXXZ$20
	DD	0ffffffffH
	DD	FLAT:__unwindfunclet$?init@CPoly@@IAEXXZ$21
	DD	0ffffffffH
	DD	FLAT:__unwindfunclet$?init@CPoly@@IAEXXZ$22
	DD	0ffffffffH
	DD	FLAT:__unwindfunclet$?init@CPoly@@IAEXXZ$23
	DD	0ffffffffH
	DD	FLAT:__unwindfunclet$?init@CPoly@@IAEXXZ$24
	DD	0ffffffffH
	DD	FLAT:__unwindfunclet$?init@CPoly@@IAEXXZ$25
xdata$x	ENDS
;	COMDAT xdata$x
xdata$x	SEGMENT
__unwindtable$?Analyze@CPoly@@QAEHPBD@Z DD 0ffffffffH
	DD	FLAT:__unwindfunclet$?Analyze@CPoly@@QAEHPBD@Z$0
__ehfuncinfo$?Analyze@CPoly@@QAEHPBD@Z DD 019930522H
	DD	01H
	DD	FLAT:__unwindtable$?Analyze@CPoly@@QAEHPBD@Z
	DD	2 DUP(00H)
	DD	2 DUP(00H)
	DD	00H
	DD	01H
xdata$x	ENDS
;	COMDAT xdata$x
xdata$x	SEGMENT
__ehfuncinfo$??0CPoly@@QAE@XZ DD 019930522H
	DD	05H
	DD	FLAT:__unwindtable$??0CPoly@@QAE@XZ
	DD	2 DUP(00H)
	DD	2 DUP(00H)
	DD	00H
	DD	01H
__unwindtable$??0CPoly@@QAE@XZ DD 0ffffffffH
	DD	FLAT:__unwindfunclet$??0CPoly@@QAE@XZ$0
	DD	00H
	DD	FLAT:__unwindfunclet$??0CPoly@@QAE@XZ$1
	DD	01H
	DD	FLAT:__unwindfunclet$??0CPoly@@QAE@XZ$2
	DD	02H
	DD	FLAT:__unwindfunclet$??0CPoly@@QAE@XZ$3
	DD	03H
	DD	FLAT:__unwindfunclet$??0CPoly@@QAE@XZ$4
xdata$x	ENDS
; Function compile flags: /Ogtp
; File C:\Program Files (x86)\Microsoft Visual Studio\2019\Professional\VC\Tools\MSVC\14.29.30133\include\xutility
;	COMDAT ??$_Copy_memmove@PAHPAH@std@@YAPAHPAH00@Z
_TEXT	SEGMENT
__First$ = 8						; size = 4
__Last$ = 12						; size = 4
__Dest$ = 16						; size = 4
??$_Copy_memmove@PAHPAH@std@@YAPAHPAH00@Z PROC		; std::_Copy_memmove<int *,int *>, COMDAT

; 4159 : _OutCtgIt _Copy_memmove(_CtgIt _First, _CtgIt _Last, _OutCtgIt _Dest) {

  00000	55		 push	 ebp
  00001	8b ec		 mov	 ebp, esp

; 4160 :     auto _FirstPtr              = _To_address(_First);
; 4161 :     auto _LastPtr               = _To_address(_Last);
; 4162 :     auto _DestPtr               = _To_address(_Dest);
; 4163 :     const char* const _First_ch = const_cast<const char*>(reinterpret_cast<const volatile char*>(_FirstPtr));
; 4164 :     const char* const _Last_ch  = const_cast<const char*>(reinterpret_cast<const volatile char*>(_LastPtr));
; 4165 :     char* const _Dest_ch        = const_cast<char*>(reinterpret_cast<const volatile char*>(_DestPtr));
; 4166 :     const auto _Count           = static_cast<size_t>(_Last_ch - _First_ch);

  00003	8b 45 08	 mov	 eax, DWORD PTR __First$[ebp]
  00006	56		 push	 esi

; 4167 :     _CSTD memmove(_Dest_ch, _First_ch, _Count);

  00007	8b 75 10	 mov	 esi, DWORD PTR __Dest$[ebp]
  0000a	57		 push	 edi
  0000b	8b 7d 0c	 mov	 edi, DWORD PTR __Last$[ebp]
  0000e	2b f8		 sub	 edi, eax
  00010	57		 push	 edi
  00011	50		 push	 eax
  00012	56		 push	 esi
  00013	e8 00 00 00 00	 call	 _memmove
  00018	83 c4 0c	 add	 esp, 12			; 0000000cH

; 4168 :     if constexpr (is_pointer_v<_OutCtgIt>) {
; 4169 :         return reinterpret_cast<_OutCtgIt>(_Dest_ch + _Count);

  0001b	8d 04 37	 lea	 eax, DWORD PTR [edi+esi]
  0001e	5f		 pop	 edi
  0001f	5e		 pop	 esi

; 4170 :     } else {
; 4171 :         return _Dest + (_LastPtr - _FirstPtr);
; 4172 :     }
; 4173 : }

  00020	5d		 pop	 ebp
  00021	c3		 ret	 0
??$_Copy_memmove@PAHPAH@std@@YAPAHPAH00@Z ENDP		; std::_Copy_memmove<int *,int *>
_TEXT	ENDS
; Function compile flags: /Ogtp
; File C:\Program Files (x86)\Microsoft Visual Studio\2019\Professional\VC\Tools\MSVC\14.29.30133\include\xutility
;	COMDAT ??$_Copy_memmove@PANPAN@std@@YAPANPAN00@Z
_TEXT	SEGMENT
__First$ = 8						; size = 4
__Last$ = 12						; size = 4
__Dest$ = 16						; size = 4
??$_Copy_memmove@PANPAN@std@@YAPANPAN00@Z PROC		; std::_Copy_memmove<double *,double *>, COMDAT

; 4159 : _OutCtgIt _Copy_memmove(_CtgIt _First, _CtgIt _Last, _OutCtgIt _Dest) {

  00000	55		 push	 ebp
  00001	8b ec		 mov	 ebp, esp

; 4160 :     auto _FirstPtr              = _To_address(_First);
; 4161 :     auto _LastPtr               = _To_address(_Last);
; 4162 :     auto _DestPtr               = _To_address(_Dest);
; 4163 :     const char* const _First_ch = const_cast<const char*>(reinterpret_cast<const volatile char*>(_FirstPtr));
; 4164 :     const char* const _Last_ch  = const_cast<const char*>(reinterpret_cast<const volatile char*>(_LastPtr));
; 4165 :     char* const _Dest_ch        = const_cast<char*>(reinterpret_cast<const volatile char*>(_DestPtr));
; 4166 :     const auto _Count           = static_cast<size_t>(_Last_ch - _First_ch);

  00003	8b 45 08	 mov	 eax, DWORD PTR __First$[ebp]
  00006	56		 push	 esi

; 4167 :     _CSTD memmove(_Dest_ch, _First_ch, _Count);

  00007	8b 75 10	 mov	 esi, DWORD PTR __Dest$[ebp]
  0000a	57		 push	 edi
  0000b	8b 7d 0c	 mov	 edi, DWORD PTR __Last$[ebp]
  0000e	2b f8		 sub	 edi, eax
  00010	57		 push	 edi
  00011	50		 push	 eax
  00012	56		 push	 esi
  00013	e8 00 00 00 00	 call	 _memmove
  00018	83 c4 0c	 add	 esp, 12			; 0000000cH

; 4168 :     if constexpr (is_pointer_v<_OutCtgIt>) {
; 4169 :         return reinterpret_cast<_OutCtgIt>(_Dest_ch + _Count);

  0001b	8d 04 37	 lea	 eax, DWORD PTR [edi+esi]
  0001e	5f		 pop	 edi
  0001f	5e		 pop	 esi

; 4170 :     } else {
; 4171 :         return _Dest + (_LastPtr - _FirstPtr);
; 4172 :     }
; 4173 : }

  00020	5d		 pop	 ebp
  00021	c3		 ret	 0
??$_Copy_memmove@PANPAN@std@@YAPANPAN00@Z ENDP		; std::_Copy_memmove<double *,double *>
_TEXT	ENDS
; Function compile flags: /Ogtp
; File C:\Program Files (x86)\Microsoft Visual Studio\2019\Professional\VC\Tools\MSVC\14.29.30133\include\xutility
;	COMDAT ??$_Copy_backward_memmove@PAHPAH@std@@YAPAHPAH00@Z
_TEXT	SEGMENT
__First$ = 8						; size = 4
__Last$ = 12						; size = 4
__Dest$ = 16						; size = 4
??$_Copy_backward_memmove@PAHPAH@std@@YAPAHPAH00@Z PROC	; std::_Copy_backward_memmove<int *,int *>, COMDAT

; 4354 : _CtgIt2 _Copy_backward_memmove(_CtgIt1 _First, _CtgIt1 _Last, _CtgIt2 _Dest) {

  00000	55		 push	 ebp
  00001	8b ec		 mov	 ebp, esp

; 4355 :     // implement copy_backward-like function as memmove
; 4356 :     auto _FirstPtr              = _To_address(_First);
; 4357 :     auto _LastPtr               = _To_address(_Last);
; 4358 :     auto _DestPtr               = _To_address(_Dest);
; 4359 :     const char* const _First_ch = const_cast<const char*>(reinterpret_cast<const volatile char*>(_FirstPtr));
; 4360 :     const char* const _Last_ch  = const_cast<const char*>(reinterpret_cast<const volatile char*>(_LastPtr));
; 4361 :     char* const _Dest_ch        = const_cast<char*>(reinterpret_cast<const volatile char*>(_DestPtr));
; 4362 :     const auto _Count           = static_cast<size_t>(_Last_ch - _First_ch);

  00003	8b 45 08	 mov	 eax, DWORD PTR __First$[ebp]
  00006	8b 4d 0c	 mov	 ecx, DWORD PTR __Last$[ebp]
  00009	2b c8		 sub	 ecx, eax

; 4363 :     auto _Result                = _CSTD memmove(_Dest_ch - _Count, _First_ch, _Count);

  0000b	51		 push	 ecx
  0000c	50		 push	 eax
  0000d	8b 45 10	 mov	 eax, DWORD PTR __Dest$[ebp]
  00010	2b c1		 sub	 eax, ecx
  00012	50		 push	 eax
  00013	e8 00 00 00 00	 call	 _memmove
  00018	83 c4 0c	 add	 esp, 12			; 0000000cH

; 4364 :     if constexpr (is_pointer_v<_CtgIt2>) {
; 4365 :         return static_cast<_CtgIt2>(_Result);
; 4366 :     } else {
; 4367 :         return _Dest - (_LastPtr - _FirstPtr);
; 4368 :     }
; 4369 : }

  0001b	5d		 pop	 ebp
  0001c	c3		 ret	 0
??$_Copy_backward_memmove@PAHPAH@std@@YAPAHPAH00@Z ENDP	; std::_Copy_backward_memmove<int *,int *>
_TEXT	ENDS
; Function compile flags: /Ogtp
; File C:\Program Files (x86)\Microsoft Visual Studio\2019\Professional\VC\Tools\MSVC\14.29.30133\include\xutility
;	COMDAT ??$_Copy_memmove@PAPAVCSymTable@@PAPAV1@@std@@YAPAPAVCSymTable@@PAPAV1@00@Z
_TEXT	SEGMENT
__First$ = 8						; size = 4
__Last$ = 12						; size = 4
__Dest$ = 16						; size = 4
??$_Copy_memmove@PAPAVCSymTable@@PAPAV1@@std@@YAPAPAVCSymTable@@PAPAV1@00@Z PROC ; std::_Copy_memmove<CSymTable * *,CSymTable * *>, COMDAT

; 4159 : _OutCtgIt _Copy_memmove(_CtgIt _First, _CtgIt _Last, _OutCtgIt _Dest) {

  00000	55		 push	 ebp
  00001	8b ec		 mov	 ebp, esp

; 4160 :     auto _FirstPtr              = _To_address(_First);
; 4161 :     auto _LastPtr               = _To_address(_Last);
; 4162 :     auto _DestPtr               = _To_address(_Dest);
; 4163 :     const char* const _First_ch = const_cast<const char*>(reinterpret_cast<const volatile char*>(_FirstPtr));
; 4164 :     const char* const _Last_ch  = const_cast<const char*>(reinterpret_cast<const volatile char*>(_LastPtr));
; 4165 :     char* const _Dest_ch        = const_cast<char*>(reinterpret_cast<const volatile char*>(_DestPtr));
; 4166 :     const auto _Count           = static_cast<size_t>(_Last_ch - _First_ch);

  00003	8b 45 08	 mov	 eax, DWORD PTR __First$[ebp]
  00006	56		 push	 esi

; 4167 :     _CSTD memmove(_Dest_ch, _First_ch, _Count);

  00007	8b 75 10	 mov	 esi, DWORD PTR __Dest$[ebp]
  0000a	57		 push	 edi
  0000b	8b 7d 0c	 mov	 edi, DWORD PTR __Last$[ebp]
  0000e	2b f8		 sub	 edi, eax
  00010	57		 push	 edi
  00011	50		 push	 eax
  00012	56		 push	 esi
  00013	e8 00 00 00 00	 call	 _memmove
  00018	83 c4 0c	 add	 esp, 12			; 0000000cH

; 4168 :     if constexpr (is_pointer_v<_OutCtgIt>) {
; 4169 :         return reinterpret_cast<_OutCtgIt>(_Dest_ch + _Count);

  0001b	8d 04 37	 lea	 eax, DWORD PTR [edi+esi]
  0001e	5f		 pop	 edi
  0001f	5e		 pop	 esi

; 4170 :     } else {
; 4171 :         return _Dest + (_LastPtr - _FirstPtr);
; 4172 :     }
; 4173 : }

  00020	5d		 pop	 ebp
  00021	c3		 ret	 0
??$_Copy_memmove@PAPAVCSymTable@@PAPAV1@@std@@YAPAPAVCSymTable@@PAPAV1@00@Z ENDP ; std::_Copy_memmove<CSymTable * *,CSymTable * *>
_TEXT	ENDS
; Function compile flags: /Ogtp
; File C:\Program Files (x86)\Microsoft Visual Studio\2019\Professional\VC\Tools\MSVC\14.29.30133\include\xmemory
;	COMDAT ??$_Allocate_manually_vector_aligned@U_Default_allocate_traits@std@@@std@@YAPAXI@Z
_TEXT	SEGMENT
__Bytes$ = 8						; size = 4
??$_Allocate_manually_vector_aligned@U_Default_allocate_traits@std@@@std@@YAPAXI@Z PROC ; std::_Allocate_manually_vector_aligned<std::_Default_allocate_traits>, COMDAT

; 134  : __declspec(allocator) void* _Allocate_manually_vector_aligned(const size_t _Bytes) {

  00000	55		 push	 ebp
  00001	8b ec		 mov	 ebp, esp

; 135  :     // allocate _Bytes manually aligned to at least _Big_allocation_alignment
; 136  :     const size_t _Block_size = _Non_user_size + _Bytes;

  00003	8b 45 08	 mov	 eax, DWORD PTR __Bytes$[ebp]
  00006	8d 48 23	 lea	 ecx, DWORD PTR [eax+35]

; 137  :     if (_Block_size <= _Bytes) {

  00009	3b c8		 cmp	 ecx, eax
  0000b	0f 86 00 00 00
	00		 jbe	 ?_Throw_bad_array_new_length@std@@YAXXZ ; std::_Throw_bad_array_new_length

; 85   :         return ::operator new(_Bytes);

  00011	51		 push	 ecx
  00012	e8 00 00 00 00	 call	 ??2@YAPAXI@Z		; operator new

; 138  :         _Throw_bad_array_new_length(); // add overflow
; 139  :     }
; 140  : 
; 141  :     const uintptr_t _Ptr_container = reinterpret_cast<uintptr_t>(_Traits::_Allocate(_Block_size));

  00017	8b c8		 mov	 ecx, eax

; 85   :         return ::operator new(_Bytes);

  00019	83 c4 04	 add	 esp, 4

; 142  :     _STL_VERIFY(_Ptr_container != 0, "invalid argument"); // validate even in release since we're doing p[-1]

  0001c	85 c9		 test	 ecx, ecx
  0001e	74 0b		 je	 SHORT $LN7@Allocate_m

; 143  :     void* const _Ptr = reinterpret_cast<void*>((_Ptr_container + _Non_user_size) & ~(_Big_allocation_alignment - 1));

  00020	8d 41 23	 lea	 eax, DWORD PTR [ecx+35]
  00023	83 e0 e0	 and	 eax, -32		; ffffffe0H

; 144  :     static_cast<uintptr_t*>(_Ptr)[-1] = _Ptr_container;

  00026	89 48 fc	 mov	 DWORD PTR [eax-4], ecx

; 145  : 
; 146  : #ifdef _DEBUG
; 147  :     static_cast<uintptr_t*>(_Ptr)[-2] = _Big_allocation_sentinel;
; 148  : #endif // _DEBUG
; 149  :     return _Ptr;
; 150  : }

  00029	5d		 pop	 ebp
  0002a	c3		 ret	 0
$LN7@Allocate_m:

; 142  :     _STL_VERIFY(_Ptr_container != 0, "invalid argument"); // validate even in release since we're doing p[-1]

  0002b	e9 00 00 00 00	 jmp	 __invalid_parameter_noinfo_noreturn
??$_Allocate_manually_vector_aligned@U_Default_allocate_traits@std@@@std@@YAPAXI@Z ENDP ; std::_Allocate_manually_vector_aligned<std::_Default_allocate_traits>
_TEXT	ENDS
; Function compile flags: /Ogtp
; File C:\Program Files (x86)\Microsoft Visual Studio\2019\Professional\VC\Tools\MSVC\14.29.30133\include\xstring
; File C:\Program Files (x86)\Microsoft Visual Studio\2019\Professional\VC\Tools\MSVC\14.29.30133\include\utility
; File C:\Program Files (x86)\Microsoft Visual Studio\2019\Professional\VC\Tools\MSVC\14.29.30133\include\xstring
; File C:\Program Files (x86)\Microsoft Visual Studio\2019\Professional\VC\Tools\MSVC\14.29.30133\include\utility
; File C:\Program Files (x86)\Microsoft Visual Studio\2019\Professional\VC\Tools\MSVC\14.29.30133\include\xstring
;	COMDAT ??$_Traits_compare@U?$char_traits@D@std@@@std@@YAHQBDI0I@Z
_TEXT	SEGMENT
__Left$ = 8						; size = 4
__Left_size$ = 12					; size = 4
__Right$ = 16						; size = 4
__Right_size$ = 20					; size = 4
??$_Traits_compare@U?$char_traits@D@std@@@std@@YAHQBDI0I@Z PROC ; std::_Traits_compare<std::char_traits<char> >, COMDAT

; 588  :     _In_reads_(_Right_size) const _Traits_ptr_t<_Traits> _Right, const size_t _Right_size) noexcept {

  00000	55		 push	 ebp
  00001	8b ec		 mov	 ebp, esp

; 392  :         return _CSTD memcmp(_First1, _First2, _Count);

  00003	8b 55 08	 mov	 edx, DWORD PTR __Left$[ebp]

; 588  :     _In_reads_(_Right_size) const _Traits_ptr_t<_Traits> _Right, const size_t _Right_size) noexcept {

  00006	53		 push	 ebx
; File C:\Program Files (x86)\Microsoft Visual Studio\2019\Professional\VC\Tools\MSVC\14.29.30133\include\utility

; 68   :     return _Right < _Left ? _Right : _Left;

  00007	8b 5d 14	 mov	 ebx, DWORD PTR __Right_size$[ebp]
; File C:\Program Files (x86)\Microsoft Visual Studio\2019\Professional\VC\Tools\MSVC\14.29.30133\include\xstring

; 588  :     _In_reads_(_Right_size) const _Traits_ptr_t<_Traits> _Right, const size_t _Right_size) noexcept {

  0000a	56		 push	 esi

; 392  :         return _CSTD memcmp(_First1, _First2, _Count);

  0000b	8b 75 10	 mov	 esi, DWORD PTR __Right$[ebp]

; 588  :     _In_reads_(_Right_size) const _Traits_ptr_t<_Traits> _Right, const size_t _Right_size) noexcept {

  0000e	57		 push	 edi
; File C:\Program Files (x86)\Microsoft Visual Studio\2019\Professional\VC\Tools\MSVC\14.29.30133\include\utility

; 68   :     return _Right < _Left ? _Right : _Left;

  0000f	8b 7d 0c	 mov	 edi, DWORD PTR __Left_size$[ebp]
  00012	3b df		 cmp	 ebx, edi
  00014	8b cf		 mov	 ecx, edi
  00016	0f 42 cb	 cmovb	 ecx, ebx
; File C:\Program Files (x86)\Microsoft Visual Studio\2019\Professional\VC\Tools\MSVC\14.29.30133\include\xstring

; 392  :         return _CSTD memcmp(_First1, _First2, _Count);

  00019	83 e9 04	 sub	 ecx, 4
  0001c	72 13		 jb	 SHORT $LN12@Traits_com
  0001e	66 90		 npad	 2
$LL13@Traits_com:
  00020	8b 02		 mov	 eax, DWORD PTR [edx]
  00022	3b 06		 cmp	 eax, DWORD PTR [esi]
  00024	75 10		 jne	 SHORT $LN11@Traits_com
  00026	83 c2 04	 add	 edx, 4
  00029	83 c6 04	 add	 esi, 4
  0002c	83 e9 04	 sub	 ecx, 4
  0002f	73 ef		 jae	 SHORT $LL13@Traits_com
$LN12@Traits_com:
  00031	83 f9 fc	 cmp	 ecx, -4			; fffffffcH
  00034	74 34		 je	 SHORT $LN10@Traits_com
$LN11@Traits_com:
  00036	8a 02		 mov	 al, BYTE PTR [edx]
  00038	3a 06		 cmp	 al, BYTE PTR [esi]
  0003a	75 27		 jne	 SHORT $LN14@Traits_com
  0003c	83 f9 fd	 cmp	 ecx, -3			; fffffffdH
  0003f	74 29		 je	 SHORT $LN10@Traits_com
  00041	8a 42 01	 mov	 al, BYTE PTR [edx+1]
  00044	3a 46 01	 cmp	 al, BYTE PTR [esi+1]
  00047	75 1a		 jne	 SHORT $LN14@Traits_com
  00049	83 f9 fe	 cmp	 ecx, -2			; fffffffeH
  0004c	74 1c		 je	 SHORT $LN10@Traits_com
  0004e	8a 42 02	 mov	 al, BYTE PTR [edx+2]
  00051	3a 46 02	 cmp	 al, BYTE PTR [esi+2]
  00054	75 0d		 jne	 SHORT $LN14@Traits_com
  00056	83 f9 ff	 cmp	 ecx, -1
  00059	74 0f		 je	 SHORT $LN10@Traits_com
  0005b	8a 42 03	 mov	 al, BYTE PTR [edx+3]
  0005e	3a 46 03	 cmp	 al, BYTE PTR [esi+3]
  00061	74 07		 je	 SHORT $LN10@Traits_com
$LN14@Traits_com:
  00063	1b c0		 sbb	 eax, eax
  00065	83 c8 01	 or	 eax, 1
  00068	eb 02		 jmp	 SHORT $LN15@Traits_com
$LN10@Traits_com:
  0006a	33 c0		 xor	 eax, eax
$LN15@Traits_com:

; 589  :     // compare [_Left, _Left + _Left_size) to [_Right, _Right + _Right_size) using _Traits
; 590  :     const int _Ans = _Traits::compare(_Left, _Right, (_STD min)(_Left_size, _Right_size));
; 591  : 
; 592  :     if (_Ans != 0) {

  0006c	85 c0		 test	 eax, eax
  0006e	75 10		 jne	 SHORT $LN4@Traits_com

; 593  :         return _Ans;
; 594  :     }
; 595  : 
; 596  :     if (_Left_size < _Right_size) {

  00070	3b df		 cmp	 ebx, edi
  00072	76 08		 jbe	 SHORT $LN16@Traits_com

; 601  :         return 1;
; 602  :     }
; 603  : 
; 604  :     return 0;
; 605  : }

  00074	5f		 pop	 edi
  00075	5e		 pop	 esi
  00076	83 c8 ff	 or	 eax, -1
  00079	5b		 pop	 ebx
  0007a	5d		 pop	 ebp
  0007b	c3		 ret	 0
$LN16@Traits_com:

; 597  :         return -1;
; 598  :     }
; 599  : 
; 600  :     if (_Left_size > _Right_size) {

  0007c	1b c0		 sbb	 eax, eax
  0007e	f7 d8		 neg	 eax
$LN4@Traits_com:

; 601  :         return 1;
; 602  :     }
; 603  : 
; 604  :     return 0;
; 605  : }

  00080	5f		 pop	 edi
  00081	5e		 pop	 esi
  00082	5b		 pop	 ebx
  00083	5d		 pop	 ebp
  00084	c3		 ret	 0
??$_Traits_compare@U?$char_traits@D@std@@@std@@YAHQBDI0I@Z ENDP ; std::_Traits_compare<std::char_traits<char> >
_TEXT	ENDS
; Function compile flags: /Ogtp
; File C:\Program Files (x86)\Microsoft Visual Studio\2019\Professional\VC\Tools\MSVC\14.29.30133\include\vector
; File C:\Program Files (x86)\Microsoft Visual Studio\2019\Professional\VC\Tools\MSVC\14.29.30133\include\xmemory
; File C:\Program Files (x86)\Microsoft Visual Studio\2019\Professional\VC\Tools\MSVC\14.29.30133\include\vector
; File C:\Program Files (x86)\Microsoft Visual Studio\2019\Professional\VC\Tools\MSVC\14.29.30133\include\xmemory
; File C:\Program Files (x86)\Microsoft Visual Studio\2019\Professional\VC\Tools\MSVC\14.29.30133\include\vector
; File C:\Program Files (x86)\Microsoft Visual Studio\2019\Professional\VC\Tools\MSVC\14.29.30133\include\xmemory
; File C:\Program Files (x86)\Microsoft Visual Studio\2019\Professional\VC\Tools\MSVC\14.29.30133\include\vector
; File C:\Program Files (x86)\Microsoft Visual Studio\2019\Professional\VC\Tools\MSVC\14.29.30133\include\xmemory
; File C:\Program Files (x86)\Microsoft Visual Studio\2019\Professional\VC\Tools\MSVC\14.29.30133\include\vector
; File C:\Program Files (x86)\Microsoft Visual Studio\2019\Professional\VC\Tools\MSVC\14.29.30133\include\xmemory
; File C:\Program Files (x86)\Microsoft Visual Studio\2019\Professional\VC\Tools\MSVC\14.29.30133\include\vector
; File C:\Program Files (x86)\Microsoft Visual Studio\2019\Professional\VC\Tools\MSVC\14.29.30133\include\xmemory
; File C:\Program Files (x86)\Microsoft Visual Studio\2019\Professional\VC\Tools\MSVC\14.29.30133\include\vector
; File C:\Program Files (x86)\Microsoft Visual Studio\2019\Professional\VC\Tools\MSVC\14.29.30133\include\xmemory
; File C:\Program Files (x86)\Microsoft Visual Studio\2019\Professional\VC\Tools\MSVC\14.29.30133\include\vector
;	COMDAT ??$_Emplace_reallocate@ABH@?$vector@HV?$allocator@H@std@@@std@@QAEPAHQAHABH@Z
_TEXT	SEGMENT
__Newsize$1$ = -8					; size = 4
__Whereoff$1$ = -4					; size = 4
tv505 = -4						; size = 4
__Whereptr$ = 8						; size = 4
_<_Val_0>$ = 12						; size = 4
??$_Emplace_reallocate@ABH@?$vector@HV?$allocator@H@std@@@std@@QAEPAHQAHABH@Z PROC ; std::vector<int,std::allocator<int> >::_Emplace_reallocate<int const &>, COMDAT
; _this$ = ecx

; 765  :     _CONSTEXPR20_CONTAINER pointer _Emplace_reallocate(const pointer _Whereptr, _Valty&&... _Val) {

  00000	55		 push	 ebp
  00001	8b ec		 mov	 ebp, esp
  00003	83 ec 08	 sub	 esp, 8

; 766  :         // reallocate and insert by perfectly forwarding _Val at _Whereptr
; 767  :         _Alty& _Al        = _Getal();
; 768  :         auto& _My_data    = _Mypair._Myval2;
; 769  :         pointer& _Myfirst = _My_data._Myfirst;
; 770  :         pointer& _Mylast  = _My_data._Mylast;
; 771  : 
; 772  :         _STL_INTERNAL_CHECK(_Mylast == _My_data._Myend); // check that we have no unused capacity
; 773  : 
; 774  :         const auto _Whereoff = static_cast<size_type>(_Whereptr - _Myfirst);

  00006	8b 45 08	 mov	 eax, DWORD PTR __Whereptr$[ebp]
  00009	53		 push	 ebx
  0000a	8b d9		 mov	 ebx, ecx
  0000c	56		 push	 esi
  0000d	57		 push	 edi
  0000e	8b 13		 mov	 edx, DWORD PTR [ebx]
  00010	2b c2		 sub	 eax, edx
  00012	c1 f8 02	 sar	 eax, 2
  00015	89 45 fc	 mov	 DWORD PTR __Whereoff$1$[ebp], eax

; 775  :         const auto _Oldsize  = static_cast<size_type>(_Mylast - _Myfirst);

  00018	8b 43 04	 mov	 eax, DWORD PTR [ebx+4]
  0001b	2b c2		 sub	 eax, edx
  0001d	c1 f8 02	 sar	 eax, 2

; 776  : 
; 777  :         if (_Oldsize == max_size()) {

  00020	3d ff ff ff 3f	 cmp	 eax, 1073741823		; 3fffffffH
  00025	0f 84 d2 00 00
	00		 je	 $LN74@Emplace_re

; 1559 :         return static_cast<size_type>(_My_data._Myend - _My_data._Myfirst);

  0002b	8b 4b 08	 mov	 ecx, DWORD PTR [ebx+8]

; 779  :         }
; 780  : 
; 781  :         const size_type _Newsize     = _Oldsize + 1;

  0002e	8d 78 01	 lea	 edi, DWORD PTR [eax+1]

; 1559 :         return static_cast<size_type>(_My_data._Myend - _My_data._Myfirst);

  00031	2b ca		 sub	 ecx, edx

; 779  :         }
; 780  : 
; 781  :         const size_type _Newsize     = _Oldsize + 1;

  00033	89 7d f8	 mov	 DWORD PTR __Newsize$1$[ebp], edi

; 1559 :         return static_cast<size_type>(_My_data._Myend - _My_data._Myfirst);

  00036	c1 f9 02	 sar	 ecx, 2

; 1688 :         if (_Oldcapacity > _Max - _Oldcapacity / 2) {

  00039	b8 ff ff ff 3f	 mov	 eax, 1073741823		; 3fffffffH
  0003e	8b d1		 mov	 edx, ecx
  00040	d1 ea		 shr	 edx, 1
  00042	2b c2		 sub	 eax, edx
  00044	3b c8		 cmp	 ecx, eax
  00046	76 17		 jbe	 SHORT $LN12@Emplace_re

; 1689 :             return _Max; // geometric growth would overflow

  00048	b8 fc ff ff ff	 mov	 eax, -4			; fffffffcH
  0004d	be ff ff ff 3f	 mov	 esi, 1073741823		; 3fffffffH
; File C:\Program Files (x86)\Microsoft Visual Studio\2019\Professional\VC\Tools\MSVC\14.29.30133\include\xmemory

; 238  :             return _Allocate_manually_vector_aligned<_Traits>(_Bytes);

  00052	50		 push	 eax
  00053	e8 00 00 00 00	 call	 ??$_Allocate_manually_vector_aligned@U_Default_allocate_traits@std@@@std@@YAPAXI@Z ; std::_Allocate_manually_vector_aligned<std::_Default_allocate_traits>
  00058	83 c4 04	 add	 esp, 4
  0005b	8b f8		 mov	 edi, eax
  0005d	eb 44		 jmp	 SHORT $LN23@Emplace_re
$LN12@Emplace_re:
; File C:\Program Files (x86)\Microsoft Visual Studio\2019\Professional\VC\Tools\MSVC\14.29.30133\include\vector

; 1692 :         const size_type _Geometric = _Oldcapacity + _Oldcapacity / 2;

  0005f	8d 04 0a	 lea	 eax, DWORD PTR [edx+ecx]
; File C:\Program Files (x86)\Microsoft Visual Studio\2019\Professional\VC\Tools\MSVC\14.29.30133\include\xmemory

; 64   :         if (_Count > _Max_possible) {

  00062	8b f7		 mov	 esi, edi
  00064	3b c7		 cmp	 eax, edi
  00066	0f 43 f0	 cmovae	 esi, eax
  00069	81 fe ff ff ff
	3f		 cmp	 esi, 1073741823		; 3fffffffH
  0006f	0f 87 8d 00 00
	00		 ja	 $LN75@Emplace_re

; 66   :         }
; 67   :     }
; 68   : 
; 69   :     return _Count * _Ty_size;

  00075	8d 04 b5 00 00
	00 00		 lea	 eax, DWORD PTR [esi*4]

; 237  :         if (_Bytes >= _Big_allocation_threshold) { // boost the alignment of big allocations to help autovectorization

  0007c	3d 00 10 00 00	 cmp	 eax, 4096		; 00001000H
  00081	72 0d		 jb	 SHORT $LN24@Emplace_re

; 238  :             return _Allocate_manually_vector_aligned<_Traits>(_Bytes);

  00083	50		 push	 eax
  00084	e8 00 00 00 00	 call	 ??$_Allocate_manually_vector_aligned@U_Default_allocate_traits@std@@@std@@YAPAXI@Z ; std::_Allocate_manually_vector_aligned<std::_Default_allocate_traits>
  00089	83 c4 04	 add	 esp, 4
  0008c	8b f8		 mov	 edi, eax
  0008e	eb 13		 jmp	 SHORT $LN23@Emplace_re
$LN24@Emplace_re:

; 239  :         }
; 240  :     }
; 241  : #endif // defined(_M_IX86) || defined(_M_X64)
; 242  : 
; 243  :     if (_Bytes != 0) {

  00090	85 c0		 test	 eax, eax
  00092	74 0d		 je	 SHORT $LN25@Emplace_re

; 85   :         return ::operator new(_Bytes);

  00094	50		 push	 eax
  00095	e8 00 00 00 00	 call	 ??2@YAPAXI@Z		; operator new
  0009a	83 c4 04	 add	 esp, 4

; 244  :         return _Traits::_Allocate(_Bytes);

  0009d	8b f8		 mov	 edi, eax
  0009f	eb 02		 jmp	 SHORT $LN23@Emplace_re
$LN25@Emplace_re:

; 245  :     }
; 246  : 
; 247  :     return nullptr;

  000a1	33 ff		 xor	 edi, edi
$LN23@Emplace_re:
; File C:\Program Files (x86)\Microsoft Visual Studio\2019\Professional\VC\Tools\MSVC\14.29.30133\include\vector

; 789  :         _Alty_traits::construct(_Al, _Unfancy(_Newvec + _Whereoff), _STD forward<_Valty>(_Val)...);

  000a3	8b 45 fc	 mov	 eax, DWORD PTR __Whereoff$1$[ebp]
  000a6	8d 0c 87	 lea	 ecx, DWORD PTR [edi+eax*4]
  000a9	8b 45 0c	 mov	 eax, DWORD PTR _<_Val_0>$[ebp]
  000ac	89 4d fc	 mov	 DWORD PTR tv505[ebp], ecx
  000af	8b 00		 mov	 eax, DWORD PTR [eax]
  000b1	89 01		 mov	 DWORD PTR [ecx], eax

; 790  :         _Constructed_first = _Newvec + _Whereoff;
; 791  : 
; 792  :         if (_Whereptr == _Mylast) { // at back, provide strong guarantee

  000b3	8b 4b 04	 mov	 ecx, DWORD PTR [ebx+4]
  000b6	8b 45 08	 mov	 eax, DWORD PTR __Whereptr$[ebp]
  000b9	8b 13		 mov	 edx, DWORD PTR [ebx]
  000bb	3b c1		 cmp	 eax, ecx
  000bd	75 04		 jne	 SHORT $LN4@Emplace_re
; File C:\Program Files (x86)\Microsoft Visual Studio\2019\Professional\VC\Tools\MSVC\14.29.30133\include\xmemory

; 1725 :             _Copy_memmove(_UFirst, _ULast, _Unfancy(_Dest));

  000bf	8b c7		 mov	 eax, edi
; File C:\Program Files (x86)\Microsoft Visual Studio\2019\Professional\VC\Tools\MSVC\14.29.30133\include\vector

; 794  :         } else { // provide basic guarantee

  000c1	eb 17		 jmp	 SHORT $LN60@Emplace_re
$LN4@Emplace_re:
; File C:\Program Files (x86)\Microsoft Visual Studio\2019\Professional\VC\Tools\MSVC\14.29.30133\include\xmemory

; 1725 :             _Copy_memmove(_UFirst, _ULast, _Unfancy(_Dest));

  000c3	57		 push	 edi
  000c4	50		 push	 eax
  000c5	52		 push	 edx
  000c6	e8 00 00 00 00	 call	 ??$_Copy_memmove@PAHPAH@std@@YAPAHPAH00@Z ; std::_Copy_memmove<int *,int *>
; File C:\Program Files (x86)\Microsoft Visual Studio\2019\Professional\VC\Tools\MSVC\14.29.30133\include\vector

; 797  :             _Umove(_Whereptr, _Mylast, _Newvec + _Whereoff + 1);

  000cb	8b 45 fc	 mov	 eax, DWORD PTR tv505[ebp]
; File C:\Program Files (x86)\Microsoft Visual Studio\2019\Professional\VC\Tools\MSVC\14.29.30133\include\xmemory

; 1725 :             _Copy_memmove(_UFirst, _ULast, _Unfancy(_Dest));

  000ce	83 c4 0c	 add	 esp, 12			; 0000000cH
  000d1	8b 55 08	 mov	 edx, DWORD PTR __Whereptr$[ebp]
; File C:\Program Files (x86)\Microsoft Visual Studio\2019\Professional\VC\Tools\MSVC\14.29.30133\include\vector

; 797  :             _Umove(_Whereptr, _Mylast, _Newvec + _Whereoff + 1);

  000d4	83 c0 04	 add	 eax, 4
; File C:\Program Files (x86)\Microsoft Visual Studio\2019\Professional\VC\Tools\MSVC\14.29.30133\include\xmemory

; 1725 :             _Copy_memmove(_UFirst, _ULast, _Unfancy(_Dest));

  000d7	8b 4b 04	 mov	 ecx, DWORD PTR [ebx+4]
$LN60@Emplace_re:
; File C:\Program Files (x86)\Microsoft Visual Studio\2019\Professional\VC\Tools\MSVC\14.29.30133\include\vector

; 797  :             _Umove(_Whereptr, _Mylast, _Newvec + _Whereoff + 1);

  000da	50		 push	 eax
  000db	51		 push	 ecx
  000dc	52		 push	 edx
  000dd	e8 00 00 00 00	 call	 ??$_Copy_memmove@PAHPAH@std@@YAPAHPAH00@Z ; std::_Copy_memmove<int *,int *>
  000e2	83 c4 0c	 add	 esp, 12			; 0000000cH

; 798  :         }
; 799  :         _CATCH_ALL
; 800  :         _Destroy(_Constructed_first, _Constructed_last);
; 801  :         _Al.deallocate(_Newvec, _Newcapacity);
; 802  :         _RERAISE;
; 803  :         _CATCH_END
; 804  : 
; 805  :         _Change_array(_Newvec, _Newsize, _Newcapacity);

  000e5	8b cb		 mov	 ecx, ebx
  000e7	56		 push	 esi
  000e8	ff 75 f8	 push	 DWORD PTR __Newsize$1$[ebp]
  000eb	57		 push	 edi
  000ec	e8 00 00 00 00	 call	 ?_Change_array@?$vector@HV?$allocator@H@std@@@std@@AAEXQAHII@Z ; std::vector<int,std::allocator<int> >::_Change_array

; 806  :         return _Newvec + _Whereoff;

  000f1	8b 45 fc	 mov	 eax, DWORD PTR tv505[ebp]
  000f4	5f		 pop	 edi
  000f5	5e		 pop	 esi
  000f6	5b		 pop	 ebx

; 807  :     }

  000f7	8b e5		 mov	 esp, ebp
  000f9	5d		 pop	 ebp
  000fa	c2 08 00	 ret	 8
$LN74@Emplace_re:

; 778  :             _Xlength();

  000fd	e8 00 00 00 00	 call	 ?_Xlength@?$vector@HV?$allocator@H@std@@@std@@CAXXZ ; std::vector<int,std::allocator<int> >::_Xlength
$LN75@Emplace_re:
; File C:\Program Files (x86)\Microsoft Visual Studio\2019\Professional\VC\Tools\MSVC\14.29.30133\include\xmemory

; 65   :             _Throw_bad_array_new_length(); // multiply overflow

  00102	e8 00 00 00 00	 call	 ?_Throw_bad_array_new_length@std@@YAXXZ ; std::_Throw_bad_array_new_length
$LN72@Emplace_re:
  00107	cc		 int	 3
??$_Emplace_reallocate@ABH@?$vector@HV?$allocator@H@std@@@std@@QAEPAHQAHABH@Z ENDP ; std::vector<int,std::allocator<int> >::_Emplace_reallocate<int const &>
_TEXT	ENDS
; Function compile flags: /Ogtp
; File C:\Program Files (x86)\Microsoft Visual Studio\2019\Professional\VC\Tools\MSVC\14.29.30133\include\vector
; File C:\Program Files (x86)\Microsoft Visual Studio\2019\Professional\VC\Tools\MSVC\14.29.30133\include\xmemory
; File C:\Program Files (x86)\Microsoft Visual Studio\2019\Professional\VC\Tools\MSVC\14.29.30133\include\vector
; File C:\Program Files (x86)\Microsoft Visual Studio\2019\Professional\VC\Tools\MSVC\14.29.30133\include\xmemory
; File C:\Program Files (x86)\Microsoft Visual Studio\2019\Professional\VC\Tools\MSVC\14.29.30133\include\vector
; File C:\Program Files (x86)\Microsoft Visual Studio\2019\Professional\VC\Tools\MSVC\14.29.30133\include\xmemory
; File C:\Program Files (x86)\Microsoft Visual Studio\2019\Professional\VC\Tools\MSVC\14.29.30133\include\vector
; File C:\Program Files (x86)\Microsoft Visual Studio\2019\Professional\VC\Tools\MSVC\14.29.30133\include\xmemory
; File C:\Program Files (x86)\Microsoft Visual Studio\2019\Professional\VC\Tools\MSVC\14.29.30133\include\vector
; File C:\Program Files (x86)\Microsoft Visual Studio\2019\Professional\VC\Tools\MSVC\14.29.30133\include\xmemory
; File C:\Program Files (x86)\Microsoft Visual Studio\2019\Professional\VC\Tools\MSVC\14.29.30133\include\vector
; File C:\Program Files (x86)\Microsoft Visual Studio\2019\Professional\VC\Tools\MSVC\14.29.30133\include\xmemory
; File C:\Program Files (x86)\Microsoft Visual Studio\2019\Professional\VC\Tools\MSVC\14.29.30133\include\vector
; File C:\Program Files (x86)\Microsoft Visual Studio\2019\Professional\VC\Tools\MSVC\14.29.30133\include\xmemory
; File C:\Program Files (x86)\Microsoft Visual Studio\2019\Professional\VC\Tools\MSVC\14.29.30133\include\vector
;	COMDAT ??$_Emplace_reallocate@H@?$vector@HV?$allocator@H@std@@@std@@QAEPAHQAH$$QAH@Z
_TEXT	SEGMENT
__Newsize$1$ = -8					; size = 4
__Whereoff$1$ = -4					; size = 4
tv505 = -4						; size = 4
__Whereptr$ = 8						; size = 4
_<_Val_0>$ = 12						; size = 4
??$_Emplace_reallocate@H@?$vector@HV?$allocator@H@std@@@std@@QAEPAHQAH$$QAH@Z PROC ; std::vector<int,std::allocator<int> >::_Emplace_reallocate<int>, COMDAT
; _this$ = ecx

; 765  :     _CONSTEXPR20_CONTAINER pointer _Emplace_reallocate(const pointer _Whereptr, _Valty&&... _Val) {

  00000	55		 push	 ebp
  00001	8b ec		 mov	 ebp, esp
  00003	83 ec 08	 sub	 esp, 8

; 766  :         // reallocate and insert by perfectly forwarding _Val at _Whereptr
; 767  :         _Alty& _Al        = _Getal();
; 768  :         auto& _My_data    = _Mypair._Myval2;
; 769  :         pointer& _Myfirst = _My_data._Myfirst;
; 770  :         pointer& _Mylast  = _My_data._Mylast;
; 771  : 
; 772  :         _STL_INTERNAL_CHECK(_Mylast == _My_data._Myend); // check that we have no unused capacity
; 773  : 
; 774  :         const auto _Whereoff = static_cast<size_type>(_Whereptr - _Myfirst);

  00006	8b 45 08	 mov	 eax, DWORD PTR __Whereptr$[ebp]
  00009	53		 push	 ebx
  0000a	8b d9		 mov	 ebx, ecx
  0000c	56		 push	 esi
  0000d	57		 push	 edi
  0000e	8b 13		 mov	 edx, DWORD PTR [ebx]
  00010	2b c2		 sub	 eax, edx
  00012	c1 f8 02	 sar	 eax, 2
  00015	89 45 fc	 mov	 DWORD PTR __Whereoff$1$[ebp], eax

; 775  :         const auto _Oldsize  = static_cast<size_type>(_Mylast - _Myfirst);

  00018	8b 43 04	 mov	 eax, DWORD PTR [ebx+4]
  0001b	2b c2		 sub	 eax, edx
  0001d	c1 f8 02	 sar	 eax, 2

; 776  : 
; 777  :         if (_Oldsize == max_size()) {

  00020	3d ff ff ff 3f	 cmp	 eax, 1073741823		; 3fffffffH
  00025	0f 84 d2 00 00
	00		 je	 $LN74@Emplace_re

; 1559 :         return static_cast<size_type>(_My_data._Myend - _My_data._Myfirst);

  0002b	8b 4b 08	 mov	 ecx, DWORD PTR [ebx+8]

; 779  :         }
; 780  : 
; 781  :         const size_type _Newsize     = _Oldsize + 1;

  0002e	8d 78 01	 lea	 edi, DWORD PTR [eax+1]

; 1559 :         return static_cast<size_type>(_My_data._Myend - _My_data._Myfirst);

  00031	2b ca		 sub	 ecx, edx

; 779  :         }
; 780  : 
; 781  :         const size_type _Newsize     = _Oldsize + 1;

  00033	89 7d f8	 mov	 DWORD PTR __Newsize$1$[ebp], edi

; 1559 :         return static_cast<size_type>(_My_data._Myend - _My_data._Myfirst);

  00036	c1 f9 02	 sar	 ecx, 2

; 1688 :         if (_Oldcapacity > _Max - _Oldcapacity / 2) {

  00039	b8 ff ff ff 3f	 mov	 eax, 1073741823		; 3fffffffH
  0003e	8b d1		 mov	 edx, ecx
  00040	d1 ea		 shr	 edx, 1
  00042	2b c2		 sub	 eax, edx
  00044	3b c8		 cmp	 ecx, eax
  00046	76 17		 jbe	 SHORT $LN12@Emplace_re

; 1689 :             return _Max; // geometric growth would overflow

  00048	b8 fc ff ff ff	 mov	 eax, -4			; fffffffcH
  0004d	be ff ff ff 3f	 mov	 esi, 1073741823		; 3fffffffH
; File C:\Program Files (x86)\Microsoft Visual Studio\2019\Professional\VC\Tools\MSVC\14.29.30133\include\xmemory

; 238  :             return _Allocate_manually_vector_aligned<_Traits>(_Bytes);

  00052	50		 push	 eax
  00053	e8 00 00 00 00	 call	 ??$_Allocate_manually_vector_aligned@U_Default_allocate_traits@std@@@std@@YAPAXI@Z ; std::_Allocate_manually_vector_aligned<std::_Default_allocate_traits>
  00058	83 c4 04	 add	 esp, 4
  0005b	8b f8		 mov	 edi, eax
  0005d	eb 44		 jmp	 SHORT $LN23@Emplace_re
$LN12@Emplace_re:
; File C:\Program Files (x86)\Microsoft Visual Studio\2019\Professional\VC\Tools\MSVC\14.29.30133\include\vector

; 1692 :         const size_type _Geometric = _Oldcapacity + _Oldcapacity / 2;

  0005f	8d 04 0a	 lea	 eax, DWORD PTR [edx+ecx]
; File C:\Program Files (x86)\Microsoft Visual Studio\2019\Professional\VC\Tools\MSVC\14.29.30133\include\xmemory

; 64   :         if (_Count > _Max_possible) {

  00062	8b f7		 mov	 esi, edi
  00064	3b c7		 cmp	 eax, edi
  00066	0f 43 f0	 cmovae	 esi, eax
  00069	81 fe ff ff ff
	3f		 cmp	 esi, 1073741823		; 3fffffffH
  0006f	0f 87 8d 00 00
	00		 ja	 $LN75@Emplace_re

; 66   :         }
; 67   :     }
; 68   : 
; 69   :     return _Count * _Ty_size;

  00075	8d 04 b5 00 00
	00 00		 lea	 eax, DWORD PTR [esi*4]

; 237  :         if (_Bytes >= _Big_allocation_threshold) { // boost the alignment of big allocations to help autovectorization

  0007c	3d 00 10 00 00	 cmp	 eax, 4096		; 00001000H
  00081	72 0d		 jb	 SHORT $LN24@Emplace_re

; 238  :             return _Allocate_manually_vector_aligned<_Traits>(_Bytes);

  00083	50		 push	 eax
  00084	e8 00 00 00 00	 call	 ??$_Allocate_manually_vector_aligned@U_Default_allocate_traits@std@@@std@@YAPAXI@Z ; std::_Allocate_manually_vector_aligned<std::_Default_allocate_traits>
  00089	83 c4 04	 add	 esp, 4
  0008c	8b f8		 mov	 edi, eax
  0008e	eb 13		 jmp	 SHORT $LN23@Emplace_re
$LN24@Emplace_re:

; 239  :         }
; 240  :     }
; 241  : #endif // defined(_M_IX86) || defined(_M_X64)
; 242  : 
; 243  :     if (_Bytes != 0) {

  00090	85 c0		 test	 eax, eax
  00092	74 0d		 je	 SHORT $LN25@Emplace_re

; 85   :         return ::operator new(_Bytes);

  00094	50		 push	 eax
  00095	e8 00 00 00 00	 call	 ??2@YAPAXI@Z		; operator new
  0009a	83 c4 04	 add	 esp, 4

; 244  :         return _Traits::_Allocate(_Bytes);

  0009d	8b f8		 mov	 edi, eax
  0009f	eb 02		 jmp	 SHORT $LN23@Emplace_re
$LN25@Emplace_re:

; 245  :     }
; 246  : 
; 247  :     return nullptr;

  000a1	33 ff		 xor	 edi, edi
$LN23@Emplace_re:
; File C:\Program Files (x86)\Microsoft Visual Studio\2019\Professional\VC\Tools\MSVC\14.29.30133\include\vector

; 789  :         _Alty_traits::construct(_Al, _Unfancy(_Newvec + _Whereoff), _STD forward<_Valty>(_Val)...);

  000a3	8b 45 fc	 mov	 eax, DWORD PTR __Whereoff$1$[ebp]
  000a6	8d 0c 87	 lea	 ecx, DWORD PTR [edi+eax*4]
  000a9	8b 45 0c	 mov	 eax, DWORD PTR _<_Val_0>$[ebp]
  000ac	89 4d fc	 mov	 DWORD PTR tv505[ebp], ecx
  000af	8b 00		 mov	 eax, DWORD PTR [eax]
  000b1	89 01		 mov	 DWORD PTR [ecx], eax

; 790  :         _Constructed_first = _Newvec + _Whereoff;
; 791  : 
; 792  :         if (_Whereptr == _Mylast) { // at back, provide strong guarantee

  000b3	8b 4b 04	 mov	 ecx, DWORD PTR [ebx+4]
  000b6	8b 45 08	 mov	 eax, DWORD PTR __Whereptr$[ebp]
  000b9	8b 13		 mov	 edx, DWORD PTR [ebx]
  000bb	3b c1		 cmp	 eax, ecx
  000bd	75 04		 jne	 SHORT $LN4@Emplace_re
; File C:\Program Files (x86)\Microsoft Visual Studio\2019\Professional\VC\Tools\MSVC\14.29.30133\include\xmemory

; 1725 :             _Copy_memmove(_UFirst, _ULast, _Unfancy(_Dest));

  000bf	8b c7		 mov	 eax, edi
; File C:\Program Files (x86)\Microsoft Visual Studio\2019\Professional\VC\Tools\MSVC\14.29.30133\include\vector

; 794  :         } else { // provide basic guarantee

  000c1	eb 17		 jmp	 SHORT $LN60@Emplace_re
$LN4@Emplace_re:
; File C:\Program Files (x86)\Microsoft Visual Studio\2019\Professional\VC\Tools\MSVC\14.29.30133\include\xmemory

; 1725 :             _Copy_memmove(_UFirst, _ULast, _Unfancy(_Dest));

  000c3	57		 push	 edi
  000c4	50		 push	 eax
  000c5	52		 push	 edx
  000c6	e8 00 00 00 00	 call	 ??$_Copy_memmove@PAHPAH@std@@YAPAHPAH00@Z ; std::_Copy_memmove<int *,int *>
; File C:\Program Files (x86)\Microsoft Visual Studio\2019\Professional\VC\Tools\MSVC\14.29.30133\include\vector

; 797  :             _Umove(_Whereptr, _Mylast, _Newvec + _Whereoff + 1);

  000cb	8b 45 fc	 mov	 eax, DWORD PTR tv505[ebp]
; File C:\Program Files (x86)\Microsoft Visual Studio\2019\Professional\VC\Tools\MSVC\14.29.30133\include\xmemory

; 1725 :             _Copy_memmove(_UFirst, _ULast, _Unfancy(_Dest));

  000ce	83 c4 0c	 add	 esp, 12			; 0000000cH
  000d1	8b 55 08	 mov	 edx, DWORD PTR __Whereptr$[ebp]
; File C:\Program Files (x86)\Microsoft Visual Studio\2019\Professional\VC\Tools\MSVC\14.29.30133\include\vector

; 797  :             _Umove(_Whereptr, _Mylast, _Newvec + _Whereoff + 1);

  000d4	83 c0 04	 add	 eax, 4
; File C:\Program Files (x86)\Microsoft Visual Studio\2019\Professional\VC\Tools\MSVC\14.29.30133\include\xmemory

; 1725 :             _Copy_memmove(_UFirst, _ULast, _Unfancy(_Dest));

  000d7	8b 4b 04	 mov	 ecx, DWORD PTR [ebx+4]
$LN60@Emplace_re:
; File C:\Program Files (x86)\Microsoft Visual Studio\2019\Professional\VC\Tools\MSVC\14.29.30133\include\vector

; 797  :             _Umove(_Whereptr, _Mylast, _Newvec + _Whereoff + 1);

  000da	50		 push	 eax
  000db	51		 push	 ecx
  000dc	52		 push	 edx
  000dd	e8 00 00 00 00	 call	 ??$_Copy_memmove@PAHPAH@std@@YAPAHPAH00@Z ; std::_Copy_memmove<int *,int *>
  000e2	83 c4 0c	 add	 esp, 12			; 0000000cH

; 798  :         }
; 799  :         _CATCH_ALL
; 800  :         _Destroy(_Constructed_first, _Constructed_last);
; 801  :         _Al.deallocate(_Newvec, _Newcapacity);
; 802  :         _RERAISE;
; 803  :         _CATCH_END
; 804  : 
; 805  :         _Change_array(_Newvec, _Newsize, _Newcapacity);

  000e5	8b cb		 mov	 ecx, ebx
  000e7	56		 push	 esi
  000e8	ff 75 f8	 push	 DWORD PTR __Newsize$1$[ebp]
  000eb	57		 push	 edi
  000ec	e8 00 00 00 00	 call	 ?_Change_array@?$vector@HV?$allocator@H@std@@@std@@AAEXQAHII@Z ; std::vector<int,std::allocator<int> >::_Change_array

; 806  :         return _Newvec + _Whereoff;

  000f1	8b 45 fc	 mov	 eax, DWORD PTR tv505[ebp]
  000f4	5f		 pop	 edi
  000f5	5e		 pop	 esi
  000f6	5b		 pop	 ebx

; 807  :     }

  000f7	8b e5		 mov	 esp, ebp
  000f9	5d		 pop	 ebp
  000fa	c2 08 00	 ret	 8
$LN74@Emplace_re:

; 778  :             _Xlength();

  000fd	e8 00 00 00 00	 call	 ?_Xlength@?$vector@HV?$allocator@H@std@@@std@@CAXXZ ; std::vector<int,std::allocator<int> >::_Xlength
$LN75@Emplace_re:
; File C:\Program Files (x86)\Microsoft Visual Studio\2019\Professional\VC\Tools\MSVC\14.29.30133\include\xmemory

; 65   :             _Throw_bad_array_new_length(); // multiply overflow

  00102	e8 00 00 00 00	 call	 ?_Throw_bad_array_new_length@std@@YAXXZ ; std::_Throw_bad_array_new_length
$LN72@Emplace_re:
  00107	cc		 int	 3
??$_Emplace_reallocate@H@?$vector@HV?$allocator@H@std@@@std@@QAEPAHQAH$$QAH@Z ENDP ; std::vector<int,std::allocator<int> >::_Emplace_reallocate<int>
_TEXT	ENDS
; Function compile flags: /Ogtp
; File C:\Program Files (x86)\Microsoft Visual Studio\2019\Professional\VC\Tools\MSVC\14.29.30133\include\vector
; File C:\Program Files (x86)\Microsoft Visual Studio\2019\Professional\VC\Tools\MSVC\14.29.30133\include\xmemory
; File C:\Program Files (x86)\Microsoft Visual Studio\2019\Professional\VC\Tools\MSVC\14.29.30133\include\vector
; File C:\Program Files (x86)\Microsoft Visual Studio\2019\Professional\VC\Tools\MSVC\14.29.30133\include\xmemory
; File C:\Program Files (x86)\Microsoft Visual Studio\2019\Professional\VC\Tools\MSVC\14.29.30133\include\vector
; File C:\Program Files (x86)\Microsoft Visual Studio\2019\Professional\VC\Tools\MSVC\14.29.30133\include\xmemory
; File C:\Program Files (x86)\Microsoft Visual Studio\2019\Professional\VC\Tools\MSVC\14.29.30133\include\vector
; File C:\Program Files (x86)\Microsoft Visual Studio\2019\Professional\VC\Tools\MSVC\14.29.30133\include\xmemory
; File C:\Program Files (x86)\Microsoft Visual Studio\2019\Professional\VC\Tools\MSVC\14.29.30133\include\vector
; File C:\Program Files (x86)\Microsoft Visual Studio\2019\Professional\VC\Tools\MSVC\14.29.30133\include\xmemory
; File C:\Program Files (x86)\Microsoft Visual Studio\2019\Professional\VC\Tools\MSVC\14.29.30133\include\vector
; File C:\Program Files (x86)\Microsoft Visual Studio\2019\Professional\VC\Tools\MSVC\14.29.30133\include\xmemory
; File C:\Program Files (x86)\Microsoft Visual Studio\2019\Professional\VC\Tools\MSVC\14.29.30133\include\vector
; File C:\Program Files (x86)\Microsoft Visual Studio\2019\Professional\VC\Tools\MSVC\14.29.30133\include\xmemory
; File C:\Program Files (x86)\Microsoft Visual Studio\2019\Professional\VC\Tools\MSVC\14.29.30133\include\vector
; File C:\Program Files (x86)\Microsoft Visual Studio\2019\Professional\VC\Tools\MSVC\14.29.30133\include\xmemory
; File C:\Program Files (x86)\Microsoft Visual Studio\2019\Professional\VC\Tools\MSVC\14.29.30133\include\vector
; File C:\Program Files (x86)\Microsoft Visual Studio\2019\Professional\VC\Tools\MSVC\14.29.30133\include\xmemory
; File C:\Program Files (x86)\Microsoft Visual Studio\2019\Professional\VC\Tools\MSVC\14.29.30133\include\vector
; File C:\Program Files (x86)\Microsoft Visual Studio\2019\Professional\VC\Tools\MSVC\14.29.30133\include\xmemory
; File C:\Program Files (x86)\Microsoft Visual Studio\2019\Professional\VC\Tools\MSVC\14.29.30133\include\vector
; File C:\Program Files (x86)\Microsoft Visual Studio\2019\Professional\VC\Tools\MSVC\14.29.30133\include\xmemory
; File C:\Program Files (x86)\Microsoft Visual Studio\2019\Professional\VC\Tools\MSVC\14.29.30133\include\vector
; File C:\Program Files (x86)\Microsoft Visual Studio\2019\Professional\VC\Tools\MSVC\14.29.30133\include\xmemory
; File C:\Program Files (x86)\Microsoft Visual Studio\2019\Professional\VC\Tools\MSVC\14.29.30133\include\vector
;	COMDAT ??$_Emplace_reallocate@ABN@?$vector@NV?$allocator@N@std@@@std@@QAEPANQANABN@Z
_TEXT	SEGMENT
__Newsize$1$ = -8					; size = 4
tv673 = -4						; size = 4
__Whereoff$1$ = -4					; size = 4
__Whereptr$ = 8						; size = 4
_<_Val_0>$ = 12						; size = 4
??$_Emplace_reallocate@ABN@?$vector@NV?$allocator@N@std@@@std@@QAEPANQANABN@Z PROC ; std::vector<double,std::allocator<double> >::_Emplace_reallocate<double const &>, COMDAT
; _this$ = ecx

; 765  :     _CONSTEXPR20_CONTAINER pointer _Emplace_reallocate(const pointer _Whereptr, _Valty&&... _Val) {

  00000	55		 push	 ebp
  00001	8b ec		 mov	 ebp, esp
  00003	83 ec 08	 sub	 esp, 8

; 766  :         // reallocate and insert by perfectly forwarding _Val at _Whereptr
; 767  :         _Alty& _Al        = _Getal();
; 768  :         auto& _My_data    = _Mypair._Myval2;
; 769  :         pointer& _Myfirst = _My_data._Myfirst;
; 770  :         pointer& _Mylast  = _My_data._Mylast;
; 771  : 
; 772  :         _STL_INTERNAL_CHECK(_Mylast == _My_data._Myend); // check that we have no unused capacity
; 773  : 
; 774  :         const auto _Whereoff = static_cast<size_type>(_Whereptr - _Myfirst);

  00006	8b 45 08	 mov	 eax, DWORD PTR __Whereptr$[ebp]
  00009	53		 push	 ebx
  0000a	56		 push	 esi
  0000b	8b f1		 mov	 esi, ecx
  0000d	57		 push	 edi
  0000e	8b 0e		 mov	 ecx, DWORD PTR [esi]
  00010	2b c1		 sub	 eax, ecx
  00012	c1 f8 03	 sar	 eax, 3
  00015	89 45 fc	 mov	 DWORD PTR __Whereoff$1$[ebp], eax

; 775  :         const auto _Oldsize  = static_cast<size_type>(_Mylast - _Myfirst);

  00018	8b 46 04	 mov	 eax, DWORD PTR [esi+4]
  0001b	2b c1		 sub	 eax, ecx
  0001d	c1 f8 03	 sar	 eax, 3

; 776  : 
; 777  :         if (_Oldsize == max_size()) {

  00020	3d ff ff ff 1f	 cmp	 eax, 536870911		; 1fffffffH
  00025	0f 84 0a 01 00
	00		 je	 $LN104@Emplace_re

; 1559 :         return static_cast<size_type>(_My_data._Myend - _My_data._Myfirst);

  0002b	8b 56 08	 mov	 edx, DWORD PTR [esi+8]

; 779  :         }
; 780  : 
; 781  :         const size_type _Newsize     = _Oldsize + 1;

  0002e	8d 78 01	 lea	 edi, DWORD PTR [eax+1]

; 1559 :         return static_cast<size_type>(_My_data._Myend - _My_data._Myfirst);

  00031	2b d1		 sub	 edx, ecx

; 779  :         }
; 780  : 
; 781  :         const size_type _Newsize     = _Oldsize + 1;

  00033	89 7d f8	 mov	 DWORD PTR __Newsize$1$[ebp], edi

; 1559 :         return static_cast<size_type>(_My_data._Myend - _My_data._Myfirst);

  00036	c1 fa 03	 sar	 edx, 3

; 1688 :         if (_Oldcapacity > _Max - _Oldcapacity / 2) {

  00039	b8 ff ff ff 1f	 mov	 eax, 536870911		; 1fffffffH
  0003e	8b ca		 mov	 ecx, edx
  00040	d1 e9		 shr	 ecx, 1
  00042	2b c1		 sub	 eax, ecx
  00044	3b d0		 cmp	 edx, eax
  00046	76 12		 jbe	 SHORT $LN12@Emplace_re

; 1689 :             return _Max; // geometric growth would overflow

  00048	bb f8 ff ff ff	 mov	 ebx, -8			; fffffff8H
; File C:\Program Files (x86)\Microsoft Visual Studio\2019\Professional\VC\Tools\MSVC\14.29.30133\include\xmemory

; 238  :             return _Allocate_manually_vector_aligned<_Traits>(_Bytes);

  0004d	53		 push	 ebx
  0004e	e8 00 00 00 00	 call	 ??$_Allocate_manually_vector_aligned@U_Default_allocate_traits@std@@@std@@YAPAXI@Z ; std::_Allocate_manually_vector_aligned<std::_Default_allocate_traits>
  00053	83 c4 04	 add	 esp, 4
  00056	8b f8		 mov	 edi, eax
  00058	eb 41		 jmp	 SHORT $LN23@Emplace_re
$LN12@Emplace_re:
; File C:\Program Files (x86)\Microsoft Visual Studio\2019\Professional\VC\Tools\MSVC\14.29.30133\include\vector

; 1692 :         const size_type _Geometric = _Oldcapacity + _Oldcapacity / 2;

  0005a	8d 04 11	 lea	 eax, DWORD PTR [ecx+edx]
; File C:\Program Files (x86)\Microsoft Visual Studio\2019\Professional\VC\Tools\MSVC\14.29.30133\include\xmemory

; 64   :         if (_Count > _Max_possible) {

  0005d	8b df		 mov	 ebx, edi
  0005f	3b c7		 cmp	 eax, edi
  00061	0f 43 d8	 cmovae	 ebx, eax
  00064	81 fb ff ff ff
	1f		 cmp	 ebx, 536870911		; 1fffffffH
  0006a	0f 87 ca 00 00
	00		 ja	 $LN105@Emplace_re

; 66   :         }
; 67   :     }
; 68   : 
; 69   :     return _Count * _Ty_size;

  00070	c1 e3 03	 shl	 ebx, 3

; 237  :         if (_Bytes >= _Big_allocation_threshold) { // boost the alignment of big allocations to help autovectorization

  00073	81 fb 00 10 00
	00		 cmp	 ebx, 4096		; 00001000H
  00079	72 0d		 jb	 SHORT $LN24@Emplace_re

; 238  :             return _Allocate_manually_vector_aligned<_Traits>(_Bytes);

  0007b	53		 push	 ebx
  0007c	e8 00 00 00 00	 call	 ??$_Allocate_manually_vector_aligned@U_Default_allocate_traits@std@@@std@@YAPAXI@Z ; std::_Allocate_manually_vector_aligned<std::_Default_allocate_traits>
  00081	83 c4 04	 add	 esp, 4
  00084	8b f8		 mov	 edi, eax
  00086	eb 13		 jmp	 SHORT $LN23@Emplace_re
$LN24@Emplace_re:

; 239  :         }
; 240  :     }
; 241  : #endif // defined(_M_IX86) || defined(_M_X64)
; 242  : 
; 243  :     if (_Bytes != 0) {

  00088	85 db		 test	 ebx, ebx
  0008a	74 0d		 je	 SHORT $LN25@Emplace_re

; 85   :         return ::operator new(_Bytes);

  0008c	53		 push	 ebx
  0008d	e8 00 00 00 00	 call	 ??2@YAPAXI@Z		; operator new
  00092	83 c4 04	 add	 esp, 4

; 244  :         return _Traits::_Allocate(_Bytes);

  00095	8b f8		 mov	 edi, eax
  00097	eb 02		 jmp	 SHORT $LN23@Emplace_re
$LN25@Emplace_re:

; 245  :     }
; 246  : 
; 247  :     return nullptr;

  00099	33 ff		 xor	 edi, edi
$LN23@Emplace_re:
; File C:\Program Files (x86)\Microsoft Visual Studio\2019\Professional\VC\Tools\MSVC\14.29.30133\include\vector

; 789  :         _Alty_traits::construct(_Al, _Unfancy(_Newvec + _Whereoff), _STD forward<_Valty>(_Val)...);

  0009b	8b 45 fc	 mov	 eax, DWORD PTR __Whereoff$1$[ebp]
  0009e	8d 0c c7	 lea	 ecx, DWORD PTR [edi+eax*8]
; File C:\Program Files (x86)\Microsoft Visual Studio\2019\Professional\VC\Tools\MSVC\14.29.30133\include\xmemory

; 714  :             ::new (_Voidify_iter(_Ptr)) _Objty(_STD forward<_Types>(_Args)...);

  000a1	8b 45 0c	 mov	 eax, DWORD PTR _<_Val_0>$[ebp]
; File C:\Program Files (x86)\Microsoft Visual Studio\2019\Professional\VC\Tools\MSVC\14.29.30133\include\vector

; 789  :         _Alty_traits::construct(_Al, _Unfancy(_Newvec + _Whereoff), _STD forward<_Valty>(_Val)...);

  000a4	89 4d fc	 mov	 DWORD PTR tv673[ebp], ecx
; File C:\Program Files (x86)\Microsoft Visual Studio\2019\Professional\VC\Tools\MSVC\14.29.30133\include\xmemory

; 714  :             ::new (_Voidify_iter(_Ptr)) _Objty(_STD forward<_Types>(_Args)...);

  000a7	f2 0f 10 00	 movsd	 xmm0, QWORD PTR [eax]
; File C:\Program Files (x86)\Microsoft Visual Studio\2019\Professional\VC\Tools\MSVC\14.29.30133\include\vector

; 792  :         if (_Whereptr == _Mylast) { // at back, provide strong guarantee

  000ab	8b 45 08	 mov	 eax, DWORD PTR __Whereptr$[ebp]
; File C:\Program Files (x86)\Microsoft Visual Studio\2019\Professional\VC\Tools\MSVC\14.29.30133\include\xmemory

; 714  :             ::new (_Voidify_iter(_Ptr)) _Objty(_STD forward<_Types>(_Args)...);

  000ae	f2 0f 11 01	 movsd	 QWORD PTR [ecx], xmm0
; File C:\Program Files (x86)\Microsoft Visual Studio\2019\Professional\VC\Tools\MSVC\14.29.30133\include\vector

; 792  :         if (_Whereptr == _Mylast) { // at back, provide strong guarantee

  000b2	8b 4e 04	 mov	 ecx, DWORD PTR [esi+4]
  000b5	8b 16		 mov	 edx, DWORD PTR [esi]
  000b7	3b c1		 cmp	 eax, ecx
  000b9	75 04		 jne	 SHORT $LN4@Emplace_re
; File C:\Program Files (x86)\Microsoft Visual Studio\2019\Professional\VC\Tools\MSVC\14.29.30133\include\xmemory

; 1725 :             _Copy_memmove(_UFirst, _ULast, _Unfancy(_Dest));

  000bb	8b c7		 mov	 eax, edi
; File C:\Program Files (x86)\Microsoft Visual Studio\2019\Professional\VC\Tools\MSVC\14.29.30133\include\vector

; 794  :         } else { // provide basic guarantee

  000bd	eb 17		 jmp	 SHORT $LN66@Emplace_re
$LN4@Emplace_re:
; File C:\Program Files (x86)\Microsoft Visual Studio\2019\Professional\VC\Tools\MSVC\14.29.30133\include\xmemory

; 1725 :             _Copy_memmove(_UFirst, _ULast, _Unfancy(_Dest));

  000bf	57		 push	 edi
  000c0	50		 push	 eax
  000c1	52		 push	 edx
  000c2	e8 00 00 00 00	 call	 ??$_Copy_memmove@PANPAN@std@@YAPANPAN00@Z ; std::_Copy_memmove<double *,double *>
; File C:\Program Files (x86)\Microsoft Visual Studio\2019\Professional\VC\Tools\MSVC\14.29.30133\include\vector

; 797  :             _Umove(_Whereptr, _Mylast, _Newvec + _Whereoff + 1);

  000c7	8b 45 fc	 mov	 eax, DWORD PTR tv673[ebp]
; File C:\Program Files (x86)\Microsoft Visual Studio\2019\Professional\VC\Tools\MSVC\14.29.30133\include\xmemory

; 1725 :             _Copy_memmove(_UFirst, _ULast, _Unfancy(_Dest));

  000ca	83 c4 0c	 add	 esp, 12			; 0000000cH
  000cd	8b 55 08	 mov	 edx, DWORD PTR __Whereptr$[ebp]
; File C:\Program Files (x86)\Microsoft Visual Studio\2019\Professional\VC\Tools\MSVC\14.29.30133\include\vector

; 797  :             _Umove(_Whereptr, _Mylast, _Newvec + _Whereoff + 1);

  000d0	83 c0 08	 add	 eax, 8
; File C:\Program Files (x86)\Microsoft Visual Studio\2019\Professional\VC\Tools\MSVC\14.29.30133\include\xmemory

; 1725 :             _Copy_memmove(_UFirst, _ULast, _Unfancy(_Dest));

  000d3	8b 4e 04	 mov	 ecx, DWORD PTR [esi+4]
$LN66@Emplace_re:
; File C:\Program Files (x86)\Microsoft Visual Studio\2019\Professional\VC\Tools\MSVC\14.29.30133\include\vector

; 797  :             _Umove(_Whereptr, _Mylast, _Newvec + _Whereoff + 1);

  000d6	50		 push	 eax
  000d7	51		 push	 ecx
  000d8	52		 push	 edx
  000d9	e8 00 00 00 00	 call	 ??$_Copy_memmove@PANPAN@std@@YAPANPAN00@Z ; std::_Copy_memmove<double *,double *>

; 1745 :         if (_Myfirst) { // destroy and deallocate old array

  000de	8b 06		 mov	 eax, DWORD PTR [esi]

; 797  :             _Umove(_Whereptr, _Mylast, _Newvec + _Whereoff + 1);

  000e0	83 c4 0c	 add	 esp, 12			; 0000000cH

; 1745 :         if (_Myfirst) { // destroy and deallocate old array

  000e3	85 c0		 test	 eax, eax
  000e5	74 2c		 je	 SHORT $LN86@Emplace_re

; 1746 :             _Destroy(_Myfirst, _Mylast);
; 1747 :             _Getal().deallocate(_Myfirst, static_cast<size_type>(_Myend - _Myfirst));

  000e7	8b 4e 08	 mov	 ecx, DWORD PTR [esi+8]
  000ea	2b c8		 sub	 ecx, eax
; File C:\Program Files (x86)\Microsoft Visual Studio\2019\Professional\VC\Tools\MSVC\14.29.30133\include\xmemory

; 835  :         _Deallocate<_New_alignof<_Ty>>(_Ptr, sizeof(_Ty) * _Count);

  000ec	83 e1 f8	 and	 ecx, -8			; fffffff8H

; 260  :         if (_Bytes >= _Big_allocation_threshold) { // boost the alignment of big allocations to help autovectorization

  000ef	81 f9 00 10 00
	00		 cmp	 ecx, 4096		; 00001000H
  000f5	72 12		 jb	 SHORT $LN96@Emplace_re

; 158  :     const uintptr_t _Ptr_container   = _Ptr_user[-1];

  000f7	8b 50 fc	 mov	 edx, DWORD PTR [eax-4]
  000fa	83 c1 23	 add	 ecx, 35			; 00000023H

; 159  : 
; 160  :     // If the following asserts, it likely means that we are performing
; 161  :     // an aligned delete on memory coming from an unaligned allocation.
; 162  :     _STL_ASSERT(_Ptr_user[-2] == _Big_allocation_sentinel, "invalid argument");
; 163  : 
; 164  :     // Extra paranoia on aligned allocation/deallocation; ensure _Ptr_container is
; 165  :     // in range [_Min_back_shift, _Non_user_size]
; 166  : #ifdef _DEBUG
; 167  :     constexpr uintptr_t _Min_back_shift = 2 * sizeof(void*);
; 168  : #else // ^^^ _DEBUG ^^^ // vvv !_DEBUG vvv
; 169  :     constexpr uintptr_t _Min_back_shift = sizeof(void*);
; 170  : #endif // _DEBUG
; 171  :     const uintptr_t _Back_shift = reinterpret_cast<uintptr_t>(_Ptr) - _Ptr_container;

  000fd	2b c2		 sub	 eax, edx

; 172  :     _STL_VERIFY(_Back_shift >= _Min_back_shift && _Back_shift <= _Non_user_size, "invalid argument");

  000ff	83 c0 fc	 add	 eax, -4			; fffffffcH
  00102	83 f8 1f	 cmp	 eax, 31			; 0000001fH
  00105	77 29		 ja	 SHORT $LN93@Emplace_re

; 173  :     _Ptr = reinterpret_cast<void*>(_Ptr_container);

  00107	8b c2		 mov	 eax, edx
$LN96@Emplace_re:

; 264  :         ::operator delete(_Ptr, _Bytes);

  00109	51		 push	 ecx
  0010a	50		 push	 eax
  0010b	e8 00 00 00 00	 call	 ??3@YAXPAXI@Z		; operator delete
  00110	83 c4 08	 add	 esp, 8
$LN86@Emplace_re:
; File C:\Program Files (x86)\Microsoft Visual Studio\2019\Professional\VC\Tools\MSVC\14.29.30133\include\vector

; 1751 :         _Mylast  = _Newvec + _Newsize;

  00113	8b 45 f8	 mov	 eax, DWORD PTR __Newsize$1$[ebp]
  00116	89 3e		 mov	 DWORD PTR [esi], edi
  00118	8d 0c c7	 lea	 ecx, DWORD PTR [edi+eax*8]

; 798  :         }
; 799  :         _CATCH_ALL
; 800  :         _Destroy(_Constructed_first, _Constructed_last);
; 801  :         _Al.deallocate(_Newvec, _Newcapacity);
; 802  :         _RERAISE;
; 803  :         _CATCH_END
; 804  : 
; 805  :         _Change_array(_Newvec, _Newsize, _Newcapacity);
; 806  :         return _Newvec + _Whereoff;

  0011b	8b 45 fc	 mov	 eax, DWORD PTR tv673[ebp]

; 1751 :         _Mylast  = _Newvec + _Newsize;

  0011e	89 4e 04	 mov	 DWORD PTR [esi+4], ecx

; 1752 :         _Myend   = _Newvec + _Newcapacity;

  00121	8d 0c 3b	 lea	 ecx, DWORD PTR [ebx+edi]

; 798  :         }
; 799  :         _CATCH_ALL
; 800  :         _Destroy(_Constructed_first, _Constructed_last);
; 801  :         _Al.deallocate(_Newvec, _Newcapacity);
; 802  :         _RERAISE;
; 803  :         _CATCH_END
; 804  : 
; 805  :         _Change_array(_Newvec, _Newsize, _Newcapacity);
; 806  :         return _Newvec + _Whereoff;

  00124	5f		 pop	 edi

; 1752 :         _Myend   = _Newvec + _Newcapacity;

  00125	89 4e 08	 mov	 DWORD PTR [esi+8], ecx

; 798  :         }
; 799  :         _CATCH_ALL
; 800  :         _Destroy(_Constructed_first, _Constructed_last);
; 801  :         _Al.deallocate(_Newvec, _Newcapacity);
; 802  :         _RERAISE;
; 803  :         _CATCH_END
; 804  : 
; 805  :         _Change_array(_Newvec, _Newsize, _Newcapacity);
; 806  :         return _Newvec + _Whereoff;

  00128	5e		 pop	 esi
  00129	5b		 pop	 ebx

; 807  :     }

  0012a	8b e5		 mov	 esp, ebp
  0012c	5d		 pop	 ebp
  0012d	c2 08 00	 ret	 8
$LN93@Emplace_re:
; File C:\Program Files (x86)\Microsoft Visual Studio\2019\Professional\VC\Tools\MSVC\14.29.30133\include\xmemory

; 172  :     _STL_VERIFY(_Back_shift >= _Min_back_shift && _Back_shift <= _Non_user_size, "invalid argument");

  00130	e8 00 00 00 00	 call	 __invalid_parameter_noinfo_noreturn
$LN104@Emplace_re:
; File C:\Program Files (x86)\Microsoft Visual Studio\2019\Professional\VC\Tools\MSVC\14.29.30133\include\vector

; 778  :             _Xlength();

  00135	e8 00 00 00 00	 call	 ?_Xlength@?$vector@NV?$allocator@N@std@@@std@@CAXXZ ; std::vector<double,std::allocator<double> >::_Xlength
$LN105@Emplace_re:
; File C:\Program Files (x86)\Microsoft Visual Studio\2019\Professional\VC\Tools\MSVC\14.29.30133\include\xmemory

; 65   :             _Throw_bad_array_new_length(); // multiply overflow

  0013a	e8 00 00 00 00	 call	 ?_Throw_bad_array_new_length@std@@YAXXZ ; std::_Throw_bad_array_new_length
$LN102@Emplace_re:
  0013f	cc		 int	 3
??$_Emplace_reallocate@ABN@?$vector@NV?$allocator@N@std@@@std@@QAEPANQANABN@Z ENDP ; std::vector<double,std::allocator<double> >::_Emplace_reallocate<double const &>
_TEXT	ENDS
; Function compile flags: /Ogtp
; File C:\Program Files (x86)\Microsoft Visual Studio\2019\Professional\VC\Tools\MSVC\14.29.30133\include\vector
; File C:\Program Files (x86)\Microsoft Visual Studio\2019\Professional\VC\Tools\MSVC\14.29.30133\include\xmemory
; File C:\Program Files (x86)\Microsoft Visual Studio\2019\Professional\VC\Tools\MSVC\14.29.30133\include\vector
; File C:\Program Files (x86)\Microsoft Visual Studio\2019\Professional\VC\Tools\MSVC\14.29.30133\include\xmemory
; File C:\Program Files (x86)\Microsoft Visual Studio\2019\Professional\VC\Tools\MSVC\14.29.30133\include\vector
; File C:\Program Files (x86)\Microsoft Visual Studio\2019\Professional\VC\Tools\MSVC\14.29.30133\include\xmemory
; File C:\Program Files (x86)\Microsoft Visual Studio\2019\Professional\VC\Tools\MSVC\14.29.30133\include\vector
; File C:\Program Files (x86)\Microsoft Visual Studio\2019\Professional\VC\Tools\MSVC\14.29.30133\include\xmemory
; File C:\Program Files (x86)\Microsoft Visual Studio\2019\Professional\VC\Tools\MSVC\14.29.30133\include\vector
; File C:\Program Files (x86)\Microsoft Visual Studio\2019\Professional\VC\Tools\MSVC\14.29.30133\include\xmemory
; File C:\Program Files (x86)\Microsoft Visual Studio\2019\Professional\VC\Tools\MSVC\14.29.30133\include\vector
; File C:\Program Files (x86)\Microsoft Visual Studio\2019\Professional\VC\Tools\MSVC\14.29.30133\include\xmemory
; File C:\Program Files (x86)\Microsoft Visual Studio\2019\Professional\VC\Tools\MSVC\14.29.30133\include\vector
; File C:\Program Files (x86)\Microsoft Visual Studio\2019\Professional\VC\Tools\MSVC\14.29.30133\include\xmemory
; File C:\Program Files (x86)\Microsoft Visual Studio\2019\Professional\VC\Tools\MSVC\14.29.30133\include\vector
;	COMDAT ??$_Emplace_reallocate@PAVCSymTable@@@?$vector@PAVCSymTable@@V?$allocator@PAVCSymTable@@@std@@@std@@QAEPAPAVCSymTable@@QAPAV2@$$QAPAV2@@Z
_TEXT	SEGMENT
__Newsize$1$ = -8					; size = 4
__Whereoff$1$ = -4					; size = 4
tv505 = -4						; size = 4
__Whereptr$ = 8						; size = 4
_<_Val_0>$ = 12						; size = 4
??$_Emplace_reallocate@PAVCSymTable@@@?$vector@PAVCSymTable@@V?$allocator@PAVCSymTable@@@std@@@std@@QAEPAPAVCSymTable@@QAPAV2@$$QAPAV2@@Z PROC ; std::vector<CSymTable *,std::allocator<CSymTable *> >::_Emplace_reallocate<CSymTable *>, COMDAT
; _this$ = ecx

; 765  :     _CONSTEXPR20_CONTAINER pointer _Emplace_reallocate(const pointer _Whereptr, _Valty&&... _Val) {

  00000	55		 push	 ebp
  00001	8b ec		 mov	 ebp, esp
  00003	83 ec 08	 sub	 esp, 8

; 766  :         // reallocate and insert by perfectly forwarding _Val at _Whereptr
; 767  :         _Alty& _Al        = _Getal();
; 768  :         auto& _My_data    = _Mypair._Myval2;
; 769  :         pointer& _Myfirst = _My_data._Myfirst;
; 770  :         pointer& _Mylast  = _My_data._Mylast;
; 771  : 
; 772  :         _STL_INTERNAL_CHECK(_Mylast == _My_data._Myend); // check that we have no unused capacity
; 773  : 
; 774  :         const auto _Whereoff = static_cast<size_type>(_Whereptr - _Myfirst);

  00006	8b 45 08	 mov	 eax, DWORD PTR __Whereptr$[ebp]
  00009	53		 push	 ebx
  0000a	8b d9		 mov	 ebx, ecx
  0000c	56		 push	 esi
  0000d	57		 push	 edi
  0000e	8b 13		 mov	 edx, DWORD PTR [ebx]
  00010	2b c2		 sub	 eax, edx
  00012	c1 f8 02	 sar	 eax, 2
  00015	89 45 fc	 mov	 DWORD PTR __Whereoff$1$[ebp], eax

; 775  :         const auto _Oldsize  = static_cast<size_type>(_Mylast - _Myfirst);

  00018	8b 43 04	 mov	 eax, DWORD PTR [ebx+4]
  0001b	2b c2		 sub	 eax, edx
  0001d	c1 f8 02	 sar	 eax, 2

; 776  : 
; 777  :         if (_Oldsize == max_size()) {

  00020	3d ff ff ff 3f	 cmp	 eax, 1073741823		; 3fffffffH
  00025	0f 84 d2 00 00
	00		 je	 $LN74@Emplace_re

; 1559 :         return static_cast<size_type>(_My_data._Myend - _My_data._Myfirst);

  0002b	8b 4b 08	 mov	 ecx, DWORD PTR [ebx+8]

; 779  :         }
; 780  : 
; 781  :         const size_type _Newsize     = _Oldsize + 1;

  0002e	8d 78 01	 lea	 edi, DWORD PTR [eax+1]

; 1559 :         return static_cast<size_type>(_My_data._Myend - _My_data._Myfirst);

  00031	2b ca		 sub	 ecx, edx

; 779  :         }
; 780  : 
; 781  :         const size_type _Newsize     = _Oldsize + 1;

  00033	89 7d f8	 mov	 DWORD PTR __Newsize$1$[ebp], edi

; 1559 :         return static_cast<size_type>(_My_data._Myend - _My_data._Myfirst);

  00036	c1 f9 02	 sar	 ecx, 2

; 1688 :         if (_Oldcapacity > _Max - _Oldcapacity / 2) {

  00039	b8 ff ff ff 3f	 mov	 eax, 1073741823		; 3fffffffH
  0003e	8b d1		 mov	 edx, ecx
  00040	d1 ea		 shr	 edx, 1
  00042	2b c2		 sub	 eax, edx
  00044	3b c8		 cmp	 ecx, eax
  00046	76 17		 jbe	 SHORT $LN12@Emplace_re

; 1689 :             return _Max; // geometric growth would overflow

  00048	b8 fc ff ff ff	 mov	 eax, -4			; fffffffcH
  0004d	be ff ff ff 3f	 mov	 esi, 1073741823		; 3fffffffH
; File C:\Program Files (x86)\Microsoft Visual Studio\2019\Professional\VC\Tools\MSVC\14.29.30133\include\xmemory

; 238  :             return _Allocate_manually_vector_aligned<_Traits>(_Bytes);

  00052	50		 push	 eax
  00053	e8 00 00 00 00	 call	 ??$_Allocate_manually_vector_aligned@U_Default_allocate_traits@std@@@std@@YAPAXI@Z ; std::_Allocate_manually_vector_aligned<std::_Default_allocate_traits>
  00058	83 c4 04	 add	 esp, 4
  0005b	8b f8		 mov	 edi, eax
  0005d	eb 44		 jmp	 SHORT $LN23@Emplace_re
$LN12@Emplace_re:
; File C:\Program Files (x86)\Microsoft Visual Studio\2019\Professional\VC\Tools\MSVC\14.29.30133\include\vector

; 1692 :         const size_type _Geometric = _Oldcapacity + _Oldcapacity / 2;

  0005f	8d 04 0a	 lea	 eax, DWORD PTR [edx+ecx]
; File C:\Program Files (x86)\Microsoft Visual Studio\2019\Professional\VC\Tools\MSVC\14.29.30133\include\xmemory

; 64   :         if (_Count > _Max_possible) {

  00062	8b f7		 mov	 esi, edi
  00064	3b c7		 cmp	 eax, edi
  00066	0f 43 f0	 cmovae	 esi, eax
  00069	81 fe ff ff ff
	3f		 cmp	 esi, 1073741823		; 3fffffffH
  0006f	0f 87 8d 00 00
	00		 ja	 $LN75@Emplace_re

; 66   :         }
; 67   :     }
; 68   : 
; 69   :     return _Count * _Ty_size;

  00075	8d 04 b5 00 00
	00 00		 lea	 eax, DWORD PTR [esi*4]

; 237  :         if (_Bytes >= _Big_allocation_threshold) { // boost the alignment of big allocations to help autovectorization

  0007c	3d 00 10 00 00	 cmp	 eax, 4096		; 00001000H
  00081	72 0d		 jb	 SHORT $LN24@Emplace_re

; 238  :             return _Allocate_manually_vector_aligned<_Traits>(_Bytes);

  00083	50		 push	 eax
  00084	e8 00 00 00 00	 call	 ??$_Allocate_manually_vector_aligned@U_Default_allocate_traits@std@@@std@@YAPAXI@Z ; std::_Allocate_manually_vector_aligned<std::_Default_allocate_traits>
  00089	83 c4 04	 add	 esp, 4
  0008c	8b f8		 mov	 edi, eax
  0008e	eb 13		 jmp	 SHORT $LN23@Emplace_re
$LN24@Emplace_re:

; 239  :         }
; 240  :     }
; 241  : #endif // defined(_M_IX86) || defined(_M_X64)
; 242  : 
; 243  :     if (_Bytes != 0) {

  00090	85 c0		 test	 eax, eax
  00092	74 0d		 je	 SHORT $LN25@Emplace_re

; 85   :         return ::operator new(_Bytes);

  00094	50		 push	 eax
  00095	e8 00 00 00 00	 call	 ??2@YAPAXI@Z		; operator new
  0009a	83 c4 04	 add	 esp, 4

; 244  :         return _Traits::_Allocate(_Bytes);

  0009d	8b f8		 mov	 edi, eax
  0009f	eb 02		 jmp	 SHORT $LN23@Emplace_re
$LN25@Emplace_re:

; 245  :     }
; 246  : 
; 247  :     return nullptr;

  000a1	33 ff		 xor	 edi, edi
$LN23@Emplace_re:
; File C:\Program Files (x86)\Microsoft Visual Studio\2019\Professional\VC\Tools\MSVC\14.29.30133\include\vector

; 789  :         _Alty_traits::construct(_Al, _Unfancy(_Newvec + _Whereoff), _STD forward<_Valty>(_Val)...);

  000a3	8b 45 fc	 mov	 eax, DWORD PTR __Whereoff$1$[ebp]
  000a6	8d 0c 87	 lea	 ecx, DWORD PTR [edi+eax*4]
  000a9	8b 45 0c	 mov	 eax, DWORD PTR _<_Val_0>$[ebp]
  000ac	89 4d fc	 mov	 DWORD PTR tv505[ebp], ecx
  000af	8b 00		 mov	 eax, DWORD PTR [eax]
  000b1	89 01		 mov	 DWORD PTR [ecx], eax

; 790  :         _Constructed_first = _Newvec + _Whereoff;
; 791  : 
; 792  :         if (_Whereptr == _Mylast) { // at back, provide strong guarantee

  000b3	8b 4b 04	 mov	 ecx, DWORD PTR [ebx+4]
  000b6	8b 45 08	 mov	 eax, DWORD PTR __Whereptr$[ebp]
  000b9	8b 13		 mov	 edx, DWORD PTR [ebx]
  000bb	3b c1		 cmp	 eax, ecx
  000bd	75 04		 jne	 SHORT $LN4@Emplace_re
; File C:\Program Files (x86)\Microsoft Visual Studio\2019\Professional\VC\Tools\MSVC\14.29.30133\include\xmemory

; 1725 :             _Copy_memmove(_UFirst, _ULast, _Unfancy(_Dest));

  000bf	8b c7		 mov	 eax, edi
; File C:\Program Files (x86)\Microsoft Visual Studio\2019\Professional\VC\Tools\MSVC\14.29.30133\include\vector

; 794  :         } else { // provide basic guarantee

  000c1	eb 17		 jmp	 SHORT $LN60@Emplace_re
$LN4@Emplace_re:
; File C:\Program Files (x86)\Microsoft Visual Studio\2019\Professional\VC\Tools\MSVC\14.29.30133\include\xmemory

; 1725 :             _Copy_memmove(_UFirst, _ULast, _Unfancy(_Dest));

  000c3	57		 push	 edi
  000c4	50		 push	 eax
  000c5	52		 push	 edx
  000c6	e8 00 00 00 00	 call	 ??$_Copy_memmove@PAPAVCSymTable@@PAPAV1@@std@@YAPAPAVCSymTable@@PAPAV1@00@Z ; std::_Copy_memmove<CSymTable * *,CSymTable * *>
; File C:\Program Files (x86)\Microsoft Visual Studio\2019\Professional\VC\Tools\MSVC\14.29.30133\include\vector

; 797  :             _Umove(_Whereptr, _Mylast, _Newvec + _Whereoff + 1);

  000cb	8b 45 fc	 mov	 eax, DWORD PTR tv505[ebp]
; File C:\Program Files (x86)\Microsoft Visual Studio\2019\Professional\VC\Tools\MSVC\14.29.30133\include\xmemory

; 1725 :             _Copy_memmove(_UFirst, _ULast, _Unfancy(_Dest));

  000ce	83 c4 0c	 add	 esp, 12			; 0000000cH
  000d1	8b 55 08	 mov	 edx, DWORD PTR __Whereptr$[ebp]
; File C:\Program Files (x86)\Microsoft Visual Studio\2019\Professional\VC\Tools\MSVC\14.29.30133\include\vector

; 797  :             _Umove(_Whereptr, _Mylast, _Newvec + _Whereoff + 1);

  000d4	83 c0 04	 add	 eax, 4
; File C:\Program Files (x86)\Microsoft Visual Studio\2019\Professional\VC\Tools\MSVC\14.29.30133\include\xmemory

; 1725 :             _Copy_memmove(_UFirst, _ULast, _Unfancy(_Dest));

  000d7	8b 4b 04	 mov	 ecx, DWORD PTR [ebx+4]
$LN60@Emplace_re:
; File C:\Program Files (x86)\Microsoft Visual Studio\2019\Professional\VC\Tools\MSVC\14.29.30133\include\vector

; 797  :             _Umove(_Whereptr, _Mylast, _Newvec + _Whereoff + 1);

  000da	50		 push	 eax
  000db	51		 push	 ecx
  000dc	52		 push	 edx
  000dd	e8 00 00 00 00	 call	 ??$_Copy_memmove@PAPAVCSymTable@@PAPAV1@@std@@YAPAPAVCSymTable@@PAPAV1@00@Z ; std::_Copy_memmove<CSymTable * *,CSymTable * *>
  000e2	83 c4 0c	 add	 esp, 12			; 0000000cH

; 798  :         }
; 799  :         _CATCH_ALL
; 800  :         _Destroy(_Constructed_first, _Constructed_last);
; 801  :         _Al.deallocate(_Newvec, _Newcapacity);
; 802  :         _RERAISE;
; 803  :         _CATCH_END
; 804  : 
; 805  :         _Change_array(_Newvec, _Newsize, _Newcapacity);

  000e5	8b cb		 mov	 ecx, ebx
  000e7	56		 push	 esi
  000e8	ff 75 f8	 push	 DWORD PTR __Newsize$1$[ebp]
  000eb	57		 push	 edi
  000ec	e8 00 00 00 00	 call	 ?_Change_array@?$vector@PAVCSymTable@@V?$allocator@PAVCSymTable@@@std@@@std@@AAEXQAPAVCSymTable@@II@Z ; std::vector<CSymTable *,std::allocator<CSymTable *> >::_Change_array

; 806  :         return _Newvec + _Whereoff;

  000f1	8b 45 fc	 mov	 eax, DWORD PTR tv505[ebp]
  000f4	5f		 pop	 edi
  000f5	5e		 pop	 esi
  000f6	5b		 pop	 ebx

; 807  :     }

  000f7	8b e5		 mov	 esp, ebp
  000f9	5d		 pop	 ebp
  000fa	c2 08 00	 ret	 8
$LN74@Emplace_re:

; 778  :             _Xlength();

  000fd	e8 00 00 00 00	 call	 ?_Xlength@?$vector@PAVCSymTable@@V?$allocator@PAVCSymTable@@@std@@@std@@CAXXZ ; std::vector<CSymTable *,std::allocator<CSymTable *> >::_Xlength
$LN75@Emplace_re:
; File C:\Program Files (x86)\Microsoft Visual Studio\2019\Professional\VC\Tools\MSVC\14.29.30133\include\xmemory

; 65   :             _Throw_bad_array_new_length(); // multiply overflow

  00102	e8 00 00 00 00	 call	 ?_Throw_bad_array_new_length@std@@YAXXZ ; std::_Throw_bad_array_new_length
$LN72@Emplace_re:
  00107	cc		 int	 3
??$_Emplace_reallocate@PAVCSymTable@@@?$vector@PAVCSymTable@@V?$allocator@PAVCSymTable@@@std@@@std@@QAEPAPAVCSymTable@@QAPAV2@$$QAPAV2@@Z ENDP ; std::vector<CSymTable *,std::allocator<CSymTable *> >::_Emplace_reallocate<CSymTable *>
_TEXT	ENDS
; Function compile flags: /Ogtp
; File C:\Program Files (x86)\Microsoft Visual Studio\2019\Professional\VC\Tools\MSVC\14.29.30133\include\xstring
;	COMDAT ??$?MDU?$char_traits@D@std@@V?$allocator@D@1@@std@@YA_NABV?$basic_string@DU?$char_traits@D@std@@V?$allocator@D@2@@0@0@Z
_TEXT	SEGMENT
__Left$ = 8						; size = 4
__Right$ = 12						; size = 4
??$?MDU?$char_traits@D@std@@V?$allocator@D@1@@std@@YA_NABV?$basic_string@DU?$char_traits@D@std@@V?$allocator@D@2@@0@0@Z PROC ; std::operator<<char,std::char_traits<char>,std::allocator<char> >, COMDAT

; 4842 :     const basic_string<_Elem, _Traits, _Alloc>& _Left, const basic_string<_Elem, _Traits, _Alloc>& _Right) noexcept {

  00000	55		 push	 ebp
  00001	8b ec		 mov	 ebp, esp

; 2305 :         const value_type* _Result = _Bx._Buf;

  00003	8b 45 0c	 mov	 eax, DWORD PTR __Right$[ebp]
  00006	8b d0		 mov	 edx, eax

; 2319 :         return _BUF_SIZE <= _Myres;

  00008	83 78 14 10	 cmp	 DWORD PTR [eax+20], 16	; 00000010H

; 2306 :         if (_Large_string_engaged()) {

  0000c	72 02		 jb	 SHORT $LN6@operator

; 2307 :             _Result = _Unfancy(_Bx._Ptr);

  0000e	8b 10		 mov	 edx, DWORD PTR [eax]
$LN6@operator:

; 2305 :         const value_type* _Result = _Bx._Buf;

  00010	8b 4d 08	 mov	 ecx, DWORD PTR __Left$[ebp]
  00013	56		 push	 esi
  00014	8b f1		 mov	 esi, ecx

; 2319 :         return _BUF_SIZE <= _Myres;

  00016	83 79 14 10	 cmp	 DWORD PTR [ecx+20], 16	; 00000010H

; 2306 :         if (_Large_string_engaged()) {

  0001a	72 02		 jb	 SHORT $LN11@operator

; 2307 :             _Result = _Unfancy(_Bx._Ptr);

  0001c	8b 31		 mov	 esi, DWORD PTR [ecx]
$LN11@operator:

; 4414 :         return _Traits_compare<_Traits>(_Mypair._Myval2._Myptr(), _Mypair._Myval2._Mysize,

  0001e	ff 70 10	 push	 DWORD PTR [eax+16]
  00021	52		 push	 edx
  00022	ff 71 10	 push	 DWORD PTR [ecx+16]
  00025	56		 push	 esi
  00026	e8 00 00 00 00	 call	 ??$_Traits_compare@U?$char_traits@D@std@@@std@@YAHQBDI0I@Z ; std::_Traits_compare<std::char_traits<char> >
  0002b	83 c4 10	 add	 esp, 16			; 00000010H

; 4843 :     return _Left.compare(_Right) < 0;

  0002e	c1 e8 1f	 shr	 eax, 31			; 0000001fH
  00031	5e		 pop	 esi

; 4844 : }

  00032	5d		 pop	 ebp
  00033	c3		 ret	 0
??$?MDU?$char_traits@D@std@@V?$allocator@D@1@@std@@YA_NABV?$basic_string@DU?$char_traits@D@std@@V?$allocator@D@2@@0@0@Z ENDP ; std::operator<<char,std::char_traits<char>,std::allocator<char> >
_TEXT	ENDS
; Function compile flags: /Ogtp
; File C:\Users\murat\Desktop\Siveps2-1-99-Project\source\client\Client\EterBase\poly\Poly.cpp
;	COMDAT ?_random@@YANXZ
_TEXT	SEGMENT
tv68 = -8						; size = 8
?_random@@YANXZ PROC					; _random, COMDAT

; 13   : {

  00000	55		 push	 ebp
  00001	8b ec		 mov	 ebp, esp
  00003	83 ec 08	 sub	 esp, 8

; 14   :     return rand() / (RAND_MAX + 1.0);

  00006	e8 00 00 00 00	 call	 _rand
  0000b	66 0f 6e c0	 movd	 xmm0, eax
  0000f	f3 0f e6 c0	 cvtdq2pd xmm0, xmm0
  00013	f2 0f 59 05 00
	00 00 00	 mulsd	 xmm0, QWORD PTR __real@3f00000000000000
  0001b	f2 0f 11 45 f8	 movsd	 QWORD PTR tv68[ebp], xmm0
  00020	dd 45 f8	 fld	 QWORD PTR tv68[ebp]

; 15   : }

  00023	8b e5		 mov	 esp, ebp
  00025	5d		 pop	 ebp
  00026	c3		 ret	 0
?_random@@YANXZ ENDP					; _random
_TEXT	ENDS
; Function compile flags: /Ogtp
;	COMDAT ??_GCPoly@@UAEPAXI@Z
_TEXT	SEGMENT
___flags$ = 8						; size = 4
??_GCPoly@@UAEPAXI@Z PROC				; CPoly::`scalar deleting destructor', COMDAT
; _this$ = ecx
  00000	55		 push	 ebp
  00001	8b ec		 mov	 ebp, esp
  00003	56		 push	 esi
  00004	8b f1		 mov	 esi, ecx
  00006	e8 00 00 00 00	 call	 ??1CPoly@@UAE@XZ	; CPoly::~CPoly
  0000b	f6 45 08 01	 test	 BYTE PTR ___flags$[ebp], 1
  0000f	74 0e		 je	 SHORT $LN4@scalar
  00011	68 80 00 00 00	 push	 128			; 00000080H
  00016	56		 push	 esi
  00017	e8 00 00 00 00	 call	 ??3@YAXPAXI@Z		; operator delete
  0001c	83 c4 08	 add	 esp, 8
$LN4@scalar:
  0001f	8b c6		 mov	 eax, esi
  00021	5e		 pop	 esi
  00022	5d		 pop	 ebp
  00023	c2 04 00	 ret	 4
??_GCPoly@@UAEPAXI@Z ENDP				; CPoly::`scalar deleting destructor'
_TEXT	ENDS
; Function compile flags: /Ogtp
; File C:\Program Files (x86)\Microsoft Visual Studio\2019\Professional\VC\Tools\MSVC\14.29.30133\include\vector
;	COMDAT ?_Xlength@?$vector@PAVCSymTable@@V?$allocator@PAVCSymTable@@@std@@@std@@CAXXZ
_TEXT	SEGMENT
?_Xlength@?$vector@PAVCSymTable@@V?$allocator@PAVCSymTable@@@std@@@std@@CAXXZ PROC ; std::vector<CSymTable *,std::allocator<CSymTable *> >::_Xlength, COMDAT

; 1774 :         _Xlength_error("vector too long");

  00000	68 00 00 00 00	 push	 OFFSET ??_C@_0BA@FOIKENOD@vector?5too?5long@
  00005	e8 00 00 00 00	 call	 ?_Xlength_error@std@@YAXPBD@Z ; std::_Xlength_error
$LN3@Xlength:
  0000a	cc		 int	 3
?_Xlength@?$vector@PAVCSymTable@@V?$allocator@PAVCSymTable@@@std@@@std@@CAXXZ ENDP ; std::vector<CSymTable *,std::allocator<CSymTable *> >::_Xlength
_TEXT	ENDS
; Function compile flags: /Ogtp
; File C:\Program Files (x86)\Microsoft Visual Studio\2019\Professional\VC\Tools\MSVC\14.29.30133\include\vector
; File C:\Program Files (x86)\Microsoft Visual Studio\2019\Professional\VC\Tools\MSVC\14.29.30133\include\xmemory
; File C:\Program Files (x86)\Microsoft Visual Studio\2019\Professional\VC\Tools\MSVC\14.29.30133\include\vector
; File C:\Program Files (x86)\Microsoft Visual Studio\2019\Professional\VC\Tools\MSVC\14.29.30133\include\xmemory
; File C:\Program Files (x86)\Microsoft Visual Studio\2019\Professional\VC\Tools\MSVC\14.29.30133\include\vector
;	COMDAT ?_Change_array@?$vector@PAVCSymTable@@V?$allocator@PAVCSymTable@@@std@@@std@@AAEXQAPAVCSymTable@@II@Z
_TEXT	SEGMENT
__Newvec$ = 8						; size = 4
__Newsize$ = 12						; size = 4
__Newcapacity$ = 16					; size = 4
?_Change_array@?$vector@PAVCSymTable@@V?$allocator@PAVCSymTable@@@std@@@std@@AAEXQAPAVCSymTable@@II@Z PROC ; std::vector<CSymTable *,std::allocator<CSymTable *> >::_Change_array, COMDAT
; _this$ = ecx

; 1736 :         const pointer _Newvec, const size_type _Newsize, const size_type _Newcapacity) {

  00000	55		 push	 ebp
  00001	8b ec		 mov	 ebp, esp
  00003	56		 push	 esi
  00004	8b f1		 mov	 esi, ecx

; 1737 :         // orphan all iterators, discard old array, acquire new array
; 1738 :         auto& _My_data    = _Mypair._Myval2;
; 1739 :         pointer& _Myfirst = _My_data._Myfirst;
; 1740 :         pointer& _Mylast  = _My_data._Mylast;
; 1741 :         pointer& _Myend   = _My_data._Myend;
; 1742 : 
; 1743 :         _My_data._Orphan_all();
; 1744 : 
; 1745 :         if (_Myfirst) { // destroy and deallocate old array

  00006	8b 06		 mov	 eax, DWORD PTR [esi]
  00008	85 c0		 test	 eax, eax
  0000a	74 2c		 je	 SHORT $LN8@Change_arr

; 1746 :             _Destroy(_Myfirst, _Mylast);
; 1747 :             _Getal().deallocate(_Myfirst, static_cast<size_type>(_Myend - _Myfirst));

  0000c	8b 4e 08	 mov	 ecx, DWORD PTR [esi+8]
  0000f	2b c8		 sub	 ecx, eax
; File C:\Program Files (x86)\Microsoft Visual Studio\2019\Professional\VC\Tools\MSVC\14.29.30133\include\xmemory

; 835  :         _Deallocate<_New_alignof<_Ty>>(_Ptr, sizeof(_Ty) * _Count);

  00011	83 e1 fc	 and	 ecx, -4			; fffffffcH

; 260  :         if (_Bytes >= _Big_allocation_threshold) { // boost the alignment of big allocations to help autovectorization

  00014	81 f9 00 10 00
	00		 cmp	 ecx, 4096		; 00001000H
  0001a	72 12		 jb	 SHORT $LN18@Change_arr

; 158  :     const uintptr_t _Ptr_container   = _Ptr_user[-1];

  0001c	8b 50 fc	 mov	 edx, DWORD PTR [eax-4]
  0001f	83 c1 23	 add	 ecx, 35			; 00000023H

; 159  : 
; 160  :     // If the following asserts, it likely means that we are performing
; 161  :     // an aligned delete on memory coming from an unaligned allocation.
; 162  :     _STL_ASSERT(_Ptr_user[-2] == _Big_allocation_sentinel, "invalid argument");
; 163  : 
; 164  :     // Extra paranoia on aligned allocation/deallocation; ensure _Ptr_container is
; 165  :     // in range [_Min_back_shift, _Non_user_size]
; 166  : #ifdef _DEBUG
; 167  :     constexpr uintptr_t _Min_back_shift = 2 * sizeof(void*);
; 168  : #else // ^^^ _DEBUG ^^^ // vvv !_DEBUG vvv
; 169  :     constexpr uintptr_t _Min_back_shift = sizeof(void*);
; 170  : #endif // _DEBUG
; 171  :     const uintptr_t _Back_shift = reinterpret_cast<uintptr_t>(_Ptr) - _Ptr_container;

  00022	2b c2		 sub	 eax, edx

; 172  :     _STL_VERIFY(_Back_shift >= _Min_back_shift && _Back_shift <= _Non_user_size, "invalid argument");

  00024	83 c0 fc	 add	 eax, -4			; fffffffcH
  00027	83 f8 1f	 cmp	 eax, 31			; 0000001fH
  0002a	77 28		 ja	 SHORT $LN15@Change_arr

; 173  :     _Ptr = reinterpret_cast<void*>(_Ptr_container);

  0002c	8b c2		 mov	 eax, edx
$LN18@Change_arr:

; 264  :         ::operator delete(_Ptr, _Bytes);

  0002e	51		 push	 ecx
  0002f	50		 push	 eax
  00030	e8 00 00 00 00	 call	 ??3@YAXPAXI@Z		; operator delete
  00035	83 c4 08	 add	 esp, 8
$LN8@Change_arr:
; File C:\Program Files (x86)\Microsoft Visual Studio\2019\Professional\VC\Tools\MSVC\14.29.30133\include\vector

; 1750 :         _Myfirst = _Newvec;

  00038	8b 4d 08	 mov	 ecx, DWORD PTR __Newvec$[ebp]

; 1751 :         _Mylast  = _Newvec + _Newsize;

  0003b	8b 45 0c	 mov	 eax, DWORD PTR __Newsize$[ebp]
  0003e	89 0e		 mov	 DWORD PTR [esi], ecx
  00040	8d 04 81	 lea	 eax, DWORD PTR [ecx+eax*4]
  00043	89 46 04	 mov	 DWORD PTR [esi+4], eax

; 1752 :         _Myend   = _Newvec + _Newcapacity;

  00046	8b 45 10	 mov	 eax, DWORD PTR __Newcapacity$[ebp]
  00049	8d 04 81	 lea	 eax, DWORD PTR [ecx+eax*4]
  0004c	89 46 08	 mov	 DWORD PTR [esi+8], eax
  0004f	5e		 pop	 esi

; 1753 :     }

  00050	5d		 pop	 ebp
  00051	c2 0c 00	 ret	 12			; 0000000cH
$LN15@Change_arr:
; File C:\Program Files (x86)\Microsoft Visual Studio\2019\Professional\VC\Tools\MSVC\14.29.30133\include\xmemory

; 172  :     _STL_VERIFY(_Back_shift >= _Min_back_shift && _Back_shift <= _Non_user_size, "invalid argument");

  00054	e8 00 00 00 00	 call	 __invalid_parameter_noinfo_noreturn
$LN22@Change_arr:
  00059	cc		 int	 3
?_Change_array@?$vector@PAVCSymTable@@V?$allocator@PAVCSymTable@@@std@@@std@@AAEXQAPAVCSymTable@@II@Z ENDP ; std::vector<CSymTable *,std::allocator<CSymTable *> >::_Change_array
_TEXT	ENDS
; Function compile flags: /Ogtp
; File C:\Program Files (x86)\Microsoft Visual Studio\2019\Professional\VC\Tools\MSVC\14.29.30133\include\vector
; File C:\Program Files (x86)\Microsoft Visual Studio\2019\Professional\VC\Tools\MSVC\14.29.30133\include\xmemory
; File C:\Program Files (x86)\Microsoft Visual Studio\2019\Professional\VC\Tools\MSVC\14.29.30133\include\vector
; File C:\Program Files (x86)\Microsoft Visual Studio\2019\Professional\VC\Tools\MSVC\14.29.30133\include\xmemory
; File C:\Program Files (x86)\Microsoft Visual Studio\2019\Professional\VC\Tools\MSVC\14.29.30133\include\vector
; File C:\Program Files (x86)\Microsoft Visual Studio\2019\Professional\VC\Tools\MSVC\14.29.30133\include\xmemory
; File C:\Program Files (x86)\Microsoft Visual Studio\2019\Professional\VC\Tools\MSVC\14.29.30133\include\vector
; File C:\Program Files (x86)\Microsoft Visual Studio\2019\Professional\VC\Tools\MSVC\14.29.30133\include\xmemory
; File C:\Program Files (x86)\Microsoft Visual Studio\2019\Professional\VC\Tools\MSVC\14.29.30133\include\vector
; File C:\Program Files (x86)\Microsoft Visual Studio\2019\Professional\VC\Tools\MSVC\14.29.30133\include\xmemory
; File C:\Program Files (x86)\Microsoft Visual Studio\2019\Professional\VC\Tools\MSVC\14.29.30133\include\vector
;	COMDAT ?_Reallocate_exactly@?$vector@PAVCSymTable@@V?$allocator@PAVCSymTable@@@std@@@std@@AAEXI@Z
_TEXT	SEGMENT
__Size$1$ = -4						; size = 4
__Newcapacity$ = 8					; size = 4
?_Reallocate_exactly@?$vector@PAVCSymTable@@V?$allocator@PAVCSymTable@@@std@@@std@@AAEXI@Z PROC ; std::vector<CSymTable *,std::allocator<CSymTable *> >::_Reallocate_exactly, COMDAT
; _this$ = ecx

; 1299 :     _CONSTEXPR20_CONTAINER void _Reallocate_exactly(const size_type _Newcapacity) {

  00000	55		 push	 ebp
  00001	8b ec		 mov	 ebp, esp
  00003	51		 push	 ecx
  00004	53		 push	 ebx
; File C:\Program Files (x86)\Microsoft Visual Studio\2019\Professional\VC\Tools\MSVC\14.29.30133\include\xmemory

; 64   :         if (_Count > _Max_possible) {

  00005	8b 5d 08	 mov	 ebx, DWORD PTR __Newcapacity$[ebp]
; File C:\Program Files (x86)\Microsoft Visual Studio\2019\Professional\VC\Tools\MSVC\14.29.30133\include\vector

; 1299 :     _CONSTEXPR20_CONTAINER void _Reallocate_exactly(const size_type _Newcapacity) {

  00008	56		 push	 esi
  00009	8b f1		 mov	 esi, ecx
  0000b	57		 push	 edi

; 1300 :         // set capacity to _Newcapacity (without geometric growth), provide strong guarantee
; 1301 :         auto& _My_data    = _Mypair._Myval2;
; 1302 :         pointer& _Myfirst = _My_data._Myfirst;
; 1303 :         pointer& _Mylast  = _My_data._Mylast;
; 1304 : 
; 1305 :         const auto _Size = static_cast<size_type>(_Mylast - _Myfirst);

  0000c	8b 46 04	 mov	 eax, DWORD PTR [esi+4]
  0000f	2b 06		 sub	 eax, DWORD PTR [esi]
  00011	c1 f8 02	 sar	 eax, 2
  00014	89 45 fc	 mov	 DWORD PTR __Size$1$[ebp], eax
; File C:\Program Files (x86)\Microsoft Visual Studio\2019\Professional\VC\Tools\MSVC\14.29.30133\include\xmemory

; 64   :         if (_Count > _Max_possible) {

  00017	81 fb ff ff ff
	3f		 cmp	 ebx, 1073741823		; 3fffffffH
  0001d	0f 87 8a 00 00
	00		 ja	 $LN59@Reallocate

; 66   :         }
; 67   :     }
; 68   : 
; 69   :     return _Count * _Ty_size;

  00023	c1 e3 02	 shl	 ebx, 2

; 237  :         if (_Bytes >= _Big_allocation_threshold) { // boost the alignment of big allocations to help autovectorization

  00026	81 fb 00 10 00
	00		 cmp	 ebx, 4096		; 00001000H
  0002c	72 0d		 jb	 SHORT $LN15@Reallocate

; 238  :             return _Allocate_manually_vector_aligned<_Traits>(_Bytes);

  0002e	53		 push	 ebx
  0002f	e8 00 00 00 00	 call	 ??$_Allocate_manually_vector_aligned@U_Default_allocate_traits@std@@@std@@YAPAXI@Z ; std::_Allocate_manually_vector_aligned<std::_Default_allocate_traits>
  00034	83 c4 04	 add	 esp, 4
  00037	8b f8		 mov	 edi, eax
  00039	eb 13		 jmp	 SHORT $LN14@Reallocate
$LN15@Reallocate:

; 239  :         }
; 240  :     }
; 241  : #endif // defined(_M_IX86) || defined(_M_X64)
; 242  : 
; 243  :     if (_Bytes != 0) {

  0003b	85 db		 test	 ebx, ebx
  0003d	74 0d		 je	 SHORT $LN16@Reallocate

; 85   :         return ::operator new(_Bytes);

  0003f	53		 push	 ebx
  00040	e8 00 00 00 00	 call	 ??2@YAPAXI@Z		; operator new
  00045	83 c4 04	 add	 esp, 4

; 244  :         return _Traits::_Allocate(_Bytes);

  00048	8b f8		 mov	 edi, eax
  0004a	eb 02		 jmp	 SHORT $LN14@Reallocate
$LN16@Reallocate:

; 245  :     }
; 246  : 
; 247  :     return nullptr;

  0004c	33 ff		 xor	 edi, edi
$LN14@Reallocate:

; 1725 :             _Copy_memmove(_UFirst, _ULast, _Unfancy(_Dest));

  0004e	57		 push	 edi
  0004f	ff 76 04	 push	 DWORD PTR [esi+4]
  00052	ff 36		 push	 DWORD PTR [esi]
  00054	e8 00 00 00 00	 call	 ??$_Copy_memmove@PAPAVCSymTable@@PAPAV1@@std@@YAPAPAVCSymTable@@PAPAV1@00@Z ; std::_Copy_memmove<CSymTable * *,CSymTable * *>
; File C:\Program Files (x86)\Microsoft Visual Studio\2019\Professional\VC\Tools\MSVC\14.29.30133\include\vector

; 1745 :         if (_Myfirst) { // destroy and deallocate old array

  00059	8b 06		 mov	 eax, DWORD PTR [esi]
; File C:\Program Files (x86)\Microsoft Visual Studio\2019\Professional\VC\Tools\MSVC\14.29.30133\include\xmemory

; 1725 :             _Copy_memmove(_UFirst, _ULast, _Unfancy(_Dest));

  0005b	83 c4 0c	 add	 esp, 12			; 0000000cH
; File C:\Program Files (x86)\Microsoft Visual Studio\2019\Professional\VC\Tools\MSVC\14.29.30133\include\vector

; 1745 :         if (_Myfirst) { // destroy and deallocate old array

  0005e	85 c0		 test	 eax, eax
  00060	74 2c		 je	 SHORT $LN43@Reallocate

; 1746 :             _Destroy(_Myfirst, _Mylast);
; 1747 :             _Getal().deallocate(_Myfirst, static_cast<size_type>(_Myend - _Myfirst));

  00062	8b 4e 08	 mov	 ecx, DWORD PTR [esi+8]
  00065	2b c8		 sub	 ecx, eax
; File C:\Program Files (x86)\Microsoft Visual Studio\2019\Professional\VC\Tools\MSVC\14.29.30133\include\xmemory

; 835  :         _Deallocate<_New_alignof<_Ty>>(_Ptr, sizeof(_Ty) * _Count);

  00067	83 e1 fc	 and	 ecx, -4			; fffffffcH

; 260  :         if (_Bytes >= _Big_allocation_threshold) { // boost the alignment of big allocations to help autovectorization

  0006a	81 f9 00 10 00
	00		 cmp	 ecx, 4096		; 00001000H
  00070	72 12		 jb	 SHORT $LN53@Reallocate

; 158  :     const uintptr_t _Ptr_container   = _Ptr_user[-1];

  00072	8b 50 fc	 mov	 edx, DWORD PTR [eax-4]
  00075	83 c1 23	 add	 ecx, 35			; 00000023H

; 159  : 
; 160  :     // If the following asserts, it likely means that we are performing
; 161  :     // an aligned delete on memory coming from an unaligned allocation.
; 162  :     _STL_ASSERT(_Ptr_user[-2] == _Big_allocation_sentinel, "invalid argument");
; 163  : 
; 164  :     // Extra paranoia on aligned allocation/deallocation; ensure _Ptr_container is
; 165  :     // in range [_Min_back_shift, _Non_user_size]
; 166  : #ifdef _DEBUG
; 167  :     constexpr uintptr_t _Min_back_shift = 2 * sizeof(void*);
; 168  : #else // ^^^ _DEBUG ^^^ // vvv !_DEBUG vvv
; 169  :     constexpr uintptr_t _Min_back_shift = sizeof(void*);
; 170  : #endif // _DEBUG
; 171  :     const uintptr_t _Back_shift = reinterpret_cast<uintptr_t>(_Ptr) - _Ptr_container;

  00078	2b c2		 sub	 eax, edx

; 172  :     _STL_VERIFY(_Back_shift >= _Min_back_shift && _Back_shift <= _Non_user_size, "invalid argument");

  0007a	83 c0 fc	 add	 eax, -4			; fffffffcH
  0007d	83 f8 1f	 cmp	 eax, 31			; 0000001fH
  00080	77 26		 ja	 SHORT $LN50@Reallocate

; 173  :     _Ptr = reinterpret_cast<void*>(_Ptr_container);

  00082	8b c2		 mov	 eax, edx
$LN53@Reallocate:

; 264  :         ::operator delete(_Ptr, _Bytes);

  00084	51		 push	 ecx
  00085	50		 push	 eax
  00086	e8 00 00 00 00	 call	 ??3@YAXPAXI@Z		; operator delete
  0008b	83 c4 08	 add	 esp, 8
$LN43@Reallocate:
; File C:\Program Files (x86)\Microsoft Visual Studio\2019\Professional\VC\Tools\MSVC\14.29.30133\include\vector

; 1751 :         _Mylast  = _Newvec + _Newsize;

  0008e	8b 45 fc	 mov	 eax, DWORD PTR __Size$1$[ebp]
  00091	89 3e		 mov	 DWORD PTR [esi], edi
  00093	8d 04 87	 lea	 eax, DWORD PTR [edi+eax*4]
  00096	89 46 04	 mov	 DWORD PTR [esi+4], eax

; 1752 :         _Myend   = _Newvec + _Newcapacity;

  00099	8d 04 3b	 lea	 eax, DWORD PTR [ebx+edi]
  0009c	5f		 pop	 edi
  0009d	89 46 08	 mov	 DWORD PTR [esi+8], eax
  000a0	5e		 pop	 esi
  000a1	5b		 pop	 ebx

; 1317 :     }

  000a2	8b e5		 mov	 esp, ebp
  000a4	5d		 pop	 ebp
  000a5	c2 04 00	 ret	 4
$LN50@Reallocate:
; File C:\Program Files (x86)\Microsoft Visual Studio\2019\Professional\VC\Tools\MSVC\14.29.30133\include\xmemory

; 172  :     _STL_VERIFY(_Back_shift >= _Min_back_shift && _Back_shift <= _Non_user_size, "invalid argument");

  000a8	e8 00 00 00 00	 call	 __invalid_parameter_noinfo_noreturn
$LN59@Reallocate:

; 65   :             _Throw_bad_array_new_length(); // multiply overflow

  000ad	e8 00 00 00 00	 call	 ?_Throw_bad_array_new_length@std@@YAXXZ ; std::_Throw_bad_array_new_length
$LN57@Reallocate:
  000b2	cc		 int	 3
?_Reallocate_exactly@?$vector@PAVCSymTable@@V?$allocator@PAVCSymTable@@@std@@@std@@AAEXI@Z ENDP ; std::vector<CSymTable *,std::allocator<CSymTable *> >::_Reallocate_exactly
_TEXT	ENDS
; Function compile flags: /Ogtp
; File C:\Program Files (x86)\Microsoft Visual Studio\2019\Professional\VC\Tools\MSVC\14.29.30133\include\vector
; File C:\Program Files (x86)\Microsoft Visual Studio\2019\Professional\VC\Tools\MSVC\14.29.30133\include\xmemory
; File C:\Program Files (x86)\Microsoft Visual Studio\2019\Professional\VC\Tools\MSVC\14.29.30133\include\vector
; File C:\Program Files (x86)\Microsoft Visual Studio\2019\Professional\VC\Tools\MSVC\14.29.30133\include\xmemory
; File C:\Program Files (x86)\Microsoft Visual Studio\2019\Professional\VC\Tools\MSVC\14.29.30133\include\vector
; File C:\Program Files (x86)\Microsoft Visual Studio\2019\Professional\VC\Tools\MSVC\14.29.30133\include\xmemory
; File C:\Program Files (x86)\Microsoft Visual Studio\2019\Professional\VC\Tools\MSVC\14.29.30133\include\vector
;	COMDAT ??1?$vector@PAVCSymTable@@V?$allocator@PAVCSymTable@@@std@@@std@@QAE@XZ
_TEXT	SEGMENT
??1?$vector@PAVCSymTable@@V?$allocator@PAVCSymTable@@@std@@@std@@QAE@XZ PROC ; std::vector<CSymTable *,std::allocator<CSymTable *> >::~vector<CSymTable *,std::allocator<CSymTable *> >, COMDAT
; _this$ = ecx

; 711  :     _CONSTEXPR20_CONTAINER ~vector() noexcept {

  00000	56		 push	 esi
  00001	8b f1		 mov	 esi, ecx

; 1763 :         if (_Myfirst) { // destroy and deallocate old array

  00003	8b 06		 mov	 eax, DWORD PTR [esi]
  00005	85 c0		 test	 eax, eax
  00007	74 40		 je	 SHORT $LN4@vector

; 1764 :             _Destroy(_Myfirst, _Mylast);
; 1765 :             _Getal().deallocate(_Myfirst, static_cast<size_type>(_Myend - _Myfirst));

  00009	8b 4e 08	 mov	 ecx, DWORD PTR [esi+8]
  0000c	2b c8		 sub	 ecx, eax
; File C:\Program Files (x86)\Microsoft Visual Studio\2019\Professional\VC\Tools\MSVC\14.29.30133\include\xmemory

; 835  :         _Deallocate<_New_alignof<_Ty>>(_Ptr, sizeof(_Ty) * _Count);

  0000e	83 e1 fc	 and	 ecx, -4			; fffffffcH

; 260  :         if (_Bytes >= _Big_allocation_threshold) { // boost the alignment of big allocations to help autovectorization

  00011	81 f9 00 10 00
	00		 cmp	 ecx, 4096		; 00001000H
  00017	72 12		 jb	 SHORT $LN20@vector

; 158  :     const uintptr_t _Ptr_container   = _Ptr_user[-1];

  00019	8b 50 fc	 mov	 edx, DWORD PTR [eax-4]
  0001c	83 c1 23	 add	 ecx, 35			; 00000023H

; 159  : 
; 160  :     // If the following asserts, it likely means that we are performing
; 161  :     // an aligned delete on memory coming from an unaligned allocation.
; 162  :     _STL_ASSERT(_Ptr_user[-2] == _Big_allocation_sentinel, "invalid argument");
; 163  : 
; 164  :     // Extra paranoia on aligned allocation/deallocation; ensure _Ptr_container is
; 165  :     // in range [_Min_back_shift, _Non_user_size]
; 166  : #ifdef _DEBUG
; 167  :     constexpr uintptr_t _Min_back_shift = 2 * sizeof(void*);
; 168  : #else // ^^^ _DEBUG ^^^ // vvv !_DEBUG vvv
; 169  :     constexpr uintptr_t _Min_back_shift = sizeof(void*);
; 170  : #endif // _DEBUG
; 171  :     const uintptr_t _Back_shift = reinterpret_cast<uintptr_t>(_Ptr) - _Ptr_container;

  0001f	2b c2		 sub	 eax, edx

; 172  :     _STL_VERIFY(_Back_shift >= _Min_back_shift && _Back_shift <= _Non_user_size, "invalid argument");

  00021	83 c0 fc	 add	 eax, -4			; fffffffcH
  00024	83 f8 1f	 cmp	 eax, 31			; 0000001fH
  00027	77 22		 ja	 SHORT $LN17@vector

; 173  :     _Ptr = reinterpret_cast<void*>(_Ptr_container);

  00029	8b c2		 mov	 eax, edx
$LN20@vector:

; 264  :         ::operator delete(_Ptr, _Bytes);

  0002b	51		 push	 ecx
  0002c	50		 push	 eax
  0002d	e8 00 00 00 00	 call	 ??3@YAXPAXI@Z		; operator delete
; File C:\Program Files (x86)\Microsoft Visual Studio\2019\Professional\VC\Tools\MSVC\14.29.30133\include\vector

; 1767 :             _Myfirst = nullptr;

  00032	c7 06 00 00 00
	00		 mov	 DWORD PTR [esi], 0
; File C:\Program Files (x86)\Microsoft Visual Studio\2019\Professional\VC\Tools\MSVC\14.29.30133\include\xmemory

; 264  :         ::operator delete(_Ptr, _Bytes);

  00038	83 c4 08	 add	 esp, 8
; File C:\Program Files (x86)\Microsoft Visual Studio\2019\Professional\VC\Tools\MSVC\14.29.30133\include\vector

; 1768 :             _Mylast  = nullptr;

  0003b	c7 46 04 00 00
	00 00		 mov	 DWORD PTR [esi+4], 0

; 1769 :             _Myend   = nullptr;

  00042	c7 46 08 00 00
	00 00		 mov	 DWORD PTR [esi+8], 0
$LN4@vector:
  00049	5e		 pop	 esi

; 717  :     }

  0004a	c3		 ret	 0
$LN17@vector:
; File C:\Program Files (x86)\Microsoft Visual Studio\2019\Professional\VC\Tools\MSVC\14.29.30133\include\xmemory

; 172  :     _STL_VERIFY(_Back_shift >= _Min_back_shift && _Back_shift <= _Non_user_size, "invalid argument");

  0004b	e8 00 00 00 00	 call	 __invalid_parameter_noinfo_noreturn
$LN25@vector:
  00050	cc		 int	 3
??1?$vector@PAVCSymTable@@V?$allocator@PAVCSymTable@@@std@@@std@@QAE@XZ ENDP ; std::vector<CSymTable *,std::allocator<CSymTable *> >::~vector<CSymTable *,std::allocator<CSymTable *> >
_TEXT	ENDS
; Function compile flags: /Ogtp
; File C:\Program Files (x86)\Microsoft Visual Studio\2019\Professional\VC\Tools\MSVC\14.29.30133\include\vector
;	COMDAT ?_Xlength@?$vector@NV?$allocator@N@std@@@std@@CAXXZ
_TEXT	SEGMENT
?_Xlength@?$vector@NV?$allocator@N@std@@@std@@CAXXZ PROC ; std::vector<double,std::allocator<double> >::_Xlength, COMDAT

; 1774 :         _Xlength_error("vector too long");

  00000	68 00 00 00 00	 push	 OFFSET ??_C@_0BA@FOIKENOD@vector?5too?5long@
  00005	e8 00 00 00 00	 call	 ?_Xlength_error@std@@YAXPBD@Z ; std::_Xlength_error
$LN3@Xlength:
  0000a	cc		 int	 3
?_Xlength@?$vector@NV?$allocator@N@std@@@std@@CAXXZ ENDP ; std::vector<double,std::allocator<double> >::_Xlength
_TEXT	ENDS
; Function compile flags: /Ogtp
; File C:\Program Files (x86)\Microsoft Visual Studio\2019\Professional\VC\Tools\MSVC\14.29.30133\include\vector
; File C:\Program Files (x86)\Microsoft Visual Studio\2019\Professional\VC\Tools\MSVC\14.29.30133\include\xmemory
; File C:\Program Files (x86)\Microsoft Visual Studio\2019\Professional\VC\Tools\MSVC\14.29.30133\include\vector
; File C:\Program Files (x86)\Microsoft Visual Studio\2019\Professional\VC\Tools\MSVC\14.29.30133\include\xmemory
; File C:\Program Files (x86)\Microsoft Visual Studio\2019\Professional\VC\Tools\MSVC\14.29.30133\include\vector
; File C:\Program Files (x86)\Microsoft Visual Studio\2019\Professional\VC\Tools\MSVC\14.29.30133\include\xmemory
; File C:\Program Files (x86)\Microsoft Visual Studio\2019\Professional\VC\Tools\MSVC\14.29.30133\include\vector
;	COMDAT ??1?$vector@NV?$allocator@N@std@@@std@@QAE@XZ
_TEXT	SEGMENT
??1?$vector@NV?$allocator@N@std@@@std@@QAE@XZ PROC	; std::vector<double,std::allocator<double> >::~vector<double,std::allocator<double> >, COMDAT
; _this$ = ecx

; 711  :     _CONSTEXPR20_CONTAINER ~vector() noexcept {

  00000	56		 push	 esi
  00001	8b f1		 mov	 esi, ecx

; 1763 :         if (_Myfirst) { // destroy and deallocate old array

  00003	8b 06		 mov	 eax, DWORD PTR [esi]
  00005	85 c0		 test	 eax, eax
  00007	74 40		 je	 SHORT $LN4@vector

; 1764 :             _Destroy(_Myfirst, _Mylast);
; 1765 :             _Getal().deallocate(_Myfirst, static_cast<size_type>(_Myend - _Myfirst));

  00009	8b 4e 08	 mov	 ecx, DWORD PTR [esi+8]
  0000c	2b c8		 sub	 ecx, eax
; File C:\Program Files (x86)\Microsoft Visual Studio\2019\Professional\VC\Tools\MSVC\14.29.30133\include\xmemory

; 835  :         _Deallocate<_New_alignof<_Ty>>(_Ptr, sizeof(_Ty) * _Count);

  0000e	83 e1 f8	 and	 ecx, -8			; fffffff8H

; 260  :         if (_Bytes >= _Big_allocation_threshold) { // boost the alignment of big allocations to help autovectorization

  00011	81 f9 00 10 00
	00		 cmp	 ecx, 4096		; 00001000H
  00017	72 12		 jb	 SHORT $LN20@vector

; 158  :     const uintptr_t _Ptr_container   = _Ptr_user[-1];

  00019	8b 50 fc	 mov	 edx, DWORD PTR [eax-4]
  0001c	83 c1 23	 add	 ecx, 35			; 00000023H

; 159  : 
; 160  :     // If the following asserts, it likely means that we are performing
; 161  :     // an aligned delete on memory coming from an unaligned allocation.
; 162  :     _STL_ASSERT(_Ptr_user[-2] == _Big_allocation_sentinel, "invalid argument");
; 163  : 
; 164  :     // Extra paranoia on aligned allocation/deallocation; ensure _Ptr_container is
; 165  :     // in range [_Min_back_shift, _Non_user_size]
; 166  : #ifdef _DEBUG
; 167  :     constexpr uintptr_t _Min_back_shift = 2 * sizeof(void*);
; 168  : #else // ^^^ _DEBUG ^^^ // vvv !_DEBUG vvv
; 169  :     constexpr uintptr_t _Min_back_shift = sizeof(void*);
; 170  : #endif // _DEBUG
; 171  :     const uintptr_t _Back_shift = reinterpret_cast<uintptr_t>(_Ptr) - _Ptr_container;

  0001f	2b c2		 sub	 eax, edx

; 172  :     _STL_VERIFY(_Back_shift >= _Min_back_shift && _Back_shift <= _Non_user_size, "invalid argument");

  00021	83 c0 fc	 add	 eax, -4			; fffffffcH
  00024	83 f8 1f	 cmp	 eax, 31			; 0000001fH
  00027	77 22		 ja	 SHORT $LN17@vector

; 173  :     _Ptr = reinterpret_cast<void*>(_Ptr_container);

  00029	8b c2		 mov	 eax, edx
$LN20@vector:

; 264  :         ::operator delete(_Ptr, _Bytes);

  0002b	51		 push	 ecx
  0002c	50		 push	 eax
  0002d	e8 00 00 00 00	 call	 ??3@YAXPAXI@Z		; operator delete
; File C:\Program Files (x86)\Microsoft Visual Studio\2019\Professional\VC\Tools\MSVC\14.29.30133\include\vector

; 1767 :             _Myfirst = nullptr;

  00032	c7 06 00 00 00
	00		 mov	 DWORD PTR [esi], 0
; File C:\Program Files (x86)\Microsoft Visual Studio\2019\Professional\VC\Tools\MSVC\14.29.30133\include\xmemory

; 264  :         ::operator delete(_Ptr, _Bytes);

  00038	83 c4 08	 add	 esp, 8
; File C:\Program Files (x86)\Microsoft Visual Studio\2019\Professional\VC\Tools\MSVC\14.29.30133\include\vector

; 1768 :             _Mylast  = nullptr;

  0003b	c7 46 04 00 00
	00 00		 mov	 DWORD PTR [esi+4], 0

; 1769 :             _Myend   = nullptr;

  00042	c7 46 08 00 00
	00 00		 mov	 DWORD PTR [esi+8], 0
$LN4@vector:
  00049	5e		 pop	 esi

; 717  :     }

  0004a	c3		 ret	 0
$LN17@vector:
; File C:\Program Files (x86)\Microsoft Visual Studio\2019\Professional\VC\Tools\MSVC\14.29.30133\include\xmemory

; 172  :     _STL_VERIFY(_Back_shift >= _Min_back_shift && _Back_shift <= _Non_user_size, "invalid argument");

  0004b	e8 00 00 00 00	 call	 __invalid_parameter_noinfo_noreturn
$LN25@vector:
  00050	cc		 int	 3
??1?$vector@NV?$allocator@N@std@@@std@@QAE@XZ ENDP	; std::vector<double,std::allocator<double> >::~vector<double,std::allocator<double> >
_TEXT	ENDS
; Function compile flags: /Ogtp
; File C:\Program Files (x86)\Microsoft Visual Studio\2019\Professional\VC\Tools\MSVC\14.29.30133\include\vector
;	COMDAT ?_Xlength@?$vector@HV?$allocator@H@std@@@std@@CAXXZ
_TEXT	SEGMENT
?_Xlength@?$vector@HV?$allocator@H@std@@@std@@CAXXZ PROC ; std::vector<int,std::allocator<int> >::_Xlength, COMDAT

; 1774 :         _Xlength_error("vector too long");

  00000	68 00 00 00 00	 push	 OFFSET ??_C@_0BA@FOIKENOD@vector?5too?5long@
  00005	e8 00 00 00 00	 call	 ?_Xlength_error@std@@YAXPBD@Z ; std::_Xlength_error
$LN3@Xlength:
  0000a	cc		 int	 3
?_Xlength@?$vector@HV?$allocator@H@std@@@std@@CAXXZ ENDP ; std::vector<int,std::allocator<int> >::_Xlength
_TEXT	ENDS
; Function compile flags: /Ogtp
; File C:\Program Files (x86)\Microsoft Visual Studio\2019\Professional\VC\Tools\MSVC\14.29.30133\include\vector
; File C:\Program Files (x86)\Microsoft Visual Studio\2019\Professional\VC\Tools\MSVC\14.29.30133\include\xmemory
; File C:\Program Files (x86)\Microsoft Visual Studio\2019\Professional\VC\Tools\MSVC\14.29.30133\include\vector
; File C:\Program Files (x86)\Microsoft Visual Studio\2019\Professional\VC\Tools\MSVC\14.29.30133\include\xmemory
; File C:\Program Files (x86)\Microsoft Visual Studio\2019\Professional\VC\Tools\MSVC\14.29.30133\include\vector
;	COMDAT ?_Change_array@?$vector@HV?$allocator@H@std@@@std@@AAEXQAHII@Z
_TEXT	SEGMENT
__Newvec$ = 8						; size = 4
__Newsize$ = 12						; size = 4
__Newcapacity$ = 16					; size = 4
?_Change_array@?$vector@HV?$allocator@H@std@@@std@@AAEXQAHII@Z PROC ; std::vector<int,std::allocator<int> >::_Change_array, COMDAT
; _this$ = ecx

; 1736 :         const pointer _Newvec, const size_type _Newsize, const size_type _Newcapacity) {

  00000	55		 push	 ebp
  00001	8b ec		 mov	 ebp, esp
  00003	56		 push	 esi
  00004	8b f1		 mov	 esi, ecx

; 1737 :         // orphan all iterators, discard old array, acquire new array
; 1738 :         auto& _My_data    = _Mypair._Myval2;
; 1739 :         pointer& _Myfirst = _My_data._Myfirst;
; 1740 :         pointer& _Mylast  = _My_data._Mylast;
; 1741 :         pointer& _Myend   = _My_data._Myend;
; 1742 : 
; 1743 :         _My_data._Orphan_all();
; 1744 : 
; 1745 :         if (_Myfirst) { // destroy and deallocate old array

  00006	8b 06		 mov	 eax, DWORD PTR [esi]
  00008	85 c0		 test	 eax, eax
  0000a	74 2c		 je	 SHORT $LN8@Change_arr

; 1746 :             _Destroy(_Myfirst, _Mylast);
; 1747 :             _Getal().deallocate(_Myfirst, static_cast<size_type>(_Myend - _Myfirst));

  0000c	8b 4e 08	 mov	 ecx, DWORD PTR [esi+8]
  0000f	2b c8		 sub	 ecx, eax
; File C:\Program Files (x86)\Microsoft Visual Studio\2019\Professional\VC\Tools\MSVC\14.29.30133\include\xmemory

; 835  :         _Deallocate<_New_alignof<_Ty>>(_Ptr, sizeof(_Ty) * _Count);

  00011	83 e1 fc	 and	 ecx, -4			; fffffffcH

; 260  :         if (_Bytes >= _Big_allocation_threshold) { // boost the alignment of big allocations to help autovectorization

  00014	81 f9 00 10 00
	00		 cmp	 ecx, 4096		; 00001000H
  0001a	72 12		 jb	 SHORT $LN18@Change_arr

; 158  :     const uintptr_t _Ptr_container   = _Ptr_user[-1];

  0001c	8b 50 fc	 mov	 edx, DWORD PTR [eax-4]
  0001f	83 c1 23	 add	 ecx, 35			; 00000023H

; 159  : 
; 160  :     // If the following asserts, it likely means that we are performing
; 161  :     // an aligned delete on memory coming from an unaligned allocation.
; 162  :     _STL_ASSERT(_Ptr_user[-2] == _Big_allocation_sentinel, "invalid argument");
; 163  : 
; 164  :     // Extra paranoia on aligned allocation/deallocation; ensure _Ptr_container is
; 165  :     // in range [_Min_back_shift, _Non_user_size]
; 166  : #ifdef _DEBUG
; 167  :     constexpr uintptr_t _Min_back_shift = 2 * sizeof(void*);
; 168  : #else // ^^^ _DEBUG ^^^ // vvv !_DEBUG vvv
; 169  :     constexpr uintptr_t _Min_back_shift = sizeof(void*);
; 170  : #endif // _DEBUG
; 171  :     const uintptr_t _Back_shift = reinterpret_cast<uintptr_t>(_Ptr) - _Ptr_container;

  00022	2b c2		 sub	 eax, edx

; 172  :     _STL_VERIFY(_Back_shift >= _Min_back_shift && _Back_shift <= _Non_user_size, "invalid argument");

  00024	83 c0 fc	 add	 eax, -4			; fffffffcH
  00027	83 f8 1f	 cmp	 eax, 31			; 0000001fH
  0002a	77 28		 ja	 SHORT $LN15@Change_arr

; 173  :     _Ptr = reinterpret_cast<void*>(_Ptr_container);

  0002c	8b c2		 mov	 eax, edx
$LN18@Change_arr:

; 264  :         ::operator delete(_Ptr, _Bytes);

  0002e	51		 push	 ecx
  0002f	50		 push	 eax
  00030	e8 00 00 00 00	 call	 ??3@YAXPAXI@Z		; operator delete
  00035	83 c4 08	 add	 esp, 8
$LN8@Change_arr:
; File C:\Program Files (x86)\Microsoft Visual Studio\2019\Professional\VC\Tools\MSVC\14.29.30133\include\vector

; 1750 :         _Myfirst = _Newvec;

  00038	8b 4d 08	 mov	 ecx, DWORD PTR __Newvec$[ebp]

; 1751 :         _Mylast  = _Newvec + _Newsize;

  0003b	8b 45 0c	 mov	 eax, DWORD PTR __Newsize$[ebp]
  0003e	89 0e		 mov	 DWORD PTR [esi], ecx
  00040	8d 04 81	 lea	 eax, DWORD PTR [ecx+eax*4]
  00043	89 46 04	 mov	 DWORD PTR [esi+4], eax

; 1752 :         _Myend   = _Newvec + _Newcapacity;

  00046	8b 45 10	 mov	 eax, DWORD PTR __Newcapacity$[ebp]
  00049	8d 04 81	 lea	 eax, DWORD PTR [ecx+eax*4]
  0004c	89 46 08	 mov	 DWORD PTR [esi+8], eax
  0004f	5e		 pop	 esi

; 1753 :     }

  00050	5d		 pop	 ebp
  00051	c2 0c 00	 ret	 12			; 0000000cH
$LN15@Change_arr:
; File C:\Program Files (x86)\Microsoft Visual Studio\2019\Professional\VC\Tools\MSVC\14.29.30133\include\xmemory

; 172  :     _STL_VERIFY(_Back_shift >= _Min_back_shift && _Back_shift <= _Non_user_size, "invalid argument");

  00054	e8 00 00 00 00	 call	 __invalid_parameter_noinfo_noreturn
$LN22@Change_arr:
  00059	cc		 int	 3
?_Change_array@?$vector@HV?$allocator@H@std@@@std@@AAEXQAHII@Z ENDP ; std::vector<int,std::allocator<int> >::_Change_array
_TEXT	ENDS
; Function compile flags: /Ogtp
; File C:\Program Files (x86)\Microsoft Visual Studio\2019\Professional\VC\Tools\MSVC\14.29.30133\include\vector
;	COMDAT ?push_back@?$vector@HV?$allocator@H@std@@@std@@QAEX$$QAH@Z
_TEXT	SEGMENT
__Val$ = 8						; size = 4
?push_back@?$vector@HV?$allocator@H@std@@@std@@QAEX$$QAH@Z PROC ; std::vector<int,std::allocator<int> >::push_back, COMDAT
; _this$ = ecx

; 759  :     _CONSTEXPR20_CONTAINER void push_back(_Ty&& _Val) {

  00000	55		 push	 ebp
  00001	8b ec		 mov	 ebp, esp

; 743  :         if (_Mylast != _My_data._Myend) {

  00003	8b 51 04	 mov	 edx, DWORD PTR [ecx+4]
  00006	3b 51 08	 cmp	 edx, DWORD PTR [ecx+8]
  00009	74 0f		 je	 SHORT $LN4@push_back

; 726  :         _Alty_traits::construct(_Getal(), _Unfancy(_Mylast), _STD forward<_Valty>(_Val)...);

  0000b	8b 45 08	 mov	 eax, DWORD PTR __Val$[ebp]
  0000e	8b 00		 mov	 eax, DWORD PTR [eax]
  00010	89 02		 mov	 DWORD PTR [edx], eax

; 727  :         _Orphan_range(_Mylast, _Mylast);
; 728  :         _Ty& _Result = *_Mylast;
; 729  :         ++_Mylast;

  00012	83 41 04 04	 add	 DWORD PTR [ecx+4], 4

; 760  :         // insert by moving into element at end, provide strong guarantee
; 761  :         emplace_back(_STD move(_Val));
; 762  :     }

  00016	5d		 pop	 ebp
  00017	c2 04 00	 ret	 4
$LN4@push_back:

; 747  :         _Ty& _Result = *_Emplace_reallocate(_Mylast, _STD forward<_Valty>(_Val)...);

  0001a	ff 75 08	 push	 DWORD PTR __Val$[ebp]
  0001d	52		 push	 edx
  0001e	e8 00 00 00 00	 call	 ??$_Emplace_reallocate@H@?$vector@HV?$allocator@H@std@@@std@@QAEPAHQAH$$QAH@Z ; std::vector<int,std::allocator<int> >::_Emplace_reallocate<int>

; 760  :         // insert by moving into element at end, provide strong guarantee
; 761  :         emplace_back(_STD move(_Val));
; 762  :     }

  00023	5d		 pop	 ebp
  00024	c2 04 00	 ret	 4
?push_back@?$vector@HV?$allocator@H@std@@@std@@QAEX$$QAH@Z ENDP ; std::vector<int,std::allocator<int> >::push_back
_TEXT	ENDS
; Function compile flags: /Ogtp
; File C:\Program Files (x86)\Microsoft Visual Studio\2019\Professional\VC\Tools\MSVC\14.29.30133\include\vector
;	COMDAT ?push_back@?$vector@HV?$allocator@H@std@@@std@@QAEXABH@Z
_TEXT	SEGMENT
__Val$ = 8						; size = 4
?push_back@?$vector@HV?$allocator@H@std@@@std@@QAEXABH@Z PROC ; std::vector<int,std::allocator<int> >::push_back, COMDAT
; _this$ = ecx

; 755  :     _CONSTEXPR20_CONTAINER void push_back(const _Ty& _Val) { // insert element at end, provide strong guarantee

  00000	55		 push	 ebp
  00001	8b ec		 mov	 ebp, esp

; 743  :         if (_Mylast != _My_data._Myend) {

  00003	8b 51 04	 mov	 edx, DWORD PTR [ecx+4]
  00006	3b 51 08	 cmp	 edx, DWORD PTR [ecx+8]
  00009	74 0f		 je	 SHORT $LN4@push_back

; 726  :         _Alty_traits::construct(_Getal(), _Unfancy(_Mylast), _STD forward<_Valty>(_Val)...);

  0000b	8b 45 08	 mov	 eax, DWORD PTR __Val$[ebp]
  0000e	8b 00		 mov	 eax, DWORD PTR [eax]
  00010	89 02		 mov	 DWORD PTR [edx], eax

; 727  :         _Orphan_range(_Mylast, _Mylast);
; 728  :         _Ty& _Result = *_Mylast;
; 729  :         ++_Mylast;

  00012	83 41 04 04	 add	 DWORD PTR [ecx+4], 4

; 756  :         emplace_back(_Val);
; 757  :     }

  00016	5d		 pop	 ebp
  00017	c2 04 00	 ret	 4
$LN4@push_back:

; 747  :         _Ty& _Result = *_Emplace_reallocate(_Mylast, _STD forward<_Valty>(_Val)...);

  0001a	ff 75 08	 push	 DWORD PTR __Val$[ebp]
  0001d	52		 push	 edx
  0001e	e8 00 00 00 00	 call	 ??$_Emplace_reallocate@ABH@?$vector@HV?$allocator@H@std@@@std@@QAEPAHQAHABH@Z ; std::vector<int,std::allocator<int> >::_Emplace_reallocate<int const &>

; 756  :         emplace_back(_Val);
; 757  :     }

  00023	5d		 pop	 ebp
  00024	c2 04 00	 ret	 4
?push_back@?$vector@HV?$allocator@H@std@@@std@@QAEXABH@Z ENDP ; std::vector<int,std::allocator<int> >::push_back
_TEXT	ENDS
; Function compile flags: /Ogtp
; File C:\Program Files (x86)\Microsoft Visual Studio\2019\Professional\VC\Tools\MSVC\14.29.30133\include\vector
; File C:\Program Files (x86)\Microsoft Visual Studio\2019\Professional\VC\Tools\MSVC\14.29.30133\include\xmemory
; File C:\Program Files (x86)\Microsoft Visual Studio\2019\Professional\VC\Tools\MSVC\14.29.30133\include\vector
; File C:\Program Files (x86)\Microsoft Visual Studio\2019\Professional\VC\Tools\MSVC\14.29.30133\include\xmemory
; File C:\Program Files (x86)\Microsoft Visual Studio\2019\Professional\VC\Tools\MSVC\14.29.30133\include\vector
; File C:\Program Files (x86)\Microsoft Visual Studio\2019\Professional\VC\Tools\MSVC\14.29.30133\include\xmemory
; File C:\Program Files (x86)\Microsoft Visual Studio\2019\Professional\VC\Tools\MSVC\14.29.30133\include\vector
;	COMDAT ??1?$vector@HV?$allocator@H@std@@@std@@QAE@XZ
_TEXT	SEGMENT
??1?$vector@HV?$allocator@H@std@@@std@@QAE@XZ PROC	; std::vector<int,std::allocator<int> >::~vector<int,std::allocator<int> >, COMDAT
; _this$ = ecx

; 711  :     _CONSTEXPR20_CONTAINER ~vector() noexcept {

  00000	56		 push	 esi
  00001	8b f1		 mov	 esi, ecx

; 1763 :         if (_Myfirst) { // destroy and deallocate old array

  00003	8b 06		 mov	 eax, DWORD PTR [esi]
  00005	85 c0		 test	 eax, eax
  00007	74 40		 je	 SHORT $LN4@vector

; 1764 :             _Destroy(_Myfirst, _Mylast);
; 1765 :             _Getal().deallocate(_Myfirst, static_cast<size_type>(_Myend - _Myfirst));

  00009	8b 4e 08	 mov	 ecx, DWORD PTR [esi+8]
  0000c	2b c8		 sub	 ecx, eax
; File C:\Program Files (x86)\Microsoft Visual Studio\2019\Professional\VC\Tools\MSVC\14.29.30133\include\xmemory

; 835  :         _Deallocate<_New_alignof<_Ty>>(_Ptr, sizeof(_Ty) * _Count);

  0000e	83 e1 fc	 and	 ecx, -4			; fffffffcH

; 260  :         if (_Bytes >= _Big_allocation_threshold) { // boost the alignment of big allocations to help autovectorization

  00011	81 f9 00 10 00
	00		 cmp	 ecx, 4096		; 00001000H
  00017	72 12		 jb	 SHORT $LN20@vector

; 158  :     const uintptr_t _Ptr_container   = _Ptr_user[-1];

  00019	8b 50 fc	 mov	 edx, DWORD PTR [eax-4]
  0001c	83 c1 23	 add	 ecx, 35			; 00000023H

; 159  : 
; 160  :     // If the following asserts, it likely means that we are performing
; 161  :     // an aligned delete on memory coming from an unaligned allocation.
; 162  :     _STL_ASSERT(_Ptr_user[-2] == _Big_allocation_sentinel, "invalid argument");
; 163  : 
; 164  :     // Extra paranoia on aligned allocation/deallocation; ensure _Ptr_container is
; 165  :     // in range [_Min_back_shift, _Non_user_size]
; 166  : #ifdef _DEBUG
; 167  :     constexpr uintptr_t _Min_back_shift = 2 * sizeof(void*);
; 168  : #else // ^^^ _DEBUG ^^^ // vvv !_DEBUG vvv
; 169  :     constexpr uintptr_t _Min_back_shift = sizeof(void*);
; 170  : #endif // _DEBUG
; 171  :     const uintptr_t _Back_shift = reinterpret_cast<uintptr_t>(_Ptr) - _Ptr_container;

  0001f	2b c2		 sub	 eax, edx

; 172  :     _STL_VERIFY(_Back_shift >= _Min_back_shift && _Back_shift <= _Non_user_size, "invalid argument");

  00021	83 c0 fc	 add	 eax, -4			; fffffffcH
  00024	83 f8 1f	 cmp	 eax, 31			; 0000001fH
  00027	77 22		 ja	 SHORT $LN17@vector

; 173  :     _Ptr = reinterpret_cast<void*>(_Ptr_container);

  00029	8b c2		 mov	 eax, edx
$LN20@vector:

; 264  :         ::operator delete(_Ptr, _Bytes);

  0002b	51		 push	 ecx
  0002c	50		 push	 eax
  0002d	e8 00 00 00 00	 call	 ??3@YAXPAXI@Z		; operator delete
; File C:\Program Files (x86)\Microsoft Visual Studio\2019\Professional\VC\Tools\MSVC\14.29.30133\include\vector

; 1767 :             _Myfirst = nullptr;

  00032	c7 06 00 00 00
	00		 mov	 DWORD PTR [esi], 0
; File C:\Program Files (x86)\Microsoft Visual Studio\2019\Professional\VC\Tools\MSVC\14.29.30133\include\xmemory

; 264  :         ::operator delete(_Ptr, _Bytes);

  00038	83 c4 08	 add	 esp, 8
; File C:\Program Files (x86)\Microsoft Visual Studio\2019\Professional\VC\Tools\MSVC\14.29.30133\include\vector

; 1768 :             _Mylast  = nullptr;

  0003b	c7 46 04 00 00
	00 00		 mov	 DWORD PTR [esi+4], 0

; 1769 :             _Myend   = nullptr;

  00042	c7 46 08 00 00
	00 00		 mov	 DWORD PTR [esi+8], 0
$LN4@vector:
  00049	5e		 pop	 esi

; 717  :     }

  0004a	c3		 ret	 0
$LN17@vector:
; File C:\Program Files (x86)\Microsoft Visual Studio\2019\Professional\VC\Tools\MSVC\14.29.30133\include\xmemory

; 172  :     _STL_VERIFY(_Back_shift >= _Min_back_shift && _Back_shift <= _Non_user_size, "invalid argument");

  0004b	e8 00 00 00 00	 call	 __invalid_parameter_noinfo_noreturn
$LN25@vector:
  00050	cc		 int	 3
??1?$vector@HV?$allocator@H@std@@@std@@QAE@XZ ENDP	; std::vector<int,std::allocator<int> >::~vector<int,std::allocator<int> >
_TEXT	ENDS
; Function compile flags: /Ogtp
; File C:\Users\murat\Desktop\Siveps2-1-99-Project\source\client\Client\EterBase\poly\Poly.cpp
;	COMDAT ?expr@CPoly@@IAEXXZ
_TEXT	SEGMENT
?expr@CPoly@@IAEXXZ PROC				; CPoly::expr, COMDAT
; _this$ = ecx

; 279  : {

  00000	56		 push	 esi
  00001	8b f1		 mov	 esi, ecx

; 280  :     int t;
; 281  : 
; 282  :     switch (iLookAhead)

  00003	8b 46 18	 mov	 eax, DWORD PTR [esi+24]
  00006	83 e8 2b	 sub	 eax, 43			; 0000002bH
  00009	74 05		 je	 SHORT $LN8@expr
  0000b	83 e8 02	 sub	 eax, 2
  0000e	75 19		 jne	 SHORT $LN2@expr
$LN8@expr:

; 283  :     {
; 284  : 	case '+':
; 285  : 	case '-':
; 286  : 	    uiLookPos--;

  00010	ff 4e 24	 dec	 DWORD PTR [esi+36]
  00013	0f 57 c0	 xorps	 xmm0, xmm0

; 287  : 	    iLookAhead = POLY_NUM;

  00016	c7 46 18 09 00
	00 00		 mov	 DWORD PTR [esi+24], 9

; 288  : 	    iNumToken = iToken = 0;

  0001d	c7 46 08 00 00
	00 00		 mov	 DWORD PTR [esi+8], 0
  00024	f2 0f 11 46 10	 movsd	 QWORD PTR [esi+16], xmm0
$LN2@expr:

; 289  : 
; 290  :     }
; 291  : 
; 292  :     term();

  00029	e8 00 00 00 00	 call	 ?term@CPoly@@IAEXXZ	; CPoly::term

; 293  : 
; 294  :     while (!ErrorOccur)

  0002e	80 7e 20 00	 cmp	 BYTE PTR [esi+32], 0
  00032	75 3a		 jne	 SHORT $LN5@expr
  00034	57		 push	 edi
$LL4@expr:

; 295  :     {
; 296  : 	switch (iLookAhead)

  00035	8b 7e 18	 mov	 edi, DWORD PTR [esi+24]
  00038	8d 47 f5	 lea	 eax, DWORD PTR [edi-11]
  0003b	83 f8 22	 cmp	 eax, 34			; 00000022H
  0003e	77 30		 ja	 SHORT $LN15@expr
  00040	0f b6 80 00 00
	00 00		 movzx	 eax, BYTE PTR $LN21@expr[eax]
  00047	ff 24 85 00 00
	00 00		 jmp	 DWORD PTR $LN22@expr[eax*4]
$LN10@expr:

; 297  : 	{
; 298  : 	    case '+':
; 299  : 	    case '-':
; 300  : 		t=iLookAhead;
; 301  : 		match(t);

  0004e	57		 push	 edi
  0004f	8b ce		 mov	 ecx, esi
  00051	e8 00 00 00 00	 call	 ?match@CPoly@@IAEXH@Z	; CPoly::match

; 302  : 		term();

  00056	8b ce		 mov	 ecx, esi
  00058	e8 00 00 00 00	 call	 ?term@CPoly@@IAEXXZ	; CPoly::term

; 303  : 		emit(t,POLY_NONE);

  0005d	6a 00		 push	 0
  0005f	57		 push	 edi
  00060	8b ce		 mov	 ecx, esi
  00062	e8 00 00 00 00	 call	 ?emit@CPoly@@IAEXHH@Z	; CPoly::emit
  00067	80 7e 20 00	 cmp	 BYTE PTR [esi+32], 0
  0006b	74 c8		 je	 SHORT $LL4@expr
$LN23@expr:
  0006d	5f		 pop	 edi
$LN5@expr:
  0006e	5e		 pop	 esi

; 308  : 					  //THROW( new CParseException("Error Parsing"));
; 309  : 					  return;
; 310  : 	}
; 311  :     }
; 312  : }

  0006f	c3		 ret	 0
$LN15@expr:
  00070	5f		 pop	 edi

; 304  : 		continue;
; 305  : 	    case POLY_EOS: case ')': case ',': return;
; 306  : 	    default:
; 307  : 					  error();

  00071	8b ce		 mov	 ecx, esi
  00073	5e		 pop	 esi
  00074	e9 00 00 00 00	 jmp	 ?error@CPoly@@IAEXXZ	; CPoly::error
  00079	0f 1f 00	 npad	 3
$LN22@expr:

; 308  : 					  //THROW( new CParseException("Error Parsing"));
; 309  : 					  return;
; 310  : 	}
; 311  :     }
; 312  : }

  0007c	00 00 00 00	 DD	 $LN23@expr
  00080	00 00 00 00	 DD	 $LN10@expr
  00084	00 00 00 00	 DD	 $LN15@expr
$LN21@expr:
  00088	00		 DB	 0
  00089	02		 DB	 2
  0008a	02		 DB	 2
  0008b	02		 DB	 2
  0008c	02		 DB	 2
  0008d	02		 DB	 2
  0008e	02		 DB	 2
  0008f	02		 DB	 2
  00090	02		 DB	 2
  00091	02		 DB	 2
  00092	02		 DB	 2
  00093	02		 DB	 2
  00094	02		 DB	 2
  00095	02		 DB	 2
  00096	02		 DB	 2
  00097	02		 DB	 2
  00098	02		 DB	 2
  00099	02		 DB	 2
  0009a	02		 DB	 2
  0009b	02		 DB	 2
  0009c	02		 DB	 2
  0009d	02		 DB	 2
  0009e	02		 DB	 2
  0009f	02		 DB	 2
  000a0	02		 DB	 2
  000a1	02		 DB	 2
  000a2	02		 DB	 2
  000a3	02		 DB	 2
  000a4	02		 DB	 2
  000a5	02		 DB	 2
  000a6	00		 DB	 0
  000a7	02		 DB	 2
  000a8	01		 DB	 1
  000a9	00		 DB	 0
  000aa	01		 DB	 1
?expr@CPoly@@IAEXXZ ENDP				; CPoly::expr
_TEXT	ENDS
; Function compile flags: /Ogtp
; File C:\Users\murat\Desktop\Siveps2-1-99-Project\source\client\Client\EterBase\poly\Poly.cpp
;	COMDAT ?error@CPoly@@IAEXXZ
_TEXT	SEGMENT
?error@CPoly@@IAEXXZ PROC				; CPoly::error, COMDAT
; _this$ = ecx

; 316  :     iErrorPos=uiLookPos;

  00000	8b 41 24	 mov	 eax, DWORD PTR [ecx+36]
  00003	89 41 1c	 mov	 DWORD PTR [ecx+28], eax

; 317  :     ErrorOccur=true;

  00006	c6 41 20 01	 mov	 BYTE PTR [ecx+32], 1

; 318  : }

  0000a	c3		 ret	 0
?error@CPoly@@IAEXXZ ENDP				; CPoly::error
_TEXT	ENDS
; Function compile flags: /Ogtp
; File C:\Users\murat\Desktop\Siveps2-1-99-Project\source\client\Client\EterBase\poly\Poly.cpp
; File C:\Program Files (x86)\Microsoft Visual Studio\2019\Professional\VC\Tools\MSVC\14.29.30133\include\xstring
; File C:\Users\murat\Desktop\Siveps2-1-99-Project\source\client\Client\EterBase\poly\Poly.cpp
; File C:\Program Files (x86)\Microsoft Visual Studio\2019\Professional\VC\Tools\MSVC\14.29.30133\include\xstring
; File C:\Users\murat\Desktop\Siveps2-1-99-Project\source\client\Client\EterBase\poly\Poly.cpp
; File C:\Program Files (x86)\Microsoft Visual Studio\2019\Professional\VC\Tools\MSVC\14.29.30133\include\xstring
; File C:\Users\murat\Desktop\Siveps2-1-99-Project\source\client\Client\EterBase\poly\Poly.cpp
; File C:\Program Files (x86)\Microsoft Visual Studio\2019\Professional\VC\Tools\MSVC\14.29.30133\include\xstring
; File C:\Users\murat\Desktop\Siveps2-1-99-Project\source\client\Client\EterBase\poly\Poly.cpp
; File C:\Program Files (x86)\Microsoft Visual Studio\2019\Professional\VC\Tools\MSVC\14.29.30133\include\xstring
; File C:\Users\murat\Desktop\Siveps2-1-99-Project\source\client\Client\EterBase\poly\Poly.cpp
; File C:\Program Files (x86)\Microsoft Visual Studio\2019\Professional\VC\Tools\MSVC\14.29.30133\include\xstring
; File C:\Users\murat\Desktop\Siveps2-1-99-Project\source\client\Client\EterBase\poly\Poly.cpp
; File C:\Program Files (x86)\Microsoft Visual Studio\2019\Professional\VC\Tools\MSVC\14.29.30133\include\xstring
; File C:\Users\murat\Desktop\Siveps2-1-99-Project\source\client\Client\EterBase\poly\Poly.cpp
; File C:\Program Files (x86)\Microsoft Visual Studio\2019\Professional\VC\Tools\MSVC\14.29.30133\include\xstring
; File C:\Users\murat\Desktop\Siveps2-1-99-Project\source\client\Client\EterBase\poly\Poly.cpp
; File C:\Program Files (x86)\Microsoft Visual Studio\2019\Professional\VC\Tools\MSVC\14.29.30133\include\xstring
; File C:\Users\murat\Desktop\Siveps2-1-99-Project\source\client\Client\EterBase\poly\Poly.cpp
; File C:\Program Files (x86)\Microsoft Visual Studio\2019\Professional\VC\Tools\MSVC\14.29.30133\include\xstring
; File C:\Users\murat\Desktop\Siveps2-1-99-Project\source\client\Client\EterBase\poly\Poly.cpp
; File C:\Program Files (x86)\Microsoft Visual Studio\2019\Professional\VC\Tools\MSVC\14.29.30133\include\xstring
; File C:\Users\murat\Desktop\Siveps2-1-99-Project\source\client\Client\EterBase\poly\Poly.cpp
; File C:\Program Files (x86)\Microsoft Visual Studio\2019\Professional\VC\Tools\MSVC\14.29.30133\include\xstring
; File C:\Program Files (x86)\Microsoft Visual Studio\2019\Professional\VC\Tools\MSVC\14.29.30133\include\xmemory
; File C:\Program Files (x86)\Microsoft Visual Studio\2019\Professional\VC\Tools\MSVC\14.29.30133\include\xstring
; File C:\Program Files (x86)\Microsoft Visual Studio\2019\Professional\VC\Tools\MSVC\14.29.30133\include\xmemory
; File C:\Program Files (x86)\Microsoft Visual Studio\2019\Professional\VC\Tools\MSVC\14.29.30133\include\xstring
; File C:\Program Files (x86)\Microsoft Visual Studio\2019\Professional\VC\Tools\MSVC\14.29.30133\include\utility
; File C:\Program Files (x86)\Microsoft Visual Studio\2019\Professional\VC\Tools\MSVC\14.29.30133\include\xstring
; File C:\Program Files (x86)\Microsoft Visual Studio\2019\Professional\VC\Tools\MSVC\14.29.30133\include\xmemory
; File C:\Program Files (x86)\Microsoft Visual Studio\2019\Professional\VC\Tools\MSVC\14.29.30133\include\xstring
; File C:\Program Files (x86)\Microsoft Visual Studio\2019\Professional\VC\Tools\MSVC\14.29.30133\include\xmemory
; File C:\Program Files (x86)\Microsoft Visual Studio\2019\Professional\VC\Tools\MSVC\14.29.30133\include\xstring
; File C:\Program Files (x86)\Microsoft Visual Studio\2019\Professional\VC\Tools\MSVC\14.29.30133\include\xmemory
; File C:\Program Files (x86)\Microsoft Visual Studio\2019\Professional\VC\Tools\MSVC\14.29.30133\include\xstring
; File C:\Users\murat\Desktop\Siveps2-1-99-Project\source\client\Client\EterBase\poly\Poly.cpp
; File C:\Program Files (x86)\Microsoft Visual Studio\2019\Professional\VC\Tools\MSVC\14.29.30133\include\xstring
; File C:\Program Files (x86)\Microsoft Visual Studio\2019\Professional\VC\Tools\MSVC\14.29.30133\include\xmemory
; File C:\Users\murat\Desktop\Siveps2-1-99-Project\source\client\Client\EterBase\poly\Poly.cpp
; File C:\Program Files (x86)\Microsoft Visual Studio\2019\Professional\VC\Tools\MSVC\14.29.30133\include\xmemory
; File C:\Users\murat\Desktop\Siveps2-1-99-Project\source\client\Client\EterBase\poly\Poly.cpp
; File C:\Program Files (x86)\Microsoft Visual Studio\2019\Professional\VC\Tools\MSVC\14.29.30133\include\xstring
; File C:\Users\murat\Desktop\Siveps2-1-99-Project\source\client\Client\EterBase\poly\Poly.cpp
; File C:\Program Files (x86)\Microsoft Visual Studio\2019\Professional\VC\Tools\MSVC\14.29.30133\include\xmemory
; File C:\Program Files (x86)\Microsoft Visual Studio\2019\Professional\VC\Tools\MSVC\14.29.30133\include\xstring
; File C:\Users\murat\Desktop\Siveps2-1-99-Project\source\client\Client\EterBase\poly\Poly.cpp
;	COMDAT ?lexan@CPoly@@IAEHXZ
_TEXT	SEGMENT
_tt$1$ = -68						; size = 8
tv1874 = -64						; size = 4
__Old_capacity$1$ = -60					; size = 4
__Old_size$1$ = -56					; size = 4
$T2 = -52						; size = 4
__Ptr$1$ = -48						; size = 4
__Ch$1$ = -41						; size = 1
_localSymbol$3 = -40					; size = 24
__$ArrayPad$ = -16					; size = 4
__$EHRec$ = -12						; size = 12
?lexan@CPoly@@IAEHXZ PROC				; CPoly::lexan, COMDAT
; _this$ = ecx

; 321  : {

  00000	55		 push	 ebp
  00001	8b ec		 mov	 ebp, esp
  00003	6a ff		 push	 -1
  00005	68 00 00 00 00	 push	 __ehhandler$?lexan@CPoly@@IAEHXZ
  0000a	64 a1 00 00 00
	00		 mov	 eax, DWORD PTR fs:0
  00010	50		 push	 eax
  00011	83 ec 38	 sub	 esp, 56			; 00000038H
  00014	a1 00 00 00 00	 mov	 eax, DWORD PTR ___security_cookie
  00019	33 c5		 xor	 eax, ebp
  0001b	89 45 f0	 mov	 DWORD PTR __$ArrayPad$[ebp], eax
  0001e	53		 push	 ebx
  0001f	56		 push	 esi
  00020	57		 push	 edi
  00021	50		 push	 eax
  00022	8d 45 f4	 lea	 eax, DWORD PTR __$EHRec$[ebp]
  00025	64 a3 00 00 00
	00		 mov	 DWORD PTR fs:0, eax
  0002b	8b f9		 mov	 edi, ecx

; 322  :     int t;
; 323  :     double tt;
; 324  : 
; 325  :     while (uiLookPos < strData.size())

  0002d	8b 47 24	 mov	 eax, DWORD PTR [edi+36]
  00030	8b 5f 70	 mov	 ebx, DWORD PTR [edi+112]
  00033	3b c3		 cmp	 eax, ebx
  00035	73 32		 jae	 SHORT $LN313@lexan
  00037	8d 77 60	 lea	 esi, DWORD PTR [edi+96]
  0003a	66 0f 1f 44 00
	00		 npad	 6
$LL2@lexan:
; File C:\Program Files (x86)\Microsoft Visual Studio\2019\Professional\VC\Tools\MSVC\14.29.30133\include\xstring

; 2319 :         return _BUF_SIZE <= _Myres;

  00040	8b 56 14	 mov	 edx, DWORD PTR [esi+20]

; 2296 :         value_type* _Result = _Bx._Buf;

  00043	8b ce		 mov	 ecx, esi

; 2297 :         if (_Large_string_engaged()) {

  00045	83 fa 10	 cmp	 edx, 16			; 00000010H
  00048	72 02		 jb	 SHORT $LN302@lexan

; 2298 :             _Result = _Unfancy(_Bx._Ptr);

  0004a	8b 0e		 mov	 ecx, DWORD PTR [esi]
$LN302@lexan:
; File C:\Users\murat\Desktop\Siveps2-1-99-Project\source\client\Client\EterBase\poly\Poly.cpp

; 327  : 	if (strData[uiLookPos] == ' ' || strData[uiLookPos] == '\t')

  0004c	80 3c 08 20	 cmp	 BYTE PTR [eax+ecx], 32	; 00000020H
  00050	74 0f		 je	 SHORT $LN285@lexan
; File C:\Program Files (x86)\Microsoft Visual Studio\2019\Professional\VC\Tools\MSVC\14.29.30133\include\xstring

; 2296 :         value_type* _Result = _Bx._Buf;

  00052	8b ce		 mov	 ecx, esi

; 2297 :         if (_Large_string_engaged()) {

  00054	83 fa 10	 cmp	 edx, 16			; 00000010H
  00057	72 02		 jb	 SHORT $LN301@lexan

; 2298 :             _Result = _Unfancy(_Bx._Ptr);

  00059	8b 0e		 mov	 ecx, DWORD PTR [esi]
$LN301@lexan:
; File C:\Users\murat\Desktop\Siveps2-1-99-Project\source\client\Client\EterBase\poly\Poly.cpp

; 327  : 	if (strData[uiLookPos] == ' ' || strData[uiLookPos] == '\t')

  0005b	80 3c 08 09	 cmp	 BYTE PTR [eax+ecx], 9
  0005f	75 29		 jne	 SHORT $LN12@lexan
$LN285@lexan:

; 375  : 	}
; 376  : 	uiLookPos++;

  00061	40		 inc	 eax
  00062	89 47 24	 mov	 DWORD PTR [edi+36], eax
  00065	3b c3		 cmp	 eax, ebx
  00067	72 d7		 jb	 SHORT $LL2@lexan
$LN313@lexan:

; 377  :     }
; 378  :     return POLY_EOS;

  00069	b8 0b 00 00 00	 mov	 eax, 11			; 0000000bH
$LN1@lexan:

; 379  : }

  0006e	8b 4d f4	 mov	 ecx, DWORD PTR __$EHRec$[ebp]
  00071	64 89 0d 00 00
	00 00		 mov	 DWORD PTR fs:0, ecx
  00078	59		 pop	 ecx
  00079	5f		 pop	 edi
  0007a	5e		 pop	 esi
  0007b	5b		 pop	 ebx
  0007c	8b 4d f0	 mov	 ecx, DWORD PTR __$ArrayPad$[ebp]
  0007f	33 cd		 xor	 ecx, ebp
  00081	e8 00 00 00 00	 call	 @__security_check_cookie@4
  00086	8b e5		 mov	 esp, ebp
  00088	5d		 pop	 ebp
  00089	c3		 ret	 0
$LN12@lexan:
; File C:\Program Files (x86)\Microsoft Visual Studio\2019\Professional\VC\Tools\MSVC\14.29.30133\include\xstring

; 2296 :         value_type* _Result = _Bx._Buf;

  0008a	8b ce		 mov	 ecx, esi

; 2297 :         if (_Large_string_engaged()) {

  0008c	83 fa 10	 cmp	 edx, 16			; 00000010H
  0008f	72 02		 jb	 SHORT $LN303@lexan

; 2298 :             _Result = _Unfancy(_Bx._Ptr);

  00091	8b 0e		 mov	 ecx, DWORD PTR [esi]
$LN303@lexan:
; File C:\Users\murat\Desktop\Siveps2-1-99-Project\source\client\Client\EterBase\poly\Poly.cpp

; 329  : 	else if (isdigit(strData[uiLookPos]))

  00093	0f be 04 08	 movsx	 eax, BYTE PTR [eax+ecx]
  00097	50		 push	 eax
  00098	e8 00 00 00 00	 call	 _isdigit
  0009d	83 c4 04	 add	 esp, 4
  000a0	85 c0		 test	 eax, eax
  000a2	0f 84 05 01 00
	00		 je	 $LN15@lexan

; 330  : 	{
; 331  : 	    t = 0;
; 332  : 	    for (;uiLookPos<strData.size();uiLookPos++)

  000a8	8b 57 24	 mov	 edx, DWORD PTR [edi+36]
  000ab	33 db		 xor	 ebx, ebx
  000ad	3b 57 70	 cmp	 edx, DWORD PTR [edi+112]
  000b0	73 3e		 jae	 SHORT $LN315@lexan
$LL6@lexan:
; File C:\Program Files (x86)\Microsoft Visual Studio\2019\Professional\VC\Tools\MSVC\14.29.30133\include\xstring

; 2319 :         return _BUF_SIZE <= _Myres;

  000b2	83 7e 14 10	 cmp	 DWORD PTR [esi+20], 16	; 00000010H

; 2296 :         value_type* _Result = _Bx._Buf;

  000b6	8b c6		 mov	 eax, esi

; 2297 :         if (_Large_string_engaged()) {

  000b8	72 02		 jb	 SHORT $LN305@lexan

; 2298 :             _Result = _Unfancy(_Bx._Ptr);

  000ba	8b 06		 mov	 eax, DWORD PTR [esi]
$LN305@lexan:
; File C:\Users\murat\Desktop\Siveps2-1-99-Project\source\client\Client\EterBase\poly\Poly.cpp

; 334  : 		if (isdigit(strData[uiLookPos]))

  000bc	0f be 04 02	 movsx	 eax, BYTE PTR [edx+eax]
  000c0	50		 push	 eax
  000c1	e8 00 00 00 00	 call	 _isdigit
  000c6	83 c4 04	 add	 esp, 4
  000c9	85 c0		 test	 eax, eax
  000cb	74 23		 je	 SHORT $LN315@lexan
; File C:\Program Files (x86)\Microsoft Visual Studio\2019\Professional\VC\Tools\MSVC\14.29.30133\include\xstring

; 2319 :         return _BUF_SIZE <= _Myres;

  000cd	83 7e 14 10	 cmp	 DWORD PTR [esi+20], 16	; 00000010H

; 2296 :         value_type* _Result = _Bx._Buf;

  000d1	8b c6		 mov	 eax, esi

; 2297 :         if (_Large_string_engaged()) {

  000d3	72 02		 jb	 SHORT $LN304@lexan

; 2298 :             _Result = _Unfancy(_Bx._Ptr);

  000d5	8b 06		 mov	 eax, DWORD PTR [esi]
$LN304@lexan:

; 3843 :         return _Mypair._Myval2._Myptr()[_Off];

  000d7	8b 57 24	 mov	 edx, DWORD PTR [edi+36]
; File C:\Users\murat\Desktop\Siveps2-1-99-Project\source\client\Client\EterBase\poly\Poly.cpp

; 335  : 		    t = t * 10 + strData[uiLookPos] - '0';

  000da	8d 1c 9b	 lea	 ebx, DWORD PTR [ebx+ebx*4]
  000dd	8d 5b e8	 lea	 ebx, DWORD PTR [ebx-24]
  000e0	0f be 0c 02	 movsx	 ecx, BYTE PTR [edx+eax]
  000e4	42		 inc	 edx
  000e5	89 57 24	 mov	 DWORD PTR [edi+36], edx
  000e8	8d 1c 59	 lea	 ebx, DWORD PTR [ecx+ebx*2]
  000eb	3b 57 70	 cmp	 edx, DWORD PTR [edi+112]
  000ee	72 c2		 jb	 SHORT $LL6@lexan
$LN315@lexan:

; 336  : 		else
; 337  : 		    break;
; 338  : 	    }
; 339  : 	    iToken=t;
; 340  : 	    tt=0.1;

  000f0	f2 0f 10 05 00
	00 00 00	 movsd	 xmm0, QWORD PTR __real@3fb999999999999a

; 342  : 	    if (uiLookPos<strData.size() && strData[uiLookPos]=='.')

  000f8	8b 4f 24	 mov	 ecx, DWORD PTR [edi+36]
  000fb	8b 57 70	 mov	 edx, DWORD PTR [edi+112]
  000fe	f2 0f 11 45 bc	 movsd	 QWORD PTR _tt$1$[ebp], xmm0
  00103	0f 57 c0	 xorps	 xmm0, xmm0
  00106	89 5f 08	 mov	 DWORD PTR [edi+8], ebx
  00109	f2 0f 11 47 10	 movsd	 QWORD PTR [edi+16], xmm0
  0010e	3b ca		 cmp	 ecx, edx
  00110	73 7e		 jae	 SHORT $LN316@lexan
; File C:\Program Files (x86)\Microsoft Visual Studio\2019\Professional\VC\Tools\MSVC\14.29.30133\include\xstring

; 2319 :         return _BUF_SIZE <= _Myres;

  00112	83 7e 14 10	 cmp	 DWORD PTR [esi+20], 16	; 00000010H

; 2296 :         value_type* _Result = _Bx._Buf;

  00116	8b c6		 mov	 eax, esi

; 2297 :         if (_Large_string_engaged()) {

  00118	72 02		 jb	 SHORT $LN306@lexan

; 2298 :             _Result = _Unfancy(_Bx._Ptr);

  0011a	8b 06		 mov	 eax, DWORD PTR [esi]
$LN306@lexan:
; File C:\Users\murat\Desktop\Siveps2-1-99-Project\source\client\Client\EterBase\poly\Poly.cpp

; 342  : 	    if (uiLookPos<strData.size() && strData[uiLookPos]=='.')

  0011c	80 3c 08 2e	 cmp	 BYTE PTR [eax+ecx], 46	; 0000002eH
  00120	75 6e		 jne	 SHORT $LN316@lexan

; 343  : 	    {
; 344  : 		uiLookPos++;

  00122	41		 inc	 ecx
  00123	89 4f 24	 mov	 DWORD PTR [edi+36], ecx

; 345  : 		for (;uiLookPos<strData.size();uiLookPos++,tt*=0.1)

  00126	3b ca		 cmp	 ecx, edx
  00128	73 66		 jae	 SHORT $LN316@lexan
  0012a	66 0f 1f 44 00
	00		 npad	 6
$LL9@lexan:
; File C:\Program Files (x86)\Microsoft Visual Studio\2019\Professional\VC\Tools\MSVC\14.29.30133\include\xstring

; 2319 :         return _BUF_SIZE <= _Myres;

  00130	83 7e 14 10	 cmp	 DWORD PTR [esi+20], 16	; 00000010H

; 2296 :         value_type* _Result = _Bx._Buf;

  00134	8b c6		 mov	 eax, esi

; 2297 :         if (_Large_string_engaged()) {

  00136	72 02		 jb	 SHORT $LN308@lexan

; 2298 :             _Result = _Unfancy(_Bx._Ptr);

  00138	8b 06		 mov	 eax, DWORD PTR [esi]
$LN308@lexan:
; File C:\Users\murat\Desktop\Siveps2-1-99-Project\source\client\Client\EterBase\poly\Poly.cpp

; 347  : 		    if (isdigit(strData[uiLookPos]))

  0013a	0f be 04 01	 movsx	 eax, BYTE PTR [ecx+eax]
  0013e	50		 push	 eax
  0013f	e8 00 00 00 00	 call	 _isdigit
  00144	83 c4 04	 add	 esp, 4
  00147	85 c0		 test	 eax, eax
  00149	74 45		 je	 SHORT $LN316@lexan
; File C:\Program Files (x86)\Microsoft Visual Studio\2019\Professional\VC\Tools\MSVC\14.29.30133\include\xstring

; 2319 :         return _BUF_SIZE <= _Myres;

  0014b	83 7e 14 10	 cmp	 DWORD PTR [esi+20], 16	; 00000010H

; 2296 :         value_type* _Result = _Bx._Buf;

  0014f	8b c6		 mov	 eax, esi

; 2297 :         if (_Large_string_engaged()) {

  00151	72 02		 jb	 SHORT $LN307@lexan

; 2298 :             _Result = _Unfancy(_Bx._Ptr);

  00153	8b 06		 mov	 eax, DWORD PTR [esi]
$LN307@lexan:

; 3843 :         return _Mypair._Myval2._Myptr()[_Off];

  00155	8b 4f 24	 mov	 ecx, DWORD PTR [edi+36]
; File C:\Users\murat\Desktop\Siveps2-1-99-Project\source\client\Client\EterBase\poly\Poly.cpp

; 348  : 			iNumToken+=tt*(strData[uiLookPos]-'0');

  00158	f2 0f 10 4d bc	 movsd	 xmm1, QWORD PTR _tt$1$[ebp]
  0015d	0f be 04 08	 movsx	 eax, BYTE PTR [eax+ecx]
  00161	41		 inc	 ecx
  00162	83 e8 30	 sub	 eax, 48			; 00000030H
  00165	89 4f 24	 mov	 DWORD PTR [edi+36], ecx
  00168	66 0f 6e c0	 movd	 xmm0, eax
  0016c	f3 0f e6 c0	 cvtdq2pd xmm0, xmm0
  00170	f2 0f 59 c1	 mulsd	 xmm0, xmm1
  00174	f2 0f 59 0d 00
	00 00 00	 mulsd	 xmm1, QWORD PTR __real@3fb999999999999a
  0017c	f2 0f 58 47 10	 addsd	 xmm0, QWORD PTR [edi+16]
  00181	f2 0f 11 4d bc	 movsd	 QWORD PTR _tt$1$[ebp], xmm1
  00186	f2 0f 11 47 10	 movsd	 QWORD PTR [edi+16], xmm0
  0018b	3b 4f 70	 cmp	 ecx, DWORD PTR [edi+112]
  0018e	72 a0		 jb	 SHORT $LL9@lexan
$LN316@lexan:
  00190	66 0f 6e 47 08	 movd	 xmm0, DWORD PTR [edi+8]

; 349  : 		    else
; 350  : 			break;
; 351  : 		}
; 352  : 	    }
; 353  : 	    iNumToken+=iToken;
; 354  : 	    return POLY_NUM;

  00195	b8 09 00 00 00	 mov	 eax, 9
  0019a	f3 0f e6 c0	 cvtdq2pd xmm0, xmm0
  0019e	f2 0f 58 47 10	 addsd	 xmm0, QWORD PTR [edi+16]
  001a3	f2 0f 11 47 10	 movsd	 QWORD PTR [edi+16], xmm0
  001a8	e9 c1 fe ff ff	 jmp	 $LN1@lexan
$LN15@lexan:
; File C:\Program Files (x86)\Microsoft Visual Studio\2019\Professional\VC\Tools\MSVC\14.29.30133\include\xstring

; 2297 :         if (_Large_string_engaged()) {

  001ad	83 7e 14 10	 cmp	 DWORD PTR [esi+20], 16	; 00000010H
  001b1	8b ce		 mov	 ecx, esi
  001b3	72 02		 jb	 SHORT $LN309@lexan

; 2298 :             _Result = _Unfancy(_Bx._Ptr);

  001b5	8b 0e		 mov	 ecx, DWORD PTR [esi]
$LN309@lexan:

; 3843 :         return _Mypair._Myval2._Myptr()[_Off];

  001b7	8b 47 24	 mov	 eax, DWORD PTR [edi+36]
; File C:\Users\murat\Desktop\Siveps2-1-99-Project\source\client\Client\EterBase\poly\Poly.cpp

; 356  : 	else if (isalpha(strData[uiLookPos]))

  001ba	0f be 04 08	 movsx	 eax, BYTE PTR [eax+ecx]
  001be	50		 push	 eax
  001bf	e8 00 00 00 00	 call	 _isalpha
  001c4	8b 4f 24	 mov	 ecx, DWORD PTR [edi+36]
  001c7	83 c4 04	 add	 esp, 4
  001ca	85 c0		 test	 eax, eax
  001cc	0f 84 3a 02 00
	00		 je	 $LN22@lexan
; File C:\Program Files (x86)\Microsoft Visual Studio\2019\Professional\VC\Tools\MSVC\14.29.30133\include\xstring

; 3248 :             _Mypair._Myval2._Mysize = _Count;

  001d2	33 d2		 xor	 edx, edx

; 2346 :         _CONSTEXPR20_CONTAINER _Bxty() noexcept : _Ptr() {} // user-provided, for fancy pointers

  001d4	c7 45 d8 00 00
	00 00		 mov	 DWORD PTR _localSymbol$3[ebp], 0

; 4610 :             _My_data._Myres = _BUF_SIZE - 1;

  001db	bb 0f 00 00 00	 mov	 ebx, 15			; 0000000fH

; 3248 :             _Mypair._Myval2._Mysize = _Count;

  001e0	89 55 c8	 mov	 DWORD PTR __Old_size$1$[ebp], edx

; 4610 :             _My_data._Myres = _BUF_SIZE - 1;

  001e3	89 5d ec	 mov	 DWORD PTR _localSymbol$3[ebp+20], ebx

; 3248 :             _Mypair._Myval2._Mysize = _Count;

  001e6	89 55 e8	 mov	 DWORD PTR _localSymbol$3[ebp+16], edx

; 3249 :             _Traits::move(_Old_ptr, _Ptr, _Count);
; 3250 :             _Traits::assign(_Old_ptr[_Count], _Elem());

  001e9	88 55 d8	 mov	 BYTE PTR _localSymbol$3[ebp], dl
; File C:\Users\murat\Desktop\Siveps2-1-99-Project\source\client\Client\EterBase\poly\Poly.cpp

; 358  : 	    string localSymbol("");

  001ec	89 55 fc	 mov	 DWORD PTR __$EHRec$[ebp+8], edx

; 359  : 	    while (uiLookPos<strData.size() && isalpha(strData[uiLookPos]))

  001ef	3b 4f 70	 cmp	 ecx, DWORD PTR [edi+112]
  001f2	0f 83 fe 01 00
	00		 jae	 $LN314@lexan
; File C:\Program Files (x86)\Microsoft Visual Studio\2019\Professional\VC\Tools\MSVC\14.29.30133\include\xstring

; 2298 :             _Result = _Unfancy(_Bx._Ptr);

  001f8	8b 45 d8	 mov	 eax, DWORD PTR _localSymbol$3[ebp]
  001fb	89 45 d0	 mov	 DWORD PTR __Ptr$1$[ebp], eax
  001fe	66 90		 npad	 2
$LL10@lexan:

; 2319 :         return _BUF_SIZE <= _Myres;

  00200	83 7e 14 10	 cmp	 DWORD PTR [esi+20], 16	; 00000010H

; 2296 :         value_type* _Result = _Bx._Buf;

  00204	8b c6		 mov	 eax, esi

; 2297 :         if (_Large_string_engaged()) {

  00206	72 02		 jb	 SHORT $LN311@lexan

; 2298 :             _Result = _Unfancy(_Bx._Ptr);

  00208	8b 06		 mov	 eax, DWORD PTR [esi]
$LN311@lexan:
; File C:\Users\murat\Desktop\Siveps2-1-99-Project\source\client\Client\EterBase\poly\Poly.cpp

; 359  : 	    while (uiLookPos<strData.size() && isalpha(strData[uiLookPos]))

  0020a	0f be 04 01	 movsx	 eax, BYTE PTR [ecx+eax]
  0020e	50		 push	 eax
  0020f	e8 00 00 00 00	 call	 _isalpha
  00214	83 c4 04	 add	 esp, 4
  00217	85 c0		 test	 eax, eax
  00219	0f 84 7c 01 00
	00		 je	 $LN317@lexan
; File C:\Program Files (x86)\Microsoft Visual Studio\2019\Professional\VC\Tools\MSVC\14.29.30133\include\xstring

; 2319 :         return _BUF_SIZE <= _Myres;

  0021f	83 7e 14 10	 cmp	 DWORD PTR [esi+20], 16	; 00000010H

; 2296 :         value_type* _Result = _Bx._Buf;

  00223	8b ce		 mov	 ecx, esi

; 2297 :         if (_Large_string_engaged()) {

  00225	72 02		 jb	 SHORT $LN310@lexan

; 2298 :             _Result = _Unfancy(_Bx._Ptr);

  00227	8b 0e		 mov	 ecx, DWORD PTR [esi]
$LN310@lexan:

; 3119 :         push_back(_Ch);

  00229	8b 47 24	 mov	 eax, DWORD PTR [edi+36]
  0022c	8a 14 01	 mov	 dl, BYTE PTR [ecx+eax]

; 3862 :         const size_type _Old_size = _Mypair._Myval2._Mysize;

  0022f	8b 4d c8	 mov	 ecx, DWORD PTR __Old_size$1$[ebp]

; 3119 :         push_back(_Ch);

  00232	88 55 d7	 mov	 BYTE PTR __Ch$1$[ebp], dl

; 3862 :         const size_type _Old_size = _Mypair._Myval2._Mysize;

  00235	3b cb		 cmp	 ecx, ebx

; 3863 :         if (_Old_size < _Mypair._Myval2._Myres) {

  00237	73 29		 jae	 SHORT $LN180@lexan

; 3864 :             _Mypair._Myval2._Mysize = _Old_size + 1;

  00239	8d 41 01	 lea	 eax, DWORD PTR [ecx+1]

; 2319 :         return _BUF_SIZE <= _Myres;

  0023c	83 fb 10	 cmp	 ebx, 16			; 00000010H

; 3864 :             _Mypair._Myval2._Mysize = _Old_size + 1;

  0023f	89 45 e8	 mov	 DWORD PTR _localSymbol$3[ebp+16], eax

; 2296 :         value_type* _Result = _Bx._Buf;

  00242	8d 45 d8	 lea	 eax, DWORD PTR _localSymbol$3[ebp]

; 2297 :         if (_Large_string_engaged()) {

  00245	0f 43 45 d0	 cmovae	 eax, DWORD PTR __Ptr$1$[ebp]

; 3866 :             _Traits::assign(_Ptr[_Old_size], _Ch);

  00249	88 14 08	 mov	 BYTE PTR [eax+ecx], dl

; 3867 :             _Traits::assign(_Ptr[_Old_size + 1], _Elem());

  0024c	c6 44 08 01 00	 mov	 BYTE PTR [eax+ecx+1], 0

; 3868 :             return;

  00251	8b 55 e8	 mov	 edx, DWORD PTR _localSymbol$3[ebp+16]
  00254	8b 5d ec	 mov	 ebx, DWORD PTR _localSymbol$3[ebp+20]
  00257	8b 4d d8	 mov	 ecx, DWORD PTR _localSymbol$3[ebp]
  0025a	89 55 c8	 mov	 DWORD PTR __Old_size$1$[ebp], edx
  0025d	e9 26 01 00 00	 jmp	 $LN320@lexan
$LN180@lexan:

; 4542 :         const size_type _Old_size = _My_data._Mysize;

  00262	b8 ff ff ff 7f	 mov	 eax, 2147483647		; 7fffffffH

; 3871 :         _Reallocate_grow_by(

  00267	89 4d c0	 mov	 DWORD PTR tv1874[ebp], ecx

; 4542 :         const size_type _Old_size = _My_data._Mysize;

  0026a	2b c1		 sub	 eax, ecx

; 4543 :         if (max_size() - _Old_size < _Size_increase) {

  0026c	83 f8 01	 cmp	 eax, 1
  0026f	0f 82 ba 01 00
	00		 jb	 $LN276@lexan

; 4545 :         }
; 4546 : 
; 4547 :         const size_type _New_size     = _Old_size + _Size_increase;

  00275	8d 41 01	 lea	 eax, DWORD PTR [ecx+1]

; 4548 :         const size_type _Old_capacity = _My_data._Myres;

  00278	8b d3		 mov	 edx, ebx

; 4488 :         const size_type _Masked = _Requested | _ALLOC_MASK;

  0027a	8b d8		 mov	 ebx, eax

; 4547 :         const size_type _New_size     = _Old_size + _Size_increase;

  0027c	89 45 c8	 mov	 DWORD PTR __Old_size$1$[ebp], eax

; 4488 :         const size_type _Masked = _Requested | _ALLOC_MASK;

  0027f	83 cb 0f	 or	 ebx, 15			; 0000000fH

; 4548 :         const size_type _Old_capacity = _My_data._Myres;

  00282	89 55 c4	 mov	 DWORD PTR __Old_capacity$1$[ebp], edx

; 4488 :         const size_type _Masked = _Requested | _ALLOC_MASK;

  00285	81 fb ff ff ff
	7f		 cmp	 ebx, 2147483647		; 7fffffffH

; 4489 :         if (_Masked > _Max) { // the mask overflows, settle for max_size()

  0028b	76 18		 jbe	 SHORT $LN195@lexan

; 4490 :             return _Max;

  0028d	b8 00 00 00 80	 mov	 eax, -2147483648	; 80000000H
  00292	bb ff ff ff 7f	 mov	 ebx, 2147483647		; 7fffffffH
; File C:\Program Files (x86)\Microsoft Visual Studio\2019\Professional\VC\Tools\MSVC\14.29.30133\include\xmemory

; 238  :             return _Allocate_manually_vector_aligned<_Traits>(_Bytes);

  00297	50		 push	 eax
  00298	e8 00 00 00 00	 call	 ??$_Allocate_manually_vector_aligned@U_Default_allocate_traits@std@@@std@@YAPAXI@Z ; std::_Allocate_manually_vector_aligned<std::_Default_allocate_traits>
  0029d	8b 4d c0	 mov	 ecx, DWORD PTR tv1874[ebp]
  002a0	83 c4 04	 add	 esp, 4
  002a3	eb 5c		 jmp	 SHORT $LN321@lexan
$LN195@lexan:
; File C:\Program Files (x86)\Microsoft Visual Studio\2019\Professional\VC\Tools\MSVC\14.29.30133\include\xstring

; 4493 :         if (_Old > _Max - _Old / 2) { // similarly, geometric overflows

  002a5	d1 ea		 shr	 edx, 1
  002a7	b8 ff ff ff 7f	 mov	 eax, 2147483647		; 7fffffffH
  002ac	2b c2		 sub	 eax, edx
  002ae	39 45 c4	 cmp	 DWORD PTR __Old_capacity$1$[ebp], eax
  002b1	76 18		 jbe	 SHORT $LN196@lexan

; 4494 :             return _Max;

  002b3	b8 00 00 00 80	 mov	 eax, -2147483648	; 80000000H
  002b8	bb ff ff ff 7f	 mov	 ebx, 2147483647		; 7fffffffH
; File C:\Program Files (x86)\Microsoft Visual Studio\2019\Professional\VC\Tools\MSVC\14.29.30133\include\xmemory

; 238  :             return _Allocate_manually_vector_aligned<_Traits>(_Bytes);

  002bd	50		 push	 eax
  002be	e8 00 00 00 00	 call	 ??$_Allocate_manually_vector_aligned@U_Default_allocate_traits@std@@@std@@YAPAXI@Z ; std::_Allocate_manually_vector_aligned<std::_Default_allocate_traits>
  002c3	8b 4d c0	 mov	 ecx, DWORD PTR tv1874[ebp]
  002c6	83 c4 04	 add	 esp, 4
  002c9	eb 36		 jmp	 SHORT $LN321@lexan
$LN196@lexan:
; File C:\Program Files (x86)\Microsoft Visual Studio\2019\Professional\VC\Tools\MSVC\14.29.30133\include\xstring

; 4497 :         return (_STD max)(_Masked, _Old + _Old / 2);

  002cb	8b 45 c4	 mov	 eax, DWORD PTR __Old_capacity$1$[ebp]
  002ce	03 c2		 add	 eax, edx
; File C:\Program Files (x86)\Microsoft Visual Studio\2019\Professional\VC\Tools\MSVC\14.29.30133\include\utility

; 44   :     return _Left < _Right ? _Right : _Left;

  002d0	3b d8		 cmp	 ebx, eax
  002d2	0f 42 d8	 cmovb	 ebx, eax
; File C:\Program Files (x86)\Microsoft Visual Studio\2019\Professional\VC\Tools\MSVC\14.29.30133\include\xstring

; 4551 :         const pointer _New_ptr        = _Al.allocate(_New_capacity + 1); // throws

  002d5	8d 43 01	 lea	 eax, DWORD PTR [ebx+1]
; File C:\Program Files (x86)\Microsoft Visual Studio\2019\Professional\VC\Tools\MSVC\14.29.30133\include\xmemory

; 237  :         if (_Bytes >= _Big_allocation_threshold) { // boost the alignment of big allocations to help autovectorization

  002d8	3d 00 10 00 00	 cmp	 eax, 4096		; 00001000H
  002dd	72 0e		 jb	 SHORT $LN203@lexan

; 238  :             return _Allocate_manually_vector_aligned<_Traits>(_Bytes);

  002df	50		 push	 eax
  002e0	e8 00 00 00 00	 call	 ??$_Allocate_manually_vector_aligned@U_Default_allocate_traits@std@@@std@@YAPAXI@Z ; std::_Allocate_manually_vector_aligned<std::_Default_allocate_traits>
  002e5	8b 4d c0	 mov	 ecx, DWORD PTR tv1874[ebp]
  002e8	83 c4 04	 add	 esp, 4
  002eb	eb 14		 jmp	 SHORT $LN321@lexan
$LN203@lexan:

; 239  :         }
; 240  :     }
; 241  : #endif // defined(_M_IX86) || defined(_M_X64)
; 242  : 
; 243  :     if (_Bytes != 0) {

  002ed	85 c0		 test	 eax, eax
  002ef	74 0e		 je	 SHORT $LN204@lexan

; 85   :         return ::operator new(_Bytes);

  002f1	50		 push	 eax
  002f2	e8 00 00 00 00	 call	 ??2@YAPAXI@Z		; operator new

; 244  :         return _Traits::_Allocate(_Bytes);

  002f7	8b 4d c0	 mov	 ecx, DWORD PTR tv1874[ebp]

; 85   :         return ::operator new(_Bytes);

  002fa	83 c4 04	 add	 esp, 4

; 244  :         return _Traits::_Allocate(_Bytes);

  002fd	eb 02		 jmp	 SHORT $LN321@lexan
$LN204@lexan:

; 245  :     }
; 246  : 
; 247  :     return nullptr;

  002ff	33 c0		 xor	 eax, eax
$LN321@lexan:
; File C:\Program Files (x86)\Microsoft Visual Studio\2019\Professional\VC\Tools\MSVC\14.29.30133\include\xstring

; 4562 :         if (_BUF_SIZE <= _Old_capacity) {

  00301	83 7d c4 10	 cmp	 DWORD PTR __Old_capacity$1$[ebp], 16 ; 00000010H
  00305	8b 55 c8	 mov	 edx, DWORD PTR __Old_size$1$[ebp]
  00308	89 45 cc	 mov	 DWORD PTR $T2[ebp], eax
  0030b	89 55 e8	 mov	 DWORD PTR _localSymbol$3[ebp+16], edx
  0030e	89 5d ec	 mov	 DWORD PTR _localSymbol$3[ebp+20], ebx
  00311	51		 push	 ecx
  00312	72 51		 jb	 SHORT $LN189@lexan

; 65   :         _CSTD memcpy(_First1, _First2, _Count * sizeof(_Elem));

  00314	ff 75 d0	 push	 DWORD PTR __Ptr$1$[ebp]
  00317	50		 push	 eax
  00318	e8 00 00 00 00	 call	 _memcpy

; 3875 :                 _Traits::assign(_New_ptr[_Old_size], _Ch);

  0031d	8b 45 cc	 mov	 eax, DWORD PTR $T2[ebp]

; 65   :         _CSTD memcpy(_First1, _First2, _Count * sizeof(_Elem));

  00320	83 c4 0c	 add	 esp, 12			; 0000000cH

; 3875 :                 _Traits::assign(_New_ptr[_Old_size], _Ch);

  00323	8b 4d c0	 mov	 ecx, DWORD PTR tv1874[ebp]
  00326	8a 55 d7	 mov	 dl, BYTE PTR __Ch$1$[ebp]
  00329	88 14 08	 mov	 BYTE PTR [eax+ecx], dl

; 4565 :             _Al.deallocate(_Old_ptr, _Old_capacity + 1);

  0032c	8b 55 c4	 mov	 edx, DWORD PTR __Old_capacity$1$[ebp]

; 3876 :                 _Traits::assign(_New_ptr[_Old_size + 1], _Elem());

  0032f	c6 44 01 01 00	 mov	 BYTE PTR [ecx+eax+1], 0

; 4565 :             _Al.deallocate(_Old_ptr, _Old_capacity + 1);

  00334	42		 inc	 edx
; File C:\Program Files (x86)\Microsoft Visual Studio\2019\Professional\VC\Tools\MSVC\14.29.30133\include\xmemory

; 835  :         _Deallocate<_New_alignof<_Ty>>(_Ptr, sizeof(_Ty) * _Count);

  00335	8b 4d d0	 mov	 ecx, DWORD PTR __Ptr$1$[ebp]
  00338	8b c1		 mov	 eax, ecx

; 260  :         if (_Bytes >= _Big_allocation_threshold) { // boost the alignment of big allocations to help autovectorization

  0033a	81 fa 00 10 00
	00		 cmp	 edx, 4096		; 00001000H
  00340	72 14		 jb	 SHORT $LN226@lexan

; 158  :     const uintptr_t _Ptr_container   = _Ptr_user[-1];

  00342	8b 49 fc	 mov	 ecx, DWORD PTR [ecx-4]
  00345	83 c2 23	 add	 edx, 35			; 00000023H
  00348	2b c1		 sub	 eax, ecx

; 172  :     _STL_VERIFY(_Back_shift >= _Min_back_shift && _Back_shift <= _Non_user_size, "invalid argument");

  0034a	83 c0 fc	 add	 eax, -4			; fffffffcH
  0034d	83 f8 1f	 cmp	 eax, 31			; 0000001fH
  00350	0f 87 d4 00 00
	00		 ja	 $LN257@lexan
$LN226@lexan:

; 264  :         ::operator delete(_Ptr, _Bytes);

  00356	52		 push	 edx
  00357	51		 push	 ecx
  00358	e8 00 00 00 00	 call	 ??3@YAXPAXI@Z		; operator delete
; File C:\Program Files (x86)\Microsoft Visual Studio\2019\Professional\VC\Tools\MSVC\14.29.30133\include\xstring

; 4566 :             _My_data._Bx._Ptr = _New_ptr;

  0035d	8b 4d cc	 mov	 ecx, DWORD PTR $T2[ebp]
; File C:\Program Files (x86)\Microsoft Visual Studio\2019\Professional\VC\Tools\MSVC\14.29.30133\include\xmemory

; 264  :         ::operator delete(_Ptr, _Bytes);

  00360	83 c4 08	 add	 esp, 8
; File C:\Program Files (x86)\Microsoft Visual Studio\2019\Professional\VC\Tools\MSVC\14.29.30133\include\xstring

; 4567 :         } else {

  00363	eb 20		 jmp	 SHORT $LN322@lexan
$LN189@lexan:

; 65   :         _CSTD memcpy(_First1, _First2, _Count * sizeof(_Elem));

  00365	8d 4d d8	 lea	 ecx, DWORD PTR _localSymbol$3[ebp]
  00368	51		 push	 ecx
  00369	50		 push	 eax
  0036a	e8 00 00 00 00	 call	 _memcpy

; 3875 :                 _Traits::assign(_New_ptr[_Old_size], _Ch);

  0036f	8b 45 cc	 mov	 eax, DWORD PTR $T2[ebp]

; 65   :         _CSTD memcpy(_First1, _First2, _Count * sizeof(_Elem));

  00372	83 c4 0c	 add	 esp, 12			; 0000000cH

; 3875 :                 _Traits::assign(_New_ptr[_Old_size], _Ch);

  00375	8b 4d c0	 mov	 ecx, DWORD PTR tv1874[ebp]
  00378	8a 55 d7	 mov	 dl, BYTE PTR __Ch$1$[ebp]
  0037b	88 14 08	 mov	 BYTE PTR [eax+ecx], dl

; 3876 :                 _Traits::assign(_New_ptr[_Old_size + 1], _Elem());

  0037e	c6 44 01 01 00	 mov	 BYTE PTR [ecx+eax+1], 0

; 4569 :             _Construct_in_place(_My_data._Bx._Ptr, _New_ptr);

  00383	8b c8		 mov	 ecx, eax
$LN322@lexan:
; File C:\Users\murat\Desktop\Siveps2-1-99-Project\source\client\Client\EterBase\poly\Poly.cpp

; 362  : 		uiLookPos++;

  00385	89 4d d8	 mov	 DWORD PTR _localSymbol$3[ebp], ecx
$LN320@lexan:
  00388	89 4d d0	 mov	 DWORD PTR __Ptr$1$[ebp], ecx
  0038b	8b 4f 24	 mov	 ecx, DWORD PTR [edi+36]
  0038e	41		 inc	 ecx
  0038f	89 4f 24	 mov	 DWORD PTR [edi+36], ecx
  00392	3b 4f 70	 cmp	 ecx, DWORD PTR [edi+112]
  00395	0f 82 65 fe ff
	ff		 jb	 $LL10@lexan
$LN317@lexan:

; 363  : 	    }
; 364  : 	    iToken= find(localSymbol);

  0039b	8b 75 d0	 mov	 esi, DWORD PTR __Ptr$1$[ebp]
$LN11@lexan:
  0039e	8d 45 d8	 lea	 eax, DWORD PTR _localSymbol$3[ebp]
  003a1	8b cf		 mov	 ecx, edi
  003a3	50		 push	 eax
  003a4	e8 00 00 00 00	 call	 ?find@CPoly@@IAEHABV?$basic_string@DU?$char_traits@D@std@@V?$allocator@D@2@@std@@@Z ; CPoly::find
  003a9	8b c8		 mov	 ecx, eax
  003ab	89 4f 08	 mov	 DWORD PTR [edi+8], ecx

; 365  : 	    if (iToken==-1)

  003ae	83 f9 ff	 cmp	 ecx, -1
  003b1	75 18		 jne	 SHORT $LN24@lexan

; 366  : 	    {
; 367  : 		iToken=insert(localSymbol,POLY_ID);

  003b3	6a 0a		 push	 10			; 0000000aH
  003b5	8d 45 d8	 lea	 eax, DWORD PTR _localSymbol$3[ebp]
  003b8	8b cf		 mov	 ecx, edi
  003ba	50		 push	 eax
  003bb	e8 00 00 00 00	 call	 ?insert@CPoly@@IAEHABV?$basic_string@DU?$char_traits@D@std@@V?$allocator@D@2@@std@@H@Z ; CPoly::insert
  003c0	8b 5d ec	 mov	 ebx, DWORD PTR _localSymbol$3[ebp+20]
  003c3	8b c8		 mov	 ecx, eax
  003c5	8b 75 d8	 mov	 esi, DWORD PTR _localSymbol$3[ebp]
  003c8	89 47 08	 mov	 DWORD PTR [edi+8], eax
$LN24@lexan:

; 369  : 	    return lSymbol[(/*FindIndex*/(iToken))]->token;

  003cb	8b 47 40	 mov	 eax, DWORD PTR [edi+64]
  003ce	8b 04 88	 mov	 eax, DWORD PTR [eax+ecx*4]
  003d1	8b 78 10	 mov	 edi, DWORD PTR [eax+16]
; File C:\Program Files (x86)\Microsoft Visual Studio\2019\Professional\VC\Tools\MSVC\14.29.30133\include\xstring

; 2319 :         return _BUF_SIZE <= _Myres;

  003d4	83 fb 10	 cmp	 ebx, 16			; 00000010H

; 4618 :         if (_Mypair._Myval2._Large_string_engaged()) {

  003d7	72 2c		 jb	 SHORT $LN250@lexan

; 4619 :             const pointer _Ptr = _Mypair._Myval2._Bx._Ptr;
; 4620 :             auto& _Al          = _Getal();
; 4621 :             _Destroy_in_place(_Mypair._Myval2._Bx._Ptr);
; 4622 :             _Al.deallocate(_Ptr, _Mypair._Myval2._Myres + 1);

  003d9	43		 inc	 ebx
; File C:\Program Files (x86)\Microsoft Visual Studio\2019\Professional\VC\Tools\MSVC\14.29.30133\include\xmemory

; 835  :         _Deallocate<_New_alignof<_Ty>>(_Ptr, sizeof(_Ty) * _Count);

  003da	8b c6		 mov	 eax, esi

; 260  :         if (_Bytes >= _Big_allocation_threshold) { // boost the alignment of big allocations to help autovectorization

  003dc	81 fb 00 10 00
	00		 cmp	 ebx, 4096		; 00001000H
  003e2	72 17		 jb	 SHORT $LN260@lexan

; 158  :     const uintptr_t _Ptr_container   = _Ptr_user[-1];

  003e4	8b 76 fc	 mov	 esi, DWORD PTR [esi-4]
  003e7	83 c3 23	 add	 ebx, 35			; 00000023H
  003ea	2b c6		 sub	 eax, esi

; 172  :     _STL_VERIFY(_Back_shift >= _Min_back_shift && _Back_shift <= _Non_user_size, "invalid argument");

  003ec	83 c0 fc	 add	 eax, -4			; fffffffcH
  003ef	83 f8 1f	 cmp	 eax, 31			; 0000001fH
  003f2	77 36		 ja	 SHORT $LN257@lexan
  003f4	eb 05		 jmp	 SHORT $LN260@lexan
$LN314@lexan:
; File C:\Users\murat\Desktop\Siveps2-1-99-Project\source\client\Client\EterBase\poly\Poly.cpp

; 359  : 	    while (uiLookPos<strData.size() && isalpha(strData[uiLookPos]))

  003f6	8b 75 d8	 mov	 esi, DWORD PTR _localSymbol$3[ebp]
  003f9	eb a3		 jmp	 SHORT $LN11@lexan
$LN260@lexan:
; File C:\Program Files (x86)\Microsoft Visual Studio\2019\Professional\VC\Tools\MSVC\14.29.30133\include\xmemory

; 264  :         ::operator delete(_Ptr, _Bytes);

  003fb	53		 push	 ebx
  003fc	56		 push	 esi
  003fd	e8 00 00 00 00	 call	 ??3@YAXPAXI@Z		; operator delete
  00402	83 c4 08	 add	 esp, 8
$LN250@lexan:
; File C:\Users\murat\Desktop\Siveps2-1-99-Project\source\client\Client\EterBase\poly\Poly.cpp

; 369  : 	    return lSymbol[(/*FindIndex*/(iToken))]->token;

  00405	8b c7		 mov	 eax, edi
  00407	e9 62 fc ff ff	 jmp	 $LN1@lexan
$LN22@lexan:

; 374  : 	    return strData[uiLookPos++];

  0040c	8d 41 01	 lea	 eax, DWORD PTR [ecx+1]
  0040f	c7 47 08 00 00
	00 00		 mov	 DWORD PTR [edi+8], 0
  00416	89 47 24	 mov	 DWORD PTR [edi+36], eax
; File C:\Program Files (x86)\Microsoft Visual Studio\2019\Professional\VC\Tools\MSVC\14.29.30133\include\xstring

; 2319 :         return _BUF_SIZE <= _Myres;

  00419	83 7e 14 10	 cmp	 DWORD PTR [esi+20], 16	; 00000010H

; 2297 :         if (_Large_string_engaged()) {

  0041d	72 02		 jb	 SHORT $LN268@lexan

; 2298 :             _Result = _Unfancy(_Bx._Ptr);

  0041f	8b 36		 mov	 esi, DWORD PTR [esi]
$LN268@lexan:
; File C:\Users\murat\Desktop\Siveps2-1-99-Project\source\client\Client\EterBase\poly\Poly.cpp

; 374  : 	    return strData[uiLookPos++];

  00421	0f be 04 0e	 movsx	 eax, BYTE PTR [esi+ecx]
  00425	e9 44 fc ff ff	 jmp	 $LN1@lexan
$LN257@lexan:
; File C:\Program Files (x86)\Microsoft Visual Studio\2019\Professional\VC\Tools\MSVC\14.29.30133\include\xmemory

; 172  :     _STL_VERIFY(_Back_shift >= _Min_back_shift && _Back_shift <= _Non_user_size, "invalid argument");

  0042a	e8 00 00 00 00	 call	 __invalid_parameter_noinfo_noreturn
$LN276@lexan:
; File C:\Program Files (x86)\Microsoft Visual Studio\2019\Professional\VC\Tools\MSVC\14.29.30133\include\xstring

; 4544 :             _Xlen_string(); // result too long

  0042f	e8 00 00 00 00	 call	 ?_Xlen_string@std@@YAXXZ ; std::_Xlen_string
$LN319@lexan:
  00434	cc		 int	 3
_TEXT	ENDS
;	COMDAT text$x
text$x	SEGMENT
__unwindfunclet$?lexan@CPoly@@IAEHXZ$0:
  00000	8d 4d d8	 lea	 ecx, DWORD PTR _localSymbol$3[ebp]
  00003	e9 00 00 00 00	 jmp	 ??1?$basic_string@DU?$char_traits@D@std@@V?$allocator@D@2@@std@@QAE@XZ ; std::basic_string<char,std::char_traits<char>,std::allocator<char> >::~basic_string<char,std::char_traits<char>,std::allocator<char> >
  00008	cc		 int	 3
  00009	cc		 int	 3
  0000a	cc		 int	 3
  0000b	cc		 int	 3
  0000c	cc		 int	 3
__ehhandler$?lexan@CPoly@@IAEHXZ:
  0000d	90		 npad	 1
  0000e	90		 npad	 1
  0000f	8b 54 24 08	 mov	 edx, DWORD PTR [esp+8]
  00013	8d 42 0c	 lea	 eax, DWORD PTR [edx+12]
  00016	8b 4a b8	 mov	 ecx, DWORD PTR [edx-72]
  00019	33 c8		 xor	 ecx, eax
  0001b	e8 00 00 00 00	 call	 @__security_check_cookie@4
  00020	8b 4a fc	 mov	 ecx, DWORD PTR [edx-4]
  00023	33 c8		 xor	 ecx, eax
  00025	e8 00 00 00 00	 call	 @__security_check_cookie@4
  0002a	b8 00 00 00 00	 mov	 eax, OFFSET __ehfuncinfo$?lexan@CPoly@@IAEHXZ
  0002f	e9 00 00 00 00	 jmp	 ___CxxFrameHandler3
text$x	ENDS
?lexan@CPoly@@IAEHXZ ENDP				; CPoly::lexan
; Function compile flags: /Ogtp
; File C:\Users\murat\Desktop\Siveps2-1-99-Project\source\client\Client\EterBase\poly\Poly.cpp
;	COMDAT ?term@CPoly@@IAEXXZ
_TEXT	SEGMENT
?term@CPoly@@IAEXXZ PROC				; CPoly::term, COMDAT
; _this$ = ecx

; 382  : {

  00000	57		 push	 edi
  00001	8b f9		 mov	 edi, ecx

; 383  :     int t;
; 384  :     factor();

  00003	e8 00 00 00 00	 call	 ?factor@CPoly@@IAEXXZ	; CPoly::factor

; 385  :     while (!ErrorOccur)

  00008	80 7f 20 00	 cmp	 BYTE PTR [edi+32], 0
  0000c	75 34		 jne	 SHORT $LN16@term
  0000e	56		 push	 esi
  0000f	90		 npad	 1
$LL2@term:

; 386  :     {
; 387  : 	switch (iLookAhead)

  00010	8b 77 18	 mov	 esi, DWORD PTR [edi+24]
  00013	83 fe 25	 cmp	 esi, 37			; 00000025H
  00016	74 0a		 je	 SHORT $LN6@term
  00018	83 fe 2a	 cmp	 esi, 42			; 0000002aH
  0001b	74 05		 je	 SHORT $LN6@term
  0001d	83 fe 2f	 cmp	 esi, 47			; 0000002fH
  00020	75 1f		 jne	 SHORT $LN17@term
$LN6@term:

; 388  : 	{
; 389  : 	    case '*':
; 390  : 	    case '/':
; 391  : 	    case '%':
; 392  : 		t=iLookAhead;
; 393  : 		match(t);

  00022	56		 push	 esi
  00023	8b cf		 mov	 ecx, edi
  00025	e8 00 00 00 00	 call	 ?match@CPoly@@IAEXH@Z	; CPoly::match

; 394  : 		factor();

  0002a	8b cf		 mov	 ecx, edi
  0002c	e8 00 00 00 00	 call	 ?factor@CPoly@@IAEXXZ	; CPoly::factor

; 395  : 		emit(t,POLY_NONE);

  00031	6a 00		 push	 0
  00033	56		 push	 esi
  00034	8b cf		 mov	 ecx, edi
  00036	e8 00 00 00 00	 call	 ?emit@CPoly@@IAEXHH@Z	; CPoly::emit
  0003b	80 7f 20 00	 cmp	 BYTE PTR [edi+32], 0
  0003f	74 cf		 je	 SHORT $LL2@term
$LN17@term:
  00041	5e		 pop	 esi
$LN16@term:
  00042	5f		 pop	 edi

; 396  : 		continue;
; 397  : 	    default:
; 398  : 		return;
; 399  : 	}
; 400  :     }
; 401  : }

  00043	c3		 ret	 0
?term@CPoly@@IAEXXZ ENDP				; CPoly::term
_TEXT	ENDS
; Function compile flags: /Ogtp
; File C:\Users\murat\Desktop\Siveps2-1-99-Project\source\client\Client\EterBase\poly\Poly.cpp
;	COMDAT ?factor@CPoly@@IAEXXZ
_TEXT	SEGMENT
?factor@CPoly@@IAEXXZ PROC				; CPoly::factor, COMDAT
; _this$ = ecx

; 404  : {

  00000	56		 push	 esi
  00001	8b f1		 mov	 esi, ecx

; 405  :     int t;
; 406  :     expo();

  00003	e8 00 00 00 00	 call	 ?expo@CPoly@@IAEXXZ	; CPoly::expo

; 407  :     while (!ErrorOccur)

  00008	80 7e 20 00	 cmp	 BYTE PTR [esi+32], 0
  0000c	75 29		 jne	 SHORT $LN14@factor
  0000e	66 90		 npad	 2
$LL2@factor:

; 408  :     {
; 409  : 	switch (iLookAhead)

  00010	83 7e 18 5e	 cmp	 DWORD PTR [esi+24], 94	; 0000005eH
  00014	75 21		 jne	 SHORT $LN14@factor

; 410  : 	{
; 411  : 	    case '^':
; 412  : 		t=iLookAhead;
; 413  : 		match(t);

  00016	6a 5e		 push	 94			; 0000005eH
  00018	8b ce		 mov	 ecx, esi
  0001a	e8 00 00 00 00	 call	 ?match@CPoly@@IAEXH@Z	; CPoly::match

; 414  : 		expo();

  0001f	8b ce		 mov	 ecx, esi
  00021	e8 00 00 00 00	 call	 ?expo@CPoly@@IAEXXZ	; CPoly::expo

; 415  : 		emit(t,POLY_NONE);

  00026	6a 00		 push	 0
  00028	6a 5e		 push	 94			; 0000005eH
  0002a	8b ce		 mov	 ecx, esi
  0002c	e8 00 00 00 00	 call	 ?emit@CPoly@@IAEXHH@Z	; CPoly::emit
  00031	80 7e 20 00	 cmp	 BYTE PTR [esi+32], 0
  00035	74 d9		 je	 SHORT $LL2@factor
$LN14@factor:
  00037	5e		 pop	 esi

; 416  : 		continue;
; 417  : 	    default:
; 418  : 		return;
; 419  : 	}
; 420  :     }
; 421  : }

  00038	c3		 ret	 0
?factor@CPoly@@IAEXXZ ENDP				; CPoly::factor
_TEXT	ENDS
; Function compile flags: /Ogtp
; File C:\Users\murat\Desktop\Siveps2-1-99-Project\source\client\Client\EterBase\poly\Poly.cpp
;	COMDAT ?expo@CPoly@@IAEXXZ
_TEXT	SEGMENT
?expo@CPoly@@IAEXXZ PROC				; CPoly::expo, COMDAT
; _this$ = ecx

; 424  : {

  00000	56		 push	 esi
  00001	8b f1		 mov	 esi, ecx
  00003	57		 push	 edi

; 425  :     int t;
; 426  :     switch (iLookAhead)

  00004	8b 7e 18	 mov	 edi, DWORD PTR [esi+24]
  00007	8d 47 ff	 lea	 eax, DWORD PTR [edi-1]
  0000a	83 f8 27	 cmp	 eax, 39			; 00000027H
  0000d	0f 87 9b 00 00
	00		 ja	 $LN25@expo
  00013	0f b6 80 00 00
	00 00		 movzx	 eax, BYTE PTR $LN27@expo[eax]
  0001a	ff 24 85 00 00
	00 00		 jmp	 DWORD PTR $LN28@expo[eax*4]
$LN4@expo:

; 427  :     {
; 428  : 	case '(':
; 429  : 	    match('('); expr(); match(')'); break;

  00021	6a 28		 push	 40			; 00000028H
  00023	e8 00 00 00 00	 call	 ?match@CPoly@@IAEXH@Z	; CPoly::match
  00028	8b ce		 mov	 ecx, esi
  0002a	e8 00 00 00 00	 call	 ?expr@CPoly@@IAEXXZ	; CPoly::expr
  0002f	6a 29		 push	 41			; 00000029H

; 457  : 	case POLY_EOS:
; 458  : 	    break;
; 459  : 	default:
; 460  : 	    error();
; 461  : 	    //THROW( new CParseException("Error Parsing"));
; 462  :     }
; 463  : }

  00031	8b ce		 mov	 ecx, esi
  00033	e8 00 00 00 00	 call	 ?match@CPoly@@IAEXH@Z	; CPoly::match
$LN2@expo:
  00038	5f		 pop	 edi
  00039	5e		 pop	 esi
  0003a	c3		 ret	 0
$LN5@expo:

; 430  : 	case POLY_NUM:
; 431  : 	    emit(POLY_NUM, iToken); match(POLY_NUM); break;

  0003b	ff 76 08	 push	 DWORD PTR [esi+8]
  0003e	6a 09		 push	 9
  00040	e8 00 00 00 00	 call	 ?emit@CPoly@@IAEXHH@Z	; CPoly::emit
  00045	6a 09		 push	 9

; 457  : 	case POLY_EOS:
; 458  : 	    break;
; 459  : 	default:
; 460  : 	    error();
; 461  : 	    //THROW( new CParseException("Error Parsing"));
; 462  :     }
; 463  : }

  00047	8b ce		 mov	 ecx, esi
  00049	e8 00 00 00 00	 call	 ?match@CPoly@@IAEXH@Z	; CPoly::match
  0004e	5f		 pop	 edi
  0004f	5e		 pop	 esi
  00050	c3		 ret	 0
$LN6@expo:

; 432  : 	case POLY_ID:
; 433  : 	    emit(POLY_ID,(int)/*FindIndex*/(iToken)); match(POLY_ID); break;

  00051	ff 76 08	 push	 DWORD PTR [esi+8]
  00054	6a 0a		 push	 10			; 0000000aH
  00056	e8 00 00 00 00	 call	 ?emit@CPoly@@IAEXHH@Z	; CPoly::emit
  0005b	6a 0a		 push	 10			; 0000000aH

; 457  : 	case POLY_EOS:
; 458  : 	    break;
; 459  : 	default:
; 460  : 	    error();
; 461  : 	    //THROW( new CParseException("Error Parsing"));
; 462  :     }
; 463  : }

  0005d	8b ce		 mov	 ecx, esi
  0005f	e8 00 00 00 00	 call	 ?match@CPoly@@IAEXH@Z	; CPoly::match
  00064	5f		 pop	 edi
  00065	5e		 pop	 esi
  00066	c3		 ret	 0
$LN7@expo:

; 434  : 	case POLY_ROOT:
; 435  : 	case POLY_SIN:
; 436  : 	case POLY_COT:
; 437  : 	case POLY_TAN:
; 438  : 	case POLY_CSC:
; 439  : 	case POLY_SEC:
; 440  : 	case POLY_LN:
; 441  : 	case POLY_LOG10:
; 442  : 	case POLY_COS:
; 443  : 	case POLY_ABS:
; 444  : 	case POLY_FLOOR:
; 445  : 	    t=iLookAhead;
; 446  : 	    match(iLookAhead); match('('); expr(); match(')'); emit(t,iToken);

  00067	57		 push	 edi
  00068	e8 00 00 00 00	 call	 ?match@CPoly@@IAEXH@Z	; CPoly::match
  0006d	6a 28		 push	 40			; 00000028H
$LN31@expo:

; 457  : 	case POLY_EOS:
; 458  : 	    break;
; 459  : 	default:
; 460  : 	    error();
; 461  : 	    //THROW( new CParseException("Error Parsing"));
; 462  :     }
; 463  : }

  0006f	8b ce		 mov	 ecx, esi
  00071	e8 00 00 00 00	 call	 ?match@CPoly@@IAEXH@Z	; CPoly::match
  00076	8b ce		 mov	 ecx, esi
  00078	e8 00 00 00 00	 call	 ?expr@CPoly@@IAEXXZ	; CPoly::expr
  0007d	6a 29		 push	 41			; 00000029H
  0007f	8b ce		 mov	 ecx, esi
  00081	e8 00 00 00 00	 call	 ?match@CPoly@@IAEXH@Z	; CPoly::match
  00086	ff 76 08	 push	 DWORD PTR [esi+8]
  00089	8b ce		 mov	 ecx, esi
  0008b	57		 push	 edi
  0008c	e8 00 00 00 00	 call	 ?emit@CPoly@@IAEXHH@Z	; CPoly::emit
  00091	5f		 pop	 edi
  00092	5e		 pop	 esi
  00093	c3		 ret	 0
$LN18@expo:

; 447  : 	    break;
; 448  : 	case POLY_LOG:
; 449  : 	case POLY_MINF:
; 450  : 	case POLY_MAXF:
; 451  : 	case POLY_IRAND:
; 452  : 	case POLY_FRAND:
; 453  : 	case POLY_MOD:
; 454  : 	    t=iLookAhead;
; 455  : 	    match(iLookAhead); match('('); expr(); match(','); expr(); match(')'); emit(t,iToken);

  00094	57		 push	 edi
  00095	e8 00 00 00 00	 call	 ?match@CPoly@@IAEXH@Z	; CPoly::match
  0009a	6a 28		 push	 40			; 00000028H
  0009c	8b ce		 mov	 ecx, esi
  0009e	e8 00 00 00 00	 call	 ?match@CPoly@@IAEXH@Z	; CPoly::match
  000a3	8b ce		 mov	 ecx, esi
  000a5	e8 00 00 00 00	 call	 ?expr@CPoly@@IAEXXZ	; CPoly::expr
  000aa	6a 2c		 push	 44			; 0000002cH

; 456  : 	    break;

  000ac	eb c1		 jmp	 SHORT $LN31@expo
$LN25@expo:
  000ae	5f		 pop	 edi

; 457  : 	case POLY_EOS:
; 458  : 	    break;
; 459  : 	default:
; 460  : 	    error();
; 461  : 	    //THROW( new CParseException("Error Parsing"));
; 462  :     }
; 463  : }

  000af	5e		 pop	 esi
  000b0	e9 00 00 00 00	 jmp	 ?error@CPoly@@IAEXXZ	; CPoly::error
  000b5	0f 1f 00	 npad	 3
$LN28@expo:
  000b8	00 00 00 00	 DD	 $LN7@expo
  000bc	00 00 00 00	 DD	 $LN5@expo
  000c0	00 00 00 00	 DD	 $LN6@expo
  000c4	00 00 00 00	 DD	 $LN2@expo
  000c8	00 00 00 00	 DD	 $LN18@expo
  000cc	00 00 00 00	 DD	 $LN4@expo
  000d0	00 00 00 00	 DD	 $LN25@expo
$LN27@expo:
  000d4	00		 DB	 0
  000d5	06		 DB	 6
  000d6	06		 DB	 6
  000d7	06		 DB	 6
  000d8	06		 DB	 6
  000d9	06		 DB	 6
  000da	06		 DB	 6
  000db	06		 DB	 6
  000dc	01		 DB	 1
  000dd	02		 DB	 2
  000de	03		 DB	 3
  000df	00		 DB	 0
  000e0	00		 DB	 0
  000e1	00		 DB	 0
  000e2	00		 DB	 0
  000e3	00		 DB	 0
  000e4	00		 DB	 0
  000e5	04		 DB	 4
  000e6	00		 DB	 0
  000e7	00		 DB	 0
  000e8	00		 DB	 0
  000e9	04		 DB	 4
  000ea	04		 DB	 4
  000eb	04		 DB	 4
  000ec	04		 DB	 4
  000ed	04		 DB	 4
  000ee	00		 DB	 0
  000ef	06		 DB	 6
  000f0	06		 DB	 6
  000f1	06		 DB	 6
  000f2	06		 DB	 6
  000f3	06		 DB	 6
  000f4	06		 DB	 6
  000f5	06		 DB	 6
  000f6	06		 DB	 6
  000f7	06		 DB	 6
  000f8	06		 DB	 6
  000f9	06		 DB	 6
  000fa	06		 DB	 6
  000fb	05		 DB	 5
?expo@CPoly@@IAEXXZ ENDP				; CPoly::expo
_TEXT	ENDS
; Function compile flags: /Ogtp
; File C:\Users\murat\Desktop\Siveps2-1-99-Project\source\client\Client\EterBase\poly\Poly.cpp
;	COMDAT ?match@CPoly@@IAEXH@Z
_TEXT	SEGMENT
_t$ = 8							; size = 4
?match@CPoly@@IAEXH@Z PROC				; CPoly::match, COMDAT
; _this$ = ecx

; 466  : {

  00000	55		 push	 ebp
  00001	8b ec		 mov	 ebp, esp
  00003	56		 push	 esi
  00004	8b f1		 mov	 esi, ecx

; 467  :     if (iLookAhead==t) iLookAhead=lexan(); else error();

  00006	8b 46 18	 mov	 eax, DWORD PTR [esi+24]
  00009	3b 45 08	 cmp	 eax, DWORD PTR _t$[ebp]
  0000c	75 0d		 jne	 SHORT $LN2@match
  0000e	e8 00 00 00 00	 call	 ?lexan@CPoly@@IAEHXZ	; CPoly::lexan
  00013	89 46 18	 mov	 DWORD PTR [esi+24], eax
  00016	5e		 pop	 esi

; 468  : }

  00017	5d		 pop	 ebp
  00018	c2 04 00	 ret	 4
$LN2@match:

; 467  :     if (iLookAhead==t) iLookAhead=lexan(); else error();

  0001b	e8 00 00 00 00	 call	 ?error@CPoly@@IAEXXZ	; CPoly::error
  00020	5e		 pop	 esi

; 468  : }

  00021	5d		 pop	 ebp
  00022	c2 04 00	 ret	 4
?match@CPoly@@IAEXH@Z ENDP				; CPoly::match
_TEXT	ENDS
; Function compile flags: /Ogtp
; File C:\Users\murat\Desktop\Siveps2-1-99-Project\source\client\Client\EterBase\poly\Poly.cpp
; File C:\Program Files (x86)\Microsoft Visual Studio\2019\Professional\VC\Tools\MSVC\14.29.30133\include\vector
; File C:\Users\murat\Desktop\Siveps2-1-99-Project\source\client\Client\EterBase\poly\Poly.cpp
; File C:\Program Files (x86)\Microsoft Visual Studio\2019\Professional\VC\Tools\MSVC\14.29.30133\include\vector
; File C:\Users\murat\Desktop\Siveps2-1-99-Project\source\client\Client\EterBase\poly\Poly.cpp
; File C:\Program Files (x86)\Microsoft Visual Studio\2019\Professional\VC\Tools\MSVC\14.29.30133\include\vector
; File C:\Users\murat\Desktop\Siveps2-1-99-Project\source\client\Client\EterBase\poly\Poly.cpp
; File C:\Program Files (x86)\Microsoft Visual Studio\2019\Professional\VC\Tools\MSVC\14.29.30133\include\vector
; File C:\Users\murat\Desktop\Siveps2-1-99-Project\source\client\Client\EterBase\poly\Poly.cpp
; File C:\Program Files (x86)\Microsoft Visual Studio\2019\Professional\VC\Tools\MSVC\14.29.30133\include\vector
; File C:\Program Files (x86)\Microsoft Visual Studio\2019\Professional\VC\Tools\MSVC\14.29.30133\include\xmemory
; File C:\Program Files (x86)\Microsoft Visual Studio\2019\Professional\VC\Tools\MSVC\14.29.30133\include\vector
; File C:\Users\murat\Desktop\Siveps2-1-99-Project\source\client\Client\EterBase\poly\Poly.cpp
; File C:\Program Files (x86)\Microsoft Visual Studio\2019\Professional\VC\Tools\MSVC\14.29.30133\include\vector
; File C:\Users\murat\Desktop\Siveps2-1-99-Project\source\client\Client\EterBase\poly\Poly.cpp
; File C:\Program Files (x86)\Microsoft Visual Studio\2019\Professional\VC\Tools\MSVC\14.29.30133\include\vector
; File C:\Users\murat\Desktop\Siveps2-1-99-Project\source\client\Client\EterBase\poly\Poly.cpp
;	COMDAT ?emit@CPoly@@IAEXHH@Z
_TEXT	SEGMENT
$T1 = 8							; size = 4
$T2 = 8							; size = 4
$T3 = 8							; size = 4
$T4 = 8							; size = 4
$T5 = 8							; size = 4
$T6 = 8							; size = 4
_t$ = 8							; size = 4
_tval$ = 12						; size = 4
?emit@CPoly@@IAEXHH@Z PROC				; CPoly::emit, COMDAT
; _this$ = ecx

; 471  : {

  00000	55		 push	 ebp
  00001	8b ec		 mov	 ebp, esp

; 472  :     switch (t)

  00003	8b 55 08	 mov	 edx, DWORD PTR _t$[ebp]
  00006	56		 push	 esi
  00007	8b f1		 mov	 esi, ecx
  00009	8d 42 ff	 lea	 eax, DWORD PTR [edx-1]
  0000c	83 f8 5d	 cmp	 eax, 93			; 0000005dH
  0000f	0f 87 1a 01 00
	00		 ja	 $LN29@emit
  00015	0f b6 80 00 00
	00 00		 movzx	 eax, BYTE PTR $LN47@emit[eax]
  0001c	ff 24 85 00 00
	00 00		 jmp	 DWORD PTR $LN48@emit[eax*4]
$LN4@emit:

; 473  :     {
; 474  : 	case '+':
; 475  : 	    tokenBase.push_back(POLY_PLU);

  00023	8d 45 08	 lea	 eax, DWORD PTR $T6[ebp]
  00026	c7 45 08 03 00
	00 00		 mov	 DWORD PTR $T6[ebp], 3
  0002d	50		 push	 eax
  0002e	8d 4e 28	 lea	 ecx, DWORD PTR [esi+40]
  00031	e8 00 00 00 00	 call	 ?push_back@?$vector@HV?$allocator@H@std@@@std@@QAEX$$QAH@Z ; std::vector<int,std::allocator<int> >::push_back
  00036	5e		 pop	 esi

; 524  : }

  00037	5d		 pop	 ebp
  00038	c2 08 00	 ret	 8
$LN5@emit:

; 476  : 	    break;
; 477  : 	case '-':
; 478  : 	    tokenBase.push_back(POLY_MIN);

  0003b	8d 45 08	 lea	 eax, DWORD PTR $T5[ebp]
  0003e	c7 45 08 05 00
	00 00		 mov	 DWORD PTR $T5[ebp], 5
  00045	50		 push	 eax
  00046	8d 4e 28	 lea	 ecx, DWORD PTR [esi+40]
  00049	e8 00 00 00 00	 call	 ?push_back@?$vector@HV?$allocator@H@std@@@std@@QAEX$$QAH@Z ; std::vector<int,std::allocator<int> >::push_back
  0004e	5e		 pop	 esi

; 524  : }

  0004f	5d		 pop	 ebp
  00050	c2 08 00	 ret	 8
$LN6@emit:

; 479  : 	    break;
; 480  : 	case '*':
; 481  : 	    tokenBase.push_back(POLY_MUL);

  00053	8d 45 08	 lea	 eax, DWORD PTR $T4[ebp]
  00056	c7 45 08 02 00
	00 00		 mov	 DWORD PTR $T4[ebp], 2
  0005d	50		 push	 eax
  0005e	8d 4e 28	 lea	 ecx, DWORD PTR [esi+40]
  00061	e8 00 00 00 00	 call	 ?push_back@?$vector@HV?$allocator@H@std@@@std@@QAEX$$QAH@Z ; std::vector<int,std::allocator<int> >::push_back
  00066	5e		 pop	 esi

; 524  : }

  00067	5d		 pop	 ebp
  00068	c2 08 00	 ret	 8
$LN7@emit:

; 482  : 	    break;
; 483  : 	case '/':
; 484  : 	    tokenBase.push_back(POLY_DIV);

  0006b	8d 45 08	 lea	 eax, DWORD PTR $T3[ebp]
  0006e	c7 45 08 06 00
	00 00		 mov	 DWORD PTR $T3[ebp], 6
  00075	50		 push	 eax
  00076	8d 4e 28	 lea	 ecx, DWORD PTR [esi+40]
  00079	e8 00 00 00 00	 call	 ?push_back@?$vector@HV?$allocator@H@std@@@std@@QAEX$$QAH@Z ; std::vector<int,std::allocator<int> >::push_back
  0007e	5e		 pop	 esi

; 524  : }

  0007f	5d		 pop	 ebp
  00080	c2 08 00	 ret	 8
$LN8@emit:

; 485  : 	    break;
; 486  : 	case '%':
; 487  : 	    tokenBase.push_back(POLY_MOD);

  00083	8d 45 08	 lea	 eax, DWORD PTR $T2[ebp]
  00086	c7 45 08 1a 00
	00 00		 mov	 DWORD PTR $T2[ebp], 26	; 0000001aH
  0008d	50		 push	 eax
  0008e	8d 4e 28	 lea	 ecx, DWORD PTR [esi+40]
  00091	e8 00 00 00 00	 call	 ?push_back@?$vector@HV?$allocator@H@std@@@std@@QAEX$$QAH@Z ; std::vector<int,std::allocator<int> >::push_back
  00096	5e		 pop	 esi

; 524  : }

  00097	5d		 pop	 ebp
  00098	c2 08 00	 ret	 8
$LN9@emit:

; 488  : 	    break;
; 489  : 	case '^':
; 490  : 	    tokenBase.push_back(POLY_POW);

  0009b	8d 45 08	 lea	 eax, DWORD PTR $T1[ebp]
  0009e	c7 45 08 04 00
	00 00		 mov	 DWORD PTR $T1[ebp], 4
  000a5	50		 push	 eax
  000a6	8d 4e 28	 lea	 ecx, DWORD PTR [esi+40]
  000a9	e8 00 00 00 00	 call	 ?push_back@?$vector@HV?$allocator@H@std@@@std@@QAEX$$QAH@Z ; std::vector<int,std::allocator<int> >::push_back
  000ae	5e		 pop	 esi

; 524  : }

  000af	5d		 pop	 ebp
  000b0	c2 08 00	 ret	 8
$LN10@emit:
; File C:\Program Files (x86)\Microsoft Visual Studio\2019\Professional\VC\Tools\MSVC\14.29.30133\include\vector

; 743  :         if (_Mylast != _My_data._Myend) {

  000b3	8b 46 2c	 mov	 eax, DWORD PTR [esi+44]
; File C:\Users\murat\Desktop\Siveps2-1-99-Project\source\client\Client\EterBase\poly\Poly.cpp

; 509  : 	    tokenBase.push_back(t);

  000b6	8d 4e 28	 lea	 ecx, DWORD PTR [esi+40]
; File C:\Program Files (x86)\Microsoft Visual Studio\2019\Professional\VC\Tools\MSVC\14.29.30133\include\vector

; 743  :         if (_Mylast != _My_data._Myend) {

  000b9	3b 41 08	 cmp	 eax, DWORD PTR [ecx+8]
  000bc	74 0b		 je	 SHORT $LN34@emit

; 726  :         _Alty_traits::construct(_Getal(), _Unfancy(_Mylast), _STD forward<_Valty>(_Val)...);

  000be	89 10		 mov	 DWORD PTR [eax], edx

; 729  :         ++_Mylast;

  000c0	83 41 04 04	 add	 DWORD PTR [ecx+4], 4
  000c4	5e		 pop	 esi
; File C:\Users\murat\Desktop\Siveps2-1-99-Project\source\client\Client\EterBase\poly\Poly.cpp

; 524  : }

  000c5	5d		 pop	 ebp
  000c6	c2 08 00	 ret	 8
$LN34@emit:
; File C:\Program Files (x86)\Microsoft Visual Studio\2019\Professional\VC\Tools\MSVC\14.29.30133\include\vector

; 747  :         _Ty& _Result = *_Emplace_reallocate(_Mylast, _STD forward<_Valty>(_Val)...);

  000c9	8d 55 08	 lea	 edx, DWORD PTR _t$[ebp]
  000cc	52		 push	 edx
  000cd	50		 push	 eax
  000ce	e8 00 00 00 00	 call	 ??$_Emplace_reallocate@ABH@?$vector@HV?$allocator@H@std@@@std@@QAEPAHQAHABH@Z ; std::vector<int,std::allocator<int> >::_Emplace_reallocate<int const &>
  000d3	5e		 pop	 esi
; File C:\Users\murat\Desktop\Siveps2-1-99-Project\source\client\Client\EterBase\poly\Poly.cpp

; 524  : }

  000d4	5d		 pop	 ebp
  000d5	c2 08 00	 ret	 8
$LN27@emit:

; 510  : 	    break;
; 511  : 	case POLY_NUM:
; 512  : 	    tokenBase.push_back(t);

  000d8	8d 45 08	 lea	 eax, DWORD PTR _t$[ebp]
  000db	50		 push	 eax
  000dc	8d 4e 28	 lea	 ecx, DWORD PTR [esi+40]
  000df	e8 00 00 00 00	 call	 ?push_back@?$vector@HV?$allocator@H@std@@@std@@QAEXABH@Z ; std::vector<int,std::allocator<int> >::push_back
; File C:\Program Files (x86)\Microsoft Visual Studio\2019\Professional\VC\Tools\MSVC\14.29.30133\include\vector

; 743  :         if (_Mylast != _My_data._Myend) {

  000e4	8b 46 38	 mov	 eax, DWORD PTR [esi+56]
; File C:\Users\murat\Desktop\Siveps2-1-99-Project\source\client\Client\EterBase\poly\Poly.cpp

; 513  : 	    numBase.push_back(iNumToken);

  000e7	8d 4e 34	 lea	 ecx, DWORD PTR [esi+52]
  000ea	8d 56 10	 lea	 edx, DWORD PTR [esi+16]
; File C:\Program Files (x86)\Microsoft Visual Studio\2019\Professional\VC\Tools\MSVC\14.29.30133\include\vector

; 743  :         if (_Mylast != _My_data._Myend) {

  000ed	3b 41 08	 cmp	 eax, DWORD PTR [ecx+8]
  000f0	74 13		 je	 SHORT $LN41@emit
; File C:\Program Files (x86)\Microsoft Visual Studio\2019\Professional\VC\Tools\MSVC\14.29.30133\include\xmemory

; 714  :             ::new (_Voidify_iter(_Ptr)) _Objty(_STD forward<_Types>(_Args)...);

  000f2	f2 0f 10 02	 movsd	 xmm0, QWORD PTR [edx]
  000f6	f2 0f 11 00	 movsd	 QWORD PTR [eax], xmm0
; File C:\Program Files (x86)\Microsoft Visual Studio\2019\Professional\VC\Tools\MSVC\14.29.30133\include\vector

; 729  :         ++_Mylast;

  000fa	83 c0 08	 add	 eax, 8
  000fd	89 41 04	 mov	 DWORD PTR [ecx+4], eax
  00100	5e		 pop	 esi
; File C:\Users\murat\Desktop\Siveps2-1-99-Project\source\client\Client\EterBase\poly\Poly.cpp

; 524  : }

  00101	5d		 pop	 ebp
  00102	c2 08 00	 ret	 8
$LN41@emit:
  00105	5e		 pop	 esi
; File C:\Program Files (x86)\Microsoft Visual Studio\2019\Professional\VC\Tools\MSVC\14.29.30133\include\vector

; 747  :         _Ty& _Result = *_Emplace_reallocate(_Mylast, _STD forward<_Valty>(_Val)...);

  00106	89 55 0c	 mov	 DWORD PTR _tval$[ebp], edx
  00109	89 45 08	 mov	 DWORD PTR _t$[ebp], eax
; File C:\Users\murat\Desktop\Siveps2-1-99-Project\source\client\Client\EterBase\poly\Poly.cpp

; 524  : }

  0010c	5d		 pop	 ebp
; File C:\Program Files (x86)\Microsoft Visual Studio\2019\Professional\VC\Tools\MSVC\14.29.30133\include\vector

; 747  :         _Ty& _Result = *_Emplace_reallocate(_Mylast, _STD forward<_Valty>(_Val)...);

  0010d	e9 00 00 00 00	 jmp	 ??$_Emplace_reallocate@ABN@?$vector@NV?$allocator@N@std@@@std@@QAEPANQANABN@Z ; std::vector<double,std::allocator<double> >::_Emplace_reallocate<double const &>
$LN28@emit:
; File C:\Users\murat\Desktop\Siveps2-1-99-Project\source\client\Client\EterBase\poly\Poly.cpp

; 516  : 	    tokenBase.push_back(t);

  00112	8d 45 08	 lea	 eax, DWORD PTR _t$[ebp]
  00115	50		 push	 eax
  00116	8d 4e 28	 lea	 ecx, DWORD PTR [esi+40]
  00119	e8 00 00 00 00	 call	 ?push_back@?$vector@HV?$allocator@H@std@@@std@@QAEXABH@Z ; std::vector<int,std::allocator<int> >::push_back

; 517  : 	    tokenBase.push_back(tval); break;

  0011e	8d 45 0c	 lea	 eax, DWORD PTR _tval$[ebp]
  00121	50		 push	 eax
  00122	8d 4e 28	 lea	 ecx, DWORD PTR [esi+40]
  00125	e8 00 00 00 00	 call	 ?push_back@?$vector@HV?$allocator@H@std@@@std@@QAEXABH@Z ; std::vector<int,std::allocator<int> >::push_back
  0012a	5e		 pop	 esi

; 524  : }

  0012b	5d		 pop	 ebp
  0012c	c2 08 00	 ret	 8
$LN29@emit:

; 518  : 	default:
; 519  : 	    error();

  0012f	e8 00 00 00 00	 call	 ?error@CPoly@@IAEXXZ	; CPoly::error

; 520  : 	    Clear();

  00134	8b ce		 mov	 ecx, esi
  00136	e8 00 00 00 00	 call	 ?Clear@CPoly@@QAEXXZ	; CPoly::Clear
  0013b	5e		 pop	 esi

; 524  : }

  0013c	5d		 pop	 ebp
  0013d	c2 08 00	 ret	 8
$LN48@emit:
  00140	00 00 00 00	 DD	 $LN10@emit
  00144	00 00 00 00	 DD	 $LN27@emit
  00148	00 00 00 00	 DD	 $LN28@emit
  0014c	00 00 00 00	 DD	 $LN8@emit
  00150	00 00 00 00	 DD	 $LN6@emit
  00154	00 00 00 00	 DD	 $LN4@emit
  00158	00 00 00 00	 DD	 $LN5@emit
  0015c	00 00 00 00	 DD	 $LN7@emit
  00160	00 00 00 00	 DD	 $LN9@emit
  00164	00 00 00 00	 DD	 $LN29@emit
$LN47@emit:
  00168	00		 DB	 0
  00169	09		 DB	 9
  0016a	09		 DB	 9
  0016b	09		 DB	 9
  0016c	09		 DB	 9
  0016d	09		 DB	 9
  0016e	09		 DB	 9
  0016f	09		 DB	 9
  00170	01		 DB	 1
  00171	02		 DB	 2
  00172	09		 DB	 9
  00173	00		 DB	 0
  00174	00		 DB	 0
  00175	00		 DB	 0
  00176	00		 DB	 0
  00177	00		 DB	 0
  00178	00		 DB	 0
  00179	00		 DB	 0
  0017a	00		 DB	 0
  0017b	00		 DB	 0
  0017c	00		 DB	 0
  0017d	00		 DB	 0
  0017e	00		 DB	 0
  0017f	00		 DB	 0
  00180	00		 DB	 0
  00181	00		 DB	 0
  00182	00		 DB	 0
  00183	09		 DB	 9
  00184	09		 DB	 9
  00185	09		 DB	 9
  00186	09		 DB	 9
  00187	09		 DB	 9
  00188	09		 DB	 9
  00189	09		 DB	 9
  0018a	09		 DB	 9
  0018b	09		 DB	 9
  0018c	03		 DB	 3
  0018d	09		 DB	 9
  0018e	09		 DB	 9
  0018f	09		 DB	 9
  00190	09		 DB	 9
  00191	04		 DB	 4
  00192	05		 DB	 5
  00193	09		 DB	 9
  00194	06		 DB	 6
  00195	09		 DB	 9
  00196	07		 DB	 7
  00197	09		 DB	 9
  00198	09		 DB	 9
  00199	09		 DB	 9
  0019a	09		 DB	 9
  0019b	09		 DB	 9
  0019c	09		 DB	 9
  0019d	09		 DB	 9
  0019e	09		 DB	 9
  0019f	09		 DB	 9
  001a0	09		 DB	 9
  001a1	09		 DB	 9
  001a2	09		 DB	 9
  001a3	09		 DB	 9
  001a4	09		 DB	 9
  001a5	09		 DB	 9
  001a6	09		 DB	 9
  001a7	09		 DB	 9
  001a8	09		 DB	 9
  001a9	09		 DB	 9
  001aa	09		 DB	 9
  001ab	09		 DB	 9
  001ac	09		 DB	 9
  001ad	09		 DB	 9
  001ae	09		 DB	 9
  001af	09		 DB	 9
  001b0	09		 DB	 9
  001b1	09		 DB	 9
  001b2	09		 DB	 9
  001b3	09		 DB	 9
  001b4	09		 DB	 9
  001b5	09		 DB	 9
  001b6	09		 DB	 9
  001b7	09		 DB	 9
  001b8	09		 DB	 9
  001b9	09		 DB	 9
  001ba	09		 DB	 9
  001bb	09		 DB	 9
  001bc	09		 DB	 9
  001bd	09		 DB	 9
  001be	09		 DB	 9
  001bf	09		 DB	 9
  001c0	09		 DB	 9
  001c1	09		 DB	 9
  001c2	09		 DB	 9
  001c3	09		 DB	 9
  001c4	09		 DB	 9
  001c5	08		 DB	 8
?emit@CPoly@@IAEXHH@Z ENDP				; CPoly::emit
_TEXT	ENDS
; Function compile flags: /Ogtp
; File C:\Users\murat\Desktop\Siveps2-1-99-Project\source\client\Client\EterBase\poly\Poly.cpp
; File C:\Program Files (x86)\Microsoft Visual Studio\2019\Professional\VC\Tools\MSVC\14.29.30133\include\vector
; File C:\Users\murat\Desktop\Siveps2-1-99-Project\source\client\Client\EterBase\poly\Poly.cpp
; File C:\Program Files (x86)\Microsoft Visual Studio\2019\Professional\VC\Tools\MSVC\14.29.30133\include\xstring
; File C:\Users\murat\Desktop\Siveps2-1-99-Project\source\client\Client\EterBase\poly\Poly.cpp
; File C:\Program Files (x86)\Microsoft Visual Studio\2019\Professional\VC\Tools\MSVC\14.29.30133\include\vector
; File C:\Users\murat\Desktop\Siveps2-1-99-Project\source\client\Client\EterBase\poly\Poly.cpp
; File C:\Program Files (x86)\Microsoft Visual Studio\2019\Professional\VC\Tools\MSVC\14.29.30133\include\xstring
; File C:\Users\murat\Desktop\Siveps2-1-99-Project\source\client\Client\EterBase\poly\Poly.cpp
;	COMDAT ?find@CPoly@@IAEHABV?$basic_string@DU?$char_traits@D@std@@V?$allocator@D@2@@std@@@Z
_TEXT	SEGMENT
tv433 = -20						; size = 4
$T1 = -16						; size = 4
$T2 = -12						; size = 4
_m$1$ = -8						; size = 4
_l$1$ = -4						; size = 4
_s$ = 8							; size = 4
?find@CPoly@@IAEHABV?$basic_string@DU?$char_traits@D@std@@V?$allocator@D@2@@std@@@Z PROC ; CPoly::find, COMDAT
; _this$ = ecx

; 527  : {

  00000	55		 push	 ebp
  00001	8b ec		 mov	 ebp, esp
  00003	83 ec 14	 sub	 esp, 20			; 00000014H
  00006	53		 push	 ebx

; 528  :     int l, m, r;
; 529  : 
; 530  :     l = 0;
; 531  :     r = STSize - 1;

  00007	8b 59 58	 mov	 ebx, DWORD PTR [ecx+88]
  0000a	33 c0		 xor	 eax, eax
  0000c	83 eb 01	 sub	 ebx, 1
  0000f	89 45 fc	 mov	 DWORD PTR _l$1$[ebp], eax
  00012	56		 push	 esi
  00013	57		 push	 edi

; 532  : 
; 533  :     while (l <= r)

  00014	0f 88 d5 00 00
	00		 js	 $LN3@find
; File C:\Program Files (x86)\Microsoft Visual Studio\2019\Professional\VC\Tools\MSVC\14.29.30133\include\vector

; 1569 :         return _My_data._Myfirst[_Pos];

  0001a	8b 71 4c	 mov	 esi, DWORD PTR [ecx+76]
  0001d	8b 79 40	 mov	 edi, DWORD PTR [ecx+64]
  00020	89 75 f4	 mov	 DWORD PTR $T2[ebp], esi
  00023	89 7d f0	 mov	 DWORD PTR $T1[ebp], edi
$LN52@find:
; File C:\Users\murat\Desktop\Siveps2-1-99-Project\source\client\Client\EterBase\poly\Poly.cpp

; 535  : 	m = (l + r) >> 1;

  00026	8b 4d 08	 mov	 ecx, DWORD PTR _s$[ebp]
  00029	03 c3		 add	 eax, ebx
  0002b	d1 f8		 sar	 eax, 1
; File C:\Program Files (x86)\Microsoft Visual Studio\2019\Professional\VC\Tools\MSVC\14.29.30133\include\xstring

; 2305 :         const value_type* _Result = _Bx._Buf;

  0002d	8b d1		 mov	 edx, ecx
; File C:\Users\murat\Desktop\Siveps2-1-99-Project\source\client\Client\EterBase\poly\Poly.cpp

; 535  : 	m = (l + r) >> 1;

  0002f	89 45 f8	 mov	 DWORD PTR _m$1$[ebp], eax
; File C:\Program Files (x86)\Microsoft Visual Studio\2019\Professional\VC\Tools\MSVC\14.29.30133\include\vector

; 1569 :         return _My_data._Myfirst[_Pos];

  00032	8b 04 86	 mov	 eax, DWORD PTR [esi+eax*4]
  00035	89 45 ec	 mov	 DWORD PTR tv433[ebp], eax
; File C:\Users\murat\Desktop\Siveps2-1-99-Project\source\client\Client\EterBase\poly\Poly.cpp

; 537  : 	if (lSymbol[SymbolIndex[m]]->strlex == s)

  00038	8b 3c 87	 mov	 edi, DWORD PTR [edi+eax*4]
  0003b	83 c7 14	 add	 edi, 20			; 00000014H
; File C:\Program Files (x86)\Microsoft Visual Studio\2019\Professional\VC\Tools\MSVC\14.29.30133\include\xstring

; 2319 :         return _BUF_SIZE <= _Myres;

  0003e	83 79 14 10	 cmp	 DWORD PTR [ecx+20], 16	; 00000010H

; 2306 :         if (_Large_string_engaged()) {

  00042	72 02		 jb	 SHORT $LN18@find

; 2307 :             _Result = _Unfancy(_Bx._Ptr);

  00044	8b 11		 mov	 edx, DWORD PTR [ecx]
$LN18@find:

; 2319 :         return _BUF_SIZE <= _Myres;

  00046	83 7f 14 10	 cmp	 DWORD PTR [edi+20], 16	; 00000010H

; 2305 :         const value_type* _Result = _Bx._Buf;

  0004a	8b c7		 mov	 eax, edi

; 2306 :         if (_Large_string_engaged()) {

  0004c	72 02		 jb	 SHORT $LN23@find

; 2307 :             _Result = _Unfancy(_Bx._Ptr);

  0004e	8b 07		 mov	 eax, DWORD PTR [edi]
$LN23@find:

; 4372 :         return _Traits_equal<_Traits>(_Mypair._Myval2._Myptr(), _Mypair._Myval2._Mysize,

  00050	8b 77 10	 mov	 esi, DWORD PTR [edi+16]

; 583  :     return _Left_size == _Right_size && _Traits::compare(_Left, _Right, _Left_size) == 0;

  00053	3b 71 10	 cmp	 esi, DWORD PTR [ecx+16]
  00056	75 5b		 jne	 SHORT $LN29@find

; 392  :         return _CSTD memcmp(_First1, _First2, _Count);

  00058	83 ee 04	 sub	 esi, 4
  0005b	72 14		 jb	 SHORT $LN48@find
  0005d	0f 1f 00	 npad	 3
$LL49@find:
  00060	8b 08		 mov	 ecx, DWORD PTR [eax]
  00062	3b 0a		 cmp	 ecx, DWORD PTR [edx]
  00064	75 10		 jne	 SHORT $LN47@find
  00066	83 c0 04	 add	 eax, 4
  00069	83 c2 04	 add	 edx, 4
  0006c	83 ee 04	 sub	 esi, 4
  0006f	73 ef		 jae	 SHORT $LL49@find
$LN48@find:
  00071	83 fe fc	 cmp	 esi, -4			; fffffffcH
  00074	74 34		 je	 SHORT $LN46@find
$LN47@find:
  00076	8a 08		 mov	 cl, BYTE PTR [eax]
  00078	3a 0a		 cmp	 cl, BYTE PTR [edx]
  0007a	75 27		 jne	 SHORT $LN50@find
  0007c	83 fe fd	 cmp	 esi, -3			; fffffffdH
  0007f	74 29		 je	 SHORT $LN46@find
  00081	8a 48 01	 mov	 cl, BYTE PTR [eax+1]
  00084	3a 4a 01	 cmp	 cl, BYTE PTR [edx+1]
  00087	75 1a		 jne	 SHORT $LN50@find
  00089	83 fe fe	 cmp	 esi, -2			; fffffffeH
  0008c	74 1c		 je	 SHORT $LN46@find
  0008e	8a 48 02	 mov	 cl, BYTE PTR [eax+2]
  00091	3a 4a 02	 cmp	 cl, BYTE PTR [edx+2]
  00094	75 0d		 jne	 SHORT $LN50@find
  00096	83 fe ff	 cmp	 esi, -1
  00099	74 0f		 je	 SHORT $LN46@find
  0009b	8a 40 03	 mov	 al, BYTE PTR [eax+3]
  0009e	3a 42 03	 cmp	 al, BYTE PTR [edx+3]
  000a1	74 07		 je	 SHORT $LN46@find
$LN50@find:
  000a3	1b c0		 sbb	 eax, eax
  000a5	83 c8 01	 or	 eax, 1
  000a8	eb 02		 jmp	 SHORT $LN51@find
$LN46@find:
  000aa	33 c0		 xor	 eax, eax
$LN51@find:

; 583  :     return _Left_size == _Right_size && _Traits::compare(_Left, _Right, _Left_size) == 0;

  000ac	85 c0		 test	 eax, eax
  000ae	74 33		 je	 SHORT $LN40@find
  000b0	8b 4d 08	 mov	 ecx, DWORD PTR _s$[ebp]
$LN29@find:
; File C:\Users\murat\Desktop\Siveps2-1-99-Project\source\client\Client\EterBase\poly\Poly.cpp

; 539  : 	else if (lSymbol[SymbolIndex[m]]->strlex < s)

  000b3	51		 push	 ecx
  000b4	57		 push	 edi
  000b5	e8 00 00 00 00	 call	 ??$?MDU?$char_traits@D@std@@V?$allocator@D@1@@std@@YA_NABV?$basic_string@DU?$char_traits@D@std@@V?$allocator@D@2@@0@0@Z ; std::operator<<char,std::char_traits<char>,std::allocator<char> >
  000ba	8b 55 f8	 mov	 edx, DWORD PTR _m$1$[ebp]
  000bd	8a c8		 mov	 cl, al
  000bf	83 c4 08	 add	 esp, 8
  000c2	84 c9		 test	 cl, cl
  000c4	8d 42 ff	 lea	 eax, DWORD PTR [edx-1]
  000c7	0f 44 d8	 cmove	 ebx, eax
  000ca	8d 42 01	 lea	 eax, DWORD PTR [edx+1]
  000cd	0f 44 45 fc	 cmove	 eax, DWORD PTR _l$1$[ebp]
  000d1	89 45 fc	 mov	 DWORD PTR _l$1$[ebp], eax
  000d4	3b c3		 cmp	 eax, ebx
  000d6	7f 17		 jg	 SHORT $LN3@find

; 532  : 
; 533  :     while (l <= r)

  000d8	8b 75 f4	 mov	 esi, DWORD PTR $T2[ebp]
  000db	8b 7d f0	 mov	 edi, DWORD PTR $T1[ebp]
  000de	e9 43 ff ff ff	 jmp	 $LN52@find
$LN40@find:

; 538  : 	    return SymbolIndex[m];

  000e3	8b 45 ec	 mov	 eax, DWORD PTR tv433[ebp]
  000e6	5f		 pop	 edi

; 540  : 	    l = m + 1;
; 541  : 	else
; 542  : 	    r = m - 1;
; 543  :     }
; 544  :     return -1;
; 545  : }

  000e7	5e		 pop	 esi
  000e8	5b		 pop	 ebx
  000e9	8b e5		 mov	 esp, ebp
  000eb	5d		 pop	 ebp
  000ec	c2 04 00	 ret	 4
$LN3@find:
  000ef	5f		 pop	 edi
  000f0	5e		 pop	 esi
  000f1	83 c8 ff	 or	 eax, -1
  000f4	5b		 pop	 ebx
  000f5	8b e5		 mov	 esp, ebp
  000f7	5d		 pop	 ebp
  000f8	c2 04 00	 ret	 4
?find@CPoly@@IAEHABV?$basic_string@DU?$char_traits@D@std@@V?$allocator@D@2@@std@@@Z ENDP ; CPoly::find
_TEXT	ENDS
; Function compile flags: /Ogtp
; File C:\Users\murat\Desktop\Siveps2-1-99-Project\source\client\Client\EterBase\poly\Poly.cpp
; File C:\Program Files (x86)\Microsoft Visual Studio\2019\Professional\VC\Tools\MSVC\14.29.30133\include\xstring
; File C:\Users\murat\Desktop\Siveps2-1-99-Project\source\client\Client\EterBase\poly\Poly.cpp
; File C:\Program Files (x86)\Microsoft Visual Studio\2019\Professional\VC\Tools\MSVC\14.29.30133\include\xstring
; File C:\Program Files (x86)\Microsoft Visual Studio\2019\Professional\VC\Tools\MSVC\14.29.30133\include\xmemory
; File C:\Program Files (x86)\Microsoft Visual Studio\2019\Professional\VC\Tools\MSVC\14.29.30133\include\xstring
; File C:\Users\murat\Desktop\Siveps2-1-99-Project\source\client\Client\EterBase\poly\Poly.cpp
; File C:\Program Files (x86)\Microsoft Visual Studio\2019\Professional\VC\Tools\MSVC\14.29.30133\include\vector
; File C:\Users\murat\Desktop\Siveps2-1-99-Project\source\client\Client\EterBase\poly\Poly.cpp
; File C:\Program Files (x86)\Microsoft Visual Studio\2019\Professional\VC\Tools\MSVC\14.29.30133\include\vector
; File C:\Users\murat\Desktop\Siveps2-1-99-Project\source\client\Client\EterBase\poly\Poly.cpp
; File C:\Program Files (x86)\Microsoft Visual Studio\2019\Professional\VC\Tools\MSVC\14.29.30133\include\vector
; File C:\Users\murat\Desktop\Siveps2-1-99-Project\source\client\Client\EterBase\poly\Poly.cpp
; File C:\Program Files (x86)\Microsoft Visual Studio\2019\Professional\VC\Tools\MSVC\14.29.30133\include\vector
; File C:\Program Files (x86)\Microsoft Visual Studio\2019\Professional\VC\Tools\MSVC\14.29.30133\include\xutility
; File C:\Program Files (x86)\Microsoft Visual Studio\2019\Professional\VC\Tools\MSVC\14.29.30133\include\vector
; File C:\Program Files (x86)\Microsoft Visual Studio\2019\Professional\VC\Tools\MSVC\14.29.30133\include\xutility
; File C:\Program Files (x86)\Microsoft Visual Studio\2019\Professional\VC\Tools\MSVC\14.29.30133\include\vector
; File C:\Program Files (x86)\Microsoft Visual Studio\2019\Professional\VC\Tools\MSVC\14.29.30133\include\xutility
; File C:\Program Files (x86)\Microsoft Visual Studio\2019\Professional\VC\Tools\MSVC\14.29.30133\include\vector
; File C:\Users\murat\Desktop\Siveps2-1-99-Project\source\client\Client\EterBase\poly\Poly.cpp
; File C:\Program Files (x86)\Microsoft Visual Studio\2019\Professional\VC\Tools\MSVC\14.29.30133\include\vector
; File C:\Users\murat\Desktop\Siveps2-1-99-Project\source\client\Client\EterBase\poly\Poly.cpp
;	COMDAT ?insert@CPoly@@IAEHABV?$basic_string@DU?$char_traits@D@std@@V?$allocator@D@2@@std@@H@Z
_TEXT	SEGMENT
$T3 = -32						; size = 4
tv1030 = -28						; size = 4
$T4 = -28						; size = 4
tv1037 = -24						; size = 4
__Right_size$1$ = -24					; size = 4
tv1045 = -20						; size = 4
__Result$1$ = -20					; size = 4
_this$1$ = -16						; size = 4
__$EHRec$ = -12						; size = 12
_s$ = 8							; size = 4
__Val$1$ = 12						; size = 4
$T5 = 12						; size = 4
_tok$ = 12						; size = 4
?insert@CPoly@@IAEHABV?$basic_string@DU?$char_traits@D@std@@V?$allocator@D@2@@std@@H@Z PROC ; CPoly::insert, COMDAT
; _this$ = ecx

; 548  : {

  00000	55		 push	 ebp
  00001	8b ec		 mov	 ebp, esp
  00003	6a ff		 push	 -1
  00005	68 00 00 00 00	 push	 __ehhandler$?insert@CPoly@@IAEHABV?$basic_string@DU?$char_traits@D@std@@V?$allocator@D@2@@std@@H@Z
  0000a	64 a1 00 00 00
	00		 mov	 eax, DWORD PTR fs:0
  00010	50		 push	 eax
  00011	83 ec 14	 sub	 esp, 20			; 00000014H
  00014	56		 push	 esi
  00015	57		 push	 edi
  00016	a1 00 00 00 00	 mov	 eax, DWORD PTR ___security_cookie
  0001b	33 c5		 xor	 eax, ebp
  0001d	50		 push	 eax
  0001e	8d 45 f4	 lea	 eax, DWORD PTR __$EHRec$[ebp]
  00021	64 a3 00 00 00
	00		 mov	 DWORD PTR fs:0, eax
  00027	89 4d f0	 mov	 DWORD PTR _this$1$[ebp], ecx

; 552  :     lSymbol.push_back(new CSymTable(tok,s));

  0002a	6a 30		 push	 48			; 00000030H
  0002c	e8 00 00 00 00	 call	 ??2@YAPAXI@Z		; operator new
  00031	83 c4 04	 add	 esp, 4
  00034	89 45 e4	 mov	 DWORD PTR $T4[ebp], eax
  00037	89 45 e0	 mov	 DWORD PTR $T3[ebp], eax
  0003a	85 c0		 test	 eax, eax
  0003c	c7 45 fc 00 00
	00 00		 mov	 DWORD PTR __$EHRec$[ebp+8], 0
  00043	8b 45 08	 mov	 eax, DWORD PTR _s$[ebp]
  00046	0f 84 a5 00 00
	00		 je	 $LN8@insert
  0004c	83 ec 18	 sub	 esp, 24			; 00000018H
; File C:\Program Files (x86)\Microsoft Visual Studio\2019\Professional\VC\Tools\MSVC\14.29.30133\include\xstring

; 2305 :         const value_type* _Result = _Bx._Buf;

  0004f	89 45 ec	 mov	 DWORD PTR __Result$1$[ebp], eax
; File C:\Users\murat\Desktop\Siveps2-1-99-Project\source\client\Client\EterBase\poly\Poly.cpp

; 552  :     lSymbol.push_back(new CSymTable(tok,s));

  00052	8b f4		 mov	 esi, esp
; File C:\Program Files (x86)\Microsoft Visual Studio\2019\Professional\VC\Tools\MSVC\14.29.30133\include\xstring

; 2305 :         const value_type* _Result = _Bx._Buf;

  00054	8b d0		 mov	 edx, eax

; 2346 :         _CONSTEXPR20_CONTAINER _Bxty() noexcept : _Ptr() {} // user-provided, for fancy pointers

  00056	c7 06 00 00 00
	00		 mov	 DWORD PTR [esi], 0

; 2355 :     size_type _Mysize = 0; // current length of string

  0005c	c7 46 10 00 00
	00 00		 mov	 DWORD PTR [esi+16], 0

; 2356 :     size_type _Myres  = 0; // current storage reserved for string

  00063	c7 46 14 00 00
	00 00		 mov	 DWORD PTR [esi+20], 0

; 2306 :         if (_Large_string_engaged()) {

  0006a	83 78 14 10	 cmp	 DWORD PTR [eax+20], 16	; 00000010H

; 2921 :         const size_type _Right_size   = _Right_data._Mysize;

  0006e	8b 48 10	 mov	 ecx, DWORD PTR [eax+16]
  00071	89 4d e8	 mov	 DWORD PTR __Right_size$1$[ebp], ecx

; 2306 :         if (_Large_string_engaged()) {

  00074	72 05		 jb	 SHORT $LN26@insert

; 2307 :             _Result = _Unfancy(_Bx._Ptr);

  00076	8b 10		 mov	 edx, DWORD PTR [eax]
  00078	89 55 ec	 mov	 DWORD PTR __Result$1$[ebp], edx
$LN26@insert:

; 2933 :         if (_Stay_small) { // stay small, don't allocate

  0007b	83 f9 10	 cmp	 ecx, 16			; 00000010H
  0007e	73 0d		 jae	 SHORT $LN23@insert

; 65   :         _CSTD memcpy(_First1, _First2, _Count * sizeof(_Elem));

  00080	0f 10 02	 movups	 xmm0, XMMWORD PTR [edx]

; 2936 :             _My_data._Myres  = _BUF_SIZE - 1;

  00083	bf 0f 00 00 00	 mov	 edi, 15			; 0000000fH

; 65   :         _CSTD memcpy(_First1, _First2, _Count * sizeof(_Elem));

  00088	0f 11 06	 movups	 XMMWORD PTR [esi], xmm0

; 2937 :             return;

  0008b	eb 4f		 jmp	 SHORT $LN22@insert
$LN23@insert:

; 2938 :         }
; 2939 : 
; 2940 :         auto& _Al                     = _Getal();
; 2941 :         const size_type _New_capacity = (_STD min)(_Right_size | _ALLOC_MASK, max_size());

  0008d	8b f9		 mov	 edi, ecx
  0008f	b8 ff ff ff 7f	 mov	 eax, 2147483647		; 7fffffffH
  00094	83 cf 0f	 or	 edi, 15			; 0000000fH
  00097	3b f8		 cmp	 edi, eax
  00099	0f 47 f8	 cmova	 edi, eax

; 2942 :         const pointer _New_array      = _Al.allocate(_New_capacity + 1); // throws

  0009c	8d 47 01	 lea	 eax, DWORD PTR [edi+1]
; File C:\Program Files (x86)\Microsoft Visual Studio\2019\Professional\VC\Tools\MSVC\14.29.30133\include\xmemory

; 237  :         if (_Bytes >= _Big_allocation_threshold) { // boost the alignment of big allocations to help autovectorization

  0009f	3d 00 10 00 00	 cmp	 eax, 4096		; 00001000H
  000a4	72 0d		 jb	 SHORT $LN37@insert

; 238  :             return _Allocate_manually_vector_aligned<_Traits>(_Bytes);

  000a6	50		 push	 eax
  000a7	e8 00 00 00 00	 call	 ??$_Allocate_manually_vector_aligned@U_Default_allocate_traits@std@@@std@@YAPAXI@Z ; std::_Allocate_manually_vector_aligned<std::_Default_allocate_traits>
  000ac	83 c4 04	 add	 esp, 4
  000af	8b c8		 mov	 ecx, eax
  000b1	eb 13		 jmp	 SHORT $LN36@insert
$LN37@insert:

; 239  :         }
; 240  :     }
; 241  : #endif // defined(_M_IX86) || defined(_M_X64)
; 242  : 
; 243  :     if (_Bytes != 0) {

  000b3	85 c0		 test	 eax, eax
  000b5	74 0d		 je	 SHORT $LN38@insert

; 85   :         return ::operator new(_Bytes);

  000b7	50		 push	 eax
  000b8	e8 00 00 00 00	 call	 ??2@YAPAXI@Z		; operator new
  000bd	83 c4 04	 add	 esp, 4

; 244  :         return _Traits::_Allocate(_Bytes);

  000c0	8b c8		 mov	 ecx, eax
  000c2	eb 02		 jmp	 SHORT $LN36@insert
$LN38@insert:

; 245  :     }
; 246  : 
; 247  :     return nullptr;

  000c4	33 c9		 xor	 ecx, ecx
$LN36@insert:
; File C:\Program Files (x86)\Microsoft Visual Studio\2019\Professional\VC\Tools\MSVC\14.29.30133\include\xstring

; 2950 :         _Traits::copy(_Unfancy(_New_array), _Right_ptr, _Right_size + 1);

  000c6	8b 45 e8	 mov	 eax, DWORD PTR __Right_size$1$[ebp]
  000c9	40		 inc	 eax
  000ca	89 0e		 mov	 DWORD PTR [esi], ecx

; 65   :         _CSTD memcpy(_First1, _First2, _Count * sizeof(_Elem));

  000cc	50		 push	 eax
  000cd	ff 75 ec	 push	 DWORD PTR __Result$1$[ebp]
  000d0	51		 push	 ecx
  000d1	e8 00 00 00 00	 call	 _memcpy
  000d6	8b 4d e8	 mov	 ecx, DWORD PTR __Right_size$1$[ebp]
  000d9	83 c4 0c	 add	 esp, 12			; 0000000cH
$LN22@insert:
; File C:\Users\murat\Desktop\Siveps2-1-99-Project\source\client\Client\EterBase\poly\Poly.cpp

; 552  :     lSymbol.push_back(new CSymTable(tok,s));

  000dc	89 4e 10	 mov	 DWORD PTR [esi+16], ecx
  000df	89 7e 14	 mov	 DWORD PTR [esi+20], edi
  000e2	ff 75 0c	 push	 DWORD PTR _tok$[ebp]
  000e5	8b 4d e4	 mov	 ecx, DWORD PTR $T4[ebp]
  000e8	e8 00 00 00 00	 call	 ??0CSymTable@@QAE@HV?$basic_string@DU?$char_traits@D@std@@V?$allocator@D@2@@std@@@Z ; CSymTable::CSymTable
  000ed	8b c8		 mov	 ecx, eax
  000ef	eb 02		 jmp	 SHORT $LN9@insert
$LN8@insert:
  000f1	33 c9		 xor	 ecx, ecx
$LN9@insert:
  000f3	8b 55 f0	 mov	 edx, DWORD PTR _this$1$[ebp]
; File C:\Program Files (x86)\Microsoft Visual Studio\2019\Professional\VC\Tools\MSVC\14.29.30133\include\vector

; 743  :         if (_Mylast != _My_data._Myend) {

  000f6	8b 42 44	 mov	 eax, DWORD PTR [edx+68]
; File C:\Users\murat\Desktop\Siveps2-1-99-Project\source\client\Client\EterBase\poly\Poly.cpp

; 552  :     lSymbol.push_back(new CSymTable(tok,s));

  000f9	8d 7a 40	 lea	 edi, DWORD PTR [edx+64]
  000fc	c7 45 fc ff ff
	ff ff		 mov	 DWORD PTR __$EHRec$[ebp+8], -1
  00103	89 4d 0c	 mov	 DWORD PTR $T5[ebp], ecx
; File C:\Program Files (x86)\Microsoft Visual Studio\2019\Professional\VC\Tools\MSVC\14.29.30133\include\vector

; 743  :         if (_Mylast != _My_data._Myend) {

  00106	3b 47 08	 cmp	 eax, DWORD PTR [edi+8]
  00109	74 08		 je	 SHORT $LN47@insert

; 726  :         _Alty_traits::construct(_Getal(), _Unfancy(_Mylast), _STD forward<_Valty>(_Val)...);

  0010b	89 08		 mov	 DWORD PTR [eax], ecx

; 727  :         _Orphan_range(_Mylast, _Mylast);
; 728  :         _Ty& _Result = *_Mylast;
; 729  :         ++_Mylast;

  0010d	83 47 04 04	 add	 DWORD PTR [edi+4], 4

; 744  :             return _Emplace_back_with_unused_capacity(_STD forward<_Valty>(_Val)...);

  00111	eb 0f		 jmp	 SHORT $LN46@insert
$LN47@insert:

; 747  :         _Ty& _Result = *_Emplace_reallocate(_Mylast, _STD forward<_Valty>(_Val)...);

  00113	8d 4d 0c	 lea	 ecx, DWORD PTR $T5[ebp]
  00116	51		 push	 ecx
  00117	50		 push	 eax
  00118	8b cf		 mov	 ecx, edi
  0011a	e8 00 00 00 00	 call	 ??$_Emplace_reallocate@PAVCSymTable@@@?$vector@PAVCSymTable@@V?$allocator@PAVCSymTable@@@std@@@std@@QAEPAPAVCSymTable@@QAPAV2@$$QAPAV2@@Z ; std::vector<CSymTable *,std::allocator<CSymTable *> >::_Emplace_reallocate<CSymTable *>
  0011f	8b 55 f0	 mov	 edx, DWORD PTR _this$1$[ebp]
$LN46@insert:
; File C:\Users\murat\Desktop\Siveps2-1-99-Project\source\client\Client\EterBase\poly\Poly.cpp

; 553  :     for (i=0;i<STSize;i++)

  00122	8b 4a 58	 mov	 ecx, DWORD PTR [edx+88]
  00125	8d 42 58	 lea	 eax, DWORD PTR [edx+88]
  00128	33 f6		 xor	 esi, esi
  0012a	89 45 0c	 mov	 DWORD PTR __Val$1$[ebp], eax
  0012d	89 4d ec	 mov	 DWORD PTR tv1045[ebp], ecx
  00130	85 c9		 test	 ecx, ecx
  00132	7e 37		 jle	 SHORT $LN106@insert
; File C:\Program Files (x86)\Microsoft Visual Studio\2019\Professional\VC\Tools\MSVC\14.29.30133\include\vector

; 1569 :         return _My_data._Myfirst[_Pos];

  00134	8b 42 4c	 mov	 eax, DWORD PTR [edx+76]
  00137	8b 0f		 mov	 ecx, DWORD PTR [edi]
  00139	8b f8		 mov	 edi, eax
  0013b	89 45 e8	 mov	 DWORD PTR tv1037[ebp], eax
  0013e	89 4d e4	 mov	 DWORD PTR tv1030[ebp], ecx
$LL4@insert:
  00141	8b 07		 mov	 eax, DWORD PTR [edi]
; File C:\Users\murat\Desktop\Siveps2-1-99-Project\source\client\Client\EterBase\poly\Poly.cpp

; 555  : 	if (s<lSymbol[SymbolIndex[i]]->strlex)

  00143	8b 04 81	 mov	 eax, DWORD PTR [ecx+eax*4]
  00146	83 c0 14	 add	 eax, 20			; 00000014H
  00149	50		 push	 eax
  0014a	ff 75 08	 push	 DWORD PTR _s$[ebp]
  0014d	e8 00 00 00 00	 call	 ??$?MDU?$char_traits@D@std@@V?$allocator@D@1@@std@@YA_NABV?$basic_string@DU?$char_traits@D@std@@V?$allocator@D@2@@0@0@Z ; std::operator<<char,std::char_traits<char>,std::allocator<char> >
  00152	83 c4 08	 add	 esp, 8
  00155	84 c0		 test	 al, al
  00157	75 27		 jne	 SHORT $LN102@insert

; 553  :     for (i=0;i<STSize;i++)

  00159	8b 4d e4	 mov	 ecx, DWORD PTR tv1030[ebp]
  0015c	46		 inc	 esi
  0015d	83 c7 04	 add	 edi, 4
  00160	3b 75 ec	 cmp	 esi, DWORD PTR tv1045[ebp]
  00163	7c dc		 jl	 SHORT $LL4@insert

; 555  : 	if (s<lSymbol[SymbolIndex[i]]->strlex)

  00165	8b 45 0c	 mov	 eax, DWORD PTR __Val$1$[ebp]
  00168	8b 55 f0	 mov	 edx, DWORD PTR _this$1$[ebp]
$LN106@insert:

; 563  :     {
; 564  : 	//SymbolIndex.SetAtGrow(STSize,STSize);
; 565  : 	SymbolIndex.push_back(STSize);

  0016b	8d 4a 4c	 lea	 ecx, DWORD PTR [edx+76]
; File C:\Program Files (x86)\Microsoft Visual Studio\2019\Professional\VC\Tools\MSVC\14.29.30133\include\vector

; 743  :         if (_Mylast != _My_data._Myend) {

  0016e	8b 51 04	 mov	 edx, DWORD PTR [ecx+4]
  00171	3b 51 08	 cmp	 edx, DWORD PTR [ecx+8]
  00174	74 57		 je	 SHORT $LN97@insert

; 726  :         _Alty_traits::construct(_Getal(), _Unfancy(_Mylast), _STD forward<_Valty>(_Val)...);

  00176	8b 00		 mov	 eax, DWORD PTR [eax]
  00178	89 02		 mov	 DWORD PTR [edx], eax

; 727  :         _Orphan_range(_Mylast, _Mylast);
; 728  :         _Ty& _Result = *_Mylast;
; 729  :         ++_Mylast;

  0017a	83 41 04 04	 add	 DWORD PTR [ecx+4], 4

; 744  :             return _Emplace_back_with_unused_capacity(_STD forward<_Valty>(_Val)...);

  0017e	eb 54		 jmp	 SHORT $LN108@insert
$LN102@insert:

; 123  :         _Ptr += _Off;

  00180	8b 45 e8	 mov	 eax, DWORD PTR tv1037[ebp]

; 814  :         const pointer _Oldlast  = _My_data._Mylast;

  00183	8b 55 f0	 mov	 edx, DWORD PTR _this$1$[ebp]

; 123  :         _Ptr += _Off;

  00186	8d 3c b0	 lea	 edi, DWORD PTR [eax+esi*4]

; 814  :         const pointer _Oldlast  = _My_data._Mylast;

  00189	8b 72 50	 mov	 esi, DWORD PTR [edx+80]

; 815  : #if _ITERATOR_DEBUG_LEVEL == 2
; 816  :         _STL_VERIFY(
; 817  :             _Where._Getcont() == _STD addressof(_My_data) && _Whereptr >= _My_data._Myfirst && _Oldlast >= _Whereptr,
; 818  :             "vector emplace iterator outside range");
; 819  : #endif // _ITERATOR_DEBUG_LEVEL == 2
; 820  : 
; 821  :         if (_Oldlast != _My_data._Myend) {

  0018c	3b 72 54	 cmp	 esi, DWORD PTR [edx+84]
  0018f	74 2d		 je	 SHORT $LN70@insert

; 822  :             if (_Whereptr == _Oldlast) { // at back, provide strong guarantee

  00191	3b fe		 cmp	 edi, esi
  00193	75 0b		 jne	 SHORT $LN71@insert

; 726  :         _Alty_traits::construct(_Getal(), _Unfancy(_Mylast), _STD forward<_Valty>(_Val)...);

  00195	8b 45 ec	 mov	 eax, DWORD PTR tv1045[ebp]
  00198	89 06		 mov	 DWORD PTR [esi], eax

; 727  :         _Orphan_range(_Mylast, _Mylast);
; 728  :         _Ty& _Result = *_Mylast;
; 729  :         ++_Mylast;

  0019a	83 42 50 04	 add	 DWORD PTR [edx+80], 4

; 824  :             } else {

  0019e	eb 34		 jmp	 SHORT $LN108@insert
$LN71@insert:

; 829  :                 _Alty_traits::construct(_Al, _Unfancy(_Oldlast), _STD move(_Oldlast[-1]));

  001a0	8b 46 fc	 mov	 eax, DWORD PTR [esi-4]
  001a3	8d 4e fc	 lea	 ecx, DWORD PTR [esi-4]
; File C:\Program Files (x86)\Microsoft Visual Studio\2019\Professional\VC\Tools\MSVC\14.29.30133\include\xutility

; 4468 :             return _Copy_backward_memmove(_First, _Last, _Dest);

  001a6	56		 push	 esi
  001a7	51		 push	 ecx
; File C:\Program Files (x86)\Microsoft Visual Studio\2019\Professional\VC\Tools\MSVC\14.29.30133\include\vector

; 829  :                 _Alty_traits::construct(_Al, _Unfancy(_Oldlast), _STD move(_Oldlast[-1]));

  001a8	89 06		 mov	 DWORD PTR [esi], eax

; 830  :                 ++_My_data._Mylast;

  001aa	83 42 50 04	 add	 DWORD PTR [edx+80], 4
; File C:\Program Files (x86)\Microsoft Visual Studio\2019\Professional\VC\Tools\MSVC\14.29.30133\include\xutility

; 4468 :             return _Copy_backward_memmove(_First, _Last, _Dest);

  001ae	57		 push	 edi
  001af	e8 00 00 00 00	 call	 ??$_Copy_backward_memmove@PAHPAH@std@@YAPAHPAH00@Z ; std::_Copy_backward_memmove<int *,int *>
; File C:\Program Files (x86)\Microsoft Visual Studio\2019\Professional\VC\Tools\MSVC\14.29.30133\include\vector

; 832  :                 *_Whereptr = _STD move(_Obj._Storage._Value);

  001b4	8b 45 ec	 mov	 eax, DWORD PTR tv1045[ebp]
; File C:\Program Files (x86)\Microsoft Visual Studio\2019\Professional\VC\Tools\MSVC\14.29.30133\include\xutility

; 4468 :             return _Copy_backward_memmove(_First, _Last, _Dest);

  001b7	83 c4 0c	 add	 esp, 12			; 0000000cH
; File C:\Program Files (x86)\Microsoft Visual Studio\2019\Professional\VC\Tools\MSVC\14.29.30133\include\vector

; 832  :                 *_Whereptr = _STD move(_Obj._Storage._Value);

  001ba	89 07		 mov	 DWORD PTR [edi], eax

; 833  :             }
; 834  : 
; 835  :             return _Make_iterator(_Whereptr);

  001bc	eb 16		 jmp	 SHORT $LN108@insert
$LN70@insert:

; 836  :         }
; 837  : 
; 838  :         return _Make_iterator(_Emplace_reallocate(_Whereptr, _STD forward<_Valty>(_Val)...));

  001be	8b 75 0c	 mov	 esi, DWORD PTR __Val$1$[ebp]
  001c1	8d 4a 4c	 lea	 ecx, DWORD PTR [edx+76]
  001c4	56		 push	 esi
  001c5	57		 push	 edi
  001c6	e8 00 00 00 00	 call	 ??$_Emplace_reallocate@ABH@?$vector@HV?$allocator@H@std@@@std@@QAEPAHQAHABH@Z ; std::vector<int,std::allocator<int> >::_Emplace_reallocate<int const &>
; File C:\Users\murat\Desktop\Siveps2-1-99-Project\source\client\Client\EterBase\poly\Poly.cpp

; 562  :     if (!bAdded)

  001cb	eb 0a		 jmp	 SHORT $LN96@insert
$LN97@insert:
; File C:\Program Files (x86)\Microsoft Visual Studio\2019\Professional\VC\Tools\MSVC\14.29.30133\include\vector

; 747  :         _Ty& _Result = *_Emplace_reallocate(_Mylast, _STD forward<_Valty>(_Val)...);

  001cd	50		 push	 eax
  001ce	52		 push	 edx
  001cf	e8 00 00 00 00	 call	 ??$_Emplace_reallocate@ABH@?$vector@HV?$allocator@H@std@@@std@@QAEPAHQAHABH@Z ; std::vector<int,std::allocator<int> >::_Emplace_reallocate<int const &>
$LN108@insert:
; File C:\Users\murat\Desktop\Siveps2-1-99-Project\source\client\Client\EterBase\poly\Poly.cpp

; 567  :     STSize++;

  001d4	8b 75 0c	 mov	 esi, DWORD PTR __Val$1$[ebp]
$LN96@insert:
  001d7	8b 06		 mov	 eax, DWORD PTR [esi]
  001d9	8d 48 01	 lea	 ecx, DWORD PTR [eax+1]
  001dc	89 0e		 mov	 DWORD PTR [esi], ecx

; 568  :     return STSize-1;
; 569  : }

  001de	8b 4d f4	 mov	 ecx, DWORD PTR __$EHRec$[ebp]
  001e1	64 89 0d 00 00
	00 00		 mov	 DWORD PTR fs:0, ecx
  001e8	59		 pop	 ecx
  001e9	5f		 pop	 edi
  001ea	5e		 pop	 esi
  001eb	8b e5		 mov	 esp, ebp
  001ed	5d		 pop	 ebp
  001ee	c2 08 00	 ret	 8
_TEXT	ENDS
;	COMDAT text$x
text$x	SEGMENT
__unwindfunclet$?insert@CPoly@@IAEHABV?$basic_string@DU?$char_traits@D@std@@V?$allocator@D@2@@std@@H@Z$0:
  00000	6a 30		 push	 48			; 00000030H
  00002	8b 45 e0	 mov	 eax, DWORD PTR $T3[ebp]
  00005	50		 push	 eax
  00006	e8 00 00 00 00	 call	 ??3@YAXPAXI@Z		; operator delete
  0000b	83 c4 08	 add	 esp, 8
  0000e	c3		 ret	 0
  0000f	cc		 int	 3
  00010	cc		 int	 3
  00011	cc		 int	 3
  00012	cc		 int	 3
  00013	cc		 int	 3
__ehhandler$?insert@CPoly@@IAEHABV?$basic_string@DU?$char_traits@D@std@@V?$allocator@D@2@@std@@H@Z:
  00014	90		 npad	 1
  00015	90		 npad	 1
  00016	8b 54 24 08	 mov	 edx, DWORD PTR [esp+8]
  0001a	8d 42 0c	 lea	 eax, DWORD PTR [edx+12]
  0001d	8b 4a e0	 mov	 ecx, DWORD PTR [edx-32]
  00020	33 c8		 xor	 ecx, eax
  00022	e8 00 00 00 00	 call	 @__security_check_cookie@4
  00027	b8 00 00 00 00	 mov	 eax, OFFSET __ehfuncinfo$?insert@CPoly@@IAEHABV?$basic_string@DU?$char_traits@D@std@@V?$allocator@D@2@@std@@H@Z
  0002c	e9 00 00 00 00	 jmp	 ___CxxFrameHandler3
text$x	ENDS
?insert@CPoly@@IAEHABV?$basic_string@DU?$char_traits@D@std@@V?$allocator@D@2@@std@@H@Z ENDP ; CPoly::insert
; Function compile flags: /Ogtp
; File C:\Users\murat\Desktop\Siveps2-1-99-Project\source\client\Client\EterBase\poly\Poly.cpp
; File C:\Program Files (x86)\Microsoft Visual Studio\2019\Professional\VC\Tools\MSVC\14.29.30133\include\xstring
; File C:\Users\murat\Desktop\Siveps2-1-99-Project\source\client\Client\EterBase\poly\Poly.cpp
; File C:\Program Files (x86)\Microsoft Visual Studio\2019\Professional\VC\Tools\MSVC\14.29.30133\include\xstring
; File C:\Users\murat\Desktop\Siveps2-1-99-Project\source\client\Client\EterBase\poly\Poly.cpp
; File C:\Program Files (x86)\Microsoft Visual Studio\2019\Professional\VC\Tools\MSVC\14.29.30133\include\xstring
; File C:\Program Files (x86)\Microsoft Visual Studio\2019\Professional\VC\Tools\MSVC\14.29.30133\include\xmemory
; File C:\Program Files (x86)\Microsoft Visual Studio\2019\Professional\VC\Tools\MSVC\14.29.30133\include\xstring
; File C:\Program Files (x86)\Microsoft Visual Studio\2019\Professional\VC\Tools\MSVC\14.29.30133\include\xmemory
; File C:\Program Files (x86)\Microsoft Visual Studio\2019\Professional\VC\Tools\MSVC\14.29.30133\include\xstring
; File C:\Users\murat\Desktop\Siveps2-1-99-Project\source\client\Client\EterBase\poly\Poly.cpp
; File C:\Program Files (x86)\Microsoft Visual Studio\2019\Professional\VC\Tools\MSVC\14.29.30133\include\xstring
; File C:\Users\murat\Desktop\Siveps2-1-99-Project\source\client\Client\EterBase\poly\Poly.cpp
; File C:\Program Files (x86)\Microsoft Visual Studio\2019\Professional\VC\Tools\MSVC\14.29.30133\include\xstring
; File C:\Program Files (x86)\Microsoft Visual Studio\2019\Professional\VC\Tools\MSVC\14.29.30133\include\xmemory
; File C:\Program Files (x86)\Microsoft Visual Studio\2019\Professional\VC\Tools\MSVC\14.29.30133\include\xstring
; File C:\Program Files (x86)\Microsoft Visual Studio\2019\Professional\VC\Tools\MSVC\14.29.30133\include\xmemory
; File C:\Program Files (x86)\Microsoft Visual Studio\2019\Professional\VC\Tools\MSVC\14.29.30133\include\xstring
; File C:\Users\murat\Desktop\Siveps2-1-99-Project\source\client\Client\EterBase\poly\Poly.cpp
; File C:\Program Files (x86)\Microsoft Visual Studio\2019\Professional\VC\Tools\MSVC\14.29.30133\include\xstring
; File C:\Users\murat\Desktop\Siveps2-1-99-Project\source\client\Client\EterBase\poly\Poly.cpp
; File C:\Program Files (x86)\Microsoft Visual Studio\2019\Professional\VC\Tools\MSVC\14.29.30133\include\xstring
; File C:\Program Files (x86)\Microsoft Visual Studio\2019\Professional\VC\Tools\MSVC\14.29.30133\include\xmemory
; File C:\Program Files (x86)\Microsoft Visual Studio\2019\Professional\VC\Tools\MSVC\14.29.30133\include\xstring
; File C:\Program Files (x86)\Microsoft Visual Studio\2019\Professional\VC\Tools\MSVC\14.29.30133\include\xmemory
; File C:\Program Files (x86)\Microsoft Visual Studio\2019\Professional\VC\Tools\MSVC\14.29.30133\include\xstring
; File C:\Users\murat\Desktop\Siveps2-1-99-Project\source\client\Client\EterBase\poly\Poly.cpp
; File C:\Program Files (x86)\Microsoft Visual Studio\2019\Professional\VC\Tools\MSVC\14.29.30133\include\xstring
; File C:\Users\murat\Desktop\Siveps2-1-99-Project\source\client\Client\EterBase\poly\Poly.cpp
; File C:\Program Files (x86)\Microsoft Visual Studio\2019\Professional\VC\Tools\MSVC\14.29.30133\include\xstring
; File C:\Program Files (x86)\Microsoft Visual Studio\2019\Professional\VC\Tools\MSVC\14.29.30133\include\xmemory
; File C:\Program Files (x86)\Microsoft Visual Studio\2019\Professional\VC\Tools\MSVC\14.29.30133\include\xstring
; File C:\Program Files (x86)\Microsoft Visual Studio\2019\Professional\VC\Tools\MSVC\14.29.30133\include\xmemory
; File C:\Program Files (x86)\Microsoft Visual Studio\2019\Professional\VC\Tools\MSVC\14.29.30133\include\xstring
; File C:\Users\murat\Desktop\Siveps2-1-99-Project\source\client\Client\EterBase\poly\Poly.cpp
; File C:\Program Files (x86)\Microsoft Visual Studio\2019\Professional\VC\Tools\MSVC\14.29.30133\include\xstring
; File C:\Users\murat\Desktop\Siveps2-1-99-Project\source\client\Client\EterBase\poly\Poly.cpp
; File C:\Program Files (x86)\Microsoft Visual Studio\2019\Professional\VC\Tools\MSVC\14.29.30133\include\xstring
; File C:\Program Files (x86)\Microsoft Visual Studio\2019\Professional\VC\Tools\MSVC\14.29.30133\include\xmemory
; File C:\Program Files (x86)\Microsoft Visual Studio\2019\Professional\VC\Tools\MSVC\14.29.30133\include\xstring
; File C:\Program Files (x86)\Microsoft Visual Studio\2019\Professional\VC\Tools\MSVC\14.29.30133\include\xmemory
; File C:\Program Files (x86)\Microsoft Visual Studio\2019\Professional\VC\Tools\MSVC\14.29.30133\include\xstring
; File C:\Users\murat\Desktop\Siveps2-1-99-Project\source\client\Client\EterBase\poly\Poly.cpp
; File C:\Program Files (x86)\Microsoft Visual Studio\2019\Professional\VC\Tools\MSVC\14.29.30133\include\xstring
; File C:\Users\murat\Desktop\Siveps2-1-99-Project\source\client\Client\EterBase\poly\Poly.cpp
; File C:\Program Files (x86)\Microsoft Visual Studio\2019\Professional\VC\Tools\MSVC\14.29.30133\include\xstring
; File C:\Program Files (x86)\Microsoft Visual Studio\2019\Professional\VC\Tools\MSVC\14.29.30133\include\xmemory
; File C:\Program Files (x86)\Microsoft Visual Studio\2019\Professional\VC\Tools\MSVC\14.29.30133\include\xstring
; File C:\Program Files (x86)\Microsoft Visual Studio\2019\Professional\VC\Tools\MSVC\14.29.30133\include\xmemory
; File C:\Program Files (x86)\Microsoft Visual Studio\2019\Professional\VC\Tools\MSVC\14.29.30133\include\xstring
; File C:\Users\murat\Desktop\Siveps2-1-99-Project\source\client\Client\EterBase\poly\Poly.cpp
; File C:\Program Files (x86)\Microsoft Visual Studio\2019\Professional\VC\Tools\MSVC\14.29.30133\include\xstring
; File C:\Users\murat\Desktop\Siveps2-1-99-Project\source\client\Client\EterBase\poly\Poly.cpp
; File C:\Program Files (x86)\Microsoft Visual Studio\2019\Professional\VC\Tools\MSVC\14.29.30133\include\xstring
; File C:\Program Files (x86)\Microsoft Visual Studio\2019\Professional\VC\Tools\MSVC\14.29.30133\include\xmemory
; File C:\Program Files (x86)\Microsoft Visual Studio\2019\Professional\VC\Tools\MSVC\14.29.30133\include\xstring
; File C:\Program Files (x86)\Microsoft Visual Studio\2019\Professional\VC\Tools\MSVC\14.29.30133\include\xmemory
; File C:\Program Files (x86)\Microsoft Visual Studio\2019\Professional\VC\Tools\MSVC\14.29.30133\include\xstring
; File C:\Users\murat\Desktop\Siveps2-1-99-Project\source\client\Client\EterBase\poly\Poly.cpp
; File C:\Program Files (x86)\Microsoft Visual Studio\2019\Professional\VC\Tools\MSVC\14.29.30133\include\xstring
; File C:\Users\murat\Desktop\Siveps2-1-99-Project\source\client\Client\EterBase\poly\Poly.cpp
; File C:\Program Files (x86)\Microsoft Visual Studio\2019\Professional\VC\Tools\MSVC\14.29.30133\include\xstring
; File C:\Program Files (x86)\Microsoft Visual Studio\2019\Professional\VC\Tools\MSVC\14.29.30133\include\xmemory
; File C:\Program Files (x86)\Microsoft Visual Studio\2019\Professional\VC\Tools\MSVC\14.29.30133\include\xstring
; File C:\Program Files (x86)\Microsoft Visual Studio\2019\Professional\VC\Tools\MSVC\14.29.30133\include\xmemory
; File C:\Program Files (x86)\Microsoft Visual Studio\2019\Professional\VC\Tools\MSVC\14.29.30133\include\xstring
; File C:\Users\murat\Desktop\Siveps2-1-99-Project\source\client\Client\EterBase\poly\Poly.cpp
; File C:\Program Files (x86)\Microsoft Visual Studio\2019\Professional\VC\Tools\MSVC\14.29.30133\include\xstring
; File C:\Users\murat\Desktop\Siveps2-1-99-Project\source\client\Client\EterBase\poly\Poly.cpp
; File C:\Program Files (x86)\Microsoft Visual Studio\2019\Professional\VC\Tools\MSVC\14.29.30133\include\xstring
; File C:\Program Files (x86)\Microsoft Visual Studio\2019\Professional\VC\Tools\MSVC\14.29.30133\include\xmemory
; File C:\Program Files (x86)\Microsoft Visual Studio\2019\Professional\VC\Tools\MSVC\14.29.30133\include\xstring
; File C:\Program Files (x86)\Microsoft Visual Studio\2019\Professional\VC\Tools\MSVC\14.29.30133\include\xmemory
; File C:\Program Files (x86)\Microsoft Visual Studio\2019\Professional\VC\Tools\MSVC\14.29.30133\include\xstring
; File C:\Users\murat\Desktop\Siveps2-1-99-Project\source\client\Client\EterBase\poly\Poly.cpp
; File C:\Program Files (x86)\Microsoft Visual Studio\2019\Professional\VC\Tools\MSVC\14.29.30133\include\xstring
; File C:\Users\murat\Desktop\Siveps2-1-99-Project\source\client\Client\EterBase\poly\Poly.cpp
; File C:\Program Files (x86)\Microsoft Visual Studio\2019\Professional\VC\Tools\MSVC\14.29.30133\include\xstring
; File C:\Program Files (x86)\Microsoft Visual Studio\2019\Professional\VC\Tools\MSVC\14.29.30133\include\xmemory
; File C:\Program Files (x86)\Microsoft Visual Studio\2019\Professional\VC\Tools\MSVC\14.29.30133\include\xstring
; File C:\Program Files (x86)\Microsoft Visual Studio\2019\Professional\VC\Tools\MSVC\14.29.30133\include\xmemory
; File C:\Program Files (x86)\Microsoft Visual Studio\2019\Professional\VC\Tools\MSVC\14.29.30133\include\xstring
; File C:\Users\murat\Desktop\Siveps2-1-99-Project\source\client\Client\EterBase\poly\Poly.cpp
; File C:\Program Files (x86)\Microsoft Visual Studio\2019\Professional\VC\Tools\MSVC\14.29.30133\include\xstring
; File C:\Users\murat\Desktop\Siveps2-1-99-Project\source\client\Client\EterBase\poly\Poly.cpp
; File C:\Program Files (x86)\Microsoft Visual Studio\2019\Professional\VC\Tools\MSVC\14.29.30133\include\xstring
; File C:\Program Files (x86)\Microsoft Visual Studio\2019\Professional\VC\Tools\MSVC\14.29.30133\include\xmemory
; File C:\Program Files (x86)\Microsoft Visual Studio\2019\Professional\VC\Tools\MSVC\14.29.30133\include\xstring
; File C:\Program Files (x86)\Microsoft Visual Studio\2019\Professional\VC\Tools\MSVC\14.29.30133\include\xmemory
; File C:\Program Files (x86)\Microsoft Visual Studio\2019\Professional\VC\Tools\MSVC\14.29.30133\include\xstring
; File C:\Users\murat\Desktop\Siveps2-1-99-Project\source\client\Client\EterBase\poly\Poly.cpp
; File C:\Program Files (x86)\Microsoft Visual Studio\2019\Professional\VC\Tools\MSVC\14.29.30133\include\xstring
; File C:\Users\murat\Desktop\Siveps2-1-99-Project\source\client\Client\EterBase\poly\Poly.cpp
; File C:\Program Files (x86)\Microsoft Visual Studio\2019\Professional\VC\Tools\MSVC\14.29.30133\include\xstring
; File C:\Program Files (x86)\Microsoft Visual Studio\2019\Professional\VC\Tools\MSVC\14.29.30133\include\xmemory
; File C:\Program Files (x86)\Microsoft Visual Studio\2019\Professional\VC\Tools\MSVC\14.29.30133\include\xstring
; File C:\Program Files (x86)\Microsoft Visual Studio\2019\Professional\VC\Tools\MSVC\14.29.30133\include\xmemory
; File C:\Program Files (x86)\Microsoft Visual Studio\2019\Professional\VC\Tools\MSVC\14.29.30133\include\xstring
; File C:\Users\murat\Desktop\Siveps2-1-99-Project\source\client\Client\EterBase\poly\Poly.cpp
; File C:\Program Files (x86)\Microsoft Visual Studio\2019\Professional\VC\Tools\MSVC\14.29.30133\include\xstring
; File C:\Users\murat\Desktop\Siveps2-1-99-Project\source\client\Client\EterBase\poly\Poly.cpp
; File C:\Program Files (x86)\Microsoft Visual Studio\2019\Professional\VC\Tools\MSVC\14.29.30133\include\xstring
; File C:\Program Files (x86)\Microsoft Visual Studio\2019\Professional\VC\Tools\MSVC\14.29.30133\include\xmemory
; File C:\Program Files (x86)\Microsoft Visual Studio\2019\Professional\VC\Tools\MSVC\14.29.30133\include\xstring
; File C:\Program Files (x86)\Microsoft Visual Studio\2019\Professional\VC\Tools\MSVC\14.29.30133\include\xmemory
; File C:\Program Files (x86)\Microsoft Visual Studio\2019\Professional\VC\Tools\MSVC\14.29.30133\include\xstring
; File C:\Users\murat\Desktop\Siveps2-1-99-Project\source\client\Client\EterBase\poly\Poly.cpp
; File C:\Program Files (x86)\Microsoft Visual Studio\2019\Professional\VC\Tools\MSVC\14.29.30133\include\xstring
; File C:\Users\murat\Desktop\Siveps2-1-99-Project\source\client\Client\EterBase\poly\Poly.cpp
; File C:\Program Files (x86)\Microsoft Visual Studio\2019\Professional\VC\Tools\MSVC\14.29.30133\include\xstring
; File C:\Program Files (x86)\Microsoft Visual Studio\2019\Professional\VC\Tools\MSVC\14.29.30133\include\xmemory
; File C:\Program Files (x86)\Microsoft Visual Studio\2019\Professional\VC\Tools\MSVC\14.29.30133\include\xstring
; File C:\Program Files (x86)\Microsoft Visual Studio\2019\Professional\VC\Tools\MSVC\14.29.30133\include\xmemory
; File C:\Program Files (x86)\Microsoft Visual Studio\2019\Professional\VC\Tools\MSVC\14.29.30133\include\xstring
; File C:\Users\murat\Desktop\Siveps2-1-99-Project\source\client\Client\EterBase\poly\Poly.cpp
; File C:\Program Files (x86)\Microsoft Visual Studio\2019\Professional\VC\Tools\MSVC\14.29.30133\include\xstring
; File C:\Users\murat\Desktop\Siveps2-1-99-Project\source\client\Client\EterBase\poly\Poly.cpp
; File C:\Program Files (x86)\Microsoft Visual Studio\2019\Professional\VC\Tools\MSVC\14.29.30133\include\xstring
; File C:\Program Files (x86)\Microsoft Visual Studio\2019\Professional\VC\Tools\MSVC\14.29.30133\include\xmemory
; File C:\Program Files (x86)\Microsoft Visual Studio\2019\Professional\VC\Tools\MSVC\14.29.30133\include\xstring
; File C:\Program Files (x86)\Microsoft Visual Studio\2019\Professional\VC\Tools\MSVC\14.29.30133\include\xmemory
; File C:\Program Files (x86)\Microsoft Visual Studio\2019\Professional\VC\Tools\MSVC\14.29.30133\include\xstring
; File C:\Users\murat\Desktop\Siveps2-1-99-Project\source\client\Client\EterBase\poly\Poly.cpp
; File C:\Program Files (x86)\Microsoft Visual Studio\2019\Professional\VC\Tools\MSVC\14.29.30133\include\xstring
; File C:\Users\murat\Desktop\Siveps2-1-99-Project\source\client\Client\EterBase\poly\Poly.cpp
; File C:\Program Files (x86)\Microsoft Visual Studio\2019\Professional\VC\Tools\MSVC\14.29.30133\include\xstring
; File C:\Program Files (x86)\Microsoft Visual Studio\2019\Professional\VC\Tools\MSVC\14.29.30133\include\xmemory
; File C:\Program Files (x86)\Microsoft Visual Studio\2019\Professional\VC\Tools\MSVC\14.29.30133\include\xstring
; File C:\Program Files (x86)\Microsoft Visual Studio\2019\Professional\VC\Tools\MSVC\14.29.30133\include\xmemory
; File C:\Program Files (x86)\Microsoft Visual Studio\2019\Professional\VC\Tools\MSVC\14.29.30133\include\xstring
; File C:\Users\murat\Desktop\Siveps2-1-99-Project\source\client\Client\EterBase\poly\Poly.cpp
; File C:\Program Files (x86)\Microsoft Visual Studio\2019\Professional\VC\Tools\MSVC\14.29.30133\include\xstring
; File C:\Users\murat\Desktop\Siveps2-1-99-Project\source\client\Client\EterBase\poly\Poly.cpp
; File C:\Program Files (x86)\Microsoft Visual Studio\2019\Professional\VC\Tools\MSVC\14.29.30133\include\xstring
; File C:\Program Files (x86)\Microsoft Visual Studio\2019\Professional\VC\Tools\MSVC\14.29.30133\include\xmemory
; File C:\Program Files (x86)\Microsoft Visual Studio\2019\Professional\VC\Tools\MSVC\14.29.30133\include\xstring
; File C:\Program Files (x86)\Microsoft Visual Studio\2019\Professional\VC\Tools\MSVC\14.29.30133\include\xmemory
; File C:\Program Files (x86)\Microsoft Visual Studio\2019\Professional\VC\Tools\MSVC\14.29.30133\include\xstring
; File C:\Users\murat\Desktop\Siveps2-1-99-Project\source\client\Client\EterBase\poly\Poly.cpp
; File C:\Program Files (x86)\Microsoft Visual Studio\2019\Professional\VC\Tools\MSVC\14.29.30133\include\xstring
; File C:\Program Files (x86)\Microsoft Visual Studio\2019\Professional\VC\Tools\MSVC\14.29.30133\include\xmemory
; File C:\Program Files (x86)\Microsoft Visual Studio\2019\Professional\VC\Tools\MSVC\14.29.30133\include\xstring
; File C:\Program Files (x86)\Microsoft Visual Studio\2019\Professional\VC\Tools\MSVC\14.29.30133\include\xmemory
; File C:\Program Files (x86)\Microsoft Visual Studio\2019\Professional\VC\Tools\MSVC\14.29.30133\include\xstring
