; Listing generated by Microsoft (R) Optimizing Compiler Version 19.29.30137.0 

	TITLE	C:\Users\murat\Desktop\Siveps2-1-99-Project\source\client\Client\EterLib\Distribute\AttributeData.obj
	.686P
	.XMM
	include listing.inc
	.model	flat

INCLUDELIB LIBCMT
INCLUDELIB OLDNAMES

CONST	SEGMENT
?c_szAttributeDataFileHeader@@3QBDB DB 'AttributeData', 00H ; c_szAttributeDataFileHeader
?_Fake_alloc@std@@3U_Fake_allocator@1@B	ORG $+1		; std::_Fake_alloc
CONST	ENDS
PUBLIC	??0exception@std@@QAE@ABV01@@Z			; std::exception::exception
PUBLIC	??1exception@std@@UAE@XZ			; std::exception::~exception
PUBLIC	?what@exception@std@@UBEPBDXZ			; std::exception::what
PUBLIC	??_Gexception@std@@UAEPAXI@Z			; std::exception::`scalar deleting destructor'
PUBLIC	??0bad_alloc@std@@QAE@ABV01@@Z			; std::bad_alloc::bad_alloc
PUBLIC	??_Gbad_alloc@std@@UAEPAXI@Z			; std::bad_alloc::`scalar deleting destructor'
PUBLIC	??0bad_array_new_length@std@@QAE@XZ		; std::bad_array_new_length::bad_array_new_length
PUBLIC	??1bad_array_new_length@std@@UAE@XZ		; std::bad_array_new_length::~bad_array_new_length
PUBLIC	??0bad_array_new_length@std@@QAE@ABV01@@Z	; std::bad_array_new_length::bad_array_new_length
PUBLIC	??_Gbad_array_new_length@std@@UAEPAXI@Z		; std::bad_array_new_length::`scalar deleting destructor'
PUBLIC	?_Throw_bad_array_new_length@std@@YAXXZ		; std::_Throw_bad_array_new_length
PUBLIC	??$_Allocate_manually_vector_aligned@U_Default_allocate_traits@std@@@std@@YAPAXI@Z ; std::_Allocate_manually_vector_aligned<std::_Default_allocate_traits>
PUBLIC	??1?$vector@UD3DXVECTOR3@@V?$allocator@UD3DXVECTOR3@@@std@@@std@@QAE@XZ ; std::vector<D3DXVECTOR3,std::allocator<D3DXVECTOR3> >::~vector<D3DXVECTOR3,std::allocator<D3DXVECTOR3> >
PUBLIC	?_Xlength@?$vector@UD3DXVECTOR3@@V?$allocator@UD3DXVECTOR3@@@std@@@std@@CAXXZ ; std::vector<D3DXVECTOR3,std::allocator<D3DXVECTOR3> >::_Xlength
PUBLIC	?Type@CAttributeData@@SAKXZ			; CAttributeData::Type
PUBLIC	??0CAttributeData@@QAE@PBD@Z			; CAttributeData::CAttributeData
PUBLIC	??1CAttributeData@@UAE@XZ			; CAttributeData::~CAttributeData
PUBLIC	?GetCollisionDataVector@CAttributeData@@QBEABV?$vector@VCStaticCollisionData@@V?$allocator@VCStaticCollisionData@@@std@@@std@@XZ ; CAttributeData::GetCollisionDataVector
PUBLIC	?GetHeightDataVector@CAttributeData@@QBEABV?$vector@USHeightData@@V?$allocator@USHeightData@@@std@@@std@@XZ ; CAttributeData::GetHeightDataVector
PUBLIC	?AddCollisionData@CAttributeData@@QAEIABVCStaticCollisionData@@@Z ; CAttributeData::AddCollisionData
PUBLIC	?GetHeightDataCount@CAttributeData@@QBEKXZ	; CAttributeData::GetHeightDataCount
PUBLIC	?GetHeightDataPointer@CAttributeData@@QBEHKPAPBUSHeightData@@@Z ; CAttributeData::GetHeightDataPointer
PUBLIC	?GetMaximizeRadius@CAttributeData@@QAEMXZ	; CAttributeData::GetMaximizeRadius
PUBLIC	?OnLoad@CAttributeData@@MAE_NHPBX@Z		; CAttributeData::OnLoad
PUBLIC	?OnClear@CAttributeData@@MAEXXZ			; CAttributeData::OnClear
PUBLIC	?OnIsEmpty@CAttributeData@@MBE_NXZ		; CAttributeData::OnIsEmpty
PUBLIC	?OnIsType@CAttributeData@@MAE_NK@Z		; CAttributeData::OnIsType
PUBLIC	?OnSelfDestruct@CAttributeData@@MAEXXZ		; CAttributeData::OnSelfDestruct
PUBLIC	??1?$vector@VCStaticCollisionData@@V?$allocator@VCStaticCollisionData@@@std@@@std@@QAE@XZ ; std::vector<CStaticCollisionData,std::allocator<CStaticCollisionData> >::~vector<CStaticCollisionData,std::allocator<CStaticCollisionData> >
PUBLIC	?_Change_array@?$vector@VCStaticCollisionData@@V?$allocator@VCStaticCollisionData@@@std@@@std@@AAEXQAVCStaticCollisionData@@II@Z ; std::vector<CStaticCollisionData,std::allocator<CStaticCollisionData> >::_Change_array
PUBLIC	?_Xlength@?$vector@VCStaticCollisionData@@V?$allocator@VCStaticCollisionData@@@std@@@std@@CAXXZ ; std::vector<CStaticCollisionData,std::allocator<CStaticCollisionData> >::_Xlength
PUBLIC	??1?$vector@USHeightData@@V?$allocator@USHeightData@@@std@@@std@@QAE@XZ ; std::vector<SHeightData,std::allocator<SHeightData> >::~vector<SHeightData,std::allocator<SHeightData> >
PUBLIC	?_Ufill@?$vector@USHeightData@@V?$allocator@USHeightData@@@std@@@std@@AAEPAUSHeightData@@PAU3@IU_Value_init_tag@2@@Z ; std::vector<SHeightData,std::allocator<SHeightData> >::_Ufill
PUBLIC	?_Xlength@?$vector@USHeightData@@V?$allocator@USHeightData@@@std@@@std@@CAXXZ ; std::vector<SHeightData,std::allocator<SHeightData> >::_Xlength
PUBLIC	??_GCAttributeData@@UAEPAXI@Z			; CAttributeData::`scalar deleting destructor'
PUBLIC	??$_Emplace_reallocate@ABVCStaticCollisionData@@@?$vector@VCStaticCollisionData@@V?$allocator@VCStaticCollisionData@@@std@@@std@@QAEPAVCStaticCollisionData@@QAV2@ABV2@@Z ; std::vector<CStaticCollisionData,std::allocator<CStaticCollisionData> >::_Emplace_reallocate<CStaticCollisionData const &>
PUBLIC	??$_Resize_reallocate@U_Value_init_tag@std@@@?$vector@USHeightData@@V?$allocator@USHeightData@@@std@@@std@@AAEXIABU_Value_init_tag@1@@Z ; std::vector<SHeightData,std::allocator<SHeightData> >::_Resize_reallocate<std::_Value_init_tag>
PUBLIC	??$_Resize_reallocate@U_Value_init_tag@std@@@?$vector@VCStaticCollisionData@@V?$allocator@VCStaticCollisionData@@@std@@@std@@AAEXIABU_Value_init_tag@1@@Z ; std::vector<CStaticCollisionData,std::allocator<CStaticCollisionData> >::_Resize_reallocate<std::_Value_init_tag>
PUBLIC	??$_Resize_reallocate@U_Value_init_tag@std@@@?$vector@UD3DXVECTOR3@@V?$allocator@UD3DXVECTOR3@@@std@@@std@@AAEXIABU_Value_init_tag@1@@Z ; std::vector<D3DXVECTOR3,std::allocator<D3DXVECTOR3> >::_Resize_reallocate<std::_Value_init_tag>
PUBLIC	??$_Uninitialized_move@PAVCStaticCollisionData@@V?$allocator@VCStaticCollisionData@@@std@@@std@@YAPAVCStaticCollisionData@@QAV1@0PAV1@AAV?$allocator@VCStaticCollisionData@@@0@@Z ; std::_Uninitialized_move<CStaticCollisionData *,std::allocator<CStaticCollisionData> >
PUBLIC	??_7exception@std@@6B@				; std::exception::`vftable'
PUBLIC	??_C@_0BC@EOODALEL@Unknown?5exception@		; `string'
PUBLIC	??_7bad_alloc@std@@6B@				; std::bad_alloc::`vftable'
PUBLIC	??_7bad_array_new_length@std@@6B@		; std::bad_array_new_length::`vftable'
PUBLIC	??_C@_0BF@KINCDENJ@bad?5array?5new?5length@	; `string'
PUBLIC	__TI3?AVbad_array_new_length@std@@
PUBLIC	__CTA3?AVbad_array_new_length@std@@
PUBLIC	??_R0?AVbad_array_new_length@std@@@8		; std::bad_array_new_length `RTTI Type Descriptor'
PUBLIC	__CT??_R0?AVbad_array_new_length@std@@@8??0bad_array_new_length@std@@QAE@ABV01@@Z12
PUBLIC	??_R0?AVbad_alloc@std@@@8			; std::bad_alloc `RTTI Type Descriptor'
PUBLIC	__CT??_R0?AVbad_alloc@std@@@8??0bad_alloc@std@@QAE@ABV01@@Z12
PUBLIC	??_R0?AVexception@std@@@8			; std::exception `RTTI Type Descriptor'
PUBLIC	__CT??_R0?AVexception@std@@@8??0exception@std@@QAE@ABV01@@Z12
PUBLIC	??_R4exception@std@@6B@				; std::exception::`RTTI Complete Object Locator'
PUBLIC	??_R3exception@std@@8				; std::exception::`RTTI Class Hierarchy Descriptor'
PUBLIC	??_R2exception@std@@8				; std::exception::`RTTI Base Class Array'
PUBLIC	??_R1A@?0A@EA@exception@std@@8			; std::exception::`RTTI Base Class Descriptor at (0,-1,0,64)'
PUBLIC	??_R4bad_alloc@std@@6B@				; std::bad_alloc::`RTTI Complete Object Locator'
PUBLIC	??_R3bad_alloc@std@@8				; std::bad_alloc::`RTTI Class Hierarchy Descriptor'
PUBLIC	??_R2bad_alloc@std@@8				; std::bad_alloc::`RTTI Base Class Array'
PUBLIC	??_R1A@?0A@EA@bad_alloc@std@@8			; std::bad_alloc::`RTTI Base Class Descriptor at (0,-1,0,64)'
PUBLIC	??_R4bad_array_new_length@std@@6B@		; std::bad_array_new_length::`RTTI Complete Object Locator'
PUBLIC	??_R3bad_array_new_length@std@@8		; std::bad_array_new_length::`RTTI Class Hierarchy Descriptor'
PUBLIC	??_R2bad_array_new_length@std@@8		; std::bad_array_new_length::`RTTI Base Class Array'
PUBLIC	??_R1A@?0A@EA@bad_array_new_length@std@@8	; std::bad_array_new_length::`RTTI Base Class Descriptor at (0,-1,0,64)'
PUBLIC	??_7CAttributeData@@6B@				; CAttributeData::`vftable'
PUBLIC	??_C@_0P@COGNDLAI@CAttributeData@		; `string'
PUBLIC	??_C@_0BA@FOIKENOD@vector?5too?5long@		; `string'
PUBLIC	??_R4CAttributeData@@6B@			; CAttributeData::`RTTI Complete Object Locator'
PUBLIC	??_R0?AVCAttributeData@@@8			; CAttributeData `RTTI Type Descriptor'
PUBLIC	??_R3CAttributeData@@8				; CAttributeData::`RTTI Class Hierarchy Descriptor'
PUBLIC	??_R2CAttributeData@@8				; CAttributeData::`RTTI Base Class Array'
PUBLIC	??_R1A@?0A@EA@CAttributeData@@8			; CAttributeData::`RTTI Base Class Descriptor at (0,-1,0,64)'
PUBLIC	??_R1A@?0A@EA@CResource@@8			; CResource::`RTTI Base Class Descriptor at (0,-1,0,64)'
PUBLIC	??_R0?AVCResource@@@8				; CResource `RTTI Type Descriptor'
PUBLIC	??_R3CResource@@8				; CResource::`RTTI Class Hierarchy Descriptor'
PUBLIC	??_R2CResource@@8				; CResource::`RTTI Base Class Array'
PUBLIC	??_R1A@?0A@EA@CReferenceObject@@8		; CReferenceObject::`RTTI Base Class Descriptor at (0,-1,0,64)'
PUBLIC	??_R0?AVCReferenceObject@@@8			; CReferenceObject `RTTI Type Descriptor'
PUBLIC	??_R3CReferenceObject@@8			; CReferenceObject::`RTTI Class Hierarchy Descriptor'
PUBLIC	??_R2CReferenceObject@@8			; CReferenceObject::`RTTI Base Class Array'
PUBLIC	__real@4049000000000000
PUBLIC	__xmm@7fffffffffffffff7fffffffffffffff
EXTRN	??2@YAPAXI@Z:PROC				; operator new
EXTRN	??3@YAXPAXI@Z:PROC				; operator delete
EXTRN	__Init_thread_header:PROC
EXTRN	__Init_thread_abort:PROC
EXTRN	__Init_thread_footer:PROC
EXTRN	__invalid_parameter_noinfo_noreturn:PROC
EXTRN	___std_exception_copy:PROC
EXTRN	___std_exception_destroy:PROC
EXTRN	??_Eexception@std@@UAEPAXI@Z:PROC		; std::exception::`vector deleting destructor'
EXTRN	??_Ebad_alloc@std@@UAEPAXI@Z:PROC		; std::bad_alloc::`vector deleting destructor'
EXTRN	??_Ebad_array_new_length@std@@UAEPAXI@Z:PROC	; std::bad_array_new_length::`vector deleting destructor'
EXTRN	?_Xlength_error@std@@YAXPBD@Z:PROC		; std::_Xlength_error
EXTRN	?fMAX@@YAMMM@Z:PROC				; fMAX
EXTRN	?Clear@CResource@@QAEXXZ:PROC			; CResource::Clear
EXTRN	?StringToType@CResource@@SAKPBD@Z:PROC		; CResource::StringToType
EXTRN	?CreateDeviceObjects@CResource@@UAE_NXZ:PROC	; CResource::CreateDeviceObjects
EXTRN	?DestroyDeviceObjects@CResource@@UAEXXZ:PROC	; CResource::DestroyDeviceObjects
EXTRN	??0CResource@@QAE@PBD@Z:PROC			; CResource::CResource
EXTRN	??1CResource@@UAE@XZ:PROC			; CResource::~CResource
EXTRN	?OnIsType@CResource@@MAE_NK@Z:PROC		; CResource::OnIsType
EXTRN	?OnConstruct@CResource@@MAEXXZ:PROC		; CResource::OnConstruct
EXTRN	??_ECAttributeData@@UAEPAXI@Z:PROC		; CAttributeData::`vector deleting destructor'
EXTRN	@__security_check_cookie@4:PROC
EXTRN	__CxxThrowException@8:PROC
EXTRN	___CxxFrameHandler3:PROC
EXTRN	_memcpy:PROC
EXTRN	_memset:PROC
EXTRN	__Init_thread_epoch:DWORD
EXTRN	??_7type_info@@6B@:QWORD			; type_info::`vftable'
EXTRN	___security_cookie:DWORD
EXTRN	__fltused:DWORD
EXTRN	__tls_array:DWORD
EXTRN	__tls_index:DWORD
;	COMDAT ?s_type@?1??Type@CAttributeData@@SAKXZ@4KA
_BSS	SEGMENT
?s_type@?1??Type@CAttributeData@@SAKXZ@4KA DD 01H DUP (?) ; `CAttributeData::Type'::`2'::s_type
_BSS	ENDS
;	COMDAT ?$TSS0@?1??Type@CAttributeData@@SAKXZ@4HA
_BSS	SEGMENT
?$TSS0@?1??Type@CAttributeData@@SAKXZ@4HA DD 01H DUP (?) ; `CAttributeData::Type'::`2'::$TSS0
_BSS	ENDS
;	COMDAT __xmm@7fffffffffffffff7fffffffffffffff
CONST	SEGMENT
__xmm@7fffffffffffffff7fffffffffffffff DB 0ffH, 0ffH, 0ffH, 0ffH, 0ffH, 0ffH
	DB	0ffH, 07fH, 0ffH, 0ffH, 0ffH, 0ffH, 0ffH, 0ffH, 0ffH, 07fH
CONST	ENDS
;	COMDAT __real@4049000000000000
CONST	SEGMENT
__real@4049000000000000 DQ 04049000000000000r	; 50
CONST	ENDS
;	COMDAT ??_R2CReferenceObject@@8
rdata$r	SEGMENT
??_R2CReferenceObject@@8 DD FLAT:??_R1A@?0A@EA@CReferenceObject@@8 ; CReferenceObject::`RTTI Base Class Array'
rdata$r	ENDS
;	COMDAT ??_R3CReferenceObject@@8
rdata$r	SEGMENT
??_R3CReferenceObject@@8 DD 00H				; CReferenceObject::`RTTI Class Hierarchy Descriptor'
	DD	00H
	DD	01H
	DD	FLAT:??_R2CReferenceObject@@8
rdata$r	ENDS
;	COMDAT ??_R0?AVCReferenceObject@@@8
data$rs	SEGMENT
??_R0?AVCReferenceObject@@@8 DD FLAT:??_7type_info@@6B@	; CReferenceObject `RTTI Type Descriptor'
	DD	00H
	DB	'.?AVCReferenceObject@@', 00H
data$rs	ENDS
;	COMDAT ??_R1A@?0A@EA@CReferenceObject@@8
rdata$r	SEGMENT
??_R1A@?0A@EA@CReferenceObject@@8 DD FLAT:??_R0?AVCReferenceObject@@@8 ; CReferenceObject::`RTTI Base Class Descriptor at (0,-1,0,64)'
	DD	00H
	DD	00H
	DD	0ffffffffH
	DD	00H
	DD	040H
	DD	FLAT:??_R3CReferenceObject@@8
rdata$r	ENDS
;	COMDAT ??_R2CResource@@8
rdata$r	SEGMENT
??_R2CResource@@8 DD FLAT:??_R1A@?0A@EA@CResource@@8	; CResource::`RTTI Base Class Array'
	DD	FLAT:??_R1A@?0A@EA@CReferenceObject@@8
rdata$r	ENDS
;	COMDAT ??_R3CResource@@8
rdata$r	SEGMENT
??_R3CResource@@8 DD 00H				; CResource::`RTTI Class Hierarchy Descriptor'
	DD	00H
	DD	02H
	DD	FLAT:??_R2CResource@@8
rdata$r	ENDS
;	COMDAT ??_R0?AVCResource@@@8
data$rs	SEGMENT
??_R0?AVCResource@@@8 DD FLAT:??_7type_info@@6B@	; CResource `RTTI Type Descriptor'
	DD	00H
	DB	'.?AVCResource@@', 00H
data$rs	ENDS
;	COMDAT ??_R1A@?0A@EA@CResource@@8
rdata$r	SEGMENT
??_R1A@?0A@EA@CResource@@8 DD FLAT:??_R0?AVCResource@@@8 ; CResource::`RTTI Base Class Descriptor at (0,-1,0,64)'
	DD	01H
	DD	00H
	DD	0ffffffffH
	DD	00H
	DD	040H
	DD	FLAT:??_R3CResource@@8
rdata$r	ENDS
;	COMDAT ??_R1A@?0A@EA@CAttributeData@@8
rdata$r	SEGMENT
??_R1A@?0A@EA@CAttributeData@@8 DD FLAT:??_R0?AVCAttributeData@@@8 ; CAttributeData::`RTTI Base Class Descriptor at (0,-1,0,64)'
	DD	02H
	DD	00H
	DD	0ffffffffH
	DD	00H
	DD	040H
	DD	FLAT:??_R3CAttributeData@@8
rdata$r	ENDS
;	COMDAT ??_R2CAttributeData@@8
rdata$r	SEGMENT
??_R2CAttributeData@@8 DD FLAT:??_R1A@?0A@EA@CAttributeData@@8 ; CAttributeData::`RTTI Base Class Array'
	DD	FLAT:??_R1A@?0A@EA@CResource@@8
	DD	FLAT:??_R1A@?0A@EA@CReferenceObject@@8
rdata$r	ENDS
;	COMDAT ??_R3CAttributeData@@8
rdata$r	SEGMENT
??_R3CAttributeData@@8 DD 00H				; CAttributeData::`RTTI Class Hierarchy Descriptor'
	DD	00H
	DD	03H
	DD	FLAT:??_R2CAttributeData@@8
rdata$r	ENDS
;	COMDAT ??_R0?AVCAttributeData@@@8
data$rs	SEGMENT
??_R0?AVCAttributeData@@@8 DD FLAT:??_7type_info@@6B@	; CAttributeData `RTTI Type Descriptor'
	DD	00H
	DB	'.?AVCAttributeData@@', 00H
data$rs	ENDS
;	COMDAT ??_R4CAttributeData@@6B@
rdata$r	SEGMENT
??_R4CAttributeData@@6B@ DD 00H				; CAttributeData::`RTTI Complete Object Locator'
	DD	00H
	DD	00H
	DD	FLAT:??_R0?AVCAttributeData@@@8
	DD	FLAT:??_R3CAttributeData@@8
rdata$r	ENDS
;	COMDAT ??_C@_0BA@FOIKENOD@vector?5too?5long@
CONST	SEGMENT
??_C@_0BA@FOIKENOD@vector?5too?5long@ DB 'vector too long', 00H ; `string'
CONST	ENDS
;	COMDAT ??_C@_0P@COGNDLAI@CAttributeData@
CONST	SEGMENT
??_C@_0P@COGNDLAI@CAttributeData@ DB 'CAttributeData', 00H ; `string'
CONST	ENDS
;	COMDAT ??_7CAttributeData@@6B@
CONST	SEGMENT
??_7CAttributeData@@6B@ DD FLAT:??_R4CAttributeData@@6B@ ; CAttributeData::`vftable'
	DD	FLAT:??_ECAttributeData@@UAEPAXI@Z
	DD	FLAT:?OnConstruct@CResource@@MAEXXZ
	DD	FLAT:?OnSelfDestruct@CAttributeData@@MAEXXZ
	DD	FLAT:?CreateDeviceObjects@CResource@@UAE_NXZ
	DD	FLAT:?DestroyDeviceObjects@CResource@@UAEXXZ
	DD	FLAT:?OnLoad@CAttributeData@@MAE_NHPBX@Z
	DD	FLAT:?OnClear@CAttributeData@@MAEXXZ
	DD	FLAT:?OnIsEmpty@CAttributeData@@MBE_NXZ
	DD	FLAT:?OnIsType@CAttributeData@@MAE_NK@Z
CONST	ENDS
;	COMDAT ??_R1A@?0A@EA@bad_array_new_length@std@@8
rdata$r	SEGMENT
??_R1A@?0A@EA@bad_array_new_length@std@@8 DD FLAT:??_R0?AVbad_array_new_length@std@@@8 ; std::bad_array_new_length::`RTTI Base Class Descriptor at (0,-1,0,64)'
	DD	02H
	DD	00H
	DD	0ffffffffH
	DD	00H
	DD	040H
	DD	FLAT:??_R3bad_array_new_length@std@@8
rdata$r	ENDS
;	COMDAT ??_R2bad_array_new_length@std@@8
rdata$r	SEGMENT
??_R2bad_array_new_length@std@@8 DD FLAT:??_R1A@?0A@EA@bad_array_new_length@std@@8 ; std::bad_array_new_length::`RTTI Base Class Array'
	DD	FLAT:??_R1A@?0A@EA@bad_alloc@std@@8
	DD	FLAT:??_R1A@?0A@EA@exception@std@@8
rdata$r	ENDS
;	COMDAT ??_R3bad_array_new_length@std@@8
rdata$r	SEGMENT
??_R3bad_array_new_length@std@@8 DD 00H			; std::bad_array_new_length::`RTTI Class Hierarchy Descriptor'
	DD	00H
	DD	03H
	DD	FLAT:??_R2bad_array_new_length@std@@8
rdata$r	ENDS
;	COMDAT ??_R4bad_array_new_length@std@@6B@
rdata$r	SEGMENT
??_R4bad_array_new_length@std@@6B@ DD 00H		; std::bad_array_new_length::`RTTI Complete Object Locator'
	DD	00H
	DD	00H
	DD	FLAT:??_R0?AVbad_array_new_length@std@@@8
	DD	FLAT:??_R3bad_array_new_length@std@@8
rdata$r	ENDS
;	COMDAT ??_R1A@?0A@EA@bad_alloc@std@@8
rdata$r	SEGMENT
??_R1A@?0A@EA@bad_alloc@std@@8 DD FLAT:??_R0?AVbad_alloc@std@@@8 ; std::bad_alloc::`RTTI Base Class Descriptor at (0,-1,0,64)'
	DD	01H
	DD	00H
	DD	0ffffffffH
	DD	00H
	DD	040H
	DD	FLAT:??_R3bad_alloc@std@@8
rdata$r	ENDS
;	COMDAT ??_R2bad_alloc@std@@8
rdata$r	SEGMENT
??_R2bad_alloc@std@@8 DD FLAT:??_R1A@?0A@EA@bad_alloc@std@@8 ; std::bad_alloc::`RTTI Base Class Array'
	DD	FLAT:??_R1A@?0A@EA@exception@std@@8
rdata$r	ENDS
;	COMDAT ??_R3bad_alloc@std@@8
rdata$r	SEGMENT
??_R3bad_alloc@std@@8 DD 00H				; std::bad_alloc::`RTTI Class Hierarchy Descriptor'
	DD	00H
	DD	02H
	DD	FLAT:??_R2bad_alloc@std@@8
rdata$r	ENDS
;	COMDAT ??_R4bad_alloc@std@@6B@
rdata$r	SEGMENT
??_R4bad_alloc@std@@6B@ DD 00H				; std::bad_alloc::`RTTI Complete Object Locator'
	DD	00H
	DD	00H
	DD	FLAT:??_R0?AVbad_alloc@std@@@8
	DD	FLAT:??_R3bad_alloc@std@@8
rdata$r	ENDS
;	COMDAT ??_R1A@?0A@EA@exception@std@@8
rdata$r	SEGMENT
??_R1A@?0A@EA@exception@std@@8 DD FLAT:??_R0?AVexception@std@@@8 ; std::exception::`RTTI Base Class Descriptor at (0,-1,0,64)'
	DD	00H
	DD	00H
	DD	0ffffffffH
	DD	00H
	DD	040H
	DD	FLAT:??_R3exception@std@@8
rdata$r	ENDS
;	COMDAT ??_R2exception@std@@8
rdata$r	SEGMENT
??_R2exception@std@@8 DD FLAT:??_R1A@?0A@EA@exception@std@@8 ; std::exception::`RTTI Base Class Array'
rdata$r	ENDS
;	COMDAT ??_R3exception@std@@8
rdata$r	SEGMENT
??_R3exception@std@@8 DD 00H				; std::exception::`RTTI Class Hierarchy Descriptor'
	DD	00H
	DD	01H
	DD	FLAT:??_R2exception@std@@8
rdata$r	ENDS
;	COMDAT ??_R4exception@std@@6B@
rdata$r	SEGMENT
??_R4exception@std@@6B@ DD 00H				; std::exception::`RTTI Complete Object Locator'
	DD	00H
	DD	00H
	DD	FLAT:??_R0?AVexception@std@@@8
	DD	FLAT:??_R3exception@std@@8
rdata$r	ENDS
;	COMDAT __CT??_R0?AVexception@std@@@8??0exception@std@@QAE@ABV01@@Z12
xdata$x	SEGMENT
__CT??_R0?AVexception@std@@@8??0exception@std@@QAE@ABV01@@Z12 DD 00H
	DD	FLAT:??_R0?AVexception@std@@@8
	DD	00H
	DD	0ffffffffH
	ORG $+4
	DD	0cH
	DD	FLAT:??0exception@std@@QAE@ABV01@@Z
xdata$x	ENDS
;	COMDAT ??_R0?AVexception@std@@@8
data$r	SEGMENT
??_R0?AVexception@std@@@8 DD FLAT:??_7type_info@@6B@	; std::exception `RTTI Type Descriptor'
	DD	00H
	DB	'.?AVexception@std@@', 00H
data$r	ENDS
;	COMDAT __CT??_R0?AVbad_alloc@std@@@8??0bad_alloc@std@@QAE@ABV01@@Z12
xdata$x	SEGMENT
__CT??_R0?AVbad_alloc@std@@@8??0bad_alloc@std@@QAE@ABV01@@Z12 DD 010H
	DD	FLAT:??_R0?AVbad_alloc@std@@@8
	DD	00H
	DD	0ffffffffH
	ORG $+4
	DD	0cH
	DD	FLAT:??0bad_alloc@std@@QAE@ABV01@@Z
xdata$x	ENDS
;	COMDAT ??_R0?AVbad_alloc@std@@@8
data$r	SEGMENT
??_R0?AVbad_alloc@std@@@8 DD FLAT:??_7type_info@@6B@	; std::bad_alloc `RTTI Type Descriptor'
	DD	00H
	DB	'.?AVbad_alloc@std@@', 00H
data$r	ENDS
;	COMDAT __CT??_R0?AVbad_array_new_length@std@@@8??0bad_array_new_length@std@@QAE@ABV01@@Z12
xdata$x	SEGMENT
__CT??_R0?AVbad_array_new_length@std@@@8??0bad_array_new_length@std@@QAE@ABV01@@Z12 DD 00H
	DD	FLAT:??_R0?AVbad_array_new_length@std@@@8
	DD	00H
	DD	0ffffffffH
	ORG $+4
	DD	0cH
	DD	FLAT:??0bad_array_new_length@std@@QAE@ABV01@@Z
xdata$x	ENDS
;	COMDAT ??_R0?AVbad_array_new_length@std@@@8
data$r	SEGMENT
??_R0?AVbad_array_new_length@std@@@8 DD FLAT:??_7type_info@@6B@ ; std::bad_array_new_length `RTTI Type Descriptor'
	DD	00H
	DB	'.?AVbad_array_new_length@std@@', 00H
data$r	ENDS
;	COMDAT __CTA3?AVbad_array_new_length@std@@
xdata$x	SEGMENT
__CTA3?AVbad_array_new_length@std@@ DD 03H
	DD	FLAT:__CT??_R0?AVbad_array_new_length@std@@@8??0bad_array_new_length@std@@QAE@ABV01@@Z12
	DD	FLAT:__CT??_R0?AVbad_alloc@std@@@8??0bad_alloc@std@@QAE@ABV01@@Z12
	DD	FLAT:__CT??_R0?AVexception@std@@@8??0exception@std@@QAE@ABV01@@Z12
xdata$x	ENDS
;	COMDAT __TI3?AVbad_array_new_length@std@@
xdata$x	SEGMENT
__TI3?AVbad_array_new_length@std@@ DD 00H
	DD	FLAT:??1bad_array_new_length@std@@UAE@XZ
	DD	00H
	DD	FLAT:__CTA3?AVbad_array_new_length@std@@
xdata$x	ENDS
;	COMDAT ??_C@_0BF@KINCDENJ@bad?5array?5new?5length@
CONST	SEGMENT
??_C@_0BF@KINCDENJ@bad?5array?5new?5length@ DB 'bad array new length', 00H ; `string'
CONST	ENDS
;	COMDAT ??_7bad_array_new_length@std@@6B@
CONST	SEGMENT
??_7bad_array_new_length@std@@6B@ DD FLAT:??_R4bad_array_new_length@std@@6B@ ; std::bad_array_new_length::`vftable'
	DD	FLAT:??_Ebad_array_new_length@std@@UAEPAXI@Z
	DD	FLAT:?what@exception@std@@UBEPBDXZ
CONST	ENDS
;	COMDAT ??_7bad_alloc@std@@6B@
CONST	SEGMENT
??_7bad_alloc@std@@6B@ DD FLAT:??_R4bad_alloc@std@@6B@	; std::bad_alloc::`vftable'
	DD	FLAT:??_Ebad_alloc@std@@UAEPAXI@Z
	DD	FLAT:?what@exception@std@@UBEPBDXZ
CONST	ENDS
;	COMDAT ??_C@_0BC@EOODALEL@Unknown?5exception@
CONST	SEGMENT
??_C@_0BC@EOODALEL@Unknown?5exception@ DB 'Unknown exception', 00H ; `string'
CONST	ENDS
;	COMDAT ??_7exception@std@@6B@
CONST	SEGMENT
??_7exception@std@@6B@ DD FLAT:??_R4exception@std@@6B@	; std::exception::`vftable'
	DD	FLAT:??_Eexception@std@@UAEPAXI@Z
	DD	FLAT:?what@exception@std@@UBEPBDXZ
CONST	ENDS
;	COMDAT xdata$x
xdata$x	SEGMENT
__unwindtable$?Type@CAttributeData@@SAKXZ DD 0ffffffffH
	DD	FLAT:__unwindfunclet$?Type@CAttributeData@@SAKXZ$0
__ehfuncinfo$?Type@CAttributeData@@SAKXZ DD 019930522H
	DD	01H
	DD	FLAT:__unwindtable$?Type@CAttributeData@@SAKXZ
	DD	2 DUP(00H)
	DD	2 DUP(00H)
	DD	00H
	DD	01H
xdata$x	ENDS
; Function compile flags: /Ogtp
; File C:\Program Files (x86)\Microsoft Visual Studio\2019\Professional\VC\Tools\MSVC\14.29.30133\include\xmemory
;	COMDAT ??$_Uninitialized_move@PAVCStaticCollisionData@@V?$allocator@VCStaticCollisionData@@@std@@@std@@YAPAVCStaticCollisionData@@QAV1@0PAV1@AAV?$allocator@VCStaticCollisionData@@@0@@Z
_TEXT	SEGMENT
__First$ = 8						; size = 4
__Last$ = 12						; size = 4
__Dest$ = 16						; size = 4
__Al$ = 20						; size = 4
??$_Uninitialized_move@PAVCStaticCollisionData@@V?$allocator@VCStaticCollisionData@@@std@@@std@@YAPAVCStaticCollisionData@@QAV1@0PAV1@AAV?$allocator@VCStaticCollisionData@@@0@@Z PROC ; std::_Uninitialized_move<CStaticCollisionData *,std::allocator<CStaticCollisionData> >, COMDAT

; 1713 :     const _InIt _First, const _InIt _Last, _Alloc_ptr_t<_Alloc> _Dest, _Alloc& _Al) {

  00000	55		 push	 ebp
  00001	8b ec		 mov	 ebp, esp

; 1714 :     // move [_First, _Last) to raw _Dest, using _Al
; 1715 :     // note: only called internally from elsewhere in the STL
; 1716 :     using _Ptrval     = typename _Alloc::value_type*;
; 1717 :     auto _UFirst      = _Get_unwrapped(_First);
; 1718 :     const auto _ULast = _Get_unwrapped(_Last);
; 1719 :     if constexpr (conjunction_v<bool_constant<_Ptr_move_cat<decltype(_UFirst), _Ptrval>::_Really_trivial>,
; 1720 :                       _Uses_default_construct<_Alloc, _Ptrval, decltype(_STD move(*_UFirst))>>) {
; 1721 : #ifdef __cpp_lib_constexpr_dynamic_alloc
; 1722 :         if (!_STD is_constant_evaluated())
; 1723 : #endif // __cpp_lib_constexpr_dynamic_alloc
; 1724 :         {
; 1725 :             _Copy_memmove(_UFirst, _ULast, _Unfancy(_Dest));
; 1726 :             return _Dest + (_ULast - _UFirst);
; 1727 :         }
; 1728 :     }
; 1729 : 
; 1730 :     _Uninitialized_backout_al<_Alloc> _Backout{_Dest, _Al};
; 1731 :     for (; _UFirst != _ULast; ++_UFirst) {

  00003	8b 4d 08	 mov	 ecx, DWORD PTR __First$[ebp]
  00006	8b 55 0c	 mov	 edx, DWORD PTR __Last$[ebp]

; 1620 :         : _First(_Dest), _Last(_Dest), _Al(_Al_) {}

  00009	8b 45 10	 mov	 eax, DWORD PTR __Dest$[ebp]

; 1714 :     // move [_First, _Last) to raw _Dest, using _Al
; 1715 :     // note: only called internally from elsewhere in the STL
; 1716 :     using _Ptrval     = typename _Alloc::value_type*;
; 1717 :     auto _UFirst      = _Get_unwrapped(_First);
; 1718 :     const auto _ULast = _Get_unwrapped(_Last);
; 1719 :     if constexpr (conjunction_v<bool_constant<_Ptr_move_cat<decltype(_UFirst), _Ptrval>::_Really_trivial>,
; 1720 :                       _Uses_default_construct<_Alloc, _Ptrval, decltype(_STD move(*_UFirst))>>) {
; 1721 : #ifdef __cpp_lib_constexpr_dynamic_alloc
; 1722 :         if (!_STD is_constant_evaluated())
; 1723 : #endif // __cpp_lib_constexpr_dynamic_alloc
; 1724 :         {
; 1725 :             _Copy_memmove(_UFirst, _ULast, _Unfancy(_Dest));
; 1726 :             return _Dest + (_ULast - _UFirst);
; 1727 :         }
; 1728 :     }
; 1729 : 
; 1730 :     _Uninitialized_backout_al<_Alloc> _Backout{_Dest, _Al};
; 1731 :     for (; _UFirst != _ULast; ++_UFirst) {

  0000c	3b ca		 cmp	 ecx, edx
  0000e	74 30		 je	 SHORT $LN3@Uninitiali
$LL4@Uninitiali:

; 714  :             ::new (_Voidify_iter(_Ptr)) _Objty(_STD forward<_Types>(_Args)...);

  00010	0f 10 01	 movups	 xmm0, XMMWORD PTR [ecx]
  00013	0f 11 00	 movups	 XMMWORD PTR [eax], xmm0
  00016	0f 10 41 10	 movups	 xmm0, XMMWORD PTR [ecx+16]
  0001a	0f 11 40 10	 movups	 XMMWORD PTR [eax+16], xmm0
  0001e	0f 10 41 20	 movups	 xmm0, XMMWORD PTR [ecx+32]
  00022	0f 11 40 20	 movups	 XMMWORD PTR [eax+32], xmm0
  00026	0f 10 41 30	 movups	 xmm0, XMMWORD PTR [ecx+48]
  0002a	0f 11 40 30	 movups	 XMMWORD PTR [eax+48], xmm0
  0002e	0f 10 41 40	 movups	 xmm0, XMMWORD PTR [ecx+64]

; 1632 :         ++_Last;

  00032	83 c1 50	 add	 ecx, 80			; 00000050H

; 714  :             ::new (_Voidify_iter(_Ptr)) _Objty(_STD forward<_Types>(_Args)...);

  00035	0f 11 40 40	 movups	 XMMWORD PTR [eax+64], xmm0

; 1632 :         ++_Last;

  00039	83 c0 50	 add	 eax, 80			; 00000050H

; 1714 :     // move [_First, _Last) to raw _Dest, using _Al
; 1715 :     // note: only called internally from elsewhere in the STL
; 1716 :     using _Ptrval     = typename _Alloc::value_type*;
; 1717 :     auto _UFirst      = _Get_unwrapped(_First);
; 1718 :     const auto _ULast = _Get_unwrapped(_Last);
; 1719 :     if constexpr (conjunction_v<bool_constant<_Ptr_move_cat<decltype(_UFirst), _Ptrval>::_Really_trivial>,
; 1720 :                       _Uses_default_construct<_Alloc, _Ptrval, decltype(_STD move(*_UFirst))>>) {
; 1721 : #ifdef __cpp_lib_constexpr_dynamic_alloc
; 1722 :         if (!_STD is_constant_evaluated())
; 1723 : #endif // __cpp_lib_constexpr_dynamic_alloc
; 1724 :         {
; 1725 :             _Copy_memmove(_UFirst, _ULast, _Unfancy(_Dest));
; 1726 :             return _Dest + (_ULast - _UFirst);
; 1727 :         }
; 1728 :     }
; 1729 : 
; 1730 :     _Uninitialized_backout_al<_Alloc> _Backout{_Dest, _Al};
; 1731 :     for (; _UFirst != _ULast; ++_UFirst) {

  0003c	3b ca		 cmp	 ecx, edx
  0003e	75 d0		 jne	 SHORT $LL4@Uninitiali
$LN3@Uninitiali:

; 1732 :         _Backout._Emplace_back(_STD move(*_UFirst));
; 1733 :     }
; 1734 : 
; 1735 :     return _Backout._Release();
; 1736 : }

  00040	5d		 pop	 ebp
  00041	c3		 ret	 0
??$_Uninitialized_move@PAVCStaticCollisionData@@V?$allocator@VCStaticCollisionData@@@std@@@std@@YAPAVCStaticCollisionData@@QAV1@0PAV1@AAV?$allocator@VCStaticCollisionData@@@0@@Z ENDP ; std::_Uninitialized_move<CStaticCollisionData *,std::allocator<CStaticCollisionData> >
_TEXT	ENDS
; Function compile flags: /Ogtp
; File C:\Program Files (x86)\Microsoft Visual Studio\2019\Professional\VC\Tools\MSVC\14.29.30133\include\vector
; File C:\Program Files (x86)\Microsoft Visual Studio\2019\Professional\VC\Tools\MSVC\14.29.30133\include\xmemory
; File C:\Program Files (x86)\Microsoft Visual Studio\2019\Professional\VC\Tools\MSVC\14.29.30133\include\vector
; File C:\Program Files (x86)\Microsoft Visual Studio\2019\Professional\VC\Tools\MSVC\14.29.30133\include\xmemory
; File C:\Program Files (x86)\Microsoft Visual Studio\2019\Professional\VC\Tools\MSVC\14.29.30133\include\vector
; File C:\Program Files (x86)\Microsoft Visual Studio\2019\Professional\VC\Tools\MSVC\14.29.30133\include\xmemory
; File C:\Program Files (x86)\Microsoft Visual Studio\2019\Professional\VC\Tools\MSVC\14.29.30133\include\vector
; File C:\Program Files (x86)\Microsoft Visual Studio\2019\Professional\VC\Tools\MSVC\14.29.30133\include\xmemory
; File C:\Program Files (x86)\Microsoft Visual Studio\2019\Professional\VC\Tools\MSVC\14.29.30133\include\vector
; File C:\Program Files (x86)\Microsoft Visual Studio\2019\Professional\VC\Tools\MSVC\14.29.30133\include\xmemory
; File C:\Program Files (x86)\Microsoft Visual Studio\2019\Professional\VC\Tools\MSVC\14.29.30133\include\vector
; File C:\Program Files (x86)\Microsoft Visual Studio\2019\Professional\VC\Tools\MSVC\14.29.30133\include\xmemory
; File C:\Program Files (x86)\Microsoft Visual Studio\2019\Professional\VC\Tools\MSVC\14.29.30133\include\vector
;	COMDAT ??$_Resize_reallocate@U_Value_init_tag@std@@@?$vector@UD3DXVECTOR3@@V?$allocator@UD3DXVECTOR3@@@std@@@std@@AAEXIABU_Value_init_tag@1@@Z
_TEXT	SEGMENT
$T2 = -4						; size = 4
__Newsize$ = 8						; size = 4
__Val$ = 12						; size = 4
??$_Resize_reallocate@U_Value_init_tag@std@@@?$vector@UD3DXVECTOR3@@V?$allocator@UD3DXVECTOR3@@@std@@@std@@AAEXIABU_Value_init_tag@1@@Z PROC ; std::vector<D3DXVECTOR3,std::allocator<D3DXVECTOR3> >::_Resize_reallocate<std::_Value_init_tag>, COMDAT
; _this$ = ecx

; 1229 :     _CONSTEXPR20_CONTAINER void _Resize_reallocate(const size_type _Newsize, const _Ty2& _Val) {

  00000	55		 push	 ebp
  00001	8b ec		 mov	 ebp, esp
  00003	83 ec 08	 sub	 esp, 8
  00006	53		 push	 ebx
  00007	56		 push	 esi

; 1230 :         if (_Newsize > max_size()) {

  00008	8b 75 08	 mov	 esi, DWORD PTR __Newsize$[ebp]
  0000b	8b d9		 mov	 ebx, ecx
  0000d	57		 push	 edi
  0000e	81 fe 55 55 55
	15		 cmp	 esi, 357913941		; 15555555H
  00014	0f 87 1c 01 00
	00		 ja	 $LN92@Resize_rea

; 1559 :         return static_cast<size_type>(_My_data._Myend - _My_data._Myfirst);

  0001a	8b 4b 08	 mov	 ecx, DWORD PTR [ebx+8]
  0001d	b8 ab aa aa 2a	 mov	 eax, 715827883		; 2aaaaaabH
  00022	2b 0b		 sub	 ecx, DWORD PTR [ebx]
  00024	f7 e9		 imul	 ecx

; 1688 :         if (_Oldcapacity > _Max - _Oldcapacity / 2) {

  00026	b8 55 55 55 15	 mov	 eax, 357913941		; 15555555H

; 1559 :         return static_cast<size_type>(_My_data._Myend - _My_data._Myfirst);

  0002b	d1 fa		 sar	 edx, 1
  0002d	8b ca		 mov	 ecx, edx
  0002f	c1 e9 1f	 shr	 ecx, 31			; 0000001fH
  00032	03 ca		 add	 ecx, edx

; 1688 :         if (_Oldcapacity > _Max - _Oldcapacity / 2) {

  00034	8b d1		 mov	 edx, ecx
  00036	d1 ea		 shr	 edx, 1
  00038	2b c2		 sub	 eax, edx
  0003a	3b c8		 cmp	 ecx, eax
  0003c	76 12		 jbe	 SHORT $LN10@Resize_rea

; 1689 :             return _Max; // geometric growth would overflow

  0003e	bf fc ff ff ff	 mov	 edi, -4			; fffffffcH
; File C:\Program Files (x86)\Microsoft Visual Studio\2019\Professional\VC\Tools\MSVC\14.29.30133\include\xmemory

; 238  :             return _Allocate_manually_vector_aligned<_Traits>(_Bytes);

  00043	57		 push	 edi
  00044	e8 00 00 00 00	 call	 ??$_Allocate_manually_vector_aligned@U_Default_allocate_traits@std@@@std@@YAPAXI@Z ; std::_Allocate_manually_vector_aligned<std::_Default_allocate_traits>
  00049	83 c4 04	 add	 esp, 4
  0004c	8b d0		 mov	 edx, eax
  0004e	eb 47		 jmp	 SHORT $LN90@Resize_rea
$LN10@Resize_rea:
; File C:\Program Files (x86)\Microsoft Visual Studio\2019\Professional\VC\Tools\MSVC\14.29.30133\include\vector

; 1692 :         const size_type _Geometric = _Oldcapacity + _Oldcapacity / 2;

  00050	8d 04 0a	 lea	 eax, DWORD PTR [edx+ecx]

; 1693 : 
; 1694 :         if (_Geometric < _Newsize) {

  00053	3b c6		 cmp	 eax, esi
  00055	73 1d		 jae	 SHORT $LN11@Resize_rea

; 1695 :             return _Newsize; // geometric growth would be insufficient

  00057	8b c6		 mov	 eax, esi
$LN87@Resize_rea:
; File C:\Program Files (x86)\Microsoft Visual Studio\2019\Professional\VC\Tools\MSVC\14.29.30133\include\xmemory

; 69   :     return _Count * _Ty_size;

  00059	8d 3c 40	 lea	 edi, DWORD PTR [eax+eax*2]
  0005c	c1 e7 02	 shl	 edi, 2

; 237  :         if (_Bytes >= _Big_allocation_threshold) { // boost the alignment of big allocations to help autovectorization

  0005f	81 ff 00 10 00
	00		 cmp	 edi, 4096		; 00001000H
  00065	72 1a		 jb	 SHORT $LN22@Resize_rea

; 238  :             return _Allocate_manually_vector_aligned<_Traits>(_Bytes);

  00067	57		 push	 edi
  00068	e8 00 00 00 00	 call	 ??$_Allocate_manually_vector_aligned@U_Default_allocate_traits@std@@@std@@YAPAXI@Z ; std::_Allocate_manually_vector_aligned<std::_Default_allocate_traits>
  0006d	83 c4 04	 add	 esp, 4
  00070	8b d0		 mov	 edx, eax
  00072	eb 23		 jmp	 SHORT $LN90@Resize_rea
$LN11@Resize_rea:

; 64   :         if (_Count > _Max_possible) {

  00074	3d 55 55 55 15	 cmp	 eax, 357913941		; 15555555H
  00079	0f 87 bc 00 00
	00		 ja	 $LN93@Resize_rea
  0007f	eb d8		 jmp	 SHORT $LN87@Resize_rea
$LN22@Resize_rea:

; 243  :     if (_Bytes != 0) {

  00081	85 ff		 test	 edi, edi
  00083	74 10		 je	 SHORT $LN23@Resize_rea

; 85   :         return ::operator new(_Bytes);

  00085	57		 push	 edi
  00086	e8 00 00 00 00	 call	 ??2@YAPAXI@Z		; operator new
  0008b	83 c4 04	 add	 esp, 4

; 244  :         return _Traits::_Allocate(_Bytes);

  0008e	89 45 fc	 mov	 DWORD PTR $T2[ebp], eax
  00091	8b d0		 mov	 edx, eax
  00093	eb 05		 jmp	 SHORT $LN21@Resize_rea
$LN23@Resize_rea:

; 245  :     }
; 246  : 
; 247  :     return nullptr;

  00095	33 d2		 xor	 edx, edx
$LN90@Resize_rea:
; File C:\Program Files (x86)\Microsoft Visual Studio\2019\Professional\VC\Tools\MSVC\14.29.30133\include\vector

; 1247 :         _Umove_if_noexcept(_Myfirst, _Mylast, _Newvec);

  00097	89 55 fc	 mov	 DWORD PTR $T2[ebp], edx
$LN21@Resize_rea:
  0009a	8b 33		 mov	 esi, DWORD PTR [ebx]
; File C:\Program Files (x86)\Microsoft Visual Studio\2019\Professional\VC\Tools\MSVC\14.29.30133\include\xmemory

; 1620 :         : _First(_Dest), _Last(_Dest), _Al(_Al_) {}

  0009c	8b ca		 mov	 ecx, edx

; 1718 :     const auto _ULast = _Get_unwrapped(_Last);

  0009e	8b 43 04	 mov	 eax, DWORD PTR [ebx+4]

; 1719 :     if constexpr (conjunction_v<bool_constant<_Ptr_move_cat<decltype(_UFirst), _Ptrval>::_Really_trivial>,
; 1720 :                       _Uses_default_construct<_Alloc, _Ptrval, decltype(_STD move(*_UFirst))>>) {
; 1721 : #ifdef __cpp_lib_constexpr_dynamic_alloc
; 1722 :         if (!_STD is_constant_evaluated())
; 1723 : #endif // __cpp_lib_constexpr_dynamic_alloc
; 1724 :         {
; 1725 :             _Copy_memmove(_UFirst, _ULast, _Unfancy(_Dest));
; 1726 :             return _Dest + (_ULast - _UFirst);
; 1727 :         }
; 1728 :     }
; 1729 : 
; 1730 :     _Uninitialized_backout_al<_Alloc> _Backout{_Dest, _Al};
; 1731 :     for (; _UFirst != _ULast; ++_UFirst) {

  000a1	3b f0		 cmp	 esi, eax
  000a3	74 29		 je	 SHORT $LN47@Resize_rea
  000a5	8b d0		 mov	 edx, eax
  000a7	66 0f 1f 84 00
	00 00 00 00	 npad	 9
$LL48@Resize_rea:

; 714  :             ::new (_Voidify_iter(_Ptr)) _Objty(_STD forward<_Types>(_Args)...);

  000b0	f3 0f 7e 06	 movq	 xmm0, QWORD PTR [esi]

; 1632 :         ++_Last;

  000b4	8d 49 0c	 lea	 ecx, DWORD PTR [ecx+12]

; 714  :             ::new (_Voidify_iter(_Ptr)) _Objty(_STD forward<_Types>(_Args)...);

  000b7	66 0f d6 41 f4	 movq	 QWORD PTR [ecx-12], xmm0
  000bc	8b 46 08	 mov	 eax, DWORD PTR [esi+8]

; 1731 :     for (; _UFirst != _ULast; ++_UFirst) {

  000bf	83 c6 0c	 add	 esi, 12			; 0000000cH

; 714  :             ::new (_Voidify_iter(_Ptr)) _Objty(_STD forward<_Types>(_Args)...);

  000c2	89 41 fc	 mov	 DWORD PTR [ecx-4], eax

; 1731 :     for (; _UFirst != _ULast; ++_UFirst) {

  000c5	3b f2		 cmp	 esi, edx
  000c7	75 e7		 jne	 SHORT $LL48@Resize_rea
  000c9	8b 33		 mov	 esi, DWORD PTR [ebx]
  000cb	8b 55 fc	 mov	 edx, DWORD PTR $T2[ebp]
$LN47@Resize_rea:
; File C:\Program Files (x86)\Microsoft Visual Studio\2019\Professional\VC\Tools\MSVC\14.29.30133\include\vector

; 1745 :         if (_Myfirst) { // destroy and deallocate old array

  000ce	85 f6		 test	 esi, esi
  000d0	74 42		 je	 SHORT $LN65@Resize_rea

; 1746 :             _Destroy(_Myfirst, _Mylast);
; 1747 :             _Getal().deallocate(_Myfirst, static_cast<size_type>(_Myend - _Myfirst));

  000d2	8b 4b 08	 mov	 ecx, DWORD PTR [ebx+8]
  000d5	b8 ab aa aa 2a	 mov	 eax, 715827883		; 2aaaaaabH
  000da	2b ce		 sub	 ecx, esi
  000dc	f7 e9		 imul	 ecx
  000de	d1 fa		 sar	 edx, 1
  000e0	8b c2		 mov	 eax, edx
  000e2	c1 e8 1f	 shr	 eax, 31			; 0000001fH
  000e5	03 c2		 add	 eax, edx
; File C:\Program Files (x86)\Microsoft Visual Studio\2019\Professional\VC\Tools\MSVC\14.29.30133\include\xmemory

; 835  :         _Deallocate<_New_alignof<_Ty>>(_Ptr, sizeof(_Ty) * _Count);

  000e7	8d 0c 40	 lea	 ecx, DWORD PTR [eax+eax*2]
  000ea	c1 e1 02	 shl	 ecx, 2

; 260  :         if (_Bytes >= _Big_allocation_threshold) { // boost the alignment of big allocations to help autovectorization

  000ed	81 f9 00 10 00
	00		 cmp	 ecx, 4096		; 00001000H
  000f3	72 12		 jb	 SHORT $LN75@Resize_rea

; 158  :     const uintptr_t _Ptr_container   = _Ptr_user[-1];

  000f5	8b 56 fc	 mov	 edx, DWORD PTR [esi-4]
  000f8	83 c1 23	 add	 ecx, 35			; 00000023H

; 159  : 
; 160  :     // If the following asserts, it likely means that we are performing
; 161  :     // an aligned delete on memory coming from an unaligned allocation.
; 162  :     _STL_ASSERT(_Ptr_user[-2] == _Big_allocation_sentinel, "invalid argument");
; 163  : 
; 164  :     // Extra paranoia on aligned allocation/deallocation; ensure _Ptr_container is
; 165  :     // in range [_Min_back_shift, _Non_user_size]
; 166  : #ifdef _DEBUG
; 167  :     constexpr uintptr_t _Min_back_shift = 2 * sizeof(void*);
; 168  : #else // ^^^ _DEBUG ^^^ // vvv !_DEBUG vvv
; 169  :     constexpr uintptr_t _Min_back_shift = sizeof(void*);
; 170  : #endif // _DEBUG
; 171  :     const uintptr_t _Back_shift = reinterpret_cast<uintptr_t>(_Ptr) - _Ptr_container;

  000fb	2b f2		 sub	 esi, edx

; 172  :     _STL_VERIFY(_Back_shift >= _Min_back_shift && _Back_shift <= _Non_user_size, "invalid argument");

  000fd	8d 46 fc	 lea	 eax, DWORD PTR [esi-4]
  00100	83 f8 1f	 cmp	 eax, 31			; 0000001fH
  00103	77 2c		 ja	 SHORT $LN72@Resize_rea

; 173  :     _Ptr = reinterpret_cast<void*>(_Ptr_container);

  00105	8b f2		 mov	 esi, edx
$LN75@Resize_rea:

; 264  :         ::operator delete(_Ptr, _Bytes);

  00107	51		 push	 ecx
  00108	56		 push	 esi
  00109	e8 00 00 00 00	 call	 ??3@YAXPAXI@Z		; operator delete
  0010e	8b 55 fc	 mov	 edx, DWORD PTR $T2[ebp]
  00111	83 c4 08	 add	 esp, 8
$LN65@Resize_rea:
; File C:\Program Files (x86)\Microsoft Visual Studio\2019\Professional\VC\Tools\MSVC\14.29.30133\include\vector

; 1751 :         _Mylast  = _Newvec + _Newsize;

  00114	8b 45 08	 mov	 eax, DWORD PTR __Newsize$[ebp]
  00117	89 13		 mov	 DWORD PTR [ebx], edx
  00119	8d 04 40	 lea	 eax, DWORD PTR [eax+eax*2]
  0011c	8d 04 82	 lea	 eax, DWORD PTR [edx+eax*4]
  0011f	89 43 04	 mov	 DWORD PTR [ebx+4], eax

; 1752 :         _Myend   = _Newvec + _Newcapacity;

  00122	8d 04 17	 lea	 eax, DWORD PTR [edi+edx]
  00125	5f		 pop	 edi
  00126	5e		 pop	 esi
  00127	89 43 08	 mov	 DWORD PTR [ebx+8], eax
  0012a	5b		 pop	 ebx

; 1255 :     }

  0012b	8b e5		 mov	 esp, ebp
  0012d	5d		 pop	 ebp
  0012e	c2 08 00	 ret	 8
$LN72@Resize_rea:
; File C:\Program Files (x86)\Microsoft Visual Studio\2019\Professional\VC\Tools\MSVC\14.29.30133\include\xmemory

; 172  :     _STL_VERIFY(_Back_shift >= _Min_back_shift && _Back_shift <= _Non_user_size, "invalid argument");

  00131	e8 00 00 00 00	 call	 __invalid_parameter_noinfo_noreturn
$LN92@Resize_rea:
; File C:\Program Files (x86)\Microsoft Visual Studio\2019\Professional\VC\Tools\MSVC\14.29.30133\include\vector

; 1231 :             _Xlength();

  00136	e8 00 00 00 00	 call	 ?_Xlength@?$vector@UD3DXVECTOR3@@V?$allocator@UD3DXVECTOR3@@@std@@@std@@CAXXZ ; std::vector<D3DXVECTOR3,std::allocator<D3DXVECTOR3> >::_Xlength
$LN93@Resize_rea:
; File C:\Program Files (x86)\Microsoft Visual Studio\2019\Professional\VC\Tools\MSVC\14.29.30133\include\xmemory

; 65   :             _Throw_bad_array_new_length(); // multiply overflow

  0013b	e8 00 00 00 00	 call	 ?_Throw_bad_array_new_length@std@@YAXXZ ; std::_Throw_bad_array_new_length
$LN89@Resize_rea:
  00140	cc		 int	 3
??$_Resize_reallocate@U_Value_init_tag@std@@@?$vector@UD3DXVECTOR3@@V?$allocator@UD3DXVECTOR3@@@std@@@std@@AAEXIABU_Value_init_tag@1@@Z ENDP ; std::vector<D3DXVECTOR3,std::allocator<D3DXVECTOR3> >::_Resize_reallocate<std::_Value_init_tag>
_TEXT	ENDS
; Function compile flags: /Ogtp
; File C:\Program Files (x86)\Microsoft Visual Studio\2019\Professional\VC\Tools\MSVC\14.29.30133\include\vector
; File C:\Program Files (x86)\Microsoft Visual Studio\2019\Professional\VC\Tools\MSVC\14.29.30133\include\xmemory
; File C:\Program Files (x86)\Microsoft Visual Studio\2019\Professional\VC\Tools\MSVC\14.29.30133\include\vector
; File C:\Program Files (x86)\Microsoft Visual Studio\2019\Professional\VC\Tools\MSVC\14.29.30133\include\xmemory
; File C:\Program Files (x86)\Microsoft Visual Studio\2019\Professional\VC\Tools\MSVC\14.29.30133\include\vector
; File C:\Program Files (x86)\Microsoft Visual Studio\2019\Professional\VC\Tools\MSVC\14.29.30133\include\xmemory
; File C:\Program Files (x86)\Microsoft Visual Studio\2019\Professional\VC\Tools\MSVC\14.29.30133\include\vector
; File C:\Program Files (x86)\Microsoft Visual Studio\2019\Professional\VC\Tools\MSVC\14.29.30133\include\xmemory
; File C:\Program Files (x86)\Microsoft Visual Studio\2019\Professional\VC\Tools\MSVC\14.29.30133\include\vector
;	COMDAT ??$_Resize_reallocate@U_Value_init_tag@std@@@?$vector@VCStaticCollisionData@@V?$allocator@VCStaticCollisionData@@@std@@@std@@AAEXIABU_Value_init_tag@1@@Z
_TEXT	SEGMENT
_this$1$ = -4						; size = 4
__Oldsize$1$ = 8					; size = 4
__Newsize$ = 8						; size = 4
__Val$ = 12						; size = 4
??$_Resize_reallocate@U_Value_init_tag@std@@@?$vector@VCStaticCollisionData@@V?$allocator@VCStaticCollisionData@@@std@@@std@@AAEXIABU_Value_init_tag@1@@Z PROC ; std::vector<CStaticCollisionData,std::allocator<CStaticCollisionData> >::_Resize_reallocate<std::_Value_init_tag>, COMDAT
; _this$ = ecx

; 1229 :     _CONSTEXPR20_CONTAINER void _Resize_reallocate(const size_type _Newsize, const _Ty2& _Val) {

  00000	55		 push	 ebp
  00001	8b ec		 mov	 ebp, esp
  00003	51		 push	 ecx
  00004	53		 push	 ebx
  00005	56		 push	 esi
  00006	57		 push	 edi

; 1230 :         if (_Newsize > max_size()) {

  00007	8b 7d 08	 mov	 edi, DWORD PTR __Newsize$[ebp]
  0000a	8b d9		 mov	 ebx, ecx
  0000c	89 5d fc	 mov	 DWORD PTR _this$1$[ebp], ebx
  0000f	81 ff 33 33 33
	03		 cmp	 edi, 53687091		; 03333333H
  00015	0f 87 de 00 00
	00		 ja	 $LN54@Resize_rea

; 1232 :         }
; 1233 : 
; 1234 :         auto& _My_data    = _Mypair._Myval2;
; 1235 :         pointer& _Myfirst = _My_data._Myfirst;
; 1236 :         pointer& _Mylast  = _My_data._Mylast;
; 1237 : 
; 1238 :         const auto _Oldsize          = static_cast<size_type>(_Mylast - _Myfirst);

  0001b	8b 4b 04	 mov	 ecx, DWORD PTR [ebx+4]
  0001e	b8 67 66 66 66	 mov	 eax, 1717986919		; 66666667H
  00023	2b 0b		 sub	 ecx, DWORD PTR [ebx]
  00025	f7 e9		 imul	 ecx

; 1559 :         return static_cast<size_type>(_My_data._Myend - _My_data._Myfirst);

  00027	8b 4b 08	 mov	 ecx, DWORD PTR [ebx+8]
  0002a	2b 0b		 sub	 ecx, DWORD PTR [ebx]

; 1232 :         }
; 1233 : 
; 1234 :         auto& _My_data    = _Mypair._Myval2;
; 1235 :         pointer& _Myfirst = _My_data._Myfirst;
; 1236 :         pointer& _Mylast  = _My_data._Mylast;
; 1237 : 
; 1238 :         const auto _Oldsize          = static_cast<size_type>(_Mylast - _Myfirst);

  0002c	c1 fa 05	 sar	 edx, 5
  0002f	8b c2		 mov	 eax, edx
  00031	c1 e8 1f	 shr	 eax, 31			; 0000001fH
  00034	03 c2		 add	 eax, edx
  00036	89 45 08	 mov	 DWORD PTR __Oldsize$1$[ebp], eax

; 1559 :         return static_cast<size_type>(_My_data._Myend - _My_data._Myfirst);

  00039	b8 67 66 66 66	 mov	 eax, 1717986919		; 66666667H
  0003e	f7 e9		 imul	 ecx

; 1688 :         if (_Oldcapacity > _Max - _Oldcapacity / 2) {

  00040	b8 33 33 33 03	 mov	 eax, 53687091		; 03333333H

; 1559 :         return static_cast<size_type>(_My_data._Myend - _My_data._Myfirst);

  00045	c1 fa 05	 sar	 edx, 5
  00048	8b ca		 mov	 ecx, edx
  0004a	c1 e9 1f	 shr	 ecx, 31			; 0000001fH
  0004d	03 ca		 add	 ecx, edx

; 1688 :         if (_Oldcapacity > _Max - _Oldcapacity / 2) {

  0004f	8b d1		 mov	 edx, ecx
  00051	d1 ea		 shr	 edx, 1
  00053	2b c2		 sub	 eax, edx
  00055	3b c8		 cmp	 ecx, eax
  00057	76 17		 jbe	 SHORT $LN10@Resize_rea

; 1689 :             return _Max; // geometric growth would overflow

  00059	b8 f0 ff ff ff	 mov	 eax, -16		; fffffff0H
  0005e	be 33 33 33 03	 mov	 esi, 53687091		; 03333333H
; File C:\Program Files (x86)\Microsoft Visual Studio\2019\Professional\VC\Tools\MSVC\14.29.30133\include\xmemory

; 238  :             return _Allocate_manually_vector_aligned<_Traits>(_Bytes);

  00063	50		 push	 eax
  00064	e8 00 00 00 00	 call	 ??$_Allocate_manually_vector_aligned@U_Default_allocate_traits@std@@@std@@YAPAXI@Z ; std::_Allocate_manually_vector_aligned<std::_Default_allocate_traits>
  00069	83 c4 04	 add	 esp, 4
  0006c	8b d8		 mov	 ebx, eax
  0006e	eb 40		 jmp	 SHORT $LN21@Resize_rea
$LN10@Resize_rea:
; File C:\Program Files (x86)\Microsoft Visual Studio\2019\Professional\VC\Tools\MSVC\14.29.30133\include\vector

; 1692 :         const size_type _Geometric = _Oldcapacity + _Oldcapacity / 2;

  00070	8d 34 0a	 lea	 esi, DWORD PTR [edx+ecx]

; 1693 : 
; 1694 :         if (_Geometric < _Newsize) {

  00073	3b f7		 cmp	 esi, edi
  00075	73 1c		 jae	 SHORT $LN11@Resize_rea

; 1695 :             return _Newsize; // geometric growth would be insufficient

  00077	8b f7		 mov	 esi, edi
$LN18@Resize_rea:
; File C:\Program Files (x86)\Microsoft Visual Studio\2019\Professional\VC\Tools\MSVC\14.29.30133\include\xmemory

; 69   :     return _Count * _Ty_size;

  00079	8d 04 b6	 lea	 eax, DWORD PTR [esi+esi*4]
  0007c	c1 e0 04	 shl	 eax, 4

; 237  :         if (_Bytes >= _Big_allocation_threshold) { // boost the alignment of big allocations to help autovectorization

  0007f	3d 00 10 00 00	 cmp	 eax, 4096		; 00001000H
  00084	72 17		 jb	 SHORT $LN22@Resize_rea

; 238  :             return _Allocate_manually_vector_aligned<_Traits>(_Bytes);

  00086	50		 push	 eax
  00087	e8 00 00 00 00	 call	 ??$_Allocate_manually_vector_aligned@U_Default_allocate_traits@std@@@std@@YAPAXI@Z ; std::_Allocate_manually_vector_aligned<std::_Default_allocate_traits>
  0008c	83 c4 04	 add	 esp, 4
  0008f	8b d8		 mov	 ebx, eax
  00091	eb 1d		 jmp	 SHORT $LN21@Resize_rea
$LN11@Resize_rea:

; 64   :         if (_Count > _Max_possible) {

  00093	81 fe 33 33 33
	03		 cmp	 esi, 53687091		; 03333333H
  00099	77 63		 ja	 SHORT $LN55@Resize_rea
  0009b	eb dc		 jmp	 SHORT $LN18@Resize_rea
$LN22@Resize_rea:

; 243  :     if (_Bytes != 0) {

  0009d	85 c0		 test	 eax, eax
  0009f	74 0d		 je	 SHORT $LN23@Resize_rea

; 85   :         return ::operator new(_Bytes);

  000a1	50		 push	 eax
  000a2	e8 00 00 00 00	 call	 ??2@YAPAXI@Z		; operator new
  000a7	83 c4 04	 add	 esp, 4

; 244  :         return _Traits::_Allocate(_Bytes);

  000aa	8b d8		 mov	 ebx, eax
  000ac	eb 02		 jmp	 SHORT $LN21@Resize_rea
$LN23@Resize_rea:

; 245  :     }
; 246  : 
; 247  :     return nullptr;

  000ae	33 db		 xor	 ebx, ebx
$LN21@Resize_rea:
; File C:\Program Files (x86)\Microsoft Visual Studio\2019\Professional\VC\Tools\MSVC\14.29.30133\include\vector

; 1242 :         const pointer _Appended_first = _Newvec + _Oldsize;

  000b0	8b 55 08	 mov	 edx, DWORD PTR __Oldsize$1$[ebp]

; 1246 :         _Appended_last = _Ufill(_Appended_first, _Newsize - _Oldsize, _Val);

  000b3	8b c7		 mov	 eax, edi
  000b5	8d 0c 92	 lea	 ecx, DWORD PTR [edx+edx*4]
  000b8	c1 e1 04	 shl	 ecx, 4
  000bb	03 cb		 add	 ecx, ebx
  000bd	2b c2		 sub	 eax, edx
; File C:\Program Files (x86)\Microsoft Visual Studio\2019\Professional\VC\Tools\MSVC\14.29.30133\include\xmemory

; 1830 :     for (; 0 < _Count; --_Count) {

  000bf	74 12		 je	 SHORT $LN33@Resize_rea
; File C:\Program Files (x86)\Microsoft Visual Studio\2019\Professional\VC\Tools\MSVC\14.29.30133\include\vector

; 1246 :         _Appended_last = _Ufill(_Appended_first, _Newsize - _Oldsize, _Val);

  000c1	8d 04 80	 lea	 eax, DWORD PTR [eax+eax*4]
  000c4	c1 e0 04	 shl	 eax, 4
  000c7	50		 push	 eax
  000c8	6a 00		 push	 0
  000ca	51		 push	 ecx
  000cb	e8 00 00 00 00	 call	 _memset
  000d0	83 c4 0c	 add	 esp, 12			; 0000000cH
$LN33@Resize_rea:

; 1664 :         _Uninitialized_move(_First, _Last, _Dest, _Getal());

  000d3	8b 45 fc	 mov	 eax, DWORD PTR _this$1$[ebp]
  000d6	50		 push	 eax
  000d7	53		 push	 ebx
  000d8	ff 70 04	 push	 DWORD PTR [eax+4]
  000db	ff 30		 push	 DWORD PTR [eax]
  000dd	e8 00 00 00 00	 call	 ??$_Uninitialized_move@PAVCStaticCollisionData@@V?$allocator@VCStaticCollisionData@@@std@@@std@@YAPAVCStaticCollisionData@@QAV1@0PAV1@AAV?$allocator@VCStaticCollisionData@@@0@@Z ; std::_Uninitialized_move<CStaticCollisionData *,std::allocator<CStaticCollisionData> >

; 1247 :         _Umove_if_noexcept(_Myfirst, _Mylast, _Newvec);
; 1248 :         _CATCH_ALL
; 1249 :         _Destroy(_Appended_first, _Appended_last);
; 1250 :         _Getal().deallocate(_Newvec, _Newcapacity);
; 1251 :         _RERAISE;
; 1252 :         _CATCH_END
; 1253 : 
; 1254 :         _Change_array(_Newvec, _Newsize, _Newcapacity);

  000e2	8b 4d fc	 mov	 ecx, DWORD PTR _this$1$[ebp]

; 1664 :         _Uninitialized_move(_First, _Last, _Dest, _Getal());

  000e5	83 c4 10	 add	 esp, 16			; 00000010H

; 1247 :         _Umove_if_noexcept(_Myfirst, _Mylast, _Newvec);
; 1248 :         _CATCH_ALL
; 1249 :         _Destroy(_Appended_first, _Appended_last);
; 1250 :         _Getal().deallocate(_Newvec, _Newcapacity);
; 1251 :         _RERAISE;
; 1252 :         _CATCH_END
; 1253 : 
; 1254 :         _Change_array(_Newvec, _Newsize, _Newcapacity);

  000e8	56		 push	 esi
  000e9	57		 push	 edi
  000ea	53		 push	 ebx
  000eb	e8 00 00 00 00	 call	 ?_Change_array@?$vector@VCStaticCollisionData@@V?$allocator@VCStaticCollisionData@@@std@@@std@@AAEXQAVCStaticCollisionData@@II@Z ; std::vector<CStaticCollisionData,std::allocator<CStaticCollisionData> >::_Change_array
  000f0	5f		 pop	 edi
  000f1	5e		 pop	 esi
  000f2	5b		 pop	 ebx

; 1255 :     }

  000f3	8b e5		 mov	 esp, ebp
  000f5	5d		 pop	 ebp
  000f6	c2 08 00	 ret	 8
$LN54@Resize_rea:

; 1231 :             _Xlength();

  000f9	e8 00 00 00 00	 call	 ?_Xlength@?$vector@VCStaticCollisionData@@V?$allocator@VCStaticCollisionData@@@std@@@std@@CAXXZ ; std::vector<CStaticCollisionData,std::allocator<CStaticCollisionData> >::_Xlength
$LN55@Resize_rea:
; File C:\Program Files (x86)\Microsoft Visual Studio\2019\Professional\VC\Tools\MSVC\14.29.30133\include\xmemory

; 65   :             _Throw_bad_array_new_length(); // multiply overflow

  000fe	e8 00 00 00 00	 call	 ?_Throw_bad_array_new_length@std@@YAXXZ ; std::_Throw_bad_array_new_length
$LN52@Resize_rea:
  00103	cc		 int	 3
??$_Resize_reallocate@U_Value_init_tag@std@@@?$vector@VCStaticCollisionData@@V?$allocator@VCStaticCollisionData@@@std@@@std@@AAEXIABU_Value_init_tag@1@@Z ENDP ; std::vector<CStaticCollisionData,std::allocator<CStaticCollisionData> >::_Resize_reallocate<std::_Value_init_tag>
_TEXT	ENDS
; Function compile flags: /Ogtp
; File C:\Program Files (x86)\Microsoft Visual Studio\2019\Professional\VC\Tools\MSVC\14.29.30133\include\vector
; File C:\Program Files (x86)\Microsoft Visual Studio\2019\Professional\VC\Tools\MSVC\14.29.30133\include\xmemory
; File C:\Program Files (x86)\Microsoft Visual Studio\2019\Professional\VC\Tools\MSVC\14.29.30133\include\vector
; File C:\Program Files (x86)\Microsoft Visual Studio\2019\Professional\VC\Tools\MSVC\14.29.30133\include\xmemory
; File C:\Program Files (x86)\Microsoft Visual Studio\2019\Professional\VC\Tools\MSVC\14.29.30133\include\vector
; File C:\Program Files (x86)\Microsoft Visual Studio\2019\Professional\VC\Tools\MSVC\14.29.30133\include\xmemory
; File C:\Program Files (x86)\Microsoft Visual Studio\2019\Professional\VC\Tools\MSVC\14.29.30133\include\vector
; File C:\Program Files (x86)\Microsoft Visual Studio\2019\Professional\VC\Tools\MSVC\14.29.30133\include\xmemory
; File C:\Program Files (x86)\Microsoft Visual Studio\2019\Professional\VC\Tools\MSVC\14.29.30133\include\vector
; File C:\Program Files (x86)\Microsoft Visual Studio\2019\Professional\VC\Tools\MSVC\14.29.30133\include\xmemory
; File C:\Program Files (x86)\Microsoft Visual Studio\2019\Professional\VC\Tools\MSVC\14.29.30133\include\vector
; File C:\Program Files (x86)\Microsoft Visual Studio\2019\Professional\VC\Tools\MSVC\14.29.30133\include\xmemory
; File C:\Program Files (x86)\Microsoft Visual Studio\2019\Professional\VC\Tools\MSVC\14.29.30133\include\utility
; File C:\Program Files (x86)\Microsoft Visual Studio\2019\Professional\VC\Tools\MSVC\14.29.30133\include\vector
; File C:\Program Files (x86)\Microsoft Visual Studio\2019\Professional\VC\Tools\MSVC\14.29.30133\include\xmemory
; File C:\Program Files (x86)\Microsoft Visual Studio\2019\Professional\VC\Tools\MSVC\14.29.30133\include\vector
; File C:\Program Files (x86)\Microsoft Visual Studio\2019\Professional\VC\Tools\MSVC\14.29.30133\include\xmemory
; File C:\Program Files (x86)\Microsoft Visual Studio\2019\Professional\VC\Tools\MSVC\14.29.30133\include\vector
; File C:\Program Files (x86)\Microsoft Visual Studio\2019\Professional\VC\Tools\MSVC\14.29.30133\include\xmemory
; File C:\Program Files (x86)\Microsoft Visual Studio\2019\Professional\VC\Tools\MSVC\14.29.30133\include\vector
; File C:\Program Files (x86)\Microsoft Visual Studio\2019\Professional\VC\Tools\MSVC\14.29.30133\include\xmemory
; File C:\Program Files (x86)\Microsoft Visual Studio\2019\Professional\VC\Tools\MSVC\14.29.30133\include\vector
; File C:\Program Files (x86)\Microsoft Visual Studio\2019\Professional\VC\Tools\MSVC\14.29.30133\include\xmemory
; File C:\Program Files (x86)\Microsoft Visual Studio\2019\Professional\VC\Tools\MSVC\14.29.30133\include\vector
;	COMDAT ??$_Resize_reallocate@U_Value_init_tag@std@@@?$vector@USHeightData@@V?$allocator@USHeightData@@@std@@@std@@AAEXIABU_Value_init_tag@1@@Z
_TEXT	SEGMENT
_this$1$ = -16						; size = 4
__Oldsize$1$ = -12					; size = 4
tv775 = -8						; size = 4
$T2 = -4						; size = 4
__Newsize$ = 8						; size = 4
__Last$1$ = 12						; size = 4
__ULast$1$ = 12						; size = 4
__Val$ = 12						; size = 4
??$_Resize_reallocate@U_Value_init_tag@std@@@?$vector@USHeightData@@V?$allocator@USHeightData@@@std@@@std@@AAEXIABU_Value_init_tag@1@@Z PROC ; std::vector<SHeightData,std::allocator<SHeightData> >::_Resize_reallocate<std::_Value_init_tag>, COMDAT
; _this$ = ecx

; 1229 :     _CONSTEXPR20_CONTAINER void _Resize_reallocate(const size_type _Newsize, const _Ty2& _Val) {

  00000	55		 push	 ebp
  00001	8b ec		 mov	 ebp, esp
  00003	83 ec 10	 sub	 esp, 16			; 00000010H

; 1230 :         if (_Newsize > max_size()) {

  00006	81 7d 08 55 55
	55 05		 cmp	 DWORD PTR __Newsize$[ebp], 89478485 ; 05555555H
  0000d	53		 push	 ebx
  0000e	56		 push	 esi
  0000f	8b d9		 mov	 ebx, ecx
  00011	57		 push	 edi
  00012	89 5d f0	 mov	 DWORD PTR _this$1$[ebp], ebx
  00015	0f 87 b0 01 00
	00		 ja	 $LN128@Resize_rea

; 1232 :         }
; 1233 : 
; 1234 :         auto& _My_data    = _Mypair._Myval2;
; 1235 :         pointer& _Myfirst = _My_data._Myfirst;
; 1236 :         pointer& _Mylast  = _My_data._Mylast;
; 1237 : 
; 1238 :         const auto _Oldsize          = static_cast<size_type>(_Mylast - _Myfirst);

  0001b	8b 4b 04	 mov	 ecx, DWORD PTR [ebx+4]
  0001e	b8 ab aa aa 2a	 mov	 eax, 715827883		; 2aaaaaabH
  00023	2b 0b		 sub	 ecx, DWORD PTR [ebx]
  00025	f7 e9		 imul	 ecx

; 1559 :         return static_cast<size_type>(_My_data._Myend - _My_data._Myfirst);

  00027	8b 4b 08	 mov	 ecx, DWORD PTR [ebx+8]
  0002a	2b 0b		 sub	 ecx, DWORD PTR [ebx]

; 1232 :         }
; 1233 : 
; 1234 :         auto& _My_data    = _Mypair._Myval2;
; 1235 :         pointer& _Myfirst = _My_data._Myfirst;
; 1236 :         pointer& _Mylast  = _My_data._Mylast;
; 1237 : 
; 1238 :         const auto _Oldsize          = static_cast<size_type>(_Mylast - _Myfirst);

  0002c	c1 fa 03	 sar	 edx, 3
  0002f	8b c2		 mov	 eax, edx

; 1688 :         if (_Oldcapacity > _Max - _Oldcapacity / 2) {

  00031	8b 75 08	 mov	 esi, DWORD PTR __Newsize$[ebp]

; 1232 :         }
; 1233 : 
; 1234 :         auto& _My_data    = _Mypair._Myval2;
; 1235 :         pointer& _Myfirst = _My_data._Myfirst;
; 1236 :         pointer& _Mylast  = _My_data._Mylast;
; 1237 : 
; 1238 :         const auto _Oldsize          = static_cast<size_type>(_Mylast - _Myfirst);

  00034	c1 e8 1f	 shr	 eax, 31			; 0000001fH
  00037	03 c2		 add	 eax, edx
  00039	89 45 f4	 mov	 DWORD PTR __Oldsize$1$[ebp], eax

; 1559 :         return static_cast<size_type>(_My_data._Myend - _My_data._Myfirst);

  0003c	b8 ab aa aa 2a	 mov	 eax, 715827883		; 2aaaaaabH
  00041	f7 e9		 imul	 ecx

; 1688 :         if (_Oldcapacity > _Max - _Oldcapacity / 2) {

  00043	b8 55 55 55 05	 mov	 eax, 89478485		; 05555555H

; 1559 :         return static_cast<size_type>(_My_data._Myend - _My_data._Myfirst);

  00048	c1 fa 03	 sar	 edx, 3
  0004b	8b ca		 mov	 ecx, edx
  0004d	c1 e9 1f	 shr	 ecx, 31			; 0000001fH
  00050	03 ca		 add	 ecx, edx

; 1688 :         if (_Oldcapacity > _Max - _Oldcapacity / 2) {

  00052	8b d1		 mov	 edx, ecx
  00054	d1 ea		 shr	 edx, 1
  00056	2b c2		 sub	 eax, edx
  00058	3b c8		 cmp	 ecx, eax
  0005a	76 15		 jbe	 SHORT $LN10@Resize_rea

; 1689 :             return _Max; // geometric growth would overflow

  0005c	b8 f0 ff ff ff	 mov	 eax, -16		; fffffff0H
; File C:\Program Files (x86)\Microsoft Visual Studio\2019\Professional\VC\Tools\MSVC\14.29.30133\include\xmemory

; 238  :             return _Allocate_manually_vector_aligned<_Traits>(_Bytes);

  00061	50		 push	 eax
; File C:\Program Files (x86)\Microsoft Visual Studio\2019\Professional\VC\Tools\MSVC\14.29.30133\include\vector

; 1689 :             return _Max; // geometric growth would overflow

  00062	89 45 f8	 mov	 DWORD PTR tv775[ebp], eax
; File C:\Program Files (x86)\Microsoft Visual Studio\2019\Professional\VC\Tools\MSVC\14.29.30133\include\xmemory

; 238  :             return _Allocate_manually_vector_aligned<_Traits>(_Bytes);

  00065	e8 00 00 00 00	 call	 ??$_Allocate_manually_vector_aligned@U_Default_allocate_traits@std@@@std@@YAPAXI@Z ; std::_Allocate_manually_vector_aligned<std::_Default_allocate_traits>
  0006a	83 c4 04	 add	 esp, 4
  0006d	8b f8		 mov	 edi, eax
  0006f	eb 49		 jmp	 SHORT $LN126@Resize_rea
$LN10@Resize_rea:
; File C:\Program Files (x86)\Microsoft Visual Studio\2019\Professional\VC\Tools\MSVC\14.29.30133\include\vector

; 1692 :         const size_type _Geometric = _Oldcapacity + _Oldcapacity / 2;

  00071	8d 04 0a	 lea	 eax, DWORD PTR [edx+ecx]

; 1693 : 
; 1694 :         if (_Geometric < _Newsize) {

  00074	3b c6		 cmp	 eax, esi
  00076	73 1f		 jae	 SHORT $LN11@Resize_rea

; 1695 :             return _Newsize; // geometric growth would be insufficient

  00078	8b c6		 mov	 eax, esi
$LN123@Resize_rea:
; File C:\Program Files (x86)\Microsoft Visual Studio\2019\Professional\VC\Tools\MSVC\14.29.30133\include\xmemory

; 69   :     return _Count * _Ty_size;

  0007a	8d 04 40	 lea	 eax, DWORD PTR [eax+eax*2]
  0007d	c1 e0 04	 shl	 eax, 4
  00080	89 45 f8	 mov	 DWORD PTR tv775[ebp], eax

; 237  :         if (_Bytes >= _Big_allocation_threshold) { // boost the alignment of big allocations to help autovectorization

  00083	3d 00 10 00 00	 cmp	 eax, 4096		; 00001000H
  00088	72 1a		 jb	 SHORT $LN22@Resize_rea

; 238  :             return _Allocate_manually_vector_aligned<_Traits>(_Bytes);

  0008a	50		 push	 eax
  0008b	e8 00 00 00 00	 call	 ??$_Allocate_manually_vector_aligned@U_Default_allocate_traits@std@@@std@@YAPAXI@Z ; std::_Allocate_manually_vector_aligned<std::_Default_allocate_traits>
  00090	83 c4 04	 add	 esp, 4
  00093	8b f8		 mov	 edi, eax
  00095	eb 23		 jmp	 SHORT $LN126@Resize_rea
$LN11@Resize_rea:

; 64   :         if (_Count > _Max_possible) {

  00097	3d 55 55 55 05	 cmp	 eax, 89478485		; 05555555H
  0009c	0f 87 2e 01 00
	00		 ja	 $LN129@Resize_rea
  000a2	eb d6		 jmp	 SHORT $LN123@Resize_rea
$LN22@Resize_rea:

; 243  :     if (_Bytes != 0) {

  000a4	85 c0		 test	 eax, eax
  000a6	74 10		 je	 SHORT $LN23@Resize_rea

; 85   :         return ::operator new(_Bytes);

  000a8	50		 push	 eax
  000a9	e8 00 00 00 00	 call	 ??2@YAPAXI@Z		; operator new
  000ae	83 c4 04	 add	 esp, 4

; 244  :         return _Traits::_Allocate(_Bytes);

  000b1	89 45 fc	 mov	 DWORD PTR $T2[ebp], eax
  000b4	8b f8		 mov	 edi, eax
  000b6	eb 05		 jmp	 SHORT $LN21@Resize_rea
$LN23@Resize_rea:

; 245  :     }
; 246  : 
; 247  :     return nullptr;

  000b8	33 ff		 xor	 edi, edi
$LN126@Resize_rea:
; File C:\Program Files (x86)\Microsoft Visual Studio\2019\Professional\VC\Tools\MSVC\14.29.30133\include\vector

; 1246 :         _Appended_last = _Ufill(_Appended_first, _Newsize - _Oldsize, _Val);

  000ba	89 7d fc	 mov	 DWORD PTR $T2[ebp], edi
$LN21@Resize_rea:
  000bd	8b 45 0c	 mov	 eax, DWORD PTR __Val$[ebp]
  000c0	8b 4d f4	 mov	 ecx, DWORD PTR __Oldsize$1$[ebp]
  000c3	2b f1		 sub	 esi, ecx
  000c5	0f b6 00	 movzx	 eax, BYTE PTR [eax]
  000c8	50		 push	 eax
  000c9	8d 04 49	 lea	 eax, DWORD PTR [ecx+ecx*2]
  000cc	8b cb		 mov	 ecx, ebx
  000ce	c1 e0 04	 shl	 eax, 4
  000d1	56		 push	 esi
  000d2	03 c7		 add	 eax, edi
  000d4	50		 push	 eax
  000d5	e8 00 00 00 00	 call	 ?_Ufill@?$vector@USHeightData@@V?$allocator@USHeightData@@@std@@@std@@AAEPAUSHeightData@@PAU3@IU_Value_init_tag@2@@Z ; std::vector<SHeightData,std::allocator<SHeightData> >::_Ufill
; File C:\Program Files (x86)\Microsoft Visual Studio\2019\Professional\VC\Tools\MSVC\14.29.30133\include\xmemory

; 1718 :     const auto _ULast = _Get_unwrapped(_Last);

  000da	8b 43 04	 mov	 eax, DWORD PTR [ebx+4]
; File C:\Program Files (x86)\Microsoft Visual Studio\2019\Professional\VC\Tools\MSVC\14.29.30133\include\vector

; 1247 :         _Umove_if_noexcept(_Myfirst, _Mylast, _Newvec);

  000dd	8b 33		 mov	 esi, DWORD PTR [ebx]
; File C:\Program Files (x86)\Microsoft Visual Studio\2019\Professional\VC\Tools\MSVC\14.29.30133\include\xmemory

; 1718 :     const auto _ULast = _Get_unwrapped(_Last);

  000df	89 45 0c	 mov	 DWORD PTR __ULast$1$[ebp], eax

; 1731 :     for (; _UFirst != _ULast; ++_UFirst) {

  000e2	3b f0		 cmp	 esi, eax
  000e4	74 5c		 je	 SHORT $LN34@Resize_rea
; File C:\Program Files (x86)\Microsoft Visual Studio\2019\Professional\VC\Tools\MSVC\14.29.30133\include\vector

; 1246 :         _Appended_last = _Ufill(_Appended_first, _Newsize - _Oldsize, _Val);

  000e6	83 c7 2c	 add	 edi, 44			; 0000002cH
  000e9	8d 5e 28	 lea	 ebx, DWORD PTR [esi+40]
  000ec	0f 1f 40 00	 npad	 4
$LL35@Resize_rea:
  000f0	0f 10 06	 movups	 xmm0, XMMWORD PTR [esi]
; File C:\Program Files (x86)\Microsoft Visual Studio\2019\Professional\VC\Tools\MSVC\14.29.30133\include\xmemory

; 1632 :         ++_Last;

  000f3	8d 7f 30	 lea	 edi, DWORD PTR [edi+48]

; 1731 :     for (; _UFirst != _ULast; ++_UFirst) {

  000f6	8d 5b 30	 lea	 ebx, DWORD PTR [ebx+48]
  000f9	0f 11 47 a4	 movups	 XMMWORD PTR [edi-92], xmm0
  000fd	0f 10 46 10	 movups	 xmm0, XMMWORD PTR [esi+16]
  00101	0f 11 47 b4	 movups	 XMMWORD PTR [edi-76], xmm0
  00105	8a 46 20	 mov	 al, BYTE PTR [esi+32]
  00108	83 c6 30	 add	 esi, 48			; 00000030H
  0010b	88 47 c4	 mov	 BYTE PTR [edi-60], al
; File C:\Program Files (x86)\Microsoft Visual Studio\2019\Professional\VC\Tools\MSVC\14.29.30133\include\utility

; 616  :     _Ty _Old_val = static_cast<_Ty&&>(_Val);

  0010e	8b 53 d4	 mov	 edx, DWORD PTR [ebx-44]
  00111	8b 4b d0	 mov	 ecx, DWORD PTR [ebx-48]
  00114	8b 43 cc	 mov	 eax, DWORD PTR [ebx-52]

; 617  :     _Val         = static_cast<_Other&&>(_New_val);

  00117	c7 43 d4 00 00
	00 00		 mov	 DWORD PTR [ebx-44], 0
  0011e	c7 43 d0 00 00
	00 00		 mov	 DWORD PTR [ebx-48], 0
  00125	c7 43 cc 00 00
	00 00		 mov	 DWORD PTR [ebx-52], 0
; File C:\Program Files (x86)\Microsoft Visual Studio\2019\Professional\VC\Tools\MSVC\14.29.30133\include\vector

; 404  :         : _Myfirst(_First), _Mylast(_Last), _Myend(_End) {}

  0012c	89 47 c8	 mov	 DWORD PTR [edi-56], eax
  0012f	89 4f cc	 mov	 DWORD PTR [edi-52], ecx
  00132	89 57 d0	 mov	 DWORD PTR [edi-48], edx
; File C:\Program Files (x86)\Microsoft Visual Studio\2019\Professional\VC\Tools\MSVC\14.29.30133\include\xmemory

; 1731 :     for (; _UFirst != _ULast; ++_UFirst) {

  00135	3b 75 0c	 cmp	 esi, DWORD PTR __ULast$1$[ebp]
  00138	75 b6		 jne	 SHORT $LL35@Resize_rea
  0013a	8b 5d f0	 mov	 ebx, DWORD PTR _this$1$[ebp]
  0013d	8b 7d fc	 mov	 edi, DWORD PTR $T2[ebp]
  00140	8b 33		 mov	 esi, DWORD PTR [ebx]
$LN34@Resize_rea:
; File C:\Program Files (x86)\Microsoft Visual Studio\2019\Professional\VC\Tools\MSVC\14.29.30133\include\vector

; 1745 :         if (_Myfirst) { // destroy and deallocate old array

  00142	85 f6		 test	 esi, esi
  00144	74 5f		 je	 SHORT $LN97@Resize_rea

; 1746 :             _Destroy(_Myfirst, _Mylast);

  00146	8b 43 04	 mov	 eax, DWORD PTR [ebx+4]
  00149	89 45 0c	 mov	 DWORD PTR __Last$1$[ebp], eax
; File C:\Program Files (x86)\Microsoft Visual Studio\2019\Professional\VC\Tools\MSVC\14.29.30133\include\xmemory

; 949  :         for (; _First != _Last; ++_First) {

  0014c	3b f0		 cmp	 esi, eax
  0014e	74 16		 je	 SHORT $LN82@Resize_rea
  00150	8b f8		 mov	 edi, eax
$LL83@Resize_rea:
  00152	8d 4e 24	 lea	 ecx, DWORD PTR [esi+36]
  00155	e8 00 00 00 00	 call	 ??1?$vector@UD3DXVECTOR3@@V?$allocator@UD3DXVECTOR3@@@std@@@std@@QAE@XZ ; std::vector<D3DXVECTOR3,std::allocator<D3DXVECTOR3> >::~vector<D3DXVECTOR3,std::allocator<D3DXVECTOR3> >
  0015a	83 c6 30	 add	 esi, 48			; 00000030H
  0015d	3b f7		 cmp	 esi, edi
  0015f	75 f1		 jne	 SHORT $LL83@Resize_rea
  00161	8b 33		 mov	 esi, DWORD PTR [ebx]
  00163	8b 7d fc	 mov	 edi, DWORD PTR $T2[ebp]
$LN82@Resize_rea:
; File C:\Program Files (x86)\Microsoft Visual Studio\2019\Professional\VC\Tools\MSVC\14.29.30133\include\vector

; 1747 :             _Getal().deallocate(_Myfirst, static_cast<size_type>(_Myend - _Myfirst));

  00166	8b 4b 08	 mov	 ecx, DWORD PTR [ebx+8]
  00169	b8 ab aa aa 2a	 mov	 eax, 715827883		; 2aaaaaabH
  0016e	2b ce		 sub	 ecx, esi
  00170	f7 e9		 imul	 ecx
  00172	c1 fa 03	 sar	 edx, 3
  00175	8b c2		 mov	 eax, edx
  00177	c1 e8 1f	 shr	 eax, 31			; 0000001fH
  0017a	03 c2		 add	 eax, edx
; File C:\Program Files (x86)\Microsoft Visual Studio\2019\Professional\VC\Tools\MSVC\14.29.30133\include\xmemory

; 835  :         _Deallocate<_New_alignof<_Ty>>(_Ptr, sizeof(_Ty) * _Count);

  0017c	8d 04 40	 lea	 eax, DWORD PTR [eax+eax*2]
  0017f	c1 e0 04	 shl	 eax, 4

; 260  :         if (_Bytes >= _Big_allocation_threshold) { // boost the alignment of big allocations to help autovectorization

  00182	3d 00 10 00 00	 cmp	 eax, 4096		; 00001000H
  00187	72 12		 jb	 SHORT $LN107@Resize_rea

; 158  :     const uintptr_t _Ptr_container   = _Ptr_user[-1];

  00189	8b 4e fc	 mov	 ecx, DWORD PTR [esi-4]
  0018c	83 c0 23	 add	 eax, 35			; 00000023H

; 159  : 
; 160  :     // If the following asserts, it likely means that we are performing
; 161  :     // an aligned delete on memory coming from an unaligned allocation.
; 162  :     _STL_ASSERT(_Ptr_user[-2] == _Big_allocation_sentinel, "invalid argument");
; 163  : 
; 164  :     // Extra paranoia on aligned allocation/deallocation; ensure _Ptr_container is
; 165  :     // in range [_Min_back_shift, _Non_user_size]
; 166  : #ifdef _DEBUG
; 167  :     constexpr uintptr_t _Min_back_shift = 2 * sizeof(void*);
; 168  : #else // ^^^ _DEBUG ^^^ // vvv !_DEBUG vvv
; 169  :     constexpr uintptr_t _Min_back_shift = sizeof(void*);
; 170  : #endif // _DEBUG
; 171  :     const uintptr_t _Back_shift = reinterpret_cast<uintptr_t>(_Ptr) - _Ptr_container;

  0018f	2b f1		 sub	 esi, ecx

; 172  :     _STL_VERIFY(_Back_shift >= _Min_back_shift && _Back_shift <= _Non_user_size, "invalid argument");

  00191	83 c6 fc	 add	 esi, -4			; fffffffcH
  00194	83 fe 1f	 cmp	 esi, 31			; 0000001fH
  00197	77 2d		 ja	 SHORT $LN104@Resize_rea

; 173  :     _Ptr = reinterpret_cast<void*>(_Ptr_container);

  00199	8b f1		 mov	 esi, ecx
$LN107@Resize_rea:

; 264  :         ::operator delete(_Ptr, _Bytes);

  0019b	50		 push	 eax
  0019c	56		 push	 esi
  0019d	e8 00 00 00 00	 call	 ??3@YAXPAXI@Z		; operator delete
  001a2	83 c4 08	 add	 esp, 8
$LN97@Resize_rea:
; File C:\Program Files (x86)\Microsoft Visual Studio\2019\Professional\VC\Tools\MSVC\14.29.30133\include\vector

; 1751 :         _Mylast  = _Newvec + _Newsize;

  001a5	8b 45 08	 mov	 eax, DWORD PTR __Newsize$[ebp]
  001a8	89 3b		 mov	 DWORD PTR [ebx], edi
  001aa	8d 04 40	 lea	 eax, DWORD PTR [eax+eax*2]
  001ad	c1 e0 04	 shl	 eax, 4
  001b0	03 c7		 add	 eax, edi
  001b2	89 43 04	 mov	 DWORD PTR [ebx+4], eax

; 1752 :         _Myend   = _Newvec + _Newcapacity;

  001b5	8b 45 f8	 mov	 eax, DWORD PTR tv775[ebp]
  001b8	03 c7		 add	 eax, edi
  001ba	5f		 pop	 edi
  001bb	5e		 pop	 esi
  001bc	89 43 08	 mov	 DWORD PTR [ebx+8], eax
  001bf	5b		 pop	 ebx

; 1255 :     }

  001c0	8b e5		 mov	 esp, ebp
  001c2	5d		 pop	 ebp
  001c3	c2 08 00	 ret	 8
$LN104@Resize_rea:
; File C:\Program Files (x86)\Microsoft Visual Studio\2019\Professional\VC\Tools\MSVC\14.29.30133\include\xmemory

; 172  :     _STL_VERIFY(_Back_shift >= _Min_back_shift && _Back_shift <= _Non_user_size, "invalid argument");

  001c6	e8 00 00 00 00	 call	 __invalid_parameter_noinfo_noreturn
$LN128@Resize_rea:
; File C:\Program Files (x86)\Microsoft Visual Studio\2019\Professional\VC\Tools\MSVC\14.29.30133\include\vector

; 1231 :             _Xlength();

  001cb	e8 00 00 00 00	 call	 ?_Xlength@?$vector@USHeightData@@V?$allocator@USHeightData@@@std@@@std@@CAXXZ ; std::vector<SHeightData,std::allocator<SHeightData> >::_Xlength
$LN129@Resize_rea:
; File C:\Program Files (x86)\Microsoft Visual Studio\2019\Professional\VC\Tools\MSVC\14.29.30133\include\xmemory

; 65   :             _Throw_bad_array_new_length(); // multiply overflow

  001d0	e8 00 00 00 00	 call	 ?_Throw_bad_array_new_length@std@@YAXXZ ; std::_Throw_bad_array_new_length
$LN125@Resize_rea:
  001d5	cc		 int	 3
??$_Resize_reallocate@U_Value_init_tag@std@@@?$vector@USHeightData@@V?$allocator@USHeightData@@@std@@@std@@AAEXIABU_Value_init_tag@1@@Z ENDP ; std::vector<SHeightData,std::allocator<SHeightData> >::_Resize_reallocate<std::_Value_init_tag>
_TEXT	ENDS
; Function compile flags: /Ogtp
; File C:\Program Files (x86)\Microsoft Visual Studio\2019\Professional\VC\Tools\MSVC\14.29.30133\include\vector
; File C:\Program Files (x86)\Microsoft Visual Studio\2019\Professional\VC\Tools\MSVC\14.29.30133\include\xmemory
; File C:\Program Files (x86)\Microsoft Visual Studio\2019\Professional\VC\Tools\MSVC\14.29.30133\include\vector
; File C:\Program Files (x86)\Microsoft Visual Studio\2019\Professional\VC\Tools\MSVC\14.29.30133\include\xmemory
; File C:\Program Files (x86)\Microsoft Visual Studio\2019\Professional\VC\Tools\MSVC\14.29.30133\include\vector
; File C:\Program Files (x86)\Microsoft Visual Studio\2019\Professional\VC\Tools\MSVC\14.29.30133\include\xmemory
; File C:\Program Files (x86)\Microsoft Visual Studio\2019\Professional\VC\Tools\MSVC\14.29.30133\include\vector
; File C:\Program Files (x86)\Microsoft Visual Studio\2019\Professional\VC\Tools\MSVC\14.29.30133\include\xmemory
; File C:\Program Files (x86)\Microsoft Visual Studio\2019\Professional\VC\Tools\MSVC\14.29.30133\include\vector
; File C:\Program Files (x86)\Microsoft Visual Studio\2019\Professional\VC\Tools\MSVC\14.29.30133\include\xmemory
; File C:\Program Files (x86)\Microsoft Visual Studio\2019\Professional\VC\Tools\MSVC\14.29.30133\include\vector
; File C:\Program Files (x86)\Microsoft Visual Studio\2019\Professional\VC\Tools\MSVC\14.29.30133\include\xmemory
; File C:\Program Files (x86)\Microsoft Visual Studio\2019\Professional\VC\Tools\MSVC\14.29.30133\include\vector
;	COMDAT ??$_Emplace_reallocate@ABVCStaticCollisionData@@@?$vector@VCStaticCollisionData@@V?$allocator@VCStaticCollisionData@@@std@@@std@@QAEPAVCStaticCollisionData@@QAV2@ABV2@@Z
_TEXT	SEGMENT
__Oldsize$1$ = -8					; size = 4
tv371 = -4						; size = 4
__Whereoff$1$ = -4					; size = 4
__Whereptr$ = 8						; size = 4
_<_Val_0>$ = 12						; size = 4
??$_Emplace_reallocate@ABVCStaticCollisionData@@@?$vector@VCStaticCollisionData@@V?$allocator@VCStaticCollisionData@@@std@@@std@@QAEPAVCStaticCollisionData@@QAV2@ABV2@@Z PROC ; std::vector<CStaticCollisionData,std::allocator<CStaticCollisionData> >::_Emplace_reallocate<CStaticCollisionData const &>, COMDAT
; _this$ = ecx

; 765  :     _CONSTEXPR20_CONTAINER pointer _Emplace_reallocate(const pointer _Whereptr, _Valty&&... _Val) {

  00000	55		 push	 ebp
  00001	8b ec		 mov	 ebp, esp
  00003	83 ec 08	 sub	 esp, 8

; 766  :         // reallocate and insert by perfectly forwarding _Val at _Whereptr
; 767  :         _Alty& _Al        = _Getal();
; 768  :         auto& _My_data    = _Mypair._Myval2;
; 769  :         pointer& _Myfirst = _My_data._Myfirst;
; 770  :         pointer& _Mylast  = _My_data._Mylast;
; 771  : 
; 772  :         _STL_INTERNAL_CHECK(_Mylast == _My_data._Myend); // check that we have no unused capacity
; 773  : 
; 774  :         const auto _Whereoff = static_cast<size_type>(_Whereptr - _Myfirst);

  00006	8b 55 08	 mov	 edx, DWORD PTR __Whereptr$[ebp]
  00009	b8 67 66 66 66	 mov	 eax, 1717986919		; 66666667H
  0000e	53		 push	 ebx
  0000f	8b d9		 mov	 ebx, ecx
  00011	56		 push	 esi
  00012	57		 push	 edi
  00013	8b 33		 mov	 esi, DWORD PTR [ebx]
  00015	2b d6		 sub	 edx, esi

; 775  :         const auto _Oldsize  = static_cast<size_type>(_Mylast - _Myfirst);

  00017	8b 4b 04	 mov	 ecx, DWORD PTR [ebx+4]
  0001a	f7 ea		 imul	 edx
  0001c	2b ce		 sub	 ecx, esi
  0001e	c1 fa 05	 sar	 edx, 5
  00021	8b c2		 mov	 eax, edx
  00023	c1 e8 1f	 shr	 eax, 31			; 0000001fH
  00026	03 c2		 add	 eax, edx
  00028	89 45 fc	 mov	 DWORD PTR __Whereoff$1$[ebp], eax
  0002b	b8 67 66 66 66	 mov	 eax, 1717986919		; 66666667H
  00030	f7 e9		 imul	 ecx
  00032	c1 fa 05	 sar	 edx, 5
  00035	8b c2		 mov	 eax, edx
  00037	c1 e8 1f	 shr	 eax, 31			; 0000001fH
  0003a	03 c2		 add	 eax, edx
  0003c	89 45 f8	 mov	 DWORD PTR __Oldsize$1$[ebp], eax

; 776  : 
; 777  :         if (_Oldsize == max_size()) {

  0003f	3d 33 33 33 03	 cmp	 eax, 53687091		; 03333333H
  00044	0f 84 07 01 00
	00		 je	 $LN43@Emplace_re

; 1559 :         return static_cast<size_type>(_My_data._Myend - _My_data._Myfirst);

  0004a	8b 4b 08	 mov	 ecx, DWORD PTR [ebx+8]

; 779  :         }
; 780  : 
; 781  :         const size_type _Newsize     = _Oldsize + 1;

  0004d	8d 78 01	 lea	 edi, DWORD PTR [eax+1]

; 1559 :         return static_cast<size_type>(_My_data._Myend - _My_data._Myfirst);

  00050	2b ce		 sub	 ecx, esi
  00052	b8 67 66 66 66	 mov	 eax, 1717986919		; 66666667H
  00057	f7 e9		 imul	 ecx

; 1688 :         if (_Oldcapacity > _Max - _Oldcapacity / 2) {

  00059	b8 33 33 33 03	 mov	 eax, 53687091		; 03333333H

; 1559 :         return static_cast<size_type>(_My_data._Myend - _My_data._Myfirst);

  0005e	c1 fa 05	 sar	 edx, 5
  00061	8b ca		 mov	 ecx, edx
  00063	c1 e9 1f	 shr	 ecx, 31			; 0000001fH
  00066	03 ca		 add	 ecx, edx

; 1688 :         if (_Oldcapacity > _Max - _Oldcapacity / 2) {

  00068	8b d1		 mov	 edx, ecx
  0006a	d1 ea		 shr	 edx, 1
  0006c	2b c2		 sub	 eax, edx
  0006e	3b c8		 cmp	 ecx, eax
  00070	76 17		 jbe	 SHORT $LN12@Emplace_re

; 1689 :             return _Max; // geometric growth would overflow

  00072	b8 f0 ff ff ff	 mov	 eax, -16		; fffffff0H
  00077	be 33 33 33 03	 mov	 esi, 53687091		; 03333333H
; File C:\Program Files (x86)\Microsoft Visual Studio\2019\Professional\VC\Tools\MSVC\14.29.30133\include\xmemory

; 238  :             return _Allocate_manually_vector_aligned<_Traits>(_Bytes);

  0007c	50		 push	 eax
  0007d	e8 00 00 00 00	 call	 ??$_Allocate_manually_vector_aligned@U_Default_allocate_traits@std@@@std@@YAPAXI@Z ; std::_Allocate_manually_vector_aligned<std::_Default_allocate_traits>
  00082	83 c4 04	 add	 esp, 4
  00085	8b f8		 mov	 edi, eax
  00087	eb 43		 jmp	 SHORT $LN23@Emplace_re
$LN12@Emplace_re:
; File C:\Program Files (x86)\Microsoft Visual Studio\2019\Professional\VC\Tools\MSVC\14.29.30133\include\vector

; 1692 :         const size_type _Geometric = _Oldcapacity + _Oldcapacity / 2;

  00089	8d 04 0a	 lea	 eax, DWORD PTR [edx+ecx]
; File C:\Program Files (x86)\Microsoft Visual Studio\2019\Professional\VC\Tools\MSVC\14.29.30133\include\xmemory

; 64   :         if (_Count > _Max_possible) {

  0008c	8b f7		 mov	 esi, edi
  0008e	3b c7		 cmp	 eax, edi
  00090	0f 43 f0	 cmovae	 esi, eax
  00093	81 fe 33 33 33
	03		 cmp	 esi, 53687091		; 03333333H
  00099	0f 87 b7 00 00
	00		 ja	 $LN44@Emplace_re

; 66   :         }
; 67   :     }
; 68   : 
; 69   :     return _Count * _Ty_size;

  0009f	8d 04 b6	 lea	 eax, DWORD PTR [esi+esi*4]
  000a2	c1 e0 04	 shl	 eax, 4

; 237  :         if (_Bytes >= _Big_allocation_threshold) { // boost the alignment of big allocations to help autovectorization

  000a5	3d 00 10 00 00	 cmp	 eax, 4096		; 00001000H
  000aa	72 0d		 jb	 SHORT $LN24@Emplace_re

; 238  :             return _Allocate_manually_vector_aligned<_Traits>(_Bytes);

  000ac	50		 push	 eax
  000ad	e8 00 00 00 00	 call	 ??$_Allocate_manually_vector_aligned@U_Default_allocate_traits@std@@@std@@YAPAXI@Z ; std::_Allocate_manually_vector_aligned<std::_Default_allocate_traits>
  000b2	83 c4 04	 add	 esp, 4
  000b5	8b f8		 mov	 edi, eax
  000b7	eb 13		 jmp	 SHORT $LN23@Emplace_re
$LN24@Emplace_re:

; 239  :         }
; 240  :     }
; 241  : #endif // defined(_M_IX86) || defined(_M_X64)
; 242  : 
; 243  :     if (_Bytes != 0) {

  000b9	85 c0		 test	 eax, eax
  000bb	74 0d		 je	 SHORT $LN25@Emplace_re

; 85   :         return ::operator new(_Bytes);

  000bd	50		 push	 eax
  000be	e8 00 00 00 00	 call	 ??2@YAPAXI@Z		; operator new
  000c3	83 c4 04	 add	 esp, 4

; 244  :         return _Traits::_Allocate(_Bytes);

  000c6	8b f8		 mov	 edi, eax
  000c8	eb 02		 jmp	 SHORT $LN23@Emplace_re
$LN25@Emplace_re:

; 245  :     }
; 246  : 
; 247  :     return nullptr;

  000ca	33 ff		 xor	 edi, edi
$LN23@Emplace_re:
; File C:\Program Files (x86)\Microsoft Visual Studio\2019\Professional\VC\Tools\MSVC\14.29.30133\include\vector

; 789  :         _Alty_traits::construct(_Al, _Unfancy(_Newvec + _Whereoff), _STD forward<_Valty>(_Val)...);

  000cc	8b 45 fc	 mov	 eax, DWORD PTR __Whereoff$1$[ebp]
  000cf	8d 0c 80	 lea	 ecx, DWORD PTR [eax+eax*4]
; File C:\Program Files (x86)\Microsoft Visual Studio\2019\Professional\VC\Tools\MSVC\14.29.30133\include\xmemory

; 714  :             ::new (_Voidify_iter(_Ptr)) _Objty(_STD forward<_Types>(_Args)...);

  000d2	8b 45 0c	 mov	 eax, DWORD PTR _<_Val_0>$[ebp]
; File C:\Program Files (x86)\Microsoft Visual Studio\2019\Professional\VC\Tools\MSVC\14.29.30133\include\vector

; 789  :         _Alty_traits::construct(_Al, _Unfancy(_Newvec + _Whereoff), _STD forward<_Valty>(_Val)...);

  000d5	c1 e1 04	 shl	 ecx, 4
  000d8	03 cf		 add	 ecx, edi
  000da	89 4d fc	 mov	 DWORD PTR tv371[ebp], ecx
; File C:\Program Files (x86)\Microsoft Visual Studio\2019\Professional\VC\Tools\MSVC\14.29.30133\include\xmemory

; 714  :             ::new (_Voidify_iter(_Ptr)) _Objty(_STD forward<_Types>(_Args)...);

  000dd	0f 10 00	 movups	 xmm0, XMMWORD PTR [eax]
  000e0	0f 11 01	 movups	 XMMWORD PTR [ecx], xmm0
  000e3	0f 10 40 10	 movups	 xmm0, XMMWORD PTR [eax+16]
  000e7	0f 11 41 10	 movups	 XMMWORD PTR [ecx+16], xmm0
  000eb	0f 10 40 20	 movups	 xmm0, XMMWORD PTR [eax+32]
  000ef	0f 11 41 20	 movups	 XMMWORD PTR [ecx+32], xmm0
  000f3	0f 10 40 30	 movups	 xmm0, XMMWORD PTR [eax+48]
  000f7	0f 11 41 30	 movups	 XMMWORD PTR [ecx+48], xmm0
  000fb	0f 10 40 40	 movups	 xmm0, XMMWORD PTR [eax+64]
; File C:\Program Files (x86)\Microsoft Visual Studio\2019\Professional\VC\Tools\MSVC\14.29.30133\include\vector

; 792  :         if (_Whereptr == _Mylast) { // at back, provide strong guarantee

  000ff	8b 45 08	 mov	 eax, DWORD PTR __Whereptr$[ebp]
; File C:\Program Files (x86)\Microsoft Visual Studio\2019\Professional\VC\Tools\MSVC\14.29.30133\include\xmemory

; 714  :             ::new (_Voidify_iter(_Ptr)) _Objty(_STD forward<_Types>(_Args)...);

  00102	0f 11 41 40	 movups	 XMMWORD PTR [ecx+64], xmm0
; File C:\Program Files (x86)\Microsoft Visual Studio\2019\Professional\VC\Tools\MSVC\14.29.30133\include\vector

; 792  :         if (_Whereptr == _Mylast) { // at back, provide strong guarantee

  00106	8b 53 04	 mov	 edx, DWORD PTR [ebx+4]
  00109	8b 0b		 mov	 ecx, DWORD PTR [ebx]
  0010b	3b c2		 cmp	 eax, edx
  0010d	75 04		 jne	 SHORT $LN4@Emplace_re

; 1664 :         _Uninitialized_move(_First, _Last, _Dest, _Getal());

  0010f	8b c7		 mov	 eax, edi

; 793  :             _Umove_if_noexcept(_Myfirst, _Mylast, _Newvec);
; 794  :         } else { // provide basic guarantee

  00111	eb 18		 jmp	 SHORT $LN5@Emplace_re
$LN4@Emplace_re:

; 1659 :         return _Uninitialized_move(_First, _Last, _Dest, _Getal());

  00113	53		 push	 ebx
  00114	57		 push	 edi
  00115	50		 push	 eax
  00116	51		 push	 ecx
  00117	e8 00 00 00 00	 call	 ??$_Uninitialized_move@PAVCStaticCollisionData@@V?$allocator@VCStaticCollisionData@@@std@@@std@@YAPAVCStaticCollisionData@@QAV1@0PAV1@AAV?$allocator@VCStaticCollisionData@@@0@@Z ; std::_Uninitialized_move<CStaticCollisionData *,std::allocator<CStaticCollisionData> >

; 795  :             _Umove(_Myfirst, _Whereptr, _Newvec);
; 796  :             _Constructed_first = _Newvec;
; 797  :             _Umove(_Whereptr, _Mylast, _Newvec + _Whereoff + 1);

  0011c	8b 45 fc	 mov	 eax, DWORD PTR tv371[ebp]

; 1659 :         return _Uninitialized_move(_First, _Last, _Dest, _Getal());

  0011f	83 c4 10	 add	 esp, 16			; 00000010H
  00122	8b 4d 08	 mov	 ecx, DWORD PTR __Whereptr$[ebp]

; 795  :             _Umove(_Myfirst, _Whereptr, _Newvec);
; 796  :             _Constructed_first = _Newvec;
; 797  :             _Umove(_Whereptr, _Mylast, _Newvec + _Whereoff + 1);

  00125	83 c0 50	 add	 eax, 80			; 00000050H

; 1659 :         return _Uninitialized_move(_First, _Last, _Dest, _Getal());

  00128	8b 53 04	 mov	 edx, DWORD PTR [ebx+4]
$LN5@Emplace_re:

; 795  :             _Umove(_Myfirst, _Whereptr, _Newvec);
; 796  :             _Constructed_first = _Newvec;
; 797  :             _Umove(_Whereptr, _Mylast, _Newvec + _Whereoff + 1);

  0012b	53		 push	 ebx
  0012c	50		 push	 eax
  0012d	52		 push	 edx
  0012e	51		 push	 ecx
  0012f	e8 00 00 00 00	 call	 ??$_Uninitialized_move@PAVCStaticCollisionData@@V?$allocator@VCStaticCollisionData@@@std@@@std@@YAPAVCStaticCollisionData@@QAV1@0PAV1@AAV?$allocator@VCStaticCollisionData@@@0@@Z ; std::_Uninitialized_move<CStaticCollisionData *,std::allocator<CStaticCollisionData> >

; 798  :         }
; 799  :         _CATCH_ALL
; 800  :         _Destroy(_Constructed_first, _Constructed_last);
; 801  :         _Al.deallocate(_Newvec, _Newcapacity);
; 802  :         _RERAISE;
; 803  :         _CATCH_END
; 804  : 
; 805  :         _Change_array(_Newvec, _Newsize, _Newcapacity);

  00134	8b 45 f8	 mov	 eax, DWORD PTR __Oldsize$1$[ebp]
  00137	83 c4 10	 add	 esp, 16			; 00000010H
  0013a	40		 inc	 eax
  0013b	8b cb		 mov	 ecx, ebx
  0013d	56		 push	 esi
  0013e	50		 push	 eax
  0013f	57		 push	 edi
  00140	e8 00 00 00 00	 call	 ?_Change_array@?$vector@VCStaticCollisionData@@V?$allocator@VCStaticCollisionData@@@std@@@std@@AAEXQAVCStaticCollisionData@@II@Z ; std::vector<CStaticCollisionData,std::allocator<CStaticCollisionData> >::_Change_array

; 806  :         return _Newvec + _Whereoff;

  00145	8b 45 fc	 mov	 eax, DWORD PTR tv371[ebp]
  00148	5f		 pop	 edi
  00149	5e		 pop	 esi
  0014a	5b		 pop	 ebx

; 807  :     }

  0014b	8b e5		 mov	 esp, ebp
  0014d	5d		 pop	 ebp
  0014e	c2 08 00	 ret	 8
$LN43@Emplace_re:

; 778  :             _Xlength();

  00151	e8 00 00 00 00	 call	 ?_Xlength@?$vector@VCStaticCollisionData@@V?$allocator@VCStaticCollisionData@@@std@@@std@@CAXXZ ; std::vector<CStaticCollisionData,std::allocator<CStaticCollisionData> >::_Xlength
$LN44@Emplace_re:
; File C:\Program Files (x86)\Microsoft Visual Studio\2019\Professional\VC\Tools\MSVC\14.29.30133\include\xmemory

; 65   :             _Throw_bad_array_new_length(); // multiply overflow

  00156	e8 00 00 00 00	 call	 ?_Throw_bad_array_new_length@std@@YAXXZ ; std::_Throw_bad_array_new_length
$LN41@Emplace_re:
  0015b	cc		 int	 3
??$_Emplace_reallocate@ABVCStaticCollisionData@@@?$vector@VCStaticCollisionData@@V?$allocator@VCStaticCollisionData@@@std@@@std@@QAEPAVCStaticCollisionData@@QAV2@ABV2@@Z ENDP ; std::vector<CStaticCollisionData,std::allocator<CStaticCollisionData> >::_Emplace_reallocate<CStaticCollisionData const &>
_TEXT	ENDS
; Function compile flags: /Ogtp
;	COMDAT ??_GCAttributeData@@UAEPAXI@Z
_TEXT	SEGMENT
___flags$ = 8						; size = 4
??_GCAttributeData@@UAEPAXI@Z PROC			; CAttributeData::`scalar deleting destructor', COMDAT
; _this$ = ecx
  00000	55		 push	 ebp
  00001	8b ec		 mov	 ebp, esp
  00003	56		 push	 esi
  00004	8b f1		 mov	 esi, ecx
  00006	e8 00 00 00 00	 call	 ??1CAttributeData@@UAE@XZ ; CAttributeData::~CAttributeData
  0000b	f6 45 08 01	 test	 BYTE PTR ___flags$[ebp], 1
  0000f	74 0b		 je	 SHORT $LN4@scalar
  00011	6a 48		 push	 72			; 00000048H
  00013	56		 push	 esi
  00014	e8 00 00 00 00	 call	 ??3@YAXPAXI@Z		; operator delete
  00019	83 c4 08	 add	 esp, 8
$LN4@scalar:
  0001c	8b c6		 mov	 eax, esi
  0001e	5e		 pop	 esi
  0001f	5d		 pop	 ebp
  00020	c2 04 00	 ret	 4
??_GCAttributeData@@UAEPAXI@Z ENDP			; CAttributeData::`scalar deleting destructor'
_TEXT	ENDS
; Function compile flags: /Ogtp
; File C:\Program Files (x86)\Microsoft Visual Studio\2019\Professional\VC\Tools\MSVC\14.29.30133\include\vector
;	COMDAT ?_Xlength@?$vector@USHeightData@@V?$allocator@USHeightData@@@std@@@std@@CAXXZ
_TEXT	SEGMENT
?_Xlength@?$vector@USHeightData@@V?$allocator@USHeightData@@@std@@@std@@CAXXZ PROC ; std::vector<SHeightData,std::allocator<SHeightData> >::_Xlength, COMDAT

; 1774 :         _Xlength_error("vector too long");

  00000	68 00 00 00 00	 push	 OFFSET ??_C@_0BA@FOIKENOD@vector?5too?5long@
  00005	e8 00 00 00 00	 call	 ?_Xlength_error@std@@YAXPBD@Z ; std::_Xlength_error
$LN3@Xlength:
  0000a	cc		 int	 3
?_Xlength@?$vector@USHeightData@@V?$allocator@USHeightData@@@std@@@std@@CAXXZ ENDP ; std::vector<SHeightData,std::allocator<SHeightData> >::_Xlength
_TEXT	ENDS
; Function compile flags: /Ogtp
; File C:\Program Files (x86)\Microsoft Visual Studio\2019\Professional\VC\Tools\MSVC\14.29.30133\include\vector
; File C:\Program Files (x86)\Microsoft Visual Studio\2019\Professional\VC\Tools\MSVC\14.29.30133\include\xmemory
; File C:\Program Files (x86)\Microsoft Visual Studio\2019\Professional\VC\Tools\MSVC\14.29.30133\include\vector
; File C:\Program Files (x86)\Microsoft Visual Studio\2019\Professional\VC\Tools\MSVC\14.29.30133\include\xmemory
; File C:\Program Files (x86)\Microsoft Visual Studio\2019\Professional\VC\Tools\MSVC\14.29.30133\include\vector
; File C:\Program Files (x86)\Microsoft Visual Studio\2019\Professional\VC\Tools\MSVC\14.29.30133\include\xmemory
; File C:\Program Files (x86)\Microsoft Visual Studio\2019\Professional\VC\Tools\MSVC\14.29.30133\include\vector
;	COMDAT ?_Ufill@?$vector@USHeightData@@V?$allocator@USHeightData@@@std@@@std@@AAEPAUSHeightData@@PAU3@IU_Value_init_tag@2@@Z
_TEXT	SEGMENT
__Dest$ = 8						; size = 4
__Count$ = 12						; size = 4
___formal$ = 16						; size = 1
?_Ufill@?$vector@USHeightData@@V?$allocator@USHeightData@@@std@@@std@@AAEPAUSHeightData@@PAU3@IU_Value_init_tag@2@@Z PROC ; std::vector<SHeightData,std::allocator<SHeightData> >::_Ufill, COMDAT
; _this$ = ecx

; 1646 :     _CONSTEXPR20_CONTAINER pointer _Ufill(pointer _Dest, const size_type _Count, _Value_init_tag) {

  00000	55		 push	 ebp
  00001	8b ec		 mov	 ebp, esp
  00003	53		 push	 ebx

; 1648 :         return _Uninitialized_value_construct_n(_Dest, _Count, _Getal());

  00004	8b 5d 0c	 mov	 ebx, DWORD PTR __Count$[ebp]
  00007	57		 push	 edi
; File C:\Program Files (x86)\Microsoft Visual Studio\2019\Professional\VC\Tools\MSVC\14.29.30133\include\xmemory

; 1620 :         : _First(_Dest), _Last(_Dest), _Al(_Al_) {}

  00008	8b 7d 08	 mov	 edi, DWORD PTR __Dest$[ebp]

; 1830 :     for (; 0 < _Count; --_Count) {

  0000b	85 db		 test	 ebx, ebx
  0000d	74 31		 je	 SHORT $LN48@Ufill

; 1620 :         : _First(_Dest), _Last(_Dest), _Al(_Al_) {}

  0000f	56		 push	 esi
  00010	8d 77 2c	 lea	 esi, DWORD PTR [edi+44]
$LL6@Ufill:

; 714  :             ::new (_Voidify_iter(_Ptr)) _Objty(_STD forward<_Types>(_Args)...);

  00013	6a 30		 push	 48			; 00000030H
  00015	6a 00		 push	 0
  00017	57		 push	 edi
  00018	e8 00 00 00 00	 call	 _memset
  0001d	83 c4 0c	 add	 esp, 12			; 0000000cH
; File C:\Program Files (x86)\Microsoft Visual Studio\2019\Professional\VC\Tools\MSVC\14.29.30133\include\vector

; 401  :     _CONSTEXPR20_CONTAINER _Vector_val() noexcept : _Myfirst(), _Mylast(), _Myend() {}

  00020	c7 46 f8 00 00
	00 00		 mov	 DWORD PTR [esi-8], 0
; File C:\Program Files (x86)\Microsoft Visual Studio\2019\Professional\VC\Tools\MSVC\14.29.30133\include\xmemory

; 1632 :         ++_Last;

  00027	83 c7 30	 add	 edi, 48			; 00000030H
; File C:\Program Files (x86)\Microsoft Visual Studio\2019\Professional\VC\Tools\MSVC\14.29.30133\include\vector

; 401  :     _CONSTEXPR20_CONTAINER _Vector_val() noexcept : _Myfirst(), _Mylast(), _Myend() {}

  0002a	c7 46 fc 00 00
	00 00		 mov	 DWORD PTR [esi-4], 0
  00031	c7 06 00 00 00
	00		 mov	 DWORD PTR [esi], 0
; File C:\Program Files (x86)\Microsoft Visual Studio\2019\Professional\VC\Tools\MSVC\14.29.30133\include\xmemory

; 1632 :         ++_Last;

  00037	8d 76 30	 lea	 esi, DWORD PTR [esi+48]

; 1830 :     for (; 0 < _Count; --_Count) {

  0003a	83 eb 01	 sub	 ebx, 1
  0003d	75 d4		 jne	 SHORT $LL6@Ufill
; File C:\Program Files (x86)\Microsoft Visual Studio\2019\Professional\VC\Tools\MSVC\14.29.30133\include\vector

; 1648 :         return _Uninitialized_value_construct_n(_Dest, _Count, _Getal());

  0003f	5e		 pop	 esi
$LN48@Ufill:

; 1649 :     }

  00040	8b c7		 mov	 eax, edi
  00042	5f		 pop	 edi
  00043	5b		 pop	 ebx
  00044	5d		 pop	 ebp
  00045	c2 0c 00	 ret	 12			; 0000000cH
?_Ufill@?$vector@USHeightData@@V?$allocator@USHeightData@@@std@@@std@@AAEPAUSHeightData@@PAU3@IU_Value_init_tag@2@@Z ENDP ; std::vector<SHeightData,std::allocator<SHeightData> >::_Ufill
_TEXT	ENDS
; Function compile flags: /Ogtp
; File C:\Program Files (x86)\Microsoft Visual Studio\2019\Professional\VC\Tools\MSVC\14.29.30133\include\vector
; File C:\Program Files (x86)\Microsoft Visual Studio\2019\Professional\VC\Tools\MSVC\14.29.30133\include\xmemory
; File C:\Program Files (x86)\Microsoft Visual Studio\2019\Professional\VC\Tools\MSVC\14.29.30133\include\vector
; File C:\Program Files (x86)\Microsoft Visual Studio\2019\Professional\VC\Tools\MSVC\14.29.30133\include\xmemory
; File C:\Program Files (x86)\Microsoft Visual Studio\2019\Professional\VC\Tools\MSVC\14.29.30133\include\vector
; File C:\Program Files (x86)\Microsoft Visual Studio\2019\Professional\VC\Tools\MSVC\14.29.30133\include\xmemory
; File C:\Program Files (x86)\Microsoft Visual Studio\2019\Professional\VC\Tools\MSVC\14.29.30133\include\vector
; File C:\Program Files (x86)\Microsoft Visual Studio\2019\Professional\VC\Tools\MSVC\14.29.30133\include\xmemory
; File C:\Program Files (x86)\Microsoft Visual Studio\2019\Professional\VC\Tools\MSVC\14.29.30133\include\vector
; File C:\Program Files (x86)\Microsoft Visual Studio\2019\Professional\VC\Tools\MSVC\14.29.30133\include\xmemory
; File C:\Program Files (x86)\Microsoft Visual Studio\2019\Professional\VC\Tools\MSVC\14.29.30133\include\vector
;	COMDAT ??1?$vector@USHeightData@@V?$allocator@USHeightData@@@std@@@std@@QAE@XZ
_TEXT	SEGMENT
??1?$vector@USHeightData@@V?$allocator@USHeightData@@@std@@@std@@QAE@XZ PROC ; std::vector<SHeightData,std::allocator<SHeightData> >::~vector<SHeightData,std::allocator<SHeightData> >, COMDAT
; _this$ = ecx

; 711  :     _CONSTEXPR20_CONTAINER ~vector() noexcept {

  00000	56		 push	 esi
  00001	57		 push	 edi
  00002	8b f9		 mov	 edi, ecx

; 1763 :         if (_Myfirst) { // destroy and deallocate old array

  00004	8b 37		 mov	 esi, DWORD PTR [edi]
  00006	85 f6		 test	 esi, esi
  00008	74 6d		 je	 SHORT $LN4@vector

; 1764 :             _Destroy(_Myfirst, _Mylast);

  0000a	53		 push	 ebx
  0000b	8b 5f 04	 mov	 ebx, DWORD PTR [edi+4]
; File C:\Program Files (x86)\Microsoft Visual Studio\2019\Professional\VC\Tools\MSVC\14.29.30133\include\xmemory

; 949  :         for (; _First != _Last; ++_First) {

  0000e	3b f3		 cmp	 esi, ebx
  00010	74 11		 je	 SHORT $LN10@vector
$LL11@vector:
  00012	8d 4e 24	 lea	 ecx, DWORD PTR [esi+36]
  00015	e8 00 00 00 00	 call	 ??1?$vector@UD3DXVECTOR3@@V?$allocator@UD3DXVECTOR3@@@std@@@std@@QAE@XZ ; std::vector<D3DXVECTOR3,std::allocator<D3DXVECTOR3> >::~vector<D3DXVECTOR3,std::allocator<D3DXVECTOR3> >
  0001a	83 c6 30	 add	 esi, 48			; 00000030H
  0001d	3b f3		 cmp	 esi, ebx
  0001f	75 f1		 jne	 SHORT $LL11@vector
  00021	8b 37		 mov	 esi, DWORD PTR [edi]
$LN10@vector:
; File C:\Program Files (x86)\Microsoft Visual Studio\2019\Professional\VC\Tools\MSVC\14.29.30133\include\vector

; 1765 :             _Getal().deallocate(_Myfirst, static_cast<size_type>(_Myend - _Myfirst));

  00023	8b 4f 08	 mov	 ecx, DWORD PTR [edi+8]
  00026	b8 ab aa aa 2a	 mov	 eax, 715827883		; 2aaaaaabH
  0002b	2b ce		 sub	 ecx, esi
  0002d	f7 e9		 imul	 ecx
; File C:\Program Files (x86)\Microsoft Visual Studio\2019\Professional\VC\Tools\MSVC\14.29.30133\include\xmemory

; 835  :         _Deallocate<_New_alignof<_Ty>>(_Ptr, sizeof(_Ty) * _Count);

  0002f	5b		 pop	 ebx
; File C:\Program Files (x86)\Microsoft Visual Studio\2019\Professional\VC\Tools\MSVC\14.29.30133\include\vector

; 1765 :             _Getal().deallocate(_Myfirst, static_cast<size_type>(_Myend - _Myfirst));

  00030	c1 fa 03	 sar	 edx, 3
  00033	8b c2		 mov	 eax, edx
  00035	c1 e8 1f	 shr	 eax, 31			; 0000001fH
  00038	03 c2		 add	 eax, edx
; File C:\Program Files (x86)\Microsoft Visual Studio\2019\Professional\VC\Tools\MSVC\14.29.30133\include\xmemory

; 835  :         _Deallocate<_New_alignof<_Ty>>(_Ptr, sizeof(_Ty) * _Count);

  0003a	8d 04 40	 lea	 eax, DWORD PTR [eax+eax*2]
  0003d	c1 e0 04	 shl	 eax, 4

; 260  :         if (_Bytes >= _Big_allocation_threshold) { // boost the alignment of big allocations to help autovectorization

  00040	3d 00 10 00 00	 cmp	 eax, 4096		; 00001000H
  00045	72 12		 jb	 SHORT $LN35@vector

; 158  :     const uintptr_t _Ptr_container   = _Ptr_user[-1];

  00047	8b 4e fc	 mov	 ecx, DWORD PTR [esi-4]
  0004a	83 c0 23	 add	 eax, 35			; 00000023H

; 159  : 
; 160  :     // If the following asserts, it likely means that we are performing
; 161  :     // an aligned delete on memory coming from an unaligned allocation.
; 162  :     _STL_ASSERT(_Ptr_user[-2] == _Big_allocation_sentinel, "invalid argument");
; 163  : 
; 164  :     // Extra paranoia on aligned allocation/deallocation; ensure _Ptr_container is
; 165  :     // in range [_Min_back_shift, _Non_user_size]
; 166  : #ifdef _DEBUG
; 167  :     constexpr uintptr_t _Min_back_shift = 2 * sizeof(void*);
; 168  : #else // ^^^ _DEBUG ^^^ // vvv !_DEBUG vvv
; 169  :     constexpr uintptr_t _Min_back_shift = sizeof(void*);
; 170  : #endif // _DEBUG
; 171  :     const uintptr_t _Back_shift = reinterpret_cast<uintptr_t>(_Ptr) - _Ptr_container;

  0004d	2b f1		 sub	 esi, ecx

; 172  :     _STL_VERIFY(_Back_shift >= _Min_back_shift && _Back_shift <= _Non_user_size, "invalid argument");

  0004f	83 c6 fc	 add	 esi, -4			; fffffffcH
  00052	83 fe 1f	 cmp	 esi, 31			; 0000001fH
  00055	77 23		 ja	 SHORT $LN32@vector

; 173  :     _Ptr = reinterpret_cast<void*>(_Ptr_container);

  00057	8b f1		 mov	 esi, ecx
$LN35@vector:

; 264  :         ::operator delete(_Ptr, _Bytes);

  00059	50		 push	 eax
  0005a	56		 push	 esi
  0005b	e8 00 00 00 00	 call	 ??3@YAXPAXI@Z		; operator delete
; File C:\Program Files (x86)\Microsoft Visual Studio\2019\Professional\VC\Tools\MSVC\14.29.30133\include\vector

; 1767 :             _Myfirst = nullptr;

  00060	c7 07 00 00 00
	00		 mov	 DWORD PTR [edi], 0
; File C:\Program Files (x86)\Microsoft Visual Studio\2019\Professional\VC\Tools\MSVC\14.29.30133\include\xmemory

; 264  :         ::operator delete(_Ptr, _Bytes);

  00066	83 c4 08	 add	 esp, 8
; File C:\Program Files (x86)\Microsoft Visual Studio\2019\Professional\VC\Tools\MSVC\14.29.30133\include\vector

; 1768 :             _Mylast  = nullptr;

  00069	c7 47 04 00 00
	00 00		 mov	 DWORD PTR [edi+4], 0

; 1769 :             _Myend   = nullptr;

  00070	c7 47 08 00 00
	00 00		 mov	 DWORD PTR [edi+8], 0
$LN4@vector:
  00077	5f		 pop	 edi

; 717  :     }

  00078	5e		 pop	 esi
  00079	c3		 ret	 0
$LN32@vector:
; File C:\Program Files (x86)\Microsoft Visual Studio\2019\Professional\VC\Tools\MSVC\14.29.30133\include\xmemory

; 172  :     _STL_VERIFY(_Back_shift >= _Min_back_shift && _Back_shift <= _Non_user_size, "invalid argument");

  0007a	e8 00 00 00 00	 call	 __invalid_parameter_noinfo_noreturn
$LN44@vector:
  0007f	cc		 int	 3
??1?$vector@USHeightData@@V?$allocator@USHeightData@@@std@@@std@@QAE@XZ ENDP ; std::vector<SHeightData,std::allocator<SHeightData> >::~vector<SHeightData,std::allocator<SHeightData> >
_TEXT	ENDS
; Function compile flags: /Ogtp
; File C:\Program Files (x86)\Microsoft Visual Studio\2019\Professional\VC\Tools\MSVC\14.29.30133\include\vector
;	COMDAT ?_Xlength@?$vector@VCStaticCollisionData@@V?$allocator@VCStaticCollisionData@@@std@@@std@@CAXXZ
_TEXT	SEGMENT
?_Xlength@?$vector@VCStaticCollisionData@@V?$allocator@VCStaticCollisionData@@@std@@@std@@CAXXZ PROC ; std::vector<CStaticCollisionData,std::allocator<CStaticCollisionData> >::_Xlength, COMDAT

; 1774 :         _Xlength_error("vector too long");

  00000	68 00 00 00 00	 push	 OFFSET ??_C@_0BA@FOIKENOD@vector?5too?5long@
  00005	e8 00 00 00 00	 call	 ?_Xlength_error@std@@YAXPBD@Z ; std::_Xlength_error
$LN3@Xlength:
  0000a	cc		 int	 3
?_Xlength@?$vector@VCStaticCollisionData@@V?$allocator@VCStaticCollisionData@@@std@@@std@@CAXXZ ENDP ; std::vector<CStaticCollisionData,std::allocator<CStaticCollisionData> >::_Xlength
_TEXT	ENDS
; Function compile flags: /Ogtp
; File C:\Program Files (x86)\Microsoft Visual Studio\2019\Professional\VC\Tools\MSVC\14.29.30133\include\vector
; File C:\Program Files (x86)\Microsoft Visual Studio\2019\Professional\VC\Tools\MSVC\14.29.30133\include\xmemory
; File C:\Program Files (x86)\Microsoft Visual Studio\2019\Professional\VC\Tools\MSVC\14.29.30133\include\vector
; File C:\Program Files (x86)\Microsoft Visual Studio\2019\Professional\VC\Tools\MSVC\14.29.30133\include\xmemory
; File C:\Program Files (x86)\Microsoft Visual Studio\2019\Professional\VC\Tools\MSVC\14.29.30133\include\vector
;	COMDAT ?_Change_array@?$vector@VCStaticCollisionData@@V?$allocator@VCStaticCollisionData@@@std@@@std@@AAEXQAVCStaticCollisionData@@II@Z
_TEXT	SEGMENT
__Newvec$ = 8						; size = 4
__Newsize$ = 12						; size = 4
__Newcapacity$ = 16					; size = 4
?_Change_array@?$vector@VCStaticCollisionData@@V?$allocator@VCStaticCollisionData@@@std@@@std@@AAEXQAVCStaticCollisionData@@II@Z PROC ; std::vector<CStaticCollisionData,std::allocator<CStaticCollisionData> >::_Change_array, COMDAT
; _this$ = ecx

; 1736 :         const pointer _Newvec, const size_type _Newsize, const size_type _Newcapacity) {

  00000	55		 push	 ebp
  00001	8b ec		 mov	 ebp, esp
  00003	56		 push	 esi
  00004	57		 push	 edi
  00005	8b f9		 mov	 edi, ecx

; 1737 :         // orphan all iterators, discard old array, acquire new array
; 1738 :         auto& _My_data    = _Mypair._Myval2;
; 1739 :         pointer& _Myfirst = _My_data._Myfirst;
; 1740 :         pointer& _Mylast  = _My_data._Mylast;
; 1741 :         pointer& _Myend   = _My_data._Myend;
; 1742 : 
; 1743 :         _My_data._Orphan_all();
; 1744 : 
; 1745 :         if (_Myfirst) { // destroy and deallocate old array

  00007	8b 37		 mov	 esi, DWORD PTR [edi]
  00009	85 f6		 test	 esi, esi
  0000b	74 40		 je	 SHORT $LN8@Change_arr

; 1746 :             _Destroy(_Myfirst, _Mylast);
; 1747 :             _Getal().deallocate(_Myfirst, static_cast<size_type>(_Myend - _Myfirst));

  0000d	8b 4f 08	 mov	 ecx, DWORD PTR [edi+8]
  00010	b8 67 66 66 66	 mov	 eax, 1717986919		; 66666667H
  00015	2b ce		 sub	 ecx, esi
  00017	f7 e9		 imul	 ecx
  00019	c1 fa 05	 sar	 edx, 5
  0001c	8b c2		 mov	 eax, edx
  0001e	c1 e8 1f	 shr	 eax, 31			; 0000001fH
  00021	03 c2		 add	 eax, edx
; File C:\Program Files (x86)\Microsoft Visual Studio\2019\Professional\VC\Tools\MSVC\14.29.30133\include\xmemory

; 835  :         _Deallocate<_New_alignof<_Ty>>(_Ptr, sizeof(_Ty) * _Count);

  00023	8d 0c 80	 lea	 ecx, DWORD PTR [eax+eax*4]
  00026	c1 e1 04	 shl	 ecx, 4

; 260  :         if (_Bytes >= _Big_allocation_threshold) { // boost the alignment of big allocations to help autovectorization

  00029	81 f9 00 10 00
	00		 cmp	 ecx, 4096		; 00001000H
  0002f	72 12		 jb	 SHORT $LN18@Change_arr

; 158  :     const uintptr_t _Ptr_container   = _Ptr_user[-1];

  00031	8b 56 fc	 mov	 edx, DWORD PTR [esi-4]
  00034	83 c1 23	 add	 ecx, 35			; 00000023H

; 159  : 
; 160  :     // If the following asserts, it likely means that we are performing
; 161  :     // an aligned delete on memory coming from an unaligned allocation.
; 162  :     _STL_ASSERT(_Ptr_user[-2] == _Big_allocation_sentinel, "invalid argument");
; 163  : 
; 164  :     // Extra paranoia on aligned allocation/deallocation; ensure _Ptr_container is
; 165  :     // in range [_Min_back_shift, _Non_user_size]
; 166  : #ifdef _DEBUG
; 167  :     constexpr uintptr_t _Min_back_shift = 2 * sizeof(void*);
; 168  : #else // ^^^ _DEBUG ^^^ // vvv !_DEBUG vvv
; 169  :     constexpr uintptr_t _Min_back_shift = sizeof(void*);
; 170  : #endif // _DEBUG
; 171  :     const uintptr_t _Back_shift = reinterpret_cast<uintptr_t>(_Ptr) - _Ptr_container;

  00037	2b f2		 sub	 esi, edx

; 172  :     _STL_VERIFY(_Back_shift >= _Min_back_shift && _Back_shift <= _Non_user_size, "invalid argument");

  00039	8d 46 fc	 lea	 eax, DWORD PTR [esi-4]
  0003c	83 f8 1f	 cmp	 eax, 31			; 0000001fH
  0003f	77 33		 ja	 SHORT $LN15@Change_arr

; 173  :     _Ptr = reinterpret_cast<void*>(_Ptr_container);

  00041	8b f2		 mov	 esi, edx
$LN18@Change_arr:

; 264  :         ::operator delete(_Ptr, _Bytes);

  00043	51		 push	 ecx
  00044	56		 push	 esi
  00045	e8 00 00 00 00	 call	 ??3@YAXPAXI@Z		; operator delete
  0004a	83 c4 08	 add	 esp, 8
$LN8@Change_arr:
; File C:\Program Files (x86)\Microsoft Visual Studio\2019\Professional\VC\Tools\MSVC\14.29.30133\include\vector

; 1751 :         _Mylast  = _Newvec + _Newsize;

  0004d	8b 45 0c	 mov	 eax, DWORD PTR __Newsize$[ebp]
  00050	8b 4d 08	 mov	 ecx, DWORD PTR __Newvec$[ebp]
  00053	89 0f		 mov	 DWORD PTR [edi], ecx
  00055	8d 04 80	 lea	 eax, DWORD PTR [eax+eax*4]
  00058	c1 e0 04	 shl	 eax, 4
  0005b	03 c1		 add	 eax, ecx
  0005d	89 47 04	 mov	 DWORD PTR [edi+4], eax

; 1752 :         _Myend   = _Newvec + _Newcapacity;

  00060	8b 45 10	 mov	 eax, DWORD PTR __Newcapacity$[ebp]
  00063	8d 04 80	 lea	 eax, DWORD PTR [eax+eax*4]
  00066	c1 e0 04	 shl	 eax, 4
  00069	03 c1		 add	 eax, ecx
  0006b	89 47 08	 mov	 DWORD PTR [edi+8], eax
  0006e	5f		 pop	 edi
  0006f	5e		 pop	 esi

; 1753 :     }

  00070	5d		 pop	 ebp
  00071	c2 0c 00	 ret	 12			; 0000000cH
$LN15@Change_arr:
; File C:\Program Files (x86)\Microsoft Visual Studio\2019\Professional\VC\Tools\MSVC\14.29.30133\include\xmemory

; 172  :     _STL_VERIFY(_Back_shift >= _Min_back_shift && _Back_shift <= _Non_user_size, "invalid argument");

  00074	e8 00 00 00 00	 call	 __invalid_parameter_noinfo_noreturn
$LN22@Change_arr:
  00079	cc		 int	 3
?_Change_array@?$vector@VCStaticCollisionData@@V?$allocator@VCStaticCollisionData@@@std@@@std@@AAEXQAVCStaticCollisionData@@II@Z ENDP ; std::vector<CStaticCollisionData,std::allocator<CStaticCollisionData> >::_Change_array
_TEXT	ENDS
; Function compile flags: /Ogtp
; File C:\Program Files (x86)\Microsoft Visual Studio\2019\Professional\VC\Tools\MSVC\14.29.30133\include\vector
; File C:\Program Files (x86)\Microsoft Visual Studio\2019\Professional\VC\Tools\MSVC\14.29.30133\include\xmemory
; File C:\Program Files (x86)\Microsoft Visual Studio\2019\Professional\VC\Tools\MSVC\14.29.30133\include\vector
; File C:\Program Files (x86)\Microsoft Visual Studio\2019\Professional\VC\Tools\MSVC\14.29.30133\include\xmemory
; File C:\Program Files (x86)\Microsoft Visual Studio\2019\Professional\VC\Tools\MSVC\14.29.30133\include\vector
; File C:\Program Files (x86)\Microsoft Visual Studio\2019\Professional\VC\Tools\MSVC\14.29.30133\include\xmemory
; File C:\Program Files (x86)\Microsoft Visual Studio\2019\Professional\VC\Tools\MSVC\14.29.30133\include\vector
;	COMDAT ??1?$vector@VCStaticCollisionData@@V?$allocator@VCStaticCollisionData@@@std@@@std@@QAE@XZ
_TEXT	SEGMENT
??1?$vector@VCStaticCollisionData@@V?$allocator@VCStaticCollisionData@@@std@@@std@@QAE@XZ PROC ; std::vector<CStaticCollisionData,std::allocator<CStaticCollisionData> >::~vector<CStaticCollisionData,std::allocator<CStaticCollisionData> >, COMDAT
; _this$ = ecx

; 711  :     _CONSTEXPR20_CONTAINER ~vector() noexcept {

  00000	56		 push	 esi
  00001	57		 push	 edi
  00002	8b f9		 mov	 edi, ecx

; 1763 :         if (_Myfirst) { // destroy and deallocate old array

  00004	8b 37		 mov	 esi, DWORD PTR [edi]
  00006	85 f6		 test	 esi, esi
  00008	74 54		 je	 SHORT $LN4@vector

; 1764 :             _Destroy(_Myfirst, _Mylast);
; 1765 :             _Getal().deallocate(_Myfirst, static_cast<size_type>(_Myend - _Myfirst));

  0000a	8b 4f 08	 mov	 ecx, DWORD PTR [edi+8]
  0000d	b8 67 66 66 66	 mov	 eax, 1717986919		; 66666667H
  00012	2b ce		 sub	 ecx, esi
  00014	f7 e9		 imul	 ecx
  00016	c1 fa 05	 sar	 edx, 5
  00019	8b c2		 mov	 eax, edx
  0001b	c1 e8 1f	 shr	 eax, 31			; 0000001fH
  0001e	03 c2		 add	 eax, edx
; File C:\Program Files (x86)\Microsoft Visual Studio\2019\Professional\VC\Tools\MSVC\14.29.30133\include\xmemory

; 835  :         _Deallocate<_New_alignof<_Ty>>(_Ptr, sizeof(_Ty) * _Count);

  00020	8d 0c 80	 lea	 ecx, DWORD PTR [eax+eax*4]
  00023	c1 e1 04	 shl	 ecx, 4

; 260  :         if (_Bytes >= _Big_allocation_threshold) { // boost the alignment of big allocations to help autovectorization

  00026	81 f9 00 10 00
	00		 cmp	 ecx, 4096		; 00001000H
  0002c	72 12		 jb	 SHORT $LN20@vector

; 158  :     const uintptr_t _Ptr_container   = _Ptr_user[-1];

  0002e	8b 56 fc	 mov	 edx, DWORD PTR [esi-4]
  00031	83 c1 23	 add	 ecx, 35			; 00000023H

; 159  : 
; 160  :     // If the following asserts, it likely means that we are performing
; 161  :     // an aligned delete on memory coming from an unaligned allocation.
; 162  :     _STL_ASSERT(_Ptr_user[-2] == _Big_allocation_sentinel, "invalid argument");
; 163  : 
; 164  :     // Extra paranoia on aligned allocation/deallocation; ensure _Ptr_container is
; 165  :     // in range [_Min_back_shift, _Non_user_size]
; 166  : #ifdef _DEBUG
; 167  :     constexpr uintptr_t _Min_back_shift = 2 * sizeof(void*);
; 168  : #else // ^^^ _DEBUG ^^^ // vvv !_DEBUG vvv
; 169  :     constexpr uintptr_t _Min_back_shift = sizeof(void*);
; 170  : #endif // _DEBUG
; 171  :     const uintptr_t _Back_shift = reinterpret_cast<uintptr_t>(_Ptr) - _Ptr_container;

  00034	2b f2		 sub	 esi, edx

; 172  :     _STL_VERIFY(_Back_shift >= _Min_back_shift && _Back_shift <= _Non_user_size, "invalid argument");

  00036	8d 46 fc	 lea	 eax, DWORD PTR [esi-4]
  00039	83 f8 1f	 cmp	 eax, 31			; 0000001fH
  0003c	77 23		 ja	 SHORT $LN17@vector

; 173  :     _Ptr = reinterpret_cast<void*>(_Ptr_container);

  0003e	8b f2		 mov	 esi, edx
$LN20@vector:

; 264  :         ::operator delete(_Ptr, _Bytes);

  00040	51		 push	 ecx
  00041	56		 push	 esi
  00042	e8 00 00 00 00	 call	 ??3@YAXPAXI@Z		; operator delete
; File C:\Program Files (x86)\Microsoft Visual Studio\2019\Professional\VC\Tools\MSVC\14.29.30133\include\vector

; 1767 :             _Myfirst = nullptr;

  00047	c7 07 00 00 00
	00		 mov	 DWORD PTR [edi], 0
; File C:\Program Files (x86)\Microsoft Visual Studio\2019\Professional\VC\Tools\MSVC\14.29.30133\include\xmemory

; 264  :         ::operator delete(_Ptr, _Bytes);

  0004d	83 c4 08	 add	 esp, 8
; File C:\Program Files (x86)\Microsoft Visual Studio\2019\Professional\VC\Tools\MSVC\14.29.30133\include\vector

; 1768 :             _Mylast  = nullptr;

  00050	c7 47 04 00 00
	00 00		 mov	 DWORD PTR [edi+4], 0

; 1769 :             _Myend   = nullptr;

  00057	c7 47 08 00 00
	00 00		 mov	 DWORD PTR [edi+8], 0
$LN4@vector:
  0005e	5f		 pop	 edi

; 717  :     }

  0005f	5e		 pop	 esi
  00060	c3		 ret	 0
$LN17@vector:
; File C:\Program Files (x86)\Microsoft Visual Studio\2019\Professional\VC\Tools\MSVC\14.29.30133\include\xmemory

; 172  :     _STL_VERIFY(_Back_shift >= _Min_back_shift && _Back_shift <= _Non_user_size, "invalid argument");

  00061	e8 00 00 00 00	 call	 __invalid_parameter_noinfo_noreturn
$LN25@vector:
  00066	cc		 int	 3
??1?$vector@VCStaticCollisionData@@V?$allocator@VCStaticCollisionData@@@std@@@std@@QAE@XZ ENDP ; std::vector<CStaticCollisionData,std::allocator<CStaticCollisionData> >::~vector<CStaticCollisionData,std::allocator<CStaticCollisionData> >
_TEXT	ENDS
; Function compile flags: /Ogtp
; File C:\Users\murat\Desktop\Siveps2-1-99-Project\source\client\Client\EterLib\AttributeData.cpp
;	COMDAT ?OnSelfDestruct@CAttributeData@@MAEXXZ
_TEXT	SEGMENT
?OnSelfDestruct@CAttributeData@@MAEXXZ PROC		; CAttributeData::OnSelfDestruct, COMDAT
; _this$ = ecx

; 190  : 	Clear();

  00000	e9 00 00 00 00	 jmp	 ?Clear@CResource@@QAEXXZ ; CResource::Clear
?OnSelfDestruct@CAttributeData@@MAEXXZ ENDP		; CAttributeData::OnSelfDestruct
_TEXT	ENDS
; Function compile flags: /Ogtp
; File C:\Users\murat\Desktop\Siveps2-1-99-Project\source\client\Client\EterLib\AttributeData.cpp
;	COMDAT ?OnIsType@CAttributeData@@MAE_NK@Z
_TEXT	SEGMENT
_type$ = 8						; size = 4
?OnIsType@CAttributeData@@MAE_NK@Z PROC			; CAttributeData::OnIsType, COMDAT
; _this$ = ecx

; 175  : {

  00000	55		 push	 ebp
  00001	8b ec		 mov	 ebp, esp
  00003	56		 push	 esi
  00004	8b f1		 mov	 esi, ecx

; 176  : 	if (CAttributeData::Type() == type)

  00006	e8 00 00 00 00	 call	 ?Type@CAttributeData@@SAKXZ ; CAttributeData::Type
  0000b	8b 55 08	 mov	 edx, DWORD PTR _type$[ebp]
  0000e	3b c2		 cmp	 eax, edx
  00010	75 07		 jne	 SHORT $LN2@OnIsType

; 177  : 		return true;

  00012	b0 01		 mov	 al, 1
  00014	5e		 pop	 esi

; 180  : }

  00015	5d		 pop	 ebp
  00016	c2 04 00	 ret	 4
$LN2@OnIsType:

; 178  : 
; 179  : 	return CResource::OnIsType(type);

  00019	52		 push	 edx
  0001a	8b ce		 mov	 ecx, esi
  0001c	e8 00 00 00 00	 call	 ?OnIsType@CResource@@MAE_NK@Z ; CResource::OnIsType
  00021	5e		 pop	 esi

; 180  : }

  00022	5d		 pop	 ebp
  00023	c2 04 00	 ret	 4
?OnIsType@CAttributeData@@MAE_NK@Z ENDP			; CAttributeData::OnIsType
_TEXT	ENDS
; Function compile flags: /Ogtp
; File C:\Users\murat\Desktop\Siveps2-1-99-Project\source\client\Client\EterLib\AttributeData.cpp
; File C:\Program Files (x86)\Microsoft Visual Studio\2019\Professional\VC\Tools\MSVC\14.29.30133\include\vector
; File C:\Users\murat\Desktop\Siveps2-1-99-Project\source\client\Client\EterLib\AttributeData.cpp
; File C:\Program Files (x86)\Microsoft Visual Studio\2019\Professional\VC\Tools\MSVC\14.29.30133\include\vector
; File C:\Users\murat\Desktop\Siveps2-1-99-Project\source\client\Client\EterLib\AttributeData.cpp
;	COMDAT ?OnIsEmpty@CAttributeData@@MBE_NXZ
_TEXT	SEGMENT
?OnIsEmpty@CAttributeData@@MBE_NXZ PROC			; CAttributeData::OnIsEmpty, COMDAT
; _this$ = ecx
; File C:\Program Files (x86)\Microsoft Visual Studio\2019\Professional\VC\Tools\MSVC\14.29.30133\include\vector

; 1544 :         return _My_data._Myfirst == _My_data._Mylast;

  00000	8b 41 30	 mov	 eax, DWORD PTR [ecx+48]
  00003	3b 41 34	 cmp	 eax, DWORD PTR [ecx+52]
; File C:\Users\murat\Desktop\Siveps2-1-99-Project\source\client\Client\EterLib\AttributeData.cpp

; 166  : 	if (!m_StaticCollisionDataVector.empty())

  00006	75 0b		 jne	 SHORT $LN9@OnIsEmpty
; File C:\Program Files (x86)\Microsoft Visual Studio\2019\Professional\VC\Tools\MSVC\14.29.30133\include\vector

; 1544 :         return _My_data._Myfirst == _My_data._Mylast;

  00008	8b 41 3c	 mov	 eax, DWORD PTR [ecx+60]
  0000b	3b 41 40	 cmp	 eax, DWORD PTR [ecx+64]
; File C:\Users\murat\Desktop\Siveps2-1-99-Project\source\client\Client\EterLib\AttributeData.cpp

; 168  : 	if (!m_HeightDataVector.empty())

  0000e	75 03		 jne	 SHORT $LN9@OnIsEmpty

; 170  : 
; 171  : 	return true;

  00010	b0 01		 mov	 al, 1

; 172  : }

  00012	c3		 ret	 0
$LN9@OnIsEmpty:

; 169  : 		return false;

  00013	32 c0		 xor	 al, al

; 172  : }

  00015	c3		 ret	 0
?OnIsEmpty@CAttributeData@@MBE_NXZ ENDP			; CAttributeData::OnIsEmpty
_TEXT	ENDS
; Function compile flags: /Ogtp
; File C:\Users\murat\Desktop\Siveps2-1-99-Project\source\client\Client\EterLib\AttributeData.cpp
; File C:\Program Files (x86)\Microsoft Visual Studio\2019\Professional\VC\Tools\MSVC\14.29.30133\include\vector
; File C:\Program Files (x86)\Microsoft Visual Studio\2019\Professional\VC\Tools\MSVC\14.29.30133\include\xmemory
; File C:\Program Files (x86)\Microsoft Visual Studio\2019\Professional\VC\Tools\MSVC\14.29.30133\include\vector
; File C:\Users\murat\Desktop\Siveps2-1-99-Project\source\client\Client\EterLib\AttributeData.cpp
; File C:\Program Files (x86)\Microsoft Visual Studio\2019\Professional\VC\Tools\MSVC\14.29.30133\include\vector
; File C:\Users\murat\Desktop\Siveps2-1-99-Project\source\client\Client\EterLib\AttributeData.cpp
;	COMDAT ?OnClear@CAttributeData@@MAEXXZ
_TEXT	SEGMENT
?OnClear@CAttributeData@@MAEXXZ PROC			; CAttributeData::OnClear, COMDAT
; _this$ = ecx

; 159  : {

  00000	53		 push	 ebx
  00001	56		 push	 esi
  00002	57		 push	 edi
  00003	8b f9		 mov	 edi, ecx

; 160  : 	m_StaticCollisionDataVector.clear();

  00005	8b 47 30	 mov	 eax, DWORD PTR [edi+48]
  00008	89 47 34	 mov	 DWORD PTR [edi+52], eax
; File C:\Program Files (x86)\Microsoft Visual Studio\2019\Professional\VC\Tools\MSVC\14.29.30133\include\vector

; 1455 :         _Destroy(_Myfirst, _Mylast);

  0000b	8b 5f 40	 mov	 ebx, DWORD PTR [edi+64]
  0000e	8b 77 3c	 mov	 esi, DWORD PTR [edi+60]
; File C:\Program Files (x86)\Microsoft Visual Studio\2019\Professional\VC\Tools\MSVC\14.29.30133\include\xmemory

; 949  :         for (; _First != _Last; ++_First) {

  00011	3b f3		 cmp	 esi, ebx
  00013	74 19		 je	 SHORT $LN24@OnClear
$LL10@OnClear:
  00015	8d 4e 24	 lea	 ecx, DWORD PTR [esi+36]
  00018	e8 00 00 00 00	 call	 ??1?$vector@UD3DXVECTOR3@@V?$allocator@UD3DXVECTOR3@@@std@@@std@@QAE@XZ ; std::vector<D3DXVECTOR3,std::allocator<D3DXVECTOR3> >::~vector<D3DXVECTOR3,std::allocator<D3DXVECTOR3> >
  0001d	83 c6 30	 add	 esi, 48			; 00000030H
  00020	3b f3		 cmp	 esi, ebx
  00022	75 f1		 jne	 SHORT $LL10@OnClear
  00024	8b 47 3c	 mov	 eax, DWORD PTR [edi+60]
; File C:\Program Files (x86)\Microsoft Visual Studio\2019\Professional\VC\Tools\MSVC\14.29.30133\include\vector

; 1456 :         _Mylast = _Myfirst;

  00027	89 47 40	 mov	 DWORD PTR [edi+64], eax
  0002a	5f		 pop	 edi
; File C:\Users\murat\Desktop\Siveps2-1-99-Project\source\client\Client\EterLib\AttributeData.cpp

; 162  : }

  0002b	5e		 pop	 esi
  0002c	5b		 pop	 ebx
  0002d	c3		 ret	 0
$LN24@OnClear:
; File C:\Program Files (x86)\Microsoft Visual Studio\2019\Professional\VC\Tools\MSVC\14.29.30133\include\vector

; 1456 :         _Mylast = _Myfirst;

  0002e	89 77 40	 mov	 DWORD PTR [edi+64], esi
  00031	5f		 pop	 edi
; File C:\Users\murat\Desktop\Siveps2-1-99-Project\source\client\Client\EterLib\AttributeData.cpp

; 162  : }

  00032	5e		 pop	 esi
  00033	5b		 pop	 ebx
  00034	c3		 ret	 0
?OnClear@CAttributeData@@MAEXXZ ENDP			; CAttributeData::OnClear
_TEXT	ENDS
; Function compile flags: /Ogtp
; File C:\Users\murat\Desktop\Siveps2-1-99-Project\source\client\Client\EterLib\AttributeData.cpp
; File C:\Program Files (x86)\Microsoft Visual Studio\2019\Professional\VC\Tools\MSVC\14.29.30133\include\vector
; File C:\Program Files (x86)\Microsoft Visual Studio\2019\Professional\VC\Tools\MSVC\14.29.30133\include\xmemory
; File C:\Program Files (x86)\Microsoft Visual Studio\2019\Professional\VC\Tools\MSVC\14.29.30133\include\vector
; File C:\Program Files (x86)\Microsoft Visual Studio\2019\Professional\VC\Tools\MSVC\14.29.30133\include\xmemory
; File C:\Program Files (x86)\Microsoft Visual Studio\2019\Professional\VC\Tools\MSVC\14.29.30133\include\vector
; File C:\Program Files (x86)\Microsoft Visual Studio\2019\Professional\VC\Tools\MSVC\14.29.30133\include\xmemory
; File C:\Program Files (x86)\Microsoft Visual Studio\2019\Professional\VC\Tools\MSVC\14.29.30133\include\vector
; File C:\Program Files (x86)\Microsoft Visual Studio\2019\Professional\VC\Tools\MSVC\14.29.30133\include\xmemory
; File C:\Program Files (x86)\Microsoft Visual Studio\2019\Professional\VC\Tools\MSVC\14.29.30133\include\vector
; File C:\Users\murat\Desktop\Siveps2-1-99-Project\source\client\Client\EterLib\AttributeData.cpp
; File C:\Program Files (x86)\Microsoft Visual Studio\2019\Professional\VC\Tools\MSVC\14.29.30133\include\vector
; File C:\Users\murat\Desktop\Siveps2-1-99-Project\source\client\Client\EterLib\AttributeData.cpp
; File C:\Program Files (x86)\Microsoft Visual Studio\2019\Professional\VC\Tools\MSVC\14.29.30133\include\vector
; File C:\Users\murat\Desktop\Siveps2-1-99-Project\source\client\Client\EterLib\AttributeData.cpp
; File C:\Program Files (x86)\Microsoft Visual Studio\2019\Professional\VC\Tools\MSVC\14.29.30133\include\vector
; File C:\Users\murat\Desktop\Siveps2-1-99-Project\source\client\Client\EterLib\AttributeData.cpp
; File C:\Program Files (x86)\Microsoft Visual Studio\2019\Professional\VC\Tools\MSVC\14.29.30133\include\vector
; File C:\Users\murat\Desktop\Siveps2-1-99-Project\source\client\Client\EterLib\AttributeData.cpp
; File C:\Program Files (x86)\Microsoft Visual Studio\2019\Professional\VC\Tools\MSVC\14.29.30133\include\vector
; File C:\Users\murat\Desktop\Siveps2-1-99-Project\source\client\Client\EterLib\AttributeData.cpp
; File C:\Program Files (x86)\Microsoft Visual Studio\2019\Professional\VC\Tools\MSVC\14.29.30133\include\vector
; File C:\Program Files (x86)\Microsoft Visual Studio\2019\Professional\VC\Tools\MSVC\14.29.30133\include\xmemory
; File C:\Program Files (x86)\Microsoft Visual Studio\2019\Professional\VC\Tools\MSVC\14.29.30133\include\vector
; File C:\Users\murat\Desktop\Siveps2-1-99-Project\source\client\Client\EterLib\AttributeData.cpp
; File C:\Program Files (x86)\Microsoft Visual Studio\2019\Professional\VC\Tools\MSVC\14.29.30133\include\vector
; File C:\Users\murat\Desktop\Siveps2-1-99-Project\source\client\Client\EterLib\AttributeData.cpp
; File C:\Program Files (x86)\Microsoft Visual Studio\2019\Professional\VC\Tools\MSVC\14.29.30133\include\vector
; File C:\Users\murat\Desktop\Siveps2-1-99-Project\source\client\Client\EterLib\AttributeData.cpp
; File C:\Program Files (x86)\Microsoft Visual Studio\2019\Professional\VC\Tools\MSVC\14.29.30133\include\vector
; File C:\Users\murat\Desktop\Siveps2-1-99-Project\source\client\Client\EterLib\AttributeData.cpp
; File C:\Program Files (x86)\Microsoft Visual Studio\2019\Professional\VC\Tools\MSVC\14.29.30133\include\vector
; File C:\Users\murat\Desktop\Siveps2-1-99-Project\source\client\Client\EterLib\AttributeData.cpp
; File C:\Program Files (x86)\Microsoft Visual Studio\2019\Professional\VC\Tools\MSVC\14.29.30133\include\vector
; File C:\Users\murat\Desktop\Siveps2-1-99-Project\source\client\Client\EterLib\AttributeData.cpp
; File C:\Program Files (x86)\Microsoft Visual Studio\2019\Professional\VC\Tools\MSVC\14.29.30133\include\vector
; File C:\Users\murat\Desktop\Siveps2-1-99-Project\source\client\Client\EterLib\AttributeData.cpp
;	COMDAT ?OnLoad@CAttributeData@@MAE_NHPBX@Z
_TEXT	SEGMENT
_szHeader$ = -36					; size = 14
__Oldsize$1$ = -20					; size = 4
tv880 = -20						; size = 4
__My_data$2$ = -16					; size = 4
__Count$1$ = -16					; size = 4
tv270 = -16						; size = 4
tv251 = -16						; size = 4
__Count$1$ = -12					; size = 4
_c_pbBuf$1$ = -12					; size = 4
_dwHeightDataCount$1$ = -8				; size = 4
_this$1$ = -4						; size = 4
___formal$ = 8						; size = 4
__First$1$ = 12						; size = 4
__Backout$1$sroa$317$1$ = 12				; size = 4
tv907 = 12						; size = 4
tv890 = 12						; size = 4
_k$1$ = 12						; size = 4
$T3 = 12						; size = 1
_c_pvBuf$ = 12						; size = 4
$T4 = 15						; size = 1
$T5 = 15						; size = 1
?OnLoad@CAttributeData@@MAE_NHPBX@Z PROC		; CAttributeData::OnLoad, COMDAT
; _this$ = ecx

; 61   : {

  00000	55		 push	 ebp
  00001	8b ec		 mov	 ebp, esp
  00003	83 ec 24	 sub	 esp, 36			; 00000024H
  00006	57		 push	 edi

; 62   : 	if (!c_pvBuf)

  00007	8b 7d 0c	 mov	 edi, DWORD PTR _c_pvBuf$[ebp]
  0000a	89 4d fc	 mov	 DWORD PTR _this$1$[ebp], ecx
  0000d	85 ff		 test	 edi, edi
  0000f	0f 84 d8 03 00
	00		 je	 $LN8@OnLoad

; 63   : 	{
; 64   : 		// NOTE:              .
; 65   : 		return true;
; 66   : 	}
; 67   : 
; 68   : 	const BYTE * c_pbBuf = static_cast<const BYTE *> (c_pvBuf);
; 69   : 
; 70   : 	char szHeader[c_iAttributeDataFileHeaderLength+1];
; 71   : 	memcpy(szHeader, c_pbBuf, c_iAttributeDataFileHeaderLength+1);

  00015	8b 47 08	 mov	 eax, DWORD PTR [edi+8]

; 72   : 	c_pbBuf += c_iAttributeDataFileHeaderLength+1;
; 73   : 	if (strcmp(szHeader, c_szAttributeDataFileHeader))

  00018	b9 00 00 00 00	 mov	 ecx, OFFSET ?c_szAttributeDataFileHeader@@3QBDB
  0001d	f3 0f 7e 07	 movq	 xmm0, QWORD PTR [edi]
  00021	89 45 e4	 mov	 DWORD PTR _szHeader$[ebp+8], eax
  00024	66 8b 47 0c	 mov	 ax, WORD PTR [edi+12]
  00028	66 89 45 e8	 mov	 WORD PTR _szHeader$[ebp+12], ax
  0002c	8d 45 dc	 lea	 eax, DWORD PTR _szHeader$[ebp]
  0002f	66 0f d6 45 dc	 movq	 QWORD PTR _szHeader$[ebp], xmm0
$LL145@OnLoad:
  00034	8a 10		 mov	 dl, BYTE PTR [eax]
  00036	3a 11		 cmp	 dl, BYTE PTR [ecx]
  00038	75 1a		 jne	 SHORT $LN146@OnLoad
  0003a	84 d2		 test	 dl, dl
  0003c	74 12		 je	 SHORT $LN147@OnLoad
  0003e	8a 50 01	 mov	 dl, BYTE PTR [eax+1]
  00041	3a 51 01	 cmp	 dl, BYTE PTR [ecx+1]
  00044	75 0e		 jne	 SHORT $LN146@OnLoad
  00046	83 c0 02	 add	 eax, 2
  00049	83 c1 02	 add	 ecx, 2
  0004c	84 d2		 test	 dl, dl
  0004e	75 e4		 jne	 SHORT $LL145@OnLoad
$LN147@OnLoad:
  00050	33 c0		 xor	 eax, eax
  00052	eb 05		 jmp	 SHORT $LN148@OnLoad
$LN146@OnLoad:
  00054	1b c0		 sbb	 eax, eax
  00056	83 c8 01	 or	 eax, 1
$LN148@OnLoad:
  00059	85 c0		 test	 eax, eax
  0005b	74 09		 je	 SHORT $LN14@OnLoad

; 74   : 		return FALSE;

  0005d	32 c0		 xor	 al, al
  0005f	5f		 pop	 edi

; 156  : }

  00060	8b e5		 mov	 esp, ebp
  00062	5d		 pop	 ebp
  00063	c2 08 00	 ret	 8
$LN14@OnLoad:

; 75   : 
; 76   : 	DWORD dwCollisionDataCount;
; 77   : 	DWORD dwHeightDataCount;
; 78   : 	memcpy(&dwCollisionDataCount, c_pbBuf, sizeof(DWORD));
; 79   : 	c_pbBuf += sizeof(DWORD);
; 80   : 	memcpy(&dwHeightDataCount, c_pbBuf, sizeof(DWORD));

  00066	8b 47 12	 mov	 eax, DWORD PTR [edi+18]
  00069	89 45 f8	 mov	 DWORD PTR _dwHeightDataCount$1$[ebp], eax

; 81   : 	c_pbBuf += sizeof(DWORD);
; 82   : 
; 83   : 	m_StaticCollisionDataVector.clear();

  0006c	8b 45 fc	 mov	 eax, DWORD PTR _this$1$[ebp]
  0006f	56		 push	 esi
  00070	8b 77 0e	 mov	 esi, DWORD PTR [edi+14]
  00073	83 c7 16	 add	 edi, 22			; 00000016H
  00076	89 75 f0	 mov	 DWORD PTR __Count$1$[ebp], esi
  00079	8b 50 30	 mov	 edx, DWORD PTR [eax+48]
  0007c	89 7d f4	 mov	 DWORD PTR _c_pbBuf$1$[ebp], edi
  0007f	89 55 0c	 mov	 DWORD PTR __Backout$1$sroa$317$1$[ebp], edx
  00082	89 50 34	 mov	 DWORD PTR [eax+52], edx
; File C:\Program Files (x86)\Microsoft Visual Studio\2019\Professional\VC\Tools\MSVC\14.29.30133\include\vector

; 1272 :         if (_Newsize > _Oldsize) { // append

  00085	85 f6		 test	 esi, esi
  00087	74 4b		 je	 SHORT $LN26@OnLoad

; 1273 :             const auto _Oldcapacity = static_cast<size_type>(_My_data._Myend - _Myfirst);

  00089	8b 48 38	 mov	 ecx, DWORD PTR [eax+56]
  0008c	b8 67 66 66 66	 mov	 eax, 1717986919		; 66666667H
  00091	2b ca		 sub	 ecx, edx
  00093	f7 e9		 imul	 ecx
  00095	c1 fa 05	 sar	 edx, 5
  00098	8b c2		 mov	 eax, edx
  0009a	c1 e8 1f	 shr	 eax, 31			; 0000001fH
  0009d	03 c2		 add	 eax, edx

; 1274 :             if (_Newsize > _Oldcapacity) { // reallocate

  0009f	3b f0		 cmp	 esi, eax
  000a1	76 12		 jbe	 SHORT $LN27@OnLoad

; 1275 :                 _Resize_reallocate(_Newsize, _Val);

  000a3	8b 4d fc	 mov	 ecx, DWORD PTR _this$1$[ebp]
  000a6	8d 45 0f	 lea	 eax, DWORD PTR $T5[ebp]
  000a9	50		 push	 eax
  000aa	56		 push	 esi
  000ab	8d 49 30	 lea	 ecx, DWORD PTR [ecx+48]
  000ae	e8 00 00 00 00	 call	 ??$_Resize_reallocate@U_Value_init_tag@std@@@?$vector@VCStaticCollisionData@@V?$allocator@VCStaticCollisionData@@@std@@@std@@AAEXIABU_Value_init_tag@1@@Z ; std::vector<CStaticCollisionData,std::allocator<CStaticCollisionData> >::_Resize_reallocate<std::_Value_init_tag>

; 1276 :                 return;

  000b3	eb 1f		 jmp	 SHORT $LN26@OnLoad
$LN27@OnLoad:
; File C:\Program Files (x86)\Microsoft Visual Studio\2019\Professional\VC\Tools\MSVC\14.29.30133\include\xmemory

; 1620 :         : _First(_Dest), _Last(_Dest), _Al(_Al_) {}

  000b5	8d 34 b6	 lea	 esi, DWORD PTR [esi+esi*4]
  000b8	c1 e6 04	 shl	 esi, 4
  000bb	56		 push	 esi
  000bc	6a 00		 push	 0
  000be	ff 75 0c	 push	 DWORD PTR __Backout$1$sroa$317$1$[ebp]
  000c1	e8 00 00 00 00	 call	 _memset
; File C:\Program Files (x86)\Microsoft Visual Studio\2019\Professional\VC\Tools\MSVC\14.29.30133\include\vector

; 1280 :             _Mylast                = _Ufill(_Oldlast, _Newsize - _Oldsize, _Val);

  000c6	8b 4d fc	 mov	 ecx, DWORD PTR _this$1$[ebp]
; File C:\Program Files (x86)\Microsoft Visual Studio\2019\Professional\VC\Tools\MSVC\14.29.30133\include\xmemory

; 1620 :         : _First(_Dest), _Last(_Dest), _Al(_Al_) {}

  000c9	83 c4 0c	 add	 esp, 12			; 0000000cH
  000cc	8b 45 0c	 mov	 eax, DWORD PTR __Backout$1$sroa$317$1$[ebp]
  000cf	03 c6		 add	 eax, esi
; File C:\Program Files (x86)\Microsoft Visual Studio\2019\Professional\VC\Tools\MSVC\14.29.30133\include\vector

; 1280 :             _Mylast                = _Ufill(_Oldlast, _Newsize - _Oldsize, _Val);

  000d1	89 41 34	 mov	 DWORD PTR [ecx+52], eax
$LN26@OnLoad:

; 1450 :         auto& _My_data    = _Mypair._Myval2;

  000d4	8b 45 fc	 mov	 eax, DWORD PTR _this$1$[ebp]
  000d7	83 c0 3c	 add	 eax, 60			; 0000003cH

; 1451 :         pointer& _Myfirst = _My_data._Myfirst;
; 1452 :         pointer& _Mylast  = _My_data._Mylast;
; 1453 : 
; 1454 :         _My_data._Orphan_all();
; 1455 :         _Destroy(_Myfirst, _Mylast);

  000da	8b 48 04	 mov	 ecx, DWORD PTR [eax+4]
  000dd	8b 30		 mov	 esi, DWORD PTR [eax]
; File C:\Program Files (x86)\Microsoft Visual Studio\2019\Professional\VC\Tools\MSVC\14.29.30133\include\xmemory

; 949  :         for (; _First != _Last; ++_First) {

  000df	3b f1		 cmp	 esi, ecx
  000e1	74 1c		 je	 SHORT $LN50@OnLoad
  000e3	8b f9		 mov	 edi, ecx
$LL51@OnLoad:
  000e5	8d 4e 24	 lea	 ecx, DWORD PTR [esi+36]
  000e8	e8 00 00 00 00	 call	 ??1?$vector@UD3DXVECTOR3@@V?$allocator@UD3DXVECTOR3@@@std@@@std@@QAE@XZ ; std::vector<D3DXVECTOR3,std::allocator<D3DXVECTOR3> >::~vector<D3DXVECTOR3,std::allocator<D3DXVECTOR3> >
  000ed	83 c6 30	 add	 esi, 48			; 00000030H
  000f0	3b f7		 cmp	 esi, edi
  000f2	75 f1		 jne	 SHORT $LL51@OnLoad
  000f4	8b 45 fc	 mov	 eax, DWORD PTR _this$1$[ebp]
  000f7	8b 7d f4	 mov	 edi, DWORD PTR _c_pbBuf$1$[ebp]
  000fa	83 c0 3c	 add	 eax, 60			; 0000003cH
  000fd	8b 30		 mov	 esi, DWORD PTR [eax]
$LN50@OnLoad:
; File C:\Program Files (x86)\Microsoft Visual Studio\2019\Professional\VC\Tools\MSVC\14.29.30133\include\vector

; 1456 :         _Mylast = _Myfirst;

  000ff	89 70 04	 mov	 DWORD PTR [eax+4], esi

; 1263 :         const auto _Oldsize = static_cast<size_type>(_Mylast - _Myfirst);

  00102	8b ce		 mov	 ecx, esi
  00104	8b 00		 mov	 eax, DWORD PTR [eax]
  00106	2b c8		 sub	 ecx, eax
  00108	89 45 0c	 mov	 DWORD PTR tv907[ebp], eax
  0010b	b8 ab aa aa 2a	 mov	 eax, 715827883		; 2aaaaaabH
  00110	f7 e9		 imul	 ecx

; 1264 :         if (_Newsize < _Oldsize) { // trim

  00112	8b 45 f8	 mov	 eax, DWORD PTR _dwHeightDataCount$1$[ebp]
  00115	c1 fa 03	 sar	 edx, 3
  00118	8b ca		 mov	 ecx, edx
  0011a	c1 e9 1f	 shr	 ecx, 31			; 0000001fH
  0011d	03 ca		 add	 ecx, edx
  0011f	89 4d ec	 mov	 DWORD PTR __Oldsize$1$[ebp], ecx
  00122	3b c1		 cmp	 eax, ecx
  00124	73 2f		 jae	 SHORT $LN64@OnLoad

; 1265 :             const pointer _Newlast = _Myfirst + _Newsize;

  00126	8d 04 40	 lea	 eax, DWORD PTR [eax+eax*2]
  00129	c1 e0 04	 shl	 eax, 4
  0012c	03 45 0c	 add	 eax, DWORD PTR tv907[ebp]

; 1680 :         _Destroy_range(_First, _Last, _Getal());

  0012f	89 45 0c	 mov	 DWORD PTR __First$1$[ebp], eax
; File C:\Program Files (x86)\Microsoft Visual Studio\2019\Professional\VC\Tools\MSVC\14.29.30133\include\xmemory

; 949  :         for (; _First != _Last; ++_First) {

  00132	3b c6		 cmp	 eax, esi
  00134	74 17		 je	 SHORT $LN72@OnLoad
  00136	8b f8		 mov	 edi, eax
$LL73@OnLoad:
  00138	8d 4f 24	 lea	 ecx, DWORD PTR [edi+36]
  0013b	e8 00 00 00 00	 call	 ??1?$vector@UD3DXVECTOR3@@V?$allocator@UD3DXVECTOR3@@@std@@@std@@QAE@XZ ; std::vector<D3DXVECTOR3,std::allocator<D3DXVECTOR3> >::~vector<D3DXVECTOR3,std::allocator<D3DXVECTOR3> >
  00140	83 c7 30	 add	 edi, 48			; 00000030H
  00143	3b fe		 cmp	 edi, esi
  00145	75 f1		 jne	 SHORT $LL73@OnLoad
  00147	8b 7d f4	 mov	 edi, DWORD PTR _c_pbBuf$1$[ebp]
  0014a	8b 45 0c	 mov	 eax, DWORD PTR __First$1$[ebp]
$LN72@OnLoad:
; File C:\Program Files (x86)\Microsoft Visual Studio\2019\Professional\VC\Tools\MSVC\14.29.30133\include\vector

; 1268 :             _Mylast = _Newlast;

  0014d	8b 4d fc	 mov	 ecx, DWORD PTR _this$1$[ebp]
  00150	89 41 40	 mov	 DWORD PTR [ecx+64], eax

; 1269 :             return;

  00153	eb 36		 jmp	 SHORT $LN65@OnLoad
$LN64@OnLoad:

; 1272 :         if (_Newsize > _Oldsize) { // append

  00155	76 31		 jbe	 SHORT $LN150@OnLoad

; 1273 :             const auto _Oldcapacity = static_cast<size_type>(_My_data._Myend - _Myfirst);

  00157	8b 45 fc	 mov	 eax, DWORD PTR _this$1$[ebp]
  0015a	8b 48 44	 mov	 ecx, DWORD PTR [eax+68]
  0015d	b8 ab aa aa 2a	 mov	 eax, 715827883		; 2aaaaaabH
  00162	2b 4d 0c	 sub	 ecx, DWORD PTR tv907[ebp]
  00165	f7 e9		 imul	 ecx

; 1274 :             if (_Newsize > _Oldcapacity) { // reallocate

  00167	8b 4d f8	 mov	 ecx, DWORD PTR _dwHeightDataCount$1$[ebp]
  0016a	c1 fa 03	 sar	 edx, 3
  0016d	8b c2		 mov	 eax, edx
  0016f	c1 e8 1f	 shr	 eax, 31			; 0000001fH
  00172	03 c2		 add	 eax, edx
  00174	3b c8		 cmp	 ecx, eax
  00176	76 60		 jbe	 SHORT $LN66@OnLoad

; 1275 :                 _Resize_reallocate(_Newsize, _Val);

  00178	8d 45 0c	 lea	 eax, DWORD PTR $T3[ebp]
  0017b	50		 push	 eax
  0017c	51		 push	 ecx
  0017d	8b 4d fc	 mov	 ecx, DWORD PTR _this$1$[ebp]
  00180	8d 49 3c	 lea	 ecx, DWORD PTR [ecx+60]
  00183	e8 00 00 00 00	 call	 ??$_Resize_reallocate@U_Value_init_tag@std@@@?$vector@USHeightData@@V?$allocator@USHeightData@@@std@@@std@@AAEXIABU_Value_init_tag@1@@Z ; std::vector<SHeightData,std::allocator<SHeightData> >::_Resize_reallocate<std::_Value_init_tag>
$LN150@OnLoad:
; File C:\Users\murat\Desktop\Siveps2-1-99-Project\source\client\Client\EterLib\AttributeData.cpp

; 88   : 	for (DWORD i = 0; i < dwCollisionDataCount; ++i)

  00188	8b 4d fc	 mov	 ecx, DWORD PTR _this$1$[ebp]
$LN65@OnLoad:
  0018b	8b 75 f0	 mov	 esi, DWORD PTR __Count$1$[ebp]
  0018e	85 f6		 test	 esi, esi
  00190	0f 84 a7 00 00
	00		 je	 $LN3@OnLoad
  00196	33 c0		 xor	 eax, eax
  00198	89 45 0c	 mov	 DWORD PTR tv890[ebp], eax
  0019b	0f 1f 44 00 00	 npad	 5
$LL4@OnLoad:
; File C:\Program Files (x86)\Microsoft Visual Studio\2019\Professional\VC\Tools\MSVC\14.29.30133\include\vector

; 1569 :         return _My_data._Myfirst[_Pos];

  001a0	8b 51 30	 mov	 edx, DWORD PTR [ecx+48]
; File C:\Users\murat\Desktop\Siveps2-1-99-Project\source\client\Client\EterLib\AttributeData.cpp

; 91   : 		memcpy(&rCollisionData.dwType, c_pbBuf, sizeof(DWORD));

  001a3	8b 0f		 mov	 ecx, DWORD PTR [edi]
; File C:\Program Files (x86)\Microsoft Visual Studio\2019\Professional\VC\Tools\MSVC\14.29.30133\include\vector

; 1569 :         return _My_data._Myfirst[_Pos];

  001a5	03 d0		 add	 edx, eax
; File C:\Users\murat\Desktop\Siveps2-1-99-Project\source\client\Client\EterLib\AttributeData.cpp

; 91   : 		memcpy(&rCollisionData.dwType, c_pbBuf, sizeof(DWORD));

  001a7	89 0a		 mov	 DWORD PTR [edx], ecx

; 92   : 		c_pbBuf += sizeof(DWORD);
; 93   : 		memcpy(rCollisionData.szName, c_pbBuf, 32);

  001a9	0f 10 47 04	 movups	 xmm0, XMMWORD PTR [edi+4]
  001ad	0f 11 42 04	 movups	 XMMWORD PTR [edx+4], xmm0
  001b1	0f 10 47 14	 movups	 xmm0, XMMWORD PTR [edi+20]
  001b5	0f 11 42 14	 movups	 XMMWORD PTR [edx+20], xmm0

; 94   : 		c_pbBuf += 32;
; 95   : 		memcpy(&rCollisionData.v3Position, c_pbBuf, sizeof(D3DXVECTOR3));

  001b9	f3 0f 7e 47 24	 movq	 xmm0, QWORD PTR [edi+36]
  001be	66 0f d6 42 28	 movq	 QWORD PTR [edx+40], xmm0
  001c3	8b 47 2c	 mov	 eax, DWORD PTR [edi+44]

; 96   : 		c_pbBuf += sizeof(D3DXVECTOR3);

  001c6	83 c7 30	 add	 edi, 48			; 00000030H
  001c9	89 42 30	 mov	 DWORD PTR [edx+48], eax

; 97   : 
; 98   : 		switch(rCollisionData.dwType)

  001cc	83 f9 05	 cmp	 ecx, 5
  001cf	77 4d		 ja	 SHORT $LN5@OnLoad
  001d1	ff 24 8d 00 00
	00 00		 jmp	 DWORD PTR $LN149@OnLoad[ecx*4]
$LN66@OnLoad:
; File C:\Program Files (x86)\Microsoft Visual Studio\2019\Professional\VC\Tools\MSVC\14.29.30133\include\vector

; 1280 :             _Mylast                = _Ufill(_Oldlast, _Newsize - _Oldsize, _Val);

  001d8	ff 75 0c	 push	 DWORD PTR $T3[ebp]
  001db	2b 4d ec	 sub	 ecx, DWORD PTR __Oldsize$1$[ebp]
  001de	51		 push	 ecx
  001df	56		 push	 esi
  001e0	8b 75 fc	 mov	 esi, DWORD PTR _this$1$[ebp]
  001e3	8d 4e 3c	 lea	 ecx, DWORD PTR [esi+60]
  001e6	e8 00 00 00 00	 call	 ?_Ufill@?$vector@USHeightData@@V?$allocator@USHeightData@@@std@@@std@@AAEPAUSHeightData@@PAU3@IU_Value_init_tag@2@@Z ; std::vector<SHeightData,std::allocator<SHeightData> >::_Ufill
  001eb	89 46 40	 mov	 DWORD PTR [esi+64], eax
  001ee	8b ce		 mov	 ecx, esi

; 1272 :         if (_Newsize > _Oldsize) { // append

  001f0	eb 99		 jmp	 SHORT $LN65@OnLoad
$LN15@OnLoad:
; File C:\Users\murat\Desktop\Siveps2-1-99-Project\source\client\Client\EterLib\AttributeData.cpp

; 126  : 		memcpy(rCollisionData.quatRotation, c_pbBuf, sizeof(D3DXQUATERNION));

  001f2	8b 07		 mov	 eax, DWORD PTR [edi]
  001f4	8b 4f 04	 mov	 ecx, DWORD PTR [edi+4]
  001f7	83 c7 08	 add	 edi, 8
  001fa	89 42 34	 mov	 DWORD PTR [edx+52], eax
  001fd	89 4a 38	 mov	 DWORD PTR [edx+56], ecx
  00200	eb 1c		 jmp	 SHORT $LN5@OnLoad
$LN17@OnLoad:

; 99   : 		{
; 100  : 			case COLLISION_TYPE_PLANE:
; 101  : 				memcpy(rCollisionData.fDimensions, c_pbBuf, 2*sizeof(float));
; 102  : 				c_pbBuf += 2*sizeof(float);
; 103  : 				break;
; 104  : 			case COLLISION_TYPE_BOX:
; 105  : 				memcpy(rCollisionData.fDimensions, c_pbBuf, 3*sizeof(float));
; 106  : 				c_pbBuf += 3*sizeof(float);
; 107  : 				break;
; 108  : 			case COLLISION_TYPE_SPHERE:
; 109  : 				memcpy(rCollisionData.fDimensions, c_pbBuf, sizeof(float));

  00202	8b 07		 mov	 eax, DWORD PTR [edi]

; 110  : 				c_pbBuf += sizeof(float);

  00204	83 c7 04	 add	 edi, 4
  00207	89 42 34	 mov	 DWORD PTR [edx+52], eax

; 111  : 				break;

  0020a	eb 12		 jmp	 SHORT $LN5@OnLoad
$LN20@OnLoad:

; 126  : 		memcpy(rCollisionData.quatRotation, c_pbBuf, sizeof(D3DXQUATERNION));

  0020c	f3 0f 7e 07	 movq	 xmm0, QWORD PTR [edi]
  00210	66 0f d6 42 34	 movq	 QWORD PTR [edx+52], xmm0
  00215	8b 47 08	 mov	 eax, DWORD PTR [edi+8]
  00218	83 c7 0c	 add	 edi, 12			; 0000000cH
  0021b	89 42 3c	 mov	 DWORD PTR [edx+60], eax
$LN5@OnLoad:
  0021e	0f 10 07	 movups	 xmm0, XMMWORD PTR [edi]
  00221	8b 45 0c	 mov	 eax, DWORD PTR tv890[ebp]

; 127  : 		c_pbBuf += sizeof(D3DXQUATERNION);

  00224	83 c7 10	 add	 edi, 16			; 00000010H
  00227	8b 4d fc	 mov	 ecx, DWORD PTR _this$1$[ebp]
  0022a	83 c0 50	 add	 eax, 80			; 00000050H
  0022d	89 45 0c	 mov	 DWORD PTR tv890[ebp], eax
  00230	0f 11 42 40	 movups	 XMMWORD PTR [edx+64], xmm0
  00234	83 ee 01	 sub	 esi, 1
  00237	0f 85 63 ff ff
	ff		 jne	 $LL4@OnLoad
$LN3@OnLoad:

; 128  : 	}
; 129  : 
; 130  : 	for (DWORD j = 0; j < dwHeightDataCount; ++j)

  0023d	83 7d f8 00	 cmp	 DWORD PTR _dwHeightDataCount$1$[ebp], 0
  00241	0f 84 a5 01 00
	00		 je	 $LN151@OnLoad
  00247	33 c9		 xor	 ecx, ecx
  00249	89 4d ec	 mov	 DWORD PTR tv880[ebp], ecx
  0024c	0f 1f 40 00	 npad	 4
$LL9@OnLoad:
; File C:\Program Files (x86)\Microsoft Visual Studio\2019\Professional\VC\Tools\MSVC\14.29.30133\include\vector

; 1569 :         return _My_data._Myfirst[_Pos];

  00250	8b 55 fc	 mov	 edx, DWORD PTR _this$1$[ebp]
; File C:\Users\murat\Desktop\Siveps2-1-99-Project\source\client\Client\EterLib\AttributeData.cpp

; 133  : 		memcpy(rHeightData.szName, c_pbBuf, 32);

  00253	0f 10 07	 movups	 xmm0, XMMWORD PTR [edi]
; File C:\Program Files (x86)\Microsoft Visual Studio\2019\Professional\VC\Tools\MSVC\14.29.30133\include\vector

; 1569 :         return _My_data._Myfirst[_Pos];

  00256	8b 42 3c	 mov	 eax, DWORD PTR [edx+60]
  00259	03 c1		 add	 eax, ecx
; File C:\Users\murat\Desktop\Siveps2-1-99-Project\source\client\Client\EterLib\AttributeData.cpp

; 140  : 		rHeightData.v3VertexVector.clear();

  0025b	8d 70 24	 lea	 esi, DWORD PTR [eax+36]
  0025e	89 75 f0	 mov	 DWORD PTR __My_data$2$[ebp], esi
  00261	0f 11 00	 movups	 XMMWORD PTR [eax], xmm0
  00264	0f 10 47 10	 movups	 xmm0, XMMWORD PTR [edi+16]
  00268	0f 11 40 10	 movups	 XMMWORD PTR [eax+16], xmm0
  0026c	8b 4f 20	 mov	 ecx, DWORD PTR [edi+32]
  0026f	83 c7 24	 add	 edi, 36			; 00000024H
  00272	8b 06		 mov	 eax, DWORD PTR [esi]
  00274	89 4d f4	 mov	 DWORD PTR __Count$1$[ebp], ecx
  00277	89 46 04	 mov	 DWORD PTR [esi+4], eax
; File C:\Program Files (x86)\Microsoft Visual Studio\2019\Professional\VC\Tools\MSVC\14.29.30133\include\vector

; 1272 :         if (_Newsize > _Oldsize) { // append

  0027a	85 c9		 test	 ecx, ecx
  0027c	74 38		 je	 SHORT $LN91@OnLoad

; 1273 :             const auto _Oldcapacity = static_cast<size_type>(_My_data._Myend - _Myfirst);

  0027e	8b 4e 08	 mov	 ecx, DWORD PTR [esi+8]
  00281	2b c8		 sub	 ecx, eax
  00283	b8 ab aa aa 2a	 mov	 eax, 715827883		; 2aaaaaabH
  00288	f7 e9		 imul	 ecx

; 1274 :             if (_Newsize > _Oldcapacity) { // reallocate

  0028a	8b 4d f4	 mov	 ecx, DWORD PTR __Count$1$[ebp]
  0028d	d1 fa		 sar	 edx, 1
  0028f	8b c2		 mov	 eax, edx
  00291	c1 e8 1f	 shr	 eax, 31			; 0000001fH
  00294	03 c2		 add	 eax, edx
  00296	3b c8		 cmp	 ecx, eax
  00298	76 11		 jbe	 SHORT $LN92@OnLoad

; 1275 :                 _Resize_reallocate(_Newsize, _Val);

  0029a	8d 45 0f	 lea	 eax, DWORD PTR $T4[ebp]
  0029d	50		 push	 eax
  0029e	51		 push	 ecx
  0029f	8b ce		 mov	 ecx, esi
  002a1	e8 00 00 00 00	 call	 ??$_Resize_reallocate@U_Value_init_tag@std@@@?$vector@UD3DXVECTOR3@@V?$allocator@UD3DXVECTOR3@@@std@@@std@@AAEXIABU_Value_init_tag@1@@Z ; std::vector<D3DXVECTOR3,std::allocator<D3DXVECTOR3> >::_Resize_reallocate<std::_Value_init_tag>

; 1276 :                 return;

  002a6	8b 4d f4	 mov	 ecx, DWORD PTR __Count$1$[ebp]
  002a9	eb 0b		 jmp	 SHORT $LN91@OnLoad
$LN92@OnLoad:
; File C:\Program Files (x86)\Microsoft Visual Studio\2019\Professional\VC\Tools\MSVC\14.29.30133\include\xmemory

; 1620 :         : _First(_Dest), _Last(_Dest), _Al(_Al_) {}

  002ab	8b 16		 mov	 edx, DWORD PTR [esi]
  002ad	8d 04 49	 lea	 eax, DWORD PTR [ecx+ecx*2]
  002b0	8d 04 82	 lea	 eax, DWORD PTR [edx+eax*4]
; File C:\Program Files (x86)\Microsoft Visual Studio\2019\Professional\VC\Tools\MSVC\14.29.30133\include\vector

; 1280 :             _Mylast                = _Ufill(_Oldlast, _Newsize - _Oldsize, _Val);

  002b3	89 46 04	 mov	 DWORD PTR [esi+4], eax
$LN91@OnLoad:
; File C:\Users\murat\Desktop\Siveps2-1-99-Project\source\client\Client\EterLib\AttributeData.cpp

; 142  : 		memcpy(&rHeightData.v3VertexVector[0], c_pbBuf, dwPrimitiveCount*sizeof(D3DXVECTOR3));

  002b6	8b 45 f0	 mov	 eax, DWORD PTR __My_data$2$[ebp]
  002b9	8d 34 49	 lea	 esi, DWORD PTR [ecx+ecx*2]
  002bc	c1 e6 02	 shl	 esi, 2
  002bf	56		 push	 esi
  002c0	57		 push	 edi
  002c1	ff 30		 push	 DWORD PTR [eax]
  002c3	e8 00 00 00 00	 call	 _memcpy

; 143  : 		c_pbBuf += dwPrimitiveCount*sizeof(D3DXVECTOR3);

  002c8	03 fe		 add	 edi, esi

; 146  : 		for (DWORD k = 0; k < rHeightData.v3VertexVector.size(); ++k)

  002ca	33 c9		 xor	 ecx, ecx
; File C:\Program Files (x86)\Microsoft Visual Studio\2019\Professional\VC\Tools\MSVC\14.29.30133\include\vector

; 1549 :         return static_cast<size_type>(_My_data._Mylast - _My_data._Myfirst);

  002cc	8b 75 f0	 mov	 esi, DWORD PTR __My_data$2$[ebp]
  002cf	b8 ab aa aa 2a	 mov	 eax, 715827883		; 2aaaaaabH
; File C:\Users\murat\Desktop\Siveps2-1-99-Project\source\client\Client\EterLib\AttributeData.cpp

; 146  : 		for (DWORD k = 0; k < rHeightData.v3VertexVector.size(); ++k)

  002d4	89 4d 0c	 mov	 DWORD PTR _k$1$[ebp], ecx
  002d7	83 c4 0c	 add	 esp, 12			; 0000000cH
  002da	89 7d f4	 mov	 DWORD PTR _c_pbBuf$1$[ebp], edi
; File C:\Program Files (x86)\Microsoft Visual Studio\2019\Professional\VC\Tools\MSVC\14.29.30133\include\vector

; 1549 :         return static_cast<size_type>(_My_data._Mylast - _My_data._Myfirst);

  002dd	8b 4e 04	 mov	 ecx, DWORD PTR [esi+4]
  002e0	2b 0e		 sub	 ecx, DWORD PTR [esi]
  002e2	f7 e9		 imul	 ecx
  002e4	d1 fa		 sar	 edx, 1
  002e6	8b c2		 mov	 eax, edx
  002e8	c1 e8 1f	 shr	 eax, 31			; 0000001fH
  002eb	03 c2		 add	 eax, edx
; File C:\Users\murat\Desktop\Siveps2-1-99-Project\source\client\Client\EterLib\AttributeData.cpp

; 146  : 		for (DWORD k = 0; k < rHeightData.v3VertexVector.size(); ++k)

  002ed	0f 84 e6 00 00
	00		 je	 $LN7@OnLoad

; 142  : 		memcpy(&rHeightData.v3VertexVector[0], c_pbBuf, dwPrimitiveCount*sizeof(D3DXVECTOR3));

  002f3	33 ff		 xor	 edi, edi
$LL12@OnLoad:
; File C:\Program Files (x86)\Microsoft Visual Studio\2019\Professional\VC\Tools\MSVC\14.29.30133\include\vector

; 1569 :         return _My_data._Myfirst[_Pos];

  002f5	8b 06		 mov	 eax, DWORD PTR [esi]
; File C:\Users\murat\Desktop\Siveps2-1-99-Project\source\client\Client\EterLib\AttributeData.cpp

; 148  : 			m_fMaximizeRadius = fMAX(m_fMaximizeRadius, fabs(rHeightData.v3VertexVector[k].x)+50.0f);

  002f7	83 ec 08	 sub	 esp, 8
  002fa	f3 0f 10 04 38	 movss	 xmm0, DWORD PTR [eax+edi]
  002ff	8b 45 fc	 mov	 eax, DWORD PTR _this$1$[ebp]
  00302	0f 5a c0	 cvtps2pd xmm0, xmm0
  00305	0f 54 05 00 00
	00 00		 andps	 xmm0, QWORD PTR __xmm@7fffffffffffffff7fffffffffffffff
  0030c	f2 0f 58 05 00
	00 00 00	 addsd	 xmm0, QWORD PTR __real@4049000000000000
  00314	66 0f 5a c0	 cvtpd2ps xmm0, xmm0
  00318	f3 0f 11 44 24
	04		 movss	 DWORD PTR [esp+4], xmm0
  0031e	f3 0f 10 40 2c	 movss	 xmm0, DWORD PTR [eax+44]
  00323	f3 0f 11 04 24	 movss	 DWORD PTR [esp], xmm0
  00328	e8 00 00 00 00	 call	 ?fMAX@@YAMMM@Z		; fMAX
  0032d	8b 45 fc	 mov	 eax, DWORD PTR _this$1$[ebp]
  00330	d9 5d f0	 fstp	 DWORD PTR tv251[ebp]
  00333	f3 0f 10 4d f0	 movss	 xmm1, DWORD PTR tv251[ebp]
  00338	f3 0f 11 48 2c	 movss	 DWORD PTR [eax+44], xmm1
; File C:\Program Files (x86)\Microsoft Visual Studio\2019\Professional\VC\Tools\MSVC\14.29.30133\include\vector

; 1569 :         return _My_data._Myfirst[_Pos];

  0033d	8b 06		 mov	 eax, DWORD PTR [esi]
  0033f	f3 0f 10 44 38
	04		 movss	 xmm0, DWORD PTR [eax+edi+4]
; File C:\Users\murat\Desktop\Siveps2-1-99-Project\source\client\Client\EterLib\AttributeData.cpp

; 149  : 			m_fMaximizeRadius = fMAX(m_fMaximizeRadius, fabs(rHeightData.v3VertexVector[k].y)+50.0f);

  00345	0f 5a c0	 cvtps2pd xmm0, xmm0
  00348	0f 54 05 00 00
	00 00		 andps	 xmm0, QWORD PTR __xmm@7fffffffffffffff7fffffffffffffff
  0034f	f2 0f 58 05 00
	00 00 00	 addsd	 xmm0, QWORD PTR __real@4049000000000000
  00357	66 0f 5a c0	 cvtpd2ps xmm0, xmm0
  0035b	f3 0f 11 44 24
	04		 movss	 DWORD PTR [esp+4], xmm0
  00361	f3 0f 11 0c 24	 movss	 DWORD PTR [esp], xmm1
  00366	e8 00 00 00 00	 call	 ?fMAX@@YAMMM@Z		; fMAX
  0036b	8b 45 fc	 mov	 eax, DWORD PTR _this$1$[ebp]
  0036e	d9 5d f0	 fstp	 DWORD PTR tv270[ebp]
  00371	f3 0f 10 4d f0	 movss	 xmm1, DWORD PTR tv270[ebp]
  00376	f3 0f 11 48 2c	 movss	 DWORD PTR [eax+44], xmm1
; File C:\Program Files (x86)\Microsoft Visual Studio\2019\Professional\VC\Tools\MSVC\14.29.30133\include\vector

; 1569 :         return _My_data._Myfirst[_Pos];

  0037b	8b 06		 mov	 eax, DWORD PTR [esi]
  0037d	f3 0f 10 44 38
	08		 movss	 xmm0, DWORD PTR [eax+edi+8]
; File C:\Users\murat\Desktop\Siveps2-1-99-Project\source\client\Client\EterLib\AttributeData.cpp

; 150  : 			m_fMaximizeRadius = fMAX(m_fMaximizeRadius, fabs(rHeightData.v3VertexVector[k].z)+50.0f);

  00383	0f 5a c0	 cvtps2pd xmm0, xmm0
  00386	0f 54 05 00 00
	00 00		 andps	 xmm0, QWORD PTR __xmm@7fffffffffffffff7fffffffffffffff
  0038d	f2 0f 58 05 00
	00 00 00	 addsd	 xmm0, QWORD PTR __real@4049000000000000
  00395	66 0f 5a c0	 cvtpd2ps xmm0, xmm0
  00399	f3 0f 11 44 24
	04		 movss	 DWORD PTR [esp+4], xmm0
  0039f	f3 0f 11 0c 24	 movss	 DWORD PTR [esp], xmm1
  003a4	e8 00 00 00 00	 call	 ?fMAX@@YAMMM@Z		; fMAX
  003a9	8b 45 fc	 mov	 eax, DWORD PTR _this$1$[ebp]
  003ac	83 c4 08	 add	 esp, 8
  003af	ff 45 0c	 inc	 DWORD PTR _k$1$[ebp]
  003b2	83 c7 0c	 add	 edi, 12			; 0000000cH
  003b5	d9 58 2c	 fstp	 DWORD PTR [eax+44]
; File C:\Program Files (x86)\Microsoft Visual Studio\2019\Professional\VC\Tools\MSVC\14.29.30133\include\vector

; 1549 :         return static_cast<size_type>(_My_data._Mylast - _My_data._Myfirst);

  003b8	8b 4e 04	 mov	 ecx, DWORD PTR [esi+4]
  003bb	b8 ab aa aa 2a	 mov	 eax, 715827883		; 2aaaaaabH
  003c0	2b 0e		 sub	 ecx, DWORD PTR [esi]
  003c2	f7 e9		 imul	 ecx
  003c4	d1 fa		 sar	 edx, 1
  003c6	8b c2		 mov	 eax, edx
  003c8	c1 e8 1f	 shr	 eax, 31			; 0000001fH
  003cb	03 c2		 add	 eax, edx
; File C:\Users\murat\Desktop\Siveps2-1-99-Project\source\client\Client\EterLib\AttributeData.cpp

; 146  : 		for (DWORD k = 0; k < rHeightData.v3VertexVector.size(); ++k)

  003cd	39 45 0c	 cmp	 DWORD PTR _k$1$[ebp], eax
  003d0	0f 82 1f ff ff
	ff		 jb	 $LL12@OnLoad
  003d6	8b 7d f4	 mov	 edi, DWORD PTR _c_pbBuf$1$[ebp]
$LN7@OnLoad:

; 128  : 	}
; 129  : 
; 130  : 	for (DWORD j = 0; j < dwHeightDataCount; ++j)

  003d9	8b 4d ec	 mov	 ecx, DWORD PTR tv880[ebp]
  003dc	83 c1 30	 add	 ecx, 48			; 00000030H
  003df	83 6d f8 01	 sub	 DWORD PTR _dwHeightDataCount$1$[ebp], 1
  003e3	89 4d ec	 mov	 DWORD PTR tv880[ebp], ecx
  003e6	0f 85 64 fe ff
	ff		 jne	 $LL9@OnLoad
$LN151@OnLoad:
  003ec	5e		 pop	 esi
$LN8@OnLoad:

; 151  : 		}
; 152  : 		// Getting Maximize Radius
; 153  : 	}
; 154  : 
; 155  : 	return true;

  003ed	b0 01		 mov	 al, 1
  003ef	5f		 pop	 edi

; 156  : }

  003f0	8b e5		 mov	 esp, ebp
  003f2	5d		 pop	 ebp
  003f3	c2 08 00	 ret	 8
  003f6	66 90		 npad	 2
$LN149@OnLoad:
  003f8	00 00 00 00	 DD	 $LN15@OnLoad
  003fc	00 00 00 00	 DD	 $LN20@OnLoad
  00400	00 00 00 00	 DD	 $LN17@OnLoad
  00404	00 00 00 00	 DD	 $LN15@OnLoad
  00408	00 00 00 00	 DD	 $LN20@OnLoad
  0040c	00 00 00 00	 DD	 $LN20@OnLoad
?OnLoad@CAttributeData@@MAE_NHPBX@Z ENDP		; CAttributeData::OnLoad
_TEXT	ENDS
; Function compile flags: /Ogtp
; File C:\Users\murat\Desktop\Siveps2-1-99-Project\source\client\Client\EterLib\AttributeData.cpp
;	COMDAT ?GetMaximizeRadius@CAttributeData@@QAEMXZ
_TEXT	SEGMENT
?GetMaximizeRadius@CAttributeData@@QAEMXZ PROC		; CAttributeData::GetMaximizeRadius, COMDAT
; _this$ = ecx

; 51   : 	return m_fMaximizeRadius;

  00000	d9 41 2c	 fld	 DWORD PTR [ecx+44]

; 52   : }

  00003	c3		 ret	 0
?GetMaximizeRadius@CAttributeData@@QAEMXZ ENDP		; CAttributeData::GetMaximizeRadius
_TEXT	ENDS
; Function compile flags: /Ogtp
; File C:\Users\murat\Desktop\Siveps2-1-99-Project\source\client\Client\EterLib\AttributeData.cpp
; File C:\Program Files (x86)\Microsoft Visual Studio\2019\Professional\VC\Tools\MSVC\14.29.30133\include\vector
; File C:\Users\murat\Desktop\Siveps2-1-99-Project\source\client\Client\EterLib\AttributeData.cpp
;	COMDAT ?GetHeightDataPointer@CAttributeData@@QBEHKPAPBUSHeightData@@@Z
_TEXT	SEGMENT
_dwIndex$ = 8						; size = 4
_c_ppHeightData$ = 12					; size = 4
?GetHeightDataPointer@CAttributeData@@QBEHKPAPBUSHeightData@@@Z PROC ; CAttributeData::GetHeightDataPointer, COMDAT
; _this$ = ecx

; 40   : {

  00000	55		 push	 ebp
  00001	8b ec		 mov	 ebp, esp
  00003	56		 push	 esi
  00004	8b f1		 mov	 esi, ecx

; 41   : 	if (dwIndex >= GetHeightDataCount())

  00006	e8 00 00 00 00	 call	 ?GetHeightDataCount@CAttributeData@@QBEKXZ ; CAttributeData::GetHeightDataCount
  0000b	8b 55 08	 mov	 edx, DWORD PTR _dwIndex$[ebp]
  0000e	3b d0		 cmp	 edx, eax
  00010	72 07		 jb	 SHORT $LN2@GetHeightD

; 42   : 		return FALSE;

  00012	33 c0		 xor	 eax, eax
  00014	5e		 pop	 esi

; 47   : }

  00015	5d		 pop	 ebp
  00016	c2 08 00	 ret	 8
$LN2@GetHeightD:

; 44   : 	*c_ppHeightData = &m_HeightDataVector[dwIndex];

  00019	8b 45 0c	 mov	 eax, DWORD PTR _c_ppHeightData$[ebp]
; File C:\Program Files (x86)\Microsoft Visual Studio\2019\Professional\VC\Tools\MSVC\14.29.30133\include\vector

; 1579 :         return _My_data._Myfirst[_Pos];

  0001c	8d 0c 52	 lea	 ecx, DWORD PTR [edx+edx*2]
  0001f	c1 e1 04	 shl	 ecx, 4
  00022	03 4e 3c	 add	 ecx, DWORD PTR [esi+60]
  00025	5e		 pop	 esi
; File C:\Users\murat\Desktop\Siveps2-1-99-Project\source\client\Client\EterLib\AttributeData.cpp

; 44   : 	*c_ppHeightData = &m_HeightDataVector[dwIndex];

  00026	89 08		 mov	 DWORD PTR [eax], ecx

; 45   : 
; 46   : 	return TRUE;

  00028	b8 01 00 00 00	 mov	 eax, 1

; 47   : }

  0002d	5d		 pop	 ebp
  0002e	c2 08 00	 ret	 8
?GetHeightDataPointer@CAttributeData@@QBEHKPAPBUSHeightData@@@Z ENDP ; CAttributeData::GetHeightDataPointer
_TEXT	ENDS
; Function compile flags: /Ogtp
; File C:\Users\murat\Desktop\Siveps2-1-99-Project\source\client\Client\EterLib\AttributeData.cpp
; File C:\Program Files (x86)\Microsoft Visual Studio\2019\Professional\VC\Tools\MSVC\14.29.30133\include\vector
; File C:\Users\murat\Desktop\Siveps2-1-99-Project\source\client\Client\EterLib\AttributeData.cpp
;	COMDAT ?GetHeightDataCount@CAttributeData@@QBEKXZ
_TEXT	SEGMENT
?GetHeightDataCount@CAttributeData@@QBEKXZ PROC		; CAttributeData::GetHeightDataCount, COMDAT
; _this$ = ecx
; File C:\Program Files (x86)\Microsoft Visual Studio\2019\Professional\VC\Tools\MSVC\14.29.30133\include\vector

; 1549 :         return static_cast<size_type>(_My_data._Mylast - _My_data._Myfirst);

  00000	8b 51 40	 mov	 edx, DWORD PTR [ecx+64]
  00003	b8 ab aa aa 2a	 mov	 eax, 715827883		; 2aaaaaabH
  00008	2b 51 3c	 sub	 edx, DWORD PTR [ecx+60]
  0000b	f7 ea		 imul	 edx
  0000d	c1 fa 03	 sar	 edx, 3
  00010	8b c2		 mov	 eax, edx
  00012	c1 e8 1f	 shr	 eax, 31			; 0000001fH
  00015	03 c2		 add	 eax, edx
; File C:\Users\murat\Desktop\Siveps2-1-99-Project\source\client\Client\EterLib\AttributeData.cpp

; 37   : }

  00017	c3		 ret	 0
?GetHeightDataCount@CAttributeData@@QBEKXZ ENDP		; CAttributeData::GetHeightDataCount
_TEXT	ENDS
; Function compile flags: /Ogtp
; File C:\Users\murat\Desktop\Siveps2-1-99-Project\source\client\Client\EterLib\AttributeData.cpp
; File C:\Program Files (x86)\Microsoft Visual Studio\2019\Professional\VC\Tools\MSVC\14.29.30133\include\vector
; File C:\Program Files (x86)\Microsoft Visual Studio\2019\Professional\VC\Tools\MSVC\14.29.30133\include\xmemory
; File C:\Program Files (x86)\Microsoft Visual Studio\2019\Professional\VC\Tools\MSVC\14.29.30133\include\vector
; File C:\Users\murat\Desktop\Siveps2-1-99-Project\source\client\Client\EterLib\AttributeData.cpp
; File C:\Program Files (x86)\Microsoft Visual Studio\2019\Professional\VC\Tools\MSVC\14.29.30133\include\vector
; File C:\Users\murat\Desktop\Siveps2-1-99-Project\source\client\Client\EterLib\AttributeData.cpp
;	COMDAT ?AddCollisionData@CAttributeData@@QAEIABVCStaticCollisionData@@@Z
_TEXT	SEGMENT
_data$ = 8						; size = 4
?AddCollisionData@CAttributeData@@QAEIABVCStaticCollisionData@@@Z PROC ; CAttributeData::AddCollisionData, COMDAT
; _this$ = ecx

; 55   : {

  00000	55		 push	 ebp
  00001	8b ec		 mov	 ebp, esp
  00003	56		 push	 esi

; 56   : 	m_StaticCollisionDataVector.push_back(data);

  00004	8d 71 30	 lea	 esi, DWORD PTR [ecx+48]
; File C:\Program Files (x86)\Microsoft Visual Studio\2019\Professional\VC\Tools\MSVC\14.29.30133\include\vector

; 743  :         if (_Mylast != _My_data._Myend) {

  00007	8b 4e 04	 mov	 ecx, DWORD PTR [esi+4]
  0000a	3b 4e 08	 cmp	 ecx, DWORD PTR [esi+8]
  0000d	74 2f		 je	 SHORT $LN6@AddCollisi
; File C:\Program Files (x86)\Microsoft Visual Studio\2019\Professional\VC\Tools\MSVC\14.29.30133\include\xmemory

; 714  :             ::new (_Voidify_iter(_Ptr)) _Objty(_STD forward<_Types>(_Args)...);

  0000f	8b 45 08	 mov	 eax, DWORD PTR _data$[ebp]
  00012	0f 10 00	 movups	 xmm0, XMMWORD PTR [eax]
  00015	0f 11 01	 movups	 XMMWORD PTR [ecx], xmm0
  00018	0f 10 40 10	 movups	 xmm0, XMMWORD PTR [eax+16]
  0001c	0f 11 41 10	 movups	 XMMWORD PTR [ecx+16], xmm0
  00020	0f 10 40 20	 movups	 xmm0, XMMWORD PTR [eax+32]
  00024	0f 11 41 20	 movups	 XMMWORD PTR [ecx+32], xmm0
  00028	0f 10 40 30	 movups	 xmm0, XMMWORD PTR [eax+48]
  0002c	0f 11 41 30	 movups	 XMMWORD PTR [ecx+48], xmm0
  00030	0f 10 40 40	 movups	 xmm0, XMMWORD PTR [eax+64]
  00034	0f 11 41 40	 movups	 XMMWORD PTR [ecx+64], xmm0
; File C:\Program Files (x86)\Microsoft Visual Studio\2019\Professional\VC\Tools\MSVC\14.29.30133\include\vector

; 729  :         ++_Mylast;

  00038	83 46 04 50	 add	 DWORD PTR [esi+4], 80	; 00000050H

; 744  :             return _Emplace_back_with_unused_capacity(_STD forward<_Valty>(_Val)...);

  0003c	eb 0b		 jmp	 SHORT $LN14@AddCollisi
$LN6@AddCollisi:

; 745  :         }
; 746  : 
; 747  :         _Ty& _Result = *_Emplace_reallocate(_Mylast, _STD forward<_Valty>(_Val)...);

  0003e	ff 75 08	 push	 DWORD PTR _data$[ebp]
  00041	51		 push	 ecx
  00042	8b ce		 mov	 ecx, esi
  00044	e8 00 00 00 00	 call	 ??$_Emplace_reallocate@ABVCStaticCollisionData@@@?$vector@VCStaticCollisionData@@V?$allocator@VCStaticCollisionData@@@std@@@std@@QAEPAVCStaticCollisionData@@QAV2@ABV2@@Z ; std::vector<CStaticCollisionData,std::allocator<CStaticCollisionData> >::_Emplace_reallocate<CStaticCollisionData const &>
$LN14@AddCollisi:

; 1549 :         return static_cast<size_type>(_My_data._Mylast - _My_data._Myfirst);

  00049	8b 4e 04	 mov	 ecx, DWORD PTR [esi+4]
  0004c	b8 67 66 66 66	 mov	 eax, 1717986919		; 66666667H
  00051	2b 0e		 sub	 ecx, DWORD PTR [esi]
  00053	f7 e9		 imul	 ecx
; File C:\Users\murat\Desktop\Siveps2-1-99-Project\source\client\Client\EterLib\AttributeData.cpp

; 57   : 	return m_StaticCollisionDataVector.size();

  00055	5e		 pop	 esi
; File C:\Program Files (x86)\Microsoft Visual Studio\2019\Professional\VC\Tools\MSVC\14.29.30133\include\vector

; 1549 :         return static_cast<size_type>(_My_data._Mylast - _My_data._Myfirst);

  00056	c1 fa 05	 sar	 edx, 5
  00059	8b c2		 mov	 eax, edx
  0005b	c1 e8 1f	 shr	 eax, 31			; 0000001fH
  0005e	03 c2		 add	 eax, edx
; File C:\Users\murat\Desktop\Siveps2-1-99-Project\source\client\Client\EterLib\AttributeData.cpp

; 58   : }

  00060	5d		 pop	 ebp
  00061	c2 04 00	 ret	 4
?AddCollisionData@CAttributeData@@QAEIABVCStaticCollisionData@@@Z ENDP ; CAttributeData::AddCollisionData
_TEXT	ENDS
; Function compile flags: /Ogtp
; File C:\Users\murat\Desktop\Siveps2-1-99-Project\source\client\Client\EterLib\AttributeData.cpp
;	COMDAT ?GetHeightDataVector@CAttributeData@@QBEABV?$vector@USHeightData@@V?$allocator@USHeightData@@@std@@@std@@XZ
_TEXT	SEGMENT
?GetHeightDataVector@CAttributeData@@QBEABV?$vector@USHeightData@@V?$allocator@USHeightData@@@std@@@std@@XZ PROC ; CAttributeData::GetHeightDataVector, COMDAT
; _this$ = ecx

; 31   : 	return m_HeightDataVector;

  00000	8d 41 3c	 lea	 eax, DWORD PTR [ecx+60]

; 32   : }

  00003	c3		 ret	 0
?GetHeightDataVector@CAttributeData@@QBEABV?$vector@USHeightData@@V?$allocator@USHeightData@@@std@@@std@@XZ ENDP ; CAttributeData::GetHeightDataVector
_TEXT	ENDS
; Function compile flags: /Ogtp
; File C:\Users\murat\Desktop\Siveps2-1-99-Project\source\client\Client\EterLib\AttributeData.cpp
;	COMDAT ?GetCollisionDataVector@CAttributeData@@QBEABV?$vector@VCStaticCollisionData@@V?$allocator@VCStaticCollisionData@@@std@@@std@@XZ
_TEXT	SEGMENT
?GetCollisionDataVector@CAttributeData@@QBEABV?$vector@VCStaticCollisionData@@V?$allocator@VCStaticCollisionData@@@std@@@std@@XZ PROC ; CAttributeData::GetCollisionDataVector, COMDAT
; _this$ = ecx

; 26   : 	return m_StaticCollisionDataVector;

  00000	8d 41 30	 lea	 eax, DWORD PTR [ecx+48]

; 27   : }

  00003	c3		 ret	 0
?GetCollisionDataVector@CAttributeData@@QBEABV?$vector@VCStaticCollisionData@@V?$allocator@VCStaticCollisionData@@@std@@@std@@XZ ENDP ; CAttributeData::GetCollisionDataVector
_TEXT	ENDS
; Function compile flags: /Ogtp
; File C:\Users\murat\Desktop\Siveps2-1-99-Project\source\client\Client\EterLib\AttributeData.cpp
;	COMDAT ??1CAttributeData@@UAE@XZ
_TEXT	SEGMENT
??1CAttributeData@@UAE@XZ PROC				; CAttributeData::~CAttributeData, COMDAT
; _this$ = ecx

; 199  : {

  00000	56		 push	 esi
  00001	8b f1		 mov	 esi, ecx

; 200  : }

  00003	8d 4e 3c	 lea	 ecx, DWORD PTR [esi+60]
  00006	c7 06 00 00 00
	00		 mov	 DWORD PTR [esi], OFFSET ??_7CAttributeData@@6B@
  0000c	e8 00 00 00 00	 call	 ??1?$vector@USHeightData@@V?$allocator@USHeightData@@@std@@@std@@QAE@XZ ; std::vector<SHeightData,std::allocator<SHeightData> >::~vector<SHeightData,std::allocator<SHeightData> >
  00011	8d 4e 30	 lea	 ecx, DWORD PTR [esi+48]
  00014	e8 00 00 00 00	 call	 ??1?$vector@VCStaticCollisionData@@V?$allocator@VCStaticCollisionData@@@std@@@std@@QAE@XZ ; std::vector<CStaticCollisionData,std::allocator<CStaticCollisionData> >::~vector<CStaticCollisionData,std::allocator<CStaticCollisionData> >
  00019	8b ce		 mov	 ecx, esi
  0001b	5e		 pop	 esi
  0001c	e9 00 00 00 00	 jmp	 ??1CResource@@UAE@XZ	; CResource::~CResource
??1CAttributeData@@UAE@XZ ENDP				; CAttributeData::~CAttributeData
_TEXT	ENDS
; Function compile flags: /Ogtp
; File C:\Users\murat\Desktop\Siveps2-1-99-Project\source\client\Client\EterLib\AttributeData.cpp
; File C:\Program Files (x86)\Microsoft Visual Studio\2019\Professional\VC\Tools\MSVC\14.29.30133\include\vector
; File C:\Users\murat\Desktop\Siveps2-1-99-Project\source\client\Client\EterLib\AttributeData.cpp
;	COMDAT ??0CAttributeData@@QAE@PBD@Z
_TEXT	SEGMENT
_this$ = -4						; size = 4
_c_szFileName$ = 8					; size = 4
??0CAttributeData@@QAE@PBD@Z PROC			; CAttributeData::CAttributeData, COMDAT
; _this$ = ecx

; 194  : {

  00000	55		 push	 ebp
  00001	8b ec		 mov	 ebp, esp
  00003	51		 push	 ecx
  00004	56		 push	 esi
  00005	ff 75 08	 push	 DWORD PTR _c_szFileName$[ebp]
  00008	8b f1		 mov	 esi, ecx
  0000a	89 75 fc	 mov	 DWORD PTR _this$[ebp], esi
  0000d	e8 00 00 00 00	 call	 ??0CResource@@QAE@PBD@Z	; CResource::CResource
  00012	c7 06 00 00 00
	00		 mov	 DWORD PTR [esi], OFFSET ??_7CAttributeData@@6B@

; 196  : }

  00018	8b c6		 mov	 eax, esi
; File C:\Program Files (x86)\Microsoft Visual Studio\2019\Professional\VC\Tools\MSVC\14.29.30133\include\vector

; 401  :     _CONSTEXPR20_CONTAINER _Vector_val() noexcept : _Myfirst(), _Mylast(), _Myend() {}

  0001a	c7 46 30 00 00
	00 00		 mov	 DWORD PTR [esi+48], 0
  00021	c7 46 34 00 00
	00 00		 mov	 DWORD PTR [esi+52], 0
  00028	c7 46 38 00 00
	00 00		 mov	 DWORD PTR [esi+56], 0
  0002f	c7 46 3c 00 00
	00 00		 mov	 DWORD PTR [esi+60], 0
  00036	c7 46 40 00 00
	00 00		 mov	 DWORD PTR [esi+64], 0
  0003d	c7 46 44 00 00
	00 00		 mov	 DWORD PTR [esi+68], 0
; File C:\Users\murat\Desktop\Siveps2-1-99-Project\source\client\Client\EterLib\AttributeData.cpp

; 195  : 	m_fMaximizeRadius = 0.0f;

  00044	c7 46 2c 00 00
	00 00		 mov	 DWORD PTR [esi+44], 0

; 196  : }

  0004b	5e		 pop	 esi
  0004c	8b e5		 mov	 esp, ebp
  0004e	5d		 pop	 ebp
  0004f	c2 04 00	 ret	 4
??0CAttributeData@@QAE@PBD@Z ENDP			; CAttributeData::CAttributeData
_TEXT	ENDS
; Function compile flags: /Ogtp
; File C:\Users\murat\Desktop\Siveps2-1-99-Project\source\client\Client\EterLib\AttributeData.cpp
;	COMDAT ?Type@CAttributeData@@SAKXZ
_TEXT	SEGMENT
__$EHRec$ = -12						; size = 12
?Type@CAttributeData@@SAKXZ PROC			; CAttributeData::Type, COMDAT

; 183  : {

  00000	55		 push	 ebp
  00001	8b ec		 mov	 ebp, esp
  00003	6a ff		 push	 -1
  00005	68 00 00 00 00	 push	 __ehhandler$?Type@CAttributeData@@SAKXZ
  0000a	64 a1 00 00 00
	00		 mov	 eax, DWORD PTR fs:0
  00010	50		 push	 eax
  00011	a1 00 00 00 00	 mov	 eax, DWORD PTR ___security_cookie
  00016	33 c5		 xor	 eax, ebp
  00018	50		 push	 eax
  00019	8d 45 f4	 lea	 eax, DWORD PTR __$EHRec$[ebp]
  0001c	64 a3 00 00 00
	00		 mov	 DWORD PTR fs:0, eax

; 184  : 	static TType s_type = StringToType("CAttributeData");

  00022	64 a1 00 00 00
	00		 mov	 eax, DWORD PTR fs:__tls_array
  00028	8b 0d 00 00 00
	00		 mov	 ecx, DWORD PTR __tls_index
  0002e	8b 0c 88	 mov	 ecx, DWORD PTR [eax+ecx*4]
  00031	a1 00 00 00 00	 mov	 eax, DWORD PTR ?$TSS0@?1??Type@CAttributeData@@SAKXZ@4HA
  00036	3b 81 00 00 00
	00		 cmp	 eax, DWORD PTR __Init_thread_epoch[ecx]
  0003c	7f 14		 jg	 SHORT $LN9@Type
$LN5@Type:

; 185  : 	return s_type;
; 186  : }

  0003e	a1 00 00 00 00	 mov	 eax, DWORD PTR ?s_type@?1??Type@CAttributeData@@SAKXZ@4KA
  00043	8b 4d f4	 mov	 ecx, DWORD PTR __$EHRec$[ebp]
  00046	64 89 0d 00 00
	00 00		 mov	 DWORD PTR fs:0, ecx
  0004d	59		 pop	 ecx
  0004e	8b e5		 mov	 esp, ebp
  00050	5d		 pop	 ebp
  00051	c3		 ret	 0
$LN9@Type:

; 184  : 	static TType s_type = StringToType("CAttributeData");

  00052	68 00 00 00 00	 push	 OFFSET ?$TSS0@?1??Type@CAttributeData@@SAKXZ@4HA
  00057	e8 00 00 00 00	 call	 __Init_thread_header
  0005c	83 c4 04	 add	 esp, 4
  0005f	83 3d 00 00 00
	00 ff		 cmp	 DWORD PTR ?$TSS0@?1??Type@CAttributeData@@SAKXZ@4HA, -1
  00066	75 d6		 jne	 SHORT $LN5@Type
  00068	68 00 00 00 00	 push	 OFFSET ??_C@_0P@COGNDLAI@CAttributeData@
  0006d	c7 45 fc 00 00
	00 00		 mov	 DWORD PTR __$EHRec$[ebp+8], 0
  00074	e8 00 00 00 00	 call	 ?StringToType@CResource@@SAKPBD@Z ; CResource::StringToType
  00079	68 00 00 00 00	 push	 OFFSET ?$TSS0@?1??Type@CAttributeData@@SAKXZ@4HA
  0007e	a3 00 00 00 00	 mov	 DWORD PTR ?s_type@?1??Type@CAttributeData@@SAKXZ@4KA, eax
  00083	e8 00 00 00 00	 call	 __Init_thread_footer
  00088	83 c4 08	 add	 esp, 8
  0008b	eb b1		 jmp	 SHORT $LN5@Type
_TEXT	ENDS
;	COMDAT text$x
text$x	SEGMENT
__unwindfunclet$?Type@CAttributeData@@SAKXZ$0:
  00000	68 00 00 00 00	 push	 OFFSET ?$TSS0@?1??Type@CAttributeData@@SAKXZ@4HA
  00005	e8 00 00 00 00	 call	 __Init_thread_abort
  0000a	59		 pop	 ecx
  0000b	c3		 ret	 0
  0000c	cc		 int	 3
  0000d	cc		 int	 3
  0000e	cc		 int	 3
  0000f	cc		 int	 3
  00010	cc		 int	 3
__ehhandler$?Type@CAttributeData@@SAKXZ:
  00011	90		 npad	 1
  00012	90		 npad	 1
  00013	8b 54 24 08	 mov	 edx, DWORD PTR [esp+8]
  00017	8d 42 0c	 lea	 eax, DWORD PTR [edx+12]
  0001a	8b 4a fc	 mov	 ecx, DWORD PTR [edx-4]
  0001d	33 c8		 xor	 ecx, eax
  0001f	e8 00 00 00 00	 call	 @__security_check_cookie@4
  00024	b8 00 00 00 00	 mov	 eax, OFFSET __ehfuncinfo$?Type@CAttributeData@@SAKXZ
  00029	e9 00 00 00 00	 jmp	 ___CxxFrameHandler3
text$x	ENDS
?Type@CAttributeData@@SAKXZ ENDP			; CAttributeData::Type
; Function compile flags: /Ogtp
; File C:\Program Files (x86)\Microsoft Visual Studio\2019\Professional\VC\Tools\MSVC\14.29.30133\include\vector
;	COMDAT ?_Xlength@?$vector@UD3DXVECTOR3@@V?$allocator@UD3DXVECTOR3@@@std@@@std@@CAXXZ
_TEXT	SEGMENT
?_Xlength@?$vector@UD3DXVECTOR3@@V?$allocator@UD3DXVECTOR3@@@std@@@std@@CAXXZ PROC ; std::vector<D3DXVECTOR3,std::allocator<D3DXVECTOR3> >::_Xlength, COMDAT

; 1774 :         _Xlength_error("vector too long");

  00000	68 00 00 00 00	 push	 OFFSET ??_C@_0BA@FOIKENOD@vector?5too?5long@
  00005	e8 00 00 00 00	 call	 ?_Xlength_error@std@@YAXPBD@Z ; std::_Xlength_error
$LN3@Xlength:
  0000a	cc		 int	 3
?_Xlength@?$vector@UD3DXVECTOR3@@V?$allocator@UD3DXVECTOR3@@@std@@@std@@CAXXZ ENDP ; std::vector<D3DXVECTOR3,std::allocator<D3DXVECTOR3> >::_Xlength
_TEXT	ENDS
; Function compile flags: /Ogtp
; File C:\Program Files (x86)\Microsoft Visual Studio\2019\Professional\VC\Tools\MSVC\14.29.30133\include\vector
; File C:\Program Files (x86)\Microsoft Visual Studio\2019\Professional\VC\Tools\MSVC\14.29.30133\include\xmemory
; File C:\Program Files (x86)\Microsoft Visual Studio\2019\Professional\VC\Tools\MSVC\14.29.30133\include\vector
; File C:\Program Files (x86)\Microsoft Visual Studio\2019\Professional\VC\Tools\MSVC\14.29.30133\include\xmemory
; File C:\Program Files (x86)\Microsoft Visual Studio\2019\Professional\VC\Tools\MSVC\14.29.30133\include\vector
; File C:\Program Files (x86)\Microsoft Visual Studio\2019\Professional\VC\Tools\MSVC\14.29.30133\include\xmemory
; File C:\Program Files (x86)\Microsoft Visual Studio\2019\Professional\VC\Tools\MSVC\14.29.30133\include\vector
;	COMDAT ??1?$vector@UD3DXVECTOR3@@V?$allocator@UD3DXVECTOR3@@@std@@@std@@QAE@XZ
_TEXT	SEGMENT
??1?$vector@UD3DXVECTOR3@@V?$allocator@UD3DXVECTOR3@@@std@@@std@@QAE@XZ PROC ; std::vector<D3DXVECTOR3,std::allocator<D3DXVECTOR3> >::~vector<D3DXVECTOR3,std::allocator<D3DXVECTOR3> >, COMDAT
; _this$ = ecx

; 711  :     _CONSTEXPR20_CONTAINER ~vector() noexcept {

  00000	56		 push	 esi
  00001	57		 push	 edi
  00002	8b f9		 mov	 edi, ecx

; 1763 :         if (_Myfirst) { // destroy and deallocate old array

  00004	8b 37		 mov	 esi, DWORD PTR [edi]
  00006	85 f6		 test	 esi, esi
  00008	74 53		 je	 SHORT $LN4@vector

; 1764 :             _Destroy(_Myfirst, _Mylast);
; 1765 :             _Getal().deallocate(_Myfirst, static_cast<size_type>(_Myend - _Myfirst));

  0000a	8b 4f 08	 mov	 ecx, DWORD PTR [edi+8]
  0000d	b8 ab aa aa 2a	 mov	 eax, 715827883		; 2aaaaaabH
  00012	2b ce		 sub	 ecx, esi
  00014	f7 e9		 imul	 ecx
  00016	d1 fa		 sar	 edx, 1
  00018	8b c2		 mov	 eax, edx
  0001a	c1 e8 1f	 shr	 eax, 31			; 0000001fH
  0001d	03 c2		 add	 eax, edx
; File C:\Program Files (x86)\Microsoft Visual Studio\2019\Professional\VC\Tools\MSVC\14.29.30133\include\xmemory

; 835  :         _Deallocate<_New_alignof<_Ty>>(_Ptr, sizeof(_Ty) * _Count);

  0001f	8d 0c 40	 lea	 ecx, DWORD PTR [eax+eax*2]
  00022	c1 e1 02	 shl	 ecx, 2

; 260  :         if (_Bytes >= _Big_allocation_threshold) { // boost the alignment of big allocations to help autovectorization

  00025	81 f9 00 10 00
	00		 cmp	 ecx, 4096		; 00001000H
  0002b	72 12		 jb	 SHORT $LN20@vector

; 158  :     const uintptr_t _Ptr_container   = _Ptr_user[-1];

  0002d	8b 56 fc	 mov	 edx, DWORD PTR [esi-4]
  00030	83 c1 23	 add	 ecx, 35			; 00000023H

; 159  : 
; 160  :     // If the following asserts, it likely means that we are performing
; 161  :     // an aligned delete on memory coming from an unaligned allocation.
; 162  :     _STL_ASSERT(_Ptr_user[-2] == _Big_allocation_sentinel, "invalid argument");
; 163  : 
; 164  :     // Extra paranoia on aligned allocation/deallocation; ensure _Ptr_container is
; 165  :     // in range [_Min_back_shift, _Non_user_size]
; 166  : #ifdef _DEBUG
; 167  :     constexpr uintptr_t _Min_back_shift = 2 * sizeof(void*);
; 168  : #else // ^^^ _DEBUG ^^^ // vvv !_DEBUG vvv
; 169  :     constexpr uintptr_t _Min_back_shift = sizeof(void*);
; 170  : #endif // _DEBUG
; 171  :     const uintptr_t _Back_shift = reinterpret_cast<uintptr_t>(_Ptr) - _Ptr_container;

  00033	2b f2		 sub	 esi, edx

; 172  :     _STL_VERIFY(_Back_shift >= _Min_back_shift && _Back_shift <= _Non_user_size, "invalid argument");

  00035	8d 46 fc	 lea	 eax, DWORD PTR [esi-4]
  00038	83 f8 1f	 cmp	 eax, 31			; 0000001fH
  0003b	77 23		 ja	 SHORT $LN17@vector

; 173  :     _Ptr = reinterpret_cast<void*>(_Ptr_container);

  0003d	8b f2		 mov	 esi, edx
$LN20@vector:

; 264  :         ::operator delete(_Ptr, _Bytes);

  0003f	51		 push	 ecx
  00040	56		 push	 esi
  00041	e8 00 00 00 00	 call	 ??3@YAXPAXI@Z		; operator delete
; File C:\Program Files (x86)\Microsoft Visual Studio\2019\Professional\VC\Tools\MSVC\14.29.30133\include\vector

; 1767 :             _Myfirst = nullptr;

  00046	c7 07 00 00 00
	00		 mov	 DWORD PTR [edi], 0
; File C:\Program Files (x86)\Microsoft Visual Studio\2019\Professional\VC\Tools\MSVC\14.29.30133\include\xmemory

; 264  :         ::operator delete(_Ptr, _Bytes);

  0004c	83 c4 08	 add	 esp, 8
; File C:\Program Files (x86)\Microsoft Visual Studio\2019\Professional\VC\Tools\MSVC\14.29.30133\include\vector

; 1768 :             _Mylast  = nullptr;

  0004f	c7 47 04 00 00
	00 00		 mov	 DWORD PTR [edi+4], 0

; 1769 :             _Myend   = nullptr;

  00056	c7 47 08 00 00
	00 00		 mov	 DWORD PTR [edi+8], 0
$LN4@vector:
  0005d	5f		 pop	 edi

; 717  :     }

  0005e	5e		 pop	 esi
  0005f	c3		 ret	 0
$LN17@vector:
; File C:\Program Files (x86)\Microsoft Visual Studio\2019\Professional\VC\Tools\MSVC\14.29.30133\include\xmemory

; 172  :     _STL_VERIFY(_Back_shift >= _Min_back_shift && _Back_shift <= _Non_user_size, "invalid argument");

  00060	e8 00 00 00 00	 call	 __invalid_parameter_noinfo_noreturn
$LN25@vector:
  00065	cc		 int	 3
??1?$vector@UD3DXVECTOR3@@V?$allocator@UD3DXVECTOR3@@@std@@@std@@QAE@XZ ENDP ; std::vector<D3DXVECTOR3,std::allocator<D3DXVECTOR3> >::~vector<D3DXVECTOR3,std::allocator<D3DXVECTOR3> >
_TEXT	ENDS
; Function compile flags: /Ogtp
; File C:\Program Files (x86)\Microsoft Visual Studio\2019\Professional\VC\Tools\MSVC\14.29.30133\include\xmemory
;	COMDAT ??$_Allocate_manually_vector_aligned@U_Default_allocate_traits@std@@@std@@YAPAXI@Z
_TEXT	SEGMENT
__Bytes$ = 8						; size = 4
??$_Allocate_manually_vector_aligned@U_Default_allocate_traits@std@@@std@@YAPAXI@Z PROC ; std::_Allocate_manually_vector_aligned<std::_Default_allocate_traits>, COMDAT

; 134  : __declspec(allocator) void* _Allocate_manually_vector_aligned(const size_t _Bytes) {

  00000	55		 push	 ebp
  00001	8b ec		 mov	 ebp, esp

; 135  :     // allocate _Bytes manually aligned to at least _Big_allocation_alignment
; 136  :     const size_t _Block_size = _Non_user_size + _Bytes;

  00003	8b 45 08	 mov	 eax, DWORD PTR __Bytes$[ebp]
  00006	8d 48 23	 lea	 ecx, DWORD PTR [eax+35]

; 137  :     if (_Block_size <= _Bytes) {

  00009	3b c8		 cmp	 ecx, eax
  0000b	0f 86 00 00 00
	00		 jbe	 ?_Throw_bad_array_new_length@std@@YAXXZ ; std::_Throw_bad_array_new_length

; 85   :         return ::operator new(_Bytes);

  00011	51		 push	 ecx
  00012	e8 00 00 00 00	 call	 ??2@YAPAXI@Z		; operator new

; 138  :         _Throw_bad_array_new_length(); // add overflow
; 139  :     }
; 140  : 
; 141  :     const uintptr_t _Ptr_container = reinterpret_cast<uintptr_t>(_Traits::_Allocate(_Block_size));

  00017	8b c8		 mov	 ecx, eax

; 85   :         return ::operator new(_Bytes);

  00019	83 c4 04	 add	 esp, 4

; 142  :     _STL_VERIFY(_Ptr_container != 0, "invalid argument"); // validate even in release since we're doing p[-1]

  0001c	85 c9		 test	 ecx, ecx
  0001e	74 0b		 je	 SHORT $LN7@Allocate_m

; 143  :     void* const _Ptr = reinterpret_cast<void*>((_Ptr_container + _Non_user_size) & ~(_Big_allocation_alignment - 1));

  00020	8d 41 23	 lea	 eax, DWORD PTR [ecx+35]
  00023	83 e0 e0	 and	 eax, -32		; ffffffe0H

; 144  :     static_cast<uintptr_t*>(_Ptr)[-1] = _Ptr_container;

  00026	89 48 fc	 mov	 DWORD PTR [eax-4], ecx

; 145  : 
; 146  : #ifdef _DEBUG
; 147  :     static_cast<uintptr_t*>(_Ptr)[-2] = _Big_allocation_sentinel;
; 148  : #endif // _DEBUG
; 149  :     return _Ptr;
; 150  : }

  00029	5d		 pop	 ebp
  0002a	c3		 ret	 0
$LN7@Allocate_m:

; 142  :     _STL_VERIFY(_Ptr_container != 0, "invalid argument"); // validate even in release since we're doing p[-1]

  0002b	e9 00 00 00 00	 jmp	 __invalid_parameter_noinfo_noreturn
??$_Allocate_manually_vector_aligned@U_Default_allocate_traits@std@@@std@@YAPAXI@Z ENDP ; std::_Allocate_manually_vector_aligned<std::_Default_allocate_traits>
_TEXT	ENDS
; Function compile flags: /Ogtp
; File C:\Program Files (x86)\Microsoft Visual Studio\2019\Professional\VC\Tools\MSVC\14.29.30133\include\exception
;	COMDAT ?_Throw_bad_array_new_length@std@@YAXXZ
_TEXT	SEGMENT
$T1 = -12						; size = 12
?_Throw_bad_array_new_length@std@@YAXXZ PROC		; std::_Throw_bad_array_new_length, COMDAT

; 320  : [[noreturn]] inline void _Throw_bad_array_new_length() {

  00000	55		 push	 ebp
  00001	8b ec		 mov	 ebp, esp
  00003	83 ec 0c	 sub	 esp, 12			; 0000000cH

; 321  :     _THROW(bad_array_new_length{});

  00006	8d 4d f4	 lea	 ecx, DWORD PTR $T1[ebp]
  00009	e8 00 00 00 00	 call	 ??0bad_array_new_length@std@@QAE@XZ ; std::bad_array_new_length::bad_array_new_length
  0000e	68 00 00 00 00	 push	 OFFSET __TI3?AVbad_array_new_length@std@@
  00013	8d 45 f4	 lea	 eax, DWORD PTR $T1[ebp]
  00016	50		 push	 eax
  00017	e8 00 00 00 00	 call	 __CxxThrowException@8
$LN3@Throw_bad_:
  0001c	cc		 int	 3
?_Throw_bad_array_new_length@std@@YAXXZ ENDP		; std::_Throw_bad_array_new_length
_TEXT	ENDS
; Function compile flags: /Ogtp
; File C:\Program Files (x86)\Microsoft Visual Studio\2019\Professional\VC\Tools\MSVC\14.29.30133\include\vcruntime_exception.h
;	COMDAT ??_Gbad_array_new_length@std@@UAEPAXI@Z
_TEXT	SEGMENT
___flags$ = 8						; size = 4
??_Gbad_array_new_length@std@@UAEPAXI@Z PROC		; std::bad_array_new_length::`scalar deleting destructor', COMDAT
; _this$ = ecx
  00000	55		 push	 ebp
  00001	8b ec		 mov	 ebp, esp

; 89   :     {

  00003	56		 push	 esi
  00004	8b f1		 mov	 esi, ecx

; 90   :         __std_exception_destroy(&_Data);

  00006	8d 46 04	 lea	 eax, DWORD PTR [esi+4]
  00009	c7 06 00 00 00
	00		 mov	 DWORD PTR [esi], OFFSET ??_7exception@std@@6B@
  0000f	50		 push	 eax
  00010	e8 00 00 00 00	 call	 ___std_exception_destroy
  00015	83 c4 04	 add	 esp, 4
  00018	f6 45 08 01	 test	 BYTE PTR ___flags$[ebp], 1
  0001c	74 0b		 je	 SHORT $LN12@scalar
  0001e	6a 0c		 push	 12			; 0000000cH
  00020	56		 push	 esi
  00021	e8 00 00 00 00	 call	 ??3@YAXPAXI@Z		; operator delete
  00026	83 c4 08	 add	 esp, 8
$LN12@scalar:
  00029	8b c6		 mov	 eax, esi
  0002b	5e		 pop	 esi
  0002c	5d		 pop	 ebp
  0002d	c2 04 00	 ret	 4
??_Gbad_array_new_length@std@@UAEPAXI@Z ENDP		; std::bad_array_new_length::`scalar deleting destructor'
_TEXT	ENDS
; Function compile flags: /Ogtp
; File C:\Program Files (x86)\Microsoft Visual Studio\2019\Professional\VC\Tools\MSVC\14.29.30133\include\vcruntime_exception.h
;	COMDAT ??0bad_array_new_length@std@@QAE@ABV01@@Z
_TEXT	SEGMENT
___that$ = 8						; size = 4
??0bad_array_new_length@std@@QAE@ABV01@@Z PROC		; std::bad_array_new_length::bad_array_new_length, COMDAT
; _this$ = ecx
  00000	55		 push	 ebp
  00001	8b ec		 mov	 ebp, esp

; 72   :     {

  00003	56		 push	 esi
  00004	8b f1		 mov	 esi, ecx
  00006	0f 57 c0	 xorps	 xmm0, xmm0

; 71   :         : _Data()

  00009	8d 46 04	 lea	 eax, DWORD PTR [esi+4]

; 73   :         __std_exception_copy(&_Other._Data, &_Data);

  0000c	50		 push	 eax
  0000d	c7 06 00 00 00
	00		 mov	 DWORD PTR [esi], OFFSET ??_7exception@std@@6B@
  00013	66 0f d6 00	 movq	 QWORD PTR [eax], xmm0
  00017	8b 45 08	 mov	 eax, DWORD PTR ___that$[ebp]
  0001a	83 c0 04	 add	 eax, 4
  0001d	50		 push	 eax
  0001e	e8 00 00 00 00	 call	 ___std_exception_copy
  00023	83 c4 08	 add	 esp, 8
  00026	c7 06 00 00 00
	00		 mov	 DWORD PTR [esi], OFFSET ??_7bad_array_new_length@std@@6B@
  0002c	8b c6		 mov	 eax, esi
  0002e	5e		 pop	 esi
  0002f	5d		 pop	 ebp
  00030	c2 04 00	 ret	 4
??0bad_array_new_length@std@@QAE@ABV01@@Z ENDP		; std::bad_array_new_length::bad_array_new_length
_TEXT	ENDS
; Function compile flags: /Ogtp
; File C:\Program Files (x86)\Microsoft Visual Studio\2019\Professional\VC\Tools\MSVC\14.29.30133\include\vcruntime_exception.h
;	COMDAT ??1bad_array_new_length@std@@UAE@XZ
_TEXT	SEGMENT
??1bad_array_new_length@std@@UAE@XZ PROC		; std::bad_array_new_length::~bad_array_new_length, COMDAT
; _this$ = ecx

; 90   :         __std_exception_destroy(&_Data);

  00000	8d 41 04	 lea	 eax, DWORD PTR [ecx+4]
  00003	c7 01 00 00 00
	00		 mov	 DWORD PTR [ecx], OFFSET ??_7exception@std@@6B@
  00009	50		 push	 eax
  0000a	e8 00 00 00 00	 call	 ___std_exception_destroy
  0000f	59		 pop	 ecx
  00010	c3		 ret	 0
??1bad_array_new_length@std@@UAE@XZ ENDP		; std::bad_array_new_length::~bad_array_new_length
_TEXT	ENDS
; Function compile flags: /Ogtp
; File C:\Program Files (x86)\Microsoft Visual Studio\2019\Professional\VC\Tools\MSVC\14.29.30133\include\vcruntime_exception.h
;	COMDAT ??0bad_array_new_length@std@@QAE@XZ
_TEXT	SEGMENT
??0bad_array_new_length@std@@QAE@XZ PROC		; std::bad_array_new_length::bad_array_new_length, COMDAT
; _this$ = ecx

; 141  :     {

  00000	0f 57 c0	 xorps	 xmm0, xmm0

; 142  :     }

  00003	8b c1		 mov	 eax, ecx

; 65   :         : _Data()

  00005	66 0f d6 41 04	 movq	 QWORD PTR [ecx+4], xmm0

; 66   :     {
; 67   :         _Data._What = _Message;

  0000a	c7 41 04 00 00
	00 00		 mov	 DWORD PTR [ecx+4], OFFSET ??_C@_0BF@KINCDENJ@bad?5array?5new?5length@

; 141  :     {

  00011	c7 01 00 00 00
	00		 mov	 DWORD PTR [ecx], OFFSET ??_7bad_array_new_length@std@@6B@

; 142  :     }

  00017	c3		 ret	 0
??0bad_array_new_length@std@@QAE@XZ ENDP		; std::bad_array_new_length::bad_array_new_length
_TEXT	ENDS
; Function compile flags: /Ogtp
; File C:\Program Files (x86)\Microsoft Visual Studio\2019\Professional\VC\Tools\MSVC\14.29.30133\include\vcruntime_exception.h
;	COMDAT ??_Gbad_alloc@std@@UAEPAXI@Z
_TEXT	SEGMENT
___flags$ = 8						; size = 4
??_Gbad_alloc@std@@UAEPAXI@Z PROC			; std::bad_alloc::`scalar deleting destructor', COMDAT
; _this$ = ecx
  00000	55		 push	 ebp
  00001	8b ec		 mov	 ebp, esp

; 89   :     {

  00003	56		 push	 esi
  00004	8b f1		 mov	 esi, ecx

; 90   :         __std_exception_destroy(&_Data);

  00006	8d 46 04	 lea	 eax, DWORD PTR [esi+4]
  00009	c7 06 00 00 00
	00		 mov	 DWORD PTR [esi], OFFSET ??_7exception@std@@6B@
  0000f	50		 push	 eax
  00010	e8 00 00 00 00	 call	 ___std_exception_destroy
  00015	83 c4 04	 add	 esp, 4
  00018	f6 45 08 01	 test	 BYTE PTR ___flags$[ebp], 1
  0001c	74 0b		 je	 SHORT $LN9@scalar
  0001e	6a 0c		 push	 12			; 0000000cH
  00020	56		 push	 esi
  00021	e8 00 00 00 00	 call	 ??3@YAXPAXI@Z		; operator delete
  00026	83 c4 08	 add	 esp, 8
$LN9@scalar:
  00029	8b c6		 mov	 eax, esi
  0002b	5e		 pop	 esi
  0002c	5d		 pop	 ebp
  0002d	c2 04 00	 ret	 4
??_Gbad_alloc@std@@UAEPAXI@Z ENDP			; std::bad_alloc::`scalar deleting destructor'
_TEXT	ENDS
; Function compile flags: /Ogtp
; File C:\Program Files (x86)\Microsoft Visual Studio\2019\Professional\VC\Tools\MSVC\14.29.30133\include\vcruntime_exception.h
;	COMDAT ??0bad_alloc@std@@QAE@ABV01@@Z
_TEXT	SEGMENT
___that$ = 8						; size = 4
??0bad_alloc@std@@QAE@ABV01@@Z PROC			; std::bad_alloc::bad_alloc, COMDAT
; _this$ = ecx
  00000	55		 push	 ebp
  00001	8b ec		 mov	 ebp, esp

; 72   :     {

  00003	56		 push	 esi
  00004	8b f1		 mov	 esi, ecx
  00006	0f 57 c0	 xorps	 xmm0, xmm0

; 71   :         : _Data()

  00009	8d 46 04	 lea	 eax, DWORD PTR [esi+4]

; 73   :         __std_exception_copy(&_Other._Data, &_Data);

  0000c	50		 push	 eax
  0000d	c7 06 00 00 00
	00		 mov	 DWORD PTR [esi], OFFSET ??_7exception@std@@6B@
  00013	66 0f d6 00	 movq	 QWORD PTR [eax], xmm0
  00017	8b 45 08	 mov	 eax, DWORD PTR ___that$[ebp]
  0001a	83 c0 04	 add	 eax, 4
  0001d	50		 push	 eax
  0001e	e8 00 00 00 00	 call	 ___std_exception_copy
  00023	83 c4 08	 add	 esp, 8
  00026	c7 06 00 00 00
	00		 mov	 DWORD PTR [esi], OFFSET ??_7bad_alloc@std@@6B@
  0002c	8b c6		 mov	 eax, esi
  0002e	5e		 pop	 esi
  0002f	5d		 pop	 ebp
  00030	c2 04 00	 ret	 4
??0bad_alloc@std@@QAE@ABV01@@Z ENDP			; std::bad_alloc::bad_alloc
_TEXT	ENDS
; Function compile flags: /Ogtp
; File C:\Program Files (x86)\Microsoft Visual Studio\2019\Professional\VC\Tools\MSVC\14.29.30133\include\vcruntime_exception.h
;	COMDAT ??_Gexception@std@@UAEPAXI@Z
_TEXT	SEGMENT
___flags$ = 8						; size = 4
??_Gexception@std@@UAEPAXI@Z PROC			; std::exception::`scalar deleting destructor', COMDAT
; _this$ = ecx
  00000	55		 push	 ebp
  00001	8b ec		 mov	 ebp, esp

; 89   :     {

  00003	56		 push	 esi
  00004	8b f1		 mov	 esi, ecx

; 90   :         __std_exception_destroy(&_Data);

  00006	8d 46 04	 lea	 eax, DWORD PTR [esi+4]
  00009	c7 06 00 00 00
	00		 mov	 DWORD PTR [esi], OFFSET ??_7exception@std@@6B@
  0000f	50		 push	 eax
  00010	e8 00 00 00 00	 call	 ___std_exception_destroy
  00015	83 c4 04	 add	 esp, 4
  00018	f6 45 08 01	 test	 BYTE PTR ___flags$[ebp], 1
  0001c	74 0b		 je	 SHORT $LN6@scalar
  0001e	6a 0c		 push	 12			; 0000000cH
  00020	56		 push	 esi
  00021	e8 00 00 00 00	 call	 ??3@YAXPAXI@Z		; operator delete
  00026	83 c4 08	 add	 esp, 8
$LN6@scalar:
  00029	8b c6		 mov	 eax, esi
  0002b	5e		 pop	 esi
  0002c	5d		 pop	 ebp
  0002d	c2 04 00	 ret	 4
??_Gexception@std@@UAEPAXI@Z ENDP			; std::exception::`scalar deleting destructor'
_TEXT	ENDS
; Function compile flags: /Ogtp
; File C:\Program Files (x86)\Microsoft Visual Studio\2019\Professional\VC\Tools\MSVC\14.29.30133\include\vcruntime_exception.h
;	COMDAT ?what@exception@std@@UBEPBDXZ
_TEXT	SEGMENT
?what@exception@std@@UBEPBDXZ PROC			; std::exception::what, COMDAT
; _this$ = ecx

; 95   :         return _Data._What ? _Data._What : "Unknown exception";

  00000	8b 49 04	 mov	 ecx, DWORD PTR [ecx+4]
  00003	b8 00 00 00 00	 mov	 eax, OFFSET ??_C@_0BC@EOODALEL@Unknown?5exception@
  00008	85 c9		 test	 ecx, ecx
  0000a	0f 45 c1	 cmovne	 eax, ecx

; 96   :     }

  0000d	c3		 ret	 0
?what@exception@std@@UBEPBDXZ ENDP			; std::exception::what
_TEXT	ENDS
; Function compile flags: /Ogtp
; File C:\Program Files (x86)\Microsoft Visual Studio\2019\Professional\VC\Tools\MSVC\14.29.30133\include\vcruntime_exception.h
;	COMDAT ??1exception@std@@UAE@XZ
_TEXT	SEGMENT
??1exception@std@@UAE@XZ PROC				; std::exception::~exception, COMDAT
; _this$ = ecx

; 90   :         __std_exception_destroy(&_Data);

  00000	8d 41 04	 lea	 eax, DWORD PTR [ecx+4]
  00003	c7 01 00 00 00
	00		 mov	 DWORD PTR [ecx], OFFSET ??_7exception@std@@6B@
  00009	50		 push	 eax
  0000a	e8 00 00 00 00	 call	 ___std_exception_destroy
  0000f	59		 pop	 ecx

; 91   :     }

  00010	c3		 ret	 0
??1exception@std@@UAE@XZ ENDP				; std::exception::~exception
_TEXT	ENDS
; Function compile flags: /Ogtp
; File C:\Program Files (x86)\Microsoft Visual Studio\2019\Professional\VC\Tools\MSVC\14.29.30133\include\vcruntime_exception.h
;	COMDAT ??0exception@std@@QAE@ABV01@@Z
_TEXT	SEGMENT
__Other$ = 8						; size = 4
??0exception@std@@QAE@ABV01@@Z PROC			; std::exception::exception, COMDAT
; _this$ = ecx

; 72   :     {

  00000	55		 push	 ebp
  00001	8b ec		 mov	 ebp, esp
  00003	56		 push	 esi
  00004	8b f1		 mov	 esi, ecx
  00006	0f 57 c0	 xorps	 xmm0, xmm0
  00009	8d 46 04	 lea	 eax, DWORD PTR [esi+4]

; 73   :         __std_exception_copy(&_Other._Data, &_Data);

  0000c	50		 push	 eax
  0000d	c7 06 00 00 00
	00		 mov	 DWORD PTR [esi], OFFSET ??_7exception@std@@6B@
  00013	66 0f d6 00	 movq	 QWORD PTR [eax], xmm0
  00017	8b 45 08	 mov	 eax, DWORD PTR __Other$[ebp]
  0001a	83 c0 04	 add	 eax, 4
  0001d	50		 push	 eax
  0001e	e8 00 00 00 00	 call	 ___std_exception_copy
  00023	83 c4 08	 add	 esp, 8

; 74   :     }

  00026	8b c6		 mov	 eax, esi
  00028	5e		 pop	 esi
  00029	5d		 pop	 ebp
  0002a	c2 04 00	 ret	 4
??0exception@std@@QAE@ABV01@@Z ENDP			; std::exception::exception
_TEXT	ENDS
END
