; Listing generated by Microsoft (R) Optimizing Compiler Version 19.29.30137.0 

	TITLE	C:\Users\murat\Desktop\Siveps2-1-99-Project\source\client\Client\EterLib\Distribute\FileLoaderThread.obj
	.686P
	.XMM
	include listing.inc
	.model	flat

INCLUDELIB LIBCMT
INCLUDELIB OLDNAMES

CONST	SEGMENT
?_Fake_alloc@std@@3U_Fake_allocator@1@B	ORG $+1		; std::_Fake_alloc
CONST	ENDS
PUBLIC	??0exception@std@@QAE@ABV01@@Z			; std::exception::exception
PUBLIC	??1exception@std@@UAE@XZ			; std::exception::~exception
PUBLIC	?what@exception@std@@UBEPBDXZ			; std::exception::what
PUBLIC	??_Gexception@std@@UAEPAXI@Z			; std::exception::`scalar deleting destructor'
PUBLIC	??0bad_alloc@std@@QAE@ABV01@@Z			; std::bad_alloc::bad_alloc
PUBLIC	??_Gbad_alloc@std@@UAEPAXI@Z			; std::bad_alloc::`scalar deleting destructor'
PUBLIC	??0bad_array_new_length@std@@QAE@XZ		; std::bad_array_new_length::bad_array_new_length
PUBLIC	??1bad_array_new_length@std@@UAE@XZ		; std::bad_array_new_length::~bad_array_new_length
PUBLIC	??0bad_array_new_length@std@@QAE@ABV01@@Z	; std::bad_array_new_length::bad_array_new_length
PUBLIC	??_Gbad_array_new_length@std@@UAEPAXI@Z		; std::bad_array_new_length::`scalar deleting destructor'
PUBLIC	?_Throw_bad_array_new_length@std@@YAXXZ		; std::_Throw_bad_array_new_length
PUBLIC	?_Xlen_string@std@@YAXXZ			; std::_Xlen_string
PUBLIC	??1?$basic_string@DU?$char_traits@D@std@@V?$allocator@D@2@@std@@QAE@XZ ; std::basic_string<char,std::char_traits<char>,std::allocator<char> >::~basic_string<char,std::char_traits<char>,std::allocator<char> >
PUBLIC	?assign@?$basic_string@DU?$char_traits@D@std@@V?$allocator@D@2@@std@@QAEAAV12@QBDI@Z ; std::basic_string<char,std::char_traits<char>,std::allocator<char> >::assign
PUBLIC	??$_Allocate_manually_vector_aligned@U_Default_allocate_traits@std@@@std@@YAPAXI@Z ; std::_Allocate_manually_vector_aligned<std::_Default_allocate_traits>
PUBLIC	??0CFileLoaderThread@@QAE@XZ			; CFileLoaderThread::CFileLoaderThread
PUBLIC	??1CFileLoaderThread@@QAE@XZ			; CFileLoaderThread::~CFileLoaderThread
PUBLIC	?Create@CFileLoaderThread@@QAEHPAX@Z		; CFileLoaderThread::Create
PUBLIC	?Request@CFileLoaderThread@@QAEXAAV?$basic_string@DU?$char_traits@D@std@@V?$allocator@D@2@@std@@@Z ; CFileLoaderThread::Request
PUBLIC	?Fetch@CFileLoaderThread@@QAE_NPAPAUSData@1@@Z	; CFileLoaderThread::Fetch
PUBLIC	?Shutdown@CFileLoaderThread@@QAEXXZ		; CFileLoaderThread::Shutdown
PUBLIC	?EntryPoint@CFileLoaderThread@@KGIPAX@Z		; CFileLoaderThread::EntryPoint
PUBLIC	?Run@CFileLoaderThread@@IAEIPAX@Z		; CFileLoaderThread::Run
PUBLIC	?Setup@CFileLoaderThread@@IAEIXZ		; CFileLoaderThread::Setup
PUBLIC	?Execute@CFileLoaderThread@@IAEIPAX@Z		; CFileLoaderThread::Execute
PUBLIC	?Destroy@CFileLoaderThread@@IAEXXZ		; CFileLoaderThread::Destroy
PUBLIC	?Process@CFileLoaderThread@@IAEXXZ		; CFileLoaderThread::Process
PUBLIC	??1?$deque@PAUSData@CFileLoaderThread@@V?$allocator@PAUSData@CFileLoaderThread@@@std@@@std@@QAE@XZ ; std::deque<CFileLoaderThread::SData *,std::allocator<CFileLoaderThread::SData *> >::~deque<CFileLoaderThread::SData *,std::allocator<CFileLoaderThread::SData *> >
PUBLIC	?push_back@?$deque@PAUSData@CFileLoaderThread@@V?$allocator@PAUSData@CFileLoaderThread@@@std@@@std@@QAEXABQAUSData@CFileLoaderThread@@@Z ; std::deque<CFileLoaderThread::SData *,std::allocator<CFileLoaderThread::SData *> >::push_back
PUBLIC	?_Xlen@?$deque@PAUSData@CFileLoaderThread@@V?$allocator@PAUSData@CFileLoaderThread@@@std@@@std@@ABEXXZ ; std::deque<CFileLoaderThread::SData *,std::allocator<CFileLoaderThread::SData *> >::_Xlen
PUBLIC	?_Growmap@?$deque@PAUSData@CFileLoaderThread@@V?$allocator@PAUSData@CFileLoaderThread@@@std@@@std@@AAEXI@Z ; std::deque<CFileLoaderThread::SData *,std::allocator<CFileLoaderThread::SData *> >::_Growmap
PUBLIC	?_Tidy@?$deque@PAUSData@CFileLoaderThread@@V?$allocator@PAUSData@CFileLoaderThread@@@std@@@std@@AAEXXZ ; std::deque<CFileLoaderThread::SData *,std::allocator<CFileLoaderThread::SData *> >::_Tidy
PUBLIC	??$stl_wipe@V?$deque@PAUSData@CFileLoaderThread@@V?$allocator@PAUSData@CFileLoaderThread@@@std@@@std@@@@YAXAAV?$deque@PAUSData@CFileLoaderThread@@V?$allocator@PAUSData@CFileLoaderThread@@@std@@@std@@@Z ; stl_wipe<std::deque<CFileLoaderThread::SData *,std::allocator<CFileLoaderThread::SData *> > >
PUBLIC	??$uninitialized_copy@PAPAPAUSData@CFileLoaderThread@@PAPAPAU12@@std@@YAPAPAPAUSData@CFileLoaderThread@@QAPAPAU12@0PAPAPAU12@@Z ; std::uninitialized_copy<CFileLoaderThread::SData * * *,CFileLoaderThread::SData * * *>
PUBLIC	??$_Uninitialized_value_construct_n_unchecked1@PAPAPAUSData@CFileLoaderThread@@I@std@@YAPAPAPAUSData@CFileLoaderThread@@PAPAPAU12@I@Z ; std::_Uninitialized_value_construct_n_unchecked1<CFileLoaderThread::SData * * *,unsigned int>
PUBLIC	??$_Zero_range@PAPAPAUSData@CFileLoaderThread@@@std@@YAPAPAPAUSData@CFileLoaderThread@@QAPAPAU12@0@Z ; std::_Zero_range<CFileLoaderThread::SData * * *>
PUBLIC	??$_Copy_memmove@PAPAPAUSData@CFileLoaderThread@@PAPAPAU12@@std@@YAPAPAPAUSData@CFileLoaderThread@@PAPAPAU12@00@Z ; std::_Copy_memmove<CFileLoaderThread::SData * * *,CFileLoaderThread::SData * * *>
PUBLIC	??_7exception@std@@6B@				; std::exception::`vftable'
PUBLIC	??_C@_0BC@EOODALEL@Unknown?5exception@		; `string'
PUBLIC	??_7bad_alloc@std@@6B@				; std::bad_alloc::`vftable'
PUBLIC	??_7bad_array_new_length@std@@6B@		; std::bad_array_new_length::`vftable'
PUBLIC	??_C@_0BF@KINCDENJ@bad?5array?5new?5length@	; `string'
PUBLIC	__TI3?AVbad_array_new_length@std@@
PUBLIC	__CTA3?AVbad_array_new_length@std@@
PUBLIC	??_R0?AVbad_array_new_length@std@@@8		; std::bad_array_new_length `RTTI Type Descriptor'
PUBLIC	__CT??_R0?AVbad_array_new_length@std@@@8??0bad_array_new_length@std@@QAE@ABV01@@Z12
PUBLIC	??_R0?AVbad_alloc@std@@@8			; std::bad_alloc `RTTI Type Descriptor'
PUBLIC	__CT??_R0?AVbad_alloc@std@@@8??0bad_alloc@std@@QAE@ABV01@@Z12
PUBLIC	??_R0?AVexception@std@@@8			; std::exception `RTTI Type Descriptor'
PUBLIC	__CT??_R0?AVexception@std@@@8??0exception@std@@QAE@ABV01@@Z12
PUBLIC	??_C@_0BA@JFNIOLAK@string?5too?5long@		; `string'
PUBLIC	??_R4exception@std@@6B@				; std::exception::`RTTI Complete Object Locator'
PUBLIC	??_R3exception@std@@8				; std::exception::`RTTI Class Hierarchy Descriptor'
PUBLIC	??_R2exception@std@@8				; std::exception::`RTTI Base Class Array'
PUBLIC	??_R1A@?0A@EA@exception@std@@8			; std::exception::`RTTI Base Class Descriptor at (0,-1,0,64)'
PUBLIC	??_R4bad_alloc@std@@6B@				; std::bad_alloc::`RTTI Complete Object Locator'
PUBLIC	??_R3bad_alloc@std@@8				; std::bad_alloc::`RTTI Class Hierarchy Descriptor'
PUBLIC	??_R2bad_alloc@std@@8				; std::bad_alloc::`RTTI Base Class Array'
PUBLIC	??_R1A@?0A@EA@bad_alloc@std@@8			; std::bad_alloc::`RTTI Base Class Descriptor at (0,-1,0,64)'
PUBLIC	??_R4bad_array_new_length@std@@6B@		; std::bad_array_new_length::`RTTI Complete Object Locator'
PUBLIC	??_R3bad_array_new_length@std@@8		; std::bad_array_new_length::`RTTI Class Hierarchy Descriptor'
PUBLIC	??_R2bad_array_new_length@std@@8		; std::bad_array_new_length::`RTTI Base Class Array'
PUBLIC	??_R1A@?0A@EA@bad_array_new_length@std@@8	; std::bad_array_new_length::`RTTI Base Class Descriptor at (0,-1,0,64)'
PUBLIC	?ms_singleton@?$CSingleton@VCEterPackManager@@@@0PAVCEterPackManager@@A ; CSingleton<CEterPackManager>::ms_singleton
PUBLIC	??_C@_0EP@NDKNAKHH@CFileLoaderThread?3?3Execute?3?5Tim@ ; `string'
PUBLIC	??_C@_0DD@FFGDMIEH@CFileLoaderThread?3?3Request?3?5Rel@ ; `string'
PUBLIC	??_C@_0BC@KBDMBKEH@deque?$DMT?$DO?5too?5long@	; `string'
EXTRN	??2@YAPAXI@Z:PROC				; operator new
EXTRN	??3@YAXPAXI@Z:PROC				; operator delete
EXTRN	??_U@YAPAXI@Z:PROC				; operator new[]
EXTRN	__invalid_parameter_noinfo_noreturn:PROC
EXTRN	__imp__CloseHandle@4:PROC
EXTRN	__imp__ReleaseSemaphore@12:PROC
EXTRN	__imp__WaitForSingleObject@8:PROC
EXTRN	__imp__Sleep@4:PROC
EXTRN	__imp__SetThreadPriority@8:PROC
EXTRN	__imp__CreateSemaphoreA@16:PROC
EXTRN	__beginthreadex:PROC
EXTRN	___std_exception_copy:PROC
EXTRN	___std_exception_destroy:PROC
EXTRN	??_Eexception@std@@UAEPAXI@Z:PROC		; std::exception::`vector deleting destructor'
EXTRN	??_Ebad_alloc@std@@UAEPAXI@Z:PROC		; std::bad_alloc::`vector deleting destructor'
EXTRN	??_Ebad_array_new_length@std@@UAEPAXI@Z:PROC	; std::bad_array_new_length::`vector deleting destructor'
EXTRN	?_Xlength_error@std@@YAXPBD@Z:PROC		; std::_Xlength_error
EXTRN	?TraceError@@YAXPBDZZ:PROC			; TraceError
EXTRN	??0CMappedFile@@QAE@XZ:PROC			; CMappedFile::CMappedFile
EXTRN	??1CMappedFile@@UAE@XZ:PROC			; CMappedFile::~CMappedFile
EXTRN	?Size@CMappedFile@@QAEKXZ:PROC			; CMappedFile::Size
EXTRN	?Get@CEterPackManager@@QAE_NAAVCMappedFile@@PBDPAPBX@Z:PROC ; CEterPackManager::Get
EXTRN	??0Mutex@@QAE@XZ:PROC				; Mutex::Mutex
EXTRN	??1Mutex@@QAE@XZ:PROC				; Mutex::~Mutex
EXTRN	?Lock@Mutex@@QAEXXZ:PROC			; Mutex::Lock
EXTRN	?Unlock@Mutex@@QAEXXZ:PROC			; Mutex::Unlock
EXTRN	@__security_check_cookie@4:PROC
EXTRN	__CxxThrowException@8:PROC
EXTRN	___CxxFrameHandler3:PROC
EXTRN	_memcpy:PROC
EXTRN	_memmove:PROC
EXTRN	_memset:PROC
EXTRN	??_7type_info@@6B@:QWORD			; type_info::`vftable'
EXTRN	?g_iLoadingDelayTime@@3HA:DWORD			; g_iLoadingDelayTime
EXTRN	___security_cookie:DWORD
;	COMDAT ?ms_singleton@?$CSingleton@VCEterPackManager@@@@0PAVCEterPackManager@@A
_BSS	SEGMENT
?ms_singleton@?$CSingleton@VCEterPackManager@@@@0PAVCEterPackManager@@A DD 01H DUP (?) ; CSingleton<CEterPackManager>::ms_singleton
_BSS	ENDS
;	COMDAT ??_C@_0BC@KBDMBKEH@deque?$DMT?$DO?5too?5long@
CONST	SEGMENT
??_C@_0BC@KBDMBKEH@deque?$DMT?$DO?5too?5long@ DB 'deque<T> too long', 00H ; `string'
CONST	ENDS
;	COMDAT ??_C@_0DD@FFGDMIEH@CFileLoaderThread?3?3Request?3?5Rel@
CONST	SEGMENT
??_C@_0DD@FFGDMIEH@CFileLoaderThread?3?3Request?3?5Rel@ DB 'CFileLoaderTh'
	DB	'read::Request: ReleaseSemaphore error', 00H	; `string'
CONST	ENDS
;	COMDAT ??_C@_0EP@NDKNAKHH@CFileLoaderThread?3?3Execute?3?5Tim@
CONST	SEGMENT
??_C@_0EP@NDKNAKHH@CFileLoaderThread?3?3Execute?3?5Tim@ DB 'CFileLoaderTh'
	DB	'read::Execute: Timeout occured while time-out interval is INI'
	DB	'FITE', 00H					; `string'
CONST	ENDS
;	COMDAT ??_R1A@?0A@EA@bad_array_new_length@std@@8
rdata$r	SEGMENT
??_R1A@?0A@EA@bad_array_new_length@std@@8 DD FLAT:??_R0?AVbad_array_new_length@std@@@8 ; std::bad_array_new_length::`RTTI Base Class Descriptor at (0,-1,0,64)'
	DD	02H
	DD	00H
	DD	0ffffffffH
	DD	00H
	DD	040H
	DD	FLAT:??_R3bad_array_new_length@std@@8
rdata$r	ENDS
;	COMDAT ??_R2bad_array_new_length@std@@8
rdata$r	SEGMENT
??_R2bad_array_new_length@std@@8 DD FLAT:??_R1A@?0A@EA@bad_array_new_length@std@@8 ; std::bad_array_new_length::`RTTI Base Class Array'
	DD	FLAT:??_R1A@?0A@EA@bad_alloc@std@@8
	DD	FLAT:??_R1A@?0A@EA@exception@std@@8
rdata$r	ENDS
;	COMDAT ??_R3bad_array_new_length@std@@8
rdata$r	SEGMENT
??_R3bad_array_new_length@std@@8 DD 00H			; std::bad_array_new_length::`RTTI Class Hierarchy Descriptor'
	DD	00H
	DD	03H
	DD	FLAT:??_R2bad_array_new_length@std@@8
rdata$r	ENDS
;	COMDAT ??_R4bad_array_new_length@std@@6B@
rdata$r	SEGMENT
??_R4bad_array_new_length@std@@6B@ DD 00H		; std::bad_array_new_length::`RTTI Complete Object Locator'
	DD	00H
	DD	00H
	DD	FLAT:??_R0?AVbad_array_new_length@std@@@8
	DD	FLAT:??_R3bad_array_new_length@std@@8
rdata$r	ENDS
;	COMDAT ??_R1A@?0A@EA@bad_alloc@std@@8
rdata$r	SEGMENT
??_R1A@?0A@EA@bad_alloc@std@@8 DD FLAT:??_R0?AVbad_alloc@std@@@8 ; std::bad_alloc::`RTTI Base Class Descriptor at (0,-1,0,64)'
	DD	01H
	DD	00H
	DD	0ffffffffH
	DD	00H
	DD	040H
	DD	FLAT:??_R3bad_alloc@std@@8
rdata$r	ENDS
;	COMDAT ??_R2bad_alloc@std@@8
rdata$r	SEGMENT
??_R2bad_alloc@std@@8 DD FLAT:??_R1A@?0A@EA@bad_alloc@std@@8 ; std::bad_alloc::`RTTI Base Class Array'
	DD	FLAT:??_R1A@?0A@EA@exception@std@@8
rdata$r	ENDS
;	COMDAT ??_R3bad_alloc@std@@8
rdata$r	SEGMENT
??_R3bad_alloc@std@@8 DD 00H				; std::bad_alloc::`RTTI Class Hierarchy Descriptor'
	DD	00H
	DD	02H
	DD	FLAT:??_R2bad_alloc@std@@8
rdata$r	ENDS
;	COMDAT ??_R4bad_alloc@std@@6B@
rdata$r	SEGMENT
??_R4bad_alloc@std@@6B@ DD 00H				; std::bad_alloc::`RTTI Complete Object Locator'
	DD	00H
	DD	00H
	DD	FLAT:??_R0?AVbad_alloc@std@@@8
	DD	FLAT:??_R3bad_alloc@std@@8
rdata$r	ENDS
;	COMDAT ??_R1A@?0A@EA@exception@std@@8
rdata$r	SEGMENT
??_R1A@?0A@EA@exception@std@@8 DD FLAT:??_R0?AVexception@std@@@8 ; std::exception::`RTTI Base Class Descriptor at (0,-1,0,64)'
	DD	00H
	DD	00H
	DD	0ffffffffH
	DD	00H
	DD	040H
	DD	FLAT:??_R3exception@std@@8
rdata$r	ENDS
;	COMDAT ??_R2exception@std@@8
rdata$r	SEGMENT
??_R2exception@std@@8 DD FLAT:??_R1A@?0A@EA@exception@std@@8 ; std::exception::`RTTI Base Class Array'
rdata$r	ENDS
;	COMDAT ??_R3exception@std@@8
rdata$r	SEGMENT
??_R3exception@std@@8 DD 00H				; std::exception::`RTTI Class Hierarchy Descriptor'
	DD	00H
	DD	01H
	DD	FLAT:??_R2exception@std@@8
rdata$r	ENDS
;	COMDAT ??_R4exception@std@@6B@
rdata$r	SEGMENT
??_R4exception@std@@6B@ DD 00H				; std::exception::`RTTI Complete Object Locator'
	DD	00H
	DD	00H
	DD	FLAT:??_R0?AVexception@std@@@8
	DD	FLAT:??_R3exception@std@@8
rdata$r	ENDS
;	COMDAT ??_C@_0BA@JFNIOLAK@string?5too?5long@
CONST	SEGMENT
??_C@_0BA@JFNIOLAK@string?5too?5long@ DB 'string too long', 00H ; `string'
CONST	ENDS
;	COMDAT __CT??_R0?AVexception@std@@@8??0exception@std@@QAE@ABV01@@Z12
xdata$x	SEGMENT
__CT??_R0?AVexception@std@@@8??0exception@std@@QAE@ABV01@@Z12 DD 00H
	DD	FLAT:??_R0?AVexception@std@@@8
	DD	00H
	DD	0ffffffffH
	ORG $+4
	DD	0cH
	DD	FLAT:??0exception@std@@QAE@ABV01@@Z
xdata$x	ENDS
;	COMDAT ??_R0?AVexception@std@@@8
data$r	SEGMENT
??_R0?AVexception@std@@@8 DD FLAT:??_7type_info@@6B@	; std::exception `RTTI Type Descriptor'
	DD	00H
	DB	'.?AVexception@std@@', 00H
data$r	ENDS
;	COMDAT __CT??_R0?AVbad_alloc@std@@@8??0bad_alloc@std@@QAE@ABV01@@Z12
xdata$x	SEGMENT
__CT??_R0?AVbad_alloc@std@@@8??0bad_alloc@std@@QAE@ABV01@@Z12 DD 010H
	DD	FLAT:??_R0?AVbad_alloc@std@@@8
	DD	00H
	DD	0ffffffffH
	ORG $+4
	DD	0cH
	DD	FLAT:??0bad_alloc@std@@QAE@ABV01@@Z
xdata$x	ENDS
;	COMDAT ??_R0?AVbad_alloc@std@@@8
data$r	SEGMENT
??_R0?AVbad_alloc@std@@@8 DD FLAT:??_7type_info@@6B@	; std::bad_alloc `RTTI Type Descriptor'
	DD	00H
	DB	'.?AVbad_alloc@std@@', 00H
data$r	ENDS
;	COMDAT __CT??_R0?AVbad_array_new_length@std@@@8??0bad_array_new_length@std@@QAE@ABV01@@Z12
xdata$x	SEGMENT
__CT??_R0?AVbad_array_new_length@std@@@8??0bad_array_new_length@std@@QAE@ABV01@@Z12 DD 00H
	DD	FLAT:??_R0?AVbad_array_new_length@std@@@8
	DD	00H
	DD	0ffffffffH
	ORG $+4
	DD	0cH
	DD	FLAT:??0bad_array_new_length@std@@QAE@ABV01@@Z
xdata$x	ENDS
;	COMDAT ??_R0?AVbad_array_new_length@std@@@8
data$r	SEGMENT
??_R0?AVbad_array_new_length@std@@@8 DD FLAT:??_7type_info@@6B@ ; std::bad_array_new_length `RTTI Type Descriptor'
	DD	00H
	DB	'.?AVbad_array_new_length@std@@', 00H
data$r	ENDS
;	COMDAT __CTA3?AVbad_array_new_length@std@@
xdata$x	SEGMENT
__CTA3?AVbad_array_new_length@std@@ DD 03H
	DD	FLAT:__CT??_R0?AVbad_array_new_length@std@@@8??0bad_array_new_length@std@@QAE@ABV01@@Z12
	DD	FLAT:__CT??_R0?AVbad_alloc@std@@@8??0bad_alloc@std@@QAE@ABV01@@Z12
	DD	FLAT:__CT??_R0?AVexception@std@@@8??0exception@std@@QAE@ABV01@@Z12
xdata$x	ENDS
;	COMDAT __TI3?AVbad_array_new_length@std@@
xdata$x	SEGMENT
__TI3?AVbad_array_new_length@std@@ DD 00H
	DD	FLAT:??1bad_array_new_length@std@@UAE@XZ
	DD	00H
	DD	FLAT:__CTA3?AVbad_array_new_length@std@@
xdata$x	ENDS
;	COMDAT ??_C@_0BF@KINCDENJ@bad?5array?5new?5length@
CONST	SEGMENT
??_C@_0BF@KINCDENJ@bad?5array?5new?5length@ DB 'bad array new length', 00H ; `string'
CONST	ENDS
;	COMDAT ??_7bad_array_new_length@std@@6B@
CONST	SEGMENT
??_7bad_array_new_length@std@@6B@ DD FLAT:??_R4bad_array_new_length@std@@6B@ ; std::bad_array_new_length::`vftable'
	DD	FLAT:??_Ebad_array_new_length@std@@UAEPAXI@Z
	DD	FLAT:?what@exception@std@@UBEPBDXZ
CONST	ENDS
;	COMDAT ??_7bad_alloc@std@@6B@
CONST	SEGMENT
??_7bad_alloc@std@@6B@ DD FLAT:??_R4bad_alloc@std@@6B@	; std::bad_alloc::`vftable'
	DD	FLAT:??_Ebad_alloc@std@@UAEPAXI@Z
	DD	FLAT:?what@exception@std@@UBEPBDXZ
CONST	ENDS
;	COMDAT ??_C@_0BC@EOODALEL@Unknown?5exception@
CONST	SEGMENT
??_C@_0BC@EOODALEL@Unknown?5exception@ DB 'Unknown exception', 00H ; `string'
CONST	ENDS
;	COMDAT ??_7exception@std@@6B@
CONST	SEGMENT
??_7exception@std@@6B@ DD FLAT:??_R4exception@std@@6B@	; std::exception::`vftable'
	DD	FLAT:??_Eexception@std@@UAEPAXI@Z
	DD	FLAT:?what@exception@std@@UBEPBDXZ
CONST	ENDS
;	COMDAT xdata$x
xdata$x	SEGMENT
__unwindtable$?Request@CFileLoaderThread@@QAEXAAV?$basic_string@DU?$char_traits@D@std@@V?$allocator@D@2@@std@@@Z DD 0ffffffffH
	DD	FLAT:__unwindfunclet$?Request@CFileLoaderThread@@QAEXAAV?$basic_string@DU?$char_traits@D@std@@V?$allocator@D@2@@std@@@Z$0
	DD	00H
	DD	FLAT:__unwindfunclet$?Request@CFileLoaderThread@@QAEXAAV?$basic_string@DU?$char_traits@D@std@@V?$allocator@D@2@@std@@@Z$1
__ehfuncinfo$?Request@CFileLoaderThread@@QAEXAAV?$basic_string@DU?$char_traits@D@std@@V?$allocator@D@2@@std@@@Z DD 019930522H
	DD	02H
	DD	FLAT:__unwindtable$?Request@CFileLoaderThread@@QAEXAAV?$basic_string@DU?$char_traits@D@std@@V?$allocator@D@2@@std@@@Z
	DD	2 DUP(00H)
	DD	2 DUP(00H)
	DD	00H
	DD	01H
xdata$x	ENDS
;	COMDAT xdata$x
xdata$x	SEGMENT
__unwindtable$??0CFileLoaderThread@@QAE@XZ DD 0ffffffffH
	DD	FLAT:__unwindfunclet$??0CFileLoaderThread@@QAE@XZ$0
	DD	00H
	DD	FLAT:__unwindfunclet$??0CFileLoaderThread@@QAE@XZ$1
	DD	01H
	DD	FLAT:__unwindfunclet$??0CFileLoaderThread@@QAE@XZ$2
__ehfuncinfo$??0CFileLoaderThread@@QAE@XZ DD 019930522H
	DD	03H
	DD	FLAT:__unwindtable$??0CFileLoaderThread@@QAE@XZ
	DD	2 DUP(00H)
	DD	2 DUP(00H)
	DD	00H
	DD	01H
xdata$x	ENDS
;	COMDAT xdata$x
xdata$x	SEGMENT
__unwindtable$??0SData@CFileLoaderThread@@QAE@XZ DD 0ffffffffH
	DD	FLAT:__unwindfunclet$??0SData@CFileLoaderThread@@QAE@XZ$0
__ehfuncinfo$??0SData@CFileLoaderThread@@QAE@XZ DD 019930522H
	DD	01H
	DD	FLAT:__unwindtable$??0SData@CFileLoaderThread@@QAE@XZ
	DD	2 DUP(00H)
	DD	2 DUP(00H)
	DD	00H
	DD	01H
xdata$x	ENDS
; Function compile flags: /Ogtp
; File C:\Program Files (x86)\Microsoft Visual Studio\2019\Professional\VC\Tools\MSVC\14.29.30133\include\xutility
;	COMDAT ??$_Copy_memmove@PAPAPAUSData@CFileLoaderThread@@PAPAPAU12@@std@@YAPAPAPAUSData@CFileLoaderThread@@PAPAPAU12@00@Z
_TEXT	SEGMENT
__First$ = 8						; size = 4
__Last$ = 12						; size = 4
__Dest$ = 16						; size = 4
??$_Copy_memmove@PAPAPAUSData@CFileLoaderThread@@PAPAPAU12@@std@@YAPAPAPAUSData@CFileLoaderThread@@PAPAPAU12@00@Z PROC ; std::_Copy_memmove<CFileLoaderThread::SData * * *,CFileLoaderThread::SData * * *>, COMDAT

; 4159 : _OutCtgIt _Copy_memmove(_CtgIt _First, _CtgIt _Last, _OutCtgIt _Dest) {

  00000	55		 push	 ebp
  00001	8b ec		 mov	 ebp, esp

; 4160 :     auto _FirstPtr              = _To_address(_First);
; 4161 :     auto _LastPtr               = _To_address(_Last);
; 4162 :     auto _DestPtr               = _To_address(_Dest);
; 4163 :     const char* const _First_ch = const_cast<const char*>(reinterpret_cast<const volatile char*>(_FirstPtr));
; 4164 :     const char* const _Last_ch  = const_cast<const char*>(reinterpret_cast<const volatile char*>(_LastPtr));
; 4165 :     char* const _Dest_ch        = const_cast<char*>(reinterpret_cast<const volatile char*>(_DestPtr));
; 4166 :     const auto _Count           = static_cast<size_t>(_Last_ch - _First_ch);

  00003	8b 45 08	 mov	 eax, DWORD PTR __First$[ebp]
  00006	56		 push	 esi

; 4167 :     _CSTD memmove(_Dest_ch, _First_ch, _Count);

  00007	8b 75 10	 mov	 esi, DWORD PTR __Dest$[ebp]
  0000a	57		 push	 edi
  0000b	8b 7d 0c	 mov	 edi, DWORD PTR __Last$[ebp]
  0000e	2b f8		 sub	 edi, eax
  00010	57		 push	 edi
  00011	50		 push	 eax
  00012	56		 push	 esi
  00013	e8 00 00 00 00	 call	 _memmove
  00018	83 c4 0c	 add	 esp, 12			; 0000000cH

; 4168 :     if constexpr (is_pointer_v<_OutCtgIt>) {
; 4169 :         return reinterpret_cast<_OutCtgIt>(_Dest_ch + _Count);

  0001b	8d 04 37	 lea	 eax, DWORD PTR [edi+esi]
  0001e	5f		 pop	 edi
  0001f	5e		 pop	 esi

; 4170 :     } else {
; 4171 :         return _Dest + (_LastPtr - _FirstPtr);
; 4172 :     }
; 4173 : }

  00020	5d		 pop	 ebp
  00021	c3		 ret	 0
??$_Copy_memmove@PAPAPAUSData@CFileLoaderThread@@PAPAPAU12@@std@@YAPAPAPAUSData@CFileLoaderThread@@PAPAPAU12@00@Z ENDP ; std::_Copy_memmove<CFileLoaderThread::SData * * *,CFileLoaderThread::SData * * *>
_TEXT	ENDS
; Function compile flags: /Ogtp
; File C:\Program Files (x86)\Microsoft Visual Studio\2019\Professional\VC\Tools\MSVC\14.29.30133\include\xmemory
;	COMDAT ??$_Zero_range@PAPAPAUSData@CFileLoaderThread@@@std@@YAPAPAPAUSData@CFileLoaderThread@@QAPAPAU12@0@Z
_TEXT	SEGMENT
__First$ = 8						; size = 4
__Last$ = 12						; size = 4
??$_Zero_range@PAPAPAUSData@CFileLoaderThread@@@std@@YAPAPAPAUSData@CFileLoaderThread@@QAPAPAU12@0@Z PROC ; std::_Zero_range<CFileLoaderThread::SData * * *>, COMDAT

; 1806 : _Ptr _Zero_range(const _Ptr _First, const _Ptr _Last) { // fill [_First, _Last) with zeroes

  00000	55		 push	 ebp
  00001	8b ec		 mov	 ebp, esp

; 1807 :     char* const _First_ch = reinterpret_cast<char*>(_To_address(_First));
; 1808 :     char* const _Last_ch  = reinterpret_cast<char*>(_To_address(_Last));
; 1809 :     _CSTD memset(_First_ch, 0, static_cast<size_t>(_Last_ch - _First_ch));

  00003	8b 55 08	 mov	 edx, DWORD PTR __First$[ebp]
  00006	8b 4d 0c	 mov	 ecx, DWORD PTR __Last$[ebp]
  00009	2b ca		 sub	 ecx, edx
  0000b	51		 push	 ecx
  0000c	6a 00		 push	 0
  0000e	52		 push	 edx
  0000f	e8 00 00 00 00	 call	 _memset

; 1810 :     return _Last;

  00014	8b 45 0c	 mov	 eax, DWORD PTR __Last$[ebp]
  00017	83 c4 0c	 add	 esp, 12			; 0000000cH

; 1811 : }

  0001a	5d		 pop	 ebp
  0001b	c3		 ret	 0
??$_Zero_range@PAPAPAUSData@CFileLoaderThread@@@std@@YAPAPAPAUSData@CFileLoaderThread@@QAPAPAU12@0@Z ENDP ; std::_Zero_range<CFileLoaderThread::SData * * *>
_TEXT	ENDS
; Function compile flags: /Ogtp
; File C:\Program Files (x86)\Microsoft Visual Studio\2019\Professional\VC\Tools\MSVC\14.29.30133\include\xmemory
;	COMDAT ??$_Uninitialized_value_construct_n_unchecked1@PAPAPAUSData@CFileLoaderThread@@I@std@@YAPAPAPAUSData@CFileLoaderThread@@PAPAPAU12@I@Z
_TEXT	SEGMENT
__UFirst$ = 8						; size = 4
__Count$ = 12						; size = 4
??$_Uninitialized_value_construct_n_unchecked1@PAPAPAUSData@CFileLoaderThread@@I@std@@YAPAPAPAUSData@CFileLoaderThread@@PAPAPAU12@I@Z PROC ; std::_Uninitialized_value_construct_n_unchecked1<CFileLoaderThread::SData * * *,unsigned int>, COMDAT

; 1838 : _NoThrowFwdIt _Uninitialized_value_construct_n_unchecked1(_NoThrowFwdIt _UFirst, _Diff _Count) {

  00000	55		 push	 ebp
  00001	8b ec		 mov	 ebp, esp

; 1839 :     // value-initialize all elements in [_UFirst, _UFirst + _Count_raw)
; 1840 :     _STL_INTERNAL_CHECK(_Count >= 0);
; 1841 :     if constexpr (_Use_memset_value_construct_v<_NoThrowFwdIt>) {
; 1842 :         return _Zero_range(_UFirst, _UFirst + _Count);

  00003	8b 4d 08	 mov	 ecx, DWORD PTR __UFirst$[ebp]
  00006	8b 45 0c	 mov	 eax, DWORD PTR __Count$[ebp]
  00009	8d 04 81	 lea	 eax, DWORD PTR [ecx+eax*4]
  0000c	89 45 0c	 mov	 DWORD PTR __Count$[ebp], eax
  0000f	89 4d 08	 mov	 DWORD PTR __UFirst$[ebp], ecx

; 1843 :     } else {
; 1844 :         _Uninitialized_backout<_NoThrowFwdIt> _Backout{_UFirst};
; 1845 :         for (; 0 < _Count; --_Count) {
; 1846 :             _Backout._Emplace_back();
; 1847 :         }
; 1848 : 
; 1849 :         return _Backout._Release();
; 1850 :     }
; 1851 : }

  00012	5d		 pop	 ebp

; 1839 :     // value-initialize all elements in [_UFirst, _UFirst + _Count_raw)
; 1840 :     _STL_INTERNAL_CHECK(_Count >= 0);
; 1841 :     if constexpr (_Use_memset_value_construct_v<_NoThrowFwdIt>) {
; 1842 :         return _Zero_range(_UFirst, _UFirst + _Count);

  00013	e9 00 00 00 00	 jmp	 ??$_Zero_range@PAPAPAUSData@CFileLoaderThread@@@std@@YAPAPAPAUSData@CFileLoaderThread@@QAPAPAU12@0@Z ; std::_Zero_range<CFileLoaderThread::SData * * *>
??$_Uninitialized_value_construct_n_unchecked1@PAPAPAUSData@CFileLoaderThread@@I@std@@YAPAPAPAUSData@CFileLoaderThread@@PAPAPAU12@I@Z ENDP ; std::_Uninitialized_value_construct_n_unchecked1<CFileLoaderThread::SData * * *,unsigned int>
_TEXT	ENDS
; Function compile flags: /Ogtp
; File C:\Program Files (x86)\Microsoft Visual Studio\2019\Professional\VC\Tools\MSVC\14.29.30133\include\xmemory
;	COMDAT ??$uninitialized_copy@PAPAPAUSData@CFileLoaderThread@@PAPAPAU12@@std@@YAPAPAPAUSData@CFileLoaderThread@@QAPAPAU12@0PAPAPAU12@@Z
_TEXT	SEGMENT
__First$ = 8						; size = 4
__Last$ = 12						; size = 4
__Dest$ = 16						; size = 4
??$uninitialized_copy@PAPAPAUSData@CFileLoaderThread@@PAPAPAU12@@std@@YAPAPAPAUSData@CFileLoaderThread@@QAPAPAU12@0PAPAPAU12@@Z PROC ; std::uninitialized_copy<CFileLoaderThread::SData * * *,CFileLoaderThread::SData * * *>, COMDAT

; 1700 : _NoThrowFwdIt uninitialized_copy(const _InIt _First, const _InIt _Last, _NoThrowFwdIt _Dest) {

  00000	55		 push	 ebp
  00001	8b ec		 mov	 ebp, esp

; 1701 :     // copy [_First, _Last) to raw [_Dest, ...)
; 1702 :     _Adl_verify_range(_First, _Last);
; 1703 :     auto _UFirst      = _Get_unwrapped(_First);
; 1704 :     const auto _ULast = _Get_unwrapped(_Last);
; 1705 :     auto _UDest       = _Get_unwrapped_n(_Dest, _Idl_distance<_InIt>(_UFirst, _ULast));
; 1706 :     _Seek_wrapped(_Dest, _Uninitialized_copy_unchecked(_UFirst, _ULast, _UDest));
; 1707 :     return _Dest;
; 1708 : }

  00003	5d		 pop	 ebp

; 1687 :             return _Copy_memmove(_First, _Last, _Dest);

  00004	e9 00 00 00 00	 jmp	 ??$_Copy_memmove@PAPAPAUSData@CFileLoaderThread@@PAPAPAU12@@std@@YAPAPAPAUSData@CFileLoaderThread@@PAPAPAU12@00@Z ; std::_Copy_memmove<CFileLoaderThread::SData * * *,CFileLoaderThread::SData * * *>
??$uninitialized_copy@PAPAPAUSData@CFileLoaderThread@@PAPAPAU12@@std@@YAPAPAPAUSData@CFileLoaderThread@@QAPAPAU12@0PAPAPAU12@@Z ENDP ; std::uninitialized_copy<CFileLoaderThread::SData * * *,CFileLoaderThread::SData * * *>
_TEXT	ENDS
; Function compile flags: /Ogtp
; File C:\Users\murat\Desktop\Siveps2-1-99-Project\source\client\Client\eterBase\Stl.h
; File C:\Program Files (x86)\Microsoft Visual Studio\2019\Professional\VC\Tools\MSVC\14.29.30133\include\deque
; File C:\Users\murat\Desktop\Siveps2-1-99-Project\source\client\Client\eterBase\Stl.h
; File C:\Program Files (x86)\Microsoft Visual Studio\2019\Professional\VC\Tools\MSVC\14.29.30133\include\deque
; File C:\Users\murat\Desktop\Siveps2-1-99-Project\source\client\Client\eterBase\Stl.h
; File C:\Program Files (x86)\Microsoft Visual Studio\2019\Professional\VC\Tools\MSVC\14.29.30133\include\xmemory
; File C:\Program Files (x86)\Microsoft Visual Studio\2019\Professional\VC\Tools\MSVC\14.29.30133\include\deque
; File C:\Users\murat\Desktop\Siveps2-1-99-Project\source\client\Client\eterBase\Stl.h
; File C:\Program Files (x86)\Microsoft Visual Studio\2019\Professional\VC\Tools\MSVC\14.29.30133\include\xmemory
; File C:\Program Files (x86)\Microsoft Visual Studio\2019\Professional\VC\Tools\MSVC\14.29.30133\include\deque
; File C:\Users\murat\Desktop\Siveps2-1-99-Project\source\client\Client\eterBase\Stl.h
; File C:\Program Files (x86)\Microsoft Visual Studio\2019\Professional\VC\Tools\MSVC\14.29.30133\include\deque
; File C:\Users\murat\Desktop\Siveps2-1-99-Project\source\client\Client\eterBase\Stl.h
; File C:\Program Files (x86)\Microsoft Visual Studio\2019\Professional\VC\Tools\MSVC\14.29.30133\include\xstring
; File C:\Program Files (x86)\Microsoft Visual Studio\2019\Professional\VC\Tools\MSVC\14.29.30133\include\xmemory
; File C:\Program Files (x86)\Microsoft Visual Studio\2019\Professional\VC\Tools\MSVC\14.29.30133\include\xstring
; File C:\Program Files (x86)\Microsoft Visual Studio\2019\Professional\VC\Tools\MSVC\14.29.30133\include\xmemory
; File C:\Program Files (x86)\Microsoft Visual Studio\2019\Professional\VC\Tools\MSVC\14.29.30133\include\xstring
; File C:\Program Files (x86)\Microsoft Visual Studio\2019\Professional\VC\Tools\MSVC\14.29.30133\include\xmemory
; File C:\Program Files (x86)\Microsoft Visual Studio\2019\Professional\VC\Tools\MSVC\14.29.30133\include\deque
; File C:\Users\murat\Desktop\Siveps2-1-99-Project\source\client\Client\eterBase\Stl.h
; File C:\Program Files (x86)\Microsoft Visual Studio\2019\Professional\VC\Tools\MSVC\14.29.30133\include\deque
; File C:\Users\murat\Desktop\Siveps2-1-99-Project\source\client\Client\eterBase\Stl.h
; File C:\Program Files (x86)\Microsoft Visual Studio\2019\Professional\VC\Tools\MSVC\14.29.30133\include\deque
; File C:\Users\murat\Desktop\Siveps2-1-99-Project\source\client\Client\eterBase\Stl.h
; File C:\Program Files (x86)\Microsoft Visual Studio\2019\Professional\VC\Tools\MSVC\14.29.30133\include\deque
; File C:\Users\murat\Desktop\Siveps2-1-99-Project\source\client\Client\eterBase\Stl.h
; File C:\Program Files (x86)\Microsoft Visual Studio\2019\Professional\VC\Tools\MSVC\14.29.30133\include\xmemory
; File C:\Users\murat\Desktop\Siveps2-1-99-Project\source\client\Client\eterBase\Stl.h
;	COMDAT ??$stl_wipe@V?$deque@PAUSData@CFileLoaderThread@@V?$allocator@PAUSData@CFileLoaderThread@@@std@@@std@@@@YAXAAV?$deque@PAUSData@CFileLoaderThread@@V?$allocator@PAUSData@CFileLoaderThread@@@std@@@std@@@Z
_TEXT	SEGMENT
tv568 = -8						; size = 4
_i$1$sroa$261$1$ = -4					; size = 4
_container$ = 8						; size = 4
??$stl_wipe@V?$deque@PAUSData@CFileLoaderThread@@V?$allocator@PAUSData@CFileLoaderThread@@@std@@@std@@@@YAXAAV?$deque@PAUSData@CFileLoaderThread@@V?$allocator@PAUSData@CFileLoaderThread@@@std@@@std@@@Z PROC ; stl_wipe<std::deque<CFileLoaderThread::SData *,std::allocator<CFileLoaderThread::SData *> > >, COMDAT

; 94   : {

  00000	55		 push	 ebp
  00001	8b ec		 mov	 ebp, esp
; File C:\Program Files (x86)\Microsoft Visual Studio\2019\Professional\VC\Tools\MSVC\14.29.30133\include\deque

; 256  :     _Deque_const_iterator(_Size_type _Off, const _Container_base12* _Pdeque) noexcept : _Myoff(_Off) {

  00003	8b 4d 08	 mov	 ecx, DWORD PTR _container$[ebp]
; File C:\Users\murat\Desktop\Siveps2-1-99-Project\source\client\Client\eterBase\Stl.h

; 94   : {

  00006	83 ec 08	 sub	 esp, 8
; File C:\Program Files (x86)\Microsoft Visual Studio\2019\Professional\VC\Tools\MSVC\14.29.30133\include\deque

; 256  :     _Deque_const_iterator(_Size_type _Off, const _Container_base12* _Pdeque) noexcept : _Myoff(_Off) {

  00009	8b 51 0c	 mov	 edx, DWORD PTR [ecx+12]
; File C:\Users\murat\Desktop\Siveps2-1-99-Project\source\client\Client\eterBase\Stl.h

; 94   : {

  0000c	53		 push	 ebx
  0000d	56		 push	 esi
  0000e	57		 push	 edi
; File C:\Program Files (x86)\Microsoft Visual Studio\2019\Professional\VC\Tools\MSVC\14.29.30133\include\xmemory

; 1155 :             _Myproxy = _Parent->_Myproxy;

  0000f	8b 39		 mov	 edi, DWORD PTR [ecx]
$LN111@stl_wipe:
; File C:\Program Files (x86)\Microsoft Visual Studio\2019\Professional\VC\Tools\MSVC\14.29.30133\include\deque

; 904  :         return iterator(_Myoff() + _Mysize(), _STD addressof(_Get_data()));

  00011	8b 41 10	 mov	 eax, DWORD PTR [ecx+16]
  00014	03 41 0c	 add	 eax, DWORD PTR [ecx+12]
  00017	89 55 fc	 mov	 DWORD PTR _i$1$sroa$261$1$[ebp], edx

; 351  :         return this->_Myoff == _Right._Myoff;

  0001a	3b d0		 cmp	 edx, eax
; File C:\Users\murat\Desktop\Siveps2-1-99-Project\source\client\Client\eterBase\Stl.h

; 95   : 	for (TContainer::iterator i = container.begin(); i != container.end(); ++i)

  0001c	0f 84 aa 00 00
	00		 je	 $LN3@stl_wipe
; File C:\Program Files (x86)\Microsoft Visual Studio\2019\Professional\VC\Tools\MSVC\14.29.30133\include\xmemory

; 1163 :         return _Myproxy ? _Myproxy->_Mycont : nullptr;

  00022	85 ff		 test	 edi, edi
  00024	74 04		 je	 SHORT $LN50@stl_wipe
  00026	8b 07		 mov	 eax, DWORD PTR [edi]
  00028	eb 02		 jmp	 SHORT $LN51@stl_wipe
$LN50@stl_wipe:
  0002a	33 c0		 xor	 eax, eax
$LN51@stl_wipe:
; File C:\Program Files (x86)\Microsoft Visual Studio\2019\Professional\VC\Tools\MSVC\14.29.30133\include\deque

; 565  :         return (_Off / _Block_size) & (_Mapsize - 1);

  0002c	8b 70 08	 mov	 esi, DWORD PTR [eax+8]
  0002f	8b ca		 mov	 ecx, edx
; File C:\Users\murat\Desktop\Siveps2-1-99-Project\source\client\Client\eterBase\Stl.h

; 97   : 		delete *i;

  00031	8b 40 04	 mov	 eax, DWORD PTR [eax+4]
; File C:\Program Files (x86)\Microsoft Visual Studio\2019\Professional\VC\Tools\MSVC\14.29.30133\include\deque

; 565  :         return (_Off / _Block_size) & (_Mapsize - 1);

  00034	4e		 dec	 esi
  00035	c1 e9 02	 shr	 ecx, 2

; 269  :         _Size_type _Off   = _Myoff % _Block_size;

  00038	8b da		 mov	 ebx, edx

; 565  :         return (_Off / _Block_size) & (_Mapsize - 1);

  0003a	23 f1		 and	 esi, ecx
  0003c	89 4d f8	 mov	 DWORD PTR tv568[ebp], ecx

; 269  :         _Size_type _Off   = _Myoff % _Block_size;

  0003f	83 e3 03	 and	 ebx, 3
; File C:\Users\murat\Desktop\Siveps2-1-99-Project\source\client\Client\eterBase\Stl.h

; 97   : 		delete *i;

  00042	8b 34 b0	 mov	 esi, DWORD PTR [eax+esi*4]
  00045	8b 34 9e	 mov	 esi, DWORD PTR [esi+ebx*4]
  00048	85 f6		 test	 esi, esi
  0004a	74 59		 je	 SHORT $LN55@stl_wipe
  0004c	8d 4e 18	 lea	 ecx, DWORD PTR [esi+24]
  0004f	e8 00 00 00 00	 call	 ??1CMappedFile@@UAE@XZ	; CMappedFile::~CMappedFile
; File C:\Program Files (x86)\Microsoft Visual Studio\2019\Professional\VC\Tools\MSVC\14.29.30133\include\xstring

; 2319 :         return _BUF_SIZE <= _Myres;

  00054	8b 4e 14	 mov	 ecx, DWORD PTR [esi+20]
  00057	83 f9 10	 cmp	 ecx, 16			; 00000010H

; 4618 :         if (_Mypair._Myval2._Large_string_engaged()) {

  0005a	72 27		 jb	 SHORT $LN72@stl_wipe
; File C:\Program Files (x86)\Microsoft Visual Studio\2019\Professional\VC\Tools\MSVC\14.29.30133\include\xmemory

; 835  :         _Deallocate<_New_alignof<_Ty>>(_Ptr, sizeof(_Ty) * _Count);

  0005c	8b 06		 mov	 eax, DWORD PTR [esi]
; File C:\Program Files (x86)\Microsoft Visual Studio\2019\Professional\VC\Tools\MSVC\14.29.30133\include\xstring

; 4622 :             _Al.deallocate(_Ptr, _Mypair._Myval2._Myres + 1);

  0005e	41		 inc	 ecx
; File C:\Program Files (x86)\Microsoft Visual Studio\2019\Professional\VC\Tools\MSVC\14.29.30133\include\xmemory

; 260  :         if (_Bytes >= _Big_allocation_threshold) { // boost the alignment of big allocations to help autovectorization

  0005f	81 f9 00 10 00
	00		 cmp	 ecx, 4096		; 00001000H
  00065	72 12		 jb	 SHORT $LN82@stl_wipe

; 158  :     const uintptr_t _Ptr_container   = _Ptr_user[-1];

  00067	8b 50 fc	 mov	 edx, DWORD PTR [eax-4]
  0006a	83 c1 23	 add	 ecx, 35			; 00000023H

; 159  : 
; 160  :     // If the following asserts, it likely means that we are performing
; 161  :     // an aligned delete on memory coming from an unaligned allocation.
; 162  :     _STL_ASSERT(_Ptr_user[-2] == _Big_allocation_sentinel, "invalid argument");
; 163  : 
; 164  :     // Extra paranoia on aligned allocation/deallocation; ensure _Ptr_container is
; 165  :     // in range [_Min_back_shift, _Non_user_size]
; 166  : #ifdef _DEBUG
; 167  :     constexpr uintptr_t _Min_back_shift = 2 * sizeof(void*);
; 168  : #else // ^^^ _DEBUG ^^^ // vvv !_DEBUG vvv
; 169  :     constexpr uintptr_t _Min_back_shift = sizeof(void*);
; 170  : #endif // _DEBUG
; 171  :     const uintptr_t _Back_shift = reinterpret_cast<uintptr_t>(_Ptr) - _Ptr_container;

  0006d	2b c2		 sub	 eax, edx

; 172  :     _STL_VERIFY(_Back_shift >= _Min_back_shift && _Back_shift <= _Non_user_size, "invalid argument");

  0006f	83 c0 fc	 add	 eax, -4			; fffffffcH
  00072	83 f8 1f	 cmp	 eax, 31			; 0000001fH
  00075	77 61		 ja	 SHORT $LN79@stl_wipe

; 173  :     _Ptr = reinterpret_cast<void*>(_Ptr_container);

  00077	8b c2		 mov	 eax, edx
$LN82@stl_wipe:

; 264  :         ::operator delete(_Ptr, _Bytes);

  00079	51		 push	 ecx
  0007a	50		 push	 eax
  0007b	e8 00 00 00 00	 call	 ??3@YAXPAXI@Z		; operator delete
  00080	83 c4 08	 add	 esp, 8
$LN72@stl_wipe:
  00083	68 64 01 00 00	 push	 356			; 00000164H
  00088	56		 push	 esi
; File C:\Program Files (x86)\Microsoft Visual Studio\2019\Professional\VC\Tools\MSVC\14.29.30133\include\xstring

; 4633 :             _Mypair._Myval2._Mysize = 0;

  00089	c7 46 10 00 00
	00 00		 mov	 DWORD PTR [esi+16], 0

; 4634 :             _Mypair._Myval2._Myres  = _BUF_SIZE - 1;

  00090	c7 46 14 0f 00
	00 00		 mov	 DWORD PTR [esi+20], 15	; 0000000fH

; 4635 :             // the _Traits::assign is last so the codegen doesn't think the char write can alias this
; 4636 :             _Traits::assign(_Mypair._Myval2._Bx._Buf[0], _Elem());

  00097	c6 06 00	 mov	 BYTE PTR [esi], 0
  0009a	e8 00 00 00 00	 call	 ??3@YAXPAXI@Z		; operator delete
  0009f	8b 55 fc	 mov	 edx, DWORD PTR _i$1$sroa$261$1$[ebp]
  000a2	83 c4 08	 add	 esp, 8
$LN55@stl_wipe:
; File C:\Program Files (x86)\Microsoft Visual Studio\2019\Professional\VC\Tools\MSVC\14.29.30133\include\xmemory

; 1163 :         return _Myproxy ? _Myproxy->_Mycont : nullptr;

  000a5	85 ff		 test	 edi, edi
  000a7	74 04		 je	 SHORT $LN96@stl_wipe
  000a9	8b 07		 mov	 eax, DWORD PTR [edi]
  000ab	eb 02		 jmp	 SHORT $LN97@stl_wipe
$LN96@stl_wipe:
  000ad	33 c0		 xor	 eax, eax
$LN97@stl_wipe:
; File C:\Program Files (x86)\Microsoft Visual Studio\2019\Professional\VC\Tools\MSVC\14.29.30133\include\deque

; 565  :         return (_Off / _Block_size) & (_Mapsize - 1);

  000af	8b 48 08	 mov	 ecx, DWORD PTR [eax+8]
; File C:\Users\murat\Desktop\Siveps2-1-99-Project\source\client\Client\eterBase\Stl.h

; 98   : 		*i = NULL;

  000b2	8b 40 04	 mov	 eax, DWORD PTR [eax+4]
; File C:\Program Files (x86)\Microsoft Visual Studio\2019\Professional\VC\Tools\MSVC\14.29.30133\include\deque

; 565  :         return (_Off / _Block_size) & (_Mapsize - 1);

  000b5	49		 dec	 ecx
  000b6	23 4d f8	 and	 ecx, DWORD PTR tv568[ebp]

; 284  :         ++_Myoff;

  000b9	42		 inc	 edx
; File C:\Users\murat\Desktop\Siveps2-1-99-Project\source\client\Client\eterBase\Stl.h

; 98   : 		*i = NULL;

  000ba	8b 04 88	 mov	 eax, DWORD PTR [eax+ecx*4]
; File C:\Program Files (x86)\Microsoft Visual Studio\2019\Professional\VC\Tools\MSVC\14.29.30133\include\deque

; 284  :         ++_Myoff;

  000bd	8b 4d 08	 mov	 ecx, DWORD PTR _container$[ebp]
; File C:\Users\murat\Desktop\Siveps2-1-99-Project\source\client\Client\eterBase\Stl.h

; 98   : 		*i = NULL;

  000c0	c7 04 98 00 00
	00 00		 mov	 DWORD PTR [eax+ebx*4], 0
; File C:\Program Files (x86)\Microsoft Visual Studio\2019\Professional\VC\Tools\MSVC\14.29.30133\include\deque

; 284  :         ++_Myoff;

  000c7	e9 45 ff ff ff	 jmp	 $LN111@stl_wipe
$LN3@stl_wipe:

; 1339 :         _Tidy();

  000cc	e8 00 00 00 00	 call	 ?_Tidy@?$deque@PAUSData@CFileLoaderThread@@V?$allocator@PAUSData@CFileLoaderThread@@@std@@@std@@AAEXXZ ; std::deque<CFileLoaderThread::SData *,std::allocator<CFileLoaderThread::SData *> >::_Tidy
  000d1	5f		 pop	 edi
  000d2	5e		 pop	 esi
  000d3	5b		 pop	 ebx
; File C:\Users\murat\Desktop\Siveps2-1-99-Project\source\client\Client\eterBase\Stl.h

; 102  : }

  000d4	8b e5		 mov	 esp, ebp
  000d6	5d		 pop	 ebp
  000d7	c3		 ret	 0
$LN79@stl_wipe:
; File C:\Program Files (x86)\Microsoft Visual Studio\2019\Professional\VC\Tools\MSVC\14.29.30133\include\xmemory

; 172  :     _STL_VERIFY(_Back_shift >= _Min_back_shift && _Back_shift <= _Non_user_size, "invalid argument");

  000d8	e8 00 00 00 00	 call	 __invalid_parameter_noinfo_noreturn
$LN110@stl_wipe:
  000dd	cc		 int	 3
??$stl_wipe@V?$deque@PAUSData@CFileLoaderThread@@V?$allocator@PAUSData@CFileLoaderThread@@@std@@@std@@@@YAXAAV?$deque@PAUSData@CFileLoaderThread@@V?$allocator@PAUSData@CFileLoaderThread@@@std@@@std@@@Z ENDP ; stl_wipe<std::deque<CFileLoaderThread::SData *,std::allocator<CFileLoaderThread::SData *> > >
_TEXT	ENDS
; Function compile flags: /Ogtp
; File C:\Program Files (x86)\Microsoft Visual Studio\2019\Professional\VC\Tools\MSVC\14.29.30133\include\deque
; File C:\Program Files (x86)\Microsoft Visual Studio\2019\Professional\VC\Tools\MSVC\14.29.30133\include\xmemory
; File C:\Program Files (x86)\Microsoft Visual Studio\2019\Professional\VC\Tools\MSVC\14.29.30133\include\deque
; File C:\Program Files (x86)\Microsoft Visual Studio\2019\Professional\VC\Tools\MSVC\14.29.30133\include\xmemory
; File C:\Program Files (x86)\Microsoft Visual Studio\2019\Professional\VC\Tools\MSVC\14.29.30133\include\deque
; File C:\Program Files (x86)\Microsoft Visual Studio\2019\Professional\VC\Tools\MSVC\14.29.30133\include\xmemory
; File C:\Program Files (x86)\Microsoft Visual Studio\2019\Professional\VC\Tools\MSVC\14.29.30133\include\deque
;	COMDAT ?_Tidy@?$deque@PAUSData@CFileLoaderThread@@V?$allocator@PAUSData@CFileLoaderThread@@@std@@@std@@AAEXXZ
_TEXT	SEGMENT
?_Tidy@?$deque@PAUSData@CFileLoaderThread@@V?$allocator@PAUSData@CFileLoaderThread@@@std@@@std@@AAEXXZ PROC ; std::deque<CFileLoaderThread::SData *,std::allocator<CFileLoaderThread::SData *> >::_Tidy, COMDAT
; _this$ = ecx

; 1478 :     void _Tidy() noexcept { // free all storage

  00000	57		 push	 edi
  00001	8b f9		 mov	 edi, ecx

; 1009 :         return _Mysize() == 0;

  00003	8b 4f 10	 mov	 ecx, DWORD PTR [edi+16]
  00006	85 c9		 test	 ecx, ecx

; 1479 :         _Orphan_all();
; 1480 : 
; 1481 :         _Alpty _Almap(_Getal());
; 1482 :         while (!empty()) {

  00008	74 15		 je	 SHORT $LN60@Tidy
  0000a	66 0f 1f 44 00
	00		 npad	 6
$LL2@Tidy:

; 1153 :         if (--_Mysize() == 0) {

  00010	8d 41 ff	 lea	 eax, DWORD PTR [ecx-1]
  00013	89 47 10	 mov	 DWORD PTR [edi+16], eax
  00016	8b c8		 mov	 ecx, eax
  00018	85 c0		 test	 eax, eax
  0001a	75 f4		 jne	 SHORT $LL2@Tidy

; 1154 :             _Myoff() = 0;

  0001c	89 47 0c	 mov	 DWORD PTR [edi+12], eax
$LN60@Tidy:
  0001f	56		 push	 esi

; 1486 :         for (size_type _Block = _Mapsize(); 0 < _Block;) { // free storage for a block and destroy pointer

  00020	8b 77 08	 mov	 esi, DWORD PTR [edi+8]
  00023	85 f6		 test	 esi, esi
  00025	74 1a		 je	 SHORT $LN5@Tidy
$LL4@Tidy:

; 1487 :             if (_Map()[--_Block]) { // free block and destroy its pointer

  00027	8b 47 04	 mov	 eax, DWORD PTR [edi+4]
  0002a	4e		 dec	 esi
  0002b	8b 04 b0	 mov	 eax, DWORD PTR [eax+esi*4]
  0002e	85 c0		 test	 eax, eax
  00030	74 0b		 je	 SHORT $LN23@Tidy
; File C:\Program Files (x86)\Microsoft Visual Studio\2019\Professional\VC\Tools\MSVC\14.29.30133\include\xmemory

; 264  :         ::operator delete(_Ptr, _Bytes);

  00032	6a 10		 push	 16			; 00000010H
  00034	50		 push	 eax
  00035	e8 00 00 00 00	 call	 ??3@YAXPAXI@Z		; operator delete
  0003a	83 c4 08	 add	 esp, 8
$LN23@Tidy:
; File C:\Program Files (x86)\Microsoft Visual Studio\2019\Professional\VC\Tools\MSVC\14.29.30133\include\deque

; 1486 :         for (size_type _Block = _Mapsize(); 0 < _Block;) { // free storage for a block and destroy pointer

  0003d	85 f6		 test	 esi, esi
  0003f	75 e6		 jne	 SHORT $LL4@Tidy
$LN5@Tidy:

; 1488 :                 _Getal().deallocate(_Map()[_Block], _Block_size);
; 1489 :                 _Destroy_in_place(_Map()[_Block]);
; 1490 :             }
; 1491 :         }
; 1492 : 
; 1493 :         if (_Map() != _Mapptr()) {

  00041	8b 47 04	 mov	 eax, DWORD PTR [edi+4]
  00044	5e		 pop	 esi
  00045	85 c0		 test	 eax, eax
  00047	74 2a		 je	 SHORT $LN41@Tidy
; File C:\Program Files (x86)\Microsoft Visual Studio\2019\Professional\VC\Tools\MSVC\14.29.30133\include\xmemory

; 835  :         _Deallocate<_New_alignof<_Ty>>(_Ptr, sizeof(_Ty) * _Count);

  00049	8b 4f 08	 mov	 ecx, DWORD PTR [edi+8]
  0004c	c1 e1 02	 shl	 ecx, 2

; 260  :         if (_Bytes >= _Big_allocation_threshold) { // boost the alignment of big allocations to help autovectorization

  0004f	81 f9 00 10 00
	00		 cmp	 ecx, 4096		; 00001000H
  00055	72 12		 jb	 SHORT $LN51@Tidy

; 158  :     const uintptr_t _Ptr_container   = _Ptr_user[-1];

  00057	8b 50 fc	 mov	 edx, DWORD PTR [eax-4]
  0005a	83 c1 23	 add	 ecx, 35			; 00000023H

; 159  : 
; 160  :     // If the following asserts, it likely means that we are performing
; 161  :     // an aligned delete on memory coming from an unaligned allocation.
; 162  :     _STL_ASSERT(_Ptr_user[-2] == _Big_allocation_sentinel, "invalid argument");
; 163  : 
; 164  :     // Extra paranoia on aligned allocation/deallocation; ensure _Ptr_container is
; 165  :     // in range [_Min_back_shift, _Non_user_size]
; 166  : #ifdef _DEBUG
; 167  :     constexpr uintptr_t _Min_back_shift = 2 * sizeof(void*);
; 168  : #else // ^^^ _DEBUG ^^^ // vvv !_DEBUG vvv
; 169  :     constexpr uintptr_t _Min_back_shift = sizeof(void*);
; 170  : #endif // _DEBUG
; 171  :     const uintptr_t _Back_shift = reinterpret_cast<uintptr_t>(_Ptr) - _Ptr_container;

  0005d	2b c2		 sub	 eax, edx

; 172  :     _STL_VERIFY(_Back_shift >= _Min_back_shift && _Back_shift <= _Non_user_size, "invalid argument");

  0005f	83 c0 fc	 add	 eax, -4			; fffffffcH
  00062	83 f8 1f	 cmp	 eax, 31			; 0000001fH
  00065	77 1c		 ja	 SHORT $LN48@Tidy

; 173  :     _Ptr = reinterpret_cast<void*>(_Ptr_container);

  00067	8b c2		 mov	 eax, edx
$LN51@Tidy:

; 264  :         ::operator delete(_Ptr, _Bytes);

  00069	51		 push	 ecx
  0006a	50		 push	 eax
  0006b	e8 00 00 00 00	 call	 ??3@YAXPAXI@Z		; operator delete
  00070	83 c4 08	 add	 esp, 8
$LN41@Tidy:
; File C:\Program Files (x86)\Microsoft Visual Studio\2019\Professional\VC\Tools\MSVC\14.29.30133\include\deque

; 1497 :         _Mapsize() = 0;

  00073	c7 47 08 00 00
	00 00		 mov	 DWORD PTR [edi+8], 0

; 1498 :         _Map()     = _Mapptr();

  0007a	c7 47 04 00 00
	00 00		 mov	 DWORD PTR [edi+4], 0
  00081	5f		 pop	 edi

; 1499 :     }

  00082	c3		 ret	 0
$LN48@Tidy:
; File C:\Program Files (x86)\Microsoft Visual Studio\2019\Professional\VC\Tools\MSVC\14.29.30133\include\xmemory

; 172  :     _STL_VERIFY(_Back_shift >= _Min_back_shift && _Back_shift <= _Non_user_size, "invalid argument");

  00083	e8 00 00 00 00	 call	 __invalid_parameter_noinfo_noreturn
$LN62@Tidy:
  00088	cc		 int	 3
?_Tidy@?$deque@PAUSData@CFileLoaderThread@@V?$allocator@PAUSData@CFileLoaderThread@@@std@@@std@@AAEXXZ ENDP ; std::deque<CFileLoaderThread::SData *,std::allocator<CFileLoaderThread::SData *> >::_Tidy
_TEXT	ENDS
; Function compile flags: /Ogtp
; File C:\Program Files (x86)\Microsoft Visual Studio\2019\Professional\VC\Tools\MSVC\14.29.30133\include\deque
; File C:\Program Files (x86)\Microsoft Visual Studio\2019\Professional\VC\Tools\MSVC\14.29.30133\include\xmemory
; File C:\Program Files (x86)\Microsoft Visual Studio\2019\Professional\VC\Tools\MSVC\14.29.30133\include\deque
; File C:\Program Files (x86)\Microsoft Visual Studio\2019\Professional\VC\Tools\MSVC\14.29.30133\include\xmemory
; File C:\Program Files (x86)\Microsoft Visual Studio\2019\Professional\VC\Tools\MSVC\14.29.30133\include\deque
; File C:\Program Files (x86)\Microsoft Visual Studio\2019\Professional\VC\Tools\MSVC\14.29.30133\include\xmemory
; File C:\Program Files (x86)\Microsoft Visual Studio\2019\Professional\VC\Tools\MSVC\14.29.30133\include\deque
;	COMDAT ?_Growmap@?$deque@PAUSData@CFileLoaderThread@@V?$allocator@PAUSData@CFileLoaderThread@@@std@@@std@@AAEXI@Z
_TEXT	SEGMENT
tv483 = -4						; size = 4
$T1 = 8							; size = 4
__Count$ = 8						; size = 4
?_Growmap@?$deque@PAUSData@CFileLoaderThread@@V?$allocator@PAUSData@CFileLoaderThread@@@std@@@std@@AAEXI@Z PROC ; std::deque<CFileLoaderThread::SData *,std::allocator<CFileLoaderThread::SData *> >::_Growmap, COMDAT
; _this$ = ecx

; 1439 :     void _Growmap(size_type _Count) { // grow map by at least _Count pointers, _Mapsize() a power of 2

  00000	55		 push	 ebp
  00001	8b ec		 mov	 ebp, esp
  00003	51		 push	 ecx
  00004	53		 push	 ebx

; 1440 :         static_assert(1 < _Minimum_map_size, "The _Xlen() test should always be performed.");
; 1441 : 
; 1442 :         _Alpty _Almap(_Getal());
; 1443 :         size_type _Newsize = 0 < _Mapsize() ? _Mapsize() : 1;

  00005	8b 5d 08	 mov	 ebx, DWORD PTR __Count$[ebp]
  00008	b8 01 00 00 00	 mov	 eax, 1
  0000d	56		 push	 esi
  0000e	57		 push	 edi
  0000f	8b f9		 mov	 edi, ecx
  00011	8b 57 08	 mov	 edx, DWORD PTR [edi+8]
  00014	85 d2		 test	 edx, edx
  00016	0f 45 c2	 cmovne	 eax, edx
  00019	0f 1f 80 00 00
	00 00		 npad	 7
$LL2@Growmap:

; 1444 :         while (_Newsize - _Mapsize() < _Count || _Newsize < _Minimum_map_size) {

  00020	8b f0		 mov	 esi, eax
  00022	2b f2		 sub	 esi, edx
  00024	3b f3		 cmp	 esi, ebx
  00026	72 05		 jb	 SHORT $LN4@Growmap
  00028	83 f8 08	 cmp	 eax, 8
  0002b	73 13		 jae	 SHORT $LN3@Growmap
$LN4@Growmap:

; 1445 :             // scale _Newsize to 2^N >= _Mapsize() + _Count
; 1446 :             if (max_size() / _Block_size - _Newsize < _Newsize) {

  0002d	b9 ff ff ff 0f	 mov	 ecx, 268435455		; 0fffffffH
  00032	2b c8		 sub	 ecx, eax
  00034	3b c8		 cmp	 ecx, eax
  00036	0f 82 fe 00 00
	00		 jb	 $LN44@Growmap

; 1448 :             }
; 1449 : 
; 1450 :             _Newsize *= 2;

  0003c	03 c0		 add	 eax, eax

; 1451 :         }

  0003e	eb e0		 jmp	 SHORT $LL2@Growmap
$LN3@Growmap:

; 1452 :         _Count = _Newsize - _Mapsize();
; 1453 : 
; 1454 :         size_type _Myboff = _Myoff() / _Block_size;

  00040	8b 5f 0c	 mov	 ebx, DWORD PTR [edi+12]
  00043	c1 eb 02	 shr	 ebx, 2
  00046	89 5d 08	 mov	 DWORD PTR $T1[ebp], ebx
; File C:\Program Files (x86)\Microsoft Visual Studio\2019\Professional\VC\Tools\MSVC\14.29.30133\include\xmemory

; 64   :         if (_Count > _Max_possible) {

  00049	3d ff ff ff 3f	 cmp	 eax, 1073741823		; 3fffffffH
  0004e	0f 87 ed 00 00
	00		 ja	 $LN51@Growmap

; 66   :         }
; 67   :     }
; 68   : 
; 69   :     return _Count * _Ty_size;

  00054	c1 e0 02	 shl	 eax, 2

; 237  :         if (_Bytes >= _Big_allocation_threshold) { // boost the alignment of big allocations to help autovectorization

  00057	3d 00 10 00 00	 cmp	 eax, 4096		; 00001000H
  0005c	72 0d		 jb	 SHORT $LN19@Growmap

; 238  :             return _Allocate_manually_vector_aligned<_Traits>(_Bytes);

  0005e	50		 push	 eax
  0005f	e8 00 00 00 00	 call	 ??$_Allocate_manually_vector_aligned@U_Default_allocate_traits@std@@@std@@YAPAXI@Z ; std::_Allocate_manually_vector_aligned<std::_Default_allocate_traits>
  00064	83 c4 04	 add	 esp, 4
  00067	8b d8		 mov	 ebx, eax
  00069	eb 13		 jmp	 SHORT $LN18@Growmap
$LN19@Growmap:

; 239  :         }
; 240  :     }
; 241  : #endif // defined(_M_IX86) || defined(_M_X64)
; 242  : 
; 243  :     if (_Bytes != 0) {

  0006b	85 c0		 test	 eax, eax
  0006d	74 0d		 je	 SHORT $LN20@Growmap

; 85   :         return ::operator new(_Bytes);

  0006f	50		 push	 eax
  00070	e8 00 00 00 00	 call	 ??2@YAPAXI@Z		; operator new
  00075	83 c4 04	 add	 esp, 4

; 244  :         return _Traits::_Allocate(_Bytes);

  00078	8b d8		 mov	 ebx, eax
  0007a	eb 02		 jmp	 SHORT $LN18@Growmap
$LN20@Growmap:

; 245  :     }
; 246  : 
; 247  :     return nullptr;

  0007c	33 db		 xor	 ebx, ebx
$LN18@Growmap:
; File C:\Program Files (x86)\Microsoft Visual Studio\2019\Professional\VC\Tools\MSVC\14.29.30133\include\deque

; 1456 :         _Mapptr _Myptr    = _Newmap + _Myboff;

  0007e	8b 55 08	 mov	 edx, DWORD PTR $T1[ebp]

; 1457 : 
; 1458 :         _Myptr = _STD uninitialized_copy(_Map() + _Myboff, _Map() + _Mapsize(), _Myptr); // copy initial to end

  00081	8b 4f 04	 mov	 ecx, DWORD PTR [edi+4]
  00084	c1 e2 02	 shl	 edx, 2
  00087	89 55 fc	 mov	 DWORD PTR tv483[ebp], edx
  0008a	8d 04 1a	 lea	 eax, DWORD PTR [edx+ebx]
  0008d	50		 push	 eax
  0008e	8b 47 08	 mov	 eax, DWORD PTR [edi+8]
  00091	8d 04 81	 lea	 eax, DWORD PTR [ecx+eax*4]
  00094	50		 push	 eax
  00095	8d 04 11	 lea	 eax, DWORD PTR [ecx+edx]
  00098	50		 push	 eax
  00099	e8 00 00 00 00	 call	 ??$uninitialized_copy@PAPAPAUSData@CFileLoaderThread@@PAPAPAU12@@std@@YAPAPAPAUSData@CFileLoaderThread@@QAPAPAU12@0PAPAPAU12@@Z ; std::uninitialized_copy<CFileLoaderThread::SData * * *,CFileLoaderThread::SData * * *>
  0009e	8b 4f 04	 mov	 ecx, DWORD PTR [edi+4]
  000a1	83 c4 0c	 add	 esp, 12			; 0000000cH

; 1459 :         if (_Myboff <= _Count) { // increment greater than offset of initial block

  000a4	50		 push	 eax
  000a5	39 75 08	 cmp	 DWORD PTR $T1[ebp], esi
  000a8	77 22		 ja	 SHORT $LN6@Growmap

; 1460 :             _Myptr = _STD uninitialized_copy(_Map(), _Map() + _Myboff, _Myptr); // copy rest of old

  000aa	8b 45 fc	 mov	 eax, DWORD PTR tv483[ebp]
  000ad	03 c1		 add	 eax, ecx
  000af	50		 push	 eax
  000b0	51		 push	 ecx
  000b1	e8 00 00 00 00	 call	 ??$uninitialized_copy@PAPAPAUSData@CFileLoaderThread@@PAPAPAU12@@std@@YAPAPAPAUSData@CFileLoaderThread@@QAPAPAU12@0PAPAPAU12@@Z ; std::uninitialized_copy<CFileLoaderThread::SData * * *,CFileLoaderThread::SData * * *>

; 1461 :             _Uninitialized_value_construct_n_unchecked1(_Myptr, _Count - _Myboff); // clear suffix of new

  000b6	8b ce		 mov	 ecx, esi
  000b8	2b 4d 08	 sub	 ecx, DWORD PTR $T1[ebp]
  000bb	51		 push	 ecx
  000bc	50		 push	 eax
  000bd	e8 00 00 00 00	 call	 ??$_Uninitialized_value_construct_n_unchecked1@PAPAPAUSData@CFileLoaderThread@@I@std@@YAPAPAPAUSData@CFileLoaderThread@@PAPAPAU12@I@Z ; std::_Uninitialized_value_construct_n_unchecked1<CFileLoaderThread::SData * * *,unsigned int>

; 1462 :             _Uninitialized_value_construct_n_unchecked1(_Newmap, _Myboff); // clear prefix of new
; 1463 :         } else { // increment not greater than offset of initial block

  000c2	8b 45 08	 mov	 eax, DWORD PTR $T1[ebp]
  000c5	83 c4 14	 add	 esp, 20			; 00000014H
  000c8	8b cb		 mov	 ecx, ebx
  000ca	eb 24		 jmp	 SHORT $LN7@Growmap
$LN6@Growmap:

; 1464 :             _STD uninitialized_copy(_Map(), _Map() + _Count, _Myptr); // copy more old

  000cc	8d 04 b1	 lea	 eax, DWORD PTR [ecx+esi*4]
  000cf	50		 push	 eax
  000d0	51		 push	 ecx
  000d1	e8 00 00 00 00	 call	 ??$uninitialized_copy@PAPAPAUSData@CFileLoaderThread@@PAPAPAU12@@std@@YAPAPAPAUSData@CFileLoaderThread@@QAPAPAU12@0PAPAPAU12@@Z ; std::uninitialized_copy<CFileLoaderThread::SData * * *,CFileLoaderThread::SData * * *>

; 1465 :             _Myptr = _STD uninitialized_copy(_Map() + _Count, _Map() + _Myboff, _Newmap); // copy rest of old

  000d6	8b 4f 04	 mov	 ecx, DWORD PTR [edi+4]
  000d9	8b 45 fc	 mov	 eax, DWORD PTR tv483[ebp]
  000dc	03 c1		 add	 eax, ecx
  000de	53		 push	 ebx
  000df	50		 push	 eax
  000e0	8d 04 b1	 lea	 eax, DWORD PTR [ecx+esi*4]
  000e3	50		 push	 eax
  000e4	e8 00 00 00 00	 call	 ??$uninitialized_copy@PAPAPAUSData@CFileLoaderThread@@PAPAPAU12@@std@@YAPAPAPAUSData@CFileLoaderThread@@QAPAPAU12@0PAPAPAU12@@Z ; std::uninitialized_copy<CFileLoaderThread::SData * * *,CFileLoaderThread::SData * * *>

; 1466 :             _Uninitialized_value_construct_n_unchecked1(_Myptr, _Count); // clear rest to initial block

  000e9	8b c8		 mov	 ecx, eax
  000eb	83 c4 18	 add	 esp, 24			; 00000018H
  000ee	8b c6		 mov	 eax, esi
$LN7@Growmap:

; 1467 :         }
; 1468 : 
; 1469 :         _Destroy_range(_Map() + _Myboff, _Map() + _Mapsize());
; 1470 :         if (_Map() != _Mapptr()) {

  000f0	50		 push	 eax
  000f1	51		 push	 ecx
  000f2	e8 00 00 00 00	 call	 ??$_Uninitialized_value_construct_n_unchecked1@PAPAPAUSData@CFileLoaderThread@@I@std@@YAPAPAPAUSData@CFileLoaderThread@@PAPAPAU12@I@Z ; std::_Uninitialized_value_construct_n_unchecked1<CFileLoaderThread::SData * * *,unsigned int>
  000f7	8b 47 04	 mov	 eax, DWORD PTR [edi+4]
  000fa	83 c4 08	 add	 esp, 8
  000fd	85 c0		 test	 eax, eax
  000ff	74 2a		 je	 SHORT $LN29@Growmap
; File C:\Program Files (x86)\Microsoft Visual Studio\2019\Professional\VC\Tools\MSVC\14.29.30133\include\xmemory

; 835  :         _Deallocate<_New_alignof<_Ty>>(_Ptr, sizeof(_Ty) * _Count);

  00101	8b 4f 08	 mov	 ecx, DWORD PTR [edi+8]
  00104	c1 e1 02	 shl	 ecx, 2

; 260  :         if (_Bytes >= _Big_allocation_threshold) { // boost the alignment of big allocations to help autovectorization

  00107	81 f9 00 10 00
	00		 cmp	 ecx, 4096		; 00001000H
  0010d	72 12		 jb	 SHORT $LN39@Growmap

; 158  :     const uintptr_t _Ptr_container   = _Ptr_user[-1];

  0010f	8b 50 fc	 mov	 edx, DWORD PTR [eax-4]
  00112	83 c1 23	 add	 ecx, 35			; 00000023H

; 159  : 
; 160  :     // If the following asserts, it likely means that we are performing
; 161  :     // an aligned delete on memory coming from an unaligned allocation.
; 162  :     _STL_ASSERT(_Ptr_user[-2] == _Big_allocation_sentinel, "invalid argument");
; 163  : 
; 164  :     // Extra paranoia on aligned allocation/deallocation; ensure _Ptr_container is
; 165  :     // in range [_Min_back_shift, _Non_user_size]
; 166  : #ifdef _DEBUG
; 167  :     constexpr uintptr_t _Min_back_shift = 2 * sizeof(void*);
; 168  : #else // ^^^ _DEBUG ^^^ // vvv !_DEBUG vvv
; 169  :     constexpr uintptr_t _Min_back_shift = sizeof(void*);
; 170  : #endif // _DEBUG
; 171  :     const uintptr_t _Back_shift = reinterpret_cast<uintptr_t>(_Ptr) - _Ptr_container;

  00115	2b c2		 sub	 eax, edx

; 172  :     _STL_VERIFY(_Back_shift >= _Min_back_shift && _Back_shift <= _Non_user_size, "invalid argument");

  00117	83 c0 fc	 add	 eax, -4			; fffffffcH
  0011a	83 f8 1f	 cmp	 eax, 31			; 0000001fH
  0011d	77 27		 ja	 SHORT $LN36@Growmap

; 173  :     _Ptr = reinterpret_cast<void*>(_Ptr_container);

  0011f	8b c2		 mov	 eax, edx
$LN39@Growmap:

; 264  :         ::operator delete(_Ptr, _Bytes);

  00121	51		 push	 ecx
  00122	50		 push	 eax
  00123	e8 00 00 00 00	 call	 ??3@YAXPAXI@Z		; operator delete
  00128	83 c4 08	 add	 esp, 8
$LN29@Growmap:
; File C:\Program Files (x86)\Microsoft Visual Studio\2019\Professional\VC\Tools\MSVC\14.29.30133\include\deque

; 1475 :         _Mapsize() += _Count;

  0012b	01 77 08	 add	 DWORD PTR [edi+8], esi
  0012e	89 5f 04	 mov	 DWORD PTR [edi+4], ebx
  00131	5f		 pop	 edi
  00132	5e		 pop	 esi
  00133	5b		 pop	 ebx

; 1476 :     }

  00134	8b e5		 mov	 esp, ebp
  00136	5d		 pop	 ebp
  00137	c2 04 00	 ret	 4
$LN44@Growmap:

; 1447 :                 _Xlen(); // result too long

  0013a	8b cf		 mov	 ecx, edi
  0013c	e8 00 00 00 00	 call	 ?_Xlen@?$deque@PAUSData@CFileLoaderThread@@V?$allocator@PAUSData@CFileLoaderThread@@@std@@@std@@ABEXXZ ; std::deque<CFileLoaderThread::SData *,std::allocator<CFileLoaderThread::SData *> >::_Xlen
$LN51@Growmap:
; File C:\Program Files (x86)\Microsoft Visual Studio\2019\Professional\VC\Tools\MSVC\14.29.30133\include\xmemory

; 65   :             _Throw_bad_array_new_length(); // multiply overflow

  00141	e8 00 00 00 00	 call	 ?_Throw_bad_array_new_length@std@@YAXXZ ; std::_Throw_bad_array_new_length
$LN36@Growmap:

; 172  :     _STL_VERIFY(_Back_shift >= _Min_back_shift && _Back_shift <= _Non_user_size, "invalid argument");

  00146	e8 00 00 00 00	 call	 __invalid_parameter_noinfo_noreturn
$LN49@Growmap:
  0014b	cc		 int	 3
?_Growmap@?$deque@PAUSData@CFileLoaderThread@@V?$allocator@PAUSData@CFileLoaderThread@@@std@@@std@@AAEXI@Z ENDP ; std::deque<CFileLoaderThread::SData *,std::allocator<CFileLoaderThread::SData *> >::_Growmap
_TEXT	ENDS
; Function compile flags: /Ogtp
; File C:\Program Files (x86)\Microsoft Visual Studio\2019\Professional\VC\Tools\MSVC\14.29.30133\include\deque
;	COMDAT ?_Xlen@?$deque@PAUSData@CFileLoaderThread@@V?$allocator@PAUSData@CFileLoaderThread@@@std@@@std@@ABEXXZ
_TEXT	SEGMENT
?_Xlen@?$deque@PAUSData@CFileLoaderThread@@V?$allocator@PAUSData@CFileLoaderThread@@@std@@@std@@ABEXXZ PROC ; std::deque<CFileLoaderThread::SData *,std::allocator<CFileLoaderThread::SData *> >::_Xlen, COMDAT
; _this$ = ecx

; 1432 :         _Xlength_error("deque<T> too long");

  00000	68 00 00 00 00	 push	 OFFSET ??_C@_0BC@KBDMBKEH@deque?$DMT?$DO?5too?5long@
  00005	e8 00 00 00 00	 call	 ?_Xlength_error@std@@YAXPBD@Z ; std::_Xlength_error
$LN3@Xlen:
  0000a	cc		 int	 3
?_Xlen@?$deque@PAUSData@CFileLoaderThread@@V?$allocator@PAUSData@CFileLoaderThread@@@std@@@std@@ABEXXZ ENDP ; std::deque<CFileLoaderThread::SData *,std::allocator<CFileLoaderThread::SData *> >::_Xlen
_TEXT	ENDS
; Function compile flags: /Ogtp
; File C:\Program Files (x86)\Microsoft Visual Studio\2019\Professional\VC\Tools\MSVC\14.29.30133\include\deque
; File C:\Program Files (x86)\Microsoft Visual Studio\2019\Professional\VC\Tools\MSVC\14.29.30133\include\xmemory
; File C:\Program Files (x86)\Microsoft Visual Studio\2019\Professional\VC\Tools\MSVC\14.29.30133\include\deque
; File C:\Program Files (x86)\Microsoft Visual Studio\2019\Professional\VC\Tools\MSVC\14.29.30133\include\xmemory
; File C:\Program Files (x86)\Microsoft Visual Studio\2019\Professional\VC\Tools\MSVC\14.29.30133\include\deque
;	COMDAT ?push_back@?$deque@PAUSData@CFileLoaderThread@@V?$allocator@PAUSData@CFileLoaderThread@@@std@@@std@@QAEXABQAUSData@CFileLoaderThread@@@Z
_TEXT	SEGMENT
__Val$ = 8						; size = 4
?push_back@?$deque@PAUSData@CFileLoaderThread@@V?$allocator@PAUSData@CFileLoaderThread@@@std@@@std@@QAEXABQAUSData@CFileLoaderThread@@@Z PROC ; std::deque<CFileLoaderThread::SData *,std::allocator<CFileLoaderThread::SData *> >::push_back, COMDAT
; _this$ = ecx

; 1130 :     void push_back(const _Ty& _Val) {

  00000	55		 push	 ebp
  00001	8b ec		 mov	 ebp, esp
  00003	53		 push	 ebx
  00004	56		 push	 esi
  00005	8b f1		 mov	 esi, ecx
  00007	57		 push	 edi

; 1113 :         if ((_Myoff() + _Mysize()) % _Block_size == 0 && _Mapsize() <= (_Mysize() + _Block_size) / _Block_size) {

  00008	8b 4e 10	 mov	 ecx, DWORD PTR [esi+16]
  0000b	8b f9		 mov	 edi, ecx
  0000d	8b 56 0c	 mov	 edx, DWORD PTR [esi+12]
  00010	8d 04 0a	 lea	 eax, DWORD PTR [edx+ecx]
  00013	a8 03		 test	 al, 3
  00015	75 1a		 jne	 SHORT $LN4@push_back
  00017	8d 41 04	 lea	 eax, DWORD PTR [ecx+4]
  0001a	c1 e8 02	 shr	 eax, 2
  0001d	39 46 08	 cmp	 DWORD PTR [esi+8], eax
  00020	77 0f		 ja	 SHORT $LN4@push_back

; 1114 :             _Growmap(1);

  00022	6a 01		 push	 1
  00024	8b ce		 mov	 ecx, esi
  00026	e8 00 00 00 00	 call	 ?_Growmap@?$deque@PAUSData@CFileLoaderThread@@V?$allocator@PAUSData@CFileLoaderThread@@@std@@@std@@AAEXI@Z ; std::deque<CFileLoaderThread::SData *,std::allocator<CFileLoaderThread::SData *> >::_Growmap
  0002b	8b 56 0c	 mov	 edx, DWORD PTR [esi+12]
  0002e	8b 7e 10	 mov	 edi, DWORD PTR [esi+16]
$LN4@push_back:

; 1115 :         }
; 1116 :         _Myoff() &= _Mapsize() * _Block_size - 1;

  00031	8b 4e 08	 mov	 ecx, DWORD PTR [esi+8]
  00034	8d 04 8d ff ff
	ff ff		 lea	 eax, DWORD PTR [ecx*4-1]

; 565  :         return (_Off / _Block_size) & (_Mapsize - 1);

  0003b	49		 dec	 ecx

; 1116 :         _Myoff() &= _Mapsize() * _Block_size - 1;

  0003c	23 c2		 and	 eax, edx
  0003e	89 46 0c	 mov	 DWORD PTR [esi+12], eax

; 1117 :         size_type _Newoff = _Myoff() + _Mysize();

  00041	03 f8		 add	 edi, eax

; 565  :         return (_Off / _Block_size) & (_Mapsize - 1);

  00043	8b c7		 mov	 eax, edi
  00045	c1 e8 02	 shr	 eax, 2
  00048	23 c8		 and	 ecx, eax

; 1119 :         if (_Map()[_Block] == nullptr) {

  0004a	8d 1c 8d 00 00
	00 00		 lea	 ebx, DWORD PTR [ecx*4]
  00051	8b 4e 04	 mov	 ecx, DWORD PTR [esi+4]
  00054	83 3c 19 00	 cmp	 DWORD PTR [ecx+ebx], 0
  00058	75 13		 jne	 SHORT $LN5@push_back
; File C:\Program Files (x86)\Microsoft Visual Studio\2019\Professional\VC\Tools\MSVC\14.29.30133\include\xmemory

; 85   :         return ::operator new(_Bytes);

  0005a	6a 10		 push	 16			; 00000010H
  0005c	e8 00 00 00 00	 call	 ??2@YAPAXI@Z		; operator new
; File C:\Program Files (x86)\Microsoft Visual Studio\2019\Professional\VC\Tools\MSVC\14.29.30133\include\deque

; 1120 :             _Map()[_Block] = _Getal().allocate(_Block_size);

  00061	8b 4e 04	 mov	 ecx, DWORD PTR [esi+4]
; File C:\Program Files (x86)\Microsoft Visual Studio\2019\Professional\VC\Tools\MSVC\14.29.30133\include\xmemory

; 85   :         return ::operator new(_Bytes);

  00064	83 c4 04	 add	 esp, 4
; File C:\Program Files (x86)\Microsoft Visual Studio\2019\Professional\VC\Tools\MSVC\14.29.30133\include\deque

; 1120 :             _Map()[_Block] = _Getal().allocate(_Block_size);

  00067	89 04 0b	 mov	 DWORD PTR [ebx+ecx], eax
  0006a	8b 4e 04	 mov	 ecx, DWORD PTR [esi+4]
$LN5@push_back:

; 1121 :         }
; 1122 : 
; 1123 :         _Alty_traits::construct(

  0006d	8b 0c 0b	 mov	 ecx, DWORD PTR [ebx+ecx]
  00070	83 e7 03	 and	 edi, 3
  00073	8b 45 08	 mov	 eax, DWORD PTR __Val$[ebp]
  00076	8b 00		 mov	 eax, DWORD PTR [eax]
  00078	89 04 b9	 mov	 DWORD PTR [ecx+edi*4], eax

; 1124 :             _Getal(), _Unfancy(_Map()[_Block] + _Newoff % _Block_size), _STD forward<_Tys>(_Vals)...);
; 1125 : 
; 1126 :         ++_Mysize();

  0007b	ff 46 10	 inc	 DWORD PTR [esi+16]
  0007e	5f		 pop	 edi
  0007f	5e		 pop	 esi
  00080	5b		 pop	 ebx

; 1131 :         _Orphan_all();
; 1132 :         _Emplace_back_internal(_Val);
; 1133 :     }

  00081	5d		 pop	 ebp
  00082	c2 04 00	 ret	 4
?push_back@?$deque@PAUSData@CFileLoaderThread@@V?$allocator@PAUSData@CFileLoaderThread@@@std@@@std@@QAEXABQAUSData@CFileLoaderThread@@@Z ENDP ; std::deque<CFileLoaderThread::SData *,std::allocator<CFileLoaderThread::SData *> >::push_back
_TEXT	ENDS
; Function compile flags: /Ogtp
; File C:\Program Files (x86)\Microsoft Visual Studio\2019\Professional\VC\Tools\MSVC\14.29.30133\include\deque
; File C:\Program Files (x86)\Microsoft Visual Studio\2019\Professional\VC\Tools\MSVC\14.29.30133\include\utility
; File C:\Program Files (x86)\Microsoft Visual Studio\2019\Professional\VC\Tools\MSVC\14.29.30133\include\xmemory
; File C:\Program Files (x86)\Microsoft Visual Studio\2019\Professional\VC\Tools\MSVC\14.29.30133\include\utility
; File C:\Program Files (x86)\Microsoft Visual Studio\2019\Professional\VC\Tools\MSVC\14.29.30133\include\xmemory
; File C:\Program Files (x86)\Microsoft Visual Studio\2019\Professional\VC\Tools\MSVC\14.29.30133\include\deque
;	COMDAT ??1?$deque@PAUSData@CFileLoaderThread@@V?$allocator@PAUSData@CFileLoaderThread@@@std@@@std@@QAE@XZ
_TEXT	SEGMENT
??1?$deque@PAUSData@CFileLoaderThread@@V?$allocator@PAUSData@CFileLoaderThread@@@std@@@std@@QAE@XZ PROC ; std::deque<CFileLoaderThread::SData *,std::allocator<CFileLoaderThread::SData *> >::~deque<CFileLoaderThread::SData *,std::allocator<CFileLoaderThread::SData *> >, COMDAT
; _this$ = ecx

; 867  :     ~deque() noexcept {

  00000	56		 push	 esi
  00001	8b f1		 mov	 esi, ecx

; 868  :         _Tidy();

  00003	e8 00 00 00 00	 call	 ?_Tidy@?$deque@PAUSData@CFileLoaderThread@@V?$allocator@PAUSData@CFileLoaderThread@@@std@@@std@@AAEXXZ ; std::deque<CFileLoaderThread::SData *,std::allocator<CFileLoaderThread::SData *> >::_Tidy
; File C:\Program Files (x86)\Microsoft Visual Studio\2019\Professional\VC\Tools\MSVC\14.29.30133\include\utility

; 616  :     _Ty _Old_val = static_cast<_Ty&&>(_Val);

  00008	8b 06		 mov	 eax, DWORD PTR [esi]
; File C:\Program Files (x86)\Microsoft Visual Studio\2019\Professional\VC\Tools\MSVC\14.29.30133\include\xmemory

; 264  :         ::operator delete(_Ptr, _Bytes);

  0000a	6a 08		 push	 8
  0000c	50		 push	 eax
; File C:\Program Files (x86)\Microsoft Visual Studio\2019\Professional\VC\Tools\MSVC\14.29.30133\include\utility

; 617  :     _Val         = static_cast<_Other&&>(_New_val);

  0000d	c7 06 00 00 00
	00		 mov	 DWORD PTR [esi], 0
; File C:\Program Files (x86)\Microsoft Visual Studio\2019\Professional\VC\Tools\MSVC\14.29.30133\include\xmemory

; 264  :         ::operator delete(_Ptr, _Bytes);

  00013	e8 00 00 00 00	 call	 ??3@YAXPAXI@Z		; operator delete
  00018	83 c4 08	 add	 esp, 8
  0001b	5e		 pop	 esi
; File C:\Program Files (x86)\Microsoft Visual Studio\2019\Professional\VC\Tools\MSVC\14.29.30133\include\deque

; 871  :     }

  0001c	c3		 ret	 0
??1?$deque@PAUSData@CFileLoaderThread@@V?$allocator@PAUSData@CFileLoaderThread@@@std@@@std@@QAE@XZ ENDP ; std::deque<CFileLoaderThread::SData *,std::allocator<CFileLoaderThread::SData *> >::~deque<CFileLoaderThread::SData *,std::allocator<CFileLoaderThread::SData *> >
_TEXT	ENDS
; Function compile flags: /Ogtp
; File C:\Users\murat\Desktop\Siveps2-1-99-Project\source\client\Client\EterLib\FileLoaderThread.cpp
; File C:\Program Files (x86)\Microsoft Visual Studio\2019\Professional\VC\Tools\MSVC\14.29.30133\include\deque
; File C:\Users\murat\Desktop\Siveps2-1-99-Project\source\client\Client\EterLib\FileLoaderThread.cpp
; File C:\Program Files (x86)\Microsoft Visual Studio\2019\Professional\VC\Tools\MSVC\14.29.30133\include\deque
; File C:\Users\murat\Desktop\Siveps2-1-99-Project\source\client\Client\EterLib\FileLoaderThread.cpp
; File C:\Program Files (x86)\Microsoft Visual Studio\2019\Professional\VC\Tools\MSVC\14.29.30133\include\deque
; File C:\Users\murat\Desktop\Siveps2-1-99-Project\source\client\Client\EterLib\FileLoaderThread.cpp
; File C:\Program Files (x86)\Microsoft Visual Studio\2019\Professional\VC\Tools\MSVC\14.29.30133\include\deque
; File C:\Users\murat\Desktop\Siveps2-1-99-Project\source\client\Client\EterLib\FileLoaderThread.cpp
; File C:\Program Files (x86)\Microsoft Visual Studio\2019\Professional\VC\Tools\MSVC\14.29.30133\include\xstring
; File C:\Users\murat\Desktop\Siveps2-1-99-Project\source\client\Client\EterLib\FileLoaderThread.cpp
;	COMDAT ?Process@CFileLoaderThread@@IAEXXZ
_TEXT	SEGMENT
_pData$ = -8						; size = 4
_pvBuf$ = -4						; size = 4
?Process@CFileLoaderThread@@IAEXXZ PROC			; CFileLoaderThread::Process, COMDAT
; _this$ = ecx

; 152  : {

  00000	55		 push	 ebp
  00001	8b ec		 mov	 ebp, esp
  00003	83 ec 08	 sub	 esp, 8
  00006	53		 push	 ebx
  00007	57		 push	 edi
  00008	8b f9		 mov	 edi, ecx

; 153  : 	m_RequestMutex.Lock();

  0000a	8d 4f 20	 lea	 ecx, DWORD PTR [edi+32]
  0000d	e8 00 00 00 00	 call	 ?Lock@Mutex@@QAEXXZ	; Mutex::Lock
; File C:\Program Files (x86)\Microsoft Visual Studio\2019\Professional\VC\Tools\MSVC\14.29.30133\include\deque

; 1009 :         return _Mysize() == 0;

  00012	83 7f 1c 00	 cmp	 DWORD PTR [edi+28], 0
; File C:\Users\murat\Desktop\Siveps2-1-99-Project\source\client\Client\EterLib\FileLoaderThread.cpp

; 155  : 	if (m_pRequestDeque.empty())

  00016	75 0e		 jne	 SHORT $LN2@Process

; 156  : 	{
; 157  : 		m_RequestMutex.Unlock();

  00018	8d 4f 20	 lea	 ecx, DWORD PTR [edi+32]
  0001b	e8 00 00 00 00	 call	 ?Unlock@Mutex@@QAEXXZ	; Mutex::Unlock
  00020	5f		 pop	 edi

; 180  : }

  00021	5b		 pop	 ebx
  00022	8b e5		 mov	 esp, ebp
  00024	5d		 pop	 ebp
  00025	c3		 ret	 0
$LN2@Process:
; File C:\Program Files (x86)\Microsoft Visual Studio\2019\Professional\VC\Tools\MSVC\14.29.30133\include\deque

; 44   :         : _Mycont(static_cast<const _Mydeque*>(_Pdeque)), _Myoff(_Off) {}

  00026	8b 57 18	 mov	 edx, DWORD PTR [edi+24]

; 565  :         return (_Off / _Block_size) & (_Mapsize - 1);

  00029	8b ca		 mov	 ecx, edx
  0002b	8b 47 14	 mov	 eax, DWORD PTR [edi+20]

; 48   :         _Size_type _Off   = _Myoff % _Block_size;

  0002e	83 e2 03	 and	 edx, 3

; 565  :         return (_Off / _Block_size) & (_Mapsize - 1);

  00031	48		 dec	 eax
  00032	c1 e9 02	 shr	 ecx, 2
  00035	23 c8		 and	 ecx, eax
; File C:\Users\murat\Desktop\Siveps2-1-99-Project\source\client\Client\EterLib\FileLoaderThread.cpp

; 161  : 	TData * pData = m_pRequestDeque.front();

  00037	8b 47 10	 mov	 eax, DWORD PTR [edi+16]
  0003a	56		 push	 esi
  0003b	8b 04 88	 mov	 eax, DWORD PTR [eax+ecx*4]
  0003e	8b 34 90	 mov	 esi, DWORD PTR [eax+edx*4]
; File C:\Program Files (x86)\Microsoft Visual Studio\2019\Professional\VC\Tools\MSVC\14.29.30133\include\deque

; 1102 :         if (--_Mysize() == 0) {

  00041	83 47 1c ff	 add	 DWORD PTR [edi+28], -1
; File C:\Users\murat\Desktop\Siveps2-1-99-Project\source\client\Client\EterLib\FileLoaderThread.cpp

; 161  : 	TData * pData = m_pRequestDeque.front();

  00045	89 75 f8	 mov	 DWORD PTR _pData$[ebp], esi
; File C:\Program Files (x86)\Microsoft Visual Studio\2019\Professional\VC\Tools\MSVC\14.29.30133\include\deque

; 1102 :         if (--_Mysize() == 0) {

  00048	75 09		 jne	 SHORT $LN22@Process

; 1103 :             _Myoff() = 0;

  0004a	c7 47 18 00 00
	00 00		 mov	 DWORD PTR [edi+24], 0

; 1104 :         } else {

  00051	eb 03		 jmp	 SHORT $LN23@Process
$LN22@Process:

; 1105 :             ++_Myoff();

  00053	ff 47 18	 inc	 DWORD PTR [edi+24]
$LN23@Process:
; File C:\Users\murat\Desktop\Siveps2-1-99-Project\source\client\Client\EterLib\FileLoaderThread.cpp

; 164  : 	m_RequestMutex.Unlock();

  00056	8d 4f 20	 lea	 ecx, DWORD PTR [edi+32]
  00059	e8 00 00 00 00	 call	 ?Unlock@Mutex@@QAEXXZ	; Mutex::Unlock
; File C:\Program Files (x86)\Microsoft Visual Studio\2019\Professional\VC\Tools\MSVC\14.29.30133\include\xstring

; 2319 :         return _BUF_SIZE <= _Myres;

  0005e	83 7e 14 10	 cmp	 DWORD PTR [esi+20], 16	; 00000010H

; 2305 :         const value_type* _Result = _Bx._Buf;

  00062	8b c6		 mov	 eax, esi

; 2306 :         if (_Large_string_engaged()) {

  00064	72 02		 jb	 SHORT $LN32@Process

; 2307 :             _Result = _Unfancy(_Bx._Ptr);

  00066	8b 06		 mov	 eax, DWORD PTR [esi]
$LN32@Process:
; File C:\Users\murat\Desktop\Siveps2-1-99-Project\source\client\Client\EterLib\FileLoaderThread.cpp

; 168  : 	if (CEterPackManager::Instance().Get(pData->File, pData->stFileName.c_str(), &pvBuf))

  00068	8d 4d fc	 lea	 ecx, DWORD PTR _pvBuf$[ebp]
  0006b	51		 push	 ecx
  0006c	8b 0d 00 00 00
	00		 mov	 ecx, DWORD PTR ?ms_singleton@?$CSingleton@VCEterPackManager@@@@0PAVCEterPackManager@@A ; CSingleton<CEterPackManager>::ms_singleton
  00072	8d 5e 18	 lea	 ebx, DWORD PTR [esi+24]
  00075	50		 push	 eax
  00076	53		 push	 ebx
  00077	e8 00 00 00 00	 call	 ?Get@CEterPackManager@@QAE_NAAVCMappedFile@@PBDPAPBX@Z ; CEterPackManager::Get
  0007c	84 c0		 test	 al, al
  0007e	74 2b		 je	 SHORT $LN3@Process

; 169  : 	{
; 170  : 		pData->dwSize	= pData->File.Size();

  00080	8b cb		 mov	 ecx, ebx
  00082	e8 00 00 00 00	 call	 ?Size@CMappedFile@@QAEKXZ ; CMappedFile::Size

; 171  : 		pData->pvBuf	= new char [pData->dwSize];

  00087	50		 push	 eax
  00088	89 86 60 01 00
	00		 mov	 DWORD PTR [esi+352], eax
  0008e	e8 00 00 00 00	 call	 ??_U@YAPAXI@Z		; operator new[]
  00093	89 86 5c 01 00
	00		 mov	 DWORD PTR [esi+348], eax

; 172  : 		memcpy(pData->pvBuf, pvBuf, pData->dwSize);

  00099	ff b6 60 01 00
	00		 push	 DWORD PTR [esi+352]
  0009f	ff 75 fc	 push	 DWORD PTR _pvBuf$[ebp]
  000a2	50		 push	 eax
  000a3	e8 00 00 00 00	 call	 _memcpy
  000a8	83 c4 10	 add	 esp, 16			; 00000010H
$LN3@Process:

; 173  : 	}
; 174  : 
; 175  : 	m_CompleteMutex.Lock();

  000ab	8d 4f 4c	 lea	 ecx, DWORD PTR [edi+76]
  000ae	e8 00 00 00 00	 call	 ?Lock@Mutex@@QAEXXZ	; Mutex::Lock

; 176  : 	m_pCompleteDeque.push_back(pData);

  000b3	8d 45 f8	 lea	 eax, DWORD PTR _pData$[ebp]
  000b6	50		 push	 eax
  000b7	8d 4f 38	 lea	 ecx, DWORD PTR [edi+56]
  000ba	e8 00 00 00 00	 call	 ?push_back@?$deque@PAUSData@CFileLoaderThread@@V?$allocator@PAUSData@CFileLoaderThread@@@std@@@std@@QAEXABQAUSData@CFileLoaderThread@@@Z ; std::deque<CFileLoaderThread::SData *,std::allocator<CFileLoaderThread::SData *> >::push_back

; 177  : 	m_CompleteMutex.Unlock();

  000bf	8d 4f 4c	 lea	 ecx, DWORD PTR [edi+76]
  000c2	e8 00 00 00 00	 call	 ?Unlock@Mutex@@QAEXXZ	; Mutex::Unlock

; 178  : 
; 179  : 	Sleep(g_iLoadingDelayTime);

  000c7	ff 35 00 00 00
	00		 push	 DWORD PTR ?g_iLoadingDelayTime@@3HA ; g_iLoadingDelayTime
  000cd	ff 15 00 00 00
	00		 call	 DWORD PTR __imp__Sleep@4
  000d3	5e		 pop	 esi
  000d4	5f		 pop	 edi

; 180  : }

  000d5	5b		 pop	 ebx
  000d6	8b e5		 mov	 esp, ebp
  000d8	5d		 pop	 ebp
  000d9	c3		 ret	 0
?Process@CFileLoaderThread@@IAEXXZ ENDP			; CFileLoaderThread::Process
_TEXT	ENDS
; Function compile flags: /Ogtp
; File C:\Users\murat\Desktop\Siveps2-1-99-Project\source\client\Client\EterLib\FileLoaderThread.cpp
;	COMDAT ?Destroy@CFileLoaderThread@@IAEXXZ
_TEXT	SEGMENT
?Destroy@CFileLoaderThread@@IAEXXZ PROC			; CFileLoaderThread::Destroy, COMDAT
; _this$ = ecx

; 44   : {

  00000	56		 push	 esi
  00001	8b f1		 mov	 esi, ecx

; 45   : 	if (m_hSemaphore)

  00003	8b 46 64	 mov	 eax, DWORD PTR [esi+100]
  00006	85 c0		 test	 eax, eax
  00008	74 0e		 je	 SHORT $LN2@Destroy

; 46   : 	{
; 47   : 		CloseHandle(m_hSemaphore);

  0000a	50		 push	 eax
  0000b	ff 15 00 00 00
	00		 call	 DWORD PTR __imp__CloseHandle@4

; 48   : 		m_hSemaphore = NULL;

  00011	c7 46 64 00 00
	00 00		 mov	 DWORD PTR [esi+100], 0
$LN2@Destroy:

; 49   : 	}
; 50   : 
; 51   : 	stl_wipe(m_pRequestDeque);

  00018	8d 46 0c	 lea	 eax, DWORD PTR [esi+12]
  0001b	50		 push	 eax
  0001c	e8 00 00 00 00	 call	 ??$stl_wipe@V?$deque@PAUSData@CFileLoaderThread@@V?$allocator@PAUSData@CFileLoaderThread@@@std@@@std@@@@YAXAAV?$deque@PAUSData@CFileLoaderThread@@V?$allocator@PAUSData@CFileLoaderThread@@@std@@@std@@@Z ; stl_wipe<std::deque<CFileLoaderThread::SData *,std::allocator<CFileLoaderThread::SData *> > >

; 52   : 	stl_wipe(m_pCompleteDeque);

  00021	8d 46 38	 lea	 eax, DWORD PTR [esi+56]
  00024	50		 push	 eax
  00025	e8 00 00 00 00	 call	 ??$stl_wipe@V?$deque@PAUSData@CFileLoaderThread@@V?$allocator@PAUSData@CFileLoaderThread@@@std@@@std@@@@YAXAAV?$deque@PAUSData@CFileLoaderThread@@V?$allocator@PAUSData@CFileLoaderThread@@@std@@@std@@@Z ; stl_wipe<std::deque<CFileLoaderThread::SData *,std::allocator<CFileLoaderThread::SData *> > >
  0002a	83 c4 08	 add	 esp, 8
  0002d	5e		 pop	 esi

; 53   : }

  0002e	c3		 ret	 0
?Destroy@CFileLoaderThread@@IAEXXZ ENDP			; CFileLoaderThread::Destroy
_TEXT	ENDS
; Function compile flags: /Ogtp
; File C:\Users\murat\Desktop\Siveps2-1-99-Project\source\client\Client\EterLib\FileLoaderThread.cpp
;	COMDAT ?Execute@CFileLoaderThread@@IAEIPAX@Z
_TEXT	SEGMENT
___formal$ = 8						; size = 4
?Execute@CFileLoaderThread@@IAEIPAX@Z PROC		; CFileLoaderThread::Execute, COMDAT
; _this$ = ecx

; 86   : {

  00000	56		 push	 esi
  00001	8b f1		 mov	 esi, ecx

; 87   : 	while (!m_bShutdowned)

  00003	80 7e 6c 00	 cmp	 BYTE PTR [esi+108], 0
  00007	75 3c		 jne	 SHORT $LN14@Execute
  00009	57		 push	 edi
  0000a	8b 3d 00 00 00
	00		 mov	 edi, DWORD PTR __imp__WaitForSingleObject@8
$LL2@Execute:

; 88   : 	{
; 89   : 		DWORD dwWaitResult;
; 90   : 
; 91   : 		dwWaitResult = WaitForSingleObject(m_hSemaphore, INFINITE);

  00010	6a ff		 push	 -1
  00012	ff 76 64	 push	 DWORD PTR [esi+100]
  00015	ff d7		 call	 edi

; 92   : 
; 93   : 		if (m_bShutdowned)

  00017	80 7e 6c 00	 cmp	 BYTE PTR [esi+108], 0
  0001b	75 27		 jne	 SHORT $LN15@Execute

; 94   : 			break;
; 95   : 
; 96   : 		switch (dwWaitResult)

  0001d	85 c0		 test	 eax, eax
  0001f	74 16		 je	 SHORT $LN7@Execute
  00021	3d 02 01 00 00	 cmp	 eax, 258		; 00000102H
  00026	75 16		 jne	 SHORT $LN4@Execute

; 101  : 				}
; 102  : 				break;
; 103  : 
; 104  : 			case WAIT_TIMEOUT:
; 105  : 				TraceError("CFileLoaderThread::Execute: Timeout occured while time-out interval is INIFITE");

  00028	68 00 00 00 00	 push	 OFFSET ??_C@_0EP@NDKNAKHH@CFileLoaderThread?3?3Execute?3?5Tim@
  0002d	e8 00 00 00 00	 call	 ?TraceError@@YAXPBDZZ	; TraceError
  00032	83 c4 04	 add	 esp, 4
  00035	eb 07		 jmp	 SHORT $LN4@Execute
$LN7@Execute:

; 97   : 		{
; 98   : 			case WAIT_OBJECT_0:
; 99   : 				{
; 100  : 					Process();

  00037	8b ce		 mov	 ecx, esi
  00039	e8 00 00 00 00	 call	 ?Process@CFileLoaderThread@@IAEXXZ ; CFileLoaderThread::Process
$LN4@Execute:

; 87   : 	while (!m_bShutdowned)

  0003e	80 7e 6c 00	 cmp	 BYTE PTR [esi+108], 0
  00042	74 cc		 je	 SHORT $LL2@Execute
$LN15@Execute:
  00044	5f		 pop	 edi
$LN14@Execute:

; 106  : 				break;
; 107  : 		}
; 108  : 	}
; 109  : 
; 110  : 	Destroy();

  00045	8b ce		 mov	 ecx, esi
  00047	e8 00 00 00 00	 call	 ?Destroy@CFileLoaderThread@@IAEXXZ ; CFileLoaderThread::Destroy

; 111  : 	return 1;

  0004c	b8 01 00 00 00	 mov	 eax, 1
  00051	5e		 pop	 esi

; 112  : }

  00052	c2 04 00	 ret	 4
?Execute@CFileLoaderThread@@IAEIPAX@Z ENDP		; CFileLoaderThread::Execute
_TEXT	ENDS
; Function compile flags: /Ogtp
; File C:\Users\murat\Desktop\Siveps2-1-99-Project\source\client\Client\EterLib\FileLoaderThread.cpp
;	COMDAT ?Setup@CFileLoaderThread@@IAEIXZ
_TEXT	SEGMENT
?Setup@CFileLoaderThread@@IAEIXZ PROC			; CFileLoaderThread::Setup, COMDAT
; _this$ = ecx

; 56   : {

  00000	56		 push	 esi

; 57   : 	m_hSemaphore = CreateSemaphore(NULL,		// no security attributes

  00001	6a 00		 push	 0
  00003	68 ff ff 00 00	 push	 65535			; 0000ffffH
  00008	6a 00		 push	 0
  0000a	6a 00		 push	 0
  0000c	8b f1		 mov	 esi, ecx
  0000e	ff 15 00 00 00
	00		 call	 DWORD PTR __imp__CreateSemaphoreA@16

; 58   : 								   0,			// initial count
; 59   : 								   65535,		// maximum count
; 60   : 								   NULL);		// unnamed semaphore
; 61   : 	if (!m_hSemaphore)

  00014	33 c9		 xor	 ecx, ecx
  00016	89 46 64	 mov	 DWORD PTR [esi+100], eax
  00019	85 c0		 test	 eax, eax
  0001b	5e		 pop	 esi
  0001c	0f 95 c1	 setne	 cl
  0001f	8b c1		 mov	 eax, ecx

; 62   : 		return 0;
; 63   : 
; 64   : 	return 1;
; 65   : }

  00021	c3		 ret	 0
?Setup@CFileLoaderThread@@IAEIXZ ENDP			; CFileLoaderThread::Setup
_TEXT	ENDS
; Function compile flags: /Ogtp
; File C:\Users\murat\Desktop\Siveps2-1-99-Project\source\client\Client\EterLib\FileLoaderThread.cpp
;	COMDAT ?Run@CFileLoaderThread@@IAEIPAX@Z
_TEXT	SEGMENT
_arg$ = 8						; size = 4
?Run@CFileLoaderThread@@IAEIPAX@Z PROC			; CFileLoaderThread::Run, COMDAT
; _this$ = ecx

; 28   : {

  00000	55		 push	 ebp
  00001	8b ec		 mov	 ebp, esp
  00003	56		 push	 esi
  00004	8b f1		 mov	 esi, ecx

; 29   : 	if (!Setup())

  00006	e8 00 00 00 00	 call	 ?Setup@CFileLoaderThread@@IAEIXZ ; CFileLoaderThread::Setup
  0000b	85 c0		 test	 eax, eax
  0000d	75 05		 jne	 SHORT $LN2@Run
  0000f	5e		 pop	 esi

; 33   : }

  00010	5d		 pop	 ebp
  00011	c2 04 00	 ret	 4
$LN2@Run:

; 30   : 		return 0;
; 31   : 
; 32   : 	return (Execute(arg));

  00014	ff 75 08	 push	 DWORD PTR _arg$[ebp]
  00017	8b ce		 mov	 ecx, esi
  00019	e8 00 00 00 00	 call	 ?Execute@CFileLoaderThread@@IAEIPAX@Z ; CFileLoaderThread::Execute
  0001e	5e		 pop	 esi

; 33   : }

  0001f	5d		 pop	 ebp
  00020	c2 04 00	 ret	 4
?Run@CFileLoaderThread@@IAEIPAX@Z ENDP			; CFileLoaderThread::Run
_TEXT	ENDS
; Function compile flags: /Ogtp
; File C:\Users\murat\Desktop\Siveps2-1-99-Project\source\client\Client\EterLib\FileLoaderThread.cpp
;	COMDAT ?EntryPoint@CFileLoaderThread@@KGIPAX@Z
_TEXT	SEGMENT
_pThis$ = 8						; size = 4
?EntryPoint@CFileLoaderThread@@KGIPAX@Z PROC		; CFileLoaderThread::EntryPoint, COMDAT

; 37   : {

  00000	55		 push	 ebp
  00001	8b ec		 mov	 ebp, esp

; 38   : 	CFileLoaderThread * pThread = (CFileLoaderThread *) pThis;
; 39   : 	return pThread->Run(pThread->Arg());

  00003	8b 4d 08	 mov	 ecx, DWORD PTR _pThis$[ebp]
  00006	ff 71 04	 push	 DWORD PTR [ecx+4]
  00009	e8 00 00 00 00	 call	 ?Run@CFileLoaderThread@@IAEIPAX@Z ; CFileLoaderThread::Run

; 40   : }

  0000e	5d		 pop	 ebp
  0000f	c2 04 00	 ret	 4
?EntryPoint@CFileLoaderThread@@KGIPAX@Z ENDP		; CFileLoaderThread::EntryPoint
_TEXT	ENDS
; Function compile flags: /Ogtp
; File C:\Users\murat\Desktop\Siveps2-1-99-Project\source\client\Client\EterLib\FileLoaderThread.cpp
;	COMDAT ?Shutdown@CFileLoaderThread@@QAEXXZ
_TEXT	SEGMENT
?Shutdown@CFileLoaderThread@@QAEXXZ PROC		; CFileLoaderThread::Shutdown, COMDAT
; _this$ = ecx

; 68   : {

  00000	56		 push	 esi
  00001	8b f1		 mov	 esi, ecx

; 69   : 	if (!m_hSemaphore)

  00003	83 7e 64 00	 cmp	 DWORD PTR [esi+100], 0
  00007	74 26		 je	 SHORT $LN1@Shutdown

; 70   : 		return;
; 71   : 
; 72   : 	BOOL bRet;
; 73   : 
; 74   : 	m_bShutdowned = true;

  00009	57		 push	 edi
  0000a	8b 3d 00 00 00
	00		 mov	 edi, DWORD PTR __imp__ReleaseSemaphore@12
  00010	c6 46 6c 01	 mov	 BYTE PTR [esi+108], 1
$LL4@Shutdown:

; 75   : 
; 76   : 	do
; 77   : 	{
; 78   : 		bRet = ReleaseSemaphore(m_hSemaphore, 1, NULL);

  00014	6a 00		 push	 0
  00016	6a 01		 push	 1
  00018	ff 76 64	 push	 DWORD PTR [esi+100]
  0001b	ff d7		 call	 edi

; 79   : 	}
; 80   : 	while (!bRet);

  0001d	85 c0		 test	 eax, eax
  0001f	74 f3		 je	 SHORT $LL4@Shutdown

; 81   : 
; 82   : 	WaitForSingleObject(m_hThread, 10000);	//    10 

  00021	68 10 27 00 00	 push	 10000			; 00002710H
  00026	ff 36		 push	 DWORD PTR [esi]
  00028	ff 15 00 00 00
	00		 call	 DWORD PTR __imp__WaitForSingleObject@8
  0002e	5f		 pop	 edi
$LN1@Shutdown:

; 83   : }

  0002f	5e		 pop	 esi
  00030	c3		 ret	 0
?Shutdown@CFileLoaderThread@@QAEXXZ ENDP		; CFileLoaderThread::Shutdown
_TEXT	ENDS
; Function compile flags: /Ogtp
; File C:\Users\murat\Desktop\Siveps2-1-99-Project\source\client\Client\EterLib\FileLoaderThread.cpp
; File C:\Program Files (x86)\Microsoft Visual Studio\2019\Professional\VC\Tools\MSVC\14.29.30133\include\deque
; File C:\Users\murat\Desktop\Siveps2-1-99-Project\source\client\Client\EterLib\FileLoaderThread.cpp
; File C:\Program Files (x86)\Microsoft Visual Studio\2019\Professional\VC\Tools\MSVC\14.29.30133\include\deque
; File C:\Users\murat\Desktop\Siveps2-1-99-Project\source\client\Client\EterLib\FileLoaderThread.cpp
; File C:\Program Files (x86)\Microsoft Visual Studio\2019\Professional\VC\Tools\MSVC\14.29.30133\include\deque
; File C:\Users\murat\Desktop\Siveps2-1-99-Project\source\client\Client\EterLib\FileLoaderThread.cpp
; File C:\Program Files (x86)\Microsoft Visual Studio\2019\Professional\VC\Tools\MSVC\14.29.30133\include\deque
; File C:\Users\murat\Desktop\Siveps2-1-99-Project\source\client\Client\EterLib\FileLoaderThread.cpp
; File C:\Program Files (x86)\Microsoft Visual Studio\2019\Professional\VC\Tools\MSVC\14.29.30133\include\deque
; File C:\Users\murat\Desktop\Siveps2-1-99-Project\source\client\Client\EterLib\FileLoaderThread.cpp
;	COMDAT ?Fetch@CFileLoaderThread@@QAE_NPAPAUSData@1@@Z
_TEXT	SEGMENT
_ppData$ = 8						; size = 4
?Fetch@CFileLoaderThread@@QAE_NPAPAUSData@1@@Z PROC	; CFileLoaderThread::Fetch, COMDAT
; _this$ = ecx

; 135  : {

  00000	55		 push	 ebp
  00001	8b ec		 mov	 ebp, esp
  00003	56		 push	 esi
  00004	8b f1		 mov	 esi, ecx
  00006	57		 push	 edi

; 136  : 	m_CompleteMutex.Lock();

  00007	8d 4e 4c	 lea	 ecx, DWORD PTR [esi+76]
  0000a	e8 00 00 00 00	 call	 ?Lock@Mutex@@QAEXXZ	; Mutex::Lock
; File C:\Program Files (x86)\Microsoft Visual Studio\2019\Professional\VC\Tools\MSVC\14.29.30133\include\deque

; 1009 :         return _Mysize() == 0;

  0000f	83 7e 48 00	 cmp	 DWORD PTR [esi+72], 0
; File C:\Users\murat\Desktop\Siveps2-1-99-Project\source\client\Client\EterLib\FileLoaderThread.cpp

; 138  : 	if (m_pCompleteDeque.empty())

  00013	75 10		 jne	 SHORT $LN2@Fetch

; 139  : 	{
; 140  : 		m_CompleteMutex.Unlock();

  00015	8d 4e 4c	 lea	 ecx, DWORD PTR [esi+76]
  00018	e8 00 00 00 00	 call	 ?Unlock@Mutex@@QAEXXZ	; Mutex::Unlock
  0001d	5f		 pop	 edi

; 141  : 		return false;

  0001e	32 c0		 xor	 al, al

; 149  : }

  00020	5e		 pop	 esi
  00021	5d		 pop	 ebp
  00022	c2 04 00	 ret	 4
$LN2@Fetch:
; File C:\Program Files (x86)\Microsoft Visual Studio\2019\Professional\VC\Tools\MSVC\14.29.30133\include\deque

; 44   :         : _Mycont(static_cast<const _Mydeque*>(_Pdeque)), _Myoff(_Off) {}

  00025	8b 56 44	 mov	 edx, DWORD PTR [esi+68]

; 565  :         return (_Off / _Block_size) & (_Mapsize - 1);

  00028	8b c2		 mov	 eax, edx
  0002a	8b 4e 40	 mov	 ecx, DWORD PTR [esi+64]

; 48   :         _Size_type _Off   = _Myoff % _Block_size;

  0002d	83 e2 03	 and	 edx, 3

; 565  :         return (_Off / _Block_size) & (_Mapsize - 1);

  00030	c1 e8 02	 shr	 eax, 2
  00033	49		 dec	 ecx
  00034	23 c8		 and	 ecx, eax
; File C:\Users\murat\Desktop\Siveps2-1-99-Project\source\client\Client\EterLib\FileLoaderThread.cpp

; 144  : 	*ppData = m_pCompleteDeque.front();

  00036	8b 46 3c	 mov	 eax, DWORD PTR [esi+60]
  00039	8b 04 88	 mov	 eax, DWORD PTR [eax+ecx*4]
  0003c	8b 0c 90	 mov	 ecx, DWORD PTR [eax+edx*4]
  0003f	8b 45 08	 mov	 eax, DWORD PTR _ppData$[ebp]
  00042	89 08		 mov	 DWORD PTR [eax], ecx
; File C:\Program Files (x86)\Microsoft Visual Studio\2019\Professional\VC\Tools\MSVC\14.29.30133\include\deque

; 1102 :         if (--_Mysize() == 0) {

  00044	83 46 48 ff	 add	 DWORD PTR [esi+72], -1
  00048	75 17		 jne	 SHORT $LN21@Fetch
; File C:\Users\murat\Desktop\Siveps2-1-99-Project\source\client\Client\EterLib\FileLoaderThread.cpp

; 147  : 	m_CompleteMutex.Unlock();

  0004a	8d 4e 4c	 lea	 ecx, DWORD PTR [esi+76]
; File C:\Program Files (x86)\Microsoft Visual Studio\2019\Professional\VC\Tools\MSVC\14.29.30133\include\deque

; 1103 :             _Myoff() = 0;

  0004d	c7 46 44 00 00
	00 00		 mov	 DWORD PTR [esi+68], 0
; File C:\Users\murat\Desktop\Siveps2-1-99-Project\source\client\Client\EterLib\FileLoaderThread.cpp

; 147  : 	m_CompleteMutex.Unlock();

  00054	e8 00 00 00 00	 call	 ?Unlock@Mutex@@QAEXXZ	; Mutex::Unlock
  00059	5f		 pop	 edi

; 148  : 	return true;

  0005a	b0 01		 mov	 al, 1

; 149  : }

  0005c	5e		 pop	 esi
  0005d	5d		 pop	 ebp
  0005e	c2 04 00	 ret	 4
$LN21@Fetch:
; File C:\Program Files (x86)\Microsoft Visual Studio\2019\Professional\VC\Tools\MSVC\14.29.30133\include\deque

; 1105 :             ++_Myoff();

  00061	ff 46 44	 inc	 DWORD PTR [esi+68]
; File C:\Users\murat\Desktop\Siveps2-1-99-Project\source\client\Client\EterLib\FileLoaderThread.cpp

; 147  : 	m_CompleteMutex.Unlock();

  00064	8d 4e 4c	 lea	 ecx, DWORD PTR [esi+76]
  00067	e8 00 00 00 00	 call	 ?Unlock@Mutex@@QAEXXZ	; Mutex::Unlock
  0006c	5f		 pop	 edi

; 148  : 	return true;

  0006d	b0 01		 mov	 al, 1

; 149  : }

  0006f	5e		 pop	 esi
  00070	5d		 pop	 ebp
  00071	c2 04 00	 ret	 4
?Fetch@CFileLoaderThread@@QAE_NPAPAUSData@1@@Z ENDP	; CFileLoaderThread::Fetch
_TEXT	ENDS
; Function compile flags: /Ogtp
; File C:\Users\murat\Desktop\Siveps2-1-99-Project\source\client\Client\EterLib\FileLoaderThread.cpp
; File C:\Program Files (x86)\Microsoft Visual Studio\2019\Professional\VC\Tools\MSVC\14.29.30133\include\xstring
; File C:\Users\murat\Desktop\Siveps2-1-99-Project\source\client\Client\EterLib\FileLoaderThread.cpp
; File C:\Program Files (x86)\Microsoft Visual Studio\2019\Professional\VC\Tools\MSVC\14.29.30133\include\xstring
; File C:\Users\murat\Desktop\Siveps2-1-99-Project\source\client\Client\EterLib\FileLoaderThread.cpp
; File C:\Program Files (x86)\Microsoft Visual Studio\2019\Professional\VC\Tools\MSVC\14.29.30133\include\xstring
; File C:\Users\murat\Desktop\Siveps2-1-99-Project\source\client\Client\EterLib\FileLoaderThread.cpp
;	COMDAT ?Request@CFileLoaderThread@@QAEXAAV?$basic_string@DU?$char_traits@D@std@@V?$allocator@D@2@@std@@@Z
_TEXT	SEGMENT
$T2 = -16						; size = 4
_pData$ = -16						; size = 4
__$EHRec$ = -12						; size = 12
_c_rstFileName$ = 8					; size = 4
?Request@CFileLoaderThread@@QAEXAAV?$basic_string@DU?$char_traits@D@std@@V?$allocator@D@2@@std@@@Z PROC ; CFileLoaderThread::Request, COMDAT
; _this$ = ecx

; 115  : {

  00000	55		 push	 ebp
  00001	8b ec		 mov	 ebp, esp
  00003	6a ff		 push	 -1
  00005	68 00 00 00 00	 push	 __ehhandler$?Request@CFileLoaderThread@@QAEXAAV?$basic_string@DU?$char_traits@D@std@@V?$allocator@D@2@@std@@@Z
  0000a	64 a1 00 00 00
	00		 mov	 eax, DWORD PTR fs:0
  00010	50		 push	 eax
  00011	51		 push	 ecx
  00012	56		 push	 esi
  00013	57		 push	 edi
  00014	a1 00 00 00 00	 mov	 eax, DWORD PTR ___security_cookie
  00019	33 c5		 xor	 eax, ebp
  0001b	50		 push	 eax
  0001c	8d 45 f4	 lea	 eax, DWORD PTR __$EHRec$[ebp]
  0001f	64 a3 00 00 00
	00		 mov	 DWORD PTR fs:0, eax
  00025	8b f9		 mov	 edi, ecx

; 116  : 	TData * pData = new TData;

  00027	68 64 01 00 00	 push	 356			; 00000164H
  0002c	e8 00 00 00 00	 call	 ??2@YAPAXI@Z		; operator new
  00031	8b f0		 mov	 esi, eax
  00033	83 c4 04	 add	 esp, 4
  00036	89 75 f0	 mov	 DWORD PTR $T2[ebp], esi
  00039	c7 45 fc 00 00
	00 00		 mov	 DWORD PTR __$EHRec$[ebp+8], 0
  00040	85 f6		 test	 esi, esi
  00042	74 25		 je	 SHORT $LN4@Request
; File C:\Program Files (x86)\Microsoft Visual Studio\2019\Professional\VC\Tools\MSVC\14.29.30133\include\xstring

; 2346 :         _CONSTEXPR20_CONTAINER _Bxty() noexcept : _Ptr() {} // user-provided, for fancy pointers

  00044	c7 06 00 00 00
	00		 mov	 DWORD PTR [esi], 0

; 4596 :         _My_data._Mysize = 0;

  0004a	c7 46 10 00 00
	00 00		 mov	 DWORD PTR [esi+16], 0

; 4597 : 
; 4598 : #ifdef __cpp_lib_constexpr_string
; 4599 :         if (_STD is_constant_evaluated()) {
; 4600 :             _My_data._Myres        = _BUF_SIZE; // SSO disabled in constexpr context
; 4601 :             auto& _Al              = _Getal();
; 4602 :             const pointer _New_ptr = _Al.allocate(_BUF_SIZE + 1); // throws
; 4603 :             _My_data._Bx._Ptr      = _New_ptr;
; 4604 : 
; 4605 :             _Elem* const _Raw_new = _Unfancy(_New_ptr);
; 4606 :             _Traits::assign(_Raw_new, _BUF_SIZE + 1, _Elem());
; 4607 :         } else
; 4608 : #endif // __cpp_lib_constexpr_string
; 4609 :         {
; 4610 :             _My_data._Myres = _BUF_SIZE - 1;

  00051	c7 46 14 0f 00
	00 00		 mov	 DWORD PTR [esi+20], 15	; 0000000fH

; 4611 :             // the _Traits::assign is last so the codegen doesn't think the char write can alias this
; 4612 :             _Traits::assign(_My_data._Bx._Buf[0], _Elem());

  00058	c6 06 00	 mov	 BYTE PTR [esi], 0
  0005b	8d 4e 18	 lea	 ecx, DWORD PTR [esi+24]
  0005e	c6 45 fc 01	 mov	 BYTE PTR __$EHRec$[ebp+8], 1
  00062	e8 00 00 00 00	 call	 ??0CMappedFile@@QAE@XZ	; CMappedFile::CMappedFile
; File C:\Users\murat\Desktop\Siveps2-1-99-Project\source\client\Client\EterLib\FileLoaderThread.cpp

; 116  : 	TData * pData = new TData;

  00067	eb 02		 jmp	 SHORT $LN5@Request
$LN4@Request:
  00069	33 f6		 xor	 esi, esi
$LN5@Request:
; File C:\Program Files (x86)\Microsoft Visual Studio\2019\Professional\VC\Tools\MSVC\14.29.30133\include\xstring

; 3077 :         if (this != _STD addressof(_Right)) {

  0006b	8b 45 08	 mov	 eax, DWORD PTR _c_rstFileName$[ebp]
; File C:\Users\murat\Desktop\Siveps2-1-99-Project\source\client\Client\EterLib\FileLoaderThread.cpp

; 118  : 	pData->dwSize = 0;

  0006e	c7 86 60 01 00
	00 00 00 00 00	 mov	 DWORD PTR [esi+352], 0
  00078	c7 45 fc ff ff
	ff ff		 mov	 DWORD PTR __$EHRec$[ebp+8], -1
  0007f	89 75 f0	 mov	 DWORD PTR _pData$[ebp], esi

; 119  : 	pData->pvBuf = NULL;

  00082	c7 86 5c 01 00
	00 00 00 00 00	 mov	 DWORD PTR [esi+348], 0
; File C:\Program Files (x86)\Microsoft Visual Studio\2019\Professional\VC\Tools\MSVC\14.29.30133\include\xstring

; 3077 :         if (this != _STD addressof(_Right)) {

  0008c	3b f0		 cmp	 esi, eax
  0008e	74 15		 je	 SHORT $LN25@Request

; 2319 :         return _BUF_SIZE <= _Myres;

  00090	83 78 14 10	 cmp	 DWORD PTR [eax+20], 16	; 00000010H

; 2305 :         const value_type* _Result = _Bx._Buf;

  00094	8b c8		 mov	 ecx, eax

; 2306 :         if (_Large_string_engaged()) {

  00096	72 02		 jb	 SHORT $LN30@Request

; 2307 :             _Result = _Unfancy(_Bx._Ptr);

  00098	8b 08		 mov	 ecx, DWORD PTR [eax]
$LN30@Request:

; 3035 :         assign(_Right._Mypair._Myval2._Myptr(), _Right._Mypair._Myval2._Mysize);

  0009a	ff 70 10	 push	 DWORD PTR [eax+16]
  0009d	51		 push	 ecx
  0009e	8b ce		 mov	 ecx, esi
  000a0	e8 00 00 00 00	 call	 ?assign@?$basic_string@DU?$char_traits@D@std@@V?$allocator@D@2@@std@@QAEAAV12@QBDI@Z ; std::basic_string<char,std::char_traits<char>,std::allocator<char> >::assign
$LN25@Request:
; File C:\Users\murat\Desktop\Siveps2-1-99-Project\source\client\Client\EterLib\FileLoaderThread.cpp

; 122  : 	m_RequestMutex.Lock();

  000a5	8d 4f 20	 lea	 ecx, DWORD PTR [edi+32]
  000a8	e8 00 00 00 00	 call	 ?Lock@Mutex@@QAEXXZ	; Mutex::Lock

; 123  : 	m_pRequestDeque.push_back(pData);

  000ad	8d 45 f0	 lea	 eax, DWORD PTR _pData$[ebp]
  000b0	50		 push	 eax
  000b1	8d 4f 0c	 lea	 ecx, DWORD PTR [edi+12]
  000b4	e8 00 00 00 00	 call	 ?push_back@?$deque@PAUSData@CFileLoaderThread@@V?$allocator@PAUSData@CFileLoaderThread@@@std@@@std@@QAEXABQAUSData@CFileLoaderThread@@@Z ; std::deque<CFileLoaderThread::SData *,std::allocator<CFileLoaderThread::SData *> >::push_back

; 124  : 	m_RequestMutex.Unlock();

  000b9	8d 4f 20	 lea	 ecx, DWORD PTR [edi+32]
  000bc	e8 00 00 00 00	 call	 ?Unlock@Mutex@@QAEXXZ	; Mutex::Unlock

; 125  : 
; 126  : 	++m_iRestSemCount;

  000c1	ff 47 68	 inc	 DWORD PTR [edi+104]

; 127  : 
; 128  : 	if (!ReleaseSemaphore(m_hSemaphore, m_iRestSemCount, NULL))

  000c4	6a 00		 push	 0
  000c6	ff 77 68	 push	 DWORD PTR [edi+104]
  000c9	ff 77 64	 push	 DWORD PTR [edi+100]
  000cc	ff 15 00 00 00
	00		 call	 DWORD PTR __imp__ReleaseSemaphore@12
  000d2	85 c0		 test	 eax, eax
  000d4	75 0d		 jne	 SHORT $LN34@Request

; 129  : 		TraceError("CFileLoaderThread::Request: ReleaseSemaphore error");

  000d6	68 00 00 00 00	 push	 OFFSET ??_C@_0DD@FFGDMIEH@CFileLoaderThread?3?3Request?3?5Rel@
  000db	e8 00 00 00 00	 call	 ?TraceError@@YAXPBDZZ	; TraceError
  000e0	83 c4 04	 add	 esp, 4
$LN34@Request:

; 130  : 
; 131  : 	--m_iRestSemCount;
; 132  : }

  000e3	ff 4f 68	 dec	 DWORD PTR [edi+104]
  000e6	8b 4d f4	 mov	 ecx, DWORD PTR __$EHRec$[ebp]
  000e9	64 89 0d 00 00
	00 00		 mov	 DWORD PTR fs:0, ecx
  000f0	59		 pop	 ecx
  000f1	5f		 pop	 edi
  000f2	5e		 pop	 esi
  000f3	8b e5		 mov	 esp, ebp
  000f5	5d		 pop	 ebp
  000f6	c2 04 00	 ret	 4
_TEXT	ENDS
;	COMDAT text$x
text$x	SEGMENT
__unwindfunclet$?Request@CFileLoaderThread@@QAEXAAV?$basic_string@DU?$char_traits@D@std@@V?$allocator@D@2@@std@@@Z$0:
  00000	68 64 01 00 00	 push	 356			; 00000164H
  00005	8b 45 f0	 mov	 eax, DWORD PTR $T2[ebp]
  00008	50		 push	 eax
  00009	e8 00 00 00 00	 call	 ??3@YAXPAXI@Z		; operator delete
  0000e	83 c4 08	 add	 esp, 8
  00011	c3		 ret	 0
__unwindfunclet$?Request@CFileLoaderThread@@QAEXAAV?$basic_string@DU?$char_traits@D@std@@V?$allocator@D@2@@std@@@Z$1:
  00012	8b 4d f0	 mov	 ecx, DWORD PTR $T2[ebp]
  00015	e9 00 00 00 00	 jmp	 ??1?$basic_string@DU?$char_traits@D@std@@V?$allocator@D@2@@std@@QAE@XZ ; std::basic_string<char,std::char_traits<char>,std::allocator<char> >::~basic_string<char,std::char_traits<char>,std::allocator<char> >
  0001a	cc		 int	 3
  0001b	cc		 int	 3
  0001c	cc		 int	 3
  0001d	cc		 int	 3
  0001e	cc		 int	 3
__ehhandler$?Request@CFileLoaderThread@@QAEXAAV?$basic_string@DU?$char_traits@D@std@@V?$allocator@D@2@@std@@@Z:
  0001f	90		 npad	 1
  00020	90		 npad	 1
  00021	8b 54 24 08	 mov	 edx, DWORD PTR [esp+8]
  00025	8d 42 0c	 lea	 eax, DWORD PTR [edx+12]
  00028	8b 4a f0	 mov	 ecx, DWORD PTR [edx-16]
  0002b	33 c8		 xor	 ecx, eax
  0002d	e8 00 00 00 00	 call	 @__security_check_cookie@4
  00032	b8 00 00 00 00	 mov	 eax, OFFSET __ehfuncinfo$?Request@CFileLoaderThread@@QAEXAAV?$basic_string@DU?$char_traits@D@std@@V?$allocator@D@2@@std@@@Z
  00037	e9 00 00 00 00	 jmp	 ___CxxFrameHandler3
text$x	ENDS
?Request@CFileLoaderThread@@QAEXAAV?$basic_string@DU?$char_traits@D@std@@V?$allocator@D@2@@std@@@Z ENDP ; CFileLoaderThread::Request
; Function compile flags: /Ogtp
; File C:\Users\murat\Desktop\Siveps2-1-99-Project\source\client\Client\EterLib\FileLoaderThread.cpp
;	COMDAT ?Create@CFileLoaderThread@@QAEHPAX@Z
_TEXT	SEGMENT
_arg$ = 8						; size = 4
?Create@CFileLoaderThread@@QAEHPAX@Z PROC		; CFileLoaderThread::Create, COMDAT
; _this$ = ecx

; 16   : {

  00000	55		 push	 ebp
  00001	8b ec		 mov	 ebp, esp

; 17   : 	Arg(arg);

  00003	8b 45 08	 mov	 eax, DWORD PTR _arg$[ebp]
  00006	56		 push	 esi
  00007	8b f1		 mov	 esi, ecx
  00009	89 46 04	 mov	 DWORD PTR [esi+4], eax

; 18   : 	m_hThread = (HANDLE) _beginthreadex(NULL, 0, EntryPoint, this, 0, &m_uThreadID);

  0000c	8d 46 08	 lea	 eax, DWORD PTR [esi+8]
  0000f	50		 push	 eax
  00010	6a 00		 push	 0
  00012	56		 push	 esi
  00013	68 00 00 00 00	 push	 OFFSET ?EntryPoint@CFileLoaderThread@@KGIPAX@Z ; CFileLoaderThread::EntryPoint
  00018	6a 00		 push	 0
  0001a	6a 00		 push	 0
  0001c	e8 00 00 00 00	 call	 __beginthreadex
  00021	83 c4 18	 add	 esp, 24			; 00000018H
  00024	89 06		 mov	 DWORD PTR [esi], eax
  00026	5e		 pop	 esi

; 19   : 
; 20   : 	if (!m_hThread)

  00027	85 c0		 test	 eax, eax
  00029	75 04		 jne	 SHORT $LN2@Create

; 25   : }

  0002b	5d		 pop	 ebp
  0002c	c2 04 00	 ret	 4
$LN2@Create:

; 21   : 		return false;
; 22   : 
; 23   : 	SetThreadPriority(m_hThread, THREAD_PRIORITY_NORMAL);

  0002f	6a 00		 push	 0
  00031	50		 push	 eax
  00032	ff 15 00 00 00
	00		 call	 DWORD PTR __imp__SetThreadPriority@8

; 24   : 	return true;

  00038	b8 01 00 00 00	 mov	 eax, 1

; 25   : }

  0003d	5d		 pop	 ebp
  0003e	c2 04 00	 ret	 4
?Create@CFileLoaderThread@@QAEHPAX@Z ENDP		; CFileLoaderThread::Create
_TEXT	ENDS
; Function compile flags: /Ogtp
; File C:\Users\murat\Desktop\Siveps2-1-99-Project\source\client\Client\EterLib\FileLoaderThread.cpp
; File C:\Program Files (x86)\Microsoft Visual Studio\2019\Professional\VC\Tools\MSVC\14.29.30133\include\deque
; File C:\Program Files (x86)\Microsoft Visual Studio\2019\Professional\VC\Tools\MSVC\14.29.30133\include\utility
; File C:\Program Files (x86)\Microsoft Visual Studio\2019\Professional\VC\Tools\MSVC\14.29.30133\include\xmemory
; File C:\Program Files (x86)\Microsoft Visual Studio\2019\Professional\VC\Tools\MSVC\14.29.30133\include\utility
; File C:\Program Files (x86)\Microsoft Visual Studio\2019\Professional\VC\Tools\MSVC\14.29.30133\include\xmemory
; File C:\Users\murat\Desktop\Siveps2-1-99-Project\source\client\Client\EterLib\FileLoaderThread.cpp
; File C:\Program Files (x86)\Microsoft Visual Studio\2019\Professional\VC\Tools\MSVC\14.29.30133\include\deque
; File C:\Program Files (x86)\Microsoft Visual Studio\2019\Professional\VC\Tools\MSVC\14.29.30133\include\utility
; File C:\Program Files (x86)\Microsoft Visual Studio\2019\Professional\VC\Tools\MSVC\14.29.30133\include\xmemory
; File C:\Program Files (x86)\Microsoft Visual Studio\2019\Professional\VC\Tools\MSVC\14.29.30133\include\utility
; File C:\Program Files (x86)\Microsoft Visual Studio\2019\Professional\VC\Tools\MSVC\14.29.30133\include\xmemory
; File C:\Users\murat\Desktop\Siveps2-1-99-Project\source\client\Client\EterLib\FileLoaderThread.cpp
;	COMDAT ??1CFileLoaderThread@@QAE@XZ
_TEXT	SEGMENT
??1CFileLoaderThread@@QAE@XZ PROC			; CFileLoaderThread::~CFileLoaderThread, COMDAT
; _this$ = ecx

; 11   : {

  00000	56		 push	 esi
  00001	57		 push	 edi
  00002	8b f9		 mov	 edi, ecx

; 12   : 	Destroy();

  00004	e8 00 00 00 00	 call	 ?Destroy@CFileLoaderThread@@IAEXXZ ; CFileLoaderThread::Destroy

; 13   : }

  00009	8d 4f 4c	 lea	 ecx, DWORD PTR [edi+76]
  0000c	e8 00 00 00 00	 call	 ??1Mutex@@QAE@XZ	; Mutex::~Mutex
; File C:\Program Files (x86)\Microsoft Visual Studio\2019\Professional\VC\Tools\MSVC\14.29.30133\include\deque

; 868  :         _Tidy();

  00011	8d 4f 38	 lea	 ecx, DWORD PTR [edi+56]
  00014	e8 00 00 00 00	 call	 ?_Tidy@?$deque@PAUSData@CFileLoaderThread@@V?$allocator@PAUSData@CFileLoaderThread@@@std@@@std@@AAEXXZ ; std::deque<CFileLoaderThread::SData *,std::allocator<CFileLoaderThread::SData *> >::_Tidy
; File C:\Program Files (x86)\Microsoft Visual Studio\2019\Professional\VC\Tools\MSVC\14.29.30133\include\utility

; 616  :     _Ty _Old_val = static_cast<_Ty&&>(_Val);

  00019	8b 47 38	 mov	 eax, DWORD PTR [edi+56]
; File C:\Program Files (x86)\Microsoft Visual Studio\2019\Professional\VC\Tools\MSVC\14.29.30133\include\xmemory

; 264  :         ::operator delete(_Ptr, _Bytes);

  0001c	6a 08		 push	 8
  0001e	50		 push	 eax
; File C:\Program Files (x86)\Microsoft Visual Studio\2019\Professional\VC\Tools\MSVC\14.29.30133\include\utility

; 617  :     _Val         = static_cast<_Other&&>(_New_val);

  0001f	c7 47 38 00 00
	00 00		 mov	 DWORD PTR [edi+56], 0
; File C:\Program Files (x86)\Microsoft Visual Studio\2019\Professional\VC\Tools\MSVC\14.29.30133\include\xmemory

; 264  :         ::operator delete(_Ptr, _Bytes);

  00026	e8 00 00 00 00	 call	 ??3@YAXPAXI@Z		; operator delete
  0002b	83 c4 08	 add	 esp, 8
; File C:\Users\murat\Desktop\Siveps2-1-99-Project\source\client\Client\EterLib\FileLoaderThread.cpp

; 13   : }

  0002e	8d 4f 20	 lea	 ecx, DWORD PTR [edi+32]
  00031	e8 00 00 00 00	 call	 ??1Mutex@@QAE@XZ	; Mutex::~Mutex
; File C:\Program Files (x86)\Microsoft Visual Studio\2019\Professional\VC\Tools\MSVC\14.29.30133\include\deque

; 868  :         _Tidy();

  00036	8d 4f 0c	 lea	 ecx, DWORD PTR [edi+12]
  00039	e8 00 00 00 00	 call	 ?_Tidy@?$deque@PAUSData@CFileLoaderThread@@V?$allocator@PAUSData@CFileLoaderThread@@@std@@@std@@AAEXXZ ; std::deque<CFileLoaderThread::SData *,std::allocator<CFileLoaderThread::SData *> >::_Tidy
; File C:\Program Files (x86)\Microsoft Visual Studio\2019\Professional\VC\Tools\MSVC\14.29.30133\include\utility

; 616  :     _Ty _Old_val = static_cast<_Ty&&>(_Val);

  0003e	8b 47 0c	 mov	 eax, DWORD PTR [edi+12]
; File C:\Program Files (x86)\Microsoft Visual Studio\2019\Professional\VC\Tools\MSVC\14.29.30133\include\xmemory

; 264  :         ::operator delete(_Ptr, _Bytes);

  00041	6a 08		 push	 8
  00043	50		 push	 eax
; File C:\Program Files (x86)\Microsoft Visual Studio\2019\Professional\VC\Tools\MSVC\14.29.30133\include\utility

; 617  :     _Val         = static_cast<_Other&&>(_New_val);

  00044	c7 47 0c 00 00
	00 00		 mov	 DWORD PTR [edi+12], 0
; File C:\Program Files (x86)\Microsoft Visual Studio\2019\Professional\VC\Tools\MSVC\14.29.30133\include\xmemory

; 264  :         ::operator delete(_Ptr, _Bytes);

  0004b	e8 00 00 00 00	 call	 ??3@YAXPAXI@Z		; operator delete
  00050	83 c4 08	 add	 esp, 8
  00053	5f		 pop	 edi
  00054	5e		 pop	 esi
; File C:\Users\murat\Desktop\Siveps2-1-99-Project\source\client\Client\EterLib\FileLoaderThread.cpp

; 13   : }

  00055	c3		 ret	 0
??1CFileLoaderThread@@QAE@XZ ENDP			; CFileLoaderThread::~CFileLoaderThread
_TEXT	ENDS
; Function compile flags: /Ogtp
; File C:\Users\murat\Desktop\Siveps2-1-99-Project\source\client\Client\EterLib\FileLoaderThread.cpp
; File C:\Program Files (x86)\Microsoft Visual Studio\2019\Professional\VC\Tools\MSVC\14.29.30133\include\xmemory
; File C:\Program Files (x86)\Microsoft Visual Studio\2019\Professional\VC\Tools\MSVC\14.29.30133\include\deque
; File C:\Program Files (x86)\Microsoft Visual Studio\2019\Professional\VC\Tools\MSVC\14.29.30133\include\xmemory
; File C:\Users\murat\Desktop\Siveps2-1-99-Project\source\client\Client\EterLib\FileLoaderThread.cpp
; File C:\Program Files (x86)\Microsoft Visual Studio\2019\Professional\VC\Tools\MSVC\14.29.30133\include\xmemory
; File C:\Program Files (x86)\Microsoft Visual Studio\2019\Professional\VC\Tools\MSVC\14.29.30133\include\deque
; File C:\Program Files (x86)\Microsoft Visual Studio\2019\Professional\VC\Tools\MSVC\14.29.30133\include\xmemory
; File C:\Users\murat\Desktop\Siveps2-1-99-Project\source\client\Client\EterLib\FileLoaderThread.cpp
;	COMDAT ??0CFileLoaderThread@@QAE@XZ
_TEXT	SEGMENT
_this$ = -16						; size = 4
__$EHRec$ = -12						; size = 12
??0CFileLoaderThread@@QAE@XZ PROC			; CFileLoaderThread::CFileLoaderThread, COMDAT
; _this$ = ecx

; 7    : {

  00000	55		 push	 ebp
  00001	8b ec		 mov	 ebp, esp
  00003	6a ff		 push	 -1
  00005	68 00 00 00 00	 push	 __ehhandler$??0CFileLoaderThread@@QAE@XZ
  0000a	64 a1 00 00 00
	00		 mov	 eax, DWORD PTR fs:0
  00010	50		 push	 eax
  00011	51		 push	 ecx
  00012	56		 push	 esi
  00013	57		 push	 edi
  00014	a1 00 00 00 00	 mov	 eax, DWORD PTR ___security_cookie
  00019	33 c5		 xor	 eax, ebp
  0001b	50		 push	 eax
  0001c	8d 45 f4	 lea	 eax, DWORD PTR __$EHRec$[ebp]
  0001f	64 a3 00 00 00
	00		 mov	 DWORD PTR fs:0, eax
  00025	8b f9		 mov	 edi, ecx
  00027	89 7d f0	 mov	 DWORD PTR _this$[ebp], edi

; 6    : CFileLoaderThread::CFileLoaderThread() : m_bShutdowned(false), m_pArg(NULL), m_hThread(NULL), m_uThreadID(0)

  0002a	c7 07 00 00 00
	00		 mov	 DWORD PTR [edi], 0

; 7    : {

  00030	8d 77 0c	 lea	 esi, DWORD PTR [edi+12]
  00033	c7 47 04 00 00
	00 00		 mov	 DWORD PTR [edi+4], 0
  0003a	c7 47 08 00 00
	00 00		 mov	 DWORD PTR [edi+8], 0
; File C:\Program Files (x86)\Microsoft Visual Studio\2019\Professional\VC\Tools\MSVC\14.29.30133\include\xmemory

; 85   :         return ::operator new(_Bytes);

  00041	6a 08		 push	 8

; 1089 :     _Container_proxy* _Myproxy = nullptr;

  00043	c7 06 00 00 00
	00		 mov	 DWORD PTR [esi], 0
; File C:\Program Files (x86)\Microsoft Visual Studio\2019\Professional\VC\Tools\MSVC\14.29.30133\include\deque

; 561  :     _Deque_val() noexcept : _Map(), _Mapsize(0), _Myoff(0), _Mysize(0) {}

  00049	c7 46 04 00 00
	00 00		 mov	 DWORD PTR [esi+4], 0
  00050	c7 46 08 00 00
	00 00		 mov	 DWORD PTR [esi+8], 0
  00057	c7 46 0c 00 00
	00 00		 mov	 DWORD PTR [esi+12], 0
  0005e	c7 46 10 00 00
	00 00		 mov	 DWORD PTR [esi+16], 0
; File C:\Program Files (x86)\Microsoft Visual Studio\2019\Professional\VC\Tools\MSVC\14.29.30133\include\xmemory

; 85   :         return ::operator new(_Bytes);

  00065	e8 00 00 00 00	 call	 ??2@YAPAXI@Z		; operator new
  0006a	83 c4 04	 add	 esp, 4

; 1059 :     mutable _Iterator_base12* _Myfirstiter = nullptr;

  0006d	c7 40 04 00 00
	00 00		 mov	 DWORD PTR [eax+4], 0

; 1076 :         _Myproxy            = _New_proxy;

  00074	89 06		 mov	 DWORD PTR [esi], eax

; 1077 :         _New_proxy->_Mycont = this;

  00076	89 30		 mov	 DWORD PTR [eax], esi
; File C:\Users\murat\Desktop\Siveps2-1-99-Project\source\client\Client\EterLib\FileLoaderThread.cpp

; 7    : {

  00078	8d 4f 20	 lea	 ecx, DWORD PTR [edi+32]
  0007b	c7 45 fc 00 00
	00 00		 mov	 DWORD PTR __$EHRec$[ebp+8], 0
  00082	e8 00 00 00 00	 call	 ??0Mutex@@QAE@XZ	; Mutex::Mutex
  00087	8d 77 38	 lea	 esi, DWORD PTR [edi+56]
  0008a	c6 45 fc 01	 mov	 BYTE PTR __$EHRec$[ebp+8], 1
; File C:\Program Files (x86)\Microsoft Visual Studio\2019\Professional\VC\Tools\MSVC\14.29.30133\include\xmemory

; 85   :         return ::operator new(_Bytes);

  0008e	6a 08		 push	 8

; 1089 :     _Container_proxy* _Myproxy = nullptr;

  00090	c7 06 00 00 00
	00		 mov	 DWORD PTR [esi], 0
; File C:\Program Files (x86)\Microsoft Visual Studio\2019\Professional\VC\Tools\MSVC\14.29.30133\include\deque

; 561  :     _Deque_val() noexcept : _Map(), _Mapsize(0), _Myoff(0), _Mysize(0) {}

  00096	c7 46 04 00 00
	00 00		 mov	 DWORD PTR [esi+4], 0
  0009d	c7 46 08 00 00
	00 00		 mov	 DWORD PTR [esi+8], 0
  000a4	c7 46 0c 00 00
	00 00		 mov	 DWORD PTR [esi+12], 0
  000ab	c7 46 10 00 00
	00 00		 mov	 DWORD PTR [esi+16], 0
; File C:\Program Files (x86)\Microsoft Visual Studio\2019\Professional\VC\Tools\MSVC\14.29.30133\include\xmemory

; 85   :         return ::operator new(_Bytes);

  000b2	e8 00 00 00 00	 call	 ??2@YAPAXI@Z		; operator new
  000b7	83 c4 04	 add	 esp, 4

; 1059 :     mutable _Iterator_base12* _Myfirstiter = nullptr;

  000ba	c7 40 04 00 00
	00 00		 mov	 DWORD PTR [eax+4], 0

; 1076 :         _Myproxy            = _New_proxy;

  000c1	89 06		 mov	 DWORD PTR [esi], eax

; 1077 :         _New_proxy->_Mycont = this;

  000c3	89 30		 mov	 DWORD PTR [eax], esi
; File C:\Users\murat\Desktop\Siveps2-1-99-Project\source\client\Client\EterLib\FileLoaderThread.cpp

; 7    : {

  000c5	8d 4f 4c	 lea	 ecx, DWORD PTR [edi+76]
  000c8	c6 45 fc 02	 mov	 BYTE PTR __$EHRec$[ebp+8], 2
  000cc	e8 00 00 00 00	 call	 ??0Mutex@@QAE@XZ	; Mutex::Mutex

; 6    : CFileLoaderThread::CFileLoaderThread() : m_bShutdowned(false), m_pArg(NULL), m_hThread(NULL), m_uThreadID(0)

  000d1	c6 47 6c 00	 mov	 BYTE PTR [edi+108], 0

; 8    : }

  000d5	8b c7		 mov	 eax, edi
  000d7	8b 4d f4	 mov	 ecx, DWORD PTR __$EHRec$[ebp]
  000da	64 89 0d 00 00
	00 00		 mov	 DWORD PTR fs:0, ecx
  000e1	59		 pop	 ecx
  000e2	5f		 pop	 edi
  000e3	5e		 pop	 esi
  000e4	8b e5		 mov	 esp, ebp
  000e6	5d		 pop	 ebp
  000e7	c3		 ret	 0
_TEXT	ENDS
;	COMDAT text$x
text$x	SEGMENT
__unwindfunclet$??0CFileLoaderThread@@QAE@XZ$0:
  00000	8b 4d f0	 mov	 ecx, DWORD PTR _this$[ebp]
  00003	83 c1 0c	 add	 ecx, 12			; 0000000cH
  00006	e9 00 00 00 00	 jmp	 ??1?$deque@PAUSData@CFileLoaderThread@@V?$allocator@PAUSData@CFileLoaderThread@@@std@@@std@@QAE@XZ ; std::deque<CFileLoaderThread::SData *,std::allocator<CFileLoaderThread::SData *> >::~deque<CFileLoaderThread::SData *,std::allocator<CFileLoaderThread::SData *> >
__unwindfunclet$??0CFileLoaderThread@@QAE@XZ$1:
  0000b	8b 4d f0	 mov	 ecx, DWORD PTR _this$[ebp]
  0000e	83 c1 20	 add	 ecx, 32			; 00000020H
  00011	e9 00 00 00 00	 jmp	 ??1Mutex@@QAE@XZ	; Mutex::~Mutex
__unwindfunclet$??0CFileLoaderThread@@QAE@XZ$2:
  00016	8b 4d f0	 mov	 ecx, DWORD PTR _this$[ebp]
  00019	83 c1 38	 add	 ecx, 56			; 00000038H
  0001c	e9 00 00 00 00	 jmp	 ??1?$deque@PAUSData@CFileLoaderThread@@V?$allocator@PAUSData@CFileLoaderThread@@@std@@@std@@QAE@XZ ; std::deque<CFileLoaderThread::SData *,std::allocator<CFileLoaderThread::SData *> >::~deque<CFileLoaderThread::SData *,std::allocator<CFileLoaderThread::SData *> >
  00021	cc		 int	 3
  00022	cc		 int	 3
  00023	cc		 int	 3
  00024	cc		 int	 3
  00025	cc		 int	 3
__ehhandler$??0CFileLoaderThread@@QAE@XZ:
  00026	90		 npad	 1
  00027	90		 npad	 1
  00028	8b 54 24 08	 mov	 edx, DWORD PTR [esp+8]
  0002c	8d 42 0c	 lea	 eax, DWORD PTR [edx+12]
  0002f	8b 4a f0	 mov	 ecx, DWORD PTR [edx-16]
  00032	33 c8		 xor	 ecx, eax
  00034	e8 00 00 00 00	 call	 @__security_check_cookie@4
  00039	b8 00 00 00 00	 mov	 eax, OFFSET __ehfuncinfo$??0CFileLoaderThread@@QAE@XZ
  0003e	e9 00 00 00 00	 jmp	 ___CxxFrameHandler3
text$x	ENDS
??0CFileLoaderThread@@QAE@XZ ENDP			; CFileLoaderThread::CFileLoaderThread
; Function compile flags: /Ogtp
; File C:\Program Files (x86)\Microsoft Visual Studio\2019\Professional\VC\Tools\MSVC\14.29.30133\include\xmemory
;	COMDAT ??$_Allocate_manually_vector_aligned@U_Default_allocate_traits@std@@@std@@YAPAXI@Z
_TEXT	SEGMENT
__Bytes$ = 8						; size = 4
??$_Allocate_manually_vector_aligned@U_Default_allocate_traits@std@@@std@@YAPAXI@Z PROC ; std::_Allocate_manually_vector_aligned<std::_Default_allocate_traits>, COMDAT

; 134  : __declspec(allocator) void* _Allocate_manually_vector_aligned(const size_t _Bytes) {

  00000	55		 push	 ebp
  00001	8b ec		 mov	 ebp, esp

; 135  :     // allocate _Bytes manually aligned to at least _Big_allocation_alignment
; 136  :     const size_t _Block_size = _Non_user_size + _Bytes;

  00003	8b 45 08	 mov	 eax, DWORD PTR __Bytes$[ebp]
  00006	8d 48 23	 lea	 ecx, DWORD PTR [eax+35]

; 137  :     if (_Block_size <= _Bytes) {

  00009	3b c8		 cmp	 ecx, eax
  0000b	0f 86 00 00 00
	00		 jbe	 ?_Throw_bad_array_new_length@std@@YAXXZ ; std::_Throw_bad_array_new_length

; 85   :         return ::operator new(_Bytes);

  00011	51		 push	 ecx
  00012	e8 00 00 00 00	 call	 ??2@YAPAXI@Z		; operator new

; 138  :         _Throw_bad_array_new_length(); // add overflow
; 139  :     }
; 140  : 
; 141  :     const uintptr_t _Ptr_container = reinterpret_cast<uintptr_t>(_Traits::_Allocate(_Block_size));

  00017	8b c8		 mov	 ecx, eax

; 85   :         return ::operator new(_Bytes);

  00019	83 c4 04	 add	 esp, 4

; 142  :     _STL_VERIFY(_Ptr_container != 0, "invalid argument"); // validate even in release since we're doing p[-1]

  0001c	85 c9		 test	 ecx, ecx
  0001e	74 0b		 je	 SHORT $LN7@Allocate_m

; 143  :     void* const _Ptr = reinterpret_cast<void*>((_Ptr_container + _Non_user_size) & ~(_Big_allocation_alignment - 1));

  00020	8d 41 23	 lea	 eax, DWORD PTR [ecx+35]
  00023	83 e0 e0	 and	 eax, -32		; ffffffe0H

; 144  :     static_cast<uintptr_t*>(_Ptr)[-1] = _Ptr_container;

  00026	89 48 fc	 mov	 DWORD PTR [eax-4], ecx

; 145  : 
; 146  : #ifdef _DEBUG
; 147  :     static_cast<uintptr_t*>(_Ptr)[-2] = _Big_allocation_sentinel;
; 148  : #endif // _DEBUG
; 149  :     return _Ptr;
; 150  : }

  00029	5d		 pop	 ebp
  0002a	c3		 ret	 0
$LN7@Allocate_m:

; 142  :     _STL_VERIFY(_Ptr_container != 0, "invalid argument"); // validate even in release since we're doing p[-1]

  0002b	e9 00 00 00 00	 jmp	 __invalid_parameter_noinfo_noreturn
??$_Allocate_manually_vector_aligned@U_Default_allocate_traits@std@@@std@@YAPAXI@Z ENDP ; std::_Allocate_manually_vector_aligned<std::_Default_allocate_traits>
_TEXT	ENDS
; Function compile flags: /Ogtp
; File C:\Program Files (x86)\Microsoft Visual Studio\2019\Professional\VC\Tools\MSVC\14.29.30133\include\xstring
; File C:\Program Files (x86)\Microsoft Visual Studio\2019\Professional\VC\Tools\MSVC\14.29.30133\include\xmemory
; File C:\Program Files (x86)\Microsoft Visual Studio\2019\Professional\VC\Tools\MSVC\14.29.30133\include\xstring
; File C:\Program Files (x86)\Microsoft Visual Studio\2019\Professional\VC\Tools\MSVC\14.29.30133\include\xmemory
; File C:\Program Files (x86)\Microsoft Visual Studio\2019\Professional\VC\Tools\MSVC\14.29.30133\include\xstring
; File C:\Program Files (x86)\Microsoft Visual Studio\2019\Professional\VC\Tools\MSVC\14.29.30133\include\utility
; File C:\Program Files (x86)\Microsoft Visual Studio\2019\Professional\VC\Tools\MSVC\14.29.30133\include\xstring
; File C:\Program Files (x86)\Microsoft Visual Studio\2019\Professional\VC\Tools\MSVC\14.29.30133\include\xmemory
; File C:\Program Files (x86)\Microsoft Visual Studio\2019\Professional\VC\Tools\MSVC\14.29.30133\include\xstring
; File C:\Program Files (x86)\Microsoft Visual Studio\2019\Professional\VC\Tools\MSVC\14.29.30133\include\xmemory
; File C:\Program Files (x86)\Microsoft Visual Studio\2019\Professional\VC\Tools\MSVC\14.29.30133\include\xstring
; File C:\Program Files (x86)\Microsoft Visual Studio\2019\Professional\VC\Tools\MSVC\14.29.30133\include\xmemory
; File C:\Program Files (x86)\Microsoft Visual Studio\2019\Professional\VC\Tools\MSVC\14.29.30133\include\xstring
;	COMDAT ?assign@?$basic_string@DU?$char_traits@D@std@@V?$allocator@D@2@@std@@QAEAAV12@QBDI@Z
_TEXT	SEGMENT
__Old$1$ = -4						; size = 4
__Ptr$ = 8						; size = 4
$T1 = 12						; size = 4
__Count$ = 12						; size = 4
?assign@?$basic_string@DU?$char_traits@D@std@@V?$allocator@D@2@@std@@QAEAAV12@QBDI@Z PROC ; std::basic_string<char,std::char_traits<char>,std::allocator<char> >::assign, COMDAT
; _this$ = ecx

; 3244 :         _In_reads_(_Count) const _Elem* const _Ptr, _CRT_GUARDOVERFLOW const size_type _Count) {

  00000	55		 push	 ebp
  00001	8b ec		 mov	 ebp, esp
  00003	51		 push	 ecx
  00004	53		 push	 ebx

; 3245 :         // assign [_Ptr, _Ptr + _Count)
; 3246 :         if (_Count <= _Mypair._Myval2._Myres) {

  00005	8b 5d 0c	 mov	 ebx, DWORD PTR __Count$[ebp]
  00008	56		 push	 esi
  00009	8b f1		 mov	 esi, ecx
  0000b	57		 push	 edi
  0000c	8b 4e 14	 mov	 ecx, DWORD PTR [esi+20]
  0000f	89 4d fc	 mov	 DWORD PTR __Old$1$[ebp], ecx
  00012	3b d9		 cmp	 ebx, ecx
  00014	77 28		 ja	 SHORT $LN2@assign

; 2296 :         value_type* _Result = _Bx._Buf;

  00016	8b fe		 mov	 edi, esi

; 2319 :         return _BUF_SIZE <= _Myres;

  00018	83 f9 10	 cmp	 ecx, 16			; 00000010H

; 2297 :         if (_Large_string_engaged()) {

  0001b	72 02		 jb	 SHORT $LN5@assign

; 2298 :             _Result = _Unfancy(_Bx._Ptr);

  0001d	8b 3e		 mov	 edi, DWORD PTR [esi]
$LN5@assign:

; 122  :         _CSTD memmove(_First1, _First2, _Count * sizeof(_Elem));

  0001f	53		 push	 ebx
  00020	ff 75 08	 push	 DWORD PTR __Ptr$[ebp]

; 3247 :             _Elem* const _Old_ptr   = _Mypair._Myval2._Myptr();
; 3248 :             _Mypair._Myval2._Mysize = _Count;

  00023	89 5e 10	 mov	 DWORD PTR [esi+16], ebx

; 122  :         _CSTD memmove(_First1, _First2, _Count * sizeof(_Elem));

  00026	57		 push	 edi
  00027	e8 00 00 00 00	 call	 _memmove
  0002c	83 c4 0c	 add	 esp, 12			; 0000000cH

; 3249 :             _Traits::move(_Old_ptr, _Ptr, _Count);
; 3250 :             _Traits::assign(_Old_ptr[_Count], _Elem());

  0002f	c6 04 1f 00	 mov	 BYTE PTR [edi+ebx], 0

; 3259 :             },
; 3260 :             _Ptr);
; 3261 :     }

  00033	8b c6		 mov	 eax, esi
  00035	5f		 pop	 edi
  00036	5e		 pop	 esi
  00037	5b		 pop	 ebx
  00038	8b e5		 mov	 esp, ebp
  0003a	5d		 pop	 ebp
  0003b	c2 08 00	 ret	 8
$LN2@assign:

; 4508 :         if (_New_size > max_size()) {

  0003e	81 fb ff ff ff
	7f		 cmp	 ebx, 2147483647		; 7fffffffH
  00044	0f 87 d4 00 00
	00		 ja	 $LN60@assign

; 4488 :         const size_type _Masked = _Requested | _ALLOC_MASK;

  0004a	8b fb		 mov	 edi, ebx
  0004c	83 cf 0f	 or	 edi, 15			; 0000000fH
  0004f	81 ff ff ff ff
	7f		 cmp	 edi, 2147483647		; 7fffffffH

; 4489 :         if (_Masked > _Max) { // the mask overflows, settle for max_size()

  00055	76 15		 jbe	 SHORT $LN19@assign

; 4490 :             return _Max;

  00057	b8 00 00 00 80	 mov	 eax, -2147483648	; 80000000H
  0005c	bf ff ff ff 7f	 mov	 edi, 2147483647		; 7fffffffH
; File C:\Program Files (x86)\Microsoft Visual Studio\2019\Professional\VC\Tools\MSVC\14.29.30133\include\xmemory

; 238  :             return _Allocate_manually_vector_aligned<_Traits>(_Bytes);

  00061	50		 push	 eax
  00062	e8 00 00 00 00	 call	 ??$_Allocate_manually_vector_aligned@U_Default_allocate_traits@std@@@std@@YAPAXI@Z ; std::_Allocate_manually_vector_aligned<std::_Default_allocate_traits>
  00067	83 c4 04	 add	 esp, 4
  0006a	eb 52		 jmp	 SHORT $LN58@assign
$LN19@assign:
; File C:\Program Files (x86)\Microsoft Visual Studio\2019\Professional\VC\Tools\MSVC\14.29.30133\include\xstring

; 4493 :         if (_Old > _Max - _Old / 2) { // similarly, geometric overflows

  0006c	8b d1		 mov	 edx, ecx
  0006e	b8 ff ff ff 7f	 mov	 eax, 2147483647		; 7fffffffH
  00073	d1 ea		 shr	 edx, 1
  00075	2b c2		 sub	 eax, edx
  00077	3b c8		 cmp	 ecx, eax
  00079	76 15		 jbe	 SHORT $LN20@assign

; 4494 :             return _Max;

  0007b	b8 00 00 00 80	 mov	 eax, -2147483648	; 80000000H
  00080	bf ff ff ff 7f	 mov	 edi, 2147483647		; 7fffffffH
; File C:\Program Files (x86)\Microsoft Visual Studio\2019\Professional\VC\Tools\MSVC\14.29.30133\include\xmemory

; 238  :             return _Allocate_manually_vector_aligned<_Traits>(_Bytes);

  00085	50		 push	 eax
  00086	e8 00 00 00 00	 call	 ??$_Allocate_manually_vector_aligned@U_Default_allocate_traits@std@@@std@@YAPAXI@Z ; std::_Allocate_manually_vector_aligned<std::_Default_allocate_traits>
  0008b	83 c4 04	 add	 esp, 4
  0008e	eb 2e		 jmp	 SHORT $LN58@assign
$LN20@assign:
; File C:\Program Files (x86)\Microsoft Visual Studio\2019\Professional\VC\Tools\MSVC\14.29.30133\include\xstring

; 4497 :         return (_STD max)(_Masked, _Old + _Old / 2);

  00090	8d 04 0a	 lea	 eax, DWORD PTR [edx+ecx]
; File C:\Program Files (x86)\Microsoft Visual Studio\2019\Professional\VC\Tools\MSVC\14.29.30133\include\utility

; 44   :     return _Left < _Right ? _Right : _Left;

  00093	3b f8		 cmp	 edi, eax
  00095	0f 42 f8	 cmovb	 edi, eax
; File C:\Program Files (x86)\Microsoft Visual Studio\2019\Professional\VC\Tools\MSVC\14.29.30133\include\xstring

; 4515 :         const pointer _New_ptr        = _Al.allocate(_New_capacity + 1); // throws

  00098	8d 47 01	 lea	 eax, DWORD PTR [edi+1]
; File C:\Program Files (x86)\Microsoft Visual Studio\2019\Professional\VC\Tools\MSVC\14.29.30133\include\xmemory

; 237  :         if (_Bytes >= _Big_allocation_threshold) { // boost the alignment of big allocations to help autovectorization

  0009b	3d 00 10 00 00	 cmp	 eax, 4096		; 00001000H
  000a0	72 0b		 jb	 SHORT $LN27@assign

; 238  :             return _Allocate_manually_vector_aligned<_Traits>(_Bytes);

  000a2	50		 push	 eax
  000a3	e8 00 00 00 00	 call	 ??$_Allocate_manually_vector_aligned@U_Default_allocate_traits@std@@@std@@YAPAXI@Z ; std::_Allocate_manually_vector_aligned<std::_Default_allocate_traits>
  000a8	83 c4 04	 add	 esp, 4
  000ab	eb 11		 jmp	 SHORT $LN58@assign
$LN27@assign:

; 239  :         }
; 240  :     }
; 241  : #endif // defined(_M_IX86) || defined(_M_X64)
; 242  : 
; 243  :     if (_Bytes != 0) {

  000ad	85 c0		 test	 eax, eax
  000af	74 0b		 je	 SHORT $LN28@assign

; 85   :         return ::operator new(_Bytes);

  000b1	50		 push	 eax
  000b2	e8 00 00 00 00	 call	 ??2@YAPAXI@Z		; operator new
  000b7	83 c4 04	 add	 esp, 4

; 244  :         return _Traits::_Allocate(_Bytes);

  000ba	eb 02		 jmp	 SHORT $LN58@assign
$LN28@assign:

; 245  :     }
; 246  : 
; 247  :     return nullptr;

  000bc	33 c0		 xor	 eax, eax
$LN58@assign:
; File C:\Program Files (x86)\Microsoft Visual Studio\2019\Professional\VC\Tools\MSVC\14.29.30133\include\xstring

; 65   :         _CSTD memcpy(_First1, _First2, _Count * sizeof(_Elem));

  000be	53		 push	 ebx
  000bf	ff 75 08	 push	 DWORD PTR __Ptr$[ebp]

; 4523 :         _Mypair._Myval2._Mysize = _New_size;

  000c2	89 45 0c	 mov	 DWORD PTR $T1[ebp], eax

; 65   :         _CSTD memcpy(_First1, _First2, _Count * sizeof(_Elem));

  000c5	50		 push	 eax

; 4523 :         _Mypair._Myval2._Mysize = _New_size;

  000c6	89 5e 10	 mov	 DWORD PTR [esi+16], ebx

; 4524 :         _Mypair._Myval2._Myres  = _New_capacity;

  000c9	89 7e 14	 mov	 DWORD PTR [esi+20], edi

; 65   :         _CSTD memcpy(_First1, _First2, _Count * sizeof(_Elem));

  000cc	e8 00 00 00 00	 call	 _memcpy

; 3258 :                 _Traits::assign(_New_ptr[_Count], _Elem());

  000d1	8b 7d 0c	 mov	 edi, DWORD PTR $T1[ebp]

; 65   :         _CSTD memcpy(_First1, _First2, _Count * sizeof(_Elem));

  000d4	83 c4 0c	 add	 esp, 12			; 0000000cH

; 4526 :         if (_BUF_SIZE <= _Old_capacity) {

  000d7	8b 45 fc	 mov	 eax, DWORD PTR __Old$1$[ebp]

; 3258 :                 _Traits::assign(_New_ptr[_Count], _Elem());

  000da	c6 04 1f 00	 mov	 BYTE PTR [edi+ebx], 0

; 4526 :         if (_BUF_SIZE <= _Old_capacity) {

  000de	83 f8 10	 cmp	 eax, 16			; 00000010H
  000e1	72 29		 jb	 SHORT $LN13@assign

; 4527 :             _Al.deallocate(_Mypair._Myval2._Bx._Ptr, _Old_capacity + 1);

  000e3	8d 48 01	 lea	 ecx, DWORD PTR [eax+1]
; File C:\Program Files (x86)\Microsoft Visual Studio\2019\Professional\VC\Tools\MSVC\14.29.30133\include\xmemory

; 835  :         _Deallocate<_New_alignof<_Ty>>(_Ptr, sizeof(_Ty) * _Count);

  000e6	8b 06		 mov	 eax, DWORD PTR [esi]

; 260  :         if (_Bytes >= _Big_allocation_threshold) { // boost the alignment of big allocations to help autovectorization

  000e8	81 f9 00 10 00
	00		 cmp	 ecx, 4096		; 00001000H
  000ee	72 12		 jb	 SHORT $LN50@assign

; 158  :     const uintptr_t _Ptr_container   = _Ptr_user[-1];

  000f0	8b 50 fc	 mov	 edx, DWORD PTR [eax-4]
  000f3	83 c1 23	 add	 ecx, 35			; 00000023H

; 159  : 
; 160  :     // If the following asserts, it likely means that we are performing
; 161  :     // an aligned delete on memory coming from an unaligned allocation.
; 162  :     _STL_ASSERT(_Ptr_user[-2] == _Big_allocation_sentinel, "invalid argument");
; 163  : 
; 164  :     // Extra paranoia on aligned allocation/deallocation; ensure _Ptr_container is
; 165  :     // in range [_Min_back_shift, _Non_user_size]
; 166  : #ifdef _DEBUG
; 167  :     constexpr uintptr_t _Min_back_shift = 2 * sizeof(void*);
; 168  : #else // ^^^ _DEBUG ^^^ // vvv !_DEBUG vvv
; 169  :     constexpr uintptr_t _Min_back_shift = sizeof(void*);
; 170  : #endif // _DEBUG
; 171  :     const uintptr_t _Back_shift = reinterpret_cast<uintptr_t>(_Ptr) - _Ptr_container;

  000f6	2b c2		 sub	 eax, edx

; 172  :     _STL_VERIFY(_Back_shift >= _Min_back_shift && _Back_shift <= _Non_user_size, "invalid argument");

  000f8	83 c0 fc	 add	 eax, -4			; fffffffcH
  000fb	83 f8 1f	 cmp	 eax, 31			; 0000001fH
  000fe	77 19		 ja	 SHORT $LN47@assign

; 173  :     _Ptr = reinterpret_cast<void*>(_Ptr_container);

  00100	8b c2		 mov	 eax, edx
$LN50@assign:

; 264  :         ::operator delete(_Ptr, _Bytes);

  00102	51		 push	 ecx
  00103	50		 push	 eax
  00104	e8 00 00 00 00	 call	 ??3@YAXPAXI@Z		; operator delete
  00109	83 c4 08	 add	 esp, 8
$LN13@assign:
; File C:\Program Files (x86)\Microsoft Visual Studio\2019\Professional\VC\Tools\MSVC\14.29.30133\include\xstring

; 3254 :         return _Reallocate_for(

  0010c	89 3e		 mov	 DWORD PTR [esi], edi

; 3259 :             },
; 3260 :             _Ptr);
; 3261 :     }

  0010e	8b c6		 mov	 eax, esi
  00110	5f		 pop	 edi
  00111	5e		 pop	 esi
  00112	5b		 pop	 ebx
  00113	8b e5		 mov	 esp, ebp
  00115	5d		 pop	 ebp
  00116	c2 08 00	 ret	 8
$LN47@assign:
; File C:\Program Files (x86)\Microsoft Visual Studio\2019\Professional\VC\Tools\MSVC\14.29.30133\include\xmemory

; 172  :     _STL_VERIFY(_Back_shift >= _Min_back_shift && _Back_shift <= _Non_user_size, "invalid argument");

  00119	e8 00 00 00 00	 call	 __invalid_parameter_noinfo_noreturn
$LN60@assign:
; File C:\Program Files (x86)\Microsoft Visual Studio\2019\Professional\VC\Tools\MSVC\14.29.30133\include\xstring

; 4509 :             _Xlen_string(); // result too long

  0011e	e8 00 00 00 00	 call	 ?_Xlen_string@std@@YAXXZ ; std::_Xlen_string
$LN56@assign:
  00123	cc		 int	 3
?assign@?$basic_string@DU?$char_traits@D@std@@V?$allocator@D@2@@std@@QAEAAV12@QBDI@Z ENDP ; std::basic_string<char,std::char_traits<char>,std::allocator<char> >::assign
_TEXT	ENDS
; Function compile flags: /Ogtp
; File C:\Program Files (x86)\Microsoft Visual Studio\2019\Professional\VC\Tools\MSVC\14.29.30133\include\xstring
; File C:\Program Files (x86)\Microsoft Visual Studio\2019\Professional\VC\Tools\MSVC\14.29.30133\include\xmemory
; File C:\Program Files (x86)\Microsoft Visual Studio\2019\Professional\VC\Tools\MSVC\14.29.30133\include\xstring
; File C:\Program Files (x86)\Microsoft Visual Studio\2019\Professional\VC\Tools\MSVC\14.29.30133\include\xmemory
; File C:\Program Files (x86)\Microsoft Visual Studio\2019\Professional\VC\Tools\MSVC\14.29.30133\include\xstring
; File C:\Program Files (x86)\Microsoft Visual Studio\2019\Professional\VC\Tools\MSVC\14.29.30133\include\xmemory
; File C:\Program Files (x86)\Microsoft Visual Studio\2019\Professional\VC\Tools\MSVC\14.29.30133\include\xstring
;	COMDAT ??1?$basic_string@DU?$char_traits@D@std@@V?$allocator@D@2@@std@@QAE@XZ
_TEXT	SEGMENT
??1?$basic_string@DU?$char_traits@D@std@@V?$allocator@D@2@@std@@QAE@XZ PROC ; std::basic_string<char,std::char_traits<char>,std::allocator<char> >::~basic_string<char,std::char_traits<char>,std::allocator<char> >, COMDAT
; _this$ = ecx

; 3002 :     _CONSTEXPR20_CONTAINER ~basic_string() noexcept {

  00000	56		 push	 esi
  00001	8b f1		 mov	 esi, ecx

; 2319 :         return _BUF_SIZE <= _Myres;

  00003	8b 4e 14	 mov	 ecx, DWORD PTR [esi+20]
  00006	83 f9 10	 cmp	 ecx, 16			; 00000010H

; 4618 :         if (_Mypair._Myval2._Large_string_engaged()) {

  00009	72 27		 jb	 SHORT $LN12@basic_stri
; File C:\Program Files (x86)\Microsoft Visual Studio\2019\Professional\VC\Tools\MSVC\14.29.30133\include\xmemory

; 835  :         _Deallocate<_New_alignof<_Ty>>(_Ptr, sizeof(_Ty) * _Count);

  0000b	8b 06		 mov	 eax, DWORD PTR [esi]
; File C:\Program Files (x86)\Microsoft Visual Studio\2019\Professional\VC\Tools\MSVC\14.29.30133\include\xstring

; 4622 :             _Al.deallocate(_Ptr, _Mypair._Myval2._Myres + 1);

  0000d	41		 inc	 ecx
; File C:\Program Files (x86)\Microsoft Visual Studio\2019\Professional\VC\Tools\MSVC\14.29.30133\include\xmemory

; 260  :         if (_Bytes >= _Big_allocation_threshold) { // boost the alignment of big allocations to help autovectorization

  0000e	81 f9 00 10 00
	00		 cmp	 ecx, 4096		; 00001000H
  00014	72 12		 jb	 SHORT $LN22@basic_stri

; 158  :     const uintptr_t _Ptr_container   = _Ptr_user[-1];

  00016	8b 50 fc	 mov	 edx, DWORD PTR [eax-4]
  00019	83 c1 23	 add	 ecx, 35			; 00000023H

; 159  : 
; 160  :     // If the following asserts, it likely means that we are performing
; 161  :     // an aligned delete on memory coming from an unaligned allocation.
; 162  :     _STL_ASSERT(_Ptr_user[-2] == _Big_allocation_sentinel, "invalid argument");
; 163  : 
; 164  :     // Extra paranoia on aligned allocation/deallocation; ensure _Ptr_container is
; 165  :     // in range [_Min_back_shift, _Non_user_size]
; 166  : #ifdef _DEBUG
; 167  :     constexpr uintptr_t _Min_back_shift = 2 * sizeof(void*);
; 168  : #else // ^^^ _DEBUG ^^^ // vvv !_DEBUG vvv
; 169  :     constexpr uintptr_t _Min_back_shift = sizeof(void*);
; 170  : #endif // _DEBUG
; 171  :     const uintptr_t _Back_shift = reinterpret_cast<uintptr_t>(_Ptr) - _Ptr_container;

  0001c	2b c2		 sub	 eax, edx

; 172  :     _STL_VERIFY(_Back_shift >= _Min_back_shift && _Back_shift <= _Non_user_size, "invalid argument");

  0001e	83 c0 fc	 add	 eax, -4			; fffffffcH
  00021	83 f8 1f	 cmp	 eax, 31			; 0000001fH
  00024	77 1f		 ja	 SHORT $LN19@basic_stri

; 173  :     _Ptr = reinterpret_cast<void*>(_Ptr_container);

  00026	8b c2		 mov	 eax, edx
$LN22@basic_stri:

; 264  :         ::operator delete(_Ptr, _Bytes);

  00028	51		 push	 ecx
  00029	50		 push	 eax
  0002a	e8 00 00 00 00	 call	 ??3@YAXPAXI@Z		; operator delete
  0002f	83 c4 08	 add	 esp, 8
$LN12@basic_stri:
; File C:\Program Files (x86)\Microsoft Visual Studio\2019\Professional\VC\Tools\MSVC\14.29.30133\include\xstring

; 4633 :             _Mypair._Myval2._Mysize = 0;

  00032	c7 46 10 00 00
	00 00		 mov	 DWORD PTR [esi+16], 0

; 4634 :             _Mypair._Myval2._Myres  = _BUF_SIZE - 1;

  00039	c7 46 14 0f 00
	00 00		 mov	 DWORD PTR [esi+20], 15	; 0000000fH

; 4635 :             // the _Traits::assign is last so the codegen doesn't think the char write can alias this
; 4636 :             _Traits::assign(_Mypair._Myval2._Bx._Buf[0], _Elem());

  00040	c6 06 00	 mov	 BYTE PTR [esi], 0
  00043	5e		 pop	 esi

; 3010 :     }

  00044	c3		 ret	 0
$LN19@basic_stri:
; File C:\Program Files (x86)\Microsoft Visual Studio\2019\Professional\VC\Tools\MSVC\14.29.30133\include\xmemory

; 172  :     _STL_VERIFY(_Back_shift >= _Min_back_shift && _Back_shift <= _Non_user_size, "invalid argument");

  00045	e8 00 00 00 00	 call	 __invalid_parameter_noinfo_noreturn
$LN27@basic_stri:
  0004a	cc		 int	 3
??1?$basic_string@DU?$char_traits@D@std@@V?$allocator@D@2@@std@@QAE@XZ ENDP ; std::basic_string<char,std::char_traits<char>,std::allocator<char> >::~basic_string<char,std::char_traits<char>,std::allocator<char> >
_TEXT	ENDS
; Function compile flags: /Ogtp
; File C:\Program Files (x86)\Microsoft Visual Studio\2019\Professional\VC\Tools\MSVC\14.29.30133\include\xstring
;	COMDAT ?_Xlen_string@std@@YAXXZ
_TEXT	SEGMENT
?_Xlen_string@std@@YAXXZ PROC				; std::_Xlen_string, COMDAT

; 2374 :     _Xlength_error("string too long");

  00000	68 00 00 00 00	 push	 OFFSET ??_C@_0BA@JFNIOLAK@string?5too?5long@
  00005	e8 00 00 00 00	 call	 ?_Xlength_error@std@@YAXPBD@Z ; std::_Xlength_error
$LN3@Xlen_strin:
  0000a	cc		 int	 3
?_Xlen_string@std@@YAXXZ ENDP				; std::_Xlen_string
_TEXT	ENDS
; Function compile flags: /Ogtp
; File C:\Program Files (x86)\Microsoft Visual Studio\2019\Professional\VC\Tools\MSVC\14.29.30133\include\exception
;	COMDAT ?_Throw_bad_array_new_length@std@@YAXXZ
_TEXT	SEGMENT
$T1 = -12						; size = 12
?_Throw_bad_array_new_length@std@@YAXXZ PROC		; std::_Throw_bad_array_new_length, COMDAT

; 320  : [[noreturn]] inline void _Throw_bad_array_new_length() {

  00000	55		 push	 ebp
  00001	8b ec		 mov	 ebp, esp
  00003	83 ec 0c	 sub	 esp, 12			; 0000000cH

; 321  :     _THROW(bad_array_new_length{});

  00006	8d 4d f4	 lea	 ecx, DWORD PTR $T1[ebp]
  00009	e8 00 00 00 00	 call	 ??0bad_array_new_length@std@@QAE@XZ ; std::bad_array_new_length::bad_array_new_length
  0000e	68 00 00 00 00	 push	 OFFSET __TI3?AVbad_array_new_length@std@@
  00013	8d 45 f4	 lea	 eax, DWORD PTR $T1[ebp]
  00016	50		 push	 eax
  00017	e8 00 00 00 00	 call	 __CxxThrowException@8
$LN3@Throw_bad_:
  0001c	cc		 int	 3
?_Throw_bad_array_new_length@std@@YAXXZ ENDP		; std::_Throw_bad_array_new_length
_TEXT	ENDS
; Function compile flags: /Ogtp
; File C:\Program Files (x86)\Microsoft Visual Studio\2019\Professional\VC\Tools\MSVC\14.29.30133\include\vcruntime_exception.h
;	COMDAT ??_Gbad_array_new_length@std@@UAEPAXI@Z
_TEXT	SEGMENT
___flags$ = 8						; size = 4
??_Gbad_array_new_length@std@@UAEPAXI@Z PROC		; std::bad_array_new_length::`scalar deleting destructor', COMDAT
; _this$ = ecx
  00000	55		 push	 ebp
  00001	8b ec		 mov	 ebp, esp

; 89   :     {

  00003	56		 push	 esi
  00004	8b f1		 mov	 esi, ecx

; 90   :         __std_exception_destroy(&_Data);

  00006	8d 46 04	 lea	 eax, DWORD PTR [esi+4]
  00009	c7 06 00 00 00
	00		 mov	 DWORD PTR [esi], OFFSET ??_7exception@std@@6B@
  0000f	50		 push	 eax
  00010	e8 00 00 00 00	 call	 ___std_exception_destroy
  00015	83 c4 04	 add	 esp, 4
  00018	f6 45 08 01	 test	 BYTE PTR ___flags$[ebp], 1
  0001c	74 0b		 je	 SHORT $LN12@scalar
  0001e	6a 0c		 push	 12			; 0000000cH
  00020	56		 push	 esi
  00021	e8 00 00 00 00	 call	 ??3@YAXPAXI@Z		; operator delete
  00026	83 c4 08	 add	 esp, 8
$LN12@scalar:
  00029	8b c6		 mov	 eax, esi
  0002b	5e		 pop	 esi
  0002c	5d		 pop	 ebp
  0002d	c2 04 00	 ret	 4
??_Gbad_array_new_length@std@@UAEPAXI@Z ENDP		; std::bad_array_new_length::`scalar deleting destructor'
_TEXT	ENDS
; Function compile flags: /Ogtp
; File C:\Program Files (x86)\Microsoft Visual Studio\2019\Professional\VC\Tools\MSVC\14.29.30133\include\vcruntime_exception.h
;	COMDAT ??0bad_array_new_length@std@@QAE@ABV01@@Z
_TEXT	SEGMENT
___that$ = 8						; size = 4
??0bad_array_new_length@std@@QAE@ABV01@@Z PROC		; std::bad_array_new_length::bad_array_new_length, COMDAT
; _this$ = ecx
  00000	55		 push	 ebp
  00001	8b ec		 mov	 ebp, esp

; 72   :     {

  00003	56		 push	 esi
  00004	8b f1		 mov	 esi, ecx
  00006	0f 57 c0	 xorps	 xmm0, xmm0

; 71   :         : _Data()

  00009	8d 46 04	 lea	 eax, DWORD PTR [esi+4]

; 73   :         __std_exception_copy(&_Other._Data, &_Data);

  0000c	50		 push	 eax
  0000d	c7 06 00 00 00
	00		 mov	 DWORD PTR [esi], OFFSET ??_7exception@std@@6B@
  00013	66 0f d6 00	 movq	 QWORD PTR [eax], xmm0
  00017	8b 45 08	 mov	 eax, DWORD PTR ___that$[ebp]
  0001a	83 c0 04	 add	 eax, 4
  0001d	50		 push	 eax
  0001e	e8 00 00 00 00	 call	 ___std_exception_copy
  00023	83 c4 08	 add	 esp, 8
  00026	c7 06 00 00 00
	00		 mov	 DWORD PTR [esi], OFFSET ??_7bad_array_new_length@std@@6B@
  0002c	8b c6		 mov	 eax, esi
  0002e	5e		 pop	 esi
  0002f	5d		 pop	 ebp
  00030	c2 04 00	 ret	 4
??0bad_array_new_length@std@@QAE@ABV01@@Z ENDP		; std::bad_array_new_length::bad_array_new_length
_TEXT	ENDS
; Function compile flags: /Ogtp
; File C:\Program Files (x86)\Microsoft Visual Studio\2019\Professional\VC\Tools\MSVC\14.29.30133\include\vcruntime_exception.h
;	COMDAT ??1bad_array_new_length@std@@UAE@XZ
_TEXT	SEGMENT
??1bad_array_new_length@std@@UAE@XZ PROC		; std::bad_array_new_length::~bad_array_new_length, COMDAT
; _this$ = ecx

; 90   :         __std_exception_destroy(&_Data);

  00000	8d 41 04	 lea	 eax, DWORD PTR [ecx+4]
  00003	c7 01 00 00 00
	00		 mov	 DWORD PTR [ecx], OFFSET ??_7exception@std@@6B@
  00009	50		 push	 eax
  0000a	e8 00 00 00 00	 call	 ___std_exception_destroy
  0000f	59		 pop	 ecx
  00010	c3		 ret	 0
??1bad_array_new_length@std@@UAE@XZ ENDP		; std::bad_array_new_length::~bad_array_new_length
_TEXT	ENDS
; Function compile flags: /Ogtp
; File C:\Program Files (x86)\Microsoft Visual Studio\2019\Professional\VC\Tools\MSVC\14.29.30133\include\vcruntime_exception.h
;	COMDAT ??0bad_array_new_length@std@@QAE@XZ
_TEXT	SEGMENT
??0bad_array_new_length@std@@QAE@XZ PROC		; std::bad_array_new_length::bad_array_new_length, COMDAT
; _this$ = ecx

; 141  :     {

  00000	0f 57 c0	 xorps	 xmm0, xmm0

; 142  :     }

  00003	8b c1		 mov	 eax, ecx

; 65   :         : _Data()

  00005	66 0f d6 41 04	 movq	 QWORD PTR [ecx+4], xmm0

; 66   :     {
; 67   :         _Data._What = _Message;

  0000a	c7 41 04 00 00
	00 00		 mov	 DWORD PTR [ecx+4], OFFSET ??_C@_0BF@KINCDENJ@bad?5array?5new?5length@

; 141  :     {

  00011	c7 01 00 00 00
	00		 mov	 DWORD PTR [ecx], OFFSET ??_7bad_array_new_length@std@@6B@

; 142  :     }

  00017	c3		 ret	 0
??0bad_array_new_length@std@@QAE@XZ ENDP		; std::bad_array_new_length::bad_array_new_length
_TEXT	ENDS
; Function compile flags: /Ogtp
; File C:\Program Files (x86)\Microsoft Visual Studio\2019\Professional\VC\Tools\MSVC\14.29.30133\include\vcruntime_exception.h
;	COMDAT ??_Gbad_alloc@std@@UAEPAXI@Z
_TEXT	SEGMENT
___flags$ = 8						; size = 4
??_Gbad_alloc@std@@UAEPAXI@Z PROC			; std::bad_alloc::`scalar deleting destructor', COMDAT
; _this$ = ecx
  00000	55		 push	 ebp
  00001	8b ec		 mov	 ebp, esp

; 89   :     {

  00003	56		 push	 esi
  00004	8b f1		 mov	 esi, ecx

; 90   :         __std_exception_destroy(&_Data);

  00006	8d 46 04	 lea	 eax, DWORD PTR [esi+4]
  00009	c7 06 00 00 00
	00		 mov	 DWORD PTR [esi], OFFSET ??_7exception@std@@6B@
  0000f	50		 push	 eax
  00010	e8 00 00 00 00	 call	 ___std_exception_destroy
  00015	83 c4 04	 add	 esp, 4
  00018	f6 45 08 01	 test	 BYTE PTR ___flags$[ebp], 1
  0001c	74 0b		 je	 SHORT $LN9@scalar
  0001e	6a 0c		 push	 12			; 0000000cH
  00020	56		 push	 esi
  00021	e8 00 00 00 00	 call	 ??3@YAXPAXI@Z		; operator delete
  00026	83 c4 08	 add	 esp, 8
$LN9@scalar:
  00029	8b c6		 mov	 eax, esi
  0002b	5e		 pop	 esi
  0002c	5d		 pop	 ebp
  0002d	c2 04 00	 ret	 4
??_Gbad_alloc@std@@UAEPAXI@Z ENDP			; std::bad_alloc::`scalar deleting destructor'
_TEXT	ENDS
; Function compile flags: /Ogtp
; File C:\Program Files (x86)\Microsoft Visual Studio\2019\Professional\VC\Tools\MSVC\14.29.30133\include\vcruntime_exception.h
;	COMDAT ??0bad_alloc@std@@QAE@ABV01@@Z
_TEXT	SEGMENT
___that$ = 8						; size = 4
??0bad_alloc@std@@QAE@ABV01@@Z PROC			; std::bad_alloc::bad_alloc, COMDAT
; _this$ = ecx
  00000	55		 push	 ebp
  00001	8b ec		 mov	 ebp, esp

; 72   :     {

  00003	56		 push	 esi
  00004	8b f1		 mov	 esi, ecx
  00006	0f 57 c0	 xorps	 xmm0, xmm0

; 71   :         : _Data()

  00009	8d 46 04	 lea	 eax, DWORD PTR [esi+4]

; 73   :         __std_exception_copy(&_Other._Data, &_Data);

  0000c	50		 push	 eax
  0000d	c7 06 00 00 00
	00		 mov	 DWORD PTR [esi], OFFSET ??_7exception@std@@6B@
  00013	66 0f d6 00	 movq	 QWORD PTR [eax], xmm0
  00017	8b 45 08	 mov	 eax, DWORD PTR ___that$[ebp]
  0001a	83 c0 04	 add	 eax, 4
  0001d	50		 push	 eax
  0001e	e8 00 00 00 00	 call	 ___std_exception_copy
  00023	83 c4 08	 add	 esp, 8
  00026	c7 06 00 00 00
	00		 mov	 DWORD PTR [esi], OFFSET ??_7bad_alloc@std@@6B@
  0002c	8b c6		 mov	 eax, esi
  0002e	5e		 pop	 esi
  0002f	5d		 pop	 ebp
  00030	c2 04 00	 ret	 4
??0bad_alloc@std@@QAE@ABV01@@Z ENDP			; std::bad_alloc::bad_alloc
_TEXT	ENDS
; Function compile flags: /Ogtp
; File C:\Program Files (x86)\Microsoft Visual Studio\2019\Professional\VC\Tools\MSVC\14.29.30133\include\vcruntime_exception.h
;	COMDAT ??_Gexception@std@@UAEPAXI@Z
_TEXT	SEGMENT
___flags$ = 8						; size = 4
??_Gexception@std@@UAEPAXI@Z PROC			; std::exception::`scalar deleting destructor', COMDAT
; _this$ = ecx
  00000	55		 push	 ebp
  00001	8b ec		 mov	 ebp, esp

; 89   :     {

  00003	56		 push	 esi
  00004	8b f1		 mov	 esi, ecx

; 90   :         __std_exception_destroy(&_Data);

  00006	8d 46 04	 lea	 eax, DWORD PTR [esi+4]
  00009	c7 06 00 00 00
	00		 mov	 DWORD PTR [esi], OFFSET ??_7exception@std@@6B@
  0000f	50		 push	 eax
  00010	e8 00 00 00 00	 call	 ___std_exception_destroy
  00015	83 c4 04	 add	 esp, 4
  00018	f6 45 08 01	 test	 BYTE PTR ___flags$[ebp], 1
  0001c	74 0b		 je	 SHORT $LN6@scalar
  0001e	6a 0c		 push	 12			; 0000000cH
  00020	56		 push	 esi
  00021	e8 00 00 00 00	 call	 ??3@YAXPAXI@Z		; operator delete
  00026	83 c4 08	 add	 esp, 8
$LN6@scalar:
  00029	8b c6		 mov	 eax, esi
  0002b	5e		 pop	 esi
  0002c	5d		 pop	 ebp
  0002d	c2 04 00	 ret	 4
??_Gexception@std@@UAEPAXI@Z ENDP			; std::exception::`scalar deleting destructor'
_TEXT	ENDS
; Function compile flags: /Ogtp
; File C:\Program Files (x86)\Microsoft Visual Studio\2019\Professional\VC\Tools\MSVC\14.29.30133\include\vcruntime_exception.h
;	COMDAT ?what@exception@std@@UBEPBDXZ
_TEXT	SEGMENT
?what@exception@std@@UBEPBDXZ PROC			; std::exception::what, COMDAT
; _this$ = ecx

; 95   :         return _Data._What ? _Data._What : "Unknown exception";

  00000	8b 49 04	 mov	 ecx, DWORD PTR [ecx+4]
  00003	b8 00 00 00 00	 mov	 eax, OFFSET ??_C@_0BC@EOODALEL@Unknown?5exception@
  00008	85 c9		 test	 ecx, ecx
  0000a	0f 45 c1	 cmovne	 eax, ecx

; 96   :     }

  0000d	c3		 ret	 0
?what@exception@std@@UBEPBDXZ ENDP			; std::exception::what
_TEXT	ENDS
; Function compile flags: /Ogtp
; File C:\Program Files (x86)\Microsoft Visual Studio\2019\Professional\VC\Tools\MSVC\14.29.30133\include\vcruntime_exception.h
;	COMDAT ??1exception@std@@UAE@XZ
_TEXT	SEGMENT
??1exception@std@@UAE@XZ PROC				; std::exception::~exception, COMDAT
; _this$ = ecx

; 90   :         __std_exception_destroy(&_Data);

  00000	8d 41 04	 lea	 eax, DWORD PTR [ecx+4]
  00003	c7 01 00 00 00
	00		 mov	 DWORD PTR [ecx], OFFSET ??_7exception@std@@6B@
  00009	50		 push	 eax
  0000a	e8 00 00 00 00	 call	 ___std_exception_destroy
  0000f	59		 pop	 ecx

; 91   :     }

  00010	c3		 ret	 0
??1exception@std@@UAE@XZ ENDP				; std::exception::~exception
_TEXT	ENDS
; Function compile flags: /Ogtp
; File C:\Program Files (x86)\Microsoft Visual Studio\2019\Professional\VC\Tools\MSVC\14.29.30133\include\vcruntime_exception.h
;	COMDAT ??0exception@std@@QAE@ABV01@@Z
_TEXT	SEGMENT
__Other$ = 8						; size = 4
??0exception@std@@QAE@ABV01@@Z PROC			; std::exception::exception, COMDAT
; _this$ = ecx

; 72   :     {

  00000	55		 push	 ebp
  00001	8b ec		 mov	 ebp, esp
  00003	56		 push	 esi
  00004	8b f1		 mov	 esi, ecx
  00006	0f 57 c0	 xorps	 xmm0, xmm0
  00009	8d 46 04	 lea	 eax, DWORD PTR [esi+4]

; 73   :         __std_exception_copy(&_Other._Data, &_Data);

  0000c	50		 push	 eax
  0000d	c7 06 00 00 00
	00		 mov	 DWORD PTR [esi], OFFSET ??_7exception@std@@6B@
  00013	66 0f d6 00	 movq	 QWORD PTR [eax], xmm0
  00017	8b 45 08	 mov	 eax, DWORD PTR __Other$[ebp]
  0001a	83 c0 04	 add	 eax, 4
  0001d	50		 push	 eax
  0001e	e8 00 00 00 00	 call	 ___std_exception_copy
  00023	83 c4 08	 add	 esp, 8

; 74   :     }

  00026	8b c6		 mov	 eax, esi
  00028	5e		 pop	 esi
  00029	5d		 pop	 ebp
  0002a	c2 04 00	 ret	 4
??0exception@std@@QAE@ABV01@@Z ENDP			; std::exception::exception
_TEXT	ENDS
END
