; Listing generated by Microsoft (R) Optimizing Compiler Version 19.29.30137.0 

	TITLE	C:\Users\murat\Desktop\Siveps2-1-99-Project\source\client\Client\EterLib\Distribute\GrpExpandedImageInstance.obj
	.686P
	.XMM
	include listing.inc
	.model	flat

INCLUDELIB LIBCMT
INCLUDELIB OLDNAMES

PUBLIC	??_7?$CDynamicPool@VCGraphicExpandedImageInstance@@@@6B@ ; CDynamicPool<CGraphicExpandedImageInstance>::`vftable'
PUBLIC	??_G?$CDynamicPool@VCGraphicExpandedImageInstance@@@@UAEPAXI@Z ; CDynamicPool<CGraphicExpandedImageInstance>::`scalar deleting destructor'
PUBLIC	??_R4?$CDynamicPool@VCGraphicExpandedImageInstance@@@@6B@ ; CDynamicPool<CGraphicExpandedImageInstance>::`RTTI Complete Object Locator'
PUBLIC	??_R0?AV?$CDynamicPool@VCGraphicExpandedImageInstance@@@@@8 ; CDynamicPool<CGraphicExpandedImageInstance> `RTTI Type Descriptor'
PUBLIC	??_R3?$CDynamicPool@VCGraphicExpandedImageInstance@@@@8 ; CDynamicPool<CGraphicExpandedImageInstance>::`RTTI Class Hierarchy Descriptor'
PUBLIC	??_R2?$CDynamicPool@VCGraphicExpandedImageInstance@@@@8 ; CDynamicPool<CGraphicExpandedImageInstance>::`RTTI Base Class Array'
PUBLIC	??_R1A@?0A@EA@?$CDynamicPool@VCGraphicExpandedImageInstance@@@@8 ; CDynamicPool<CGraphicExpandedImageInstance>::`RTTI Base Class Descriptor at (0,-1,0,64)'
EXTRN	??_E?$CDynamicPool@VCGraphicExpandedImageInstance@@@@UAEPAXI@Z:PROC ; CDynamicPool<CGraphicExpandedImageInstance>::`vector deleting destructor'
EXTRN	??_7type_info@@6B@:QWORD			; type_info::`vftable'
CONST	SEGMENT
?_Fake_alloc@std@@3U_Fake_allocator@1@B	ORG $+1		; std::_Fake_alloc
CONST	ENDS
;	COMDAT ??_R1A@?0A@EA@?$CDynamicPool@VCGraphicExpandedImageInstance@@@@8
rdata$r	SEGMENT
??_R1A@?0A@EA@?$CDynamicPool@VCGraphicExpandedImageInstance@@@@8 DD FLAT:??_R0?AV?$CDynamicPool@VCGraphicExpandedImageInstance@@@@@8 ; CDynamicPool<CGraphicExpandedImageInstance>::`RTTI Base Class Descriptor at (0,-1,0,64)'
	DD	00H
	DD	00H
	DD	0ffffffffH
	DD	00H
	DD	040H
	DD	FLAT:??_R3?$CDynamicPool@VCGraphicExpandedImageInstance@@@@8
rdata$r	ENDS
;	COMDAT ??_R2?$CDynamicPool@VCGraphicExpandedImageInstance@@@@8
rdata$r	SEGMENT
??_R2?$CDynamicPool@VCGraphicExpandedImageInstance@@@@8 DD FLAT:??_R1A@?0A@EA@?$CDynamicPool@VCGraphicExpandedImageInstance@@@@8 ; CDynamicPool<CGraphicExpandedImageInstance>::`RTTI Base Class Array'
rdata$r	ENDS
;	COMDAT ??_R3?$CDynamicPool@VCGraphicExpandedImageInstance@@@@8
rdata$r	SEGMENT
??_R3?$CDynamicPool@VCGraphicExpandedImageInstance@@@@8 DD 00H ; CDynamicPool<CGraphicExpandedImageInstance>::`RTTI Class Hierarchy Descriptor'
	DD	00H
	DD	01H
	DD	FLAT:??_R2?$CDynamicPool@VCGraphicExpandedImageInstance@@@@8
rdata$r	ENDS
;	COMDAT ??_R0?AV?$CDynamicPool@VCGraphicExpandedImageInstance@@@@@8
data$rs	SEGMENT
??_R0?AV?$CDynamicPool@VCGraphicExpandedImageInstance@@@@@8 DD FLAT:??_7type_info@@6B@ ; CDynamicPool<CGraphicExpandedImageInstance> `RTTI Type Descriptor'
	DD	00H
	DB	'.?AV?$CDynamicPool@VCGraphicExpandedImageInstance@@@@', 00H
data$rs	ENDS
;	COMDAT ??_R4?$CDynamicPool@VCGraphicExpandedImageInstance@@@@6B@
rdata$r	SEGMENT
??_R4?$CDynamicPool@VCGraphicExpandedImageInstance@@@@6B@ DD 00H ; CDynamicPool<CGraphicExpandedImageInstance>::`RTTI Complete Object Locator'
	DD	00H
	DD	00H
	DD	FLAT:??_R0?AV?$CDynamicPool@VCGraphicExpandedImageInstance@@@@@8
	DD	FLAT:??_R3?$CDynamicPool@VCGraphicExpandedImageInstance@@@@8
rdata$r	ENDS
;	COMDAT ??_7?$CDynamicPool@VCGraphicExpandedImageInstance@@@@6B@
CONST	SEGMENT
??_7?$CDynamicPool@VCGraphicExpandedImageInstance@@@@6B@ DD FLAT:??_R4?$CDynamicPool@VCGraphicExpandedImageInstance@@@@6B@ ; CDynamicPool<CGraphicExpandedImageInstance>::`vftable'
	DD	FLAT:??_E?$CDynamicPool@VCGraphicExpandedImageInstance@@@@UAEPAXI@Z
CONST	ENDS
PUBLIC	??_H@YGXPAXIIP6EPAX0@Z@Z			; `vector constructor iterator'
PUBLIC	??0exception@std@@QAE@ABV01@@Z			; std::exception::exception
PUBLIC	??1exception@std@@UAE@XZ			; std::exception::~exception
PUBLIC	?what@exception@std@@UBEPBDXZ			; std::exception::what
PUBLIC	??_Gexception@std@@UAEPAXI@Z			; std::exception::`scalar deleting destructor'
PUBLIC	??0bad_alloc@std@@QAE@ABV01@@Z			; std::bad_alloc::bad_alloc
PUBLIC	??_Gbad_alloc@std@@UAEPAXI@Z			; std::bad_alloc::`scalar deleting destructor'
PUBLIC	??0bad_array_new_length@std@@QAE@XZ		; std::bad_array_new_length::bad_array_new_length
PUBLIC	??1bad_array_new_length@std@@UAE@XZ		; std::bad_array_new_length::~bad_array_new_length
PUBLIC	??0bad_array_new_length@std@@QAE@ABV01@@Z	; std::bad_array_new_length::bad_array_new_length
PUBLIC	??_Gbad_array_new_length@std@@UAEPAXI@Z		; std::bad_array_new_length::`scalar deleting destructor'
PUBLIC	?_Throw_bad_array_new_length@std@@YAXXZ		; std::_Throw_bad_array_new_length
PUBLIC	??$_Allocate_manually_vector_aligned@U_Default_allocate_traits@std@@@std@@YAPAXI@Z ; std::_Allocate_manually_vector_aligned<std::_Default_allocate_traits>
PUBLIC	??0SPDTVertex@@QAE@XZ				; SPDTVertex::SPDTVertex
PUBLIC	?Type@CGraphicExpandedImageInstance@@SAKXZ	; CGraphicExpandedImageInstance::Type
PUBLIC	??0CGraphicExpandedImageInstance@@QAE@XZ	; CGraphicExpandedImageInstance::CGraphicExpandedImageInstance
PUBLIC	??1CGraphicExpandedImageInstance@@UAE@XZ	; CGraphicExpandedImageInstance::~CGraphicExpandedImageInstance
PUBLIC	?Destroy@CGraphicExpandedImageInstance@@QAEXXZ	; CGraphicExpandedImageInstance::Destroy
PUBLIC	?SetDepth@CGraphicExpandedImageInstance@@QAEXM@Z ; CGraphicExpandedImageInstance::SetDepth
PUBLIC	?SetOrigin@CGraphicExpandedImageInstance@@QAEXXZ ; CGraphicExpandedImageInstance::SetOrigin
PUBLIC	?SetOrigin@CGraphicExpandedImageInstance@@QAEXMM@Z ; CGraphicExpandedImageInstance::SetOrigin
PUBLIC	?SetRotation@CGraphicExpandedImageInstance@@QAEXM@Z ; CGraphicExpandedImageInstance::SetRotation
PUBLIC	?SetScale@CGraphicExpandedImageInstance@@QAEXMM@Z ; CGraphicExpandedImageInstance::SetScale
PUBLIC	?SetRenderingRect@CGraphicExpandedImageInstance@@QAEXMMMM@Z ; CGraphicExpandedImageInstance::SetRenderingRect
PUBLIC	?SetRenderingMode@CGraphicExpandedImageInstance@@QAEXH@Z ; CGraphicExpandedImageInstance::SetRenderingMode
PUBLIC	?OnRenderCoolTime@CGraphicExpandedImageInstance@@UAEXM@Z ; CGraphicExpandedImageInstance::OnRenderCoolTime
PUBLIC	?RenderCoolTime@CGraphicExpandedImageInstance@@QAEXM@Z ; CGraphicExpandedImageInstance::RenderCoolTime
PUBLIC	?Initialize@CGraphicExpandedImageInstance@@IAEXXZ ; CGraphicExpandedImageInstance::Initialize
PUBLIC	?OnRender@CGraphicExpandedImageInstance@@MAEXXZ	; CGraphicExpandedImageInstance::OnRender
PUBLIC	?OnSetImagePointer@CGraphicExpandedImageInstance@@MAEXXZ ; CGraphicExpandedImageInstance::OnSetImagePointer
PUBLIC	?OnIsType@CGraphicExpandedImageInstance@@MAEHK@Z ; CGraphicExpandedImageInstance::OnIsType
PUBLIC	?CreateSystem@CGraphicExpandedImageInstance@@SAXI@Z ; CGraphicExpandedImageInstance::CreateSystem
PUBLIC	?DestroySystem@CGraphicExpandedImageInstance@@SAXXZ ; CGraphicExpandedImageInstance::DestroySystem
PUBLIC	?New@CGraphicExpandedImageInstance@@SAPAV1@XZ	; CGraphicExpandedImageInstance::New
PUBLIC	?Delete@CGraphicExpandedImageInstance@@SAXPAV1@@Z ; CGraphicExpandedImageInstance::Delete
PUBLIC	??_GCGraphicExpandedImageInstance@@UAEPAXI@Z	; CGraphicExpandedImageInstance::`scalar deleting destructor'
PUBLIC	??1?$CDynamicPool@VCGraphicExpandedImageInstance@@@@UAE@XZ ; CDynamicPool<CGraphicExpandedImageInstance>::~CDynamicPool<CGraphicExpandedImageInstance>
PUBLIC	?Delete@?$CDynamicPool@VCGraphicExpandedImageInstance@@@@KAXPAVCGraphicExpandedImageInstance@@@Z ; CDynamicPool<CGraphicExpandedImageInstance>::Delete
PUBLIC	?_Reallocate_exactly@?$vector@PAVCGraphicExpandedImageInstance@@V?$allocator@PAVCGraphicExpandedImageInstance@@@std@@@std@@AAEXI@Z ; std::vector<CGraphicExpandedImageInstance *,std::allocator<CGraphicExpandedImageInstance *> >::_Reallocate_exactly
PUBLIC	?_Change_array@?$vector@PAVCGraphicExpandedImageInstance@@V?$allocator@PAVCGraphicExpandedImageInstance@@@std@@@std@@AAEXQAPAVCGraphicExpandedImageInstance@@II@Z ; std::vector<CGraphicExpandedImageInstance *,std::allocator<CGraphicExpandedImageInstance *> >::_Change_array
PUBLIC	?_Xlength@?$vector@PAVCGraphicExpandedImageInstance@@V?$allocator@PAVCGraphicExpandedImageInstance@@@std@@@std@@CAXXZ ; std::vector<CGraphicExpandedImageInstance *,std::allocator<CGraphicExpandedImageInstance *> >::_Xlength
PUBLIC	??1?$vector@USPDTVertex@@V?$allocator@USPDTVertex@@@std@@@std@@QAE@XZ ; std::vector<SPDTVertex,std::allocator<SPDTVertex> >::~vector<SPDTVertex,std::allocator<SPDTVertex> >
PUBLIC	?_Xlength@?$vector@USPDTVertex@@V?$allocator@USPDTVertex@@@std@@@std@@CAXXZ ; std::vector<SPDTVertex,std::allocator<SPDTVertex> >::_Xlength
PUBLIC	??$_Emplace_reallocate@ABUSPDTVertex@@@?$vector@USPDTVertex@@V?$allocator@USPDTVertex@@@std@@@std@@QAEPAUSPDTVertex@@QAU2@ABU2@@Z ; std::vector<SPDTVertex,std::allocator<SPDTVertex> >::_Emplace_reallocate<SPDTVertex const &>
PUBLIC	??$_Emplace_reallocate@ABQAVCGraphicExpandedImageInstance@@@?$vector@PAVCGraphicExpandedImageInstance@@V?$allocator@PAVCGraphicExpandedImageInstance@@@std@@@std@@QAEPAPAVCGraphicExpandedImageInstance@@QAPAV2@ABQAV2@@Z ; std::vector<CGraphicExpandedImageInstance *,std::allocator<CGraphicExpandedImageInstance *> >::_Emplace_reallocate<CGraphicExpandedImageInstance * const &>
PUBLIC	??$_Copy_memmove@PAPAVCGraphicExpandedImageInstance@@PAPAV1@@std@@YAPAPAVCGraphicExpandedImageInstance@@PAPAV1@00@Z ; std::_Copy_memmove<CGraphicExpandedImageInstance * *,CGraphicExpandedImageInstance * *>
PUBLIC	??_7exception@std@@6B@				; std::exception::`vftable'
PUBLIC	??_C@_0BC@EOODALEL@Unknown?5exception@		; `string'
PUBLIC	??_7bad_alloc@std@@6B@				; std::bad_alloc::`vftable'
PUBLIC	??_7bad_array_new_length@std@@6B@		; std::bad_array_new_length::`vftable'
PUBLIC	??_C@_0BF@KINCDENJ@bad?5array?5new?5length@	; `string'
PUBLIC	__TI3?AVbad_array_new_length@std@@
PUBLIC	__CTA3?AVbad_array_new_length@std@@
PUBLIC	??_R0?AVbad_array_new_length@std@@@8		; std::bad_array_new_length `RTTI Type Descriptor'
PUBLIC	__CT??_R0?AVbad_array_new_length@std@@@8??0bad_array_new_length@std@@QAE@ABV01@@Z12
PUBLIC	??_R0?AVbad_alloc@std@@@8			; std::bad_alloc `RTTI Type Descriptor'
PUBLIC	__CT??_R0?AVbad_alloc@std@@@8??0bad_alloc@std@@QAE@ABV01@@Z12
PUBLIC	??_R0?AVexception@std@@@8			; std::exception `RTTI Type Descriptor'
PUBLIC	__CT??_R0?AVexception@std@@@8??0exception@std@@QAE@ABV01@@Z12
PUBLIC	??_R4exception@std@@6B@				; std::exception::`RTTI Complete Object Locator'
PUBLIC	??_R3exception@std@@8				; std::exception::`RTTI Class Hierarchy Descriptor'
PUBLIC	??_R2exception@std@@8				; std::exception::`RTTI Base Class Array'
PUBLIC	??_R1A@?0A@EA@exception@std@@8			; std::exception::`RTTI Base Class Descriptor at (0,-1,0,64)'
PUBLIC	??_R4bad_alloc@std@@6B@				; std::bad_alloc::`RTTI Complete Object Locator'
PUBLIC	??_R3bad_alloc@std@@8				; std::bad_alloc::`RTTI Class Hierarchy Descriptor'
PUBLIC	??_R2bad_alloc@std@@8				; std::bad_alloc::`RTTI Base Class Array'
PUBLIC	??_R1A@?0A@EA@bad_alloc@std@@8			; std::bad_alloc::`RTTI Base Class Descriptor at (0,-1,0,64)'
PUBLIC	??_R4bad_array_new_length@std@@6B@		; std::bad_array_new_length::`RTTI Complete Object Locator'
PUBLIC	??_R3bad_array_new_length@std@@8		; std::bad_array_new_length::`RTTI Class Hierarchy Descriptor'
PUBLIC	??_R2bad_array_new_length@std@@8		; std::bad_array_new_length::`RTTI Base Class Array'
PUBLIC	??_R1A@?0A@EA@bad_array_new_length@std@@8	; std::bad_array_new_length::`RTTI Base Class Descriptor at (0,-1,0,64)'
PUBLIC	?ms_kPool@CGraphicExpandedImageInstance@@2V?$CDynamicPool@VCGraphicExpandedImageInstance@@@@A ; CGraphicExpandedImageInstance::ms_kPool
PUBLIC	??_7CGraphicExpandedImageInstance@@6B@		; CGraphicExpandedImageInstance::`vftable'
PUBLIC	?ms_singleton@?$CSingleton@VCStateManager@@@@0PAVCStateManager@@A ; CSingleton<CStateManager>::ms_singleton
PUBLIC	??_C@_0BO@COPDODEE@CGraphicExpandedImageInstance@ ; `string'
PUBLIC	??_C@_0BA@FOIKENOD@vector?5too?5long@		; `string'
PUBLIC	??_R4CGraphicExpandedImageInstance@@6B@		; CGraphicExpandedImageInstance::`RTTI Complete Object Locator'
PUBLIC	??_R0?AVCGraphicExpandedImageInstance@@@8	; CGraphicExpandedImageInstance `RTTI Type Descriptor'
PUBLIC	??_R3CGraphicExpandedImageInstance@@8		; CGraphicExpandedImageInstance::`RTTI Class Hierarchy Descriptor'
PUBLIC	??_R2CGraphicExpandedImageInstance@@8		; CGraphicExpandedImageInstance::`RTTI Base Class Array'
PUBLIC	??_R1A@?0A@EA@CGraphicExpandedImageInstance@@8	; CGraphicExpandedImageInstance::`RTTI Base Class Descriptor at (0,-1,0,64)'
PUBLIC	??_R1A@?0A@EA@CGraphicImageInstance@@8		; CGraphicImageInstance::`RTTI Base Class Descriptor at (0,-1,0,64)'
PUBLIC	??_R0?AVCGraphicImageInstance@@@8		; CGraphicImageInstance `RTTI Type Descriptor'
PUBLIC	??_R3CGraphicImageInstance@@8			; CGraphicImageInstance::`RTTI Class Hierarchy Descriptor'
PUBLIC	??_R2CGraphicImageInstance@@8			; CGraphicImageInstance::`RTTI Base Class Array'
PUBLIC	__real@3c8efa35
PUBLIC	__real@3f000000
PUBLIC	__real@3f800000
PUBLIC	__real@41000000
PUBLIC	__real@437f0000
PUBLIC	__xmm@000000003f8000003f8000003f800000
PUBLIC	__xmm@00000000bf800000bf800000bf800000
PUBLIC	__xmm@3f800000000000003f800000bf800000
PUBLIC	__xmm@80000000800000008000000080000000
PUBLIC	__xmm@bf80000000000000bf8000003f800000
EXTRN	??2@YAPAXI@Z:PROC				; operator new
EXTRN	??3@YAXPAXI@Z:PROC				; operator delete
EXTRN	_atexit:PROC
EXTRN	__Init_thread_header:PROC
EXTRN	__Init_thread_abort:PROC
EXTRN	__Init_thread_footer:PROC
EXTRN	__invalid_parameter_noinfo_noreturn:PROC
EXTRN	___std_exception_copy:PROC
EXTRN	___std_exception_destroy:PROC
EXTRN	??_Eexception@std@@UAEPAXI@Z:PROC		; std::exception::`vector deleting destructor'
EXTRN	??_Ebad_alloc@std@@UAEPAXI@Z:PROC		; std::bad_alloc::`vector deleting destructor'
EXTRN	??_Ebad_array_new_length@std@@UAEPAXI@Z:PROC	; std::bad_array_new_length::`vector deleting destructor'
EXTRN	?_Xlength_error@std@@YAXPBD@Z:PROC		; std::_Xlength_error
EXTRN	?GetCRC32@@YAKPBDI@Z:PROC			; GetCRC32
EXTRN	?SetDefaultIndexBuffer@CGraphicBase@@SAXI@Z:PROC ; CGraphicBase::SetDefaultIndexBuffer
EXTRN	?SetPDTStream@CGraphicBase@@SA_NPAUSPDTVertex@@I@Z:PROC ; CGraphicBase::SetPDTStream
EXTRN	?GetWidth@CGraphicTexture@@QBEHXZ:PROC		; CGraphicTexture::GetWidth
EXTRN	?GetHeight@CGraphicTexture@@QBEHXZ:PROC		; CGraphicTexture::GetHeight
EXTRN	?GetD3DTexture@CGraphicTexture@@QBEPAUIDirect3DTexture8@@XZ:PROC ; CGraphicTexture::GetD3DTexture
EXTRN	?GetWidth@CGraphicImage@@QBEHXZ:PROC		; CGraphicImage::GetWidth
EXTRN	?GetHeight@CGraphicImage@@QBEHXZ:PROC		; CGraphicImage::GetHeight
EXTRN	?GetRectReference@CGraphicImage@@QBEABUtagRECT@@XZ:PROC ; CGraphicImage::GetRectReference
EXTRN	?GetTexturePointer@CGraphicImage@@QAEPAVCGraphicTexture@@XZ:PROC ; CGraphicImage::GetTexturePointer
EXTRN	?IsType@CGraphicImageInstance@@QAEHK@Z:PROC	; CGraphicImageInstance::IsType
EXTRN	??0CGraphicImageInstance@@QAE@XZ:PROC		; CGraphicImageInstance::CGraphicImageInstance
EXTRN	??1CGraphicImageInstance@@UAE@XZ:PROC		; CGraphicImageInstance::~CGraphicImageInstance
EXTRN	?Destroy@CGraphicImageInstance@@QAEXXZ:PROC	; CGraphicImageInstance::Destroy
EXTRN	?IsEmpty@CGraphicImageInstance@@QBE_NXZ:PROC	; CGraphicImageInstance::IsEmpty
EXTRN	?GetWidth@CGraphicImageInstance@@QAEHXZ:PROC	; CGraphicImageInstance::GetWidth
EXTRN	?GetHeight@CGraphicImageInstance@@QAEHXZ:PROC	; CGraphicImageInstance::GetHeight
EXTRN	??_ECGraphicExpandedImageInstance@@UAEPAXI@Z:PROC ; CGraphicExpandedImageInstance::`vector deleting destructor'
EXTRN	?SaveRenderState@CStateManager@@QAEXW4_D3DRENDERSTATETYPE@@K@Z:PROC ; CStateManager::SaveRenderState
EXTRN	?RestoreRenderState@CStateManager@@QAEXW4_D3DRENDERSTATETYPE@@@Z:PROC ; CStateManager::RestoreRenderState
EXTRN	?SetRenderState@CStateManager@@QAEXW4_D3DRENDERSTATETYPE@@K@Z:PROC ; CStateManager::SetRenderState
EXTRN	?SetTexture@CStateManager@@QAEXKPAUIDirect3DBaseTexture8@@@Z:PROC ; CStateManager::SetTexture
EXTRN	?SetVertexShader@CStateManager@@QAEXK@Z:PROC	; CStateManager::SetVertexShader
EXTRN	?DrawPrimitive@CStateManager@@QAEJW4_D3DPRIMITIVETYPE@@II@Z:PROC ; CStateManager::DrawPrimitive
EXTRN	?DrawIndexedPrimitive@CStateManager@@QAEJW4_D3DPRIMITIVETYPE@@IIII@Z:PROC ; CStateManager::DrawIndexedPrimitive
EXTRN	@__security_check_cookie@4:PROC
EXTRN	__CxxThrowException@8:PROC
EXTRN	___CxxFrameHandler3:PROC
EXTRN	__ftoui3:PROC
EXTRN	__libm_sse2_cos_precise:PROC
EXTRN	__libm_sse2_sin_precise:PROC
EXTRN	_memmove:PROC
EXTRN	__Init_thread_epoch:DWORD
EXTRN	___security_cookie:DWORD
EXTRN	__fltused:DWORD
EXTRN	__tls_array:DWORD
EXTRN	__tls_index:DWORD
;	COMDAT ?ms_singleton@?$CSingleton@VCStateManager@@@@0PAVCStateManager@@A
_BSS	SEGMENT
?ms_singleton@?$CSingleton@VCStateManager@@@@0PAVCStateManager@@A DD 01H DUP (?) ; CSingleton<CStateManager>::ms_singleton
_BSS	ENDS
;	COMDAT ?s_dwType@?1??Type@CGraphicExpandedImageInstance@@SAKXZ@4KA
_BSS	SEGMENT
?s_dwType@?1??Type@CGraphicExpandedImageInstance@@SAKXZ@4KA DD 01H DUP (?) ; `CGraphicExpandedImageInstance::Type'::`2'::s_dwType
_BSS	ENDS
;	COMDAT ?$TSS0@?1??Type@CGraphicExpandedImageInstance@@SAKXZ@4HA
_BSS	SEGMENT
?$TSS0@?1??Type@CGraphicExpandedImageInstance@@SAKXZ@4HA DD 01H DUP (?) ; `CGraphicExpandedImageInstance::Type'::`2'::$TSS0
_BSS	ENDS
CRT$XCU	SEGMENT
??ms_kPool$initializer$@CGraphicExpandedImageInstance@@2P6AXXZA@@3P6AXXZA DD FLAT:??__E?ms_kPool@CGraphicExpandedImageInstance@@2V?$CDynamicPool@VCGraphicExpandedImageInstance@@@@A@@YAXXZ ; ??ms_kPool$initializer$@CGraphicExpandedImageInstance@@2P6AXXZA@@3P6AXXZA
CRT$XCU	ENDS
;	COMDAT __xmm@bf80000000000000bf8000003f800000
CONST	SEGMENT
__xmm@bf80000000000000bf8000003f800000 DB 00H, 00H, 080H, '?', 00H, 00H, 080H
	DB	0bfH, 00H, 00H, 00H, 00H, 00H, 00H, 080H, 0bfH
CONST	ENDS
;	COMDAT __xmm@80000000800000008000000080000000
CONST	SEGMENT
__xmm@80000000800000008000000080000000 DB 00H, 00H, 00H, 080H, 00H, 00H, 00H
	DB	080H, 00H, 00H, 00H, 080H, 00H, 00H, 00H, 080H
CONST	ENDS
;	COMDAT __xmm@3f800000000000003f800000bf800000
CONST	SEGMENT
__xmm@3f800000000000003f800000bf800000 DB 00H, 00H, 080H, 0bfH, 00H, 00H, 080H
	DB	'?', 00H, 00H, 00H, 00H, 00H, 00H, 080H, '?'
CONST	ENDS
;	COMDAT __xmm@00000000bf800000bf800000bf800000
CONST	SEGMENT
__xmm@00000000bf800000bf800000bf800000 DB 00H, 00H, 080H, 0bfH, 00H, 00H, 080H
	DB	0bfH, 00H, 00H, 080H, 0bfH, 00H, 00H, 00H, 00H
CONST	ENDS
;	COMDAT __xmm@000000003f8000003f8000003f800000
CONST	SEGMENT
__xmm@000000003f8000003f8000003f800000 DB 00H, 00H, 080H, '?', 00H, 00H, 080H
	DB	'?', 00H, 00H, 080H, '?', 00H, 00H, 00H, 00H
CONST	ENDS
;	COMDAT __real@437f0000
CONST	SEGMENT
__real@437f0000 DD 0437f0000r			; 255
CONST	ENDS
;	COMDAT __real@41000000
CONST	SEGMENT
__real@41000000 DD 041000000r			; 8
CONST	ENDS
;	COMDAT __real@3f800000
CONST	SEGMENT
__real@3f800000 DD 03f800000r			; 1
CONST	ENDS
;	COMDAT __real@3f000000
CONST	SEGMENT
__real@3f000000 DD 03f000000r			; 0.5
CONST	ENDS
;	COMDAT __real@3c8efa35
CONST	SEGMENT
__real@3c8efa35 DD 03c8efa35r			; 0.0174533
CONST	ENDS
;	COMDAT ??_R2CGraphicImageInstance@@8
rdata$r	SEGMENT
??_R2CGraphicImageInstance@@8 DD FLAT:??_R1A@?0A@EA@CGraphicImageInstance@@8 ; CGraphicImageInstance::`RTTI Base Class Array'
rdata$r	ENDS
;	COMDAT ??_R3CGraphicImageInstance@@8
rdata$r	SEGMENT
??_R3CGraphicImageInstance@@8 DD 00H			; CGraphicImageInstance::`RTTI Class Hierarchy Descriptor'
	DD	00H
	DD	01H
	DD	FLAT:??_R2CGraphicImageInstance@@8
rdata$r	ENDS
;	COMDAT ??_R0?AVCGraphicImageInstance@@@8
data$rs	SEGMENT
??_R0?AVCGraphicImageInstance@@@8 DD FLAT:??_7type_info@@6B@ ; CGraphicImageInstance `RTTI Type Descriptor'
	DD	00H
	DB	'.?AVCGraphicImageInstance@@', 00H
data$rs	ENDS
;	COMDAT ??_R1A@?0A@EA@CGraphicImageInstance@@8
rdata$r	SEGMENT
??_R1A@?0A@EA@CGraphicImageInstance@@8 DD FLAT:??_R0?AVCGraphicImageInstance@@@8 ; CGraphicImageInstance::`RTTI Base Class Descriptor at (0,-1,0,64)'
	DD	00H
	DD	00H
	DD	0ffffffffH
	DD	00H
	DD	040H
	DD	FLAT:??_R3CGraphicImageInstance@@8
rdata$r	ENDS
;	COMDAT ??_R1A@?0A@EA@CGraphicExpandedImageInstance@@8
rdata$r	SEGMENT
??_R1A@?0A@EA@CGraphicExpandedImageInstance@@8 DD FLAT:??_R0?AVCGraphicExpandedImageInstance@@@8 ; CGraphicExpandedImageInstance::`RTTI Base Class Descriptor at (0,-1,0,64)'
	DD	01H
	DD	00H
	DD	0ffffffffH
	DD	00H
	DD	040H
	DD	FLAT:??_R3CGraphicExpandedImageInstance@@8
rdata$r	ENDS
;	COMDAT ??_R2CGraphicExpandedImageInstance@@8
rdata$r	SEGMENT
??_R2CGraphicExpandedImageInstance@@8 DD FLAT:??_R1A@?0A@EA@CGraphicExpandedImageInstance@@8 ; CGraphicExpandedImageInstance::`RTTI Base Class Array'
	DD	FLAT:??_R1A@?0A@EA@CGraphicImageInstance@@8
rdata$r	ENDS
;	COMDAT ??_R3CGraphicExpandedImageInstance@@8
rdata$r	SEGMENT
??_R3CGraphicExpandedImageInstance@@8 DD 00H		; CGraphicExpandedImageInstance::`RTTI Class Hierarchy Descriptor'
	DD	00H
	DD	02H
	DD	FLAT:??_R2CGraphicExpandedImageInstance@@8
rdata$r	ENDS
;	COMDAT ??_R0?AVCGraphicExpandedImageInstance@@@8
data$rs	SEGMENT
??_R0?AVCGraphicExpandedImageInstance@@@8 DD FLAT:??_7type_info@@6B@ ; CGraphicExpandedImageInstance `RTTI Type Descriptor'
	DD	00H
	DB	'.?AVCGraphicExpandedImageInstance@@', 00H
data$rs	ENDS
;	COMDAT ??_R4CGraphicExpandedImageInstance@@6B@
rdata$r	SEGMENT
??_R4CGraphicExpandedImageInstance@@6B@ DD 00H		; CGraphicExpandedImageInstance::`RTTI Complete Object Locator'
	DD	00H
	DD	00H
	DD	FLAT:??_R0?AVCGraphicExpandedImageInstance@@@8
	DD	FLAT:??_R3CGraphicExpandedImageInstance@@8
rdata$r	ENDS
;	COMDAT ??_C@_0BA@FOIKENOD@vector?5too?5long@
CONST	SEGMENT
??_C@_0BA@FOIKENOD@vector?5too?5long@ DB 'vector too long', 00H ; `string'
CONST	ENDS
;	COMDAT ??_C@_0BO@COPDODEE@CGraphicExpandedImageInstance@
CONST	SEGMENT
??_C@_0BO@COPDODEE@CGraphicExpandedImageInstance@ DB 'CGraphicExpandedIma'
	DB	'geInstance', 00H				; `string'
CONST	ENDS
;	COMDAT ??_7CGraphicExpandedImageInstance@@6B@
CONST	SEGMENT
??_7CGraphicExpandedImageInstance@@6B@ DD FLAT:??_R4CGraphicExpandedImageInstance@@6B@ ; CGraphicExpandedImageInstance::`vftable'
	DD	FLAT:??_ECGraphicExpandedImageInstance@@UAEPAXI@Z
	DD	FLAT:?OnRenderCoolTime@CGraphicExpandedImageInstance@@UAEXM@Z
	DD	FLAT:?OnRender@CGraphicExpandedImageInstance@@MAEXXZ
	DD	FLAT:?OnSetImagePointer@CGraphicExpandedImageInstance@@MAEXXZ
	DD	FLAT:?OnIsType@CGraphicExpandedImageInstance@@MAEHK@Z
CONST	ENDS
_DATA	SEGMENT
?ms_kPool@CGraphicExpandedImageInstance@@2V?$CDynamicPool@VCGraphicExpandedImageInstance@@@@A DD FLAT:??_7?$CDynamicPool@VCGraphicExpandedImageInstance@@@@6B@ ; CGraphicExpandedImageInstance::ms_kPool
	DD	00H
	DD	00H
	DD	00H
	DD	00H
	DD	00H
	DD	00H
	DD	00H
	DD	00H
_DATA	ENDS
;	COMDAT ??_R1A@?0A@EA@bad_array_new_length@std@@8
rdata$r	SEGMENT
??_R1A@?0A@EA@bad_array_new_length@std@@8 DD FLAT:??_R0?AVbad_array_new_length@std@@@8 ; std::bad_array_new_length::`RTTI Base Class Descriptor at (0,-1,0,64)'
	DD	02H
	DD	00H
	DD	0ffffffffH
	DD	00H
	DD	040H
	DD	FLAT:??_R3bad_array_new_length@std@@8
rdata$r	ENDS
;	COMDAT ??_R2bad_array_new_length@std@@8
rdata$r	SEGMENT
??_R2bad_array_new_length@std@@8 DD FLAT:??_R1A@?0A@EA@bad_array_new_length@std@@8 ; std::bad_array_new_length::`RTTI Base Class Array'
	DD	FLAT:??_R1A@?0A@EA@bad_alloc@std@@8
	DD	FLAT:??_R1A@?0A@EA@exception@std@@8
rdata$r	ENDS
;	COMDAT ??_R3bad_array_new_length@std@@8
rdata$r	SEGMENT
??_R3bad_array_new_length@std@@8 DD 00H			; std::bad_array_new_length::`RTTI Class Hierarchy Descriptor'
	DD	00H
	DD	03H
	DD	FLAT:??_R2bad_array_new_length@std@@8
rdata$r	ENDS
;	COMDAT ??_R4bad_array_new_length@std@@6B@
rdata$r	SEGMENT
??_R4bad_array_new_length@std@@6B@ DD 00H		; std::bad_array_new_length::`RTTI Complete Object Locator'
	DD	00H
	DD	00H
	DD	FLAT:??_R0?AVbad_array_new_length@std@@@8
	DD	FLAT:??_R3bad_array_new_length@std@@8
rdata$r	ENDS
;	COMDAT ??_R1A@?0A@EA@bad_alloc@std@@8
rdata$r	SEGMENT
??_R1A@?0A@EA@bad_alloc@std@@8 DD FLAT:??_R0?AVbad_alloc@std@@@8 ; std::bad_alloc::`RTTI Base Class Descriptor at (0,-1,0,64)'
	DD	01H
	DD	00H
	DD	0ffffffffH
	DD	00H
	DD	040H
	DD	FLAT:??_R3bad_alloc@std@@8
rdata$r	ENDS
;	COMDAT ??_R2bad_alloc@std@@8
rdata$r	SEGMENT
??_R2bad_alloc@std@@8 DD FLAT:??_R1A@?0A@EA@bad_alloc@std@@8 ; std::bad_alloc::`RTTI Base Class Array'
	DD	FLAT:??_R1A@?0A@EA@exception@std@@8
rdata$r	ENDS
;	COMDAT ??_R3bad_alloc@std@@8
rdata$r	SEGMENT
??_R3bad_alloc@std@@8 DD 00H				; std::bad_alloc::`RTTI Class Hierarchy Descriptor'
	DD	00H
	DD	02H
	DD	FLAT:??_R2bad_alloc@std@@8
rdata$r	ENDS
;	COMDAT ??_R4bad_alloc@std@@6B@
rdata$r	SEGMENT
??_R4bad_alloc@std@@6B@ DD 00H				; std::bad_alloc::`RTTI Complete Object Locator'
	DD	00H
	DD	00H
	DD	FLAT:??_R0?AVbad_alloc@std@@@8
	DD	FLAT:??_R3bad_alloc@std@@8
rdata$r	ENDS
;	COMDAT ??_R1A@?0A@EA@exception@std@@8
rdata$r	SEGMENT
??_R1A@?0A@EA@exception@std@@8 DD FLAT:??_R0?AVexception@std@@@8 ; std::exception::`RTTI Base Class Descriptor at (0,-1,0,64)'
	DD	00H
	DD	00H
	DD	0ffffffffH
	DD	00H
	DD	040H
	DD	FLAT:??_R3exception@std@@8
rdata$r	ENDS
;	COMDAT ??_R2exception@std@@8
rdata$r	SEGMENT
??_R2exception@std@@8 DD FLAT:??_R1A@?0A@EA@exception@std@@8 ; std::exception::`RTTI Base Class Array'
rdata$r	ENDS
;	COMDAT ??_R3exception@std@@8
rdata$r	SEGMENT
??_R3exception@std@@8 DD 00H				; std::exception::`RTTI Class Hierarchy Descriptor'
	DD	00H
	DD	01H
	DD	FLAT:??_R2exception@std@@8
rdata$r	ENDS
;	COMDAT ??_R4exception@std@@6B@
rdata$r	SEGMENT
??_R4exception@std@@6B@ DD 00H				; std::exception::`RTTI Complete Object Locator'
	DD	00H
	DD	00H
	DD	FLAT:??_R0?AVexception@std@@@8
	DD	FLAT:??_R3exception@std@@8
rdata$r	ENDS
;	COMDAT __CT??_R0?AVexception@std@@@8??0exception@std@@QAE@ABV01@@Z12
xdata$x	SEGMENT
__CT??_R0?AVexception@std@@@8??0exception@std@@QAE@ABV01@@Z12 DD 00H
	DD	FLAT:??_R0?AVexception@std@@@8
	DD	00H
	DD	0ffffffffH
	ORG $+4
	DD	0cH
	DD	FLAT:??0exception@std@@QAE@ABV01@@Z
xdata$x	ENDS
;	COMDAT ??_R0?AVexception@std@@@8
data$r	SEGMENT
??_R0?AVexception@std@@@8 DD FLAT:??_7type_info@@6B@	; std::exception `RTTI Type Descriptor'
	DD	00H
	DB	'.?AVexception@std@@', 00H
data$r	ENDS
;	COMDAT __CT??_R0?AVbad_alloc@std@@@8??0bad_alloc@std@@QAE@ABV01@@Z12
xdata$x	SEGMENT
__CT??_R0?AVbad_alloc@std@@@8??0bad_alloc@std@@QAE@ABV01@@Z12 DD 010H
	DD	FLAT:??_R0?AVbad_alloc@std@@@8
	DD	00H
	DD	0ffffffffH
	ORG $+4
	DD	0cH
	DD	FLAT:??0bad_alloc@std@@QAE@ABV01@@Z
xdata$x	ENDS
;	COMDAT ??_R0?AVbad_alloc@std@@@8
data$r	SEGMENT
??_R0?AVbad_alloc@std@@@8 DD FLAT:??_7type_info@@6B@	; std::bad_alloc `RTTI Type Descriptor'
	DD	00H
	DB	'.?AVbad_alloc@std@@', 00H
data$r	ENDS
;	COMDAT __CT??_R0?AVbad_array_new_length@std@@@8??0bad_array_new_length@std@@QAE@ABV01@@Z12
xdata$x	SEGMENT
__CT??_R0?AVbad_array_new_length@std@@@8??0bad_array_new_length@std@@QAE@ABV01@@Z12 DD 00H
	DD	FLAT:??_R0?AVbad_array_new_length@std@@@8
	DD	00H
	DD	0ffffffffH
	ORG $+4
	DD	0cH
	DD	FLAT:??0bad_array_new_length@std@@QAE@ABV01@@Z
xdata$x	ENDS
;	COMDAT ??_R0?AVbad_array_new_length@std@@@8
data$r	SEGMENT
??_R0?AVbad_array_new_length@std@@@8 DD FLAT:??_7type_info@@6B@ ; std::bad_array_new_length `RTTI Type Descriptor'
	DD	00H
	DB	'.?AVbad_array_new_length@std@@', 00H
data$r	ENDS
;	COMDAT __CTA3?AVbad_array_new_length@std@@
xdata$x	SEGMENT
__CTA3?AVbad_array_new_length@std@@ DD 03H
	DD	FLAT:__CT??_R0?AVbad_array_new_length@std@@@8??0bad_array_new_length@std@@QAE@ABV01@@Z12
	DD	FLAT:__CT??_R0?AVbad_alloc@std@@@8??0bad_alloc@std@@QAE@ABV01@@Z12
	DD	FLAT:__CT??_R0?AVexception@std@@@8??0exception@std@@QAE@ABV01@@Z12
xdata$x	ENDS
;	COMDAT __TI3?AVbad_array_new_length@std@@
xdata$x	SEGMENT
__TI3?AVbad_array_new_length@std@@ DD 00H
	DD	FLAT:??1bad_array_new_length@std@@UAE@XZ
	DD	00H
	DD	FLAT:__CTA3?AVbad_array_new_length@std@@
xdata$x	ENDS
;	COMDAT ??_C@_0BF@KINCDENJ@bad?5array?5new?5length@
CONST	SEGMENT
??_C@_0BF@KINCDENJ@bad?5array?5new?5length@ DB 'bad array new length', 00H ; `string'
CONST	ENDS
;	COMDAT ??_7bad_array_new_length@std@@6B@
CONST	SEGMENT
??_7bad_array_new_length@std@@6B@ DD FLAT:??_R4bad_array_new_length@std@@6B@ ; std::bad_array_new_length::`vftable'
	DD	FLAT:??_Ebad_array_new_length@std@@UAEPAXI@Z
	DD	FLAT:?what@exception@std@@UBEPBDXZ
CONST	ENDS
;	COMDAT ??_7bad_alloc@std@@6B@
CONST	SEGMENT
??_7bad_alloc@std@@6B@ DD FLAT:??_R4bad_alloc@std@@6B@	; std::bad_alloc::`vftable'
	DD	FLAT:??_Ebad_alloc@std@@UAEPAXI@Z
	DD	FLAT:?what@exception@std@@UBEPBDXZ
CONST	ENDS
;	COMDAT ??_C@_0BC@EOODALEL@Unknown?5exception@
CONST	SEGMENT
??_C@_0BC@EOODALEL@Unknown?5exception@ DB 'Unknown exception', 00H ; `string'
CONST	ENDS
;	COMDAT ??_7exception@std@@6B@
CONST	SEGMENT
??_7exception@std@@6B@ DD FLAT:??_R4exception@std@@6B@	; std::exception::`vftable'
	DD	FLAT:??_Eexception@std@@UAEPAXI@Z
	DD	FLAT:?what@exception@std@@UBEPBDXZ
CONST	ENDS
;	COMDAT xdata$x
xdata$x	SEGMENT
__unwindtable$?Alloc@?$CDynamicPool@VCGraphicExpandedImageInstance@@@@QAEPAVCGraphicExpandedImageInstance@@XZ DD 0ffffffffH
	DD	FLAT:__unwindfunclet$?Alloc@?$CDynamicPool@VCGraphicExpandedImageInstance@@@@QAEPAVCGraphicExpandedImageInstance@@XZ$0
__ehfuncinfo$?Alloc@?$CDynamicPool@VCGraphicExpandedImageInstance@@@@QAEPAVCGraphicExpandedImageInstance@@XZ DD 019930522H
	DD	01H
	DD	FLAT:__unwindtable$?Alloc@?$CDynamicPool@VCGraphicExpandedImageInstance@@@@QAEPAVCGraphicExpandedImageInstance@@XZ
	DD	2 DUP(00H)
	DD	2 DUP(00H)
	DD	00H
	DD	01H
xdata$x	ENDS
;	COMDAT xdata$x
xdata$x	SEGMENT
__unwindtable$?New@CGraphicExpandedImageInstance@@SAPAV1@XZ DD 0ffffffffH
	DD	FLAT:__unwindfunclet$?New@CGraphicExpandedImageInstance@@SAPAV1@XZ$0
__ehfuncinfo$?New@CGraphicExpandedImageInstance@@SAPAV1@XZ DD 019930522H
	DD	01H
	DD	FLAT:__unwindtable$?New@CGraphicExpandedImageInstance@@SAPAV1@XZ
	DD	2 DUP(00H)
	DD	2 DUP(00H)
	DD	00H
	DD	01H
xdata$x	ENDS
;	COMDAT xdata$x
xdata$x	SEGMENT
__unwindtable$?OnRenderCoolTime@CGraphicExpandedImageInstance@@UAEXM@Z DD 0ffffffffH
	DD	FLAT:__unwindfunclet$?OnRenderCoolTime@CGraphicExpandedImageInstance@@UAEXM@Z$0
__ehfuncinfo$?OnRenderCoolTime@CGraphicExpandedImageInstance@@UAEXM@Z DD 019930522H
	DD	01H
	DD	FLAT:__unwindtable$?OnRenderCoolTime@CGraphicExpandedImageInstance@@UAEXM@Z
	DD	2 DUP(00H)
	DD	2 DUP(00H)
	DD	00H
	DD	01H
xdata$x	ENDS
;	COMDAT xdata$x
xdata$x	SEGMENT
__ehfuncinfo$??1CGraphicExpandedImageInstance@@UAE@XZ DD 019930522H
	DD	00H
	DD	00H
	DD	2 DUP(00H)
	DD	2 DUP(00H)
	DD	00H
	DD	05H
xdata$x	ENDS
;	COMDAT xdata$x
xdata$x	SEGMENT
__unwindtable$?Type@CGraphicExpandedImageInstance@@SAKXZ DD 0ffffffffH
	DD	FLAT:__unwindfunclet$?Type@CGraphicExpandedImageInstance@@SAKXZ$0
__ehfuncinfo$?Type@CGraphicExpandedImageInstance@@SAKXZ DD 019930522H
	DD	01H
	DD	FLAT:__unwindtable$?Type@CGraphicExpandedImageInstance@@SAKXZ
	DD	2 DUP(00H)
	DD	2 DUP(00H)
	DD	00H
	DD	01H
xdata$x	ENDS
; Function compile flags: /Ogtp
; File C:\Program Files (x86)\Microsoft Visual Studio\2019\Professional\VC\Tools\MSVC\14.29.30133\include\xutility
;	COMDAT ??$_Copy_memmove@PAPAVCGraphicExpandedImageInstance@@PAPAV1@@std@@YAPAPAVCGraphicExpandedImageInstance@@PAPAV1@00@Z
_TEXT	SEGMENT
__First$ = 8						; size = 4
__Last$ = 12						; size = 4
__Dest$ = 16						; size = 4
??$_Copy_memmove@PAPAVCGraphicExpandedImageInstance@@PAPAV1@@std@@YAPAPAVCGraphicExpandedImageInstance@@PAPAV1@00@Z PROC ; std::_Copy_memmove<CGraphicExpandedImageInstance * *,CGraphicExpandedImageInstance * *>, COMDAT

; 4159 : _OutCtgIt _Copy_memmove(_CtgIt _First, _CtgIt _Last, _OutCtgIt _Dest) {

  00000	55		 push	 ebp
  00001	8b ec		 mov	 ebp, esp

; 4160 :     auto _FirstPtr              = _To_address(_First);
; 4161 :     auto _LastPtr               = _To_address(_Last);
; 4162 :     auto _DestPtr               = _To_address(_Dest);
; 4163 :     const char* const _First_ch = const_cast<const char*>(reinterpret_cast<const volatile char*>(_FirstPtr));
; 4164 :     const char* const _Last_ch  = const_cast<const char*>(reinterpret_cast<const volatile char*>(_LastPtr));
; 4165 :     char* const _Dest_ch        = const_cast<char*>(reinterpret_cast<const volatile char*>(_DestPtr));
; 4166 :     const auto _Count           = static_cast<size_t>(_Last_ch - _First_ch);

  00003	8b 45 08	 mov	 eax, DWORD PTR __First$[ebp]
  00006	56		 push	 esi

; 4167 :     _CSTD memmove(_Dest_ch, _First_ch, _Count);

  00007	8b 75 10	 mov	 esi, DWORD PTR __Dest$[ebp]
  0000a	57		 push	 edi
  0000b	8b 7d 0c	 mov	 edi, DWORD PTR __Last$[ebp]
  0000e	2b f8		 sub	 edi, eax
  00010	57		 push	 edi
  00011	50		 push	 eax
  00012	56		 push	 esi
  00013	e8 00 00 00 00	 call	 _memmove
  00018	83 c4 0c	 add	 esp, 12			; 0000000cH

; 4168 :     if constexpr (is_pointer_v<_OutCtgIt>) {
; 4169 :         return reinterpret_cast<_OutCtgIt>(_Dest_ch + _Count);

  0001b	8d 04 37	 lea	 eax, DWORD PTR [edi+esi]
  0001e	5f		 pop	 edi
  0001f	5e		 pop	 esi

; 4170 :     } else {
; 4171 :         return _Dest + (_LastPtr - _FirstPtr);
; 4172 :     }
; 4173 : }

  00020	5d		 pop	 ebp
  00021	c3		 ret	 0
??$_Copy_memmove@PAPAVCGraphicExpandedImageInstance@@PAPAV1@@std@@YAPAPAVCGraphicExpandedImageInstance@@PAPAV1@00@Z ENDP ; std::_Copy_memmove<CGraphicExpandedImageInstance * *,CGraphicExpandedImageInstance * *>
_TEXT	ENDS
; Function compile flags: /Ogtp
; File C:\Program Files (x86)\Microsoft Visual Studio\2019\Professional\VC\Tools\MSVC\14.29.30133\include\vector
; File C:\Program Files (x86)\Microsoft Visual Studio\2019\Professional\VC\Tools\MSVC\14.29.30133\include\xmemory
; File C:\Program Files (x86)\Microsoft Visual Studio\2019\Professional\VC\Tools\MSVC\14.29.30133\include\vector
; File C:\Program Files (x86)\Microsoft Visual Studio\2019\Professional\VC\Tools\MSVC\14.29.30133\include\xmemory
; File C:\Program Files (x86)\Microsoft Visual Studio\2019\Professional\VC\Tools\MSVC\14.29.30133\include\vector
; File C:\Program Files (x86)\Microsoft Visual Studio\2019\Professional\VC\Tools\MSVC\14.29.30133\include\xmemory
; File C:\Program Files (x86)\Microsoft Visual Studio\2019\Professional\VC\Tools\MSVC\14.29.30133\include\vector
; File C:\Program Files (x86)\Microsoft Visual Studio\2019\Professional\VC\Tools\MSVC\14.29.30133\include\xmemory
; File C:\Program Files (x86)\Microsoft Visual Studio\2019\Professional\VC\Tools\MSVC\14.29.30133\include\vector
; File C:\Program Files (x86)\Microsoft Visual Studio\2019\Professional\VC\Tools\MSVC\14.29.30133\include\xmemory
; File C:\Program Files (x86)\Microsoft Visual Studio\2019\Professional\VC\Tools\MSVC\14.29.30133\include\vector
; File C:\Program Files (x86)\Microsoft Visual Studio\2019\Professional\VC\Tools\MSVC\14.29.30133\include\xmemory
; File C:\Program Files (x86)\Microsoft Visual Studio\2019\Professional\VC\Tools\MSVC\14.29.30133\include\vector
; File C:\Program Files (x86)\Microsoft Visual Studio\2019\Professional\VC\Tools\MSVC\14.29.30133\include\xmemory
; File C:\Program Files (x86)\Microsoft Visual Studio\2019\Professional\VC\Tools\MSVC\14.29.30133\include\vector
;	COMDAT ??$_Emplace_reallocate@ABQAVCGraphicExpandedImageInstance@@@?$vector@PAVCGraphicExpandedImageInstance@@V?$allocator@PAVCGraphicExpandedImageInstance@@@std@@@std@@QAEPAPAVCGraphicExpandedImageInstance@@QAPAV2@ABQAV2@@Z
_TEXT	SEGMENT
__Newsize$1$ = -8					; size = 4
__Whereoff$1$ = -4					; size = 4
tv505 = -4						; size = 4
__Whereptr$ = 8						; size = 4
_<_Val_0>$ = 12						; size = 4
??$_Emplace_reallocate@ABQAVCGraphicExpandedImageInstance@@@?$vector@PAVCGraphicExpandedImageInstance@@V?$allocator@PAVCGraphicExpandedImageInstance@@@std@@@std@@QAEPAPAVCGraphicExpandedImageInstance@@QAPAV2@ABQAV2@@Z PROC ; std::vector<CGraphicExpandedImageInstance *,std::allocator<CGraphicExpandedImageInstance *> >::_Emplace_reallocate<CGraphicExpandedImageInstance * const &>, COMDAT
; _this$ = ecx

; 765  :     _CONSTEXPR20_CONTAINER pointer _Emplace_reallocate(const pointer _Whereptr, _Valty&&... _Val) {

  00000	55		 push	 ebp
  00001	8b ec		 mov	 ebp, esp
  00003	83 ec 08	 sub	 esp, 8

; 766  :         // reallocate and insert by perfectly forwarding _Val at _Whereptr
; 767  :         _Alty& _Al        = _Getal();
; 768  :         auto& _My_data    = _Mypair._Myval2;
; 769  :         pointer& _Myfirst = _My_data._Myfirst;
; 770  :         pointer& _Mylast  = _My_data._Mylast;
; 771  : 
; 772  :         _STL_INTERNAL_CHECK(_Mylast == _My_data._Myend); // check that we have no unused capacity
; 773  : 
; 774  :         const auto _Whereoff = static_cast<size_type>(_Whereptr - _Myfirst);

  00006	8b 45 08	 mov	 eax, DWORD PTR __Whereptr$[ebp]
  00009	53		 push	 ebx
  0000a	8b d9		 mov	 ebx, ecx
  0000c	56		 push	 esi
  0000d	57		 push	 edi
  0000e	8b 13		 mov	 edx, DWORD PTR [ebx]
  00010	2b c2		 sub	 eax, edx
  00012	c1 f8 02	 sar	 eax, 2
  00015	89 45 fc	 mov	 DWORD PTR __Whereoff$1$[ebp], eax

; 775  :         const auto _Oldsize  = static_cast<size_type>(_Mylast - _Myfirst);

  00018	8b 43 04	 mov	 eax, DWORD PTR [ebx+4]
  0001b	2b c2		 sub	 eax, edx
  0001d	c1 f8 02	 sar	 eax, 2

; 776  : 
; 777  :         if (_Oldsize == max_size()) {

  00020	3d ff ff ff 3f	 cmp	 eax, 1073741823		; 3fffffffH
  00025	0f 84 d2 00 00
	00		 je	 $LN74@Emplace_re

; 1559 :         return static_cast<size_type>(_My_data._Myend - _My_data._Myfirst);

  0002b	8b 4b 08	 mov	 ecx, DWORD PTR [ebx+8]

; 779  :         }
; 780  : 
; 781  :         const size_type _Newsize     = _Oldsize + 1;

  0002e	8d 78 01	 lea	 edi, DWORD PTR [eax+1]

; 1559 :         return static_cast<size_type>(_My_data._Myend - _My_data._Myfirst);

  00031	2b ca		 sub	 ecx, edx

; 779  :         }
; 780  : 
; 781  :         const size_type _Newsize     = _Oldsize + 1;

  00033	89 7d f8	 mov	 DWORD PTR __Newsize$1$[ebp], edi

; 1559 :         return static_cast<size_type>(_My_data._Myend - _My_data._Myfirst);

  00036	c1 f9 02	 sar	 ecx, 2

; 1688 :         if (_Oldcapacity > _Max - _Oldcapacity / 2) {

  00039	b8 ff ff ff 3f	 mov	 eax, 1073741823		; 3fffffffH
  0003e	8b d1		 mov	 edx, ecx
  00040	d1 ea		 shr	 edx, 1
  00042	2b c2		 sub	 eax, edx
  00044	3b c8		 cmp	 ecx, eax
  00046	76 17		 jbe	 SHORT $LN12@Emplace_re

; 1689 :             return _Max; // geometric growth would overflow

  00048	b8 fc ff ff ff	 mov	 eax, -4			; fffffffcH
  0004d	be ff ff ff 3f	 mov	 esi, 1073741823		; 3fffffffH
; File C:\Program Files (x86)\Microsoft Visual Studio\2019\Professional\VC\Tools\MSVC\14.29.30133\include\xmemory

; 238  :             return _Allocate_manually_vector_aligned<_Traits>(_Bytes);

  00052	50		 push	 eax
  00053	e8 00 00 00 00	 call	 ??$_Allocate_manually_vector_aligned@U_Default_allocate_traits@std@@@std@@YAPAXI@Z ; std::_Allocate_manually_vector_aligned<std::_Default_allocate_traits>
  00058	83 c4 04	 add	 esp, 4
  0005b	8b f8		 mov	 edi, eax
  0005d	eb 44		 jmp	 SHORT $LN23@Emplace_re
$LN12@Emplace_re:
; File C:\Program Files (x86)\Microsoft Visual Studio\2019\Professional\VC\Tools\MSVC\14.29.30133\include\vector

; 1692 :         const size_type _Geometric = _Oldcapacity + _Oldcapacity / 2;

  0005f	8d 04 0a	 lea	 eax, DWORD PTR [edx+ecx]
; File C:\Program Files (x86)\Microsoft Visual Studio\2019\Professional\VC\Tools\MSVC\14.29.30133\include\xmemory

; 64   :         if (_Count > _Max_possible) {

  00062	8b f7		 mov	 esi, edi
  00064	3b c7		 cmp	 eax, edi
  00066	0f 43 f0	 cmovae	 esi, eax
  00069	81 fe ff ff ff
	3f		 cmp	 esi, 1073741823		; 3fffffffH
  0006f	0f 87 8d 00 00
	00		 ja	 $LN75@Emplace_re

; 66   :         }
; 67   :     }
; 68   : 
; 69   :     return _Count * _Ty_size;

  00075	8d 04 b5 00 00
	00 00		 lea	 eax, DWORD PTR [esi*4]

; 237  :         if (_Bytes >= _Big_allocation_threshold) { // boost the alignment of big allocations to help autovectorization

  0007c	3d 00 10 00 00	 cmp	 eax, 4096		; 00001000H
  00081	72 0d		 jb	 SHORT $LN24@Emplace_re

; 238  :             return _Allocate_manually_vector_aligned<_Traits>(_Bytes);

  00083	50		 push	 eax
  00084	e8 00 00 00 00	 call	 ??$_Allocate_manually_vector_aligned@U_Default_allocate_traits@std@@@std@@YAPAXI@Z ; std::_Allocate_manually_vector_aligned<std::_Default_allocate_traits>
  00089	83 c4 04	 add	 esp, 4
  0008c	8b f8		 mov	 edi, eax
  0008e	eb 13		 jmp	 SHORT $LN23@Emplace_re
$LN24@Emplace_re:

; 239  :         }
; 240  :     }
; 241  : #endif // defined(_M_IX86) || defined(_M_X64)
; 242  : 
; 243  :     if (_Bytes != 0) {

  00090	85 c0		 test	 eax, eax
  00092	74 0d		 je	 SHORT $LN25@Emplace_re

; 85   :         return ::operator new(_Bytes);

  00094	50		 push	 eax
  00095	e8 00 00 00 00	 call	 ??2@YAPAXI@Z		; operator new
  0009a	83 c4 04	 add	 esp, 4

; 244  :         return _Traits::_Allocate(_Bytes);

  0009d	8b f8		 mov	 edi, eax
  0009f	eb 02		 jmp	 SHORT $LN23@Emplace_re
$LN25@Emplace_re:

; 245  :     }
; 246  : 
; 247  :     return nullptr;

  000a1	33 ff		 xor	 edi, edi
$LN23@Emplace_re:
; File C:\Program Files (x86)\Microsoft Visual Studio\2019\Professional\VC\Tools\MSVC\14.29.30133\include\vector

; 789  :         _Alty_traits::construct(_Al, _Unfancy(_Newvec + _Whereoff), _STD forward<_Valty>(_Val)...);

  000a3	8b 45 fc	 mov	 eax, DWORD PTR __Whereoff$1$[ebp]
  000a6	8d 0c 87	 lea	 ecx, DWORD PTR [edi+eax*4]
  000a9	8b 45 0c	 mov	 eax, DWORD PTR _<_Val_0>$[ebp]
  000ac	89 4d fc	 mov	 DWORD PTR tv505[ebp], ecx
  000af	8b 00		 mov	 eax, DWORD PTR [eax]
  000b1	89 01		 mov	 DWORD PTR [ecx], eax

; 790  :         _Constructed_first = _Newvec + _Whereoff;
; 791  : 
; 792  :         if (_Whereptr == _Mylast) { // at back, provide strong guarantee

  000b3	8b 4b 04	 mov	 ecx, DWORD PTR [ebx+4]
  000b6	8b 45 08	 mov	 eax, DWORD PTR __Whereptr$[ebp]
  000b9	8b 13		 mov	 edx, DWORD PTR [ebx]
  000bb	3b c1		 cmp	 eax, ecx
  000bd	75 04		 jne	 SHORT $LN4@Emplace_re
; File C:\Program Files (x86)\Microsoft Visual Studio\2019\Professional\VC\Tools\MSVC\14.29.30133\include\xmemory

; 1725 :             _Copy_memmove(_UFirst, _ULast, _Unfancy(_Dest));

  000bf	8b c7		 mov	 eax, edi
; File C:\Program Files (x86)\Microsoft Visual Studio\2019\Professional\VC\Tools\MSVC\14.29.30133\include\vector

; 794  :         } else { // provide basic guarantee

  000c1	eb 17		 jmp	 SHORT $LN60@Emplace_re
$LN4@Emplace_re:
; File C:\Program Files (x86)\Microsoft Visual Studio\2019\Professional\VC\Tools\MSVC\14.29.30133\include\xmemory

; 1725 :             _Copy_memmove(_UFirst, _ULast, _Unfancy(_Dest));

  000c3	57		 push	 edi
  000c4	50		 push	 eax
  000c5	52		 push	 edx
  000c6	e8 00 00 00 00	 call	 ??$_Copy_memmove@PAPAVCGraphicExpandedImageInstance@@PAPAV1@@std@@YAPAPAVCGraphicExpandedImageInstance@@PAPAV1@00@Z ; std::_Copy_memmove<CGraphicExpandedImageInstance * *,CGraphicExpandedImageInstance * *>
; File C:\Program Files (x86)\Microsoft Visual Studio\2019\Professional\VC\Tools\MSVC\14.29.30133\include\vector

; 797  :             _Umove(_Whereptr, _Mylast, _Newvec + _Whereoff + 1);

  000cb	8b 45 fc	 mov	 eax, DWORD PTR tv505[ebp]
; File C:\Program Files (x86)\Microsoft Visual Studio\2019\Professional\VC\Tools\MSVC\14.29.30133\include\xmemory

; 1725 :             _Copy_memmove(_UFirst, _ULast, _Unfancy(_Dest));

  000ce	83 c4 0c	 add	 esp, 12			; 0000000cH
  000d1	8b 55 08	 mov	 edx, DWORD PTR __Whereptr$[ebp]
; File C:\Program Files (x86)\Microsoft Visual Studio\2019\Professional\VC\Tools\MSVC\14.29.30133\include\vector

; 797  :             _Umove(_Whereptr, _Mylast, _Newvec + _Whereoff + 1);

  000d4	83 c0 04	 add	 eax, 4
; File C:\Program Files (x86)\Microsoft Visual Studio\2019\Professional\VC\Tools\MSVC\14.29.30133\include\xmemory

; 1725 :             _Copy_memmove(_UFirst, _ULast, _Unfancy(_Dest));

  000d7	8b 4b 04	 mov	 ecx, DWORD PTR [ebx+4]
$LN60@Emplace_re:
; File C:\Program Files (x86)\Microsoft Visual Studio\2019\Professional\VC\Tools\MSVC\14.29.30133\include\vector

; 797  :             _Umove(_Whereptr, _Mylast, _Newvec + _Whereoff + 1);

  000da	50		 push	 eax
  000db	51		 push	 ecx
  000dc	52		 push	 edx
  000dd	e8 00 00 00 00	 call	 ??$_Copy_memmove@PAPAVCGraphicExpandedImageInstance@@PAPAV1@@std@@YAPAPAVCGraphicExpandedImageInstance@@PAPAV1@00@Z ; std::_Copy_memmove<CGraphicExpandedImageInstance * *,CGraphicExpandedImageInstance * *>
  000e2	83 c4 0c	 add	 esp, 12			; 0000000cH

; 798  :         }
; 799  :         _CATCH_ALL
; 800  :         _Destroy(_Constructed_first, _Constructed_last);
; 801  :         _Al.deallocate(_Newvec, _Newcapacity);
; 802  :         _RERAISE;
; 803  :         _CATCH_END
; 804  : 
; 805  :         _Change_array(_Newvec, _Newsize, _Newcapacity);

  000e5	8b cb		 mov	 ecx, ebx
  000e7	56		 push	 esi
  000e8	ff 75 f8	 push	 DWORD PTR __Newsize$1$[ebp]
  000eb	57		 push	 edi
  000ec	e8 00 00 00 00	 call	 ?_Change_array@?$vector@PAVCGraphicExpandedImageInstance@@V?$allocator@PAVCGraphicExpandedImageInstance@@@std@@@std@@AAEXQAPAVCGraphicExpandedImageInstance@@II@Z ; std::vector<CGraphicExpandedImageInstance *,std::allocator<CGraphicExpandedImageInstance *> >::_Change_array

; 806  :         return _Newvec + _Whereoff;

  000f1	8b 45 fc	 mov	 eax, DWORD PTR tv505[ebp]
  000f4	5f		 pop	 edi
  000f5	5e		 pop	 esi
  000f6	5b		 pop	 ebx

; 807  :     }

  000f7	8b e5		 mov	 esp, ebp
  000f9	5d		 pop	 ebp
  000fa	c2 08 00	 ret	 8
$LN74@Emplace_re:

; 778  :             _Xlength();

  000fd	e8 00 00 00 00	 call	 ?_Xlength@?$vector@PAVCGraphicExpandedImageInstance@@V?$allocator@PAVCGraphicExpandedImageInstance@@@std@@@std@@CAXXZ ; std::vector<CGraphicExpandedImageInstance *,std::allocator<CGraphicExpandedImageInstance *> >::_Xlength
$LN75@Emplace_re:
; File C:\Program Files (x86)\Microsoft Visual Studio\2019\Professional\VC\Tools\MSVC\14.29.30133\include\xmemory

; 65   :             _Throw_bad_array_new_length(); // multiply overflow

  00102	e8 00 00 00 00	 call	 ?_Throw_bad_array_new_length@std@@YAXXZ ; std::_Throw_bad_array_new_length
$LN72@Emplace_re:
  00107	cc		 int	 3
??$_Emplace_reallocate@ABQAVCGraphicExpandedImageInstance@@@?$vector@PAVCGraphicExpandedImageInstance@@V?$allocator@PAVCGraphicExpandedImageInstance@@@std@@@std@@QAEPAPAVCGraphicExpandedImageInstance@@QAPAV2@ABQAV2@@Z ENDP ; std::vector<CGraphicExpandedImageInstance *,std::allocator<CGraphicExpandedImageInstance *> >::_Emplace_reallocate<CGraphicExpandedImageInstance * const &>
_TEXT	ENDS
; Function compile flags: /Ogtp
; File C:\Program Files (x86)\Microsoft Visual Studio\2019\Professional\VC\Tools\MSVC\14.29.30133\include\vector
; File C:\Program Files (x86)\Microsoft Visual Studio\2019\Professional\VC\Tools\MSVC\14.29.30133\include\xmemory
; File C:\Program Files (x86)\Microsoft Visual Studio\2019\Professional\VC\Tools\MSVC\14.29.30133\include\vector
; File C:\Program Files (x86)\Microsoft Visual Studio\2019\Professional\VC\Tools\MSVC\14.29.30133\include\xmemory
; File C:\Program Files (x86)\Microsoft Visual Studio\2019\Professional\VC\Tools\MSVC\14.29.30133\include\vector
; File C:\Program Files (x86)\Microsoft Visual Studio\2019\Professional\VC\Tools\MSVC\14.29.30133\include\xmemory
; File C:\Program Files (x86)\Microsoft Visual Studio\2019\Professional\VC\Tools\MSVC\14.29.30133\include\vector
; File C:\Program Files (x86)\Microsoft Visual Studio\2019\Professional\VC\Tools\MSVC\14.29.30133\include\xmemory
; File C:\Program Files (x86)\Microsoft Visual Studio\2019\Professional\VC\Tools\MSVC\14.29.30133\include\vector
; File C:\Program Files (x86)\Microsoft Visual Studio\2019\Professional\VC\Tools\MSVC\14.29.30133\include\xmemory
; File C:\Program Files (x86)\Microsoft Visual Studio\2019\Professional\VC\Tools\MSVC\14.29.30133\include\vector
; File C:\Program Files (x86)\Microsoft Visual Studio\2019\Professional\VC\Tools\MSVC\14.29.30133\include\xmemory
; File C:\Program Files (x86)\Microsoft Visual Studio\2019\Professional\VC\Tools\MSVC\14.29.30133\include\vector
; File C:\Program Files (x86)\Microsoft Visual Studio\2019\Professional\VC\Tools\MSVC\14.29.30133\include\xmemory
; File C:\Program Files (x86)\Microsoft Visual Studio\2019\Professional\VC\Tools\MSVC\14.29.30133\include\vector
; File C:\Program Files (x86)\Microsoft Visual Studio\2019\Professional\VC\Tools\MSVC\14.29.30133\include\xmemory
; File C:\Program Files (x86)\Microsoft Visual Studio\2019\Professional\VC\Tools\MSVC\14.29.30133\include\vector
; File C:\Program Files (x86)\Microsoft Visual Studio\2019\Professional\VC\Tools\MSVC\14.29.30133\include\xmemory
; File C:\Program Files (x86)\Microsoft Visual Studio\2019\Professional\VC\Tools\MSVC\14.29.30133\include\vector
; File C:\Program Files (x86)\Microsoft Visual Studio\2019\Professional\VC\Tools\MSVC\14.29.30133\include\xmemory
; File C:\Program Files (x86)\Microsoft Visual Studio\2019\Professional\VC\Tools\MSVC\14.29.30133\include\vector
;	COMDAT ??$_Emplace_reallocate@ABUSPDTVertex@@@?$vector@USPDTVertex@@V?$allocator@USPDTVertex@@@std@@@std@@QAEPAUSPDTVertex@@QAU2@ABU2@@Z
_TEXT	SEGMENT
tv654 = -8						; size = 4
__Whereoff$1$ = -8					; size = 4
_this$1$ = -4						; size = 4
__Newsize$1$ = 8					; size = 4
__Whereptr$ = 8						; size = 4
_<_Val_0>$ = 12						; size = 4
??$_Emplace_reallocate@ABUSPDTVertex@@@?$vector@USPDTVertex@@V?$allocator@USPDTVertex@@@std@@@std@@QAEPAUSPDTVertex@@QAU2@ABU2@@Z PROC ; std::vector<SPDTVertex,std::allocator<SPDTVertex> >::_Emplace_reallocate<SPDTVertex const &>, COMDAT
; _this$ = ecx

; 765  :     _CONSTEXPR20_CONTAINER pointer _Emplace_reallocate(const pointer _Whereptr, _Valty&&... _Val) {

  00000	55		 push	 ebp
  00001	8b ec		 mov	 ebp, esp
  00003	83 ec 08	 sub	 esp, 8
  00006	53		 push	 ebx
  00007	8b d9		 mov	 ebx, ecx

; 766  :         // reallocate and insert by perfectly forwarding _Val at _Whereptr
; 767  :         _Alty& _Al        = _Getal();
; 768  :         auto& _My_data    = _Mypair._Myval2;
; 769  :         pointer& _Myfirst = _My_data._Myfirst;
; 770  :         pointer& _Mylast  = _My_data._Mylast;
; 771  : 
; 772  :         _STL_INTERNAL_CHECK(_Mylast == _My_data._Myend); // check that we have no unused capacity
; 773  : 
; 774  :         const auto _Whereoff = static_cast<size_type>(_Whereptr - _Myfirst);

  00009	b8 ab aa aa 2a	 mov	 eax, 715827883		; 2aaaaaabH
  0000e	56		 push	 esi
  0000f	8b 75 08	 mov	 esi, DWORD PTR __Whereptr$[ebp]
  00012	8b d6		 mov	 edx, esi
  00014	57		 push	 edi
  00015	8b 3b		 mov	 edi, DWORD PTR [ebx]
  00017	2b d7		 sub	 edx, edi

; 775  :         const auto _Oldsize  = static_cast<size_type>(_Mylast - _Myfirst);

  00019	8b 4b 04	 mov	 ecx, DWORD PTR [ebx+4]
  0001c	f7 ea		 imul	 edx
  0001e	2b cf		 sub	 ecx, edi
  00020	89 5d fc	 mov	 DWORD PTR _this$1$[ebp], ebx
  00023	c1 fa 02	 sar	 edx, 2
  00026	8b c2		 mov	 eax, edx
  00028	c1 e8 1f	 shr	 eax, 31			; 0000001fH
  0002b	03 c2		 add	 eax, edx
  0002d	89 45 f8	 mov	 DWORD PTR __Whereoff$1$[ebp], eax
  00030	b8 ab aa aa 2a	 mov	 eax, 715827883		; 2aaaaaabH
  00035	f7 e9		 imul	 ecx
  00037	c1 fa 02	 sar	 edx, 2
  0003a	8b c2		 mov	 eax, edx
  0003c	c1 e8 1f	 shr	 eax, 31			; 0000001fH
  0003f	03 c2		 add	 eax, edx

; 776  : 
; 777  :         if (_Oldsize == max_size()) {

  00041	3d aa aa aa 0a	 cmp	 eax, 178956970		; 0aaaaaaaH
  00046	0f 84 90 01 00
	00		 je	 $LN116@Emplace_re

; 1559 :         return static_cast<size_type>(_My_data._Myend - _My_data._Myfirst);

  0004c	8b 4b 08	 mov	 ecx, DWORD PTR [ebx+8]

; 779  :         }
; 780  : 
; 781  :         const size_type _Newsize     = _Oldsize + 1;

  0004f	40		 inc	 eax
  00050	89 45 08	 mov	 DWORD PTR __Newsize$1$[ebp], eax

; 1559 :         return static_cast<size_type>(_My_data._Myend - _My_data._Myfirst);

  00053	2b cf		 sub	 ecx, edi
  00055	b8 ab aa aa 2a	 mov	 eax, 715827883		; 2aaaaaabH
  0005a	f7 e9		 imul	 ecx

; 1688 :         if (_Oldcapacity > _Max - _Oldcapacity / 2) {

  0005c	b8 aa aa aa 0a	 mov	 eax, 178956970		; 0aaaaaaaH

; 1559 :         return static_cast<size_type>(_My_data._Myend - _My_data._Myfirst);

  00061	c1 fa 02	 sar	 edx, 2
  00064	8b ca		 mov	 ecx, edx
  00066	c1 e9 1f	 shr	 ecx, 31			; 0000001fH
  00069	03 ca		 add	 ecx, edx

; 1688 :         if (_Oldcapacity > _Max - _Oldcapacity / 2) {

  0006b	8b d1		 mov	 edx, ecx
  0006d	d1 ea		 shr	 edx, 1
  0006f	2b c2		 sub	 eax, edx
  00071	3b c8		 cmp	 ecx, eax
  00073	76 12		 jbe	 SHORT $LN12@Emplace_re

; 1689 :             return _Max; // geometric growth would overflow

  00075	bf f0 ff ff ff	 mov	 edi, -16		; fffffff0H
; File C:\Program Files (x86)\Microsoft Visual Studio\2019\Professional\VC\Tools\MSVC\14.29.30133\include\xmemory

; 238  :             return _Allocate_manually_vector_aligned<_Traits>(_Bytes);

  0007a	57		 push	 edi
  0007b	e8 00 00 00 00	 call	 ??$_Allocate_manually_vector_aligned@U_Default_allocate_traits@std@@@std@@YAPAXI@Z ; std::_Allocate_manually_vector_aligned<std::_Default_allocate_traits>
  00080	83 c4 04	 add	 esp, 4
  00083	8b d8		 mov	 ebx, eax
  00085	eb 45		 jmp	 SHORT $LN23@Emplace_re
$LN12@Emplace_re:
; File C:\Program Files (x86)\Microsoft Visual Studio\2019\Professional\VC\Tools\MSVC\14.29.30133\include\vector

; 1692 :         const size_type _Geometric = _Oldcapacity + _Oldcapacity / 2;

  00087	8d 04 0a	 lea	 eax, DWORD PTR [edx+ecx]
; File C:\Program Files (x86)\Microsoft Visual Studio\2019\Professional\VC\Tools\MSVC\14.29.30133\include\xmemory

; 64   :         if (_Count > _Max_possible) {

  0008a	8b 4d 08	 mov	 ecx, DWORD PTR __Newsize$1$[ebp]
  0008d	3b c1		 cmp	 eax, ecx
  0008f	0f 43 c8	 cmovae	 ecx, eax
  00092	81 f9 aa aa aa
	0a		 cmp	 ecx, 178956970		; 0aaaaaaaH
  00098	0f 87 43 01 00
	00		 ja	 $LN117@Emplace_re

; 66   :         }
; 67   :     }
; 68   : 
; 69   :     return _Count * _Ty_size;

  0009e	8d 3c 49	 lea	 edi, DWORD PTR [ecx+ecx*2]
  000a1	c1 e7 03	 shl	 edi, 3

; 237  :         if (_Bytes >= _Big_allocation_threshold) { // boost the alignment of big allocations to help autovectorization

  000a4	81 ff 00 10 00
	00		 cmp	 edi, 4096		; 00001000H
  000aa	72 0d		 jb	 SHORT $LN24@Emplace_re

; 238  :             return _Allocate_manually_vector_aligned<_Traits>(_Bytes);

  000ac	57		 push	 edi
  000ad	e8 00 00 00 00	 call	 ??$_Allocate_manually_vector_aligned@U_Default_allocate_traits@std@@@std@@YAPAXI@Z ; std::_Allocate_manually_vector_aligned<std::_Default_allocate_traits>
  000b2	83 c4 04	 add	 esp, 4
  000b5	8b d8		 mov	 ebx, eax
  000b7	eb 13		 jmp	 SHORT $LN23@Emplace_re
$LN24@Emplace_re:

; 239  :         }
; 240  :     }
; 241  : #endif // defined(_M_IX86) || defined(_M_X64)
; 242  : 
; 243  :     if (_Bytes != 0) {

  000b9	85 ff		 test	 edi, edi
  000bb	74 0d		 je	 SHORT $LN25@Emplace_re

; 85   :         return ::operator new(_Bytes);

  000bd	57		 push	 edi
  000be	e8 00 00 00 00	 call	 ??2@YAPAXI@Z		; operator new
  000c3	83 c4 04	 add	 esp, 4

; 244  :         return _Traits::_Allocate(_Bytes);

  000c6	8b d8		 mov	 ebx, eax
  000c8	eb 02		 jmp	 SHORT $LN23@Emplace_re
$LN25@Emplace_re:

; 245  :     }
; 246  : 
; 247  :     return nullptr;

  000ca	33 db		 xor	 ebx, ebx
$LN23@Emplace_re:
; File C:\Program Files (x86)\Microsoft Visual Studio\2019\Professional\VC\Tools\MSVC\14.29.30133\include\vector

; 789  :         _Alty_traits::construct(_Al, _Unfancy(_Newvec + _Whereoff), _STD forward<_Valty>(_Val)...);

  000cc	8b 45 f8	 mov	 eax, DWORD PTR __Whereoff$1$[ebp]
  000cf	8d 04 40	 lea	 eax, DWORD PTR [eax+eax*2]
  000d2	8d 0c c3	 lea	 ecx, DWORD PTR [ebx+eax*8]
; File C:\Program Files (x86)\Microsoft Visual Studio\2019\Professional\VC\Tools\MSVC\14.29.30133\include\xmemory

; 714  :             ::new (_Voidify_iter(_Ptr)) _Objty(_STD forward<_Types>(_Args)...);

  000d5	8b 45 0c	 mov	 eax, DWORD PTR _<_Val_0>$[ebp]
; File C:\Program Files (x86)\Microsoft Visual Studio\2019\Professional\VC\Tools\MSVC\14.29.30133\include\vector

; 789  :         _Alty_traits::construct(_Al, _Unfancy(_Newvec + _Whereoff), _STD forward<_Valty>(_Val)...);

  000d8	89 4d f8	 mov	 DWORD PTR tv654[ebp], ecx
; File C:\Program Files (x86)\Microsoft Visual Studio\2019\Professional\VC\Tools\MSVC\14.29.30133\include\xmemory

; 714  :             ::new (_Voidify_iter(_Ptr)) _Objty(_STD forward<_Types>(_Args)...);

  000db	0f 10 00	 movups	 xmm0, XMMWORD PTR [eax]
  000de	0f 11 01	 movups	 XMMWORD PTR [ecx], xmm0
  000e1	f3 0f 7e 40 10	 movq	 xmm0, QWORD PTR [eax+16]
; File C:\Program Files (x86)\Microsoft Visual Studio\2019\Professional\VC\Tools\MSVC\14.29.30133\include\vector

; 792  :         if (_Whereptr == _Mylast) { // at back, provide strong guarantee

  000e6	8b 45 fc	 mov	 eax, DWORD PTR _this$1$[ebp]
; File C:\Program Files (x86)\Microsoft Visual Studio\2019\Professional\VC\Tools\MSVC\14.29.30133\include\xmemory

; 714  :             ::new (_Voidify_iter(_Ptr)) _Objty(_STD forward<_Types>(_Args)...);

  000e9	66 0f d6 41 10	 movq	 QWORD PTR [ecx+16], xmm0
; File C:\Program Files (x86)\Microsoft Visual Studio\2019\Professional\VC\Tools\MSVC\14.29.30133\include\vector

; 792  :         if (_Whereptr == _Mylast) { // at back, provide strong guarantee

  000ee	8b cb		 mov	 ecx, ebx
  000f0	8b 50 04	 mov	 edx, DWORD PTR [eax+4]
  000f3	8b 00		 mov	 eax, DWORD PTR [eax]
  000f5	3b f2		 cmp	 esi, edx
  000f7	75 24		 jne	 SHORT $LN4@Emplace_re
; File C:\Program Files (x86)\Microsoft Visual Studio\2019\Professional\VC\Tools\MSVC\14.29.30133\include\xmemory

; 1731 :     for (; _UFirst != _ULast; ++_UFirst) {

  000f9	3b c2		 cmp	 eax, edx
  000fb	74 6e		 je	 SHORT $LN68@Emplace_re
  000fd	0f 1f 00	 npad	 3
$LL39@Emplace_re:

; 714  :             ::new (_Voidify_iter(_Ptr)) _Objty(_STD forward<_Types>(_Args)...);

  00100	0f 10 00	 movups	 xmm0, XMMWORD PTR [eax]

; 1632 :         ++_Last;

  00103	8d 49 18	 lea	 ecx, DWORD PTR [ecx+24]

; 714  :             ::new (_Voidify_iter(_Ptr)) _Objty(_STD forward<_Types>(_Args)...);

  00106	0f 11 41 e8	 movups	 XMMWORD PTR [ecx-24], xmm0
  0010a	f3 0f 7e 40 10	 movq	 xmm0, QWORD PTR [eax+16]

; 1731 :     for (; _UFirst != _ULast; ++_UFirst) {

  0010f	83 c0 18	 add	 eax, 24			; 00000018H

; 714  :             ::new (_Voidify_iter(_Ptr)) _Objty(_STD forward<_Types>(_Args)...);

  00112	66 0f d6 41 f8	 movq	 QWORD PTR [ecx-8], xmm0

; 1731 :     for (; _UFirst != _ULast; ++_UFirst) {

  00117	3b c2		 cmp	 eax, edx
  00119	75 e5		 jne	 SHORT $LL39@Emplace_re
; File C:\Program Files (x86)\Microsoft Visual Studio\2019\Professional\VC\Tools\MSVC\14.29.30133\include\vector

; 794  :         } else { // provide basic guarantee

  0011b	eb 4e		 jmp	 SHORT $LN68@Emplace_re
$LN4@Emplace_re:
; File C:\Program Files (x86)\Microsoft Visual Studio\2019\Professional\VC\Tools\MSVC\14.29.30133\include\xmemory

; 1731 :     for (; _UFirst != _ULast; ++_UFirst) {

  0011d	3b c6		 cmp	 eax, esi
  0011f	74 21		 je	 SHORT $LN53@Emplace_re
$LL54@Emplace_re:

; 714  :             ::new (_Voidify_iter(_Ptr)) _Objty(_STD forward<_Types>(_Args)...);

  00121	0f 10 00	 movups	 xmm0, XMMWORD PTR [eax]

; 1632 :         ++_Last;

  00124	8d 49 18	 lea	 ecx, DWORD PTR [ecx+24]

; 714  :             ::new (_Voidify_iter(_Ptr)) _Objty(_STD forward<_Types>(_Args)...);

  00127	0f 11 41 e8	 movups	 XMMWORD PTR [ecx-24], xmm0
  0012b	f3 0f 7e 40 10	 movq	 xmm0, QWORD PTR [eax+16]

; 1731 :     for (; _UFirst != _ULast; ++_UFirst) {

  00130	83 c0 18	 add	 eax, 24			; 00000018H

; 714  :             ::new (_Voidify_iter(_Ptr)) _Objty(_STD forward<_Types>(_Args)...);

  00133	66 0f d6 41 f8	 movq	 QWORD PTR [ecx-8], xmm0

; 1731 :     for (; _UFirst != _ULast; ++_UFirst) {

  00138	3b c6		 cmp	 eax, esi
  0013a	75 e5		 jne	 SHORT $LL54@Emplace_re
  0013c	8b 55 fc	 mov	 edx, DWORD PTR _this$1$[ebp]
  0013f	8b 52 04	 mov	 edx, DWORD PTR [edx+4]
$LN53@Emplace_re:
  00142	3b f2		 cmp	 esi, edx
  00144	74 25		 je	 SHORT $LN68@Emplace_re

; 1633 :     }
; 1634 : 
; 1635 :     constexpr pointer _Release() { // suppress any exception handling backout and return _Last
; 1636 :         _First = _Last;
; 1637 :         return _Last;
; 1638 :     }
; 1639 : 
; 1640 : private:
; 1641 :     pointer _First;
; 1642 :     pointer _Last;
; 1643 :     _Alloc& _Al;
; 1644 : };
; 1645 : 
; 1646 : // FUNCTION TEMPLATE _Uninitialized_copy WITH ALLOCATOR
; 1647 : template <class _InIt, class _Alloc>
; 1648 : _CONSTEXPR20_DYNALLOC _Alloc_ptr_t<_Alloc> _Uninitialized_copy(
; 1649 :     const _InIt _First, const _InIt _Last, _Alloc_ptr_t<_Alloc> _Dest, _Alloc& _Al) {
; 1650 :     // copy [_First, _Last) to raw _Dest, using _Al
; 1651 :     // note: only called internally from elsewhere in the STL
; 1652 :     using _Ptrval = typename _Alloc::value_type*;
; 1653 : 
; 1654 :     auto _UFirst      = _Get_unwrapped(_First);
; 1655 :     const auto _ULast = _Get_unwrapped(_Last);
; 1656 : 
; 1657 :     if constexpr (conjunction_v<bool_constant<_Ptr_copy_cat<decltype(_UFirst), _Ptrval>::_Really_trivial>,
; 1658 :                       _Uses_default_construct<_Alloc, _Ptrval, decltype(*_UFirst)>>) {
; 1659 : #ifdef __cpp_lib_constexpr_dynamic_alloc
; 1660 :         if (!_STD is_constant_evaluated())
; 1661 : #endif // __cpp_lib_constexpr_dynamic_alloc
; 1662 :         {
; 1663 :             _Copy_memmove(_UFirst, _ULast, _Unfancy(_Dest));
; 1664 :             _Dest += _ULast - _UFirst;
; 1665 :             return _Dest;
; 1666 :         }
; 1667 :     }
; 1668 : 
; 1669 :     _Uninitialized_backout_al<_Alloc> _Backout{_Dest, _Al};
; 1670 :     for (; _UFirst != _ULast; ++_UFirst) {
; 1671 :         _Backout._Emplace_back(*_UFirst);
; 1672 :     }
; 1673 : 
; 1674 :     return _Backout._Release();
; 1675 : }
; 1676 : 
; 1677 : // FUNCTION TEMPLATE uninitialized_copy
; 1678 : template <class _InIt, class _NoThrowFwdIt>
; 1679 : _CONSTEXPR20_DYNALLOC _NoThrowFwdIt _Uninitialized_copy_unchecked(
; 1680 :     _InIt _First, const _InIt _Last, _NoThrowFwdIt _Dest) {
; 1681 :     // copy [_First, _Last) to raw [_Dest, ...)
; 1682 :     if constexpr (_Ptr_copy_cat<_InIt, _NoThrowFwdIt>::_Really_trivial) {
; 1683 : #ifdef __cpp_lib_constexpr_dynamic_alloc
; 1684 :         if (!_STD is_constant_evaluated())
; 1685 : #endif // __cpp_lib_constexpr_dynamic_alloc
; 1686 :         {
; 1687 :             return _Copy_memmove(_First, _Last, _Dest);
; 1688 :         }
; 1689 :     }
; 1690 : 
; 1691 :     _Uninitialized_backout<_NoThrowFwdIt> _Backout{_Dest};
; 1692 :     for (; _First != _Last; ++_First) {
; 1693 :         _Backout._Emplace_back(*_First);
; 1694 :     }
; 1695 : 
; 1696 :     return _Backout._Release();
; 1697 : }
; 1698 : 
; 1699 : template <class _InIt, class _NoThrowFwdIt>
; 1700 : _NoThrowFwdIt uninitialized_copy(const _InIt _First, const _InIt _Last, _NoThrowFwdIt _Dest) {
; 1701 :     // copy [_First, _Last) to raw [_Dest, ...)
; 1702 :     _Adl_verify_range(_First, _Last);
; 1703 :     auto _UFirst      = _Get_unwrapped(_First);
; 1704 :     const auto _ULast = _Get_unwrapped(_Last);
; 1705 :     auto _UDest       = _Get_unwrapped_n(_Dest, _Idl_distance<_InIt>(_UFirst, _ULast));
; 1706 :     _Seek_wrapped(_Dest, _Uninitialized_copy_unchecked(_UFirst, _ULast, _UDest));
; 1707 :     return _Dest;
; 1708 : }
; 1709 : 
; 1710 : // FUNCTION TEMPLATE _Uninitialized_move WITH ALLOCATOR
; 1711 : template <class _InIt, class _Alloc>
; 1712 : _CONSTEXPR20_DYNALLOC _Alloc_ptr_t<_Alloc> _Uninitialized_move(
; 1713 :     const _InIt _First, const _InIt _Last, _Alloc_ptr_t<_Alloc> _Dest, _Alloc& _Al) {
; 1714 :     // move [_First, _Last) to raw _Dest, using _Al
; 1715 :     // note: only called internally from elsewhere in the STL
; 1716 :     using _Ptrval     = typename _Alloc::value_type*;
; 1717 :     auto _UFirst      = _Get_unwrapped(_First);

  00146	8b 45 f8	 mov	 eax, DWORD PTR tv654[ebp]
  00149	83 c0 18	 add	 eax, 24			; 00000018H
  0014c	0f 1f 40 00	 npad	 4
$LL69@Emplace_re:

; 714  :             ::new (_Voidify_iter(_Ptr)) _Objty(_STD forward<_Types>(_Args)...);

  00150	0f 10 06	 movups	 xmm0, XMMWORD PTR [esi]

; 1731 :     for (; _UFirst != _ULast; ++_UFirst) {

  00153	8d 40 18	 lea	 eax, DWORD PTR [eax+24]

; 714  :             ::new (_Voidify_iter(_Ptr)) _Objty(_STD forward<_Types>(_Args)...);

  00156	0f 11 40 e8	 movups	 XMMWORD PTR [eax-24], xmm0
  0015a	f3 0f 7e 46 10	 movq	 xmm0, QWORD PTR [esi+16]

; 1731 :     for (; _UFirst != _ULast; ++_UFirst) {

  0015f	83 c6 18	 add	 esi, 24			; 00000018H

; 714  :             ::new (_Voidify_iter(_Ptr)) _Objty(_STD forward<_Types>(_Args)...);

  00162	66 0f d6 40 f8	 movq	 QWORD PTR [eax-8], xmm0

; 1731 :     for (; _UFirst != _ULast; ++_UFirst) {

  00167	3b f2		 cmp	 esi, edx
  00169	75 e5		 jne	 SHORT $LL69@Emplace_re
$LN68@Emplace_re:
; File C:\Program Files (x86)\Microsoft Visual Studio\2019\Professional\VC\Tools\MSVC\14.29.30133\include\vector

; 1745 :         if (_Myfirst) { // destroy and deallocate old array

  0016b	8b 45 fc	 mov	 eax, DWORD PTR _this$1$[ebp]
  0016e	8b 30		 mov	 esi, DWORD PTR [eax]
  00170	85 f6		 test	 esi, esi
  00172	74 43		 je	 SHORT $LN86@Emplace_re

; 1746 :             _Destroy(_Myfirst, _Mylast);
; 1747 :             _Getal().deallocate(_Myfirst, static_cast<size_type>(_Myend - _Myfirst));

  00174	8b 48 08	 mov	 ecx, DWORD PTR [eax+8]
  00177	b8 ab aa aa 2a	 mov	 eax, 715827883		; 2aaaaaabH
  0017c	2b ce		 sub	 ecx, esi
  0017e	f7 e9		 imul	 ecx
  00180	c1 fa 02	 sar	 edx, 2
  00183	8b c2		 mov	 eax, edx
  00185	c1 e8 1f	 shr	 eax, 31			; 0000001fH
  00188	03 c2		 add	 eax, edx
; File C:\Program Files (x86)\Microsoft Visual Studio\2019\Professional\VC\Tools\MSVC\14.29.30133\include\xmemory

; 835  :         _Deallocate<_New_alignof<_Ty>>(_Ptr, sizeof(_Ty) * _Count);

  0018a	8d 0c 40	 lea	 ecx, DWORD PTR [eax+eax*2]
  0018d	c1 e1 03	 shl	 ecx, 3

; 260  :         if (_Bytes >= _Big_allocation_threshold) { // boost the alignment of big allocations to help autovectorization

  00190	81 f9 00 10 00
	00		 cmp	 ecx, 4096		; 00001000H
  00196	72 12		 jb	 SHORT $LN96@Emplace_re

; 158  :     const uintptr_t _Ptr_container   = _Ptr_user[-1];

  00198	8b 56 fc	 mov	 edx, DWORD PTR [esi-4]
  0019b	83 c1 23	 add	 ecx, 35			; 00000023H

; 159  : 
; 160  :     // If the following asserts, it likely means that we are performing
; 161  :     // an aligned delete on memory coming from an unaligned allocation.
; 162  :     _STL_ASSERT(_Ptr_user[-2] == _Big_allocation_sentinel, "invalid argument");
; 163  : 
; 164  :     // Extra paranoia on aligned allocation/deallocation; ensure _Ptr_container is
; 165  :     // in range [_Min_back_shift, _Non_user_size]
; 166  : #ifdef _DEBUG
; 167  :     constexpr uintptr_t _Min_back_shift = 2 * sizeof(void*);
; 168  : #else // ^^^ _DEBUG ^^^ // vvv !_DEBUG vvv
; 169  :     constexpr uintptr_t _Min_back_shift = sizeof(void*);
; 170  : #endif // _DEBUG
; 171  :     const uintptr_t _Back_shift = reinterpret_cast<uintptr_t>(_Ptr) - _Ptr_container;

  0019e	2b f2		 sub	 esi, edx

; 172  :     _STL_VERIFY(_Back_shift >= _Min_back_shift && _Back_shift <= _Non_user_size, "invalid argument");

  001a0	8d 46 fc	 lea	 eax, DWORD PTR [esi-4]
  001a3	83 f8 1f	 cmp	 eax, 31			; 0000001fH
  001a6	77 2f		 ja	 SHORT $LN93@Emplace_re

; 173  :     _Ptr = reinterpret_cast<void*>(_Ptr_container);

  001a8	8b f2		 mov	 esi, edx
$LN96@Emplace_re:

; 264  :         ::operator delete(_Ptr, _Bytes);

  001aa	51		 push	 ecx
  001ab	56		 push	 esi
  001ac	e8 00 00 00 00	 call	 ??3@YAXPAXI@Z		; operator delete
  001b1	8b 45 fc	 mov	 eax, DWORD PTR _this$1$[ebp]
  001b4	83 c4 08	 add	 esp, 8
$LN86@Emplace_re:
; File C:\Program Files (x86)\Microsoft Visual Studio\2019\Professional\VC\Tools\MSVC\14.29.30133\include\vector

; 1751 :         _Mylast  = _Newvec + _Newsize;

  001b7	8b 4d 08	 mov	 ecx, DWORD PTR __Newsize$1$[ebp]
  001ba	89 18		 mov	 DWORD PTR [eax], ebx
  001bc	8d 0c 49	 lea	 ecx, DWORD PTR [ecx+ecx*2]
  001bf	8d 0c cb	 lea	 ecx, DWORD PTR [ebx+ecx*8]
  001c2	89 48 04	 mov	 DWORD PTR [eax+4], ecx

; 1752 :         _Myend   = _Newvec + _Newcapacity;

  001c5	8d 0c 1f	 lea	 ecx, DWORD PTR [edi+ebx]

; 795  :             _Umove(_Myfirst, _Whereptr, _Newvec);
; 796  :             _Constructed_first = _Newvec;
; 797  :             _Umove(_Whereptr, _Mylast, _Newvec + _Whereoff + 1);
; 798  :         }
; 799  :         _CATCH_ALL
; 800  :         _Destroy(_Constructed_first, _Constructed_last);
; 801  :         _Al.deallocate(_Newvec, _Newcapacity);
; 802  :         _RERAISE;
; 803  :         _CATCH_END
; 804  : 
; 805  :         _Change_array(_Newvec, _Newsize, _Newcapacity);
; 806  :         return _Newvec + _Whereoff;

  001c8	5f		 pop	 edi
  001c9	5e		 pop	 esi

; 1752 :         _Myend   = _Newvec + _Newcapacity;

  001ca	89 48 08	 mov	 DWORD PTR [eax+8], ecx

; 795  :             _Umove(_Myfirst, _Whereptr, _Newvec);
; 796  :             _Constructed_first = _Newvec;
; 797  :             _Umove(_Whereptr, _Mylast, _Newvec + _Whereoff + 1);
; 798  :         }
; 799  :         _CATCH_ALL
; 800  :         _Destroy(_Constructed_first, _Constructed_last);
; 801  :         _Al.deallocate(_Newvec, _Newcapacity);
; 802  :         _RERAISE;
; 803  :         _CATCH_END
; 804  : 
; 805  :         _Change_array(_Newvec, _Newsize, _Newcapacity);
; 806  :         return _Newvec + _Whereoff;

  001cd	8b 45 f8	 mov	 eax, DWORD PTR tv654[ebp]
  001d0	5b		 pop	 ebx

; 807  :     }

  001d1	8b e5		 mov	 esp, ebp
  001d3	5d		 pop	 ebp
  001d4	c2 08 00	 ret	 8
$LN93@Emplace_re:
; File C:\Program Files (x86)\Microsoft Visual Studio\2019\Professional\VC\Tools\MSVC\14.29.30133\include\xmemory

; 172  :     _STL_VERIFY(_Back_shift >= _Min_back_shift && _Back_shift <= _Non_user_size, "invalid argument");

  001d7	e8 00 00 00 00	 call	 __invalid_parameter_noinfo_noreturn
$LN116@Emplace_re:
; File C:\Program Files (x86)\Microsoft Visual Studio\2019\Professional\VC\Tools\MSVC\14.29.30133\include\vector

; 778  :             _Xlength();

  001dc	e8 00 00 00 00	 call	 ?_Xlength@?$vector@USPDTVertex@@V?$allocator@USPDTVertex@@@std@@@std@@CAXXZ ; std::vector<SPDTVertex,std::allocator<SPDTVertex> >::_Xlength
$LN117@Emplace_re:
; File C:\Program Files (x86)\Microsoft Visual Studio\2019\Professional\VC\Tools\MSVC\14.29.30133\include\xmemory

; 65   :             _Throw_bad_array_new_length(); // multiply overflow

  001e1	e8 00 00 00 00	 call	 ?_Throw_bad_array_new_length@std@@YAXXZ ; std::_Throw_bad_array_new_length
$LN114@Emplace_re:
  001e6	cc		 int	 3
??$_Emplace_reallocate@ABUSPDTVertex@@@?$vector@USPDTVertex@@V?$allocator@USPDTVertex@@@std@@@std@@QAEPAUSPDTVertex@@QAU2@ABU2@@Z ENDP ; std::vector<SPDTVertex,std::allocator<SPDTVertex> >::_Emplace_reallocate<SPDTVertex const &>
_TEXT	ENDS
; Function compile flags: /Ogtp
; File C:\Program Files (x86)\Microsoft Visual Studio\2019\Professional\VC\Tools\MSVC\14.29.30133\include\vector
;	COMDAT ?_Xlength@?$vector@USPDTVertex@@V?$allocator@USPDTVertex@@@std@@@std@@CAXXZ
_TEXT	SEGMENT
?_Xlength@?$vector@USPDTVertex@@V?$allocator@USPDTVertex@@@std@@@std@@CAXXZ PROC ; std::vector<SPDTVertex,std::allocator<SPDTVertex> >::_Xlength, COMDAT

; 1774 :         _Xlength_error("vector too long");

  00000	68 00 00 00 00	 push	 OFFSET ??_C@_0BA@FOIKENOD@vector?5too?5long@
  00005	e8 00 00 00 00	 call	 ?_Xlength_error@std@@YAXPBD@Z ; std::_Xlength_error
$LN3@Xlength:
  0000a	cc		 int	 3
?_Xlength@?$vector@USPDTVertex@@V?$allocator@USPDTVertex@@@std@@@std@@CAXXZ ENDP ; std::vector<SPDTVertex,std::allocator<SPDTVertex> >::_Xlength
_TEXT	ENDS
; Function compile flags: /Ogtp
; File C:\Program Files (x86)\Microsoft Visual Studio\2019\Professional\VC\Tools\MSVC\14.29.30133\include\vector
; File C:\Program Files (x86)\Microsoft Visual Studio\2019\Professional\VC\Tools\MSVC\14.29.30133\include\xmemory
; File C:\Program Files (x86)\Microsoft Visual Studio\2019\Professional\VC\Tools\MSVC\14.29.30133\include\vector
; File C:\Program Files (x86)\Microsoft Visual Studio\2019\Professional\VC\Tools\MSVC\14.29.30133\include\xmemory
; File C:\Program Files (x86)\Microsoft Visual Studio\2019\Professional\VC\Tools\MSVC\14.29.30133\include\vector
; File C:\Program Files (x86)\Microsoft Visual Studio\2019\Professional\VC\Tools\MSVC\14.29.30133\include\xmemory
; File C:\Program Files (x86)\Microsoft Visual Studio\2019\Professional\VC\Tools\MSVC\14.29.30133\include\vector
;	COMDAT ??1?$vector@USPDTVertex@@V?$allocator@USPDTVertex@@@std@@@std@@QAE@XZ
_TEXT	SEGMENT
??1?$vector@USPDTVertex@@V?$allocator@USPDTVertex@@@std@@@std@@QAE@XZ PROC ; std::vector<SPDTVertex,std::allocator<SPDTVertex> >::~vector<SPDTVertex,std::allocator<SPDTVertex> >, COMDAT
; _this$ = ecx

; 711  :     _CONSTEXPR20_CONTAINER ~vector() noexcept {

  00000	56		 push	 esi
  00001	57		 push	 edi
  00002	8b f9		 mov	 edi, ecx

; 1763 :         if (_Myfirst) { // destroy and deallocate old array

  00004	8b 37		 mov	 esi, DWORD PTR [edi]
  00006	85 f6		 test	 esi, esi
  00008	74 54		 je	 SHORT $LN4@vector

; 1764 :             _Destroy(_Myfirst, _Mylast);
; 1765 :             _Getal().deallocate(_Myfirst, static_cast<size_type>(_Myend - _Myfirst));

  0000a	8b 4f 08	 mov	 ecx, DWORD PTR [edi+8]
  0000d	b8 ab aa aa 2a	 mov	 eax, 715827883		; 2aaaaaabH
  00012	2b ce		 sub	 ecx, esi
  00014	f7 e9		 imul	 ecx
  00016	c1 fa 02	 sar	 edx, 2
  00019	8b c2		 mov	 eax, edx
  0001b	c1 e8 1f	 shr	 eax, 31			; 0000001fH
  0001e	03 c2		 add	 eax, edx
; File C:\Program Files (x86)\Microsoft Visual Studio\2019\Professional\VC\Tools\MSVC\14.29.30133\include\xmemory

; 835  :         _Deallocate<_New_alignof<_Ty>>(_Ptr, sizeof(_Ty) * _Count);

  00020	8d 0c 40	 lea	 ecx, DWORD PTR [eax+eax*2]
  00023	c1 e1 03	 shl	 ecx, 3

; 260  :         if (_Bytes >= _Big_allocation_threshold) { // boost the alignment of big allocations to help autovectorization

  00026	81 f9 00 10 00
	00		 cmp	 ecx, 4096		; 00001000H
  0002c	72 12		 jb	 SHORT $LN20@vector

; 158  :     const uintptr_t _Ptr_container   = _Ptr_user[-1];

  0002e	8b 56 fc	 mov	 edx, DWORD PTR [esi-4]
  00031	83 c1 23	 add	 ecx, 35			; 00000023H

; 159  : 
; 160  :     // If the following asserts, it likely means that we are performing
; 161  :     // an aligned delete on memory coming from an unaligned allocation.
; 162  :     _STL_ASSERT(_Ptr_user[-2] == _Big_allocation_sentinel, "invalid argument");
; 163  : 
; 164  :     // Extra paranoia on aligned allocation/deallocation; ensure _Ptr_container is
; 165  :     // in range [_Min_back_shift, _Non_user_size]
; 166  : #ifdef _DEBUG
; 167  :     constexpr uintptr_t _Min_back_shift = 2 * sizeof(void*);
; 168  : #else // ^^^ _DEBUG ^^^ // vvv !_DEBUG vvv
; 169  :     constexpr uintptr_t _Min_back_shift = sizeof(void*);
; 170  : #endif // _DEBUG
; 171  :     const uintptr_t _Back_shift = reinterpret_cast<uintptr_t>(_Ptr) - _Ptr_container;

  00034	2b f2		 sub	 esi, edx

; 172  :     _STL_VERIFY(_Back_shift >= _Min_back_shift && _Back_shift <= _Non_user_size, "invalid argument");

  00036	8d 46 fc	 lea	 eax, DWORD PTR [esi-4]
  00039	83 f8 1f	 cmp	 eax, 31			; 0000001fH
  0003c	77 23		 ja	 SHORT $LN17@vector

; 173  :     _Ptr = reinterpret_cast<void*>(_Ptr_container);

  0003e	8b f2		 mov	 esi, edx
$LN20@vector:

; 264  :         ::operator delete(_Ptr, _Bytes);

  00040	51		 push	 ecx
  00041	56		 push	 esi
  00042	e8 00 00 00 00	 call	 ??3@YAXPAXI@Z		; operator delete
; File C:\Program Files (x86)\Microsoft Visual Studio\2019\Professional\VC\Tools\MSVC\14.29.30133\include\vector

; 1767 :             _Myfirst = nullptr;

  00047	c7 07 00 00 00
	00		 mov	 DWORD PTR [edi], 0
; File C:\Program Files (x86)\Microsoft Visual Studio\2019\Professional\VC\Tools\MSVC\14.29.30133\include\xmemory

; 264  :         ::operator delete(_Ptr, _Bytes);

  0004d	83 c4 08	 add	 esp, 8
; File C:\Program Files (x86)\Microsoft Visual Studio\2019\Professional\VC\Tools\MSVC\14.29.30133\include\vector

; 1768 :             _Mylast  = nullptr;

  00050	c7 47 04 00 00
	00 00		 mov	 DWORD PTR [edi+4], 0

; 1769 :             _Myend   = nullptr;

  00057	c7 47 08 00 00
	00 00		 mov	 DWORD PTR [edi+8], 0
$LN4@vector:
  0005e	5f		 pop	 edi

; 717  :     }

  0005f	5e		 pop	 esi
  00060	c3		 ret	 0
$LN17@vector:
; File C:\Program Files (x86)\Microsoft Visual Studio\2019\Professional\VC\Tools\MSVC\14.29.30133\include\xmemory

; 172  :     _STL_VERIFY(_Back_shift >= _Min_back_shift && _Back_shift <= _Non_user_size, "invalid argument");

  00061	e8 00 00 00 00	 call	 __invalid_parameter_noinfo_noreturn
$LN25@vector:
  00066	cc		 int	 3
??1?$vector@USPDTVertex@@V?$allocator@USPDTVertex@@@std@@@std@@QAE@XZ ENDP ; std::vector<SPDTVertex,std::allocator<SPDTVertex> >::~vector<SPDTVertex,std::allocator<SPDTVertex> >
_TEXT	ENDS
; Function compile flags: /Ogtp
;	COMDAT ??__F?ms_kPool@CGraphicExpandedImageInstance@@2V?$CDynamicPool@VCGraphicExpandedImageInstance@@@@A@@YAXXZ
text$yd	SEGMENT
??__F?ms_kPool@CGraphicExpandedImageInstance@@2V?$CDynamicPool@VCGraphicExpandedImageInstance@@@@A@@YAXXZ PROC ; `dynamic atexit destructor for 'CGraphicExpandedImageInstance::ms_kPool'', COMDAT
  00000	b9 00 00 00 00	 mov	 ecx, OFFSET ?ms_kPool@CGraphicExpandedImageInstance@@2V?$CDynamicPool@VCGraphicExpandedImageInstance@@@@A ; CGraphicExpandedImageInstance::ms_kPool
  00005	e9 00 00 00 00	 jmp	 ??1?$CDynamicPool@VCGraphicExpandedImageInstance@@@@UAE@XZ ; CDynamicPool<CGraphicExpandedImageInstance>::~CDynamicPool<CGraphicExpandedImageInstance>
??__F?ms_kPool@CGraphicExpandedImageInstance@@2V?$CDynamicPool@VCGraphicExpandedImageInstance@@@@A@@YAXXZ ENDP ; `dynamic atexit destructor for 'CGraphicExpandedImageInstance::ms_kPool''
text$yd	ENDS
; Function compile flags: /Ogtp
; File C:\Users\murat\Desktop\Siveps2-1-99-Project\source\client\Client\EterLib\GrpExpandedImageInstance.cpp
;	COMDAT ??__E?ms_kPool@CGraphicExpandedImageInstance@@2V?$CDynamicPool@VCGraphicExpandedImageInstance@@@@A@@YAXXZ
text$di	SEGMENT
??__E?ms_kPool@CGraphicExpandedImageInstance@@2V?$CDynamicPool@VCGraphicExpandedImageInstance@@@@A@@YAXXZ PROC ; `dynamic initializer for 'CGraphicExpandedImageInstance::ms_kPool'', COMDAT

; 6    : CDynamicPool<CGraphicExpandedImageInstance>		CGraphicExpandedImageInstance::ms_kPool;

  00000	68 00 00 00 00	 push	 OFFSET ??__F?ms_kPool@CGraphicExpandedImageInstance@@2V?$CDynamicPool@VCGraphicExpandedImageInstance@@@@A@@YAXXZ ; `dynamic atexit destructor for 'CGraphicExpandedImageInstance::ms_kPool''
  00005	e8 00 00 00 00	 call	 _atexit
  0000a	59		 pop	 ecx
  0000b	c3		 ret	 0
??__E?ms_kPool@CGraphicExpandedImageInstance@@2V?$CDynamicPool@VCGraphicExpandedImageInstance@@@@A@@YAXXZ ENDP ; `dynamic initializer for 'CGraphicExpandedImageInstance::ms_kPool''
text$di	ENDS
; Function compile flags: /Ogtp
;	COMDAT ??_G?$CDynamicPool@VCGraphicExpandedImageInstance@@@@UAEPAXI@Z
_TEXT	SEGMENT
___flags$ = 8						; size = 4
??_G?$CDynamicPool@VCGraphicExpandedImageInstance@@@@UAEPAXI@Z PROC ; CDynamicPool<CGraphicExpandedImageInstance>::`scalar deleting destructor', COMDAT
; _this$ = ecx
  00000	55		 push	 ebp
  00001	8b ec		 mov	 ebp, esp
  00003	56		 push	 esi
  00004	8b f1		 mov	 esi, ecx
  00006	e8 00 00 00 00	 call	 ??1?$CDynamicPool@VCGraphicExpandedImageInstance@@@@UAE@XZ ; CDynamicPool<CGraphicExpandedImageInstance>::~CDynamicPool<CGraphicExpandedImageInstance>
  0000b	f6 45 08 01	 test	 BYTE PTR ___flags$[ebp], 1
  0000f	74 0b		 je	 SHORT $LN4@scalar
  00011	6a 24		 push	 36			; 00000024H
  00013	56		 push	 esi
  00014	e8 00 00 00 00	 call	 ??3@YAXPAXI@Z		; operator delete
  00019	83 c4 08	 add	 esp, 8
$LN4@scalar:
  0001c	8b c6		 mov	 eax, esi
  0001e	5e		 pop	 esi
  0001f	5d		 pop	 ebp
  00020	c2 04 00	 ret	 4
??_G?$CDynamicPool@VCGraphicExpandedImageInstance@@@@UAEPAXI@Z ENDP ; CDynamicPool<CGraphicExpandedImageInstance>::`scalar deleting destructor'
_TEXT	ENDS
; Function compile flags: /Ogtp
; File C:\Program Files (x86)\Microsoft Visual Studio\2019\Professional\VC\Tools\MSVC\14.29.30133\include\vector
;	COMDAT ?_Xlength@?$vector@PAVCGraphicExpandedImageInstance@@V?$allocator@PAVCGraphicExpandedImageInstance@@@std@@@std@@CAXXZ
_TEXT	SEGMENT
?_Xlength@?$vector@PAVCGraphicExpandedImageInstance@@V?$allocator@PAVCGraphicExpandedImageInstance@@@std@@@std@@CAXXZ PROC ; std::vector<CGraphicExpandedImageInstance *,std::allocator<CGraphicExpandedImageInstance *> >::_Xlength, COMDAT

; 1774 :         _Xlength_error("vector too long");

  00000	68 00 00 00 00	 push	 OFFSET ??_C@_0BA@FOIKENOD@vector?5too?5long@
  00005	e8 00 00 00 00	 call	 ?_Xlength_error@std@@YAXPBD@Z ; std::_Xlength_error
$LN3@Xlength:
  0000a	cc		 int	 3
?_Xlength@?$vector@PAVCGraphicExpandedImageInstance@@V?$allocator@PAVCGraphicExpandedImageInstance@@@std@@@std@@CAXXZ ENDP ; std::vector<CGraphicExpandedImageInstance *,std::allocator<CGraphicExpandedImageInstance *> >::_Xlength
_TEXT	ENDS
; Function compile flags: /Ogtp
; File C:\Program Files (x86)\Microsoft Visual Studio\2019\Professional\VC\Tools\MSVC\14.29.30133\include\vector
; File C:\Program Files (x86)\Microsoft Visual Studio\2019\Professional\VC\Tools\MSVC\14.29.30133\include\xmemory
; File C:\Program Files (x86)\Microsoft Visual Studio\2019\Professional\VC\Tools\MSVC\14.29.30133\include\vector
; File C:\Program Files (x86)\Microsoft Visual Studio\2019\Professional\VC\Tools\MSVC\14.29.30133\include\xmemory
; File C:\Program Files (x86)\Microsoft Visual Studio\2019\Professional\VC\Tools\MSVC\14.29.30133\include\vector
;	COMDAT ?_Change_array@?$vector@PAVCGraphicExpandedImageInstance@@V?$allocator@PAVCGraphicExpandedImageInstance@@@std@@@std@@AAEXQAPAVCGraphicExpandedImageInstance@@II@Z
_TEXT	SEGMENT
__Newvec$ = 8						; size = 4
__Newsize$ = 12						; size = 4
__Newcapacity$ = 16					; size = 4
?_Change_array@?$vector@PAVCGraphicExpandedImageInstance@@V?$allocator@PAVCGraphicExpandedImageInstance@@@std@@@std@@AAEXQAPAVCGraphicExpandedImageInstance@@II@Z PROC ; std::vector<CGraphicExpandedImageInstance *,std::allocator<CGraphicExpandedImageInstance *> >::_Change_array, COMDAT
; _this$ = ecx

; 1736 :         const pointer _Newvec, const size_type _Newsize, const size_type _Newcapacity) {

  00000	55		 push	 ebp
  00001	8b ec		 mov	 ebp, esp
  00003	56		 push	 esi
  00004	8b f1		 mov	 esi, ecx

; 1737 :         // orphan all iterators, discard old array, acquire new array
; 1738 :         auto& _My_data    = _Mypair._Myval2;
; 1739 :         pointer& _Myfirst = _My_data._Myfirst;
; 1740 :         pointer& _Mylast  = _My_data._Mylast;
; 1741 :         pointer& _Myend   = _My_data._Myend;
; 1742 : 
; 1743 :         _My_data._Orphan_all();
; 1744 : 
; 1745 :         if (_Myfirst) { // destroy and deallocate old array

  00006	8b 06		 mov	 eax, DWORD PTR [esi]
  00008	85 c0		 test	 eax, eax
  0000a	74 2c		 je	 SHORT $LN8@Change_arr

; 1746 :             _Destroy(_Myfirst, _Mylast);
; 1747 :             _Getal().deallocate(_Myfirst, static_cast<size_type>(_Myend - _Myfirst));

  0000c	8b 4e 08	 mov	 ecx, DWORD PTR [esi+8]
  0000f	2b c8		 sub	 ecx, eax
; File C:\Program Files (x86)\Microsoft Visual Studio\2019\Professional\VC\Tools\MSVC\14.29.30133\include\xmemory

; 835  :         _Deallocate<_New_alignof<_Ty>>(_Ptr, sizeof(_Ty) * _Count);

  00011	83 e1 fc	 and	 ecx, -4			; fffffffcH

; 260  :         if (_Bytes >= _Big_allocation_threshold) { // boost the alignment of big allocations to help autovectorization

  00014	81 f9 00 10 00
	00		 cmp	 ecx, 4096		; 00001000H
  0001a	72 12		 jb	 SHORT $LN18@Change_arr

; 158  :     const uintptr_t _Ptr_container   = _Ptr_user[-1];

  0001c	8b 50 fc	 mov	 edx, DWORD PTR [eax-4]
  0001f	83 c1 23	 add	 ecx, 35			; 00000023H

; 159  : 
; 160  :     // If the following asserts, it likely means that we are performing
; 161  :     // an aligned delete on memory coming from an unaligned allocation.
; 162  :     _STL_ASSERT(_Ptr_user[-2] == _Big_allocation_sentinel, "invalid argument");
; 163  : 
; 164  :     // Extra paranoia on aligned allocation/deallocation; ensure _Ptr_container is
; 165  :     // in range [_Min_back_shift, _Non_user_size]
; 166  : #ifdef _DEBUG
; 167  :     constexpr uintptr_t _Min_back_shift = 2 * sizeof(void*);
; 168  : #else // ^^^ _DEBUG ^^^ // vvv !_DEBUG vvv
; 169  :     constexpr uintptr_t _Min_back_shift = sizeof(void*);
; 170  : #endif // _DEBUG
; 171  :     const uintptr_t _Back_shift = reinterpret_cast<uintptr_t>(_Ptr) - _Ptr_container;

  00022	2b c2		 sub	 eax, edx

; 172  :     _STL_VERIFY(_Back_shift >= _Min_back_shift && _Back_shift <= _Non_user_size, "invalid argument");

  00024	83 c0 fc	 add	 eax, -4			; fffffffcH
  00027	83 f8 1f	 cmp	 eax, 31			; 0000001fH
  0002a	77 28		 ja	 SHORT $LN15@Change_arr

; 173  :     _Ptr = reinterpret_cast<void*>(_Ptr_container);

  0002c	8b c2		 mov	 eax, edx
$LN18@Change_arr:

; 264  :         ::operator delete(_Ptr, _Bytes);

  0002e	51		 push	 ecx
  0002f	50		 push	 eax
  00030	e8 00 00 00 00	 call	 ??3@YAXPAXI@Z		; operator delete
  00035	83 c4 08	 add	 esp, 8
$LN8@Change_arr:
; File C:\Program Files (x86)\Microsoft Visual Studio\2019\Professional\VC\Tools\MSVC\14.29.30133\include\vector

; 1750 :         _Myfirst = _Newvec;

  00038	8b 4d 08	 mov	 ecx, DWORD PTR __Newvec$[ebp]

; 1751 :         _Mylast  = _Newvec + _Newsize;

  0003b	8b 45 0c	 mov	 eax, DWORD PTR __Newsize$[ebp]
  0003e	89 0e		 mov	 DWORD PTR [esi], ecx
  00040	8d 04 81	 lea	 eax, DWORD PTR [ecx+eax*4]
  00043	89 46 04	 mov	 DWORD PTR [esi+4], eax

; 1752 :         _Myend   = _Newvec + _Newcapacity;

  00046	8b 45 10	 mov	 eax, DWORD PTR __Newcapacity$[ebp]
  00049	8d 04 81	 lea	 eax, DWORD PTR [ecx+eax*4]
  0004c	89 46 08	 mov	 DWORD PTR [esi+8], eax
  0004f	5e		 pop	 esi

; 1753 :     }

  00050	5d		 pop	 ebp
  00051	c2 0c 00	 ret	 12			; 0000000cH
$LN15@Change_arr:
; File C:\Program Files (x86)\Microsoft Visual Studio\2019\Professional\VC\Tools\MSVC\14.29.30133\include\xmemory

; 172  :     _STL_VERIFY(_Back_shift >= _Min_back_shift && _Back_shift <= _Non_user_size, "invalid argument");

  00054	e8 00 00 00 00	 call	 __invalid_parameter_noinfo_noreturn
$LN22@Change_arr:
  00059	cc		 int	 3
?_Change_array@?$vector@PAVCGraphicExpandedImageInstance@@V?$allocator@PAVCGraphicExpandedImageInstance@@@std@@@std@@AAEXQAPAVCGraphicExpandedImageInstance@@II@Z ENDP ; std::vector<CGraphicExpandedImageInstance *,std::allocator<CGraphicExpandedImageInstance *> >::_Change_array
_TEXT	ENDS
; Function compile flags: /Ogtp
; File C:\Program Files (x86)\Microsoft Visual Studio\2019\Professional\VC\Tools\MSVC\14.29.30133\include\vector
; File C:\Program Files (x86)\Microsoft Visual Studio\2019\Professional\VC\Tools\MSVC\14.29.30133\include\xmemory
; File C:\Program Files (x86)\Microsoft Visual Studio\2019\Professional\VC\Tools\MSVC\14.29.30133\include\vector
; File C:\Program Files (x86)\Microsoft Visual Studio\2019\Professional\VC\Tools\MSVC\14.29.30133\include\xmemory
; File C:\Program Files (x86)\Microsoft Visual Studio\2019\Professional\VC\Tools\MSVC\14.29.30133\include\vector
; File C:\Program Files (x86)\Microsoft Visual Studio\2019\Professional\VC\Tools\MSVC\14.29.30133\include\xmemory
; File C:\Program Files (x86)\Microsoft Visual Studio\2019\Professional\VC\Tools\MSVC\14.29.30133\include\vector
; File C:\Program Files (x86)\Microsoft Visual Studio\2019\Professional\VC\Tools\MSVC\14.29.30133\include\xmemory
; File C:\Program Files (x86)\Microsoft Visual Studio\2019\Professional\VC\Tools\MSVC\14.29.30133\include\vector
; File C:\Program Files (x86)\Microsoft Visual Studio\2019\Professional\VC\Tools\MSVC\14.29.30133\include\xmemory
; File C:\Program Files (x86)\Microsoft Visual Studio\2019\Professional\VC\Tools\MSVC\14.29.30133\include\vector
;	COMDAT ?_Reallocate_exactly@?$vector@PAVCGraphicExpandedImageInstance@@V?$allocator@PAVCGraphicExpandedImageInstance@@@std@@@std@@AAEXI@Z
_TEXT	SEGMENT
__Size$1$ = -4						; size = 4
__Newcapacity$ = 8					; size = 4
?_Reallocate_exactly@?$vector@PAVCGraphicExpandedImageInstance@@V?$allocator@PAVCGraphicExpandedImageInstance@@@std@@@std@@AAEXI@Z PROC ; std::vector<CGraphicExpandedImageInstance *,std::allocator<CGraphicExpandedImageInstance *> >::_Reallocate_exactly, COMDAT
; _this$ = ecx

; 1299 :     _CONSTEXPR20_CONTAINER void _Reallocate_exactly(const size_type _Newcapacity) {

  00000	55		 push	 ebp
  00001	8b ec		 mov	 ebp, esp
  00003	51		 push	 ecx
  00004	53		 push	 ebx
; File C:\Program Files (x86)\Microsoft Visual Studio\2019\Professional\VC\Tools\MSVC\14.29.30133\include\xmemory

; 64   :         if (_Count > _Max_possible) {

  00005	8b 5d 08	 mov	 ebx, DWORD PTR __Newcapacity$[ebp]
; File C:\Program Files (x86)\Microsoft Visual Studio\2019\Professional\VC\Tools\MSVC\14.29.30133\include\vector

; 1299 :     _CONSTEXPR20_CONTAINER void _Reallocate_exactly(const size_type _Newcapacity) {

  00008	56		 push	 esi
  00009	8b f1		 mov	 esi, ecx
  0000b	57		 push	 edi

; 1300 :         // set capacity to _Newcapacity (without geometric growth), provide strong guarantee
; 1301 :         auto& _My_data    = _Mypair._Myval2;
; 1302 :         pointer& _Myfirst = _My_data._Myfirst;
; 1303 :         pointer& _Mylast  = _My_data._Mylast;
; 1304 : 
; 1305 :         const auto _Size = static_cast<size_type>(_Mylast - _Myfirst);

  0000c	8b 46 04	 mov	 eax, DWORD PTR [esi+4]
  0000f	2b 06		 sub	 eax, DWORD PTR [esi]
  00011	c1 f8 02	 sar	 eax, 2
  00014	89 45 fc	 mov	 DWORD PTR __Size$1$[ebp], eax
; File C:\Program Files (x86)\Microsoft Visual Studio\2019\Professional\VC\Tools\MSVC\14.29.30133\include\xmemory

; 64   :         if (_Count > _Max_possible) {

  00017	81 fb ff ff ff
	3f		 cmp	 ebx, 1073741823		; 3fffffffH
  0001d	0f 87 8a 00 00
	00		 ja	 $LN59@Reallocate

; 66   :         }
; 67   :     }
; 68   : 
; 69   :     return _Count * _Ty_size;

  00023	c1 e3 02	 shl	 ebx, 2

; 237  :         if (_Bytes >= _Big_allocation_threshold) { // boost the alignment of big allocations to help autovectorization

  00026	81 fb 00 10 00
	00		 cmp	 ebx, 4096		; 00001000H
  0002c	72 0d		 jb	 SHORT $LN15@Reallocate

; 238  :             return _Allocate_manually_vector_aligned<_Traits>(_Bytes);

  0002e	53		 push	 ebx
  0002f	e8 00 00 00 00	 call	 ??$_Allocate_manually_vector_aligned@U_Default_allocate_traits@std@@@std@@YAPAXI@Z ; std::_Allocate_manually_vector_aligned<std::_Default_allocate_traits>
  00034	83 c4 04	 add	 esp, 4
  00037	8b f8		 mov	 edi, eax
  00039	eb 13		 jmp	 SHORT $LN14@Reallocate
$LN15@Reallocate:

; 239  :         }
; 240  :     }
; 241  : #endif // defined(_M_IX86) || defined(_M_X64)
; 242  : 
; 243  :     if (_Bytes != 0) {

  0003b	85 db		 test	 ebx, ebx
  0003d	74 0d		 je	 SHORT $LN16@Reallocate

; 85   :         return ::operator new(_Bytes);

  0003f	53		 push	 ebx
  00040	e8 00 00 00 00	 call	 ??2@YAPAXI@Z		; operator new
  00045	83 c4 04	 add	 esp, 4

; 244  :         return _Traits::_Allocate(_Bytes);

  00048	8b f8		 mov	 edi, eax
  0004a	eb 02		 jmp	 SHORT $LN14@Reallocate
$LN16@Reallocate:

; 245  :     }
; 246  : 
; 247  :     return nullptr;

  0004c	33 ff		 xor	 edi, edi
$LN14@Reallocate:

; 1725 :             _Copy_memmove(_UFirst, _ULast, _Unfancy(_Dest));

  0004e	57		 push	 edi
  0004f	ff 76 04	 push	 DWORD PTR [esi+4]
  00052	ff 36		 push	 DWORD PTR [esi]
  00054	e8 00 00 00 00	 call	 ??$_Copy_memmove@PAPAVCGraphicExpandedImageInstance@@PAPAV1@@std@@YAPAPAVCGraphicExpandedImageInstance@@PAPAV1@00@Z ; std::_Copy_memmove<CGraphicExpandedImageInstance * *,CGraphicExpandedImageInstance * *>
; File C:\Program Files (x86)\Microsoft Visual Studio\2019\Professional\VC\Tools\MSVC\14.29.30133\include\vector

; 1745 :         if (_Myfirst) { // destroy and deallocate old array

  00059	8b 06		 mov	 eax, DWORD PTR [esi]
; File C:\Program Files (x86)\Microsoft Visual Studio\2019\Professional\VC\Tools\MSVC\14.29.30133\include\xmemory

; 1725 :             _Copy_memmove(_UFirst, _ULast, _Unfancy(_Dest));

  0005b	83 c4 0c	 add	 esp, 12			; 0000000cH
; File C:\Program Files (x86)\Microsoft Visual Studio\2019\Professional\VC\Tools\MSVC\14.29.30133\include\vector

; 1745 :         if (_Myfirst) { // destroy and deallocate old array

  0005e	85 c0		 test	 eax, eax
  00060	74 2c		 je	 SHORT $LN43@Reallocate

; 1746 :             _Destroy(_Myfirst, _Mylast);
; 1747 :             _Getal().deallocate(_Myfirst, static_cast<size_type>(_Myend - _Myfirst));

  00062	8b 4e 08	 mov	 ecx, DWORD PTR [esi+8]
  00065	2b c8		 sub	 ecx, eax
; File C:\Program Files (x86)\Microsoft Visual Studio\2019\Professional\VC\Tools\MSVC\14.29.30133\include\xmemory

; 835  :         _Deallocate<_New_alignof<_Ty>>(_Ptr, sizeof(_Ty) * _Count);

  00067	83 e1 fc	 and	 ecx, -4			; fffffffcH

; 260  :         if (_Bytes >= _Big_allocation_threshold) { // boost the alignment of big allocations to help autovectorization

  0006a	81 f9 00 10 00
	00		 cmp	 ecx, 4096		; 00001000H
  00070	72 12		 jb	 SHORT $LN53@Reallocate

; 158  :     const uintptr_t _Ptr_container   = _Ptr_user[-1];

  00072	8b 50 fc	 mov	 edx, DWORD PTR [eax-4]
  00075	83 c1 23	 add	 ecx, 35			; 00000023H

; 159  : 
; 160  :     // If the following asserts, it likely means that we are performing
; 161  :     // an aligned delete on memory coming from an unaligned allocation.
; 162  :     _STL_ASSERT(_Ptr_user[-2] == _Big_allocation_sentinel, "invalid argument");
; 163  : 
; 164  :     // Extra paranoia on aligned allocation/deallocation; ensure _Ptr_container is
; 165  :     // in range [_Min_back_shift, _Non_user_size]
; 166  : #ifdef _DEBUG
; 167  :     constexpr uintptr_t _Min_back_shift = 2 * sizeof(void*);
; 168  : #else // ^^^ _DEBUG ^^^ // vvv !_DEBUG vvv
; 169  :     constexpr uintptr_t _Min_back_shift = sizeof(void*);
; 170  : #endif // _DEBUG
; 171  :     const uintptr_t _Back_shift = reinterpret_cast<uintptr_t>(_Ptr) - _Ptr_container;

  00078	2b c2		 sub	 eax, edx

; 172  :     _STL_VERIFY(_Back_shift >= _Min_back_shift && _Back_shift <= _Non_user_size, "invalid argument");

  0007a	83 c0 fc	 add	 eax, -4			; fffffffcH
  0007d	83 f8 1f	 cmp	 eax, 31			; 0000001fH
  00080	77 26		 ja	 SHORT $LN50@Reallocate

; 173  :     _Ptr = reinterpret_cast<void*>(_Ptr_container);

  00082	8b c2		 mov	 eax, edx
$LN53@Reallocate:

; 264  :         ::operator delete(_Ptr, _Bytes);

  00084	51		 push	 ecx
  00085	50		 push	 eax
  00086	e8 00 00 00 00	 call	 ??3@YAXPAXI@Z		; operator delete
  0008b	83 c4 08	 add	 esp, 8
$LN43@Reallocate:
; File C:\Program Files (x86)\Microsoft Visual Studio\2019\Professional\VC\Tools\MSVC\14.29.30133\include\vector

; 1751 :         _Mylast  = _Newvec + _Newsize;

  0008e	8b 45 fc	 mov	 eax, DWORD PTR __Size$1$[ebp]
  00091	89 3e		 mov	 DWORD PTR [esi], edi
  00093	8d 04 87	 lea	 eax, DWORD PTR [edi+eax*4]
  00096	89 46 04	 mov	 DWORD PTR [esi+4], eax

; 1752 :         _Myend   = _Newvec + _Newcapacity;

  00099	8d 04 3b	 lea	 eax, DWORD PTR [ebx+edi]
  0009c	5f		 pop	 edi
  0009d	89 46 08	 mov	 DWORD PTR [esi+8], eax
  000a0	5e		 pop	 esi
  000a1	5b		 pop	 ebx

; 1317 :     }

  000a2	8b e5		 mov	 esp, ebp
  000a4	5d		 pop	 ebp
  000a5	c2 04 00	 ret	 4
$LN50@Reallocate:
; File C:\Program Files (x86)\Microsoft Visual Studio\2019\Professional\VC\Tools\MSVC\14.29.30133\include\xmemory

; 172  :     _STL_VERIFY(_Back_shift >= _Min_back_shift && _Back_shift <= _Non_user_size, "invalid argument");

  000a8	e8 00 00 00 00	 call	 __invalid_parameter_noinfo_noreturn
$LN59@Reallocate:

; 65   :             _Throw_bad_array_new_length(); // multiply overflow

  000ad	e8 00 00 00 00	 call	 ?_Throw_bad_array_new_length@std@@YAXXZ ; std::_Throw_bad_array_new_length
$LN57@Reallocate:
  000b2	cc		 int	 3
?_Reallocate_exactly@?$vector@PAVCGraphicExpandedImageInstance@@V?$allocator@PAVCGraphicExpandedImageInstance@@@std@@@std@@AAEXI@Z ENDP ; std::vector<CGraphicExpandedImageInstance *,std::allocator<CGraphicExpandedImageInstance *> >::_Reallocate_exactly
_TEXT	ENDS
; Function compile flags: /Ogtp
; File C:\Users\murat\Desktop\Siveps2-1-99-Project\source\client\Client\EterLib\Pool.h
;	COMDAT ?Delete@?$CDynamicPool@VCGraphicExpandedImageInstance@@@@KAXPAVCGraphicExpandedImageInstance@@@Z
_TEXT	SEGMENT
_pkData$ = 8						; size = 4
?Delete@?$CDynamicPool@VCGraphicExpandedImageInstance@@@@KAXPAVCGraphicExpandedImageInstance@@@Z PROC ; CDynamicPool<CGraphicExpandedImageInstance>::Delete, COMDAT

; 109  : 		{

  00000	55		 push	 ebp
  00001	8b ec		 mov	 ebp, esp

; 110  : 			delete pkData;

  00003	8b 4d 08	 mov	 ecx, DWORD PTR _pkData$[ebp]
  00006	85 c9		 test	 ecx, ecx
  00008	74 06		 je	 SHORT $LN3@Delete
  0000a	8b 01		 mov	 eax, DWORD PTR [ecx]
  0000c	6a 01		 push	 1
  0000e	ff 10		 call	 DWORD PTR [eax]
$LN3@Delete:

; 111  : 		}

  00010	5d		 pop	 ebp
  00011	c3		 ret	 0
?Delete@?$CDynamicPool@VCGraphicExpandedImageInstance@@@@KAXPAVCGraphicExpandedImageInstance@@@Z ENDP ; CDynamicPool<CGraphicExpandedImageInstance>::Delete
_TEXT	ENDS
; Function compile flags: /Ogtp
; File C:\Users\murat\Desktop\Siveps2-1-99-Project\source\client\Client\EterLib\Pool.h
; File C:\Program Files (x86)\Microsoft Visual Studio\2019\Professional\VC\Tools\MSVC\14.29.30133\include\vector
; File C:\Program Files (x86)\Microsoft Visual Studio\2019\Professional\VC\Tools\MSVC\14.29.30133\include\xmemory
; File C:\Program Files (x86)\Microsoft Visual Studio\2019\Professional\VC\Tools\MSVC\14.29.30133\include\vector
; File C:\Program Files (x86)\Microsoft Visual Studio\2019\Professional\VC\Tools\MSVC\14.29.30133\include\xmemory
; File C:\Program Files (x86)\Microsoft Visual Studio\2019\Professional\VC\Tools\MSVC\14.29.30133\include\vector
; File C:\Program Files (x86)\Microsoft Visual Studio\2019\Professional\VC\Tools\MSVC\14.29.30133\include\xmemory
; File C:\Program Files (x86)\Microsoft Visual Studio\2019\Professional\VC\Tools\MSVC\14.29.30133\include\vector
; File C:\Program Files (x86)\Microsoft Visual Studio\2019\Professional\VC\Tools\MSVC\14.29.30133\include\xmemory
; File C:\Program Files (x86)\Microsoft Visual Studio\2019\Professional\VC\Tools\MSVC\14.29.30133\include\vector
; File C:\Users\murat\Desktop\Siveps2-1-99-Project\source\client\Client\EterLib\Pool.h
; File C:\Program Files (x86)\Microsoft Visual Studio\2019\Professional\VC\Tools\MSVC\14.29.30133\include\xmemory
; File C:\Users\murat\Desktop\Siveps2-1-99-Project\source\client\Client\EterLib\Pool.h
;	COMDAT ??1?$CDynamicPool@VCGraphicExpandedImageInstance@@@@UAE@XZ
_TEXT	SEGMENT
??1?$CDynamicPool@VCGraphicExpandedImageInstance@@@@UAE@XZ PROC ; CDynamicPool<CGraphicExpandedImageInstance>::~CDynamicPool<CGraphicExpandedImageInstance>, COMDAT
; _this$ = ecx

; 18   : 		{

  00000	56		 push	 esi
  00001	8b f1		 mov	 esi, ecx
  00003	c7 06 00 00 00
	00		 mov	 DWORD PTR [esi], OFFSET ??_7?$CDynamicPool@VCGraphicExpandedImageInstance@@@@6B@
; File C:\Program Files (x86)\Microsoft Visual Studio\2019\Professional\VC\Tools\MSVC\14.29.30133\include\vector

; 1763 :         if (_Myfirst) { // destroy and deallocate old array

  00009	8b 46 10	 mov	 eax, DWORD PTR [esi+16]
  0000c	85 c0		 test	 eax, eax
  0000e	74 41		 je	 SHORT $LN6@CDynamicPo

; 1764 :             _Destroy(_Myfirst, _Mylast);
; 1765 :             _Getal().deallocate(_Myfirst, static_cast<size_type>(_Myend - _Myfirst));

  00010	8b 4e 18	 mov	 ecx, DWORD PTR [esi+24]
  00013	2b c8		 sub	 ecx, eax
; File C:\Program Files (x86)\Microsoft Visual Studio\2019\Professional\VC\Tools\MSVC\14.29.30133\include\xmemory

; 835  :         _Deallocate<_New_alignof<_Ty>>(_Ptr, sizeof(_Ty) * _Count);

  00015	83 e1 fc	 and	 ecx, -4			; fffffffcH

; 260  :         if (_Bytes >= _Big_allocation_threshold) { // boost the alignment of big allocations to help autovectorization

  00018	81 f9 00 10 00
	00		 cmp	 ecx, 4096		; 00001000H
  0001e	72 12		 jb	 SHORT $LN22@CDynamicPo

; 158  :     const uintptr_t _Ptr_container   = _Ptr_user[-1];

  00020	8b 50 fc	 mov	 edx, DWORD PTR [eax-4]
  00023	83 c1 23	 add	 ecx, 35			; 00000023H

; 159  : 
; 160  :     // If the following asserts, it likely means that we are performing
; 161  :     // an aligned delete on memory coming from an unaligned allocation.
; 162  :     _STL_ASSERT(_Ptr_user[-2] == _Big_allocation_sentinel, "invalid argument");
; 163  : 
; 164  :     // Extra paranoia on aligned allocation/deallocation; ensure _Ptr_container is
; 165  :     // in range [_Min_back_shift, _Non_user_size]
; 166  : #ifdef _DEBUG
; 167  :     constexpr uintptr_t _Min_back_shift = 2 * sizeof(void*);
; 168  : #else // ^^^ _DEBUG ^^^ // vvv !_DEBUG vvv
; 169  :     constexpr uintptr_t _Min_back_shift = sizeof(void*);
; 170  : #endif // _DEBUG
; 171  :     const uintptr_t _Back_shift = reinterpret_cast<uintptr_t>(_Ptr) - _Ptr_container;

  00026	2b c2		 sub	 eax, edx

; 172  :     _STL_VERIFY(_Back_shift >= _Min_back_shift && _Back_shift <= _Non_user_size, "invalid argument");

  00028	83 c0 fc	 add	 eax, -4			; fffffffcH
  0002b	83 f8 1f	 cmp	 eax, 31			; 0000001fH
  0002e	77 6b		 ja	 SHORT $LN44@CDynamicPo

; 173  :     _Ptr = reinterpret_cast<void*>(_Ptr_container);

  00030	8b c2		 mov	 eax, edx
$LN22@CDynamicPo:

; 264  :         ::operator delete(_Ptr, _Bytes);

  00032	51		 push	 ecx
  00033	50		 push	 eax
  00034	e8 00 00 00 00	 call	 ??3@YAXPAXI@Z		; operator delete
; File C:\Program Files (x86)\Microsoft Visual Studio\2019\Professional\VC\Tools\MSVC\14.29.30133\include\vector

; 1767 :             _Myfirst = nullptr;

  00039	c7 46 10 00 00
	00 00		 mov	 DWORD PTR [esi+16], 0
; File C:\Program Files (x86)\Microsoft Visual Studio\2019\Professional\VC\Tools\MSVC\14.29.30133\include\xmemory

; 264  :         ::operator delete(_Ptr, _Bytes);

  00040	83 c4 08	 add	 esp, 8
; File C:\Program Files (x86)\Microsoft Visual Studio\2019\Professional\VC\Tools\MSVC\14.29.30133\include\vector

; 1768 :             _Mylast  = nullptr;

  00043	c7 46 14 00 00
	00 00		 mov	 DWORD PTR [esi+20], 0

; 1769 :             _Myend   = nullptr;

  0004a	c7 46 18 00 00
	00 00		 mov	 DWORD PTR [esi+24], 0
$LN6@CDynamicPo:

; 1763 :         if (_Myfirst) { // destroy and deallocate old array

  00051	8b 46 04	 mov	 eax, DWORD PTR [esi+4]
  00054	85 c0		 test	 eax, eax
  00056	74 41		 je	 SHORT $LN31@CDynamicPo

; 1764 :             _Destroy(_Myfirst, _Mylast);
; 1765 :             _Getal().deallocate(_Myfirst, static_cast<size_type>(_Myend - _Myfirst));

  00058	8b 4e 0c	 mov	 ecx, DWORD PTR [esi+12]
  0005b	2b c8		 sub	 ecx, eax
; File C:\Program Files (x86)\Microsoft Visual Studio\2019\Professional\VC\Tools\MSVC\14.29.30133\include\xmemory

; 835  :         _Deallocate<_New_alignof<_Ty>>(_Ptr, sizeof(_Ty) * _Count);

  0005d	83 e1 fc	 and	 ecx, -4			; fffffffcH

; 260  :         if (_Bytes >= _Big_allocation_threshold) { // boost the alignment of big allocations to help autovectorization

  00060	81 f9 00 10 00
	00		 cmp	 ecx, 4096		; 00001000H
  00066	72 12		 jb	 SHORT $LN47@CDynamicPo

; 158  :     const uintptr_t _Ptr_container   = _Ptr_user[-1];

  00068	8b 50 fc	 mov	 edx, DWORD PTR [eax-4]
  0006b	83 c1 23	 add	 ecx, 35			; 00000023H

; 159  : 
; 160  :     // If the following asserts, it likely means that we are performing
; 161  :     // an aligned delete on memory coming from an unaligned allocation.
; 162  :     _STL_ASSERT(_Ptr_user[-2] == _Big_allocation_sentinel, "invalid argument");
; 163  : 
; 164  :     // Extra paranoia on aligned allocation/deallocation; ensure _Ptr_container is
; 165  :     // in range [_Min_back_shift, _Non_user_size]
; 166  : #ifdef _DEBUG
; 167  :     constexpr uintptr_t _Min_back_shift = 2 * sizeof(void*);
; 168  : #else // ^^^ _DEBUG ^^^ // vvv !_DEBUG vvv
; 169  :     constexpr uintptr_t _Min_back_shift = sizeof(void*);
; 170  : #endif // _DEBUG
; 171  :     const uintptr_t _Back_shift = reinterpret_cast<uintptr_t>(_Ptr) - _Ptr_container;

  0006e	2b c2		 sub	 eax, edx

; 172  :     _STL_VERIFY(_Back_shift >= _Min_back_shift && _Back_shift <= _Non_user_size, "invalid argument");

  00070	83 c0 fc	 add	 eax, -4			; fffffffcH
  00073	83 f8 1f	 cmp	 eax, 31			; 0000001fH
  00076	77 23		 ja	 SHORT $LN44@CDynamicPo

; 173  :     _Ptr = reinterpret_cast<void*>(_Ptr_container);

  00078	8b c2		 mov	 eax, edx
$LN47@CDynamicPo:

; 264  :         ::operator delete(_Ptr, _Bytes);

  0007a	51		 push	 ecx
  0007b	50		 push	 eax
  0007c	e8 00 00 00 00	 call	 ??3@YAXPAXI@Z		; operator delete
; File C:\Program Files (x86)\Microsoft Visual Studio\2019\Professional\VC\Tools\MSVC\14.29.30133\include\vector

; 1767 :             _Myfirst = nullptr;

  00081	c7 46 04 00 00
	00 00		 mov	 DWORD PTR [esi+4], 0
; File C:\Program Files (x86)\Microsoft Visual Studio\2019\Professional\VC\Tools\MSVC\14.29.30133\include\xmemory

; 264  :         ::operator delete(_Ptr, _Bytes);

  00088	83 c4 08	 add	 esp, 8
; File C:\Program Files (x86)\Microsoft Visual Studio\2019\Professional\VC\Tools\MSVC\14.29.30133\include\vector

; 1768 :             _Mylast  = nullptr;

  0008b	c7 46 08 00 00
	00 00		 mov	 DWORD PTR [esi+8], 0

; 1769 :             _Myend   = nullptr;

  00092	c7 46 0c 00 00
	00 00		 mov	 DWORD PTR [esi+12], 0
$LN31@CDynamicPo:
  00099	5e		 pop	 esi
; File C:\Users\murat\Desktop\Siveps2-1-99-Project\source\client\Client\EterLib\Pool.h

; 26   : 		}

  0009a	c3		 ret	 0
$LN44@CDynamicPo:
; File C:\Program Files (x86)\Microsoft Visual Studio\2019\Professional\VC\Tools\MSVC\14.29.30133\include\xmemory

; 172  :     _STL_VERIFY(_Back_shift >= _Min_back_shift && _Back_shift <= _Non_user_size, "invalid argument");

  0009b	e8 00 00 00 00	 call	 __invalid_parameter_noinfo_noreturn
$LN52@CDynamicPo:
  000a0	cc		 int	 3
??1?$CDynamicPool@VCGraphicExpandedImageInstance@@@@UAE@XZ ENDP ; CDynamicPool<CGraphicExpandedImageInstance>::~CDynamicPool<CGraphicExpandedImageInstance>
_TEXT	ENDS
; Function compile flags: /Ogtp
;	COMDAT ??_GCGraphicExpandedImageInstance@@UAEPAXI@Z
_TEXT	SEGMENT
___flags$ = 8						; size = 4
??_GCGraphicExpandedImageInstance@@UAEPAXI@Z PROC	; CGraphicExpandedImageInstance::`scalar deleting destructor', COMDAT
; _this$ = ecx
  00000	55		 push	 ebp
  00001	8b ec		 mov	 ebp, esp
  00003	56		 push	 esi
  00004	8b f1		 mov	 esi, ecx
  00006	e8 00 00 00 00	 call	 ??1CGraphicExpandedImageInstance@@UAE@XZ ; CGraphicExpandedImageInstance::~CGraphicExpandedImageInstance
  0000b	f6 45 08 01	 test	 BYTE PTR ___flags$[ebp], 1
  0000f	74 0b		 je	 SHORT $LN4@scalar
  00011	6a 4c		 push	 76			; 0000004cH
  00013	56		 push	 esi
  00014	e8 00 00 00 00	 call	 ??3@YAXPAXI@Z		; operator delete
  00019	83 c4 08	 add	 esp, 8
$LN4@scalar:
  0001c	8b c6		 mov	 eax, esi
  0001e	5e		 pop	 esi
  0001f	5d		 pop	 ebp
  00020	c2 04 00	 ret	 4
??_GCGraphicExpandedImageInstance@@UAEPAXI@Z ENDP	; CGraphicExpandedImageInstance::`scalar deleting destructor'
_TEXT	ENDS
; Function compile flags: /Ogtp
; File C:\Users\murat\Desktop\Siveps2-1-99-Project\source\client\Client\EterLib\GrpExpandedImageInstance.cpp
; File C:\Program Files (x86)\Microsoft Visual Studio\2019\Professional\VC\Tools\MSVC\14.29.30133\include\vector
; File C:\Users\murat\Desktop\Siveps2-1-99-Project\source\client\Client\EterLib\GrpExpandedImageInstance.cpp
; File C:\Program Files (x86)\Microsoft Visual Studio\2019\Professional\VC\Tools\MSVC\14.29.30133\include\vector
; File C:\Users\murat\Desktop\Siveps2-1-99-Project\source\client\Client\EterLib\GrpExpandedImageInstance.cpp
; File C:\Program Files (x86)\Microsoft Visual Studio\2019\Professional\VC\Tools\MSVC\14.29.30133\include\vector
; File C:\Users\murat\Desktop\Siveps2-1-99-Project\source\client\Client\EterLib\GrpExpandedImageInstance.cpp
;	COMDAT ?Delete@CGraphicExpandedImageInstance@@SAXPAV1@@Z
_TEXT	SEGMENT
_pkData$ = 8						; size = 4
_pkImgInst$ = 8						; size = 4
?Delete@CGraphicExpandedImageInstance@@SAXPAV1@@Z PROC	; CGraphicExpandedImageInstance::Delete, COMDAT

; 181  : {

  00000	55		 push	 ebp
  00001	8b ec		 mov	 ebp, esp
  00003	56		 push	 esi

; 182  : 	pkImgInst->Destroy();

  00004	8b 75 08	 mov	 esi, DWORD PTR _pkImgInst$[ebp]
  00007	8b ce		 mov	 ecx, esi
  00009	e8 00 00 00 00	 call	 ?Destroy@CGraphicExpandedImageInstance@@QAEXXZ ; CGraphicExpandedImageInstance::Destroy
; File C:\Program Files (x86)\Microsoft Visual Studio\2019\Professional\VC\Tools\MSVC\14.29.30133\include\vector

; 743  :         if (_Mylast != _My_data._Myend) {

  0000e	a1 14 00 00 00	 mov	 eax, DWORD PTR ?ms_kPool@CGraphicExpandedImageInstance@@2V?$CDynamicPool@VCGraphicExpandedImageInstance@@@@A+20
; File C:\Users\murat\Desktop\Siveps2-1-99-Project\source\client\Client\EterLib\GrpExpandedImageInstance.cpp

; 183  : 	ms_kPool.Free(pkImgInst);

  00013	89 75 08	 mov	 DWORD PTR _pkData$[ebp], esi
; File C:\Program Files (x86)\Microsoft Visual Studio\2019\Professional\VC\Tools\MSVC\14.29.30133\include\vector

; 743  :         if (_Mylast != _My_data._Myend) {

  00016	3b 05 18 00 00
	00		 cmp	 eax, DWORD PTR ?ms_kPool@CGraphicExpandedImageInstance@@2V?$CDynamicPool@VCGraphicExpandedImageInstance@@@@A+24
  0001c	74 0c		 je	 SHORT $LN8@Delete

; 726  :         _Alty_traits::construct(_Getal(), _Unfancy(_Mylast), _STD forward<_Valty>(_Val)...);

  0001e	89 30		 mov	 DWORD PTR [eax], esi

; 727  :         _Orphan_range(_Mylast, _Mylast);
; 728  :         _Ty& _Result = *_Mylast;
; 729  :         ++_Mylast;

  00020	83 05 14 00 00
	00 04		 add	 DWORD PTR ?ms_kPool@CGraphicExpandedImageInstance@@2V?$CDynamicPool@VCGraphicExpandedImageInstance@@@@A+20, 4
  00027	5e		 pop	 esi
; File C:\Users\murat\Desktop\Siveps2-1-99-Project\source\client\Client\EterLib\GrpExpandedImageInstance.cpp

; 184  : }

  00028	5d		 pop	 ebp
  00029	c3		 ret	 0
$LN8@Delete:
; File C:\Program Files (x86)\Microsoft Visual Studio\2019\Professional\VC\Tools\MSVC\14.29.30133\include\vector

; 747  :         _Ty& _Result = *_Emplace_reallocate(_Mylast, _STD forward<_Valty>(_Val)...);

  0002a	8d 4d 08	 lea	 ecx, DWORD PTR _pkData$[ebp]
  0002d	51		 push	 ecx
  0002e	50		 push	 eax
  0002f	b9 10 00 00 00	 mov	 ecx, OFFSET ?ms_kPool@CGraphicExpandedImageInstance@@2V?$CDynamicPool@VCGraphicExpandedImageInstance@@@@A+16
  00034	e8 00 00 00 00	 call	 ??$_Emplace_reallocate@ABQAVCGraphicExpandedImageInstance@@@?$vector@PAVCGraphicExpandedImageInstance@@V?$allocator@PAVCGraphicExpandedImageInstance@@@std@@@std@@QAEPAPAVCGraphicExpandedImageInstance@@QAPAV2@ABQAV2@@Z ; std::vector<CGraphicExpandedImageInstance *,std::allocator<CGraphicExpandedImageInstance *> >::_Emplace_reallocate<CGraphicExpandedImageInstance * const &>
  00039	5e		 pop	 esi
; File C:\Users\murat\Desktop\Siveps2-1-99-Project\source\client\Client\EterLib\GrpExpandedImageInstance.cpp

; 184  : }

  0003a	5d		 pop	 ebp
  0003b	c3		 ret	 0
?Delete@CGraphicExpandedImageInstance@@SAXPAV1@@Z ENDP	; CGraphicExpandedImageInstance::Delete
_TEXT	ENDS
; Function compile flags: /Ogtp
; File C:\Users\murat\Desktop\Siveps2-1-99-Project\source\client\Client\EterLib\GrpExpandedImageInstance.cpp
; File C:\Users\murat\Desktop\Siveps2-1-99-Project\source\client\Client\EterLib\Pool.h
; File C:\Program Files (x86)\Microsoft Visual Studio\2019\Professional\VC\Tools\MSVC\14.29.30133\include\vector
; File C:\Users\murat\Desktop\Siveps2-1-99-Project\source\client\Client\EterLib\Pool.h
; File C:\Program Files (x86)\Microsoft Visual Studio\2019\Professional\VC\Tools\MSVC\14.29.30133\include\vector
; File C:\Users\murat\Desktop\Siveps2-1-99-Project\source\client\Client\EterLib\GrpExpandedImageInstance.cpp
; File C:\Program Files (x86)\Microsoft Visual Studio\2019\Professional\VC\Tools\MSVC\14.29.30133\include\vector
; File C:\Users\murat\Desktop\Siveps2-1-99-Project\source\client\Client\EterLib\Pool.h
; File C:\Users\murat\Desktop\Siveps2-1-99-Project\source\client\Client\EterLib\GrpExpandedImageInstance.cpp
; File C:\Program Files (x86)\Microsoft Visual Studio\2019\Professional\VC\Tools\MSVC\14.29.30133\include\vector
; File C:\Users\murat\Desktop\Siveps2-1-99-Project\source\client\Client\EterLib\Pool.h
; File C:\Users\murat\Desktop\Siveps2-1-99-Project\source\client\Client\EterLib\GrpExpandedImageInstance.cpp
; File C:\Users\murat\Desktop\Siveps2-1-99-Project\source\client\Client\EterLib\Pool.h
; File C:\Program Files (x86)\Microsoft Visual Studio\2019\Professional\VC\Tools\MSVC\14.29.30133\include\vector
; File C:\Users\murat\Desktop\Siveps2-1-99-Project\source\client\Client\EterLib\GrpExpandedImageInstance.cpp
;	COMDAT ?New@CGraphicExpandedImageInstance@@SAPAV1@XZ
_TEXT	SEGMENT
$T2 = -16						; size = 4
_pkNewData$3 = -16					; size = 4
__$EHRec$ = -12						; size = 12
?New@CGraphicExpandedImageInstance@@SAPAV1@XZ PROC	; CGraphicExpandedImageInstance::New, COMDAT

; 176  : {

  00000	55		 push	 ebp
  00001	8b ec		 mov	 ebp, esp
  00003	6a ff		 push	 -1
  00005	68 00 00 00 00	 push	 __ehhandler$?New@CGraphicExpandedImageInstance@@SAPAV1@XZ
  0000a	64 a1 00 00 00
	00		 mov	 eax, DWORD PTR fs:0
  00010	50		 push	 eax
  00011	51		 push	 ecx
  00012	56		 push	 esi
  00013	a1 00 00 00 00	 mov	 eax, DWORD PTR ___security_cookie
  00018	33 c5		 xor	 eax, ebp
  0001a	50		 push	 eax
  0001b	8d 45 f4	 lea	 eax, DWORD PTR __$EHRec$[ebp]
  0001e	64 a3 00 00 00
	00		 mov	 DWORD PTR fs:0, eax
; File C:\Users\murat\Desktop\Siveps2-1-99-Project\source\client\Client\EterLib\Pool.h

; 63   : 			if (m_kVct_pkFree.empty())

  00024	8b 0d 14 00 00
	00		 mov	 ecx, DWORD PTR ?ms_kPool@CGraphicExpandedImageInstance@@2V?$CDynamicPool@VCGraphicExpandedImageInstance@@@@A+20
  0002a	39 0d 10 00 00
	00		 cmp	 DWORD PTR ?ms_kPool@CGraphicExpandedImageInstance@@2V?$CDynamicPool@VCGraphicExpandedImageInstance@@@@A+16, ecx
  00030	0f 85 84 00 00
	00		 jne	 $LN4@New

; 65   : 				T* pkNewData=new T;

  00036	6a 4c		 push	 76			; 0000004cH
  00038	e8 00 00 00 00	 call	 ??2@YAPAXI@Z		; operator new
  0003d	83 c4 04	 add	 esp, 4
  00040	89 45 f0	 mov	 DWORD PTR $T2[ebp], eax
  00043	c7 45 fc 00 00
	00 00		 mov	 DWORD PTR __$EHRec$[ebp+8], 0
  0004a	85 c0		 test	 eax, eax
  0004c	74 0b		 je	 SHORT $LN6@New
  0004e	8b c8		 mov	 ecx, eax
  00050	e8 00 00 00 00	 call	 ??0CGraphicExpandedImageInstance@@QAE@XZ ; CGraphicExpandedImageInstance::CGraphicExpandedImageInstance
  00055	8b f0		 mov	 esi, eax
  00057	eb 02		 jmp	 SHORT $LN7@New
$LN6@New:
  00059	33 f6		 xor	 esi, esi
$LN7@New:
; File C:\Program Files (x86)\Microsoft Visual Studio\2019\Professional\VC\Tools\MSVC\14.29.30133\include\vector

; 743  :         if (_Mylast != _My_data._Myend) {

  0005b	a1 08 00 00 00	 mov	 eax, DWORD PTR ?ms_kPool@CGraphicExpandedImageInstance@@2V?$CDynamicPool@VCGraphicExpandedImageInstance@@@@A+8
; File C:\Users\murat\Desktop\Siveps2-1-99-Project\source\client\Client\EterLib\Pool.h

; 65   : 				T* pkNewData=new T;

  00060	c7 45 fc ff ff
	ff ff		 mov	 DWORD PTR __$EHRec$[ebp+8], -1
  00067	89 75 f0	 mov	 DWORD PTR _pkNewData$3[ebp], esi
; File C:\Program Files (x86)\Microsoft Visual Studio\2019\Professional\VC\Tools\MSVC\14.29.30133\include\vector

; 743  :         if (_Mylast != _My_data._Myend) {

  0006a	3b 05 0c 00 00
	00		 cmp	 eax, DWORD PTR ?ms_kPool@CGraphicExpandedImageInstance@@2V?$CDynamicPool@VCGraphicExpandedImageInstance@@@@A+12
  00070	74 21		 je	 SHORT $LN14@New

; 726  :         _Alty_traits::construct(_Getal(), _Unfancy(_Mylast), _STD forward<_Valty>(_Val)...);

  00072	89 30		 mov	 DWORD PTR [eax], esi
; File C:\Users\murat\Desktop\Siveps2-1-99-Project\source\client\Client\EterLib\GrpExpandedImageInstance.cpp

; 177  : 	return ms_kPool.Alloc();

  00074	8b c6		 mov	 eax, esi
; File C:\Program Files (x86)\Microsoft Visual Studio\2019\Professional\VC\Tools\MSVC\14.29.30133\include\vector

; 729  :         ++_Mylast;

  00076	83 05 08 00 00
	00 04		 add	 DWORD PTR ?ms_kPool@CGraphicExpandedImageInstance@@2V?$CDynamicPool@VCGraphicExpandedImageInstance@@@@A+8, 4
; File C:\Users\murat\Desktop\Siveps2-1-99-Project\source\client\Client\EterLib\Pool.h

; 67   : 				++m_uUsedCapacity;

  0007d	ff 05 20 00 00
	00		 inc	 DWORD PTR ?ms_kPool@CGraphicExpandedImageInstance@@2V?$CDynamicPool@VCGraphicExpandedImageInstance@@@@A+32
; File C:\Users\murat\Desktop\Siveps2-1-99-Project\source\client\Client\EterLib\GrpExpandedImageInstance.cpp

; 178  : }

  00083	8b 4d f4	 mov	 ecx, DWORD PTR __$EHRec$[ebp]
  00086	64 89 0d 00 00
	00 00		 mov	 DWORD PTR fs:0, ecx
  0008d	59		 pop	 ecx
  0008e	5e		 pop	 esi
  0008f	8b e5		 mov	 esp, ebp
  00091	5d		 pop	 ebp
  00092	c3		 ret	 0
$LN14@New:
; File C:\Program Files (x86)\Microsoft Visual Studio\2019\Professional\VC\Tools\MSVC\14.29.30133\include\vector

; 747  :         _Ty& _Result = *_Emplace_reallocate(_Mylast, _STD forward<_Valty>(_Val)...);

  00093	8d 4d f0	 lea	 ecx, DWORD PTR _pkNewData$3[ebp]
  00096	51		 push	 ecx
  00097	50		 push	 eax
  00098	b9 04 00 00 00	 mov	 ecx, OFFSET ?ms_kPool@CGraphicExpandedImageInstance@@2V?$CDynamicPool@VCGraphicExpandedImageInstance@@@@A+4
  0009d	e8 00 00 00 00	 call	 ??$_Emplace_reallocate@ABQAVCGraphicExpandedImageInstance@@@?$vector@PAVCGraphicExpandedImageInstance@@V?$allocator@PAVCGraphicExpandedImageInstance@@@std@@@std@@QAEPAPAVCGraphicExpandedImageInstance@@QAPAV2@ABQAV2@@Z ; std::vector<CGraphicExpandedImageInstance *,std::allocator<CGraphicExpandedImageInstance *> >::_Emplace_reallocate<CGraphicExpandedImageInstance * const &>
; File C:\Users\murat\Desktop\Siveps2-1-99-Project\source\client\Client\EterLib\Pool.h

; 67   : 				++m_uUsedCapacity;

  000a2	ff 05 20 00 00
	00		 inc	 DWORD PTR ?ms_kPool@CGraphicExpandedImageInstance@@2V?$CDynamicPool@VCGraphicExpandedImageInstance@@@@A+32
; File C:\Users\murat\Desktop\Siveps2-1-99-Project\source\client\Client\EterLib\GrpExpandedImageInstance.cpp

; 177  : 	return ms_kPool.Alloc();

  000a8	8b c6		 mov	 eax, esi

; 178  : }

  000aa	8b 4d f4	 mov	 ecx, DWORD PTR __$EHRec$[ebp]
  000ad	64 89 0d 00 00
	00 00		 mov	 DWORD PTR fs:0, ecx
  000b4	59		 pop	 ecx
  000b5	5e		 pop	 esi
  000b6	8b e5		 mov	 esp, ebp
  000b8	5d		 pop	 ebp
  000b9	c3		 ret	 0
$LN4@New:
; File C:\Users\murat\Desktop\Siveps2-1-99-Project\source\client\Client\EterLib\Pool.h

; 71   : 			T* pkFreeData=m_kVct_pkFree.back();

  000ba	8b 41 fc	 mov	 eax, DWORD PTR [ecx-4]
; File C:\Program Files (x86)\Microsoft Visual Studio\2019\Professional\VC\Tools\MSVC\14.29.30133\include\vector

; 1624 :         return _My_data._Mylast[-1];

  000bd	83 c1 fc	 add	 ecx, -4			; fffffffcH

; 1403 :         --_Mylast;

  000c0	89 0d 14 00 00
	00		 mov	 DWORD PTR ?ms_kPool@CGraphicExpandedImageInstance@@2V?$CDynamicPool@VCGraphicExpandedImageInstance@@@@A+20, ecx
; File C:\Users\murat\Desktop\Siveps2-1-99-Project\source\client\Client\EterLib\GrpExpandedImageInstance.cpp

; 178  : }

  000c6	8b 4d f4	 mov	 ecx, DWORD PTR __$EHRec$[ebp]
  000c9	64 89 0d 00 00
	00 00		 mov	 DWORD PTR fs:0, ecx
  000d0	59		 pop	 ecx
  000d1	5e		 pop	 esi
  000d2	8b e5		 mov	 esp, ebp
  000d4	5d		 pop	 ebp
  000d5	c3		 ret	 0
_TEXT	ENDS
;	COMDAT text$x
text$x	SEGMENT
__unwindfunclet$?New@CGraphicExpandedImageInstance@@SAPAV1@XZ$0:
  00000	6a 4c		 push	 76			; 0000004cH
  00002	8b 45 f0	 mov	 eax, DWORD PTR $T2[ebp]
  00005	50		 push	 eax
  00006	e8 00 00 00 00	 call	 ??3@YAXPAXI@Z		; operator delete
  0000b	83 c4 08	 add	 esp, 8
  0000e	c3		 ret	 0
  0000f	cc		 int	 3
  00010	cc		 int	 3
  00011	cc		 int	 3
  00012	cc		 int	 3
  00013	cc		 int	 3
__ehhandler$?New@CGraphicExpandedImageInstance@@SAPAV1@XZ:
  00014	90		 npad	 1
  00015	90		 npad	 1
  00016	8b 54 24 08	 mov	 edx, DWORD PTR [esp+8]
  0001a	8d 42 0c	 lea	 eax, DWORD PTR [edx+12]
  0001d	8b 4a f4	 mov	 ecx, DWORD PTR [edx-12]
  00020	33 c8		 xor	 ecx, eax
  00022	e8 00 00 00 00	 call	 @__security_check_cookie@4
  00027	b8 00 00 00 00	 mov	 eax, OFFSET __ehfuncinfo$?New@CGraphicExpandedImageInstance@@SAPAV1@XZ
  0002c	e9 00 00 00 00	 jmp	 ___CxxFrameHandler3
text$x	ENDS
?New@CGraphicExpandedImageInstance@@SAPAV1@XZ ENDP	; CGraphicExpandedImageInstance::New
; Function compile flags: /Ogtp
; File C:\Users\murat\Desktop\Siveps2-1-99-Project\source\client\Client\EterLib\GrpExpandedImageInstance.cpp
; File C:\Program Files (x86)\Microsoft Visual Studio\2019\Professional\VC\Tools\MSVC\14.29.30133\include\algorithm
; File C:\Users\murat\Desktop\Siveps2-1-99-Project\source\client\Client\EterLib\GrpExpandedImageInstance.cpp
; File C:\Program Files (x86)\Microsoft Visual Studio\2019\Professional\VC\Tools\MSVC\14.29.30133\include\algorithm
; File C:\Users\murat\Desktop\Siveps2-1-99-Project\source\client\Client\EterLib\Pool.h
; File C:\Program Files (x86)\Microsoft Visual Studio\2019\Professional\VC\Tools\MSVC\14.29.30133\include\algorithm
; File C:\Users\murat\Desktop\Siveps2-1-99-Project\source\client\Client\EterLib\Pool.h
; File C:\Users\murat\Desktop\Siveps2-1-99-Project\source\client\Client\EterLib\GrpExpandedImageInstance.cpp
; File C:\Users\murat\Desktop\Siveps2-1-99-Project\source\client\Client\EterLib\Pool.h
; File C:\Users\murat\Desktop\Siveps2-1-99-Project\source\client\Client\EterLib\GrpExpandedImageInstance.cpp
;	COMDAT ?DestroySystem@CGraphicExpandedImageInstance@@SAXXZ
_TEXT	SEGMENT
?DestroySystem@CGraphicExpandedImageInstance@@SAXXZ PROC ; CGraphicExpandedImageInstance::DestroySystem, COMDAT

; 171  : {

  00000	56		 push	 esi
; File C:\Program Files (x86)\Microsoft Visual Studio\2019\Professional\VC\Tools\MSVC\14.29.30133\include\algorithm

; 270  :     for (; _UFirst != _ULast; ++_UFirst) {

  00001	8b 35 04 00 00
	00		 mov	 esi, DWORD PTR ?ms_kPool@CGraphicExpandedImageInstance@@2V?$CDynamicPool@VCGraphicExpandedImageInstance@@@@A+4
; File C:\Users\murat\Desktop\Siveps2-1-99-Project\source\client\Client\EterLib\GrpExpandedImageInstance.cpp

; 171  : {

  00007	57		 push	 edi
; File C:\Program Files (x86)\Microsoft Visual Studio\2019\Professional\VC\Tools\MSVC\14.29.30133\include\algorithm

; 269  :     const auto _ULast = _Get_unwrapped(_Last);

  00008	8b 3d 08 00 00
	00		 mov	 edi, DWORD PTR ?ms_kPool@CGraphicExpandedImageInstance@@2V?$CDynamicPool@VCGraphicExpandedImageInstance@@@@A+8

; 270  :     for (; _UFirst != _ULast; ++_UFirst) {

  0000e	3b f7		 cmp	 esi, edi
  00010	74 2a		 je	 SHORT $LN30@DestroySys
$LL20@DestroySys:
; File C:\Users\murat\Desktop\Siveps2-1-99-Project\source\client\Client\EterLib\Pool.h

; 110  : 			delete pkData;

  00012	8b 0e		 mov	 ecx, DWORD PTR [esi]
  00014	85 c9		 test	 ecx, ecx
  00016	74 06		 je	 SHORT $LN18@DestroySys
  00018	8b 01		 mov	 eax, DWORD PTR [ecx]
  0001a	6a 01		 push	 1
  0001c	ff 10		 call	 DWORD PTR [eax]
$LN18@DestroySys:
; File C:\Program Files (x86)\Microsoft Visual Studio\2019\Professional\VC\Tools\MSVC\14.29.30133\include\algorithm

; 270  :     for (; _UFirst != _ULast; ++_UFirst) {

  0001e	83 c6 04	 add	 esi, 4
  00021	3b f7		 cmp	 esi, edi
  00023	75 ed		 jne	 SHORT $LL20@DestroySys
; File C:\Users\murat\Desktop\Siveps2-1-99-Project\source\client\Client\EterLib\Pool.h

; 51   : 			m_kVct_pkData.clear();

  00025	a1 04 00 00 00	 mov	 eax, DWORD PTR ?ms_kPool@CGraphicExpandedImageInstance@@2V?$CDynamicPool@VCGraphicExpandedImageInstance@@@@A+4
  0002a	a3 08 00 00 00	 mov	 DWORD PTR ?ms_kPool@CGraphicExpandedImageInstance@@2V?$CDynamicPool@VCGraphicExpandedImageInstance@@@@A+8, eax
; File C:\Users\murat\Desktop\Siveps2-1-99-Project\source\client\Client\EterLib\GrpExpandedImageInstance.cpp

; 173  : }

  0002f	a1 10 00 00 00	 mov	 eax, DWORD PTR ?ms_kPool@CGraphicExpandedImageInstance@@2V?$CDynamicPool@VCGraphicExpandedImageInstance@@@@A+16
  00034	5f		 pop	 edi
  00035	a3 14 00 00 00	 mov	 DWORD PTR ?ms_kPool@CGraphicExpandedImageInstance@@2V?$CDynamicPool@VCGraphicExpandedImageInstance@@@@A+20, eax
  0003a	5e		 pop	 esi
  0003b	c3		 ret	 0
$LN30@DestroySys:
  0003c	a1 10 00 00 00	 mov	 eax, DWORD PTR ?ms_kPool@CGraphicExpandedImageInstance@@2V?$CDynamicPool@VCGraphicExpandedImageInstance@@@@A+16
  00041	5f		 pop	 edi
; File C:\Users\murat\Desktop\Siveps2-1-99-Project\source\client\Client\EterLib\Pool.h

; 51   : 			m_kVct_pkData.clear();

  00042	89 35 08 00 00
	00		 mov	 DWORD PTR ?ms_kPool@CGraphicExpandedImageInstance@@2V?$CDynamicPool@VCGraphicExpandedImageInstance@@@@A+8, esi
; File C:\Users\murat\Desktop\Siveps2-1-99-Project\source\client\Client\EterLib\GrpExpandedImageInstance.cpp

; 173  : }

  00048	a3 14 00 00 00	 mov	 DWORD PTR ?ms_kPool@CGraphicExpandedImageInstance@@2V?$CDynamicPool@VCGraphicExpandedImageInstance@@@@A+20, eax
  0004d	5e		 pop	 esi
  0004e	c3		 ret	 0
?DestroySystem@CGraphicExpandedImageInstance@@SAXXZ ENDP ; CGraphicExpandedImageInstance::DestroySystem
_TEXT	ENDS
; Function compile flags: /Ogtp
; File C:\Users\murat\Desktop\Siveps2-1-99-Project\source\client\Client\EterLib\GrpExpandedImageInstance.cpp
; File C:\Program Files (x86)\Microsoft Visual Studio\2019\Professional\VC\Tools\MSVC\14.29.30133\include\vector
; File C:\Users\murat\Desktop\Siveps2-1-99-Project\source\client\Client\EterLib\GrpExpandedImageInstance.cpp
; File C:\Users\murat\Desktop\Siveps2-1-99-Project\source\client\Client\EterLib\Pool.h
; File C:\Program Files (x86)\Microsoft Visual Studio\2019\Professional\VC\Tools\MSVC\14.29.30133\include\vector
; File C:\Users\murat\Desktop\Siveps2-1-99-Project\source\client\Client\EterLib\Pool.h
; File C:\Program Files (x86)\Microsoft Visual Studio\2019\Professional\VC\Tools\MSVC\14.29.30133\include\vector
; File C:\Users\murat\Desktop\Siveps2-1-99-Project\source\client\Client\EterLib\GrpExpandedImageInstance.cpp
; File C:\Program Files (x86)\Microsoft Visual Studio\2019\Professional\VC\Tools\MSVC\14.29.30133\include\vector
; File C:\Users\murat\Desktop\Siveps2-1-99-Project\source\client\Client\EterLib\GrpExpandedImageInstance.cpp
;	COMDAT ?CreateSystem@CGraphicExpandedImageInstance@@SAXI@Z
_TEXT	SEGMENT
_uCapacity$ = 8						; size = 4
?CreateSystem@CGraphicExpandedImageInstance@@SAXI@Z PROC ; CGraphicExpandedImageInstance::CreateSystem, COMDAT

; 9    : {

  00000	55		 push	 ebp
  00001	8b ec		 mov	 ebp, esp
; File C:\Program Files (x86)\Microsoft Visual Studio\2019\Professional\VC\Tools\MSVC\14.29.30133\include\vector

; 1559 :         return static_cast<size_type>(_My_data._Myend - _My_data._Myfirst);

  00003	a1 0c 00 00 00	 mov	 eax, DWORD PTR ?ms_kPool@CGraphicExpandedImageInstance@@2V?$CDynamicPool@VCGraphicExpandedImageInstance@@@@A+12
  00008	2b 05 04 00 00
	00		 sub	 eax, DWORD PTR ?ms_kPool@CGraphicExpandedImageInstance@@2V?$CDynamicPool@VCGraphicExpandedImageInstance@@@@A+4
; File C:\Users\murat\Desktop\Siveps2-1-99-Project\source\client\Client\EterLib\GrpExpandedImageInstance.cpp

; 9    : {

  0000e	56		 push	 esi
; File C:\Users\murat\Desktop\Siveps2-1-99-Project\source\client\Client\EterLib\Pool.h

; 57   : 			m_uInitCapacity=uCapacity;

  0000f	8b 75 08	 mov	 esi, DWORD PTR _uCapacity$[ebp]
; File C:\Program Files (x86)\Microsoft Visual Studio\2019\Professional\VC\Tools\MSVC\14.29.30133\include\vector

; 1559 :         return static_cast<size_type>(_My_data._Myend - _My_data._Myfirst);

  00012	c1 f8 02	 sar	 eax, 2
; File C:\Users\murat\Desktop\Siveps2-1-99-Project\source\client\Client\EterLib\Pool.h

; 57   : 			m_uInitCapacity=uCapacity;

  00015	89 35 1c 00 00
	00		 mov	 DWORD PTR ?ms_kPool@CGraphicExpandedImageInstance@@2V?$CDynamicPool@VCGraphicExpandedImageInstance@@@@A+28, esi
; File C:\Program Files (x86)\Microsoft Visual Studio\2019\Professional\VC\Tools\MSVC\14.29.30133\include\vector

; 1371 :         if (_Newcapacity > capacity()) { // something to do (reserve() never shrinks)

  0001b	3b f0		 cmp	 esi, eax
  0001d	76 13		 jbe	 SHORT $LN6@CreateSyst

; 1372 :             if (_Newcapacity > max_size()) {

  0001f	81 fe ff ff ff
	3f		 cmp	 esi, 1073741823		; 3fffffffH
  00025	77 33		 ja	 SHORT $LN19@CreateSyst

; 1374 :             }
; 1375 : 
; 1376 :             _Reallocate_exactly(_Newcapacity);

  00027	56		 push	 esi
  00028	b9 04 00 00 00	 mov	 ecx, OFFSET ?ms_kPool@CGraphicExpandedImageInstance@@2V?$CDynamicPool@VCGraphicExpandedImageInstance@@@@A+4
  0002d	e8 00 00 00 00	 call	 ?_Reallocate_exactly@?$vector@PAVCGraphicExpandedImageInstance@@V?$allocator@PAVCGraphicExpandedImageInstance@@@std@@@std@@AAEXI@Z ; std::vector<CGraphicExpandedImageInstance *,std::allocator<CGraphicExpandedImageInstance *> >::_Reallocate_exactly
$LN6@CreateSyst:

; 1559 :         return static_cast<size_type>(_My_data._Myend - _My_data._Myfirst);

  00032	a1 18 00 00 00	 mov	 eax, DWORD PTR ?ms_kPool@CGraphicExpandedImageInstance@@2V?$CDynamicPool@VCGraphicExpandedImageInstance@@@@A+24
  00037	2b 05 10 00 00
	00		 sub	 eax, DWORD PTR ?ms_kPool@CGraphicExpandedImageInstance@@2V?$CDynamicPool@VCGraphicExpandedImageInstance@@@@A+16
  0003d	c1 f8 02	 sar	 eax, 2

; 1371 :         if (_Newcapacity > capacity()) { // something to do (reserve() never shrinks)

  00040	3b f0		 cmp	 esi, eax
  00042	76 13		 jbe	 SHORT $LN13@CreateSyst

; 1372 :             if (_Newcapacity > max_size()) {

  00044	81 fe ff ff ff
	3f		 cmp	 esi, 1073741823		; 3fffffffH
  0004a	77 0e		 ja	 SHORT $LN19@CreateSyst

; 1374 :             }
; 1375 : 
; 1376 :             _Reallocate_exactly(_Newcapacity);

  0004c	56		 push	 esi
  0004d	b9 10 00 00 00	 mov	 ecx, OFFSET ?ms_kPool@CGraphicExpandedImageInstance@@2V?$CDynamicPool@VCGraphicExpandedImageInstance@@@@A+16
  00052	e8 00 00 00 00	 call	 ?_Reallocate_exactly@?$vector@PAVCGraphicExpandedImageInstance@@V?$allocator@PAVCGraphicExpandedImageInstance@@@std@@@std@@AAEXI@Z ; std::vector<CGraphicExpandedImageInstance *,std::allocator<CGraphicExpandedImageInstance *> >::_Reallocate_exactly
$LN13@CreateSyst:
  00057	5e		 pop	 esi
; File C:\Users\murat\Desktop\Siveps2-1-99-Project\source\client\Client\EterLib\GrpExpandedImageInstance.cpp

; 11   : }

  00058	5d		 pop	 ebp
  00059	c3		 ret	 0
$LN19@CreateSyst:
; File C:\Program Files (x86)\Microsoft Visual Studio\2019\Professional\VC\Tools\MSVC\14.29.30133\include\vector

; 1373 :                 _Xlength();

  0005a	e8 00 00 00 00	 call	 ?_Xlength@?$vector@PAVCGraphicExpandedImageInstance@@V?$allocator@PAVCGraphicExpandedImageInstance@@@std@@@std@@CAXXZ ; std::vector<CGraphicExpandedImageInstance *,std::allocator<CGraphicExpandedImageInstance *> >::_Xlength
$LN20@CreateSyst:
  0005f	cc		 int	 3
?CreateSystem@CGraphicExpandedImageInstance@@SAXI@Z ENDP ; CGraphicExpandedImageInstance::CreateSystem
_TEXT	ENDS
; Function compile flags: /Ogtp
; File C:\Users\murat\Desktop\Siveps2-1-99-Project\source\client\Client\EterLib\GrpExpandedImageInstance.cpp
;	COMDAT ?OnIsType@CGraphicExpandedImageInstance@@MAEHK@Z
_TEXT	SEGMENT
_dwType$ = 8						; size = 4
?OnIsType@CGraphicExpandedImageInstance@@MAEHK@Z PROC	; CGraphicExpandedImageInstance::OnIsType, COMDAT
; _this$ = ecx

; 362  : {

  00000	55		 push	 ebp
  00001	8b ec		 mov	 ebp, esp
  00003	56		 push	 esi
  00004	8b f1		 mov	 esi, ecx

; 363  : 	if (CGraphicExpandedImageInstance::Type() == dwType)

  00006	e8 00 00 00 00	 call	 ?Type@CGraphicExpandedImageInstance@@SAKXZ ; CGraphicExpandedImageInstance::Type
  0000b	8b 55 08	 mov	 edx, DWORD PTR _dwType$[ebp]
  0000e	3b c2		 cmp	 eax, edx
  00010	75 0a		 jne	 SHORT $LN2@OnIsType

; 364  : 		return TRUE;

  00012	b8 01 00 00 00	 mov	 eax, 1
  00017	5e		 pop	 esi

; 367  : }

  00018	5d		 pop	 ebp
  00019	c2 04 00	 ret	 4
$LN2@OnIsType:

; 365  : 
; 366  : 	return CGraphicImageInstance::IsType(dwType);

  0001c	52		 push	 edx
  0001d	8b ce		 mov	 ecx, esi
  0001f	e8 00 00 00 00	 call	 ?IsType@CGraphicImageInstance@@QAEHK@Z ; CGraphicImageInstance::IsType
  00024	5e		 pop	 esi

; 367  : }

  00025	5d		 pop	 ebp
  00026	c2 04 00	 ret	 4
?OnIsType@CGraphicExpandedImageInstance@@MAEHK@Z ENDP	; CGraphicExpandedImageInstance::OnIsType
_TEXT	ENDS
; Function compile flags: /Ogtp
; File C:\Users\murat\Desktop\Siveps2-1-99-Project\source\client\Client\EterLib\GrpExpandedImageInstance.cpp
;	COMDAT ?OnSetImagePointer@CGraphicExpandedImageInstance@@MAEXXZ
_TEXT	SEGMENT
?OnSetImagePointer@CGraphicExpandedImageInstance@@MAEXXZ PROC ; CGraphicExpandedImageInstance::OnSetImagePointer, COMDAT
; _this$ = ecx

; 354  : {

  00000	56		 push	 esi
  00001	8b f1		 mov	 esi, ecx

; 355  : 	if (IsEmpty())

  00003	e8 00 00 00 00	 call	 ?IsEmpty@CGraphicImageInstance@@QBE_NXZ ; CGraphicImageInstance::IsEmpty
  00008	84 c0		 test	 al, al
  0000a	75 3f		 jne	 SHORT $LN1@OnSetImage

; 356  : 		return;
; 357  : 
; 358  : 	SetOrigin(float(GetWidth()) / 2.0f, float(GetHeight()) / 2.0f);

  0000c	8b ce		 mov	 ecx, esi
  0000e	e8 00 00 00 00	 call	 ?GetHeight@CGraphicImageInstance@@QAEHXZ ; CGraphicImageInstance::GetHeight
  00013	51		 push	 ecx
  00014	8b ce		 mov	 ecx, esi
  00016	66 0f 6e c0	 movd	 xmm0, eax
  0001a	0f 5b c0	 cvtdq2ps xmm0, xmm0
  0001d	f3 0f 59 05 00
	00 00 00	 mulss	 xmm0, DWORD PTR __real@3f000000
  00025	f3 0f 11 04 24	 movss	 DWORD PTR [esp], xmm0
  0002a	e8 00 00 00 00	 call	 ?GetWidth@CGraphicImageInstance@@QAEHXZ ; CGraphicImageInstance::GetWidth
  0002f	51		 push	 ecx
  00030	8b ce		 mov	 ecx, esi
  00032	66 0f 6e c0	 movd	 xmm0, eax
  00036	0f 5b c0	 cvtdq2ps xmm0, xmm0
  00039	f3 0f 59 05 00
	00 00 00	 mulss	 xmm0, DWORD PTR __real@3f000000
  00041	f3 0f 11 04 24	 movss	 DWORD PTR [esp], xmm0
  00046	e8 00 00 00 00	 call	 ?SetOrigin@CGraphicExpandedImageInstance@@QAEXMM@Z ; CGraphicExpandedImageInstance::SetOrigin
$LN1@OnSetImage:

; 359  : }

  0004b	5e		 pop	 esi
  0004c	c3		 ret	 0
?OnSetImagePointer@CGraphicExpandedImageInstance@@MAEXXZ ENDP ; CGraphicExpandedImageInstance::OnSetImagePointer
_TEXT	ENDS
; Function compile flags: /Ogtp
; File C:\Users\murat\Desktop\Siveps2-1-99-Project\source\client\Client\EterLib\GrpExpandedImageInstance.cpp
; File C:\Users\murat\Desktop\Siveps2-1-99-Project\source\client\extern\include\d3dx8math.inl
; File C:\Users\murat\Desktop\Siveps2-1-99-Project\source\client\Client\EterLib\GrpExpandedImageInstance.cpp
; File C:\Users\murat\Desktop\Siveps2-1-99-Project\source\client\extern\include\d3dx8math.inl
; File C:\Users\murat\Desktop\Siveps2-1-99-Project\source\client\Client\EterLib\GrpExpandedImageInstance.cpp
; File C:\Users\murat\Desktop\Siveps2-1-99-Project\source\client\extern\include\d3dx8math.inl
; File C:\Users\murat\Desktop\Siveps2-1-99-Project\source\client\Client\EterLib\GrpExpandedImageInstance.cpp
; File C:\Users\murat\Desktop\Siveps2-1-99-Project\source\client\extern\include\d3dx8math.inl
; File C:\Users\murat\Desktop\Siveps2-1-99-Project\source\client\Client\EterLib\GrpExpandedImageInstance.cpp
; File C:\Users\murat\Desktop\Siveps2-1-99-Project\source\client\extern\include\d3dx8math.inl
; File C:\Users\murat\Desktop\Siveps2-1-99-Project\source\client\Client\EterLib\GrpExpandedImageInstance.cpp
; File C:\Users\murat\Desktop\Siveps2-1-99-Project\source\client\extern\include\d3dx8math.inl
; File C:\Users\murat\Desktop\Siveps2-1-99-Project\source\client\Client\EterLib\GrpExpandedImageInstance.cpp
; File C:\Users\murat\Desktop\Siveps2-1-99-Project\source\client\extern\include\d3dx8math.inl
; File C:\Users\murat\Desktop\Siveps2-1-99-Project\source\client\Client\EterLib\GrpExpandedImageInstance.cpp
; File C:\Users\murat\Desktop\Siveps2-1-99-Project\source\client\extern\include\d3dx8math.inl
; File C:\Users\murat\Desktop\Siveps2-1-99-Project\source\client\Client\EterLib\GrpExpandedImageInstance.cpp
; File C:\Users\murat\Desktop\Siveps2-1-99-Project\source\client\extern\include\d3dx8math.inl
; File C:\Users\murat\Desktop\Siveps2-1-99-Project\source\client\Client\EterLib\GrpExpandedImageInstance.cpp
; File C:\Users\murat\Desktop\Siveps2-1-99-Project\source\client\extern\include\d3dx8math.inl
; File C:\Users\murat\Desktop\Siveps2-1-99-Project\source\client\Client\EterLib\GrpExpandedImageInstance.cpp
; File C:\Users\murat\Desktop\Siveps2-1-99-Project\source\client\extern\include\d3dx8math.inl
; File C:\Users\murat\Desktop\Siveps2-1-99-Project\source\client\Client\EterLib\GrpExpandedImageInstance.cpp
; File C:\Users\murat\Desktop\Siveps2-1-99-Project\source\client\extern\include\d3dx8math.inl
; File C:\Users\murat\Desktop\Siveps2-1-99-Project\source\client\Client\EterLib\GrpExpandedImageInstance.cpp
; File C:\Users\murat\Desktop\Siveps2-1-99-Project\source\client\extern\include\d3dx8math.inl
; File C:\Users\murat\Desktop\Siveps2-1-99-Project\source\client\Client\EterLib\GrpExpandedImageInstance.cpp
; File C:\Users\murat\Desktop\Siveps2-1-99-Project\source\client\extern\include\d3dx8math.inl
; File C:\Users\murat\Desktop\Siveps2-1-99-Project\source\client\Client\EterLib\GrpExpandedImageInstance.cpp
; File C:\Users\murat\Desktop\Siveps2-1-99-Project\source\client\extern\include\d3dx8math.inl
; File C:\Users\murat\Desktop\Siveps2-1-99-Project\source\client\Client\EterLib\GrpExpandedImageInstance.cpp
; File C:\Users\murat\Desktop\Siveps2-1-99-Project\source\client\extern\include\d3dx8math.inl
; File C:\Users\murat\Desktop\Siveps2-1-99-Project\source\client\Client\EterLib\GrpExpandedImageInstance.cpp
; File C:\Users\murat\Desktop\Siveps2-1-99-Project\source\client\extern\include\d3dx8math.inl
; File C:\Users\murat\Desktop\Siveps2-1-99-Project\source\client\Client\EterLib\GrpExpandedImageInstance.cpp
; File C:\Users\murat\Desktop\Siveps2-1-99-Project\source\client\extern\include\d3dx8math.inl
; File C:\Users\murat\Desktop\Siveps2-1-99-Project\source\client\Client\EterLib\GrpExpandedImageInstance.cpp
; File C:\Program Files (x86)\Windows Kits\10\Include\10.0.19041.0\ucrt\corecrt_math.h
; File C:\Users\murat\Desktop\Siveps2-1-99-Project\source\client\Client\EterLib\GrpExpandedImageInstance.cpp
; File C:\Program Files (x86)\Windows Kits\10\Include\10.0.19041.0\ucrt\corecrt_math.h
; File C:\Users\murat\Desktop\Siveps2-1-99-Project\source\client\Client\EterLib\GrpExpandedImageInstance.cpp
; File C:\Program Files (x86)\Windows Kits\10\Include\10.0.19041.0\ucrt\corecrt_math.h
; File C:\Users\murat\Desktop\Siveps2-1-99-Project\source\client\Client\EterLib\GrpExpandedImageInstance.cpp
; File C:\Program Files (x86)\Windows Kits\10\Include\10.0.19041.0\ucrt\corecrt_math.h
; File C:\Users\murat\Desktop\Siveps2-1-99-Project\source\client\Client\EterLib\GrpExpandedImageInstance.cpp
; File C:\Program Files (x86)\Windows Kits\10\Include\10.0.19041.0\ucrt\corecrt_math.h
; File C:\Users\murat\Desktop\Siveps2-1-99-Project\source\client\Client\EterLib\GrpExpandedImageInstance.cpp
;	COMDAT ?OnRender@CGraphicExpandedImageInstance@@MAEXXZ
_TEXT	SEGMENT
tv2055 = -144						; size = 8
_eu$1$ = -140						; size = 4
_sv$1$ = -136						; size = 4
tv2021 = -136						; size = 4
_pTexture$1$ = -132					; size = 4
_fimgHalfHeight$1$ = -128				; size = 4
_fimgWidth$1$ = -128					; size = 4
_su$1$ = -128						; size = 4
_fimgHalfWidth$1$ = -124				; size = 4
_pImage$1$ = -124					; size = 4
_ev$1$ = -120						; size = 4
_texReverseWidth$1$ = -120				; size = 4
tv2013 = -120						; size = 4
_dwR$1$ = -116						; size = 4
tv1950 = -116						; size = 4
_dwG$1$ = -112						; size = 4
tv1949 = -112						; size = 4
_dwR$1$ = -108						; size = 4
_dwR$1$ = -108						; size = 4
_dwG$1$ = -108						; size = 4
_dwG$1$ = -104						; size = 4
_dwG$1$ = -104						; size = 4
_dwR$1$ = -104						; size = 4
tv2026 = -104						; size = 4
_vertices$ = -100					; size = 96
__$ArrayPad$ = -4					; size = 4
?OnRender@CGraphicExpandedImageInstance@@MAEXXZ PROC	; CGraphicExpandedImageInstance::OnRender, COMDAT
; _this$ = ecx

; 187  : {

  00000	55		 push	 ebp
  00001	8b ec		 mov	 ebp, esp
  00003	81 ec 90 00 00
	00		 sub	 esp, 144		; 00000090H
  00009	a1 00 00 00 00	 mov	 eax, DWORD PTR ___security_cookie
  0000e	33 c5		 xor	 eax, ebp
  00010	89 45 fc	 mov	 DWORD PTR __$ArrayPad$[ebp], eax
  00013	56		 push	 esi
  00014	57		 push	 edi
  00015	8b f9		 mov	 edi, ecx

; 188  : 	CGraphicImage * pImage = m_roImage.GetPointer();

  00017	8b 77 1c	 mov	 esi, DWORD PTR [edi+28]

; 189  : 	CGraphicTexture * pTexture = pImage->GetTexturePointer();

  0001a	8b ce		 mov	 ecx, esi
  0001c	89 75 84	 mov	 DWORD PTR _pImage$1$[ebp], esi
  0001f	e8 00 00 00 00	 call	 ?GetTexturePointer@CGraphicImage@@QAEPAVCGraphicTexture@@XZ ; CGraphicImage::GetTexturePointer

; 190  : 
; 191  : 	const RECT& c_rRect = pImage->GetRectReference();

  00024	8b ce		 mov	 ecx, esi
  00026	89 85 7c ff ff
	ff		 mov	 DWORD PTR _pTexture$1$[ebp], eax
  0002c	e8 00 00 00 00	 call	 ?GetRectReference@CGraphicImage@@QBEABUtagRECT@@XZ ; CGraphicImage::GetRectReference

; 192  : 	float texReverseWidth = 1.0f / float(pTexture->GetWidth());

  00031	8b 8d 7c ff ff
	ff		 mov	 ecx, DWORD PTR _pTexture$1$[ebp]
  00037	8b f0		 mov	 esi, eax
  00039	e8 00 00 00 00	 call	 ?GetWidth@CGraphicTexture@@QBEHXZ ; CGraphicTexture::GetWidth
  0003e	f3 0f 10 0d 00
	00 00 00	 movss	 xmm1, DWORD PTR __real@3f800000

; 193  : 	float texReverseHeight = 1.0f / float(pTexture->GetHeight());

  00046	8b 8d 7c ff ff
	ff		 mov	 ecx, DWORD PTR _pTexture$1$[ebp]
  0004c	66 0f 6e c0	 movd	 xmm0, eax
  00050	0f 5b c0	 cvtdq2ps xmm0, xmm0
  00053	f3 0f 5e c8	 divss	 xmm1, xmm0
  00057	f3 0f 11 4d 88	 movss	 DWORD PTR _texReverseWidth$1$[ebp], xmm1
  0005c	e8 00 00 00 00	 call	 ?GetHeight@CGraphicTexture@@QBEHXZ ; CGraphicTexture::GetHeight
  00061	f3 0f 10 0d 00
	00 00 00	 movss	 xmm1, DWORD PTR __real@3f800000
; File C:\Users\murat\Desktop\Siveps2-1-99-Project\source\client\extern\include\d3dx8math.inl

; 931  :     DWORD dwR = r >= 1.0f ? 0xff : r <= 0.0f ? 0x00 : (DWORD) (r * 255.0f + 0.5f);

  00069	f3 0f 10 15 00
	00 00 00	 movss	 xmm2, DWORD PTR __real@437f0000
  00071	66 0f 6e c0	 movd	 xmm0, eax
; File C:\Users\murat\Desktop\Siveps2-1-99-Project\source\client\Client\EterLib\GrpExpandedImageInstance.cpp

; 194  : 	float su = (c_rRect.left - m_RenderingRect.left) * texReverseWidth;

  00075	8b 06		 mov	 eax, DWORD PTR [esi]
  00077	2b 47 38	 sub	 eax, DWORD PTR [edi+56]
  0007a	0f 5b c0	 cvtdq2ps xmm0, xmm0
  0007d	66 0f 6e e0	 movd	 xmm4, eax

; 195  : 	float sv = (c_rRect.top - m_RenderingRect.top) * texReverseHeight;

  00081	8b 46 04	 mov	 eax, DWORD PTR [esi+4]
  00084	2b 47 3c	 sub	 eax, DWORD PTR [edi+60]
  00087	f3 0f 5e c8	 divss	 xmm1, xmm0
  0008b	66 0f 6e d8	 movd	 xmm3, eax

; 196  : 	float eu = (c_rRect.left + m_RenderingRect.right + (c_rRect.right-c_rRect.left)) * texReverseWidth;

  0008f	8b 46 08	 mov	 eax, DWORD PTR [esi+8]
  00092	03 47 40	 add	 eax, DWORD PTR [edi+64]
  00095	0f 5b e4	 cvtdq2ps xmm4, xmm4
  00098	66 0f 6e e8	 movd	 xmm5, eax

; 197  : 	float ev = (c_rRect.top + m_RenderingRect.bottom + (c_rRect.bottom-c_rRect.top)) * texReverseHeight;

  0009c	8b 46 0c	 mov	 eax, DWORD PTR [esi+12]
  0009f	03 47 44	 add	 eax, DWORD PTR [edi+68]
  000a2	f3 0f 59 65 88	 mulss	 xmm4, DWORD PTR _texReverseWidth$1$[ebp]
  000a7	0f 5b db	 cvtdq2ps xmm3, xmm3
  000aa	66 0f 6e c0	 movd	 xmm0, eax
  000ae	0f 5b c0	 cvtdq2ps xmm0, xmm0
  000b1	0f 5b ed	 cvtdq2ps xmm5, xmm5
  000b4	f3 0f 59 c1	 mulss	 xmm0, xmm1
  000b8	f3 0f 59 6d 88	 mulss	 xmm5, DWORD PTR _texReverseWidth$1$[ebp]
  000bd	f3 0f 11 45 88	 movss	 DWORD PTR _ev$1$[ebp], xmm0

; 200  : 	vertices[0].position.x	= m_v2Position.x-0.5f;

  000c2	f3 0f 10 47 14	 movss	 xmm0, DWORD PTR [edi+20]
  000c7	f3 0f 59 d9	 mulss	 xmm3, xmm1
  000cb	f3 0f 10 0d 00
	00 00 00	 movss	 xmm1, DWORD PTR __real@3f000000
  000d3	f3 0f 5c c1	 subss	 xmm0, xmm1
  000d7	f3 0f 11 65 80	 movss	 DWORD PTR _su$1$[ebp], xmm4
  000dc	f3 0f 11 9d 78
	ff ff ff	 movss	 DWORD PTR _sv$1$[ebp], xmm3

; 202  : 	vertices[0].position.z	= m_fDepth;
; 203  : 	vertices[0].texCoord	= TTextureCoordinate(su, sv);

  000e4	f3 0f 11 5d b0	 movss	 DWORD PTR _vertices$[ebp+20], xmm3
; File C:\Users\murat\Desktop\Siveps2-1-99-Project\source\client\extern\include\d3dx8math.inl

; 931  :     DWORD dwR = r >= 1.0f ? 0xff : r <= 0.0f ? 0x00 : (DWORD) (r * 255.0f + 0.5f);

  000e9	f3 0f 10 5f 04	 movss	 xmm3, DWORD PTR [edi+4]
  000ee	0f 2f 1d 00 00
	00 00		 comiss	 xmm3, DWORD PTR __real@3f800000
; File C:\Users\murat\Desktop\Siveps2-1-99-Project\source\client\Client\EterLib\GrpExpandedImageInstance.cpp

; 200  : 	vertices[0].position.x	= m_v2Position.x-0.5f;

  000f5	f3 0f 11 45 90	 movss	 DWORD PTR tv1949[ebp], xmm0
  000fa	f3 0f 11 45 9c	 movss	 DWORD PTR _vertices$[ebp], xmm0

; 201  : 	vertices[0].position.y	= m_v2Position.y-0.5f;

  000ff	f3 0f 10 47 18	 movss	 xmm0, DWORD PTR [edi+24]
  00104	f3 0f 5c c1	 subss	 xmm0, xmm1
  00108	f3 0f 11 ad 74
	ff ff ff	 movss	 DWORD PTR _eu$1$[ebp], xmm5

; 202  : 	vertices[0].position.z	= m_fDepth;
; 203  : 	vertices[0].texCoord	= TTextureCoordinate(su, sv);

  00110	f3 0f 11 65 ac	 movss	 DWORD PTR _vertices$[ebp+16], xmm4
  00115	f3 0f 11 45 8c	 movss	 DWORD PTR tv1950[ebp], xmm0
  0011a	f3 0f 11 45 a0	 movss	 DWORD PTR _vertices$[ebp+4], xmm0
  0011f	f3 0f 10 47 20	 movss	 xmm0, DWORD PTR [edi+32]
  00124	f3 0f 11 45 a4	 movss	 DWORD PTR _vertices$[ebp+8], xmm0
; File C:\Users\murat\Desktop\Siveps2-1-99-Project\source\client\extern\include\d3dx8math.inl

; 931  :     DWORD dwR = r >= 1.0f ? 0xff : r <= 0.0f ? 0x00 : (DWORD) (r * 255.0f + 0.5f);

  00129	0f 57 c0	 xorps	 xmm0, xmm0
  0012c	72 09		 jb	 SHORT $LN32@OnRender
  0012e	c7 45 98 ff 00
	00 00		 mov	 DWORD PTR _dwR$1$[ebp], 255 ; 000000ffH
  00135	eb 34		 jmp	 SHORT $LN31@OnRender
$LN32@OnRender:
  00137	0f 2f c3	 comiss	 xmm0, xmm3
  0013a	72 09		 jb	 SHORT $LN30@OnRender
  0013c	c7 45 98 00 00
	00 00		 mov	 DWORD PTR _dwR$1$[ebp], 0
  00143	eb 26		 jmp	 SHORT $LN31@OnRender
$LN30@OnRender:
  00145	0f 28 c3	 movaps	 xmm0, xmm3
  00148	f3 0f 59 c2	 mulss	 xmm0, xmm2
  0014c	f3 0f 58 c1	 addss	 xmm0, xmm1
  00150	e8 00 00 00 00	 call	 __ftoui3
  00155	f3 0f 10 0d 00
	00 00 00	 movss	 xmm1, DWORD PTR __real@3f000000
  0015d	0f 57 c0	 xorps	 xmm0, xmm0
  00160	f3 0f 10 15 00
	00 00 00	 movss	 xmm2, DWORD PTR __real@437f0000
  00168	89 45 98	 mov	 DWORD PTR _dwR$1$[ebp], eax
$LN31@OnRender:

; 932  :     DWORD dwG = g >= 1.0f ? 0xff : g <= 0.0f ? 0x00 : (DWORD) (g * 255.0f + 0.5f);

  0016b	f3 0f 10 67 08	 movss	 xmm4, DWORD PTR [edi+8]
  00170	0f 2f 25 00 00
	00 00		 comiss	 xmm4, DWORD PTR __real@3f800000
  00177	72 09		 jb	 SHORT $LN36@OnRender
  00179	c7 45 94 ff 00
	00 00		 mov	 DWORD PTR _dwG$1$[ebp], 255 ; 000000ffH
  00180	eb 21		 jmp	 SHORT $LN35@OnRender
$LN36@OnRender:
  00182	0f 2f c4	 comiss	 xmm0, xmm4
  00185	72 09		 jb	 SHORT $LN34@OnRender
  00187	c7 45 94 00 00
	00 00		 mov	 DWORD PTR _dwG$1$[ebp], 0
  0018e	eb 13		 jmp	 SHORT $LN35@OnRender
$LN34@OnRender:
  00190	0f 28 c4	 movaps	 xmm0, xmm4
  00193	f3 0f 59 c2	 mulss	 xmm0, xmm2
  00197	f3 0f 58 c1	 addss	 xmm0, xmm1
  0019b	e8 00 00 00 00	 call	 __ftoui3
  001a0	89 45 94	 mov	 DWORD PTR _dwG$1$[ebp], eax
$LN35@OnRender:

; 933  :     DWORD dwB = b >= 1.0f ? 0xff : b <= 0.0f ? 0x00 : (DWORD) (b * 255.0f + 0.5f);

  001a3	f3 0f 10 4f 0c	 movss	 xmm1, DWORD PTR [edi+12]
  001a8	0f 57 c0	 xorps	 xmm0, xmm0
  001ab	0f 2f 0d 00 00
	00 00		 comiss	 xmm1, DWORD PTR __real@3f800000
  001b2	72 07		 jb	 SHORT $LN40@OnRender
  001b4	be ff 00 00 00	 mov	 esi, 255		; 000000ffH
  001b9	eb 26		 jmp	 SHORT $LN39@OnRender
$LN40@OnRender:
  001bb	0f 2f c1	 comiss	 xmm0, xmm1
  001be	72 04		 jb	 SHORT $LN38@OnRender
  001c0	33 f6		 xor	 esi, esi
  001c2	eb 1d		 jmp	 SHORT $LN39@OnRender
$LN38@OnRender:
  001c4	0f 28 c1	 movaps	 xmm0, xmm1
  001c7	f3 0f 59 05 00
	00 00 00	 mulss	 xmm0, DWORD PTR __real@437f0000
  001cf	f3 0f 58 05 00
	00 00 00	 addss	 xmm0, DWORD PTR __real@3f000000
  001d7	e8 00 00 00 00	 call	 __ftoui3
  001dc	8b f0		 mov	 esi, eax
  001de	0f 57 c0	 xorps	 xmm0, xmm0
$LN39@OnRender:

; 934  :     DWORD dwA = a >= 1.0f ? 0xff : a <= 0.0f ? 0x00 : (DWORD) (a * 255.0f + 0.5f);

  001e1	f3 0f 10 4f 10	 movss	 xmm1, DWORD PTR [edi+16]
  001e6	0f 2f 0d 00 00
	00 00		 comiss	 xmm1, DWORD PTR __real@3f800000
  001ed	72 07		 jb	 SHORT $LN44@OnRender
  001ef	b8 ff 00 00 00	 mov	 eax, 255		; 000000ffH
  001f4	eb 21		 jmp	 SHORT $LN43@OnRender
$LN44@OnRender:
  001f6	0f 2f c1	 comiss	 xmm0, xmm1
  001f9	72 04		 jb	 SHORT $LN42@OnRender
  001fb	33 c0		 xor	 eax, eax
  001fd	eb 18		 jmp	 SHORT $LN43@OnRender
$LN42@OnRender:
  001ff	0f 28 c1	 movaps	 xmm0, xmm1
  00202	f3 0f 59 05 00
	00 00 00	 mulss	 xmm0, DWORD PTR __real@437f0000
  0020a	f3 0f 58 05 00
	00 00 00	 addss	 xmm0, DWORD PTR __real@3f000000
  00212	e8 00 00 00 00	 call	 __ftoui3
$LN43@OnRender:
; File C:\Users\murat\Desktop\Siveps2-1-99-Project\source\client\Client\EterLib\GrpExpandedImageInstance.cpp

; 206  : 	vertices[1].position.x	= m_v2Position.x-0.5f;

  00217	f3 0f 10 45 90	 movss	 xmm0, DWORD PTR tv1949[ebp]
; File C:\Users\murat\Desktop\Siveps2-1-99-Project\source\client\extern\include\d3dx8math.inl

; 931  :     DWORD dwR = r >= 1.0f ? 0xff : r <= 0.0f ? 0x00 : (DWORD) (r * 255.0f + 0.5f);

  0021c	f3 0f 10 4f 04	 movss	 xmm1, DWORD PTR [edi+4]

; 936  :     return (dwA << 24) | (dwR << 16) | (dwG << 8) | dwB;

  00221	c1 e0 08	 shl	 eax, 8
  00224	0b 45 98	 or	 eax, DWORD PTR _dwR$1$[ebp]
; File C:\Users\murat\Desktop\Siveps2-1-99-Project\source\client\Client\EterLib\GrpExpandedImageInstance.cpp

; 206  : 	vertices[1].position.x	= m_v2Position.x-0.5f;

  00227	f3 0f 11 45 b4	 movss	 DWORD PTR _vertices$[ebp+24], xmm0

; 207  : 	vertices[1].position.y	= m_v2Position.y-0.5f;

  0022c	f3 0f 10 45 8c	 movss	 xmm0, DWORD PTR tv1950[ebp]
  00231	f3 0f 11 45 b8	 movss	 DWORD PTR _vertices$[ebp+28], xmm0

; 208  : 	vertices[1].position.z	= m_fDepth;

  00236	f3 0f 10 47 20	 movss	 xmm0, DWORD PTR [edi+32]
; File C:\Users\murat\Desktop\Siveps2-1-99-Project\source\client\extern\include\d3dx8math.inl

; 936  :     return (dwA << 24) | (dwR << 16) | (dwG << 8) | dwB;

  0023b	c1 e0 08	 shl	 eax, 8
  0023e	0b 45 94	 or	 eax, DWORD PTR _dwG$1$[ebp]
; File C:\Users\murat\Desktop\Siveps2-1-99-Project\source\client\Client\EterLib\GrpExpandedImageInstance.cpp

; 208  : 	vertices[1].position.z	= m_fDepth;

  00241	f3 0f 11 45 bc	 movss	 DWORD PTR _vertices$[ebp+32], xmm0

; 209  : 	vertices[1].texCoord	= TTextureCoordinate(eu, sv);

  00246	f3 0f 10 85 74
	ff ff ff	 movss	 xmm0, DWORD PTR _eu$1$[ebp]
; File C:\Users\murat\Desktop\Siveps2-1-99-Project\source\client\extern\include\d3dx8math.inl

; 936  :     return (dwA << 24) | (dwR << 16) | (dwG << 8) | dwB;

  0024e	c1 e0 08	 shl	 eax, 8
; File C:\Users\murat\Desktop\Siveps2-1-99-Project\source\client\Client\EterLib\GrpExpandedImageInstance.cpp

; 209  : 	vertices[1].texCoord	= TTextureCoordinate(eu, sv);

  00251	f3 0f 11 45 c4	 movss	 DWORD PTR _vertices$[ebp+40], xmm0
; File C:\Users\murat\Desktop\Siveps2-1-99-Project\source\client\extern\include\d3dx8math.inl

; 936  :     return (dwA << 24) | (dwR << 16) | (dwG << 8) | dwB;

  00256	0b c6		 or	 eax, esi

; 931  :     DWORD dwR = r >= 1.0f ? 0xff : r <= 0.0f ? 0x00 : (DWORD) (r * 255.0f + 0.5f);

  00258	0f 2f 0d 00 00
	00 00		 comiss	 xmm1, DWORD PTR __real@3f800000
; File C:\Users\murat\Desktop\Siveps2-1-99-Project\source\client\Client\EterLib\GrpExpandedImageInstance.cpp

; 204  : 	vertices[0].diffuse		= m_DiffuseColor;

  0025f	89 45 a8	 mov	 DWORD PTR _vertices$[ebp+12], eax

; 209  : 	vertices[1].texCoord	= TTextureCoordinate(eu, sv);

  00262	f3 0f 10 85 78
	ff ff ff	 movss	 xmm0, DWORD PTR _sv$1$[ebp]
  0026a	f3 0f 11 45 c8	 movss	 DWORD PTR _vertices$[ebp+44], xmm0
; File C:\Users\murat\Desktop\Siveps2-1-99-Project\source\client\extern\include\d3dx8math.inl

; 931  :     DWORD dwR = r >= 1.0f ? 0xff : r <= 0.0f ? 0x00 : (DWORD) (r * 255.0f + 0.5f);

  0026f	0f 57 c0	 xorps	 xmm0, xmm0
  00272	72 09		 jb	 SHORT $LN52@OnRender
  00274	c7 45 94 ff 00
	00 00		 mov	 DWORD PTR _dwR$1$[ebp], 255 ; 000000ffH
  0027b	eb 2c		 jmp	 SHORT $LN51@OnRender
$LN52@OnRender:
  0027d	0f 2f c1	 comiss	 xmm0, xmm1
  00280	72 09		 jb	 SHORT $LN50@OnRender
  00282	c7 45 94 00 00
	00 00		 mov	 DWORD PTR _dwR$1$[ebp], 0
  00289	eb 1e		 jmp	 SHORT $LN51@OnRender
$LN50@OnRender:
  0028b	f3 0f 59 0d 00
	00 00 00	 mulss	 xmm1, DWORD PTR __real@437f0000
  00293	f3 0f 58 0d 00
	00 00 00	 addss	 xmm1, DWORD PTR __real@3f000000
  0029b	0f 28 c1	 movaps	 xmm0, xmm1
  0029e	e8 00 00 00 00	 call	 __ftoui3
  002a3	89 45 94	 mov	 DWORD PTR _dwR$1$[ebp], eax
  002a6	0f 57 c0	 xorps	 xmm0, xmm0
$LN51@OnRender:

; 932  :     DWORD dwG = g >= 1.0f ? 0xff : g <= 0.0f ? 0x00 : (DWORD) (g * 255.0f + 0.5f);

  002a9	f3 0f 10 4f 08	 movss	 xmm1, DWORD PTR [edi+8]
  002ae	0f 2f 0d 00 00
	00 00		 comiss	 xmm1, DWORD PTR __real@3f800000
  002b5	72 09		 jb	 SHORT $LN56@OnRender
  002b7	c7 45 98 ff 00
	00 00		 mov	 DWORD PTR _dwG$1$[ebp], 255 ; 000000ffH
  002be	eb 29		 jmp	 SHORT $LN55@OnRender
$LN56@OnRender:
  002c0	0f 2f c1	 comiss	 xmm0, xmm1
  002c3	72 09		 jb	 SHORT $LN54@OnRender
  002c5	c7 45 98 00 00
	00 00		 mov	 DWORD PTR _dwG$1$[ebp], 0
  002cc	eb 1b		 jmp	 SHORT $LN55@OnRender
$LN54@OnRender:
  002ce	f3 0f 59 0d 00
	00 00 00	 mulss	 xmm1, DWORD PTR __real@437f0000
  002d6	f3 0f 58 0d 00
	00 00 00	 addss	 xmm1, DWORD PTR __real@3f000000
  002de	0f 28 c1	 movaps	 xmm0, xmm1
  002e1	e8 00 00 00 00	 call	 __ftoui3
  002e6	89 45 98	 mov	 DWORD PTR _dwG$1$[ebp], eax
$LN55@OnRender:

; 933  :     DWORD dwB = b >= 1.0f ? 0xff : b <= 0.0f ? 0x00 : (DWORD) (b * 255.0f + 0.5f);

  002e9	f3 0f 10 4f 0c	 movss	 xmm1, DWORD PTR [edi+12]
  002ee	0f 57 c0	 xorps	 xmm0, xmm0
  002f1	0f 2f 0d 00 00
	00 00		 comiss	 xmm1, DWORD PTR __real@3f800000
  002f8	72 07		 jb	 SHORT $LN60@OnRender
  002fa	be ff 00 00 00	 mov	 esi, 255		; 000000ffH
  002ff	eb 26		 jmp	 SHORT $LN59@OnRender
$LN60@OnRender:
  00301	0f 2f c1	 comiss	 xmm0, xmm1
  00304	72 04		 jb	 SHORT $LN58@OnRender
  00306	33 f6		 xor	 esi, esi
  00308	eb 1d		 jmp	 SHORT $LN59@OnRender
$LN58@OnRender:
  0030a	f3 0f 59 0d 00
	00 00 00	 mulss	 xmm1, DWORD PTR __real@437f0000
  00312	f3 0f 58 0d 00
	00 00 00	 addss	 xmm1, DWORD PTR __real@3f000000
  0031a	0f 28 c1	 movaps	 xmm0, xmm1
  0031d	e8 00 00 00 00	 call	 __ftoui3
  00322	8b f0		 mov	 esi, eax
  00324	0f 57 c0	 xorps	 xmm0, xmm0
$LN59@OnRender:

; 934  :     DWORD dwA = a >= 1.0f ? 0xff : a <= 0.0f ? 0x00 : (DWORD) (a * 255.0f + 0.5f);

  00327	f3 0f 10 4f 10	 movss	 xmm1, DWORD PTR [edi+16]
  0032c	0f 2f 0d 00 00
	00 00		 comiss	 xmm1, DWORD PTR __real@3f800000
  00333	72 07		 jb	 SHORT $LN64@OnRender
  00335	b8 ff 00 00 00	 mov	 eax, 255		; 000000ffH
  0033a	eb 21		 jmp	 SHORT $LN63@OnRender
$LN64@OnRender:
  0033c	0f 2f c1	 comiss	 xmm0, xmm1
  0033f	72 04		 jb	 SHORT $LN62@OnRender
  00341	33 c0		 xor	 eax, eax
  00343	eb 18		 jmp	 SHORT $LN63@OnRender
$LN62@OnRender:
  00345	f3 0f 59 0d 00
	00 00 00	 mulss	 xmm1, DWORD PTR __real@437f0000
  0034d	f3 0f 58 0d 00
	00 00 00	 addss	 xmm1, DWORD PTR __real@3f000000
  00355	0f 28 c1	 movaps	 xmm0, xmm1
  00358	e8 00 00 00 00	 call	 __ftoui3
$LN63@OnRender:
; File C:\Users\murat\Desktop\Siveps2-1-99-Project\source\client\Client\EterLib\GrpExpandedImageInstance.cpp

; 212  : 	vertices[2].position.x	= m_v2Position.x-0.5f;

  0035d	f3 0f 10 45 90	 movss	 xmm0, DWORD PTR tv1949[ebp]
; File C:\Users\murat\Desktop\Siveps2-1-99-Project\source\client\extern\include\d3dx8math.inl

; 931  :     DWORD dwR = r >= 1.0f ? 0xff : r <= 0.0f ? 0x00 : (DWORD) (r * 255.0f + 0.5f);

  00362	f3 0f 10 4f 04	 movss	 xmm1, DWORD PTR [edi+4]

; 936  :     return (dwA << 24) | (dwR << 16) | (dwG << 8) | dwB;

  00367	c1 e0 08	 shl	 eax, 8
  0036a	0b 45 94	 or	 eax, DWORD PTR _dwR$1$[ebp]
; File C:\Users\murat\Desktop\Siveps2-1-99-Project\source\client\Client\EterLib\GrpExpandedImageInstance.cpp

; 212  : 	vertices[2].position.x	= m_v2Position.x-0.5f;

  0036d	f3 0f 11 45 cc	 movss	 DWORD PTR _vertices$[ebp+48], xmm0

; 213  : 	vertices[2].position.y	= m_v2Position.y-0.5f;

  00372	f3 0f 10 45 8c	 movss	 xmm0, DWORD PTR tv1950[ebp]
  00377	f3 0f 11 45 d0	 movss	 DWORD PTR _vertices$[ebp+52], xmm0

; 214  : 	vertices[2].position.z	= m_fDepth;

  0037c	f3 0f 10 47 20	 movss	 xmm0, DWORD PTR [edi+32]
; File C:\Users\murat\Desktop\Siveps2-1-99-Project\source\client\extern\include\d3dx8math.inl

; 936  :     return (dwA << 24) | (dwR << 16) | (dwG << 8) | dwB;

  00381	c1 e0 08	 shl	 eax, 8
  00384	0b 45 98	 or	 eax, DWORD PTR _dwG$1$[ebp]
; File C:\Users\murat\Desktop\Siveps2-1-99-Project\source\client\Client\EterLib\GrpExpandedImageInstance.cpp

; 214  : 	vertices[2].position.z	= m_fDepth;

  00387	f3 0f 11 45 d4	 movss	 DWORD PTR _vertices$[ebp+56], xmm0

; 215  : 	vertices[2].texCoord	= TTextureCoordinate(su, ev);

  0038c	f3 0f 10 45 80	 movss	 xmm0, DWORD PTR _su$1$[ebp]
; File C:\Users\murat\Desktop\Siveps2-1-99-Project\source\client\extern\include\d3dx8math.inl

; 936  :     return (dwA << 24) | (dwR << 16) | (dwG << 8) | dwB;

  00391	c1 e0 08	 shl	 eax, 8
; File C:\Users\murat\Desktop\Siveps2-1-99-Project\source\client\Client\EterLib\GrpExpandedImageInstance.cpp

; 215  : 	vertices[2].texCoord	= TTextureCoordinate(su, ev);

  00394	f3 0f 11 45 dc	 movss	 DWORD PTR _vertices$[ebp+64], xmm0
; File C:\Users\murat\Desktop\Siveps2-1-99-Project\source\client\extern\include\d3dx8math.inl

; 936  :     return (dwA << 24) | (dwR << 16) | (dwG << 8) | dwB;

  00399	0b c6		 or	 eax, esi

; 931  :     DWORD dwR = r >= 1.0f ? 0xff : r <= 0.0f ? 0x00 : (DWORD) (r * 255.0f + 0.5f);

  0039b	0f 2f 0d 00 00
	00 00		 comiss	 xmm1, DWORD PTR __real@3f800000
; File C:\Users\murat\Desktop\Siveps2-1-99-Project\source\client\Client\EterLib\GrpExpandedImageInstance.cpp

; 210  : 	vertices[1].diffuse		= m_DiffuseColor;

  003a2	89 45 c0	 mov	 DWORD PTR _vertices$[ebp+36], eax

; 215  : 	vertices[2].texCoord	= TTextureCoordinate(su, ev);

  003a5	f3 0f 10 45 88	 movss	 xmm0, DWORD PTR _ev$1$[ebp]
  003aa	f3 0f 11 45 e0	 movss	 DWORD PTR _vertices$[ebp+68], xmm0
; File C:\Users\murat\Desktop\Siveps2-1-99-Project\source\client\extern\include\d3dx8math.inl

; 931  :     DWORD dwR = r >= 1.0f ? 0xff : r <= 0.0f ? 0x00 : (DWORD) (r * 255.0f + 0.5f);

  003af	0f 57 c0	 xorps	 xmm0, xmm0
  003b2	72 09		 jb	 SHORT $LN72@OnRender
  003b4	c7 45 94 ff 00
	00 00		 mov	 DWORD PTR _dwR$1$[ebp], 255 ; 000000ffH
  003bb	eb 2c		 jmp	 SHORT $LN71@OnRender
$LN72@OnRender:
  003bd	0f 2f c1	 comiss	 xmm0, xmm1
  003c0	72 09		 jb	 SHORT $LN70@OnRender
  003c2	c7 45 94 00 00
	00 00		 mov	 DWORD PTR _dwR$1$[ebp], 0
  003c9	eb 1e		 jmp	 SHORT $LN71@OnRender
$LN70@OnRender:
  003cb	0f 28 c1	 movaps	 xmm0, xmm1
  003ce	f3 0f 59 05 00
	00 00 00	 mulss	 xmm0, DWORD PTR __real@437f0000
  003d6	f3 0f 58 05 00
	00 00 00	 addss	 xmm0, DWORD PTR __real@3f000000
  003de	e8 00 00 00 00	 call	 __ftoui3
  003e3	89 45 94	 mov	 DWORD PTR _dwR$1$[ebp], eax
  003e6	0f 57 c0	 xorps	 xmm0, xmm0
$LN71@OnRender:

; 932  :     DWORD dwG = g >= 1.0f ? 0xff : g <= 0.0f ? 0x00 : (DWORD) (g * 255.0f + 0.5f);

  003e9	f3 0f 10 4f 08	 movss	 xmm1, DWORD PTR [edi+8]
  003ee	0f 2f 0d 00 00
	00 00		 comiss	 xmm1, DWORD PTR __real@3f800000
  003f5	72 09		 jb	 SHORT $LN76@OnRender
  003f7	c7 45 98 ff 00
	00 00		 mov	 DWORD PTR _dwG$1$[ebp], 255 ; 000000ffH
  003fe	eb 29		 jmp	 SHORT $LN75@OnRender
$LN76@OnRender:
  00400	0f 2f c1	 comiss	 xmm0, xmm1
  00403	72 09		 jb	 SHORT $LN74@OnRender
  00405	c7 45 98 00 00
	00 00		 mov	 DWORD PTR _dwG$1$[ebp], 0
  0040c	eb 1b		 jmp	 SHORT $LN75@OnRender
$LN74@OnRender:
  0040e	0f 28 c1	 movaps	 xmm0, xmm1
  00411	f3 0f 59 05 00
	00 00 00	 mulss	 xmm0, DWORD PTR __real@437f0000
  00419	f3 0f 58 05 00
	00 00 00	 addss	 xmm0, DWORD PTR __real@3f000000
  00421	e8 00 00 00 00	 call	 __ftoui3
  00426	89 45 98	 mov	 DWORD PTR _dwG$1$[ebp], eax
$LN75@OnRender:

; 933  :     DWORD dwB = b >= 1.0f ? 0xff : b <= 0.0f ? 0x00 : (DWORD) (b * 255.0f + 0.5f);

  00429	f3 0f 10 4f 0c	 movss	 xmm1, DWORD PTR [edi+12]
  0042e	0f 57 c0	 xorps	 xmm0, xmm0
  00431	0f 2f 0d 00 00
	00 00		 comiss	 xmm1, DWORD PTR __real@3f800000
  00438	72 07		 jb	 SHORT $LN80@OnRender
  0043a	be ff 00 00 00	 mov	 esi, 255		; 000000ffH
  0043f	eb 26		 jmp	 SHORT $LN79@OnRender
$LN80@OnRender:
  00441	0f 2f c1	 comiss	 xmm0, xmm1
  00444	72 04		 jb	 SHORT $LN78@OnRender
  00446	33 f6		 xor	 esi, esi
  00448	eb 1d		 jmp	 SHORT $LN79@OnRender
$LN78@OnRender:
  0044a	0f 28 c1	 movaps	 xmm0, xmm1
  0044d	f3 0f 59 05 00
	00 00 00	 mulss	 xmm0, DWORD PTR __real@437f0000
  00455	f3 0f 58 05 00
	00 00 00	 addss	 xmm0, DWORD PTR __real@3f000000
  0045d	e8 00 00 00 00	 call	 __ftoui3
  00462	8b f0		 mov	 esi, eax
  00464	0f 57 c0	 xorps	 xmm0, xmm0
$LN79@OnRender:

; 934  :     DWORD dwA = a >= 1.0f ? 0xff : a <= 0.0f ? 0x00 : (DWORD) (a * 255.0f + 0.5f);

  00467	f3 0f 10 4f 10	 movss	 xmm1, DWORD PTR [edi+16]
  0046c	0f 2f 0d 00 00
	00 00		 comiss	 xmm1, DWORD PTR __real@3f800000
  00473	72 07		 jb	 SHORT $LN84@OnRender
  00475	b8 ff 00 00 00	 mov	 eax, 255		; 000000ffH
  0047a	eb 21		 jmp	 SHORT $LN83@OnRender
$LN84@OnRender:
  0047c	0f 2f c1	 comiss	 xmm0, xmm1
  0047f	72 04		 jb	 SHORT $LN82@OnRender
  00481	33 c0		 xor	 eax, eax
  00483	eb 18		 jmp	 SHORT $LN83@OnRender
$LN82@OnRender:
  00485	0f 28 c1	 movaps	 xmm0, xmm1
  00488	f3 0f 59 05 00
	00 00 00	 mulss	 xmm0, DWORD PTR __real@437f0000
  00490	f3 0f 58 05 00
	00 00 00	 addss	 xmm0, DWORD PTR __real@3f000000
  00498	e8 00 00 00 00	 call	 __ftoui3
$LN83@OnRender:
; File C:\Users\murat\Desktop\Siveps2-1-99-Project\source\client\Client\EterLib\GrpExpandedImageInstance.cpp

; 218  : 	vertices[3].position.x	= m_v2Position.x-0.5f;

  0049d	f3 0f 10 45 90	 movss	 xmm0, DWORD PTR tv1949[ebp]
; File C:\Users\murat\Desktop\Siveps2-1-99-Project\source\client\extern\include\d3dx8math.inl

; 931  :     DWORD dwR = r >= 1.0f ? 0xff : r <= 0.0f ? 0x00 : (DWORD) (r * 255.0f + 0.5f);

  004a2	f3 0f 10 4f 04	 movss	 xmm1, DWORD PTR [edi+4]

; 936  :     return (dwA << 24) | (dwR << 16) | (dwG << 8) | dwB;

  004a7	c1 e0 08	 shl	 eax, 8
  004aa	0b 45 94	 or	 eax, DWORD PTR _dwR$1$[ebp]
; File C:\Users\murat\Desktop\Siveps2-1-99-Project\source\client\Client\EterLib\GrpExpandedImageInstance.cpp

; 218  : 	vertices[3].position.x	= m_v2Position.x-0.5f;

  004ad	f3 0f 11 45 e4	 movss	 DWORD PTR _vertices$[ebp+72], xmm0

; 219  : 	vertices[3].position.y	= m_v2Position.y-0.5f;

  004b2	f3 0f 10 45 8c	 movss	 xmm0, DWORD PTR tv1950[ebp]
  004b7	f3 0f 11 45 e8	 movss	 DWORD PTR _vertices$[ebp+76], xmm0

; 220  : 	vertices[3].position.z	= m_fDepth;

  004bc	f3 0f 10 47 20	 movss	 xmm0, DWORD PTR [edi+32]
; File C:\Users\murat\Desktop\Siveps2-1-99-Project\source\client\extern\include\d3dx8math.inl

; 936  :     return (dwA << 24) | (dwR << 16) | (dwG << 8) | dwB;

  004c1	c1 e0 08	 shl	 eax, 8
  004c4	0b 45 98	 or	 eax, DWORD PTR _dwG$1$[ebp]
; File C:\Users\murat\Desktop\Siveps2-1-99-Project\source\client\Client\EterLib\GrpExpandedImageInstance.cpp

; 220  : 	vertices[3].position.z	= m_fDepth;

  004c7	f3 0f 11 45 ec	 movss	 DWORD PTR _vertices$[ebp+80], xmm0

; 221  : 	vertices[3].texCoord	= TTextureCoordinate(eu, ev);

  004cc	f3 0f 10 85 74
	ff ff ff	 movss	 xmm0, DWORD PTR _eu$1$[ebp]
; File C:\Users\murat\Desktop\Siveps2-1-99-Project\source\client\extern\include\d3dx8math.inl

; 936  :     return (dwA << 24) | (dwR << 16) | (dwG << 8) | dwB;

  004d4	c1 e0 08	 shl	 eax, 8
; File C:\Users\murat\Desktop\Siveps2-1-99-Project\source\client\Client\EterLib\GrpExpandedImageInstance.cpp

; 221  : 	vertices[3].texCoord	= TTextureCoordinate(eu, ev);

  004d7	f3 0f 11 45 f4	 movss	 DWORD PTR _vertices$[ebp+88], xmm0
; File C:\Users\murat\Desktop\Siveps2-1-99-Project\source\client\extern\include\d3dx8math.inl

; 936  :     return (dwA << 24) | (dwR << 16) | (dwG << 8) | dwB;

  004dc	0b c6		 or	 eax, esi

; 931  :     DWORD dwR = r >= 1.0f ? 0xff : r <= 0.0f ? 0x00 : (DWORD) (r * 255.0f + 0.5f);

  004de	0f 2f 0d 00 00
	00 00		 comiss	 xmm1, DWORD PTR __real@3f800000
; File C:\Users\murat\Desktop\Siveps2-1-99-Project\source\client\Client\EterLib\GrpExpandedImageInstance.cpp

; 216  : 	vertices[2].diffuse		= m_DiffuseColor;

  004e5	89 45 d8	 mov	 DWORD PTR _vertices$[ebp+60], eax

; 221  : 	vertices[3].texCoord	= TTextureCoordinate(eu, ev);

  004e8	f3 0f 10 45 88	 movss	 xmm0, DWORD PTR _ev$1$[ebp]
  004ed	f3 0f 11 45 f8	 movss	 DWORD PTR _vertices$[ebp+92], xmm0
; File C:\Users\murat\Desktop\Siveps2-1-99-Project\source\client\extern\include\d3dx8math.inl

; 931  :     DWORD dwR = r >= 1.0f ? 0xff : r <= 0.0f ? 0x00 : (DWORD) (r * 255.0f + 0.5f);

  004f2	0f 57 c0	 xorps	 xmm0, xmm0
  004f5	72 09		 jb	 SHORT $LN92@OnRender
  004f7	c7 45 8c ff 00
	00 00		 mov	 DWORD PTR _dwR$1$[ebp], 255 ; 000000ffH
  004fe	eb 2c		 jmp	 SHORT $LN91@OnRender
$LN92@OnRender:
  00500	0f 2f c1	 comiss	 xmm0, xmm1
  00503	72 09		 jb	 SHORT $LN90@OnRender
  00505	c7 45 8c 00 00
	00 00		 mov	 DWORD PTR _dwR$1$[ebp], 0
  0050c	eb 1e		 jmp	 SHORT $LN91@OnRender
$LN90@OnRender:
  0050e	f3 0f 59 0d 00
	00 00 00	 mulss	 xmm1, DWORD PTR __real@437f0000
  00516	f3 0f 58 0d 00
	00 00 00	 addss	 xmm1, DWORD PTR __real@3f000000
  0051e	0f 28 c1	 movaps	 xmm0, xmm1
  00521	e8 00 00 00 00	 call	 __ftoui3
  00526	89 45 8c	 mov	 DWORD PTR _dwR$1$[ebp], eax
  00529	0f 57 c0	 xorps	 xmm0, xmm0
$LN91@OnRender:

; 932  :     DWORD dwG = g >= 1.0f ? 0xff : g <= 0.0f ? 0x00 : (DWORD) (g * 255.0f + 0.5f);

  0052c	f3 0f 10 4f 08	 movss	 xmm1, DWORD PTR [edi+8]
  00531	0f 2f 0d 00 00
	00 00		 comiss	 xmm1, DWORD PTR __real@3f800000
  00538	72 09		 jb	 SHORT $LN96@OnRender
  0053a	c7 45 90 ff 00
	00 00		 mov	 DWORD PTR _dwG$1$[ebp], 255 ; 000000ffH
  00541	eb 29		 jmp	 SHORT $LN95@OnRender
$LN96@OnRender:
  00543	0f 2f c1	 comiss	 xmm0, xmm1
  00546	72 09		 jb	 SHORT $LN94@OnRender
  00548	c7 45 90 00 00
	00 00		 mov	 DWORD PTR _dwG$1$[ebp], 0
  0054f	eb 1b		 jmp	 SHORT $LN95@OnRender
$LN94@OnRender:
  00551	f3 0f 59 0d 00
	00 00 00	 mulss	 xmm1, DWORD PTR __real@437f0000
  00559	f3 0f 58 0d 00
	00 00 00	 addss	 xmm1, DWORD PTR __real@3f000000
  00561	0f 28 c1	 movaps	 xmm0, xmm1
  00564	e8 00 00 00 00	 call	 __ftoui3
  00569	89 45 90	 mov	 DWORD PTR _dwG$1$[ebp], eax
$LN95@OnRender:

; 933  :     DWORD dwB = b >= 1.0f ? 0xff : b <= 0.0f ? 0x00 : (DWORD) (b * 255.0f + 0.5f);

  0056c	f3 0f 10 4f 0c	 movss	 xmm1, DWORD PTR [edi+12]
  00571	0f 57 c0	 xorps	 xmm0, xmm0
  00574	0f 2f 0d 00 00
	00 00		 comiss	 xmm1, DWORD PTR __real@3f800000
  0057b	72 07		 jb	 SHORT $LN100@OnRender
  0057d	be ff 00 00 00	 mov	 esi, 255		; 000000ffH
  00582	eb 26		 jmp	 SHORT $LN99@OnRender
$LN100@OnRender:
  00584	0f 2f c1	 comiss	 xmm0, xmm1
  00587	72 04		 jb	 SHORT $LN98@OnRender
  00589	33 f6		 xor	 esi, esi
  0058b	eb 1d		 jmp	 SHORT $LN99@OnRender
$LN98@OnRender:
  0058d	f3 0f 59 0d 00
	00 00 00	 mulss	 xmm1, DWORD PTR __real@437f0000
  00595	f3 0f 58 0d 00
	00 00 00	 addss	 xmm1, DWORD PTR __real@3f000000
  0059d	0f 28 c1	 movaps	 xmm0, xmm1
  005a0	e8 00 00 00 00	 call	 __ftoui3
  005a5	8b f0		 mov	 esi, eax
  005a7	0f 57 c0	 xorps	 xmm0, xmm0
$LN99@OnRender:

; 934  :     DWORD dwA = a >= 1.0f ? 0xff : a <= 0.0f ? 0x00 : (DWORD) (a * 255.0f + 0.5f);

  005aa	f3 0f 10 4f 10	 movss	 xmm1, DWORD PTR [edi+16]
  005af	0f 2f 0d 00 00
	00 00		 comiss	 xmm1, DWORD PTR __real@3f800000
  005b6	72 07		 jb	 SHORT $LN104@OnRender
  005b8	b8 ff 00 00 00	 mov	 eax, 255		; 000000ffH
  005bd	eb 21		 jmp	 SHORT $LN103@OnRender
$LN104@OnRender:
  005bf	0f 2f c1	 comiss	 xmm0, xmm1
  005c2	72 04		 jb	 SHORT $LN102@OnRender
  005c4	33 c0		 xor	 eax, eax
  005c6	eb 18		 jmp	 SHORT $LN103@OnRender
$LN102@OnRender:
  005c8	f3 0f 59 0d 00
	00 00 00	 mulss	 xmm1, DWORD PTR __real@437f0000
  005d0	f3 0f 58 0d 00
	00 00 00	 addss	 xmm1, DWORD PTR __real@3f000000
  005d8	0f 28 c1	 movaps	 xmm0, xmm1
  005db	e8 00 00 00 00	 call	 __ftoui3
$LN103@OnRender:

; 936  :     return (dwA << 24) | (dwR << 16) | (dwG << 8) | dwB;

  005e0	c1 e0 08	 shl	 eax, 8
  005e3	0f 57 c0	 xorps	 xmm0, xmm0
  005e6	0b 45 8c	 or	 eax, DWORD PTR _dwR$1$[ebp]
  005e9	c1 e0 08	 shl	 eax, 8
  005ec	0b 45 90	 or	 eax, DWORD PTR _dwG$1$[ebp]
  005ef	c1 e0 08	 shl	 eax, 8
  005f2	0b c6		 or	 eax, esi
; File C:\Users\murat\Desktop\Siveps2-1-99-Project\source\client\Client\EterLib\GrpExpandedImageInstance.cpp

; 224  : 	if (0.0f == m_fRotation)

  005f4	0f 2e 47 34	 ucomiss xmm0, DWORD PTR [edi+52]
  005f8	89 45 f0	 mov	 DWORD PTR _vertices$[ebp+84], eax
  005fb	9f		 lahf
  005fc	f6 c4 44	 test	 ah, 68			; 00000044H
  005ff	0f 8a f8 00 00
	00		 jp	 $LN9@OnRender

; 225  : 	{
; 226  : 		float fimgWidth = float(pImage->GetWidth()) * m_v2Scale.x;

  00605	8b 4d 84	 mov	 ecx, DWORD PTR _pImage$1$[ebp]
  00608	e8 00 00 00 00	 call	 ?GetWidth@CGraphicImage@@QBEHXZ ; CGraphicImage::GetWidth

; 227  : 		float fimgHeight = float(pImage->GetHeight()) * m_v2Scale.y;

  0060d	8b 4d 84	 mov	 ecx, DWORD PTR _pImage$1$[ebp]
  00610	66 0f 6e c0	 movd	 xmm0, eax
  00614	0f 5b c0	 cvtdq2ps xmm0, xmm0
  00617	f3 0f 59 47 2c	 mulss	 xmm0, DWORD PTR [edi+44]
  0061c	f3 0f 11 45 80	 movss	 DWORD PTR _fimgWidth$1$[ebp], xmm0
  00621	e8 00 00 00 00	 call	 ?GetHeight@CGraphicImage@@QBEHXZ ; CGraphicImage::GetHeight
  00626	66 0f 6e 5f 38	 movd	 xmm3, DWORD PTR [edi+56]

; 228  : 
; 229  : 		vertices[0].position.x -= m_RenderingRect.left;

  0062b	f3 0f 10 45 9c	 movss	 xmm0, DWORD PTR _vertices$[ebp]
  00630	66 0f 6e 4f 3c	 movd	 xmm1, DWORD PTR [edi+60]
  00635	66 0f 6e 57 40	 movd	 xmm2, DWORD PTR [edi+64]
  0063a	0f 5b db	 cvtdq2ps xmm3, xmm3

; 230  : 		vertices[0].position.y -= m_RenderingRect.top;

  0063d	0f 5b c9	 cvtdq2ps xmm1, xmm1
  00640	f3 0f 5c c3	 subss	 xmm0, xmm3
  00644	f3 0f 10 6f 30	 movss	 xmm5, DWORD PTR [edi+48]

; 231  : 		vertices[1].position.x += fimgWidth + m_RenderingRect.right;

  00649	0f 5b d2	 cvtdq2ps xmm2, xmm2
  0064c	f3 0f 11 45 9c	 movss	 DWORD PTR _vertices$[ebp], xmm0
  00651	f3 0f 10 45 a0	 movss	 xmm0, DWORD PTR _vertices$[ebp+4]
  00656	f3 0f 58 55 80	 addss	 xmm2, DWORD PTR _fimgWidth$1$[ebp]
  0065b	f3 0f 5c c1	 subss	 xmm0, xmm1
  0065f	66 0f 6e e0	 movd	 xmm4, eax
  00663	0f 5b e4	 cvtdq2ps xmm4, xmm4
  00666	f3 0f 11 45 a0	 movss	 DWORD PTR _vertices$[ebp+4], xmm0
  0066b	0f 28 c2	 movaps	 xmm0, xmm2
  0066e	f3 0f 58 45 b4	 addss	 xmm0, DWORD PTR _vertices$[ebp+24]

; 232  : 		vertices[1].position.y -= m_RenderingRect.top;
; 233  : 		vertices[2].position.x -= m_RenderingRect.left;
; 234  : 		vertices[2].position.y += fimgHeight + m_RenderingRect.bottom;
; 235  : 		vertices[3].position.x += fimgWidth + m_RenderingRect.right;

  00673	f3 0f 58 55 e4	 addss	 xmm2, DWORD PTR _vertices$[ebp+72]
  00678	f3 0f 59 e5	 mulss	 xmm4, xmm5
  0067c	f3 0f 11 45 b4	 movss	 DWORD PTR _vertices$[ebp+24], xmm0
  00681	f3 0f 10 45 b8	 movss	 xmm0, DWORD PTR _vertices$[ebp+28]
  00686	f3 0f 5c c1	 subss	 xmm0, xmm1
  0068a	f3 0f 11 55 e4	 movss	 DWORD PTR _vertices$[ebp+72], xmm2
  0068f	66 0f 6e 4f 44	 movd	 xmm1, DWORD PTR [edi+68]
  00694	0f 5b c9	 cvtdq2ps xmm1, xmm1
  00697	f3 0f 11 45 b8	 movss	 DWORD PTR _vertices$[ebp+28], xmm0
  0069c	f3 0f 10 45 cc	 movss	 xmm0, DWORD PTR _vertices$[ebp+48]
  006a1	f3 0f 58 cc	 addss	 xmm1, xmm4
  006a5	f3 0f 5c c3	 subss	 xmm0, xmm3
  006a9	f3 0f 11 45 cc	 movss	 DWORD PTR _vertices$[ebp+48], xmm0
  006ae	0f 28 c1	 movaps	 xmm0, xmm1
  006b1	f3 0f 58 45 d0	 addss	 xmm0, DWORD PTR _vertices$[ebp+52]

; 236  : 		vertices[3].position.y += fimgHeight + m_RenderingRect.bottom;

  006b6	f3 0f 58 4d e8	 addss	 xmm1, DWORD PTR _vertices$[ebp+76]
  006bb	f3 0f 11 45 d0	 movss	 DWORD PTR _vertices$[ebp+52], xmm0
  006c0	0f 57 c0	 xorps	 xmm0, xmm0
  006c3	f3 0f 11 4d e8	 movss	 DWORD PTR _vertices$[ebp+76], xmm1

; 237  : 		if ((0.0f < m_v2Scale.x && 0.0f > m_v2Scale.y) || (0.0f > m_v2Scale.x && 0.0f < m_v2Scale.y)) {

  006c8	f3 0f 10 4f 2c	 movss	 xmm1, DWORD PTR [edi+44]
  006cd	0f 2f c8	 comiss	 xmm1, xmm0
  006d0	76 05		 jbe	 SHORT $LN13@OnRender
  006d2	0f 2f c5	 comiss	 xmm0, xmm5
  006d5	77 12		 ja	 SHORT $LN12@OnRender
$LN13@OnRender:
  006d7	0f 2f c1	 comiss	 xmm0, xmm1
  006da	0f 86 c8 01 00
	00		 jbe	 $LN10@OnRender
  006e0	0f 2f e8	 comiss	 xmm5, xmm0
  006e3	0f 86 bf 01 00
	00		 jbe	 $LN10@OnRender
$LN12@OnRender:

; 238  : 			STATEMANAGER.SetRenderState(D3DRS_CULLMODE, D3DCULL_CCW);

  006e9	8b 0d 00 00 00
	00		 mov	 ecx, DWORD PTR ?ms_singleton@?$CSingleton@VCStateManager@@@@0PAVCStateManager@@A ; CSingleton<CStateManager>::ms_singleton
  006ef	6a 03		 push	 3
  006f1	6a 16		 push	 22			; 00000016H
  006f3	e8 00 00 00 00	 call	 ?SetRenderState@CStateManager@@QAEXW4_D3DRENDERSTATETYPE@@K@Z ; CStateManager::SetRenderState

; 239  : 		}
; 240  : 	}

  006f8	e9 ab 01 00 00	 jmp	 $LN10@OnRender
$LN9@OnRender:

; 241  : 	else
; 242  : 	{
; 243  : 		float fimgHalfWidth = float(pImage->GetWidth())/2.0f * m_v2Scale.x;

  006fd	8b 75 84	 mov	 esi, DWORD PTR _pImage$1$[ebp]
  00700	8b ce		 mov	 ecx, esi
  00702	e8 00 00 00 00	 call	 ?GetWidth@CGraphicImage@@QBEHXZ ; CGraphicImage::GetWidth

; 244  : 		float fimgHalfHeight = float(pImage->GetHeight())/2.0f * m_v2Scale.y;

  00707	8b ce		 mov	 ecx, esi
  00709	66 0f 6e c0	 movd	 xmm0, eax
  0070d	0f 5b c0	 cvtdq2ps xmm0, xmm0
  00710	f3 0f 59 05 00
	00 00 00	 mulss	 xmm0, DWORD PTR __real@3f000000
  00718	f3 0f 59 47 2c	 mulss	 xmm0, DWORD PTR [edi+44]
  0071d	f3 0f 11 45 84	 movss	 DWORD PTR _fimgHalfWidth$1$[ebp], xmm0
  00722	e8 00 00 00 00	 call	 ?GetHeight@CGraphicImage@@QBEHXZ ; CGraphicImage::GetHeight
  00727	66 0f 6e c0	 movd	 xmm0, eax
  0072b	0f 5b c0	 cvtdq2ps xmm0, xmm0
  0072e	f3 0f 59 05 00
	00 00 00	 mulss	 xmm0, DWORD PTR __real@3f000000
  00736	f3 0f 59 47 30	 mulss	 xmm0, DWORD PTR [edi+48]
  0073b	f3 0f 11 45 80	 movss	 DWORD PTR _fimgHalfHeight$1$[ebp], xmm0

; 245  : 
; 246  : 		for (int i = 0; i < 4; ++i)
; 247  : 		{
; 248  : 			vertices[i].position.x += m_v2Origin.x;
; 249  : 			vertices[i].position.y += m_v2Origin.y;
; 250  : 		}
; 251  : 
; 252  : 		float fRadian = D3DXToRadian(m_fRotation);

  00740	f3 0f 10 47 34	 movss	 xmm0, DWORD PTR [edi+52]
  00745	f3 0f 59 05 00
	00 00 00	 mulss	 xmm0, DWORD PTR __real@3c8efa35
; File C:\Program Files (x86)\Windows Kits\10\Include\10.0.19041.0\ucrt\corecrt_math.h

; 647  :             return (float)cos(_X);

  0074d	0f 5a c0	 cvtps2pd xmm0, xmm0
  00750	f2 0f 11 85 70
	ff ff ff	 movsd	 QWORD PTR tv2055[ebp], xmm0
  00758	e8 00 00 00 00	 call	 __libm_sse2_cos_precise
  0075d	0f 57 c9	 xorps	 xmm1, xmm1
  00760	f2 0f 5a c8	 cvtsd2ss xmm1, xmm0
; File C:\Users\murat\Desktop\Siveps2-1-99-Project\source\client\Client\EterLib\GrpExpandedImageInstance.cpp

; 253  : 		vertices[0].position.x += (-fimgHalfWidth*cosf(fRadian)) - (-fimgHalfHeight*sinf(fRadian));

  00764	f3 0f 10 45 84	 movss	 xmm0, DWORD PTR _fimgHalfWidth$1$[ebp]
  00769	0f 57 05 00 00
	00 00		 xorps	 xmm0, DWORD PTR __xmm@80000000800000008000000080000000
  00770	f3 0f 11 45 88	 movss	 DWORD PTR tv2013[ebp], xmm0
  00775	f3 0f 59 c1	 mulss	 xmm0, xmm1
; File C:\Program Files (x86)\Windows Kits\10\Include\10.0.19041.0\ucrt\corecrt_math.h

; 647  :             return (float)cos(_X);

  00779	f3 0f 11 4d 98	 movss	 DWORD PTR tv2026[ebp], xmm1
; File C:\Users\murat\Desktop\Siveps2-1-99-Project\source\client\Client\EterLib\GrpExpandedImageInstance.cpp

; 253  : 		vertices[0].position.x += (-fimgHalfWidth*cosf(fRadian)) - (-fimgHalfHeight*sinf(fRadian));

  0077e	f3 0f 11 85 78
	ff ff ff	 movss	 DWORD PTR tv2021[ebp], xmm0
; File C:\Program Files (x86)\Windows Kits\10\Include\10.0.19041.0\ucrt\corecrt_math.h

; 748  :             return (float)sin(_X);

  00786	f2 0f 10 85 70
	ff ff ff	 movsd	 xmm0, QWORD PTR tv2055[ebp]
  0078e	e8 00 00 00 00	 call	 __libm_sse2_sin_precise
; File C:\Users\murat\Desktop\Siveps2-1-99-Project\source\client\Client\EterLib\GrpExpandedImageInstance.cpp

; 253  : 		vertices[0].position.x += (-fimgHalfWidth*cosf(fRadian)) - (-fimgHalfHeight*sinf(fRadian));

  00793	f3 0f 10 7d 80	 movss	 xmm7, DWORD PTR _fimgHalfHeight$1$[ebp]
; File C:\Program Files (x86)\Windows Kits\10\Include\10.0.19041.0\ucrt\corecrt_math.h

; 748  :             return (float)sin(_X);

  00798	0f 57 ed	 xorps	 xmm5, xmm5
; File C:\Users\murat\Desktop\Siveps2-1-99-Project\source\client\Client\EterLib\GrpExpandedImageInstance.cpp

; 253  : 		vertices[0].position.x += (-fimgHalfWidth*cosf(fRadian)) - (-fimgHalfHeight*sinf(fRadian));

  0079b	f3 0f 10 a5 78
	ff ff ff	 movss	 xmm4, DWORD PTR tv2021[ebp]
  007a3	0f 28 d7	 movaps	 xmm2, xmm7
  007a6	0f 57 15 00 00
	00 00		 xorps	 xmm2, DWORD PTR __xmm@80000000800000008000000080000000
  007ad	f3 0f 10 4d 9c	 movss	 xmm1, DWORD PTR _vertices$[ebp]
  007b2	f3 0f 58 4f 24	 addss	 xmm1, DWORD PTR [edi+36]
; File C:\Program Files (x86)\Windows Kits\10\Include\10.0.19041.0\ucrt\corecrt_math.h

; 748  :             return (float)sin(_X);

  007b7	f2 0f 5a e8	 cvtsd2ss xmm5, xmm0
; File C:\Users\murat\Desktop\Siveps2-1-99-Project\source\client\Client\EterLib\GrpExpandedImageInstance.cpp

; 254  : 		vertices[0].position.y += (-fimgHalfWidth*sinf(fRadian)) + (-fimgHalfHeight*cosf(fRadian));

  007bb	f3 0f 10 5d 98	 movss	 xmm3, DWORD PTR tv2026[ebp]
  007c0	0f 28 c4	 movaps	 xmm0, xmm4
  007c3	f3 0f 59 d5	 mulss	 xmm2, xmm5
  007c7	f3 0f 59 df	 mulss	 xmm3, xmm7
  007cb	f3 0f 5c c2	 subss	 xmm0, xmm2
  007cf	f3 0f 58 c8	 addss	 xmm1, xmm0
  007d3	f3 0f 10 45 a0	 movss	 xmm0, DWORD PTR _vertices$[ebp+4]
  007d8	f3 0f 58 47 28	 addss	 xmm0, DWORD PTR [edi+40]
  007dd	f3 0f 11 4d 9c	 movss	 DWORD PTR _vertices$[ebp], xmm1
  007e2	f3 0f 10 4d 88	 movss	 xmm1, DWORD PTR tv2013[ebp]
  007e7	f3 0f 59 cd	 mulss	 xmm1, xmm5
  007eb	f3 0f 5c cb	 subss	 xmm1, xmm3
  007ef	f3 0f 58 c8	 addss	 xmm1, xmm0

; 255  : 		vertices[1].position.x += (+fimgHalfWidth*cosf(fRadian)) - (-fimgHalfHeight*sinf(fRadian));

  007f3	f3 0f 10 45 98	 movss	 xmm0, DWORD PTR tv2026[ebp]
  007f8	f3 0f 59 45 84	 mulss	 xmm0, DWORD PTR _fimgHalfWidth$1$[ebp]
  007fd	f3 0f 11 4d a0	 movss	 DWORD PTR _vertices$[ebp+4], xmm1
  00802	f3 0f 10 4d b4	 movss	 xmm1, DWORD PTR _vertices$[ebp+24]
  00807	f3 0f 58 4f 24	 addss	 xmm1, DWORD PTR [edi+36]
  0080c	f3 0f 11 45 98	 movss	 DWORD PTR tv2026[ebp], xmm0
  00811	f3 0f 5c c2	 subss	 xmm0, xmm2

; 256  : 		vertices[1].position.y += (+fimgHalfWidth*sinf(fRadian)) + (-fimgHalfHeight*cosf(fRadian));

  00815	0f 28 d5	 movaps	 xmm2, xmm5

; 257  : 		vertices[2].position.x += (-fimgHalfWidth*cosf(fRadian)) - (+fimgHalfHeight*sinf(fRadian));

  00818	f3 0f 59 ef	 mulss	 xmm5, xmm7
  0081c	f3 0f 59 55 84	 mulss	 xmm2, DWORD PTR _fimgHalfWidth$1$[ebp]
  00821	f3 0f 58 c8	 addss	 xmm1, xmm0
  00825	f3 0f 5c e5	 subss	 xmm4, xmm5
  00829	0f 28 c2	 movaps	 xmm0, xmm2
  0082c	f3 0f 5c c3	 subss	 xmm0, xmm3
  00830	f3 0f 11 4d b4	 movss	 DWORD PTR _vertices$[ebp+24], xmm1
  00835	f3 0f 10 4d b8	 movss	 xmm1, DWORD PTR _vertices$[ebp+28]
  0083a	f3 0f 58 4f 28	 addss	 xmm1, DWORD PTR [edi+40]
  0083f	f3 0f 58 c8	 addss	 xmm1, xmm0
  00843	f3 0f 10 45 cc	 movss	 xmm0, DWORD PTR _vertices$[ebp+48]
  00848	f3 0f 58 47 24	 addss	 xmm0, DWORD PTR [edi+36]
  0084d	f3 0f 11 4d b8	 movss	 DWORD PTR _vertices$[ebp+28], xmm1
  00852	f3 0f 10 4d d0	 movss	 xmm1, DWORD PTR _vertices$[ebp+52]
  00857	f3 0f 58 c4	 addss	 xmm0, xmm4
  0085b	f3 0f 58 4f 28	 addss	 xmm1, DWORD PTR [edi+40]
  00860	f3 0f 11 45 cc	 movss	 DWORD PTR _vertices$[ebp+48], xmm0

; 258  : 		vertices[2].position.y += (-fimgHalfWidth*sinf(fRadian)) + (+fimgHalfHeight*cosf(fRadian));

  00865	0f 28 c3	 movaps	 xmm0, xmm3
  00868	f3 0f 5c c2	 subss	 xmm0, xmm2
  0086c	f3 0f 58 c8	 addss	 xmm1, xmm0
  00870	f3 0f 11 4d d0	 movss	 DWORD PTR _vertices$[ebp+52], xmm1

; 259  : 		vertices[3].position.x += (+fimgHalfWidth*cosf(fRadian)) - (+fimgHalfHeight*sinf(fRadian));

  00875	f3 0f 10 4d 98	 movss	 xmm1, DWORD PTR tv2026[ebp]
  0087a	f3 0f 10 45 e4	 movss	 xmm0, DWORD PTR _vertices$[ebp+72]
  0087f	f3 0f 5c cd	 subss	 xmm1, xmm5
  00883	f3 0f 58 47 24	 addss	 xmm0, DWORD PTR [edi+36]

; 260  : 		vertices[3].position.y += (+fimgHalfWidth*sinf(fRadian)) + (+fimgHalfHeight*cosf(fRadian));

  00888	f3 0f 58 d3	 addss	 xmm2, xmm3
  0088c	f3 0f 58 c8	 addss	 xmm1, xmm0
  00890	f3 0f 10 45 e8	 movss	 xmm0, DWORD PTR _vertices$[ebp+76]
  00895	f3 0f 58 47 28	 addss	 xmm0, DWORD PTR [edi+40]
  0089a	f3 0f 11 4d e4	 movss	 DWORD PTR _vertices$[ebp+72], xmm1
  0089f	f3 0f 58 d0	 addss	 xmm2, xmm0
  008a3	f3 0f 11 55 e8	 movss	 DWORD PTR _vertices$[ebp+76], xmm2
$LN10@OnRender:

; 261  : 	}
; 262  : 
; 263  : 	switch (m_iRenderingMode)

  008a8	8b 47 48	 mov	 eax, DWORD PTR [edi+72]
  008ab	83 e8 01	 sub	 eax, 1
  008ae	74 1d		 je	 SHORT $LN14@OnRender
  008b0	83 e8 01	 sub	 eax, 1
  008b3	74 18		 je	 SHORT $LN14@OnRender
  008b5	83 e8 01	 sub	 eax, 1
  008b8	75 31		 jne	 SHORT $LN5@OnRender

; 269  : 			break;
; 270  : 		case RENDERING_MODE_MODULATE:
; 271  : 			STATEMANAGER.SaveRenderState(D3DRS_SRCBLEND, D3DBLEND_ZERO);

  008ba	8b 0d 00 00 00
	00		 mov	 ecx, DWORD PTR ?ms_singleton@?$CSingleton@VCStateManager@@@@0PAVCStateManager@@A ; CSingleton<CStateManager>::ms_singleton
  008c0	6a 01		 push	 1
  008c2	6a 13		 push	 19			; 00000013H
  008c4	e8 00 00 00 00	 call	 ?SaveRenderState@CStateManager@@QAEXW4_D3DRENDERSTATETYPE@@K@Z ; CStateManager::SaveRenderState

; 272  : 			STATEMANAGER.SaveRenderState(D3DRS_DESTBLEND, D3DBLEND_SRCCOLOR);

  008c9	6a 03		 push	 3
  008cb	eb 11		 jmp	 SHORT $LN151@OnRender
$LN14@OnRender:

; 264  : 	{
; 265  : 		case RENDERING_MODE_SCREEN:
; 266  : 		case RENDERING_MODE_COLOR_DODGE:
; 267  : 			STATEMANAGER.SaveRenderState(D3DRS_SRCBLEND, D3DBLEND_INVDESTCOLOR);

  008cd	8b 0d 00 00 00
	00		 mov	 ecx, DWORD PTR ?ms_singleton@?$CSingleton@VCStateManager@@@@0PAVCStateManager@@A ; CSingleton<CStateManager>::ms_singleton
  008d3	6a 0a		 push	 10			; 0000000aH
  008d5	6a 13		 push	 19			; 00000013H
  008d7	e8 00 00 00 00	 call	 ?SaveRenderState@CStateManager@@QAEXW4_D3DRENDERSTATETYPE@@K@Z ; CStateManager::SaveRenderState

; 268  : 			STATEMANAGER.SaveRenderState(D3DRS_DESTBLEND, D3DBLEND_ONE);

  008dc	6a 02		 push	 2
$LN151@OnRender:

; 273  : 			break;
; 274  : 	}
; 275  : 
; 276  : 	// 2004.11.18.myevan.ctrl+alt+del    
; 277  : 	if (CGraphicBase::SetPDTStream(vertices, 4))

  008de	8b 0d 00 00 00
	00		 mov	 ecx, DWORD PTR ?ms_singleton@?$CSingleton@VCStateManager@@@@0PAVCStateManager@@A ; CSingleton<CStateManager>::ms_singleton
  008e4	6a 14		 push	 20			; 00000014H
  008e6	e8 00 00 00 00	 call	 ?SaveRenderState@CStateManager@@QAEXW4_D3DRENDERSTATETYPE@@K@Z ; CStateManager::SaveRenderState
$LN5@OnRender:
  008eb	8d 45 9c	 lea	 eax, DWORD PTR _vertices$[ebp]
  008ee	6a 04		 push	 4
  008f0	50		 push	 eax
  008f1	e8 00 00 00 00	 call	 ?SetPDTStream@CGraphicBase@@SA_NPAUSPDTVertex@@I@Z ; CGraphicBase::SetPDTStream
  008f6	83 c4 08	 add	 esp, 8
  008f9	84 c0		 test	 al, al
  008fb	74 57		 je	 SHORT $LN17@OnRender

; 278  : 	{
; 279  : 		CGraphicBase::SetDefaultIndexBuffer(CGraphicBase::DEFAULT_IB_FILL_RECT);

  008fd	6a 05		 push	 5
  008ff	e8 00 00 00 00	 call	 ?SetDefaultIndexBuffer@CGraphicBase@@SAXI@Z ; CGraphicBase::SetDefaultIndexBuffer

; 280  : 
; 281  : 		STATEMANAGER.SetTexture(0, pTexture->GetD3DTexture());

  00904	8b 8d 7c ff ff
	ff		 mov	 ecx, DWORD PTR _pTexture$1$[ebp]
  0090a	83 c4 04	 add	 esp, 4
  0090d	e8 00 00 00 00	 call	 ?GetD3DTexture@CGraphicTexture@@QBEPAUIDirect3DTexture8@@XZ ; CGraphicTexture::GetD3DTexture
  00912	8b 0d 00 00 00
	00		 mov	 ecx, DWORD PTR ?ms_singleton@?$CSingleton@VCStateManager@@@@0PAVCStateManager@@A ; CSingleton<CStateManager>::ms_singleton
  00918	50		 push	 eax
  00919	6a 00		 push	 0
  0091b	e8 00 00 00 00	 call	 ?SetTexture@CStateManager@@QAEXKPAUIDirect3DBaseTexture8@@@Z ; CStateManager::SetTexture

; 282  : 		STATEMANAGER.SetTexture(1, NULL);

  00920	8b 0d 00 00 00
	00		 mov	 ecx, DWORD PTR ?ms_singleton@?$CSingleton@VCStateManager@@@@0PAVCStateManager@@A ; CSingleton<CStateManager>::ms_singleton
  00926	6a 00		 push	 0
  00928	6a 01		 push	 1
  0092a	e8 00 00 00 00	 call	 ?SetTexture@CStateManager@@QAEXKPAUIDirect3DBaseTexture8@@@Z ; CStateManager::SetTexture

; 283  : 		STATEMANAGER.SetVertexShader(D3DFVF_XYZ|D3DFVF_DIFFUSE|D3DFVF_TEX1);

  0092f	8b 0d 00 00 00
	00		 mov	 ecx, DWORD PTR ?ms_singleton@?$CSingleton@VCStateManager@@@@0PAVCStateManager@@A ; CSingleton<CStateManager>::ms_singleton
  00935	68 42 01 00 00	 push	 322			; 00000142H
  0093a	e8 00 00 00 00	 call	 ?SetVertexShader@CStateManager@@QAEXK@Z ; CStateManager::SetVertexShader

; 284  : 		STATEMANAGER.DrawIndexedPrimitive(D3DPT_TRIANGLELIST, 0, 4, 0, 2);

  0093f	8b 0d 00 00 00
	00		 mov	 ecx, DWORD PTR ?ms_singleton@?$CSingleton@VCStateManager@@@@0PAVCStateManager@@A ; CSingleton<CStateManager>::ms_singleton
  00945	6a 02		 push	 2
  00947	6a 00		 push	 0
  00949	6a 04		 push	 4
  0094b	6a 00		 push	 0
  0094d	6a 04		 push	 4
  0094f	e8 00 00 00 00	 call	 ?DrawIndexedPrimitive@CStateManager@@QAEJW4_D3DPRIMITIVETYPE@@IIII@Z ; CStateManager::DrawIndexedPrimitive
$LN17@OnRender:

; 285  : 	}
; 286  : 	//STATEMANAGER.DrawIndexedPrimitiveUP(D3DPT_TRIANGLELIST, 0, 4, 2, c_FillRectIndices, D3DFMT_INDEX16, vertices, sizeof(TPDTVertex));
; 287  : 	/////////////////////////////////////////////////////////////
; 288  : 
; 289  : 	switch (m_iRenderingMode)

  00954	8b 47 48	 mov	 eax, DWORD PTR [edi+72]
  00957	5f		 pop	 edi
  00958	5e		 pop	 esi
  00959	83 e8 01	 sub	 eax, 1
  0095c	74 0a		 je	 SHORT $LN18@OnRender
  0095e	83 e8 01	 sub	 eax, 1
  00961	74 05		 je	 SHORT $LN18@OnRender
  00963	83 e8 01	 sub	 eax, 1
  00966	75 1a		 jne	 SHORT $LN7@OnRender
$LN18@OnRender:

; 290  : 	{
; 291  : 		case RENDERING_MODE_SCREEN:
; 292  : 		case RENDERING_MODE_COLOR_DODGE:
; 293  : 		case RENDERING_MODE_MODULATE:
; 294  : 			STATEMANAGER.RestoreRenderState(D3DRS_SRCBLEND);

  00968	8b 0d 00 00 00
	00		 mov	 ecx, DWORD PTR ?ms_singleton@?$CSingleton@VCStateManager@@@@0PAVCStateManager@@A ; CSingleton<CStateManager>::ms_singleton
  0096e	6a 13		 push	 19			; 00000013H
  00970	e8 00 00 00 00	 call	 ?RestoreRenderState@CStateManager@@QAEXW4_D3DRENDERSTATETYPE@@@Z ; CStateManager::RestoreRenderState

; 295  : 			STATEMANAGER.RestoreRenderState(D3DRS_DESTBLEND);

  00975	8b 0d 00 00 00
	00		 mov	 ecx, DWORD PTR ?ms_singleton@?$CSingleton@VCStateManager@@@@0PAVCStateManager@@A ; CSingleton<CStateManager>::ms_singleton
  0097b	6a 14		 push	 20			; 00000014H
  0097d	e8 00 00 00 00	 call	 ?RestoreRenderState@CStateManager@@QAEXW4_D3DRENDERSTATETYPE@@@Z ; CStateManager::RestoreRenderState
$LN7@OnRender:

; 296  : 			break;
; 297  : 	}
; 298  : 	STATEMANAGER.SetRenderState(D3DRS_CULLMODE, D3DCULL_CW);

  00982	8b 0d 00 00 00
	00		 mov	 ecx, DWORD PTR ?ms_singleton@?$CSingleton@VCStateManager@@@@0PAVCStateManager@@A ; CSingleton<CStateManager>::ms_singleton
  00988	6a 02		 push	 2
  0098a	6a 16		 push	 22			; 00000016H
  0098c	e8 00 00 00 00	 call	 ?SetRenderState@CStateManager@@QAEXW4_D3DRENDERSTATETYPE@@K@Z ; CStateManager::SetRenderState

; 299  : }

  00991	8b 4d fc	 mov	 ecx, DWORD PTR __$ArrayPad$[ebp]
  00994	33 cd		 xor	 ecx, ebp
  00996	e8 00 00 00 00	 call	 @__security_check_cookie@4
  0099b	8b e5		 mov	 esp, ebp
  0099d	5d		 pop	 ebp
  0099e	c3		 ret	 0
?OnRender@CGraphicExpandedImageInstance@@MAEXXZ ENDP	; CGraphicExpandedImageInstance::OnRender
_TEXT	ENDS
; Function compile flags: /Ogtp
; File C:\Users\murat\Desktop\Siveps2-1-99-Project\source\client\Client\EterLib\GrpExpandedImageInstance.cpp
;	COMDAT ?Initialize@CGraphicExpandedImageInstance@@IAEXXZ
_TEXT	SEGMENT
?Initialize@CGraphicExpandedImageInstance@@IAEXXZ PROC	; CGraphicExpandedImageInstance::Initialize, COMDAT
; _this$ = ecx

; 370  : {

  00000	0f 57 c0	 xorps	 xmm0, xmm0

; 371  : 	m_iRenderingMode = RENDERING_MODE_NORMAL;

  00003	c7 41 48 00 00
	00 00		 mov	 DWORD PTR [ecx+72], 0

; 372  : 	m_fDepth = 0.0f;

  0000a	c7 41 20 00 00
	00 00		 mov	 DWORD PTR [ecx+32], 0

; 373  : 	m_v2Origin.x = m_v2Origin.y = 0.0f;

  00011	c7 41 28 00 00
	00 00		 mov	 DWORD PTR [ecx+40], 0
  00018	c7 41 24 00 00
	00 00		 mov	 DWORD PTR [ecx+36], 0

; 374  : 	m_v2Scale.x = m_v2Scale.y = 1.0f;

  0001f	c7 41 30 00 00
	80 3f		 mov	 DWORD PTR [ecx+48], 1065353216 ; 3f800000H
  00026	c7 41 2c 00 00
	80 3f		 mov	 DWORD PTR [ecx+44], 1065353216 ; 3f800000H

; 375  : 	m_fRotation = 0.0f;

  0002d	c7 41 34 00 00
	00 00		 mov	 DWORD PTR [ecx+52], 0

; 376  : 	memset(&m_RenderingRect, 0, sizeof(RECT));

  00034	0f 11 41 38	 movups	 XMMWORD PTR [ecx+56], xmm0

; 377  : }

  00038	c3		 ret	 0
?Initialize@CGraphicExpandedImageInstance@@IAEXXZ ENDP	; CGraphicExpandedImageInstance::Initialize
_TEXT	ENDS
; Function compile flags: /Ogtp
; File C:\Users\murat\Desktop\Siveps2-1-99-Project\source\client\Client\EterLib\GrpExpandedImageInstance.cpp
;	COMDAT ?RenderCoolTime@CGraphicExpandedImageInstance@@QAEXM@Z
_TEXT	SEGMENT
_fCoolTime$ = 8						; size = 4
?RenderCoolTime@CGraphicExpandedImageInstance@@QAEXM@Z PROC ; CGraphicExpandedImageInstance::RenderCoolTime, COMDAT
; _this$ = ecx

; 14   : {

  00000	55		 push	 ebp
  00001	8b ec		 mov	 ebp, esp
  00003	56		 push	 esi
  00004	8b f1		 mov	 esi, ecx

; 15   : 	if (IsEmpty())

  00006	e8 00 00 00 00	 call	 ?IsEmpty@CGraphicImageInstance@@QBE_NXZ ; CGraphicImageInstance::IsEmpty
  0000b	84 c0		 test	 al, al
  0000d	75 12		 jne	 SHORT $LN1@RenderCool

; 16   : 		return;
; 17   : 
; 18   : 	assert(!IsEmpty());
; 19   : 
; 20   : 	OnRenderCoolTime(fCoolTime);

  0000f	8b 06		 mov	 eax, DWORD PTR [esi]
  00011	f3 0f 10 45 08	 movss	 xmm0, DWORD PTR _fCoolTime$[ebp]
  00016	51		 push	 ecx
  00017	8b ce		 mov	 ecx, esi
  00019	f3 0f 11 04 24	 movss	 DWORD PTR [esp], xmm0
  0001e	ff 50 04	 call	 DWORD PTR [eax+4]
$LN1@RenderCool:
  00021	5e		 pop	 esi

; 21   : }

  00022	5d		 pop	 ebp
  00023	c2 04 00	 ret	 4
?RenderCoolTime@CGraphicExpandedImageInstance@@QAEXM@Z ENDP ; CGraphicExpandedImageInstance::RenderCoolTime
_TEXT	ENDS
; Function compile flags: /Ogtp
; File C:\Users\murat\Desktop\Siveps2-1-99-Project\source\client\Client\EterLib\GrpExpandedImageInstance.cpp
; File C:\Users\murat\Desktop\Siveps2-1-99-Project\source\client\extern\include\d3dx8math.inl
; File C:\Users\murat\Desktop\Siveps2-1-99-Project\source\client\Client\EterLib\GrpExpandedImageInstance.cpp
; File C:\Users\murat\Desktop\Siveps2-1-99-Project\source\client\extern\include\d3dx8math.inl
; File C:\Users\murat\Desktop\Siveps2-1-99-Project\source\client\Client\EterLib\GrpExpandedImageInstance.cpp
; File C:\Users\murat\Desktop\Siveps2-1-99-Project\source\client\extern\include\d3dx8math.inl
; File C:\Users\murat\Desktop\Siveps2-1-99-Project\source\client\Client\EterLib\GrpExpandedImageInstance.cpp
; File C:\Users\murat\Desktop\Siveps2-1-99-Project\source\client\extern\include\d3dx8math.inl
; File C:\Users\murat\Desktop\Siveps2-1-99-Project\source\client\Client\EterLib\GrpExpandedImageInstance.cpp
; File C:\Program Files (x86)\Microsoft Visual Studio\2019\Professional\VC\Tools\MSVC\14.29.30133\include\vector
; File C:\Users\murat\Desktop\Siveps2-1-99-Project\source\client\extern\include\d3dx8math.inl
; File C:\Program Files (x86)\Microsoft Visual Studio\2019\Professional\VC\Tools\MSVC\14.29.30133\include\vector
; File C:\Users\murat\Desktop\Siveps2-1-99-Project\source\client\extern\include\d3dx8math.inl
; File C:\Users\murat\Desktop\Siveps2-1-99-Project\source\client\Client\EterLib\GrpExpandedImageInstance.cpp
; File C:\Users\murat\Desktop\Siveps2-1-99-Project\source\client\extern\include\d3dx8math.inl
; File C:\Program Files (x86)\Microsoft Visual Studio\2019\Professional\VC\Tools\MSVC\14.29.30133\include\vector
; File C:\Users\murat\Desktop\Siveps2-1-99-Project\source\client\extern\include\d3dx8math.inl
; File C:\Users\murat\Desktop\Siveps2-1-99-Project\source\client\Client\EterLib\GrpExpandedImageInstance.cpp
; File C:\Users\murat\Desktop\Siveps2-1-99-Project\source\client\extern\include\d3dx8math.inl
; File C:\Users\murat\Desktop\Siveps2-1-99-Project\source\client\Client\EterLib\GrpExpandedImageInstance.cpp
; File C:\Users\murat\Desktop\Siveps2-1-99-Project\source\client\extern\include\d3dx8math.inl
; File C:\Users\murat\Desktop\Siveps2-1-99-Project\source\client\Client\EterLib\GrpExpandedImageInstance.cpp
; File C:\Users\murat\Desktop\Siveps2-1-99-Project\source\client\extern\include\d3dx8math.inl
; File C:\Users\murat\Desktop\Siveps2-1-99-Project\source\client\Client\EterLib\GrpExpandedImageInstance.cpp
; File C:\Users\murat\Desktop\Siveps2-1-99-Project\source\client\extern\include\d3dx8math.inl
; File C:\Users\murat\Desktop\Siveps2-1-99-Project\source\client\Client\EterLib\GrpExpandedImageInstance.cpp
; File C:\Users\murat\Desktop\Siveps2-1-99-Project\source\client\extern\include\d3dx8math.inl
; File C:\Users\murat\Desktop\Siveps2-1-99-Project\source\client\Client\EterLib\GrpExpandedImageInstance.cpp
; File C:\Users\murat\Desktop\Siveps2-1-99-Project\source\client\extern\include\d3dx8math.inl
; File C:\Users\murat\Desktop\Siveps2-1-99-Project\source\client\Client\EterLib\GrpExpandedImageInstance.cpp
; File C:\Users\murat\Desktop\Siveps2-1-99-Project\source\client\extern\include\d3dx8math.inl
; File C:\Program Files (x86)\Microsoft Visual Studio\2019\Professional\VC\Tools\MSVC\14.29.30133\include\vector
; File C:\Users\murat\Desktop\Siveps2-1-99-Project\source\client\extern\include\d3dx8math.inl
; File C:\Users\murat\Desktop\Siveps2-1-99-Project\source\client\Client\EterLib\GrpExpandedImageInstance.cpp
; File C:\Program Files (x86)\Microsoft Visual Studio\2019\Professional\VC\Tools\MSVC\14.29.30133\include\vector
; File C:\Users\murat\Desktop\Siveps2-1-99-Project\source\client\Client\EterLib\GrpExpandedImageInstance.cpp
; File C:\Users\murat\Desktop\Siveps2-1-99-Project\source\client\extern\include\d3dx8math.inl
; File C:\Users\murat\Desktop\Siveps2-1-99-Project\source\client\Client\EterLib\GrpExpandedImageInstance.cpp
; File C:\Users\murat\Desktop\Siveps2-1-99-Project\source\client\extern\include\d3dx8math.inl
; File C:\Program Files (x86)\Microsoft Visual Studio\2019\Professional\VC\Tools\MSVC\14.29.30133\include\vector
; File C:\Users\murat\Desktop\Siveps2-1-99-Project\source\client\Client\EterLib\GrpExpandedImageInstance.cpp
; File C:\Program Files (x86)\Microsoft Visual Studio\2019\Professional\VC\Tools\MSVC\14.29.30133\include\vector
; File C:\Program Files (x86)\Microsoft Visual Studio\2019\Professional\VC\Tools\MSVC\14.29.30133\include\xmemory
; File C:\Program Files (x86)\Microsoft Visual Studio\2019\Professional\VC\Tools\MSVC\14.29.30133\include\vector
; File C:\Users\murat\Desktop\Siveps2-1-99-Project\source\client\Client\EterLib\GrpExpandedImageInstance.cpp
; File C:\Users\murat\Desktop\Siveps2-1-99-Project\source\client\extern\include\d3dx8math.inl
; File C:\Users\murat\Desktop\Siveps2-1-99-Project\source\client\Client\EterLib\GrpExpandedImageInstance.cpp
; File C:\Users\murat\Desktop\Siveps2-1-99-Project\source\client\extern\include\d3dx8math.inl
; File C:\Users\murat\Desktop\Siveps2-1-99-Project\source\client\Client\EterLib\GrpExpandedImageInstance.cpp
; File C:\Users\murat\Desktop\Siveps2-1-99-Project\source\client\extern\include\d3dx8math.inl
; File C:\Users\murat\Desktop\Siveps2-1-99-Project\source\client\Client\EterLib\GrpExpandedImageInstance.cpp
; File C:\Users\murat\Desktop\Siveps2-1-99-Project\source\client\extern\include\d3dx8math.inl
; File C:\Users\murat\Desktop\Siveps2-1-99-Project\source\client\Client\EterLib\GrpExpandedImageInstance.cpp
; File C:\Program Files (x86)\Microsoft Visual Studio\2019\Professional\VC\Tools\MSVC\14.29.30133\include\vector
; File C:\Program Files (x86)\Microsoft Visual Studio\2019\Professional\VC\Tools\MSVC\14.29.30133\include\xmemory
; File C:\Program Files (x86)\Microsoft Visual Studio\2019\Professional\VC\Tools\MSVC\14.29.30133\include\vector
; File C:\Users\murat\Desktop\Siveps2-1-99-Project\source\client\Client\EterLib\GrpExpandedImageInstance.cpp
; File C:\Users\murat\Desktop\Siveps2-1-99-Project\source\client\extern\include\d3dx8math.inl
; File C:\Users\murat\Desktop\Siveps2-1-99-Project\source\client\Client\EterLib\GrpExpandedImageInstance.cpp
; File C:\Users\murat\Desktop\Siveps2-1-99-Project\source\client\extern\include\d3dx8math.inl
; File C:\Users\murat\Desktop\Siveps2-1-99-Project\source\client\Client\EterLib\GrpExpandedImageInstance.cpp
; File C:\Program Files (x86)\Microsoft Visual Studio\2019\Professional\VC\Tools\MSVC\14.29.30133\include\vector
; File C:\Program Files (x86)\Microsoft Visual Studio\2019\Professional\VC\Tools\MSVC\14.29.30133\include\xmemory
; File C:\Program Files (x86)\Microsoft Visual Studio\2019\Professional\VC\Tools\MSVC\14.29.30133\include\vector
; File C:\Users\murat\Desktop\Siveps2-1-99-Project\source\client\Client\EterLib\GrpExpandedImageInstance.cpp
; File C:\Program Files (x86)\Microsoft Visual Studio\2019\Professional\VC\Tools\MSVC\14.29.30133\include\vector
; File C:\Users\murat\Desktop\Siveps2-1-99-Project\source\client\Client\EterLib\GrpExpandedImageInstance.cpp
; File C:\Program Files (x86)\Microsoft Visual Studio\2019\Professional\VC\Tools\MSVC\14.29.30133\include\vector
; File C:\Program Files (x86)\Microsoft Visual Studio\2019\Professional\VC\Tools\MSVC\14.29.30133\include\xmemory
; File C:\Users\murat\Desktop\Siveps2-1-99-Project\source\client\Client\EterLib\GrpExpandedImageInstance.cpp
; File C:\Program Files (x86)\Microsoft Visual Studio\2019\Professional\VC\Tools\MSVC\14.29.30133\include\vector
; File C:\Users\murat\Desktop\Siveps2-1-99-Project\source\client\Client\EterLib\GrpExpandedImageInstance.cpp
; File C:\Program Files (x86)\Microsoft Visual Studio\2019\Professional\VC\Tools\MSVC\14.29.30133\include\vector
; File C:\Users\murat\Desktop\Siveps2-1-99-Project\source\client\Client\EterLib\GrpExpandedImageInstance.cpp
; File C:\Program Files (x86)\Microsoft Visual Studio\2019\Professional\VC\Tools\MSVC\14.29.30133\include\vector
; File C:\Program Files (x86)\Microsoft Visual Studio\2019\Professional\VC\Tools\MSVC\14.29.30133\include\xmemory
; File C:\Users\murat\Desktop\Siveps2-1-99-Project\source\client\Client\EterLib\GrpExpandedImageInstance.cpp
; File C:\Program Files (x86)\Microsoft Visual Studio\2019\Professional\VC\Tools\MSVC\14.29.30133\include\xmemory
; File C:\Users\murat\Desktop\Siveps2-1-99-Project\source\client\Client\EterLib\GrpExpandedImageInstance.cpp
;	COMDAT ?OnRenderCoolTime@CGraphicExpandedImageInstance@@UAEXM@Z
_TEXT	SEGMENT
_pTexture$1$ = -240					; size = 4
_fLastPercentage$1$ = -236				; size = 4
_fyCenter$1$ = -232					; size = 4
_fimgHeightHalf$1$ = -228				; size = 4
_fxCenter$1$ = -224					; size = 4
_dwB$1$ = -220						; size = 4
_su$1$ = -216						; size = 4
_c_rRect$1$ = -216					; size = 4
_fimgWidthHalf$1$ = -212				; size = 4
_texReverseWidth$1$ = -212				; size = 4
_fCoolTime$1$ = -208					; size = 4
_j$1$ = -208						; size = 4
_vertex$6 = -204					; size = 24
_vertices$7 = -180					; size = 12
_ev$1$ = -168						; size = 4
_dwR$1$ = -168						; size = 4
_sv$1$ = -164						; size = 4
_dwG$1$ = -164						; size = 4
_eu$1$ = -160						; size = 4
_dwB$1$ = -160						; size = 4
_dwR$1$ = -156						; size = 4
_dwR$1$ = -156						; size = 4
_dwG$1$ = -156						; size = 4
_dwG$1$ = -152						; size = 4
_dwG$1$ = -152						; size = 4
_dwR$1$ = -152						; size = 4
_this$GSCopy$1$ = -148					; size = 4
_iTriCount$1$ = -148					; size = 4
_v2BoxPos$8 = -144					; size = 64
_v2TexPos$9 = -80					; size = 64
__$ArrayPad$ = -16					; size = 4
__$EHRec$ = -12						; size = 12
_fCoolTime$ = 8						; size = 4
?OnRenderCoolTime@CGraphicExpandedImageInstance@@UAEXM@Z PROC ; CGraphicExpandedImageInstance::OnRenderCoolTime, COMDAT
; _this$ = ecx

; 24   : {

  00000	55		 push	 ebp
  00001	8b ec		 mov	 ebp, esp
  00003	6a ff		 push	 -1
  00005	68 00 00 00 00	 push	 __ehhandler$?OnRenderCoolTime@CGraphicExpandedImageInstance@@UAEXM@Z
  0000a	64 a1 00 00 00
	00		 mov	 eax, DWORD PTR fs:0
  00010	50		 push	 eax
  00011	81 ec e4 00 00
	00		 sub	 esp, 228		; 000000e4H
  00017	a1 00 00 00 00	 mov	 eax, DWORD PTR ___security_cookie
  0001c	33 c5		 xor	 eax, ebp
  0001e	89 45 f0	 mov	 DWORD PTR __$ArrayPad$[ebp], eax
  00021	56		 push	 esi
  00022	57		 push	 edi
  00023	50		 push	 eax
  00024	8d 45 f4	 lea	 eax, DWORD PTR __$EHRec$[ebp]
  00027	64 a3 00 00 00
	00		 mov	 DWORD PTR fs:0, eax
  0002d	8b c1		 mov	 eax, ecx
  0002f	89 85 6c ff ff
	ff		 mov	 DWORD PTR _this$GSCopy$1$[ebp], eax

; 25   : 	if (fCoolTime >= 1.0f)

  00035	f3 0f 10 05 00
	00 00 00	 movss	 xmm0, DWORD PTR __real@3f800000
  0003d	f3 0f 5d 45 08	 minss	 xmm0, DWORD PTR _fCoolTime$[ebp]

; 26   : 		fCoolTime = 1.0f;
; 27   : 
; 28   : 	CGraphicImage * pImage = m_roImage.GetPointer();

  00042	8b 70 1c	 mov	 esi, DWORD PTR [eax+28]

; 29   : 	CGraphicTexture * pTexture = pImage->GetTexturePointer();

  00045	8b ce		 mov	 ecx, esi
  00047	f3 0f 11 85 30
	ff ff ff	 movss	 DWORD PTR _fCoolTime$1$[ebp], xmm0
  0004f	e8 00 00 00 00	 call	 ?GetTexturePointer@CGraphicImage@@QAEPAVCGraphicTexture@@XZ ; CGraphicImage::GetTexturePointer
  00054	8b f8		 mov	 edi, eax

; 30   : 
; 31   : 	const RECT& c_rRect = pImage->GetRectReference();

  00056	8b ce		 mov	 ecx, esi
  00058	89 bd 10 ff ff
	ff		 mov	 DWORD PTR _pTexture$1$[ebp], edi
  0005e	e8 00 00 00 00	 call	 ?GetRectReference@CGraphicImage@@QBEABUtagRECT@@XZ ; CGraphicImage::GetRectReference

; 32   : 	float texReverseWidth = 1.0f / float(pTexture->GetWidth());

  00063	8b cf		 mov	 ecx, edi
  00065	89 85 28 ff ff
	ff		 mov	 DWORD PTR _c_rRect$1$[ebp], eax
  0006b	e8 00 00 00 00	 call	 ?GetWidth@CGraphicTexture@@QBEHXZ ; CGraphicTexture::GetWidth
  00070	f3 0f 10 0d 00
	00 00 00	 movss	 xmm1, DWORD PTR __real@3f800000

; 33   : 	float texReverseHeight = 1.0f / float(pTexture->GetHeight());

  00078	8b cf		 mov	 ecx, edi
  0007a	66 0f 6e c0	 movd	 xmm0, eax
  0007e	0f 5b c0	 cvtdq2ps xmm0, xmm0
  00081	f3 0f 5e c8	 divss	 xmm1, xmm0
  00085	f3 0f 11 8d 2c
	ff ff ff	 movss	 DWORD PTR _texReverseWidth$1$[ebp], xmm1
  0008d	e8 00 00 00 00	 call	 ?GetHeight@CGraphicTexture@@QBEHXZ ; CGraphicTexture::GetHeight

; 34   : 
; 35   : 	float su = (c_rRect.left - m_RenderingRect.left) * texReverseWidth;

  00092	8b 8d 28 ff ff
	ff		 mov	 ecx, DWORD PTR _c_rRect$1$[ebp]
  00098	8b 95 6c ff ff
	ff		 mov	 edx, DWORD PTR _this$GSCopy$1$[ebp]
  0009e	f3 0f 10 35 00
	00 00 00	 movss	 xmm6, DWORD PTR __real@3f800000
  000a6	66 0f 6e c0	 movd	 xmm0, eax
  000aa	0f 28 ce	 movaps	 xmm1, xmm6
  000ad	8b 39		 mov	 edi, DWORD PTR [ecx]
  000af	8b c7		 mov	 eax, edi
  000b1	2b 42 38	 sub	 eax, DWORD PTR [edx+56]

; 36   : 	float sv = (c_rRect.top - m_RenderingRect.top) * texReverseHeight;

  000b4	8b 71 04	 mov	 esi, DWORD PTR [ecx+4]
  000b7	0f 5b c0	 cvtdq2ps xmm0, xmm0
  000ba	66 0f 6e d0	 movd	 xmm2, eax
  000be	8b c6		 mov	 eax, esi
  000c0	2b 42 3c	 sub	 eax, DWORD PTR [edx+60]

; 37   : 	float eu = (c_rRect.right + m_RenderingRect.right) * texReverseWidth;

  000c3	8b 51 08	 mov	 edx, DWORD PTR [ecx+8]

; 38   : 	float ev = (c_rRect.bottom + m_RenderingRect.bottom) * texReverseHeight;

  000c6	8b 49 0c	 mov	 ecx, DWORD PTR [ecx+12]
  000c9	f3 0f 5e c8	 divss	 xmm1, xmm0
  000cd	0f 5b d2	 cvtdq2ps xmm2, xmm2
  000d0	66 0f 6e d8	 movd	 xmm3, eax
  000d4	f3 0f 59 95 2c
	ff ff ff	 mulss	 xmm2, DWORD PTR _texReverseWidth$1$[ebp]
  000dc	8b 85 6c ff ff
	ff		 mov	 eax, DWORD PTR _this$GSCopy$1$[ebp]

; 39   : 
; 40   : 	float fimgWidth = c_rRect.right - c_rRect.left;
; 41   : 	float fimgHeight = c_rRect.bottom - c_rRect.top;
; 42   : 	float fimgWidthHalf = fimgWidth * 0.5f;

  000e2	f3 0f 10 25 00
	00 00 00	 movss	 xmm4, DWORD PTR __real@3f000000
  000ea	0f 5b db	 cvtdq2ps xmm3, xmm3
  000ed	8b 40 40	 mov	 eax, DWORD PTR [eax+64]
  000f0	03 c2		 add	 eax, edx
  000f2	2b d7		 sub	 edx, edi

; 43   : 	float fimgHeightHalf = fimgHeight * 0.5f;
; 44   : 
; 45   : 	float fxCenter = m_v2Position.x - 0.5f + fimgWidthHalf;

  000f4	8b bd 6c ff ff
	ff		 mov	 edi, DWORD PTR _this$GSCopy$1$[ebp]
  000fa	f3 0f 11 95 28
	ff ff ff	 movss	 DWORD PTR _su$1$[ebp], xmm2
  00102	f3 0f 59 d9	 mulss	 xmm3, xmm1
  00106	66 0f 6e d0	 movd	 xmm2, eax
  0010a	8b 85 6c ff ff
	ff		 mov	 eax, DWORD PTR _this$GSCopy$1$[ebp]

; 46   : 	float fyCenter = m_v2Position.y - 0.5f + fimgHeightHalf;

  00110	f3 0f 10 7f 18	 movss	 xmm7, DWORD PTR [edi+24]
  00115	0f 5b d2	 cvtdq2ps xmm2, xmm2
  00118	8b 40 44	 mov	 eax, DWORD PTR [eax+68]
  0011b	03 c1		 add	 eax, ecx
  0011d	2b ce		 sub	 ecx, esi
  0011f	f3 0f 5c fc	 subss	 xmm7, xmm4
  00123	f3 0f 11 9d 5c
	ff ff ff	 movss	 DWORD PTR _sv$1$[ebp], xmm3
  0012b	f3 0f 59 95 2c
	ff ff ff	 mulss	 xmm2, DWORD PTR _texReverseWidth$1$[ebp]
  00133	66 0f 6e c0	 movd	 xmm0, eax
  00137	0f 5b c0	 cvtdq2ps xmm0, xmm0
  0013a	f3 0f 11 95 60
	ff ff ff	 movss	 DWORD PTR _eu$1$[ebp], xmm2
  00142	f3 0f 59 c1	 mulss	 xmm0, xmm1
  00146	f3 0f 10 4f 14	 movss	 xmm1, DWORD PTR [edi+20]
  0014b	66 0f 6e d2	 movd	 xmm2, edx
  0014f	f3 0f 5c cc	 subss	 xmm1, xmm4
  00153	f3 0f 11 85 58
	ff ff ff	 movss	 DWORD PTR _ev$1$[ebp], xmm0
  0015b	66 0f 6e c1	 movd	 xmm0, ecx
  0015f	0f 5b c0	 cvtdq2ps xmm0, xmm0
  00162	0f 5b d2	 cvtdq2ps xmm2, xmm2
  00165	f3 0f 59 c4	 mulss	 xmm0, xmm4
  00169	f3 0f 59 d4	 mulss	 xmm2, xmm4
  0016d	f3 0f 58 f8	 addss	 xmm7, xmm0
  00171	f3 0f 11 85 1c
	ff ff ff	 movss	 DWORD PTR _fimgHeightHalf$1$[ebp], xmm0

; 47   : 
; 48   : 	if (fCoolTime < 1.0f)

  00179	f3 0f 10 85 30
	ff ff ff	 movss	 xmm0, DWORD PTR _fCoolTime$1$[ebp]
  00181	0f 2f f0	 comiss	 xmm6, xmm0
  00184	f3 0f 58 ca	 addss	 xmm1, xmm2
  00188	f3 0f 11 95 2c
	ff ff ff	 movss	 DWORD PTR _fimgWidthHalf$1$[ebp], xmm2
  00190	f3 0f 11 bd 18
	ff ff ff	 movss	 DWORD PTR _fyCenter$1$[ebp], xmm7
  00198	f3 0f 11 8d 20
	ff ff ff	 movss	 DWORD PTR _fxCenter$1$[ebp], xmm1
  001a0	0f 86 c2 0a 00
	00		 jbe	 $LN220@OnRenderCo

; 69   : 			D3DXVECTOR2(su, 0.5f * (ev + sv)),

  001a6	f3 0f 10 ad 58
	ff ff ff	 movss	 xmm5, DWORD PTR _ev$1$[ebp]
  001ae	0f 57 d2	 xorps	 xmm2, xmm2
  001b1	f3 0f 5f d0	 maxss	 xmm2, xmm0
; File C:\Users\murat\Desktop\Siveps2-1-99-Project\source\client\extern\include\d3dx8math.inl

; 41   :     x = fx;

  001b5	f3 0f 10 b5 28
	ff ff ff	 movss	 xmm6, DWORD PTR _su$1$[ebp]
  001bd	0f 28 05 00 00
	00 00		 movaps	 xmm0, XMMWORD PTR __xmm@00000000bf800000bf800000bf800000

; 42   :     y = fy;

  001c4	f3 0f 11 5d b4	 movss	 DWORD PTR _v2TexPos$9[ebp+4], xmm3
; File C:\Users\murat\Desktop\Siveps2-1-99-Project\source\client\Client\EterLib\GrpExpandedImageInstance.cpp

; 69   : 			D3DXVECTOR2(su, 0.5f * (ev + sv)),

  001c9	0f 28 dd	 movaps	 xmm3, xmm5
; File C:\Users\murat\Desktop\Siveps2-1-99-Project\source\client\extern\include\d3dx8math.inl

; 42   :     y = fy;

  001cc	f3 0f 11 6d c4	 movss	 DWORD PTR _v2TexPos$9[ebp+20], xmm5
  001d1	f3 0f 11 6d cc	 movss	 DWORD PTR _v2TexPos$9[ebp+28], xmm5

; 41   :     x = fx;

  001d6	f3 0f 10 ad 60
	ff ff ff	 movss	 xmm5, DWORD PTR _eu$1$[ebp]
; File C:\Users\murat\Desktop\Siveps2-1-99-Project\source\client\Client\EterLib\GrpExpandedImageInstance.cpp

; 71   : 			D3DXVECTOR2(0.5f * (su + eu), ev),

  001de	f3 0f 10 8d 60
	ff ff ff	 movss	 xmm1, DWORD PTR _eu$1$[ebp]
; File C:\Users\murat\Desktop\Siveps2-1-99-Project\source\client\extern\include\d3dx8math.inl

; 41   :     x = fx;

  001e6	f3 0f 11 6d d0	 movss	 DWORD PTR _v2TexPos$9[ebp+32], xmm5
; File C:\Users\murat\Desktop\Siveps2-1-99-Project\source\client\Client\EterLib\GrpExpandedImageInstance.cpp

; 71   : 			D3DXVECTOR2(0.5f * (su + eu), ev),

  001eb	f3 0f 58 ce	 addss	 xmm1, xmm6
; File C:\Users\murat\Desktop\Siveps2-1-99-Project\source\client\extern\include\d3dx8math.inl

; 41   :     x = fx;

  001ef	f3 0f 11 6d d8	 movss	 DWORD PTR _v2TexPos$9[ebp+40], xmm5
  001f4	f3 0f 11 6d e0	 movss	 DWORD PTR _v2TexPos$9[ebp+48], xmm5
; File C:\Users\murat\Desktop\Siveps2-1-99-Project\source\client\Client\EterLib\GrpExpandedImageInstance.cpp

; 78   : 		int iTriCount = int(8.0f - 8.0f * fCoolTime);

  001f9	f3 0f 10 2d 00
	00 00 00	 movss	 xmm5, DWORD PTR __real@41000000
  00201	f3 0f 59 d5	 mulss	 xmm2, xmm5
; File C:\Program Files (x86)\Microsoft Visual Studio\2019\Professional\VC\Tools\MSVC\14.29.30133\include\vector

; 401  :     _CONSTEXPR20_CONTAINER _Vector_val() noexcept : _Myfirst(), _Mylast(), _Myend() {}

  00205	c7 85 4c ff ff
	ff 00 00 00 00	 mov	 DWORD PTR _vertices$7[ebp], 0
; File C:\Users\murat\Desktop\Siveps2-1-99-Project\source\client\extern\include\d3dx8math.inl

; 41   :     x = fx;

  0020f	0f 11 85 70 ff
	ff ff		 movups	 XMMWORD PTR _v2BoxPos$8[ebp], xmm0
; File C:\Program Files (x86)\Microsoft Visual Studio\2019\Professional\VC\Tools\MSVC\14.29.30133\include\vector

; 401  :     _CONSTEXPR20_CONTAINER _Vector_val() noexcept : _Myfirst(), _Mylast(), _Myend() {}

  00216	c7 85 50 ff ff
	ff 00 00 00 00	 mov	 DWORD PTR _vertices$7[ebp+4], 0
; File C:\Users\murat\Desktop\Siveps2-1-99-Project\source\client\extern\include\d3dx8math.inl

; 41   :     x = fx;

  00220	0f 28 05 00 00
	00 00		 movaps	 xmm0, XMMWORD PTR __xmm@3f800000000000003f800000bf800000
; File C:\Users\murat\Desktop\Siveps2-1-99-Project\source\client\Client\EterLib\GrpExpandedImageInstance.cpp

; 78   : 		int iTriCount = int(8.0f - 8.0f * fCoolTime);

  00227	f3 0f 5c ea	 subss	 xmm5, xmm2
; File C:\Users\murat\Desktop\Siveps2-1-99-Project\source\client\extern\include\d3dx8math.inl

; 41   :     x = fx;

  0022b	0f 11 45 80	 movups	 XMMWORD PTR _v2BoxPos$8[ebp+16], xmm0
; File C:\Program Files (x86)\Microsoft Visual Studio\2019\Professional\VC\Tools\MSVC\14.29.30133\include\vector

; 401  :     _CONSTEXPR20_CONTAINER _Vector_val() noexcept : _Myfirst(), _Mylast(), _Myend() {}

  0022f	c7 85 54 ff ff
	ff 00 00 00 00	 mov	 DWORD PTR _vertices$7[ebp+8], 0
; File C:\Users\murat\Desktop\Siveps2-1-99-Project\source\client\extern\include\d3dx8math.inl

; 42   :     y = fy;

  00239	0f 28 05 00 00
	00 00		 movaps	 xmm0, XMMWORD PTR __xmm@000000003f8000003f8000003f800000
  00240	0f 11 45 90	 movups	 XMMWORD PTR _v2BoxPos$8[ebp+32], xmm0

; 41   :     x = fx;

  00244	0f 28 05 00 00
	00 00		 movaps	 xmm0, XMMWORD PTR __xmm@bf80000000000000bf8000003f800000
; File C:\Users\murat\Desktop\Siveps2-1-99-Project\source\client\Client\EterLib\GrpExpandedImageInstance.cpp

; 78   : 		int iTriCount = int(8.0f - 8.0f * fCoolTime);

  0024b	f3 0f 2c c5	 cvttss2si eax, xmm5
; File C:\Users\murat\Desktop\Siveps2-1-99-Project\source\client\extern\include\d3dx8math.inl

; 41   :     x = fx;

  0024f	0f 11 45 a0	 movups	 XMMWORD PTR _v2BoxPos$8[ebp+48], xmm0
; File C:\Users\murat\Desktop\Siveps2-1-99-Project\source\client\Client\EterLib\GrpExpandedImageInstance.cpp

; 78   : 		int iTriCount = int(8.0f - 8.0f * fCoolTime);

  00253	89 85 6c ff ff
	ff		 mov	 DWORD PTR _iTriCount$1$[ebp], eax
  00259	f3 0f 10 85 5c
	ff ff ff	 movss	 xmm0, DWORD PTR _sv$1$[ebp]
  00261	f3 0f 58 d8	 addss	 xmm3, xmm0
; File C:\Users\murat\Desktop\Siveps2-1-99-Project\source\client\extern\include\d3dx8math.inl

; 42   :     y = fy;

  00265	f3 0f 11 45 e4	 movss	 DWORD PTR _v2TexPos$9[ebp+52], xmm0
  0026a	f3 0f 11 45 ec	 movss	 DWORD PTR _v2TexPos$9[ebp+60], xmm0
  0026f	66 0f 6e c0	 movd	 xmm0, eax
; File C:\Users\murat\Desktop\Siveps2-1-99-Project\source\client\Client\EterLib\GrpExpandedImageInstance.cpp

; 79   : 		float fLastPercentage = (8.0f - 8.0f * fCoolTime) - iTriCount;

  00273	0f 5b c0	 cvtdq2ps xmm0, xmm0
  00276	f3 0f 59 dc	 mulss	 xmm3, xmm4
  0027a	f3 0f 59 cc	 mulss	 xmm1, xmm4
  0027e	f3 0f 5c e8	 subss	 xmm5, xmm0
; File C:\Users\murat\Desktop\Siveps2-1-99-Project\source\client\extern\include\d3dx8math.inl

; 41   :     x = fx;

  00282	f3 0f 11 75 b0	 movss	 DWORD PTR _v2TexPos$9[ebp], xmm6
  00287	f3 0f 11 75 b8	 movss	 DWORD PTR _v2TexPos$9[ebp+8], xmm6
  0028c	f3 0f 11 75 c0	 movss	 DWORD PTR _v2TexPos$9[ebp+16], xmm6

; 42   :     y = fy;

  00291	f3 0f 10 b5 58
	ff ff ff	 movss	 xmm6, DWORD PTR _ev$1$[ebp]
  00299	f3 0f 11 5d bc	 movss	 DWORD PTR _v2TexPos$9[ebp+12], xmm3

; 41   :     x = fx;

  0029e	f3 0f 11 4d c8	 movss	 DWORD PTR _v2TexPos$9[ebp+24], xmm1

; 42   :     y = fy;

  002a3	f3 0f 11 75 d4	 movss	 DWORD PTR _v2TexPos$9[ebp+36], xmm6
  002a8	f3 0f 11 5d dc	 movss	 DWORD PTR _v2TexPos$9[ebp+44], xmm3

; 41   :     x = fx;

  002ad	f3 0f 11 4d e8	 movss	 DWORD PTR _v2TexPos$9[ebp+56], xmm1
; File C:\Users\murat\Desktop\Siveps2-1-99-Project\source\client\Client\EterLib\GrpExpandedImageInstance.cpp

; 79   : 		float fLastPercentage = (8.0f - 8.0f * fCoolTime) - iTriCount;

  002b2	f3 0f 11 ad 14
	ff ff ff	 movss	 DWORD PTR _fLastPercentage$1$[ebp], xmm5

; 83   : 		vertex.position = TPosition(fxCenter, fyCenter, m_fDepth);

  002ba	f3 0f 10 85 20
	ff ff ff	 movss	 xmm0, DWORD PTR _fxCenter$1$[ebp]
  002c2	0f 57 ed	 xorps	 xmm5, xmm5
; File C:\Users\murat\Desktop\Siveps2-1-99-Project\source\client\extern\include\d3dx8math.inl

; 931  :     DWORD dwR = r >= 1.0f ? 0xff : r <= 0.0f ? 0x00 : (DWORD) (r * 255.0f + 0.5f);

  002c5	f3 0f 10 35 00
	00 00 00	 movss	 xmm6, DWORD PTR __real@3f800000
; File C:\Users\murat\Desktop\Siveps2-1-99-Project\source\client\Client\EterLib\GrpExpandedImageInstance.cpp

; 83   : 		vertex.position = TPosition(fxCenter, fyCenter, m_fDepth);

  002cd	f3 0f 11 85 34
	ff ff ff	 movss	 DWORD PTR _vertex$6[ebp], xmm0
  002d5	f3 0f 10 47 20	 movss	 xmm0, DWORD PTR [edi+32]

; 84   : 		vertex.texCoord = TTextureCoordinate(0.5f * (su + eu), 0.5f * (ev + sv));

  002da	f3 0f 11 8d 44
	ff ff ff	 movss	 DWORD PTR _vertex$6[ebp+16], xmm1
; File C:\Users\murat\Desktop\Siveps2-1-99-Project\source\client\extern\include\d3dx8math.inl

; 931  :     DWORD dwR = r >= 1.0f ? 0xff : r <= 0.0f ? 0x00 : (DWORD) (r * 255.0f + 0.5f);

  002e2	f3 0f 10 4f 04	 movss	 xmm1, DWORD PTR [edi+4]
  002e7	0f 2f ce	 comiss	 xmm1, xmm6
; File C:\Users\murat\Desktop\Siveps2-1-99-Project\source\client\Client\EterLib\GrpExpandedImageInstance.cpp

; 81   : 		std::vector<TPDTVertex> vertices;

  002ea	c7 45 fc 00 00
	00 00		 mov	 DWORD PTR __$EHRec$[ebp+8], 0

; 83   : 		vertex.position = TPosition(fxCenter, fyCenter, m_fDepth);

  002f1	f3 0f 11 85 3c
	ff ff ff	 movss	 DWORD PTR _vertex$6[ebp+8], xmm0
; File C:\Users\murat\Desktop\Siveps2-1-99-Project\source\client\extern\include\d3dx8math.inl

; 931  :     DWORD dwR = r >= 1.0f ? 0xff : r <= 0.0f ? 0x00 : (DWORD) (r * 255.0f + 0.5f);

  002f9	f3 0f 10 05 00
	00 00 00	 movss	 xmm0, DWORD PTR __real@437f0000
; File C:\Users\murat\Desktop\Siveps2-1-99-Project\source\client\Client\EterLib\GrpExpandedImageInstance.cpp

; 83   : 		vertex.position = TPosition(fxCenter, fyCenter, m_fDepth);

  00301	f3 0f 11 bd 38
	ff ff ff	 movss	 DWORD PTR _vertex$6[ebp+4], xmm7

; 84   : 		vertex.texCoord = TTextureCoordinate(0.5f * (su + eu), 0.5f * (ev + sv));

  00309	f3 0f 11 9d 48
	ff ff ff	 movss	 DWORD PTR _vertex$6[ebp+20], xmm3
; File C:\Users\murat\Desktop\Siveps2-1-99-Project\source\client\extern\include\d3dx8math.inl

; 931  :     DWORD dwR = r >= 1.0f ? 0xff : r <= 0.0f ? 0x00 : (DWORD) (r * 255.0f + 0.5f);

  00311	72 0c		 jb	 SHORT $LN70@OnRenderCo
  00313	c7 85 68 ff ff
	ff ff 00 00 00	 mov	 DWORD PTR _dwR$1$[ebp], 255 ; 000000ffH
  0031d	eb 3f		 jmp	 SHORT $LN69@OnRenderCo
$LN70@OnRenderCo:
  0031f	0f 2f e9	 comiss	 xmm5, xmm1
  00322	72 0c		 jb	 SHORT $LN68@OnRenderCo
  00324	c7 85 68 ff ff
	ff 00 00 00 00	 mov	 DWORD PTR _dwR$1$[ebp], 0
  0032e	eb 2e		 jmp	 SHORT $LN69@OnRenderCo
$LN68@OnRenderCo:
  00330	f3 0f 59 c1	 mulss	 xmm0, xmm1
  00334	f3 0f 58 c4	 addss	 xmm0, xmm4
  00338	e8 00 00 00 00	 call	 __ftoui3
  0033d	f3 0f 10 25 00
	00 00 00	 movss	 xmm4, DWORD PTR __real@3f000000
  00345	0f 57 ed	 xorps	 xmm5, xmm5
  00348	f3 0f 10 05 00
	00 00 00	 movss	 xmm0, DWORD PTR __real@437f0000
  00350	f3 0f 10 35 00
	00 00 00	 movss	 xmm6, DWORD PTR __real@3f800000
  00358	89 85 68 ff ff
	ff		 mov	 DWORD PTR _dwR$1$[ebp], eax
$LN69@OnRenderCo:

; 932  :     DWORD dwG = g >= 1.0f ? 0xff : g <= 0.0f ? 0x00 : (DWORD) (g * 255.0f + 0.5f);

  0035e	f3 0f 10 4f 08	 movss	 xmm1, DWORD PTR [edi+8]
  00363	0f 2f ce	 comiss	 xmm1, xmm6
  00366	72 0c		 jb	 SHORT $LN74@OnRenderCo
  00368	c7 85 64 ff ff
	ff ff 00 00 00	 mov	 DWORD PTR _dwG$1$[ebp], 255 ; 000000ffH
  00372	eb 2c		 jmp	 SHORT $LN73@OnRenderCo
$LN74@OnRenderCo:
  00374	0f 2f e9	 comiss	 xmm5, xmm1
  00377	72 0c		 jb	 SHORT $LN72@OnRenderCo
  00379	c7 85 64 ff ff
	ff 00 00 00 00	 mov	 DWORD PTR _dwG$1$[ebp], 0
  00383	eb 1b		 jmp	 SHORT $LN73@OnRenderCo
$LN72@OnRenderCo:
  00385	f3 0f 59 c1	 mulss	 xmm0, xmm1
  00389	f3 0f 58 c4	 addss	 xmm0, xmm4
  0038d	e8 00 00 00 00	 call	 __ftoui3
  00392	f3 0f 10 35 00
	00 00 00	 movss	 xmm6, DWORD PTR __real@3f800000
  0039a	89 85 64 ff ff
	ff		 mov	 DWORD PTR _dwG$1$[ebp], eax
$LN73@OnRenderCo:

; 933  :     DWORD dwB = b >= 1.0f ? 0xff : b <= 0.0f ? 0x00 : (DWORD) (b * 255.0f + 0.5f);

  003a0	f3 0f 10 4f 0c	 movss	 xmm1, DWORD PTR [edi+12]
  003a5	0f 57 c0	 xorps	 xmm0, xmm0
  003a8	0f 2f ce	 comiss	 xmm1, xmm6
  003ab	72 07		 jb	 SHORT $LN78@OnRenderCo
  003ad	be ff 00 00 00	 mov	 esi, 255		; 000000ffH
  003b2	eb 2e		 jmp	 SHORT $LN77@OnRenderCo
$LN78@OnRenderCo:
  003b4	0f 2f c1	 comiss	 xmm0, xmm1
  003b7	72 04		 jb	 SHORT $LN76@OnRenderCo
  003b9	33 f6		 xor	 esi, esi
  003bb	eb 25		 jmp	 SHORT $LN77@OnRenderCo
$LN76@OnRenderCo:
  003bd	f3 0f 59 0d 00
	00 00 00	 mulss	 xmm1, DWORD PTR __real@437f0000
  003c5	f3 0f 58 0d 00
	00 00 00	 addss	 xmm1, DWORD PTR __real@3f000000
  003cd	0f 28 c1	 movaps	 xmm0, xmm1
  003d0	e8 00 00 00 00	 call	 __ftoui3
  003d5	f3 0f 10 35 00
	00 00 00	 movss	 xmm6, DWORD PTR __real@3f800000
  003dd	8b f0		 mov	 esi, eax
  003df	0f 57 c0	 xorps	 xmm0, xmm0
$LN77@OnRenderCo:

; 934  :     DWORD dwA = a >= 1.0f ? 0xff : a <= 0.0f ? 0x00 : (DWORD) (a * 255.0f + 0.5f);

  003e2	f3 0f 10 4f 10	 movss	 xmm1, DWORD PTR [edi+16]
  003e7	0f 2f ce	 comiss	 xmm1, xmm6
  003ea	72 07		 jb	 SHORT $LN82@OnRenderCo
  003ec	b8 ff 00 00 00	 mov	 eax, 255		; 000000ffH
  003f1	eb 21		 jmp	 SHORT $LN81@OnRenderCo
$LN82@OnRenderCo:
  003f3	0f 2f c1	 comiss	 xmm0, xmm1
  003f6	72 04		 jb	 SHORT $LN80@OnRenderCo
  003f8	33 c0		 xor	 eax, eax
  003fa	eb 18		 jmp	 SHORT $LN81@OnRenderCo
$LN80@OnRenderCo:
  003fc	f3 0f 59 0d 00
	00 00 00	 mulss	 xmm1, DWORD PTR __real@437f0000
  00404	f3 0f 58 0d 00
	00 00 00	 addss	 xmm1, DWORD PTR __real@3f000000
  0040c	0f 28 c1	 movaps	 xmm0, xmm1
  0040f	e8 00 00 00 00	 call	 __ftoui3
$LN81@OnRenderCo:

; 936  :     return (dwA << 24) | (dwR << 16) | (dwG << 8) | dwB;

  00414	c1 e0 08	 shl	 eax, 8
; File C:\Program Files (x86)\Microsoft Visual Studio\2019\Professional\VC\Tools\MSVC\14.29.30133\include\vector

; 747  :         _Ty& _Result = *_Emplace_reallocate(_Mylast, _STD forward<_Valty>(_Val)...);

  00417	8d 8d 4c ff ff
	ff		 lea	 ecx, DWORD PTR _vertices$7[ebp]
; File C:\Users\murat\Desktop\Siveps2-1-99-Project\source\client\extern\include\d3dx8math.inl

; 936  :     return (dwA << 24) | (dwR << 16) | (dwG << 8) | dwB;

  0041d	0b 85 68 ff ff
	ff		 or	 eax, DWORD PTR _dwR$1$[ebp]
  00423	c1 e0 08	 shl	 eax, 8
  00426	0b 85 64 ff ff
	ff		 or	 eax, DWORD PTR _dwG$1$[ebp]
  0042c	c1 e0 08	 shl	 eax, 8
  0042f	0b c6		 or	 eax, esi
; File C:\Users\murat\Desktop\Siveps2-1-99-Project\source\client\Client\EterLib\GrpExpandedImageInstance.cpp

; 85   : 		vertex.diffuse = m_DiffuseColor;

  00431	89 85 40 ff ff
	ff		 mov	 DWORD PTR _vertex$6[ebp+12], eax
; File C:\Program Files (x86)\Microsoft Visual Studio\2019\Professional\VC\Tools\MSVC\14.29.30133\include\vector

; 747  :         _Ty& _Result = *_Emplace_reallocate(_Mylast, _STD forward<_Valty>(_Val)...);

  00437	8d 85 34 ff ff
	ff		 lea	 eax, DWORD PTR _vertex$6[ebp]
  0043d	50		 push	 eax
  0043e	6a 00		 push	 0
  00440	e8 00 00 00 00	 call	 ??$_Emplace_reallocate@ABUSPDTVertex@@@?$vector@USPDTVertex@@V?$allocator@USPDTVertex@@@std@@@std@@QAEPAUSPDTVertex@@QAU2@ABU2@@Z ; std::vector<SPDTVertex,std::allocator<SPDTVertex> >::_Emplace_reallocate<SPDTVertex const &>
; File C:\Users\murat\Desktop\Siveps2-1-99-Project\source\client\Client\EterLib\GrpExpandedImageInstance.cpp

; 88   : 		vertex.position = TPosition(fxCenter, fyCenter - fimgHeightHalf, m_fDepth);

  00445	f3 0f 10 85 18
	ff ff ff	 movss	 xmm0, DWORD PTR _fyCenter$1$[ebp]
  0044d	f3 0f 5c 85 1c
	ff ff ff	 subss	 xmm0, DWORD PTR _fimgHeightHalf$1$[ebp]
; File C:\Users\murat\Desktop\Siveps2-1-99-Project\source\client\extern\include\d3dx8math.inl

; 931  :     DWORD dwR = r >= 1.0f ? 0xff : r <= 0.0f ? 0x00 : (DWORD) (r * 255.0f + 0.5f);

  00455	f3 0f 10 4f 04	 movss	 xmm1, DWORD PTR [edi+4]
  0045a	0f 2f 0d 00 00
	00 00		 comiss	 xmm1, DWORD PTR __real@3f800000
; File C:\Users\murat\Desktop\Siveps2-1-99-Project\source\client\Client\EterLib\GrpExpandedImageInstance.cpp

; 88   : 		vertex.position = TPosition(fxCenter, fyCenter - fimgHeightHalf, m_fDepth);

  00461	f3 0f 11 85 38
	ff ff ff	 movss	 DWORD PTR _vertex$6[ebp+4], xmm0
  00469	f3 0f 10 47 20	 movss	 xmm0, DWORD PTR [edi+32]
  0046e	f3 0f 11 85 3c
	ff ff ff	 movss	 DWORD PTR _vertex$6[ebp+8], xmm0

; 89   : 		vertex.texCoord = TTextureCoordinate(0.5f * (su + eu), sv);

  00476	f3 0f 10 85 5c
	ff ff ff	 movss	 xmm0, DWORD PTR _sv$1$[ebp]
  0047e	f3 0f 11 85 48
	ff ff ff	 movss	 DWORD PTR _vertex$6[ebp+20], xmm0
; File C:\Users\murat\Desktop\Siveps2-1-99-Project\source\client\extern\include\d3dx8math.inl

; 931  :     DWORD dwR = r >= 1.0f ? 0xff : r <= 0.0f ? 0x00 : (DWORD) (r * 255.0f + 0.5f);

  00486	0f 57 c0	 xorps	 xmm0, xmm0
  00489	72 0c		 jb	 SHORT $LN101@OnRenderCo
  0048b	c7 85 64 ff ff
	ff ff 00 00 00	 mov	 DWORD PTR _dwR$1$[ebp], 255 ; 000000ffH
  00495	eb 32		 jmp	 SHORT $LN100@OnRenderCo
$LN101@OnRenderCo:
  00497	0f 2f c1	 comiss	 xmm0, xmm1
  0049a	72 0c		 jb	 SHORT $LN99@OnRenderCo
  0049c	c7 85 64 ff ff
	ff 00 00 00 00	 mov	 DWORD PTR _dwR$1$[ebp], 0
  004a6	eb 21		 jmp	 SHORT $LN100@OnRenderCo
$LN99@OnRenderCo:
  004a8	f3 0f 59 0d 00
	00 00 00	 mulss	 xmm1, DWORD PTR __real@437f0000
  004b0	f3 0f 58 0d 00
	00 00 00	 addss	 xmm1, DWORD PTR __real@3f000000
  004b8	0f 28 c1	 movaps	 xmm0, xmm1
  004bb	e8 00 00 00 00	 call	 __ftoui3
  004c0	89 85 64 ff ff
	ff		 mov	 DWORD PTR _dwR$1$[ebp], eax
  004c6	0f 57 c0	 xorps	 xmm0, xmm0
$LN100@OnRenderCo:

; 932  :     DWORD dwG = g >= 1.0f ? 0xff : g <= 0.0f ? 0x00 : (DWORD) (g * 255.0f + 0.5f);

  004c9	f3 0f 10 4f 08	 movss	 xmm1, DWORD PTR [edi+8]
  004ce	0f 2f 0d 00 00
	00 00		 comiss	 xmm1, DWORD PTR __real@3f800000
  004d5	72 0c		 jb	 SHORT $LN105@OnRenderCo
  004d7	c7 85 68 ff ff
	ff ff 00 00 00	 mov	 DWORD PTR _dwG$1$[ebp], 255 ; 000000ffH
  004e1	eb 2f		 jmp	 SHORT $LN104@OnRenderCo
$LN105@OnRenderCo:
  004e3	0f 2f c1	 comiss	 xmm0, xmm1
  004e6	72 0c		 jb	 SHORT $LN103@OnRenderCo
  004e8	c7 85 68 ff ff
	ff 00 00 00 00	 mov	 DWORD PTR _dwG$1$[ebp], 0
  004f2	eb 1e		 jmp	 SHORT $LN104@OnRenderCo
$LN103@OnRenderCo:
  004f4	f3 0f 59 0d 00
	00 00 00	 mulss	 xmm1, DWORD PTR __real@437f0000
  004fc	f3 0f 58 0d 00
	00 00 00	 addss	 xmm1, DWORD PTR __real@3f000000
  00504	0f 28 c1	 movaps	 xmm0, xmm1
  00507	e8 00 00 00 00	 call	 __ftoui3
  0050c	89 85 68 ff ff
	ff		 mov	 DWORD PTR _dwG$1$[ebp], eax
$LN104@OnRenderCo:

; 933  :     DWORD dwB = b >= 1.0f ? 0xff : b <= 0.0f ? 0x00 : (DWORD) (b * 255.0f + 0.5f);

  00512	f3 0f 10 4f 0c	 movss	 xmm1, DWORD PTR [edi+12]
  00517	0f 57 c0	 xorps	 xmm0, xmm0
  0051a	0f 2f 0d 00 00
	00 00		 comiss	 xmm1, DWORD PTR __real@3f800000
  00521	72 07		 jb	 SHORT $LN109@OnRenderCo
  00523	be ff 00 00 00	 mov	 esi, 255		; 000000ffH
  00528	eb 26		 jmp	 SHORT $LN108@OnRenderCo
$LN109@OnRenderCo:
  0052a	0f 2f c1	 comiss	 xmm0, xmm1
  0052d	72 04		 jb	 SHORT $LN107@OnRenderCo
  0052f	33 f6		 xor	 esi, esi
  00531	eb 1d		 jmp	 SHORT $LN108@OnRenderCo
$LN107@OnRenderCo:
  00533	f3 0f 59 0d 00
	00 00 00	 mulss	 xmm1, DWORD PTR __real@437f0000
  0053b	f3 0f 58 0d 00
	00 00 00	 addss	 xmm1, DWORD PTR __real@3f000000
  00543	0f 28 c1	 movaps	 xmm0, xmm1
  00546	e8 00 00 00 00	 call	 __ftoui3
  0054b	8b f0		 mov	 esi, eax
  0054d	0f 57 c0	 xorps	 xmm0, xmm0
$LN108@OnRenderCo:

; 934  :     DWORD dwA = a >= 1.0f ? 0xff : a <= 0.0f ? 0x00 : (DWORD) (a * 255.0f + 0.5f);

  00550	f3 0f 10 4f 10	 movss	 xmm1, DWORD PTR [edi+16]
  00555	0f 2f 0d 00 00
	00 00		 comiss	 xmm1, DWORD PTR __real@3f800000
  0055c	72 07		 jb	 SHORT $LN113@OnRenderCo
  0055e	b8 ff 00 00 00	 mov	 eax, 255		; 000000ffH
  00563	eb 21		 jmp	 SHORT $LN112@OnRenderCo
$LN113@OnRenderCo:
  00565	0f 2f c1	 comiss	 xmm0, xmm1
  00568	72 04		 jb	 SHORT $LN111@OnRenderCo
  0056a	33 c0		 xor	 eax, eax
  0056c	eb 18		 jmp	 SHORT $LN112@OnRenderCo
$LN111@OnRenderCo:
  0056e	f3 0f 59 0d 00
	00 00 00	 mulss	 xmm1, DWORD PTR __real@437f0000
  00576	f3 0f 58 0d 00
	00 00 00	 addss	 xmm1, DWORD PTR __real@3f000000
  0057e	0f 28 c1	 movaps	 xmm0, xmm1
  00581	e8 00 00 00 00	 call	 __ftoui3
$LN112@OnRenderCo:

; 936  :     return (dwA << 24) | (dwR << 16) | (dwG << 8) | dwB;

  00586	c1 e0 08	 shl	 eax, 8
  00589	0b 85 64 ff ff
	ff		 or	 eax, DWORD PTR _dwR$1$[ebp]
  0058f	c1 e0 08	 shl	 eax, 8
  00592	0b 85 68 ff ff
	ff		 or	 eax, DWORD PTR _dwG$1$[ebp]
  00598	c1 e0 08	 shl	 eax, 8
  0059b	0b c6		 or	 eax, esi
; File C:\Program Files (x86)\Microsoft Visual Studio\2019\Professional\VC\Tools\MSVC\14.29.30133\include\vector

; 743  :         if (_Mylast != _My_data._Myend) {

  0059d	8b b5 50 ff ff
	ff		 mov	 esi, DWORD PTR _vertices$7[ebp+4]
; File C:\Users\murat\Desktop\Siveps2-1-99-Project\source\client\Client\EterLib\GrpExpandedImageInstance.cpp

; 90   : 		vertex.diffuse = m_DiffuseColor;

  005a3	89 85 40 ff ff
	ff		 mov	 DWORD PTR _vertex$6[ebp+12], eax
; File C:\Program Files (x86)\Microsoft Visual Studio\2019\Professional\VC\Tools\MSVC\14.29.30133\include\vector

; 743  :         if (_Mylast != _My_data._Myend) {

  005a9	3b b5 54 ff ff
	ff		 cmp	 esi, DWORD PTR _vertices$7[ebp+8]
  005af	74 22		 je	 SHORT $LN118@OnRenderCo
; File C:\Program Files (x86)\Microsoft Visual Studio\2019\Professional\VC\Tools\MSVC\14.29.30133\include\xmemory

; 714  :             ::new (_Voidify_iter(_Ptr)) _Objty(_STD forward<_Types>(_Args)...);

  005b1	0f 10 85 34 ff
	ff ff		 movups	 xmm0, XMMWORD PTR _vertex$6[ebp]
  005b8	0f 11 06	 movups	 XMMWORD PTR [esi], xmm0
  005bb	f3 0f 7e 85 44
	ff ff ff	 movq	 xmm0, QWORD PTR _vertex$6[ebp+16]
  005c3	66 0f d6 46 10	 movq	 QWORD PTR [esi+16], xmm0
; File C:\Program Files (x86)\Microsoft Visual Studio\2019\Professional\VC\Tools\MSVC\14.29.30133\include\vector

; 729  :         ++_Mylast;

  005c8	83 c6 18	 add	 esi, 24			; 00000018H
  005cb	89 b5 50 ff ff
	ff		 mov	 DWORD PTR _vertices$7[ebp+4], esi

; 744  :             return _Emplace_back_with_unused_capacity(_STD forward<_Valty>(_Val)...);

  005d1	eb 19		 jmp	 SHORT $LN117@OnRenderCo
$LN118@OnRenderCo:

; 747  :         _Ty& _Result = *_Emplace_reallocate(_Mylast, _STD forward<_Valty>(_Val)...);

  005d3	8d 85 34 ff ff
	ff		 lea	 eax, DWORD PTR _vertex$6[ebp]
  005d9	50		 push	 eax
  005da	56		 push	 esi
  005db	8d 8d 4c ff ff
	ff		 lea	 ecx, DWORD PTR _vertices$7[ebp]
  005e1	e8 00 00 00 00	 call	 ??$_Emplace_reallocate@ABUSPDTVertex@@@?$vector@USPDTVertex@@V?$allocator@USPDTVertex@@@std@@@std@@QAEPAUSPDTVertex@@QAU2@ABU2@@Z ; std::vector<SPDTVertex,std::allocator<SPDTVertex> >::_Emplace_reallocate<SPDTVertex const &>
  005e6	8b b5 50 ff ff
	ff		 mov	 esi, DWORD PTR _vertices$7[ebp+4]
$LN117@OnRenderCo:
; File C:\Users\murat\Desktop\Siveps2-1-99-Project\source\client\Client\EterLib\GrpExpandedImageInstance.cpp

; 93   : 		if (iTriCount > 0)

  005ec	8b 85 6c ff ff
	ff		 mov	 eax, DWORD PTR _iTriCount$1$[ebp]
  005f2	85 c0		 test	 eax, eax
  005f4	0f 8e 0a 02 00
	00		 jle	 $LN3@OnRenderCo

; 95   : 			for (int j = 0; j < iTriCount; ++j)

  005fa	33 c0		 xor	 eax, eax
  005fc	89 85 30 ff ff
	ff		 mov	 DWORD PTR _j$1$[ebp], eax
$LL4@OnRenderCo:

; 97   : 				vertex.position = TPosition(fxCenter + (v2BoxPos[j].x * fimgWidthHalf),

  00602	f3 0f 10 85 2c
	ff ff ff	 movss	 xmm0, DWORD PTR _fimgWidthHalf$1$[ebp]
  0060a	f3 0f 59 84 c5
	70 ff ff ff	 mulss	 xmm0, DWORD PTR _v2BoxPos$8[ebp+eax*8]
  00613	f3 0f 58 85 20
	ff ff ff	 addss	 xmm0, DWORD PTR _fxCenter$1$[ebp]
  0061b	f3 0f 11 85 34
	ff ff ff	 movss	 DWORD PTR _vertex$6[ebp], xmm0
  00623	f3 0f 10 85 1c
	ff ff ff	 movss	 xmm0, DWORD PTR _fimgHeightHalf$1$[ebp]
  0062b	f3 0f 59 84 c5
	74 ff ff ff	 mulss	 xmm0, DWORD PTR _v2BoxPos$8[ebp+eax*8+4]

; 100  : 				vertex.texCoord = TTextureCoordinate(v2TexPos[j & (c_iTriangleCountPerBox - 1)].x,

  00634	83 e0 07	 and	 eax, 7
  00637	f3 0f 58 85 18
	ff ff ff	 addss	 xmm0, DWORD PTR _fyCenter$1$[ebp]
; File C:\Users\murat\Desktop\Siveps2-1-99-Project\source\client\extern\include\d3dx8math.inl

; 42   :     y = fy;

  0063f	f3 0f 10 4c c5
	b4		 movss	 xmm1, DWORD PTR _v2TexPos$9[ebp+eax*8+4]
; File C:\Users\murat\Desktop\Siveps2-1-99-Project\source\client\Client\EterLib\GrpExpandedImageInstance.cpp

; 100  : 				vertex.texCoord = TTextureCoordinate(v2TexPos[j & (c_iTriangleCountPerBox - 1)].x,

  00645	f3 0f 11 8d 48
	ff ff ff	 movss	 DWORD PTR _vertex$6[ebp+20], xmm1
; File C:\Users\murat\Desktop\Siveps2-1-99-Project\source\client\extern\include\d3dx8math.inl

; 931  :     DWORD dwR = r >= 1.0f ? 0xff : r <= 0.0f ? 0x00 : (DWORD) (r * 255.0f + 0.5f);

  0064d	0f 57 c9	 xorps	 xmm1, xmm1
; File C:\Users\murat\Desktop\Siveps2-1-99-Project\source\client\Client\EterLib\GrpExpandedImageInstance.cpp

; 97   : 				vertex.position = TPosition(fxCenter + (v2BoxPos[j].x * fimgWidthHalf),

  00650	f3 0f 11 85 38
	ff ff ff	 movss	 DWORD PTR _vertex$6[ebp+4], xmm0
  00658	f3 0f 10 47 20	 movss	 xmm0, DWORD PTR [edi+32]
  0065d	f3 0f 11 85 3c
	ff ff ff	 movss	 DWORD PTR _vertex$6[ebp+8], xmm0
; File C:\Users\murat\Desktop\Siveps2-1-99-Project\source\client\extern\include\d3dx8math.inl

; 41   :     x = fx;

  00665	f3 0f 10 44 c5
	b0		 movss	 xmm0, DWORD PTR _v2TexPos$9[ebp+eax*8]
; File C:\Users\murat\Desktop\Siveps2-1-99-Project\source\client\Client\EterLib\GrpExpandedImageInstance.cpp

; 100  : 				vertex.texCoord = TTextureCoordinate(v2TexPos[j & (c_iTriangleCountPerBox - 1)].x,

  0066b	f3 0f 11 85 44
	ff ff ff	 movss	 DWORD PTR _vertex$6[ebp+16], xmm0
; File C:\Users\murat\Desktop\Siveps2-1-99-Project\source\client\extern\include\d3dx8math.inl

; 931  :     DWORD dwR = r >= 1.0f ? 0xff : r <= 0.0f ? 0x00 : (DWORD) (r * 255.0f + 0.5f);

  00673	f3 0f 10 47 04	 movss	 xmm0, DWORD PTR [edi+4]
  00678	0f 2f 05 00 00
	00 00		 comiss	 xmm0, DWORD PTR __real@3f800000
  0067f	72 0c		 jb	 SHORT $LN132@OnRenderCo
  00681	c7 85 64 ff ff
	ff ff 00 00 00	 mov	 DWORD PTR _dwR$1$[ebp], 255 ; 000000ffH
  0068b	eb 2f		 jmp	 SHORT $LN131@OnRenderCo
$LN132@OnRenderCo:
  0068d	0f 2f c8	 comiss	 xmm1, xmm0
  00690	72 0c		 jb	 SHORT $LN130@OnRenderCo
  00692	c7 85 64 ff ff
	ff 00 00 00 00	 mov	 DWORD PTR _dwR$1$[ebp], 0
  0069c	eb 1e		 jmp	 SHORT $LN131@OnRenderCo
$LN130@OnRenderCo:
  0069e	f3 0f 59 05 00
	00 00 00	 mulss	 xmm0, DWORD PTR __real@437f0000
  006a6	f3 0f 58 05 00
	00 00 00	 addss	 xmm0, DWORD PTR __real@3f000000
  006ae	e8 00 00 00 00	 call	 __ftoui3
  006b3	89 85 64 ff ff
	ff		 mov	 DWORD PTR _dwR$1$[ebp], eax
  006b9	0f 57 c9	 xorps	 xmm1, xmm1
$LN131@OnRenderCo:

; 932  :     DWORD dwG = g >= 1.0f ? 0xff : g <= 0.0f ? 0x00 : (DWORD) (g * 255.0f + 0.5f);

  006bc	f3 0f 10 47 08	 movss	 xmm0, DWORD PTR [edi+8]
  006c1	0f 2f 05 00 00
	00 00		 comiss	 xmm0, DWORD PTR __real@3f800000
  006c8	72 0c		 jb	 SHORT $LN136@OnRenderCo
  006ca	c7 85 68 ff ff
	ff ff 00 00 00	 mov	 DWORD PTR _dwG$1$[ebp], 255 ; 000000ffH
  006d4	eb 2c		 jmp	 SHORT $LN135@OnRenderCo
$LN136@OnRenderCo:
  006d6	0f 2f c8	 comiss	 xmm1, xmm0
  006d9	72 0c		 jb	 SHORT $LN134@OnRenderCo
  006db	c7 85 68 ff ff
	ff 00 00 00 00	 mov	 DWORD PTR _dwG$1$[ebp], 0
  006e5	eb 1b		 jmp	 SHORT $LN135@OnRenderCo
$LN134@OnRenderCo:
  006e7	f3 0f 59 05 00
	00 00 00	 mulss	 xmm0, DWORD PTR __real@437f0000
  006ef	f3 0f 58 05 00
	00 00 00	 addss	 xmm0, DWORD PTR __real@3f000000
  006f7	e8 00 00 00 00	 call	 __ftoui3
  006fc	89 85 68 ff ff
	ff		 mov	 DWORD PTR _dwG$1$[ebp], eax
$LN135@OnRenderCo:

; 933  :     DWORD dwB = b >= 1.0f ? 0xff : b <= 0.0f ? 0x00 : (DWORD) (b * 255.0f + 0.5f);

  00702	f3 0f 10 47 0c	 movss	 xmm0, DWORD PTR [edi+12]
  00707	0f 57 c9	 xorps	 xmm1, xmm1
  0070a	0f 2f 05 00 00
	00 00		 comiss	 xmm0, DWORD PTR __real@3f800000
  00711	72 0c		 jb	 SHORT $LN140@OnRenderCo
  00713	c7 85 24 ff ff
	ff ff 00 00 00	 mov	 DWORD PTR _dwB$1$[ebp], 255 ; 000000ffH
  0071d	eb 2f		 jmp	 SHORT $LN139@OnRenderCo
$LN140@OnRenderCo:
  0071f	0f 2f c8	 comiss	 xmm1, xmm0
  00722	72 0c		 jb	 SHORT $LN138@OnRenderCo
  00724	c7 85 24 ff ff
	ff 00 00 00 00	 mov	 DWORD PTR _dwB$1$[ebp], 0
  0072e	eb 1e		 jmp	 SHORT $LN139@OnRenderCo
$LN138@OnRenderCo:
  00730	f3 0f 59 05 00
	00 00 00	 mulss	 xmm0, DWORD PTR __real@437f0000
  00738	f3 0f 58 05 00
	00 00 00	 addss	 xmm0, DWORD PTR __real@3f000000
  00740	e8 00 00 00 00	 call	 __ftoui3
  00745	89 85 24 ff ff
	ff		 mov	 DWORD PTR _dwB$1$[ebp], eax
  0074b	0f 57 c9	 xorps	 xmm1, xmm1
$LN139@OnRenderCo:

; 934  :     DWORD dwA = a >= 1.0f ? 0xff : a <= 0.0f ? 0x00 : (DWORD) (a * 255.0f + 0.5f);

  0074e	f3 0f 10 47 10	 movss	 xmm0, DWORD PTR [edi+16]
  00753	0f 2f 05 00 00
	00 00		 comiss	 xmm0, DWORD PTR __real@3f800000
  0075a	72 07		 jb	 SHORT $LN144@OnRenderCo
  0075c	b8 ff 00 00 00	 mov	 eax, 255		; 000000ffH
  00761	eb 1e		 jmp	 SHORT $LN143@OnRenderCo
$LN144@OnRenderCo:
  00763	0f 2f c8	 comiss	 xmm1, xmm0
  00766	72 04		 jb	 SHORT $LN142@OnRenderCo
  00768	33 c0		 xor	 eax, eax
  0076a	eb 15		 jmp	 SHORT $LN143@OnRenderCo
$LN142@OnRenderCo:
  0076c	f3 0f 59 05 00
	00 00 00	 mulss	 xmm0, DWORD PTR __real@437f0000
  00774	f3 0f 58 05 00
	00 00 00	 addss	 xmm0, DWORD PTR __real@3f000000
  0077c	e8 00 00 00 00	 call	 __ftoui3
$LN143@OnRenderCo:

; 936  :     return (dwA << 24) | (dwR << 16) | (dwG << 8) | dwB;

  00781	c1 e0 08	 shl	 eax, 8
  00784	0b 85 64 ff ff
	ff		 or	 eax, DWORD PTR _dwR$1$[ebp]
  0078a	c1 e0 08	 shl	 eax, 8
  0078d	0b 85 68 ff ff
	ff		 or	 eax, DWORD PTR _dwG$1$[ebp]
  00793	c1 e0 08	 shl	 eax, 8
  00796	0b 85 24 ff ff
	ff		 or	 eax, DWORD PTR _dwB$1$[ebp]
; File C:\Users\murat\Desktop\Siveps2-1-99-Project\source\client\Client\EterLib\GrpExpandedImageInstance.cpp

; 102  : 				vertex.diffuse = m_DiffuseColor;

  0079c	89 85 40 ff ff
	ff		 mov	 DWORD PTR _vertex$6[ebp+12], eax
; File C:\Program Files (x86)\Microsoft Visual Studio\2019\Professional\VC\Tools\MSVC\14.29.30133\include\vector

; 743  :         if (_Mylast != _My_data._Myend) {

  007a2	3b b5 54 ff ff
	ff		 cmp	 esi, DWORD PTR _vertices$7[ebp+8]
  007a8	74 22		 je	 SHORT $LN149@OnRenderCo
; File C:\Program Files (x86)\Microsoft Visual Studio\2019\Professional\VC\Tools\MSVC\14.29.30133\include\xmemory

; 714  :             ::new (_Voidify_iter(_Ptr)) _Objty(_STD forward<_Types>(_Args)...);

  007aa	0f 10 85 34 ff
	ff ff		 movups	 xmm0, XMMWORD PTR _vertex$6[ebp]
  007b1	0f 11 06	 movups	 XMMWORD PTR [esi], xmm0
  007b4	f3 0f 7e 85 44
	ff ff ff	 movq	 xmm0, QWORD PTR _vertex$6[ebp+16]
  007bc	66 0f d6 46 10	 movq	 QWORD PTR [esi+16], xmm0
; File C:\Program Files (x86)\Microsoft Visual Studio\2019\Professional\VC\Tools\MSVC\14.29.30133\include\vector

; 729  :         ++_Mylast;

  007c1	83 c6 18	 add	 esi, 24			; 00000018H
  007c4	89 b5 50 ff ff
	ff		 mov	 DWORD PTR _vertices$7[ebp+4], esi

; 744  :             return _Emplace_back_with_unused_capacity(_STD forward<_Valty>(_Val)...);

  007ca	eb 19		 jmp	 SHORT $LN2@OnRenderCo
$LN149@OnRenderCo:

; 747  :         _Ty& _Result = *_Emplace_reallocate(_Mylast, _STD forward<_Valty>(_Val)...);

  007cc	8d 85 34 ff ff
	ff		 lea	 eax, DWORD PTR _vertex$6[ebp]
  007d2	50		 push	 eax
  007d3	56		 push	 esi
  007d4	8d 8d 4c ff ff
	ff		 lea	 ecx, DWORD PTR _vertices$7[ebp]
  007da	e8 00 00 00 00	 call	 ??$_Emplace_reallocate@ABUSPDTVertex@@@?$vector@USPDTVertex@@V?$allocator@USPDTVertex@@@std@@@std@@QAEPAUSPDTVertex@@QAU2@ABU2@@Z ; std::vector<SPDTVertex,std::allocator<SPDTVertex> >::_Emplace_reallocate<SPDTVertex const &>
  007df	8b b5 50 ff ff
	ff		 mov	 esi, DWORD PTR _vertices$7[ebp+4]
$LN2@OnRenderCo:
; File C:\Users\murat\Desktop\Siveps2-1-99-Project\source\client\Client\EterLib\GrpExpandedImageInstance.cpp

; 95   : 			for (int j = 0; j < iTriCount; ++j)

  007e5	8b 85 30 ff ff
	ff		 mov	 eax, DWORD PTR _j$1$[ebp]
  007eb	40		 inc	 eax
  007ec	89 85 30 ff ff
	ff		 mov	 DWORD PTR _j$1$[ebp], eax
  007f2	3b 85 6c ff ff
	ff		 cmp	 eax, DWORD PTR _iTriCount$1$[ebp]
  007f8	0f 8c 04 fe ff
	ff		 jl	 $LL4@OnRenderCo
  007fe	8b 85 6c ff ff
	ff		 mov	 eax, DWORD PTR _iTriCount$1$[ebp]
$LN3@OnRenderCo:

; 103  : 				vertices.push_back(vertex);
; 104  : 			}
; 105  : 		}
; 106  : 
; 107  : 		if (fLastPercentage > 0.0f)

  00804	f3 0f 10 8d 14
	ff ff ff	 movss	 xmm1, DWORD PTR _fLastPercentage$1$[ebp]
  0080c	0f 57 ed	 xorps	 xmm5, xmm5
  0080f	0f 2f cd	 comiss	 xmm1, xmm5
  00812	0f 86 a4 02 00
	00		 jbe	 $LN13@OnRenderCo

; 108  : 		{
; 109  : 			D3DXVECTOR2 * pv2Pos;
; 110  : 			D3DXVECTOR2 * pv2LastPos;
; 111  : 			assert((iTriCount + 8) % 8 >= 0 && (iTriCount + 8) % 8<8);
; 112  : 			assert((iTriCount + 7) % 8 >= 0 && (iTriCount + 7) % 8<8);
; 113  : 			pv2LastPos = &v2BoxPos[(iTriCount + 8) % 8];

  00818	8d 48 08	 lea	 ecx, DWORD PTR [eax+8]
  0081b	81 e1 07 00 00
	80		 and	 ecx, -2147483641	; 80000007H
  00821	79 05		 jns	 SHORT $LN258@OnRenderCo
  00823	49		 dec	 ecx
  00824	83 c9 f8	 or	 ecx, -8			; fffffff8H
  00827	41		 inc	 ecx
$LN258@OnRenderCo:

; 114  : 			pv2Pos = &v2BoxPos[(iTriCount + 7) % 8];

  00828	83 c0 07	 add	 eax, 7
  0082b	25 07 00 00 80	 and	 eax, -2147483641	; 80000007H
  00830	79 05		 jns	 SHORT $LN259@OnRenderCo
  00832	48		 dec	 eax
  00833	83 c8 f8	 or	 eax, -8			; fffffff8H
  00836	40		 inc	 eax
$LN259@OnRenderCo:

; 115  : 			float fxShit = (pv2LastPos->x - pv2Pos->x) * fLastPercentage + pv2Pos->x;

  00837	f3 0f 10 84 c5
	70 ff ff ff	 movss	 xmm0, DWORD PTR _v2BoxPos$8[ebp+eax*8]
  00840	f3 0f 10 94 cd
	70 ff ff ff	 movss	 xmm2, DWORD PTR _v2BoxPos$8[ebp+ecx*8]

; 116  : 			float fyShit = (pv2LastPos->y - pv2Pos->y) * fLastPercentage + pv2Pos->y;

  00849	f3 0f 10 9c cd
	74 ff ff ff	 movss	 xmm3, DWORD PTR _v2BoxPos$8[ebp+ecx*8+4]
  00852	f3 0f 5c d0	 subss	 xmm2, xmm0

; 117  : 			vertex.position = TPosition(fimgWidthHalf * fxShit + fxCenter + 0.5f,

  00856	f3 0f 10 25 00
	00 00 00	 movss	 xmm4, DWORD PTR __real@3f000000

; 120  : 			vertex.texCoord = TTextureCoordinate(su + 0.5f * (eu - su) + fxShit * 0.5f * (eu - su),

  0085e	f3 0f 10 b5 58
	ff ff ff	 movss	 xmm6, DWORD PTR _ev$1$[ebp]
  00866	f3 0f 5c b5 5c
	ff ff ff	 subss	 xmm6, DWORD PTR _sv$1$[ebp]
  0086e	f3 0f 59 d1	 mulss	 xmm2, xmm1
  00872	f3 0f 58 d0	 addss	 xmm2, xmm0
  00876	f3 0f 10 84 c5
	74 ff ff ff	 movss	 xmm0, DWORD PTR _v2BoxPos$8[ebp+eax*8+4]
  0087f	f3 0f 5c d8	 subss	 xmm3, xmm0
  00883	f3 0f 59 d9	 mulss	 xmm3, xmm1
  00887	f3 0f 58 d8	 addss	 xmm3, xmm0
  0088b	0f 28 c2	 movaps	 xmm0, xmm2
  0088e	f3 0f 59 85 2c
	ff ff ff	 mulss	 xmm0, DWORD PTR _fimgWidthHalf$1$[ebp]
  00896	f3 0f 59 d4	 mulss	 xmm2, xmm4
  0089a	f3 0f 58 85 20
	ff ff ff	 addss	 xmm0, DWORD PTR _fxCenter$1$[ebp]
  008a2	f3 0f 58 c4	 addss	 xmm0, xmm4
  008a6	f3 0f 11 85 34
	ff ff ff	 movss	 DWORD PTR _vertex$6[ebp], xmm0
  008ae	0f 28 c3	 movaps	 xmm0, xmm3
  008b1	f3 0f 59 85 1c
	ff ff ff	 mulss	 xmm0, DWORD PTR _fimgHeightHalf$1$[ebp]
  008b9	f3 0f 59 dc	 mulss	 xmm3, xmm4
  008bd	f3 0f 58 85 18
	ff ff ff	 addss	 xmm0, DWORD PTR _fyCenter$1$[ebp]
  008c5	f3 0f 59 de	 mulss	 xmm3, xmm6
  008c9	f3 0f 58 c4	 addss	 xmm0, xmm4
  008cd	f3 0f 11 85 38
	ff ff ff	 movss	 DWORD PTR _vertex$6[ebp+4], xmm0
  008d5	f3 0f 10 47 20	 movss	 xmm0, DWORD PTR [edi+32]
  008da	f3 0f 11 85 3c
	ff ff ff	 movss	 DWORD PTR _vertex$6[ebp+8], xmm0
  008e2	f3 0f 10 85 60
	ff ff ff	 movss	 xmm0, DWORD PTR _eu$1$[ebp]
  008ea	f3 0f 5c 85 28
	ff ff ff	 subss	 xmm0, DWORD PTR _su$1$[ebp]
  008f2	0f 28 c8	 movaps	 xmm1, xmm0
  008f5	f3 0f 59 d0	 mulss	 xmm2, xmm0
  008f9	0f 28 c6	 movaps	 xmm0, xmm6
  008fc	f3 0f 59 cc	 mulss	 xmm1, xmm4
  00900	f3 0f 59 c4	 mulss	 xmm0, xmm4
  00904	f3 0f 58 8d 28
	ff ff ff	 addss	 xmm1, DWORD PTR _su$1$[ebp]
  0090c	f3 0f 58 85 5c
	ff ff ff	 addss	 xmm0, DWORD PTR _sv$1$[ebp]
  00914	f3 0f 58 ca	 addss	 xmm1, xmm2
  00918	f3 0f 58 c3	 addss	 xmm0, xmm3
  0091c	f3 0f 11 8d 44
	ff ff ff	 movss	 DWORD PTR _vertex$6[ebp+16], xmm1
; File C:\Users\murat\Desktop\Siveps2-1-99-Project\source\client\extern\include\d3dx8math.inl

; 931  :     DWORD dwR = r >= 1.0f ? 0xff : r <= 0.0f ? 0x00 : (DWORD) (r * 255.0f + 0.5f);

  00924	f3 0f 10 4f 04	 movss	 xmm1, DWORD PTR [edi+4]
; File C:\Users\murat\Desktop\Siveps2-1-99-Project\source\client\Client\EterLib\GrpExpandedImageInstance.cpp

; 120  : 			vertex.texCoord = TTextureCoordinate(su + 0.5f * (eu - su) + fxShit * 0.5f * (eu - su),

  00929	f3 0f 11 85 48
	ff ff ff	 movss	 DWORD PTR _vertex$6[ebp+20], xmm0
; File C:\Users\murat\Desktop\Siveps2-1-99-Project\source\client\extern\include\d3dx8math.inl

; 931  :     DWORD dwR = r >= 1.0f ? 0xff : r <= 0.0f ? 0x00 : (DWORD) (r * 255.0f + 0.5f);

  00931	f3 0f 10 05 00
	00 00 00	 movss	 xmm0, DWORD PTR __real@3f800000
  00939	0f 2f c8	 comiss	 xmm1, xmm0
  0093c	72 0c		 jb	 SHORT $LN163@OnRenderCo
  0093e	c7 85 58 ff ff
	ff ff 00 00 00	 mov	 DWORD PTR _dwR$1$[ebp], 255 ; 000000ffH
  00948	eb 3e		 jmp	 SHORT $LN162@OnRenderCo
$LN163@OnRenderCo:
  0094a	0f 2f e9	 comiss	 xmm5, xmm1
  0094d	72 0c		 jb	 SHORT $LN161@OnRenderCo
  0094f	c7 85 58 ff ff
	ff 00 00 00 00	 mov	 DWORD PTR _dwR$1$[ebp], 0
  00959	eb 2d		 jmp	 SHORT $LN162@OnRenderCo
$LN161@OnRenderCo:
  0095b	f3 0f 59 0d 00
	00 00 00	 mulss	 xmm1, DWORD PTR __real@437f0000
  00963	f3 0f 58 cc	 addss	 xmm1, xmm4
  00967	0f 28 c1	 movaps	 xmm0, xmm1
  0096a	e8 00 00 00 00	 call	 __ftoui3
  0096f	f3 0f 10 25 00
	00 00 00	 movss	 xmm4, DWORD PTR __real@3f000000
  00977	0f 57 ed	 xorps	 xmm5, xmm5
  0097a	f3 0f 10 05 00
	00 00 00	 movss	 xmm0, DWORD PTR __real@3f800000
  00982	89 85 58 ff ff
	ff		 mov	 DWORD PTR _dwR$1$[ebp], eax
$LN162@OnRenderCo:

; 932  :     DWORD dwG = g >= 1.0f ? 0xff : g <= 0.0f ? 0x00 : (DWORD) (g * 255.0f + 0.5f);

  00988	f3 0f 10 4f 08	 movss	 xmm1, DWORD PTR [edi+8]
  0098d	0f 2f c8	 comiss	 xmm1, xmm0
  00990	72 0c		 jb	 SHORT $LN167@OnRenderCo
  00992	c7 85 5c ff ff
	ff ff 00 00 00	 mov	 DWORD PTR _dwG$1$[ebp], 255 ; 000000ffH
  0099c	eb 33		 jmp	 SHORT $LN166@OnRenderCo
$LN167@OnRenderCo:
  0099e	0f 2f e9	 comiss	 xmm5, xmm1
  009a1	72 0c		 jb	 SHORT $LN165@OnRenderCo
  009a3	c7 85 5c ff ff
	ff 00 00 00 00	 mov	 DWORD PTR _dwG$1$[ebp], 0
  009ad	eb 22		 jmp	 SHORT $LN166@OnRenderCo
$LN165@OnRenderCo:
  009af	f3 0f 59 0d 00
	00 00 00	 mulss	 xmm1, DWORD PTR __real@437f0000
  009b7	f3 0f 58 cc	 addss	 xmm1, xmm4
  009bb	0f 28 c1	 movaps	 xmm0, xmm1
  009be	e8 00 00 00 00	 call	 __ftoui3
  009c3	f3 0f 10 05 00
	00 00 00	 movss	 xmm0, DWORD PTR __real@3f800000
  009cb	89 85 5c ff ff
	ff		 mov	 DWORD PTR _dwG$1$[ebp], eax
$LN166@OnRenderCo:

; 933  :     DWORD dwB = b >= 1.0f ? 0xff : b <= 0.0f ? 0x00 : (DWORD) (b * 255.0f + 0.5f);

  009d1	f3 0f 10 4f 0c	 movss	 xmm1, DWORD PTR [edi+12]
  009d6	0f 2f c8	 comiss	 xmm1, xmm0
  009d9	0f 57 c0	 xorps	 xmm0, xmm0
  009dc	72 0c		 jb	 SHORT $LN171@OnRenderCo
  009de	c7 85 60 ff ff
	ff ff 00 00 00	 mov	 DWORD PTR _dwB$1$[ebp], 255 ; 000000ffH
  009e8	eb 32		 jmp	 SHORT $LN170@OnRenderCo
$LN171@OnRenderCo:
  009ea	0f 2f c1	 comiss	 xmm0, xmm1
  009ed	72 0c		 jb	 SHORT $LN169@OnRenderCo
  009ef	c7 85 60 ff ff
	ff 00 00 00 00	 mov	 DWORD PTR _dwB$1$[ebp], 0
  009f9	eb 21		 jmp	 SHORT $LN170@OnRenderCo
$LN169@OnRenderCo:
  009fb	f3 0f 59 0d 00
	00 00 00	 mulss	 xmm1, DWORD PTR __real@437f0000
  00a03	f3 0f 58 0d 00
	00 00 00	 addss	 xmm1, DWORD PTR __real@3f000000
  00a0b	0f 28 c1	 movaps	 xmm0, xmm1
  00a0e	e8 00 00 00 00	 call	 __ftoui3
  00a13	89 85 60 ff ff
	ff		 mov	 DWORD PTR _dwB$1$[ebp], eax
  00a19	0f 57 c0	 xorps	 xmm0, xmm0
$LN170@OnRenderCo:

; 934  :     DWORD dwA = a >= 1.0f ? 0xff : a <= 0.0f ? 0x00 : (DWORD) (a * 255.0f + 0.5f);

  00a1c	f3 0f 10 4f 10	 movss	 xmm1, DWORD PTR [edi+16]
  00a21	0f 2f 0d 00 00
	00 00		 comiss	 xmm1, DWORD PTR __real@3f800000
  00a28	72 07		 jb	 SHORT $LN175@OnRenderCo
  00a2a	b8 ff 00 00 00	 mov	 eax, 255		; 000000ffH
  00a2f	eb 21		 jmp	 SHORT $LN174@OnRenderCo
$LN175@OnRenderCo:
  00a31	0f 2f c1	 comiss	 xmm0, xmm1
  00a34	72 04		 jb	 SHORT $LN173@OnRenderCo
  00a36	33 c0		 xor	 eax, eax
  00a38	eb 18		 jmp	 SHORT $LN174@OnRenderCo
$LN173@OnRenderCo:
  00a3a	f3 0f 59 0d 00
	00 00 00	 mulss	 xmm1, DWORD PTR __real@437f0000
  00a42	f3 0f 58 0d 00
	00 00 00	 addss	 xmm1, DWORD PTR __real@3f000000
  00a4a	0f 28 c1	 movaps	 xmm0, xmm1
  00a4d	e8 00 00 00 00	 call	 __ftoui3
$LN174@OnRenderCo:

; 936  :     return (dwA << 24) | (dwR << 16) | (dwG << 8) | dwB;

  00a52	c1 e0 08	 shl	 eax, 8
  00a55	0b 85 58 ff ff
	ff		 or	 eax, DWORD PTR _dwR$1$[ebp]
  00a5b	c1 e0 08	 shl	 eax, 8
  00a5e	0b 85 5c ff ff
	ff		 or	 eax, DWORD PTR _dwG$1$[ebp]
  00a64	c1 e0 08	 shl	 eax, 8
  00a67	0b 85 60 ff ff
	ff		 or	 eax, DWORD PTR _dwB$1$[ebp]
; File C:\Users\murat\Desktop\Siveps2-1-99-Project\source\client\Client\EterLib\GrpExpandedImageInstance.cpp

; 122  : 			vertex.diffuse = m_DiffuseColor;

  00a6d	89 85 40 ff ff
	ff		 mov	 DWORD PTR _vertex$6[ebp+12], eax
; File C:\Program Files (x86)\Microsoft Visual Studio\2019\Professional\VC\Tools\MSVC\14.29.30133\include\vector

; 743  :         if (_Mylast != _My_data._Myend) {

  00a73	3b b5 54 ff ff
	ff		 cmp	 esi, DWORD PTR _vertices$7[ebp+8]
  00a79	74 22		 je	 SHORT $LN180@OnRenderCo
; File C:\Program Files (x86)\Microsoft Visual Studio\2019\Professional\VC\Tools\MSVC\14.29.30133\include\xmemory

; 714  :             ::new (_Voidify_iter(_Ptr)) _Objty(_STD forward<_Types>(_Args)...);

  00a7b	0f 10 85 34 ff
	ff ff		 movups	 xmm0, XMMWORD PTR _vertex$6[ebp]
  00a82	0f 11 06	 movups	 XMMWORD PTR [esi], xmm0
  00a85	f3 0f 7e 85 44
	ff ff ff	 movq	 xmm0, QWORD PTR _vertex$6[ebp+16]
  00a8d	66 0f d6 46 10	 movq	 QWORD PTR [esi+16], xmm0
; File C:\Program Files (x86)\Microsoft Visual Studio\2019\Professional\VC\Tools\MSVC\14.29.30133\include\vector

; 729  :         ++_Mylast;

  00a92	83 c6 18	 add	 esi, 24			; 00000018H
  00a95	89 b5 50 ff ff
	ff		 mov	 DWORD PTR _vertices$7[ebp+4], esi

; 744  :             return _Emplace_back_with_unused_capacity(_STD forward<_Valty>(_Val)...);

  00a9b	eb 19		 jmp	 SHORT $LN179@OnRenderCo
$LN180@OnRenderCo:

; 747  :         _Ty& _Result = *_Emplace_reallocate(_Mylast, _STD forward<_Valty>(_Val)...);

  00a9d	8d 85 34 ff ff
	ff		 lea	 eax, DWORD PTR _vertex$6[ebp]
  00aa3	50		 push	 eax
  00aa4	56		 push	 esi
  00aa5	8d 8d 4c ff ff
	ff		 lea	 ecx, DWORD PTR _vertices$7[ebp]
  00aab	e8 00 00 00 00	 call	 ??$_Emplace_reallocate@ABUSPDTVertex@@@?$vector@USPDTVertex@@V?$allocator@USPDTVertex@@@std@@@std@@QAEPAUSPDTVertex@@QAU2@ABU2@@Z ; std::vector<SPDTVertex,std::allocator<SPDTVertex> >::_Emplace_reallocate<SPDTVertex const &>
  00ab0	8b b5 50 ff ff
	ff		 mov	 esi, DWORD PTR _vertices$7[ebp+4]
$LN179@OnRenderCo:
; File C:\Users\murat\Desktop\Siveps2-1-99-Project\source\client\Client\EterLib\GrpExpandedImageInstance.cpp

; 124  : 			++iTriCount;

  00ab6	ff 85 6c ff ff
	ff		 inc	 DWORD PTR _iTriCount$1$[ebp]
$LN13@OnRenderCo:
; File C:\Program Files (x86)\Microsoft Visual Studio\2019\Professional\VC\Tools\MSVC\14.29.30133\include\vector

; 1544 :         return _My_data._Myfirst == _My_data._Mylast;

  00abc	8b 8d 4c ff ff
	ff		 mov	 ecx, DWORD PTR _vertices$7[ebp]
  00ac2	3b ce		 cmp	 ecx, esi
; File C:\Users\murat\Desktop\Siveps2-1-99-Project\source\client\Client\EterLib\GrpExpandedImageInstance.cpp

; 127  : 		if (vertices.empty())

  00ac4	75 4c		 jne	 SHORT $LN14@OnRenderCo
; File C:\Program Files (x86)\Microsoft Visual Studio\2019\Professional\VC\Tools\MSVC\14.29.30133\include\vector

; 1763 :         if (_Myfirst) { // destroy and deallocate old array

  00ac6	85 c9		 test	 ecx, ecx
  00ac8	0f 84 9a 01 00
	00		 je	 $LN220@OnRenderCo

; 1764 :             _Destroy(_Myfirst, _Mylast);
; 1765 :             _Getal().deallocate(_Myfirst, static_cast<size_type>(_Myend - _Myfirst));

  00ace	8b 95 54 ff ff
	ff		 mov	 edx, DWORD PTR _vertices$7[ebp+8]
  00ad4	b8 ab aa aa 2a	 mov	 eax, 715827883		; 2aaaaaabH
  00ad9	2b d1		 sub	 edx, ecx
  00adb	f7 ea		 imul	 edx
  00add	c1 fa 02	 sar	 edx, 2
  00ae0	8b c2		 mov	 eax, edx
  00ae2	c1 e8 1f	 shr	 eax, 31			; 0000001fH
  00ae5	03 c2		 add	 eax, edx
; File C:\Program Files (x86)\Microsoft Visual Studio\2019\Professional\VC\Tools\MSVC\14.29.30133\include\xmemory

; 835  :         _Deallocate<_New_alignof<_Ty>>(_Ptr, sizeof(_Ty) * _Count);

  00ae7	8d 14 40	 lea	 edx, DWORD PTR [eax+eax*2]
  00aea	8b c1		 mov	 eax, ecx
  00aec	c1 e2 03	 shl	 edx, 3

; 260  :         if (_Bytes >= _Big_allocation_threshold) { // boost the alignment of big allocations to help autovectorization

  00aef	81 fa 00 10 00
	00		 cmp	 edx, 4096		; 00001000H
  00af5	72 14		 jb	 SHORT $LN207@OnRenderCo

; 158  :     const uintptr_t _Ptr_container   = _Ptr_user[-1];

  00af7	8b 49 fc	 mov	 ecx, DWORD PTR [ecx-4]
  00afa	83 c2 23	 add	 edx, 35			; 00000023H
  00afd	2b c1		 sub	 eax, ecx

; 172  :     _STL_VERIFY(_Back_shift >= _Min_back_shift && _Back_shift <= _Non_user_size, "invalid argument");

  00aff	83 c0 fc	 add	 eax, -4			; fffffffcH
  00b02	83 f8 1f	 cmp	 eax, 31			; 0000001fH
  00b05	0f 87 7a 01 00
	00		 ja	 $LN233@OnRenderCo
$LN207@OnRenderCo:

; 264  :         ::operator delete(_Ptr, _Bytes);

  00b0b	52		 push	 edx
  00b0c	51		 push	 ecx
; File C:\Users\murat\Desktop\Siveps2-1-99-Project\source\client\Client\EterLib\GrpExpandedImageInstance.cpp

; 128  : 			return;

  00b0d	e9 4e 01 00 00	 jmp	 $LN261@OnRenderCo
$LN14@OnRenderCo:

; 129  : 
; 130  : 		STATEMANAGER.SetRenderState(D3DRS_CULLMODE, D3DCULL_CW);

  00b12	8b 0d 00 00 00
	00		 mov	 ecx, DWORD PTR ?ms_singleton@?$CSingleton@VCStateManager@@@@0PAVCStateManager@@A ; CSingleton<CStateManager>::ms_singleton
  00b18	6a 02		 push	 2
  00b1a	6a 16		 push	 22			; 00000016H
  00b1c	e8 00 00 00 00	 call	 ?SetRenderState@CStateManager@@QAEXW4_D3DRENDERSTATETYPE@@K@Z ; CStateManager::SetRenderState

; 131  : 
; 132  : 		switch (m_iRenderingMode)

  00b21	8b 47 48	 mov	 eax, DWORD PTR [edi+72]
  00b24	83 e8 01	 sub	 eax, 1
  00b27	74 1d		 je	 SHORT $LN15@OnRenderCo
  00b29	83 e8 01	 sub	 eax, 1
  00b2c	74 18		 je	 SHORT $LN15@OnRenderCo
  00b2e	83 e8 01	 sub	 eax, 1
  00b31	75 31		 jne	 SHORT $LN5@OnRenderCo

; 138  : 			break;
; 139  : 		case RENDERING_MODE_MODULATE:
; 140  : 			STATEMANAGER.SaveRenderState(D3DRS_SRCBLEND, D3DBLEND_ZERO);

  00b33	8b 0d 00 00 00
	00		 mov	 ecx, DWORD PTR ?ms_singleton@?$CSingleton@VCStateManager@@@@0PAVCStateManager@@A ; CSingleton<CStateManager>::ms_singleton
  00b39	6a 01		 push	 1
  00b3b	6a 13		 push	 19			; 00000013H
  00b3d	e8 00 00 00 00	 call	 ?SaveRenderState@CStateManager@@QAEXW4_D3DRENDERSTATETYPE@@K@Z ; CStateManager::SaveRenderState

; 141  : 			STATEMANAGER.SaveRenderState(D3DRS_DESTBLEND, D3DBLEND_SRCCOLOR);

  00b42	6a 03		 push	 3
  00b44	eb 11		 jmp	 SHORT $LN262@OnRenderCo
$LN15@OnRenderCo:

; 133  : 		{
; 134  : 		case RENDERING_MODE_SCREEN:
; 135  : 		case RENDERING_MODE_COLOR_DODGE:
; 136  : 			STATEMANAGER.SaveRenderState(D3DRS_SRCBLEND, D3DBLEND_INVDESTCOLOR);

  00b46	8b 0d 00 00 00
	00		 mov	 ecx, DWORD PTR ?ms_singleton@?$CSingleton@VCStateManager@@@@0PAVCStateManager@@A ; CSingleton<CStateManager>::ms_singleton
  00b4c	6a 0a		 push	 10			; 0000000aH
  00b4e	6a 13		 push	 19			; 00000013H
  00b50	e8 00 00 00 00	 call	 ?SaveRenderState@CStateManager@@QAEXW4_D3DRENDERSTATETYPE@@K@Z ; CStateManager::SaveRenderState

; 137  : 			STATEMANAGER.SaveRenderState(D3DRS_DESTBLEND, D3DBLEND_ONE);

