; Listing generated by Microsoft (R) Optimizing Compiler Version 19.29.30137.0 

	TITLE	C:\Users\murat\Desktop\Siveps2-1-99-Project\source\client\Client\EterLib\Distribute\GrpImageInstance.obj
	.686P
	.XMM
	include listing.inc
	.model	flat

INCLUDELIB LIBCMT
INCLUDELIB OLDNAMES

PUBLIC	??_7?$CDynamicPool@VCGraphicImageInstance@@@@6B@ ; CDynamicPool<CGraphicImageInstance>::`vftable'
PUBLIC	??_G?$CDynamicPool@VCGraphicImageInstance@@@@UAEPAXI@Z ; CDynamicPool<CGraphicImageInstance>::`scalar deleting destructor'
PUBLIC	??_R4?$CDynamicPool@VCGraphicImageInstance@@@@6B@ ; CDynamicPool<CGraphicImageInstance>::`RTTI Complete Object Locator'
PUBLIC	??_R0?AV?$CDynamicPool@VCGraphicImageInstance@@@@@8 ; CDynamicPool<CGraphicImageInstance> `RTTI Type Descriptor'
PUBLIC	??_R3?$CDynamicPool@VCGraphicImageInstance@@@@8	; CDynamicPool<CGraphicImageInstance>::`RTTI Class Hierarchy Descriptor'
PUBLIC	??_R2?$CDynamicPool@VCGraphicImageInstance@@@@8	; CDynamicPool<CGraphicImageInstance>::`RTTI Base Class Array'
PUBLIC	??_R1A@?0A@EA@?$CDynamicPool@VCGraphicImageInstance@@@@8 ; CDynamicPool<CGraphicImageInstance>::`RTTI Base Class Descriptor at (0,-1,0,64)'
EXTRN	??_E?$CDynamicPool@VCGraphicImageInstance@@@@UAEPAXI@Z:PROC ; CDynamicPool<CGraphicImageInstance>::`vector deleting destructor'
EXTRN	??_7type_info@@6B@:QWORD			; type_info::`vftable'
CONST	SEGMENT
?_Fake_alloc@std@@3U_Fake_allocator@1@B	ORG $+1		; std::_Fake_alloc
CONST	ENDS
;	COMDAT ??_R1A@?0A@EA@?$CDynamicPool@VCGraphicImageInstance@@@@8
rdata$r	SEGMENT
??_R1A@?0A@EA@?$CDynamicPool@VCGraphicImageInstance@@@@8 DD FLAT:??_R0?AV?$CDynamicPool@VCGraphicImageInstance@@@@@8 ; CDynamicPool<CGraphicImageInstance>::`RTTI Base Class Descriptor at (0,-1,0,64)'
	DD	00H
	DD	00H
	DD	0ffffffffH
	DD	00H
	DD	040H
	DD	FLAT:??_R3?$CDynamicPool@VCGraphicImageInstance@@@@8
rdata$r	ENDS
;	COMDAT ??_R2?$CDynamicPool@VCGraphicImageInstance@@@@8
rdata$r	SEGMENT
??_R2?$CDynamicPool@VCGraphicImageInstance@@@@8 DD FLAT:??_R1A@?0A@EA@?$CDynamicPool@VCGraphicImageInstance@@@@8 ; CDynamicPool<CGraphicImageInstance>::`RTTI Base Class Array'
rdata$r	ENDS
;	COMDAT ??_R3?$CDynamicPool@VCGraphicImageInstance@@@@8
rdata$r	SEGMENT
??_R3?$CDynamicPool@VCGraphicImageInstance@@@@8 DD 00H	; CDynamicPool<CGraphicImageInstance>::`RTTI Class Hierarchy Descriptor'
	DD	00H
	DD	01H
	DD	FLAT:??_R2?$CDynamicPool@VCGraphicImageInstance@@@@8
rdata$r	ENDS
;	COMDAT ??_R0?AV?$CDynamicPool@VCGraphicImageInstance@@@@@8
data$rs	SEGMENT
??_R0?AV?$CDynamicPool@VCGraphicImageInstance@@@@@8 DD FLAT:??_7type_info@@6B@ ; CDynamicPool<CGraphicImageInstance> `RTTI Type Descriptor'
	DD	00H
	DB	'.?AV?$CDynamicPool@VCGraphicImageInstance@@@@', 00H
data$rs	ENDS
;	COMDAT ??_R4?$CDynamicPool@VCGraphicImageInstance@@@@6B@
rdata$r	SEGMENT
??_R4?$CDynamicPool@VCGraphicImageInstance@@@@6B@ DD 00H ; CDynamicPool<CGraphicImageInstance>::`RTTI Complete Object Locator'
	DD	00H
	DD	00H
	DD	FLAT:??_R0?AV?$CDynamicPool@VCGraphicImageInstance@@@@@8
	DD	FLAT:??_R3?$CDynamicPool@VCGraphicImageInstance@@@@8
rdata$r	ENDS
;	COMDAT ??_7?$CDynamicPool@VCGraphicImageInstance@@@@6B@
CONST	SEGMENT
??_7?$CDynamicPool@VCGraphicImageInstance@@@@6B@ DD FLAT:??_R4?$CDynamicPool@VCGraphicImageInstance@@@@6B@ ; CDynamicPool<CGraphicImageInstance>::`vftable'
	DD	FLAT:??_E?$CDynamicPool@VCGraphicImageInstance@@@@UAEPAXI@Z
CONST	ENDS
PUBLIC	??_H@YGXPAXIIP6EPAX0@Z@Z			; `vector constructor iterator'
PUBLIC	??0exception@std@@QAE@ABV01@@Z			; std::exception::exception
PUBLIC	??1exception@std@@UAE@XZ			; std::exception::~exception
PUBLIC	?what@exception@std@@UBEPBDXZ			; std::exception::what
PUBLIC	??_Gexception@std@@UAEPAXI@Z			; std::exception::`scalar deleting destructor'
PUBLIC	??0bad_alloc@std@@QAE@ABV01@@Z			; std::bad_alloc::bad_alloc
PUBLIC	??_Gbad_alloc@std@@UAEPAXI@Z			; std::bad_alloc::`scalar deleting destructor'
PUBLIC	??0bad_array_new_length@std@@QAE@XZ		; std::bad_array_new_length::bad_array_new_length
PUBLIC	??1bad_array_new_length@std@@UAE@XZ		; std::bad_array_new_length::~bad_array_new_length
PUBLIC	??0bad_array_new_length@std@@QAE@ABV01@@Z	; std::bad_array_new_length::bad_array_new_length
PUBLIC	??_Gbad_array_new_length@std@@UAEPAXI@Z		; std::bad_array_new_length::`scalar deleting destructor'
PUBLIC	?_Throw_bad_array_new_length@std@@YAXXZ		; std::_Throw_bad_array_new_length
PUBLIC	??$_Allocate_manually_vector_aligned@U_Default_allocate_traits@std@@@std@@YAPAXI@Z ; std::_Allocate_manually_vector_aligned<std::_Default_allocate_traits>
PUBLIC	??0SPDTVertex@@QAE@XZ				; SPDTVertex::SPDTVertex
PUBLIC	?Type@CGraphicImageInstance@@SAKXZ		; CGraphicImageInstance::Type
PUBLIC	?IsType@CGraphicImageInstance@@QAEHK@Z		; CGraphicImageInstance::IsType
PUBLIC	??0CGraphicImageInstance@@QAE@XZ		; CGraphicImageInstance::CGraphicImageInstance
PUBLIC	??1CGraphicImageInstance@@UAE@XZ		; CGraphicImageInstance::~CGraphicImageInstance
PUBLIC	?Destroy@CGraphicImageInstance@@QAEXXZ		; CGraphicImageInstance::Destroy
PUBLIC	?Render@CGraphicImageInstance@@QAEXXZ		; CGraphicImageInstance::Render
PUBLIC	?SetDiffuseColor@CGraphicImageInstance@@QAEXMMMM@Z ; CGraphicImageInstance::SetDiffuseColor
PUBLIC	?SetPosition@CGraphicImageInstance@@QAEXMM@Z	; CGraphicImageInstance::SetPosition
PUBLIC	?SetImagePointer@CGraphicImageInstance@@QAEXPAVCGraphicImage@@@Z ; CGraphicImageInstance::SetImagePointer
PUBLIC	?ReloadImagePointer@CGraphicImageInstance@@QAEXPAVCGraphicImage@@@Z ; CGraphicImageInstance::ReloadImagePointer
PUBLIC	?IsEmpty@CGraphicImageInstance@@QBE_NXZ		; CGraphicImageInstance::IsEmpty
PUBLIC	?GetWidth@CGraphicImageInstance@@QAEHXZ		; CGraphicImageInstance::GetWidth
PUBLIC	?GetHeight@CGraphicImageInstance@@QAEHXZ	; CGraphicImageInstance::GetHeight
PUBLIC	?RenderCoolTime@CGraphicImageInstance@@QAEXM@Z	; CGraphicImageInstance::RenderCoolTime
PUBLIC	?OnRenderCoolTime@CGraphicImageInstance@@UAEXM@Z ; CGraphicImageInstance::OnRenderCoolTime
PUBLIC	?GetTexturePointer@CGraphicImageInstance@@QAEPAVCGraphicTexture@@XZ ; CGraphicImageInstance::GetTexturePointer
PUBLIC	?GetTextureReference@CGraphicImageInstance@@QBEABVCGraphicTexture@@XZ ; CGraphicImageInstance::GetTextureReference
PUBLIC	?GetGraphicImagePointer@CGraphicImageInstance@@QAEPAVCGraphicImage@@XZ ; CGraphicImageInstance::GetGraphicImagePointer
PUBLIC	??8CGraphicImageInstance@@QBE_NABV0@@Z		; CGraphicImageInstance::operator==
PUBLIC	?Initialize@CGraphicImageInstance@@IAEXXZ	; CGraphicImageInstance::Initialize
PUBLIC	?OnRender@CGraphicImageInstance@@MAEXXZ		; CGraphicImageInstance::OnRender
PUBLIC	?OnSetImagePointer@CGraphicImageInstance@@MAEXXZ ; CGraphicImageInstance::OnSetImagePointer
PUBLIC	?OnIsType@CGraphicImageInstance@@MAEHK@Z	; CGraphicImageInstance::OnIsType
PUBLIC	?CreateSystem@CGraphicImageInstance@@SAXI@Z	; CGraphicImageInstance::CreateSystem
PUBLIC	?DestroySystem@CGraphicImageInstance@@SAXXZ	; CGraphicImageInstance::DestroySystem
PUBLIC	?New@CGraphicImageInstance@@SAPAV1@XZ		; CGraphicImageInstance::New
PUBLIC	?Delete@CGraphicImageInstance@@SAXPAV1@@Z	; CGraphicImageInstance::Delete
PUBLIC	??_GCGraphicImageInstance@@UAEPAXI@Z		; CGraphicImageInstance::`scalar deleting destructor'
PUBLIC	??1?$CDynamicPool@VCGraphicImageInstance@@@@UAE@XZ ; CDynamicPool<CGraphicImageInstance>::~CDynamicPool<CGraphicImageInstance>
PUBLIC	?Delete@?$CDynamicPool@VCGraphicImageInstance@@@@KAXPAVCGraphicImageInstance@@@Z ; CDynamicPool<CGraphicImageInstance>::Delete
PUBLIC	?_Reallocate_exactly@?$vector@PAVCGraphicImageInstance@@V?$allocator@PAVCGraphicImageInstance@@@std@@@std@@AAEXI@Z ; std::vector<CGraphicImageInstance *,std::allocator<CGraphicImageInstance *> >::_Reallocate_exactly
PUBLIC	?_Change_array@?$vector@PAVCGraphicImageInstance@@V?$allocator@PAVCGraphicImageInstance@@@std@@@std@@AAEXQAPAVCGraphicImageInstance@@II@Z ; std::vector<CGraphicImageInstance *,std::allocator<CGraphicImageInstance *> >::_Change_array
PUBLIC	?_Xlength@?$vector@PAVCGraphicImageInstance@@V?$allocator@PAVCGraphicImageInstance@@@std@@@std@@CAXXZ ; std::vector<CGraphicImageInstance *,std::allocator<CGraphicImageInstance *> >::_Xlength
PUBLIC	??1?$vector@USPDTVertex@@V?$allocator@USPDTVertex@@@std@@@std@@QAE@XZ ; std::vector<SPDTVertex,std::allocator<SPDTVertex> >::~vector<SPDTVertex,std::allocator<SPDTVertex> >
PUBLIC	?_Xlength@?$vector@USPDTVertex@@V?$allocator@USPDTVertex@@@std@@@std@@CAXXZ ; std::vector<SPDTVertex,std::allocator<SPDTVertex> >::_Xlength
PUBLIC	??$_Emplace_reallocate@ABUSPDTVertex@@@?$vector@USPDTVertex@@V?$allocator@USPDTVertex@@@std@@@std@@QAEPAUSPDTVertex@@QAU2@ABU2@@Z ; std::vector<SPDTVertex,std::allocator<SPDTVertex> >::_Emplace_reallocate<SPDTVertex const &>
PUBLIC	??$_Emplace_reallocate@ABQAVCGraphicImageInstance@@@?$vector@PAVCGraphicImageInstance@@V?$allocator@PAVCGraphicImageInstance@@@std@@@std@@QAEPAPAVCGraphicImageInstance@@QAPAV2@ABQAV2@@Z ; std::vector<CGraphicImageInstance *,std::allocator<CGraphicImageInstance *> >::_Emplace_reallocate<CGraphicImageInstance * const &>
PUBLIC	??$_Copy_memmove@PAPAVCGraphicImageInstance@@PAPAV1@@std@@YAPAPAVCGraphicImageInstance@@PAPAV1@00@Z ; std::_Copy_memmove<CGraphicImageInstance * *,CGraphicImageInstance * *>
PUBLIC	??_7exception@std@@6B@				; std::exception::`vftable'
PUBLIC	??_C@_0BC@EOODALEL@Unknown?5exception@		; `string'
PUBLIC	??_7bad_alloc@std@@6B@				; std::bad_alloc::`vftable'
PUBLIC	??_7bad_array_new_length@std@@6B@		; std::bad_array_new_length::`vftable'
PUBLIC	??_C@_0BF@KINCDENJ@bad?5array?5new?5length@	; `string'
PUBLIC	__TI3?AVbad_array_new_length@std@@
PUBLIC	__CTA3?AVbad_array_new_length@std@@
PUBLIC	??_R0?AVbad_array_new_length@std@@@8		; std::bad_array_new_length `RTTI Type Descriptor'
PUBLIC	__CT??_R0?AVbad_array_new_length@std@@@8??0bad_array_new_length@std@@QAE@ABV01@@Z12
PUBLIC	??_R0?AVbad_alloc@std@@@8			; std::bad_alloc `RTTI Type Descriptor'
PUBLIC	__CT??_R0?AVbad_alloc@std@@@8??0bad_alloc@std@@QAE@ABV01@@Z12
PUBLIC	??_R0?AVexception@std@@@8			; std::exception `RTTI Type Descriptor'
PUBLIC	__CT??_R0?AVexception@std@@@8??0exception@std@@QAE@ABV01@@Z12
PUBLIC	??_R4exception@std@@6B@				; std::exception::`RTTI Complete Object Locator'
PUBLIC	??_R3exception@std@@8				; std::exception::`RTTI Class Hierarchy Descriptor'
PUBLIC	??_R2exception@std@@8				; std::exception::`RTTI Base Class Array'
PUBLIC	??_R1A@?0A@EA@exception@std@@8			; std::exception::`RTTI Base Class Descriptor at (0,-1,0,64)'
PUBLIC	??_R4bad_alloc@std@@6B@				; std::bad_alloc::`RTTI Complete Object Locator'
PUBLIC	??_R3bad_alloc@std@@8				; std::bad_alloc::`RTTI Class Hierarchy Descriptor'
PUBLIC	??_R2bad_alloc@std@@8				; std::bad_alloc::`RTTI Base Class Array'
PUBLIC	??_R1A@?0A@EA@bad_alloc@std@@8			; std::bad_alloc::`RTTI Base Class Descriptor at (0,-1,0,64)'
PUBLIC	??_R4bad_array_new_length@std@@6B@		; std::bad_array_new_length::`RTTI Complete Object Locator'
PUBLIC	??_R3bad_array_new_length@std@@8		; std::bad_array_new_length::`RTTI Class Hierarchy Descriptor'
PUBLIC	??_R2bad_array_new_length@std@@8		; std::bad_array_new_length::`RTTI Base Class Array'
PUBLIC	??_R1A@?0A@EA@bad_array_new_length@std@@8	; std::bad_array_new_length::`RTTI Base Class Descriptor at (0,-1,0,64)'
PUBLIC	?ms_kPool@CGraphicImageInstance@@2V?$CDynamicPool@VCGraphicImageInstance@@@@A ; CGraphicImageInstance::ms_kPool
PUBLIC	??_7CGraphicImageInstance@@6B@			; CGraphicImageInstance::`vftable'
PUBLIC	?ms_singleton@?$CSingleton@VCStateManager@@@@0PAVCStateManager@@A ; CSingleton<CStateManager>::ms_singleton
PUBLIC	??_C@_0BG@OHFFHEGB@CGraphicImageInstance@	; `string'
PUBLIC	??_C@_0BA@FOIKENOD@vector?5too?5long@		; `string'
PUBLIC	??_R4CGraphicImageInstance@@6B@			; CGraphicImageInstance::`RTTI Complete Object Locator'
PUBLIC	??_R0?AVCGraphicImageInstance@@@8		; CGraphicImageInstance `RTTI Type Descriptor'
PUBLIC	??_R3CGraphicImageInstance@@8			; CGraphicImageInstance::`RTTI Class Hierarchy Descriptor'
PUBLIC	??_R2CGraphicImageInstance@@8			; CGraphicImageInstance::`RTTI Base Class Array'
PUBLIC	??_R1A@?0A@EA@CGraphicImageInstance@@8		; CGraphicImageInstance::`RTTI Base Class Descriptor at (0,-1,0,64)'
PUBLIC	__real@3f000000
PUBLIC	__real@3f800000
PUBLIC	__real@41000000
PUBLIC	__real@437f0000
EXTRN	??2@YAPAXI@Z:PROC				; operator new
EXTRN	??3@YAXPAXI@Z:PROC				; operator delete
EXTRN	_atexit:PROC
EXTRN	__Init_thread_header:PROC
EXTRN	__Init_thread_abort:PROC
EXTRN	__Init_thread_footer:PROC
EXTRN	___std_terminate:PROC
EXTRN	__invalid_parameter_noinfo_noreturn:PROC
EXTRN	___std_exception_copy:PROC
EXTRN	___std_exception_destroy:PROC
EXTRN	??_Eexception@std@@UAEPAXI@Z:PROC		; std::exception::`vector deleting destructor'
EXTRN	??_Ebad_alloc@std@@UAEPAXI@Z:PROC		; std::bad_alloc::`vector deleting destructor'
EXTRN	??_Ebad_array_new_length@std@@UAEPAXI@Z:PROC	; std::bad_array_new_length::`vector deleting destructor'
EXTRN	?_Xlength_error@std@@YAXPBD@Z:PROC		; std::_Xlength_error
EXTRN	?AddReference@CReferenceObject@@QAEXXZ:PROC	; CReferenceObject::AddReference
EXTRN	?Release@CReferenceObject@@QAEXXZ:PROC		; CReferenceObject::Release
EXTRN	?Reload@CResource@@QAEXXZ:PROC			; CResource::Reload
EXTRN	?IsEmpty@CResource@@QBE_NXZ:PROC		; CResource::IsEmpty
EXTRN	?SetDefaultIndexBuffer@CGraphicBase@@SAXI@Z:PROC ; CGraphicBase::SetDefaultIndexBuffer
EXTRN	?SetPDTStream@CGraphicBase@@SA_NPAUSPDTVertex@@I@Z:PROC ; CGraphicBase::SetPDTStream
EXTRN	?GetWidth@CGraphicTexture@@QBEHXZ:PROC		; CGraphicTexture::GetWidth
EXTRN	?GetHeight@CGraphicTexture@@QBEHXZ:PROC		; CGraphicTexture::GetHeight
EXTRN	?GetD3DTexture@CGraphicTexture@@QBEPAUIDirect3DTexture8@@XZ:PROC ; CGraphicTexture::GetD3DTexture
EXTRN	?GetWidth@CGraphicImage@@QBEHXZ:PROC		; CGraphicImage::GetWidth
EXTRN	?GetHeight@CGraphicImage@@QBEHXZ:PROC		; CGraphicImage::GetHeight
EXTRN	?GetRectReference@CGraphicImage@@QBEABUtagRECT@@XZ:PROC ; CGraphicImage::GetRectReference
EXTRN	?GetTextureReference@CGraphicImage@@QBEABVCGraphicTexture@@XZ:PROC ; CGraphicImage::GetTextureReference
EXTRN	?GetTexturePointer@CGraphicImage@@QAEPAVCGraphicTexture@@XZ:PROC ; CGraphicImage::GetTexturePointer
EXTRN	??_ECGraphicImageInstance@@UAEPAXI@Z:PROC	; CGraphicImageInstance::`vector deleting destructor'
EXTRN	?SetRenderState@CStateManager@@QAEXW4_D3DRENDERSTATETYPE@@K@Z:PROC ; CStateManager::SetRenderState
EXTRN	?SetTexture@CStateManager@@QAEXKPAUIDirect3DBaseTexture8@@@Z:PROC ; CStateManager::SetTexture
EXTRN	?SetVertexShader@CStateManager@@QAEXK@Z:PROC	; CStateManager::SetVertexShader
EXTRN	?DrawPrimitive@CStateManager@@QAEJW4_D3DPRIMITIVETYPE@@II@Z:PROC ; CStateManager::DrawPrimitive
EXTRN	?DrawIndexedPrimitive@CStateManager@@QAEJW4_D3DPRIMITIVETYPE@@IIII@Z:PROC ; CStateManager::DrawIndexedPrimitive
EXTRN	?GetCRC32@@YAKPBDI@Z:PROC			; GetCRC32
EXTRN	@__security_check_cookie@4:PROC
EXTRN	__CxxThrowException@8:PROC
EXTRN	___CxxFrameHandler3:PROC
EXTRN	__ftoui3:PROC
EXTRN	_memmove:PROC
EXTRN	__Init_thread_epoch:DWORD
EXTRN	___security_cookie:DWORD
EXTRN	__fltused:DWORD
EXTRN	__tls_array:DWORD
EXTRN	__tls_index:DWORD
;	COMDAT ?ms_singleton@?$CSingleton@VCStateManager@@@@0PAVCStateManager@@A
_BSS	SEGMENT
?ms_singleton@?$CSingleton@VCStateManager@@@@0PAVCStateManager@@A DD 01H DUP (?) ; CSingleton<CStateManager>::ms_singleton
_BSS	ENDS
;	COMDAT ?s_dwType@?1??Type@CGraphicImageInstance@@SAKXZ@4KA
_BSS	SEGMENT
?s_dwType@?1??Type@CGraphicImageInstance@@SAKXZ@4KA DD 01H DUP (?) ; `CGraphicImageInstance::Type'::`2'::s_dwType
_BSS	ENDS
;	COMDAT ?$TSS0@?1??Type@CGraphicImageInstance@@SAKXZ@4HA
_BSS	SEGMENT
?$TSS0@?1??Type@CGraphicImageInstance@@SAKXZ@4HA DD 01H DUP (?) ; `CGraphicImageInstance::Type'::`2'::$TSS0
_BSS	ENDS
CRT$XCU	SEGMENT
??ms_kPool$initializer$@CGraphicImageInstance@@2P6AXXZA@@3P6AXXZA DD FLAT:??__E?ms_kPool@CGraphicImageInstance@@2V?$CDynamicPool@VCGraphicImageInstance@@@@A@@YAXXZ ; ??ms_kPool$initializer$@CGraphicImageInstance@@2P6AXXZA@@3P6AXXZA
CRT$XCU	ENDS
;	COMDAT __real@437f0000
CONST	SEGMENT
__real@437f0000 DD 0437f0000r			; 255
CONST	ENDS
;	COMDAT __real@41000000
CONST	SEGMENT
__real@41000000 DD 041000000r			; 8
CONST	ENDS
;	COMDAT __real@3f800000
CONST	SEGMENT
__real@3f800000 DD 03f800000r			; 1
CONST	ENDS
;	COMDAT __real@3f000000
CONST	SEGMENT
__real@3f000000 DD 03f000000r			; 0.5
CONST	ENDS
;	COMDAT ??_R1A@?0A@EA@CGraphicImageInstance@@8
rdata$r	SEGMENT
??_R1A@?0A@EA@CGraphicImageInstance@@8 DD FLAT:??_R0?AVCGraphicImageInstance@@@8 ; CGraphicImageInstance::`RTTI Base Class Descriptor at (0,-1,0,64)'
	DD	00H
	DD	00H
	DD	0ffffffffH
	DD	00H
	DD	040H
	DD	FLAT:??_R3CGraphicImageInstance@@8
rdata$r	ENDS
;	COMDAT ??_R2CGraphicImageInstance@@8
rdata$r	SEGMENT
??_R2CGraphicImageInstance@@8 DD FLAT:??_R1A@?0A@EA@CGraphicImageInstance@@8 ; CGraphicImageInstance::`RTTI Base Class Array'
rdata$r	ENDS
;	COMDAT ??_R3CGraphicImageInstance@@8
rdata$r	SEGMENT
??_R3CGraphicImageInstance@@8 DD 00H			; CGraphicImageInstance::`RTTI Class Hierarchy Descriptor'
	DD	00H
	DD	01H
	DD	FLAT:??_R2CGraphicImageInstance@@8
rdata$r	ENDS
;	COMDAT ??_R0?AVCGraphicImageInstance@@@8
data$rs	SEGMENT
??_R0?AVCGraphicImageInstance@@@8 DD FLAT:??_7type_info@@6B@ ; CGraphicImageInstance `RTTI Type Descriptor'
	DD	00H
	DB	'.?AVCGraphicImageInstance@@', 00H
data$rs	ENDS
;	COMDAT ??_R4CGraphicImageInstance@@6B@
rdata$r	SEGMENT
??_R4CGraphicImageInstance@@6B@ DD 00H			; CGraphicImageInstance::`RTTI Complete Object Locator'
	DD	00H
	DD	00H
	DD	FLAT:??_R0?AVCGraphicImageInstance@@@8
	DD	FLAT:??_R3CGraphicImageInstance@@8
rdata$r	ENDS
;	COMDAT ??_C@_0BA@FOIKENOD@vector?5too?5long@
CONST	SEGMENT
??_C@_0BA@FOIKENOD@vector?5too?5long@ DB 'vector too long', 00H ; `string'
CONST	ENDS
;	COMDAT ??_C@_0BG@OHFFHEGB@CGraphicImageInstance@
CONST	SEGMENT
??_C@_0BG@OHFFHEGB@CGraphicImageInstance@ DB 'CGraphicImageInstance', 00H ; `string'
CONST	ENDS
;	COMDAT ?s_v2BoxPos@?4??OnRenderCoolTime@CGraphicImageInstance@@UAEXM@Z@4PAUD3DXVECTOR2@@A
_DATA	SEGMENT
?s_v2BoxPos@?4??OnRenderCoolTime@CGraphicImageInstance@@UAEXM@Z@4PAUD3DXVECTOR2@@A DD 0bf800000r ; -1 ; `CGraphicImageInstance::OnRenderCoolTime'::`5'::s_v2BoxPos
	DD	0bf800000r			; -1
	DD	0bf800000r			; -1
	DD	000000000r			; 0
	DD	0bf800000r			; -1
	DD	03f800000r			; 1
	DD	000000000r			; 0
	DD	03f800000r			; 1
	DD	03f800000r			; 1
	DD	03f800000r			; 1
	DD	03f800000r			; 1
	DD	000000000r			; 0
	DD	03f800000r			; 1
	DD	0bf800000r			; -1
	DD	000000000r			; 0
	DD	0bf800000r			; -1
_DATA	ENDS
;	COMDAT ??_7CGraphicImageInstance@@6B@
CONST	SEGMENT
??_7CGraphicImageInstance@@6B@ DD FLAT:??_R4CGraphicImageInstance@@6B@ ; CGraphicImageInstance::`vftable'
	DD	FLAT:??_ECGraphicImageInstance@@UAEPAXI@Z
	DD	FLAT:?OnRenderCoolTime@CGraphicImageInstance@@UAEXM@Z
	DD	FLAT:?OnRender@CGraphicImageInstance@@MAEXXZ
	DD	FLAT:?OnSetImagePointer@CGraphicImageInstance@@MAEXXZ
	DD	FLAT:?OnIsType@CGraphicImageInstance@@MAEHK@Z
CONST	ENDS
_DATA	SEGMENT
?ms_kPool@CGraphicImageInstance@@2V?$CDynamicPool@VCGraphicImageInstance@@@@A DD FLAT:??_7?$CDynamicPool@VCGraphicImageInstance@@@@6B@ ; CGraphicImageInstance::ms_kPool
	DD	00H
	DD	00H
	DD	00H
	DD	00H
	DD	00H
	DD	00H
	DD	00H
	DD	00H
_DATA	ENDS
;	COMDAT ??_R1A@?0A@EA@bad_array_new_length@std@@8
rdata$r	SEGMENT
??_R1A@?0A@EA@bad_array_new_length@std@@8 DD FLAT:??_R0?AVbad_array_new_length@std@@@8 ; std::bad_array_new_length::`RTTI Base Class Descriptor at (0,-1,0,64)'
	DD	02H
	DD	00H
	DD	0ffffffffH
	DD	00H
	DD	040H
	DD	FLAT:??_R3bad_array_new_length@std@@8
rdata$r	ENDS
;	COMDAT ??_R2bad_array_new_length@std@@8
rdata$r	SEGMENT
??_R2bad_array_new_length@std@@8 DD FLAT:??_R1A@?0A@EA@bad_array_new_length@std@@8 ; std::bad_array_new_length::`RTTI Base Class Array'
	DD	FLAT:??_R1A@?0A@EA@bad_alloc@std@@8
	DD	FLAT:??_R1A@?0A@EA@exception@std@@8
rdata$r	ENDS
;	COMDAT ??_R3bad_array_new_length@std@@8
rdata$r	SEGMENT
??_R3bad_array_new_length@std@@8 DD 00H			; std::bad_array_new_length::`RTTI Class Hierarchy Descriptor'
	DD	00H
	DD	03H
	DD	FLAT:??_R2bad_array_new_length@std@@8
rdata$r	ENDS
;	COMDAT ??_R4bad_array_new_length@std@@6B@
rdata$r	SEGMENT
??_R4bad_array_new_length@std@@6B@ DD 00H		; std::bad_array_new_length::`RTTI Complete Object Locator'
	DD	00H
	DD	00H
	DD	FLAT:??_R0?AVbad_array_new_length@std@@@8
	DD	FLAT:??_R3bad_array_new_length@std@@8
rdata$r	ENDS
;	COMDAT ??_R1A@?0A@EA@bad_alloc@std@@8
rdata$r	SEGMENT
??_R1A@?0A@EA@bad_alloc@std@@8 DD FLAT:??_R0?AVbad_alloc@std@@@8 ; std::bad_alloc::`RTTI Base Class Descriptor at (0,-1,0,64)'
	DD	01H
	DD	00H
	DD	0ffffffffH
	DD	00H
	DD	040H
	DD	FLAT:??_R3bad_alloc@std@@8
rdata$r	ENDS
;	COMDAT ??_R2bad_alloc@std@@8
rdata$r	SEGMENT
??_R2bad_alloc@std@@8 DD FLAT:??_R1A@?0A@EA@bad_alloc@std@@8 ; std::bad_alloc::`RTTI Base Class Array'
	DD	FLAT:??_R1A@?0A@EA@exception@std@@8
rdata$r	ENDS
;	COMDAT ??_R3bad_alloc@std@@8
rdata$r	SEGMENT
??_R3bad_alloc@std@@8 DD 00H				; std::bad_alloc::`RTTI Class Hierarchy Descriptor'
	DD	00H
	DD	02H
	DD	FLAT:??_R2bad_alloc@std@@8
rdata$r	ENDS
;	COMDAT ??_R4bad_alloc@std@@6B@
rdata$r	SEGMENT
??_R4bad_alloc@std@@6B@ DD 00H				; std::bad_alloc::`RTTI Complete Object Locator'
	DD	00H
	DD	00H
	DD	FLAT:??_R0?AVbad_alloc@std@@@8
	DD	FLAT:??_R3bad_alloc@std@@8
rdata$r	ENDS
;	COMDAT ??_R1A@?0A@EA@exception@std@@8
rdata$r	SEGMENT
??_R1A@?0A@EA@exception@std@@8 DD FLAT:??_R0?AVexception@std@@@8 ; std::exception::`RTTI Base Class Descriptor at (0,-1,0,64)'
	DD	00H
	DD	00H
	DD	0ffffffffH
	DD	00H
	DD	040H
	DD	FLAT:??_R3exception@std@@8
rdata$r	ENDS
;	COMDAT ??_R2exception@std@@8
rdata$r	SEGMENT
??_R2exception@std@@8 DD FLAT:??_R1A@?0A@EA@exception@std@@8 ; std::exception::`RTTI Base Class Array'
rdata$r	ENDS
;	COMDAT ??_R3exception@std@@8
rdata$r	SEGMENT
??_R3exception@std@@8 DD 00H				; std::exception::`RTTI Class Hierarchy Descriptor'
	DD	00H
	DD	01H
	DD	FLAT:??_R2exception@std@@8
rdata$r	ENDS
;	COMDAT ??_R4exception@std@@6B@
rdata$r	SEGMENT
??_R4exception@std@@6B@ DD 00H				; std::exception::`RTTI Complete Object Locator'
	DD	00H
	DD	00H
	DD	FLAT:??_R0?AVexception@std@@@8
	DD	FLAT:??_R3exception@std@@8
rdata$r	ENDS
;	COMDAT __CT??_R0?AVexception@std@@@8??0exception@std@@QAE@ABV01@@Z12
xdata$x	SEGMENT
__CT??_R0?AVexception@std@@@8??0exception@std@@QAE@ABV01@@Z12 DD 00H
	DD	FLAT:??_R0?AVexception@std@@@8
	DD	00H
	DD	0ffffffffH
	ORG $+4
	DD	0cH
	DD	FLAT:??0exception@std@@QAE@ABV01@@Z
xdata$x	ENDS
;	COMDAT ??_R0?AVexception@std@@@8
data$r	SEGMENT
??_R0?AVexception@std@@@8 DD FLAT:??_7type_info@@6B@	; std::exception `RTTI Type Descriptor'
	DD	00H
	DB	'.?AVexception@std@@', 00H
data$r	ENDS
;	COMDAT __CT??_R0?AVbad_alloc@std@@@8??0bad_alloc@std@@QAE@ABV01@@Z12
xdata$x	SEGMENT
__CT??_R0?AVbad_alloc@std@@@8??0bad_alloc@std@@QAE@ABV01@@Z12 DD 010H
	DD	FLAT:??_R0?AVbad_alloc@std@@@8
	DD	00H
	DD	0ffffffffH
	ORG $+4
	DD	0cH
	DD	FLAT:??0bad_alloc@std@@QAE@ABV01@@Z
xdata$x	ENDS
;	COMDAT ??_R0?AVbad_alloc@std@@@8
data$r	SEGMENT
??_R0?AVbad_alloc@std@@@8 DD FLAT:??_7type_info@@6B@	; std::bad_alloc `RTTI Type Descriptor'
	DD	00H
	DB	'.?AVbad_alloc@std@@', 00H
data$r	ENDS
;	COMDAT __CT??_R0?AVbad_array_new_length@std@@@8??0bad_array_new_length@std@@QAE@ABV01@@Z12
xdata$x	SEGMENT
__CT??_R0?AVbad_array_new_length@std@@@8??0bad_array_new_length@std@@QAE@ABV01@@Z12 DD 00H
	DD	FLAT:??_R0?AVbad_array_new_length@std@@@8
	DD	00H
	DD	0ffffffffH
	ORG $+4
	DD	0cH
	DD	FLAT:??0bad_array_new_length@std@@QAE@ABV01@@Z
xdata$x	ENDS
;	COMDAT ??_R0?AVbad_array_new_length@std@@@8
data$r	SEGMENT
??_R0?AVbad_array_new_length@std@@@8 DD FLAT:??_7type_info@@6B@ ; std::bad_array_new_length `RTTI Type Descriptor'
	DD	00H
	DB	'.?AVbad_array_new_length@std@@', 00H
data$r	ENDS
;	COMDAT __CTA3?AVbad_array_new_length@std@@
xdata$x	SEGMENT
__CTA3?AVbad_array_new_length@std@@ DD 03H
	DD	FLAT:__CT??_R0?AVbad_array_new_length@std@@@8??0bad_array_new_length@std@@QAE@ABV01@@Z12
	DD	FLAT:__CT??_R0?AVbad_alloc@std@@@8??0bad_alloc@std@@QAE@ABV01@@Z12
	DD	FLAT:__CT??_R0?AVexception@std@@@8??0exception@std@@QAE@ABV01@@Z12
xdata$x	ENDS
;	COMDAT __TI3?AVbad_array_new_length@std@@
xdata$x	SEGMENT
__TI3?AVbad_array_new_length@std@@ DD 00H
	DD	FLAT:??1bad_array_new_length@std@@UAE@XZ
	DD	00H
	DD	FLAT:__CTA3?AVbad_array_new_length@std@@
xdata$x	ENDS
;	COMDAT ??_C@_0BF@KINCDENJ@bad?5array?5new?5length@
CONST	SEGMENT
??_C@_0BF@KINCDENJ@bad?5array?5new?5length@ DB 'bad array new length', 00H ; `string'
CONST	ENDS
;	COMDAT ??_7bad_array_new_length@std@@6B@
CONST	SEGMENT
??_7bad_array_new_length@std@@6B@ DD FLAT:??_R4bad_array_new_length@std@@6B@ ; std::bad_array_new_length::`vftable'
	DD	FLAT:??_Ebad_array_new_length@std@@UAEPAXI@Z
	DD	FLAT:?what@exception@std@@UBEPBDXZ
CONST	ENDS
;	COMDAT ??_7bad_alloc@std@@6B@
CONST	SEGMENT
??_7bad_alloc@std@@6B@ DD FLAT:??_R4bad_alloc@std@@6B@	; std::bad_alloc::`vftable'
	DD	FLAT:??_Ebad_alloc@std@@UAEPAXI@Z
	DD	FLAT:?what@exception@std@@UBEPBDXZ
CONST	ENDS
;	COMDAT ??_C@_0BC@EOODALEL@Unknown?5exception@
CONST	SEGMENT
??_C@_0BC@EOODALEL@Unknown?5exception@ DB 'Unknown exception', 00H ; `string'
CONST	ENDS
;	COMDAT ??_7exception@std@@6B@
CONST	SEGMENT
??_7exception@std@@6B@ DD FLAT:??_R4exception@std@@6B@	; std::exception::`vftable'
	DD	FLAT:??_Eexception@std@@UAEPAXI@Z
	DD	FLAT:?what@exception@std@@UBEPBDXZ
CONST	ENDS
;	COMDAT xdata$x
xdata$x	SEGMENT
__ehfuncinfo$??1?$CRef@VCGraphicImage@@@@QAE@XZ DD 019930522H
	DD	00H
	DD	00H
	DD	2 DUP(00H)
	DD	2 DUP(00H)
	DD	00H
	DD	05H
xdata$x	ENDS
;	COMDAT xdata$x
xdata$x	SEGMENT
__unwindtable$?OnRenderCoolTime@CGraphicImageInstance@@UAEXM@Z DD 0ffffffffH
	DD	FLAT:__unwindfunclet$?OnRenderCoolTime@CGraphicImageInstance@@UAEXM@Z$1
__ehfuncinfo$?OnRenderCoolTime@CGraphicImageInstance@@UAEXM@Z DD 019930522H
	DD	01H
	DD	FLAT:__unwindtable$?OnRenderCoolTime@CGraphicImageInstance@@UAEXM@Z
	DD	2 DUP(00H)
	DD	2 DUP(00H)
	DD	00H
	DD	01H
xdata$x	ENDS
;	COMDAT xdata$x
xdata$x	SEGMENT
__unwindtable$??1CGraphicImageInstance@@UAE@XZ DD 0ffffffffH
	DD	FLAT:___std_terminate
__ehfuncinfo$??1CGraphicImageInstance@@UAE@XZ DD 019930522H
	DD	01H
	DD	FLAT:__unwindtable$??1CGraphicImageInstance@@UAE@XZ
	DD	2 DUP(00H)
	DD	2 DUP(00H)
	DD	00H
	DD	05H
xdata$x	ENDS
;	COMDAT xdata$x
xdata$x	SEGMENT
__unwindtable$?Type@CGraphicImageInstance@@SAKXZ DD 0ffffffffH
	DD	FLAT:__unwindfunclet$?Type@CGraphicImageInstance@@SAKXZ$0
__ehfuncinfo$?Type@CGraphicImageInstance@@SAKXZ DD 019930522H
	DD	01H
	DD	FLAT:__unwindtable$?Type@CGraphicImageInstance@@SAKXZ
	DD	2 DUP(00H)
	DD	2 DUP(00H)
	DD	00H
	DD	01H
xdata$x	ENDS
; Function compile flags: /Ogtp
; File C:\Program Files (x86)\Microsoft Visual Studio\2019\Professional\VC\Tools\MSVC\14.29.30133\include\xutility
;	COMDAT ??$_Copy_memmove@PAPAVCGraphicImageInstance@@PAPAV1@@std@@YAPAPAVCGraphicImageInstance@@PAPAV1@00@Z
_TEXT	SEGMENT
__First$ = 8						; size = 4
__Last$ = 12						; size = 4
__Dest$ = 16						; size = 4
??$_Copy_memmove@PAPAVCGraphicImageInstance@@PAPAV1@@std@@YAPAPAVCGraphicImageInstance@@PAPAV1@00@Z PROC ; std::_Copy_memmove<CGraphicImageInstance * *,CGraphicImageInstance * *>, COMDAT

; 4159 : _OutCtgIt _Copy_memmove(_CtgIt _First, _CtgIt _Last, _OutCtgIt _Dest) {

  00000	55		 push	 ebp
  00001	8b ec		 mov	 ebp, esp

; 4160 :     auto _FirstPtr              = _To_address(_First);
; 4161 :     auto _LastPtr               = _To_address(_Last);
; 4162 :     auto _DestPtr               = _To_address(_Dest);
; 4163 :     const char* const _First_ch = const_cast<const char*>(reinterpret_cast<const volatile char*>(_FirstPtr));
; 4164 :     const char* const _Last_ch  = const_cast<const char*>(reinterpret_cast<const volatile char*>(_LastPtr));
; 4165 :     char* const _Dest_ch        = const_cast<char*>(reinterpret_cast<const volatile char*>(_DestPtr));
; 4166 :     const auto _Count           = static_cast<size_t>(_Last_ch - _First_ch);

  00003	8b 45 08	 mov	 eax, DWORD PTR __First$[ebp]
  00006	56		 push	 esi

; 4167 :     _CSTD memmove(_Dest_ch, _First_ch, _Count);

  00007	8b 75 10	 mov	 esi, DWORD PTR __Dest$[ebp]
  0000a	57		 push	 edi
  0000b	8b 7d 0c	 mov	 edi, DWORD PTR __Last$[ebp]
  0000e	2b f8		 sub	 edi, eax
  00010	57		 push	 edi
  00011	50		 push	 eax
  00012	56		 push	 esi
  00013	e8 00 00 00 00	 call	 _memmove
  00018	83 c4 0c	 add	 esp, 12			; 0000000cH

; 4168 :     if constexpr (is_pointer_v<_OutCtgIt>) {
; 4169 :         return reinterpret_cast<_OutCtgIt>(_Dest_ch + _Count);

  0001b	8d 04 37	 lea	 eax, DWORD PTR [edi+esi]
  0001e	5f		 pop	 edi
  0001f	5e		 pop	 esi

; 4170 :     } else {
; 4171 :         return _Dest + (_LastPtr - _FirstPtr);
; 4172 :     }
; 4173 : }

  00020	5d		 pop	 ebp
  00021	c3		 ret	 0
??$_Copy_memmove@PAPAVCGraphicImageInstance@@PAPAV1@@std@@YAPAPAVCGraphicImageInstance@@PAPAV1@00@Z ENDP ; std::_Copy_memmove<CGraphicImageInstance * *,CGraphicImageInstance * *>
_TEXT	ENDS
; Function compile flags: /Ogtp
; File C:\Program Files (x86)\Microsoft Visual Studio\2019\Professional\VC\Tools\MSVC\14.29.30133\include\vector
; File C:\Program Files (x86)\Microsoft Visual Studio\2019\Professional\VC\Tools\MSVC\14.29.30133\include\xmemory
; File C:\Program Files (x86)\Microsoft Visual Studio\2019\Professional\VC\Tools\MSVC\14.29.30133\include\vector
; File C:\Program Files (x86)\Microsoft Visual Studio\2019\Professional\VC\Tools\MSVC\14.29.30133\include\xmemory
; File C:\Program Files (x86)\Microsoft Visual Studio\2019\Professional\VC\Tools\MSVC\14.29.30133\include\vector
; File C:\Program Files (x86)\Microsoft Visual Studio\2019\Professional\VC\Tools\MSVC\14.29.30133\include\xmemory
; File C:\Program Files (x86)\Microsoft Visual Studio\2019\Professional\VC\Tools\MSVC\14.29.30133\include\vector
; File C:\Program Files (x86)\Microsoft Visual Studio\2019\Professional\VC\Tools\MSVC\14.29.30133\include\xmemory
; File C:\Program Files (x86)\Microsoft Visual Studio\2019\Professional\VC\Tools\MSVC\14.29.30133\include\vector
; File C:\Program Files (x86)\Microsoft Visual Studio\2019\Professional\VC\Tools\MSVC\14.29.30133\include\xmemory
; File C:\Program Files (x86)\Microsoft Visual Studio\2019\Professional\VC\Tools\MSVC\14.29.30133\include\vector
; File C:\Program Files (x86)\Microsoft Visual Studio\2019\Professional\VC\Tools\MSVC\14.29.30133\include\xmemory
; File C:\Program Files (x86)\Microsoft Visual Studio\2019\Professional\VC\Tools\MSVC\14.29.30133\include\vector
; File C:\Program Files (x86)\Microsoft Visual Studio\2019\Professional\VC\Tools\MSVC\14.29.30133\include\xmemory
; File C:\Program Files (x86)\Microsoft Visual Studio\2019\Professional\VC\Tools\MSVC\14.29.30133\include\vector
;	COMDAT ??$_Emplace_reallocate@ABQAVCGraphicImageInstance@@@?$vector@PAVCGraphicImageInstance@@V?$allocator@PAVCGraphicImageInstance@@@std@@@std@@QAEPAPAVCGraphicImageInstance@@QAPAV2@ABQAV2@@Z
_TEXT	SEGMENT
__Newsize$1$ = -8					; size = 4
__Whereoff$1$ = -4					; size = 4
tv505 = -4						; size = 4
__Whereptr$ = 8						; size = 4
_<_Val_0>$ = 12						; size = 4
??$_Emplace_reallocate@ABQAVCGraphicImageInstance@@@?$vector@PAVCGraphicImageInstance@@V?$allocator@PAVCGraphicImageInstance@@@std@@@std@@QAEPAPAVCGraphicImageInstance@@QAPAV2@ABQAV2@@Z PROC ; std::vector<CGraphicImageInstance *,std::allocator<CGraphicImageInstance *> >::_Emplace_reallocate<CGraphicImageInstance * const &>, COMDAT
; _this$ = ecx

; 765  :     _CONSTEXPR20_CONTAINER pointer _Emplace_reallocate(const pointer _Whereptr, _Valty&&... _Val) {

  00000	55		 push	 ebp
  00001	8b ec		 mov	 ebp, esp
  00003	83 ec 08	 sub	 esp, 8

; 766  :         // reallocate and insert by perfectly forwarding _Val at _Whereptr
; 767  :         _Alty& _Al        = _Getal();
; 768  :         auto& _My_data    = _Mypair._Myval2;
; 769  :         pointer& _Myfirst = _My_data._Myfirst;
; 770  :         pointer& _Mylast  = _My_data._Mylast;
; 771  : 
; 772  :         _STL_INTERNAL_CHECK(_Mylast == _My_data._Myend); // check that we have no unused capacity
; 773  : 
; 774  :         const auto _Whereoff = static_cast<size_type>(_Whereptr - _Myfirst);

  00006	8b 45 08	 mov	 eax, DWORD PTR __Whereptr$[ebp]
  00009	53		 push	 ebx
  0000a	8b d9		 mov	 ebx, ecx
  0000c	56		 push	 esi
  0000d	57		 push	 edi
  0000e	8b 13		 mov	 edx, DWORD PTR [ebx]
  00010	2b c2		 sub	 eax, edx
  00012	c1 f8 02	 sar	 eax, 2
  00015	89 45 fc	 mov	 DWORD PTR __Whereoff$1$[ebp], eax

; 775  :         const auto _Oldsize  = static_cast<size_type>(_Mylast - _Myfirst);

  00018	8b 43 04	 mov	 eax, DWORD PTR [ebx+4]
  0001b	2b c2		 sub	 eax, edx
  0001d	c1 f8 02	 sar	 eax, 2

; 776  : 
; 777  :         if (_Oldsize == max_size()) {

  00020	3d ff ff ff 3f	 cmp	 eax, 1073741823		; 3fffffffH
  00025	0f 84 d2 00 00
	00		 je	 $LN74@Emplace_re

; 1559 :         return static_cast<size_type>(_My_data._Myend - _My_data._Myfirst);

  0002b	8b 4b 08	 mov	 ecx, DWORD PTR [ebx+8]

; 779  :         }
; 780  : 
; 781  :         const size_type _Newsize     = _Oldsize + 1;

  0002e	8d 78 01	 lea	 edi, DWORD PTR [eax+1]

; 1559 :         return static_cast<size_type>(_My_data._Myend - _My_data._Myfirst);

  00031	2b ca		 sub	 ecx, edx

; 779  :         }
; 780  : 
; 781  :         const size_type _Newsize     = _Oldsize + 1;

  00033	89 7d f8	 mov	 DWORD PTR __Newsize$1$[ebp], edi

; 1559 :         return static_cast<size_type>(_My_data._Myend - _My_data._Myfirst);

  00036	c1 f9 02	 sar	 ecx, 2

; 1688 :         if (_Oldcapacity > _Max - _Oldcapacity / 2) {

  00039	b8 ff ff ff 3f	 mov	 eax, 1073741823		; 3fffffffH
  0003e	8b d1		 mov	 edx, ecx
  00040	d1 ea		 shr	 edx, 1
  00042	2b c2		 sub	 eax, edx
  00044	3b c8		 cmp	 ecx, eax
  00046	76 17		 jbe	 SHORT $LN12@Emplace_re

; 1689 :             return _Max; // geometric growth would overflow

  00048	b8 fc ff ff ff	 mov	 eax, -4			; fffffffcH
  0004d	be ff ff ff 3f	 mov	 esi, 1073741823		; 3fffffffH
; File C:\Program Files (x86)\Microsoft Visual Studio\2019\Professional\VC\Tools\MSVC\14.29.30133\include\xmemory

; 238  :             return _Allocate_manually_vector_aligned<_Traits>(_Bytes);

  00052	50		 push	 eax
  00053	e8 00 00 00 00	 call	 ??$_Allocate_manually_vector_aligned@U_Default_allocate_traits@std@@@std@@YAPAXI@Z ; std::_Allocate_manually_vector_aligned<std::_Default_allocate_traits>
  00058	83 c4 04	 add	 esp, 4
  0005b	8b f8		 mov	 edi, eax
  0005d	eb 44		 jmp	 SHORT $LN23@Emplace_re
$LN12@Emplace_re:
; File C:\Program Files (x86)\Microsoft Visual Studio\2019\Professional\VC\Tools\MSVC\14.29.30133\include\vector

; 1692 :         const size_type _Geometric = _Oldcapacity + _Oldcapacity / 2;

  0005f	8d 04 0a	 lea	 eax, DWORD PTR [edx+ecx]
; File C:\Program Files (x86)\Microsoft Visual Studio\2019\Professional\VC\Tools\MSVC\14.29.30133\include\xmemory

; 64   :         if (_Count > _Max_possible) {

  00062	8b f7		 mov	 esi, edi
  00064	3b c7		 cmp	 eax, edi
  00066	0f 43 f0	 cmovae	 esi, eax
  00069	81 fe ff ff ff
	3f		 cmp	 esi, 1073741823		; 3fffffffH
  0006f	0f 87 8d 00 00
	00		 ja	 $LN75@Emplace_re

; 66   :         }
; 67   :     }
; 68   : 
; 69   :     return _Count * _Ty_size;

  00075	8d 04 b5 00 00
	00 00		 lea	 eax, DWORD PTR [esi*4]

; 237  :         if (_Bytes >= _Big_allocation_threshold) { // boost the alignment of big allocations to help autovectorization

  0007c	3d 00 10 00 00	 cmp	 eax, 4096		; 00001000H
  00081	72 0d		 jb	 SHORT $LN24@Emplace_re

; 238  :             return _Allocate_manually_vector_aligned<_Traits>(_Bytes);

  00083	50		 push	 eax
  00084	e8 00 00 00 00	 call	 ??$_Allocate_manually_vector_aligned@U_Default_allocate_traits@std@@@std@@YAPAXI@Z ; std::_Allocate_manually_vector_aligned<std::_Default_allocate_traits>
  00089	83 c4 04	 add	 esp, 4
  0008c	8b f8		 mov	 edi, eax
  0008e	eb 13		 jmp	 SHORT $LN23@Emplace_re
$LN24@Emplace_re:

; 239  :         }
; 240  :     }
; 241  : #endif // defined(_M_IX86) || defined(_M_X64)
; 242  : 
; 243  :     if (_Bytes != 0) {

  00090	85 c0		 test	 eax, eax
  00092	74 0d		 je	 SHORT $LN25@Emplace_re

; 85   :         return ::operator new(_Bytes);

  00094	50		 push	 eax
  00095	e8 00 00 00 00	 call	 ??2@YAPAXI@Z		; operator new
  0009a	83 c4 04	 add	 esp, 4

; 244  :         return _Traits::_Allocate(_Bytes);

  0009d	8b f8		 mov	 edi, eax
  0009f	eb 02		 jmp	 SHORT $LN23@Emplace_re
$LN25@Emplace_re:

; 245  :     }
; 246  : 
; 247  :     return nullptr;

  000a1	33 ff		 xor	 edi, edi
$LN23@Emplace_re:
; File C:\Program Files (x86)\Microsoft Visual Studio\2019\Professional\VC\Tools\MSVC\14.29.30133\include\vector

; 789  :         _Alty_traits::construct(_Al, _Unfancy(_Newvec + _Whereoff), _STD forward<_Valty>(_Val)...);

  000a3	8b 45 fc	 mov	 eax, DWORD PTR __Whereoff$1$[ebp]
  000a6	8d 0c 87	 lea	 ecx, DWORD PTR [edi+eax*4]
  000a9	8b 45 0c	 mov	 eax, DWORD PTR _<_Val_0>$[ebp]
  000ac	89 4d fc	 mov	 DWORD PTR tv505[ebp], ecx
  000af	8b 00		 mov	 eax, DWORD PTR [eax]
  000b1	89 01		 mov	 DWORD PTR [ecx], eax

; 790  :         _Constructed_first = _Newvec + _Whereoff;
; 791  : 
; 792  :         if (_Whereptr == _Mylast) { // at back, provide strong guarantee

  000b3	8b 4b 04	 mov	 ecx, DWORD PTR [ebx+4]
  000b6	8b 45 08	 mov	 eax, DWORD PTR __Whereptr$[ebp]
  000b9	8b 13		 mov	 edx, DWORD PTR [ebx]
  000bb	3b c1		 cmp	 eax, ecx
  000bd	75 04		 jne	 SHORT $LN4@Emplace_re
; File C:\Program Files (x86)\Microsoft Visual Studio\2019\Professional\VC\Tools\MSVC\14.29.30133\include\xmemory

; 1725 :             _Copy_memmove(_UFirst, _ULast, _Unfancy(_Dest));

  000bf	8b c7		 mov	 eax, edi
; File C:\Program Files (x86)\Microsoft Visual Studio\2019\Professional\VC\Tools\MSVC\14.29.30133\include\vector

; 794  :         } else { // provide basic guarantee

  000c1	eb 17		 jmp	 SHORT $LN60@Emplace_re
$LN4@Emplace_re:
; File C:\Program Files (x86)\Microsoft Visual Studio\2019\Professional\VC\Tools\MSVC\14.29.30133\include\xmemory

; 1725 :             _Copy_memmove(_UFirst, _ULast, _Unfancy(_Dest));

  000c3	57		 push	 edi
  000c4	50		 push	 eax
  000c5	52		 push	 edx
  000c6	e8 00 00 00 00	 call	 ??$_Copy_memmove@PAPAVCGraphicImageInstance@@PAPAV1@@std@@YAPAPAVCGraphicImageInstance@@PAPAV1@00@Z ; std::_Copy_memmove<CGraphicImageInstance * *,CGraphicImageInstance * *>
; File C:\Program Files (x86)\Microsoft Visual Studio\2019\Professional\VC\Tools\MSVC\14.29.30133\include\vector

; 797  :             _Umove(_Whereptr, _Mylast, _Newvec + _Whereoff + 1);

  000cb	8b 45 fc	 mov	 eax, DWORD PTR tv505[ebp]
; File C:\Program Files (x86)\Microsoft Visual Studio\2019\Professional\VC\Tools\MSVC\14.29.30133\include\xmemory

; 1725 :             _Copy_memmove(_UFirst, _ULast, _Unfancy(_Dest));

  000ce	83 c4 0c	 add	 esp, 12			; 0000000cH
  000d1	8b 55 08	 mov	 edx, DWORD PTR __Whereptr$[ebp]
; File C:\Program Files (x86)\Microsoft Visual Studio\2019\Professional\VC\Tools\MSVC\14.29.30133\include\vector

; 797  :             _Umove(_Whereptr, _Mylast, _Newvec + _Whereoff + 1);

  000d4	83 c0 04	 add	 eax, 4
; File C:\Program Files (x86)\Microsoft Visual Studio\2019\Professional\VC\Tools\MSVC\14.29.30133\include\xmemory

; 1725 :             _Copy_memmove(_UFirst, _ULast, _Unfancy(_Dest));

  000d7	8b 4b 04	 mov	 ecx, DWORD PTR [ebx+4]
$LN60@Emplace_re:
; File C:\Program Files (x86)\Microsoft Visual Studio\2019\Professional\VC\Tools\MSVC\14.29.30133\include\vector

; 797  :             _Umove(_Whereptr, _Mylast, _Newvec + _Whereoff + 1);

  000da	50		 push	 eax
  000db	51		 push	 ecx
  000dc	52		 push	 edx
  000dd	e8 00 00 00 00	 call	 ??$_Copy_memmove@PAPAVCGraphicImageInstance@@PAPAV1@@std@@YAPAPAVCGraphicImageInstance@@PAPAV1@00@Z ; std::_Copy_memmove<CGraphicImageInstance * *,CGraphicImageInstance * *>
  000e2	83 c4 0c	 add	 esp, 12			; 0000000cH

; 798  :         }
; 799  :         _CATCH_ALL
; 800  :         _Destroy(_Constructed_first, _Constructed_last);
; 801  :         _Al.deallocate(_Newvec, _Newcapacity);
; 802  :         _RERAISE;
; 803  :         _CATCH_END
; 804  : 
; 805  :         _Change_array(_Newvec, _Newsize, _Newcapacity);

  000e5	8b cb		 mov	 ecx, ebx
  000e7	56		 push	 esi
  000e8	ff 75 f8	 push	 DWORD PTR __Newsize$1$[ebp]
  000eb	57		 push	 edi
  000ec	e8 00 00 00 00	 call	 ?_Change_array@?$vector@PAVCGraphicImageInstance@@V?$allocator@PAVCGraphicImageInstance@@@std@@@std@@AAEXQAPAVCGraphicImageInstance@@II@Z ; std::vector<CGraphicImageInstance *,std::allocator<CGraphicImageInstance *> >::_Change_array

; 806  :         return _Newvec + _Whereoff;

  000f1	8b 45 fc	 mov	 eax, DWORD PTR tv505[ebp]
  000f4	5f		 pop	 edi
  000f5	5e		 pop	 esi
  000f6	5b		 pop	 ebx

; 807  :     }

  000f7	8b e5		 mov	 esp, ebp
  000f9	5d		 pop	 ebp
  000fa	c2 08 00	 ret	 8
$LN74@Emplace_re:

; 778  :             _Xlength();

  000fd	e8 00 00 00 00	 call	 ?_Xlength@?$vector@PAVCGraphicImageInstance@@V?$allocator@PAVCGraphicImageInstance@@@std@@@std@@CAXXZ ; std::vector<CGraphicImageInstance *,std::allocator<CGraphicImageInstance *> >::_Xlength
$LN75@Emplace_re:
; File C:\Program Files (x86)\Microsoft Visual Studio\2019\Professional\VC\Tools\MSVC\14.29.30133\include\xmemory

; 65   :             _Throw_bad_array_new_length(); // multiply overflow

  00102	e8 00 00 00 00	 call	 ?_Throw_bad_array_new_length@std@@YAXXZ ; std::_Throw_bad_array_new_length
$LN72@Emplace_re:
  00107	cc		 int	 3
??$_Emplace_reallocate@ABQAVCGraphicImageInstance@@@?$vector@PAVCGraphicImageInstance@@V?$allocator@PAVCGraphicImageInstance@@@std@@@std@@QAEPAPAVCGraphicImageInstance@@QAPAV2@ABQAV2@@Z ENDP ; std::vector<CGraphicImageInstance *,std::allocator<CGraphicImageInstance *> >::_Emplace_reallocate<CGraphicImageInstance * const &>
_TEXT	ENDS
; Function compile flags: /Ogtp
; File C:\Program Files (x86)\Microsoft Visual Studio\2019\Professional\VC\Tools\MSVC\14.29.30133\include\vector
; File C:\Program Files (x86)\Microsoft Visual Studio\2019\Professional\VC\Tools\MSVC\14.29.30133\include\xmemory
; File C:\Program Files (x86)\Microsoft Visual Studio\2019\Professional\VC\Tools\MSVC\14.29.30133\include\vector
; File C:\Program Files (x86)\Microsoft Visual Studio\2019\Professional\VC\Tools\MSVC\14.29.30133\include\xmemory
; File C:\Program Files (x86)\Microsoft Visual Studio\2019\Professional\VC\Tools\MSVC\14.29.30133\include\vector
; File C:\Program Files (x86)\Microsoft Visual Studio\2019\Professional\VC\Tools\MSVC\14.29.30133\include\xmemory
; File C:\Program Files (x86)\Microsoft Visual Studio\2019\Professional\VC\Tools\MSVC\14.29.30133\include\vector
; File C:\Program Files (x86)\Microsoft Visual Studio\2019\Professional\VC\Tools\MSVC\14.29.30133\include\xmemory
; File C:\Program Files (x86)\Microsoft Visual Studio\2019\Professional\VC\Tools\MSVC\14.29.30133\include\vector
; File C:\Program Files (x86)\Microsoft Visual Studio\2019\Professional\VC\Tools\MSVC\14.29.30133\include\xmemory
; File C:\Program Files (x86)\Microsoft Visual Studio\2019\Professional\VC\Tools\MSVC\14.29.30133\include\vector
; File C:\Program Files (x86)\Microsoft Visual Studio\2019\Professional\VC\Tools\MSVC\14.29.30133\include\xmemory
; File C:\Program Files (x86)\Microsoft Visual Studio\2019\Professional\VC\Tools\MSVC\14.29.30133\include\vector
; File C:\Program Files (x86)\Microsoft Visual Studio\2019\Professional\VC\Tools\MSVC\14.29.30133\include\xmemory
; File C:\Program Files (x86)\Microsoft Visual Studio\2019\Professional\VC\Tools\MSVC\14.29.30133\include\vector
; File C:\Program Files (x86)\Microsoft Visual Studio\2019\Professional\VC\Tools\MSVC\14.29.30133\include\xmemory
; File C:\Program Files (x86)\Microsoft Visual Studio\2019\Professional\VC\Tools\MSVC\14.29.30133\include\vector
; File C:\Program Files (x86)\Microsoft Visual Studio\2019\Professional\VC\Tools\MSVC\14.29.30133\include\xmemory
; File C:\Program Files (x86)\Microsoft Visual Studio\2019\Professional\VC\Tools\MSVC\14.29.30133\include\vector
; File C:\Program Files (x86)\Microsoft Visual Studio\2019\Professional\VC\Tools\MSVC\14.29.30133\include\xmemory
; File C:\Program Files (x86)\Microsoft Visual Studio\2019\Professional\VC\Tools\MSVC\14.29.30133\include\vector
;	COMDAT ??$_Emplace_reallocate@ABUSPDTVertex@@@?$vector@USPDTVertex@@V?$allocator@USPDTVertex@@@std@@@std@@QAEPAUSPDTVertex@@QAU2@ABU2@@Z
_TEXT	SEGMENT
tv654 = -8						; size = 4
__Whereoff$1$ = -8					; size = 4
_this$1$ = -4						; size = 4
__Newsize$1$ = 8					; size = 4
__Whereptr$ = 8						; size = 4
_<_Val_0>$ = 12						; size = 4
??$_Emplace_reallocate@ABUSPDTVertex@@@?$vector@USPDTVertex@@V?$allocator@USPDTVertex@@@std@@@std@@QAEPAUSPDTVertex@@QAU2@ABU2@@Z PROC ; std::vector<SPDTVertex,std::allocator<SPDTVertex> >::_Emplace_reallocate<SPDTVertex const &>, COMDAT
; _this$ = ecx

; 765  :     _CONSTEXPR20_CONTAINER pointer _Emplace_reallocate(const pointer _Whereptr, _Valty&&... _Val) {

  00000	55		 push	 ebp
  00001	8b ec		 mov	 ebp, esp
  00003	83 ec 08	 sub	 esp, 8
  00006	53		 push	 ebx
  00007	8b d9		 mov	 ebx, ecx

; 766  :         // reallocate and insert by perfectly forwarding _Val at _Whereptr
; 767  :         _Alty& _Al        = _Getal();
; 768  :         auto& _My_data    = _Mypair._Myval2;
; 769  :         pointer& _Myfirst = _My_data._Myfirst;
; 770  :         pointer& _Mylast  = _My_data._Mylast;
; 771  : 
; 772  :         _STL_INTERNAL_CHECK(_Mylast == _My_data._Myend); // check that we have no unused capacity
; 773  : 
; 774  :         const auto _Whereoff = static_cast<size_type>(_Whereptr - _Myfirst);

  00009	b8 ab aa aa 2a	 mov	 eax, 715827883		; 2aaaaaabH
  0000e	56		 push	 esi
  0000f	8b 75 08	 mov	 esi, DWORD PTR __Whereptr$[ebp]
  00012	8b d6		 mov	 edx, esi
  00014	57		 push	 edi
  00015	8b 3b		 mov	 edi, DWORD PTR [ebx]
  00017	2b d7		 sub	 edx, edi

; 775  :         const auto _Oldsize  = static_cast<size_type>(_Mylast - _Myfirst);

  00019	8b 4b 04	 mov	 ecx, DWORD PTR [ebx+4]
  0001c	f7 ea		 imul	 edx
  0001e	2b cf		 sub	 ecx, edi
  00020	89 5d fc	 mov	 DWORD PTR _this$1$[ebp], ebx
  00023	c1 fa 02	 sar	 edx, 2
  00026	8b c2		 mov	 eax, edx
  00028	c1 e8 1f	 shr	 eax, 31			; 0000001fH
  0002b	03 c2		 add	 eax, edx
  0002d	89 45 f8	 mov	 DWORD PTR __Whereoff$1$[ebp], eax
  00030	b8 ab aa aa 2a	 mov	 eax, 715827883		; 2aaaaaabH
  00035	f7 e9		 imul	 ecx
  00037	c1 fa 02	 sar	 edx, 2
  0003a	8b c2		 mov	 eax, edx
  0003c	c1 e8 1f	 shr	 eax, 31			; 0000001fH
  0003f	03 c2		 add	 eax, edx

; 776  : 
; 777  :         if (_Oldsize == max_size()) {

  00041	3d aa aa aa 0a	 cmp	 eax, 178956970		; 0aaaaaaaH
  00046	0f 84 90 01 00
	00		 je	 $LN116@Emplace_re

; 1559 :         return static_cast<size_type>(_My_data._Myend - _My_data._Myfirst);

  0004c	8b 4b 08	 mov	 ecx, DWORD PTR [ebx+8]

; 779  :         }
; 780  : 
; 781  :         const size_type _Newsize     = _Oldsize + 1;

  0004f	40		 inc	 eax
  00050	89 45 08	 mov	 DWORD PTR __Newsize$1$[ebp], eax

; 1559 :         return static_cast<size_type>(_My_data._Myend - _My_data._Myfirst);

  00053	2b cf		 sub	 ecx, edi
  00055	b8 ab aa aa 2a	 mov	 eax, 715827883		; 2aaaaaabH
  0005a	f7 e9		 imul	 ecx

; 1688 :         if (_Oldcapacity > _Max - _Oldcapacity / 2) {

  0005c	b8 aa aa aa 0a	 mov	 eax, 178956970		; 0aaaaaaaH

; 1559 :         return static_cast<size_type>(_My_data._Myend - _My_data._Myfirst);

  00061	c1 fa 02	 sar	 edx, 2
  00064	8b ca		 mov	 ecx, edx
  00066	c1 e9 1f	 shr	 ecx, 31			; 0000001fH
  00069	03 ca		 add	 ecx, edx

; 1688 :         if (_Oldcapacity > _Max - _Oldcapacity / 2) {

  0006b	8b d1		 mov	 edx, ecx
  0006d	d1 ea		 shr	 edx, 1
  0006f	2b c2		 sub	 eax, edx
  00071	3b c8		 cmp	 ecx, eax
  00073	76 12		 jbe	 SHORT $LN12@Emplace_re

; 1689 :             return _Max; // geometric growth would overflow

  00075	bf f0 ff ff ff	 mov	 edi, -16		; fffffff0H
; File C:\Program Files (x86)\Microsoft Visual Studio\2019\Professional\VC\Tools\MSVC\14.29.30133\include\xmemory

; 238  :             return _Allocate_manually_vector_aligned<_Traits>(_Bytes);

  0007a	57		 push	 edi
  0007b	e8 00 00 00 00	 call	 ??$_Allocate_manually_vector_aligned@U_Default_allocate_traits@std@@@std@@YAPAXI@Z ; std::_Allocate_manually_vector_aligned<std::_Default_allocate_traits>
  00080	83 c4 04	 add	 esp, 4
  00083	8b d8		 mov	 ebx, eax
  00085	eb 45		 jmp	 SHORT $LN23@Emplace_re
$LN12@Emplace_re:
; File C:\Program Files (x86)\Microsoft Visual Studio\2019\Professional\VC\Tools\MSVC\14.29.30133\include\vector

; 1692 :         const size_type _Geometric = _Oldcapacity + _Oldcapacity / 2;

  00087	8d 04 0a	 lea	 eax, DWORD PTR [edx+ecx]
; File C:\Program Files (x86)\Microsoft Visual Studio\2019\Professional\VC\Tools\MSVC\14.29.30133\include\xmemory

; 64   :         if (_Count > _Max_possible) {

  0008a	8b 4d 08	 mov	 ecx, DWORD PTR __Newsize$1$[ebp]
  0008d	3b c1		 cmp	 eax, ecx
  0008f	0f 43 c8	 cmovae	 ecx, eax
  00092	81 f9 aa aa aa
	0a		 cmp	 ecx, 178956970		; 0aaaaaaaH
  00098	0f 87 43 01 00
	00		 ja	 $LN117@Emplace_re

; 66   :         }
; 67   :     }
; 68   : 
; 69   :     return _Count * _Ty_size;

  0009e	8d 3c 49	 lea	 edi, DWORD PTR [ecx+ecx*2]
  000a1	c1 e7 03	 shl	 edi, 3

; 237  :         if (_Bytes >= _Big_allocation_threshold) { // boost the alignment of big allocations to help autovectorization

  000a4	81 ff 00 10 00
	00		 cmp	 edi, 4096		; 00001000H
  000aa	72 0d		 jb	 SHORT $LN24@Emplace_re

; 238  :             return _Allocate_manually_vector_aligned<_Traits>(_Bytes);

  000ac	57		 push	 edi
  000ad	e8 00 00 00 00	 call	 ??$_Allocate_manually_vector_aligned@U_Default_allocate_traits@std@@@std@@YAPAXI@Z ; std::_Allocate_manually_vector_aligned<std::_Default_allocate_traits>
  000b2	83 c4 04	 add	 esp, 4
  000b5	8b d8		 mov	 ebx, eax
  000b7	eb 13		 jmp	 SHORT $LN23@Emplace_re
$LN24@Emplace_re:

; 239  :         }
; 240  :     }
; 241  : #endif // defined(_M_IX86) || defined(_M_X64)
; 242  : 
; 243  :     if (_Bytes != 0) {

  000b9	85 ff		 test	 edi, edi
  000bb	74 0d		 je	 SHORT $LN25@Emplace_re

; 85   :         return ::operator new(_Bytes);

  000bd	57		 push	 edi
  000be	e8 00 00 00 00	 call	 ??2@YAPAXI@Z		; operator new
  000c3	83 c4 04	 add	 esp, 4

; 244  :         return _Traits::_Allocate(_Bytes);

  000c6	8b d8		 mov	 ebx, eax
  000c8	eb 02		 jmp	 SHORT $LN23@Emplace_re
$LN25@Emplace_re:

; 245  :     }
; 246  : 
; 247  :     return nullptr;

  000ca	33 db		 xor	 ebx, ebx
$LN23@Emplace_re:
; File C:\Program Files (x86)\Microsoft Visual Studio\2019\Professional\VC\Tools\MSVC\14.29.30133\include\vector

; 789  :         _Alty_traits::construct(_Al, _Unfancy(_Newvec + _Whereoff), _STD forward<_Valty>(_Val)...);

  000cc	8b 45 f8	 mov	 eax, DWORD PTR __Whereoff$1$[ebp]
  000cf	8d 04 40	 lea	 eax, DWORD PTR [eax+eax*2]
  000d2	8d 0c c3	 lea	 ecx, DWORD PTR [ebx+eax*8]
; File C:\Program Files (x86)\Microsoft Visual Studio\2019\Professional\VC\Tools\MSVC\14.29.30133\include\xmemory

; 714  :             ::new (_Voidify_iter(_Ptr)) _Objty(_STD forward<_Types>(_Args)...);

  000d5	8b 45 0c	 mov	 eax, DWORD PTR _<_Val_0>$[ebp]
; File C:\Program Files (x86)\Microsoft Visual Studio\2019\Professional\VC\Tools\MSVC\14.29.30133\include\vector

; 789  :         _Alty_traits::construct(_Al, _Unfancy(_Newvec + _Whereoff), _STD forward<_Valty>(_Val)...);

  000d8	89 4d f8	 mov	 DWORD PTR tv654[ebp], ecx
; File C:\Program Files (x86)\Microsoft Visual Studio\2019\Professional\VC\Tools\MSVC\14.29.30133\include\xmemory

; 714  :             ::new (_Voidify_iter(_Ptr)) _Objty(_STD forward<_Types>(_Args)...);

  000db	0f 10 00	 movups	 xmm0, XMMWORD PTR [eax]
  000de	0f 11 01	 movups	 XMMWORD PTR [ecx], xmm0
  000e1	f3 0f 7e 40 10	 movq	 xmm0, QWORD PTR [eax+16]
; File C:\Program Files (x86)\Microsoft Visual Studio\2019\Professional\VC\Tools\MSVC\14.29.30133\include\vector

; 792  :         if (_Whereptr == _Mylast) { // at back, provide strong guarantee

  000e6	8b 45 fc	 mov	 eax, DWORD PTR _this$1$[ebp]
; File C:\Program Files (x86)\Microsoft Visual Studio\2019\Professional\VC\Tools\MSVC\14.29.30133\include\xmemory

; 714  :             ::new (_Voidify_iter(_Ptr)) _Objty(_STD forward<_Types>(_Args)...);

  000e9	66 0f d6 41 10	 movq	 QWORD PTR [ecx+16], xmm0
; File C:\Program Files (x86)\Microsoft Visual Studio\2019\Professional\VC\Tools\MSVC\14.29.30133\include\vector

; 792  :         if (_Whereptr == _Mylast) { // at back, provide strong guarantee

  000ee	8b cb		 mov	 ecx, ebx
  000f0	8b 50 04	 mov	 edx, DWORD PTR [eax+4]
  000f3	8b 00		 mov	 eax, DWORD PTR [eax]
  000f5	3b f2		 cmp	 esi, edx
  000f7	75 24		 jne	 SHORT $LN4@Emplace_re
; File C:\Program Files (x86)\Microsoft Visual Studio\2019\Professional\VC\Tools\MSVC\14.29.30133\include\xmemory

; 1731 :     for (; _UFirst != _ULast; ++_UFirst) {

  000f9	3b c2		 cmp	 eax, edx
  000fb	74 6e		 je	 SHORT $LN68@Emplace_re
  000fd	0f 1f 00	 npad	 3
$LL39@Emplace_re:

; 714  :             ::new (_Voidify_iter(_Ptr)) _Objty(_STD forward<_Types>(_Args)...);

  00100	0f 10 00	 movups	 xmm0, XMMWORD PTR [eax]

; 1632 :         ++_Last;

  00103	8d 49 18	 lea	 ecx, DWORD PTR [ecx+24]

; 714  :             ::new (_Voidify_iter(_Ptr)) _Objty(_STD forward<_Types>(_Args)...);

  00106	0f 11 41 e8	 movups	 XMMWORD PTR [ecx-24], xmm0
  0010a	f3 0f 7e 40 10	 movq	 xmm0, QWORD PTR [eax+16]

; 1731 :     for (; _UFirst != _ULast; ++_UFirst) {

  0010f	83 c0 18	 add	 eax, 24			; 00000018H

; 714  :             ::new (_Voidify_iter(_Ptr)) _Objty(_STD forward<_Types>(_Args)...);

  00112	66 0f d6 41 f8	 movq	 QWORD PTR [ecx-8], xmm0

; 1731 :     for (; _UFirst != _ULast; ++_UFirst) {

  00117	3b c2		 cmp	 eax, edx
  00119	75 e5		 jne	 SHORT $LL39@Emplace_re
; File C:\Program Files (x86)\Microsoft Visual Studio\2019\Professional\VC\Tools\MSVC\14.29.30133\include\vector

; 794  :         } else { // provide basic guarantee

  0011b	eb 4e		 jmp	 SHORT $LN68@Emplace_re
$LN4@Emplace_re:
; File C:\Program Files (x86)\Microsoft Visual Studio\2019\Professional\VC\Tools\MSVC\14.29.30133\include\xmemory

; 1731 :     for (; _UFirst != _ULast; ++_UFirst) {

  0011d	3b c6		 cmp	 eax, esi
  0011f	74 21		 je	 SHORT $LN53@Emplace_re
$LL54@Emplace_re:

; 714  :             ::new (_Voidify_iter(_Ptr)) _Objty(_STD forward<_Types>(_Args)...);

  00121	0f 10 00	 movups	 xmm0, XMMWORD PTR [eax]

; 1632 :         ++_Last;

  00124	8d 49 18	 lea	 ecx, DWORD PTR [ecx+24]

; 714  :             ::new (_Voidify_iter(_Ptr)) _Objty(_STD forward<_Types>(_Args)...);

  00127	0f 11 41 e8	 movups	 XMMWORD PTR [ecx-24], xmm0
  0012b	f3 0f 7e 40 10	 movq	 xmm0, QWORD PTR [eax+16]

; 1731 :     for (; _UFirst != _ULast; ++_UFirst) {

  00130	83 c0 18	 add	 eax, 24			; 00000018H

; 714  :             ::new (_Voidify_iter(_Ptr)) _Objty(_STD forward<_Types>(_Args)...);

  00133	66 0f d6 41 f8	 movq	 QWORD PTR [ecx-8], xmm0

; 1731 :     for (; _UFirst != _ULast; ++_UFirst) {

  00138	3b c6		 cmp	 eax, esi
  0013a	75 e5		 jne	 SHORT $LL54@Emplace_re
  0013c	8b 55 fc	 mov	 edx, DWORD PTR _this$1$[ebp]
  0013f	8b 52 04	 mov	 edx, DWORD PTR [edx+4]
$LN53@Emplace_re:
  00142	3b f2		 cmp	 esi, edx
  00144	74 25		 je	 SHORT $LN68@Emplace_re

; 1633 :     }
; 1634 : 
; 1635 :     constexpr pointer _Release() { // suppress any exception handling backout and return _Last
; 1636 :         _First = _Last;
; 1637 :         return _Last;
; 1638 :     }
; 1639 : 
; 1640 : private:
; 1641 :     pointer _First;
; 1642 :     pointer _Last;
; 1643 :     _Alloc& _Al;
; 1644 : };
; 1645 : 
; 1646 : // FUNCTION TEMPLATE _Uninitialized_copy WITH ALLOCATOR
; 1647 : template <class _InIt, class _Alloc>
; 1648 : _CONSTEXPR20_DYNALLOC _Alloc_ptr_t<_Alloc> _Uninitialized_copy(
; 1649 :     const _InIt _First, const _InIt _Last, _Alloc_ptr_t<_Alloc> _Dest, _Alloc& _Al) {
; 1650 :     // copy [_First, _Last) to raw _Dest, using _Al
; 1651 :     // note: only called internally from elsewhere in the STL
; 1652 :     using _Ptrval = typename _Alloc::value_type*;
; 1653 : 
; 1654 :     auto _UFirst      = _Get_unwrapped(_First);
; 1655 :     const auto _ULast = _Get_unwrapped(_Last);
; 1656 : 
; 1657 :     if constexpr (conjunction_v<bool_constant<_Ptr_copy_cat<decltype(_UFirst), _Ptrval>::_Really_trivial>,
; 1658 :                       _Uses_default_construct<_Alloc, _Ptrval, decltype(*_UFirst)>>) {
; 1659 : #ifdef __cpp_lib_constexpr_dynamic_alloc
; 1660 :         if (!_STD is_constant_evaluated())
; 1661 : #endif // __cpp_lib_constexpr_dynamic_alloc
; 1662 :         {
; 1663 :             _Copy_memmove(_UFirst, _ULast, _Unfancy(_Dest));
; 1664 :             _Dest += _ULast - _UFirst;
; 1665 :             return _Dest;
; 1666 :         }
; 1667 :     }
; 1668 : 
; 1669 :     _Uninitialized_backout_al<_Alloc> _Backout{_Dest, _Al};
; 1670 :     for (; _UFirst != _ULast; ++_UFirst) {
; 1671 :         _Backout._Emplace_back(*_UFirst);
; 1672 :     }
; 1673 : 
; 1674 :     return _Backout._Release();
; 1675 : }
; 1676 : 
; 1677 : // FUNCTION TEMPLATE uninitialized_copy
; 1678 : template <class _InIt, class _NoThrowFwdIt>
; 1679 : _CONSTEXPR20_DYNALLOC _NoThrowFwdIt _Uninitialized_copy_unchecked(
; 1680 :     _InIt _First, const _InIt _Last, _NoThrowFwdIt _Dest) {
; 1681 :     // copy [_First, _Last) to raw [_Dest, ...)
; 1682 :     if constexpr (_Ptr_copy_cat<_InIt, _NoThrowFwdIt>::_Really_trivial) {
; 1683 : #ifdef __cpp_lib_constexpr_dynamic_alloc
; 1684 :         if (!_STD is_constant_evaluated())
; 1685 : #endif // __cpp_lib_constexpr_dynamic_alloc
; 1686 :         {
; 1687 :             return _Copy_memmove(_First, _Last, _Dest);
; 1688 :         }
; 1689 :     }
; 1690 : 
; 1691 :     _Uninitialized_backout<_NoThrowFwdIt> _Backout{_Dest};
; 1692 :     for (; _First != _Last; ++_First) {
; 1693 :         _Backout._Emplace_back(*_First);
; 1694 :     }
; 1695 : 
; 1696 :     return _Backout._Release();
; 1697 : }
; 1698 : 
; 1699 : template <class _InIt, class _NoThrowFwdIt>
; 1700 : _NoThrowFwdIt uninitialized_copy(const _InIt _First, const _InIt _Last, _NoThrowFwdIt _Dest) {
; 1701 :     // copy [_First, _Last) to raw [_Dest, ...)
; 1702 :     _Adl_verify_range(_First, _Last);
; 1703 :     auto _UFirst      = _Get_unwrapped(_First);
; 1704 :     const auto _ULast = _Get_unwrapped(_Last);
; 1705 :     auto _UDest       = _Get_unwrapped_n(_Dest, _Idl_distance<_InIt>(_UFirst, _ULast));
; 1706 :     _Seek_wrapped(_Dest, _Uninitialized_copy_unchecked(_UFirst, _ULast, _UDest));
; 1707 :     return _Dest;
; 1708 : }
; 1709 : 
; 1710 : // FUNCTION TEMPLATE _Uninitialized_move WITH ALLOCATOR
; 1711 : template <class _InIt, class _Alloc>
; 1712 : _CONSTEXPR20_DYNALLOC _Alloc_ptr_t<_Alloc> _Uninitialized_move(
; 1713 :     const _InIt _First, const _InIt _Last, _Alloc_ptr_t<_Alloc> _Dest, _Alloc& _Al) {
; 1714 :     // move [_First, _Last) to raw _Dest, using _Al
; 1715 :     // note: only called internally from elsewhere in the STL
; 1716 :     using _Ptrval     = typename _Alloc::value_type*;
; 1717 :     auto _UFirst      = _Get_unwrapped(_First);

  00146	8b 45 f8	 mov	 eax, DWORD PTR tv654[ebp]
  00149	83 c0 18	 add	 eax, 24			; 00000018H
  0014c	0f 1f 40 00	 npad	 4
$LL69@Emplace_re:

; 714  :             ::new (_Voidify_iter(_Ptr)) _Objty(_STD forward<_Types>(_Args)...);

  00150	0f 10 06	 movups	 xmm0, XMMWORD PTR [esi]

; 1731 :     for (; _UFirst != _ULast; ++_UFirst) {

  00153	8d 40 18	 lea	 eax, DWORD PTR [eax+24]

; 714  :             ::new (_Voidify_iter(_Ptr)) _Objty(_STD forward<_Types>(_Args)...);

  00156	0f 11 40 e8	 movups	 XMMWORD PTR [eax-24], xmm0
  0015a	f3 0f 7e 46 10	 movq	 xmm0, QWORD PTR [esi+16]

; 1731 :     for (; _UFirst != _ULast; ++_UFirst) {

  0015f	83 c6 18	 add	 esi, 24			; 00000018H

; 714  :             ::new (_Voidify_iter(_Ptr)) _Objty(_STD forward<_Types>(_Args)...);

  00162	66 0f d6 40 f8	 movq	 QWORD PTR [eax-8], xmm0

; 1731 :     for (; _UFirst != _ULast; ++_UFirst) {

  00167	3b f2		 cmp	 esi, edx
  00169	75 e5		 jne	 SHORT $LL69@Emplace_re
$LN68@Emplace_re:
; File C:\Program Files (x86)\Microsoft Visual Studio\2019\Professional\VC\Tools\MSVC\14.29.30133\include\vector

; 1745 :         if (_Myfirst) { // destroy and deallocate old array

  0016b	8b 45 fc	 mov	 eax, DWORD PTR _this$1$[ebp]
  0016e	8b 30		 mov	 esi, DWORD PTR [eax]
  00170	85 f6		 test	 esi, esi
  00172	74 43		 je	 SHORT $LN86@Emplace_re

; 1746 :             _Destroy(_Myfirst, _Mylast);
; 1747 :             _Getal().deallocate(_Myfirst, static_cast<size_type>(_Myend - _Myfirst));

  00174	8b 48 08	 mov	 ecx, DWORD PTR [eax+8]
  00177	b8 ab aa aa 2a	 mov	 eax, 715827883		; 2aaaaaabH
  0017c	2b ce		 sub	 ecx, esi
  0017e	f7 e9		 imul	 ecx
  00180	c1 fa 02	 sar	 edx, 2
  00183	8b c2		 mov	 eax, edx
  00185	c1 e8 1f	 shr	 eax, 31			; 0000001fH
  00188	03 c2		 add	 eax, edx
; File C:\Program Files (x86)\Microsoft Visual Studio\2019\Professional\VC\Tools\MSVC\14.29.30133\include\xmemory

; 835  :         _Deallocate<_New_alignof<_Ty>>(_Ptr, sizeof(_Ty) * _Count);

  0018a	8d 0c 40	 lea	 ecx, DWORD PTR [eax+eax*2]
  0018d	c1 e1 03	 shl	 ecx, 3

; 260  :         if (_Bytes >= _Big_allocation_threshold) { // boost the alignment of big allocations to help autovectorization

  00190	81 f9 00 10 00
	00		 cmp	 ecx, 4096		; 00001000H
  00196	72 12		 jb	 SHORT $LN96@Emplace_re

; 158  :     const uintptr_t _Ptr_container   = _Ptr_user[-1];

  00198	8b 56 fc	 mov	 edx, DWORD PTR [esi-4]
  0019b	83 c1 23	 add	 ecx, 35			; 00000023H

; 159  : 
; 160  :     // If the following asserts, it likely means that we are performing
; 161  :     // an aligned delete on memory coming from an unaligned allocation.
; 162  :     _STL_ASSERT(_Ptr_user[-2] == _Big_allocation_sentinel, "invalid argument");
; 163  : 
; 164  :     // Extra paranoia on aligned allocation/deallocation; ensure _Ptr_container is
; 165  :     // in range [_Min_back_shift, _Non_user_size]
; 166  : #ifdef _DEBUG
; 167  :     constexpr uintptr_t _Min_back_shift = 2 * sizeof(void*);
; 168  : #else // ^^^ _DEBUG ^^^ // vvv !_DEBUG vvv
; 169  :     constexpr uintptr_t _Min_back_shift = sizeof(void*);
; 170  : #endif // _DEBUG
; 171  :     const uintptr_t _Back_shift = reinterpret_cast<uintptr_t>(_Ptr) - _Ptr_container;

  0019e	2b f2		 sub	 esi, edx

; 172  :     _STL_VERIFY(_Back_shift >= _Min_back_shift && _Back_shift <= _Non_user_size, "invalid argument");

  001a0	8d 46 fc	 lea	 eax, DWORD PTR [esi-4]
  001a3	83 f8 1f	 cmp	 eax, 31			; 0000001fH
  001a6	77 2f		 ja	 SHORT $LN93@Emplace_re

; 173  :     _Ptr = reinterpret_cast<void*>(_Ptr_container);

  001a8	8b f2		 mov	 esi, edx
$LN96@Emplace_re:

; 264  :         ::operator delete(_Ptr, _Bytes);

  001aa	51		 push	 ecx
  001ab	56		 push	 esi
  001ac	e8 00 00 00 00	 call	 ??3@YAXPAXI@Z		; operator delete
  001b1	8b 45 fc	 mov	 eax, DWORD PTR _this$1$[ebp]
  001b4	83 c4 08	 add	 esp, 8
$LN86@Emplace_re:
; File C:\Program Files (x86)\Microsoft Visual Studio\2019\Professional\VC\Tools\MSVC\14.29.30133\include\vector

; 1751 :         _Mylast  = _Newvec + _Newsize;

  001b7	8b 4d 08	 mov	 ecx, DWORD PTR __Newsize$1$[ebp]
  001ba	89 18		 mov	 DWORD PTR [eax], ebx
  001bc	8d 0c 49	 lea	 ecx, DWORD PTR [ecx+ecx*2]
  001bf	8d 0c cb	 lea	 ecx, DWORD PTR [ebx+ecx*8]
  001c2	89 48 04	 mov	 DWORD PTR [eax+4], ecx

; 1752 :         _Myend   = _Newvec + _Newcapacity;

  001c5	8d 0c 1f	 lea	 ecx, DWORD PTR [edi+ebx]

; 795  :             _Umove(_Myfirst, _Whereptr, _Newvec);
; 796  :             _Constructed_first = _Newvec;
; 797  :             _Umove(_Whereptr, _Mylast, _Newvec + _Whereoff + 1);
; 798  :         }
; 799  :         _CATCH_ALL
; 800  :         _Destroy(_Constructed_first, _Constructed_last);
; 801  :         _Al.deallocate(_Newvec, _Newcapacity);
; 802  :         _RERAISE;
; 803  :         _CATCH_END
; 804  : 
; 805  :         _Change_array(_Newvec, _Newsize, _Newcapacity);
; 806  :         return _Newvec + _Whereoff;

  001c8	5f		 pop	 edi
  001c9	5e		 pop	 esi

; 1752 :         _Myend   = _Newvec + _Newcapacity;

  001ca	89 48 08	 mov	 DWORD PTR [eax+8], ecx

; 795  :             _Umove(_Myfirst, _Whereptr, _Newvec);
; 796  :             _Constructed_first = _Newvec;
; 797  :             _Umove(_Whereptr, _Mylast, _Newvec + _Whereoff + 1);
; 798  :         }
; 799  :         _CATCH_ALL
; 800  :         _Destroy(_Constructed_first, _Constructed_last);
; 801  :         _Al.deallocate(_Newvec, _Newcapacity);
; 802  :         _RERAISE;
; 803  :         _CATCH_END
; 804  : 
; 805  :         _Change_array(_Newvec, _Newsize, _Newcapacity);
; 806  :         return _Newvec + _Whereoff;

  001cd	8b 45 f8	 mov	 eax, DWORD PTR tv654[ebp]
  001d0	5b		 pop	 ebx

; 807  :     }

  001d1	8b e5		 mov	 esp, ebp
  001d3	5d		 pop	 ebp
  001d4	c2 08 00	 ret	 8
$LN93@Emplace_re:
; File C:\Program Files (x86)\Microsoft Visual Studio\2019\Professional\VC\Tools\MSVC\14.29.30133\include\xmemory

; 172  :     _STL_VERIFY(_Back_shift >= _Min_back_shift && _Back_shift <= _Non_user_size, "invalid argument");

  001d7	e8 00 00 00 00	 call	 __invalid_parameter_noinfo_noreturn
$LN116@Emplace_re:
; File C:\Program Files (x86)\Microsoft Visual Studio\2019\Professional\VC\Tools\MSVC\14.29.30133\include\vector

; 778  :             _Xlength();

  001dc	e8 00 00 00 00	 call	 ?_Xlength@?$vector@USPDTVertex@@V?$allocator@USPDTVertex@@@std@@@std@@CAXXZ ; std::vector<SPDTVertex,std::allocator<SPDTVertex> >::_Xlength
$LN117@Emplace_re:
; File C:\Program Files (x86)\Microsoft Visual Studio\2019\Professional\VC\Tools\MSVC\14.29.30133\include\xmemory

; 65   :             _Throw_bad_array_new_length(); // multiply overflow

  001e1	e8 00 00 00 00	 call	 ?_Throw_bad_array_new_length@std@@YAXXZ ; std::_Throw_bad_array_new_length
$LN114@Emplace_re:
  001e6	cc		 int	 3
??$_Emplace_reallocate@ABUSPDTVertex@@@?$vector@USPDTVertex@@V?$allocator@USPDTVertex@@@std@@@std@@QAEPAUSPDTVertex@@QAU2@ABU2@@Z ENDP ; std::vector<SPDTVertex,std::allocator<SPDTVertex> >::_Emplace_reallocate<SPDTVertex const &>
_TEXT	ENDS
; Function compile flags: /Ogtp
; File C:\Program Files (x86)\Microsoft Visual Studio\2019\Professional\VC\Tools\MSVC\14.29.30133\include\vector
;	COMDAT ?_Xlength@?$vector@USPDTVertex@@V?$allocator@USPDTVertex@@@std@@@std@@CAXXZ
_TEXT	SEGMENT
?_Xlength@?$vector@USPDTVertex@@V?$allocator@USPDTVertex@@@std@@@std@@CAXXZ PROC ; std::vector<SPDTVertex,std::allocator<SPDTVertex> >::_Xlength, COMDAT

; 1774 :         _Xlength_error("vector too long");

  00000	68 00 00 00 00	 push	 OFFSET ??_C@_0BA@FOIKENOD@vector?5too?5long@
  00005	e8 00 00 00 00	 call	 ?_Xlength_error@std@@YAXPBD@Z ; std::_Xlength_error
$LN3@Xlength:
  0000a	cc		 int	 3
?_Xlength@?$vector@USPDTVertex@@V?$allocator@USPDTVertex@@@std@@@std@@CAXXZ ENDP ; std::vector<SPDTVertex,std::allocator<SPDTVertex> >::_Xlength
_TEXT	ENDS
; Function compile flags: /Ogtp
; File C:\Program Files (x86)\Microsoft Visual Studio\2019\Professional\VC\Tools\MSVC\14.29.30133\include\vector
; File C:\Program Files (x86)\Microsoft Visual Studio\2019\Professional\VC\Tools\MSVC\14.29.30133\include\xmemory
; File C:\Program Files (x86)\Microsoft Visual Studio\2019\Professional\VC\Tools\MSVC\14.29.30133\include\vector
; File C:\Program Files (x86)\Microsoft Visual Studio\2019\Professional\VC\Tools\MSVC\14.29.30133\include\xmemory
; File C:\Program Files (x86)\Microsoft Visual Studio\2019\Professional\VC\Tools\MSVC\14.29.30133\include\vector
; File C:\Program Files (x86)\Microsoft Visual Studio\2019\Professional\VC\Tools\MSVC\14.29.30133\include\xmemory
; File C:\Program Files (x86)\Microsoft Visual Studio\2019\Professional\VC\Tools\MSVC\14.29.30133\include\vector
;	COMDAT ??1?$vector@USPDTVertex@@V?$allocator@USPDTVertex@@@std@@@std@@QAE@XZ
_TEXT	SEGMENT
??1?$vector@USPDTVertex@@V?$allocator@USPDTVertex@@@std@@@std@@QAE@XZ PROC ; std::vector<SPDTVertex,std::allocator<SPDTVertex> >::~vector<SPDTVertex,std::allocator<SPDTVertex> >, COMDAT
; _this$ = ecx

; 711  :     _CONSTEXPR20_CONTAINER ~vector() noexcept {

  00000	56		 push	 esi
  00001	57		 push	 edi
  00002	8b f9		 mov	 edi, ecx

; 1763 :         if (_Myfirst) { // destroy and deallocate old array

  00004	8b 37		 mov	 esi, DWORD PTR [edi]
  00006	85 f6		 test	 esi, esi
  00008	74 54		 je	 SHORT $LN4@vector

; 1764 :             _Destroy(_Myfirst, _Mylast);
; 1765 :             _Getal().deallocate(_Myfirst, static_cast<size_type>(_Myend - _Myfirst));

  0000a	8b 4f 08	 mov	 ecx, DWORD PTR [edi+8]
  0000d	b8 ab aa aa 2a	 mov	 eax, 715827883		; 2aaaaaabH
  00012	2b ce		 sub	 ecx, esi
  00014	f7 e9		 imul	 ecx
  00016	c1 fa 02	 sar	 edx, 2
  00019	8b c2		 mov	 eax, edx
  0001b	c1 e8 1f	 shr	 eax, 31			; 0000001fH
  0001e	03 c2		 add	 eax, edx
; File C:\Program Files (x86)\Microsoft Visual Studio\2019\Professional\VC\Tools\MSVC\14.29.30133\include\xmemory

; 835  :         _Deallocate<_New_alignof<_Ty>>(_Ptr, sizeof(_Ty) * _Count);

  00020	8d 0c 40	 lea	 ecx, DWORD PTR [eax+eax*2]
  00023	c1 e1 03	 shl	 ecx, 3

; 260  :         if (_Bytes >= _Big_allocation_threshold) { // boost the alignment of big allocations to help autovectorization

  00026	81 f9 00 10 00
	00		 cmp	 ecx, 4096		; 00001000H
  0002c	72 12		 jb	 SHORT $LN20@vector

; 158  :     const uintptr_t _Ptr_container   = _Ptr_user[-1];

  0002e	8b 56 fc	 mov	 edx, DWORD PTR [esi-4]
  00031	83 c1 23	 add	 ecx, 35			; 00000023H

; 159  : 
; 160  :     // If the following asserts, it likely means that we are performing
; 161  :     // an aligned delete on memory coming from an unaligned allocation.
; 162  :     _STL_ASSERT(_Ptr_user[-2] == _Big_allocation_sentinel, "invalid argument");
; 163  : 
; 164  :     // Extra paranoia on aligned allocation/deallocation; ensure _Ptr_container is
; 165  :     // in range [_Min_back_shift, _Non_user_size]
; 166  : #ifdef _DEBUG
; 167  :     constexpr uintptr_t _Min_back_shift = 2 * sizeof(void*);
; 168  : #else // ^^^ _DEBUG ^^^ // vvv !_DEBUG vvv
; 169  :     constexpr uintptr_t _Min_back_shift = sizeof(void*);
; 170  : #endif // _DEBUG
; 171  :     const uintptr_t _Back_shift = reinterpret_cast<uintptr_t>(_Ptr) - _Ptr_container;

  00034	2b f2		 sub	 esi, edx

; 172  :     _STL_VERIFY(_Back_shift >= _Min_back_shift && _Back_shift <= _Non_user_size, "invalid argument");

  00036	8d 46 fc	 lea	 eax, DWORD PTR [esi-4]
  00039	83 f8 1f	 cmp	 eax, 31			; 0000001fH
  0003c	77 23		 ja	 SHORT $LN17@vector

; 173  :     _Ptr = reinterpret_cast<void*>(_Ptr_container);

  0003e	8b f2		 mov	 esi, edx
$LN20@vector:

; 264  :         ::operator delete(_Ptr, _Bytes);

  00040	51		 push	 ecx
  00041	56		 push	 esi
  00042	e8 00 00 00 00	 call	 ??3@YAXPAXI@Z		; operator delete
; File C:\Program Files (x86)\Microsoft Visual Studio\2019\Professional\VC\Tools\MSVC\14.29.30133\include\vector

; 1767 :             _Myfirst = nullptr;

  00047	c7 07 00 00 00
	00		 mov	 DWORD PTR [edi], 0
; File C:\Program Files (x86)\Microsoft Visual Studio\2019\Professional\VC\Tools\MSVC\14.29.30133\include\xmemory

; 264  :         ::operator delete(_Ptr, _Bytes);

  0004d	83 c4 08	 add	 esp, 8
; File C:\Program Files (x86)\Microsoft Visual Studio\2019\Professional\VC\Tools\MSVC\14.29.30133\include\vector

; 1768 :             _Mylast  = nullptr;

  00050	c7 47 04 00 00
	00 00		 mov	 DWORD PTR [edi+4], 0

; 1769 :             _Myend   = nullptr;

  00057	c7 47 08 00 00
	00 00		 mov	 DWORD PTR [edi+8], 0
$LN4@vector:
  0005e	5f		 pop	 edi

; 717  :     }

  0005f	5e		 pop	 esi
  00060	c3		 ret	 0
$LN17@vector:
; File C:\Program Files (x86)\Microsoft Visual Studio\2019\Professional\VC\Tools\MSVC\14.29.30133\include\xmemory

; 172  :     _STL_VERIFY(_Back_shift >= _Min_back_shift && _Back_shift <= _Non_user_size, "invalid argument");

  00061	e8 00 00 00 00	 call	 __invalid_parameter_noinfo_noreturn
$LN25@vector:
  00066	cc		 int	 3
??1?$vector@USPDTVertex@@V?$allocator@USPDTVertex@@@std@@@std@@QAE@XZ ENDP ; std::vector<SPDTVertex,std::allocator<SPDTVertex> >::~vector<SPDTVertex,std::allocator<SPDTVertex> >
_TEXT	ENDS
; Function compile flags: /Ogtp
;	COMDAT ??__F?ms_kPool@CGraphicImageInstance@@2V?$CDynamicPool@VCGraphicImageInstance@@@@A@@YAXXZ
text$yd	SEGMENT
??__F?ms_kPool@CGraphicImageInstance@@2V?$CDynamicPool@VCGraphicImageInstance@@@@A@@YAXXZ PROC ; `dynamic atexit destructor for 'CGraphicImageInstance::ms_kPool'', COMDAT
  00000	b9 00 00 00 00	 mov	 ecx, OFFSET ?ms_kPool@CGraphicImageInstance@@2V?$CDynamicPool@VCGraphicImageInstance@@@@A ; CGraphicImageInstance::ms_kPool
  00005	e9 00 00 00 00	 jmp	 ??1?$CDynamicPool@VCGraphicImageInstance@@@@UAE@XZ ; CDynamicPool<CGraphicImageInstance>::~CDynamicPool<CGraphicImageInstance>
??__F?ms_kPool@CGraphicImageInstance@@2V?$CDynamicPool@VCGraphicImageInstance@@@@A@@YAXXZ ENDP ; `dynamic atexit destructor for 'CGraphicImageInstance::ms_kPool''
text$yd	ENDS
; Function compile flags: /Ogtp
; File C:\Users\murat\Desktop\Siveps2-1-99-Project\source\client\Client\EterLib\GrpImageInstance.cpp
;	COMDAT ??__E?ms_kPool@CGraphicImageInstance@@2V?$CDynamicPool@VCGraphicImageInstance@@@@A@@YAXXZ
text$di	SEGMENT
??__E?ms_kPool@CGraphicImageInstance@@2V?$CDynamicPool@VCGraphicImageInstance@@@@A@@YAXXZ PROC ; `dynamic initializer for 'CGraphicImageInstance::ms_kPool'', COMDAT

; 11   : CDynamicPool<CGraphicImageInstance>		CGraphicImageInstance::ms_kPool;

  00000	68 00 00 00 00	 push	 OFFSET ??__F?ms_kPool@CGraphicImageInstance@@2V?$CDynamicPool@VCGraphicImageInstance@@@@A@@YAXXZ ; `dynamic atexit destructor for 'CGraphicImageInstance::ms_kPool''
  00005	e8 00 00 00 00	 call	 _atexit
  0000a	59		 pop	 ecx
  0000b	c3		 ret	 0
??__E?ms_kPool@CGraphicImageInstance@@2V?$CDynamicPool@VCGraphicImageInstance@@@@A@@YAXXZ ENDP ; `dynamic initializer for 'CGraphicImageInstance::ms_kPool''
text$di	ENDS
; Function compile flags: /Ogtp
;	COMDAT ??_G?$CDynamicPool@VCGraphicImageInstance@@@@UAEPAXI@Z
_TEXT	SEGMENT
___flags$ = 8						; size = 4
??_G?$CDynamicPool@VCGraphicImageInstance@@@@UAEPAXI@Z PROC ; CDynamicPool<CGraphicImageInstance>::`scalar deleting destructor', COMDAT
; _this$ = ecx
  00000	55		 push	 ebp
  00001	8b ec		 mov	 ebp, esp
  00003	56		 push	 esi
  00004	8b f1		 mov	 esi, ecx
  00006	e8 00 00 00 00	 call	 ??1?$CDynamicPool@VCGraphicImageInstance@@@@UAE@XZ ; CDynamicPool<CGraphicImageInstance>::~CDynamicPool<CGraphicImageInstance>
  0000b	f6 45 08 01	 test	 BYTE PTR ___flags$[ebp], 1
  0000f	74 0b		 je	 SHORT $LN4@scalar
  00011	6a 24		 push	 36			; 00000024H
  00013	56		 push	 esi
  00014	e8 00 00 00 00	 call	 ??3@YAXPAXI@Z		; operator delete
  00019	83 c4 08	 add	 esp, 8
$LN4@scalar:
  0001c	8b c6		 mov	 eax, esi
  0001e	5e		 pop	 esi
  0001f	5d		 pop	 ebp
  00020	c2 04 00	 ret	 4
??_G?$CDynamicPool@VCGraphicImageInstance@@@@UAEPAXI@Z ENDP ; CDynamicPool<CGraphicImageInstance>::`scalar deleting destructor'
_TEXT	ENDS
; Function compile flags: /Ogtp
; File C:\Program Files (x86)\Microsoft Visual Studio\2019\Professional\VC\Tools\MSVC\14.29.30133\include\vector
;	COMDAT ?_Xlength@?$vector@PAVCGraphicImageInstance@@V?$allocator@PAVCGraphicImageInstance@@@std@@@std@@CAXXZ
_TEXT	SEGMENT
?_Xlength@?$vector@PAVCGraphicImageInstance@@V?$allocator@PAVCGraphicImageInstance@@@std@@@std@@CAXXZ PROC ; std::vector<CGraphicImageInstance *,std::allocator<CGraphicImageInstance *> >::_Xlength, COMDAT

; 1774 :         _Xlength_error("vector too long");

  00000	68 00 00 00 00	 push	 OFFSET ??_C@_0BA@FOIKENOD@vector?5too?5long@
  00005	e8 00 00 00 00	 call	 ?_Xlength_error@std@@YAXPBD@Z ; std::_Xlength_error
$LN3@Xlength:
  0000a	cc		 int	 3
?_Xlength@?$vector@PAVCGraphicImageInstance@@V?$allocator@PAVCGraphicImageInstance@@@std@@@std@@CAXXZ ENDP ; std::vector<CGraphicImageInstance *,std::allocator<CGraphicImageInstance *> >::_Xlength
_TEXT	ENDS
; Function compile flags: /Ogtp
; File C:\Program Files (x86)\Microsoft Visual Studio\2019\Professional\VC\Tools\MSVC\14.29.30133\include\vector
; File C:\Program Files (x86)\Microsoft Visual Studio\2019\Professional\VC\Tools\MSVC\14.29.30133\include\xmemory
; File C:\Program Files (x86)\Microsoft Visual Studio\2019\Professional\VC\Tools\MSVC\14.29.30133\include\vector
; File C:\Program Files (x86)\Microsoft Visual Studio\2019\Professional\VC\Tools\MSVC\14.29.30133\include\xmemory
; File C:\Program Files (x86)\Microsoft Visual Studio\2019\Professional\VC\Tools\MSVC\14.29.30133\include\vector
;	COMDAT ?_Change_array@?$vector@PAVCGraphicImageInstance@@V?$allocator@PAVCGraphicImageInstance@@@std@@@std@@AAEXQAPAVCGraphicImageInstance@@II@Z
_TEXT	SEGMENT
__Newvec$ = 8						; size = 4
__Newsize$ = 12						; size = 4
__Newcapacity$ = 16					; size = 4
?_Change_array@?$vector@PAVCGraphicImageInstance@@V?$allocator@PAVCGraphicImageInstance@@@std@@@std@@AAEXQAPAVCGraphicImageInstance@@II@Z PROC ; std::vector<CGraphicImageInstance *,std::allocator<CGraphicImageInstance *> >::_Change_array, COMDAT
; _this$ = ecx

; 1736 :         const pointer _Newvec, const size_type _Newsize, const size_type _Newcapacity) {

  00000	55		 push	 ebp
  00001	8b ec		 mov	 ebp, esp
  00003	56		 push	 esi
  00004	8b f1		 mov	 esi, ecx

; 1737 :         // orphan all iterators, discard old array, acquire new array
; 1738 :         auto& _My_data    = _Mypair._Myval2;
; 1739 :         pointer& _Myfirst = _My_data._Myfirst;
; 1740 :         pointer& _Mylast  = _My_data._Mylast;
; 1741 :         pointer& _Myend   = _My_data._Myend;
; 1742 : 
; 1743 :         _My_data._Orphan_all();
; 1744 : 
; 1745 :         if (_Myfirst) { // destroy and deallocate old array

  00006	8b 06		 mov	 eax, DWORD PTR [esi]
  00008	85 c0		 test	 eax, eax
  0000a	74 2c		 je	 SHORT $LN8@Change_arr

; 1746 :             _Destroy(_Myfirst, _Mylast);
; 1747 :             _Getal().deallocate(_Myfirst, static_cast<size_type>(_Myend - _Myfirst));

  0000c	8b 4e 08	 mov	 ecx, DWORD PTR [esi+8]
  0000f	2b c8		 sub	 ecx, eax
; File C:\Program Files (x86)\Microsoft Visual Studio\2019\Professional\VC\Tools\MSVC\14.29.30133\include\xmemory

; 835  :         _Deallocate<_New_alignof<_Ty>>(_Ptr, sizeof(_Ty) * _Count);

  00011	83 e1 fc	 and	 ecx, -4			; fffffffcH

; 260  :         if (_Bytes >= _Big_allocation_threshold) { // boost the alignment of big allocations to help autovectorization

  00014	81 f9 00 10 00
	00		 cmp	 ecx, 4096		; 00001000H
  0001a	72 12		 jb	 SHORT $LN18@Change_arr

; 158  :     const uintptr_t _Ptr_container   = _Ptr_user[-1];

  0001c	8b 50 fc	 mov	 edx, DWORD PTR [eax-4]
  0001f	83 c1 23	 add	 ecx, 35			; 00000023H

; 159  : 
; 160  :     // If the following asserts, it likely means that we are performing
; 161  :     // an aligned delete on memory coming from an unaligned allocation.
; 162  :     _STL_ASSERT(_Ptr_user[-2] == _Big_allocation_sentinel, "invalid argument");
; 163  : 
; 164  :     // Extra paranoia on aligned allocation/deallocation; ensure _Ptr_container is
; 165  :     // in range [_Min_back_shift, _Non_user_size]
; 166  : #ifdef _DEBUG
; 167  :     constexpr uintptr_t _Min_back_shift = 2 * sizeof(void*);
; 168  : #else // ^^^ _DEBUG ^^^ // vvv !_DEBUG vvv
; 169  :     constexpr uintptr_t _Min_back_shift = sizeof(void*);
; 170  : #endif // _DEBUG
; 171  :     const uintptr_t _Back_shift = reinterpret_cast<uintptr_t>(_Ptr) - _Ptr_container;

  00022	2b c2		 sub	 eax, edx

; 172  :     _STL_VERIFY(_Back_shift >= _Min_back_shift && _Back_shift <= _Non_user_size, "invalid argument");

  00024	83 c0 fc	 add	 eax, -4			; fffffffcH
  00027	83 f8 1f	 cmp	 eax, 31			; 0000001fH
  0002a	77 28		 ja	 SHORT $LN15@Change_arr

; 173  :     _Ptr = reinterpret_cast<void*>(_Ptr_container);

  0002c	8b c2		 mov	 eax, edx
$LN18@Change_arr:

; 264  :         ::operator delete(_Ptr, _Bytes);

  0002e	51		 push	 ecx
  0002f	50		 push	 eax
  00030	e8 00 00 00 00	 call	 ??3@YAXPAXI@Z		; operator delete
  00035	83 c4 08	 add	 esp, 8
$LN8@Change_arr:
; File C:\Program Files (x86)\Microsoft Visual Studio\2019\Professional\VC\Tools\MSVC\14.29.30133\include\vector

; 1750 :         _Myfirst = _Newvec;

  00038	8b 4d 08	 mov	 ecx, DWORD PTR __Newvec$[ebp]

; 1751 :         _Mylast  = _Newvec + _Newsize;

  0003b	8b 45 0c	 mov	 eax, DWORD PTR __Newsize$[ebp]
  0003e	89 0e		 mov	 DWORD PTR [esi], ecx
  00040	8d 04 81	 lea	 eax, DWORD PTR [ecx+eax*4]
  00043	89 46 04	 mov	 DWORD PTR [esi+4], eax

; 1752 :         _Myend   = _Newvec + _Newcapacity;

  00046	8b 45 10	 mov	 eax, DWORD PTR __Newcapacity$[ebp]
  00049	8d 04 81	 lea	 eax, DWORD PTR [ecx+eax*4]
  0004c	89 46 08	 mov	 DWORD PTR [esi+8], eax
  0004f	5e		 pop	 esi

; 1753 :     }

  00050	5d		 pop	 ebp
  00051	c2 0c 00	 ret	 12			; 0000000cH
$LN15@Change_arr:
; File C:\Program Files (x86)\Microsoft Visual Studio\2019\Professional\VC\Tools\MSVC\14.29.30133\include\xmemory

; 172  :     _STL_VERIFY(_Back_shift >= _Min_back_shift && _Back_shift <= _Non_user_size, "invalid argument");

  00054	e8 00 00 00 00	 call	 __invalid_parameter_noinfo_noreturn
$LN22@Change_arr:
  00059	cc		 int	 3
?_Change_array@?$vector@PAVCGraphicImageInstance@@V?$allocator@PAVCGraphicImageInstance@@@std@@@std@@AAEXQAPAVCGraphicImageInstance@@II@Z ENDP ; std::vector<CGraphicImageInstance *,std::allocator<CGraphicImageInstance *> >::_Change_array
_TEXT	ENDS
; Function compile flags: /Ogtp
; File C:\Program Files (x86)\Microsoft Visual Studio\2019\Professional\VC\Tools\MSVC\14.29.30133\include\vector
; File C:\Program Files (x86)\Microsoft Visual Studio\2019\Professional\VC\Tools\MSVC\14.29.30133\include\xmemory
; File C:\Program Files (x86)\Microsoft Visual Studio\2019\Professional\VC\Tools\MSVC\14.29.30133\include\vector
; File C:\Program Files (x86)\Microsoft Visual Studio\2019\Professional\VC\Tools\MSVC\14.29.30133\include\xmemory
; File C:\Program Files (x86)\Microsoft Visual Studio\2019\Professional\VC\Tools\MSVC\14.29.30133\include\vector
; File C:\Program Files (x86)\Microsoft Visual Studio\2019\Professional\VC\Tools\MSVC\14.29.30133\include\xmemory
; File C:\Program Files (x86)\Microsoft Visual Studio\2019\Professional\VC\Tools\MSVC\14.29.30133\include\vector
; File C:\Program Files (x86)\Microsoft Visual Studio\2019\Professional\VC\Tools\MSVC\14.29.30133\include\xmemory
; File C:\Program Files (x86)\Microsoft Visual Studio\2019\Professional\VC\Tools\MSVC\14.29.30133\include\vector
; File C:\Program Files (x86)\Microsoft Visual Studio\2019\Professional\VC\Tools\MSVC\14.29.30133\include\xmemory
; File C:\Program Files (x86)\Microsoft Visual Studio\2019\Professional\VC\Tools\MSVC\14.29.30133\include\vector
;	COMDAT ?_Reallocate_exactly@?$vector@PAVCGraphicImageInstance@@V?$allocator@PAVCGraphicImageInstance@@@std@@@std@@AAEXI@Z
_TEXT	SEGMENT
__Size$1$ = -4						; size = 4
__Newcapacity$ = 8					; size = 4
?_Reallocate_exactly@?$vector@PAVCGraphicImageInstance@@V?$allocator@PAVCGraphicImageInstance@@@std@@@std@@AAEXI@Z PROC ; std::vector<CGraphicImageInstance *,std::allocator<CGraphicImageInstance *> >::_Reallocate_exactly, COMDAT
; _this$ = ecx

; 1299 :     _CONSTEXPR20_CONTAINER void _Reallocate_exactly(const size_type _Newcapacity) {

  00000	55		 push	 ebp
  00001	8b ec		 mov	 ebp, esp
  00003	51		 push	 ecx
  00004	53		 push	 ebx
; File C:\Program Files (x86)\Microsoft Visual Studio\2019\Professional\VC\Tools\MSVC\14.29.30133\include\xmemory

; 64   :         if (_Count > _Max_possible) {

  00005	8b 5d 08	 mov	 ebx, DWORD PTR __Newcapacity$[ebp]
; File C:\Program Files (x86)\Microsoft Visual Studio\2019\Professional\VC\Tools\MSVC\14.29.30133\include\vector

; 1299 :     _CONSTEXPR20_CONTAINER void _Reallocate_exactly(const size_type _Newcapacity) {

  00008	56		 push	 esi
  00009	8b f1		 mov	 esi, ecx
  0000b	57		 push	 edi

; 1300 :         // set capacity to _Newcapacity (without geometric growth), provide strong guarantee
; 1301 :         auto& _My_data    = _Mypair._Myval2;
; 1302 :         pointer& _Myfirst = _My_data._Myfirst;
; 1303 :         pointer& _Mylast  = _My_data._Mylast;
; 1304 : 
; 1305 :         const auto _Size = static_cast<size_type>(_Mylast - _Myfirst);

  0000c	8b 46 04	 mov	 eax, DWORD PTR [esi+4]
  0000f	2b 06		 sub	 eax, DWORD PTR [esi]
  00011	c1 f8 02	 sar	 eax, 2
  00014	89 45 fc	 mov	 DWORD PTR __Size$1$[ebp], eax
; File C:\Program Files (x86)\Microsoft Visual Studio\2019\Professional\VC\Tools\MSVC\14.29.30133\include\xmemory

; 64   :         if (_Count > _Max_possible) {

  00017	81 fb ff ff ff
	3f		 cmp	 ebx, 1073741823		; 3fffffffH
  0001d	0f 87 8a 00 00
	00		 ja	 $LN59@Reallocate

; 66   :         }
; 67   :     }
; 68   : 
; 69   :     return _Count * _Ty_size;

  00023	c1 e3 02	 shl	 ebx, 2

; 237  :         if (_Bytes >= _Big_allocation_threshold) { // boost the alignment of big allocations to help autovectorization

  00026	81 fb 00 10 00
	00		 cmp	 ebx, 4096		; 00001000H
  0002c	72 0d		 jb	 SHORT $LN15@Reallocate

; 238  :             return _Allocate_manually_vector_aligned<_Traits>(_Bytes);

  0002e	53		 push	 ebx
  0002f	e8 00 00 00 00	 call	 ??$_Allocate_manually_vector_aligned@U_Default_allocate_traits@std@@@std@@YAPAXI@Z ; std::_Allocate_manually_vector_aligned<std::_Default_allocate_traits>
  00034	83 c4 04	 add	 esp, 4
  00037	8b f8		 mov	 edi, eax
  00039	eb 13		 jmp	 SHORT $LN14@Reallocate
$LN15@Reallocate:

; 239  :         }
; 240  :     }
; 241  : #endif // defined(_M_IX86) || defined(_M_X64)
; 242  : 
; 243  :     if (_Bytes != 0) {

  0003b	85 db		 test	 ebx, ebx
  0003d	74 0d		 je	 SHORT $LN16@Reallocate

; 85   :         return ::operator new(_Bytes);

  0003f	53		 push	 ebx
  00040	e8 00 00 00 00	 call	 ??2@YAPAXI@Z		; operator new
  00045	83 c4 04	 add	 esp, 4

; 244  :         return _Traits::_Allocate(_Bytes);

  00048	8b f8		 mov	 edi, eax
  0004a	eb 02		 jmp	 SHORT $LN14@Reallocate
$LN16@Reallocate:

; 245  :     }
; 246  : 
; 247  :     return nullptr;

  0004c	33 ff		 xor	 edi, edi
$LN14@Reallocate:

; 1725 :             _Copy_memmove(_UFirst, _ULast, _Unfancy(_Dest));

  0004e	57		 push	 edi
  0004f	ff 76 04	 push	 DWORD PTR [esi+4]
  00052	ff 36		 push	 DWORD PTR [esi]
  00054	e8 00 00 00 00	 call	 ??$_Copy_memmove@PAPAVCGraphicImageInstance@@PAPAV1@@std@@YAPAPAVCGraphicImageInstance@@PAPAV1@00@Z ; std::_Copy_memmove<CGraphicImageInstance * *,CGraphicImageInstance * *>
; File C:\Program Files (x86)\Microsoft Visual Studio\2019\Professional\VC\Tools\MSVC\14.29.30133\include\vector

; 1745 :         if (_Myfirst) { // destroy and deallocate old array

  00059	8b 06		 mov	 eax, DWORD PTR [esi]
; File C:\Program Files (x86)\Microsoft Visual Studio\2019\Professional\VC\Tools\MSVC\14.29.30133\include\xmemory

; 1725 :             _Copy_memmove(_UFirst, _ULast, _Unfancy(_Dest));

  0005b	83 c4 0c	 add	 esp, 12			; 0000000cH
; File C:\Program Files (x86)\Microsoft Visual Studio\2019\Professional\VC\Tools\MSVC\14.29.30133\include\vector

; 1745 :         if (_Myfirst) { // destroy and deallocate old array

  0005e	85 c0		 test	 eax, eax
  00060	74 2c		 je	 SHORT $LN43@Reallocate

; 1746 :             _Destroy(_Myfirst, _Mylast);
; 1747 :             _Getal().deallocate(_Myfirst, static_cast<size_type>(_Myend - _Myfirst));

  00062	8b 4e 08	 mov	 ecx, DWORD PTR [esi+8]
  00065	2b c8		 sub	 ecx, eax
; File C:\Program Files (x86)\Microsoft Visual Studio\2019\Professional\VC\Tools\MSVC\14.29.30133\include\xmemory

; 835  :         _Deallocate<_New_alignof<_Ty>>(_Ptr, sizeof(_Ty) * _Count);

  00067	83 e1 fc	 and	 ecx, -4			; fffffffcH

; 260  :         if (_Bytes >= _Big_allocation_threshold) { // boost the alignment of big allocations to help autovectorization

  0006a	81 f9 00 10 00
	00		 cmp	 ecx, 4096		; 00001000H
  00070	72 12		 jb	 SHORT $LN53@Reallocate

; 158  :     const uintptr_t _Ptr_container   = _Ptr_user[-1];

  00072	8b 50 fc	 mov	 edx, DWORD PTR [eax-4]
  00075	83 c1 23	 add	 ecx, 35			; 00000023H

; 159  : 
; 160  :     // If the following asserts, it likely means that we are performing
; 161  :     // an aligned delete on memory coming from an unaligned allocation.
; 162  :     _STL_ASSERT(_Ptr_user[-2] == _Big_allocation_sentinel, "invalid argument");
; 163  : 
; 164  :     // Extra paranoia on aligned allocation/deallocation; ensure _Ptr_container is
; 165  :     // in range [_Min_back_shift, _Non_user_size]
; 166  : #ifdef _DEBUG
; 167  :     constexpr uintptr_t _Min_back_shift = 2 * sizeof(void*);
; 168  : #else // ^^^ _DEBUG ^^^ // vvv !_DEBUG vvv
; 169  :     constexpr uintptr_t _Min_back_shift = sizeof(void*);
; 170  : #endif // _DEBUG
; 171  :     const uintptr_t _Back_shift = reinterpret_cast<uintptr_t>(_Ptr) - _Ptr_container;

  00078	2b c2		 sub	 eax, edx

; 172  :     _STL_VERIFY(_Back_shift >= _Min_back_shift && _Back_shift <= _Non_user_size, "invalid argument");

  0007a	83 c0 fc	 add	 eax, -4			; fffffffcH
  0007d	83 f8 1f	 cmp	 eax, 31			; 0000001fH
  00080	77 26		 ja	 SHORT $LN50@Reallocate

; 173  :     _Ptr = reinterpret_cast<void*>(_Ptr_container);

  00082	8b c2		 mov	 eax, edx
$LN53@Reallocate:

; 264  :         ::operator delete(_Ptr, _Bytes);

  00084	51		 push	 ecx
  00085	50		 push	 eax
  00086	e8 00 00 00 00	 call	 ??3@YAXPAXI@Z		; operator delete
  0008b	83 c4 08	 add	 esp, 8
$LN43@Reallocate:
; File C:\Program Files (x86)\Microsoft Visual Studio\2019\Professional\VC\Tools\MSVC\14.29.30133\include\vector

; 1751 :         _Mylast  = _Newvec + _Newsize;

  0008e	8b 45 fc	 mov	 eax, DWORD PTR __Size$1$[ebp]
  00091	89 3e		 mov	 DWORD PTR [esi], edi
  00093	8d 04 87	 lea	 eax, DWORD PTR [edi+eax*4]
  00096	89 46 04	 mov	 DWORD PTR [esi+4], eax

; 1752 :         _Myend   = _Newvec + _Newcapacity;

  00099	8d 04 3b	 lea	 eax, DWORD PTR [ebx+edi]
  0009c	5f		 pop	 edi
  0009d	89 46 08	 mov	 DWORD PTR [esi+8], eax
  000a0	5e		 pop	 esi
  000a1	5b		 pop	 ebx

; 1317 :     }

  000a2	8b e5		 mov	 esp, ebp
  000a4	5d		 pop	 ebp
  000a5	c2 04 00	 ret	 4
$LN50@Reallocate:
; File C:\Program Files (x86)\Microsoft Visual Studio\2019\Professional\VC\Tools\MSVC\14.29.30133\include\xmemory

; 172  :     _STL_VERIFY(_Back_shift >= _Min_back_shift && _Back_shift <= _Non_user_size, "invalid argument");

  000a8	e8 00 00 00 00	 call	 __invalid_parameter_noinfo_noreturn
$LN59@Reallocate:

; 65   :             _Throw_bad_array_new_length(); // multiply overflow

  000ad	e8 00 00 00 00	 call	 ?_Throw_bad_array_new_length@std@@YAXXZ ; std::_Throw_bad_array_new_length
$LN57@Reallocate:
  000b2	cc		 int	 3
?_Reallocate_exactly@?$vector@PAVCGraphicImageInstance@@V?$allocator@PAVCGraphicImageInstance@@@std@@@std@@AAEXI@Z ENDP ; std::vector<CGraphicImageInstance *,std::allocator<CGraphicImageInstance *> >::_Reallocate_exactly
_TEXT	ENDS
; Function compile flags: /Ogtp
; File C:\Users\murat\Desktop\Siveps2-1-99-Project\source\client\Client\EterLib\Pool.h
;	COMDAT ?Delete@?$CDynamicPool@VCGraphicImageInstance@@@@KAXPAVCGraphicImageInstance@@@Z
_TEXT	SEGMENT
_pkData$ = 8						; size = 4
?Delete@?$CDynamicPool@VCGraphicImageInstance@@@@KAXPAVCGraphicImageInstance@@@Z PROC ; CDynamicPool<CGraphicImageInstance>::Delete, COMDAT

; 109  : 		{

  00000	55		 push	 ebp
  00001	8b ec		 mov	 ebp, esp

; 110  : 			delete pkData;

  00003	8b 4d 08	 mov	 ecx, DWORD PTR _pkData$[ebp]
  00006	85 c9		 test	 ecx, ecx
  00008	74 06		 je	 SHORT $LN3@Delete
  0000a	8b 01		 mov	 eax, DWORD PTR [ecx]
  0000c	6a 01		 push	 1
  0000e	ff 10		 call	 DWORD PTR [eax]
$LN3@Delete:

; 111  : 		}

  00010	5d		 pop	 ebp
  00011	c3		 ret	 0
?Delete@?$CDynamicPool@VCGraphicImageInstance@@@@KAXPAVCGraphicImageInstance@@@Z ENDP ; CDynamicPool<CGraphicImageInstance>::Delete
_TEXT	ENDS
; Function compile flags: /Ogtp
; File C:\Users\murat\Desktop\Siveps2-1-99-Project\source\client\Client\EterLib\Pool.h
; File C:\Program Files (x86)\Microsoft Visual Studio\2019\Professional\VC\Tools\MSVC\14.29.30133\include\vector
; File C:\Program Files (x86)\Microsoft Visual Studio\2019\Professional\VC\Tools\MSVC\14.29.30133\include\xmemory
; File C:\Program Files (x86)\Microsoft Visual Studio\2019\Professional\VC\Tools\MSVC\14.29.30133\include\vector
; File C:\Program Files (x86)\Microsoft Visual Studio\2019\Professional\VC\Tools\MSVC\14.29.30133\include\xmemory
; File C:\Program Files (x86)\Microsoft Visual Studio\2019\Professional\VC\Tools\MSVC\14.29.30133\include\vector
; File C:\Program Files (x86)\Microsoft Visual Studio\2019\Professional\VC\Tools\MSVC\14.29.30133\include\xmemory
; File C:\Program Files (x86)\Microsoft Visual Studio\2019\Professional\VC\Tools\MSVC\14.29.30133\include\vector
; File C:\Program Files (x86)\Microsoft Visual Studio\2019\Professional\VC\Tools\MSVC\14.29.30133\include\xmemory
; File C:\Program Files (x86)\Microsoft Visual Studio\2019\Professional\VC\Tools\MSVC\14.29.30133\include\vector
; File C:\Users\murat\Desktop\Siveps2-1-99-Project\source\client\Client\EterLib\Pool.h
; File C:\Program Files (x86)\Microsoft Visual Studio\2019\Professional\VC\Tools\MSVC\14.29.30133\include\xmemory
; File C:\Users\murat\Desktop\Siveps2-1-99-Project\source\client\Client\EterLib\Pool.h
;	COMDAT ??1?$CDynamicPool@VCGraphicImageInstance@@@@UAE@XZ
_TEXT	SEGMENT
??1?$CDynamicPool@VCGraphicImageInstance@@@@UAE@XZ PROC	; CDynamicPool<CGraphicImageInstance>::~CDynamicPool<CGraphicImageInstance>, COMDAT
; _this$ = ecx

; 18   : 		{

  00000	56		 push	 esi
  00001	8b f1		 mov	 esi, ecx
  00003	c7 06 00 00 00
	00		 mov	 DWORD PTR [esi], OFFSET ??_7?$CDynamicPool@VCGraphicImageInstance@@@@6B@
; File C:\Program Files (x86)\Microsoft Visual Studio\2019\Professional\VC\Tools\MSVC\14.29.30133\include\vector

; 1763 :         if (_Myfirst) { // destroy and deallocate old array

  00009	8b 46 10	 mov	 eax, DWORD PTR [esi+16]
  0000c	85 c0		 test	 eax, eax
  0000e	74 41		 je	 SHORT $LN6@CDynamicPo

; 1764 :             _Destroy(_Myfirst, _Mylast);
; 1765 :             _Getal().deallocate(_Myfirst, static_cast<size_type>(_Myend - _Myfirst));

  00010	8b 4e 18	 mov	 ecx, DWORD PTR [esi+24]
  00013	2b c8		 sub	 ecx, eax
; File C:\Program Files (x86)\Microsoft Visual Studio\2019\Professional\VC\Tools\MSVC\14.29.30133\include\xmemory

; 835  :         _Deallocate<_New_alignof<_Ty>>(_Ptr, sizeof(_Ty) * _Count);

  00015	83 e1 fc	 and	 ecx, -4			; fffffffcH

; 260  :         if (_Bytes >= _Big_allocation_threshold) { // boost the alignment of big allocations to help autovectorization

  00018	81 f9 00 10 00
	00		 cmp	 ecx, 4096		; 00001000H
  0001e	72 12		 jb	 SHORT $LN22@CDynamicPo

; 158  :     const uintptr_t _Ptr_container   = _Ptr_user[-1];

  00020	8b 50 fc	 mov	 edx, DWORD PTR [eax-4]
  00023	83 c1 23	 add	 ecx, 35			; 00000023H

; 159  : 
; 160  :     // If the following asserts, it likely means that we are performing
; 161  :     // an aligned delete on memory coming from an unaligned allocation.
; 162  :     _STL_ASSERT(_Ptr_user[-2] == _Big_allocation_sentinel, "invalid argument");
; 163  : 
; 164  :     // Extra paranoia on aligned allocation/deallocation; ensure _Ptr_container is
; 165  :     // in range [_Min_back_shift, _Non_user_size]
; 166  : #ifdef _DEBUG
; 167  :     constexpr uintptr_t _Min_back_shift = 2 * sizeof(void*);
; 168  : #else // ^^^ _DEBUG ^^^ // vvv !_DEBUG vvv
; 169  :     constexpr uintptr_t _Min_back_shift = sizeof(void*);
; 170  : #endif // _DEBUG
; 171  :     const uintptr_t _Back_shift = reinterpret_cast<uintptr_t>(_Ptr) - _Ptr_container;

  00026	2b c2		 sub	 eax, edx

; 172  :     _STL_VERIFY(_Back_shift >= _Min_back_shift && _Back_shift <= _Non_user_size, "invalid argument");

  00028	83 c0 fc	 add	 eax, -4			; fffffffcH
  0002b	83 f8 1f	 cmp	 eax, 31			; 0000001fH
  0002e	77 6b		 ja	 SHORT $LN44@CDynamicPo

; 173  :     _Ptr = reinterpret_cast<void*>(_Ptr_container);

  00030	8b c2		 mov	 eax, edx
$LN22@CDynamicPo:

; 264  :         ::operator delete(_Ptr, _Bytes);

  00032	51		 push	 ecx
  00033	50		 push	 eax
  00034	e8 00 00 00 00	 call	 ??3@YAXPAXI@Z		; operator delete
; File C:\Program Files (x86)\Microsoft Visual Studio\2019\Professional\VC\Tools\MSVC\14.29.30133\include\vector

; 1767 :             _Myfirst = nullptr;

  00039	c7 46 10 00 00
	00 00		 mov	 DWORD PTR [esi+16], 0
; File C:\Program Files (x86)\Microsoft Visual Studio\2019\Professional\VC\Tools\MSVC\14.29.30133\include\xmemory

; 264  :         ::operator delete(_Ptr, _Bytes);

  00040	83 c4 08	 add	 esp, 8
; File C:\Program Files (x86)\Microsoft Visual Studio\2019\Professional\VC\Tools\MSVC\14.29.30133\include\vector

; 1768 :             _Mylast  = nullptr;

  00043	c7 46 14 00 00
	00 00		 mov	 DWORD PTR [esi+20], 0

; 1769 :             _Myend   = nullptr;

  0004a	c7 46 18 00 00
	00 00		 mov	 DWORD PTR [esi+24], 0
$LN6@CDynamicPo:

; 1763 :         if (_Myfirst) { // destroy and deallocate old array

  00051	8b 46 04	 mov	 eax, DWORD PTR [esi+4]
  00054	85 c0		 test	 eax, eax
  00056	74 41		 je	 SHORT $LN31@CDynamicPo

; 1764 :             _Destroy(_Myfirst, _Mylast);
; 1765 :             _Getal().deallocate(_Myfirst, static_cast<size_type>(_Myend - _Myfirst));

  00058	8b 4e 0c	 mov	 ecx, DWORD PTR [esi+12]
  0005b	2b c8		 sub	 ecx, eax
; File C:\Program Files (x86)\Microsoft Visual Studio\2019\Professional\VC\Tools\MSVC\14.29.30133\include\xmemory

; 835  :         _Deallocate<_New_alignof<_Ty>>(_Ptr, sizeof(_Ty) * _Count);

  0005d	83 e1 fc	 and	 ecx, -4			; fffffffcH

; 260  :         if (_Bytes >= _Big_allocation_threshold) { // boost the alignment of big allocations to help autovectorization

  00060	81 f9 00 10 00
	00		 cmp	 ecx, 4096		; 00001000H
  00066	72 12		 jb	 SHORT $LN47@CDynamicPo

; 158  :     const uintptr_t _Ptr_container   = _Ptr_user[-1];

  00068	8b 50 fc	 mov	 edx, DWORD PTR [eax-4]
  0006b	83 c1 23	 add	 ecx, 35			; 00000023H

; 159  : 
; 160  :     // If the following asserts, it likely means that we are performing
; 161  :     // an aligned delete on memory coming from an unaligned allocation.
; 162  :     _STL_ASSERT(_Ptr_user[-2] == _Big_allocation_sentinel, "invalid argument");
; 163  : 
; 164  :     // Extra paranoia on aligned allocation/deallocation; ensure _Ptr_container is
; 165  :     // in range [_Min_back_shift, _Non_user_size]
; 166  : #ifdef _DEBUG
; 167  :     constexpr uintptr_t _Min_back_shift = 2 * sizeof(void*);
; 168  : #else // ^^^ _DEBUG ^^^ // vvv !_DEBUG vvv
; 169  :     constexpr uintptr_t _Min_back_shift = sizeof(void*);
; 170  : #endif // _DEBUG
; 171  :     const uintptr_t _Back_shift = reinterpret_cast<uintptr_t>(_Ptr) - _Ptr_container;

  0006e	2b c2		 sub	 eax, edx

; 172  :     _STL_VERIFY(_Back_shift >= _Min_back_shift && _Back_shift <= _Non_user_size, "invalid argument");

  00070	83 c0 fc	 add	 eax, -4			; fffffffcH
  00073	83 f8 1f	 cmp	 eax, 31			; 0000001fH
  00076	77 23		 ja	 SHORT $LN44@CDynamicPo

; 173  :     _Ptr = reinterpret_cast<void*>(_Ptr_container);

  00078	8b c2		 mov	 eax, edx
$LN47@CDynamicPo:

; 264  :         ::operator delete(_Ptr, _Bytes);

  0007a	51		 push	 ecx
  0007b	50		 push	 eax
  0007c	e8 00 00 00 00	 call	 ??3@YAXPAXI@Z		; operator delete
; File C:\Program Files (x86)\Microsoft Visual Studio\2019\Professional\VC\Tools\MSVC\14.29.30133\include\vector

; 1767 :             _Myfirst = nullptr;

  00081	c7 46 04 00 00
	00 00		 mov	 DWORD PTR [esi+4], 0
; File C:\Program Files (x86)\Microsoft Visual Studio\2019\Professional\VC\Tools\MSVC\14.29.30133\include\xmemory

; 264  :         ::operator delete(_Ptr, _Bytes);

  00088	83 c4 08	 add	 esp, 8
; File C:\Program Files (x86)\Microsoft Visual Studio\2019\Professional\VC\Tools\MSVC\14.29.30133\include\vector

; 1768 :             _Mylast  = nullptr;

  0008b	c7 46 08 00 00
	00 00		 mov	 DWORD PTR [esi+8], 0

; 1769 :             _Myend   = nullptr;

  00092	c7 46 0c 00 00
	00 00		 mov	 DWORD PTR [esi+12], 0
$LN31@CDynamicPo:
  00099	5e		 pop	 esi
; File C:\Users\murat\Desktop\Siveps2-1-99-Project\source\client\Client\EterLib\Pool.h

; 26   : 		}

  0009a	c3		 ret	 0
$LN44@CDynamicPo:
; File C:\Program Files (x86)\Microsoft Visual Studio\2019\Professional\VC\Tools\MSVC\14.29.30133\include\xmemory

; 172  :     _STL_VERIFY(_Back_shift >= _Min_back_shift && _Back_shift <= _Non_user_size, "invalid argument");

  0009b	e8 00 00 00 00	 call	 __invalid_parameter_noinfo_noreturn
$LN52@CDynamicPo:
  000a0	cc		 int	 3
??1?$CDynamicPool@VCGraphicImageInstance@@@@UAE@XZ ENDP	; CDynamicPool<CGraphicImageInstance>::~CDynamicPool<CGraphicImageInstance>
_TEXT	ENDS
; Function compile flags: /Ogtp
;	COMDAT ??_GCGraphicImageInstance@@UAEPAXI@Z
_TEXT	SEGMENT
___flags$ = 8						; size = 4
??_GCGraphicImageInstance@@UAEPAXI@Z PROC		; CGraphicImageInstance::`scalar deleting destructor', COMDAT
; _this$ = ecx
  00000	55		 push	 ebp
  00001	8b ec		 mov	 ebp, esp
  00003	56		 push	 esi
  00004	8b f1		 mov	 esi, ecx
  00006	e8 00 00 00 00	 call	 ??1CGraphicImageInstance@@UAE@XZ ; CGraphicImageInstance::~CGraphicImageInstance
  0000b	f6 45 08 01	 test	 BYTE PTR ___flags$[ebp], 1
  0000f	74 0b		 je	 SHORT $LN4@scalar
  00011	6a 20		 push	 32			; 00000020H
  00013	56		 push	 esi
  00014	e8 00 00 00 00	 call	 ??3@YAXPAXI@Z		; operator delete
  00019	83 c4 08	 add	 esp, 8
$LN4@scalar:
  0001c	8b c6		 mov	 eax, esi
  0001e	5e		 pop	 esi
  0001f	5d		 pop	 ebp
  00020	c2 04 00	 ret	 4
??_GCGraphicImageInstance@@UAEPAXI@Z ENDP		; CGraphicImageInstance::`scalar deleting destructor'
_TEXT	ENDS
; Function compile flags: /Ogtp
; File C:\Users\murat\Desktop\Siveps2-1-99-Project\source\client\Client\EterLib\GrpImageInstance.cpp
; File C:\Program Files (x86)\Microsoft Visual Studio\2019\Professional\VC\Tools\MSVC\14.29.30133\include\vector
; File C:\Users\murat\Desktop\Siveps2-1-99-Project\source\client\Client\EterLib\GrpImageInstance.cpp
; File C:\Program Files (x86)\Microsoft Visual Studio\2019\Professional\VC\Tools\MSVC\14.29.30133\include\vector
; File C:\Users\murat\Desktop\Siveps2-1-99-Project\source\client\Client\EterLib\GrpImageInstance.cpp
; File C:\Program Files (x86)\Microsoft Visual Studio\2019\Professional\VC\Tools\MSVC\14.29.30133\include\vector
; File C:\Users\murat\Desktop\Siveps2-1-99-Project\source\client\Client\EterLib\GrpImageInstance.cpp
;	COMDAT ?Delete@CGraphicImageInstance@@SAXPAV1@@Z
_TEXT	SEGMENT
_pkData$ = 8						; size = 4
_pkImgInst$ = 8						; size = 4
?Delete@CGraphicImageInstance@@SAXPAV1@@Z PROC		; CGraphicImageInstance::Delete, COMDAT

; 169  : {

  00000	55		 push	 ebp
  00001	8b ec		 mov	 ebp, esp
  00003	56		 push	 esi

; 170  : 	pkImgInst->Destroy();

  00004	8b 75 08	 mov	 esi, DWORD PTR _pkImgInst$[ebp]
  00007	8b ce		 mov	 ecx, esi
  00009	e8 00 00 00 00	 call	 ?Destroy@CGraphicImageInstance@@QAEXXZ ; CGraphicImageInstance::Destroy
; File C:\Program Files (x86)\Microsoft Visual Studio\2019\Professional\VC\Tools\MSVC\14.29.30133\include\vector

; 743  :         if (_Mylast != _My_data._Myend) {

  0000e	a1 14 00 00 00	 mov	 eax, DWORD PTR ?ms_kPool@CGraphicImageInstance@@2V?$CDynamicPool@VCGraphicImageInstance@@@@A+20
; File C:\Users\murat\Desktop\Siveps2-1-99-Project\source\client\Client\EterLib\GrpImageInstance.cpp

; 171  : 	ms_kPool.Free(pkImgInst);

  00013	89 75 08	 mov	 DWORD PTR _pkData$[ebp], esi
; File C:\Program Files (x86)\Microsoft Visual Studio\2019\Professional\VC\Tools\MSVC\14.29.30133\include\vector

; 743  :         if (_Mylast != _My_data._Myend) {

  00016	3b 05 18 00 00
	00		 cmp	 eax, DWORD PTR ?ms_kPool@CGraphicImageInstance@@2V?$CDynamicPool@VCGraphicImageInstance@@@@A+24
  0001c	74 0c		 je	 SHORT $LN8@Delete

; 726  :         _Alty_traits::construct(_Getal(), _Unfancy(_Mylast), _STD forward<_Valty>(_Val)...);

  0001e	89 30		 mov	 DWORD PTR [eax], esi

; 727  :         _Orphan_range(_Mylast, _Mylast);
; 728  :         _Ty& _Result = *_Mylast;
; 729  :         ++_Mylast;

  00020	83 05 14 00 00
	00 04		 add	 DWORD PTR ?ms_kPool@CGraphicImageInstance@@2V?$CDynamicPool@VCGraphicImageInstance@@@@A+20, 4
  00027	5e		 pop	 esi
; File C:\Users\murat\Desktop\Siveps2-1-99-Project\source\client\Client\EterLib\GrpImageInstance.cpp

; 172  : }

  00028	5d		 pop	 ebp
  00029	c3		 ret	 0
$LN8@Delete:
; File C:\Program Files (x86)\Microsoft Visual Studio\2019\Professional\VC\Tools\MSVC\14.29.30133\include\vector

; 747  :         _Ty& _Result = *_Emplace_reallocate(_Mylast, _STD forward<_Valty>(_Val)...);

  0002a	8d 4d 08	 lea	 ecx, DWORD PTR _pkData$[ebp]
  0002d	51		 push	 ecx
  0002e	50		 push	 eax
  0002f	b9 10 00 00 00	 mov	 ecx, OFFSET ?ms_kPool@CGraphicImageInstance@@2V?$CDynamicPool@VCGraphicImageInstance@@@@A+16
  00034	e8 00 00 00 00	 call	 ??$_Emplace_reallocate@ABQAVCGraphicImageInstance@@@?$vector@PAVCGraphicImageInstance@@V?$allocator@PAVCGraphicImageInstance@@@std@@@std@@QAEPAPAVCGraphicImageInstance@@QAPAV2@ABQAV2@@Z ; std::vector<CGraphicImageInstance *,std::allocator<CGraphicImageInstance *> >::_Emplace_reallocate<CGraphicImageInstance * const &>
  00039	5e		 pop	 esi
; File C:\Users\murat\Desktop\Siveps2-1-99-Project\source\client\Client\EterLib\GrpImageInstance.cpp

; 172  : }

  0003a	5d		 pop	 ebp
  0003b	c3		 ret	 0
?Delete@CGraphicImageInstance@@SAXPAV1@@Z ENDP		; CGraphicImageInstance::Delete
_TEXT	ENDS
; Function compile flags: /Ogtp
; File C:\Users\murat\Desktop\Siveps2-1-99-Project\source\client\Client\EterLib\GrpImageInstance.cpp
; File C:\Program Files (x86)\Microsoft Visual Studio\2019\Professional\VC\Tools\MSVC\14.29.30133\include\vector
; File C:\Users\murat\Desktop\Siveps2-1-99-Project\source\client\Client\EterLib\Pool.h
; File C:\Program Files (x86)\Microsoft Visual Studio\2019\Professional\VC\Tools\MSVC\14.29.30133\include\vector
; File C:\Users\murat\Desktop\Siveps2-1-99-Project\source\client\Client\EterLib\Pool.h
; File C:\Program Files (x86)\Microsoft Visual Studio\2019\Professional\VC\Tools\MSVC\14.29.30133\include\vector
; File C:\Users\murat\Desktop\Siveps2-1-99-Project\source\client\Client\EterLib\GrpImageInstance.cpp
; File C:\Program Files (x86)\Microsoft Visual Studio\2019\Professional\VC\Tools\MSVC\14.29.30133\include\vector
; File C:\Users\murat\Desktop\Siveps2-1-99-Project\source\client\Client\EterLib\Pool.h
; File C:\Users\murat\Desktop\Siveps2-1-99-Project\source\client\Client\EterLib\GrpImageInstance.cpp
; File C:\Program Files (x86)\Microsoft Visual Studio\2019\Professional\VC\Tools\MSVC\14.29.30133\include\vector
; File C:\Users\murat\Desktop\Siveps2-1-99-Project\source\client\Client\EterLib\Pool.h
; File C:\Users\murat\Desktop\Siveps2-1-99-Project\source\client\Client\EterLib\GrpImageInstance.cpp
; File C:\Users\murat\Desktop\Siveps2-1-99-Project\source\client\Client\EterLib\Pool.h
; File C:\Program Files (x86)\Microsoft Visual Studio\2019\Professional\VC\Tools\MSVC\14.29.30133\include\vector
; File C:\Users\murat\Desktop\Siveps2-1-99-Project\source\client\Client\EterLib\GrpImageInstance.cpp
;	COMDAT ?New@CGraphicImageInstance@@SAPAV1@XZ
_TEXT	SEGMENT
$T1 = -4						; size = 4
_pkNewData$2 = -4					; size = 4
?New@CGraphicImageInstance@@SAPAV1@XZ PROC		; CGraphicImageInstance::New, COMDAT

; 164  : {

  00000	55		 push	 ebp
  00001	8b ec		 mov	 ebp, esp
  00003	51		 push	 ecx
; File C:\Program Files (x86)\Microsoft Visual Studio\2019\Professional\VC\Tools\MSVC\14.29.30133\include\vector

; 1544 :         return _My_data._Myfirst == _My_data._Mylast;

  00004	8b 0d 14 00 00
	00		 mov	 ecx, DWORD PTR ?ms_kPool@CGraphicImageInstance@@2V?$CDynamicPool@VCGraphicImageInstance@@@@A+20
  0000a	39 0d 10 00 00
	00		 cmp	 DWORD PTR ?ms_kPool@CGraphicImageInstance@@2V?$CDynamicPool@VCGraphicImageInstance@@@@A+16, ecx
; File C:\Users\murat\Desktop\Siveps2-1-99-Project\source\client\Client\EterLib\Pool.h

; 63   : 			if (m_kVct_pkFree.empty())

  00010	75 61		 jne	 SHORT $LN4@New

; 65   : 				T* pkNewData=new T;

  00012	56		 push	 esi
  00013	6a 20		 push	 32			; 00000020H
  00015	e8 00 00 00 00	 call	 ??2@YAPAXI@Z		; operator new
  0001a	83 c4 04	 add	 esp, 4
  0001d	89 45 fc	 mov	 DWORD PTR $T1[ebp], eax
  00020	85 c0		 test	 eax, eax
  00022	74 0b		 je	 SHORT $LN6@New
  00024	8b c8		 mov	 ecx, eax
  00026	e8 00 00 00 00	 call	 ??0CGraphicImageInstance@@QAE@XZ ; CGraphicImageInstance::CGraphicImageInstance
  0002b	8b f0		 mov	 esi, eax
  0002d	eb 02		 jmp	 SHORT $LN7@New
$LN6@New:
  0002f	33 f6		 xor	 esi, esi
$LN7@New:
; File C:\Program Files (x86)\Microsoft Visual Studio\2019\Professional\VC\Tools\MSVC\14.29.30133\include\vector

; 743  :         if (_Mylast != _My_data._Myend) {

  00031	a1 08 00 00 00	 mov	 eax, DWORD PTR ?ms_kPool@CGraphicImageInstance@@2V?$CDynamicPool@VCGraphicImageInstance@@@@A+8
; File C:\Users\murat\Desktop\Siveps2-1-99-Project\source\client\Client\EterLib\Pool.h

; 65   : 				T* pkNewData=new T;

  00036	89 75 fc	 mov	 DWORD PTR _pkNewData$2[ebp], esi
; File C:\Program Files (x86)\Microsoft Visual Studio\2019\Professional\VC\Tools\MSVC\14.29.30133\include\vector

; 743  :         if (_Mylast != _My_data._Myend) {

  00039	3b 05 0c 00 00
	00		 cmp	 eax, DWORD PTR ?ms_kPool@CGraphicImageInstance@@2V?$CDynamicPool@VCGraphicImageInstance@@@@A+12
  0003f	74 16		 je	 SHORT $LN14@New

; 726  :         _Alty_traits::construct(_Getal(), _Unfancy(_Mylast), _STD forward<_Valty>(_Val)...);

  00041	89 30		 mov	 DWORD PTR [eax], esi
; File C:\Users\murat\Desktop\Siveps2-1-99-Project\source\client\Client\EterLib\GrpImageInstance.cpp

; 165  : 	return ms_kPool.Alloc();

  00043	8b c6		 mov	 eax, esi
; File C:\Program Files (x86)\Microsoft Visual Studio\2019\Professional\VC\Tools\MSVC\14.29.30133\include\vector

; 729  :         ++_Mylast;

  00045	83 05 08 00 00
	00 04		 add	 DWORD PTR ?ms_kPool@CGraphicImageInstance@@2V?$CDynamicPool@VCGraphicImageInstance@@@@A+8, 4
; File C:\Users\murat\Desktop\Siveps2-1-99-Project\source\client\Client\EterLib\Pool.h

; 67   : 				++m_uUsedCapacity;

  0004c	ff 05 20 00 00
	00		 inc	 DWORD PTR ?ms_kPool@CGraphicImageInstance@@2V?$CDynamicPool@VCGraphicImageInstance@@@@A+32
; File C:\Users\murat\Desktop\Siveps2-1-99-Project\source\client\Client\EterLib\GrpImageInstance.cpp

; 165  : 	return ms_kPool.Alloc();

  00052	5e		 pop	 esi

; 166  : }

  00053	8b e5		 mov	 esp, ebp
  00055	5d		 pop	 ebp
  00056	c3		 ret	 0
$LN14@New:
; File C:\Program Files (x86)\Microsoft Visual Studio\2019\Professional\VC\Tools\MSVC\14.29.30133\include\vector

; 747  :         _Ty& _Result = *_Emplace_reallocate(_Mylast, _STD forward<_Valty>(_Val)...);

  00057	8d 4d fc	 lea	 ecx, DWORD PTR _pkNewData$2[ebp]
  0005a	51		 push	 ecx
  0005b	50		 push	 eax
  0005c	b9 04 00 00 00	 mov	 ecx, OFFSET ?ms_kPool@CGraphicImageInstance@@2V?$CDynamicPool@VCGraphicImageInstance@@@@A+4
  00061	e8 00 00 00 00	 call	 ??$_Emplace_reallocate@ABQAVCGraphicImageInstance@@@?$vector@PAVCGraphicImageInstance@@V?$allocator@PAVCGraphicImageInstance@@@std@@@std@@QAEPAPAVCGraphicImageInstance@@QAPAV2@ABQAV2@@Z ; std::vector<CGraphicImageInstance *,std::allocator<CGraphicImageInstance *> >::_Emplace_reallocate<CGraphicImageInstance * const &>
; File C:\Users\murat\Desktop\Siveps2-1-99-Project\source\client\Client\EterLib\Pool.h

; 67   : 				++m_uUsedCapacity;

  00066	ff 05 20 00 00
	00		 inc	 DWORD PTR ?ms_kPool@CGraphicImageInstance@@2V?$CDynamicPool@VCGraphicImageInstance@@@@A+32
; File C:\Users\murat\Desktop\Siveps2-1-99-Project\source\client\Client\EterLib\GrpImageInstance.cpp

; 165  : 	return ms_kPool.Alloc();

  0006c	8b c6		 mov	 eax, esi
  0006e	5e		 pop	 esi

; 166  : }

  0006f	8b e5		 mov	 esp, ebp
  00071	5d		 pop	 ebp
  00072	c3		 ret	 0
$LN4@New:
; File C:\Users\murat\Desktop\Siveps2-1-99-Project\source\client\Client\EterLib\Pool.h

; 71   : 			T* pkFreeData=m_kVct_pkFree.back();

  00073	8b 41 fc	 mov	 eax, DWORD PTR [ecx-4]
; File C:\Program Files (x86)\Microsoft Visual Studio\2019\Professional\VC\Tools\MSVC\14.29.30133\include\vector

; 1624 :         return _My_data._Mylast[-1];

  00076	83 c1 fc	 add	 ecx, -4			; fffffffcH

; 1403 :         --_Mylast;

  00079	89 0d 14 00 00
	00		 mov	 DWORD PTR ?ms_kPool@CGraphicImageInstance@@2V?$CDynamicPool@VCGraphicImageInstance@@@@A+20, ecx
; File C:\Users\murat\Desktop\Siveps2-1-99-Project\source\client\Client\EterLib\GrpImageInstance.cpp

; 166  : }

  0007f	8b e5		 mov	 esp, ebp
  00081	5d		 pop	 ebp
  00082	c3		 ret	 0
?New@CGraphicImageInstance@@SAPAV1@XZ ENDP		; CGraphicImageInstance::New
_TEXT	ENDS
; Function compile flags: /Ogtp
; File C:\Users\murat\Desktop\Siveps2-1-99-Project\source\client\Client\EterLib\GrpImageInstance.cpp
; File C:\Program Files (x86)\Microsoft Visual Studio\2019\Professional\VC\Tools\MSVC\14.29.30133\include\algorithm
; File C:\Users\murat\Desktop\Siveps2-1-99-Project\source\client\Client\EterLib\GrpImageInstance.cpp
; File C:\Program Files (x86)\Microsoft Visual Studio\2019\Professional\VC\Tools\MSVC\14.29.30133\include\algorithm
; File C:\Users\murat\Desktop\Siveps2-1-99-Project\source\client\Client\EterLib\Pool.h
; File C:\Program Files (x86)\Microsoft Visual Studio\2019\Professional\VC\Tools\MSVC\14.29.30133\include\algorithm
; File C:\Users\murat\Desktop\Siveps2-1-99-Project\source\client\Client\EterLib\Pool.h
; File C:\Users\murat\Desktop\Siveps2-1-99-Project\source\client\Client\EterLib\GrpImageInstance.cpp
; File C:\Users\murat\Desktop\Siveps2-1-99-Project\source\client\Client\EterLib\Pool.h
; File C:\Users\murat\Desktop\Siveps2-1-99-Project\source\client\Client\EterLib\GrpImageInstance.cpp
;	COMDAT ?DestroySystem@CGraphicImageInstance@@SAXXZ
_TEXT	SEGMENT
?DestroySystem@CGraphicImageInstance@@SAXXZ PROC	; CGraphicImageInstance::DestroySystem, COMDAT

; 159  : {

  00000	56		 push	 esi
; File C:\Program Files (x86)\Microsoft Visual Studio\2019\Professional\VC\Tools\MSVC\14.29.30133\include\algorithm

; 270  :     for (; _UFirst != _ULast; ++_UFirst) {

  00001	8b 35 04 00 00
	00		 mov	 esi, DWORD PTR ?ms_kPool@CGraphicImageInstance@@2V?$CDynamicPool@VCGraphicImageInstance@@@@A+4
; File C:\Users\murat\Desktop\Siveps2-1-99-Project\source\client\Client\EterLib\GrpImageInstance.cpp

; 159  : {

  00007	57		 push	 edi
; File C:\Program Files (x86)\Microsoft Visual Studio\2019\Professional\VC\Tools\MSVC\14.29.30133\include\algorithm

; 269  :     const auto _ULast = _Get_unwrapped(_Last);

  00008	8b 3d 08 00 00
	00		 mov	 edi, DWORD PTR ?ms_kPool@CGraphicImageInstance@@2V?$CDynamicPool@VCGraphicImageInstance@@@@A+8

; 270  :     for (; _UFirst != _ULast; ++_UFirst) {

  0000e	3b f7		 cmp	 esi, edi
  00010	74 2a		 je	 SHORT $LN30@DestroySys
$LL20@DestroySys:
; File C:\Users\murat\Desktop\Siveps2-1-99-Project\source\client\Client\EterLib\Pool.h

; 110  : 			delete pkData;

  00012	8b 0e		 mov	 ecx, DWORD PTR [esi]
  00014	85 c9		 test	 ecx, ecx
  00016	74 06		 je	 SHORT $LN18@DestroySys
  00018	8b 01		 mov	 eax, DWORD PTR [ecx]
  0001a	6a 01		 push	 1
  0001c	ff 10		 call	 DWORD PTR [eax]
$LN18@DestroySys:
; File C:\Program Files (x86)\Microsoft Visual Studio\2019\Professional\VC\Tools\MSVC\14.29.30133\include\algorithm

; 270  :     for (; _UFirst != _ULast; ++_UFirst) {

  0001e	83 c6 04	 add	 esi, 4
  00021	3b f7		 cmp	 esi, edi
  00023	75 ed		 jne	 SHORT $LL20@DestroySys
; File C:\Users\murat\Desktop\Siveps2-1-99-Project\source\client\Client\EterLib\Pool.h

; 51   : 			m_kVct_pkData.clear();

  00025	a1 04 00 00 00	 mov	 eax, DWORD PTR ?ms_kPool@CGraphicImageInstance@@2V?$CDynamicPool@VCGraphicImageInstance@@@@A+4
  0002a	a3 08 00 00 00	 mov	 DWORD PTR ?ms_kPool@CGraphicImageInstance@@2V?$CDynamicPool@VCGraphicImageInstance@@@@A+8, eax
; File C:\Users\murat\Desktop\Siveps2-1-99-Project\source\client\Client\EterLib\GrpImageInstance.cpp

; 161  : }

  0002f	a1 10 00 00 00	 mov	 eax, DWORD PTR ?ms_kPool@CGraphicImageInstance@@2V?$CDynamicPool@VCGraphicImageInstance@@@@A+16
  00034	5f		 pop	 edi
  00035	a3 14 00 00 00	 mov	 DWORD PTR ?ms_kPool@CGraphicImageInstance@@2V?$CDynamicPool@VCGraphicImageInstance@@@@A+20, eax
  0003a	5e		 pop	 esi
  0003b	c3		 ret	 0
$LN30@DestroySys:
  0003c	a1 10 00 00 00	 mov	 eax, DWORD PTR ?ms_kPool@CGraphicImageInstance@@2V?$CDynamicPool@VCGraphicImageInstance@@@@A+16
  00041	5f		 pop	 edi
; File C:\Users\murat\Desktop\Siveps2-1-99-Project\source\client\Client\EterLib\Pool.h

; 51   : 			m_kVct_pkData.clear();

  00042	89 35 08 00 00
	00		 mov	 DWORD PTR ?ms_kPool@CGraphicImageInstance@@2V?$CDynamicPool@VCGraphicImageInstance@@@@A+8, esi
; File C:\Users\murat\Desktop\Siveps2-1-99-Project\source\client\Client\EterLib\GrpImageInstance.cpp

; 161  : }

  00048	a3 14 00 00 00	 mov	 DWORD PTR ?ms_kPool@CGraphicImageInstance@@2V?$CDynamicPool@VCGraphicImageInstance@@@@A+20, eax
  0004d	5e		 pop	 esi
  0004e	c3		 ret	 0
?DestroySystem@CGraphicImageInstance@@SAXXZ ENDP	; CGraphicImageInstance::DestroySystem
_TEXT	ENDS
; Function compile flags: /Ogtp
; File C:\Users\murat\Desktop\Siveps2-1-99-Project\source\client\Client\EterLib\GrpImageInstance.cpp
; File C:\Program Files (x86)\Microsoft Visual Studio\2019\Professional\VC\Tools\MSVC\14.29.30133\include\vector
; File C:\Users\murat\Desktop\Siveps2-1-99-Project\source\client\Client\EterLib\GrpImageInstance.cpp
; File C:\Users\murat\Desktop\Siveps2-1-99-Project\source\client\Client\EterLib\Pool.h
; File C:\Program Files (x86)\Microsoft Visual Studio\2019\Professional\VC\Tools\MSVC\14.29.30133\include\vector
; File C:\Users\murat\Desktop\Siveps2-1-99-Project\source\client\Client\EterLib\Pool.h
; File C:\Program Files (x86)\Microsoft Visual Studio\2019\Professional\VC\Tools\MSVC\14.29.30133\include\vector
; File C:\Users\murat\Desktop\Siveps2-1-99-Project\source\client\Client\EterLib\GrpImageInstance.cpp
; File C:\Program Files (x86)\Microsoft Visual Studio\2019\Professional\VC\Tools\MSVC\14.29.30133\include\vector
; File C:\Users\murat\Desktop\Siveps2-1-99-Project\source\client\Client\EterLib\GrpImageInstance.cpp
;	COMDAT ?CreateSystem@CGraphicImageInstance@@SAXI@Z
_TEXT	SEGMENT
_uCapacity$ = 8						; size = 4
?CreateSystem@CGraphicImageInstance@@SAXI@Z PROC	; CGraphicImageInstance::CreateSystem, COMDAT

; 14   : {

  00000	55		 push	 ebp
  00001	8b ec		 mov	 ebp, esp
; File C:\Program Files (x86)\Microsoft Visual Studio\2019\Professional\VC\Tools\MSVC\14.29.30133\include\vector

; 1559 :         return static_cast<size_type>(_My_data._Myend - _My_data._Myfirst);

  00003	a1 0c 00 00 00	 mov	 eax, DWORD PTR ?ms_kPool@CGraphicImageInstance@@2V?$CDynamicPool@VCGraphicImageInstance@@@@A+12
  00008	2b 05 04 00 00
	00		 sub	 eax, DWORD PTR ?ms_kPool@CGraphicImageInstance@@2V?$CDynamicPool@VCGraphicImageInstance@@@@A+4
; File C:\Users\murat\Desktop\Siveps2-1-99-Project\source\client\Client\EterLib\GrpImageInstance.cpp

; 14   : {

  0000e	56		 push	 esi
; File C:\Users\murat\Desktop\Siveps2-1-99-Project\source\client\Client\EterLib\Pool.h

; 57   : 			m_uInitCapacity=uCapacity;

  0000f	8b 75 08	 mov	 esi, DWORD PTR _uCapacity$[ebp]
; File C:\Program Files (x86)\Microsoft Visual Studio\2019\Professional\VC\Tools\MSVC\14.29.30133\include\vector

; 1559 :         return static_cast<size_type>(_My_data._Myend - _My_data._Myfirst);

  00012	c1 f8 02	 sar	 eax, 2
; File C:\Users\murat\Desktop\Siveps2-1-99-Project\source\client\Client\EterLib\Pool.h

; 57   : 			m_uInitCapacity=uCapacity;

  00015	89 35 1c 00 00
	00		 mov	 DWORD PTR ?ms_kPool@CGraphicImageInstance@@2V?$CDynamicPool@VCGraphicImageInstance@@@@A+28, esi
; File C:\Program Files (x86)\Microsoft Visual Studio\2019\Professional\VC\Tools\MSVC\14.29.30133\include\vector

; 1371 :         if (_Newcapacity > capacity()) { // something to do (reserve() never shrinks)

  0001b	3b f0		 cmp	 esi, eax
  0001d	76 13		 jbe	 SHORT $LN6@CreateSyst

; 1372 :             if (_Newcapacity > max_size()) {

  0001f	81 fe ff ff ff
	3f		 cmp	 esi, 1073741823		; 3fffffffH
  00025	77 33		 ja	 SHORT $LN19@CreateSyst

; 1374 :             }
; 1375 : 
; 1376 :             _Reallocate_exactly(_Newcapacity);

  00027	56		 push	 esi
  00028	b9 04 00 00 00	 mov	 ecx, OFFSET ?ms_kPool@CGraphicImageInstance@@2V?$CDynamicPool@VCGraphicImageInstance@@@@A+4
  0002d	e8 00 00 00 00	 call	 ?_Reallocate_exactly@?$vector@PAVCGraphicImageInstance@@V?$allocator@PAVCGraphicImageInstance@@@std@@@std@@AAEXI@Z ; std::vector<CGraphicImageInstance *,std::allocator<CGraphicImageInstance *> >::_Reallocate_exactly
$LN6@CreateSyst:

; 1559 :         return static_cast<size_type>(_My_data._Myend - _My_data._Myfirst);

  00032	a1 18 00 00 00	 mov	 eax, DWORD PTR ?ms_kPool@CGraphicImageInstance@@2V?$CDynamicPool@VCGraphicImageInstance@@@@A+24
  00037	2b 05 10 00 00
	00		 sub	 eax, DWORD PTR ?ms_kPool@CGraphicImageInstance@@2V?$CDynamicPool@VCGraphicImageInstance@@@@A+16
  0003d	c1 f8 02	 sar	 eax, 2

; 1371 :         if (_Newcapacity > capacity()) { // something to do (reserve() never shrinks)

  00040	3b f0		 cmp	 esi, eax
  00042	76 13		 jbe	 SHORT $LN13@CreateSyst

; 1372 :             if (_Newcapacity > max_size()) {

  00044	81 fe ff ff ff
	3f		 cmp	 esi, 1073741823		; 3fffffffH
  0004a	77 0e		 ja	 SHORT $LN19@CreateSyst

; 1374 :             }
; 1375 : 
; 1376 :             _Reallocate_exactly(_Newcapacity);

  0004c	56		 push	 esi
  0004d	b9 10 00 00 00	 mov	 ecx, OFFSET ?ms_kPool@CGraphicImageInstance@@2V?$CDynamicPool@VCGraphicImageInstance@@@@A+16
  00052	e8 00 00 00 00	 call	 ?_Reallocate_exactly@?$vector@PAVCGraphicImageInstance@@V?$allocator@PAVCGraphicImageInstance@@@std@@@std@@AAEXI@Z ; std::vector<CGraphicImageInstance *,std::allocator<CGraphicImageInstance *> >::_Reallocate_exactly
$LN13@CreateSyst:
  00057	5e		 pop	 esi
; File C:\Users\murat\Desktop\Siveps2-1-99-Project\source\client\Client\EterLib\GrpImageInstance.cpp

; 16   : }

  00058	5d		 pop	 ebp
  00059	c3		 ret	 0
$LN19@CreateSyst:
; File C:\Program Files (x86)\Microsoft Visual Studio\2019\Professional\VC\Tools\MSVC\14.29.30133\include\vector

; 1373 :                 _Xlength();

  0005a	e8 00 00 00 00	 call	 ?_Xlength@?$vector@PAVCGraphicImageInstance@@V?$allocator@PAVCGraphicImageInstance@@@std@@@std@@CAXXZ ; std::vector<CGraphicImageInstance *,std::allocator<CGraphicImageInstance *> >::_Xlength
$LN20@CreateSyst:
  0005f	cc		 int	 3
?CreateSystem@CGraphicImageInstance@@SAXI@Z ENDP	; CGraphicImageInstance::CreateSystem
_TEXT	ENDS
; Function compile flags: /Ogtp
; File C:\Users\murat\Desktop\Siveps2-1-99-Project\source\client\Client\EterLib\GrpImageInstance.cpp
;	COMDAT ?OnIsType@CGraphicImageInstance@@MAEHK@Z
_TEXT	SEGMENT
_dwType$ = 8						; size = 4
?OnIsType@CGraphicImageInstance@@MAEHK@Z PROC		; CGraphicImageInstance::OnIsType, COMDAT
; _this$ = ecx

; 331  : {

  00000	55		 push	 ebp
  00001	8b ec		 mov	 ebp, esp

; 332  : 	if (CGraphicImageInstance::Type() == dwType)

  00003	e8 00 00 00 00	 call	 ?Type@CGraphicImageInstance@@SAKXZ ; CGraphicImageInstance::Type
  00008	33 c9		 xor	 ecx, ecx
  0000a	3b 45 08	 cmp	 eax, DWORD PTR _dwType$[ebp]
  0000d	0f 94 c1	 sete	 cl
  00010	8b c1		 mov	 eax, ecx

; 333  : 		return TRUE;
; 334  : 
; 335  : 	return FALSE;
; 336  : }

  00012	5d		 pop	 ebp
  00013	c2 04 00	 ret	 4
?OnIsType@CGraphicImageInstance@@MAEHK@Z ENDP		; CGraphicImageInstance::OnIsType
_TEXT	ENDS
; Function compile flags: /Ogtp
; File C:\Users\murat\Desktop\Siveps2-1-99-Project\source\client\Client\EterLib\GrpImageInstance.cpp
;	COMDAT ?OnSetImagePointer@CGraphicImageInstance@@MAEXXZ
_TEXT	SEGMENT
?OnSetImagePointer@CGraphicImageInstance@@MAEXXZ PROC	; CGraphicImageInstance::OnSetImagePointer, COMDAT
; _this$ = ecx

; 340  : }

  00000	c2 00 00	 ret	 0
?OnSetImagePointer@CGraphicImageInstance@@MAEXXZ ENDP	; CGraphicImageInstance::OnSetImagePointer
_TEXT	ENDS
; Function compile flags: /Ogtp
; File C:\Users\murat\Desktop\Siveps2-1-99-Project\source\client\Client\EterLib\GrpImageInstance.cpp
; File C:\Users\murat\Desktop\Siveps2-1-99-Project\source\client\extern\include\d3dx8math.inl
; File C:\Users\murat\Desktop\Siveps2-1-99-Project\source\client\Client\EterLib\GrpImageInstance.cpp
; File C:\Users\murat\Desktop\Siveps2-1-99-Project\source\client\extern\include\d3dx8math.inl
; File C:\Users\murat\Desktop\Siveps2-1-99-Project\source\client\Client\EterLib\GrpImageInstance.cpp
; File C:\Users\murat\Desktop\Siveps2-1-99-Project\source\client\extern\include\d3dx8math.inl
; File C:\Users\murat\Desktop\Siveps2-1-99-Project\source\client\Client\EterLib\GrpImageInstance.cpp
; File C:\Users\murat\Desktop\Siveps2-1-99-Project\source\client\extern\include\d3dx8math.inl
; File C:\Users\murat\Desktop\Siveps2-1-99-Project\source\client\Client\EterLib\GrpImageInstance.cpp
; File C:\Users\murat\Desktop\Siveps2-1-99-Project\source\client\extern\include\d3dx8math.inl
; File C:\Users\murat\Desktop\Siveps2-1-99-Project\source\client\Client\EterLib\GrpImageInstance.cpp
; File C:\Users\murat\Desktop\Siveps2-1-99-Project\source\client\extern\include\d3dx8math.inl
; File C:\Users\murat\Desktop\Siveps2-1-99-Project\source\client\Client\EterLib\GrpImageInstance.cpp
; File C:\Users\murat\Desktop\Siveps2-1-99-Project\source\client\extern\include\d3dx8math.inl
; File C:\Users\murat\Desktop\Siveps2-1-99-Project\source\client\Client\EterLib\GrpImageInstance.cpp
; File C:\Users\murat\Desktop\Siveps2-1-99-Project\source\client\extern\include\d3dx8math.inl
; File C:\Users\murat\Desktop\Siveps2-1-99-Project\source\client\Client\EterLib\GrpImageInstance.cpp
; File C:\Users\murat\Desktop\Siveps2-1-99-Project\source\client\extern\include\d3dx8math.inl
; File C:\Users\murat\Desktop\Siveps2-1-99-Project\source\client\Client\EterLib\GrpImageInstance.cpp
; File C:\Users\murat\Desktop\Siveps2-1-99-Project\source\client\extern\include\d3dx8math.inl
; File C:\Users\murat\Desktop\Siveps2-1-99-Project\source\client\Client\EterLib\GrpImageInstance.cpp
; File C:\Users\murat\Desktop\Siveps2-1-99-Project\source\client\extern\include\d3dx8math.inl
; File C:\Users\murat\Desktop\Siveps2-1-99-Project\source\client\Client\EterLib\GrpImageInstance.cpp
; File C:\Users\murat\Desktop\Siveps2-1-99-Project\source\client\extern\include\d3dx8math.inl
; File C:\Users\murat\Desktop\Siveps2-1-99-Project\source\client\Client\EterLib\GrpImageInstance.cpp
; File C:\Users\murat\Desktop\Siveps2-1-99-Project\source\client\extern\include\d3dx8math.inl
; File C:\Users\murat\Desktop\Siveps2-1-99-Project\source\client\Client\EterLib\GrpImageInstance.cpp
; File C:\Users\murat\Desktop\Siveps2-1-99-Project\source\client\extern\include\d3dx8math.inl
; File C:\Users\murat\Desktop\Siveps2-1-99-Project\source\client\Client\EterLib\GrpImageInstance.cpp
; File C:\Users\murat\Desktop\Siveps2-1-99-Project\source\client\extern\include\d3dx8math.inl
; File C:\Users\murat\Desktop\Siveps2-1-99-Project\source\client\Client\EterLib\GrpImageInstance.cpp
; File C:\Users\murat\Desktop\Siveps2-1-99-Project\source\client\extern\include\d3dx8math.inl
; File C:\Users\murat\Desktop\Siveps2-1-99-Project\source\client\Client\EterLib\GrpImageInstance.cpp
;	COMDAT ?OnRender@CGraphicImageInstance@@MAEXXZ
_TEXT	SEGMENT
_pTexture$1$ = -144					; size = 4
_su$1$ = -140						; size = 4
tv1059 = -136						; size = 4
_sv$1$ = -132						; size = 4
tv1043 = -128						; size = 4
_this$GSCopy$1$ = -124					; size = 4
_eu$1$ = -120						; size = 4
_fimgHeight$1$ = -116					; size = 4
tv1082 = -116						; size = 4
_fimgWidth$1$ = -112					; size = 4
tv1081 = -112						; size = 4
_ev$1$ = -108						; size = 4
_texReverseWidth$1$ = -108				; size = 4
_dwR$1$ = -104						; size = 4
_dwR$1$ = -104						; size = 4
_dwR$1$ = -104						; size = 4
_vertices$ = -100					; size = 96
__$ArrayPad$ = -4					; size = 4
?OnRender@CGraphicImageInstance@@MAEXXZ PROC		; CGraphicImageInstance::OnRender, COMDAT
; _this$ = ecx

; 185  : {

  00000	55		 push	 ebp
  00001	8b ec		 mov	 ebp, esp
  00003	81 ec 90 00 00
	00		 sub	 esp, 144		; 00000090H
  00009	a1 00 00 00 00	 mov	 eax, DWORD PTR ___security_cookie
  0000e	33 c5		 xor	 eax, ebp
  00010	89 45 fc	 mov	 DWORD PTR __$ArrayPad$[ebp], eax
  00013	53		 push	 ebx
  00014	56		 push	 esi
  00015	57		 push	 edi
  00016	8b f9		 mov	 edi, ecx
  00018	89 7d 84	 mov	 DWORD PTR _this$GSCopy$1$[ebp], edi

; 186  : 	CGraphicImage * pImage = m_roImage.GetPointer();

  0001b	8b 77 1c	 mov	 esi, DWORD PTR [edi+28]

; 187  : 	CGraphicTexture * pTexture = pImage->GetTexturePointer();

  0001e	8b ce		 mov	 ecx, esi
  00020	e8 00 00 00 00	 call	 ?GetTexturePointer@CGraphicImage@@QAEPAVCGraphicTexture@@XZ ; CGraphicImage::GetTexturePointer
  00025	8b d8		 mov	 ebx, eax

; 188  : 
; 189  : 	float fimgWidth = pImage->GetWidth();

  00027	8b ce		 mov	 ecx, esi
  00029	89 9d 70 ff ff
	ff		 mov	 DWORD PTR _pTexture$1$[ebp], ebx
  0002f	e8 00 00 00 00	 call	 ?GetWidth@CGraphicImage@@QBEHXZ ; CGraphicImage::GetWidth

; 190  : 	float fimgHeight = pImage->GetHeight();

  00034	8b ce		 mov	 ecx, esi
  00036	66 0f 6e c0	 movd	 xmm0, eax
  0003a	0f 5b c0	 cvtdq2ps xmm0, xmm0
  0003d	f3 0f 11 45 90	 movss	 DWORD PTR _fimgWidth$1$[ebp], xmm0
  00042	e8 00 00 00 00	 call	 ?GetHeight@CGraphicImage@@QBEHXZ ; CGraphicImage::GetHeight

; 191  : 
; 192  : 	const RECT& c_rRect = pImage->GetRectReference();

  00047	8b ce		 mov	 ecx, esi
  00049	66 0f 6e c0	 movd	 xmm0, eax
  0004d	0f 5b c0	 cvtdq2ps xmm0, xmm0
  00050	f3 0f 11 45 8c	 movss	 DWORD PTR _fimgHeight$1$[ebp], xmm0
  00055	e8 00 00 00 00	 call	 ?GetRectReference@CGraphicImage@@QBEABUtagRECT@@XZ ; CGraphicImage::GetRectReference

; 193  : 	float texReverseWidth = 1.0f / float(pTexture->GetWidth());

  0005a	8b cb		 mov	 ecx, ebx
  0005c	8b f0		 mov	 esi, eax
  0005e	e8 00 00 00 00	 call	 ?GetWidth@CGraphicTexture@@QBEHXZ ; CGraphicTexture::GetWidth
  00063	f3 0f 10 0d 00
	00 00 00	 movss	 xmm1, DWORD PTR __real@3f800000

; 194  : 	float texReverseHeight = 1.0f / float(pTexture->GetHeight());

  0006b	8b cb		 mov	 ecx, ebx
  0006d	66 0f 6e c0	 movd	 xmm0, eax
  00071	0f 5b c0	 cvtdq2ps xmm0, xmm0
  00074	f3 0f 5e c8	 divss	 xmm1, xmm0
  00078	f3 0f 11 4d 94	 movss	 DWORD PTR _texReverseWidth$1$[ebp], xmm1
  0007d	e8 00 00 00 00	 call	 ?GetHeight@CGraphicTexture@@QBEHXZ ; CGraphicTexture::GetHeight
  00082	f3 0f 10 0d 00
	00 00 00	 movss	 xmm1, DWORD PTR __real@3f800000
  0008a	66 0f 6e 26	 movd	 xmm4, DWORD PTR [esi]
  0008e	66 0f 6e 6e 08	 movd	 xmm5, DWORD PTR [esi+8]
  00093	66 0f 6e c0	 movd	 xmm0, eax
  00097	0f 5b c0	 cvtdq2ps xmm0, xmm0
  0009a	66 0f 6e 5e 04	 movd	 xmm3, DWORD PTR [esi+4]
  0009f	f3 0f 5e c8	 divss	 xmm1, xmm0
  000a3	66 0f 6e 46 0c	 movd	 xmm0, DWORD PTR [esi+12]

; 198  : 	float ev = (c_rRect.top + (c_rRect.bottom-c_rRect.top)) * texReverseHeight;

  000a8	0f 5b c0	 cvtdq2ps xmm0, xmm0

; 204  : 	vertices[0].position.z	= 0.0f;

  000ab	c7 45 a4 00 00
	00 00		 mov	 DWORD PTR _vertices$[ebp+8], 0
; File C:\Users\murat\Desktop\Siveps2-1-99-Project\source\client\extern\include\d3dx8math.inl

; 931  :     DWORD dwR = r >= 1.0f ? 0xff : r <= 0.0f ? 0x00 : (DWORD) (r * 255.0f + 0.5f);

  000b2	f3 0f 10 15 00
	00 00 00	 movss	 xmm2, DWORD PTR __real@437f0000
; File C:\Users\murat\Desktop\Siveps2-1-99-Project\source\client\Client\EterLib\GrpImageInstance.cpp

; 198  : 	float ev = (c_rRect.top + (c_rRect.bottom-c_rRect.top)) * texReverseHeight;

  000ba	f3 0f 59 c1	 mulss	 xmm0, xmm1
  000be	0f 5b e4	 cvtdq2ps xmm4, xmm4
  000c1	0f 5b db	 cvtdq2ps xmm3, xmm3
  000c4	f3 0f 59 65 94	 mulss	 xmm4, DWORD PTR _texReverseWidth$1$[ebp]
  000c9	0f 5b ed	 cvtdq2ps xmm5, xmm5
  000cc	f3 0f 59 d9	 mulss	 xmm3, xmm1
  000d0	f3 0f 59 6d 94	 mulss	 xmm5, DWORD PTR _texReverseWidth$1$[ebp]

; 202  : 	vertices[0].position.x	= m_v2Position.x-0.5f;

  000d5	f3 0f 10 0d 00
	00 00 00	 movss	 xmm1, DWORD PTR __real@3f000000
  000dd	f3 0f 11 45 94	 movss	 DWORD PTR _ev$1$[ebp], xmm0
  000e2	f3 0f 10 47 14	 movss	 xmm0, DWORD PTR [edi+20]
  000e7	f3 0f 5c c1	 subss	 xmm0, xmm1
  000eb	f3 0f 11 9d 7c
	ff ff ff	 movss	 DWORD PTR _sv$1$[ebp], xmm3

; 205  : 	vertices[0].texCoord	= TTextureCoordinate(su, sv);

  000f3	f3 0f 11 5d b0	 movss	 DWORD PTR _vertices$[ebp+20], xmm3
; File C:\Users\murat\Desktop\Siveps2-1-99-Project\source\client\extern\include\d3dx8math.inl

; 931  :     DWORD dwR = r >= 1.0f ? 0xff : r <= 0.0f ? 0x00 : (DWORD) (r * 255.0f + 0.5f);

  000f8	f3 0f 10 5f 04	 movss	 xmm3, DWORD PTR [edi+4]
  000fd	0f 2f 1d 00 00
	00 00		 comiss	 xmm3, DWORD PTR __real@3f800000
; File C:\Users\murat\Desktop\Siveps2-1-99-Project\source\client\Client\EterLib\GrpImageInstance.cpp

; 202  : 	vertices[0].position.x	= m_v2Position.x-0.5f;

  00104	f3 0f 11 85 78
	ff ff ff	 movss	 DWORD PTR tv1059[ebp], xmm0
  0010c	f3 0f 11 45 9c	 movss	 DWORD PTR _vertices$[ebp], xmm0

; 203  : 	vertices[0].position.y	= m_v2Position.y-0.5f;

  00111	f3 0f 10 47 18	 movss	 xmm0, DWORD PTR [edi+24]
  00116	f3 0f 5c c1	 subss	 xmm0, xmm1
  0011a	f3 0f 11 a5 74
	ff ff ff	 movss	 DWORD PTR _su$1$[ebp], xmm4
  00122	f3 0f 11 6d 88	 movss	 DWORD PTR _eu$1$[ebp], xmm5

; 205  : 	vertices[0].texCoord	= TTextureCoordinate(su, sv);

  00127	f3 0f 11 65 ac	 movss	 DWORD PTR _vertices$[ebp+16], xmm4
  0012c	f3 0f 11 45 80	 movss	 DWORD PTR tv1043[ebp], xmm0
  00131	f3 0f 11 45 a0	 movss	 DWORD PTR _vertices$[ebp+4], xmm0
; File C:\Users\murat\Desktop\Siveps2-1-99-Project\source\client\extern\include\d3dx8math.inl

; 931  :     DWORD dwR = r >= 1.0f ? 0xff : r <= 0.0f ? 0x00 : (DWORD) (r * 255.0f + 0.5f);

  00136	0f 57 c0	 xorps	 xmm0, xmm0
  00139	72 09		 jb	 SHORT $LN14@OnRender
  0013b	c7 45 98 ff 00
	00 00		 mov	 DWORD PTR _dwR$1$[ebp], 255 ; 000000ffH
  00142	eb 34		 jmp	 SHORT $LN13@OnRender
$LN14@OnRender:
  00144	0f 2f c3	 comiss	 xmm0, xmm3
  00147	72 09		 jb	 SHORT $LN12@OnRender
  00149	c7 45 98 00 00
	00 00		 mov	 DWORD PTR _dwR$1$[ebp], 0
  00150	eb 26		 jmp	 SHORT $LN13@OnRender
$LN12@OnRender:
  00152	0f 28 c3	 movaps	 xmm0, xmm3
  00155	f3 0f 59 c2	 mulss	 xmm0, xmm2
  00159	f3 0f 58 c1	 addss	 xmm0, xmm1
  0015d	e8 00 00 00 00	 call	 __ftoui3
  00162	f3 0f 10 0d 00
	00 00 00	 movss	 xmm1, DWORD PTR __real@3f000000
  0016a	0f 57 c0	 xorps	 xmm0, xmm0
  0016d	f3 0f 10 15 00
	00 00 00	 movss	 xmm2, DWORD PTR __real@437f0000
  00175	89 45 98	 mov	 DWORD PTR _dwR$1$[ebp], eax
$LN13@OnRender:

; 932  :     DWORD dwG = g >= 1.0f ? 0xff : g <= 0.0f ? 0x00 : (DWORD) (g * 255.0f + 0.5f);

  00178	f3 0f 10 67 08	 movss	 xmm4, DWORD PTR [edi+8]
  0017d	0f 2f 25 00 00
	00 00		 comiss	 xmm4, DWORD PTR __real@3f800000
  00184	72 07		 jb	 SHORT $LN18@OnRender
  00186	bb ff 00 00 00	 mov	 ebx, 255		; 000000ffH
  0018b	eb 1b		 jmp	 SHORT $LN17@OnRender
$LN18@OnRender:
  0018d	0f 2f c4	 comiss	 xmm0, xmm4
  00190	72 04		 jb	 SHORT $LN16@OnRender
  00192	33 db		 xor	 ebx, ebx
  00194	eb 12		 jmp	 SHORT $LN17@OnRender
$LN16@OnRender:
  00196	0f 28 c4	 movaps	 xmm0, xmm4
  00199	f3 0f 59 c2	 mulss	 xmm0, xmm2
  0019d	f3 0f 58 c1	 addss	 xmm0, xmm1
  001a1	e8 00 00 00 00	 call	 __ftoui3
  001a6	8b d8		 mov	 ebx, eax
$LN17@OnRender:

; 933  :     DWORD dwB = b >= 1.0f ? 0xff : b <= 0.0f ? 0x00 : (DWORD) (b * 255.0f + 0.5f);

  001a8	f3 0f 10 4f 0c	 movss	 xmm1, DWORD PTR [edi+12]
  001ad	0f 57 c0	 xorps	 xmm0, xmm0
  001b0	0f 2f 0d 00 00
	00 00		 comiss	 xmm1, DWORD PTR __real@3f800000
  001b7	72 07		 jb	 SHORT $LN22@OnRender
  001b9	be ff 00 00 00	 mov	 esi, 255		; 000000ffH
  001be	eb 26		 jmp	 SHORT $LN21@OnRender
$LN22@OnRender:
  001c0	0f 2f c1	 comiss	 xmm0, xmm1
  001c3	72 04		 jb	 SHORT $LN20@OnRender
  001c5	33 f6		 xor	 esi, esi
  001c7	eb 1d		 jmp	 SHORT $LN21@OnRender
$LN20@OnRender:
  001c9	0f 28 c1	 movaps	 xmm0, xmm1
  001cc	f3 0f 59 05 00
	00 00 00	 mulss	 xmm0, DWORD PTR __real@437f0000
  001d4	f3 0f 58 05 00
	00 00 00	 addss	 xmm0, DWORD PTR __real@3f000000
  001dc	e8 00 00 00 00	 call	 __ftoui3
  001e1	8b f0		 mov	 esi, eax
  001e3	0f 57 c0	 xorps	 xmm0, xmm0
$LN21@OnRender:

; 934  :     DWORD dwA = a >= 1.0f ? 0xff : a <= 0.0f ? 0x00 : (DWORD) (a * 255.0f + 0.5f);

  001e6	f3 0f 10 57 10	 movss	 xmm2, DWORD PTR [edi+16]
  001eb	f3 0f 10 0d 00
	00 00 00	 movss	 xmm1, DWORD PTR __real@3f800000
  001f3	0f 2f d1	 comiss	 xmm2, xmm1
  001f6	72 07		 jb	 SHORT $LN26@OnRender
  001f8	b8 ff 00 00 00	 mov	 eax, 255		; 000000ffH
  001fd	eb 29		 jmp	 SHORT $LN25@OnRender
$LN26@OnRender:
  001ff	0f 2f c2	 comiss	 xmm0, xmm2
  00202	72 04		 jb	 SHORT $LN24@OnRender
  00204	33 c0		 xor	 eax, eax
  00206	eb 20		 jmp	 SHORT $LN25@OnRender
$LN24@OnRender:
  00208	0f 28 c2	 movaps	 xmm0, xmm2
  0020b	f3 0f 59 05 00
	00 00 00	 mulss	 xmm0, DWORD PTR __real@437f0000
  00213	f3 0f 58 05 00
	00 00 00	 addss	 xmm0, DWORD PTR __real@3f000000
  0021b	e8 00 00 00 00	 call	 __ftoui3
  00220	f3 0f 10 0d 00
	00 00 00	 movss	 xmm1, DWORD PTR __real@3f800000
$LN25@OnRender:
; File C:\Users\murat\Desktop\Siveps2-1-99-Project\source\client\Client\EterLib\GrpImageInstance.cpp

; 208  : 	vertices[1].position.x	= m_v2Position.x + fimgWidth-0.5f;

  00228	f3 0f 10 57 14	 movss	 xmm2, DWORD PTR [edi+20]
  0022d	f3 0f 58 55 90	 addss	 xmm2, DWORD PTR _fimgWidth$1$[ebp]
  00232	f3 0f 10 05 00
	00 00 00	 movss	 xmm0, DWORD PTR __real@3f000000
; File C:\Users\murat\Desktop\Siveps2-1-99-Project\source\client\extern\include\d3dx8math.inl

; 936  :     return (dwA << 24) | (dwR << 16) | (dwG << 8) | dwB;

  0023a	c1 e0 08	 shl	 eax, 8
  0023d	0b 45 98	 or	 eax, DWORD PTR _dwR$1$[ebp]
  00240	c1 e0 08	 shl	 eax, 8
; File C:\Users\murat\Desktop\Siveps2-1-99-Project\source\client\Client\EterLib\GrpImageInstance.cpp

; 208  : 	vertices[1].position.x	= m_v2Position.x + fimgWidth-0.5f;

  00243	f3 0f 5c d0	 subss	 xmm2, xmm0

; 210  : 	vertices[1].position.z	= 0.0f;

  00247	c7 45 bc 00 00
	00 00		 mov	 DWORD PTR _vertices$[ebp+32], 0
; File C:\Users\murat\Desktop\Siveps2-1-99-Project\source\client\extern\include\d3dx8math.inl

; 936  :     return (dwA << 24) | (dwR << 16) | (dwG << 8) | dwB;

  0024e	0b c3		 or	 eax, ebx
  00250	c1 e0 08	 shl	 eax, 8
  00253	0b c6		 or	 eax, esi
; File C:\Users\murat\Desktop\Siveps2-1-99-Project\source\client\Client\EterLib\GrpImageInstance.cpp

; 206  : 	vertices[0].diffuse		= m_DiffuseColor;

  00255	89 45 a8	 mov	 DWORD PTR _vertices$[ebp+12], eax

; 208  : 	vertices[1].position.x	= m_v2Position.x + fimgWidth-0.5f;

  00258	f3 0f 11 55 90	 movss	 DWORD PTR tv1081[ebp], xmm2
  0025d	f3 0f 11 55 b4	 movss	 DWORD PTR _vertices$[ebp+24], xmm2

; 209  : 	vertices[1].position.y	= m_v2Position.y-0.5f;

  00262	f3 0f 10 55 80	 movss	 xmm2, DWORD PTR tv1043[ebp]
  00267	f3 0f 11 55 b8	 movss	 DWORD PTR _vertices$[ebp+28], xmm2

; 211  : 	vertices[1].texCoord	= TTextureCoordinate(eu, sv);

  0026c	f3 0f 10 55 88	 movss	 xmm2, DWORD PTR _eu$1$[ebp]
  00271	f3 0f 11 55 c4	 movss	 DWORD PTR _vertices$[ebp+40], xmm2
  00276	f3 0f 10 95 7c
	ff ff ff	 movss	 xmm2, DWORD PTR _sv$1$[ebp]
  0027e	f3 0f 11 55 c8	 movss	 DWORD PTR _vertices$[ebp+44], xmm2
; File C:\Users\murat\Desktop\Siveps2-1-99-Project\source\client\extern\include\d3dx8math.inl

; 931  :     DWORD dwR = r >= 1.0f ? 0xff : r <= 0.0f ? 0x00 : (DWORD) (r * 255.0f + 0.5f);

  00283	f3 0f 10 57 04	 movss	 xmm2, DWORD PTR [edi+4]
  00288	0f 2f d1	 comiss	 xmm2, xmm1
  0028b	0f 57 c9	 xorps	 xmm1, xmm1
  0028e	72 09		 jb	 SHORT $LN34@OnRender
  00290	c7 45 98 ff 00
	00 00		 mov	 DWORD PTR _dwR$1$[ebp], 255 ; 000000ffH
  00297	eb 2d		 jmp	 SHORT $LN33@OnRender
$LN34@OnRender:
  00299	0f 2f ca	 comiss	 xmm1, xmm2
  0029c	72 09		 jb	 SHORT $LN32@OnRender
  0029e	c7 45 98 00 00
	00 00		 mov	 DWORD PTR _dwR$1$[ebp], 0
  002a5	eb 1f		 jmp	 SHORT $LN33@OnRender
$LN32@OnRender:
  002a7	f3 0f 59 15 00
	00 00 00	 mulss	 xmm2, DWORD PTR __real@437f0000
  002af	f3 0f 58 c2	 addss	 xmm0, xmm2
  002b3	e8 00 00 00 00	 call	 __ftoui3
  002b8	f3 0f 10 05 00
	00 00 00	 movss	 xmm0, DWORD PTR __real@3f000000
  002c0	0f 57 c9	 xorps	 xmm1, xmm1
  002c3	89 45 98	 mov	 DWORD PTR _dwR$1$[ebp], eax
$LN33@OnRender:

; 932  :     DWORD dwG = g >= 1.0f ? 0xff : g <= 0.0f ? 0x00 : (DWORD) (g * 255.0f + 0.5f);

  002c6	f3 0f 10 57 08	 movss	 xmm2, DWORD PTR [edi+8]
  002cb	0f 2f 15 00 00
	00 00		 comiss	 xmm2, DWORD PTR __real@3f800000
  002d2	72 07		 jb	 SHORT $LN38@OnRender
  002d4	bb ff 00 00 00	 mov	 ebx, 255		; 000000ffH
  002d9	eb 1c		 jmp	 SHORT $LN37@OnRender
$LN38@OnRender:
  002db	0f 2f ca	 comiss	 xmm1, xmm2
  002de	72 04		 jb	 SHORT $LN36@OnRender
  002e0	33 db		 xor	 ebx, ebx
  002e2	eb 13		 jmp	 SHORT $LN37@OnRender
$LN36@OnRender:
  002e4	f3 0f 59 15 00
	00 00 00	 mulss	 xmm2, DWORD PTR __real@437f0000
  002ec	f3 0f 58 c2	 addss	 xmm0, xmm2
  002f0	e8 00 00 00 00	 call	 __ftoui3
  002f5	8b d8		 mov	 ebx, eax
$LN37@OnRender:

; 933  :     DWORD dwB = b >= 1.0f ? 0xff : b <= 0.0f ? 0x00 : (DWORD) (b * 255.0f + 0.5f);

  002f7	f3 0f 10 4f 0c	 movss	 xmm1, DWORD PTR [edi+12]
  002fc	0f 57 c0	 xorps	 xmm0, xmm0
  002ff	0f 2f 0d 00 00
	00 00		 comiss	 xmm1, DWORD PTR __real@3f800000
  00306	72 07		 jb	 SHORT $LN42@OnRender
  00308	be ff 00 00 00	 mov	 esi, 255		; 000000ffH
  0030d	eb 26		 jmp	 SHORT $LN41@OnRender
$LN42@OnRender:
  0030f	0f 2f c1	 comiss	 xmm0, xmm1
  00312	72 04		 jb	 SHORT $LN40@OnRender
  00314	33 f6		 xor	 esi, esi
  00316	eb 1d		 jmp	 SHORT $LN41@OnRender
$LN40@OnRender:
  00318	f3 0f 59 0d 00
	00 00 00	 mulss	 xmm1, DWORD PTR __real@437f0000
  00320	f3 0f 58 0d 00
	00 00 00	 addss	 xmm1, DWORD PTR __real@3f000000
  00328	0f 28 c1	 movaps	 xmm0, xmm1
  0032b	e8 00 00 00 00	 call	 __ftoui3
  00330	8b f0		 mov	 esi, eax
  00332	0f 57 c0	 xorps	 xmm0, xmm0
$LN41@OnRender:

; 934  :     DWORD dwA = a >= 1.0f ? 0xff : a <= 0.0f ? 0x00 : (DWORD) (a * 255.0f + 0.5f);

  00335	f3 0f 10 4f 10	 movss	 xmm1, DWORD PTR [edi+16]
  0033a	0f 2f 0d 00 00
	00 00		 comiss	 xmm1, DWORD PTR __real@3f800000
  00341	72 07		 jb	 SHORT $LN46@OnRender
  00343	b8 ff 00 00 00	 mov	 eax, 255		; 000000ffH
  00348	eb 21		 jmp	 SHORT $LN45@OnRender
$LN46@OnRender:
  0034a	0f 2f c1	 comiss	 xmm0, xmm1
  0034d	72 04		 jb	 SHORT $LN44@OnRender
  0034f	33 c0		 xor	 eax, eax
  00351	eb 18		 jmp	 SHORT $LN45@OnRender
$LN44@OnRender:
  00353	f3 0f 59 0d 00
	00 00 00	 mulss	 xmm1, DWORD PTR __real@437f0000
  0035b	f3 0f 58 0d 00
	00 00 00	 addss	 xmm1, DWORD PTR __real@3f000000
  00363	0f 28 c1	 movaps	 xmm0, xmm1
  00366	e8 00 00 00 00	 call	 __ftoui3
$LN45@OnRender:
; File C:\Users\murat\Desktop\Siveps2-1-99-Project\source\client\Client\EterLib\GrpImageInstance.cpp

; 214  : 	vertices[2].position.x	= m_v2Position.x-0.5f;

  0036b	f3 0f 10 85 78
	ff ff ff	 movss	 xmm0, DWORD PTR tv1059[ebp]

; 215  : 	vertices[2].position.y	= m_v2Position.y + fimgHeight-0.5f;

  00373	f3 0f 10 0d 00
	00 00 00	 movss	 xmm1, DWORD PTR __real@3f000000
; File C:\Users\murat\Desktop\Siveps2-1-99-Project\source\client\extern\include\d3dx8math.inl

; 931  :     DWORD dwR = r >= 1.0f ? 0xff : r <= 0.0f ? 0x00 : (DWORD) (r * 255.0f + 0.5f);

  0037b	f3 0f 10 57 04	 movss	 xmm2, DWORD PTR [edi+4]
; File C:\Users\murat\Desktop\Siveps2-1-99-Project\source\client\Client\EterLib\GrpImageInstance.cpp

; 214  : 	vertices[2].position.x	= m_v2Position.x-0.5f;

  00380	f3 0f 11 45 cc	 movss	 DWORD PTR _vertices$[ebp+48], xmm0

; 215  : 	vertices[2].position.y	= m_v2Position.y + fimgHeight-0.5f;

  00385	f3 0f 10 47 18	 movss	 xmm0, DWORD PTR [edi+24]
  0038a	f3 0f 58 45 8c	 addss	 xmm0, DWORD PTR _fimgHeight$1$[ebp]
; File C:\Users\murat\Desktop\Siveps2-1-99-Project\source\client\extern\include\d3dx8math.inl

; 936  :     return (dwA << 24) | (dwR << 16) | (dwG << 8) | dwB;

  0038f	c1 e0 08	 shl	 eax, 8
  00392	0b 45 98	 or	 eax, DWORD PTR _dwR$1$[ebp]
  00395	c1 e0 08	 shl	 eax, 8
  00398	0b c3		 or	 eax, ebx
; File C:\Users\murat\Desktop\Siveps2-1-99-Project\source\client\Client\EterLib\GrpImageInstance.cpp

; 216  : 	vertices[2].position.z	= 0.0f;

  0039a	c7 45 d4 00 00
	00 00		 mov	 DWORD PTR _vertices$[ebp+56], 0
  003a1	f3 0f 5c c1	 subss	 xmm0, xmm1
; File C:\Users\murat\Desktop\Siveps2-1-99-Project\source\client\extern\include\d3dx8math.inl

; 936  :     return (dwA << 24) | (dwR << 16) | (dwG << 8) | dwB;

  003a5	c1 e0 08	 shl	 eax, 8
  003a8	0b c6		 or	 eax, esi

; 931  :     DWORD dwR = r >= 1.0f ? 0xff : r <= 0.0f ? 0x00 : (DWORD) (r * 255.0f + 0.5f);

  003aa	0f 2f 15 00 00
	00 00		 comiss	 xmm2, DWORD PTR __real@3f800000
; File C:\Users\murat\Desktop\Siveps2-1-99-Project\source\client\Client\EterLib\GrpImageInstance.cpp

; 212  : 	vertices[1].diffuse		= m_DiffuseColor;

  003b1	89 45 c0	 mov	 DWORD PTR _vertices$[ebp+36], eax

; 215  : 	vertices[2].position.y	= m_v2Position.y + fimgHeight-0.5f;

  003b4	f3 0f 11 45 8c	 movss	 DWORD PTR tv1082[ebp], xmm0
  003b9	f3 0f 11 45 d0	 movss	 DWORD PTR _vertices$[ebp+52], xmm0

; 217  : 	vertices[2].texCoord	= TTextureCoordinate(su, ev);

  003be	f3 0f 10 85 74
	ff ff ff	 movss	 xmm0, DWORD PTR _su$1$[ebp]
  003c6	f3 0f 11 45 dc	 movss	 DWORD PTR _vertices$[ebp+64], xmm0
  003cb	f3 0f 10 45 94	 movss	 xmm0, DWORD PTR _ev$1$[ebp]
  003d0	f3 0f 11 45 e0	 movss	 DWORD PTR _vertices$[ebp+68], xmm0
; File C:\Users\murat\Desktop\Siveps2-1-99-Project\source\client\extern\include\d3dx8math.inl

; 931  :     DWORD dwR = r >= 1.0f ? 0xff : r <= 0.0f ? 0x00 : (DWORD) (r * 255.0f + 0.5f);

  003d5	0f 57 c0	 xorps	 xmm0, xmm0
  003d8	72 09		 jb	 SHORT $LN54@OnRender
  003da	c7 45 98 ff 00
	00 00		 mov	 DWORD PTR _dwR$1$[ebp], 255 ; 000000ffH
  003e1	eb 30		 jmp	 SHORT $LN53@OnRender
$LN54@OnRender:
  003e3	0f 2f c2	 comiss	 xmm0, xmm2
  003e6	72 09		 jb	 SHORT $LN52@OnRender
  003e8	c7 45 98 00 00
	00 00		 mov	 DWORD PTR _dwR$1$[ebp], 0
  003ef	eb 22		 jmp	 SHORT $LN53@OnRender
$LN52@OnRender:
  003f1	0f 28 c2	 movaps	 xmm0, xmm2
  003f4	f3 0f 59 05 00
	00 00 00	 mulss	 xmm0, DWORD PTR __real@437f0000
  003fc	f3 0f 58 c1	 addss	 xmm0, xmm1
  00400	e8 00 00 00 00	 call	 __ftoui3
  00405	f3 0f 10 0d 00
	00 00 00	 movss	 xmm1, DWORD PTR __real@3f000000
  0040d	0f 57 c0	 xorps	 xmm0, xmm0
  00410	89 45 98	 mov	 DWORD PTR _dwR$1$[ebp], eax
$LN53@OnRender:

; 932  :     DWORD dwG = g >= 1.0f ? 0xff : g <= 0.0f ? 0x00 : (DWORD) (g * 255.0f + 0.5f);

  00413	f3 0f 10 57 08	 movss	 xmm2, DWORD PTR [edi+8]
  00418	0f 2f 15 00 00
	00 00		 comiss	 xmm2, DWORD PTR __real@3f800000
  0041f	72 07		 jb	 SHORT $LN58@OnRender
  00421	bb ff 00 00 00	 mov	 ebx, 255		; 000000ffH
  00426	eb 1f		 jmp	 SHORT $LN57@OnRender
$LN58@OnRender:
  00428	0f 2f c2	 comiss	 xmm0, xmm2
  0042b	72 04		 jb	 SHORT $LN56@OnRender
  0042d	33 db		 xor	 ebx, ebx
  0042f	eb 16		 jmp	 SHORT $LN57@OnRender
$LN56@OnRender:
  00431	0f 28 c2	 movaps	 xmm0, xmm2
  00434	f3 0f 59 05 00
	00 00 00	 mulss	 xmm0, DWORD PTR __real@437f0000
  0043c	f3 0f 58 c1	 addss	 xmm0, xmm1
  00440	e8 00 00 00 00	 call	 __ftoui3
  00445	8b d8		 mov	 ebx, eax
$LN57@OnRender:

; 933  :     DWORD dwB = b >= 1.0f ? 0xff : b <= 0.0f ? 0x00 : (DWORD) (b * 255.0f + 0.5f);

  00447	f3 0f 10 4f 0c	 movss	 xmm1, DWORD PTR [edi+12]
  0044c	0f 57 c0	 xorps	 xmm0, xmm0
  0044f	0f 2f 0d 00 00
	00 00		 comiss	 xmm1, DWORD PTR __real@3f800000
  00456	72 07		 jb	 SHORT $LN62@OnRender
  00458	be ff 00 00 00	 mov	 esi, 255		; 000000ffH
  0045d	eb 26		 jmp	 SHORT $LN61@OnRender
$LN62@OnRender:
  0045f	0f 2f c1	 comiss	 xmm0, xmm1
  00462	72 04		 jb	 SHORT $LN60@OnRender
  00464	33 f6		 xor	 esi, esi
  00466	eb 1d		 jmp	 SHORT $LN61@OnRender
$LN60@OnRender:
  00468	0f 28 c1	 movaps	 xmm0, xmm1
  0046b	f3 0f 59 05 00
	00 00 00	 mulss	 xmm0, DWORD PTR __real@437f0000
  00473	f3 0f 58 05 00
	00 00 00	 addss	 xmm0, DWORD PTR __real@3f000000
  0047b	e8 00 00 00 00	 call	 __ftoui3
  00480	8b f0		 mov	 esi, eax
  00482	0f 57 c0	 xorps	 xmm0, xmm0
$LN61@OnRender:

; 934  :     DWORD dwA = a >= 1.0f ? 0xff : a <= 0.0f ? 0x00 : (DWORD) (a * 255.0f + 0.5f);

  00485	f3 0f 10 4f 10	 movss	 xmm1, DWORD PTR [edi+16]
  0048a	0f 2f 0d 00 00
	00 00		 comiss	 xmm1, DWORD PTR __real@3f800000
  00491	72 07		 jb	 SHORT $LN66@OnRender
  00493	b8 ff 00 00 00	 mov	 eax, 255		; 000000ffH
  00498	eb 21		 jmp	 SHORT $LN65@OnRender
$LN66@OnRender:
  0049a	0f 2f c1	 comiss	 xmm0, xmm1
  0049d	72 04		 jb	 SHORT $LN64@OnRender
  0049f	33 c0		 xor	 eax, eax
  004a1	eb 18		 jmp	 SHORT $LN65@OnRender
$LN64@OnRender:
  004a3	0f 28 c1	 movaps	 xmm0, xmm1
  004a6	f3 0f 59 05 00
	00 00 00	 mulss	 xmm0, DWORD PTR __real@437f0000
  004ae	f3 0f 58 05 00
	00 00 00	 addss	 xmm0, DWORD PTR __real@3f000000
  004b6	e8 00 00 00 00	 call	 __ftoui3
$LN65@OnRender:
; File C:\Users\murat\Desktop\Siveps2-1-99-Project\source\client\Client\EterLib\GrpImageInstance.cpp

; 220  : 	vertices[3].position.x	= m_v2Position.x + fimgWidth-0.5f;

  004bb	f3 0f 10 45 90	 movss	 xmm0, DWORD PTR tv1081[ebp]
; File C:\Users\murat\Desktop\Siveps2-1-99-Project\source\client\extern\include\d3dx8math.inl

; 931  :     DWORD dwR = r >= 1.0f ? 0xff : r <= 0.0f ? 0x00 : (DWORD) (r * 255.0f + 0.5f);

  004c0	f3 0f 10 4f 04	 movss	 xmm1, DWORD PTR [edi+4]

; 936  :     return (dwA << 24) | (dwR << 16) | (dwG << 8) | dwB;

  004c5	c1 e0 08	 shl	 eax, 8
  004c8	0b 45 98	 or	 eax, DWORD PTR _dwR$1$[ebp]
; File C:\Users\murat\Desktop\Siveps2-1-99-Project\source\client\Client\EterLib\GrpImageInstance.cpp

; 220  : 	vertices[3].position.x	= m_v2Position.x + fimgWidth-0.5f;

  004cb	f3 0f 11 45 e4	 movss	 DWORD PTR _vertices$[ebp+72], xmm0

; 221  : 	vertices[3].position.y	= m_v2Position.y + fimgHeight-0.5f;

  004d0	f3 0f 10 45 8c	 movss	 xmm0, DWORD PTR tv1082[ebp]
; File C:\Users\murat\Desktop\Siveps2-1-99-Project\source\client\extern\include\d3dx8math.inl

; 936  :     return (dwA << 24) | (dwR << 16) | (dwG << 8) | dwB;

  004d5	c1 e0 08	 shl	 eax, 8
; File C:\Users\murat\Desktop\Siveps2-1-99-Project\source\client\Client\EterLib\GrpImageInstance.cpp

; 221  : 	vertices[3].position.y	= m_v2Position.y + fimgHeight-0.5f;

  004d8	f3 0f 11 45 e8	 movss	 DWORD PTR _vertices$[ebp+76], xmm0
; File C:\Users\murat\Desktop\Siveps2-1-99-Project\source\client\extern\include\d3dx8math.inl

; 936  :     return (dwA << 24) | (dwR << 16) | (dwG << 8) | dwB;

  004dd	0b c3		 or	 eax, ebx
; File C:\Users\murat\Desktop\Siveps2-1-99-Project\source\client\Client\EterLib\GrpImageInstance.cpp

; 223  : 	vertices[3].texCoord	= TTextureCoordinate(eu, ev);

  004df	f3 0f 10 45 88	 movss	 xmm0, DWORD PTR _eu$1$[ebp]
; File C:\Users\murat\Desktop\Siveps2-1-99-Project\source\client\extern\include\d3dx8math.inl

; 936  :     return (dwA << 24) | (dwR << 16) | (dwG << 8) | dwB;

  004e4	c1 e0 08	 shl	 eax, 8
; File C:\Users\murat\Desktop\Siveps2-1-99-Project\source\client\Client\EterLib\GrpImageInstance.cpp

; 223  : 	vertices[3].texCoord	= TTextureCoordinate(eu, ev);

  004e7	f3 0f 11 45 f4	 movss	 DWORD PTR _vertices$[ebp+88], xmm0
; File C:\Users\murat\Desktop\Siveps2-1-99-Project\source\client\extern\include\d3dx8math.inl

; 936  :     return (dwA << 24) | (dwR << 16) | (dwG << 8) | dwB;

  004ec	0b c6		 or	 eax, esi

; 931  :     DWORD dwR = r >= 1.0f ? 0xff : r <= 0.0f ? 0x00 : (DWORD) (r * 255.0f + 0.5f);

  004ee	0f 2f 0d 00 00
	00 00		 comiss	 xmm1, DWORD PTR __real@3f800000
; File C:\Users\murat\Desktop\Siveps2-1-99-Project\source\client\Client\EterLib\GrpImageInstance.cpp

; 218  : 	vertices[2].diffuse		= m_DiffuseColor;

  004f5	89 45 d8	 mov	 DWORD PTR _vertices$[ebp+60], eax

; 222  : 	vertices[3].position.z	= 0.0f;

  004f8	c7 45 ec 00 00
	00 00		 mov	 DWORD PTR _vertices$[ebp+80], 0

; 223  : 	vertices[3].texCoord	= TTextureCoordinate(eu, ev);

  004ff	f3 0f 10 45 94	 movss	 xmm0, DWORD PTR _ev$1$[ebp]
  00504	f3 0f 11 45 f8	 movss	 DWORD PTR _vertices$[ebp+92], xmm0
; File C:\Users\murat\Desktop\Siveps2-1-99-Project\source\client\extern\include\d3dx8math.inl

; 931  :     DWORD dwR = r >= 1.0f ? 0xff : r <= 0.0f ? 0x00 : (DWORD) (r * 255.0f + 0.5f);

  00509	0f 57 c0	 xorps	 xmm0, xmm0
  0050c	72 07		 jb	 SHORT $LN74@OnRender
  0050e	bb ff 00 00 00	 mov	 ebx, 255		; 000000ffH
  00513	eb 26		 jmp	 SHORT $LN73@OnRender
$LN74@OnRender:
  00515	0f 2f c1	 comiss	 xmm0, xmm1
  00518	72 04		 jb	 SHORT $LN72@OnRender
  0051a	33 db		 xor	 ebx, ebx
  0051c	eb 1d		 jmp	 SHORT $LN73@OnRender
$LN72@OnRender:
  0051e	f3 0f 59 0d 00
	00 00 00	 mulss	 xmm1, DWORD PTR __real@437f0000
  00526	f3 0f 58 0d 00
	00 00 00	 addss	 xmm1, DWORD PTR __real@3f000000
  0052e	0f 28 c1	 movaps	 xmm0, xmm1
  00531	e8 00 00 00 00	 call	 __ftoui3
  00536	8b d8		 mov	 ebx, eax
  00538	0f 57 c0	 xorps	 xmm0, xmm0
$LN73@OnRender:

; 932  :     DWORD dwG = g >= 1.0f ? 0xff : g <= 0.0f ? 0x00 : (DWORD) (g * 255.0f + 0.5f);

  0053b	f3 0f 10 4f 08	 movss	 xmm1, DWORD PTR [edi+8]
  00540	0f 2f 0d 00 00
	00 00		 comiss	 xmm1, DWORD PTR __real@3f800000
  00547	72 07		 jb	 SHORT $LN78@OnRender
  00549	bf ff 00 00 00	 mov	 edi, 255		; 000000ffH
  0054e	eb 23		 jmp	 SHORT $LN77@OnRender
$LN78@OnRender:
  00550	0f 2f c1	 comiss	 xmm0, xmm1
  00553	72 04		 jb	 SHORT $LN76@OnRender
  00555	33 ff		 xor	 edi, edi
  00557	eb 1a		 jmp	 SHORT $LN77@OnRender
$LN76@OnRender:
  00559	f3 0f 59 0d 00
	00 00 00	 mulss	 xmm1, DWORD PTR __real@437f0000
  00561	f3 0f 58 0d 00
	00 00 00	 addss	 xmm1, DWORD PTR __real@3f000000
  00569	0f 28 c1	 movaps	 xmm0, xmm1
  0056c	e8 00 00 00 00	 call	 __ftoui3
  00571	8b f8		 mov	 edi, eax
$LN77@OnRender:

; 933  :     DWORD dwB = b >= 1.0f ? 0xff : b <= 0.0f ? 0x00 : (DWORD) (b * 255.0f + 0.5f);

  00573	8b 45 84	 mov	 eax, DWORD PTR _this$GSCopy$1$[ebp]
  00576	0f 57 c0	 xorps	 xmm0, xmm0
  00579	f3 0f 10 48 0c	 movss	 xmm1, DWORD PTR [eax+12]
  0057e	0f 2f 0d 00 00
	00 00		 comiss	 xmm1, DWORD PTR __real@3f800000
  00585	72 07		 jb	 SHORT $LN82@OnRender
  00587	be ff 00 00 00	 mov	 esi, 255		; 000000ffH
  0058c	eb 29		 jmp	 SHORT $LN81@OnRender
$LN82@OnRender:
  0058e	0f 2f c1	 comiss	 xmm0, xmm1
  00591	72 04		 jb	 SHORT $LN80@OnRender
  00593	33 f6		 xor	 esi, esi
  00595	eb 20		 jmp	 SHORT $LN81@OnRender
$LN80@OnRender:
  00597	f3 0f 59 0d 00
	00 00 00	 mulss	 xmm1, DWORD PTR __real@437f0000
  0059f	f3 0f 58 0d 00
	00 00 00	 addss	 xmm1, DWORD PTR __real@3f000000
  005a7	0f 28 c1	 movaps	 xmm0, xmm1
  005aa	e8 00 00 00 00	 call	 __ftoui3
  005af	8b f0		 mov	 esi, eax
  005b1	0f 57 c0	 xorps	 xmm0, xmm0
  005b4	8b 45 84	 mov	 eax, DWORD PTR _this$GSCopy$1$[ebp]
$LN81@OnRender:

; 934  :     DWORD dwA = a >= 1.0f ? 0xff : a <= 0.0f ? 0x00 : (DWORD) (a * 255.0f + 0.5f);

  005b7	f3 0f 10 48 10	 movss	 xmm1, DWORD PTR [eax+16]
  005bc	0f 2f 0d 00 00
	00 00		 comiss	 xmm1, DWORD PTR __real@3f800000
  005c3	72 07		 jb	 SHORT $LN86@OnRender
  005c5	b8 ff 00 00 00	 mov	 eax, 255		; 000000ffH
  005ca	eb 21		 jmp	 SHORT $LN85@OnRender
$LN86@OnRender:
  005cc	0f 2f c1	 comiss	 xmm0, xmm1
  005cf	72 04		 jb	 SHORT $LN84@OnRender
  005d1	33 c0		 xor	 eax, eax
  005d3	eb 18		 jmp	 SHORT $LN85@OnRender
$LN84@OnRender:
  005d5	f3 0f 59 0d 00
	00 00 00	 mulss	 xmm1, DWORD PTR __real@437f0000
  005dd	f3 0f 58 0d 00
	00 00 00	 addss	 xmm1, DWORD PTR __real@3f000000
  005e5	0f 28 c1	 movaps	 xmm0, xmm1
  005e8	e8 00 00 00 00	 call	 __ftoui3
$LN85@OnRender:

; 936  :     return (dwA << 24) | (dwR << 16) | (dwG << 8) | dwB;

  005ed	c1 e0 08	 shl	 eax, 8
  005f0	0b c3		 or	 eax, ebx
  005f2	c1 e0 08	 shl	 eax, 8
  005f5	0b c7		 or	 eax, edi
  005f7	c1 e0 08	 shl	 eax, 8
  005fa	0b c6		 or	 eax, esi
; File C:\Users\murat\Desktop\Siveps2-1-99-Project\source\client\Client\EterLib\GrpImageInstance.cpp

; 224  : 	vertices[3].diffuse		= m_DiffuseColor;

  005fc	89 45 f0	 mov	 DWORD PTR _vertices$[ebp+84], eax

; 225  : 
; 226  : 	// 2004.11.18.myevan.ctrl+alt+del    
; 227  : 	if (CGraphicBase::SetPDTStream(vertices, 4))

  005ff	8d 45 9c	 lea	 eax, DWORD PTR _vertices$[ebp]
  00602	6a 04		 push	 4
  00604	50		 push	 eax
  00605	e8 00 00 00 00	 call	 ?SetPDTStream@CGraphicBase@@SA_NPAUSPDTVertex@@I@Z ; CGraphicBase::SetPDTStream
  0060a	83 c4 08	 add	 esp, 8
  0060d	5f		 pop	 edi
  0060e	5e		 pop	 esi
  0060f	5b		 pop	 ebx
  00610	84 c0		 test	 al, al
  00612	74 57		 je	 SHORT $LN2@OnRender

; 228  : 	{
; 229  : 		CGraphicBase::SetDefaultIndexBuffer(CGraphicBase::DEFAULT_IB_FILL_RECT);

  00614	6a 05		 push	 5
  00616	e8 00 00 00 00	 call	 ?SetDefaultIndexBuffer@CGraphicBase@@SAXI@Z ; CGraphicBase::SetDefaultIndexBuffer

; 230  : 
; 231  : 		STATEMANAGER.SetTexture(0, pTexture->GetD3DTexture());

  0061b	8b 8d 70 ff ff
	ff		 mov	 ecx, DWORD PTR _pTexture$1$[ebp]
  00621	83 c4 04	 add	 esp, 4
  00624	e8 00 00 00 00	 call	 ?GetD3DTexture@CGraphicTexture@@QBEPAUIDirect3DTexture8@@XZ ; CGraphicTexture::GetD3DTexture
  00629	8b 0d 00 00 00
	00		 mov	 ecx, DWORD PTR ?ms_singleton@?$CSingleton@VCStateManager@@@@0PAVCStateManager@@A ; CSingleton<CStateManager>::ms_singleton
  0062f	50		 push	 eax
  00630	6a 00		 push	 0
  00632	e8 00 00 00 00	 call	 ?SetTexture@CStateManager@@QAEXKPAUIDirect3DBaseTexture8@@@Z ; CStateManager::SetTexture

; 232  : 		STATEMANAGER.SetTexture(1, NULL);

  00637	8b 0d 00 00 00
	00		 mov	 ecx, DWORD PTR ?ms_singleton@?$CSingleton@VCStateManager@@@@0PAVCStateManager@@A ; CSingleton<CStateManager>::ms_singleton
  0063d	6a 00		 push	 0
  0063f	6a 01		 push	 1
  00641	e8 00 00 00 00	 call	 ?SetTexture@CStateManager@@QAEXKPAUIDirect3DBaseTexture8@@@Z ; CStateManager::SetTexture

; 233  : 		STATEMANAGER.SetVertexShader(D3DFVF_XYZ|D3DFVF_DIFFUSE|D3DFVF_TEX1);

  00646	8b 0d 00 00 00
	00		 mov	 ecx, DWORD PTR ?ms_singleton@?$CSingleton@VCStateManager@@@@0PAVCStateManager@@A ; CSingleton<CStateManager>::ms_singleton
  0064c	68 42 01 00 00	 push	 322			; 00000142H
  00651	e8 00 00 00 00	 call	 ?SetVertexShader@CStateManager@@QAEXK@Z ; CStateManager::SetVertexShader

; 234  : 		STATEMANAGER.DrawIndexedPrimitive(D3DPT_TRIANGLELIST, 0, 4, 0, 2);

  00656	8b 0d 00 00 00
	00		 mov	 ecx, DWORD PTR ?ms_singleton@?$CSingleton@VCStateManager@@@@0PAVCStateManager@@A ; CSingleton<CStateManager>::ms_singleton
  0065c	6a 02		 push	 2
  0065e	6a 00		 push	 0
  00660	6a 04		 push	 4
  00662	6a 00		 push	 0
  00664	6a 04		 push	 4
  00666	e8 00 00 00 00	 call	 ?DrawIndexedPrimitive@CStateManager@@QAEJW4_D3DPRIMITIVETYPE@@IIII@Z ; CStateManager::DrawIndexedPrimitive
$LN2@OnRender:

; 235  : 	}
; 236  : 	//OLD: STATEMANAGER.DrawIndexedPrimitiveUP(D3DPT_TRIANGLELIST, 0, 4, 2, c_FillRectIndices, D3DFMT_INDEX16, vertices, sizeof(TPDTVertex));
; 237  : 	////////////////////////////////////////////////////////////
; 238  : }

  0066b	8b 4d fc	 mov	 ecx, DWORD PTR __$ArrayPad$[ebp]
  0066e	33 cd		 xor	 ecx, ebp
  00670	e8 00 00 00 00	 call	 @__security_check_cookie@4
  00675	8b e5		 mov	 esp, ebp
  00677	5d		 pop	 ebp
  00678	c3		 ret	 0
?OnRender@CGraphicImageInstance@@MAEXXZ ENDP		; CGraphicImageInstance::OnRender
_TEXT	ENDS
; Function compile flags: /Ogtp
; File C:\Users\murat\Desktop\Siveps2-1-99-Project\source\client\Client\EterLib\GrpImageInstance.cpp
;	COMDAT ?Initialize@CGraphicImageInstance@@IAEXXZ
_TEXT	SEGMENT
?Initialize@CGraphicImageInstance@@IAEXXZ PROC		; CGraphicImageInstance::Initialize, COMDAT
; _this$ = ecx

; 344  : 	m_DiffuseColor.r = m_DiffuseColor.g = m_DiffuseColor.b = m_DiffuseColor.a = 1.0f;

  00000	c7 41 10 00 00
	80 3f		 mov	 DWORD PTR [ecx+16], 1065353216 ; 3f800000H
  00007	c7 41 0c 00 00
	80 3f		 mov	 DWORD PTR [ecx+12], 1065353216 ; 3f800000H
  0000e	c7 41 08 00 00
	80 3f		 mov	 DWORD PTR [ecx+8], 1065353216 ; 3f800000H
  00015	c7 41 04 00 00
	80 3f		 mov	 DWORD PTR [ecx+4], 1065353216 ; 3f800000H

; 345  : 	m_v2Position.x = m_v2Position.y = 0.0f;

  0001c	c7 41 18 00 00
	00 00		 mov	 DWORD PTR [ecx+24], 0
  00023	c7 41 14 00 00
	00 00		 mov	 DWORD PTR [ecx+20], 0

; 346  : }

  0002a	c3		 ret	 0
?Initialize@CGraphicImageInstance@@IAEXXZ ENDP		; CGraphicImageInstance::Initialize
_TEXT	ENDS
; Function compile flags: /Ogtp
; File C:\Users\murat\Desktop\Siveps2-1-99-Project\source\client\Client\EterLib\GrpImageInstance.cpp
;	COMDAT ??8CGraphicImageInstance@@QBE_NABV0@@Z
_TEXT	SEGMENT
_rhs$ = 8						; size = 4
??8CGraphicImageInstance@@QBE_NABV0@@Z PROC		; CGraphicImageInstance::operator==, COMDAT
; _this$ = ecx

; 315  : {

  00000	55		 push	 ebp
  00001	8b ec		 mov	 ebp, esp

; 316  : 	return (m_roImage.GetPointer() == rhs.m_roImage.GetPointer());

  00003	8b 45 08	 mov	 eax, DWORD PTR _rhs$[ebp]
  00006	8b 49 1c	 mov	 ecx, DWORD PTR [ecx+28]
  00009	3b 48 1c	 cmp	 ecx, DWORD PTR [eax+28]
  0000c	0f 94 c0	 sete	 al

; 317  : }

  0000f	5d		 pop	 ebp
  00010	c2 04 00	 ret	 4
??8CGraphicImageInstance@@QBE_NABV0@@Z ENDP		; CGraphicImageInstance::operator==
_TEXT	ENDS
; Function compile flags: /Ogtp
; File C:\Users\murat\Desktop\Siveps2-1-99-Project\source\client\Client\EterLib\GrpImageInstance.cpp
;	COMDAT ?GetGraphicImagePointer@CGraphicImageInstance@@QAEPAVCGraphicImage@@XZ
_TEXT	SEGMENT
?GetGraphicImagePointer@CGraphicImageInstance@@QAEPAVCGraphicImage@@XZ PROC ; CGraphicImageInstance::GetGraphicImagePointer, COMDAT
; _this$ = ecx

; 253  : 	return m_roImage.GetPointer();

  00000	8b 41 1c	 mov	 eax, DWORD PTR [ecx+28]

; 254  : }

  00003	c3		 ret	 0
?GetGraphicImagePointer@CGraphicImageInstance@@QAEPAVCGraphicImage@@XZ ENDP ; CGraphicImageInstance::GetGraphicImagePointer
_TEXT	ENDS
; Function compile flags: /Ogtp
; File C:\Users\murat\Desktop\Siveps2-1-99-Project\source\client\Client\EterLib\GrpImageInstance.cpp
;	COMDAT ?GetTextureReference@CGraphicImageInstance@@QBEABVCGraphicTexture@@XZ
_TEXT	SEGMENT
?GetTextureReference@CGraphicImageInstance@@QBEABVCGraphicTexture@@XZ PROC ; CGraphicImageInstance::GetTextureReference, COMDAT
; _this$ = ecx

; 242  : 	return m_roImage->GetTextureReference();

  00000	8b 49 1c	 mov	 ecx, DWORD PTR [ecx+28]
  00003	e9 00 00 00 00	 jmp	 ?GetTextureReference@CGraphicImage@@QBEABVCGraphicTexture@@XZ ; CGraphicImage::GetTextureReference
?GetTextureReference@CGraphicImageInstance@@QBEABVCGraphicTexture@@XZ ENDP ; CGraphicImageInstance::GetTextureReference
_TEXT	ENDS
; Function compile flags: /Ogtp
; File C:\Users\murat\Desktop\Siveps2-1-99-Project\source\client\Client\EterLib\GrpImageInstance.cpp
;	COMDAT ?GetTexturePointer@CGraphicImageInstance@@QAEPAVCGraphicTexture@@XZ
_TEXT	SEGMENT
?GetTexturePointer@CGraphicImageInstance@@QAEPAVCGraphicTexture@@XZ PROC ; CGraphicImageInstance::GetTexturePointer, COMDAT
; _this$ = ecx

; 247  : 	CGraphicImage* pkImage = m_roImage.GetPointer();

  00000	8b 49 1c	 mov	 ecx, DWORD PTR [ecx+28]

; 248  : 	return pkImage ? pkImage->GetTexturePointer() : NULL;

  00003	85 c9		 test	 ecx, ecx
  00005	0f 85 00 00 00
	00		 jne	 ?GetTexturePointer@CGraphicImage@@QAEPAVCGraphicTexture@@XZ ; CGraphicImage::GetTexturePointer
  0000b	33 c0		 xor	 eax, eax

; 249  : }

  0000d	c3		 ret	 0
?GetTexturePointer@CGraphicImageInstance@@QAEPAVCGraphicTexture@@XZ ENDP ; CGraphicImageInstance::GetTexturePointer
_TEXT	ENDS
; Function compile flags: /Ogtp
; File C:\Users\murat\Desktop\Siveps2-1-99-Project\source\client\Client\EterLib\GrpImageInstance.cpp
; File C:\Users\murat\Desktop\Siveps2-1-99-Project\source\client\extern\include\d3dx8math.inl
; File C:\Users\murat\Desktop\Siveps2-1-99-Project\source\client\Client\EterLib\GrpImageInstance.cpp
; File C:\Users\murat\Desktop\Siveps2-1-99-Project\source\client\extern\include\d3dx8math.inl
; File C:\Users\murat\Desktop\Siveps2-1-99-Project\source\client\Client\EterLib\GrpImageInstance.cpp
; File C:\Users\murat\Desktop\Siveps2-1-99-Project\source\client\extern\include\d3dx8math.inl
; File C:\Users\murat\Desktop\Siveps2-1-99-Project\source\client\Client\EterLib\GrpImageInstance.cpp
; File C:\Program Files (x86)\Microsoft Visual Studio\2019\Professional\VC\Tools\MSVC\14.29.30133\include\vector
; File C:\Users\murat\Desktop\Siveps2-1-99-Project\source\client\extern\include\d3dx8math.inl
; File C:\Users\murat\Desktop\Siveps2-1-99-Project\source\client\Client\EterLib\GrpImageInstance.cpp
; File C:\Users\murat\Desktop\Siveps2-1-99-Project\source\client\extern\include\d3dx8math.inl
; File C:\Users\murat\Desktop\Siveps2-1-99-Project\source\client\Client\EterLib\GrpImageInstance.cpp
; File C:\Program Files (x86)\Microsoft Visual Studio\2019\Professional\VC\Tools\MSVC\14.29.30133\include\vector
; File C:\Users\murat\Desktop\Siveps2-1-99-Project\source\client\extern\include\d3dx8math.inl
; File C:\Users\murat\Desktop\Siveps2-1-99-Project\source\client\Client\EterLib\GrpImageInstance.cpp
; File C:\Users\murat\Desktop\Siveps2-1-99-Project\source\client\extern\include\d3dx8math.inl
; File C:\Users\murat\Desktop\Siveps2-1-99-Project\source\client\Client\EterLib\GrpImageInstance.cpp
; File C:\Users\murat\Desktop\Siveps2-1-99-Project\source\client\extern\include\d3dx8math.inl
; File C:\Users\murat\Desktop\Siveps2-1-99-Project\source\client\Client\EterLib\GrpImageInstance.cpp
; File C:\Users\murat\Desktop\Siveps2-1-99-Project\source\client\extern\include\d3dx8math.inl
; File C:\Users\murat\Desktop\Siveps2-1-99-Project\source\client\Client\EterLib\GrpImageInstance.cpp
; File C:\Users\murat\Desktop\Siveps2-1-99-Project\source\client\extern\include\d3dx8math.inl
; File C:\Users\murat\Desktop\Siveps2-1-99-Project\source\client\Client\EterLib\GrpImageInstance.cpp
; File C:\Users\murat\Desktop\Siveps2-1-99-Project\source\client\extern\include\d3dx8math.inl
; File C:\Program Files (x86)\Microsoft Visual Studio\2019\Professional\VC\Tools\MSVC\14.29.30133\include\vector
; File C:\Users\murat\Desktop\Siveps2-1-99-Project\source\client\extern\include\d3dx8math.inl
; File C:\Users\murat\Desktop\Siveps2-1-99-Project\source\client\Client\EterLib\GrpImageInstance.cpp
; File C:\Program Files (x86)\Microsoft Visual Studio\2019\Professional\VC\Tools\MSVC\14.29.30133\include\vector
; File C:\Users\murat\Desktop\Siveps2-1-99-Project\source\client\Client\EterLib\GrpImageInstance.cpp
; File C:\Users\murat\Desktop\Siveps2-1-99-Project\source\client\extern\include\d3dx8math.inl
; File C:\Users\murat\Desktop\Siveps2-1-99-Project\source\client\Client\EterLib\GrpImageInstance.cpp
; File C:\Users\murat\Desktop\Siveps2-1-99-Project\source\client\extern\include\d3dx8math.inl
; File C:\Program Files (x86)\Microsoft Visual Studio\2019\Professional\VC\Tools\MSVC\14.29.30133\include\vector
; File C:\Users\murat\Desktop\Siveps2-1-99-Project\source\client\Client\EterLib\GrpImageInstance.cpp
; File C:\Program Files (x86)\Microsoft Visual Studio\2019\Professional\VC\Tools\MSVC\14.29.30133\include\vector
; File C:\Program Files (x86)\Microsoft Visual Studio\2019\Professional\VC\Tools\MSVC\14.29.30133\include\xmemory
; File C:\Program Files (x86)\Microsoft Visual Studio\2019\Professional\VC\Tools\MSVC\14.29.30133\include\vector
; File C:\Users\murat\Desktop\Siveps2-1-99-Project\source\client\Client\EterLib\GrpImageInstance.cpp
; File C:\Users\murat\Desktop\Siveps2-1-99-Project\source\client\extern\include\d3dx8math.inl
; File C:\Users\murat\Desktop\Siveps2-1-99-Project\source\client\Client\EterLib\GrpImageInstance.cpp
; File C:\Users\murat\Desktop\Siveps2-1-99-Project\source\client\extern\include\d3dx8math.inl
; File C:\Users\murat\Desktop\Siveps2-1-99-Project\source\client\Client\EterLib\GrpImageInstance.cpp
; File C:\Users\murat\Desktop\Siveps2-1-99-Project\source\client\extern\include\d3dx8math.inl
; File C:\Users\murat\Desktop\Siveps2-1-99-Project\source\client\Client\EterLib\GrpImageInstance.cpp
; File C:\Users\murat\Desktop\Siveps2-1-99-Project\source\client\extern\include\d3dx8math.inl
; File C:\Users\murat\Desktop\Siveps2-1-99-Project\source\client\Client\EterLib\GrpImageInstance.cpp
; File C:\Program Files (x86)\Microsoft Visual Studio\2019\Professional\VC\Tools\MSVC\14.29.30133\include\vector
; File C:\Program Files (x86)\Microsoft Visual Studio\2019\Professional\VC\Tools\MSVC\14.29.30133\include\xmemory
; File C:\Program Files (x86)\Microsoft Visual Studio\2019\Professional\VC\Tools\MSVC\14.29.30133\include\vector
; File C:\Users\murat\Desktop\Siveps2-1-99-Project\source\client\Client\EterLib\GrpImageInstance.cpp
; File C:\Users\murat\Desktop\Siveps2-1-99-Project\source\client\extern\include\d3dx8math.inl
; File C:\Users\murat\Desktop\Siveps2-1-99-Project\source\client\Client\EterLib\GrpImageInstance.cpp
; File C:\Users\murat\Desktop\Siveps2-1-99-Project\source\client\extern\include\d3dx8math.inl
; File C:\Users\murat\Desktop\Siveps2-1-99-Project\source\client\Client\EterLib\GrpImageInstance.cpp
; File C:\Program Files (x86)\Microsoft Visual Studio\2019\Professional\VC\Tools\MSVC\14.29.30133\include\vector
; File C:\Program Files (x86)\Microsoft Visual Studio\2019\Professional\VC\Tools\MSVC\14.29.30133\include\xmemory
; File C:\Program Files (x86)\Microsoft Visual Studio\2019\Professional\VC\Tools\MSVC\14.29.30133\include\vector
; File C:\Users\murat\Desktop\Siveps2-1-99-Project\source\client\Client\EterLib\GrpImageInstance.cpp
; File C:\Program Files (x86)\Microsoft Visual Studio\2019\Professional\VC\Tools\MSVC\14.29.30133\include\vector
; File C:\Users\murat\Desktop\Siveps2-1-99-Project\source\client\Client\EterLib\GrpImageInstance.cpp
; File C:\Program Files (x86)\Microsoft Visual Studio\2019\Professional\VC\Tools\MSVC\14.29.30133\include\vector
; File C:\Program Files (x86)\Microsoft Visual Studio\2019\Professional\VC\Tools\MSVC\14.29.30133\include\xmemory
; File C:\Users\murat\Desktop\Siveps2-1-99-Project\source\client\Client\EterLib\GrpImageInstance.cpp
; File C:\Program Files (x86)\Microsoft Visual Studio\2019\Professional\VC\Tools\MSVC\14.29.30133\include\vector
; File C:\Users\murat\Desktop\Siveps2-1-99-Project\source\client\Client\EterLib\GrpImageInstance.cpp
; File C:\Program Files (x86)\Microsoft Visual Studio\2019\Professional\VC\Tools\MSVC\14.29.30133\include\vector
; File C:\Program Files (x86)\Microsoft Visual Studio\2019\Professional\VC\Tools\MSVC\14.29.30133\include\xmemory
; File C:\Users\murat\Desktop\Siveps2-1-99-Project\source\client\Client\EterLib\GrpImageInstance.cpp
;	COMDAT ?OnRenderCoolTime@CGraphicImageInstance@@UAEXM@Z
_TEXT	SEGMENT
_fLastPercentage$1$ = -168				; size = 4
_j$1$ = -164						; size = 4
_pTexture$1$ = -160					; size = 4
_vertex$6 = -156					; size = 24
_euh$1$ = -132						; size = 4
_texReverseWidth$1$ = -132				; size = 4
_fyCenter$1$ = -128					; size = 4
_fimgHeightHalf$1$ = -124				; size = 4
_fimgWidthHalf$1$ = -120				; size = 4
_vertices$7 = -116					; size = 12
_iTriCount$1$ = -104					; size = 4
_evh$1$ = -100						; size = 4
_dwR$1$ = -100						; size = 4
_fxCenter$1$ = -96					; size = 4
_dwG$1$ = -96						; size = 4
_sv$1$ = -92						; size = 4
_dwB$1$ = -92						; size = 4
_dwB$1$ = -92						; size = 4
_dwR$1$ = -88						; size = 4
_dwR$1$ = -88						; size = 4
_dwG$1$ = -88						; size = 4
_dwG$1$ = -84						; size = 4
_dwG$1$ = -84						; size = 4
_dwR$1$ = -84						; size = 4
_v2TexPos$8 = -80					; size = 64
__$ArrayPad$ = -16					; size = 4
__$EHRec$ = -12						; size = 12
_fCoolTime$ = 8						; size = 4
?OnRenderCoolTime@CGraphicImageInstance@@UAEXM@Z PROC	; CGraphicImageInstance::OnRenderCoolTime, COMDAT
; _this$ = ecx

; 29   : {

  00000	55		 push	 ebp
  00001	8b ec		 mov	 ebp, esp
  00003	6a ff		 push	 -1
  00005	68 00 00 00 00	 push	 __ehhandler$?OnRenderCoolTime@CGraphicImageInstance@@UAEXM@Z
  0000a	64 a1 00 00 00
	00		 mov	 eax, DWORD PTR fs:0
  00010	50		 push	 eax
  00011	81 ec 9c 00 00
	00		 sub	 esp, 156		; 0000009cH
  00017	a1 00 00 00 00	 mov	 eax, DWORD PTR ___security_cookie
  0001c	33 c5		 xor	 eax, ebp
  0001e	89 45 f0	 mov	 DWORD PTR __$ArrayPad$[ebp], eax
  00021	56		 push	 esi
  00022	57		 push	 edi
  00023	50		 push	 eax
  00024	8d 45 f4	 lea	 eax, DWORD PTR __$EHRec$[ebp]
  00027	64 a3 00 00 00
	00		 mov	 DWORD PTR fs:0, eax
  0002d	8b f9		 mov	 edi, ecx

; 30   : 	//if (fCoolTime >= 1.0f)
; 31   : 	//	fCoolTime = 1.0f;
; 32   : 
; 33   : 	CGraphicImage * pImage = m_roImage.GetPointer();

  0002f	8b 77 1c	 mov	 esi, DWORD PTR [edi+28]

; 34   : 	CGraphicTexture * pTexture = pImage->GetTexturePointer();

  00032	8b ce		 mov	 ecx, esi
  00034	e8 00 00 00 00	 call	 ?GetTexturePointer@CGraphicImage@@QAEPAVCGraphicTexture@@XZ ; CGraphicImage::GetTexturePointer

; 35   : 
; 36   : 	// <!!!> ACHTUNG <!!!>
; 37   : #ifdef ENABLE_IMAGE_SCALE
; 38   : 	float fimgWidth = pImage->GetWidth() * m_v2Scale.x;
; 39   : 	float fimgHeight = pImage->GetHeight() * m_v2Scale.y;
; 40   : #else
; 41   : 	float fimgWidth = pImage->GetWidth();

  00039	8b ce		 mov	 ecx, esi
  0003b	89 85 60 ff ff
	ff		 mov	 DWORD PTR _pTexture$1$[ebp], eax
  00041	e8 00 00 00 00	 call	 ?GetWidth@CGraphicImage@@QBEHXZ ; CGraphicImage::GetWidth

; 42   : 	float fimgHeight = pImage->GetHeight();

  00046	8b ce		 mov	 ecx, esi
  00048	66 0f 6e c0	 movd	 xmm0, eax
  0004c	0f 5b c0	 cvtdq2ps xmm0, xmm0
  0004f	f3 0f 11 45 88	 movss	 DWORD PTR _fimgWidthHalf$1$[ebp], xmm0
  00054	e8 00 00 00 00	 call	 ?GetHeight@CGraphicImage@@QBEHXZ ; CGraphicImage::GetHeight

; 43   : #endif
; 44   : 	float fimgWidthHalf = fimgWidth * 0.5f;

  00059	f3 0f 10 55 88	 movss	 xmm2, DWORD PTR _fimgWidthHalf$1$[ebp]

; 45   : 	float fimgHeightHalf = fimgHeight * 0.5f;
; 46   : 
; 47   : 	const RECT& c_rRect = pImage->GetRectReference();

  0005e	8b ce		 mov	 ecx, esi
  00060	f3 0f 59 15 00
	00 00 00	 mulss	 xmm2, DWORD PTR __real@3f000000
  00068	66 0f 6e c8	 movd	 xmm1, eax
  0006c	0f 5b c9	 cvtdq2ps xmm1, xmm1
  0006f	f3 0f 11 55 88	 movss	 DWORD PTR _fimgWidthHalf$1$[ebp], xmm2
  00074	f3 0f 59 0d 00
	00 00 00	 mulss	 xmm1, DWORD PTR __real@3f000000
  0007c	f3 0f 11 4d 84	 movss	 DWORD PTR _fimgHeightHalf$1$[ebp], xmm1
  00081	e8 00 00 00 00	 call	 ?GetRectReference@CGraphicImage@@QBEABUtagRECT@@XZ ; CGraphicImage::GetRectReference

; 48   : 	float texReverseWidth = 1.0f / float(pTexture->GetWidth());

  00086	8b 8d 60 ff ff
	ff		 mov	 ecx, DWORD PTR _pTexture$1$[ebp]
  0008c	8b f0		 mov	 esi, eax
  0008e	e8 00 00 00 00	 call	 ?GetWidth@CGraphicTexture@@QBEHXZ ; CGraphicTexture::GetWidth
  00093	f3 0f 10 0d 00
	00 00 00	 movss	 xmm1, DWORD PTR __real@3f800000

; 49   : 	float texReverseHeight = 1.0f / float(pTexture->GetHeight());

  0009b	8b 8d 60 ff ff
	ff		 mov	 ecx, DWORD PTR _pTexture$1$[ebp]
  000a1	66 0f 6e c0	 movd	 xmm0, eax
  000a5	0f 5b c0	 cvtdq2ps xmm0, xmm0
  000a8	f3 0f 5e c8	 divss	 xmm1, xmm0
  000ac	f3 0f 11 8d 7c
	ff ff ff	 movss	 DWORD PTR _texReverseWidth$1$[ebp], xmm1
  000b4	e8 00 00 00 00	 call	 ?GetHeight@CGraphicTexture@@QBEHXZ ; CGraphicTexture::GetHeight
  000b9	f3 0f 10 1d 00
	00 00 00	 movss	 xmm3, DWORD PTR __real@3f800000
  000c1	66 0f 6e 66 08	 movd	 xmm4, DWORD PTR [esi+8]
  000c6	0f 28 cb	 movaps	 xmm1, xmm3
  000c9	66 0f 6e 56 04	 movd	 xmm2, DWORD PTR [esi+4]
  000ce	66 0f 6e c0	 movd	 xmm0, eax
  000d2	0f 5b c0	 cvtdq2ps xmm0, xmm0
  000d5	66 0f 6e 6e 0c	 movd	 xmm5, DWORD PTR [esi+12]
  000da	f3 0f 5e c8	 divss	 xmm1, xmm0
  000de	66 0f 6e 36	 movd	 xmm6, DWORD PTR [esi]

; 50   : 	float su = c_rRect.left * texReverseWidth;
; 51   : 	float sv = c_rRect.top * texReverseHeight;
; 52   : 	float eu = c_rRect.right * texReverseWidth;

  000e2	0f 5b e4	 cvtdq2ps xmm4, xmm4

; 53   : 	float ev = c_rRect.bottom * texReverseHeight;

  000e5	0f 5b ed	 cvtdq2ps xmm5, xmm5
  000e8	f3 0f 59 a5 7c
	ff ff ff	 mulss	 xmm4, DWORD PTR _texReverseWidth$1$[ebp]
  000f0	0f 5b d2	 cvtdq2ps xmm2, xmm2
  000f3	f3 0f 59 e9	 mulss	 xmm5, xmm1

; 54   : 	float euh = eu * 0.5f;

  000f7	0f 28 c4	 movaps	 xmm0, xmm4
  000fa	f3 0f 59 d1	 mulss	 xmm2, xmm1
  000fe	f3 0f 10 0d 00
	00 00 00	 movss	 xmm1, DWORD PTR __real@3f000000
  00106	f3 0f 59 c1	 mulss	 xmm0, xmm1
  0010a	0f 5b f6	 cvtdq2ps xmm6, xmm6

; 55   : 	float evh = ev * 0.5f;
; 56   : 	float fxCenter = m_v2Position.x + fimgWidthHalf - 0.5f;
; 57   : 	float fyCenter = m_v2Position.y + fimgHeightHalf - 0.5f;
; 58   : 
; 59   : 	if (fCoolTime < 1.0f)

  0010d	f3 0f 10 7d 08	 movss	 xmm7, DWORD PTR _fCoolTime$[ebp]
  00112	0f 2f df	 comiss	 xmm3, xmm7
  00115	f3 0f 59 b5 7c
	ff ff ff	 mulss	 xmm6, DWORD PTR _texReverseWidth$1$[ebp]
  0011d	f3 0f 11 85 7c
	ff ff ff	 movss	 DWORD PTR _euh$1$[ebp], xmm0
  00125	0f 28 c5	 movaps	 xmm0, xmm5
  00128	f3 0f 59 c1	 mulss	 xmm0, xmm1
  0012c	f3 0f 11 55 a4	 movss	 DWORD PTR _sv$1$[ebp], xmm2
  00131	f3 0f 11 45 9c	 movss	 DWORD PTR _evh$1$[ebp], xmm0
  00136	f3 0f 10 45 88	 movss	 xmm0, DWORD PTR _fimgWidthHalf$1$[ebp]
  0013b	f3 0f 58 47 14	 addss	 xmm0, DWORD PTR [edi+20]
  00140	f3 0f 5c c1	 subss	 xmm0, xmm1
  00144	f3 0f 11 45 a0	 movss	 DWORD PTR _fxCenter$1$[ebp], xmm0
  00149	f3 0f 10 45 84	 movss	 xmm0, DWORD PTR _fimgHeightHalf$1$[ebp]
  0014e	f3 0f 58 47 18	 addss	 xmm0, DWORD PTR [edi+24]
  00153	f3 0f 5c c1	 subss	 xmm0, xmm1
  00157	f3 0f 11 45 80	 movss	 DWORD PTR _fyCenter$1$[ebp], xmm0
  0015c	0f 86 e0 07 00
	00		 jbe	 $LN211@OnRenderCo
  00162	0f 57 c0	 xorps	 xmm0, xmm0
; File C:\Users\murat\Desktop\Siveps2-1-99-Project\source\client\extern\include\d3dx8math.inl

; 41   :     x = fx;

  00165	f3 0f 11 65 d0	 movss	 DWORD PTR _v2TexPos$8[ebp+32], xmm4
; File C:\Users\murat\Desktop\Siveps2-1-99-Project\source\client\Client\EterLib\GrpImageInstance.cpp

; 61   : 		if (fCoolTime < 0.0)

  0016a	f3 0f 5f c7	 maxss	 xmm0, xmm7
; File C:\Users\murat\Desktop\Siveps2-1-99-Project\source\client\extern\include\d3dx8math.inl

; 41   :     x = fx;

  0016e	f3 0f 11 65 d8	 movss	 DWORD PTR _v2TexPos$8[ebp+40], xmm4
  00173	f3 0f 11 65 e0	 movss	 DWORD PTR _v2TexPos$8[ebp+48], xmm4

; 42   :     y = fy;

  00178	0f 28 fa	 movaps	 xmm7, xmm2
; File C:\Users\murat\Desktop\Siveps2-1-99-Project\source\client\Client\EterLib\GrpImageInstance.cpp

; 89   : 		int iTriCount = int(8.0f - 8.0f * fCoolTime);

  0017b	f3 0f 10 25 00
	00 00 00	 movss	 xmm4, DWORD PTR __real@41000000
; File C:\Users\murat\Desktop\Siveps2-1-99-Project\source\client\extern\include\d3dx8math.inl

; 42   :     y = fy;

  00183	f3 0f 10 55 9c	 movss	 xmm2, DWORD PTR _evh$1$[ebp]

; 41   :     x = fx;

  00188	f3 0f 11 75 b0	 movss	 DWORD PTR _v2TexPos$8[ebp], xmm6
; File C:\Users\murat\Desktop\Siveps2-1-99-Project\source\client\Client\EterLib\GrpImageInstance.cpp

; 89   : 		int iTriCount = int(8.0f - 8.0f * fCoolTime);

  0018d	f3 0f 59 c4	 mulss	 xmm0, xmm4
; File C:\Program Files (x86)\Microsoft Visual Studio\2019\Professional\VC\Tools\MSVC\14.29.30133\include\vector

; 401  :     _CONSTEXPR20_CONTAINER _Vector_val() noexcept : _Myfirst(), _Mylast(), _Myend() {}

  00191	c7 45 8c 00 00
	00 00		 mov	 DWORD PTR _vertices$7[ebp], 0
; File C:\Users\murat\Desktop\Siveps2-1-99-Project\source\client\extern\include\d3dx8math.inl

; 41   :     x = fx;

  00198	f3 0f 11 75 b8	 movss	 DWORD PTR _v2TexPos$8[ebp+8], xmm6
  0019d	f3 0f 11 75 c0	 movss	 DWORD PTR _v2TexPos$8[ebp+16], xmm6
; File C:\Users\murat\Desktop\Siveps2-1-99-Project\source\client\Client\EterLib\GrpImageInstance.cpp

; 89   : 		int iTriCount = int(8.0f - 8.0f * fCoolTime);

  001a2	f3 0f 5c e0	 subss	 xmm4, xmm0
; File C:\Users\murat\Desktop\Siveps2-1-99-Project\source\client\extern\include\d3dx8math.inl

; 41   :     x = fx;

  001a6	f3 0f 10 b5 7c
	ff ff ff	 movss	 xmm6, DWORD PTR _euh$1$[ebp]

; 42   :     y = fy;

  001ae	f3 0f 11 6d c4	 movss	 DWORD PTR _v2TexPos$8[ebp+20], xmm5
  001b3	f3 0f 11 6d cc	 movss	 DWORD PTR _v2TexPos$8[ebp+28], xmm5
  001b8	f3 0f 11 6d d4	 movss	 DWORD PTR _v2TexPos$8[ebp+36], xmm5
  001bd	0f 28 ea	 movaps	 xmm5, xmm2
  001c0	f3 0f 11 7d b4	 movss	 DWORD PTR _v2TexPos$8[ebp+4], xmm7
; File C:\Users\murat\Desktop\Siveps2-1-99-Project\source\client\Client\EterLib\GrpImageInstance.cpp

; 89   : 		int iTriCount = int(8.0f - 8.0f * fCoolTime);

  001c5	f3 0f 2c c4	 cvttss2si eax, xmm4
; File C:\Program Files (x86)\Microsoft Visual Studio\2019\Professional\VC\Tools\MSVC\14.29.30133\include\vector

; 401  :     _CONSTEXPR20_CONTAINER _Vector_val() noexcept : _Myfirst(), _Mylast(), _Myend() {}

  001c9	c7 45 90 00 00
	00 00		 mov	 DWORD PTR _vertices$7[ebp+4], 0
  001d0	c7 45 94 00 00
	00 00		 mov	 DWORD PTR _vertices$7[ebp+8], 0
; File C:\Users\murat\Desktop\Siveps2-1-99-Project\source\client\extern\include\d3dx8math.inl

; 42   :     y = fy;

  001d7	f3 0f 11 55 bc	 movss	 DWORD PTR _v2TexPos$8[ebp+12], xmm2

; 41   :     x = fx;

  001dc	f3 0f 11 75 c8	 movss	 DWORD PTR _v2TexPos$8[ebp+24], xmm6

; 42   :     y = fy;

  001e1	f3 0f 11 6d dc	 movss	 DWORD PTR _v2TexPos$8[ebp+44], xmm5
  001e6	f3 0f 11 7d e4	 movss	 DWORD PTR _v2TexPos$8[ebp+52], xmm7
  001eb	66 0f 6e c0	 movd	 xmm0, eax
; File C:\Users\murat\Desktop\Siveps2-1-99-Project\source\client\Client\EterLib\GrpImageInstance.cpp

; 90   : 		float fLastPercentage = (8.0f - 8.0f * fCoolTime) - iTriCount;

  001ef	0f 5b c0	 cvtdq2ps xmm0, xmm0
  001f2	89 45 98	 mov	 DWORD PTR _iTriCount$1$[ebp], eax
; File C:\Users\murat\Desktop\Siveps2-1-99-Project\source\client\extern\include\d3dx8math.inl

; 41   :     x = fx;

  001f5	f3 0f 11 75 e8	 movss	 DWORD PTR _v2TexPos$8[ebp+56], xmm6
; File C:\Users\murat\Desktop\Siveps2-1-99-Project\source\client\Client\EterLib\GrpImageInstance.cpp

; 90   : 		float fLastPercentage = (8.0f - 8.0f * fCoolTime) - iTriCount;

  001fa	f3 0f 5c e0	 subss	 xmm4, xmm0
; File C:\Users\murat\Desktop\Siveps2-1-99-Project\source\client\extern\include\d3dx8math.inl

; 42   :     y = fy;

  001fe	f3 0f 11 7d ec	 movss	 DWORD PTR _v2TexPos$8[ebp+60], xmm7
; File C:\Users\murat\Desktop\Siveps2-1-99-Project\source\client\Client\EterLib\GrpImageInstance.cpp

; 90   : 		float fLastPercentage = (8.0f - 8.0f * fCoolTime) - iTriCount;

  00203	f3 0f 11 a5 58
	ff ff ff	 movss	 DWORD PTR _fLastPercentage$1$[ebp], xmm4

; 93   : 		TPDTVertex vertex;
; 94   : 		vertex.position = TPosition(fxCenter, fyCenter, 0.0f);

  0020b	f3 0f 10 45 a0	 movss	 xmm0, DWORD PTR _fxCenter$1$[ebp]
  00210	0f 57 d2	 xorps	 xmm2, xmm2
; File C:\Users\murat\Desktop\Siveps2-1-99-Project\source\client\extern\include\d3dx8math.inl

; 931  :     DWORD dwR = r >= 1.0f ? 0xff : r <= 0.0f ? 0x00 : (DWORD) (r * 255.0f + 0.5f);

  00213	f3 0f 10 67 04	 movss	 xmm4, DWORD PTR [edi+4]
  00218	0f 2f e3	 comiss	 xmm4, xmm3
; File C:\Users\murat\Desktop\Siveps2-1-99-Project\source\client\Client\EterLib\GrpImageInstance.cpp

; 92   : 		std::vector<TPDTVertex> vertices;

  0021b	c7 45 fc 00 00
	00 00		 mov	 DWORD PTR __$EHRec$[ebp+8], 0

; 93   : 		TPDTVertex vertex;
; 94   : 		vertex.position = TPosition(fxCenter, fyCenter, 0.0f);

  00222	c7 85 6c ff ff
	ff 00 00 00 00	 mov	 DWORD PTR _vertex$6[ebp+8], 0
  0022c	f3 0f 11 85 64
	ff ff ff	 movss	 DWORD PTR _vertex$6[ebp], xmm0
  00234	f3 0f 10 45 80	 movss	 xmm0, DWORD PTR _fyCenter$1$[ebp]
  00239	f3 0f 11 85 68
	ff ff ff	 movss	 DWORD PTR _vertex$6[ebp+4], xmm0
; File C:\Users\murat\Desktop\Siveps2-1-99-Project\source\client\extern\include\d3dx8math.inl

; 931  :     DWORD dwR = r >= 1.0f ? 0xff : r <= 0.0f ? 0x00 : (DWORD) (r * 255.0f + 0.5f);

  00241	f3 0f 10 05 00
	00 00 00	 movss	 xmm0, DWORD PTR __real@437f0000
; File C:\Users\murat\Desktop\Siveps2-1-99-Project\source\client\Client\EterLib\GrpImageInstance.cpp

; 95   : 		vertex.texCoord = TTextureCoordinate(euh, evh);

  00249	f3 0f 11 b5 74
	ff ff ff	 movss	 DWORD PTR _vertex$6[ebp+16], xmm6
  00251	f3 0f 11 ad 78
	ff ff ff	 movss	 DWORD PTR _vertex$6[ebp+20], xmm5
; File C:\Users\murat\Desktop\Siveps2-1-99-Project\source\client\extern\include\d3dx8math.inl

; 931  :     DWORD dwR = r >= 1.0f ? 0xff : r <= 0.0f ? 0x00 : (DWORD) (r * 255.0f + 0.5f);

  00259	72 09		 jb	 SHORT $LN61@OnRenderCo
  0025b	c7 45 ac ff 00
	00 00		 mov	 DWORD PTR _dwR$1$[ebp], 255 ; 000000ffH
  00262	eb 39		 jmp	 SHORT $LN60@OnRenderCo
$LN61@OnRenderCo:
  00264	0f 2f d4	 comiss	 xmm2, xmm4
  00267	72 09		 jb	 SHORT $LN59@OnRenderCo
  00269	c7 45 ac 00 00
	00 00		 mov	 DWORD PTR _dwR$1$[ebp], 0
  00270	eb 2b		 jmp	 SHORT $LN60@OnRenderCo
$LN59@OnRenderCo:
  00272	f3 0f 59 c4	 mulss	 xmm0, xmm4
  00276	f3 0f 58 c1	 addss	 xmm0, xmm1
  0027a	e8 00 00 00 00	 call	 __ftoui3
  0027f	f3 0f 10 0d 00
	00 00 00	 movss	 xmm1, DWORD PTR __real@3f000000
  00287	0f 57 d2	 xorps	 xmm2, xmm2
  0028a	f3 0f 10 05 00
	00 00 00	 movss	 xmm0, DWORD PTR __real@437f0000
  00292	f3 0f 10 1d 00
	00 00 00	 movss	 xmm3, DWORD PTR __real@3f800000
  0029a	89 45 ac	 mov	 DWORD PTR _dwR$1$[ebp], eax
$LN60@OnRenderCo:

; 932  :     DWORD dwG = g >= 1.0f ? 0xff : g <= 0.0f ? 0x00 : (DWORD) (g * 255.0f + 0.5f);

  0029d	f3 0f 10 67 08	 movss	 xmm4, DWORD PTR [edi+8]
  002a2	0f 2f e3	 comiss	 xmm4, xmm3
  002a5	72 09		 jb	 SHORT $LN65@OnRenderCo
  002a7	c7 45 a8 ff 00
	00 00		 mov	 DWORD PTR _dwG$1$[ebp], 255 ; 000000ffH
  002ae	eb 26		 jmp	 SHORT $LN64@OnRenderCo
$LN65@OnRenderCo:
  002b0	0f 2f d4	 comiss	 xmm2, xmm4
  002b3	72 09		 jb	 SHORT $LN63@OnRenderCo
  002b5	c7 45 a8 00 00
	00 00		 mov	 DWORD PTR _dwG$1$[ebp], 0
  002bc	eb 18		 jmp	 SHORT $LN64@OnRenderCo
$LN63@OnRenderCo:
  002be	f3 0f 59 c4	 mulss	 xmm0, xmm4
  002c2	f3 0f 58 c1	 addss	 xmm0, xmm1
  002c6	e8 00 00 00 00	 call	 __ftoui3
  002cb	f3 0f 10 1d 00
	00 00 00	 movss	 xmm3, DWORD PTR __real@3f800000
  002d3	89 45 a8	 mov	 DWORD PTR _dwG$1$[ebp], eax
$LN64@OnRenderCo:

; 933  :     DWORD dwB = b >= 1.0f ? 0xff : b <= 0.0f ? 0x00 : (DWORD) (b * 255.0f + 0.5f);

  002d6	f3 0f 10 4f 0c	 movss	 xmm1, DWORD PTR [edi+12]
  002db	0f 57 c0	 xorps	 xmm0, xmm0
  002de	0f 2f cb	 comiss	 xmm1, xmm3
  002e1	72 07		 jb	 SHORT $LN69@OnRenderCo
  002e3	be ff 00 00 00	 mov	 esi, 255		; 000000ffH
  002e8	eb 2e		 jmp	 SHORT $LN68@OnRenderCo
$LN69@OnRenderCo:
  002ea	0f 2f c1	 comiss	 xmm0, xmm1
  002ed	72 04		 jb	 SHORT $LN67@OnRenderCo
  002ef	33 f6		 xor	 esi, esi
  002f1	eb 25		 jmp	 SHORT $LN68@OnRenderCo
$LN67@OnRenderCo:
  002f3	f3 0f 59 0d 00
	00 00 00	 mulss	 xmm1, DWORD PTR __real@437f0000
  002fb	f3 0f 58 0d 00
	00 00 00	 addss	 xmm1, DWORD PTR __real@3f000000
  00303	0f 28 c1	 movaps	 xmm0, xmm1
  00306	e8 00 00 00 00	 call	 __ftoui3
  0030b	f3 0f 10 1d 00
	00 00 00	 movss	 xmm3, DWORD PTR __real@3f800000
  00313	8b f0		 mov	 esi, eax
  00315	0f 57 c0	 xorps	 xmm0, xmm0
$LN68@OnRenderCo:

; 934  :     DWORD dwA = a >= 1.0f ? 0xff : a <= 0.0f ? 0x00 : (DWORD) (a * 255.0f + 0.5f);

  00318	f3 0f 10 4f 10	 movss	 xmm1, DWORD PTR [edi+16]
  0031d	0f 2f cb	 comiss	 xmm1, xmm3
  00320	72 07		 jb	 SHORT $LN73@OnRenderCo
  00322	b8 ff 00 00 00	 mov	 eax, 255		; 000000ffH
  00327	eb 21		 jmp	 SHORT $LN72@OnRenderCo
$LN73@OnRenderCo:
  00329	0f 2f c1	 comiss	 xmm0, xmm1
  0032c	72 04		 jb	 SHORT $LN71@OnRenderCo
  0032e	33 c0		 xor	 eax, eax
  00330	eb 18		 jmp	 SHORT $LN72@OnRenderCo
$LN71@OnRenderCo:
  00332	f3 0f 59 0d 00
	00 00 00	 mulss	 xmm1, DWORD PTR __real@437f0000
  0033a	f3 0f 58 0d 00
	00 00 00	 addss	 xmm1, DWORD PTR __real@3f000000
  00342	0f 28 c1	 movaps	 xmm0, xmm1
  00345	e8 00 00 00 00	 call	 __ftoui3
$LN72@OnRenderCo:

; 936  :     return (dwA << 24) | (dwR << 16) | (dwG << 8) | dwB;

  0034a	c1 e0 08	 shl	 eax, 8
; File C:\Program Files (x86)\Microsoft Visual Studio\2019\Professional\VC\Tools\MSVC\14.29.30133\include\vector

; 747  :         _Ty& _Result = *_Emplace_reallocate(_Mylast, _STD forward<_Valty>(_Val)...);

  0034d	8d 4d 8c	 lea	 ecx, DWORD PTR _vertices$7[ebp]
; File C:\Users\murat\Desktop\Siveps2-1-99-Project\source\client\extern\include\d3dx8math.inl

; 936  :     return (dwA << 24) | (dwR << 16) | (dwG << 8) | dwB;

  00350	0b 45 ac	 or	 eax, DWORD PTR _dwR$1$[ebp]
  00353	c1 e0 08	 shl	 eax, 8
  00356	0b 45 a8	 or	 eax, DWORD PTR _dwG$1$[ebp]
  00359	c1 e0 08	 shl	 eax, 8
  0035c	0b c6		 or	 eax, esi
; File C:\Users\murat\Desktop\Siveps2-1-99-Project\source\client\Client\EterLib\GrpImageInstance.cpp

; 96   : 		vertex.diffuse = m_DiffuseColor;

  0035e	89 85 70 ff ff
	ff		 mov	 DWORD PTR _vertex$6[ebp+12], eax
; File C:\Program Files (x86)\Microsoft Visual Studio\2019\Professional\VC\Tools\MSVC\14.29.30133\include\vector

; 747  :         _Ty& _Result = *_Emplace_reallocate(_Mylast, _STD forward<_Valty>(_Val)...);

  00364	8d 85 64 ff ff
	ff		 lea	 eax, DWORD PTR _vertex$6[ebp]
  0036a	50		 push	 eax
  0036b	6a 00		 push	 0
  0036d	e8 00 00 00 00	 call	 ??$_Emplace_reallocate@ABUSPDTVertex@@@?$vector@USPDTVertex@@V?$allocator@USPDTVertex@@@std@@@std@@QAEPAUSPDTVertex@@QAU2@ABU2@@Z ; std::vector<SPDTVertex,std::allocator<SPDTVertex> >::_Emplace_reallocate<SPDTVertex const &>
; File C:\Users\murat\Desktop\Siveps2-1-99-Project\source\client\Client\EterLib\GrpImageInstance.cpp

; 99   : 		vertex.position = TPosition(fxCenter, fyCenter - fimgHeightHalf - 0.5f, 0.0f);

  00372	f3 0f 10 45 80	 movss	 xmm0, DWORD PTR _fyCenter$1$[ebp]
  00377	f3 0f 5c 45 84	 subss	 xmm0, DWORD PTR _fimgHeightHalf$1$[ebp]
  0037c	f3 0f 10 0d 00
	00 00 00	 movss	 xmm1, DWORD PTR __real@3f000000
; File C:\Users\murat\Desktop\Siveps2-1-99-Project\source\client\extern\include\d3dx8math.inl

; 931  :     DWORD dwR = r >= 1.0f ? 0xff : r <= 0.0f ? 0x00 : (DWORD) (r * 255.0f + 0.5f);

  00384	f3 0f 10 57 04	 movss	 xmm2, DWORD PTR [edi+4]
  00389	0f 2f 15 00 00
	00 00		 comiss	 xmm2, DWORD PTR __real@3f800000
; File C:\Users\murat\Desktop\Siveps2-1-99-Project\source\client\Client\EterLib\GrpImageInstance.cpp

; 99   : 		vertex.position = TPosition(fxCenter, fyCenter - fimgHeightHalf - 0.5f, 0.0f);

  00390	f3 0f 5c c1	 subss	 xmm0, xmm1
  00394	f3 0f 11 85 68
	ff ff ff	 movss	 DWORD PTR _vertex$6[ebp+4], xmm0

; 100  : 		vertex.texCoord = TTextureCoordinate(euh, sv);

  0039c	f3 0f 10 45 a4	 movss	 xmm0, DWORD PTR _sv$1$[ebp]
  003a1	f3 0f 11 85 78
	ff ff ff	 movss	 DWORD PTR _vertex$6[ebp+20], xmm0
; File C:\Users\murat\Desktop\Siveps2-1-99-Project\source\client\extern\include\d3dx8math.inl

; 931  :     DWORD dwR = r >= 1.0f ? 0xff : r <= 0.0f ? 0x00 : (DWORD) (r * 255.0f + 0.5f);

  003a9	0f 57 c0	 xorps	 xmm0, xmm0
  003ac	72 09		 jb	 SHORT $LN92@OnRenderCo
  003ae	c7 45 a8 ff 00
	00 00		 mov	 DWORD PTR _dwR$1$[ebp], 255 ; 000000ffH
  003b5	eb 30		 jmp	 SHORT $LN91@OnRenderCo
$LN92@OnRenderCo:
  003b7	0f 2f c2	 comiss	 xmm0, xmm2
  003ba	72 09		 jb	 SHORT $LN90@OnRenderCo
  003bc	c7 45 a8 00 00
	00 00		 mov	 DWORD PTR _dwR$1$[ebp], 0
  003c3	eb 22		 jmp	 SHORT $LN91@OnRenderCo
$LN90@OnRenderCo:
  003c5	f3 0f 59 15 00
	00 00 00	 mulss	 xmm2, DWORD PTR __real@437f0000
  003cd	f3 0f 58 d1	 addss	 xmm2, xmm1
  003d1	0f 28 c2	 movaps	 xmm0, xmm2
  003d4	e8 00 00 00 00	 call	 __ftoui3
  003d9	f3 0f 10 0d 00
	00 00 00	 movss	 xmm1, DWORD PTR __real@3f000000
  003e1	0f 57 c0	 xorps	 xmm0, xmm0
  003e4	89 45 a8	 mov	 DWORD PTR _dwR$1$[ebp], eax
$LN91@OnRenderCo:

; 932  :     DWORD dwG = g >= 1.0f ? 0xff : g <= 0.0f ? 0x00 : (DWORD) (g * 255.0f + 0.5f);

  003e7	f3 0f 10 57 08	 movss	 xmm2, DWORD PTR [edi+8]
  003ec	0f 2f 15 00 00
	00 00		 comiss	 xmm2, DWORD PTR __real@3f800000
  003f3	72 09		 jb	 SHORT $LN96@OnRenderCo
  003f5	c7 45 ac ff 00
	00 00		 mov	 DWORD PTR _dwG$1$[ebp], 255 ; 000000ffH
  003fc	eb 25		 jmp	 SHORT $LN95@OnRenderCo
$LN96@OnRenderCo:
  003fe	0f 2f c2	 comiss	 xmm0, xmm2
  00401	72 09		 jb	 SHORT $LN94@OnRenderCo
  00403	c7 45 ac 00 00
	00 00		 mov	 DWORD PTR _dwG$1$[ebp], 0
  0040a	eb 17		 jmp	 SHORT $LN95@OnRenderCo
$LN94@OnRenderCo:
  0040c	f3 0f 59 15 00
	00 00 00	 mulss	 xmm2, DWORD PTR __real@437f0000
  00414	f3 0f 58 d1	 addss	 xmm2, xmm1
  00418	0f 28 c2	 movaps	 xmm0, xmm2
  0041b	e8 00 00 00 00	 call	 __ftoui3
  00420	89 45 ac	 mov	 DWORD PTR _dwG$1$[ebp], eax
$LN95@OnRenderCo:

; 933  :     DWORD dwB = b >= 1.0f ? 0xff : b <= 0.0f ? 0x00 : (DWORD) (b * 255.0f + 0.5f);

  00423	f3 0f 10 4f 0c	 movss	 xmm1, DWORD PTR [edi+12]
  00428	0f 57 c0	 xorps	 xmm0, xmm0
  0042b	0f 2f 0d 00 00
	00 00		 comiss	 xmm1, DWORD PTR __real@3f800000
  00432	72 07		 jb	 SHORT $LN100@OnRenderCo
  00434	be ff 00 00 00	 mov	 esi, 255		; 000000ffH
  00439	eb 26		 jmp	 SHORT $LN99@OnRenderCo
$LN100@OnRenderCo:
  0043b	0f 2f c1	 comiss	 xmm0, xmm1
  0043e	72 04		 jb	 SHORT $LN98@OnRenderCo
  00440	33 f6		 xor	 esi, esi
  00442	eb 1d		 jmp	 SHORT $LN99@OnRenderCo
$LN98@OnRenderCo:
  00444	f3 0f 59 0d 00
	00 00 00	 mulss	 xmm1, DWORD PTR __real@437f0000
  0044c	f3 0f 58 0d 00
	00 00 00	 addss	 xmm1, DWORD PTR __real@3f000000
  00454	0f 28 c1	 movaps	 xmm0, xmm1
  00457	e8 00 00 00 00	 call	 __ftoui3
  0045c	8b f0		 mov	 esi, eax
  0045e	0f 57 c0	 xorps	 xmm0, xmm0
$LN99@OnRenderCo:

; 934  :     DWORD dwA = a >= 1.0f ? 0xff : a <= 0.0f ? 0x00 : (DWORD) (a * 255.0f + 0.5f);

  00461	f3 0f 10 4f 10	 movss	 xmm1, DWORD PTR [edi+16]
  00466	0f 2f 0d 00 00
	00 00		 comiss	 xmm1, DWORD PTR __real@3f800000
  0046d	72 07		 jb	 SHORT $LN104@OnRenderCo
  0046f	b8 ff 00 00 00	 mov	 eax, 255		; 000000ffH
  00474	eb 21		 jmp	 SHORT $LN103@OnRenderCo
$LN104@OnRenderCo:
  00476	0f 2f c1	 comiss	 xmm0, xmm1
  00479	72 04		 jb	 SHORT $LN102@OnRenderCo
  0047b	33 c0		 xor	 eax, eax
  0047d	eb 18		 jmp	 SHORT $LN103@OnRenderCo
$LN102@OnRenderCo:
  0047f	f3 0f 59 0d 00
	00 00 00	 mulss	 xmm1, DWORD PTR __real@437f0000
  00487	f3 0f 58 0d 00
	00 00 00	 addss	 xmm1, DWORD PTR __real@3f000000
  0048f	0f 28 c1	 movaps	 xmm0, xmm1
  00492	e8 00 00 00 00	 call	 __ftoui3
$LN103@OnRenderCo:

; 936  :     return (dwA << 24) | (dwR << 16) | (dwG << 8) | dwB;

  00497	c1 e0 08	 shl	 eax, 8
  0049a	0b 45 a8	 or	 eax, DWORD PTR _dwR$1$[ebp]
  0049d	c1 e0 08	 shl	 eax, 8
  004a0	0b 45 ac	 or	 eax, DWORD PTR _dwG$1$[ebp]
  004a3	c1 e0 08	 shl	 eax, 8
  004a6	0b c6		 or	 eax, esi
; File C:\Program Files (x86)\Microsoft Visual Studio\2019\Professional\VC\Tools\MSVC\14.29.30133\include\vector

; 743  :         if (_Mylast != _My_data._Myend) {

  004a8	8b 75 90	 mov	 esi, DWORD PTR _vertices$7[ebp+4]
; File C:\Users\murat\Desktop\Siveps2-1-99-Project\source\client\Client\EterLib\GrpImageInstance.cpp

; 101  : 		vertex.diffuse = m_DiffuseColor;

  004ab	89 85 70 ff ff
	ff		 mov	 DWORD PTR _vertex$6[ebp+12], eax
; File C:\Program Files (x86)\Microsoft Visual Studio\2019\Professional\VC\Tools\MSVC\14.29.30133\include\vector

; 743  :         if (_Mylast != _My_data._Myend) {

  004b1	3b 75 94	 cmp	 esi, DWORD PTR _vertices$7[ebp+8]
  004b4	74 1f		 je	 SHORT $LN109@OnRenderCo
; File C:\Program Files (x86)\Microsoft Visual Studio\2019\Professional\VC\Tools\MSVC\14.29.30133\include\xmemory

; 714  :             ::new (_Voidify_iter(_Ptr)) _Objty(_STD forward<_Types>(_Args)...);

  004b6	0f 10 85 64 ff
	ff ff		 movups	 xmm0, XMMWORD PTR _vertex$6[ebp]
  004bd	0f 11 06	 movups	 XMMWORD PTR [esi], xmm0
  004c0	f3 0f 7e 85 74
	ff ff ff	 movq	 xmm0, QWORD PTR _vertex$6[ebp+16]
  004c8	66 0f d6 46 10	 movq	 QWORD PTR [esi+16], xmm0
; File C:\Program Files (x86)\Microsoft Visual Studio\2019\Professional\VC\Tools\MSVC\14.29.30133\include\vector

; 729  :         ++_Mylast;

  004cd	83 c6 18	 add	 esi, 24			; 00000018H
  004d0	89 75 90	 mov	 DWORD PTR _vertices$7[ebp+4], esi

; 744  :             return _Emplace_back_with_unused_capacity(_STD forward<_Valty>(_Val)...);

  004d3	eb 13		 jmp	 SHORT $LN108@OnRenderCo
$LN109@OnRenderCo:

; 747  :         _Ty& _Result = *_Emplace_reallocate(_Mylast, _STD forward<_Valty>(_Val)...);

  004d5	8d 85 64 ff ff
	ff		 lea	 eax, DWORD PTR _vertex$6[ebp]
  004db	50		 push	 eax
  004dc	56		 push	 esi
  004dd	8d 4d 8c	 lea	 ecx, DWORD PTR _vertices$7[ebp]
  004e0	e8 00 00 00 00	 call	 ??$_Emplace_reallocate@ABUSPDTVertex@@@?$vector@USPDTVertex@@V?$allocator@USPDTVertex@@@std@@@std@@QAEPAUSPDTVertex@@QAU2@ABU2@@Z ; std::vector<SPDTVertex,std::allocator<SPDTVertex> >::_Emplace_reallocate<SPDTVertex const &>
  004e5	8b 75 90	 mov	 esi, DWORD PTR _vertices$7[ebp+4]
$LN108@OnRenderCo:
; File C:\Users\murat\Desktop\Siveps2-1-99-Project\source\client\Client\EterLib\GrpImageInstance.cpp

; 104  : 		if (iTriCount > 0)

  004e8	8b 45 98	 mov	 eax, DWORD PTR _iTriCount$1$[ebp]
  004eb	85 c0		 test	 eax, eax
  004ed	0f 8e d0 01 00
	00		 jle	 $LN4@OnRenderCo

; 106  : 			for (int j = 0; j < iTriCount; ++j)

  004f3	33 c0		 xor	 eax, eax
  004f5	89 85 5c ff ff
	ff		 mov	 DWORD PTR _j$1$[ebp], eax
  004fb	0f 1f 44 00 00	 npad	 5
$LL5@OnRenderCo:

; 108  : 				vertex.position = TPosition(fxCenter + (s_v2BoxPos[j].x * fimgWidthHalf) - 0.5f,

  00500	f3 0f 10 45 88	 movss	 xmm0, DWORD PTR _fimgWidthHalf$1$[ebp]
  00505	f3 0f 59 04 c5
	00 00 00 00	 mulss	 xmm0, DWORD PTR ?s_v2BoxPos@?4??OnRenderCoolTime@CGraphicImageInstance@@UAEXM@Z@4PAUD3DXVECTOR2@@A[eax*8]
  0050e	f3 0f 10 15 00
	00 00 00	 movss	 xmm2, DWORD PTR __real@3f000000
  00516	f3 0f 58 45 a0	 addss	 xmm0, DWORD PTR _fxCenter$1$[ebp]
  0051b	f3 0f 5c c2	 subss	 xmm0, xmm2
  0051f	f3 0f 11 85 64
	ff ff ff	 movss	 DWORD PTR _vertex$6[ebp], xmm0
  00527	f3 0f 10 45 84	 movss	 xmm0, DWORD PTR _fimgHeightHalf$1$[ebp]
  0052c	f3 0f 59 04 c5
	04 00 00 00	 mulss	 xmm0, DWORD PTR ?s_v2BoxPos@?4??OnRenderCoolTime@CGraphicImageInstance@@UAEXM@Z@4PAUD3DXVECTOR2@@A[eax*8+4]

; 111  : 				vertex.texCoord = TTextureCoordinate(v2TexPos[j & (c_iTriangleCountPerBox - 1)].x,

  00535	83 e0 07	 and	 eax, 7
  00538	f3 0f 58 45 80	 addss	 xmm0, DWORD PTR _fyCenter$1$[ebp]
; File C:\Users\murat\Desktop\Siveps2-1-99-Project\source\client\extern\include\d3dx8math.inl

; 42   :     y = fy;

  0053d	f3 0f 10 4c c5
	b4		 movss	 xmm1, DWORD PTR _v2TexPos$8[ebp+eax*8+4]
; File C:\Users\murat\Desktop\Siveps2-1-99-Project\source\client\Client\EterLib\GrpImageInstance.cpp

; 111  : 				vertex.texCoord = TTextureCoordinate(v2TexPos[j & (c_iTriangleCountPerBox - 1)].x,

  00543	f3 0f 11 8d 78
	ff ff ff	 movss	 DWORD PTR _vertex$6[ebp+20], xmm1
; File C:\Users\murat\Desktop\Siveps2-1-99-Project\source\client\extern\include\d3dx8math.inl

; 931  :     DWORD dwR = r >= 1.0f ? 0xff : r <= 0.0f ? 0x00 : (DWORD) (r * 255.0f + 0.5f);

  0054b	0f 57 c9	 xorps	 xmm1, xmm1
; File C:\Users\murat\Desktop\Siveps2-1-99-Project\source\client\Client\EterLib\GrpImageInstance.cpp

; 108  : 				vertex.position = TPosition(fxCenter + (s_v2BoxPos[j].x * fimgWidthHalf) - 0.5f,

  0054e	f3 0f 5c c2	 subss	 xmm0, xmm2
  00552	f3 0f 11 85 68
	ff ff ff	 movss	 DWORD PTR _vertex$6[ebp+4], xmm0
; File C:\Users\murat\Desktop\Siveps2-1-99-Project\source\client\extern\include\d3dx8math.inl

; 41   :     x = fx;

  0055a	f3 0f 10 44 c5
	b0		 movss	 xmm0, DWORD PTR _v2TexPos$8[ebp+eax*8]
; File C:\Users\murat\Desktop\Siveps2-1-99-Project\source\client\Client\EterLib\GrpImageInstance.cpp

; 111  : 				vertex.texCoord = TTextureCoordinate(v2TexPos[j & (c_iTriangleCountPerBox - 1)].x,

  00560	f3 0f 11 85 74
	ff ff ff	 movss	 DWORD PTR _vertex$6[ebp+16], xmm0
; File C:\Users\murat\Desktop\Siveps2-1-99-Project\source\client\extern\include\d3dx8math.inl

; 931  :     DWORD dwR = r >= 1.0f ? 0xff : r <= 0.0f ? 0x00 : (DWORD) (r * 255.0f + 0.5f);

  00568	f3 0f 10 47 04	 movss	 xmm0, DWORD PTR [edi+4]
  0056d	0f 2f 05 00 00
	00 00		 comiss	 xmm0, DWORD PTR __real@3f800000
  00574	72 09		 jb	 SHORT $LN123@OnRenderCo
  00576	c7 45 a8 ff 00
	00 00		 mov	 DWORD PTR _dwR$1$[ebp], 255 ; 000000ffH
  0057d	eb 2d		 jmp	 SHORT $LN122@OnRenderCo
$LN123@OnRenderCo:
  0057f	0f 2f c8	 comiss	 xmm1, xmm0
  00582	72 09		 jb	 SHORT $LN121@OnRenderCo
  00584	c7 45 a8 00 00
	00 00		 mov	 DWORD PTR _dwR$1$[ebp], 0
  0058b	eb 1f		 jmp	 SHORT $LN122@OnRenderCo
$LN121@OnRenderCo:
  0058d	f3 0f 59 05 00
	00 00 00	 mulss	 xmm0, DWORD PTR __real@437f0000
  00595	f3 0f 58 c2	 addss	 xmm0, xmm2
  00599	e8 00 00 00 00	 call	 __ftoui3
  0059e	f3 0f 10 15 00
	00 00 00	 movss	 xmm2, DWORD PTR __real@3f000000
  005a6	0f 57 c9	 xorps	 xmm1, xmm1
  005a9	89 45 a8	 mov	 DWORD PTR _dwR$1$[ebp], eax
$LN122@OnRenderCo:

; 932  :     DWORD dwG = g >= 1.0f ? 0xff : g <= 0.0f ? 0x00 : (DWORD) (g * 255.0f + 0.5f);

  005ac	f3 0f 10 47 08	 movss	 xmm0, DWORD PTR [edi+8]
  005b1	0f 2f 05 00 00
	00 00		 comiss	 xmm0, DWORD PTR __real@3f800000
  005b8	72 09		 jb	 SHORT $LN127@OnRenderCo
  005ba	c7 45 ac ff 00
	00 00		 mov	 DWORD PTR _dwG$1$[ebp], 255 ; 000000ffH
  005c1	eb 22		 jmp	 SHORT $LN126@OnRenderCo
$LN127@OnRenderCo:
  005c3	0f 2f c8	 comiss	 xmm1, xmm0
  005c6	72 09		 jb	 SHORT $LN125@OnRenderCo
  005c8	c7 45 ac 00 00
	00 00		 mov	 DWORD PTR _dwG$1$[ebp], 0
  005cf	eb 14		 jmp	 SHORT $LN126@OnRenderCo
$LN125@OnRenderCo:
  005d1	f3 0f 59 05 00
	00 00 00	 mulss	 xmm0, DWORD PTR __real@437f0000
  005d9	f3 0f 58 c2	 addss	 xmm0, xmm2
  005dd	e8 00 00 00 00	 call	 __ftoui3
  005e2	89 45 ac	 mov	 DWORD PTR _dwG$1$[ebp], eax
$LN126@OnRenderCo:

; 933  :     DWORD dwB = b >= 1.0f ? 0xff : b <= 0.0f ? 0x00 : (DWORD) (b * 255.0f + 0.5f);

  005e5	f3 0f 10 47 0c	 movss	 xmm0, DWORD PTR [edi+12]
  005ea	0f 57 c9	 xorps	 xmm1, xmm1
  005ed	0f 2f 05 00 00
	00 00		 comiss	 xmm0, DWORD PTR __real@3f800000
  005f4	72 09		 jb	 SHORT $LN131@OnRenderCo
  005f6	c7 45 a4 ff 00
	00 00		 mov	 DWORD PTR _dwB$1$[ebp], 255 ; 000000ffH
  005fd	eb 29		 jmp	 SHORT $LN130@OnRenderCo
$LN131@OnRenderCo:
  005ff	0f 2f c8	 comiss	 xmm1, xmm0
  00602	72 09		 jb	 SHORT $LN129@OnRenderCo
  00604	c7 45 a4 00 00
	00 00		 mov	 DWORD PTR _dwB$1$[ebp], 0
  0060b	eb 1b		 jmp	 SHORT $LN130@OnRenderCo
$LN129@OnRenderCo:
  0060d	f3 0f 59 05 00
	00 00 00	 mulss	 xmm0, DWORD PTR __real@437f0000
  00615	f3 0f 58 05 00
	00 00 00	 addss	 xmm0, DWORD PTR __real@3f000000
  0061d	e8 00 00 00 00	 call	 __ftoui3
  00622	89 45 a4	 mov	 DWORD PTR _dwB$1$[ebp], eax
  00625	0f 57 c9	 xorps	 xmm1, xmm1
$LN130@OnRenderCo:

; 934  :     DWORD dwA = a >= 1.0f ? 0xff : a <= 0.0f ? 0x00 : (DWORD) (a * 255.0f + 0.5f);

  00628	f3 0f 10 47 10	 movss	 xmm0, DWORD PTR [edi+16]
  0062d	0f 2f 05 00 00
	00 00		 comiss	 xmm0, DWORD PTR __real@3f800000
  00634	72 07		 jb	 SHORT $LN135@OnRenderCo
  00636	b8 ff 00 00 00	 mov	 eax, 255		; 000000ffH
  0063b	eb 1e		 jmp	 SHORT $LN134@OnRenderCo
$LN135@OnRenderCo:
  0063d	0f 2f c8	 comiss	 xmm1, xmm0
  00640	72 04		 jb	 SHORT $LN133@OnRenderCo
  00642	33 c0		 xor	 eax, eax
  00644	eb 15		 jmp	 SHORT $LN134@OnRenderCo
$LN133@OnRenderCo:
  00646	f3 0f 59 05 00
	00 00 00	 mulss	 xmm0, DWORD PTR __real@437f0000
  0064e	f3 0f 58 05 00
	00 00 00	 addss	 xmm0, DWORD PTR __real@3f000000
  00656	e8 00 00 00 00	 call	 __ftoui3
$LN134@OnRenderCo:

; 936  :     return (dwA << 24) | (dwR << 16) | (dwG << 8) | dwB;

  0065b	c1 e0 08	 shl	 eax, 8
  0065e	0b 45 a8	 or	 eax, DWORD PTR _dwR$1$[ebp]
  00661	c1 e0 08	 shl	 eax, 8
  00664	0b 45 ac	 or	 eax, DWORD PTR _dwG$1$[ebp]
  00667	c1 e0 08	 shl	 eax, 8
  0066a	0b 45 a4	 or	 eax, DWORD PTR _dwB$1$[ebp]
; File C:\Users\murat\Desktop\Siveps2-1-99-Project\source\client\Client\EterLib\GrpImageInstance.cpp

; 113  : 				vertex.diffuse = m_DiffuseColor;

  0066d	89 85 70 ff ff
	ff		 mov	 DWORD PTR _vertex$6[ebp+12], eax
; File C:\Program Files (x86)\Microsoft Visual Studio\2019\Professional\VC\Tools\MSVC\14.29.30133\include\vector

; 743  :         if (_Mylast != _My_data._Myend) {

  00673	3b 75 94	 cmp	 esi, DWORD PTR _vertices$7[ebp+8]
  00676	74 1f		 je	 SHORT $LN140@OnRenderCo
; File C:\Program Files (x86)\Microsoft Visual Studio\2019\Professional\VC\Tools\MSVC\14.29.30133\include\xmemory

; 714  :             ::new (_Voidify_iter(_Ptr)) _Objty(_STD forward<_Types>(_Args)...);

  00678	0f 10 85 64 ff
	ff ff		 movups	 xmm0, XMMWORD PTR _vertex$6[ebp]
  0067f	0f 11 06	 movups	 XMMWORD PTR [esi], xmm0
  00682	f3 0f 7e 85 74
	ff ff ff	 movq	 xmm0, QWORD PTR _vertex$6[ebp+16]
  0068a	66 0f d6 46 10	 movq	 QWORD PTR [esi+16], xmm0
; File C:\Program Files (x86)\Microsoft Visual Studio\2019\Professional\VC\Tools\MSVC\14.29.30133\include\vector

; 729  :         ++_Mylast;

  0068f	83 c6 18	 add	 esi, 24			; 00000018H
  00692	89 75 90	 mov	 DWORD PTR _vertices$7[ebp+4], esi

; 744  :             return _Emplace_back_with_unused_capacity(_STD forward<_Valty>(_Val)...);

  00695	eb 13		 jmp	 SHORT $LN3@OnRenderCo
$LN140@OnRenderCo:

; 747  :         _Ty& _Result = *_Emplace_reallocate(_Mylast, _STD forward<_Valty>(_Val)...);

  00697	8d 85 64 ff ff
	ff		 lea	 eax, DWORD PTR _vertex$6[ebp]
  0069d	50		 push	 eax
  0069e	56		 push	 esi
  0069f	8d 4d 8c	 lea	 ecx, DWORD PTR _vertices$7[ebp]
  006a2	e8 00 00 00 00	 call	 ??$_Emplace_reallocate@ABUSPDTVertex@@@?$vector@USPDTVertex@@V?$allocator@USPDTVertex@@@std@@@std@@QAEPAUSPDTVertex@@QAU2@ABU2@@Z ; std::vector<SPDTVertex,std::allocator<SPDTVertex> >::_Emplace_reallocate<SPDTVertex const &>
  006a7	8b 75 90	 mov	 esi, DWORD PTR _vertices$7[ebp+4]
$LN3@OnRenderCo:
; File C:\Users\murat\Desktop\Siveps2-1-99-Project\source\client\Client\EterLib\GrpImageInstance.cpp

; 106  : 			for (int j = 0; j < iTriCount; ++j)

  006aa	8b 85 5c ff ff
	ff		 mov	 eax, DWORD PTR _j$1$[ebp]
  006b0	40		 inc	 eax
  006b1	89 85 5c ff ff
	ff		 mov	 DWORD PTR _j$1$[ebp], eax
  006b7	3b 45 98	 cmp	 eax, DWORD PTR _iTriCount$1$[ebp]
  006ba	0f 8c 40 fe ff
	ff		 jl	 $LL5@OnRenderCo
  006c0	8b 45 98	 mov	 eax, DWORD PTR _iTriCount$1$[ebp]
$LN4@OnRenderCo:

; 114  : 				vertices.push_back(vertex);
; 115  : 			}
; 116  : 		}
; 117  : 
; 118  : 		if (fLastPercentage > 0.0f)

  006c3	f3 0f 10 9d 58
	ff ff ff	 movss	 xmm3, DWORD PTR _fLastPercentage$1$[ebp]
  006cb	0f 57 e4	 xorps	 xmm4, xmm4
  006ce	0f 2f dc	 comiss	 xmm3, xmm4
  006d1	0f 86 1c 02 00
	00		 jbe	 $LN9@OnRenderCo

; 119  : 		{
; 120  : 			D3DXVECTOR2 * pv2Pos;
; 121  : 			D3DXVECTOR2 * pv2LastPos;
; 122  : 			assert((iTriCount + 8) % 8 >= 0 && (iTriCount + 8) % 8<8);
; 123  : 			assert((iTriCount + 7) % 8 >= 0 && (iTriCount + 7) % 8<8);
; 124  : 			pv2LastPos = &s_v2BoxPos[(iTriCount + 8) % 8];

  006d7	8d 48 08	 lea	 ecx, DWORD PTR [eax+8]
  006da	81 e1 07 00 00
	80		 and	 ecx, -2147483641	; 80000007H
  006e0	79 05		 jns	 SHORT $LN237@OnRenderCo
  006e2	49		 dec	 ecx
  006e3	83 c9 f8	 or	 ecx, -8			; fffffff8H
  006e6	41		 inc	 ecx
$LN237@OnRenderCo:

; 125  : 			pv2Pos = &s_v2BoxPos[(iTriCount + 7) % 8];

  006e7	83 c0 07	 add	 eax, 7
  006ea	25 07 00 00 80	 and	 eax, -2147483641	; 80000007H
  006ef	79 05		 jns	 SHORT $LN238@OnRenderCo
  006f1	48		 dec	 eax
  006f2	83 c8 f8	 or	 eax, -8			; fffffff8H
  006f5	40		 inc	 eax
$LN238@OnRenderCo:

; 126  : 			float fxShit = (pv2LastPos->x - pv2Pos->x) * fLastPercentage + pv2Pos->x;

  006f6	f3 0f 10 04 c5
	00 00 00 00	 movss	 xmm0, DWORD PTR ?s_v2BoxPos@?4??OnRenderCoolTime@CGraphicImageInstance@@UAEXM@Z@4PAUD3DXVECTOR2@@A[eax*8]
  006ff	f3 0f 10 14 cd
	00 00 00 00	 movss	 xmm2, DWORD PTR ?s_v2BoxPos@?4??OnRenderCoolTime@CGraphicImageInstance@@UAEXM@Z@4PAUD3DXVECTOR2@@A[ecx*8]

; 127  : 			float fyShit = (pv2LastPos->y - pv2Pos->y) * fLastPercentage + pv2Pos->y;

  00708	f3 0f 10 0c cd
	04 00 00 00	 movss	 xmm1, DWORD PTR ?s_v2BoxPos@?4??OnRenderCoolTime@CGraphicImageInstance@@UAEXM@Z@4PAUD3DXVECTOR2@@A[ecx*8+4]
  00711	f3 0f 5c d0	 subss	 xmm2, xmm0
  00715	f3 0f 59 d3	 mulss	 xmm2, xmm3
  00719	f3 0f 58 d0	 addss	 xmm2, xmm0
  0071d	f3 0f 10 04 c5
	04 00 00 00	 movss	 xmm0, DWORD PTR ?s_v2BoxPos@?4??OnRenderCoolTime@CGraphicImageInstance@@UAEXM@Z@4PAUD3DXVECTOR2@@A[eax*8+4]
  00726	f3 0f 5c c8	 subss	 xmm1, xmm0
  0072a	f3 0f 59 cb	 mulss	 xmm1, xmm3

; 128  : 			vertex.position = TPosition(fimgWidthHalf * fxShit + fxCenter - 0.5f,

  0072e	f3 0f 10 1d 00
	00 00 00	 movss	 xmm3, DWORD PTR __real@3f000000
  00736	f3 0f 58 c8	 addss	 xmm1, xmm0
  0073a	0f 28 c2	 movaps	 xmm0, xmm2
  0073d	f3 0f 59 45 88	 mulss	 xmm0, DWORD PTR _fimgWidthHalf$1$[ebp]

; 129  : 				fimgHeightHalf * fyShit + fyCenter - 0.5f,
; 130  : 				0.0f);
; 131  : 			vertex.texCoord = TTextureCoordinate(euh * fxShit + euh,

  00742	f3 0f 59 95 7c
	ff ff ff	 mulss	 xmm2, DWORD PTR _euh$1$[ebp]
  0074a	f3 0f 58 45 a0	 addss	 xmm0, DWORD PTR _fxCenter$1$[ebp]
  0074f	f3 0f 58 95 7c
	ff ff ff	 addss	 xmm2, DWORD PTR _euh$1$[ebp]
  00757	f3 0f 5c c3	 subss	 xmm0, xmm3
  0075b	f3 0f 11 95 74
	ff ff ff	 movss	 DWORD PTR _vertex$6[ebp+16], xmm2
  00763	f3 0f 11 85 64
	ff ff ff	 movss	 DWORD PTR _vertex$6[ebp], xmm0
  0076b	0f 28 c1	 movaps	 xmm0, xmm1
  0076e	f3 0f 59 45 84	 mulss	 xmm0, DWORD PTR _fimgHeightHalf$1$[ebp]
  00773	f3 0f 59 4d 9c	 mulss	 xmm1, DWORD PTR _evh$1$[ebp]
  00778	f3 0f 58 45 80	 addss	 xmm0, DWORD PTR _fyCenter$1$[ebp]
  0077d	f3 0f 58 4d 9c	 addss	 xmm1, DWORD PTR _evh$1$[ebp]
  00782	f3 0f 5c c3	 subss	 xmm0, xmm3
  00786	f3 0f 11 8d 78
	ff ff ff	 movss	 DWORD PTR _vertex$6[ebp+20], xmm1
; File C:\Users\murat\Desktop\Siveps2-1-99-Project\source\client\extern\include\d3dx8math.inl

; 931  :     DWORD dwR = r >= 1.0f ? 0xff : r <= 0.0f ? 0x00 : (DWORD) (r * 255.0f + 0.5f);

  0078e	f3 0f 10 4f 04	 movss	 xmm1, DWORD PTR [edi+4]
; File C:\Users\murat\Desktop\Siveps2-1-99-Project\source\client\Client\EterLib\GrpImageInstance.cpp

; 128  : 			vertex.position = TPosition(fimgWidthHalf * fxShit + fxCenter - 0.5f,

  00793	f3 0f 11 85 68
	ff ff ff	 movss	 DWORD PTR _vertex$6[ebp+4], xmm0
; File C:\Users\murat\Desktop\Siveps2-1-99-Project\source\client\extern\include\d3dx8math.inl

; 931  :     DWORD dwR = r >= 1.0f ? 0xff : r <= 0.0f ? 0x00 : (DWORD) (r * 255.0f + 0.5f);

  0079b	f3 0f 10 05 00
	00 00 00	 movss	 xmm0, DWORD PTR __real@3f800000
  007a3	0f 2f c8	 comiss	 xmm1, xmm0
  007a6	72 09		 jb	 SHORT $LN154@OnRenderCo
  007a8	c7 45 9c ff 00
	00 00		 mov	 DWORD PTR _dwR$1$[ebp], 255 ; 000000ffH
  007af	eb 38		 jmp	 SHORT $LN153@OnRenderCo
$LN154@OnRenderCo:
  007b1	0f 2f e1	 comiss	 xmm4, xmm1
  007b4	72 09		 jb	 SHORT $LN152@OnRenderCo
  007b6	c7 45 9c 00 00
	00 00		 mov	 DWORD PTR _dwR$1$[ebp], 0
  007bd	eb 2a		 jmp	 SHORT $LN153@OnRenderCo
$LN152@OnRenderCo:
  007bf	f3 0f 59 0d 00
	00 00 00	 mulss	 xmm1, DWORD PTR __real@437f0000
  007c7	f3 0f 58 cb	 addss	 xmm1, xmm3
  007cb	0f 28 c1	 movaps	 xmm0, xmm1
  007ce	e8 00 00 00 00	 call	 __ftoui3
  007d3	f3 0f 10 1d 00
	00 00 00	 movss	 xmm3, DWORD PTR __real@3f000000
  007db	0f 57 e4	 xorps	 xmm4, xmm4
  007de	f3 0f 10 05 00
	00 00 00	 movss	 xmm0, DWORD PTR __real@3f800000
  007e6	89 45 9c	 mov	 DWORD PTR _dwR$1$[ebp], eax
$LN153@OnRenderCo:

; 932  :     DWORD dwG = g >= 1.0f ? 0xff : g <= 0.0f ? 0x00 : (DWORD) (g * 255.0f + 0.5f);

  007e9	f3 0f 10 4f 08	 movss	 xmm1, DWORD PTR [edi+8]
  007ee	0f 2f c8	 comiss	 xmm1, xmm0
  007f1	72 09		 jb	 SHORT $LN158@OnRenderCo
  007f3	c7 45 a0 ff 00
	00 00		 mov	 DWORD PTR _dwG$1$[ebp], 255 ; 000000ffH
  007fa	eb 2d		 jmp	 SHORT $LN157@OnRenderCo
$LN158@OnRenderCo:
  007fc	0f 2f e1	 comiss	 xmm4, xmm1
  007ff	72 09		 jb	 SHORT $LN156@OnRenderCo
  00801	c7 45 a0 00 00
	00 00		 mov	 DWORD PTR _dwG$1$[ebp], 0
  00808	eb 1f		 jmp	 SHORT $LN157@OnRenderCo
$LN156@OnRenderCo:
  0080a	f3 0f 59 0d 00
	00 00 00	 mulss	 xmm1, DWORD PTR __real@437f0000
  00812	f3 0f 58 cb	 addss	 xmm1, xmm3
  00816	0f 28 c1	 movaps	 xmm0, xmm1
  00819	e8 00 00 00 00	 call	 __ftoui3
  0081e	f3 0f 10 05 00
	00 00 00	 movss	 xmm0, DWORD PTR __real@3f800000
  00826	89 45 a0	 mov	 DWORD PTR _dwG$1$[ebp], eax
$LN157@OnRenderCo:

; 933  :     DWORD dwB = b >= 1.0f ? 0xff : b <= 0.0f ? 0x00 : (DWORD) (b * 255.0f + 0.5f);

  00829	f3 0f 10 4f 0c	 movss	 xmm1, DWORD PTR [edi+12]
  0082e	0f 2f c8	 comiss	 xmm1, xmm0
  00831	0f 57 c0	 xorps	 xmm0, xmm0
  00834	72 09		 jb	 SHORT $LN162@OnRenderCo
  00836	c7 45 a4 ff 00
	00 00		 mov	 DWORD PTR _dwB$1$[ebp], 255 ; 000000ffH
  0083d	eb 2c		 jmp	 SHORT $LN161@OnRenderCo
$LN162@OnRenderCo:
  0083f	0f 2f c1	 comiss	 xmm0, xmm1
  00842	72 09		 jb	 SHORT $LN160@OnRenderCo
  00844	c7 45 a4 00 00
	00 00		 mov	 DWORD PTR _dwB$1$[ebp], 0
  0084b	eb 1e		 jmp	 SHORT $LN161@OnRenderCo
$LN160@OnRenderCo:
  0084d	f3 0f 59 0d 00
	00 00 00	 mulss	 xmm1, DWORD PTR __real@437f0000
  00855	f3 0f 58 0d 00
	00 00 00	 addss	 xmm1, DWORD PTR __real@3f000000
  0085d	0f 28 c1	 movaps	 xmm0, xmm1
  00860	e8 00 00 00 00	 call	 __ftoui3
  00865	89 45 a4	 mov	 DWORD PTR _dwB$1$[ebp], eax
  00868	0f 57 c0	 xorps	 xmm0, xmm0
$LN161@OnRenderCo:

; 934  :     DWORD dwA = a >= 1.0f ? 0xff : a <= 0.0f ? 0x00 : (DWORD) (a * 255.0f + 0.5f);

  0086b	f3 0f 10 4f 10	 movss	 xmm1, DWORD PTR [edi+16]
  00870	0f 2f 0d 00 00
	00 00		 comiss	 xmm1, DWORD PTR __real@3f800000
  00877	72 07		 jb	 SHORT $LN166@OnRenderCo
  00879	b8 ff 00 00 00	 mov	 eax, 255		; 000000ffH
  0087e	eb 21		 jmp	 SHORT $LN165@OnRenderCo
$LN166@OnRenderCo:
  00880	0f 2f c1	 comiss	 xmm0, xmm1
  00883	72 04		 jb	 SHORT $LN164@OnRenderCo
  00885	33 c0		 xor	 eax, eax
  00887	eb 18		 jmp	 SHORT $LN165@OnRenderCo
$LN164@OnRenderCo:
  00889	f3 0f 59 0d 00
	00 00 00	 mulss	 xmm1, DWORD PTR __real@437f0000
  00891	f3 0f 58 0d 00
	00 00 00	 addss	 xmm1, DWORD PTR __real@3f000000
  00899	0f 28 c1	 movaps	 xmm0, xmm1
  0089c	e8 00 00 00 00	 call	 __ftoui3
$LN165@OnRenderCo:

; 936  :     return (dwA << 24) | (dwR << 16) | (dwG << 8) | dwB;

  008a1	c1 e0 08	 shl	 eax, 8
  008a4	0b 45 9c	 or	 eax, DWORD PTR _dwR$1$[ebp]
  008a7	c1 e0 08	 shl	 eax, 8
  008aa	0b 45 a0	 or	 eax, DWORD PTR _dwG$1$[ebp]
  008ad	c1 e0 08	 shl	 eax, 8
  008b0	0b 45 a4	 or	 eax, DWORD PTR _dwB$1$[ebp]
; File C:\Users\murat\Desktop\Siveps2-1-99-Project\source\client\Client\EterLib\GrpImageInstance.cpp

; 133  : 			vertex.diffuse = m_DiffuseColor;

  008b3	89 85 70 ff ff
	ff		 mov	 DWORD PTR _vertex$6[ebp+12], eax
; File C:\Program Files (x86)\Microsoft Visual Studio\2019\Professional\VC\Tools\MSVC\14.29.30133\include\vector

; 743  :         if (_Mylast != _My_data._Myend) {

  008b9	3b 75 94	 cmp	 esi, DWORD PTR _vertices$7[ebp+8]
  008bc	74 1f		 je	 SHORT $LN171@OnRenderCo
; File C:\Program Files (x86)\Microsoft Visual Studio\2019\Professional\VC\Tools\MSVC\14.29.30133\include\xmemory

; 714  :             ::new (_Voidify_iter(_Ptr)) _Objty(_STD forward<_Types>(_Args)...);

  008be	0f 10 85 64 ff
	ff ff		 movups	 xmm0, XMMWORD PTR _vertex$6[ebp]
  008c5	0f 11 06	 movups	 XMMWORD PTR [esi], xmm0
  008c8	f3 0f 7e 85 74
	ff ff ff	 movq	 xmm0, QWORD PTR _vertex$6[ebp+16]
  008d0	66 0f d6 46 10	 movq	 QWORD PTR [esi+16], xmm0
; File C:\Program Files (x86)\Microsoft Visual Studio\2019\Professional\VC\Tools\MSVC\14.29.30133\include\vector

; 729  :         ++_Mylast;

  008d5	83 c6 18	 add	 esi, 24			; 00000018H
  008d8	89 75 90	 mov	 DWORD PTR _vertices$7[ebp+4], esi

; 744  :             return _Emplace_back_with_unused_capacity(_STD forward<_Valty>(_Val)...);

  008db	eb 13		 jmp	 SHORT $LN170@OnRenderCo
$LN171@OnRenderCo:

; 747  :         _Ty& _Result = *_Emplace_reallocate(_Mylast, _STD forward<_Valty>(_Val)...);

  008dd	8d 85 64 ff ff
	ff		 lea	 eax, DWORD PTR _vertex$6[ebp]
  008e3	50		 push	 eax
  008e4	56		 push	 esi
  008e5	8d 4d 8c	 lea	 ecx, DWORD PTR _vertices$7[ebp]
  008e8	e8 00 00 00 00	 call	 ??$_Emplace_reallocate@ABUSPDTVertex@@@?$vector@USPDTVertex@@V?$allocator@USPDTVertex@@@std@@@std@@QAEPAUSPDTVertex@@QAU2@ABU2@@Z ; std::vector<SPDTVertex,std::allocator<SPDTVertex> >::_Emplace_reallocate<SPDTVertex const &>
  008ed	8b 75 90	 mov	 esi, DWORD PTR _vertices$7[ebp+4]
$LN170@OnRenderCo:
; File C:\Users\murat\Desktop\Siveps2-1-99-Project\source\client\Client\EterLib\GrpImageInstance.cpp

; 135  : 			++iTriCount;

  008f0	ff 45 98	 inc	 DWORD PTR _iTriCount$1$[ebp]
$LN9@OnRenderCo:
; File C:\Program Files (x86)\Microsoft Visual Studio\2019\Professional\VC\Tools\MSVC\14.29.30133\include\vector

; 1544 :         return _My_data._Myfirst == _My_data._Mylast;

  008f3	8b 7d 8c	 mov	 edi, DWORD PTR _vertices$7[ebp]
  008f6	3b fe		 cmp	 edi, esi
; File C:\Users\murat\Desktop\Siveps2-1-99-Project\source\client\Client\EterLib\GrpImageInstance.cpp

; 138  : 		if (vertices.empty())

  008f8	75 65		 jne	 SHORT $LN10@OnRenderCo
; File C:\Program Files (x86)\Microsoft Visual Studio\2019\Professional\VC\Tools\MSVC\14.29.30133\include\vector

; 1763 :         if (_Myfirst) { // destroy and deallocate old array

  008fa	85 ff		 test	 edi, edi
  008fc	74 44		 je	 SHORT $LN211@OnRenderCo

; 1764 :             _Destroy(_Myfirst, _Mylast);
; 1765 :             _Getal().deallocate(_Myfirst, static_cast<size_type>(_Myend - _Myfirst));

  008fe	8b 4d 94	 mov	 ecx, DWORD PTR _vertices$7[ebp+8]
  00901	b8 ab aa aa 2a	 mov	 eax, 715827883		; 2aaaaaabH
  00906	2b cf		 sub	 ecx, edi
  00908	f7 e9		 imul	 ecx
  0090a	c1 fa 02	 sar	 edx, 2
  0090d	8b c2		 mov	 eax, edx
  0090f	c1 e8 1f	 shr	 eax, 31			; 0000001fH
  00912	03 c2		 add	 eax, edx
; File C:\Program Files (x86)\Microsoft Visual Studio\2019\Professional\VC\Tools\MSVC\14.29.30133\include\xmemory

; 835  :         _Deallocate<_New_alignof<_Ty>>(_Ptr, sizeof(_Ty) * _Count);

  00914	8d 0c 40	 lea	 ecx, DWORD PTR [eax+eax*2]
  00917	8b c7		 mov	 eax, edi
  00919	c1 e1 03	 shl	 ecx, 3

; 260  :         if (_Bytes >= _Big_allocation_threshold) { // boost the alignment of big allocations to help autovectorization

  0091c	81 f9 00 10 00
	00		 cmp	 ecx, 4096		; 00001000H
  00922	72 14		 jb	 SHORT $LN227@OnRenderCo

; 158  :     const uintptr_t _Ptr_container   = _Ptr_user[-1];

  00924	8b 7f fc	 mov	 edi, DWORD PTR [edi-4]
  00927	83 c1 23	 add	 ecx, 35			; 00000023H
  0092a	2b c7		 sub	 eax, edi

; 159  : 
; 160  :     // If the following asserts, it likely means that we are performing
; 161  :     // an aligned delete on memory coming from an unaligned allocation.
; 162  :     _STL_ASSERT(_Ptr_user[-2] == _Big_allocation_sentinel, "invalid argument");
; 163  : 
; 164  :     // Extra paranoia on aligned allocation/deallocation; ensure _Ptr_container is
; 165  :     // in range [_Min_back_shift, _Non_user_size]
; 166  : #ifdef _DEBUG
; 167  :     constexpr uintptr_t _Min_back_shift = 2 * sizeof(void*);
; 168  : #else // ^^^ _DEBUG ^^^ // vvv !_DEBUG vvv
; 169  :     constexpr uintptr_t _Min_back_shift = sizeof(void*);
; 170  : #endif // _DEBUG
; 171  :     const uintptr_t _Back_shift = reinterpret_cast<uintptr_t>(_Ptr) - _Ptr_container;
; 172  :     _STL_VERIFY(_Back_shift >= _Min_back_shift && _Back_shift <= _Non_user_size, "invalid argument");

  0092c	83 c0 fc	 add	 eax, -4			; fffffffcH
  0092f	83 f8 1f	 cmp	 eax, 31			; 0000001fH
  00932	0f 87 00 01 00
	00		 ja	 $LN224@OnRenderCo
$LN227@OnRenderCo:
; File C:\Users\murat\Desktop\Siveps2-1-99-Project\source\client\Client\EterLib\GrpImageInstance.cpp

; 156  : }

  00938	51		 push	 ecx
  00939	57		 push	 edi
  0093a	e8 00 00 00 00	 call	 ??3@YAXPAXI@Z		; operator delete
  0093f	83 c4 08	 add	 esp, 8
$LN211@OnRenderCo:
  00942	8b 4d f4	 mov	 ecx, DWORD PTR __$EHRec$[ebp]
  00945	64 89 0d 00 00
	00 00		 mov	 DWORD PTR fs:0, ecx
  0094c	59		 pop	 ecx
  0094d	5f		 pop	 edi
  0094e	5e		 pop	 esi
  0094f	8b 4d f0	 mov	 ecx, DWORD PTR __$ArrayPad$[ebp]
  00952	33 cd		 xor	 ecx, ebp
  00954	e8 00 00 00 00	 call	 @__security_check_cookie@4
  00959	8b e5		 mov	 esp, ebp
  0095b	5d		 pop	 ebp
  0095c	c2 04 00	 ret	 4
$LN10@OnRenderCo:

; 139  : 			return;
; 140  : 
; 141  : 		STATEMANAGER.SetRenderState(D3DRS_CULLMODE, D3DCULL_CW);

  0095f	8b 0d 00 00 00
	00		 mov	 ecx, DWORD PTR ?ms_singleton@?$CSingleton@VCStateManager@@@@0PAVCStateManager@@A ; CSingleton<CStateManager>::ms_singleton
  00965	6a 02		 push	 2
  00967	6a 16		 push	 22			; 00000016H
  00969	e8 00 00 00 00	 call	 ?SetRenderState@CStateManager@@QAEXW4_D3DRENDERSTATETYPE@@K@Z ; CStateManager::SetRenderState
; File C:\Program Files (x86)\Microsoft Visual Studio\2019\Professional\VC\Tools\MSVC\14.29.30133\include\vector

; 1549 :         return static_cast<size_type>(_My_data._Mylast - _My_data._Myfirst);

  0096e	2b f7		 sub	 esi, edi
  00970	b8 ab aa aa 2a	 mov	 eax, 715827883		; 2aaaaaabH
  00975	f7 ee		 imul	 esi
  00977	c1 fa 02	 sar	 edx, 2
  0097a	8b c2		 mov	 eax, edx
  0097c	c1 e8 1f	 shr	 eax, 31			; 0000001fH
  0097f	03 c2		 add	 eax, edx
; File C:\Users\murat\Desktop\Siveps2-1-99-Project\source\client\Client\EterLib\GrpImageInstance.cpp

; 142  : 		if (CGraphicBase::SetPDTStream(&vertices[0], vertices.size()))

  00981	50		 push	 eax
  00982	57		 push	 edi
  00983	e8 00 00 00 00	 call	 ?SetPDTStream@CGraphicBase@@SA_NPAUSPDTVertex@@I@Z ; CGraphicBase::SetPDTStream
  00988	83 c4 08	 add	 esp, 8
  0098b	84 c0		 test	 al, al
  0098d	74 54		 je	 SHORT $LN11@OnRenderCo

; 143  : 		{
; 144  : 			CGraphicBase::SetDefaultIndexBuffer(CGraphicBase::DEFAULT_IB_FILL_TRI);

  0098f	6a 04		 push	 4
  00991	e8 00 00 00 00	 call	 ?SetDefaultIndexBuffer@CGraphicBase@@SAXI@Z ; CGraphicBase::SetDefaultIndexBuffer

; 145  : 			STATEMANAGER.SetTexture(0, pTexture->GetD3DTexture());

  00996	8b 8d 60 ff ff
	ff		 mov	 ecx, DWORD PTR _pTexture$1$[ebp]
  0099c	83 c4 04	 add	 esp, 4
  0099f	e8 00 00 00 00	 call	 ?GetD3DTexture@CGraphicTexture@@QBEPAUIDirect3DTexture8@@XZ ; CGraphicTexture::GetD3DTexture
  009a4	8b 0d 00 00 00
	00		 mov	 ecx, DWORD PTR ?ms_singleton@?$CSingleton@VCStateManager@@@@0PAVCStateManager@@A ; CSingleton<CStateManager>::ms_singleton
  009aa	50		 push	 eax
  009ab	6a 00		 push	 0
  009ad	e8 00 00 00 00	 call	 ?SetTexture@CStateManager@@QAEXKPAUIDirect3DBaseTexture8@@@Z ; CStateManager::SetTexture

; 146  : 			STATEMANAGER.SetTexture(1, NULL);

  009b2	8b 0d 00 00 00
	00		 mov	 ecx, DWORD PTR ?ms_singleton@?$CSingleton@VCStateManager@@@@0PAVCStateManager@@A ; CSingleton<CStateManager>::ms_singleton
  009b8	6a 00		 push	 0
  009ba	6a 01		 push	 1
  009bc	e8 00 00 00 00	 call	 ?SetTexture@CStateManager@@QAEXKPAUIDirect3DBaseTexture8@@@Z ; CStateManager::SetTexture

; 147  : #ifdef ENABLE_D3DX9
; 148  : 			STATEMANAGER.SetFVF(D3DFVF_XYZ | D3DFVF_DIFFUSE | D3DFVF_TEX1);
; 149  : #else
; 150  : 			STATEMANAGER.SetVertexShader(D3DFVF_XYZ | D3DFVF_DIFFUSE | D3DFVF_TEX1);

  009c1	8b 0d 00 00 00
	00		 mov	 ecx, DWORD PTR ?ms_singleton@?$CSingleton@VCStateManager@@@@0PAVCStateManager@@A ; CSingleton<CStateManager>::ms_singleton
  009c7	68 42 01 00 00	 push	 322			; 00000142H
  009cc	e8 00 00 00 00	 call	 ?SetVertexShader@CStateManager@@QAEXK@Z ; CStateManager::SetVertexShader

; 151  : #endif
; 152  : 			STATEMANAGER.DrawPrimitive(D3DPT_TRIANGLEFAN, 0, iTriCount);

  009d1	ff 75 98	 push	 DWORD PTR _iTriCount$1$[ebp]
  009d4	8b 0d 00 00 00
	00		 mov	 ecx, DWORD PTR ?ms_singleton@?$CSingleton@VCStateManager@@@@0PAVCStateManager@@A ; CSingleton<CStateManager>::ms_singleton
  009da	6a 00		 push	 0
  009dc	6a 06		 push	 6
  009de	e8 00 00 00 00	 call	 ?DrawPrimitive@CStateManager@@QAEJW4_D3DPRIMITIVETYPE@@II@Z ; CStateManager::DrawPrimitive
$LN11@OnRenderCo:

; 153  : 		}
; 154  : 		STATEMANAGER.SetRenderState(D3DRS_CULLMODE, D3DCULL_CW);

  009e3	8b 0d 00 00 00
	00		 mov	 ecx, DWORD PTR ?ms_singleton@?$CSingleton@VCStateManager@@@@0PAVCStateManager@@A ; CSingleton<CStateManager>::ms_singleton
  009e9	6a 02		 push	 2
  009eb	6a 16		 push	 22			; 00000016H
  009ed	e8 00 00 00 00	 call	 ?SetRenderState@CStateManager@@QAEXW4_D3DRENDERSTATETYPE@@K@Z ; CStateManager::SetRenderState
; File C:\Program Files (x86)\Microsoft Visual Studio\2019\Professional\VC\Tools\MSVC\14.29.30133\include\vector

; 1763 :         if (_Myfirst) { // destroy and deallocate old array

  009f2	85 ff		 test	 edi, edi
  009f4	0f 84 48 ff ff
	ff		 je	 $LN211@OnRenderCo

; 1764 :             _Destroy(_Myfirst, _Mylast);
; 1765 :             _Getal().deallocate(_Myfirst, static_cast<size_type>(_Myend - _Myfirst));

  009fa	8b 4d 94	 mov	 ecx, DWORD PTR _vertices$7[ebp+8]
  009fd	b8 ab aa aa 2a	 mov	 eax, 715827883		; 2aaaaaabH
  00a02	2b cf		 sub	 ecx, edi
  00a04	f7 e9		 imul	 ecx
  00a06	c1 fa 02	 sar	 edx, 2
  00a09	8b c2		 mov	 eax, edx
  00a0b	c1 e8 1f	 shr	 eax, 31			; 0000001fH
  00a0e	03 c2		 add	 eax, edx
; File C:\Program Files (x86)\Microsoft Visual Studio\2019\Professional\VC\Tools\MSVC\14.29.30133\include\xmemory

; 835  :         _Deallocate<_New_alignof<_Ty>>(_Ptr, sizeof(_Ty) * _Count);

  00a10	8d 0c 40	 lea	 ecx, DWORD PTR [eax+eax*2]
  00a13	8b c7		 mov	 eax, edi
  00a15	c1 e1 03	 shl	 ecx, 3

; 260  :         if (_Bytes >= _Big_allocation_threshold) { // boost the alignment of big allocations to help autovectorization

  00a18	81 f9 00 10 00
	00		 cmp	 ecx, 4096		; 00001000H
  00a1e	0f 82 14 ff ff
	ff		 jb	 $LN227@OnRenderCo

; 158  :     const uintptr_t _Ptr_container   = _Ptr_user[-1];

  00a24	8b 7f fc	 mov	 edi, DWORD PTR [edi-4]
  00a27	83 c1 23	 add	 ecx, 35			; 00000023H
  00a2a	2b c7		 sub	 eax, edi

; 159  : 
; 160  :     // If the following asserts, it likely means that we are performing
; 161  :     // an aligned delete on memory coming from an unaligned allocation.
; 162  :     _STL_ASSERT(_Ptr_user[-2] == _Big_allocation_sentinel, "invalid argument");
; 163  : 
; 164  :     // Extra paranoia on aligned allocation/deallocation; ensure _Ptr_container is
; 165  :     // in range [_Min_back_shift, _Non_user_size]
; 166  : #ifdef _DEBUG
; 167  :     constexpr uintptr_t _Min_back_shift = 2 * sizeof(void*);
; 168  : #else // ^^^ _DEBUG ^^^ // vvv !_DEBUG vvv
; 169  :     constexpr uintptr_t _Min_back_shift = sizeof(void*);
; 170  : #endif // _DEBUG
; 171  :     const uintptr_t _Back_shift = reinterpret_cast<uintptr_t>(_Ptr) - _Ptr_container;
; 172  :     _STL_VERIFY(_Back_shift >= _Min_back_shift && _Back_shift <= _Non_user_size, "invalid argument");

  00a2c	83 c0 fc	 add	 eax, -4			; fffffffcH
  00a2f	83 f8 1f	 cmp	 eax, 31			; 0000001fH
  00a32	0f 86 00 ff ff
	ff		 jbe	 $LN227@OnRenderCo
$LN224@OnRenderCo:
  00a38	e8 00 00 00 00	 call	 __invalid_parameter_noinfo_noreturn
$LN239@OnRenderCo:
  00a3d	cc		 int	 3
_TEXT	ENDS
;	COMDAT text$x
text$x	SEGMENT
__unwindfunclet$?OnRenderCoolTime@CGraphicImageInstance@@UAEXM@Z$1:
  00000	8d 4d 8c	 lea	 ecx, DWORD PTR _vertices$7[ebp]
  00003	e9 00 00 00 00	 jmp	 ??1?$vector@USPDTVertex@@V?$allocator@USPDTVertex@@@std@@@std@@QAE@XZ ; std::vector<SPDTVertex,std::allocator<SPDTVertex> >::~vector<SPDTVertex,std::allocator<SPDTVertex> >
  00008	cc		 int	 3
  00009	cc		 int	 3
  0000a	cc		 int	 3
  0000b	cc		 int	 3
  0000c	cc		 int	 3
__ehhandler$?OnRenderCoolTime@CGraphicImageInstance@@UAEXM@Z:
  0000d	90		 npad	 1
  0000e	90		 npad	 1
  0000f	8b 54 24 08	 mov	 edx, DWORD PTR [esp+8]
  00013	8d 42 0c	 lea	 eax, DWORD PTR [edx+12]
  00016	8b 8a 58 ff ff
	ff		 mov	 ecx, DWORD PTR [edx-168]
  0001c	33 c8		 xor	 ecx, eax
  0001e	e8 00 00 00 00	 call	 @__security_check_cookie@4
  00023	8b 4a fc	 mov	 ecx, DWORD PTR [edx-4]
  00026	33 c8		 xor	 ecx, eax
  00028	e8 00 00 00 00	 call	 @__security_check_cookie@4
  0002d	b8 00 00 00 00	 mov	 eax, OFFSET __ehfuncinfo$?OnRenderCoolTime@CGraphicImageInstance@@UAEXM@Z
  00032	e9 00 00 00 00	 jmp	 ___CxxFrameHandler3
text$x	ENDS
?OnRenderCoolTime@CGraphicImageInstance@@UAEXM@Z ENDP	; CGraphicImageInstance::OnRenderCoolTime
; Function compile flags: /Ogtp
; File C:\Users\murat\Desktop\Siveps2-1-99-Project\source\client\Client\EterLib\GrpImageInstance.cpp
;	COMDAT ?RenderCoolTime@CGraphicImageInstance@@QAEXM@Z
_TEXT	SEGMENT
_fCoolTime$ = 8						; size = 4
?RenderCoolTime@CGraphicImageInstance@@QAEXM@Z PROC	; CGraphicImageInstance::RenderCoolTime, COMDAT
; _this$ = ecx

; 19   : {

  00000	55		 push	 ebp
  00001	8b ec		 mov	 ebp, esp
  00003	56		 push	 esi
  00004	8b f1		 mov	 esi, ecx

; 20   : 	if (IsEmpty())

  00006	e8 00 00 00 00	 call	 ?IsEmpty@CGraphicImageInstance@@QBE_NXZ ; CGraphicImageInstance::IsEmpty
  0000b	84 c0		 test	 al, al
  0000d	75 12		 jne	 SHORT $LN1@RenderCool

; 21   : 		return;
; 22   : 
; 23   : 	assert(!IsEmpty());
; 24   : 
; 25   : 	OnRenderCoolTime(fCoolTime);

  0000f	8b 06		 mov	 eax, DWORD PTR [esi]
  00011	f3 0f 10 45 08	 movss	 xmm0, DWORD PTR _fCoolTime$[ebp]
  00016	51		 push	 ecx
  00017	8b ce		 mov	 ecx, esi
  00019	f3 0f 11 04 24	 movss	 DWORD PTR [esp], xmm0
  0001e	ff 50 04	 call	 DWORD PTR [eax+4]
$LN1@RenderCool:
  00021	5e		 pop	 esi

; 26   : }

  00022	5d		 pop	 ebp
  00023	c2 04 00	 ret	 4
?RenderCoolTime@CGraphicImageInstance@@QAEXM@Z ENDP	; CGraphicImageInstance::RenderCoolTime
_TEXT	ENDS
; Function compile flags: /Ogtp
; File C:\Users\murat\Desktop\Siveps2-1-99-Project\source\client\Client\EterLib\GrpImageInstance.cpp
;	COMDAT ?GetHeight@CGraphicImageInstance@@QAEHXZ
_TEXT	SEGMENT
?GetHeight@CGraphicImageInstance@@QAEHXZ PROC		; CGraphicImageInstance::GetHeight, COMDAT
; _this$ = ecx

; 265  : {

  00000	56		 push	 esi
  00001	8b f1		 mov	 esi, ecx

; 266  : 	if (IsEmpty())

  00003	e8 00 00 00 00	 call	 ?IsEmpty@CGraphicImageInstance@@QBE_NXZ ; CGraphicImageInstance::IsEmpty
  00008	84 c0		 test	 al, al
  0000a	74 04		 je	 SHORT $LN2@GetHeight

; 267  : 		return 0;

  0000c	33 c0		 xor	 eax, eax
  0000e	5e		 pop	 esi

; 270  : }

  0000f	c3		 ret	 0
$LN2@GetHeight:

; 268  : 
; 269  : 	return m_roImage->GetHeight();

  00010	8b 4e 1c	 mov	 ecx, DWORD PTR [esi+28]
  00013	5e		 pop	 esi
  00014	e9 00 00 00 00	 jmp	 ?GetHeight@CGraphicImage@@QBEHXZ ; CGraphicImage::GetHeight
?GetHeight@CGraphicImageInstance@@QAEHXZ ENDP		; CGraphicImageInstance::GetHeight
_TEXT	ENDS
; Function compile flags: /Ogtp
; File C:\Users\murat\Desktop\Siveps2-1-99-Project\source\client\Client\EterLib\GrpImageInstance.cpp
;	COMDAT ?GetWidth@CGraphicImageInstance@@QAEHXZ
_TEXT	SEGMENT
?GetWidth@CGraphicImageInstance@@QAEHXZ PROC		; CGraphicImageInstance::GetWidth, COMDAT
; _this$ = ecx

; 257  : {

  00000	56		 push	 esi
  00001	8b f1		 mov	 esi, ecx

; 258  : 	if (IsEmpty())

  00003	e8 00 00 00 00	 call	 ?IsEmpty@CGraphicImageInstance@@QBE_NXZ ; CGraphicImageInstance::IsEmpty
  00008	84 c0		 test	 al, al
  0000a	74 04		 je	 SHORT $LN2@GetWidth

; 259  : 		return 0;

  0000c	33 c0		 xor	 eax, eax
  0000e	5e		 pop	 esi

; 262  : }

  0000f	c3		 ret	 0
$LN2@GetWidth:

; 260  : 
; 261  : 	return m_roImage->GetWidth();

  00010	8b 4e 1c	 mov	 ecx, DWORD PTR [esi+28]
  00013	5e		 pop	 esi
  00014	e9 00 00 00 00	 jmp	 ?GetWidth@CGraphicImage@@QBEHXZ ; CGraphicImage::GetWidth
?GetWidth@CGraphicImageInstance@@QAEHXZ ENDP		; CGraphicImageInstance::GetWidth
_TEXT	ENDS
; Function compile flags: /Ogtp
; File C:\Users\murat\Desktop\Siveps2-1-99-Project\source\client\Client\EterLib\GrpImageInstance.cpp
; File C:\Users\murat\Desktop\Siveps2-1-99-Project\source\client\Client\EterLib\Ref.h
; File C:\Users\murat\Desktop\Siveps2-1-99-Project\source\client\Client\EterLib\GrpImageInstance.cpp
;	COMDAT ?IsEmpty@CGraphicImageInstance@@QBE_NXZ
_TEXT	SEGMENT
?IsEmpty@CGraphicImageInstance@@QBE_NXZ PROC		; CGraphicImageInstance::IsEmpty, COMDAT
; _this$ = ecx
; File C:\Users\murat\Desktop\Siveps2-1-99-Project\source\client\Client\EterLib\Ref.h

; 62   : 			return m_pObject == NULL ? true : false;

  00000	8b 49 1c	 mov	 ecx, DWORD PTR [ecx+28]
  00003	85 c9		 test	 ecx, ecx
; File C:\Users\murat\Desktop\Siveps2-1-99-Project\source\client\Client\EterLib\GrpImageInstance.cpp

; 308  : 	if (!m_roImage.IsNull() && !m_roImage->IsEmpty())

  00005	74 0a		 je	 SHORT $LN2@IsEmpty
  00007	e8 00 00 00 00	 call	 ?IsEmpty@CResource@@QBE_NXZ ; CResource::IsEmpty
  0000c	84 c0		 test	 al, al
  0000e	75 01		 jne	 SHORT $LN2@IsEmpty

; 312  : }

  00010	c3		 ret	 0
$LN2@IsEmpty:

; 309  : 		return false;
; 310  : 
; 311  : 	return true;

  00011	b0 01		 mov	 al, 1

; 312  : }

  00013	c3		 ret	 0
?IsEmpty@CGraphicImageInstance@@QBE_NXZ ENDP		; CGraphicImageInstance::IsEmpty
_TEXT	ENDS
; Function compile flags: /Ogtp
; File C:\Users\murat\Desktop\Siveps2-1-99-Project\source\client\Client\EterLib\GrpImageInstance.cpp
; File C:\Users\murat\Desktop\Siveps2-1-99-Project\source\client\Client\EterLib\Ref.h
; File C:\Users\murat\Desktop\Siveps2-1-99-Project\source\client\Client\EterLib\GrpImageInstance.cpp
;	COMDAT ?ReloadImagePointer@CGraphicImageInstance@@QAEXPAVCGraphicImage@@@Z
_TEXT	SEGMENT
_pImage$ = 8						; size = 4
?ReloadImagePointer@CGraphicImageInstance@@QAEXPAVCGraphicImage@@@Z PROC ; CGraphicImageInstance::ReloadImagePointer, COMDAT
; _this$ = ecx

; 293  : {

  00000	55		 push	 ebp
  00001	8b ec		 mov	 ebp, esp
; File C:\Users\murat\Desktop\Siveps2-1-99-Project\source\client\Client\EterLib\Ref.h

; 62   : 			return m_pObject == NULL ? true : false;

  00003	8b 41 1c	 mov	 eax, DWORD PTR [ecx+28]
  00006	85 c0		 test	 eax, eax
; File C:\Users\murat\Desktop\Siveps2-1-99-Project\source\client\Client\EterLib\GrpImageInstance.cpp

; 294  : 	if (m_roImage.IsNull())

  00008	75 06		 jne	 SHORT $LN2@ReloadImag

; 304  : }

  0000a	5d		 pop	 ebp

; 295  : 	{
; 296  : 		SetImagePointer(pImage);

  0000b	e9 00 00 00 00	 jmp	 ?SetImagePointer@CGraphicImageInstance@@QAEXPAVCGraphicImage@@@Z ; CGraphicImageInstance::SetImagePointer
$LN2@ReloadImag:

; 297  : 		return;
; 298  : 	}
; 299  : 
; 300  : 	CGraphicImage * pkImage = m_roImage.GetPointer();
; 301  : 
; 302  : 	if (pkImage)
; 303  : 		pkImage->Reload();

  00010	8b c8		 mov	 ecx, eax
  00012	e8 00 00 00 00	 call	 ?Reload@CResource@@QAEXXZ ; CResource::Reload

; 304  : }

  00017	5d		 pop	 ebp
  00018	c2 04 00	 ret	 4
?ReloadImagePointer@CGraphicImageInstance@@QAEXPAVCGraphicImage@@@Z ENDP ; CGraphicImageInstance::ReloadImagePointer
_TEXT	ENDS
; Function compile flags: /Ogtp
; File C:\Users\murat\Desktop\Siveps2-1-99-Project\source\client\Client\EterLib\GrpImageInstance.cpp
; File C:\Users\murat\Desktop\Siveps2-1-99-Project\source\client\Client\EterLib\Ref.h
; File C:\Users\murat\Desktop\Siveps2-1-99-Project\source\client\Client\EterLib\GrpImageInstance.cpp
; File C:\Users\murat\Desktop\Siveps2-1-99-Project\source\client\Client\EterLib\Ref.h
; File C:\Users\murat\Desktop\Siveps2-1-99-Project\source\client\Client\EterLib\GrpImageInstance.cpp
;	COMDAT ?SetImagePointer@CGraphicImageInstance@@QAEXPAVCGraphicImage@@@Z
_TEXT	SEGMENT
_pImage$ = 8						; size = 4
?SetImagePointer@CGraphicImageInstance@@QAEXPAVCGraphicImage@@@Z PROC ; CGraphicImageInstance::SetImagePointer, COMDAT
; _this$ = ecx

; 286  : {

  00000	55		 push	 ebp
  00001	8b ec		 mov	 ebp, esp
  00003	56		 push	 esi
  00004	8b f1		 mov	 esi, ecx
; File C:\Users\murat\Desktop\Siveps2-1-99-Project\source\client\Client\EterLib\Ref.h

; 69   : 			m_pObject = pObject;

  00006	8b 4d 08	 mov	 ecx, DWORD PTR _pImage$[ebp]
; File C:\Users\murat\Desktop\Siveps2-1-99-Project\source\client\Client\EterLib\GrpImageInstance.cpp

; 286  : {

  00009	57		 push	 edi
; File C:\Users\murat\Desktop\Siveps2-1-99-Project\source\client\Client\EterLib\Ref.h

; 67   : 			CReferenceObject* pOldObject = m_pObject;

  0000a	8b 7e 1c	 mov	 edi, DWORD PTR [esi+28]

; 69   : 			m_pObject = pObject;

  0000d	89 4e 1c	 mov	 DWORD PTR [esi+28], ecx

; 70   : 
; 71   : 			if (m_pObject)

  00010	85 c9		 test	 ecx, ecx
  00012	74 05		 je	 SHORT $LN4@SetImagePo

; 72   : 				m_pObject->AddReference();

  00014	e8 00 00 00 00	 call	 ?AddReference@CReferenceObject@@QAEXXZ ; CReferenceObject::AddReference
$LN4@SetImagePo:

; 73   : 
; 74   : 			if (pOldObject)

  00019	85 ff		 test	 edi, edi
  0001b	74 07		 je	 SHORT $LN5@SetImagePo

; 75   : 				pOldObject->Release();

  0001d	8b cf		 mov	 ecx, edi
  0001f	e8 00 00 00 00	 call	 ?Release@CReferenceObject@@QAEXXZ ; CReferenceObject::Release
$LN5@SetImagePo:
; File C:\Users\murat\Desktop\Siveps2-1-99-Project\source\client\Client\EterLib\GrpImageInstance.cpp

; 289  : 	OnSetImagePointer();

  00024	8b 06		 mov	 eax, DWORD PTR [esi]
  00026	8b ce		 mov	 ecx, esi
  00028	ff 50 0c	 call	 DWORD PTR [eax+12]
  0002b	5f		 pop	 edi
  0002c	5e		 pop	 esi

; 290  : }

  0002d	5d		 pop	 ebp
  0002e	c2 04 00	 ret	 4
?SetImagePointer@CGraphicImageInstance@@QAEXPAVCGraphicImage@@@Z ENDP ; CGraphicImageInstance::SetImagePointer
_TEXT	ENDS
; Function compile flags: /Ogtp
; File C:\Users\murat\Desktop\Siveps2-1-99-Project\source\client\Client\EterLib\GrpImageInstance.cpp
;	COMDAT ?SetPosition@CGraphicImageInstance@@QAEXMM@Z
_TEXT	SEGMENT
_fx$ = 8						; size = 4
_fy$ = 12						; size = 4
?SetPosition@CGraphicImageInstance@@QAEXMM@Z PROC	; CGraphicImageInstance::SetPosition, COMDAT
; _this$ = ecx

; 280  : {

  00000	55		 push	 ebp
  00001	8b ec		 mov	 ebp, esp

; 281  : 	m_v2Position.x = fx;

  00003	f3 0f 10 45 08	 movss	 xmm0, DWORD PTR _fx$[ebp]
  00008	f3 0f 11 41 14	 movss	 DWORD PTR [ecx+20], xmm0

; 282  : 	m_v2Position.y = fy;

  0000d	f3 0f 10 45 0c	 movss	 xmm0, DWORD PTR _fy$[ebp]
  00012	f3 0f 11 41 18	 movss	 DWORD PTR [ecx+24], xmm0

; 283  : }

  00017	5d		 pop	 ebp
  00018	c2 08 00	 ret	 8
?SetPosition@CGraphicImageInstance@@QAEXMM@Z ENDP	; CGraphicImageInstance::SetPosition
_TEXT	ENDS
; Function compile flags: /Ogtp
; File C:\Users\murat\Desktop\Siveps2-1-99-Project\source\client\Client\EterLib\GrpImageInstance.cpp
;	COMDAT ?SetDiffuseColor@CGraphicImageInstance@@QAEXMMMM@Z
_TEXT	SEGMENT
_fr$ = 8						; size = 4
_fg$ = 12						; size = 4
_fb$ = 16						; size = 4
_fa$ = 20						; size = 4
?SetDiffuseColor@CGraphicImageInstance@@QAEXMMMM@Z PROC	; CGraphicImageInstance::SetDiffuseColor, COMDAT
; _this$ = ecx

; 273  : {

  00000	55		 push	 ebp
  00001	8b ec		 mov	 ebp, esp

; 274  : 	m_DiffuseColor.r = fr;

  00003	f3 0f 10 45 08	 movss	 xmm0, DWORD PTR _fr$[ebp]
  00008	f3 0f 11 41 04	 movss	 DWORD PTR [ecx+4], xmm0

; 275  : 	m_DiffuseColor.g = fg;

  0000d	f3 0f 10 45 0c	 movss	 xmm0, DWORD PTR _fg$[ebp]
  00012	f3 0f 11 41 08	 movss	 DWORD PTR [ecx+8], xmm0

; 276  : 	m_DiffuseColor.b = fb;

  00017	f3 0f 10 45 10	 movss	 xmm0, DWORD PTR _fb$[ebp]
  0001c	f3 0f 11 41 0c	 movss	 DWORD PTR [ecx+12], xmm0

; 277  : 	m_DiffuseColor.a = fa;

  00021	f3 0f 10 45 14	 movss	 xmm0, DWORD PTR _fa$[ebp]
  00026	f3 0f 11 41 10	 movss	 DWORD PTR [ecx+16], xmm0

; 278  : }

  0002b	5d		 pop	 ebp
  0002c	c2 10 00	 ret	 16			; 00000010H
?SetDiffuseColor@CGraphicImageInstance@@QAEXMMMM@Z ENDP	; CGraphicImageInstance::SetDiffuseColor
_TEXT	ENDS
; Function compile flags: /Ogtp
; File C:\Users\murat\Desktop\Siveps2-1-99-Project\source\client\Client\EterLib\GrpImageInstance.cpp
;	COMDAT ?Render@CGraphicImageInstance@@QAEXXZ
_TEXT	SEGMENT
?Render@CGraphicImageInstance@@QAEXXZ PROC		; CGraphicImageInstance::Render, COMDAT
; _this$ = ecx

; 175  : {

  00000	56		 push	 esi
  00001	8b f1		 mov	 esi, ecx

; 176  : 	if (IsEmpty())

  00003	e8 00 00 00 00	 call	 ?IsEmpty@CGraphicImageInstance@@QBE_NXZ ; CGraphicImageInstance::IsEmpty
  00008	84 c0		 test	 al, al
  0000a	75 08		 jne	 SHORT $LN1@Render

; 177  : 		return;
; 178  : 
; 179  : 	assert(!IsEmpty());
; 180  : 
; 181  : 	OnRender();

  0000c	8b 06		 mov	 eax, DWORD PTR [esi]
  0000e	8b ce		 mov	 ecx, esi
  00010	5e		 pop	 esi
  00011	ff 60 08	 jmp	 DWORD PTR [eax+8]
$LN1@Render:
  00014	5e		 pop	 esi

; 182  : }

  00015	c3		 ret	 0
?Render@CGraphicImageInstance@@QAEXXZ ENDP		; CGraphicImageInstance::Render
_TEXT	ENDS
; Function compile flags: /Ogtp
; File C:\Users\murat\Desktop\Siveps2-1-99-Project\source\client\Client\EterLib\GrpImageInstance.cpp
; File C:\Users\murat\Desktop\Siveps2-1-99-Project\source\client\Client\EterLib\Ref.h
; File C:\Users\murat\Desktop\Siveps2-1-99-Project\source\client\Client\EterLib\GrpImageInstance.cpp
;	COMDAT ?Destroy@CGraphicImageInstance@@QAEXXZ
_TEXT	SEGMENT
?Destroy@CGraphicImageInstance@@QAEXXZ PROC		; CGraphicImageInstance::Destroy, COMDAT
; _this$ = ecx

; 349  : {

  00000	56		 push	 esi
  00001	8b f1		 mov	 esi, ecx
; File C:\Users\murat\Desktop\Siveps2-1-99-Project\source\client\Client\EterLib\Ref.h

; 67   : 			CReferenceObject* pOldObject = m_pObject;

  00003	8b 4e 1c	 mov	 ecx, DWORD PTR [esi+28]

; 68   : 
; 69   : 			m_pObject = pObject;

  00006	c7 46 1c 00 00
	00 00		 mov	 DWORD PTR [esi+28], 0

; 70   : 
; 71   : 			if (m_pObject)
; 72   : 				m_pObject->AddReference();
; 73   : 
; 74   : 			if (pOldObject)

  0000d	85 c9		 test	 ecx, ecx
  0000f	74 05		 je	 SHORT $LN5@Destroy

; 75   : 				pOldObject->Release();

  00011	e8 00 00 00 00	 call	 ?Release@CReferenceObject@@QAEXXZ ; CReferenceObject::Release
$LN5@Destroy:
; File C:\Users\murat\Desktop\Siveps2-1-99-Project\source\client\Client\EterLib\GrpImageInstance.cpp

; 351  : 	Initialize();

  00016	8b ce		 mov	 ecx, esi
  00018	5e		 pop	 esi
  00019	e9 00 00 00 00	 jmp	 ?Initialize@CGraphicImageInstance@@IAEXXZ ; CGraphicImageInstance::Initialize
?Destroy@CGraphicImageInstance@@QAEXXZ ENDP		; CGraphicImageInstance::Destroy
_TEXT	ENDS
; Function compile flags: /Ogtp
; File C:\Users\murat\Desktop\Siveps2-1-99-Project\source\client\Client\EterLib\GrpImageInstance.cpp
; File C:\Users\murat\Desktop\Siveps2-1-99-Project\source\client\Client\EterLib\Ref.h
; File C:\Users\murat\Desktop\Siveps2-1-99-Project\source\client\Client\EterLib\GrpImageInstance.cpp
;	COMDAT ??1CGraphicImageInstance@@UAE@XZ
_TEXT	SEGMENT
__$EHRec$ = -12						; size = 12
??1CGraphicImageInstance@@UAE@XZ PROC			; CGraphicImageInstance::~CGraphicImageInstance, COMDAT
; _this$ = ecx

; 360  : {

  00000	55		 push	 ebp
  00001	8b ec		 mov	 ebp, esp
  00003	6a ff		 push	 -1
  00005	68 00 00 00 00	 push	 __ehhandler$??1CGraphicImageInstance@@UAE@XZ
  0000a	64 a1 00 00 00
	00		 mov	 eax, DWORD PTR fs:0
  00010	50		 push	 eax
  00011	56		 push	 esi
  00012	a1 00 00 00 00	 mov	 eax, DWORD PTR ___security_cookie
  00017	33 c5		 xor	 eax, ebp
  00019	50		 push	 eax
  0001a	8d 45 f4	 lea	 eax, DWORD PTR __$EHRec$[ebp]
  0001d	64 a3 00 00 00
	00		 mov	 DWORD PTR fs:0, eax
  00023	8b f1		 mov	 esi, ecx
  00025	c7 06 00 00 00
	00		 mov	 DWORD PTR [esi], OFFSET ??_7CGraphicImageInstance@@6B@

; 361  : 	Destroy();

  0002b	e8 00 00 00 00	 call	 ?Destroy@CGraphicImageInstance@@QAEXXZ ; CGraphicImageInstance::Destroy
; File C:\Users\murat\Desktop\Siveps2-1-99-Project\source\client\Client\EterLib\Ref.h

; 53   : 			if (m_pObject)

  00030	8b 4e 1c	 mov	 ecx, DWORD PTR [esi+28]

; 37   : 		{

  00033	c7 45 fc 00 00
	00 00		 mov	 DWORD PTR __$EHRec$[ebp+8], 0

; 53   : 			if (m_pObject)

  0003a	85 c9		 test	 ecx, ecx
  0003c	74 0c		 je	 SHORT $LN7@CGraphicIm

; 54   : 			{
; 55   : 				m_pObject->Release();

  0003e	e8 00 00 00 00	 call	 ?Release@CReferenceObject@@QAEXXZ ; CReferenceObject::Release

; 56   : 				m_pObject = NULL;

  00043	c7 46 1c 00 00
	00 00		 mov	 DWORD PTR [esi+28], 0
$LN7@CGraphicIm:
; File C:\Users\murat\Desktop\Siveps2-1-99-Project\source\client\Client\EterLib\GrpImageInstance.cpp

; 362  : }

  0004a	8b 4d f4	 mov	 ecx, DWORD PTR __$EHRec$[ebp]
  0004d	64 89 0d 00 00
	00 00		 mov	 DWORD PTR fs:0, ecx
  00054	59		 pop	 ecx
  00055	5e		 pop	 esi
  00056	8b e5		 mov	 esp, ebp
  00058	5d		 pop	 ebp
  00059	c3		 ret	 0
  0005a	cc		 int	 3
  0005b	cc		 int	 3
  0005c	cc		 int	 3
  0005d	cc		 int	 3
  0005e	cc		 int	 3
_TEXT	ENDS
;	COMDAT text$x
text$x	SEGMENT
__ehhandler$??1CGraphicImageInstance@@UAE@XZ:
  00000	90		 npad	 1
  00001	90		 npad	 1
  00002	8b 54 24 08	 mov	 edx, DWORD PTR [esp+8]
  00006	8d 42 0c	 lea	 eax, DWORD PTR [edx+12]
  00009	8b 4a f8	 mov	 ecx, DWORD PTR [edx-8]
  0000c	33 c8		 xor	 ecx, eax
  0000e	e8 00 00 00 00	 call	 @__security_check_cookie@4
  00013	b8 00 00 00 00	 mov	 eax, OFFSET __ehfuncinfo$??1CGraphicImageInstance@@UAE@XZ
  00018	e9 00 00 00 00	 jmp	 ___CxxFrameHandler3
text$x	ENDS
??1CGraphicImageInstance@@UAE@XZ ENDP			; CGraphicImageInstance::~CGraphicImageInstance
; Function compile flags: /Ogtp
; File C:\Users\murat\Desktop\Siveps2-1-99-Project\source\client\Client\EterLib\GrpImageInstance.cpp
; File C:\Users\murat\Desktop\Siveps2-1-99-Project\source\client\Client\EterLib\Ref.h
; File C:\Users\murat\Desktop\Siveps2-1-99-Project\source\client\Client\EterLib\GrpImageInstance.cpp
;	COMDAT ??0CGraphicImageInstance@@QAE@XZ
_TEXT	SEGMENT
_this$ = -4						; size = 4
??0CGraphicImageInstance@@QAE@XZ PROC			; CGraphicImageInstance::CGraphicImageInstance, COMDAT
; _this$ = ecx

; 355  : {

  00000	55		 push	 ebp
  00001	8b ec		 mov	 ebp, esp
  00003	51		 push	 ecx
  00004	56		 push	 esi
  00005	8b f1		 mov	 esi, ecx
  00007	89 75 fc	 mov	 DWORD PTR _this$[ebp], esi
  0000a	c7 06 00 00 00
	00		 mov	 DWORD PTR [esi], OFFSET ??_7CGraphicImageInstance@@6B@
; File C:\Users\murat\Desktop\Siveps2-1-99-Project\source\client\Client\EterLib\Ref.h

; 20   : 		CRef() : m_pObject(NULL)

  00010	c7 46 1c 00 00
	00 00		 mov	 DWORD PTR [esi+28], 0
; File C:\Users\murat\Desktop\Siveps2-1-99-Project\source\client\Client\EterLib\GrpImageInstance.cpp

; 356  : 	Initialize();

  00017	e8 00 00 00 00	 call	 ?Initialize@CGraphicImageInstance@@IAEXXZ ; CGraphicImageInstance::Initialize

; 357  : }

  0001c	8b c6		 mov	 eax, esi
  0001e	5e		 pop	 esi
  0001f	8b e5		 mov	 esp, ebp
  00021	5d		 pop	 ebp
  00022	c3		 ret	 0
??0CGraphicImageInstance@@QAE@XZ ENDP			; CGraphicImageInstance::CGraphicImageInstance
_TEXT	ENDS
; Function compile flags: /Ogtp
; File C:\Users\murat\Desktop\Siveps2-1-99-Project\source\client\Client\EterLib\GrpImageInstance.cpp
;	COMDAT ?IsType@CGraphicImageInstance@@QAEHK@Z
_TEXT	SEGMENT
_dwType$ = 8						; size = 4
?IsType@CGraphicImageInstance@@QAEHK@Z PROC		; CGraphicImageInstance::IsType, COMDAT
; _this$ = ecx

; 326  : {

  00000	55		 push	 ebp
  00001	8b ec		 mov	 ebp, esp

; 327  : 	return OnIsType(dwType);

  00003	8b 01		 mov	 eax, DWORD PTR [ecx]

; 328  : }

  00005	5d		 pop	 ebp

; 327  : 	return OnIsType(dwType);

  00006	ff 60 10	 jmp	 DWORD PTR [eax+16]
?IsType@CGraphicImageInstance@@QAEHK@Z ENDP		; CGraphicImageInstance::IsType
_TEXT	ENDS
; Function compile flags: /Ogtp
; File C:\Users\murat\Desktop\Siveps2-1-99-Project\source\client\Client\EterLib\GrpImageInstance.cpp
;	COMDAT ?Type@CGraphicImageInstance@@SAKXZ
_TEXT	SEGMENT
__$EHRec$ = -12						; size = 12
?Type@CGraphicImageInstance@@SAKXZ PROC			; CGraphicImageInstance::Type, COMDAT

; 320  : {

  00000	55		 push	 ebp
  00001	8b ec		 mov	 ebp, esp
  00003	6a ff		 push	 -1
  00005	68 00 00 00 00	 push	 __ehhandler$?Type@CGraphicImageInstance@@SAKXZ
  0000a	64 a1 00 00 00
	00		 mov	 eax, DWORD PTR fs:0
  00010	50		 push	 eax
  00011	a1 00 00 00 00	 mov	 eax, DWORD PTR ___security_cookie
  00016	33 c5		 xor	 eax, ebp
  00018	50		 push	 eax
  00019	8d 45 f4	 lea	 eax, DWORD PTR __$EHRec$[ebp]
  0001c	64 a3 00 00 00
	00		 mov	 DWORD PTR fs:0, eax

; 321  : 	static DWORD s_dwType = GetCRC32("CGraphicImageInstance", strlen("CGraphicImageInstance"));

  00022	64 a1 00 00 00
	00		 mov	 eax, DWORD PTR fs:__tls_array
  00028	8b 0d 00 00 00
	00		 mov	 ecx, DWORD PTR __tls_index
  0002e	8b 0c 88	 mov	 ecx, DWORD PTR [eax+ecx*4]
  00031	a1 00 00 00 00	 mov	 eax, DWORD PTR ?$TSS0@?1??Type@CGraphicImageInstance@@SAKXZ@4HA
  00036	3b 81 00 00 00
	00		 cmp	 eax, DWORD PTR __Init_thread_epoch[ecx]
  0003c	7f 14		 jg	 SHORT $LN9@Type
$LN5@Type:

; 322  : 	return (s_dwType);
; 323  : }

  0003e	a1 00 00 00 00	 mov	 eax, DWORD PTR ?s_dwType@?1??Type@CGraphicImageInstance@@SAKXZ@4KA
  00043	8b 4d f4	 mov	 ecx, DWORD PTR __$EHRec$[ebp]
  00046	64 89 0d 00 00
	00 00		 mov	 DWORD PTR fs:0, ecx
  0004d	59		 pop	 ecx
  0004e	8b e5		 mov	 esp, ebp
  00050	5d		 pop	 ebp
  00051	c3		 ret	 0
$LN9@Type:

; 321  : 	static DWORD s_dwType = GetCRC32("CGraphicImageInstance", strlen("CGraphicImageInstance"));

  00052	68 00 00 00 00	 push	 OFFSET ?$TSS0@?1??Type@CGraphicImageInstance@@SAKXZ@4HA
  00057	e8 00 00 00 00	 call	 __Init_thread_header
  0005c	83 c4 04	 add	 esp, 4
  0005f	83 3d 00 00 00
	00 ff		 cmp	 DWORD PTR ?$TSS0@?1??Type@CGraphicImageInstance@@SAKXZ@4HA, -1
  00066	75 d6		 jne	 SHORT $LN5@Type
  00068	6a 15		 push	 21			; 00000015H
  0006a	68 00 00 00 00	 push	 OFFSET ??_C@_0BG@OHFFHEGB@CGraphicImageInstance@
  0006f	c7 45 fc 00 00
	00 00		 mov	 DWORD PTR __$EHRec$[ebp+8], 0
  00076	e8 00 00 00 00	 call	 ?GetCRC32@@YAKPBDI@Z	; GetCRC32
  0007b	68 00 00 00 00	 push	 OFFSET ?$TSS0@?1??Type@CGraphicImageInstance@@SAKXZ@4HA
  00080	a3 00 00 00 00	 mov	 DWORD PTR ?s_dwType@?1??Type@CGraphicImageInstance@@SAKXZ@4KA, eax
  00085	e8 00 00 00 00	 call	 __Init_thread_footer
  0008a	83 c4 0c	 add	 esp, 12			; 0000000cH
  0008d	eb af		 jmp	 SHORT $LN5@Type
_TEXT	ENDS
;	COMDAT text$x
text$x	SEGMENT
__unwindfunclet$?Type@CGraphicImageInstance@@SAKXZ$0:
  00000	68 00 00 00 00	 push	 OFFSET ?$TSS0@?1??Type@CGraphicImageInstance@@SAKXZ@4HA
  00005	e8 00 00 00 00	 call	 __Init_thread_abort
  0000a	59		 pop	 ecx
  0000b	c3		 ret	 0
  0000c	cc		 int	 3
  0000d	cc		 int	 3
  0000e	cc		 int	 3
  0000f	cc		 int	 3
  00010	cc		 int	 3
__ehhandler$?Type@CGraphicImageInstance@@SAKXZ:
  00011	90		 npad	 1
  00012	90		 npad	 1
  00013	8b 54 24 08	 mov	 edx, DWORD PTR [esp+8]
  00017	8d 42 0c	 lea	 eax, DWORD PTR [edx+12]
  0001a	8b 4a fc	 mov	 ecx, DWORD PTR [edx-4]
  0001d	33 c8		 xor	 ecx, eax
  0001f	e8 00 00 00 00	 call	 @__security_check_cookie@4
  00024	b8 00 00 00 00	 mov	 eax, OFFSET __ehfuncinfo$?Type@CGraphicImageInstance@@SAKXZ
  00029	e9 00 00 00 00	 jmp	 ___CxxFrameHandler3
text$x	ENDS
?Type@CGraphicImageInstance@@SAKXZ ENDP			; CGraphicImageInstance::Type
; Function compile flags: /Ogtp
;	COMDAT ??0SPDTVertex@@QAE@XZ
_TEXT	SEGMENT
??0SPDTVertex@@QAE@XZ PROC				; SPDTVertex::SPDTVertex, COMDAT
; _this$ = ecx
  00000	8b c1		 mov	 eax, ecx
  00002	c3		 ret	 0
??0SPDTVertex@@QAE@XZ ENDP				; SPDTVertex::SPDTVertex
_TEXT	ENDS
; Function compile flags: /Ogtp
; File C:\Program Files (x86)\Microsoft Visual Studio\2019\Professional\VC\Tools\MSVC\14.29.30133\include\xmemory
;	COMDAT ??$_Allocate_manually_vector_aligned@U_Default_allocate_traits@std@@@std@@YAPAXI@Z
_TEXT	SEGMENT
__Bytes$ = 8						; size = 4
??$_Allocate_manually_vector_aligned@U_Default_allocate_traits@std@@@std@@YAPAXI@Z PROC ; std::_Allocate_manually_vector_aligned<std::_Default_allocate_traits>, COMDAT

; 134  : __declspec(allocator) void* _Allocate_manually_vector_aligned(const size_t _Bytes) {

  00000	55		 push	 ebp
  00001	8b ec		 mov	 ebp, esp

; 135  :     // allocate _Bytes manually aligned to at least _Big_allocation_alignment
; 136  :     const size_t _Block_size = _Non_user_size + _Bytes;

  00003	8b 45 08	 mov	 eax, DWORD PTR __Bytes$[ebp]
  00006	8d 48 23	 lea	 ecx, DWORD PTR [eax+35]

; 137  :     if (_Block_size <= _Bytes) {

  00009	3b c8		 cmp	 ecx, eax
  0000b	0f 86 00 00 00
	00		 jbe	 ?_Throw_bad_array_new_length@std@@YAXXZ ; std::_Throw_bad_array_new_length

; 85   :         return ::operator new(_Bytes);

  00011	51		 push	 ecx
  00012	e8 00 00 00 00	 call	 ??2@YAPAXI@Z		; operator new

; 138  :         _Throw_bad_array_new_length(); // add overflow
; 139  :     }
; 140  : 
; 141  :     const uintptr_t _Ptr_container = reinterpret_cast<uintptr_t>(_Traits::_Allocate(_Block_size));

  00017	8b c8		 mov	 ecx, eax

; 85   :         return ::operator new(_Bytes);

  00019	83 c4 04	 add	 esp, 4

; 142  :     _STL_VERIFY(_Ptr_container != 0, "invalid argument"); // validate even in release since we're doing p[-1]

  0001c	85 c9		 test	 ecx, ecx
  0001e	74 0b		 je	 SHORT $LN7@Allocate_m

; 143  :     void* const _Ptr = reinterpret_cast<void*>((_Ptr_container + _Non_user_size) & ~(_Big_allocation_alignment - 1));

  00020	8d 41 23	 lea	 eax, DWORD PTR [ecx+35]
  00023	83 e0 e0	 and	 eax, -32		; ffffffe0H

; 144  :     static_cast<uintptr_t*>(_Ptr)[-1] = _Ptr_container;

  00026	89 48 fc	 mov	 DWORD PTR [eax-4], ecx

; 145  : 
; 146  : #ifdef _DEBUG
; 147  :     static_cast<uintptr_t*>(_Ptr)[-2] = _Big_allocation_sentinel;
; 148  : #endif // _DEBUG
; 149  :     return _Ptr;
; 150  : }

  00029	5d		 pop	 ebp
  0002a	c3		 ret	 0
$LN7@Allocate_m:

; 142  :     _STL_VERIFY(_Ptr_container != 0, "invalid argument"); // validate even in release since we're doing p[-1]

  0002b	e9 00 00 00 00	 jmp	 __invalid_parameter_noinfo_noreturn
??$_Allocate_manually_vector_aligned@U_Default_allocate_traits@std@@@std@@YAPAXI@Z ENDP ; std::_Allocate_manually_vector_aligned<std::_Default_allocate_traits>
_TEXT	ENDS
; Function compile flags: /Ogtp
; File C:\Program Files (x86)\Microsoft Visual Studio\2019\Professional\VC\Tools\MSVC\14.29.30133\include\exception
;	COMDAT ?_Throw_bad_array_new_length@std@@YAXXZ
_TEXT	SEGMENT
$T1 = -12						; size = 12
?_Throw_bad_array_new_length@std@@YAXXZ PROC		; std::_Throw_bad_array_new_length, COMDAT

; 320  : [[noreturn]] inline void _Throw_bad_array_new_length() {

  00000	55		 push	 ebp
  00001	8b ec		 mov	 ebp, esp
  00003	83 ec 0c	 sub	 esp, 12			; 0000000cH

; 321  :     _THROW(bad_array_new_length{});

  00006	8d 4d f4	 lea	 ecx, DWORD PTR $T1[ebp]
  00009	e8 00 00 00 00	 call	 ??0bad_array_new_length@std@@QAE@XZ ; std::bad_array_new_length::bad_array_new_length
  0000e	68 00 00 00 00	 push	 OFFSET __TI3?AVbad_array_new_length@std@@
  00013	8d 45 f4	 lea	 eax, DWORD PTR $T1[ebp]
  00016	50		 push	 eax
  00017	e8 00 00 00 00	 call	 __CxxThrowException@8
