; Listing generated by Microsoft (R) Optimizing Compiler Version 19.29.30137.0 

	TITLE	C:\Users\murat\Desktop\Siveps2-1-99-Project\source\client\Client\EterLib\Distribute\GrpSubImage.obj
	.686P
	.XMM
	include listing.inc
	.model	flat

INCLUDELIB LIBCMT
INCLUDELIB OLDNAMES

PUBLIC	?m_SearchPath@CGraphicSubImage@@2PADA		; CGraphicSubImage::m_SearchPath
_DATA	SEGMENT
?m_SearchPath@CGraphicSubImage@@2PADA DB 'D:/Ymir Work/UI/', 00H ; CGraphicSubImage::m_SearchPath
	ORG $+239
_DATA	ENDS
CONST	SEGMENT
?piecewise_construct@std@@3Upiecewise_construct_t@1@B	ORG $+1 ; std::piecewise_construct
?_Fake_alloc@std@@3U_Fake_allocator@1@B	ORG $+1		; std::_Fake_alloc
CONST	ENDS
PUBLIC	___local_stdio_printf_options
PUBLIC	__snprintf
PUBLIC	??0exception@std@@QAE@ABV01@@Z			; std::exception::exception
PUBLIC	??1exception@std@@UAE@XZ			; std::exception::~exception
PUBLIC	?what@exception@std@@UBEPBDXZ			; std::exception::what
PUBLIC	??_Gexception@std@@UAEPAXI@Z			; std::exception::`scalar deleting destructor'
PUBLIC	??0bad_alloc@std@@QAE@ABV01@@Z			; std::bad_alloc::bad_alloc
PUBLIC	??_Gbad_alloc@std@@UAEPAXI@Z			; std::bad_alloc::`scalar deleting destructor'
PUBLIC	??0bad_array_new_length@std@@QAE@XZ		; std::bad_array_new_length::bad_array_new_length
PUBLIC	??1bad_array_new_length@std@@UAE@XZ		; std::bad_array_new_length::~bad_array_new_length
PUBLIC	??0bad_array_new_length@std@@QAE@ABV01@@Z	; std::bad_array_new_length::bad_array_new_length
PUBLIC	??_Gbad_array_new_length@std@@UAEPAXI@Z		; std::bad_array_new_length::`scalar deleting destructor'
PUBLIC	?_Throw_bad_array_new_length@std@@YAXXZ		; std::_Throw_bad_array_new_length
PUBLIC	?_Xlen_string@std@@YAXXZ			; std::_Xlen_string
PUBLIC	??0?$basic_string@DU?$char_traits@D@std@@V?$allocator@D@2@@std@@QAE@ABV01@@Z ; std::basic_string<char,std::char_traits<char>,std::allocator<char> >::basic_string<char,std::char_traits<char>,std::allocator<char> >
PUBLIC	??1?$basic_string@DU?$char_traits@D@std@@V?$allocator@D@2@@std@@QAE@XZ ; std::basic_string<char,std::char_traits<char>,std::allocator<char> >::~basic_string<char,std::char_traits<char>,std::allocator<char> >
PUBLIC	?assign@?$basic_string@DU?$char_traits@D@std@@V?$allocator@D@2@@std@@QAEAAV12@QBDI@Z ; std::basic_string<char,std::char_traits<char>,std::allocator<char> >::assign
PUBLIC	?_Equal@?$basic_string@DU?$char_traits@D@std@@V?$allocator@D@2@@std@@QBE_NQBD@Z ; std::basic_string<char,std::char_traits<char>,std::allocator<char> >::_Equal
PUBLIC	?_Throw_tree_length_error@std@@YAXXZ		; std::_Throw_tree_length_error
PUBLIC	??$_Traits_compare@U?$char_traits@D@std@@@std@@YAHQBDI0I@Z ; std::_Traits_compare<std::char_traits<char> >
PUBLIC	??$_Allocate_manually_vector_aligned@U_Default_allocate_traits@std@@@std@@YAPAXI@Z ; std::_Allocate_manually_vector_aligned<std::_Default_allocate_traits>
PUBLIC	??1?$vector@V?$basic_string@DU?$char_traits@D@std@@V?$allocator@D@2@@std@@V?$allocator@V?$basic_string@DU?$char_traits@D@std@@V?$allocator@D@2@@std@@@2@@std@@QAE@XZ ; std::vector<std::basic_string<char,std::char_traits<char>,std::allocator<char> >,std::allocator<std::basic_string<char,std::char_traits<char>,std::allocator<char> > > >::~vector<std::basic_string<char,std::char_traits<char>,std::allocator<char> >,std::allocator<std::basic_string<char,std::char_traits<char>,std::allocator<char> > > >
PUBLIC	?Type@CGraphicSubImage@@SAKXZ			; CGraphicSubImage::Type
PUBLIC	??0CGraphicSubImage@@QAE@PBD@Z			; CGraphicSubImage::CGraphicSubImage
PUBLIC	??1CGraphicSubImage@@UAE@XZ			; CGraphicSubImage::~CGraphicSubImage
PUBLIC	?CreateDeviceObjects@CGraphicSubImage@@UAE_NXZ	; CGraphicSubImage::CreateDeviceObjects
PUBLIC	?SetImageFileName@CGraphicSubImage@@QAE_NPBD@Z	; CGraphicSubImage::SetImageFileName
PUBLIC	?SetRectPosition@CGraphicSubImage@@QAEXHHHH@Z	; CGraphicSubImage::SetRectPosition
PUBLIC	?SetRectReference@CGraphicSubImage@@QAEXABUtagRECT@@@Z ; CGraphicSubImage::SetRectReference
PUBLIC	?SetSearchPath@CGraphicSubImage@@SAXPBD@Z	; CGraphicSubImage::SetSearchPath
PUBLIC	?SetImagePointer@CGraphicSubImage@@IAEXPAVCGraphicImage@@@Z ; CGraphicSubImage::SetImagePointer
PUBLIC	?OnLoad@CGraphicSubImage@@MAE_NHPBX@Z		; CGraphicSubImage::OnLoad
PUBLIC	?OnClear@CGraphicSubImage@@MAEXXZ		; CGraphicSubImage::OnClear
PUBLIC	?OnIsEmpty@CGraphicSubImage@@MBE_NXZ		; CGraphicSubImage::OnIsEmpty
PUBLIC	?OnIsType@CGraphicSubImage@@MAE_NK@Z		; CGraphicSubImage::OnIsType
PUBLIC	??_GCGraphicSubImage@@UAEPAXI@Z			; CGraphicSubImage::`scalar deleting destructor'
PUBLIC	?_Insert_node@?$_Tree_val@U?$_Tree_simple_types@U?$pair@$$CBV?$basic_string@DU?$char_traits@D@std@@V?$allocator@D@2@@std@@V12@@std@@@std@@@std@@QAEPAU?$_Tree_node@U?$pair@$$CBV?$basic_string@DU?$char_traits@D@std@@V?$allocator@D@2@@std@@V12@@std@@PAX@2@U?$_Tree_id@PAU?$_Tree_node@U?$pair@$$CBV?$basic_string@DU?$char_traits@D@std@@V?$allocator@D@2@@std@@V12@@std@@PAX@std@@@2@QAU32@@Z ; std::_Tree_val<std::_Tree_simple_types<std::pair<std::basic_string<char,std::char_traits<char>,std::allocator<char> > const ,std::basic_string<char,std::char_traits<char>,std::allocator<char> > > > >::_Insert_node
PUBLIC	??A?$map@V?$basic_string@DU?$char_traits@D@std@@V?$allocator@D@2@@std@@V12@U?$less@V?$basic_string@DU?$char_traits@D@std@@V?$allocator@D@2@@std@@@2@V?$allocator@U?$pair@$$CBV?$basic_string@DU?$char_traits@D@std@@V?$allocator@D@2@@std@@V12@@std@@@2@@std@@QAEAAV?$basic_string@DU?$char_traits@D@std@@V?$allocator@D@2@@1@$$QAV21@@Z ; std::map<std::basic_string<char,std::char_traits<char>,std::allocator<char> >,std::basic_string<char,std::char_traits<char>,std::allocator<char> >,std::less<std::basic_string<char,std::char_traits<char>,std::allocator<char> > >,std::allocator<std::pair<std::basic_string<char,std::char_traits<char>,std::allocator<char> > const ,std::basic_string<char,std::char_traits<char>,std::allocator<char> > > > >::operator[]
PUBLIC	??1?$map@V?$basic_string@DU?$char_traits@D@std@@V?$allocator@D@2@@std@@V12@U?$less@V?$basic_string@DU?$char_traits@D@std@@V?$allocator@D@2@@std@@@2@V?$allocator@U?$pair@$$CBV?$basic_string@DU?$char_traits@D@std@@V?$allocator@D@2@@std@@V12@@std@@@2@@std@@QAE@XZ ; std::map<std::basic_string<char,std::char_traits<char>,std::allocator<char> >,std::basic_string<char,std::char_traits<char>,std::allocator<char> >,std::less<std::basic_string<char,std::char_traits<char>,std::allocator<char> > >,std::allocator<std::pair<std::basic_string<char,std::char_traits<char>,std::allocator<char> > const ,std::basic_string<char,std::char_traits<char>,std::allocator<char> > > > >::~map<std::basic_string<char,std::char_traits<char>,std::allocator<char> >,std::basic_string<char,std::char_traits<char>,std::allocator<char> >,std::less<std::basic_string<char,std::char_traits<char>,std::allocator<char> > >,std::allocator<std::pair<std::basic_string<char,std::char_traits<char>,std::allocator<char> > const ,std::basic_string<char,std::char_traits<char>,std::allocator<char> > > > >
PUBLIC	??$?9DU?$char_traits@D@std@@V?$allocator@D@1@@std@@YA_NABV?$basic_string@DU?$char_traits@D@std@@V?$allocator@D@2@@0@QBD@Z ; std::operator!=<char,std::char_traits<char>,std::allocator<char> >
PUBLIC	??$?8DU?$char_traits@D@std@@V?$allocator@D@1@@std@@YA_NQBDABV?$basic_string@DU?$char_traits@D@std@@V?$allocator@D@2@@0@@Z ; std::operator==<char,std::char_traits<char>,std::allocator<char> >
PUBLIC	??1?$pair@$$CBV?$basic_string@DU?$char_traits@D@std@@V?$allocator@D@2@@std@@V12@@std@@QAE@XZ ; std::pair<std::basic_string<char,std::char_traits<char>,std::allocator<char> > const ,std::basic_string<char,std::char_traits<char>,std::allocator<char> > >::~pair<std::basic_string<char,std::char_traits<char>,std::allocator<char> > const ,std::basic_string<char,std::char_traits<char>,std::allocator<char> > >
PUBLIC	??$_Find_lower_bound@V?$basic_string@DU?$char_traits@D@std@@V?$allocator@D@2@@std@@@?$_Tree@V?$_Tmap_traits@V?$basic_string@DU?$char_traits@D@std@@V?$allocator@D@2@@std@@V12@U?$less@V?$basic_string@DU?$char_traits@D@std@@V?$allocator@D@2@@std@@@2@V?$allocator@U?$pair@$$CBV?$basic_string@DU?$char_traits@D@std@@V?$allocator@D@2@@std@@V12@@std@@@2@$0A@@std@@@std@@IBE?AU?$_Tree_find_result@PAU?$_Tree_node@U?$pair@$$CBV?$basic_string@DU?$char_traits@D@std@@V?$allocator@D@2@@std@@V12@@std@@PAX@std@@@1@ABV?$basic_string@DU?$char_traits@D@std@@V?$allocator@D@2@@1@@Z ; std::_Tree<std::_Tmap_traits<std::basic_string<char,std::char_traits<char>,std::allocator<char> >,std::basic_string<char,std::char_traits<char>,std::allocator<char> >,std::less<std::basic_string<char,std::char_traits<char>,std::allocator<char> > >,std::allocator<std::pair<std::basic_string<char,std::char_traits<char>,std::allocator<char> > const ,std::basic_string<char,std::char_traits<char>,std::allocator<char> > > >,0> >::_Find_lower_bound<std::basic_string<char,std::char_traits<char>,std::allocator<char> > >
PUBLIC	??1?$_Alloc_construct_ptr@V?$allocator@U?$_Tree_node@U?$pair@$$CBV?$basic_string@DU?$char_traits@D@std@@V?$allocator@D@2@@std@@V12@@std@@PAX@std@@@std@@@std@@QAE@XZ ; std::_Alloc_construct_ptr<std::allocator<std::_Tree_node<std::pair<std::basic_string<char,std::char_traits<char>,std::allocator<char> > const ,std::basic_string<char,std::char_traits<char>,std::allocator<char> > >,void *> > >::~_Alloc_construct_ptr<std::allocator<std::_Tree_node<std::pair<std::basic_string<char,std::char_traits<char>,std::allocator<char> > const ,std::basic_string<char,std::char_traits<char>,std::allocator<char> > >,void *> > >
PUBLIC	??1?$_Tree_temp_node_alloc@V?$allocator@U?$_Tree_node@U?$pair@$$CBV?$basic_string@DU?$char_traits@D@std@@V?$allocator@D@2@@std@@V12@@std@@PAX@std@@@std@@@std@@QAE@XZ ; std::_Tree_temp_node_alloc<std::allocator<std::_Tree_node<std::pair<std::basic_string<char,std::char_traits<char>,std::allocator<char> > const ,std::basic_string<char,std::char_traits<char>,std::allocator<char> > >,void *> > >::~_Tree_temp_node_alloc<std::allocator<std::_Tree_node<std::pair<std::basic_string<char,std::char_traits<char>,std::allocator<char> > const ,std::basic_string<char,std::char_traits<char>,std::allocator<char> > >,void *> > >
PUBLIC	??$_Erase_tree@V?$allocator@U?$_Tree_node@U?$pair@$$CBV?$basic_string@DU?$char_traits@D@std@@V?$allocator@D@2@@std@@V12@@std@@PAX@std@@@std@@@?$_Tree_val@U?$_Tree_simple_types@U?$pair@$$CBV?$basic_string@DU?$char_traits@D@std@@V?$allocator@D@2@@std@@V12@@std@@@std@@@std@@QAEXAAV?$allocator@U?$_Tree_node@U?$pair@$$CBV?$basic_string@DU?$char_traits@D@std@@V?$allocator@D@2@@std@@V12@@std@@PAX@std@@@1@PAU?$_Tree_node@U?$pair@$$CBV?$basic_string@DU?$char_traits@D@std@@V?$allocator@D@2@@std@@V12@@std@@PAX@1@@Z ; std::_Tree_val<std::_Tree_simple_types<std::pair<std::basic_string<char,std::char_traits<char>,std::allocator<char> > const ,std::basic_string<char,std::char_traits<char>,std::allocator<char> > > > >::_Erase_tree<std::allocator<std::_Tree_node<std::pair<std::basic_string<char,std::char_traits<char>,std::allocator<char> > const ,std::basic_string<char,std::char_traits<char>,std::allocator<char> > >,void *> > >
PUBLIC	??$?MDU?$char_traits@D@std@@V?$allocator@D@1@@std@@YA_NABV?$basic_string@DU?$char_traits@D@std@@V?$allocator@D@2@@0@0@Z ; std::operator<<char,std::char_traits<char>,std::allocator<char> >
PUBLIC	?_OptionsStorage@?1??__local_stdio_printf_options@@9@4_KA ; `__local_stdio_printf_options'::`2'::_OptionsStorage
PUBLIC	??_7exception@std@@6B@				; std::exception::`vftable'
PUBLIC	??_C@_0BC@EOODALEL@Unknown?5exception@		; `string'
PUBLIC	??_7bad_alloc@std@@6B@				; std::bad_alloc::`vftable'
PUBLIC	??_7bad_array_new_length@std@@6B@		; std::bad_array_new_length::`vftable'
PUBLIC	??_C@_0BF@KINCDENJ@bad?5array?5new?5length@	; `string'
PUBLIC	__TI3?AVbad_array_new_length@std@@
PUBLIC	__CTA3?AVbad_array_new_length@std@@
PUBLIC	??_R0?AVbad_array_new_length@std@@@8		; std::bad_array_new_length `RTTI Type Descriptor'
PUBLIC	__CT??_R0?AVbad_array_new_length@std@@@8??0bad_array_new_length@std@@QAE@ABV01@@Z12
PUBLIC	??_R0?AVbad_alloc@std@@@8			; std::bad_alloc `RTTI Type Descriptor'
PUBLIC	__CT??_R0?AVbad_alloc@std@@@8??0bad_alloc@std@@QAE@ABV01@@Z12
PUBLIC	??_R0?AVexception@std@@@8			; std::exception `RTTI Type Descriptor'
PUBLIC	__CT??_R0?AVexception@std@@@8??0exception@std@@QAE@ABV01@@Z12
PUBLIC	??_C@_0BA@JFNIOLAK@string?5too?5long@		; `string'
PUBLIC	??_C@_0BB@GCADKGJO@map?1set?5too?5long@		; `string'
PUBLIC	??_R4exception@std@@6B@				; std::exception::`RTTI Complete Object Locator'
PUBLIC	??_R3exception@std@@8				; std::exception::`RTTI Class Hierarchy Descriptor'
PUBLIC	??_R2exception@std@@8				; std::exception::`RTTI Base Class Array'
PUBLIC	??_R1A@?0A@EA@exception@std@@8			; std::exception::`RTTI Base Class Descriptor at (0,-1,0,64)'
PUBLIC	??_R4bad_alloc@std@@6B@				; std::bad_alloc::`RTTI Complete Object Locator'
PUBLIC	??_R3bad_alloc@std@@8				; std::bad_alloc::`RTTI Class Hierarchy Descriptor'
PUBLIC	??_R2bad_alloc@std@@8				; std::bad_alloc::`RTTI Base Class Array'
PUBLIC	??_R1A@?0A@EA@bad_alloc@std@@8			; std::bad_alloc::`RTTI Base Class Descriptor at (0,-1,0,64)'
PUBLIC	??_R4bad_array_new_length@std@@6B@		; std::bad_array_new_length::`RTTI Complete Object Locator'
PUBLIC	??_R3bad_array_new_length@std@@8		; std::bad_array_new_length::`RTTI Class Hierarchy Descriptor'
PUBLIC	??_R2bad_array_new_length@std@@8		; std::bad_array_new_length::`RTTI Base Class Array'
PUBLIC	??_R1A@?0A@EA@bad_array_new_length@std@@8	; std::bad_array_new_length::`RTTI Base Class Descriptor at (0,-1,0,64)'
PUBLIC	??_7CGraphicSubImage@@6B@			; CGraphicSubImage::`vftable'
PUBLIC	?ms_singleton@?$CSingleton@VCResourceManager@@@@0PAVCResourceManager@@A ; CSingleton<CResourceManager>::ms_singleton
PUBLIC	??_C@_0BB@PNJLMPJB@CGraphicSubImage@		; `string'
PUBLIC	??_C@_02OJDBNLEE@?5?7@				; `string'
PUBLIC	??_C@_05PHLGJONK@title@				; `string'
PUBLIC	??_C@_07CPCPJPKL@version@			; `string'
PUBLIC	??_C@_05NGOMGBBD@image@				; `string'
PUBLIC	??_C@_04GOOOJOPP@left@				; `string'
PUBLIC	??_C@_03FGFCOCMD@top@				; `string'
PUBLIC	??_C@_05DHJDAOHK@right@				; `string'
PUBLIC	??_C@_06PMMPCIPB@bottom@			; `string'
PUBLIC	??_C@_08LAJAOJDG@subimage@			; `string'
PUBLIC	??_C@_03GJAMENNA@2?40@				; `string'
PUBLIC	??_C@_04HDOCAJNK@?$CFs?$CFs@			; `string'
PUBLIC	??_R4CGraphicSubImage@@6B@			; CGraphicSubImage::`RTTI Complete Object Locator'
PUBLIC	??_R0?AVCGraphicSubImage@@@8			; CGraphicSubImage `RTTI Type Descriptor'
PUBLIC	??_R3CGraphicSubImage@@8			; CGraphicSubImage::`RTTI Class Hierarchy Descriptor'
PUBLIC	??_R2CGraphicSubImage@@8			; CGraphicSubImage::`RTTI Base Class Array'
PUBLIC	??_R1A@?0A@EA@CGraphicSubImage@@8		; CGraphicSubImage::`RTTI Base Class Descriptor at (0,-1,0,64)'
PUBLIC	??_R1A@?0A@EA@CGraphicImage@@8			; CGraphicImage::`RTTI Base Class Descriptor at (0,-1,0,64)'
PUBLIC	??_R0?AVCGraphicImage@@@8			; CGraphicImage `RTTI Type Descriptor'
PUBLIC	??_R3CGraphicImage@@8				; CGraphicImage::`RTTI Class Hierarchy Descriptor'
PUBLIC	??_R2CGraphicImage@@8				; CGraphicImage::`RTTI Base Class Array'
PUBLIC	??_R1A@?0A@EA@CResource@@8			; CResource::`RTTI Base Class Descriptor at (0,-1,0,64)'
PUBLIC	??_R0?AVCResource@@@8				; CResource `RTTI Type Descriptor'
PUBLIC	??_R3CResource@@8				; CResource::`RTTI Class Hierarchy Descriptor'
PUBLIC	??_R2CResource@@8				; CResource::`RTTI Base Class Array'
PUBLIC	??_R1A@?0A@EA@CReferenceObject@@8		; CReferenceObject::`RTTI Base Class Descriptor at (0,-1,0,64)'
PUBLIC	??_R0?AVCReferenceObject@@@8			; CReferenceObject `RTTI Type Descriptor'
PUBLIC	??_R3CReferenceObject@@8			; CReferenceObject::`RTTI Class Hierarchy Descriptor'
PUBLIC	??_R2CReferenceObject@@8			; CReferenceObject::`RTTI Base Class Array'
EXTRN	??2@YAPAXI@Z:PROC				; operator new
EXTRN	??3@YAXPAXI@Z:PROC				; operator delete
EXTRN	___report_rangecheckfailure:PROC
EXTRN	__Init_thread_header:PROC
EXTRN	__Init_thread_abort:PROC
EXTRN	__Init_thread_footer:PROC
EXTRN	___std_terminate:PROC
EXTRN	__invalid_parameter_noinfo_noreturn:PROC
EXTRN	__atoi64:PROC
EXTRN	_strncpy:PROC
EXTRN	___stdio_common_vsprintf:PROC
EXTRN	___std_exception_copy:PROC
EXTRN	___std_exception_destroy:PROC
EXTRN	??_Eexception@std@@UAEPAXI@Z:PROC		; std::exception::`vector deleting destructor'
EXTRN	??_Ebad_alloc@std@@UAEPAXI@Z:PROC		; std::bad_alloc::`vector deleting destructor'
EXTRN	??_Ebad_array_new_length@std@@UAEPAXI@Z:PROC	; std::bad_array_new_length::`vector deleting destructor'
EXTRN	?_Xlength_error@std@@YAXPBD@Z:PROC		; std::_Xlength_error
EXTRN	?stl_lowers@@YAXAAV?$basic_string@DU?$char_traits@D@std@@V?$allocator@D@2@@std@@@Z:PROC ; stl_lowers
EXTRN	??0CMemoryTextFileLoader@@QAE@XZ:PROC		; CMemoryTextFileLoader::CMemoryTextFileLoader
EXTRN	??1CMemoryTextFileLoader@@UAE@XZ:PROC		; CMemoryTextFileLoader::~CMemoryTextFileLoader
EXTRN	?Bind@CMemoryTextFileLoader@@QAEXHPBX@Z:PROC	; CMemoryTextFileLoader::Bind
EXTRN	?GetLineCount@CMemoryTextFileLoader@@QAEKXZ:PROC ; CMemoryTextFileLoader::GetLineCount
EXTRN	?SplitLine@CMemoryTextFileLoader@@QAE_NKPAV?$vector@V?$basic_string@DU?$char_traits@D@std@@V?$allocator@D@2@@std@@V?$allocator@V?$basic_string@DU?$char_traits@D@std@@V?$allocator@D@2@@std@@@2@@std@@PBD@Z:PROC ; CMemoryTextFileLoader::SplitLine
EXTRN	?AddReference@CReferenceObject@@QAEXXZ:PROC	; CReferenceObject::AddReference
EXTRN	?Release@CReferenceObject@@QAEXXZ:PROC		; CReferenceObject::Release
EXTRN	?StringToType@CResource@@SAKPBD@Z:PROC		; CResource::StringToType
EXTRN	?IsEmpty@CResource@@QBE_NXZ:PROC		; CResource::IsEmpty
EXTRN	?IsType@CResource@@QAE_NK@Z:PROC		; CResource::IsType
EXTRN	?OnConstruct@CResource@@MAEXXZ:PROC		; CResource::OnConstruct
EXTRN	?OnSelfDestruct@CResource@@MAEXXZ:PROC		; CResource::OnSelfDestruct
EXTRN	?CreateFromTexturePointer@CGraphicImageTexture@@QAEXPBVCGraphicTexture@@@Z:PROC ; CGraphicImageTexture::CreateFromTexturePointer
EXTRN	?Type@CGraphicImage@@SAKXZ:PROC			; CGraphicImage::Type
EXTRN	??0CGraphicImage@@QAE@PBDK@Z:PROC		; CGraphicImage::CGraphicImage
EXTRN	??1CGraphicImage@@UAE@XZ:PROC			; CGraphicImage::~CGraphicImage
EXTRN	?DestroyDeviceObjects@CGraphicImage@@UAEXXZ:PROC ; CGraphicImage::DestroyDeviceObjects
EXTRN	?GetTexturePointer@CGraphicImage@@QAEPAVCGraphicTexture@@XZ:PROC ; CGraphicImage::GetTexturePointer
EXTRN	?OnIsType@CGraphicImage@@MAE_NK@Z:PROC		; CGraphicImage::OnIsType
EXTRN	??_ECGraphicSubImage@@UAEPAXI@Z:PROC		; CGraphicSubImage::`vector deleting destructor'
EXTRN	?GetResourcePointer@CResourceManager@@QAEPAVCResource@@PBD@Z:PROC ; CResourceManager::GetResourcePointer
EXTRN	@__security_check_cookie@4:PROC
EXTRN	__CxxThrowException@8:PROC
EXTRN	___CxxFrameHandler3:PROC
EXTRN	_memcpy:PROC
EXTRN	_memmove:PROC
EXTRN	__Init_thread_epoch:DWORD
EXTRN	??_7type_info@@6B@:QWORD			; type_info::`vftable'
EXTRN	___security_cookie:DWORD
EXTRN	__tls_array:DWORD
EXTRN	__tls_index:DWORD
;	COMDAT ?_OptionsStorage@?1??__local_stdio_printf_options@@9@4_KA
_BSS	SEGMENT
?_OptionsStorage@?1??__local_stdio_printf_options@@9@4_KA DQ 01H DUP (?) ; `__local_stdio_printf_options'::`2'::_OptionsStorage
_BSS	ENDS
;	COMDAT ?ms_singleton@?$CSingleton@VCResourceManager@@@@0PAVCResourceManager@@A
_BSS	SEGMENT
?ms_singleton@?$CSingleton@VCResourceManager@@@@0PAVCResourceManager@@A DD 01H DUP (?) ; CSingleton<CResourceManager>::ms_singleton
_BSS	ENDS
;	COMDAT ?s_type@?1??Type@CGraphicSubImage@@SAKXZ@4KA
_BSS	SEGMENT
?s_type@?1??Type@CGraphicSubImage@@SAKXZ@4KA DD 01H DUP (?) ; `CGraphicSubImage::Type'::`2'::s_type
_BSS	ENDS
;	COMDAT ?$TSS0@?1??Type@CGraphicSubImage@@SAKXZ@4HA
_BSS	SEGMENT
?$TSS0@?1??Type@CGraphicSubImage@@SAKXZ@4HA DD 01H DUP (?) ; `CGraphicSubImage::Type'::`2'::$TSS0
_BSS	ENDS
;	COMDAT ??_R2CReferenceObject@@8
rdata$r	SEGMENT
??_R2CReferenceObject@@8 DD FLAT:??_R1A@?0A@EA@CReferenceObject@@8 ; CReferenceObject::`RTTI Base Class Array'
rdata$r	ENDS
;	COMDAT ??_R3CReferenceObject@@8
rdata$r	SEGMENT
??_R3CReferenceObject@@8 DD 00H				; CReferenceObject::`RTTI Class Hierarchy Descriptor'
	DD	00H
	DD	01H
	DD	FLAT:??_R2CReferenceObject@@8
rdata$r	ENDS
;	COMDAT ??_R0?AVCReferenceObject@@@8
data$rs	SEGMENT
??_R0?AVCReferenceObject@@@8 DD FLAT:??_7type_info@@6B@	; CReferenceObject `RTTI Type Descriptor'
	DD	00H
	DB	'.?AVCReferenceObject@@', 00H
data$rs	ENDS
;	COMDAT ??_R1A@?0A@EA@CReferenceObject@@8
rdata$r	SEGMENT
??_R1A@?0A@EA@CReferenceObject@@8 DD FLAT:??_R0?AVCReferenceObject@@@8 ; CReferenceObject::`RTTI Base Class Descriptor at (0,-1,0,64)'
	DD	00H
	DD	00H
	DD	0ffffffffH
	DD	00H
	DD	040H
	DD	FLAT:??_R3CReferenceObject@@8
rdata$r	ENDS
;	COMDAT ??_R2CResource@@8
rdata$r	SEGMENT
??_R2CResource@@8 DD FLAT:??_R1A@?0A@EA@CResource@@8	; CResource::`RTTI Base Class Array'
	DD	FLAT:??_R1A@?0A@EA@CReferenceObject@@8
rdata$r	ENDS
;	COMDAT ??_R3CResource@@8
rdata$r	SEGMENT
??_R3CResource@@8 DD 00H				; CResource::`RTTI Class Hierarchy Descriptor'
	DD	00H
	DD	02H
	DD	FLAT:??_R2CResource@@8
rdata$r	ENDS
;	COMDAT ??_R0?AVCResource@@@8
data$rs	SEGMENT
??_R0?AVCResource@@@8 DD FLAT:??_7type_info@@6B@	; CResource `RTTI Type Descriptor'
	DD	00H
	DB	'.?AVCResource@@', 00H
data$rs	ENDS
;	COMDAT ??_R1A@?0A@EA@CResource@@8
rdata$r	SEGMENT
??_R1A@?0A@EA@CResource@@8 DD FLAT:??_R0?AVCResource@@@8 ; CResource::`RTTI Base Class Descriptor at (0,-1,0,64)'
	DD	01H
	DD	00H
	DD	0ffffffffH
	DD	00H
	DD	040H
	DD	FLAT:??_R3CResource@@8
rdata$r	ENDS
;	COMDAT ??_R2CGraphicImage@@8
rdata$r	SEGMENT
??_R2CGraphicImage@@8 DD FLAT:??_R1A@?0A@EA@CGraphicImage@@8 ; CGraphicImage::`RTTI Base Class Array'
	DD	FLAT:??_R1A@?0A@EA@CResource@@8
	DD	FLAT:??_R1A@?0A@EA@CReferenceObject@@8
rdata$r	ENDS
;	COMDAT ??_R3CGraphicImage@@8
rdata$r	SEGMENT
??_R3CGraphicImage@@8 DD 00H				; CGraphicImage::`RTTI Class Hierarchy Descriptor'
	DD	00H
	DD	03H
	DD	FLAT:??_R2CGraphicImage@@8
rdata$r	ENDS
;	COMDAT ??_R0?AVCGraphicImage@@@8
data$rs	SEGMENT
??_R0?AVCGraphicImage@@@8 DD FLAT:??_7type_info@@6B@	; CGraphicImage `RTTI Type Descriptor'
	DD	00H
	DB	'.?AVCGraphicImage@@', 00H
data$rs	ENDS
;	COMDAT ??_R1A@?0A@EA@CGraphicImage@@8
rdata$r	SEGMENT
??_R1A@?0A@EA@CGraphicImage@@8 DD FLAT:??_R0?AVCGraphicImage@@@8 ; CGraphicImage::`RTTI Base Class Descriptor at (0,-1,0,64)'
	DD	02H
	DD	00H
	DD	0ffffffffH
	DD	00H
	DD	040H
	DD	FLAT:??_R3CGraphicImage@@8
rdata$r	ENDS
;	COMDAT ??_R1A@?0A@EA@CGraphicSubImage@@8
rdata$r	SEGMENT
??_R1A@?0A@EA@CGraphicSubImage@@8 DD FLAT:??_R0?AVCGraphicSubImage@@@8 ; CGraphicSubImage::`RTTI Base Class Descriptor at (0,-1,0,64)'
	DD	03H
	DD	00H
	DD	0ffffffffH
	DD	00H
	DD	040H
	DD	FLAT:??_R3CGraphicSubImage@@8
rdata$r	ENDS
;	COMDAT ??_R2CGraphicSubImage@@8
rdata$r	SEGMENT
??_R2CGraphicSubImage@@8 DD FLAT:??_R1A@?0A@EA@CGraphicSubImage@@8 ; CGraphicSubImage::`RTTI Base Class Array'
	DD	FLAT:??_R1A@?0A@EA@CGraphicImage@@8
	DD	FLAT:??_R1A@?0A@EA@CResource@@8
	DD	FLAT:??_R1A@?0A@EA@CReferenceObject@@8
rdata$r	ENDS
;	COMDAT ??_R3CGraphicSubImage@@8
rdata$r	SEGMENT
??_R3CGraphicSubImage@@8 DD 00H				; CGraphicSubImage::`RTTI Class Hierarchy Descriptor'
	DD	00H
	DD	04H
	DD	FLAT:??_R2CGraphicSubImage@@8
rdata$r	ENDS
;	COMDAT ??_R0?AVCGraphicSubImage@@@8
data$rs	SEGMENT
??_R0?AVCGraphicSubImage@@@8 DD FLAT:??_7type_info@@6B@	; CGraphicSubImage `RTTI Type Descriptor'
	DD	00H
	DB	'.?AVCGraphicSubImage@@', 00H
data$rs	ENDS
;	COMDAT ??_R4CGraphicSubImage@@6B@
rdata$r	SEGMENT
??_R4CGraphicSubImage@@6B@ DD 00H			; CGraphicSubImage::`RTTI Complete Object Locator'
	DD	00H
	DD	00H
	DD	FLAT:??_R0?AVCGraphicSubImage@@@8
	DD	FLAT:??_R3CGraphicSubImage@@8
rdata$r	ENDS
;	COMDAT ??_C@_04HDOCAJNK@?$CFs?$CFs@
CONST	SEGMENT
??_C@_04HDOCAJNK@?$CFs?$CFs@ DB '%s%s', 00H		; `string'
CONST	ENDS
;	COMDAT ??_C@_03GJAMENNA@2?40@
CONST	SEGMENT
??_C@_03GJAMENNA@2?40@ DB '2.0', 00H			; `string'
CONST	ENDS
;	COMDAT ??_C@_08LAJAOJDG@subimage@
CONST	SEGMENT
??_C@_08LAJAOJDG@subimage@ DB 'subimage', 00H		; `string'
CONST	ENDS
;	COMDAT ??_C@_06PMMPCIPB@bottom@
CONST	SEGMENT
??_C@_06PMMPCIPB@bottom@ DB 'bottom', 00H		; `string'
CONST	ENDS
;	COMDAT ??_C@_05DHJDAOHK@right@
CONST	SEGMENT
??_C@_05DHJDAOHK@right@ DB 'right', 00H			; `string'
CONST	ENDS
;	COMDAT ??_C@_03FGFCOCMD@top@
CONST	SEGMENT
??_C@_03FGFCOCMD@top@ DB 'top', 00H			; `string'
CONST	ENDS
;	COMDAT ??_C@_04GOOOJOPP@left@
CONST	SEGMENT
??_C@_04GOOOJOPP@left@ DB 'left', 00H			; `string'
CONST	ENDS
;	COMDAT ??_C@_05NGOMGBBD@image@
CONST	SEGMENT
??_C@_05NGOMGBBD@image@ DB 'image', 00H			; `string'
CONST	ENDS
;	COMDAT ??_C@_07CPCPJPKL@version@
CONST	SEGMENT
??_C@_07CPCPJPKL@version@ DB 'version', 00H		; `string'
CONST	ENDS
;	COMDAT ??_C@_05PHLGJONK@title@
CONST	SEGMENT
??_C@_05PHLGJONK@title@ DB 'title', 00H			; `string'
CONST	ENDS
;	COMDAT ??_C@_02OJDBNLEE@?5?7@
CONST	SEGMENT
??_C@_02OJDBNLEE@?5?7@ DB ' ', 09H, 00H			; `string'
CONST	ENDS
;	COMDAT ??_C@_0BB@PNJLMPJB@CGraphicSubImage@
CONST	SEGMENT
??_C@_0BB@PNJLMPJB@CGraphicSubImage@ DB 'CGraphicSubImage', 00H ; `string'
CONST	ENDS
;	COMDAT ??_7CGraphicSubImage@@6B@
CONST	SEGMENT
??_7CGraphicSubImage@@6B@ DD FLAT:??_R4CGraphicSubImage@@6B@ ; CGraphicSubImage::`vftable'
	DD	FLAT:??_ECGraphicSubImage@@UAEPAXI@Z
	DD	FLAT:?OnConstruct@CResource@@MAEXXZ
	DD	FLAT:?OnSelfDestruct@CResource@@MAEXXZ
	DD	FLAT:?CreateDeviceObjects@CGraphicSubImage@@UAE_NXZ
	DD	FLAT:?DestroyDeviceObjects@CGraphicImage@@UAEXXZ
	DD	FLAT:?OnLoad@CGraphicSubImage@@MAE_NHPBX@Z
	DD	FLAT:?OnClear@CGraphicSubImage@@MAEXXZ
	DD	FLAT:?OnIsEmpty@CGraphicSubImage@@MBE_NXZ
	DD	FLAT:?OnIsType@CGraphicSubImage@@MAE_NK@Z
CONST	ENDS
;	COMDAT ??_R1A@?0A@EA@bad_array_new_length@std@@8
rdata$r	SEGMENT
??_R1A@?0A@EA@bad_array_new_length@std@@8 DD FLAT:??_R0?AVbad_array_new_length@std@@@8 ; std::bad_array_new_length::`RTTI Base Class Descriptor at (0,-1,0,64)'
	DD	02H
	DD	00H
	DD	0ffffffffH
	DD	00H
	DD	040H
	DD	FLAT:??_R3bad_array_new_length@std@@8
rdata$r	ENDS
;	COMDAT ??_R2bad_array_new_length@std@@8
rdata$r	SEGMENT
??_R2bad_array_new_length@std@@8 DD FLAT:??_R1A@?0A@EA@bad_array_new_length@std@@8 ; std::bad_array_new_length::`RTTI Base Class Array'
	DD	FLAT:??_R1A@?0A@EA@bad_alloc@std@@8
	DD	FLAT:??_R1A@?0A@EA@exception@std@@8
rdata$r	ENDS
;	COMDAT ??_R3bad_array_new_length@std@@8
rdata$r	SEGMENT
??_R3bad_array_new_length@std@@8 DD 00H			; std::bad_array_new_length::`RTTI Class Hierarchy Descriptor'
	DD	00H
	DD	03H
	DD	FLAT:??_R2bad_array_new_length@std@@8
rdata$r	ENDS
;	COMDAT ??_R4bad_array_new_length@std@@6B@
rdata$r	SEGMENT
??_R4bad_array_new_length@std@@6B@ DD 00H		; std::bad_array_new_length::`RTTI Complete Object Locator'
	DD	00H
	DD	00H
	DD	FLAT:??_R0?AVbad_array_new_length@std@@@8
	DD	FLAT:??_R3bad_array_new_length@std@@8
rdata$r	ENDS
;	COMDAT ??_R1A@?0A@EA@bad_alloc@std@@8
rdata$r	SEGMENT
??_R1A@?0A@EA@bad_alloc@std@@8 DD FLAT:??_R0?AVbad_alloc@std@@@8 ; std::bad_alloc::`RTTI Base Class Descriptor at (0,-1,0,64)'
	DD	01H
	DD	00H
	DD	0ffffffffH
	DD	00H
	DD	040H
	DD	FLAT:??_R3bad_alloc@std@@8
rdata$r	ENDS
;	COMDAT ??_R2bad_alloc@std@@8
rdata$r	SEGMENT
??_R2bad_alloc@std@@8 DD FLAT:??_R1A@?0A@EA@bad_alloc@std@@8 ; std::bad_alloc::`RTTI Base Class Array'
	DD	FLAT:??_R1A@?0A@EA@exception@std@@8
rdata$r	ENDS
;	COMDAT ??_R3bad_alloc@std@@8
rdata$r	SEGMENT
??_R3bad_alloc@std@@8 DD 00H				; std::bad_alloc::`RTTI Class Hierarchy Descriptor'
	DD	00H
	DD	02H
	DD	FLAT:??_R2bad_alloc@std@@8
rdata$r	ENDS
;	COMDAT ??_R4bad_alloc@std@@6B@
rdata$r	SEGMENT
??_R4bad_alloc@std@@6B@ DD 00H				; std::bad_alloc::`RTTI Complete Object Locator'
	DD	00H
	DD	00H
	DD	FLAT:??_R0?AVbad_alloc@std@@@8
	DD	FLAT:??_R3bad_alloc@std@@8
rdata$r	ENDS
;	COMDAT ??_R1A@?0A@EA@exception@std@@8
rdata$r	SEGMENT
??_R1A@?0A@EA@exception@std@@8 DD FLAT:??_R0?AVexception@std@@@8 ; std::exception::`RTTI Base Class Descriptor at (0,-1,0,64)'
	DD	00H
	DD	00H
	DD	0ffffffffH
	DD	00H
	DD	040H
	DD	FLAT:??_R3exception@std@@8
rdata$r	ENDS
;	COMDAT ??_R2exception@std@@8
rdata$r	SEGMENT
??_R2exception@std@@8 DD FLAT:??_R1A@?0A@EA@exception@std@@8 ; std::exception::`RTTI Base Class Array'
rdata$r	ENDS
;	COMDAT ??_R3exception@std@@8
rdata$r	SEGMENT
??_R3exception@std@@8 DD 00H				; std::exception::`RTTI Class Hierarchy Descriptor'
	DD	00H
	DD	01H
	DD	FLAT:??_R2exception@std@@8
rdata$r	ENDS
;	COMDAT ??_R4exception@std@@6B@
rdata$r	SEGMENT
??_R4exception@std@@6B@ DD 00H				; std::exception::`RTTI Complete Object Locator'
	DD	00H
	DD	00H
	DD	FLAT:??_R0?AVexception@std@@@8
	DD	FLAT:??_R3exception@std@@8
rdata$r	ENDS
;	COMDAT ??_C@_0BB@GCADKGJO@map?1set?5too?5long@
CONST	SEGMENT
??_C@_0BB@GCADKGJO@map?1set?5too?5long@ DB 'map/set too long', 00H ; `string'
CONST	ENDS
;	COMDAT ??_C@_0BA@JFNIOLAK@string?5too?5long@
CONST	SEGMENT
??_C@_0BA@JFNIOLAK@string?5too?5long@ DB 'string too long', 00H ; `string'
CONST	ENDS
;	COMDAT __CT??_R0?AVexception@std@@@8??0exception@std@@QAE@ABV01@@Z12
xdata$x	SEGMENT
__CT??_R0?AVexception@std@@@8??0exception@std@@QAE@ABV01@@Z12 DD 00H
	DD	FLAT:??_R0?AVexception@std@@@8
	DD	00H
	DD	0ffffffffH
	ORG $+4
	DD	0cH
	DD	FLAT:??0exception@std@@QAE@ABV01@@Z
xdata$x	ENDS
;	COMDAT ??_R0?AVexception@std@@@8
data$r	SEGMENT
??_R0?AVexception@std@@@8 DD FLAT:??_7type_info@@6B@	; std::exception `RTTI Type Descriptor'
	DD	00H
	DB	'.?AVexception@std@@', 00H
data$r	ENDS
;	COMDAT __CT??_R0?AVbad_alloc@std@@@8??0bad_alloc@std@@QAE@ABV01@@Z12
xdata$x	SEGMENT
__CT??_R0?AVbad_alloc@std@@@8??0bad_alloc@std@@QAE@ABV01@@Z12 DD 010H
	DD	FLAT:??_R0?AVbad_alloc@std@@@8
	DD	00H
	DD	0ffffffffH
	ORG $+4
	DD	0cH
	DD	FLAT:??0bad_alloc@std@@QAE@ABV01@@Z
xdata$x	ENDS
;	COMDAT ??_R0?AVbad_alloc@std@@@8
data$r	SEGMENT
??_R0?AVbad_alloc@std@@@8 DD FLAT:??_7type_info@@6B@	; std::bad_alloc `RTTI Type Descriptor'
	DD	00H
	DB	'.?AVbad_alloc@std@@', 00H
data$r	ENDS
;	COMDAT __CT??_R0?AVbad_array_new_length@std@@@8??0bad_array_new_length@std@@QAE@ABV01@@Z12
xdata$x	SEGMENT
__CT??_R0?AVbad_array_new_length@std@@@8??0bad_array_new_length@std@@QAE@ABV01@@Z12 DD 00H
	DD	FLAT:??_R0?AVbad_array_new_length@std@@@8
	DD	00H
	DD	0ffffffffH
	ORG $+4
	DD	0cH
	DD	FLAT:??0bad_array_new_length@std@@QAE@ABV01@@Z
xdata$x	ENDS
;	COMDAT ??_R0?AVbad_array_new_length@std@@@8
data$r	SEGMENT
??_R0?AVbad_array_new_length@std@@@8 DD FLAT:??_7type_info@@6B@ ; std::bad_array_new_length `RTTI Type Descriptor'
	DD	00H
	DB	'.?AVbad_array_new_length@std@@', 00H
data$r	ENDS
;	COMDAT __CTA3?AVbad_array_new_length@std@@
xdata$x	SEGMENT
__CTA3?AVbad_array_new_length@std@@ DD 03H
	DD	FLAT:__CT??_R0?AVbad_array_new_length@std@@@8??0bad_array_new_length@std@@QAE@ABV01@@Z12
	DD	FLAT:__CT??_R0?AVbad_alloc@std@@@8??0bad_alloc@std@@QAE@ABV01@@Z12
	DD	FLAT:__CT??_R0?AVexception@std@@@8??0exception@std@@QAE@ABV01@@Z12
xdata$x	ENDS
;	COMDAT __TI3?AVbad_array_new_length@std@@
xdata$x	SEGMENT
__TI3?AVbad_array_new_length@std@@ DD 00H
	DD	FLAT:??1bad_array_new_length@std@@UAE@XZ
	DD	00H
	DD	FLAT:__CTA3?AVbad_array_new_length@std@@
xdata$x	ENDS
;	COMDAT ??_C@_0BF@KINCDENJ@bad?5array?5new?5length@
CONST	SEGMENT
??_C@_0BF@KINCDENJ@bad?5array?5new?5length@ DB 'bad array new length', 00H ; `string'
CONST	ENDS
;	COMDAT ??_7bad_array_new_length@std@@6B@
CONST	SEGMENT
??_7bad_array_new_length@std@@6B@ DD FLAT:??_R4bad_array_new_length@std@@6B@ ; std::bad_array_new_length::`vftable'
	DD	FLAT:??_Ebad_array_new_length@std@@UAEPAXI@Z
	DD	FLAT:?what@exception@std@@UBEPBDXZ
CONST	ENDS
;	COMDAT ??_7bad_alloc@std@@6B@
CONST	SEGMENT
??_7bad_alloc@std@@6B@ DD FLAT:??_R4bad_alloc@std@@6B@	; std::bad_alloc::`vftable'
	DD	FLAT:??_Ebad_alloc@std@@UAEPAXI@Z
	DD	FLAT:?what@exception@std@@UBEPBDXZ
CONST	ENDS
;	COMDAT ??_C@_0BC@EOODALEL@Unknown?5exception@
CONST	SEGMENT
??_C@_0BC@EOODALEL@Unknown?5exception@ DB 'Unknown exception', 00H ; `string'
CONST	ENDS
;	COMDAT ??_7exception@std@@6B@
CONST	SEGMENT
??_7exception@std@@6B@ DD FLAT:??_R4exception@std@@6B@	; std::exception::`vftable'
	DD	FLAT:??_Eexception@std@@UAEPAXI@Z
	DD	FLAT:?what@exception@std@@UBEPBDXZ
CONST	ENDS
;	COMDAT xdata$x
xdata$x	SEGMENT
__unwindtable$??$?0ABUpiecewise_construct_t@std@@V?$tuple@$$QAV?$basic_string@DU?$char_traits@D@std@@V?$allocator@D@2@@std@@@1@V?$tuple@$$V@1@@?$_Tree_temp_node@V?$allocator@U?$_Tree_node@U?$pair@$$CBV?$basic_string@DU?$char_traits@D@std@@V?$allocator@D@2@@std@@V12@@std@@PAX@std@@@std@@@std@@QAE@AAV?$allocator@U?$_Tree_node@U?$pair@$$CBV?$basic_string@DU?$char_traits@D@std@@V?$allocator@D@2@@std@@V12@@std@@PAX@std@@@1@PAU?$_Tree_node@U?$pair@$$CBV?$basic_string@DU?$char_traits@D@std@@V?$allocator@D@2@@std@@V12@@std@@PAX@1@ABUpiecewise_construct_t@1@$$QAV?$tuple@$$QAV?$basic_string@DU?$char_traits@D@std@@V?$allocator@D@2@@std@@@1@$$QAV?$tuple@$$V@1@@Z DD 0ffffffffH
	DD	FLAT:__unwindfunclet$??$?0ABUpiecewise_construct_t@std@@V?$tuple@$$QAV?$basic_string@DU?$char_traits@D@std@@V?$allocator@D@2@@std@@@1@V?$tuple@$$V@1@@?$_Tree_temp_node@V?$allocator@U?$_Tree_node@U?$pair@$$CBV?$basic_string@DU?$char_traits@D@std@@V?$allocator@D@2@@std@@V12@@std@@PAX@std@@@std@@@std@@QAE@AAV?$allocator@U?$_Tree_node@U?$pair@$$CBV?$basic_string@DU?$char_traits@D@std@@V?$allocator@D@2@@std@@V12@@std@@PAX@std@@@1@PAU?$_Tree_node@U?$pair@$$CBV?$basic_string@DU?$char_traits@D@std@@V?$allocator@D@2@@std@@V12@@std@@PAX@1@ABUpiecewise_construct_t@1@$$QAV?$tuple@$$QAV?$basic_string@DU?$char_traits@D@std@@V?$allocator@D@2@@std@@@1@$$QAV?$tuple@$$V@1@@Z$1
__ehfuncinfo$??$?0ABUpiecewise_construct_t@std@@V?$tuple@$$QAV?$basic_string@DU?$char_traits@D@std@@V?$allocator@D@2@@std@@@1@V?$tuple@$$V@1@@?$_Tree_temp_node@V?$allocator@U?$_Tree_node@U?$pair@$$CBV?$basic_string@DU?$char_traits@D@std@@V?$allocator@D@2@@std@@V12@@std@@PAX@std@@@std@@@std@@QAE@AAV?$allocator@U?$_Tree_node@U?$pair@$$CBV?$basic_string@DU?$char_traits@D@std@@V?$allocator@D@2@@std@@V12@@std@@PAX@std@@@1@PAU?$_Tree_node@U?$pair@$$CBV?$basic_string@DU?$char_traits@D@std@@V?$allocator@D@2@@std@@V12@@std@@PAX@1@ABUpiecewise_construct_t@1@$$QAV?$tuple@$$QAV?$basic_string@DU?$char_traits@D@std@@V?$allocator@D@2@@std@@@1@$$QAV?$tuple@$$V@1@@Z DD 019930522H
	DD	01H
	DD	FLAT:__unwindtable$??$?0ABUpiecewise_construct_t@std@@V?$tuple@$$QAV?$basic_string@DU?$char_traits@D@std@@V?$allocator@D@2@@std@@@1@V?$tuple@$$V@1@@?$_Tree_temp_node@V?$allocator@U?$_Tree_node@U?$pair@$$CBV?$basic_string@DU?$char_traits@D@std@@V?$allocator@D@2@@std@@V12@@std@@PAX@std@@@std@@@std@@QAE@AAV?$allocator@U?$_Tree_node@U?$pair@$$CBV?$basic_string@DU?$char_traits@D@std@@V?$allocator@D@2@@std@@V12@@std@@PAX@std@@@1@PAU?$_Tree_node@U?$pair@$$CBV?$basic_string@DU?$char_traits@D@std@@V?$allocator@D@2@@std@@V12@@std@@PAX@1@ABUpiecewise_construct_t@1@$$QAV?$tuple@$$QAV?$basic_string@DU?$char_traits@D@std@@V?$allocator@D@2@@std@@@1@$$QAV?$tuple@$$V@1@@Z
	DD	2 DUP(00H)
	DD	2 DUP(00H)
	DD	00H
	DD	01H
xdata$x	ENDS
;	COMDAT xdata$x
xdata$x	SEGMENT
__unwindtable$??$?0ABUpiecewise_construct_t@std@@V?$tuple@ABV?$basic_string@DU?$char_traits@D@std@@V?$allocator@D@2@@std@@@1@V?$tuple@$$V@1@@?$_Tree_temp_node@V?$allocator@U?$_Tree_node@U?$pair@$$CBV?$basic_string@DU?$char_traits@D@std@@V?$allocator@D@2@@std@@V12@@std@@PAX@std@@@std@@@std@@QAE@AAV?$allocator@U?$_Tree_node@U?$pair@$$CBV?$basic_string@DU?$char_traits@D@std@@V?$allocator@D@2@@std@@V12@@std@@PAX@std@@@1@PAU?$_Tree_node@U?$pair@$$CBV?$basic_string@DU?$char_traits@D@std@@V?$allocator@D@2@@std@@V12@@std@@PAX@1@ABUpiecewise_construct_t@1@$$QAV?$tuple@ABV?$basic_string@DU?$char_traits@D@std@@V?$allocator@D@2@@std@@@1@$$QAV?$tuple@$$V@1@@Z DD 0ffffffffH
	DD	FLAT:__unwindfunclet$??$?0ABUpiecewise_construct_t@std@@V?$tuple@ABV?$basic_string@DU?$char_traits@D@std@@V?$allocator@D@2@@std@@@1@V?$tuple@$$V@1@@?$_Tree_temp_node@V?$allocator@U?$_Tree_node@U?$pair@$$CBV?$basic_string@DU?$char_traits@D@std@@V?$allocator@D@2@@std@@V12@@std@@PAX@std@@@std@@@std@@QAE@AAV?$allocator@U?$_Tree_node@U?$pair@$$CBV?$basic_string@DU?$char_traits@D@std@@V?$allocator@D@2@@std@@V12@@std@@PAX@std@@@1@PAU?$_Tree_node@U?$pair@$$CBV?$basic_string@DU?$char_traits@D@std@@V?$allocator@D@2@@std@@V12@@std@@PAX@1@ABUpiecewise_construct_t@1@$$QAV?$tuple@ABV?$basic_string@DU?$char_traits@D@std@@V?$allocator@D@2@@std@@@1@$$QAV?$tuple@$$V@1@@Z$1
	DD	0ffffffffH
	DD	FLAT:__unwindfunclet$??$?0ABUpiecewise_construct_t@std@@V?$tuple@ABV?$basic_string@DU?$char_traits@D@std@@V?$allocator@D@2@@std@@@1@V?$tuple@$$V@1@@?$_Tree_temp_node@V?$allocator@U?$_Tree_node@U?$pair@$$CBV?$basic_string@DU?$char_traits@D@std@@V?$allocator@D@2@@std@@V12@@std@@PAX@std@@@std@@@std@@QAE@AAV?$allocator@U?$_Tree_node@U?$pair@$$CBV?$basic_string@DU?$char_traits@D@std@@V?$allocator@D@2@@std@@V12@@std@@PAX@std@@@1@PAU?$_Tree_node@U?$pair@$$CBV?$basic_string@DU?$char_traits@D@std@@V?$allocator@D@2@@std@@V12@@std@@PAX@1@ABUpiecewise_construct_t@1@$$QAV?$tuple@ABV?$basic_string@DU?$char_traits@D@std@@V?$allocator@D@2@@std@@@1@$$QAV?$tuple@$$V@1@@Z$0
__ehfuncinfo$??$?0ABUpiecewise_construct_t@std@@V?$tuple@ABV?$basic_string@DU?$char_traits@D@std@@V?$allocator@D@2@@std@@@1@V?$tuple@$$V@1@@?$_Tree_temp_node@V?$allocator@U?$_Tree_node@U?$pair@$$CBV?$basic_string@DU?$char_traits@D@std@@V?$allocator@D@2@@std@@V12@@std@@PAX@std@@@std@@@std@@QAE@AAV?$allocator@U?$_Tree_node@U?$pair@$$CBV?$basic_string@DU?$char_traits@D@std@@V?$allocator@D@2@@std@@V12@@std@@PAX@std@@@1@PAU?$_Tree_node@U?$pair@$$CBV?$basic_string@DU?$char_traits@D@std@@V?$allocator@D@2@@std@@V12@@std@@PAX@1@ABUpiecewise_construct_t@1@$$QAV?$tuple@ABV?$basic_string@DU?$char_traits@D@std@@V?$allocator@D@2@@std@@@1@$$QAV?$tuple@$$V@1@@Z DD 019930522H
	DD	02H
	DD	FLAT:__unwindtable$??$?0ABUpiecewise_construct_t@std@@V?$tuple@ABV?$basic_string@DU?$char_traits@D@std@@V?$allocator@D@2@@std@@@1@V?$tuple@$$V@1@@?$_Tree_temp_node@V?$allocator@U?$_Tree_node@U?$pair@$$CBV?$basic_string@DU?$char_traits@D@std@@V?$allocator@D@2@@std@@V12@@std@@PAX@std@@@std@@@std@@QAE@AAV?$allocator@U?$_Tree_node@U?$pair@$$CBV?$basic_string@DU?$char_traits@D@std@@V?$allocator@D@2@@std@@V12@@std@@PAX@std@@@1@PAU?$_Tree_node@U?$pair@$$CBV?$basic_string@DU?$char_traits@D@std@@V?$allocator@D@2@@std@@V12@@std@@PAX@1@ABUpiecewise_construct_t@1@$$QAV?$tuple@ABV?$basic_string@DU?$char_traits@D@std@@V?$allocator@D@2@@std@@@1@$$QAV?$tuple@$$V@1@@Z
	DD	2 DUP(00H)
	DD	2 DUP(00H)
	DD	00H
	DD	01H
xdata$x	ENDS
;	COMDAT xdata$x
xdata$x	SEGMENT
__unwindtable$??0?$_Tree_temp_node_alloc@V?$allocator@U?$_Tree_node@U?$pair@$$CBV?$basic_string@DU?$char_traits@D@std@@V?$allocator@D@2@@std@@V12@@std@@PAX@std@@@std@@@std@@QAE@AAV?$allocator@U?$_Tree_node@U?$pair@$$CBV?$basic_string@DU?$char_traits@D@std@@V?$allocator@D@2@@std@@V12@@std@@PAX@std@@@1@@Z DD 0ffffffffH
	DD	FLAT:__unwindfunclet$??0?$_Tree_temp_node_alloc@V?$allocator@U?$_Tree_node@U?$pair@$$CBV?$basic_string@DU?$char_traits@D@std@@V?$allocator@D@2@@std@@V12@@std@@PAX@std@@@std@@@std@@QAE@AAV?$allocator@U?$_Tree_node@U?$pair@$$CBV?$basic_string@DU?$char_traits@D@std@@V?$allocator@D@2@@std@@V12@@std@@PAX@std@@@1@@Z$0
__ehfuncinfo$??0?$_Tree_temp_node_alloc@V?$allocator@U?$_Tree_node@U?$pair@$$CBV?$basic_string@DU?$char_traits@D@std@@V?$allocator@D@2@@std@@V12@@std@@PAX@std@@@std@@@std@@QAE@AAV?$allocator@U?$_Tree_node@U?$pair@$$CBV?$basic_string@DU?$char_traits@D@std@@V?$allocator@D@2@@std@@V12@@std@@PAX@std@@@1@@Z DD 019930522H
	DD	01H
	DD	FLAT:__unwindtable$??0?$_Tree_temp_node_alloc@V?$allocator@U?$_Tree_node@U?$pair@$$CBV?$basic_string@DU?$char_traits@D@std@@V?$allocator@D@2@@std@@V12@@std@@PAX@std@@@std@@@std@@QAE@AAV?$allocator@U?$_Tree_node@U?$pair@$$CBV?$basic_string@DU?$char_traits@D@std@@V?$allocator@D@2@@std@@V12@@std@@PAX@std@@@1@@Z
	DD	2 DUP(00H)
	DD	2 DUP(00H)
	DD	00H
	DD	01H
xdata$x	ENDS
;	COMDAT xdata$x
xdata$x	SEGMENT
__unwindtable$??$_Try_emplace@V?$basic_string@DU?$char_traits@D@std@@V?$allocator@D@2@@std@@$$V@?$map@V?$basic_string@DU?$char_traits@D@std@@V?$allocator@D@2@@std@@V12@U?$less@V?$basic_string@DU?$char_traits@D@std@@V?$allocator@D@2@@std@@@2@V?$allocator@U?$pair@$$CBV?$basic_string@DU?$char_traits@D@std@@V?$allocator@D@2@@std@@V12@@std@@@2@@std@@AAE?AU?$pair@PAU?$_Tree_node@U?$pair@$$CBV?$basic_string@DU?$char_traits@D@std@@V?$allocator@D@2@@std@@V12@@std@@PAX@std@@_N@1@$$QAV?$basic_string@DU?$char_traits@D@std@@V?$allocator@D@2@@1@@Z DD 0ffffffffH
	DD	FLAT:__unwindfunclet$??$_Try_emplace@V?$basic_string@DU?$char_traits@D@std@@V?$allocator@D@2@@std@@$$V@?$map@V?$basic_string@DU?$char_traits@D@std@@V?$allocator@D@2@@std@@V12@U?$less@V?$basic_string@DU?$char_traits@D@std@@V?$allocator@D@2@@std@@@2@V?$allocator@U?$pair@$$CBV?$basic_string@DU?$char_traits@D@std@@V?$allocator@D@2@@std@@V12@@std@@@2@@std@@AAE?AU?$pair@PAU?$_Tree_node@U?$pair@$$CBV?$basic_string@DU?$char_traits@D@std@@V?$allocator@D@2@@std@@V12@@std@@PAX@std@@_N@1@$$QAV?$basic_string@DU?$char_traits@D@std@@V?$allocator@D@2@@1@@Z$2
__ehfuncinfo$??$_Try_emplace@V?$basic_string@DU?$char_traits@D@std@@V?$allocator@D@2@@std@@$$V@?$map@V?$basic_string@DU?$char_traits@D@std@@V?$allocator@D@2@@std@@V12@U?$less@V?$basic_string@DU?$char_traits@D@std@@V?$allocator@D@2@@std@@@2@V?$allocator@U?$pair@$$CBV?$basic_string@DU?$char_traits@D@std@@V?$allocator@D@2@@std@@V12@@std@@@2@@std@@AAE?AU?$pair@PAU?$_Tree_node@U?$pair@$$CBV?$basic_string@DU?$char_traits@D@std@@V?$allocator@D@2@@std@@V12@@std@@PAX@std@@_N@1@$$QAV?$basic_string@DU?$char_traits@D@std@@V?$allocator@D@2@@1@@Z DD 019930522H
	DD	01H
	DD	FLAT:__unwindtable$??$_Try_emplace@V?$basic_string@DU?$char_traits@D@std@@V?$allocator@D@2@@std@@$$V@?$map@V?$basic_string@DU?$char_traits@D@std@@V?$allocator@D@2@@std@@V12@U?$less@V?$basic_string@DU?$char_traits@D@std@@V?$allocator@D@2@@std@@@2@V?$allocator@U?$pair@$$CBV?$basic_string@DU?$char_traits@D@std@@V?$allocator@D@2@@std@@V12@@std@@@2@@std@@AAE?AU?$pair@PAU?$_Tree_node@U?$pair@$$CBV?$basic_string@DU?$char_traits@D@std@@V?$allocator@D@2@@std@@V12@@std@@PAX@std@@_N@1@$$QAV?$basic_string@DU?$char_traits@D@std@@V?$allocator@D@2@@1@@Z
	DD	2 DUP(00H)
	DD	2 DUP(00H)
	DD	00H
	DD	01H
xdata$x	ENDS
;	COMDAT xdata$x
xdata$x	SEGMENT
__unwindtable$??$_Try_emplace@ABV?$basic_string@DU?$char_traits@D@std@@V?$allocator@D@2@@std@@$$V@?$map@V?$basic_string@DU?$char_traits@D@std@@V?$allocator@D@2@@std@@V12@U?$less@V?$basic_string@DU?$char_traits@D@std@@V?$allocator@D@2@@std@@@2@V?$allocator@U?$pair@$$CBV?$basic_string@DU?$char_traits@D@std@@V?$allocator@D@2@@std@@V12@@std@@@2@@std@@AAE?AU?$pair@PAU?$_Tree_node@U?$pair@$$CBV?$basic_string@DU?$char_traits@D@std@@V?$allocator@D@2@@std@@V12@@std@@PAX@std@@_N@1@ABV?$basic_string@DU?$char_traits@D@std@@V?$allocator@D@2@@1@@Z DD 0ffffffffH
	DD	FLAT:__unwindfunclet$??$_Try_emplace@ABV?$basic_string@DU?$char_traits@D@std@@V?$allocator@D@2@@std@@$$V@?$map@V?$basic_string@DU?$char_traits@D@std@@V?$allocator@D@2@@std@@V12@U?$less@V?$basic_string@DU?$char_traits@D@std@@V?$allocator@D@2@@std@@@2@V?$allocator@U?$pair@$$CBV?$basic_string@DU?$char_traits@D@std@@V?$allocator@D@2@@std@@V12@@std@@@2@@std@@AAE?AU?$pair@PAU?$_Tree_node@U?$pair@$$CBV?$basic_string@DU?$char_traits@D@std@@V?$allocator@D@2@@std@@V12@@std@@PAX@std@@_N@1@ABV?$basic_string@DU?$char_traits@D@std@@V?$allocator@D@2@@1@@Z$2
	DD	0ffffffffH
	DD	FLAT:__unwindfunclet$??$_Try_emplace@ABV?$basic_string@DU?$char_traits@D@std@@V?$allocator@D@2@@std@@$$V@?$map@V?$basic_string@DU?$char_traits@D@std@@V?$allocator@D@2@@std@@V12@U?$less@V?$basic_string@DU?$char_traits@D@std@@V?$allocator@D@2@@std@@@2@V?$allocator@U?$pair@$$CBV?$basic_string@DU?$char_traits@D@std@@V?$allocator@D@2@@std@@V12@@std@@@2@@std@@AAE?AU?$pair@PAU?$_Tree_node@U?$pair@$$CBV?$basic_string@DU?$char_traits@D@std@@V?$allocator@D@2@@std@@V12@@std@@PAX@std@@_N@1@ABV?$basic_string@DU?$char_traits@D@std@@V?$allocator@D@2@@1@@Z$1
__ehfuncinfo$??$_Try_emplace@ABV?$basic_string@DU?$char_traits@D@std@@V?$allocator@D@2@@std@@$$V@?$map@V?$basic_string@DU?$char_traits@D@std@@V?$allocator@D@2@@std@@V12@U?$less@V?$basic_string@DU?$char_traits@D@std@@V?$allocator@D@2@@std@@@2@V?$allocator@U?$pair@$$CBV?$basic_string@DU?$char_traits@D@std@@V?$allocator@D@2@@std@@V12@@std@@@2@@std@@AAE?AU?$pair@PAU?$_Tree_node@U?$pair@$$CBV?$basic_string@DU?$char_traits@D@std@@V?$allocator@D@2@@std@@V12@@std@@PAX@std@@_N@1@ABV?$basic_string@DU?$char_traits@D@std@@V?$allocator@D@2@@1@@Z DD 019930522H
	DD	02H
	DD	FLAT:__unwindtable$??$_Try_emplace@ABV?$basic_string@DU?$char_traits@D@std@@V?$allocator@D@2@@std@@$$V@?$map@V?$basic_string@DU?$char_traits@D@std@@V?$allocator@D@2@@std@@V12@U?$less@V?$basic_string@DU?$char_traits@D@std@@V?$allocator@D@2@@std@@@2@V?$allocator@U?$pair@$$CBV?$basic_string@DU?$char_traits@D@std@@V?$allocator@D@2@@std@@V12@@std@@@2@@std@@AAE?AU?$pair@PAU?$_Tree_node@U?$pair@$$CBV?$basic_string@DU?$char_traits@D@std@@V?$allocator@D@2@@std@@V12@@std@@PAX@std@@_N@1@ABV?$basic_string@DU?$char_traits@D@std@@V?$allocator@D@2@@1@@Z
	DD	2 DUP(00H)
	DD	2 DUP(00H)
	DD	00H
	DD	01H
xdata$x	ENDS
;	COMDAT xdata$x
xdata$x	SEGMENT
__unwindtable$??A?$map@V?$basic_string@DU?$char_traits@D@std@@V?$allocator@D@2@@std@@V12@U?$less@V?$basic_string@DU?$char_traits@D@std@@V?$allocator@D@2@@std@@@2@V?$allocator@U?$pair@$$CBV?$basic_string@DU?$char_traits@D@std@@V?$allocator@D@2@@std@@V12@@std@@@2@@std@@QAEAAV?$basic_string@DU?$char_traits@D@std@@V?$allocator@D@2@@1@ABV21@@Z DD 0ffffffffH
	DD	FLAT:__unwindfunclet$??A?$map@V?$basic_string@DU?$char_traits@D@std@@V?$allocator@D@2@@std@@V12@U?$less@V?$basic_string@DU?$char_traits@D@std@@V?$allocator@D@2@@std@@@2@V?$allocator@U?$pair@$$CBV?$basic_string@DU?$char_traits@D@std@@V?$allocator@D@2@@std@@V12@@std@@@2@@std@@QAEAAV?$basic_string@DU?$char_traits@D@std@@V?$allocator@D@2@@1@ABV21@@Z$2
	DD	0ffffffffH
	DD	FLAT:__unwindfunclet$??A?$map@V?$basic_string@DU?$char_traits@D@std@@V?$allocator@D@2@@std@@V12@U?$less@V?$basic_string@DU?$char_traits@D@std@@V?$allocator@D@2@@std@@@2@V?$allocator@U?$pair@$$CBV?$basic_string@DU?$char_traits@D@std@@V?$allocator@D@2@@std@@V12@@std@@@2@@std@@QAEAAV?$basic_string@DU?$char_traits@D@std@@V?$allocator@D@2@@1@ABV21@@Z$1
__ehfuncinfo$??A?$map@V?$basic_string@DU?$char_traits@D@std@@V?$allocator@D@2@@std@@V12@U?$less@V?$basic_string@DU?$char_traits@D@std@@V?$allocator@D@2@@std@@@2@V?$allocator@U?$pair@$$CBV?$basic_string@DU?$char_traits@D@std@@V?$allocator@D@2@@std@@V12@@std@@@2@@std@@QAEAAV?$basic_string@DU?$char_traits@D@std@@V?$allocator@D@2@@1@ABV21@@Z DD 019930522H
	DD	02H
	DD	FLAT:__unwindtable$??A?$map@V?$basic_string@DU?$char_traits@D@std@@V?$allocator@D@2@@std@@V12@U?$less@V?$basic_string@DU?$char_traits@D@std@@V?$allocator@D@2@@std@@@2@V?$allocator@U?$pair@$$CBV?$basic_string@DU?$char_traits@D@std@@V?$allocator@D@2@@std@@V12@@std@@@2@@std@@QAEAAV?$basic_string@DU?$char_traits@D@std@@V?$allocator@D@2@@1@ABV21@@Z
	DD	2 DUP(00H)
	DD	2 DUP(00H)
	DD	00H
	DD	01H
xdata$x	ENDS
;	COMDAT xdata$x
xdata$x	SEGMENT
__unwindtable$??A?$map@V?$basic_string@DU?$char_traits@D@std@@V?$allocator@D@2@@std@@V12@U?$less@V?$basic_string@DU?$char_traits@D@std@@V?$allocator@D@2@@std@@@2@V?$allocator@U?$pair@$$CBV?$basic_string@DU?$char_traits@D@std@@V?$allocator@D@2@@std@@V12@@std@@@2@@std@@QAEAAV?$basic_string@DU?$char_traits@D@std@@V?$allocator@D@2@@1@$$QAV21@@Z DD 0ffffffffH
	DD	FLAT:__unwindfunclet$??A?$map@V?$basic_string@DU?$char_traits@D@std@@V?$allocator@D@2@@std@@V12@U?$less@V?$basic_string@DU?$char_traits@D@std@@V?$allocator@D@2@@std@@@2@V?$allocator@U?$pair@$$CBV?$basic_string@DU?$char_traits@D@std@@V?$allocator@D@2@@std@@V12@@std@@@2@@std@@QAEAAV?$basic_string@DU?$char_traits@D@std@@V?$allocator@D@2@@1@$$QAV21@@Z$2
__ehfuncinfo$??A?$map@V?$basic_string@DU?$char_traits@D@std@@V?$allocator@D@2@@std@@V12@U?$less@V?$basic_string@DU?$char_traits@D@std@@V?$allocator@D@2@@std@@@2@V?$allocator@U?$pair@$$CBV?$basic_string@DU?$char_traits@D@std@@V?$allocator@D@2@@std@@V12@@std@@@2@@std@@QAEAAV?$basic_string@DU?$char_traits@D@std@@V?$allocator@D@2@@1@$$QAV21@@Z DD 019930522H
	DD	01H
	DD	FLAT:__unwindtable$??A?$map@V?$basic_string@DU?$char_traits@D@std@@V?$allocator@D@2@@std@@V12@U?$less@V?$basic_string@DU?$char_traits@D@std@@V?$allocator@D@2@@std@@@2@V?$allocator@U?$pair@$$CBV?$basic_string@DU?$char_traits@D@std@@V?$allocator@D@2@@std@@V12@@std@@@2@@std@@QAEAAV?$basic_string@DU?$char_traits@D@std@@V?$allocator@D@2@@1@$$QAV21@@Z
	DD	2 DUP(00H)
	DD	2 DUP(00H)
	DD	00H
	DD	01H
xdata$x	ENDS
;	COMDAT xdata$x
xdata$x	SEGMENT
__ehfuncinfo$??1?$CRef@VCGraphicImage@@@@QAE@XZ DD 019930522H
	DD	00H
	DD	00H
	DD	2 DUP(00H)
	DD	2 DUP(00H)
	DD	00H
	DD	05H
xdata$x	ENDS
;	COMDAT xdata$x
xdata$x	SEGMENT
__ehfuncinfo$?OnLoad@CGraphicSubImage@@MAE_NHPBX@Z DD 019930522H
	DD	0eH
	DD	FLAT:__unwindtable$?OnLoad@CGraphicSubImage@@MAE_NHPBX@Z
	DD	2 DUP(00H)
	DD	2 DUP(00H)
	DD	00H
	DD	01H
__unwindtable$?OnLoad@CGraphicSubImage@@MAE_NHPBX@Z DD 0ffffffffH
	DD	FLAT:__unwindfunclet$?OnLoad@CGraphicSubImage@@MAE_NHPBX@Z$0
	DD	00H
	DD	FLAT:__unwindfunclet$?OnLoad@CGraphicSubImage@@MAE_NHPBX@Z$1
	DD	01H
	DD	FLAT:__unwindfunclet$?OnLoad@CGraphicSubImage@@MAE_NHPBX@Z$2
	DD	02H
	DD	FLAT:__unwindfunclet$?OnLoad@CGraphicSubImage@@MAE_NHPBX@Z$15
	DD	02H
	DD	FLAT:__unwindfunclet$?OnLoad@CGraphicSubImage@@MAE_NHPBX@Z$14
	DD	02H
	DD	FLAT:__unwindfunclet$?OnLoad@CGraphicSubImage@@MAE_NHPBX@Z$3
	DD	05H
	DD	FLAT:__unwindfunclet$?OnLoad@CGraphicSubImage@@MAE_NHPBX@Z$28
	DD	02H
	DD	FLAT:__unwindfunclet$?OnLoad@CGraphicSubImage@@MAE_NHPBX@Z$4
	DD	07H
	DD	FLAT:__unwindfunclet$?OnLoad@CGraphicSubImage@@MAE_NHPBX@Z$42
	DD	02H
	DD	FLAT:__unwindfunclet$?OnLoad@CGraphicSubImage@@MAE_NHPBX@Z$5
	DD	02H
	DD	FLAT:__unwindfunclet$?OnLoad@CGraphicSubImage@@MAE_NHPBX@Z$6
	DD	02H
	DD	FLAT:__unwindfunclet$?OnLoad@CGraphicSubImage@@MAE_NHPBX@Z$7
	DD	02H
	DD	FLAT:__unwindfunclet$?OnLoad@CGraphicSubImage@@MAE_NHPBX@Z$8
	DD	02H
	DD	FLAT:__unwindfunclet$?OnLoad@CGraphicSubImage@@MAE_NHPBX@Z$9
xdata$x	ENDS
;	COMDAT xdata$x
xdata$x	SEGMENT
__unwindtable$??1CGraphicSubImage@@UAE@XZ DD 0ffffffffH
	DD	FLAT:___std_terminate
__ehfuncinfo$??1CGraphicSubImage@@UAE@XZ DD 019930522H
	DD	01H
	DD	FLAT:__unwindtable$??1CGraphicSubImage@@UAE@XZ
	DD	2 DUP(00H)
	DD	2 DUP(00H)
	DD	00H
	DD	05H
xdata$x	ENDS
;	COMDAT xdata$x
xdata$x	SEGMENT
__unwindtable$?Type@CGraphicSubImage@@SAKXZ DD 0ffffffffH
	DD	FLAT:__unwindfunclet$?Type@CGraphicSubImage@@SAKXZ$0
__ehfuncinfo$?Type@CGraphicSubImage@@SAKXZ DD 019930522H
	DD	01H
	DD	FLAT:__unwindtable$?Type@CGraphicSubImage@@SAKXZ
	DD	2 DUP(00H)
	DD	2 DUP(00H)
	DD	00H
	DD	01H
xdata$x	ENDS
; Function compile flags: /Ogtp
; File C:\Program Files (x86)\Microsoft Visual Studio\2019\Professional\VC\Tools\MSVC\14.29.30133\include\xstring
;	COMDAT ??$?MDU?$char_traits@D@std@@V?$allocator@D@1@@std@@YA_NABV?$basic_string@DU?$char_traits@D@std@@V?$allocator@D@2@@0@0@Z
_TEXT	SEGMENT
__Left$ = 8						; size = 4
__Right$ = 12						; size = 4
??$?MDU?$char_traits@D@std@@V?$allocator@D@1@@std@@YA_NABV?$basic_string@DU?$char_traits@D@std@@V?$allocator@D@2@@0@0@Z PROC ; std::operator<<char,std::char_traits<char>,std::allocator<char> >, COMDAT

; 4842 :     const basic_string<_Elem, _Traits, _Alloc>& _Left, const basic_string<_Elem, _Traits, _Alloc>& _Right) noexcept {

  00000	55		 push	 ebp
  00001	8b ec		 mov	 ebp, esp

; 2305 :         const value_type* _Result = _Bx._Buf;

  00003	8b 45 0c	 mov	 eax, DWORD PTR __Right$[ebp]
  00006	8b d0		 mov	 edx, eax

; 2319 :         return _BUF_SIZE <= _Myres;

  00008	83 78 14 10	 cmp	 DWORD PTR [eax+20], 16	; 00000010H

; 2306 :         if (_Large_string_engaged()) {

  0000c	72 02		 jb	 SHORT $LN6@operator

; 2307 :             _Result = _Unfancy(_Bx._Ptr);

  0000e	8b 10		 mov	 edx, DWORD PTR [eax]
$LN6@operator:

; 2305 :         const value_type* _Result = _Bx._Buf;

  00010	8b 4d 08	 mov	 ecx, DWORD PTR __Left$[ebp]
  00013	56		 push	 esi
  00014	8b f1		 mov	 esi, ecx

; 2319 :         return _BUF_SIZE <= _Myres;

  00016	83 79 14 10	 cmp	 DWORD PTR [ecx+20], 16	; 00000010H

; 2306 :         if (_Large_string_engaged()) {

  0001a	72 02		 jb	 SHORT $LN11@operator

; 2307 :             _Result = _Unfancy(_Bx._Ptr);

  0001c	8b 31		 mov	 esi, DWORD PTR [ecx]
$LN11@operator:

; 4414 :         return _Traits_compare<_Traits>(_Mypair._Myval2._Myptr(), _Mypair._Myval2._Mysize,

  0001e	ff 70 10	 push	 DWORD PTR [eax+16]
  00021	52		 push	 edx
  00022	ff 71 10	 push	 DWORD PTR [ecx+16]
  00025	56		 push	 esi
  00026	e8 00 00 00 00	 call	 ??$_Traits_compare@U?$char_traits@D@std@@@std@@YAHQBDI0I@Z ; std::_Traits_compare<std::char_traits<char> >
  0002b	83 c4 10	 add	 esp, 16			; 00000010H

; 4843 :     return _Left.compare(_Right) < 0;

  0002e	c1 e8 1f	 shr	 eax, 31			; 0000001fH
  00031	5e		 pop	 esi

; 4844 : }

  00032	5d		 pop	 ebp
  00033	c3		 ret	 0
??$?MDU?$char_traits@D@std@@V?$allocator@D@1@@std@@YA_NABV?$basic_string@DU?$char_traits@D@std@@V?$allocator@D@2@@0@0@Z ENDP ; std::operator<<char,std::char_traits<char>,std::allocator<char> >
_TEXT	ENDS
; Function compile flags: /Ogtp
; File C:\Program Files (x86)\Microsoft Visual Studio\2019\Professional\VC\Tools\MSVC\14.29.30133\include\xtree
; File C:\Program Files (x86)\Microsoft Visual Studio\2019\Professional\VC\Tools\MSVC\14.29.30133\include\utility
; File C:\Program Files (x86)\Microsoft Visual Studio\2019\Professional\VC\Tools\MSVC\14.29.30133\include\xtree
; File C:\Program Files (x86)\Microsoft Visual Studio\2019\Professional\VC\Tools\MSVC\14.29.30133\include\xmemory
; File C:\Program Files (x86)\Microsoft Visual Studio\2019\Professional\VC\Tools\MSVC\14.29.30133\include\xtree
; File C:\Program Files (x86)\Microsoft Visual Studio\2019\Professional\VC\Tools\MSVC\14.29.30133\include\xmemory
; File C:\Program Files (x86)\Microsoft Visual Studio\2019\Professional\VC\Tools\MSVC\14.29.30133\include\xtree
;	COMDAT ??$_Erase_tree@V?$allocator@U?$_Tree_node@U?$pair@$$CBV?$basic_string@DU?$char_traits@D@std@@V?$allocator@D@2@@std@@V12@@std@@PAX@std@@@std@@@?$_Tree_val@U?$_Tree_simple_types@U?$pair@$$CBV?$basic_string@DU?$char_traits@D@std@@V?$allocator@D@2@@std@@V12@@std@@@std@@@std@@QAEXAAV?$allocator@U?$_Tree_node@U?$pair@$$CBV?$basic_string@DU?$char_traits@D@std@@V?$allocator@D@2@@std@@V12@@std@@PAX@std@@@1@PAU?$_Tree_node@U?$pair@$$CBV?$basic_string@DU?$char_traits@D@std@@V?$allocator@D@2@@std@@V12@@std@@PAX@1@@Z
_TEXT	SEGMENT
_this$1$ = -4						; size = 4
__Al$ = 8						; size = 4
__Rootnode$ = 12					; size = 4
??$_Erase_tree@V?$allocator@U?$_Tree_node@U?$pair@$$CBV?$basic_string@DU?$char_traits@D@std@@V?$allocator@D@2@@std@@V12@@std@@PAX@std@@@std@@@?$_Tree_val@U?$_Tree_simple_types@U?$pair@$$CBV?$basic_string@DU?$char_traits@D@std@@V?$allocator@D@2@@std@@V12@@std@@@std@@@std@@QAEXAAV?$allocator@U?$_Tree_node@U?$pair@$$CBV?$basic_string@DU?$char_traits@D@std@@V?$allocator@D@2@@std@@V12@@std@@PAX@std@@@1@PAU?$_Tree_node@U?$pair@$$CBV?$basic_string@DU?$char_traits@D@std@@V?$allocator@D@2@@std@@V12@@std@@PAX@1@@Z PROC ; std::_Tree_val<std::_Tree_simple_types<std::pair<std::basic_string<char,std::char_traits<char>,std::allocator<char> > const ,std::basic_string<char,std::char_traits<char>,std::allocator<char> > > > >::_Erase_tree<std::allocator<std::_Tree_node<std::pair<std::basic_string<char,std::char_traits<char>,std::allocator<char> > const ,std::basic_string<char,std::char_traits<char>,std::allocator<char> > >,void *> > >, COMDAT
; _this$ = ecx

; 748  :     void _Erase_tree(_Alnode& _Al, _Nodeptr _Rootnode) noexcept {

  00000	55		 push	 ebp
  00001	8b ec		 mov	 ebp, esp
  00003	51		 push	 ecx
  00004	56		 push	 esi

; 749  :         while (!_Rootnode->_Isnil) { // free subtrees, then node

  00005	8b 75 0c	 mov	 esi, DWORD PTR __Rootnode$[ebp]
  00008	8b c1		 mov	 eax, ecx
  0000a	89 45 fc	 mov	 DWORD PTR _this$1$[ebp], eax
  0000d	80 7e 0d 00	 cmp	 BYTE PTR [esi+13], 0
  00011	75 32		 jne	 SHORT $LN3@Erase_tree
  00013	53		 push	 ebx
  00014	8b 5d 08	 mov	 ebx, DWORD PTR __Al$[ebp]
  00017	57		 push	 edi
$LL2@Erase_tree:

; 750  :             _Erase_tree(_Al, _Rootnode->_Right);

  00018	ff 76 08	 push	 DWORD PTR [esi+8]
  0001b	8b c8		 mov	 ecx, eax
  0001d	53		 push	 ebx
  0001e	e8 00 00 00 00	 call	 ??$_Erase_tree@V?$allocator@U?$_Tree_node@U?$pair@$$CBV?$basic_string@DU?$char_traits@D@std@@V?$allocator@D@2@@std@@V12@@std@@PAX@std@@@std@@@?$_Tree_val@U?$_Tree_simple_types@U?$pair@$$CBV?$basic_string@DU?$char_traits@D@std@@V?$allocator@D@2@@std@@V12@@std@@@std@@@std@@QAEXAAV?$allocator@U?$_Tree_node@U?$pair@$$CBV?$basic_string@DU?$char_traits@D@std@@V?$allocator@D@2@@std@@V12@@std@@PAX@std@@@1@PAU?$_Tree_node@U?$pair@$$CBV?$basic_string@DU?$char_traits@D@std@@V?$allocator@D@2@@std@@V12@@std@@PAX@1@@Z ; std::_Tree_val<std::_Tree_simple_types<std::pair<std::basic_string<char,std::char_traits<char>,std::allocator<char> > const ,std::basic_string<char,std::char_traits<char>,std::allocator<char> > > > >::_Erase_tree<std::allocator<std::_Tree_node<std::pair<std::basic_string<char,std::char_traits<char>,std::allocator<char> > const ,std::basic_string<char,std::char_traits<char>,std::allocator<char> > >,void *> > >
; File C:\Program Files (x86)\Microsoft Visual Studio\2019\Professional\VC\Tools\MSVC\14.29.30133\include\utility

; 616  :     _Ty _Old_val = static_cast<_Ty&&>(_Val);

  00023	8b fe		 mov	 edi, esi

; 617  :     _Val         = static_cast<_Other&&>(_New_val);

  00025	8b 36		 mov	 esi, DWORD PTR [esi]
; File C:\Program Files (x86)\Microsoft Visual Studio\2019\Professional\VC\Tools\MSVC\14.29.30133\include\xtree

; 385  :         allocator_traits<_Alloc>::destroy(_Al, _STD addressof(_Ptr->_Myval));

  00027	8d 4f 10	 lea	 ecx, DWORD PTR [edi+16]
  0002a	e8 00 00 00 00	 call	 ??1?$pair@$$CBV?$basic_string@DU?$char_traits@D@std@@V?$allocator@D@2@@std@@V12@@std@@QAE@XZ
; File C:\Program Files (x86)\Microsoft Visual Studio\2019\Professional\VC\Tools\MSVC\14.29.30133\include\xmemory

; 264  :         ::operator delete(_Ptr, _Bytes);

  0002f	6a 40		 push	 64			; 00000040H
  00031	57		 push	 edi
  00032	e8 00 00 00 00	 call	 ??3@YAXPAXI@Z		; operator delete
; File C:\Program Files (x86)\Microsoft Visual Studio\2019\Professional\VC\Tools\MSVC\14.29.30133\include\xtree

; 749  :         while (!_Rootnode->_Isnil) { // free subtrees, then node

  00037	8b 45 fc	 mov	 eax, DWORD PTR _this$1$[ebp]
; File C:\Program Files (x86)\Microsoft Visual Studio\2019\Professional\VC\Tools\MSVC\14.29.30133\include\xmemory

; 264  :         ::operator delete(_Ptr, _Bytes);

  0003a	83 c4 08	 add	 esp, 8
; File C:\Program Files (x86)\Microsoft Visual Studio\2019\Professional\VC\Tools\MSVC\14.29.30133\include\xtree

; 749  :         while (!_Rootnode->_Isnil) { // free subtrees, then node

  0003d	80 7e 0d 00	 cmp	 BYTE PTR [esi+13], 0
  00041	74 d5		 je	 SHORT $LL2@Erase_tree
  00043	5f		 pop	 edi
  00044	5b		 pop	 ebx
$LN3@Erase_tree:
  00045	5e		 pop	 esi

; 751  :             _Alnode::value_type::_Freenode(_Al, _STD exchange(_Rootnode, _Rootnode->_Left));
; 752  :         }
; 753  :     }

  00046	8b e5		 mov	 esp, ebp
  00048	5d		 pop	 ebp
  00049	c2 08 00	 ret	 8
??$_Erase_tree@V?$allocator@U?$_Tree_node@U?$pair@$$CBV?$basic_string@DU?$char_traits@D@std@@V?$allocator@D@2@@std@@V12@@std@@PAX@std@@@std@@@?$_Tree_val@U?$_Tree_simple_types@U?$pair@$$CBV?$basic_string@DU?$char_traits@D@std@@V?$allocator@D@2@@std@@V12@@std@@@std@@@std@@QAEXAAV?$allocator@U?$_Tree_node@U?$pair@$$CBV?$basic_string@DU?$char_traits@D@std@@V?$allocator@D@2@@std@@V12@@std@@PAX@std@@@1@PAU?$_Tree_node@U?$pair@$$CBV?$basic_string@DU?$char_traits@D@std@@V?$allocator@D@2@@std@@V12@@std@@PAX@1@@Z ENDP ; std::_Tree_val<std::_Tree_simple_types<std::pair<std::basic_string<char,std::char_traits<char>,std::allocator<char> > const ,std::basic_string<char,std::char_traits<char>,std::allocator<char> > > > >::_Erase_tree<std::allocator<std::_Tree_node<std::pair<std::basic_string<char,std::char_traits<char>,std::allocator<char> > const ,std::basic_string<char,std::char_traits<char>,std::allocator<char> > >,void *> > >
_TEXT	ENDS
; Function compile flags: /Ogtp
; File C:\Program Files (x86)\Microsoft Visual Studio\2019\Professional\VC\Tools\MSVC\14.29.30133\include\xmemory
;	COMDAT ??1?$_Tree_temp_node_alloc@V?$allocator@U?$_Tree_node@U?$pair@$$CBV?$basic_string@DU?$char_traits@D@std@@V?$allocator@D@2@@std@@V12@@std@@PAX@std@@@std@@@std@@QAE@XZ
_TEXT	SEGMENT
??1?$_Tree_temp_node_alloc@V?$allocator@U?$_Tree_node@U?$pair@$$CBV?$basic_string@DU?$char_traits@D@std@@V?$allocator@D@2@@std@@V12@@std@@PAX@std@@@std@@@std@@QAE@XZ PROC ; std::_Tree_temp_node_alloc<std::allocator<std::_Tree_node<std::pair<std::basic_string<char,std::char_traits<char>,std::allocator<char> > const ,std::basic_string<char,std::char_traits<char>,std::allocator<char> > >,void *> > >::~_Tree_temp_node_alloc<std::allocator<std::_Tree_node<std::pair<std::basic_string<char,std::char_traits<char>,std::allocator<char> > const ,std::basic_string<char,std::char_traits<char>,std::allocator<char> > >,void *> > >, COMDAT
; _this$ = ecx

; 1024 :         if (_Ptr) {

  00000	8b 41 04	 mov	 eax, DWORD PTR [ecx+4]
  00003	85 c0		 test	 eax, eax
  00005	74 0b		 je	 SHORT $LN10@Tree_temp_

; 264  :         ::operator delete(_Ptr, _Bytes);

  00007	6a 40		 push	 64			; 00000040H
  00009	50		 push	 eax
  0000a	e8 00 00 00 00	 call	 ??3@YAXPAXI@Z		; operator delete
  0000f	83 c4 08	 add	 esp, 8
$LN10@Tree_temp_:
  00012	c3		 ret	 0
??1?$_Tree_temp_node_alloc@V?$allocator@U?$_Tree_node@U?$pair@$$CBV?$basic_string@DU?$char_traits@D@std@@V?$allocator@D@2@@std@@V12@@std@@PAX@std@@@std@@@std@@QAE@XZ ENDP ; std::_Tree_temp_node_alloc<std::allocator<std::_Tree_node<std::pair<std::basic_string<char,std::char_traits<char>,std::allocator<char> > const ,std::basic_string<char,std::char_traits<char>,std::allocator<char> > >,void *> > >::~_Tree_temp_node_alloc<std::allocator<std::_Tree_node<std::pair<std::basic_string<char,std::char_traits<char>,std::allocator<char> > const ,std::basic_string<char,std::char_traits<char>,std::allocator<char> > >,void *> > >
_TEXT	ENDS
; Function compile flags: /Ogtp
; File C:\Program Files (x86)\Microsoft Visual Studio\2019\Professional\VC\Tools\MSVC\14.29.30133\include\xmemory
;	COMDAT ??1?$_Alloc_construct_ptr@V?$allocator@U?$_Tree_node@U?$pair@$$CBV?$basic_string@DU?$char_traits@D@std@@V?$allocator@D@2@@std@@V12@@std@@PAX@std@@@std@@@std@@QAE@XZ
_TEXT	SEGMENT
??1?$_Alloc_construct_ptr@V?$allocator@U?$_Tree_node@U?$pair@$$CBV?$basic_string@DU?$char_traits@D@std@@V?$allocator@D@2@@std@@V12@@std@@PAX@std@@@std@@@std@@QAE@XZ PROC ; std::_Alloc_construct_ptr<std::allocator<std::_Tree_node<std::pair<std::basic_string<char,std::char_traits<char>,std::allocator<char> > const ,std::basic_string<char,std::char_traits<char>,std::allocator<char> > >,void *> > >::~_Alloc_construct_ptr<std::allocator<std::_Tree_node<std::pair<std::basic_string<char,std::char_traits<char>,std::allocator<char> > const ,std::basic_string<char,std::char_traits<char>,std::allocator<char> > >,void *> > >, COMDAT
; _this$ = ecx

; 1024 :         if (_Ptr) {

  00000	8b 41 04	 mov	 eax, DWORD PTR [ecx+4]
  00003	85 c0		 test	 eax, eax
  00005	74 0b		 je	 SHORT $LN8@Alloc_cons

; 264  :         ::operator delete(_Ptr, _Bytes);

  00007	6a 40		 push	 64			; 00000040H
  00009	50		 push	 eax
  0000a	e8 00 00 00 00	 call	 ??3@YAXPAXI@Z		; operator delete
  0000f	83 c4 08	 add	 esp, 8
$LN8@Alloc_cons:

; 1025 :             _Al.deallocate(_Ptr, 1);
; 1026 :         }
; 1027 :     }

  00012	c3		 ret	 0
??1?$_Alloc_construct_ptr@V?$allocator@U?$_Tree_node@U?$pair@$$CBV?$basic_string@DU?$char_traits@D@std@@V?$allocator@D@2@@std@@V12@@std@@PAX@std@@@std@@@std@@QAE@XZ ENDP ; std::_Alloc_construct_ptr<std::allocator<std::_Tree_node<std::pair<std::basic_string<char,std::char_traits<char>,std::allocator<char> > const ,std::basic_string<char,std::char_traits<char>,std::allocator<char> > >,void *> > >::~_Alloc_construct_ptr<std::allocator<std::_Tree_node<std::pair<std::basic_string<char,std::char_traits<char>,std::allocator<char> > const ,std::basic_string<char,std::char_traits<char>,std::allocator<char> > >,void *> > >
_TEXT	ENDS
; Function compile flags: /Ogtp
; File C:\Program Files (x86)\Microsoft Visual Studio\2019\Professional\VC\Tools\MSVC\14.29.30133\include\xtree
; File C:\Program Files (x86)\Microsoft Visual Studio\2019\Professional\VC\Tools\MSVC\14.29.30133\include\xstddef
; File C:\Program Files (x86)\Microsoft Visual Studio\2019\Professional\VC\Tools\MSVC\14.29.30133\include\xtree
;	COMDAT ??$_Find_lower_bound@V?$basic_string@DU?$char_traits@D@std@@V?$allocator@D@2@@std@@@?$_Tree@V?$_Tmap_traits@V?$basic_string@DU?$char_traits@D@std@@V?$allocator@D@2@@std@@V12@U?$less@V?$basic_string@DU?$char_traits@D@std@@V?$allocator@D@2@@std@@@2@V?$allocator@U?$pair@$$CBV?$basic_string@DU?$char_traits@D@std@@V?$allocator@D@2@@std@@V12@@std@@@2@$0A@@std@@@std@@IBE?AU?$_Tree_find_result@PAU?$_Tree_node@U?$pair@$$CBV?$basic_string@DU?$char_traits@D@std@@V?$allocator@D@2@@std@@V12@@std@@PAX@std@@@1@ABV?$basic_string@DU?$char_traits@D@std@@V?$allocator@D@2@@1@@Z
_TEXT	SEGMENT
___$ReturnUdt$ = 8					; size = 4
__Keyval$ = 12						; size = 4
??$_Find_lower_bound@V?$basic_string@DU?$char_traits@D@std@@V?$allocator@D@2@@std@@@?$_Tree@V?$_Tmap_traits@V?$basic_string@DU?$char_traits@D@std@@V?$allocator@D@2@@std@@V12@U?$less@V?$basic_string@DU?$char_traits@D@std@@V?$allocator@D@2@@std@@@2@V?$allocator@U?$pair@$$CBV?$basic_string@DU?$char_traits@D@std@@V?$allocator@D@2@@std@@V12@@std@@@2@$0A@@std@@@std@@IBE?AU?$_Tree_find_result@PAU?$_Tree_node@U?$pair@$$CBV?$basic_string@DU?$char_traits@D@std@@V?$allocator@D@2@@std@@V12@@std@@PAX@std@@@1@ABV?$basic_string@DU?$char_traits@D@std@@V?$allocator@D@2@@1@@Z PROC ; std::_Tree<std::_Tmap_traits<std::basic_string<char,std::char_traits<char>,std::allocator<char> >,std::basic_string<char,std::char_traits<char>,std::allocator<char> >,std::less<std::basic_string<char,std::char_traits<char>,std::allocator<char> > >,std::allocator<std::pair<std::basic_string<char,std::char_traits<char>,std::allocator<char> > const ,std::basic_string<char,std::char_traits<char>,std::allocator<char> > > >,0> >::_Find_lower_bound<std::basic_string<char,std::char_traits<char>,std::allocator<char> > >, COMDAT
; _this$ = ecx

; 1603 :     _Tree_find_result<_Nodeptr> _Find_lower_bound(const _Keyty& _Keyval) const {

  00000	55		 push	 ebp
  00001	8b ec		 mov	 ebp, esp

; 1604 :         const auto _Scary = _Get_scary();
; 1605 :         _Tree_find_result<_Nodeptr> _Result{{_Scary->_Myhead->_Parent, _Tree_child::_Right}, _Scary->_Myhead};

  00003	8b 01		 mov	 eax, DWORD PTR [ecx]
  00005	56		 push	 esi
  00006	57		 push	 edi
  00007	8b 7d 08	 mov	 edi, DWORD PTR ___$ReturnUdt$[ebp]
  0000a	8b 70 04	 mov	 esi, DWORD PTR [eax+4]
  0000d	89 37		 mov	 DWORD PTR [edi], esi

; 1606 :         _Nodeptr _Trynode = _Result._Location._Parent;
; 1607 :         while (!_Trynode->_Isnil) {

  0000f	80 7e 0d 00	 cmp	 BYTE PTR [esi+13], 0
  00013	c7 47 04 00 00
	00 00		 mov	 DWORD PTR [edi+4], 0
  0001a	89 47 08	 mov	 DWORD PTR [edi+8], eax
  0001d	75 32		 jne	 SHORT $LN12@Find_lower
  0001f	53		 push	 ebx
  00020	8b 5d 0c	 mov	 ebx, DWORD PTR __Keyval$[ebp]
$LL2@Find_lower:

; 1609 :             if (_DEBUG_LT_PRED(_Getcomp(), _Traits::_Kfn(_Trynode->_Myval), _Keyval)) {

  00023	8d 46 10	 lea	 eax, DWORD PTR [esi+16]
  00026	89 37		 mov	 DWORD PTR [edi], esi
; File C:\Program Files (x86)\Microsoft Visual Studio\2019\Professional\VC\Tools\MSVC\14.29.30133\include\xstddef

; 127  :         return _Left < _Right;

  00028	53		 push	 ebx
  00029	50		 push	 eax
  0002a	e8 00 00 00 00	 call	 ??$?MDU?$char_traits@D@std@@V?$allocator@D@1@@std@@YA_NABV?$basic_string@DU?$char_traits@D@std@@V?$allocator@D@2@@0@0@Z ; std::operator<<char,std::char_traits<char>,std::allocator<char> >
  0002f	83 c4 08	 add	 esp, 8
; File C:\Program Files (x86)\Microsoft Visual Studio\2019\Professional\VC\Tools\MSVC\14.29.30133\include\xtree

; 1609 :             if (_DEBUG_LT_PRED(_Getcomp(), _Traits::_Kfn(_Trynode->_Myval), _Keyval)) {

  00032	84 c0		 test	 al, al
  00034	74 07		 je	 SHORT $LN4@Find_lower

; 1610 :                 _Result._Location._Child = _Tree_child::_Right;
; 1611 :                 _Trynode                 = _Trynode->_Right;

  00036	8b 76 08	 mov	 esi, DWORD PTR [esi+8]
  00039	33 c0		 xor	 eax, eax

; 1612 :             } else {

  0003b	eb 0a		 jmp	 SHORT $LN5@Find_lower
$LN4@Find_lower:

; 1613 :                 _Result._Location._Child = _Tree_child::_Left;
; 1614 :                 _Result._Bound           = _Trynode;

  0003d	89 77 08	 mov	 DWORD PTR [edi+8], esi

; 1615 :                 _Trynode                 = _Trynode->_Left;

  00040	b8 01 00 00 00	 mov	 eax, 1
  00045	8b 36		 mov	 esi, DWORD PTR [esi]
$LN5@Find_lower:

; 1606 :         _Nodeptr _Trynode = _Result._Location._Parent;
; 1607 :         while (!_Trynode->_Isnil) {

  00047	89 47 04	 mov	 DWORD PTR [edi+4], eax
  0004a	80 7e 0d 00	 cmp	 BYTE PTR [esi+13], 0
  0004e	74 d3		 je	 SHORT $LL2@Find_lower

; 1616 :             }
; 1617 :         }
; 1618 : 
; 1619 :         return _Result;

  00050	5b		 pop	 ebx
$LN12@Find_lower:

; 1620 :     }

  00051	8b c7		 mov	 eax, edi
  00053	5f		 pop	 edi
  00054	5e		 pop	 esi
  00055	5d		 pop	 ebp
  00056	c2 08 00	 ret	 8
??$_Find_lower_bound@V?$basic_string@DU?$char_traits@D@std@@V?$allocator@D@2@@std@@@?$_Tree@V?$_Tmap_traits@V?$basic_string@DU?$char_traits@D@std@@V?$allocator@D@2@@std@@V12@U?$less@V?$basic_string@DU?$char_traits@D@std@@V?$allocator@D@2@@std@@@2@V?$allocator@U?$pair@$$CBV?$basic_string@DU?$char_traits@D@std@@V?$allocator@D@2@@std@@V12@@std@@@2@$0A@@std@@@std@@IBE?AU?$_Tree_find_result@PAU?$_Tree_node@U?$pair@$$CBV?$basic_string@DU?$char_traits@D@std@@V?$allocator@D@2@@std@@V12@@std@@PAX@std@@@1@ABV?$basic_string@DU?$char_traits@D@std@@V?$allocator@D@2@@1@@Z ENDP ; std::_Tree<std::_Tmap_traits<std::basic_string<char,std::char_traits<char>,std::allocator<char> >,std::basic_string<char,std::char_traits<char>,std::allocator<char> >,std::less<std::basic_string<char,std::char_traits<char>,std::allocator<char> > >,std::allocator<std::pair<std::basic_string<char,std::char_traits<char>,std::allocator<char> > const ,std::basic_string<char,std::char_traits<char>,std::allocator<char> > > >,0> >::_Find_lower_bound<std::basic_string<char,std::char_traits<char>,std::allocator<char> > >
_TEXT	ENDS
; Function compile flags: /Ogtp
; File C:\Program Files (x86)\Microsoft Visual Studio\2019\Professional\VC\Tools\MSVC\14.29.30133\include\xstring
; File C:\Program Files (x86)\Microsoft Visual Studio\2019\Professional\VC\Tools\MSVC\14.29.30133\include\xmemory
; File C:\Program Files (x86)\Microsoft Visual Studio\2019\Professional\VC\Tools\MSVC\14.29.30133\include\xstring
; File C:\Program Files (x86)\Microsoft Visual Studio\2019\Professional\VC\Tools\MSVC\14.29.30133\include\xmemory
; File C:\Program Files (x86)\Microsoft Visual Studio\2019\Professional\VC\Tools\MSVC\14.29.30133\include\xstring
; File C:\Program Files (x86)\Microsoft Visual Studio\2019\Professional\VC\Tools\MSVC\14.29.30133\include\xmemory
; File C:\Program Files (x86)\Microsoft Visual Studio\2019\Professional\VC\Tools\MSVC\14.29.30133\include\xstring
; File C:\Program Files (x86)\Microsoft Visual Studio\2019\Professional\VC\Tools\MSVC\14.29.30133\include\xmemory
; File C:\Program Files (x86)\Microsoft Visual Studio\2019\Professional\VC\Tools\MSVC\14.29.30133\include\xstring
; File C:\Program Files (x86)\Microsoft Visual Studio\2019\Professional\VC\Tools\MSVC\14.29.30133\include\xmemory
;	COMDAT ??1?$pair@$$CBV?$basic_string@DU?$char_traits@D@std@@V?$allocator@D@2@@std@@V12@@std@@QAE@XZ
_TEXT	SEGMENT
??1?$pair@$$CBV?$basic_string@DU?$char_traits@D@std@@V?$allocator@D@2@@std@@V12@@std@@QAE@XZ PROC ; std::pair<std::basic_string<char,std::char_traits<char>,std::allocator<char> > const ,std::basic_string<char,std::char_traits<char>,std::allocator<char> > >::~pair<std::basic_string<char,std::char_traits<char>,std::allocator<char> > const ,std::basic_string<char,std::char_traits<char>,std::allocator<char> > >, COMDAT
; _this$ = ecx
; File C:\Program Files (x86)\Microsoft Visual Studio\2019\Professional\VC\Tools\MSVC\14.29.30133\include\xstring

; 2319 :         return _BUF_SIZE <= _Myres;

  00000	56		 push	 esi
  00001	8b f1		 mov	 esi, ecx
  00003	8b 4e 2c	 mov	 ecx, DWORD PTR [esi+44]
  00006	83 f9 10	 cmp	 ecx, 16			; 00000010H

; 4618 :         if (_Mypair._Myval2._Large_string_engaged()) {

  00009	72 28		 jb	 SHORT $LN15@pair
; File C:\Program Files (x86)\Microsoft Visual Studio\2019\Professional\VC\Tools\MSVC\14.29.30133\include\xmemory

; 835  :         _Deallocate<_New_alignof<_Ty>>(_Ptr, sizeof(_Ty) * _Count);

  0000b	8b 46 18	 mov	 eax, DWORD PTR [esi+24]
; File C:\Program Files (x86)\Microsoft Visual Studio\2019\Professional\VC\Tools\MSVC\14.29.30133\include\xstring

; 4622 :             _Al.deallocate(_Ptr, _Mypair._Myval2._Myres + 1);

  0000e	41		 inc	 ecx
; File C:\Program Files (x86)\Microsoft Visual Studio\2019\Professional\VC\Tools\MSVC\14.29.30133\include\xmemory

; 260  :         if (_Bytes >= _Big_allocation_threshold) { // boost the alignment of big allocations to help autovectorization

  0000f	81 f9 00 10 00
	00		 cmp	 ecx, 4096		; 00001000H
  00015	72 12		 jb	 SHORT $LN25@pair

; 158  :     const uintptr_t _Ptr_container   = _Ptr_user[-1];

  00017	8b 50 fc	 mov	 edx, DWORD PTR [eax-4]
  0001a	83 c1 23	 add	 ecx, 35			; 00000023H

; 159  : 
; 160  :     // If the following asserts, it likely means that we are performing
; 161  :     // an aligned delete on memory coming from an unaligned allocation.
; 162  :     _STL_ASSERT(_Ptr_user[-2] == _Big_allocation_sentinel, "invalid argument");
; 163  : 
; 164  :     // Extra paranoia on aligned allocation/deallocation; ensure _Ptr_container is
; 165  :     // in range [_Min_back_shift, _Non_user_size]
; 166  : #ifdef _DEBUG
; 167  :     constexpr uintptr_t _Min_back_shift = 2 * sizeof(void*);
; 168  : #else // ^^^ _DEBUG ^^^ // vvv !_DEBUG vvv
; 169  :     constexpr uintptr_t _Min_back_shift = sizeof(void*);
; 170  : #endif // _DEBUG
; 171  :     const uintptr_t _Back_shift = reinterpret_cast<uintptr_t>(_Ptr) - _Ptr_container;

  0001d	2b c2		 sub	 eax, edx

; 172  :     _STL_VERIFY(_Back_shift >= _Min_back_shift && _Back_shift <= _Non_user_size, "invalid argument");

  0001f	83 c0 fc	 add	 eax, -4			; fffffffcH
  00022	83 f8 1f	 cmp	 eax, 31			; 0000001fH
  00025	77 60		 ja	 SHORT $LN50@pair

; 173  :     _Ptr = reinterpret_cast<void*>(_Ptr_container);

  00027	8b c2		 mov	 eax, edx
$LN25@pair:

; 264  :         ::operator delete(_Ptr, _Bytes);

  00029	51		 push	 ecx
  0002a	50		 push	 eax
  0002b	e8 00 00 00 00	 call	 ??3@YAXPAXI@Z		; operator delete
  00030	83 c4 08	 add	 esp, 8
$LN15@pair:
; File C:\Program Files (x86)\Microsoft Visual Studio\2019\Professional\VC\Tools\MSVC\14.29.30133\include\xstring

; 4633 :             _Mypair._Myval2._Mysize = 0;

  00033	c7 46 28 00 00
	00 00		 mov	 DWORD PTR [esi+40], 0

; 4634 :             _Mypair._Myval2._Myres  = _BUF_SIZE - 1;

  0003a	c7 46 2c 0f 00
	00 00		 mov	 DWORD PTR [esi+44], 15	; 0000000fH

; 4635 :             // the _Traits::assign is last so the codegen doesn't think the char write can alias this
; 4636 :             _Traits::assign(_Mypair._Myval2._Bx._Buf[0], _Elem());

  00041	c6 46 18 00	 mov	 BYTE PTR [esi+24], 0

; 2319 :         return _BUF_SIZE <= _Myres;

  00045	8b 4e 14	 mov	 ecx, DWORD PTR [esi+20]
  00048	83 f9 10	 cmp	 ecx, 16			; 00000010H

; 4618 :         if (_Mypair._Myval2._Large_string_engaged()) {

  0004b	72 27		 jb	 SHORT $LN43@pair
; File C:\Program Files (x86)\Microsoft Visual Studio\2019\Professional\VC\Tools\MSVC\14.29.30133\include\xmemory

; 835  :         _Deallocate<_New_alignof<_Ty>>(_Ptr, sizeof(_Ty) * _Count);

  0004d	8b 06		 mov	 eax, DWORD PTR [esi]
; File C:\Program Files (x86)\Microsoft Visual Studio\2019\Professional\VC\Tools\MSVC\14.29.30133\include\xstring

; 4622 :             _Al.deallocate(_Ptr, _Mypair._Myval2._Myres + 1);

  0004f	41		 inc	 ecx
; File C:\Program Files (x86)\Microsoft Visual Studio\2019\Professional\VC\Tools\MSVC\14.29.30133\include\xmemory

; 260  :         if (_Bytes >= _Big_allocation_threshold) { // boost the alignment of big allocations to help autovectorization

  00050	81 f9 00 10 00
	00		 cmp	 ecx, 4096		; 00001000H
  00056	72 12		 jb	 SHORT $LN53@pair

; 158  :     const uintptr_t _Ptr_container   = _Ptr_user[-1];

  00058	8b 50 fc	 mov	 edx, DWORD PTR [eax-4]
  0005b	83 c1 23	 add	 ecx, 35			; 00000023H

; 159  : 
; 160  :     // If the following asserts, it likely means that we are performing
; 161  :     // an aligned delete on memory coming from an unaligned allocation.
; 162  :     _STL_ASSERT(_Ptr_user[-2] == _Big_allocation_sentinel, "invalid argument");
; 163  : 
; 164  :     // Extra paranoia on aligned allocation/deallocation; ensure _Ptr_container is
; 165  :     // in range [_Min_back_shift, _Non_user_size]
; 166  : #ifdef _DEBUG
; 167  :     constexpr uintptr_t _Min_back_shift = 2 * sizeof(void*);
; 168  : #else // ^^^ _DEBUG ^^^ // vvv !_DEBUG vvv
; 169  :     constexpr uintptr_t _Min_back_shift = sizeof(void*);
; 170  : #endif // _DEBUG
; 171  :     const uintptr_t _Back_shift = reinterpret_cast<uintptr_t>(_Ptr) - _Ptr_container;

  0005e	2b c2		 sub	 eax, edx

; 172  :     _STL_VERIFY(_Back_shift >= _Min_back_shift && _Back_shift <= _Non_user_size, "invalid argument");

  00060	83 c0 fc	 add	 eax, -4			; fffffffcH
  00063	83 f8 1f	 cmp	 eax, 31			; 0000001fH
  00066	77 1f		 ja	 SHORT $LN50@pair

; 173  :     _Ptr = reinterpret_cast<void*>(_Ptr_container);

  00068	8b c2		 mov	 eax, edx
$LN53@pair:

; 264  :         ::operator delete(_Ptr, _Bytes);

  0006a	51		 push	 ecx
  0006b	50		 push	 eax
  0006c	e8 00 00 00 00	 call	 ??3@YAXPAXI@Z		; operator delete
  00071	83 c4 08	 add	 esp, 8
$LN43@pair:
; File C:\Program Files (x86)\Microsoft Visual Studio\2019\Professional\VC\Tools\MSVC\14.29.30133\include\xstring

; 4633 :             _Mypair._Myval2._Mysize = 0;

  00074	c7 46 10 00 00
	00 00		 mov	 DWORD PTR [esi+16], 0

; 4634 :             _Mypair._Myval2._Myres  = _BUF_SIZE - 1;

  0007b	c7 46 14 0f 00
	00 00		 mov	 DWORD PTR [esi+20], 15	; 0000000fH

; 4635 :             // the _Traits::assign is last so the codegen doesn't think the char write can alias this
; 4636 :             _Traits::assign(_Mypair._Myval2._Bx._Buf[0], _Elem());

  00082	c6 06 00	 mov	 BYTE PTR [esi], 0
  00085	5e		 pop	 esi
  00086	c3		 ret	 0
$LN50@pair:
; File C:\Program Files (x86)\Microsoft Visual Studio\2019\Professional\VC\Tools\MSVC\14.29.30133\include\xmemory

; 172  :     _STL_VERIFY(_Back_shift >= _Min_back_shift && _Back_shift <= _Non_user_size, "invalid argument");

  00087	e8 00 00 00 00	 call	 __invalid_parameter_noinfo_noreturn
$LN58@pair:
  0008c	cc		 int	 3
??1?$pair@$$CBV?$basic_string@DU?$char_traits@D@std@@V?$allocator@D@2@@std@@V12@@std@@QAE@XZ ENDP ; std::pair<std::basic_string<char,std::char_traits<char>,std::allocator<char> > const ,std::basic_string<char,std::char_traits<char>,std::allocator<char> > >::~pair<std::basic_string<char,std::char_traits<char>,std::allocator<char> > const ,std::basic_string<char,std::char_traits<char>,std::allocator<char> > >
_TEXT	ENDS
; Function compile flags: /Ogtp
; File C:\Program Files (x86)\Microsoft Visual Studio\2019\Professional\VC\Tools\MSVC\14.29.30133\include\xstring
;	COMDAT ??$?8DU?$char_traits@D@std@@V?$allocator@D@1@@std@@YA_NQBDABV?$basic_string@DU?$char_traits@D@std@@V?$allocator@D@2@@0@@Z
_TEXT	SEGMENT
__Left$ = 8						; size = 4
__Right$ = 12						; size = 4
??$?8DU?$char_traits@D@std@@V?$allocator@D@1@@std@@YA_NQBDABV?$basic_string@DU?$char_traits@D@std@@V?$allocator@D@2@@0@@Z PROC ; std::operator==<char,std::char_traits<char>,std::allocator<char> >, COMDAT

; 4820 : _NODISCARD bool operator==(_In_z_ const _Elem* const _Left, const basic_string<_Elem, _Traits, _Alloc>& _Right) {

  00000	55		 push	 ebp
  00001	8b ec		 mov	 ebp, esp

; 4821 :     return _Right._Equal(_Left);

  00003	ff 75 08	 push	 DWORD PTR __Left$[ebp]
  00006	8b 4d 0c	 mov	 ecx, DWORD PTR __Right$[ebp]
  00009	e8 00 00 00 00	 call	 ?_Equal@?$basic_string@DU?$char_traits@D@std@@V?$allocator@D@2@@std@@QBE_NQBD@Z ; std::basic_string<char,std::char_traits<char>,std::allocator<char> >::_Equal

; 4822 : }

  0000e	5d		 pop	 ebp
  0000f	c3		 ret	 0
??$?8DU?$char_traits@D@std@@V?$allocator@D@1@@std@@YA_NQBDABV?$basic_string@DU?$char_traits@D@std@@V?$allocator@D@2@@0@@Z ENDP ; std::operator==<char,std::char_traits<char>,std::allocator<char> >
_TEXT	ENDS
; Function compile flags: /Ogtp
; File C:\Program Files (x86)\Microsoft Visual Studio\2019\Professional\VC\Tools\MSVC\14.29.30133\include\xstring
;	COMDAT ??$?9DU?$char_traits@D@std@@V?$allocator@D@1@@std@@YA_NABV?$basic_string@DU?$char_traits@D@std@@V?$allocator@D@2@@0@QBD@Z
_TEXT	SEGMENT
__Left$ = 8						; size = 4
__Right$ = 12						; size = 4
??$?9DU?$char_traits@D@std@@V?$allocator@D@1@@std@@YA_NABV?$basic_string@DU?$char_traits@D@std@@V?$allocator@D@2@@0@QBD@Z PROC ; std::operator!=<char,std::char_traits<char>,std::allocator<char> >, COMDAT

; 4836 : _NODISCARD bool operator!=(const basic_string<_Elem, _Traits, _Alloc>& _Left, _In_z_ const _Elem* const _Right) {

  00000	55		 push	 ebp
  00001	8b ec		 mov	 ebp, esp

; 4803 :     return _Left._Equal(_Right);

  00003	ff 75 0c	 push	 DWORD PTR __Right$[ebp]
  00006	8b 4d 08	 mov	 ecx, DWORD PTR __Left$[ebp]
  00009	e8 00 00 00 00	 call	 ?_Equal@?$basic_string@DU?$char_traits@D@std@@V?$allocator@D@2@@std@@QBE_NQBD@Z ; std::basic_string<char,std::char_traits<char>,std::allocator<char> >::_Equal

; 4837 :     return !(_Left == _Right);

  0000e	34 01		 xor	 al, 1

; 4838 : }

  00010	5d		 pop	 ebp
  00011	c3		 ret	 0
??$?9DU?$char_traits@D@std@@V?$allocator@D@1@@std@@YA_NABV?$basic_string@DU?$char_traits@D@std@@V?$allocator@D@2@@0@QBD@Z ENDP ; std::operator!=<char,std::char_traits<char>,std::allocator<char> >
_TEXT	ENDS
; Function compile flags: /Ogtp
; File C:\Program Files (x86)\Microsoft Visual Studio\2019\Professional\VC\Tools\MSVC\14.29.30133\include\xtree
; File C:\Program Files (x86)\Microsoft Visual Studio\2019\Professional\VC\Tools\MSVC\14.29.30133\include\xmemory
;	COMDAT ??1?$map@V?$basic_string@DU?$char_traits@D@std@@V?$allocator@D@2@@std@@V12@U?$less@V?$basic_string@DU?$char_traits@D@std@@V?$allocator@D@2@@std@@@2@V?$allocator@U?$pair@$$CBV?$basic_string@DU?$char_traits@D@std@@V?$allocator@D@2@@std@@V12@@std@@@2@@std@@QAE@XZ
_TEXT	SEGMENT
??1?$map@V?$basic_string@DU?$char_traits@D@std@@V?$allocator@D@2@@std@@V12@U?$less@V?$basic_string@DU?$char_traits@D@std@@V?$allocator@D@2@@std@@@2@V?$allocator@U?$pair@$$CBV?$basic_string@DU?$char_traits@D@std@@V?$allocator@D@2@@std@@V12@@std@@@2@@std@@QAE@XZ PROC ; std::map<std::basic_string<char,std::char_traits<char>,std::allocator<char> >,std::basic_string<char,std::char_traits<char>,std::allocator<char> >,std::less<std::basic_string<char,std::char_traits<char>,std::allocator<char> > >,std::allocator<std::pair<std::basic_string<char,std::char_traits<char>,std::allocator<char> > const ,std::basic_string<char,std::char_traits<char>,std::allocator<char> > > > >::~map<std::basic_string<char,std::char_traits<char>,std::allocator<char> >,std::basic_string<char,std::char_traits<char>,std::allocator<char> >,std::less<std::basic_string<char,std::char_traits<char>,std::allocator<char> > >,std::allocator<std::pair<std::basic_string<char,std::char_traits<char>,std::allocator<char> > const ,std::basic_string<char,std::char_traits<char>,std::allocator<char> > > > >, COMDAT
; _this$ = ecx
; File C:\Program Files (x86)\Microsoft Visual Studio\2019\Professional\VC\Tools\MSVC\14.29.30133\include\xtree

; 758  :         _Erase_tree(_Al, _Myhead->_Parent);

  00000	56		 push	 esi
  00001	8b f1		 mov	 esi, ecx
  00003	8b 06		 mov	 eax, DWORD PTR [esi]
  00005	ff 70 04	 push	 DWORD PTR [eax+4]
  00008	56		 push	 esi
  00009	e8 00 00 00 00	 call	 ??$_Erase_tree@V?$allocator@U?$_Tree_node@U?$pair@$$CBV?$basic_string@DU?$char_traits@D@std@@V?$allocator@D@2@@std@@V12@@std@@PAX@std@@@std@@@?$_Tree_val@U?$_Tree_simple_types@U?$pair@$$CBV?$basic_string@DU?$char_traits@D@std@@V?$allocator@D@2@@std@@V12@@std@@@std@@@std@@QAEXAAV?$allocator@U?$_Tree_node@U?$pair@$$CBV?$basic_string@DU?$char_traits@D@std@@V?$allocator@D@2@@std@@V12@@std@@PAX@std@@@1@PAU?$_Tree_node@U?$pair@$$CBV?$basic_string@DU?$char_traits@D@std@@V?$allocator@D@2@@std@@V12@@std@@PAX@1@@Z ; std::_Tree_val<std::_Tree_simple_types<std::pair<std::basic_string<char,std::char_traits<char>,std::allocator<char> > const ,std::basic_string<char,std::char_traits<char>,std::allocator<char> > > > >::_Erase_tree<std::allocator<std::_Tree_node<std::pair<std::basic_string<char,std::char_traits<char>,std::allocator<char> > const ,std::basic_string<char,std::char_traits<char>,std::allocator<char> > >,void *> > >
; File C:\Program Files (x86)\Microsoft Visual Studio\2019\Professional\VC\Tools\MSVC\14.29.30133\include\xmemory

; 264  :         ::operator delete(_Ptr, _Bytes);

  0000e	6a 40		 push	 64			; 00000040H
  00010	ff 36		 push	 DWORD PTR [esi]
  00012	e8 00 00 00 00	 call	 ??3@YAXPAXI@Z		; operator delete
  00017	83 c4 08	 add	 esp, 8
  0001a	5e		 pop	 esi
  0001b	c3		 ret	 0
??1?$map@V?$basic_string@DU?$char_traits@D@std@@V?$allocator@D@2@@std@@V12@U?$less@V?$basic_string@DU?$char_traits@D@std@@V?$allocator@D@2@@std@@@2@V?$allocator@U?$pair@$$CBV?$basic_string@DU?$char_traits@D@std@@V?$allocator@D@2@@std@@V12@@std@@@2@@std@@QAE@XZ ENDP ; std::map<std::basic_string<char,std::char_traits<char>,std::allocator<char> >,std::basic_string<char,std::char_traits<char>,std::allocator<char> >,std::less<std::basic_string<char,std::char_traits<char>,std::allocator<char> > >,std::allocator<std::pair<std::basic_string<char,std::char_traits<char>,std::allocator<char> > const ,std::basic_string<char,std::char_traits<char>,std::allocator<char> > > > >::~map<std::basic_string<char,std::char_traits<char>,std::allocator<char> >,std::basic_string<char,std::char_traits<char>,std::allocator<char> >,std::less<std::basic_string<char,std::char_traits<char>,std::allocator<char> > >,std::allocator<std::pair<std::basic_string<char,std::char_traits<char>,std::allocator<char> > const ,std::basic_string<char,std::char_traits<char>,std::allocator<char> > > > >
_TEXT	ENDS
; Function compile flags: /Ogtp
; File C:\Program Files (x86)\Microsoft Visual Studio\2019\Professional\VC\Tools\MSVC\14.29.30133\include\map
; File C:\Program Files (x86)\Microsoft Visual Studio\2019\Professional\VC\Tools\MSVC\14.29.30133\include\xtree
; File C:\Program Files (x86)\Microsoft Visual Studio\2019\Professional\VC\Tools\MSVC\14.29.30133\include\xstddef
; File C:\Program Files (x86)\Microsoft Visual Studio\2019\Professional\VC\Tools\MSVC\14.29.30133\include\xtree
; File C:\Program Files (x86)\Microsoft Visual Studio\2019\Professional\VC\Tools\MSVC\14.29.30133\include\map
; File C:\Program Files (x86)\Microsoft Visual Studio\2019\Professional\VC\Tools\MSVC\14.29.30133\include\xmemory
; File C:\Program Files (x86)\Microsoft Visual Studio\2019\Professional\VC\Tools\MSVC\14.29.30133\include\xtree
; File C:\Program Files (x86)\Microsoft Visual Studio\2019\Professional\VC\Tools\MSVC\14.29.30133\include\xmemory
; File C:\Program Files (x86)\Microsoft Visual Studio\2019\Professional\VC\Tools\MSVC\14.29.30133\include\map
; File C:\Program Files (x86)\Microsoft Visual Studio\2019\Professional\VC\Tools\MSVC\14.29.30133\include\xmemory
; File C:\Program Files (x86)\Microsoft Visual Studio\2019\Professional\VC\Tools\MSVC\14.29.30133\include\xstring
; File C:\Program Files (x86)\Microsoft Visual Studio\2019\Professional\VC\Tools\MSVC\14.29.30133\include\map
; File C:\Program Files (x86)\Microsoft Visual Studio\2019\Professional\VC\Tools\MSVC\14.29.30133\include\xstring
; File C:\Program Files (x86)\Microsoft Visual Studio\2019\Professional\VC\Tools\MSVC\14.29.30133\include\map
; File C:\Program Files (x86)\Microsoft Visual Studio\2019\Professional\VC\Tools\MSVC\14.29.30133\include\xstring
; File C:\Program Files (x86)\Microsoft Visual Studio\2019\Professional\VC\Tools\MSVC\14.29.30133\include\xtree
; File C:\Program Files (x86)\Microsoft Visual Studio\2019\Professional\VC\Tools\MSVC\14.29.30133\include\map
; File C:\Program Files (x86)\Microsoft Visual Studio\2019\Professional\VC\Tools\MSVC\14.29.30133\include\xtree
; File C:\Program Files (x86)\Microsoft Visual Studio\2019\Professional\VC\Tools\MSVC\14.29.30133\include\map
;	COMDAT ??A?$map@V?$basic_string@DU?$char_traits@D@std@@V?$allocator@D@2@@std@@V12@U?$less@V?$basic_string@DU?$char_traits@D@std@@V?$allocator@D@2@@std@@@2@V?$allocator@U?$pair@$$CBV?$basic_string@DU?$char_traits@D@std@@V?$allocator@D@2@@std@@V12@@std@@@2@@std@@QAEAAV?$basic_string@DU?$char_traits@D@std@@V?$allocator@D@2@@1@$$QAV21@@Z
_TEXT	SEGMENT
__Loc$3 = -36						; size = 12
$T4 = -24						; size = 8
_this$1$ = -16						; size = 4
__$EHRec$ = -12						; size = 12
__Keyval$ = 8						; size = 4
??A?$map@V?$basic_string@DU?$char_traits@D@std@@V?$allocator@D@2@@std@@V12@U?$less@V?$basic_string@DU?$char_traits@D@std@@V?$allocator@D@2@@std@@@2@V?$allocator@U?$pair@$$CBV?$basic_string@DU?$char_traits@D@std@@V?$allocator@D@2@@std@@V12@@std@@@2@@std@@QAEAAV?$basic_string@DU?$char_traits@D@std@@V?$allocator@D@2@@1@$$QAV21@@Z PROC ; std::map<std::basic_string<char,std::char_traits<char>,std::allocator<char> >,std::basic_string<char,std::char_traits<char>,std::allocator<char> >,std::less<std::basic_string<char,std::char_traits<char>,std::allocator<char> > >,std::allocator<std::pair<std::basic_string<char,std::char_traits<char>,std::allocator<char> > const ,std::basic_string<char,std::char_traits<char>,std::allocator<char> > > > >::operator[], COMDAT
; _this$ = ecx

; 153  :     mapped_type& operator[](key_type&& _Keyval) { // find element matching _Keyval or insert value-initialized value

  00000	55		 push	 ebp
  00001	8b ec		 mov	 ebp, esp
  00003	6a ff		 push	 -1
  00005	68 00 00 00 00	 push	 __ehhandler$??A?$map@V?$basic_string@DU?$char_traits@D@std@@V?$allocator@D@2@@std@@V12@U?$less@V?$basic_string@DU?$char_traits@D@std@@V?$allocator@D@2@@std@@@2@V?$allocator@U?$pair@$$CBV?$basic_string@DU?$char_traits@D@std@@V?$allocator@D@2@@std@@V12@@std@@@2@@std@@QAEAAV?$basic_string@DU?$char_traits@D@std@@V?$allocator@D@2@@1@$$QAV21@@Z
  0000a	64 a1 00 00 00
	00		 mov	 eax, DWORD PTR fs:0
  00010	50		 push	 eax
  00011	83 ec 18	 sub	 esp, 24			; 00000018H
  00014	56		 push	 esi
  00015	57		 push	 edi
  00016	a1 00 00 00 00	 mov	 eax, DWORD PTR ___security_cookie
  0001b	33 c5		 xor	 eax, ebp
  0001d	50		 push	 eax
  0001e	8d 45 f4	 lea	 eax, DWORD PTR __$EHRec$[ebp]
  00021	64 a3 00 00 00
	00		 mov	 DWORD PTR fs:0, eax
  00027	89 4d f0	 mov	 DWORD PTR _this$1$[ebp], ecx

; 176  :         const auto _Loc = _Mybase::_Find_lower_bound(_Keyval);

  0002a	8b 7d 08	 mov	 edi, DWORD PTR __Keyval$[ebp]
  0002d	8d 45 dc	 lea	 eax, DWORD PTR __Loc$3[ebp]
  00030	57		 push	 edi
  00031	50		 push	 eax
  00032	e8 00 00 00 00	 call	 ??$_Find_lower_bound@V?$basic_string@DU?$char_traits@D@std@@V?$allocator@D@2@@std@@@?$_Tree@V?$_Tmap_traits@V?$basic_string@DU?$char_traits@D@std@@V?$allocator@D@2@@std@@V12@U?$less@V?$basic_string@DU?$char_traits@D@std@@V?$allocator@D@2@@std@@@2@V?$allocator@U?$pair@$$CBV?$basic_string@DU?$char_traits@D@std@@V?$allocator@D@2@@std@@V12@@std@@@2@$0A@@std@@@std@@IBE?AU?$_Tree_find_result@PAU?$_Tree_node@U?$pair@$$CBV?$basic_string@DU?$char_traits@D@std@@V?$allocator@D@2@@std@@V12@@std@@PAX@std@@@1@ABV?$basic_string@DU?$char_traits@D@std@@V?$allocator@D@2@@1@@Z ; std::_Tree<std::_Tmap_traits<std::basic_string<char,std::char_traits<char>,std::allocator<char> >,std::basic_string<char,std::char_traits<char>,std::allocator<char> >,std::less<std::basic_string<char,std::char_traits<char>,std::allocator<char> > >,std::allocator<std::pair<std::basic_string<char,std::char_traits<char>,std::allocator<char> > const ,std::basic_string<char,std::char_traits<char>,std::allocator<char> > > >,0> >::_Find_lower_bound<std::basic_string<char,std::char_traits<char>,std::allocator<char> > >
; File C:\Program Files (x86)\Microsoft Visual Studio\2019\Professional\VC\Tools\MSVC\14.29.30133\include\xtree

; 1599 :         return !_Bound->_Isnil && !_DEBUG_LT_PRED(_Getcomp(), _Keyval, _Traits::_Kfn(_Bound->_Myval));

  00037	8b 75 e4	 mov	 esi, DWORD PTR __Loc$3[ebp+8]
  0003a	80 7e 0d 00	 cmp	 BYTE PTR [esi+13], 0
  0003e	75 15		 jne	 SHORT $LN4@operator
  00040	8d 46 10	 lea	 eax, DWORD PTR [esi+16]
; File C:\Program Files (x86)\Microsoft Visual Studio\2019\Professional\VC\Tools\MSVC\14.29.30133\include\xstddef

; 127  :         return _Left < _Right;

  00043	50		 push	 eax
  00044	57		 push	 edi
  00045	e8 00 00 00 00	 call	 ??$?MDU?$char_traits@D@std@@V?$allocator@D@1@@std@@YA_NABV?$basic_string@DU?$char_traits@D@std@@V?$allocator@D@2@@0@0@Z ; std::operator<<char,std::char_traits<char>,std::allocator<char> >
  0004a	83 c4 08	 add	 esp, 8
; File C:\Program Files (x86)\Microsoft Visual Studio\2019\Professional\VC\Tools\MSVC\14.29.30133\include\xtree

; 1599 :         return !_Bound->_Isnil && !_DEBUG_LT_PRED(_Getcomp(), _Keyval, _Traits::_Kfn(_Bound->_Myval));

  0004d	84 c0		 test	 al, al
  0004f	0f 84 98 00 00
	00		 je	 $LN3@operator
$LN4@operator:

; 1623 :         if (max_size() == _Get_scary()->_Mysize) {

  00055	8b 45 f0	 mov	 eax, DWORD PTR _this$1$[ebp]
  00058	81 78 04 ff ff
	ff 03		 cmp	 DWORD PTR [eax+4], 67108863 ; 03ffffffH
  0005f	0f 84 9e 00 00
	00		 je	 $LN145@operator
; File C:\Program Files (x86)\Microsoft Visual Studio\2019\Professional\VC\Tools\MSVC\14.29.30133\include\map

; 184  :         const auto _Inserted = _Tree_temp_node<_Alnode>(_Mybase::_Getal(), _Scary->_Myhead, piecewise_construct,

  00065	8b 30		 mov	 esi, DWORD PTR [eax]
; File C:\Program Files (x86)\Microsoft Visual Studio\2019\Professional\VC\Tools\MSVC\14.29.30133\include\xmemory

; 1012 :     _CONSTEXPR20_DYNALLOC explicit _Alloc_construct_ptr(_Alloc& _Al_) : _Al(_Al_), _Ptr(nullptr) {}

  00067	89 45 e8	 mov	 DWORD PTR $T4[ebp], eax

; 85   :         return ::operator new(_Bytes);

  0006a	6a 40		 push	 64			; 00000040H
; File C:\Program Files (x86)\Microsoft Visual Studio\2019\Professional\VC\Tools\MSVC\14.29.30133\include\xtree

; 790  :     explicit _Tree_temp_node_alloc(_Alnode& _Al_) : _Alloc_construct_ptr<_Alnode>(_Al_) {

  0006c	c7 45 fc 00 00
	00 00		 mov	 DWORD PTR __$EHRec$[ebp+8], 0
; File C:\Program Files (x86)\Microsoft Visual Studio\2019\Professional\VC\Tools\MSVC\14.29.30133\include\xmemory

; 1019 :         _Ptr = nullptr; // if allocate throws, prevents double-free

  00073	c7 45 ec 00 00
	00 00		 mov	 DWORD PTR $T4[ebp+4], 0

; 85   :         return ::operator new(_Bytes);

  0007a	e8 00 00 00 00	 call	 ??2@YAPAXI@Z		; operator new
; File C:\Program Files (x86)\Microsoft Visual Studio\2019\Professional\VC\Tools\MSVC\14.29.30133\include\map

; 190  :         return {_Scary->_Insert_node(_Loc._Location, _Inserted), true};

  0007f	8b 4d f0	 mov	 ecx, DWORD PTR _this$1$[ebp]
; File C:\Program Files (x86)\Microsoft Visual Studio\2019\Professional\VC\Tools\MSVC\14.29.30133\include\xmemory

; 85   :         return ::operator new(_Bytes);

  00082	83 c4 04	 add	 esp, 4
; File C:\Program Files (x86)\Microsoft Visual Studio\2019\Professional\VC\Tools\MSVC\14.29.30133\include\xstring

; 2346 :         _CONSTEXPR20_CONTAINER _Bxty() noexcept : _Ptr() {} // user-provided, for fancy pointers

  00085	c7 40 10 00 00
	00 00		 mov	 DWORD PTR [eax+16], 0

; 2355 :     size_type _Mysize = 0; // current length of string

  0008c	c7 40 20 00 00
	00 00		 mov	 DWORD PTR [eax+32], 0

; 2356 :     size_type _Myres  = 0; // current storage reserved for string

  00093	c7 40 24 00 00
	00 00		 mov	 DWORD PTR [eax+36], 0

; 2869 :         _CSTD memcpy(_My_data_mem, _Right_data_mem, _Memcpy_val_size);

  0009a	0f 10 07	 movups	 xmm0, XMMWORD PTR [edi]
; File C:\Program Files (x86)\Microsoft Visual Studio\2019\Professional\VC\Tools\MSVC\14.29.30133\include\map

; 190  :         return {_Scary->_Insert_node(_Loc._Location, _Inserted), true};

  0009d	50		 push	 eax
  0009e	ff 75 e0	 push	 DWORD PTR __Loc$3[ebp+4]
; File C:\Program Files (x86)\Microsoft Visual Studio\2019\Professional\VC\Tools\MSVC\14.29.30133\include\xstring

; 2869 :         _CSTD memcpy(_My_data_mem, _Right_data_mem, _Memcpy_val_size);

  000a1	0f 11 40 10	 movups	 XMMWORD PTR [eax+16], xmm0
  000a5	f3 0f 7e 47 10	 movq	 xmm0, QWORD PTR [edi+16]
; File C:\Program Files (x86)\Microsoft Visual Studio\2019\Professional\VC\Tools\MSVC\14.29.30133\include\map

; 190  :         return {_Scary->_Insert_node(_Loc._Location, _Inserted), true};

  000aa	ff 75 dc	 push	 DWORD PTR __Loc$3[ebp]
; File C:\Program Files (x86)\Microsoft Visual Studio\2019\Professional\VC\Tools\MSVC\14.29.30133\include\xstring

; 2869 :         _CSTD memcpy(_My_data_mem, _Right_data_mem, _Memcpy_val_size);

  000ad	66 0f d6 40 20	 movq	 QWORD PTR [eax+32], xmm0

; 4596 :         _My_data._Mysize = 0;

  000b2	c7 47 10 00 00
	00 00		 mov	 DWORD PTR [edi+16], 0

; 4597 : 
; 4598 : #ifdef __cpp_lib_constexpr_string
; 4599 :         if (_STD is_constant_evaluated()) {
; 4600 :             _My_data._Myres        = _BUF_SIZE; // SSO disabled in constexpr context
; 4601 :             auto& _Al              = _Getal();
; 4602 :             const pointer _New_ptr = _Al.allocate(_BUF_SIZE + 1); // throws
; 4603 :             _My_data._Bx._Ptr      = _New_ptr;
; 4604 : 
; 4605 :             _Elem* const _Raw_new = _Unfancy(_New_ptr);
; 4606 :             _Traits::assign(_Raw_new, _BUF_SIZE + 1, _Elem());
; 4607 :         } else
; 4608 : #endif // __cpp_lib_constexpr_string
; 4609 :         {
; 4610 :             _My_data._Myres = _BUF_SIZE - 1;

  000b9	c7 47 14 0f 00
	00 00		 mov	 DWORD PTR [edi+20], 15	; 0000000fH

; 4611 :             // the _Traits::assign is last so the codegen doesn't think the char write can alias this
; 4612 :             _Traits::assign(_My_data._Bx._Buf[0], _Elem());

  000c0	c6 07 00	 mov	 BYTE PTR [edi], 0

; 2346 :         _CONSTEXPR20_CONTAINER _Bxty() noexcept : _Ptr() {} // user-provided, for fancy pointers

  000c3	c7 40 28 00 00
	00 00		 mov	 DWORD PTR [eax+40], 0

; 4596 :         _My_data._Mysize = 0;

  000ca	c7 40 38 00 00
	00 00		 mov	 DWORD PTR [eax+56], 0

; 4597 : 
; 4598 : #ifdef __cpp_lib_constexpr_string
; 4599 :         if (_STD is_constant_evaluated()) {
; 4600 :             _My_data._Myres        = _BUF_SIZE; // SSO disabled in constexpr context
; 4601 :             auto& _Al              = _Getal();
; 4602 :             const pointer _New_ptr = _Al.allocate(_BUF_SIZE + 1); // throws
; 4603 :             _My_data._Bx._Ptr      = _New_ptr;
; 4604 : 
; 4605 :             _Elem* const _Raw_new = _Unfancy(_New_ptr);
; 4606 :             _Traits::assign(_Raw_new, _BUF_SIZE + 1, _Elem());
; 4607 :         } else
; 4608 : #endif // __cpp_lib_constexpr_string
; 4609 :         {
; 4610 :             _My_data._Myres = _BUF_SIZE - 1;

  000d1	c7 40 3c 0f 00
	00 00		 mov	 DWORD PTR [eax+60], 15	; 0000000fH
; File C:\Program Files (x86)\Microsoft Visual Studio\2019\Professional\VC\Tools\MSVC\14.29.30133\include\xtree

; 813  :         _Construct_in_place(this->_Ptr->_Left, _Myhead);

  000d8	89 30		 mov	 DWORD PTR [eax], esi

; 814  :         _Construct_in_place(this->_Ptr->_Parent, _Myhead);

  000da	89 70 04	 mov	 DWORD PTR [eax+4], esi

; 815  :         _Construct_in_place(this->_Ptr->_Right, _Myhead);

  000dd	89 70 08	 mov	 DWORD PTR [eax+8], esi

; 816  :         this->_Ptr->_Color = _Red;

  000e0	66 c7 40 0c 00
	00		 mov	 WORD PTR [eax+12], 0
; File C:\Program Files (x86)\Microsoft Visual Studio\2019\Professional\VC\Tools\MSVC\14.29.30133\include\map

; 190  :         return {_Scary->_Insert_node(_Loc._Location, _Inserted), true};

  000e6	e8 00 00 00 00	 call	 ?_Insert_node@?$_Tree_val@U?$_Tree_simple_types@U?$pair@$$CBV?$basic_string@DU?$char_traits@D@std@@V?$allocator@D@2@@std@@V12@@std@@@std@@@std@@QAEPAU?$_Tree_node@U?$pair@$$CBV?$basic_string@DU?$char_traits@D@std@@V?$allocator@D@2@@std@@V12@@std@@PAX@2@U?$_Tree_id@PAU?$_Tree_node@U?$pair@$$CBV?$basic_string@DU?$char_traits@D@std@@V?$allocator@D@2@@std@@V12@@std@@PAX@std@@@2@QAU32@@Z ; std::_Tree_val<std::_Tree_simple_types<std::pair<std::basic_string<char,std::char_traits<char>,std::allocator<char> > const ,std::basic_string<char,std::char_traits<char>,std::allocator<char> > > > >::_Insert_node
  000eb	8b f0		 mov	 esi, eax
$LN3@operator:

; 154  :         return _Try_emplace(_STD move(_Keyval)).first->_Myval.second;

  000ed	8d 46 28	 lea	 eax, DWORD PTR [esi+40]

; 155  :     }

  000f0	8b 4d f4	 mov	 ecx, DWORD PTR __$EHRec$[ebp]
  000f3	64 89 0d 00 00
	00 00		 mov	 DWORD PTR fs:0, ecx
  000fa	59		 pop	 ecx
  000fb	5f		 pop	 edi
  000fc	5e		 pop	 esi
  000fd	8b e5		 mov	 esp, ebp
  000ff	5d		 pop	 ebp
  00100	c2 04 00	 ret	 4
$LN145@operator:
; File C:\Program Files (x86)\Microsoft Visual Studio\2019\Professional\VC\Tools\MSVC\14.29.30133\include\xtree

; 1624 :             _Throw_tree_length_error();

  00103	e8 00 00 00 00	 call	 ?_Throw_tree_length_error@std@@YAXXZ ; std::_Throw_tree_length_error
$LN143@operator:
  00108	cc		 int	 3
_TEXT	ENDS
;	COMDAT text$x
text$x	SEGMENT
__unwindfunclet$??A?$map@V?$basic_string@DU?$char_traits@D@std@@V?$allocator@D@2@@std@@V12@U?$less@V?$basic_string@DU?$char_traits@D@std@@V?$allocator@D@2@@std@@@2@V?$allocator@U?$pair@$$CBV?$basic_string@DU?$char_traits@D@std@@V?$allocator@D@2@@std@@V12@@std@@@2@@std@@QAEAAV?$basic_string@DU?$char_traits@D@std@@V?$allocator@D@2@@1@$$QAV21@@Z$2:
  00000	8d 4d e8	 lea	 ecx, DWORD PTR $T4[ebp]
  00003	e9 00 00 00 00	 jmp	 ??1?$_Alloc_construct_ptr@V?$allocator@U?$_Tree_node@U?$pair@$$CBV?$basic_string@DU?$char_traits@D@std@@V?$allocator@D@2@@std@@V12@@std@@PAX@std@@@std@@@std@@QAE@XZ ; std::_Alloc_construct_ptr<std::allocator<std::_Tree_node<std::pair<std::basic_string<char,std::char_traits<char>,std::allocator<char> > const ,std::basic_string<char,std::char_traits<char>,std::allocator<char> > >,void *> > >::~_Alloc_construct_ptr<std::allocator<std::_Tree_node<std::pair<std::basic_string<char,std::char_traits<char>,std::allocator<char> > const ,std::basic_string<char,std::char_traits<char>,std::allocator<char> > >,void *> > >
  00008	cc		 int	 3
  00009	cc		 int	 3
  0000a	cc		 int	 3
  0000b	cc		 int	 3
  0000c	cc		 int	 3
__ehhandler$??A?$map@V?$basic_string@DU?$char_traits@D@std@@V?$allocator@D@2@@std@@V12@U?$less@V?$basic_string@DU?$char_traits@D@std@@V?$allocator@D@2@@std@@@2@V?$allocator@U?$pair@$$CBV?$basic_string@DU?$char_traits@D@std@@V?$allocator@D@2@@std@@V12@@std@@@2@@std@@QAEAAV?$basic_string@DU?$char_traits@D@std@@V?$allocator@D@2@@1@$$QAV21@@Z:
  0000d	90		 npad	 1
  0000e	90		 npad	 1
  0000f	8b 54 24 08	 mov	 edx, DWORD PTR [esp+8]
  00013	8d 42 0c	 lea	 eax, DWORD PTR [edx+12]
  00016	8b 4a dc	 mov	 ecx, DWORD PTR [edx-36]
  00019	33 c8		 xor	 ecx, eax
  0001b	e8 00 00 00 00	 call	 @__security_check_cookie@4
  00020	b8 00 00 00 00	 mov	 eax, OFFSET __ehfuncinfo$??A?$map@V?$basic_string@DU?$char_traits@D@std@@V?$allocator@D@2@@std@@V12@U?$less@V?$basic_string@DU?$char_traits@D@std@@V?$allocator@D@2@@std@@@2@V?$allocator@U?$pair@$$CBV?$basic_string@DU?$char_traits@D@std@@V?$allocator@D@2@@std@@V12@@std@@@2@@std@@QAEAAV?$basic_string@DU?$char_traits@D@std@@V?$allocator@D@2@@1@$$QAV21@@Z
  00025	e9 00 00 00 00	 jmp	 ___CxxFrameHandler3
text$x	ENDS
??A?$map@V?$basic_string@DU?$char_traits@D@std@@V?$allocator@D@2@@std@@V12@U?$less@V?$basic_string@DU?$char_traits@D@std@@V?$allocator@D@2@@std@@@2@V?$allocator@U?$pair@$$CBV?$basic_string@DU?$char_traits@D@std@@V?$allocator@D@2@@std@@V12@@std@@@2@@std@@QAEAAV?$basic_string@DU?$char_traits@D@std@@V?$allocator@D@2@@1@$$QAV21@@Z ENDP ; std::map<std::basic_string<char,std::char_traits<char>,std::allocator<char> >,std::basic_string<char,std::char_traits<char>,std::allocator<char> >,std::less<std::basic_string<char,std::char_traits<char>,std::allocator<char> > >,std::allocator<std::pair<std::basic_string<char,std::char_traits<char>,std::allocator<char> > const ,std::basic_string<char,std::char_traits<char>,std::allocator<char> > > > >::operator[]
; Function compile flags: /Ogtp
; File C:\Program Files (x86)\Microsoft Visual Studio\2019\Professional\VC\Tools\MSVC\14.29.30133\include\xtree
;	COMDAT ?_Insert_node@?$_Tree_val@U?$_Tree_simple_types@U?$pair@$$CBV?$basic_string@DU?$char_traits@D@std@@V?$allocator@D@2@@std@@V12@@std@@@std@@@std@@QAEPAU?$_Tree_node@U?$pair@$$CBV?$basic_string@DU?$char_traits@D@std@@V?$allocator@D@2@@std@@V12@@std@@PAX@2@U?$_Tree_id@PAU?$_Tree_node@U?$pair@$$CBV?$basic_string@DU?$char_traits@D@std@@V?$allocator@D@2@@std@@V12@@std@@PAX@std@@@2@QAU32@@Z
_TEXT	SEGMENT
__Head$1$ = -8						; size = 4
_this$1$ = -4						; size = 4
__Loc$ = 8						; size = 8
__Newnode$ = 16						; size = 4
?_Insert_node@?$_Tree_val@U?$_Tree_simple_types@U?$pair@$$CBV?$basic_string@DU?$char_traits@D@std@@V?$allocator@D@2@@std@@V12@@std@@@std@@@std@@QAEPAU?$_Tree_node@U?$pair@$$CBV?$basic_string@DU?$char_traits@D@std@@V?$allocator@D@2@@std@@V12@@std@@PAX@2@U?$_Tree_id@PAU?$_Tree_node@U?$pair@$$CBV?$basic_string@DU?$char_traits@D@std@@V?$allocator@D@2@@std@@V12@@std@@PAX@std@@@2@QAU32@@Z PROC ; std::_Tree_val<std::_Tree_simple_types<std::pair<std::basic_string<char,std::char_traits<char>,std::allocator<char> > const ,std::basic_string<char,std::char_traits<char>,std::allocator<char> > > > >::_Insert_node, COMDAT
; _this$ = ecx

; 650  :     _Nodeptr _Insert_node(const _Tree_id<_Nodeptr> _Loc, const _Nodeptr _Newnode) noexcept {

  00000	55		 push	 ebp
  00001	8b ec		 mov	 ebp, esp
  00003	83 ec 08	 sub	 esp, 8

; 651  :         ++_Mysize;
; 652  :         const auto _Head  = _Myhead;
; 653  :         _Newnode->_Parent = _Loc._Parent;

  00006	8b 55 08	 mov	 edx, DWORD PTR __Loc$[ebp]
  00009	8b c1		 mov	 eax, ecx
  0000b	89 45 fc	 mov	 DWORD PTR _this$1$[ebp], eax
  0000e	8b 08		 mov	 ecx, DWORD PTR [eax]
  00010	ff 40 04	 inc	 DWORD PTR [eax+4]
  00013	8b 45 10	 mov	 eax, DWORD PTR __Newnode$[ebp]
  00016	89 4d f8	 mov	 DWORD PTR __Head$1$[ebp], ecx
  00019	89 50 04	 mov	 DWORD PTR [eax+4], edx

; 654  :         if (_Loc._Parent == _Head) { // first node in tree, just set head values

  0001c	3b d1		 cmp	 edx, ecx
  0001e	75 12		 jne	 SHORT $LN5@Insert_nod

; 655  :             _Head->_Left     = _Newnode;

  00020	89 01		 mov	 DWORD PTR [ecx], eax

; 656  :             _Head->_Parent   = _Newnode;

  00022	89 41 04	 mov	 DWORD PTR [ecx+4], eax

; 657  :             _Head->_Right    = _Newnode;

  00025	89 41 08	 mov	 DWORD PTR [ecx+8], eax

; 658  :             _Newnode->_Color = _Black; // the root is black

  00028	c6 40 0c 01	 mov	 BYTE PTR [eax+12], 1

; 717  :     }

  0002c	8b e5		 mov	 esp, ebp
  0002e	5d		 pop	 ebp
  0002f	c2 0c 00	 ret	 12			; 0000000cH
$LN5@Insert_nod:

; 659  :             return _Newnode;
; 660  :         }
; 661  : 
; 662  :         _STL_INTERNAL_CHECK(_Loc._Child != _Tree_child::_Unused);
; 663  :         if (_Loc._Child == _Tree_child::_Right) { // add to right of _Loc._Parent

  00032	83 7d 0c 00	 cmp	 DWORD PTR __Loc$[ebp+4], 0
  00036	75 0d		 jne	 SHORT $LN6@Insert_nod

; 664  :             _STL_INTERNAL_CHECK(_Loc._Parent->_Right->_Isnil);
; 665  :             _Loc._Parent->_Right = _Newnode;

  00038	89 42 08	 mov	 DWORD PTR [edx+8], eax

; 666  :             if (_Loc._Parent == _Head->_Right) { // remember rightmost node

  0003b	3b 51 08	 cmp	 edx, DWORD PTR [ecx+8]
  0003e	75 0d		 jne	 SHORT $LN9@Insert_nod

; 667  :                 _Head->_Right = _Newnode;

  00040	89 41 08	 mov	 DWORD PTR [ecx+8], eax

; 668  :             }
; 669  :         } else { // add to left of _Loc._Parent

  00043	eb 08		 jmp	 SHORT $LN9@Insert_nod
$LN6@Insert_nod:

; 670  :             _STL_INTERNAL_CHECK(_Loc._Parent->_Left->_Isnil);
; 671  :             _Loc._Parent->_Left = _Newnode;

  00045	89 02		 mov	 DWORD PTR [edx], eax

; 672  :             if (_Loc._Parent == _Head->_Left) { // remember leftmost node

  00047	3b 11		 cmp	 edx, DWORD PTR [ecx]
  00049	75 02		 jne	 SHORT $LN9@Insert_nod

; 673  :                 _Head->_Left = _Newnode;

  0004b	89 01		 mov	 DWORD PTR [ecx], eax
$LN9@Insert_nod:

; 674  :             }
; 675  :         }
; 676  : 
; 677  :         for (_Nodeptr _Pnode = _Newnode; _Pnode->_Parent->_Color == _Red;) {

  0004d	8b d0		 mov	 edx, eax
  0004f	8b 40 04	 mov	 eax, DWORD PTR [eax+4]
  00052	80 78 0c 00	 cmp	 BYTE PTR [eax+12], 0
  00056	0f 85 99 01 00
	00		 jne	 $LN3@Insert_nod
  0005c	53		 push	 ebx
  0005d	56		 push	 esi
  0005e	57		 push	 edi
  0005f	90		 npad	 1
$LL2@Insert_nod:

; 678  :             if (_Pnode->_Parent == _Pnode->_Parent->_Parent->_Left) { // fixup red-red in left subtree

  00060	8b 4a 04	 mov	 ecx, DWORD PTR [edx+4]
  00063	8d 7a 04	 lea	 edi, DWORD PTR [edx+4]
  00066	8b 71 04	 mov	 esi, DWORD PTR [ecx+4]
  00069	8d 59 04	 lea	 ebx, DWORD PTR [ecx+4]
  0006c	8b 06		 mov	 eax, DWORD PTR [esi]
  0006e	3b c8		 cmp	 ecx, eax
  00070	0f 85 ba 00 00
	00		 jne	 $LN10@Insert_nod

; 679  :                 const auto _Parent_sibling = _Pnode->_Parent->_Parent->_Right;

  00076	8b 46 08	 mov	 eax, DWORD PTR [esi+8]

; 680  :                 if (_Parent_sibling->_Color == _Red) { // parent's sibling has two red children, blacken both

  00079	80 78 0c 00	 cmp	 BYTE PTR [eax+12], 0
  0007d	0f 84 b3 00 00
	00		 je	 $LN53@Insert_nod

; 681  :                     _Pnode->_Parent->_Color          = _Black;
; 682  :                     _Parent_sibling->_Color          = _Black;
; 683  :                     _Pnode->_Parent->_Parent->_Color = _Red;
; 684  :                     _Pnode                           = _Pnode->_Parent->_Parent;
; 685  :                 } else { // parent's sibling has red and black children
; 686  :                     if (_Pnode == _Pnode->_Parent->_Right) { // rotate right child to left

  00083	8b 71 08	 mov	 esi, DWORD PTR [ecx+8]
  00086	3b d6		 cmp	 edx, esi
  00088	75 47		 jne	 SHORT $LN51@Insert_nod

; 466  :         _Wherenode->_Right = _Pnode->_Left;

  0008a	8b 06		 mov	 eax, DWORD PTR [esi]

; 687  :                         _Pnode = _Pnode->_Parent;

  0008c	8b d1		 mov	 edx, ecx

; 466  :         _Wherenode->_Right = _Pnode->_Left;

  0008e	89 42 08	 mov	 DWORD PTR [edx+8], eax

; 467  : 
; 468  :         if (!_Pnode->_Left->_Isnil) {

  00091	8b 06		 mov	 eax, DWORD PTR [esi]
  00093	80 78 0d 00	 cmp	 BYTE PTR [eax+13], 0
  00097	75 03		 jne	 SHORT $LN20@Insert_nod

; 469  :             _Pnode->_Left->_Parent = _Wherenode;

  00099	89 50 04	 mov	 DWORD PTR [eax+4], edx
$LN20@Insert_nod:

; 470  :         }
; 471  : 
; 472  :         _Pnode->_Parent = _Wherenode->_Parent;

  0009c	8b 03		 mov	 eax, DWORD PTR [ebx]
  0009e	89 46 04	 mov	 DWORD PTR [esi+4], eax

; 473  : 
; 474  :         if (_Wherenode == _Myhead->_Parent) {

  000a1	8b 45 fc	 mov	 eax, DWORD PTR _this$1$[ebp]
  000a4	8b 00		 mov	 eax, DWORD PTR [eax]
  000a6	3b 50 04	 cmp	 edx, DWORD PTR [eax+4]
  000a9	75 0b		 jne	 SHORT $LN21@Insert_nod

; 475  :             _Myhead->_Parent = _Pnode;

  000ab	89 70 04	 mov	 DWORD PTR [eax+4], esi

; 483  :         _Wherenode->_Parent = _Pnode;

  000ae	8b fb		 mov	 edi, ebx
  000b0	89 16		 mov	 DWORD PTR [esi], edx
  000b2	89 33		 mov	 DWORD PTR [ebx], esi
  000b4	eb 1d		 jmp	 SHORT $LN49@Insert_nod
$LN21@Insert_nod:

; 476  :         } else if (_Wherenode == _Wherenode->_Parent->_Left) {

  000b6	8b 03		 mov	 eax, DWORD PTR [ebx]
  000b8	3b 10		 cmp	 edx, DWORD PTR [eax]
  000ba	75 0a		 jne	 SHORT $LN23@Insert_nod

; 477  :             _Wherenode->_Parent->_Left = _Pnode;

  000bc	89 30		 mov	 DWORD PTR [eax], esi

; 483  :         _Wherenode->_Parent = _Pnode;

  000be	8b fb		 mov	 edi, ebx
  000c0	89 16		 mov	 DWORD PTR [esi], edx
  000c2	89 33		 mov	 DWORD PTR [ebx], esi
  000c4	eb 0d		 jmp	 SHORT $LN49@Insert_nod
$LN23@Insert_nod:

; 479  :             _Wherenode->_Parent->_Right = _Pnode;

  000c6	89 70 08	 mov	 DWORD PTR [eax+8], esi

; 483  :         _Wherenode->_Parent = _Pnode;

  000c9	8b fb		 mov	 edi, ebx
  000cb	89 16		 mov	 DWORD PTR [esi], edx
  000cd	89 33		 mov	 DWORD PTR [ebx], esi
  000cf	eb 02		 jmp	 SHORT $LN49@Insert_nod
$LN51@Insert_nod:
  000d1	8b f1		 mov	 esi, ecx
$LN49@Insert_nod:

; 688  :                         _Lrotate(_Pnode);
; 689  :                     }
; 690  : 
; 691  :                     _Pnode->_Parent->_Color          = _Black; // propagate red up

  000d3	c6 46 0c 01	 mov	 BYTE PTR [esi+12], 1

; 692  :                     _Pnode->_Parent->_Parent->_Color = _Red;

  000d7	8b 07		 mov	 eax, DWORD PTR [edi]
  000d9	8b 40 04	 mov	 eax, DWORD PTR [eax+4]
  000dc	c6 40 0c 00	 mov	 BYTE PTR [eax+12], 0

; 693  :                     _Rrotate(_Pnode->_Parent->_Parent);

  000e0	8b 07		 mov	 eax, DWORD PTR [edi]
  000e2	8b 48 04	 mov	 ecx, DWORD PTR [eax+4]

; 487  :         _Nodeptr _Pnode   = _Wherenode->_Left;

  000e5	8b 31		 mov	 esi, DWORD PTR [ecx]

; 488  :         _Wherenode->_Left = _Pnode->_Right;

  000e7	8b 46 08	 mov	 eax, DWORD PTR [esi+8]
  000ea	89 01		 mov	 DWORD PTR [ecx], eax

; 489  : 
; 490  :         if (!_Pnode->_Right->_Isnil) {

  000ec	8b 46 08	 mov	 eax, DWORD PTR [esi+8]
  000ef	80 78 0d 00	 cmp	 BYTE PTR [eax+13], 0
  000f3	75 03		 jne	 SHORT $LN27@Insert_nod

; 491  :             _Pnode->_Right->_Parent = _Wherenode;

  000f5	89 48 04	 mov	 DWORD PTR [eax+4], ecx
$LN27@Insert_nod:

; 492  :         }
; 493  : 
; 494  :         _Pnode->_Parent = _Wherenode->_Parent;

  000f8	8b 41 04	 mov	 eax, DWORD PTR [ecx+4]
  000fb	89 46 04	 mov	 DWORD PTR [esi+4], eax

; 495  : 
; 496  :         if (_Wherenode == _Myhead->_Parent) {

  000fe	8b 45 fc	 mov	 eax, DWORD PTR _this$1$[ebp]
  00101	8b 00		 mov	 eax, DWORD PTR [eax]
  00103	3b 48 04	 cmp	 ecx, DWORD PTR [eax+4]
  00106	75 0b		 jne	 SHORT $LN28@Insert_nod

; 497  :             _Myhead->_Parent = _Pnode;

  00108	89 70 04	 mov	 DWORD PTR [eax+4], esi

; 502  :         }
; 503  : 
; 504  :         _Pnode->_Right      = _Wherenode;

  0010b	89 4e 08	 mov	 DWORD PTR [esi+8], ecx

; 694  :                 }
; 695  :             } else { // fixup red-red in right subtree

  0010e	e9 cc 00 00 00	 jmp	 $LN52@Insert_nod
$LN28@Insert_nod:

; 498  :         } else if (_Wherenode == _Wherenode->_Parent->_Right) {

  00113	8b 41 04	 mov	 eax, DWORD PTR [ecx+4]
  00116	3b 48 08	 cmp	 ecx, DWORD PTR [eax+8]
  00119	75 0b		 jne	 SHORT $LN30@Insert_nod

; 499  :             _Wherenode->_Parent->_Right = _Pnode;

  0011b	89 70 08	 mov	 DWORD PTR [eax+8], esi

; 502  :         }
; 503  : 
; 504  :         _Pnode->_Right      = _Wherenode;

  0011e	89 4e 08	 mov	 DWORD PTR [esi+8], ecx

; 694  :                 }
; 695  :             } else { // fixup red-red in right subtree

  00121	e9 b9 00 00 00	 jmp	 $LN52@Insert_nod
$LN30@Insert_nod:

; 501  :             _Wherenode->_Parent->_Left = _Pnode;

  00126	89 30		 mov	 DWORD PTR [eax], esi

; 502  :         }
; 503  : 
; 504  :         _Pnode->_Right      = _Wherenode;

  00128	89 4e 08	 mov	 DWORD PTR [esi+8], ecx

; 694  :                 }
; 695  :             } else { // fixup red-red in right subtree

  0012b	e9 af 00 00 00	 jmp	 $LN52@Insert_nod
$LN10@Insert_nod:

; 696  :                 const auto _Parent_sibling = _Pnode->_Parent->_Parent->_Left;
; 697  :                 if (_Parent_sibling->_Color == _Red) { // parent's sibling has two red children, blacken both

  00130	80 78 0c 00	 cmp	 BYTE PTR [eax+12], 0
  00134	75 1b		 jne	 SHORT $LN15@Insert_nod
$LN53@Insert_nod:

; 674  :             }
; 675  :         }
; 676  : 
; 677  :         for (_Nodeptr _Pnode = _Newnode; _Pnode->_Parent->_Color == _Red;) {

  00136	c6 41 0c 01	 mov	 BYTE PTR [ecx+12], 1
  0013a	c6 40 0c 01	 mov	 BYTE PTR [eax+12], 1
  0013e	8b 07		 mov	 eax, DWORD PTR [edi]
  00140	8b 40 04	 mov	 eax, DWORD PTR [eax+4]
  00143	c6 40 0c 00	 mov	 BYTE PTR [eax+12], 0
  00147	8b 07		 mov	 eax, DWORD PTR [edi]
  00149	8b 50 04	 mov	 edx, DWORD PTR [eax+4]
  0014c	e9 91 00 00 00	 jmp	 $LN46@Insert_nod
$LN15@Insert_nod:

; 698  :                     _Pnode->_Parent->_Color          = _Black;
; 699  :                     _Parent_sibling->_Color          = _Black;
; 700  :                     _Pnode->_Parent->_Parent->_Color = _Red;
; 701  :                     _Pnode                           = _Pnode->_Parent->_Parent;
; 702  :                 } else { // parent's sibling has red and black children
; 703  :                     if (_Pnode == _Pnode->_Parent->_Left) { // rotate left child to right

  00151	8b 01		 mov	 eax, DWORD PTR [ecx]
  00153	3b d0		 cmp	 edx, eax
  00155	75 3e		 jne	 SHORT $LN39@Insert_nod

; 704  :                         _Pnode = _Pnode->_Parent;

  00157	8b d1		 mov	 edx, ecx

; 487  :         _Nodeptr _Pnode   = _Wherenode->_Left;

  00159	8b c8		 mov	 ecx, eax

; 488  :         _Wherenode->_Left = _Pnode->_Right;

  0015b	8b 41 08	 mov	 eax, DWORD PTR [ecx+8]
  0015e	89 02		 mov	 DWORD PTR [edx], eax

; 489  : 
; 490  :         if (!_Pnode->_Right->_Isnil) {

  00160	8b 41 08	 mov	 eax, DWORD PTR [ecx+8]
  00163	80 78 0d 00	 cmp	 BYTE PTR [eax+13], 0
  00167	75 03		 jne	 SHORT $LN34@Insert_nod

; 491  :             _Pnode->_Right->_Parent = _Wherenode;

  00169	89 50 04	 mov	 DWORD PTR [eax+4], edx
$LN34@Insert_nod:

; 492  :         }
; 493  : 
; 494  :         _Pnode->_Parent = _Wherenode->_Parent;

  0016c	8b 03		 mov	 eax, DWORD PTR [ebx]
  0016e	89 41 04	 mov	 DWORD PTR [ecx+4], eax

; 495  : 
; 496  :         if (_Wherenode == _Myhead->_Parent) {

  00171	8b 45 fc	 mov	 eax, DWORD PTR _this$1$[ebp]
  00174	8b 00		 mov	 eax, DWORD PTR [eax]
  00176	3b 50 04	 cmp	 edx, DWORD PTR [eax+4]
  00179	75 05		 jne	 SHORT $LN35@Insert_nod

; 497  :             _Myhead->_Parent = _Pnode;

  0017b	89 48 04	 mov	 DWORD PTR [eax+4], ecx
  0017e	eb 0e		 jmp	 SHORT $LN38@Insert_nod
$LN35@Insert_nod:

; 498  :         } else if (_Wherenode == _Wherenode->_Parent->_Right) {

  00180	8b 03		 mov	 eax, DWORD PTR [ebx]
  00182	3b 50 08	 cmp	 edx, DWORD PTR [eax+8]
  00185	75 05		 jne	 SHORT $LN37@Insert_nod

; 499  :             _Wherenode->_Parent->_Right = _Pnode;

  00187	89 48 08	 mov	 DWORD PTR [eax+8], ecx

; 500  :         } else {

  0018a	eb 02		 jmp	 SHORT $LN38@Insert_nod
$LN37@Insert_nod:

; 501  :             _Wherenode->_Parent->_Left = _Pnode;

  0018c	89 08		 mov	 DWORD PTR [eax], ecx
$LN38@Insert_nod:

; 502  :         }
; 503  : 
; 504  :         _Pnode->_Right      = _Wherenode;

  0018e	89 51 08	 mov	 DWORD PTR [ecx+8], edx

; 505  :         _Wherenode->_Parent = _Pnode;

  00191	8b fb		 mov	 edi, ebx
  00193	89 0b		 mov	 DWORD PTR [ebx], ecx
$LN39@Insert_nod:

; 705  :                         _Rrotate(_Pnode);
; 706  :                     }
; 707  : 
; 708  :                     _Pnode->_Parent->_Color          = _Black; // propagate red up

  00195	c6 41 0c 01	 mov	 BYTE PTR [ecx+12], 1

; 709  :                     _Pnode->_Parent->_Parent->_Color = _Red;

  00199	8b 07		 mov	 eax, DWORD PTR [edi]
  0019b	8b 40 04	 mov	 eax, DWORD PTR [eax+4]
  0019e	c6 40 0c 00	 mov	 BYTE PTR [eax+12], 0

; 710  :                     _Lrotate(_Pnode->_Parent->_Parent);

  001a2	8b 07		 mov	 eax, DWORD PTR [edi]
  001a4	8b 48 04	 mov	 ecx, DWORD PTR [eax+4]

; 465  :         _Nodeptr _Pnode    = _Wherenode->_Right;

  001a7	8b 71 08	 mov	 esi, DWORD PTR [ecx+8]

; 466  :         _Wherenode->_Right = _Pnode->_Left;

  001aa	8b 06		 mov	 eax, DWORD PTR [esi]
  001ac	89 41 08	 mov	 DWORD PTR [ecx+8], eax

; 467  : 
; 468  :         if (!_Pnode->_Left->_Isnil) {

  001af	8b 06		 mov	 eax, DWORD PTR [esi]
  001b1	80 78 0d 00	 cmp	 BYTE PTR [eax+13], 0
  001b5	75 03		 jne	 SHORT $LN41@Insert_nod

; 469  :             _Pnode->_Left->_Parent = _Wherenode;

  001b7	89 48 04	 mov	 DWORD PTR [eax+4], ecx
$LN41@Insert_nod:

; 470  :         }
; 471  : 
; 472  :         _Pnode->_Parent = _Wherenode->_Parent;

  001ba	8b 41 04	 mov	 eax, DWORD PTR [ecx+4]
  001bd	89 46 04	 mov	 DWORD PTR [esi+4], eax

; 473  : 
; 474  :         if (_Wherenode == _Myhead->_Parent) {

  001c0	8b 45 fc	 mov	 eax, DWORD PTR _this$1$[ebp]
  001c3	8b 00		 mov	 eax, DWORD PTR [eax]
  001c5	3b 48 04	 cmp	 ecx, DWORD PTR [eax+4]
  001c8	75 05		 jne	 SHORT $LN42@Insert_nod

; 475  :             _Myhead->_Parent = _Pnode;

  001ca	89 70 04	 mov	 DWORD PTR [eax+4], esi
  001cd	eb 0e		 jmp	 SHORT $LN45@Insert_nod
$LN42@Insert_nod:

; 476  :         } else if (_Wherenode == _Wherenode->_Parent->_Left) {

  001cf	8b 41 04	 mov	 eax, DWORD PTR [ecx+4]
  001d2	3b 08		 cmp	 ecx, DWORD PTR [eax]
  001d4	75 04		 jne	 SHORT $LN44@Insert_nod

; 477  :             _Wherenode->_Parent->_Left = _Pnode;

  001d6	89 30		 mov	 DWORD PTR [eax], esi

; 478  :         } else {

  001d8	eb 03		 jmp	 SHORT $LN45@Insert_nod
$LN44@Insert_nod:

; 479  :             _Wherenode->_Parent->_Right = _Pnode;

  001da	89 70 08	 mov	 DWORD PTR [eax+8], esi
$LN45@Insert_nod:

; 480  :         }
; 481  : 
; 482  :         _Pnode->_Left       = _Wherenode;

  001dd	89 0e		 mov	 DWORD PTR [esi], ecx
$LN52@Insert_nod:

; 674  :             }
; 675  :         }
; 676  : 
; 677  :         for (_Nodeptr _Pnode = _Newnode; _Pnode->_Parent->_Color == _Red;) {

  001df	89 71 04	 mov	 DWORD PTR [ecx+4], esi
$LN46@Insert_nod:
  001e2	8b 42 04	 mov	 eax, DWORD PTR [edx+4]
  001e5	80 78 0c 00	 cmp	 BYTE PTR [eax+12], 0
  001e9	0f 84 71 fe ff
	ff		 je	 $LL2@Insert_nod
  001ef	8b 4d f8	 mov	 ecx, DWORD PTR __Head$1$[ebp]
  001f2	5f		 pop	 edi
  001f3	5e		 pop	 esi
  001f4	5b		 pop	 ebx
$LN3@Insert_nod:

; 711  :                 }
; 712  :             }
; 713  :         }
; 714  : 
; 715  :         _Head->_Parent->_Color = _Black; // root is always black

  001f5	8b 41 04	 mov	 eax, DWORD PTR [ecx+4]
  001f8	c6 40 0c 01	 mov	 BYTE PTR [eax+12], 1

; 716  :         return _Newnode;

  001fc	8b 45 10	 mov	 eax, DWORD PTR __Newnode$[ebp]

; 717  :     }

  001ff	8b e5		 mov	 esp, ebp
  00201	5d		 pop	 ebp
  00202	c2 0c 00	 ret	 12			; 0000000cH
?_Insert_node@?$_Tree_val@U?$_Tree_simple_types@U?$pair@$$CBV?$basic_string@DU?$char_traits@D@std@@V?$allocator@D@2@@std@@V12@@std@@@std@@@std@@QAEPAU?$_Tree_node@U?$pair@$$CBV?$basic_string@DU?$char_traits@D@std@@V?$allocator@D@2@@std@@V12@@std@@PAX@2@U?$_Tree_id@PAU?$_Tree_node@U?$pair@$$CBV?$basic_string@DU?$char_traits@D@std@@V?$allocator@D@2@@std@@V12@@std@@PAX@std@@@2@QAU32@@Z ENDP ; std::_Tree_val<std::_Tree_simple_types<std::pair<std::basic_string<char,std::char_traits<char>,std::allocator<char> > const ,std::basic_string<char,std::char_traits<char>,std::allocator<char> > > > >::_Insert_node
_TEXT	ENDS
; Function compile flags: /Ogtp
;	COMDAT ??_GCGraphicSubImage@@UAEPAXI@Z
_TEXT	SEGMENT
___flags$ = 8						; size = 4
??_GCGraphicSubImage@@UAEPAXI@Z PROC			; CGraphicSubImage::`scalar deleting destructor', COMDAT
; _this$ = ecx
  00000	55		 push	 ebp
  00001	8b ec		 mov	 ebp, esp
  00003	56		 push	 esi
  00004	8b f1		 mov	 esi, ecx
  00006	e8 00 00 00 00	 call	 ??1CGraphicSubImage@@UAE@XZ ; CGraphicSubImage::~CGraphicSubImage
  0000b	f6 45 08 01	 test	 BYTE PTR ___flags$[ebp], 1
  0000f	74 0b		 je	 SHORT $LN4@scalar
  00011	6a 78		 push	 120			; 00000078H
  00013	56		 push	 esi
  00014	e8 00 00 00 00	 call	 ??3@YAXPAXI@Z		; operator delete
  00019	83 c4 08	 add	 esp, 8
$LN4@scalar:
  0001c	8b c6		 mov	 eax, esi
  0001e	5e		 pop	 esi
  0001f	5d		 pop	 ebp
  00020	c2 04 00	 ret	 4
??_GCGraphicSubImage@@UAEPAXI@Z ENDP			; CGraphicSubImage::`scalar deleting destructor'
_TEXT	ENDS
; Function compile flags: /Ogtp
; File C:\Users\murat\Desktop\Siveps2-1-99-Project\source\client\Client\EterLib\GrpSubImage.cpp
;	COMDAT ?OnIsType@CGraphicSubImage@@MAE_NK@Z
_TEXT	SEGMENT
_type$ = 8						; size = 4
?OnIsType@CGraphicSubImage@@MAE_NK@Z PROC		; CGraphicSubImage::OnIsType, COMDAT
; _this$ = ecx

; 151  : {

  00000	55		 push	 ebp
  00001	8b ec		 mov	 ebp, esp
  00003	56		 push	 esi
  00004	8b f1		 mov	 esi, ecx

; 152  : 	if (CGraphicSubImage::Type() == type)

  00006	e8 00 00 00 00	 call	 ?Type@CGraphicSubImage@@SAKXZ ; CGraphicSubImage::Type
  0000b	8b 55 08	 mov	 edx, DWORD PTR _type$[ebp]
  0000e	3b c2		 cmp	 eax, edx
  00010	75 07		 jne	 SHORT $LN2@OnIsType

; 153  : 		return true;

  00012	b0 01		 mov	 al, 1
  00014	5e		 pop	 esi

; 156  : }

  00015	5d		 pop	 ebp
  00016	c2 04 00	 ret	 4
$LN2@OnIsType:

; 154  : 
; 155  : 	return CGraphicImage::OnIsType(type);

  00019	52		 push	 edx
  0001a	8b ce		 mov	 ecx, esi
  0001c	e8 00 00 00 00	 call	 ?OnIsType@CGraphicImage@@MAE_NK@Z ; CGraphicImage::OnIsType
  00021	5e		 pop	 esi

; 156  : }

  00022	5d		 pop	 ebp
  00023	c2 04 00	 ret	 4
?OnIsType@CGraphicSubImage@@MAE_NK@Z ENDP		; CGraphicSubImage::OnIsType
_TEXT	ENDS
; Function compile flags: /Ogtp
; File C:\Users\murat\Desktop\Siveps2-1-99-Project\source\client\Client\EterLib\GrpSubImage.cpp
; File C:\Users\murat\Desktop\Siveps2-1-99-Project\source\client\Client\EterLib\Ref.h
; File C:\Users\murat\Desktop\Siveps2-1-99-Project\source\client\Client\EterLib\GrpSubImage.cpp
;	COMDAT ?OnIsEmpty@CGraphicSubImage@@MBE_NXZ
_TEXT	SEGMENT
?OnIsEmpty@CGraphicSubImage@@MBE_NXZ PROC		; CGraphicSubImage::OnIsEmpty, COMDAT
; _this$ = ecx
; File C:\Users\murat\Desktop\Siveps2-1-99-Project\source\client\Client\EterLib\Ref.h

; 62   : 			return m_pObject == NULL ? true : false;

  00000	8b 49 74	 mov	 ecx, DWORD PTR [ecx+116]
  00003	85 c9		 test	 ecx, ecx
; File C:\Users\murat\Desktop\Siveps2-1-99-Project\source\client\Client\EterLib\GrpSubImage.cpp

; 143  : 	if (!m_roImage.IsNull())

  00005	74 0a		 je	 SHORT $LN3@OnIsEmpty

; 144  : 		if (!m_roImage->IsEmpty())

  00007	e8 00 00 00 00	 call	 ?IsEmpty@CResource@@QBE_NXZ ; CResource::IsEmpty
  0000c	84 c0		 test	 al, al
  0000e	75 01		 jne	 SHORT $LN3@OnIsEmpty

; 148  : }

  00010	c3		 ret	 0
$LN3@OnIsEmpty:

; 145  : 			return false;
; 146  : 
; 147  : 	return true;

  00011	b0 01		 mov	 al, 1

; 148  : }

  00013	c3		 ret	 0
?OnIsEmpty@CGraphicSubImage@@MBE_NXZ ENDP		; CGraphicSubImage::OnIsEmpty
_TEXT	ENDS
; Function compile flags: /Ogtp
; File C:\Users\murat\Desktop\Siveps2-1-99-Project\source\client\Client\EterLib\GrpSubImage.cpp
; File C:\Users\murat\Desktop\Siveps2-1-99-Project\source\client\Client\EterLib\Ref.h
; File C:\Users\murat\Desktop\Siveps2-1-99-Project\source\client\Client\EterLib\GrpSubImage.cpp
;	COMDAT ?OnClear@CGraphicSubImage@@MAEXXZ
_TEXT	SEGMENT
?OnClear@CGraphicSubImage@@MAEXXZ PROC			; CGraphicSubImage::OnClear, COMDAT
; _this$ = ecx

; 136  : {

  00000	56		 push	 esi
  00001	8b f1		 mov	 esi, ecx
; File C:\Users\murat\Desktop\Siveps2-1-99-Project\source\client\Client\EterLib\Ref.h

; 67   : 			CReferenceObject* pOldObject = m_pObject;

  00003	8b 4e 74	 mov	 ecx, DWORD PTR [esi+116]

; 68   : 
; 69   : 			m_pObject = pObject;

  00006	c7 46 74 00 00
	00 00		 mov	 DWORD PTR [esi+116], 0

; 70   : 
; 71   : 			if (m_pObject)
; 72   : 				m_pObject->AddReference();
; 73   : 
; 74   : 			if (pOldObject)

  0000d	85 c9		 test	 ecx, ecx
  0000f	74 05		 je	 SHORT $LN7@OnClear

; 75   : 				pOldObject->Release();

  00011	e8 00 00 00 00	 call	 ?Release@CReferenceObject@@QAEXXZ ; CReferenceObject::Release
$LN7@OnClear:
  00016	0f 57 c0	 xorps	 xmm0, xmm0
; File C:\Users\murat\Desktop\Siveps2-1-99-Project\source\client\Client\EterLib\GrpSubImage.cpp

; 138  : 	memset(&m_rect, 0, sizeof(m_rect));

  00019	0f 11 46 60	 movups	 XMMWORD PTR [esi+96], xmm0
  0001d	5e		 pop	 esi

; 139  : }

  0001e	c3		 ret	 0
?OnClear@CGraphicSubImage@@MAEXXZ ENDP			; CGraphicSubImage::OnClear
_TEXT	ENDS
; Function compile flags: /Ogtp
; File C:\Users\murat\Desktop\Siveps2-1-99-Project\source\client\Client\EterLib\GrpSubImage.cpp
; File C:\Program Files (x86)\Microsoft Visual Studio\2019\Professional\VC\Tools\MSVC\14.29.30133\include\vector
; File C:\Program Files (x86)\Microsoft Visual Studio\2019\Professional\VC\Tools\MSVC\14.29.30133\include\xmemory
; File C:\Users\murat\Desktop\Siveps2-1-99-Project\source\client\Client\EterLib\GrpSubImage.cpp
; File C:\Program Files (x86)\Microsoft Visual Studio\2019\Professional\VC\Tools\MSVC\14.29.30133\include\xtree
; File C:\Program Files (x86)\Microsoft Visual Studio\2019\Professional\VC\Tools\MSVC\14.29.30133\include\xmemory
; File C:\Program Files (x86)\Microsoft Visual Studio\2019\Professional\VC\Tools\MSVC\14.29.30133\include\xtree
; File C:\Users\murat\Desktop\Siveps2-1-99-Project\source\client\Client\EterLib\GrpSubImage.cpp
; File C:\Program Files (x86)\Microsoft Visual Studio\2019\Professional\VC\Tools\MSVC\14.29.30133\include\vector
; File C:\Users\murat\Desktop\Siveps2-1-99-Project\source\client\Client\EterLib\GrpSubImage.cpp
; File C:\Program Files (x86)\Microsoft Visual Studio\2019\Professional\VC\Tools\MSVC\14.29.30133\include\vector
; File C:\Users\murat\Desktop\Siveps2-1-99-Project\source\client\Client\EterLib\GrpSubImage.cpp
; File C:\Program Files (x86)\Microsoft Visual Studio\2019\Professional\VC\Tools\MSVC\14.29.30133\include\vector
; File C:\Program Files (x86)\Microsoft Visual Studio\2019\Professional\VC\Tools\MSVC\14.29.30133\include\map
; File C:\Users\murat\Desktop\Siveps2-1-99-Project\source\client\Client\EterLib\GrpSubImage.cpp
; File C:\Program Files (x86)\Microsoft Visual Studio\2019\Professional\VC\Tools\MSVC\14.29.30133\include\map
; File C:\Program Files (x86)\Microsoft Visual Studio\2019\Professional\VC\Tools\MSVC\14.29.30133\include\vector
; File C:\Program Files (x86)\Microsoft Visual Studio\2019\Professional\VC\Tools\MSVC\14.29.30133\include\map
; File C:\Program Files (x86)\Microsoft Visual Studio\2019\Professional\VC\Tools\MSVC\14.29.30133\include\vector
; File C:\Program Files (x86)\Microsoft Visual Studio\2019\Professional\VC\Tools\MSVC\14.29.30133\include\map
; File C:\Program Files (x86)\Microsoft Visual Studio\2019\Professional\VC\Tools\MSVC\14.29.30133\include\xtree
; File C:\Program Files (x86)\Microsoft Visual Studio\2019\Professional\VC\Tools\MSVC\14.29.30133\include\xstddef
; File C:\Program Files (x86)\Microsoft Visual Studio\2019\Professional\VC\Tools\MSVC\14.29.30133\include\xtree
; File C:\Program Files (x86)\Microsoft Visual Studio\2019\Professional\VC\Tools\MSVC\14.29.30133\include\map
; File C:\Program Files (x86)\Microsoft Visual Studio\2019\Professional\VC\Tools\MSVC\14.29.30133\include\xtree
; File C:\Program Files (x86)\Microsoft Visual Studio\2019\Professional\VC\Tools\MSVC\14.29.30133\include\map
; File C:\Program Files (x86)\Microsoft Visual Studio\2019\Professional\VC\Tools\MSVC\14.29.30133\include\xmemory
; File C:\Program Files (x86)\Microsoft Visual Studio\2019\Professional\VC\Tools\MSVC\14.29.30133\include\xtree
; File C:\Program Files (x86)\Microsoft Visual Studio\2019\Professional\VC\Tools\MSVC\14.29.30133\include\xmemory
; File C:\Program Files (x86)\Microsoft Visual Studio\2019\Professional\VC\Tools\MSVC\14.29.30133\include\xtree
; File C:\Program Files (x86)\Microsoft Visual Studio\2019\Professional\VC\Tools\MSVC\14.29.30133\include\utility
; File C:\Program Files (x86)\Microsoft Visual Studio\2019\Professional\VC\Tools\MSVC\14.29.30133\include\xtree
; File C:\Program Files (x86)\Microsoft Visual Studio\2019\Professional\VC\Tools\MSVC\14.29.30133\include\xstring
; File C:\Program Files (x86)\Microsoft Visual Studio\2019\Professional\VC\Tools\MSVC\14.29.30133\include\map
; File C:\Program Files (x86)\Microsoft Visual Studio\2019\Professional\VC\Tools\MSVC\14.29.30133\include\xtree
; File C:\Program Files (x86)\Microsoft Visual Studio\2019\Professional\VC\Tools\MSVC\14.29.30133\include\map
; File C:\Program Files (x86)\Microsoft Visual Studio\2019\Professional\VC\Tools\MSVC\14.29.30133\include\xtree
; File C:\Program Files (x86)\Microsoft Visual Studio\2019\Professional\VC\Tools\MSVC\14.29.30133\include\map
; File C:\Program Files (x86)\Microsoft Visual Studio\2019\Professional\VC\Tools\MSVC\14.29.30133\include\xtree
; File C:\Program Files (x86)\Microsoft Visual Studio\2019\Professional\VC\Tools\MSVC\14.29.30133\include\utility
; File C:\Program Files (x86)\Microsoft Visual Studio\2019\Professional\VC\Tools\MSVC\14.29.30133\include\map
; File C:\Program Files (x86)\Microsoft Visual Studio\2019\Professional\VC\Tools\MSVC\14.29.30133\include\xstring
; File C:\Users\murat\Desktop\Siveps2-1-99-Project\source\client\Client\EterLib\GrpSubImage.cpp
; File C:\Program Files (x86)\Microsoft Visual Studio\2019\Professional\VC\Tools\MSVC\14.29.30133\include\xstring
; File C:\Program Files (x86)\Microsoft Visual Studio\2019\Professional\VC\Tools\MSVC\14.29.30133\include\map
; File C:\Users\murat\Desktop\Siveps2-1-99-Project\source\client\Client\EterLib\GrpSubImage.cpp
; File C:\Program Files (x86)\Microsoft Visual Studio\2019\Professional\VC\Tools\MSVC\14.29.30133\include\map
; File C:\Program Files (x86)\Microsoft Visual Studio\2019\Professional\VC\Tools\MSVC\14.29.30133\include\xtree
; File C:\Program Files (x86)\Microsoft Visual Studio\2019\Professional\VC\Tools\MSVC\14.29.30133\include\xstddef
; File C:\Program Files (x86)\Microsoft Visual Studio\2019\Professional\VC\Tools\MSVC\14.29.30133\include\xtree
; File C:\Users\murat\Desktop\Siveps2-1-99-Project\source\client\Client\EterLib\GrpSubImage.cpp
; File C:\Program Files (x86)\Microsoft Visual Studio\2019\Professional\VC\Tools\MSVC\14.29.30133\include\xtree
; File C:\Program Files (x86)\Microsoft Visual Studio\2019\Professional\VC\Tools\MSVC\14.29.30133\include\xmemory
; File C:\Program Files (x86)\Microsoft Visual Studio\2019\Professional\VC\Tools\MSVC\14.29.30133\include\vector
; File C:\Program Files (x86)\Microsoft Visual Studio\2019\Professional\VC\Tools\MSVC\14.29.30133\include\xmemory
; File C:\Program Files (x86)\Microsoft Visual Studio\2019\Professional\VC\Tools\MSVC\14.29.30133\include\vector
; File C:\Program Files (x86)\Microsoft Visual Studio\2019\Professional\VC\Tools\MSVC\14.29.30133\include\xmemory
; File C:\Program Files (x86)\Microsoft Visual Studio\2019\Professional\VC\Tools\MSVC\14.29.30133\include\xstring
; File C:\Program Files (x86)\Microsoft Visual Studio\2019\Professional\VC\Tools\MSVC\14.29.30133\include\xmemory
; File C:\Program Files (x86)\Microsoft Visual Studio\2019\Professional\VC\Tools\MSVC\14.29.30133\include\xstring
; File C:\Program Files (x86)\Microsoft Visual Studio\2019\Professional\VC\Tools\MSVC\14.29.30133\include\xmemory
; File C:\Program Files (x86)\Microsoft Visual Studio\2019\Professional\VC\Tools\MSVC\14.29.30133\include\xstring
; File C:\Program Files (x86)\Microsoft Visual Studio\2019\Professional\VC\Tools\MSVC\14.29.30133\include\xmemory
; File C:\Users\murat\Desktop\Siveps2-1-99-Project\source\client\Client\EterLib\GrpSubImage.cpp
; File C:\Program Files (x86)\Microsoft Visual Studio\2019\Professional\VC\Tools\MSVC\14.29.30133\include\map
; File C:\Program Files (x86)\Microsoft Visual Studio\2019\Professional\VC\Tools\MSVC\14.29.30133\include\xmemory
; File C:\Program Files (x86)\Microsoft Visual Studio\2019\Professional\VC\Tools\MSVC\14.29.30133\include\xtree
; File C:\Program Files (x86)\Microsoft Visual Studio\2019\Professional\VC\Tools\MSVC\14.29.30133\include\xmemory
; File C:\Program Files (x86)\Microsoft Visual Studio\2019\Professional\VC\Tools\MSVC\14.29.30133\include\map
; File C:\Program Files (x86)\Microsoft Visual Studio\2019\Professional\VC\Tools\MSVC\14.29.30133\include\xstring
; File C:\Program Files (x86)\Microsoft Visual Studio\2019\Professional\VC\Tools\MSVC\14.29.30133\include\map
; File C:\Program Files (x86)\Microsoft Visual Studio\2019\Professional\VC\Tools\MSVC\14.29.30133\include\xstring
; File C:\Program Files (x86)\Microsoft Visual Studio\2019\Professional\VC\Tools\MSVC\14.29.30133\include\map
; File C:\Program Files (x86)\Microsoft Visual Studio\2019\Professional\VC\Tools\MSVC\14.29.30133\include\xstring
; File C:\Program Files (x86)\Microsoft Visual Studio\2019\Professional\VC\Tools\MSVC\14.29.30133\include\xtree
; File C:\Program Files (x86)\Microsoft Visual Studio\2019\Professional\VC\Tools\MSVC\14.29.30133\include\map
; File C:\Program Files (x86)\Microsoft Visual Studio\2019\Professional\VC\Tools\MSVC\14.29.30133\include\xstring
; File C:\Program Files (x86)\Microsoft Visual Studio\2019\Professional\VC\Tools\MSVC\14.29.30133\include\map
; File C:\Users\murat\Desktop\Siveps2-1-99-Project\source\client\Client\EterLib\GrpSubImage.cpp
; File C:\Program Files (x86)\Microsoft Visual Studio\2019\Professional\VC\Tools\MSVC\14.29.30133\include\xstring
; File C:\Program Files (x86)\Microsoft Visual Studio\2019\Professional\VC\Tools\MSVC\14.29.30133\include\xmemory
; File C:\Program Files (x86)\Microsoft Visual Studio\2019\Professional\VC\Tools\MSVC\14.29.30133\include\xstring
; File C:\Program Files (x86)\Microsoft Visual Studio\2019\Professional\VC\Tools\MSVC\14.29.30133\include\map
; File C:\Users\murat\Desktop\Siveps2-1-99-Project\source\client\Client\EterLib\GrpSubImage.cpp
; File C:\Program Files (x86)\Microsoft Visual Studio\2019\Professional\VC\Tools\MSVC\14.29.30133\include\map
; File C:\Program Files (x86)\Microsoft Visual Studio\2019\Professional\VC\Tools\MSVC\14.29.30133\include\xtree
; File C:\Program Files (x86)\Microsoft Visual Studio\2019\Professional\VC\Tools\MSVC\14.29.30133\include\xstddef
; File C:\Program Files (x86)\Microsoft Visual Studio\2019\Professional\VC\Tools\MSVC\14.29.30133\include\xtree
; File C:\Program Files (x86)\Microsoft Visual Studio\2019\Professional\VC\Tools\MSVC\14.29.30133\include\map
; File C:\Program Files (x86)\Microsoft Visual Studio\2019\Professional\VC\Tools\MSVC\14.29.30133\include\xmemory
; File C:\Program Files (x86)\Microsoft Visual Studio\2019\Professional\VC\Tools\MSVC\14.29.30133\include\xtree
; File C:\Program Files (x86)\Microsoft Visual Studio\2019\Professional\VC\Tools\MSVC\14.29.30133\include\xmemory
; File C:\Program Files (x86)\Microsoft Visual Studio\2019\Professional\VC\Tools\MSVC\14.29.30133\include\map
; File C:\Program Files (x86)\Microsoft Visual Studio\2019\Professional\VC\Tools\MSVC\14.29.30133\include\xstring
; File C:\Program Files (x86)\Microsoft Visual Studio\2019\Professional\VC\Tools\MSVC\14.29.30133\include\map
; File C:\Program Files (x86)\Microsoft Visual Studio\2019\Professional\VC\Tools\MSVC\14.29.30133\include\xstring
; File C:\Program Files (x86)\Microsoft Visual Studio\2019\Professional\VC\Tools\MSVC\14.29.30133\include\map
; File C:\Program Files (x86)\Microsoft Visual Studio\2019\Professional\VC\Tools\MSVC\14.29.30133\include\xstring
; File C:\Program Files (x86)\Microsoft Visual Studio\2019\Professional\VC\Tools\MSVC\14.29.30133\include\xtree
; File C:\Program Files (x86)\Microsoft Visual Studio\2019\Professional\VC\Tools\MSVC\14.29.30133\include\map
; File C:\Program Files (x86)\Microsoft Visual Studio\2019\Professional\VC\Tools\MSVC\14.29.30133\include\xstring
; File C:\Program Files (x86)\Microsoft Visual Studio\2019\Professional\VC\Tools\MSVC\14.29.30133\include\map
; File C:\Users\murat\Desktop\Siveps2-1-99-Project\source\client\Client\EterLib\GrpSubImage.cpp
; File C:\Program Files (x86)\Microsoft Visual Studio\2019\Professional\VC\Tools\MSVC\14.29.30133\include\xstring
; File C:\Program Files (x86)\Microsoft Visual Studio\2019\Professional\VC\Tools\MSVC\14.29.30133\include\xmemory
; File C:\Program Files (x86)\Microsoft Visual Studio\2019\Professional\VC\Tools\MSVC\14.29.30133\include\xstring
; File C:\Users\murat\Desktop\Siveps2-1-99-Project\source\client\Client\EterLib\GrpSubImage.cpp
; File C:\Program Files (x86)\Microsoft Visual Studio\2019\Professional\VC\Tools\MSVC\14.29.30133\include\xstring
; File C:\Users\murat\Desktop\Siveps2-1-99-Project\source\client\Client\EterLib\GrpSubImage.cpp
; File C:\Program Files (x86)\Microsoft Visual Studio\2019\Professional\VC\Tools\MSVC\14.29.30133\include\xstring
; File C:\Program Files (x86)\Microsoft Visual Studio\2019\Professional\VC\Tools\MSVC\14.29.30133\include\xmemory
; File C:\Program Files (x86)\Microsoft Visual Studio\2019\Professional\VC\Tools\MSVC\14.29.30133\include\xstring
; File C:\Program Files (x86)\Microsoft Visual Studio\2019\Professional\VC\Tools\MSVC\14.29.30133\include\xmemory
; File C:\Program Files (x86)\Microsoft Visual Studio\2019\Professional\VC\Tools\MSVC\14.29.30133\include\xstring
; File C:\Users\murat\Desktop\Siveps2-1-99-Project\source\client\Client\EterLib\GrpSubImage.cpp
; File C:\Program Files (x86)\Microsoft Visual Studio\2019\Professional\VC\Tools\MSVC\14.29.30133\include\xstring
; File C:\Users\murat\Desktop\Siveps2-1-99-Project\source\client\Client\EterLib\GrpSubImage.cpp
; File C:\Program Files (x86)\Microsoft Visual Studio\2019\Professional\VC\Tools\MSVC\14.29.30133\include\xstring
; File C:\Program Files (x86)\Microsoft Visual Studio\2019\Professional\VC\Tools\MSVC\14.29.30133\include\xmemory
; File C:\Program Files (x86)\Microsoft Visual Studio\2019\Professional\VC\Tools\MSVC\14.29.30133\include\xstring
; File C:\Program Files (x86)\Microsoft Visual Studio\2019\Professional\VC\Tools\MSVC\14.29.30133\include\xmemory
; File C:\Program Files (x86)\Microsoft Visual Studio\2019\Professional\VC\Tools\MSVC\14.29.30133\include\xstring
; File C:\Users\murat\Desktop\Siveps2-1-99-Project\source\client\Client\EterLib\GrpSubImage.cpp
; File C:\Program Files (x86)\Microsoft Visual Studio\2019\Professional\VC\Tools\MSVC\14.29.30133\include\xstring
; File C:\Users\murat\Desktop\Siveps2-1-99-Project\source\client\Client\EterLib\GrpSubImage.cpp
; File C:\Program Files (x86)\Microsoft Visual Studio\2019\Professional\VC\Tools\MSVC\14.29.30133\include\xstring
; File C:\Program Files (x86)\Microsoft Visual Studio\2019\Professional\VC\Tools\MSVC\14.29.30133\include\xmemory
; File C:\Program Files (x86)\Microsoft Visual Studio\2019\Professional\VC\Tools\MSVC\14.29.30133\include\xstring
; File C:\Program Files (x86)\Microsoft Visual Studio\2019\Professional\VC\Tools\MSVC\14.29.30133\include\xmemory
; File C:\Program Files (x86)\Microsoft Visual Studio\2019\Professional\VC\Tools\MSVC\14.29.30133\include\xstring
; File C:\Users\murat\Desktop\Siveps2-1-99-Project\source\client\Client\EterLib\GrpSubImage.cpp
; File C:\Program Files (x86)\Microsoft Visual Studio\2019\Professional\VC\Tools\MSVC\14.29.30133\include\xstring
; File C:\Users\murat\Desktop\Siveps2-1-99-Project\source\client\Client\EterLib\GrpSubImage.cpp
; File C:\Program Files (x86)\Microsoft Visual Studio\2019\Professional\VC\Tools\MSVC\14.29.30133\include\xstring
; File C:\Program Files (x86)\Microsoft Visual Studio\2019\Professional\VC\Tools\MSVC\14.29.30133\include\xmemory
; File C:\Program Files (x86)\Microsoft Visual Studio\2019\Professional\VC\Tools\MSVC\14.29.30133\include\xstring
; File C:\Program Files (x86)\Microsoft Visual Studio\2019\Professional\VC\Tools\MSVC\14.29.30133\include\xmemory
; File C:\Program Files (x86)\Microsoft Visual Studio\2019\Professional\VC\Tools\MSVC\14.29.30133\include\xstring
; File C:\Users\murat\Desktop\Siveps2-1-99-Project\source\client\Client\EterLib\GrpSubImage.cpp
; File C:\Program Files (x86)\Microsoft Visual Studio\2019\Professional\VC\Tools\MSVC\14.29.30133\include\xstring
; File C:\Users\murat\Desktop\Siveps2-1-99-Project\source\client\Client\EterLib\GrpSubImage.cpp
; File C:\Program Files (x86)\Microsoft Visual Studio\2019\Professional\VC\Tools\MSVC\14.29.30133\include\xstring
; File C:\Program Files (x86)\Microsoft Visual Studio\2019\Professional\VC\Tools\MSVC\14.29.30133\include\xmemory
; File C:\Program Files (x86)\Microsoft Visual Studio\2019\Professional\VC\Tools\MSVC\14.29.30133\include\xstring
; File C:\Program Files (x86)\Microsoft Visual Studio\2019\Professional\VC\Tools\MSVC\14.29.30133\include\xmemory
; File C:\Users\murat\Desktop\Siveps2-1-99-Project\source\client\Client\EterLib\GrpSubImage.cpp
; File C:\Program Files (x86)\Microsoft Visual Studio\2019\Professional\VC\Tools\MSVC\14.29.30133\include\xstring
; File C:\Users\murat\Desktop\Siveps2-1-99-Project\source\client\Client\EterLib\GrpSubImage.cpp
; File C:\Program Files (x86)\Microsoft Visual Studio\2019\Professional\VC\Tools\MSVC\14.29.30133\include\xtree
; File C:\Program Files (x86)\Microsoft Visual Studio\2019\Professional\VC\Tools\MSVC\14.29.30133\include\xmemory
; File C:\Program Files (x86)\Microsoft Visual Studio\2019\Professional\VC\Tools\MSVC\14.29.30133\include\vector
; File C:\Program Files (x86)\Microsoft Visual Studio\2019\Professional\VC\Tools\MSVC\14.29.30133\include\xmemory
; File C:\Program Files (x86)\Microsoft Visual Studio\2019\Professional\VC\Tools\MSVC\14.29.30133\include\vector
; File C:\Program Files (x86)\Microsoft Visual Studio\2019\Professional\VC\Tools\MSVC\14.29.30133\include\xmemory
; File C:\Users\murat\Desktop\Siveps2-1-99-Project\source\client\Client\EterLib\GrpSubImage.cpp
; File C:\Program Files (x86)\Microsoft Visual Studio\2019\Professional\VC\Tools\MSVC\14.29.30133\include\xstring
; File C:\Program Files (x86)\Microsoft Visual Studio\2019\Professional\VC\Tools\MSVC\14.29.30133\include\utility
; File C:\Program Files (x86)\Microsoft Visual Studio\2019\Professional\VC\Tools\MSVC\14.29.30133\include\xstring
; File C:\Program Files (x86)\Microsoft Visual Studio\2019\Professional\VC\Tools\MSVC\14.29.30133\include\utility
; File C:\Program Files (x86)\Microsoft Visual Studio\2019\Professional\VC\Tools\MSVC\14.29.30133\include\xstring
; File C:\Users\murat\Desktop\Siveps2-1-99-Project\source\client\Client\EterLib\GrpSubImage.cpp
; File C:\Program Files (x86)\Microsoft Visual Studio\2019\Professional\VC\Tools\MSVC\14.29.30133\include\xstring
; File C:\Users\murat\Desktop\Siveps2-1-99-Project\source\client\Client\EterLib\GrpSubImage.cpp
; File C:\Program Files (x86)\Microsoft Visual Studio\2019\Professional\VC\Tools\MSVC\14.29.30133\include\xstring
; File C:\Users\murat\Desktop\Siveps2-1-99-Project\source\client\Client\EterLib\GrpSubImage.cpp
; File C:\Program Files (x86)\Microsoft Visual Studio\2019\Professional\VC\Tools\MSVC\14.29.30133\include\xstring
; File C:\Users\murat\Desktop\Siveps2-1-99-Project\source\client\Client\EterLib\GrpSubImage.cpp
; File C:\Program Files (x86)\Microsoft Visual Studio\2019\Professional\VC\Tools\MSVC\14.29.30133\include\xstring
; File C:\Users\murat\Desktop\Siveps2-1-99-Project\source\client\Client\EterLib\GrpSubImage.cpp
; File C:\Program Files (x86)\Microsoft Visual Studio\2019\Professional\VC\Tools\MSVC\14.29.30133\include\xstring
; File C:\Users\murat\Desktop\Siveps2-1-99-Project\source\client\Client\EterLib\GrpSubImage.cpp
; File C:\Program Files (x86)\Microsoft Visual Studio\2019\Professional\VC\Tools\MSVC\14.29.30133\include\xstring
; File C:\Users\murat\Desktop\Siveps2-1-99-Project\source\client\Client\EterLib\GrpSubImage.cpp
; File C:\Program Files (x86)\Microsoft Visual Studio\2019\Professional\VC\Tools\MSVC\14.29.30133\include\xstring
; File C:\Users\murat\Desktop\Siveps2-1-99-Project\source\client\Client\EterLib\GrpSubImage.cpp
; File C:\Program Files (x86)\Microsoft Visual Studio\2019\Professional\VC\Tools\MSVC\14.29.30133\include\xtree
; File C:\Program Files (x86)\Microsoft Visual Studio\2019\Professional\VC\Tools\MSVC\14.29.30133\include\xmemory
; File C:\Program Files (x86)\Microsoft Visual Studio\2019\Professional\VC\Tools\MSVC\14.29.30133\include\vector
; File C:\Program Files (x86)\Microsoft Visual Studio\2019\Professional\VC\Tools\MSVC\14.29.30133\include\xmemory
; File C:\Program Files (x86)\Microsoft Visual Studio\2019\Professional\VC\Tools\MSVC\14.29.30133\include\vector
; File C:\Program Files (x86)\Microsoft Visual Studio\2019\Professional\VC\Tools\MSVC\14.29.30133\include\xmemory
; File C:\Program Files (x86)\Microsoft Visual Studio\2019\Professional\VC\Tools\MSVC\14.29.30133\include\vector
; File C:\Program Files (x86)\Microsoft Visual Studio\2019\Professional\VC\Tools\MSVC\14.29.30133\include\xmemory
; File C:\Users\murat\Desktop\Siveps2-1-99-Project\source\client\Client\EterLib\GrpSubImage.cpp
; File C:\Program Files (x86)\Microsoft Visual Studio\2019\Professional\VC\Tools\MSVC\14.29.30133\include\xmemory
; File C:\Program Files (x86)\Microsoft Visual Studio\2019\Professional\VC\Tools\MSVC\14.29.30133\include\xtree
; File C:\Program Files (x86)\Microsoft Visual Studio\2019\Professional\VC\Tools\MSVC\14.29.30133\include\xmemory
; File C:\Users\murat\Desktop\Siveps2-1-99-Project\source\client\Client\EterLib\GrpSubImage.cpp
; File C:\Program Files (x86)\Microsoft Visual Studio\2019\Professional\VC\Tools\MSVC\14.29.30133\include\xmemory
; File C:\Users\murat\Desktop\Siveps2-1-99-Project\source\client\Client\EterLib\GrpSubImage.cpp
;	COMDAT ?OnLoad@CGraphicSubImage@@MAE_NHPBX@Z
_TEXT	SEGMENT
_textFileLoader$ = -508					; size = 16
__Result$1$ = -492					; size = 4
__Myhead$1$ = -488					; size = 4
_c_rstVersion$1$ = -488					; size = 4
_this$GSCopy$1$ = -484					; size = 4
$T5 = -480						; size = 8
$T6 = -480						; size = 8
$T7 = -480						; size = 8
__Result$1$ = -476					; size = 4
$T8 = -472						; size = 4
_nPos$1$ = -472						; size = 4
_c_rstTitle$1$ = -472					; size = 4
_stTokenVector$ = -468					; size = 12
__Result$1$ = -456					; size = 4
$T9 = -456						; size = 4
$T10 = -456						; size = 4
__Result$1$ = -452					; size = 4
_i$1$ = -452						; size = 4
_stTokenMap$ = -448					; size = 8
$T11 = -440						; size = 24
$T12 = -416						; size = 24
$T13 = -392						; size = 24
$T14 = -368						; size = 24
$T15 = -344						; size = 24
$T16 = -320						; size = 24
$T17 = -296						; size = 24
__Loc$18 = -284						; size = 12
__Loc$19 = -284						; size = 12
__Loc$20 = -284						; size = 12
_szFileName$ = -272					; size = 256
__$ArrayPad$ = -16					; size = 4
__$EHRec$ = -12						; size = 12
_iSize$ = 8						; size = 4
_c_pvBuf$ = 12						; size = 4
?OnLoad@CGraphicSubImage@@MAE_NHPBX@Z PROC		; CGraphicSubImage::OnLoad, COMDAT
; _this$ = ecx

; 66   : {

  00000	55		 push	 ebp
  00001	8b ec		 mov	 ebp, esp
  00003	6a ff		 push	 -1
  00005	68 00 00 00 00	 push	 __ehhandler$?OnLoad@CGraphicSubImage@@MAE_NHPBX@Z
  0000a	64 a1 00 00 00
	00		 mov	 eax, DWORD PTR fs:0
  00010	50		 push	 eax
  00011	81 ec f0 01 00
	00		 sub	 esp, 496		; 000001f0H
  00017	a1 00 00 00 00	 mov	 eax, DWORD PTR ___security_cookie
  0001c	33 c5		 xor	 eax, ebp
  0001e	89 45 f0	 mov	 DWORD PTR __$ArrayPad$[ebp], eax
  00021	56		 push	 esi
  00022	57		 push	 edi
  00023	50		 push	 eax
  00024	8d 45 f4	 lea	 eax, DWORD PTR __$EHRec$[ebp]
  00027	64 a3 00 00 00
	00		 mov	 DWORD PTR fs:0, eax
  0002d	89 8d 1c fe ff
	ff		 mov	 DWORD PTR _this$GSCopy$1$[ebp], ecx
  00033	8b 75 0c	 mov	 esi, DWORD PTR _c_pvBuf$[ebp]

; 67   : 	if (!c_pvBuf)

  00036	85 f6		 test	 esi, esi
  00038	0f 84 a1 03 00
	00		 je	 $LN1080@OnLoad
; File C:\Program Files (x86)\Microsoft Visual Studio\2019\Professional\VC\Tools\MSVC\14.29.30133\include\vector

; 401  :     _CONSTEXPR20_CONTAINER _Vector_val() noexcept : _Myfirst(), _Mylast(), _Myend() {}

  0003e	c7 85 2c fe ff
	ff 00 00 00 00	 mov	 DWORD PTR _stTokenVector$[ebp], 0
  00048	c7 85 30 fe ff
	ff 00 00 00 00	 mov	 DWORD PTR _stTokenVector$[ebp+4], 0
  00052	c7 85 34 fe ff
	ff 00 00 00 00	 mov	 DWORD PTR _stTokenVector$[ebp+8], 0
; File C:\Program Files (x86)\Microsoft Visual Studio\2019\Professional\VC\Tools\MSVC\14.29.30133\include\xmemory

; 85   :         return ::operator new(_Bytes);

  0005c	6a 40		 push	 64			; 00000040H
; File C:\Users\murat\Desktop\Siveps2-1-99-Project\source\client\Client\EterLib\GrpSubImage.cpp

; 70   : 	CTokenVector stTokenVector;

  0005e	c7 45 fc 00 00
	00 00		 mov	 DWORD PTR __$EHRec$[ebp+8], 0
; File C:\Program Files (x86)\Microsoft Visual Studio\2019\Professional\VC\Tools\MSVC\14.29.30133\include\xtree

; 441  :     _Tree_val() noexcept : _Myhead(), _Mysize(0) {}

  00065	c7 85 40 fe ff
	ff 00 00 00 00	 mov	 DWORD PTR _stTokenMap$[ebp], 0
  0006f	c7 85 44 fe ff
	ff 00 00 00 00	 mov	 DWORD PTR _stTokenMap$[ebp+4], 0
; File C:\Program Files (x86)\Microsoft Visual Studio\2019\Professional\VC\Tools\MSVC\14.29.30133\include\xmemory

; 85   :         return ::operator new(_Bytes);

  00079	e8 00 00 00 00	 call	 ??2@YAPAXI@Z		; operator new
  0007e	83 c4 04	 add	 esp, 4
; File C:\Program Files (x86)\Microsoft Visual Studio\2019\Professional\VC\Tools\MSVC\14.29.30133\include\xtree

; 350  :         _Construct_in_place(_Pnode->_Left, _Pnode);

  00081	89 00		 mov	 DWORD PTR [eax], eax

; 351  :         _Construct_in_place(_Pnode->_Parent, _Pnode);

  00083	89 40 04	 mov	 DWORD PTR [eax+4], eax

; 352  :         _Construct_in_place(_Pnode->_Right, _Pnode);

  00086	89 40 08	 mov	 DWORD PTR [eax+8], eax

; 353  :         _Pnode->_Color = _Black;

  00089	66 c7 40 0c 01
	01		 mov	 WORD PTR [eax+12], 257	; 00000101H

; 1925 :         _Scary->_Myhead = _Node::_Buyheadnode(_Getal());

  0008f	89 85 40 fe ff
	ff		 mov	 DWORD PTR _stTokenMap$[ebp], eax
; File C:\Users\murat\Desktop\Siveps2-1-99-Project\source\client\Client\EterLib\GrpSubImage.cpp

; 73   : 	CMemoryTextFileLoader textFileLoader;

  00095	8d 8d 04 fe ff
	ff		 lea	 ecx, DWORD PTR _textFileLoader$[ebp]
  0009b	c6 45 fc 01	 mov	 BYTE PTR __$EHRec$[ebp+8], 1
  0009f	e8 00 00 00 00	 call	 ??0CMemoryTextFileLoader@@QAE@XZ ; CMemoryTextFileLoader::CMemoryTextFileLoader

; 74   : 
; 75   : 	textFileLoader.Bind(iSize, c_pvBuf);

  000a4	56		 push	 esi
  000a5	ff 75 08	 push	 DWORD PTR _iSize$[ebp]
  000a8	8d 8d 04 fe ff
	ff		 lea	 ecx, DWORD PTR _textFileLoader$[ebp]
  000ae	c6 45 fc 02	 mov	 BYTE PTR __$EHRec$[ebp+8], 2
  000b2	e8 00 00 00 00	 call	 ?Bind@CMemoryTextFileLoader@@QAEXHPBX@Z ; CMemoryTextFileLoader::Bind

; 77   : 	for (DWORD i = 0; i < textFileLoader.GetLineCount(); ++i)

  000b7	33 f6		 xor	 esi, esi
  000b9	8d 8d 04 fe ff
	ff		 lea	 ecx, DWORD PTR _textFileLoader$[ebp]
  000bf	89 b5 3c fe ff
	ff		 mov	 DWORD PTR _i$1$[ebp], esi
  000c5	e8 00 00 00 00	 call	 ?GetLineCount@CMemoryTextFileLoader@@QAEKXZ ; CMemoryTextFileLoader::GetLineCount
  000ca	85 c0		 test	 eax, eax
  000cc	0f 84 a0 01 00
	00		 je	 $LN1287@OnLoad
$LL4@OnLoad:

; 78   : 	{
; 79   : 		if (!textFileLoader.SplitLine(i, &stTokenVector))

  000d2	68 00 00 00 00	 push	 OFFSET ??_C@_02OJDBNLEE@?5?7@
  000d7	8d 85 2c fe ff
	ff		 lea	 eax, DWORD PTR _stTokenVector$[ebp]
  000dd	50		 push	 eax
  000de	56		 push	 esi
  000df	8d 8d 04 fe ff
	ff		 lea	 ecx, DWORD PTR _textFileLoader$[ebp]
  000e5	e8 00 00 00 00	 call	 ?SplitLine@CMemoryTextFileLoader@@QAE_NKPAV?$vector@V?$basic_string@DU?$char_traits@D@std@@V?$allocator@D@2@@std@@V?$allocator@V?$basic_string@DU?$char_traits@D@std@@V?$allocator@D@2@@std@@@2@@std@@PBD@Z ; CMemoryTextFileLoader::SplitLine
  000ea	84 c0		 test	 al, al
  000ec	0f 84 66 01 00
	00		 je	 $LN2@OnLoad
; File C:\Program Files (x86)\Microsoft Visual Studio\2019\Professional\VC\Tools\MSVC\14.29.30133\include\vector

; 1549 :         return static_cast<size_type>(_My_data._Mylast - _My_data._Myfirst);

  000f2	8b 8d 30 fe ff
	ff		 mov	 ecx, DWORD PTR _stTokenVector$[ebp+4]
  000f8	b8 ab aa aa 2a	 mov	 eax, 715827883		; 2aaaaaabH
  000fd	8b b5 2c fe ff
	ff		 mov	 esi, DWORD PTR _stTokenVector$[ebp]
  00103	2b ce		 sub	 ecx, esi
  00105	f7 e9		 imul	 ecx
  00107	c1 fa 02	 sar	 edx, 2
  0010a	8b c2		 mov	 eax, edx
  0010c	c1 e8 1f	 shr	 eax, 31			; 0000001fH
  0010f	03 c2		 add	 eax, edx
; File C:\Users\murat\Desktop\Siveps2-1-99-Project\source\client\Client\EterLib\GrpSubImage.cpp

; 82   : 		if (stTokenVector.size() != 2)

  00111	83 f8 02	 cmp	 eax, 2
  00114	0f 85 e3 01 00
	00		 jne	 $LN1259@OnLoad

; 84   : 
; 85   : 		stl_lowers(stTokenVector[0]);

  0011a	56		 push	 esi
  0011b	e8 00 00 00 00	 call	 ?stl_lowers@@YAXAAV?$basic_string@DU?$char_traits@D@std@@V?$allocator@D@2@@std@@@Z ; stl_lowers
; File C:\Program Files (x86)\Microsoft Visual Studio\2019\Professional\VC\Tools\MSVC\14.29.30133\include\vector

; 1569 :         return _My_data._Myfirst[_Pos];

  00120	8b 85 2c fe ff
	ff		 mov	 eax, DWORD PTR _stTokenVector$[ebp]
  00126	83 c0 18	 add	 eax, 24			; 00000018H
; File C:\Users\murat\Desktop\Siveps2-1-99-Project\source\client\Client\EterLib\GrpSubImage.cpp

; 86   : 		stl_lowers(stTokenVector[1]);

  00129	50		 push	 eax
  0012a	e8 00 00 00 00	 call	 ?stl_lowers@@YAXAAV?$basic_string@DU?$char_traits@D@std@@V?$allocator@D@2@@std@@@Z ; stl_lowers
; File C:\Program Files (x86)\Microsoft Visual Studio\2019\Professional\VC\Tools\MSVC\14.29.30133\include\vector

; 1569 :         return _My_data._Myfirst[_Pos];

  0012f	8b b5 2c fe ff
	ff		 mov	 esi, DWORD PTR _stTokenVector$[ebp]
; File C:\Program Files (x86)\Microsoft Visual Studio\2019\Professional\VC\Tools\MSVC\14.29.30133\include\map

; 176  :         const auto _Loc = _Mybase::_Find_lower_bound(_Keyval);

  00135	8d 85 e4 fe ff
	ff		 lea	 eax, DWORD PTR __Loc$20[ebp]
; File C:\Users\murat\Desktop\Siveps2-1-99-Project\source\client\Client\EterLib\GrpSubImage.cpp

; 86   : 		stl_lowers(stTokenVector[1]);

  0013b	83 c4 08	 add	 esp, 8
; File C:\Program Files (x86)\Microsoft Visual Studio\2019\Professional\VC\Tools\MSVC\14.29.30133\include\map

; 176  :         const auto _Loc = _Mybase::_Find_lower_bound(_Keyval);

  0013e	8d 8d 40 fe ff
	ff		 lea	 ecx, DWORD PTR _stTokenMap$[ebp]
; File C:\Program Files (x86)\Microsoft Visual Studio\2019\Professional\VC\Tools\MSVC\14.29.30133\include\vector

; 1569 :         return _My_data._Myfirst[_Pos];

  00144	8d 7e 18	 lea	 edi, DWORD PTR [esi+24]
; File C:\Program Files (x86)\Microsoft Visual Studio\2019\Professional\VC\Tools\MSVC\14.29.30133\include\map

; 176  :         const auto _Loc = _Mybase::_Find_lower_bound(_Keyval);

  00147	56		 push	 esi
  00148	50		 push	 eax
; File C:\Program Files (x86)\Microsoft Visual Studio\2019\Professional\VC\Tools\MSVC\14.29.30133\include\vector

; 1569 :         return _My_data._Myfirst[_Pos];

  00149	89 bd 28 fe ff
	ff		 mov	 DWORD PTR $T8[ebp], edi
; File C:\Program Files (x86)\Microsoft Visual Studio\2019\Professional\VC\Tools\MSVC\14.29.30133\include\map

; 176  :         const auto _Loc = _Mybase::_Find_lower_bound(_Keyval);

  0014f	e8 00 00 00 00	 call	 ??$_Find_lower_bound@V?$basic_string@DU?$char_traits@D@std@@V?$allocator@D@2@@std@@@?$_Tree@V?$_Tmap_traits@V?$basic_string@DU?$char_traits@D@std@@V?$allocator@D@2@@std@@V12@U?$less@V?$basic_string@DU?$char_traits@D@std@@V?$allocator@D@2@@std@@@2@V?$allocator@U?$pair@$$CBV?$basic_string@DU?$char_traits@D@std@@V?$allocator@D@2@@std@@V12@@std@@@2@$0A@@std@@@std@@IBE?AU?$_Tree_find_result@PAU?$_Tree_node@U?$pair@$$CBV?$basic_string@DU?$char_traits@D@std@@V?$allocator@D@2@@std@@V12@@std@@PAX@std@@@1@ABV?$basic_string@DU?$char_traits@D@std@@V?$allocator@D@2@@1@@Z ; std::_Tree<std::_Tmap_traits<std::basic_string<char,std::char_traits<char>,std::allocator<char> >,std::basic_string<char,std::char_traits<char>,std::allocator<char> >,std::less<std::basic_string<char,std::char_traits<char>,std::allocator<char> > >,std::allocator<std::pair<std::basic_string<char,std::char_traits<char>,std::allocator<char> > const ,std::basic_string<char,std::char_traits<char>,std::allocator<char> > > >,0> >::_Find_lower_bound<std::basic_string<char,std::char_traits<char>,std::allocator<char> > >
; File C:\Program Files (x86)\Microsoft Visual Studio\2019\Professional\VC\Tools\MSVC\14.29.30133\include\xtree

; 1599 :         return !_Bound->_Isnil && !_DEBUG_LT_PRED(_Getcomp(), _Keyval, _Traits::_Kfn(_Bound->_Myval));

  00154	8b 85 ec fe ff
	ff		 mov	 eax, DWORD PTR __Loc$20[ebp+8]
  0015a	89 85 38 fe ff
	ff		 mov	 DWORD PTR $T9[ebp], eax
  00160	80 78 0d 00	 cmp	 BYTE PTR [eax+13], 0
  00164	75 1c		 jne	 SHORT $LN176@OnLoad
  00166	83 c0 10	 add	 eax, 16			; 00000010H
; File C:\Program Files (x86)\Microsoft Visual Studio\2019\Professional\VC\Tools\MSVC\14.29.30133\include\xstddef

; 127  :         return _Left < _Right;

  00169	50		 push	 eax
  0016a	56		 push	 esi
  0016b	e8 00 00 00 00	 call	 ??$?MDU?$char_traits@D@std@@V?$allocator@D@1@@std@@YA_NABV?$basic_string@DU?$char_traits@D@std@@V?$allocator@D@2@@0@0@Z ; std::operator<<char,std::char_traits<char>,std::allocator<char> >
  00170	83 c4 08	 add	 esp, 8
; File C:\Program Files (x86)\Microsoft Visual Studio\2019\Professional\VC\Tools\MSVC\14.29.30133\include\xtree

; 1599 :         return !_Bound->_Isnil && !_DEBUG_LT_PRED(_Getcomp(), _Keyval, _Traits::_Kfn(_Bound->_Myval));

  00173	84 c0		 test	 al, al
  00175	75 0b		 jne	 SHORT $LN176@OnLoad
; File C:\Program Files (x86)\Microsoft Visual Studio\2019\Professional\VC\Tools\MSVC\14.29.30133\include\map

; 178  :             return {_Loc._Bound, false};

  00177	8b 85 38 fe ff
	ff		 mov	 eax, DWORD PTR $T9[ebp]
  0017d	e9 b6 00 00 00	 jmp	 $LN175@OnLoad
$LN176@OnLoad:
; File C:\Program Files (x86)\Microsoft Visual Studio\2019\Professional\VC\Tools\MSVC\14.29.30133\include\xtree

; 1623 :         if (max_size() == _Get_scary()->_Mysize) {

  00182	81 bd 44 fe ff
	ff ff ff ff 03	 cmp	 DWORD PTR _stTokenMap$[ebp+4], 67108863 ; 03ffffffH
  0018c	0f 84 3c 0b 00
	00		 je	 $LN1260@OnLoad
; File C:\Program Files (x86)\Microsoft Visual Studio\2019\Professional\VC\Tools\MSVC\14.29.30133\include\map

; 184  :         const auto _Inserted = _Tree_temp_node<_Alnode>(_Mybase::_Getal(), _Scary->_Myhead, piecewise_construct,

  00192	8b 85 40 fe ff
	ff		 mov	 eax, DWORD PTR _stTokenMap$[ebp]
  00198	89 85 18 fe ff
	ff		 mov	 DWORD PTR __Myhead$1$[ebp], eax
; File C:\Program Files (x86)\Microsoft Visual Studio\2019\Professional\VC\Tools\MSVC\14.29.30133\include\xmemory

; 1012 :     _CONSTEXPR20_DYNALLOC explicit _Alloc_construct_ptr(_Alloc& _Al_) : _Al(_Al_), _Ptr(nullptr) {}

  0019e	8d 85 40 fe ff
	ff		 lea	 eax, DWORD PTR _stTokenMap$[ebp]
  001a4	89 85 20 fe ff
	ff		 mov	 DWORD PTR $T7[ebp], eax

; 85   :         return ::operator new(_Bytes);

  001aa	6a 40		 push	 64			; 00000040H
; File C:\Program Files (x86)\Microsoft Visual Studio\2019\Professional\VC\Tools\MSVC\14.29.30133\include\xtree

; 790  :     explicit _Tree_temp_node_alloc(_Alnode& _Al_) : _Alloc_construct_ptr<_Alnode>(_Al_) {

  001ac	c6 45 fc 03	 mov	 BYTE PTR __$EHRec$[ebp+8], 3
; File C:\Program Files (x86)\Microsoft Visual Studio\2019\Professional\VC\Tools\MSVC\14.29.30133\include\xmemory

; 1019 :         _Ptr = nullptr; // if allocate throws, prevents double-free

  001b0	c7 85 24 fe ff
	ff 00 00 00 00	 mov	 DWORD PTR $T7[ebp+4], 0

; 85   :         return ::operator new(_Bytes);

  001ba	e8 00 00 00 00	 call	 ??2@YAPAXI@Z		; operator new
  001bf	83 c4 04	 add	 esp, 4

; 244  :         return _Traits::_Allocate(_Bytes);

  001c2	89 85 38 fe ff
	ff		 mov	 DWORD PTR $T10[ebp], eax

; 1020 :         _Ptr = _Al.allocate(1);

  001c8	89 85 24 fe ff
	ff		 mov	 DWORD PTR $T7[ebp+4], eax
; File C:\Program Files (x86)\Microsoft Visual Studio\2019\Professional\VC\Tools\MSVC\14.29.30133\include\xtree

; 812  :         _Alnode_traits::construct(this->_Al, _STD addressof(this->_Ptr->_Myval), _STD forward<_Valtys>(_Vals)...);

  001ce	8d 78 10	 lea	 edi, DWORD PTR [eax+16]
  001d1	c6 45 fc 04	 mov	 BYTE PTR __$EHRec$[ebp+8], 4
; File C:\Program Files (x86)\Microsoft Visual Studio\2019\Professional\VC\Tools\MSVC\14.29.30133\include\utility

; 270  :         : first(_Tuple_get<_Indexes1>(_STD move(_Val1))...), second(_Tuple_get<_Indexes2>(_STD move(_Val2))...) {}

  001d5	56		 push	 esi
  001d6	8b cf		 mov	 ecx, edi
  001d8	e8 00 00 00 00	 call	 ??0?$basic_string@DU?$char_traits@D@std@@V?$allocator@D@2@@std@@QAE@ABV01@@Z ; std::basic_string<char,std::char_traits<char>,std::allocator<char> >::basic_string<char,std::char_traits<char>,std::allocator<char> >
; File C:\Program Files (x86)\Microsoft Visual Studio\2019\Professional\VC\Tools\MSVC\14.29.30133\include\xtree

; 813  :         _Construct_in_place(this->_Ptr->_Left, _Myhead);

  001dd	8b 85 38 fe ff
	ff		 mov	 eax, DWORD PTR $T10[ebp]
  001e3	8b 8d 18 fe ff
	ff		 mov	 ecx, DWORD PTR __Myhead$1$[ebp]
; File C:\Program Files (x86)\Microsoft Visual Studio\2019\Professional\VC\Tools\MSVC\14.29.30133\include\xstring

; 2346 :         _CONSTEXPR20_CONTAINER _Bxty() noexcept : _Ptr() {} // user-provided, for fancy pointers

  001e9	c7 47 18 00 00
	00 00		 mov	 DWORD PTR [edi+24], 0

; 4596 :         _My_data._Mysize = 0;

  001f0	c7 47 28 00 00
	00 00		 mov	 DWORD PTR [edi+40], 0

; 4597 : 
; 4598 : #ifdef __cpp_lib_constexpr_string
; 4599 :         if (_STD is_constant_evaluated()) {
; 4600 :             _My_data._Myres        = _BUF_SIZE; // SSO disabled in constexpr context
; 4601 :             auto& _Al              = _Getal();
; 4602 :             const pointer _New_ptr = _Al.allocate(_BUF_SIZE + 1); // throws
; 4603 :             _My_data._Bx._Ptr      = _New_ptr;
; 4604 : 
; 4605 :             _Elem* const _Raw_new = _Unfancy(_New_ptr);
; 4606 :             _Traits::assign(_Raw_new, _BUF_SIZE + 1, _Elem());
; 4607 :         } else
; 4608 : #endif // __cpp_lib_constexpr_string
; 4609 :         {
; 4610 :             _My_data._Myres = _BUF_SIZE - 1;

  001f7	c7 47 2c 0f 00
	00 00		 mov	 DWORD PTR [edi+44], 15	; 0000000fH
; File C:\Program Files (x86)\Microsoft Visual Studio\2019\Professional\VC\Tools\MSVC\14.29.30133\include\map

; 190  :         return {_Scary->_Insert_node(_Loc._Location, _Inserted), true};

  001fe	50		 push	 eax
  001ff	ff b5 e8 fe ff
	ff		 push	 DWORD PTR __Loc$20[ebp+4]
; File C:\Program Files (x86)\Microsoft Visual Studio\2019\Professional\VC\Tools\MSVC\14.29.30133\include\xtree

; 813  :         _Construct_in_place(this->_Ptr->_Left, _Myhead);

  00205	89 08		 mov	 DWORD PTR [eax], ecx
; File C:\Program Files (x86)\Microsoft Visual Studio\2019\Professional\VC\Tools\MSVC\14.29.30133\include\map

; 190  :         return {_Scary->_Insert_node(_Loc._Location, _Inserted), true};

  00207	ff b5 e4 fe ff
	ff		 push	 DWORD PTR __Loc$20[ebp]
; File C:\Program Files (x86)\Microsoft Visual Studio\2019\Professional\VC\Tools\MSVC\14.29.30133\include\xtree

; 814  :         _Construct_in_place(this->_Ptr->_Parent, _Myhead);

  0020d	89 48 04	 mov	 DWORD PTR [eax+4], ecx

; 815  :         _Construct_in_place(this->_Ptr->_Right, _Myhead);

  00210	89 48 08	 mov	 DWORD PTR [eax+8], ecx
; File C:\Program Files (x86)\Microsoft Visual Studio\2019\Professional\VC\Tools\MSVC\14.29.30133\include\map

; 190  :         return {_Scary->_Insert_node(_Loc._Location, _Inserted), true};

  00213	8d 8d 40 fe ff
	ff		 lea	 ecx, DWORD PTR _stTokenMap$[ebp]
; File C:\Program Files (x86)\Microsoft Visual Studio\2019\Professional\VC\Tools\MSVC\14.29.30133\include\xtree

; 816  :         this->_Ptr->_Color = _Red;

  00219	66 c7 40 0c 00
	00		 mov	 WORD PTR [eax+12], 0

; 817  :         this->_Ptr->_Isnil = false;
; 818  :     }

  0021f	c6 45 fc 02	 mov	 BYTE PTR __$EHRec$[ebp+8], 2
; File C:\Program Files (x86)\Microsoft Visual Studio\2019\Professional\VC\Tools\MSVC\14.29.30133\include\utility

; 617  :     _Val         = static_cast<_Other&&>(_New_val);

  00223	c7 85 24 fe ff
	ff 00 00 00 00	 mov	 DWORD PTR $T7[ebp+4], 0
; File C:\Program Files (x86)\Microsoft Visual Studio\2019\Professional\VC\Tools\MSVC\14.29.30133\include\map

; 190  :         return {_Scary->_Insert_node(_Loc._Location, _Inserted), true};

  0022d	e8 00 00 00 00	 call	 ?_Insert_node@?$_Tree_val@U?$_Tree_simple_types@U?$pair@$$CBV?$basic_string@DU?$char_traits@D@std@@V?$allocator@D@2@@std@@V12@@std@@@std@@@std@@QAEPAU?$_Tree_node@U?$pair@$$CBV?$basic_string@DU?$char_traits@D@std@@V?$allocator@D@2@@std@@V12@@std@@PAX@2@U?$_Tree_id@PAU?$_Tree_node@U?$pair@$$CBV?$basic_string@DU?$char_traits@D@std@@V?$allocator@D@2@@std@@V12@@std@@PAX@std@@@2@QAU32@@Z ; std::_Tree_val<std::_Tree_simple_types<std::pair<std::basic_string<char,std::char_traits<char>,std::allocator<char> > const ,std::basic_string<char,std::char_traits<char>,std::allocator<char> > > > >::_Insert_node
  00232	8b bd 28 fe ff
	ff		 mov	 edi, DWORD PTR $T8[ebp]
$LN175@OnLoad:

; 325  :         return _Try_emplace(_Keyval).first->_Myval.second;

  00238	8d 48 28	 lea	 ecx, DWORD PTR [eax+40]
; File C:\Program Files (x86)\Microsoft Visual Studio\2019\Professional\VC\Tools\MSVC\14.29.30133\include\xstring

; 3077 :         if (this != _STD addressof(_Right)) {

  0023b	3b cf		 cmp	 ecx, edi
  0023d	74 13		 je	 SHORT $LN1288@OnLoad

; 2306 :         if (_Large_string_engaged()) {

  0023f	83 7f 14 10	 cmp	 DWORD PTR [edi+20], 16	; 00000010H
  00243	8b c7		 mov	 eax, edi
  00245	72 02		 jb	 SHORT $LN296@OnLoad

; 2307 :             _Result = _Unfancy(_Bx._Ptr);

  00247	8b 07		 mov	 eax, DWORD PTR [edi]
$LN296@OnLoad:

; 3035 :         assign(_Right._Mypair._Myval2._Myptr(), _Right._Mypair._Myval2._Mysize);

  00249	ff 77 10	 push	 DWORD PTR [edi+16]
  0024c	50		 push	 eax
  0024d	e8 00 00 00 00	 call	 ?assign@?$basic_string@DU?$char_traits@D@std@@V?$allocator@D@2@@std@@QAEAAV12@QBDI@Z ; std::basic_string<char,std::char_traits<char>,std::allocator<char> >::assign
$LN1288@OnLoad:
; File C:\Users\murat\Desktop\Siveps2-1-99-Project\source\client\Client\EterLib\GrpSubImage.cpp

; 77   : 	for (DWORD i = 0; i < textFileLoader.GetLineCount(); ++i)

  00252	8b b5 3c fe ff
	ff		 mov	 esi, DWORD PTR _i$1$[ebp]
$LN2@OnLoad:
  00258	46		 inc	 esi
  00259	8d 8d 04 fe ff
	ff		 lea	 ecx, DWORD PTR _textFileLoader$[ebp]
  0025f	89 b5 3c fe ff
	ff		 mov	 DWORD PTR _i$1$[ebp], esi
  00265	e8 00 00 00 00	 call	 ?GetLineCount@CMemoryTextFileLoader@@QAEKXZ ; CMemoryTextFileLoader::GetLineCount
  0026a	3b f0		 cmp	 esi, eax
  0026c	0f 82 60 fe ff
	ff		 jb	 $LL4@OnLoad
$LN1287@OnLoad:
; File C:\Program Files (x86)\Microsoft Visual Studio\2019\Professional\VC\Tools\MSVC\14.29.30133\include\xstring

; 122  :         _CSTD memmove(_First1, _First2, _Count * sizeof(_Elem));

  00272	a0 04 00 00 00	 mov	 al, BYTE PTR ??_C@_05PHLGJONK@title@+4
  00277	8b 35 00 00 00
	00		 mov	 esi, DWORD PTR ??_C@_05PHLGJONK@title@

; 4610 :             _My_data._Myres = _BUF_SIZE - 1;

  0027d	c7 85 bc fe ff
	ff 0f 00 00 00	 mov	 DWORD PTR $T15[ebp+20], 15 ; 0000000fH

; 3248 :             _Mypair._Myval2._Mysize = _Count;

  00287	c7 85 b8 fe ff
	ff 05 00 00 00	 mov	 DWORD PTR $T15[ebp+16], 5

; 122  :         _CSTD memmove(_First1, _First2, _Count * sizeof(_Elem));

  00291	89 b5 a8 fe ff
	ff		 mov	 DWORD PTR $T15[ebp], esi
  00297	88 85 ac fe ff
	ff		 mov	 BYTE PTR $T15[ebp+4], al

; 3250 :             _Traits::assign(_Old_ptr[_Count], _Elem());

  0029d	c6 85 ad fe ff
	ff 00		 mov	 BYTE PTR $T15[ebp+5], 0
; File C:\Program Files (x86)\Microsoft Visual Studio\2019\Professional\VC\Tools\MSVC\14.29.30133\include\map

; 176  :         const auto _Loc = _Mybase::_Find_lower_bound(_Keyval);

  002a4	8d 85 a8 fe ff
	ff		 lea	 eax, DWORD PTR $T15[ebp]
; File C:\Users\murat\Desktop\Siveps2-1-99-Project\source\client\Client\EterLib\GrpSubImage.cpp

; 91   : 	const std::string& c_rstTitle = stTokenMap["title"];

  002aa	c6 45 fc 05	 mov	 BYTE PTR __$EHRec$[ebp+8], 5
; File C:\Program Files (x86)\Microsoft Visual Studio\2019\Professional\VC\Tools\MSVC\14.29.30133\include\map

; 176  :         const auto _Loc = _Mybase::_Find_lower_bound(_Keyval);

  002ae	50		 push	 eax
  002af	8d 85 e4 fe ff
	ff		 lea	 eax, DWORD PTR __Loc$19[ebp]
  002b5	50		 push	 eax
  002b6	8d 8d 40 fe ff
	ff		 lea	 ecx, DWORD PTR _stTokenMap$[ebp]
  002bc	e8 00 00 00 00	 call	 ??$_Find_lower_bound@V?$basic_string@DU?$char_traits@D@std@@V?$allocator@D@2@@std@@@?$_Tree@V?$_Tmap_traits@V?$basic_string@DU?$char_traits@D@std@@V?$allocator@D@2@@std@@V12@U?$less@V?$basic_string@DU?$char_traits@D@std@@V?$allocator@D@2@@std@@@2@V?$allocator@U?$pair@$$CBV?$basic_string@DU?$char_traits@D@std@@V?$allocator@D@2@@std@@V12@@std@@@2@$0A@@std@@@std@@IBE?AU?$_Tree_find_result@PAU?$_Tree_node@U?$pair@$$CBV?$basic_string@DU?$char_traits@D@std@@V?$allocator@D@2@@std@@V12@@std@@PAX@std@@@1@ABV?$basic_string@DU?$char_traits@D@std@@V?$allocator@D@2@@1@@Z ; std::_Tree<std::_Tmap_traits<std::basic_string<char,std::char_traits<char>,std::allocator<char> >,std::basic_string<char,std::char_traits<char>,std::allocator<char> >,std::less<std::basic_string<char,std::char_traits<char>,std::allocator<char> > >,std::allocator<std::pair<std::basic_string<char,std::char_traits<char>,std::allocator<char> > const ,std::basic_string<char,std::char_traits<char>,std::allocator<char> > > >,0> >::_Find_lower_bound<std::basic_string<char,std::char_traits<char>,std::allocator<char> > >
; File C:\Program Files (x86)\Microsoft Visual Studio\2019\Professional\VC\Tools\MSVC\14.29.30133\include\xtree

; 1599 :         return !_Bound->_Isnil && !_DEBUG_LT_PRED(_Getcomp(), _Keyval, _Traits::_Kfn(_Bound->_Myval));

  002c1	8b bd ec fe ff
	ff		 mov	 edi, DWORD PTR __Loc$19[ebp+8]
  002c7	80 7f 0d 00	 cmp	 BYTE PTR [edi+13], 0
  002cb	75 1b		 jne	 SHORT $LN375@OnLoad
  002cd	8d 47 10	 lea	 eax, DWORD PTR [edi+16]
; File C:\Program Files (x86)\Microsoft Visual Studio\2019\Professional\VC\Tools\MSVC\14.29.30133\include\xstddef

; 127  :         return _Left < _Right;

  002d0	50		 push	 eax
  002d1	8d 85 a8 fe ff
	ff		 lea	 eax, DWORD PTR $T15[ebp]
  002d7	50		 push	 eax
  002d8	e8 00 00 00 00	 call	 ??$?MDU?$char_traits@D@std@@V?$allocator@D@1@@std@@YA_NABV?$basic_string@DU?$char_traits@D@std@@V?$allocator@D@2@@0@0@Z ; std::operator<<char,std::char_traits<char>,std::allocator<char> >
  002dd	83 c4 08	 add	 esp, 8
; File C:\Program Files (x86)\Microsoft Visual Studio\2019\Professional\VC\Tools\MSVC\14.29.30133\include\xtree

; 1599 :         return !_Bound->_Isnil && !_DEBUG_LT_PRED(_Getcomp(), _Keyval, _Traits::_Kfn(_Bound->_Myval));

  002e0	84 c0		 test	 al, al
  002e2	0f 84 cb 01 00
	00		 je	 $LN374@OnLoad
$LN375@OnLoad:

; 1623 :         if (max_size() == _Get_scary()->_Mysize) {

  002e8	81 bd 44 fe ff
	ff ff ff ff 03	 cmp	 DWORD PTR _stTokenMap$[ebp+4], 67108863 ; 03ffffffH
  002f2	0f 84 d6 09 00
	00		 je	 $LN1260@OnLoad
  002f8	e9 01 01 00 00	 jmp	 $LN387@OnLoad
$LN1259@OnLoad:
; File C:\Users\murat\Desktop\Siveps2-1-99-Project\source\client\Client\EterLib\GrpSubImage.cpp

; 83   : 			return false;

  002fd	8d 8d 04 fe ff
	ff		 lea	 ecx, DWORD PTR _textFileLoader$[ebp]
  00303	e8 00 00 00 00	 call	 ??1CMemoryTextFileLoader@@UAE@XZ ; CMemoryTextFileLoader::~CMemoryTextFileLoader
; File C:\Program Files (x86)\Microsoft Visual Studio\2019\Professional\VC\Tools\MSVC\14.29.30133\include\xtree

; 758  :         _Erase_tree(_Al, _Myhead->_Parent);

  00308	8b 85 40 fe ff
	ff		 mov	 eax, DWORD PTR _stTokenMap$[ebp]
  0030e	ff 70 04	 push	 DWORD PTR [eax+4]
  00311	8d 85 40 fe ff
	ff		 lea	 eax, DWORD PTR _stTokenMap$[ebp]
  00317	50		 push	 eax
  00318	8b c8		 mov	 ecx, eax
  0031a	e8 00 00 00 00	 call	 ??$_Erase_tree@V?$allocator@U?$_Tree_node@U?$pair@$$CBV?$basic_string@DU?$char_traits@D@std@@V?$allocator@D@2@@std@@V12@@std@@PAX@std@@@std@@@?$_Tree_val@U?$_Tree_simple_types@U?$pair@$$CBV?$basic_string@DU?$char_traits@D@std@@V?$allocator@D@2@@std@@V12@@std@@@std@@@std@@QAEXAAV?$allocator@U?$_Tree_node@U?$pair@$$CBV?$basic_string@DU?$char_traits@D@std@@V?$allocator@D@2@@std@@V12@@std@@PAX@std@@@1@PAU?$_Tree_node@U?$pair@$$CBV?$basic_string@DU?$char_traits@D@std@@V?$allocator@D@2@@std@@V12@@std@@PAX@1@@Z ; std::_Tree_val<std::_Tree_simple_types<std::pair<std::basic_string<char,std::char_traits<char>,std::allocator<char> > const ,std::basic_string<char,std::char_traits<char>,std::allocator<char> > > > >::_Erase_tree<std::allocator<std::_Tree_node<std::pair<std::basic_string<char,std::char_traits<char>,std::allocator<char> > const ,std::basic_string<char,std::char_traits<char>,std::allocator<char> > >,void *> > >
; File C:\Program Files (x86)\Microsoft Visual Studio\2019\Professional\VC\Tools\MSVC\14.29.30133\include\xmemory

; 264  :         ::operator delete(_Ptr, _Bytes);

  0031f	6a 40		 push	 64			; 00000040H
  00321	ff b5 40 fe ff
	ff		 push	 DWORD PTR _stTokenMap$[ebp]
  00327	e8 00 00 00 00	 call	 ??3@YAXPAXI@Z		; operator delete
; File C:\Program Files (x86)\Microsoft Visual Studio\2019\Professional\VC\Tools\MSVC\14.29.30133\include\vector

; 1763 :         if (_Myfirst) { // destroy and deallocate old array

  0032c	8b b5 2c fe ff
	ff		 mov	 esi, DWORD PTR _stTokenVector$[ebp]
; File C:\Program Files (x86)\Microsoft Visual Studio\2019\Professional\VC\Tools\MSVC\14.29.30133\include\xmemory

; 264  :         ::operator delete(_Ptr, _Bytes);

  00332	83 c4 08	 add	 esp, 8
; File C:\Program Files (x86)\Microsoft Visual Studio\2019\Professional\VC\Tools\MSVC\14.29.30133\include\vector

; 1763 :         if (_Myfirst) { // destroy and deallocate old array

  00335	85 f6		 test	 esi, esi
  00337	0f 84 a2 00 00
	00		 je	 $LN1080@OnLoad

; 1764 :             _Destroy(_Myfirst, _Mylast);

  0033d	8b bd 30 fe ff
	ff		 mov	 edi, DWORD PTR _stTokenVector$[ebp+4]

; 1680 :         _Destroy_range(_First, _Last, _Getal());

  00343	3b f7		 cmp	 esi, edi
; File C:\Program Files (x86)\Microsoft Visual Studio\2019\Professional\VC\Tools\MSVC\14.29.30133\include\xmemory

; 949  :         for (; _First != _Last; ++_First) {

  00345	74 51		 je	 SHORT $LN1086@OnLoad
$LL108@OnLoad:
; File C:\Program Files (x86)\Microsoft Visual Studio\2019\Professional\VC\Tools\MSVC\14.29.30133\include\xstring

; 2319 :         return _BUF_SIZE <= _Myres;

  00347	8b 4e 14	 mov	 ecx, DWORD PTR [esi+20]
  0034a	83 f9 10	 cmp	 ecx, 16			; 00000010H

; 4618 :         if (_Mypair._Myval2._Large_string_engaged()) {

  0034d	72 2b		 jb	 SHORT $LN127@OnLoad
; File C:\Program Files (x86)\Microsoft Visual Studio\2019\Professional\VC\Tools\MSVC\14.29.30133\include\xmemory

; 835  :         _Deallocate<_New_alignof<_Ty>>(_Ptr, sizeof(_Ty) * _Count);

  0034f	8b 06		 mov	 eax, DWORD PTR [esi]
; File C:\Program Files (x86)\Microsoft Visual Studio\2019\Professional\VC\Tools\MSVC\14.29.30133\include\xstring

; 4622 :             _Al.deallocate(_Ptr, _Mypair._Myval2._Myres + 1);

  00351	41		 inc	 ecx
; File C:\Program Files (x86)\Microsoft Visual Studio\2019\Professional\VC\Tools\MSVC\14.29.30133\include\xmemory

; 260  :         if (_Bytes >= _Big_allocation_threshold) { // boost the alignment of big allocations to help autovectorization

  00352	81 f9 00 10 00
	00		 cmp	 ecx, 4096		; 00001000H
  00358	72 16		 jb	 SHORT $LN137@OnLoad

; 158  :     const uintptr_t _Ptr_container   = _Ptr_user[-1];

  0035a	8b 50 fc	 mov	 edx, DWORD PTR [eax-4]
  0035d	83 c1 23	 add	 ecx, 35			; 00000023H

; 159  : 
; 160  :     // If the following asserts, it likely means that we are performing
; 161  :     // an aligned delete on memory coming from an unaligned allocation.
; 162  :     _STL_ASSERT(_Ptr_user[-2] == _Big_allocation_sentinel, "invalid argument");
; 163  : 
; 164  :     // Extra paranoia on aligned allocation/deallocation; ensure _Ptr_container is
; 165  :     // in range [_Min_back_shift, _Non_user_size]
; 166  : #ifdef _DEBUG
; 167  :     constexpr uintptr_t _Min_back_shift = 2 * sizeof(void*);
; 168  : #else // ^^^ _DEBUG ^^^ // vvv !_DEBUG vvv
; 169  :     constexpr uintptr_t _Min_back_shift = sizeof(void*);
; 170  : #endif // _DEBUG
; 171  :     const uintptr_t _Back_shift = reinterpret_cast<uintptr_t>(_Ptr) - _Ptr_container;

  00360	2b c2		 sub	 eax, edx

; 172  :     _STL_VERIFY(_Back_shift >= _Min_back_shift && _Back_shift <= _Non_user_size, "invalid argument");

  00362	83 c0 fc	 add	 eax, -4			; fffffffcH
  00365	83 f8 1f	 cmp	 eax, 31			; 0000001fH
  00368	0f 87 92 09 00
	00		 ja	 $LN1246@OnLoad

; 173  :     _Ptr = reinterpret_cast<void*>(_Ptr_container);

  0036e	8b c2		 mov	 eax, edx
$LN137@OnLoad:

; 264  :         ::operator delete(_Ptr, _Bytes);

  00370	51		 push	 ecx
  00371	50		 push	 eax
  00372	e8 00 00 00 00	 call	 ??3@YAXPAXI@Z		; operator delete
  00377	83 c4 08	 add	 esp, 8
$LN127@OnLoad:
; File C:\Program Files (x86)\Microsoft Visual Studio\2019\Professional\VC\Tools\MSVC\14.29.30133\include\xstring

; 4633 :             _Mypair._Myval2._Mysize = 0;

  0037a	c7 46 10 00 00
	00 00		 mov	 DWORD PTR [esi+16], 0

; 4634 :             _Mypair._Myval2._Myres  = _BUF_SIZE - 1;

  00381	c7 46 14 0f 00
	00 00		 mov	 DWORD PTR [esi+20], 15	; 0000000fH

; 4635 :             // the _Traits::assign is last so the codegen doesn't think the char write can alias this
; 4636 :             _Traits::assign(_Mypair._Myval2._Bx._Buf[0], _Elem());

  00388	c6 06 00	 mov	 BYTE PTR [esi], 0
; File C:\Program Files (x86)\Microsoft Visual Studio\2019\Professional\VC\Tools\MSVC\14.29.30133\include\xmemory

; 949  :         for (; _First != _Last; ++_First) {

  0038b	83 c6 18	 add	 esi, 24			; 00000018H
  0038e	3b f7		 cmp	 esi, edi
  00390	75 b5		 jne	 SHORT $LL108@OnLoad
$LN1292@OnLoad:
; File C:\Users\murat\Desktop\Siveps2-1-99-Project\source\client\Client\EterLib\GrpSubImage.cpp

; 100  : 		return false;

  00392	8b b5 2c fe ff
	ff		 mov	 esi, DWORD PTR _stTokenVector$[ebp]
$LN1086@OnLoad:
  00398	8b 8d 34 fe ff
	ff		 mov	 ecx, DWORD PTR _stTokenVector$[ebp+8]
  0039e	b8 ab aa aa 2a	 mov	 eax, 715827883		; 2aaaaaabH
  003a3	2b ce		 sub	 ecx, esi
  003a5	f7 e9		 imul	 ecx
  003a7	c1 fa 02	 sar	 edx, 2
  003aa	8b c2		 mov	 eax, edx
  003ac	c1 e8 1f	 shr	 eax, 31			; 0000001fH
  003af	03 c2		 add	 eax, edx
  003b1	8d 0c 40	 lea	 ecx, DWORD PTR [eax+eax*2]
  003b4	8b c6		 mov	 eax, esi
  003b6	c1 e1 03	 shl	 ecx, 3
  003b9	81 f9 00 10 00
	00		 cmp	 ecx, 4096		; 00001000H
  003bf	72 14		 jb	 SHORT $LN1108@OnLoad
  003c1	8b 76 fc	 mov	 esi, DWORD PTR [esi-4]
  003c4	83 c1 23	 add	 ecx, 35			; 00000023H
  003c7	2b c6		 sub	 eax, esi
  003c9	83 c0 fc	 add	 eax, -4			; fffffffcH
  003cc	83 f8 1f	 cmp	 eax, 31			; 0000001fH
  003cf	0f 87 2b 09 00
	00		 ja	 $LN1246@OnLoad
$LN1108@OnLoad:
  003d5	51		 push	 ecx
  003d6	56		 push	 esi
  003d7	e8 00 00 00 00	 call	 ??3@YAXPAXI@Z		; operator delete
  003dc	83 c4 08	 add	 esp, 8
$LN1080@OnLoad:
  003df	32 c0		 xor	 al, al
$LN1@OnLoad:

; 133  : }

  003e1	8b 4d f4	 mov	 ecx, DWORD PTR __$EHRec$[ebp]
  003e4	64 89 0d 00 00
	00 00		 mov	 DWORD PTR fs:0, ecx
  003eb	59		 pop	 ecx
  003ec	5f		 pop	 edi
  003ed	5e		 pop	 esi
  003ee	8b 4d f0	 mov	 ecx, DWORD PTR __$ArrayPad$[ebp]
  003f1	33 cd		 xor	 ecx, ebp
  003f3	e8 00 00 00 00	 call	 @__security_check_cookie@4
  003f8	8b e5		 mov	 esp, ebp
  003fa	5d		 pop	 ebp
  003fb	c2 08 00	 ret	 8
$LN387@OnLoad:
; File C:\Program Files (x86)\Microsoft Visual Studio\2019\Professional\VC\Tools\MSVC\14.29.30133\include\map

; 184  :         const auto _Inserted = _Tree_temp_node<_Alnode>(_Mybase::_Getal(), _Scary->_Myhead, piecewise_construct,

  003fe	8b b5 40 fe ff
	ff		 mov	 esi, DWORD PTR _stTokenMap$[ebp]
; File C:\Program Files (x86)\Microsoft Visual Studio\2019\Professional\VC\Tools\MSVC\14.29.30133\include\xmemory

; 1012 :     _CONSTEXPR20_DYNALLOC explicit _Alloc_construct_ptr(_Alloc& _Al_) : _Al(_Al_), _Ptr(nullptr) {}

  00404	8d 85 40 fe ff
	ff		 lea	 eax, DWORD PTR _stTokenMap$[ebp]
  0040a	89 85 20 fe ff
	ff		 mov	 DWORD PTR $T6[ebp], eax

; 85   :         return ::operator new(_Bytes);

  00410	6a 40		 push	 64			; 00000040H
; File C:\Program Files (x86)\Microsoft Visual Studio\2019\Professional\VC\Tools\MSVC\14.29.30133\include\xtree

; 790  :     explicit _Tree_temp_node_alloc(_Alnode& _Al_) : _Alloc_construct_ptr<_Alnode>(_Al_) {

  00412	c6 45 fc 06	 mov	 BYTE PTR __$EHRec$[ebp+8], 6
; File C:\Program Files (x86)\Microsoft Visual Studio\2019\Professional\VC\Tools\MSVC\14.29.30133\include\xmemory

; 1019 :         _Ptr = nullptr; // if allocate throws, prevents double-free

  00416	c7 85 24 fe ff
	ff 00 00 00 00	 mov	 DWORD PTR $T6[ebp+4], 0

; 85   :         return ::operator new(_Bytes);

  00420	e8 00 00 00 00	 call	 ??2@YAPAXI@Z		; operator new
  00425	83 c4 04	 add	 esp, 4
; File C:\Program Files (x86)\Microsoft Visual Studio\2019\Professional\VC\Tools\MSVC\14.29.30133\include\map

; 190  :         return {_Scary->_Insert_node(_Loc._Location, _Inserted), true};

  00428	8d 8d 40 fe ff
	ff		 lea	 ecx, DWORD PTR _stTokenMap$[ebp]
; File C:\Program Files (x86)\Microsoft Visual Studio\2019\Professional\VC\Tools\MSVC\14.29.30133\include\xstring

; 2346 :         _CONSTEXPR20_CONTAINER _Bxty() noexcept : _Ptr() {} // user-provided, for fancy pointers

  0042e	c7 40 10 00 00
	00 00		 mov	 DWORD PTR [eax+16], 0

; 2355 :     size_type _Mysize = 0; // current length of string

  00435	c7 40 20 00 00
	00 00		 mov	 DWORD PTR [eax+32], 0

; 2356 :     size_type _Myres  = 0; // current storage reserved for string

  0043c	c7 40 24 00 00
	00 00		 mov	 DWORD PTR [eax+36], 0

; 2869 :         _CSTD memcpy(_My_data_mem, _Right_data_mem, _Memcpy_val_size);

  00443	0f 10 85 a8 fe
	ff ff		 movups	 xmm0, XMMWORD PTR $T15[ebp]
; File C:\Program Files (x86)\Microsoft Visual Studio\2019\Professional\VC\Tools\MSVC\14.29.30133\include\map

; 190  :         return {_Scary->_Insert_node(_Loc._Location, _Inserted), true};

  0044a	50		 push	 eax
  0044b	ff b5 e8 fe ff
	ff		 push	 DWORD PTR __Loc$19[ebp+4]
; File C:\Program Files (x86)\Microsoft Visual Studio\2019\Professional\VC\Tools\MSVC\14.29.30133\include\xstring

; 2869 :         _CSTD memcpy(_My_data_mem, _Right_data_mem, _Memcpy_val_size);

  00451	0f 11 40 10	 movups	 XMMWORD PTR [eax+16], xmm0
  00455	f3 0f 7e 85 b8
	fe ff ff	 movq	 xmm0, QWORD PTR $T15[ebp+16]
; File C:\Program Files (x86)\Microsoft Visual Studio\2019\Professional\VC\Tools\MSVC\14.29.30133\include\map

; 190  :         return {_Scary->_Insert_node(_Loc._Location, _Inserted), true};

  0045d	ff b5 e4 fe ff
	ff		 push	 DWORD PTR __Loc$19[ebp]
; File C:\Program Files (x86)\Microsoft Visual Studio\2019\Professional\VC\Tools\MSVC\14.29.30133\include\xstring

; 2869 :         _CSTD memcpy(_My_data_mem, _Right_data_mem, _Memcpy_val_size);

  00463	66 0f d6 40 20	 movq	 QWORD PTR [eax+32], xmm0

; 4596 :         _My_data._Mysize = 0;

  00468	c7 85 b8 fe ff
	ff 00 00 00 00	 mov	 DWORD PTR $T15[ebp+16], 0

; 4597 : 
; 4598 : #ifdef __cpp_lib_constexpr_string
; 4599 :         if (_STD is_constant_evaluated()) {
; 4600 :             _My_data._Myres        = _BUF_SIZE; // SSO disabled in constexpr context
; 4601 :             auto& _Al              = _Getal();
; 4602 :             const pointer _New_ptr = _Al.allocate(_BUF_SIZE + 1); // throws
; 4603 :             _My_data._Bx._Ptr      = _New_ptr;
; 4604 : 
; 4605 :             _Elem* const _Raw_new = _Unfancy(_New_ptr);
; 4606 :             _Traits::assign(_Raw_new, _BUF_SIZE + 1, _Elem());
; 4607 :         } else
; 4608 : #endif // __cpp_lib_constexpr_string
; 4609 :         {
; 4610 :             _My_data._Myres = _BUF_SIZE - 1;

  00472	c7 85 bc fe ff
	ff 0f 00 00 00	 mov	 DWORD PTR $T15[ebp+20], 15 ; 0000000fH

; 4611 :             // the _Traits::assign is last so the codegen doesn't think the char write can alias this
; 4612 :             _Traits::assign(_My_data._Bx._Buf[0], _Elem());

  0047c	c6 85 a8 fe ff
	ff 00		 mov	 BYTE PTR $T15[ebp], 0

; 2346 :         _CONSTEXPR20_CONTAINER _Bxty() noexcept : _Ptr() {} // user-provided, for fancy pointers

  00483	c7 40 28 00 00
	00 00		 mov	 DWORD PTR [eax+40], 0

; 4596 :         _My_data._Mysize = 0;

  0048a	c7 40 38 00 00
	00 00		 mov	 DWORD PTR [eax+56], 0

; 4597 : 
; 4598 : #ifdef __cpp_lib_constexpr_string
; 4599 :         if (_STD is_constant_evaluated()) {
; 4600 :             _My_data._Myres        = _BUF_SIZE; // SSO disabled in constexpr context
; 4601 :             auto& _Al              = _Getal();
; 4602 :             const pointer _New_ptr = _Al.allocate(_BUF_SIZE + 1); // throws
; 4603 :             _My_data._Bx._Ptr      = _New_ptr;
; 4604 : 
; 4605 :             _Elem* const _Raw_new = _Unfancy(_New_ptr);
; 4606 :             _Traits::assign(_Raw_new, _BUF_SIZE + 1, _Elem());
; 4607 :         } else
; 4608 : #endif // __cpp_lib_constexpr_string
; 4609 :         {
; 4610 :             _My_data._Myres = _BUF_SIZE - 1;

  00491	c7 40 3c 0f 00
	00 00		 mov	 DWORD PTR [eax+60], 15	; 0000000fH
; File C:\Program Files (x86)\Microsoft Visual Studio\2019\Professional\VC\Tools\MSVC\14.29.30133\include\xtree

; 813  :         _Construct_in_place(this->_Ptr->_Left, _Myhead);

  00498	89 30		 mov	 DWORD PTR [eax], esi

; 814  :         _Construct_in_place(this->_Ptr->_Parent, _Myhead);

  0049a	89 70 04	 mov	 DWORD PTR [eax+4], esi

; 815  :         _Construct_in_place(this->_Ptr->_Right, _Myhead);

  0049d	89 70 08	 mov	 DWORD PTR [eax+8], esi

; 816  :         this->_Ptr->_Color = _Red;

  004a0	66 c7 40 0c 00
	00		 mov	 WORD PTR [eax+12], 0
; File C:\Program Files (x86)\Microsoft Visual Studio\2019\Professional\VC\Tools\MSVC\14.29.30133\include\map

; 190  :         return {_Scary->_Insert_node(_Loc._Location, _Inserted), true};

  004a6	e8 00 00 00 00	 call	 ?_Insert_node@?$_Tree_val@U?$_Tree_simple_types@U?$pair@$$CBV?$basic_string@DU?$char_traits@D@std@@V?$allocator@D@2@@std@@V12@@std@@@std@@@std@@QAEPAU?$_Tree_node@U?$pair@$$CBV?$basic_string@DU?$char_traits@D@std@@V?$allocator@D@2@@std@@V12@@std@@PAX@2@U?$_Tree_id@PAU?$_Tree_node@U?$pair@$$CBV?$basic_string@DU?$char_traits@D@std@@V?$allocator@D@2@@std@@V12@@std@@PAX@std@@@2@QAU32@@Z ; std::_Tree_val<std::_Tree_simple_types<std::pair<std::basic_string<char,std::char_traits<char>,std::allocator<char> > const ,std::basic_string<char,std::char_traits<char>,std::allocator<char> > > > >::_Insert_node
  004ab	8b b5 a8 fe ff
	ff		 mov	 esi, DWORD PTR $T15[ebp]
  004b1	8b f8		 mov	 edi, eax
$LN374@OnLoad:
; File C:\Program Files (x86)\Microsoft Visual Studio\2019\Professional\VC\Tools\MSVC\14.29.30133\include\xstring

; 4618 :         if (_Mypair._Myval2._Large_string_engaged()) {

  004b3	8b 8d bc fe ff
	ff		 mov	 ecx, DWORD PTR $T15[ebp+20]
; File C:\Program Files (x86)\Microsoft Visual Studio\2019\Professional\VC\Tools\MSVC\14.29.30133\include\map

; 154  :         return _Try_emplace(_STD move(_Keyval)).first->_Myval.second;

  004b9	8d 47 28	 lea	 eax, DWORD PTR [edi+40]
  004bc	89 85 28 fe ff
	ff		 mov	 DWORD PTR _c_rstTitle$1$[ebp], eax
; File C:\Users\murat\Desktop\Siveps2-1-99-Project\source\client\Client\EterLib\GrpSubImage.cpp

; 91   : 	const std::string& c_rstTitle = stTokenMap["title"];

  004c2	c6 45 fc 02	 mov	 BYTE PTR __$EHRec$[ebp+8], 2
; File C:\Program Files (x86)\Microsoft Visual Studio\2019\Professional\VC\Tools\MSVC\14.29.30133\include\xstring

; 4618 :         if (_Mypair._Myval2._Large_string_engaged()) {

  004c6	83 f9 10	 cmp	 ecx, 16			; 00000010H
  004c9	72 29		 jb	 SHORT $LN523@OnLoad

; 4622 :             _Al.deallocate(_Ptr, _Mypair._Myval2._Myres + 1);

  004cb	41		 inc	 ecx
; File C:\Program Files (x86)\Microsoft Visual Studio\2019\Professional\VC\Tools\MSVC\14.29.30133\include\xmemory

; 835  :         _Deallocate<_New_alignof<_Ty>>(_Ptr, sizeof(_Ty) * _Count);

  004cc	8b c6		 mov	 eax, esi

; 260  :         if (_Bytes >= _Big_allocation_threshold) { // boost the alignment of big allocations to help autovectorization

  004ce	81 f9 00 10 00
	00		 cmp	 ecx, 4096		; 00001000H
  004d4	72 14		 jb	 SHORT $LN533@OnLoad

; 158  :     const uintptr_t _Ptr_container   = _Ptr_user[-1];

  004d6	8b 76 fc	 mov	 esi, DWORD PTR [esi-4]
  004d9	83 c1 23	 add	 ecx, 35			; 00000023H
  004dc	2b c6		 sub	 eax, esi

; 172  :     _STL_VERIFY(_Back_shift >= _Min_back_shift && _Back_shift <= _Non_user_size, "invalid argument");

  004de	83 c0 fc	 add	 eax, -4			; fffffffcH
  004e1	83 f8 1f	 cmp	 eax, 31			; 0000001fH
  004e4	0f 87 e9 07 00
	00		 ja	 $LN1294@OnLoad
$LN533@OnLoad:

; 264  :         ::operator delete(_Ptr, _Bytes);

  004ea	51		 push	 ecx
  004eb	56		 push	 esi
  004ec	e8 00 00 00 00	 call	 ??3@YAXPAXI@Z		; operator delete
  004f1	83 c4 08	 add	 esp, 8
$LN523@OnLoad:
; File C:\Program Files (x86)\Microsoft Visual Studio\2019\Professional\VC\Tools\MSVC\14.29.30133\include\xstring

; 122  :         _CSTD memmove(_First1, _First2, _Count * sizeof(_Elem));

  004f4	66 a1 04 00 00
	00		 mov	 ax, WORD PTR ??_C@_07CPCPJPKL@version@+4
  004fa	8b 35 00 00 00
	00		 mov	 esi, DWORD PTR ??_C@_07CPCPJPKL@version@
  00500	66 89 85 c4 fe
	ff ff		 mov	 WORD PTR $T16[ebp+4], ax
  00507	a0 06 00 00 00	 mov	 al, BYTE PTR ??_C@_07CPCPJPKL@version@+6

; 4633 :             _Mypair._Myval2._Mysize = 0;

  0050c	c7 85 b8 fe ff
	ff 00 00 00 00	 mov	 DWORD PTR $T15[ebp+16], 0

; 4634 :             _Mypair._Myval2._Myres  = _BUF_SIZE - 1;

  00516	c7 85 bc fe ff
	ff 0f 00 00 00	 mov	 DWORD PTR $T15[ebp+20], 15 ; 0000000fH

; 4635 :             // the _Traits::assign is last so the codegen doesn't think the char write can alias this
; 4636 :             _Traits::assign(_Mypair._Myval2._Bx._Buf[0], _Elem());

  00520	c6 85 a8 fe ff
	ff 00		 mov	 BYTE PTR $T15[ebp], 0

; 4610 :             _My_data._Myres = _BUF_SIZE - 1;

  00527	c7 85 d4 fe ff
	ff 0f 00 00 00	 mov	 DWORD PTR $T16[ebp+20], 15 ; 0000000fH

; 3248 :             _Mypair._Myval2._Mysize = _Count;

  00531	c7 85 d0 fe ff
	ff 07 00 00 00	 mov	 DWORD PTR $T16[ebp+16], 7

; 122  :         _CSTD memmove(_First1, _First2, _Count * sizeof(_Elem));

  0053b	89 b5 c0 fe ff
	ff		 mov	 DWORD PTR $T16[ebp], esi
  00541	88 85 c6 fe ff
	ff		 mov	 BYTE PTR $T16[ebp+6], al

; 3250 :             _Traits::assign(_Old_ptr[_Count], _Elem());

  00547	c6 85 c7 fe ff
	ff 00		 mov	 BYTE PTR $T16[ebp+7], 0
; File C:\Program Files (x86)\Microsoft Visual Studio\2019\Professional\VC\Tools\MSVC\14.29.30133\include\map

; 176  :         const auto _Loc = _Mybase::_Find_lower_bound(_Keyval);

  0054e	8d 85 c0 fe ff
	ff		 lea	 eax, DWORD PTR $T16[ebp]
; File C:\Users\murat\Desktop\Siveps2-1-99-Project\source\client\Client\EterLib\GrpSubImage.cpp

; 92   : 	const std::string& c_rstVersion = stTokenMap["version"];

  00554	c6 45 fc 07	 mov	 BYTE PTR __$EHRec$[ebp+8], 7
; File C:\Program Files (x86)\Microsoft Visual Studio\2019\Professional\VC\Tools\MSVC\14.29.30133\include\map

; 176  :         const auto _Loc = _Mybase::_Find_lower_bound(_Keyval);

  00558	50		 push	 eax
  00559	8d 85 e4 fe ff
	ff		 lea	 eax, DWORD PTR __Loc$18[ebp]
  0055f	50		 push	 eax
  00560	8d 8d 40 fe ff
	ff		 lea	 ecx, DWORD PTR _stTokenMap$[ebp]
  00566	e8 00 00 00 00	 call	 ??$_Find_lower_bound@V?$basic_string@DU?$char_traits@D@std@@V?$allocator@D@2@@std@@@?$_Tree@V?$_Tmap_traits@V?$basic_string@DU?$char_traits@D@std@@V?$allocator@D@2@@std@@V12@U?$less@V?$basic_string@DU?$char_traits@D@std@@V?$allocator@D@2@@std@@@2@V?$allocator@U?$pair@$$CBV?$basic_string@DU?$char_traits@D@std@@V?$allocator@D@2@@std@@V12@@std@@@2@$0A@@std@@@std@@IBE?AU?$_Tree_find_result@PAU?$_Tree_node@U?$pair@$$CBV?$basic_string@DU?$char_traits@D@std@@V?$allocator@D@2@@std@@V12@@std@@PAX@std@@@1@ABV?$basic_string@DU?$char_traits@D@std@@V?$allocator@D@2@@1@@Z ; std::_Tree<std::_Tmap_traits<std::basic_string<char,std::char_traits<char>,std::allocator<char> >,std::basic_string<char,std::char_traits<char>,std::allocator<char> >,std::less<std::basic_string<char,std::char_traits<char>,std::allocator<char> > >,std::allocator<std::pair<std::basic_string<char,std::char_traits<char>,std::allocator<char> > const ,std::basic_string<char,std::char_traits<char>,std::allocator<char> > > >,0> >::_Find_lower_bound<std::basic_string<char,std::char_traits<char>,std::allocator<char> > >
; File C:\Program Files (x86)\Microsoft Visual Studio\2019\Professional\VC\Tools\MSVC\14.29.30133\include\xtree

; 1599 :         return !_Bound->_Isnil && !_DEBUG_LT_PRED(_Getcomp(), _Keyval, _Traits::_Kfn(_Bound->_Myval));

  0056b	8b bd ec fe ff
	ff		 mov	 edi, DWORD PTR __Loc$18[ebp+8]
  00571	80 7f 0d 00	 cmp	 BYTE PTR [edi+13], 0
  00575	75 1b		 jne	 SHORT $LN613@OnLoad
  00577	8d 47 10	 lea	 eax, DWORD PTR [edi+16]
; File C:\Program Files (x86)\Microsoft Visual Studio\2019\Professional\VC\Tools\MSVC\14.29.30133\include\xstddef

; 127  :         return _Left < _Right;

  0057a	50		 push	 eax
  0057b	8d 85 c0 fe ff
	ff		 lea	 eax, DWORD PTR $T16[ebp]
  00581	50		 push	 eax
  00582	e8 00 00 00 00	 call	 ??$?MDU?$char_traits@D@std@@V?$allocator@D@1@@std@@YA_NABV?$basic_string@DU?$char_traits@D@std@@V?$allocator@D@2@@0@0@Z ; std::operator<<char,std::char_traits<char>,std::allocator<char> >
  00587	83 c4 08	 add	 esp, 8
; File C:\Program Files (x86)\Microsoft Visual Studio\2019\Professional\VC\Tools\MSVC\14.29.30133\include\xtree

; 1599 :         return !_Bound->_Isnil && !_DEBUG_LT_PRED(_Getcomp(), _Keyval, _Traits::_Kfn(_Bound->_Myval));

  0058a	84 c0		 test	 al, al
  0058c	0f 84 c5 00 00
	00		 je	 $LN612@OnLoad
$LN613@OnLoad:

; 1623 :         if (max_size() == _Get_scary()->_Mysize) {

  00592	81 bd 44 fe ff
	ff ff ff ff 03	 cmp	 DWORD PTR _stTokenMap$[ebp+4], 67108863 ; 03ffffffH
  0059c	0f 84 36 07 00
	00		 je	 $LN1295@OnLoad
; File C:\Program Files (x86)\Microsoft Visual Studio\2019\Professional\VC\Tools\MSVC\14.29.30133\include\map

; 184  :         const auto _Inserted = _Tree_temp_node<_Alnode>(_Mybase::_Getal(), _Scary->_Myhead, piecewise_construct,

  005a2	8b b5 40 fe ff
	ff		 mov	 esi, DWORD PTR _stTokenMap$[ebp]
; File C:\Program Files (x86)\Microsoft Visual Studio\2019\Professional\VC\Tools\MSVC\14.29.30133\include\xmemory

; 1012 :     _CONSTEXPR20_DYNALLOC explicit _Alloc_construct_ptr(_Alloc& _Al_) : _Al(_Al_), _Ptr(nullptr) {}

  005a8	8d 85 40 fe ff
	ff		 lea	 eax, DWORD PTR _stTokenMap$[ebp]
  005ae	89 85 20 fe ff
	ff		 mov	 DWORD PTR $T5[ebp], eax

; 85   :         return ::operator new(_Bytes);

  005b4	6a 40		 push	 64			; 00000040H
; File C:\Program Files (x86)\Microsoft Visual Studio\2019\Professional\VC\Tools\MSVC\14.29.30133\include\xtree

; 790  :     explicit _Tree_temp_node_alloc(_Alnode& _Al_) : _Alloc_construct_ptr<_Alnode>(_Al_) {

  005b6	c6 45 fc 08	 mov	 BYTE PTR __$EHRec$[ebp+8], 8
; File C:\Program Files (x86)\Microsoft Visual Studio\2019\Professional\VC\Tools\MSVC\14.29.30133\include\xmemory

; 1019 :         _Ptr = nullptr; // if allocate throws, prevents double-free

  005ba	c7 85 24 fe ff
	ff 00 00 00 00	 mov	 DWORD PTR $T5[ebp+4], 0

; 85   :         return ::operator new(_Bytes);

  005c4	e8 00 00 00 00	 call	 ??2@YAPAXI@Z		; operator new
  005c9	83 c4 04	 add	 esp, 4
; File C:\Program Files (x86)\Microsoft Visual Studio\2019\Professional\VC\Tools\MSVC\14.29.30133\include\map

; 190  :         return {_Scary->_Insert_node(_Loc._Location, _Inserted), true};

  005cc	8d 8d 40 fe ff
	ff		 lea	 ecx, DWORD PTR _stTokenMap$[ebp]
; File C:\Program Files (x86)\Microsoft Visual Studio\2019\Professional\VC\Tools\MSVC\14.29.30133\include\xstring

; 2346 :         _CONSTEXPR20_CONTAINER _Bxty() noexcept : _Ptr() {} // user-provided, for fancy pointers

  005d2	c7 40 10 00 00
	00 00		 mov	 DWORD PTR [eax+16], 0

; 2355 :     size_type _Mysize = 0; // current length of string

  005d9	c7 40 20 00 00
	00 00		 mov	 DWORD PTR [eax+32], 0

; 2356 :     size_type _Myres  = 0; // current storage reserved for string

  005e0	c7 40 24 00 00
	00 00		 mov	 DWORD PTR [eax+36], 0

; 2869 :         _CSTD memcpy(_My_data_mem, _Right_data_mem, _Memcpy_val_size);

  005e7	0f 10 85 c0 fe
	ff ff		 movups	 xmm0, XMMWORD PTR $T16[ebp]
; File C:\Program Files (x86)\Microsoft Visual Studio\2019\Professional\VC\Tools\MSVC\14.29.30133\include\map

; 190  :         return {_Scary->_Insert_node(_Loc._Location, _Inserted), true};

  005ee	50		 push	 eax
  005ef	ff b5 e8 fe ff
	ff		 push	 DWORD PTR __Loc$18[ebp+4]
; File C:\Program Files (x86)\Microsoft Visual Studio\2019\Professional\VC\Tools\MSVC\14.29.30133\include\xstring

; 2869 :         _CSTD memcpy(_My_data_mem, _Right_data_mem, _Memcpy_val_size);

  005f5	0f 11 40 10	 movups	 XMMWORD PTR [eax+16], xmm0
  005f9	f3 0f 7e 85 d0
	fe ff ff	 movq	 xmm0, QWORD PTR $T16[ebp+16]
; File C:\Program Files (x86)\Microsoft Visual Studio\2019\Professional\VC\Tools\MSVC\14.29.30133\include\map

; 190  :         return {_Scary->_Insert_node(_Loc._Location, _Inserted), true};

  00601	ff b5 e4 fe ff
	ff		 push	 DWORD PTR __Loc$18[ebp]
; File C:\Program Files (x86)\Microsoft Visual Studio\2019\Professional\VC\Tools\MSVC\14.29.30133\include\xstring

; 2869 :         _CSTD memcpy(_My_data_mem, _Right_data_mem, _Memcpy_val_size);

  00607	66 0f d6 40 20	 movq	 QWORD PTR [eax+32], xmm0

; 4596 :         _My_data._Mysize = 0;

  0060c	c7 85 d0 fe ff
	ff 00 00 00 00	 mov	 DWORD PTR $T16[ebp+16], 0

; 4597 : 
; 4598 : #ifdef __cpp_lib_constexpr_string
; 4599 :         if (_STD is_constant_evaluated()) {
; 4600 :             _My_data._Myres        = _BUF_SIZE; // SSO disabled in constexpr context
; 4601 :             auto& _Al              = _Getal();
; 4602 :             const pointer _New_ptr = _Al.allocate(_BUF_SIZE + 1); // throws
; 4603 :             _My_data._Bx._Ptr      = _New_ptr;
; 4604 : 
; 4605 :             _Elem* const _Raw_new = _Unfancy(_New_ptr);
; 4606 :             _Traits::assign(_Raw_new, _BUF_SIZE + 1, _Elem());
; 4607 :         } else
; 4608 : #endif // __cpp_lib_constexpr_string
; 4609 :         {
; 4610 :             _My_data._Myres = _BUF_SIZE - 1;

  00616	c7 85 d4 fe ff
	ff 0f 00 00 00	 mov	 DWORD PTR $T16[ebp+20], 15 ; 0000000fH

; 4611 :             // the _Traits::assign is last so the codegen doesn't think the char write can alias this
; 4612 :             _Traits::assign(_My_data._Bx._Buf[0], _Elem());

  00620	c6 85 c0 fe ff
	ff 00		 mov	 BYTE PTR $T16[ebp], 0

; 2346 :         _CONSTEXPR20_CONTAINER _Bxty() noexcept : _Ptr() {} // user-provided, for fancy pointers

  00627	c7 40 28 00 00
	00 00		 mov	 DWORD PTR [eax+40], 0

; 4596 :         _My_data._Mysize = 0;

  0062e	c7 40 38 00 00
	00 00		 mov	 DWORD PTR [eax+56], 0

; 4597 : 
; 4598 : #ifdef __cpp_lib_constexpr_string
; 4599 :         if (_STD is_constant_evaluated()) {
; 4600 :             _My_data._Myres        = _BUF_SIZE; // SSO disabled in constexpr context
; 4601 :             auto& _Al              = _Getal();
; 4602 :             const pointer _New_ptr = _Al.allocate(_BUF_SIZE + 1); // throws
; 4603 :             _My_data._Bx._Ptr      = _New_ptr;
; 4604 : 
; 4605 :             _Elem* const _Raw_new = _Unfancy(_New_ptr);
; 4606 :             _Traits::assign(_Raw_new, _BUF_SIZE + 1, _Elem());
; 4607 :         } else
; 4608 : #endif // __cpp_lib_constexpr_string
; 4609 :         {
; 4610 :             _My_data._Myres = _BUF_SIZE - 1;

  00635	c7 40 3c 0f 00
	00 00		 mov	 DWORD PTR [eax+60], 15	; 0000000fH
; File C:\Program Files (x86)\Microsoft Visual Studio\2019\Professional\VC\Tools\MSVC\14.29.30133\include\xtree

; 813  :         _Construct_in_place(this->_Ptr->_Left, _Myhead);

  0063c	89 30		 mov	 DWORD PTR [eax], esi

; 814  :         _Construct_in_place(this->_Ptr->_Parent, _Myhead);

  0063e	89 70 04	 mov	 DWORD PTR [eax+4], esi

; 815  :         _Construct_in_place(this->_Ptr->_Right, _Myhead);

  00641	89 70 08	 mov	 DWORD PTR [eax+8], esi

; 816  :         this->_Ptr->_Color = _Red;

  00644	66 c7 40 0c 00
	00		 mov	 WORD PTR [eax+12], 0
; File C:\Program Files (x86)\Microsoft Visual Studio\2019\Professional\VC\Tools\MSVC\14.29.30133\include\map

; 190  :         return {_Scary->_Insert_node(_Loc._Location, _Inserted), true};

  0064a	e8 00 00 00 00	 call	 ?_Insert_node@?$_Tree_val@U?$_Tree_simple_types@U?$pair@$$CBV?$basic_string@DU?$char_traits@D@std@@V?$allocator@D@2@@std@@V12@@std@@@std@@@std@@QAEPAU?$_Tree_node@U?$pair@$$CBV?$basic_string@DU?$char_traits@D@std@@V?$allocator@D@2@@std@@V12@@std@@PAX@2@U?$_Tree_id@PAU?$_Tree_node@U?$pair@$$CBV?$basic_string@DU?$char_traits@D@std@@V?$allocator@D@2@@std@@V12@@std@@PAX@std@@@2@QAU32@@Z ; std::_Tree_val<std::_Tree_simple_types<std::pair<std::basic_string<char,std::char_traits<char>,std::allocator<char> > const ,std::basic_string<char,std::char_traits<char>,std::allocator<char> > > > >::_Insert_node
  0064f	8b b5 c0 fe ff
	ff		 mov	 esi, DWORD PTR $T16[ebp]
  00655	8b f8		 mov	 edi, eax
$LN612@OnLoad:
; File C:\Program Files (x86)\Microsoft Visual Studio\2019\Professional\VC\Tools\MSVC\14.29.30133\include\xstring

; 4618 :         if (_Mypair._Myval2._Large_string_engaged()) {

  00657	8b 8d d4 fe ff
	ff		 mov	 ecx, DWORD PTR $T16[ebp+20]
; File C:\Program Files (x86)\Microsoft Visual Studio\2019\Professional\VC\Tools\MSVC\14.29.30133\include\map

; 154  :         return _Try_emplace(_STD move(_Keyval)).first->_Myval.second;

  0065d	8d 47 28	 lea	 eax, DWORD PTR [edi+40]
  00660	89 85 18 fe ff
	ff		 mov	 DWORD PTR _c_rstVersion$1$[ebp], eax
; File C:\Users\murat\Desktop\Siveps2-1-99-Project\source\client\Client\EterLib\GrpSubImage.cpp

; 92   : 	const std::string& c_rstVersion = stTokenMap["version"];

  00666	c6 45 fc 02	 mov	 BYTE PTR __$EHRec$[ebp+8], 2
; File C:\Program Files (x86)\Microsoft Visual Studio\2019\Professional\VC\Tools\MSVC\14.29.30133\include\xstring

; 4618 :         if (_Mypair._Myval2._Large_string_engaged()) {

  0066a	83 f9 10	 cmp	 ecx, 16			; 00000010H
  0066d	72 29		 jb	 SHORT $LN761@OnLoad

; 4622 :             _Al.deallocate(_Ptr, _Mypair._Myval2._Myres + 1);

  0066f	41		 inc	 ecx
; File C:\Program Files (x86)\Microsoft Visual Studio\2019\Professional\VC\Tools\MSVC\14.29.30133\include\xmemory

; 835  :         _Deallocate<_New_alignof<_Ty>>(_Ptr, sizeof(_Ty) * _Count);

  00670	8b c6		 mov	 eax, esi

; 260  :         if (_Bytes >= _Big_allocation_threshold) { // boost the alignment of big allocations to help autovectorization

  00672	81 f9 00 10 00
	00		 cmp	 ecx, 4096		; 00001000H
  00678	72 14		 jb	 SHORT $LN771@OnLoad

; 158  :     const uintptr_t _Ptr_container   = _Ptr_user[-1];

  0067a	8b 76 fc	 mov	 esi, DWORD PTR [esi-4]
  0067d	83 c1 23	 add	 ecx, 35			; 00000023H
  00680	2b c6		 sub	 eax, esi

; 172  :     _STL_VERIFY(_Back_shift >= _Min_back_shift && _Back_shift <= _Non_user_size, "invalid argument");

  00682	83 c0 fc	 add	 eax, -4			; fffffffcH
  00685	83 f8 1f	 cmp	 eax, 31			; 0000001fH
  00688	0f 87 4f 06 00
	00		 ja	 $LN1296@OnLoad
$LN771@OnLoad:

; 264  :         ::operator delete(_Ptr, _Bytes);

  0068e	51		 push	 ecx
  0068f	56		 push	 esi
  00690	e8 00 00 00 00	 call	 ??3@YAXPAXI@Z		; operator delete
  00695	83 c4 08	 add	 esp, 8
$LN761@OnLoad:
; File C:\Program Files (x86)\Microsoft Visual Studio\2019\Professional\VC\Tools\MSVC\14.29.30133\include\xstring

; 122  :         _CSTD memmove(_First1, _First2, _Count * sizeof(_Elem));

  00698	a1 00 00 00 00	 mov	 eax, DWORD PTR ??_C@_05NGOMGBBD@image@
  0069d	89 85 d8 fe ff
	ff		 mov	 DWORD PTR $T17[ebp], eax
  006a3	a0 04 00 00 00	 mov	 al, BYTE PTR ??_C@_05NGOMGBBD@image@+4

; 4633 :             _Mypair._Myval2._Mysize = 0;

  006a8	c7 85 d0 fe ff
	ff 00 00 00 00	 mov	 DWORD PTR $T16[ebp+16], 0

; 4634 :             _Mypair._Myval2._Myres  = _BUF_SIZE - 1;

  006b2	c7 85 d4 fe ff
	ff 0f 00 00 00	 mov	 DWORD PTR $T16[ebp+20], 15 ; 0000000fH

; 4635 :             // the _Traits::assign is last so the codegen doesn't think the char write can alias this
; 4636 :             _Traits::assign(_Mypair._Myval2._Bx._Buf[0], _Elem());

  006bc	c6 85 c0 fe ff
	ff 00		 mov	 BYTE PTR $T16[ebp], 0

; 4610 :             _My_data._Myres = _BUF_SIZE - 1;

  006c3	c7 85 ec fe ff
	ff 0f 00 00 00	 mov	 DWORD PTR $T17[ebp+20], 15 ; 0000000fH

; 3248 :             _Mypair._Myval2._Mysize = _Count;

  006cd	c7 85 e8 fe ff
	ff 05 00 00 00	 mov	 DWORD PTR $T17[ebp+16], 5

; 122  :         _CSTD memmove(_First1, _First2, _Count * sizeof(_Elem));

  006d7	88 85 dc fe ff
	ff		 mov	 BYTE PTR $T17[ebp+4], al

; 3250 :             _Traits::assign(_Old_ptr[_Count], _Elem());

  006dd	c6 85 dd fe ff
	ff 00		 mov	 BYTE PTR $T17[ebp+5], 0
; File C:\Users\murat\Desktop\Siveps2-1-99-Project\source\client\Client\EterLib\GrpSubImage.cpp

; 93   : 	const std::string& c_rstImage = stTokenMap["image"];

  006e4	8d 85 d8 fe ff
	ff		 lea	 eax, DWORD PTR $T17[ebp]
  006ea	c6 45 fc 09	 mov	 BYTE PTR __$EHRec$[ebp+8], 9
  006ee	50		 push	 eax
  006ef	8d 8d 40 fe ff
	ff		 lea	 ecx, DWORD PTR _stTokenMap$[ebp]
  006f5	e8 00 00 00 00	 call	 ??A?$map@V?$basic_string@DU?$char_traits@D@std@@V?$allocator@D@2@@std@@V12@U?$less@V?$basic_string@DU?$char_traits@D@std@@V?$allocator@D@2@@std@@@2@V?$allocator@U?$pair@$$CBV?$basic_string@DU?$char_traits@D@std@@V?$allocator@D@2@@std@@V12@@std@@@2@@std@@QAEAAV?$basic_string@DU?$char_traits@D@std@@V?$allocator@D@2@@1@$$QAV21@@Z ; std::map<std::basic_string<char,std::char_traits<char>,std::allocator<char> >,std::basic_string<char,std::char_traits<char>,std::allocator<char> >,std::less<std::basic_string<char,std::char_traits<char>,std::allocator<char> > >,std::allocator<std::pair<std::basic_string<char,std::char_traits<char>,std::allocator<char> > const ,std::basic_string<char,std::char_traits<char>,std::allocator<char> > > > >::operator[]
; File C:\Program Files (x86)\Microsoft Visual Studio\2019\Professional\VC\Tools\MSVC\14.29.30133\include\xstring

; 4618 :         if (_Mypair._Myval2._Large_string_engaged()) {

  006fa	8b 95 ec fe ff
	ff		 mov	 edx, DWORD PTR $T17[ebp+20]
; File C:\Users\murat\Desktop\Siveps2-1-99-Project\source\client\Client\EterLib\GrpSubImage.cpp

; 93   : 	const std::string& c_rstImage = stTokenMap["image"];

  00700	8b f0		 mov	 esi, eax
  00702	c6 45 fc 02	 mov	 BYTE PTR __$EHRec$[ebp+8], 2
; File C:\Program Files (x86)\Microsoft Visual Studio\2019\Professional\VC\Tools\MSVC\14.29.30133\include\xstring

; 4618 :         if (_Mypair._Myval2._Large_string_engaged()) {

  00706	83 fa 10	 cmp	 edx, 16			; 00000010H
  00709	72 2f		 jb	 SHORT $LN860@OnLoad
; File C:\Program Files (x86)\Microsoft Visual Studio\2019\Professional\VC\Tools\MSVC\14.29.30133\include\xmemory

; 835  :         _Deallocate<_New_alignof<_Ty>>(_Ptr, sizeof(_Ty) * _Count);

  0070b	8b 8d d8 fe ff
	ff		 mov	 ecx, DWORD PTR $T17[ebp]
; File C:\Program Files (x86)\Microsoft Visual Studio\2019\Professional\VC\Tools\MSVC\14.29.30133\include\xstring

; 4622 :             _Al.deallocate(_Ptr, _Mypair._Myval2._Myres + 1);

  00711	42		 inc	 edx
; File C:\Program Files (x86)\Microsoft Visual Studio\2019\Professional\VC\Tools\MSVC\14.29.30133\include\xmemory

; 835  :         _Deallocate<_New_alignof<_Ty>>(_Ptr, sizeof(_Ty) * _Count);

  00712	8b c1		 mov	 eax, ecx

; 260  :         if (_Bytes >= _Big_allocation_threshold) { // boost the alignment of big allocations to help autovectorization

  00714	81 fa 00 10 00
	00		 cmp	 edx, 4096		; 00001000H
  0071a	72 14		 jb	 SHORT $LN870@OnLoad

; 158  :     const uintptr_t _Ptr_container   = _Ptr_user[-1];

  0071c	8b 49 fc	 mov	 ecx, DWORD PTR [ecx-4]
  0071f	83 c2 23	 add	 edx, 35			; 00000023H
  00722	2b c1		 sub	 eax, ecx

; 172  :     _STL_VERIFY(_Back_shift >= _Min_back_shift && _Back_shift <= _Non_user_size, "invalid argument");

  00724	83 c0 fc	 add	 eax, -4			; fffffffcH
  00727	83 f8 1f	 cmp	 eax, 31			; 0000001fH
  0072a	0f 87 b2 05 00
	00		 ja	 $LN1297@OnLoad
$LN870@OnLoad:

; 264  :         ::operator delete(_Ptr, _Bytes);

  00730	52		 push	 edx
  00731	51		 push	 ecx
  00732	e8 00 00 00 00	 call	 ??3@YAXPAXI@Z		; operator delete
  00737	83 c4 08	 add	 esp, 8
$LN860@OnLoad:
; File C:\Program Files (x86)\Microsoft Visual Studio\2019\Professional\VC\Tools\MSVC\14.29.30133\include\xstring

; 3264 :         return assign(_Ptr, _Convert_size<size_type>(_Traits::length(_Ptr)));

  0073a	6a 04		 push	 4

; 2346 :         _CONSTEXPR20_CONTAINER _Bxty() noexcept : _Ptr() {} // user-provided, for fancy pointers

  0073c	c7 85 90 fe ff
	ff 00 00 00 00	 mov	 DWORD PTR $T14[ebp], 0

; 3264 :         return assign(_Ptr, _Convert_size<size_type>(_Traits::length(_Ptr)));

  00746	8d 8d 90 fe ff
	ff		 lea	 ecx, DWORD PTR $T14[ebp]
  0074c	68 00 00 00 00	 push	 OFFSET ??_C@_04GOOOJOPP@left@

; 4633 :             _Mypair._Myval2._Mysize = 0;

  00751	c7 85 e8 fe ff
	ff 00 00 00 00	 mov	 DWORD PTR $T17[ebp+16], 0

; 4634 :             _Mypair._Myval2._Myres  = _BUF_SIZE - 1;

  0075b	c7 85 ec fe ff
	ff 0f 00 00 00	 mov	 DWORD PTR $T17[ebp+20], 15 ; 0000000fH

; 4635 :             // the _Traits::assign is last so the codegen doesn't think the char write can alias this
; 4636 :             _Traits::assign(_Mypair._Myval2._Bx._Buf[0], _Elem());

  00765	c6 85 d8 fe ff
	ff 00		 mov	 BYTE PTR $T17[ebp], 0

; 4596 :         _My_data._Mysize = 0;

  0076c	c7 85 a0 fe ff
	ff 00 00 00 00	 mov	 DWORD PTR $T14[ebp+16], 0

; 4597 : 
; 4598 : #ifdef __cpp_lib_constexpr_string
; 4599 :         if (_STD is_constant_evaluated()) {
; 4600 :             _My_data._Myres        = _BUF_SIZE; // SSO disabled in constexpr context
; 4601 :             auto& _Al              = _Getal();
; 4602 :             const pointer _New_ptr = _Al.allocate(_BUF_SIZE + 1); // throws
; 4603 :             _My_data._Bx._Ptr      = _New_ptr;
; 4604 : 
; 4605 :             _Elem* const _Raw_new = _Unfancy(_New_ptr);
; 4606 :             _Traits::assign(_Raw_new, _BUF_SIZE + 1, _Elem());
; 4607 :         } else
; 4608 : #endif // __cpp_lib_constexpr_string
; 4609 :         {
; 4610 :             _My_data._Myres = _BUF_SIZE - 1;

  00776	c7 85 a4 fe ff
	ff 0f 00 00 00	 mov	 DWORD PTR $T14[ebp+20], 15 ; 0000000fH

; 4611 :             // the _Traits::assign is last so the codegen doesn't think the char write can alias this
; 4612 :             _Traits::assign(_My_data._Bx._Buf[0], _Elem());

  00780	c6 85 90 fe ff
	ff 00		 mov	 BYTE PTR $T14[ebp], 0

; 3264 :         return assign(_Ptr, _Convert_size<size_type>(_Traits::length(_Ptr)));

  00787	e8 00 00 00 00	 call	 ?assign@?$basic_string@DU?$char_traits@D@std@@V?$allocator@D@2@@std@@QAEAAV12@QBDI@Z ; std::basic_string<char,std::char_traits<char>,std::allocator<char> >::assign
; File C:\Users\murat\Desktop\Siveps2-1-99-Project\source\client\Client\EterLib\GrpSubImage.cpp

; 94   : 	const std::string& c_rstLeft = stTokenMap["left"];

  0078c	8d 85 90 fe ff
	ff		 lea	 eax, DWORD PTR $T14[ebp]
  00792	c6 45 fc 0a	 mov	 BYTE PTR __$EHRec$[ebp+8], 10 ; 0000000aH
  00796	50		 push	 eax
  00797	8d 8d 40 fe ff
	ff		 lea	 ecx, DWORD PTR _stTokenMap$[ebp]
  0079d	e8 00 00 00 00	 call	 ??A?$map@V?$basic_string@DU?$char_traits@D@std@@V?$allocator@D@2@@std@@V12@U?$less@V?$basic_string@DU?$char_traits@D@std@@V?$allocator@D@2@@std@@@2@V?$allocator@U?$pair@$$CBV?$basic_string@DU?$char_traits@D@std@@V?$allocator@D@2@@std@@V12@@std@@@2@@std@@QAEAAV?$basic_string@DU?$char_traits@D@std@@V?$allocator@D@2@@1@$$QAV21@@Z ; std::map<std::basic_string<char,std::char_traits<char>,std::allocator<char> >,std::basic_string<char,std::char_traits<char>,std::allocator<char> >,std::less<std::basic_string<char,std::char_traits<char>,std::allocator<char> > >,std::allocator<std::pair<std::basic_string<char,std::char_traits<char>,std::allocator<char> > const ,std::basic_string<char,std::char_traits<char>,std::allocator<char> > > > >::operator[]
; File C:\Program Files (x86)\Microsoft Visual Studio\2019\Professional\VC\Tools\MSVC\14.29.30133\include\xstring

; 4618 :         if (_Mypair._Myval2._Large_string_engaged()) {

  007a2	8b 95 a4 fe ff
	ff		 mov	 edx, DWORD PTR $T14[ebp+20]
; File C:\Users\murat\Desktop\Siveps2-1-99-Project\source\client\Client\EterLib\GrpSubImage.cpp

; 94   : 	const std::string& c_rstLeft = stTokenMap["left"];

  007a8	89 85 3c fe ff
	ff		 mov	 DWORD PTR __Result$1$[ebp], eax
  007ae	c6 45 fc 02	 mov	 BYTE PTR __$EHRec$[ebp+8], 2
; File C:\Program Files (x86)\Microsoft Visual Studio\2019\Professional\VC\Tools\MSVC\14.29.30133\include\xstring

; 4618 :         if (_Mypair._Myval2._Large_string_engaged()) {

  007b2	83 fa 10	 cmp	 edx, 16			; 00000010H
  007b5	72 2f		 jb	 SHORT $LN903@OnLoad
; File C:\Program Files (x86)\Microsoft Visual Studio\2019\Professional\VC\Tools\MSVC\14.29.30133\include\xmemory

; 835  :         _Deallocate<_New_alignof<_Ty>>(_Ptr, sizeof(_Ty) * _Count);

  007b7	8b 8d 90 fe ff
	ff		 mov	 ecx, DWORD PTR $T14[ebp]
; File C:\Program Files (x86)\Microsoft Visual Studio\2019\Professional\VC\Tools\MSVC\14.29.30133\include\xstring

; 4622 :             _Al.deallocate(_Ptr, _Mypair._Myval2._Myres + 1);

  007bd	42		 inc	 edx
; File C:\Program Files (x86)\Microsoft Visual Studio\2019\Professional\VC\Tools\MSVC\14.29.30133\include\xmemory

; 835  :         _Deallocate<_New_alignof<_Ty>>(_Ptr, sizeof(_Ty) * _Count);

  007be	8b c1		 mov	 eax, ecx

; 260  :         if (_Bytes >= _Big_allocation_threshold) { // boost the alignment of big allocations to help autovectorization

  007c0	81 fa 00 10 00
	00		 cmp	 edx, 4096		; 00001000H
  007c6	72 14		 jb	 SHORT $LN913@OnLoad

; 158  :     const uintptr_t _Ptr_container   = _Ptr_user[-1];

  007c8	8b 49 fc	 mov	 ecx, DWORD PTR [ecx-4]
  007cb	83 c2 23	 add	 edx, 35			; 00000023H
  007ce	2b c1		 sub	 eax, ecx

; 172  :     _STL_VERIFY(_Back_shift >= _Min_back_shift && _Back_shift <= _Non_user_size, "invalid argument");

  007d0	83 c0 fc	 add	 eax, -4			; fffffffcH
  007d3	83 f8 1f	 cmp	 eax, 31			; 0000001fH
  007d6	0f 87 0b 05 00
	00		 ja	 $LN1298@OnLoad
$LN913@OnLoad:

; 264  :         ::operator delete(_Ptr, _Bytes);

  007dc	52		 push	 edx
  007dd	51		 push	 ecx
  007de	e8 00 00 00 00	 call	 ??3@YAXPAXI@Z		; operator delete
  007e3	83 c4 08	 add	 esp, 8
$LN903@OnLoad:
; File C:\Program Files (x86)\Microsoft Visual Studio\2019\Professional\VC\Tools\MSVC\14.29.30133\include\xstring

; 3264 :         return assign(_Ptr, _Convert_size<size_type>(_Traits::length(_Ptr)));

  007e6	6a 03		 push	 3

; 2346 :         _CONSTEXPR20_CONTAINER _Bxty() noexcept : _Ptr() {} // user-provided, for fancy pointers

  007e8	c7 85 78 fe ff
	ff 00 00 00 00	 mov	 DWORD PTR $T13[ebp], 0

; 3264 :         return assign(_Ptr, _Convert_size<size_type>(_Traits::length(_Ptr)));

  007f2	8d 8d 78 fe ff
	ff		 lea	 ecx, DWORD PTR $T13[ebp]
  007f8	68 00 00 00 00	 push	 OFFSET ??_C@_03FGFCOCMD@top@

; 4633 :             _Mypair._Myval2._Mysize = 0;

  007fd	c7 85 a0 fe ff
	ff 00 00 00 00	 mov	 DWORD PTR $T14[ebp+16], 0

; 4634 :             _Mypair._Myval2._Myres  = _BUF_SIZE - 1;

  00807	c7 85 a4 fe ff
	ff 0f 00 00 00	 mov	 DWORD PTR $T14[ebp+20], 15 ; 0000000fH

; 4635 :             // the _Traits::assign is last so the codegen doesn't think the char write can alias this
; 4636 :             _Traits::assign(_Mypair._Myval2._Bx._Buf[0], _Elem());

  00811	c6 85 90 fe ff
	ff 00		 mov	 BYTE PTR $T14[ebp], 0

; 4596 :         _My_data._Mysize = 0;

  00818	c7 85 88 fe ff
	ff 00 00 00 00	 mov	 DWORD PTR $T13[ebp+16], 0

; 4597 : 
; 4598 : #ifdef __cpp_lib_constexpr_string
; 4599 :         if (_STD is_constant_evaluated()) {
; 4600 :             _My_data._Myres        = _BUF_SIZE; // SSO disabled in constexpr context
; 4601 :             auto& _Al              = _Getal();
; 4602 :             const pointer _New_ptr = _Al.allocate(_BUF_SIZE + 1); // throws
; 4603 :             _My_data._Bx._Ptr      = _New_ptr;
; 4604 : 
; 4605 :             _Elem* const _Raw_new = _Unfancy(_New_ptr);
; 4606 :             _Traits::assign(_Raw_new, _BUF_SIZE + 1, _Elem());
; 4607 :         } else
; 4608 : #endif // __cpp_lib_constexpr_string
; 4609 :         {
; 4610 :             _My_data._Myres = _BUF_SIZE - 1;

  00822	c7 85 8c fe ff
	ff 0f 00 00 00	 mov	 DWORD PTR $T13[ebp+20], 15 ; 0000000fH

; 4611 :             // the _Traits::assign is last so the codegen doesn't think the char write can alias this
; 4612 :             _Traits::assign(_My_data._Bx._Buf[0], _Elem());

  0082c	c6 85 78 fe ff
	ff 00		 mov	 BYTE PTR $T13[ebp], 0

; 3264 :         return assign(_Ptr, _Convert_size<size_type>(_Traits::length(_Ptr)));

  00833	e8 00 00 00 00	 call	 ?assign@?$basic_string@DU?$char_traits@D@std@@V?$allocator@D@2@@std@@QAEAAV12@QBDI@Z ; std::basic_string<char,std::char_traits<char>,std::allocator<char> >::assign
; File C:\Users\murat\Desktop\Siveps2-1-99-Project\source\client\Client\EterLib\GrpSubImage.cpp

; 95   : 	const std::string& c_rstTop = stTokenMap["top"];

  00838	8d 85 78 fe ff
	ff		 lea	 eax, DWORD PTR $T13[ebp]
  0083e	c6 45 fc 0b	 mov	 BYTE PTR __$EHRec$[ebp+8], 11 ; 0000000bH
  00842	50		 push	 eax
  00843	8d 8d 40 fe ff
	ff		 lea	 ecx, DWORD PTR _stTokenMap$[ebp]
  00849	e8 00 00 00 00	 call	 ??A?$map@V?$basic_string@DU?$char_traits@D@std@@V?$allocator@D@2@@std@@V12@U?$less@V?$basic_string@DU?$char_traits@D@std@@V?$allocator@D@2@@std@@@2@V?$allocator@U?$pair@$$CBV?$basic_string@DU?$char_traits@D@std@@V?$allocator@D@2@@std@@V12@@std@@@2@@std@@QAEAAV?$basic_string@DU?$char_traits@D@std@@V?$allocator@D@2@@1@$$QAV21@@Z ; std::map<std::basic_string<char,std::char_traits<char>,std::allocator<char> >,std::basic_string<char,std::char_traits<char>,std::allocator<char> >,std::less<std::basic_string<char,std::char_traits<char>,std::allocator<char> > >,std::allocator<std::pair<std::basic_string<char,std::char_traits<char>,std::allocator<char> > const ,std::basic_string<char,std::char_traits<char>,std::allocator<char> > > > >::operator[]
; File C:\Program Files (x86)\Microsoft Visual Studio\2019\Professional\VC\Tools\MSVC\14.29.30133\include\xstring

; 4618 :         if (_Mypair._Myval2._Large_string_engaged()) {

  0084e	8b 95 8c fe ff
	ff		 mov	 edx, DWORD PTR $T13[ebp+20]
; File C:\Users\murat\Desktop\Siveps2-1-99-Project\source\client\Client\EterLib\GrpSubImage.cpp

; 95   : 	const std::string& c_rstTop = stTokenMap["top"];

  00854	89 85 24 fe ff
	ff		 mov	 DWORD PTR __Result$1$[ebp], eax
  0085a	c6 45 fc 02	 mov	 BYTE PTR __$EHRec$[ebp+8], 2
; File C:\Program Files (x86)\Microsoft Visual Studio\2019\Professional\VC\Tools\MSVC\14.29.30133\include\xstring

; 4618 :         if (_Mypair._Myval2._Large_string_engaged()) {

  0085e	83 fa 10	 cmp	 edx, 16			; 00000010H
  00861	72 2f		 jb	 SHORT $LN946@OnLoad
; File C:\Program Files (x86)\Microsoft Visual Studio\2019\Professional\VC\Tools\MSVC\14.29.30133\include\xmemory

; 835  :         _Deallocate<_New_alignof<_Ty>>(_Ptr, sizeof(_Ty) * _Count);

  00863	8b 8d 78 fe ff
	ff		 mov	 ecx, DWORD PTR $T13[ebp]
; File C:\Program Files (x86)\Microsoft Visual Studio\2019\Professional\VC\Tools\MSVC\14.29.30133\include\xstring

; 4622 :             _Al.deallocate(_Ptr, _Mypair._Myval2._Myres + 1);

  00869	42		 inc	 edx
; File C:\Program Files (x86)\Microsoft Visual Studio\2019\Professional\VC\Tools\MSVC\14.29.30133\include\xmemory

; 835  :         _Deallocate<_New_alignof<_Ty>>(_Ptr, sizeof(_Ty) * _Count);

  0086a	8b c1		 mov	 eax, ecx

; 260  :         if (_Bytes >= _Big_allocation_threshold) { // boost the alignment of big allocations to help autovectorization

  0086c	81 fa 00 10 00
	00		 cmp	 edx, 4096		; 00001000H
  00872	72 14		 jb	 SHORT $LN956@OnLoad

; 158  :     const uintptr_t _Ptr_container   = _Ptr_user[-1];

  00874	8b 49 fc	 mov	 ecx, DWORD PTR [ecx-4]
  00877	83 c2 23	 add	 edx, 35			; 00000023H
  0087a	2b c1		 sub	 eax, ecx

; 172  :     _STL_VERIFY(_Back_shift >= _Min_back_shift && _Back_shift <= _Non_user_size, "invalid argument");

  0087c	83 c0 fc	 add	 eax, -4			; fffffffcH
  0087f	83 f8 1f	 cmp	 eax, 31			; 0000001fH
  00882	0f 87 64 04 00
	00		 ja	 $LN1299@OnLoad
$LN956@OnLoad:

; 264  :         ::operator delete(_Ptr, _Bytes);

  00888	52		 push	 edx
  00889	51		 push	 ecx
  0088a	e8 00 00 00 00	 call	 ??3@YAXPAXI@Z		; operator delete
  0088f	83 c4 08	 add	 esp, 8
$LN946@OnLoad:
; File C:\Program Files (x86)\Microsoft Visual Studio\2019\Professional\VC\Tools\MSVC\14.29.30133\include\xstring

; 3264 :         return assign(_Ptr, _Convert_size<size_type>(_Traits::length(_Ptr)));

  00892	6a 05		 push	 5

; 2346 :         _CONSTEXPR20_CONTAINER _Bxty() noexcept : _Ptr() {} // user-provided, for fancy pointers

  00894	c7 85 60 fe ff
	ff 00 00 00 00	 mov	 DWORD PTR $T12[ebp], 0

; 3264 :         return assign(_Ptr, _Convert_size<size_type>(_Traits::length(_Ptr)));

  0089e	8d 8d 60 fe ff
	ff		 lea	 ecx, DWORD PTR $T12[ebp]
  008a4	68 00 00 00 00	 push	 OFFSET ??_C@_05DHJDAOHK@right@

; 4633 :             _Mypair._Myval2._Mysize = 0;

  008a9	c7 85 88 fe ff
	ff 00 00 00 00	 mov	 DWORD PTR $T13[ebp+16], 0

; 4634 :             _Mypair._Myval2._Myres  = _BUF_SIZE - 1;

  008b3	c7 85 8c fe ff
	ff 0f 00 00 00	 mov	 DWORD PTR $T13[ebp+20], 15 ; 0000000fH

; 4635 :             // the _Traits::assign is last so the codegen doesn't think the char write can alias this
; 4636 :             _Traits::assign(_Mypair._Myval2._Bx._Buf[0], _Elem());

  008bd	c6 85 78 fe ff
	ff 00		 mov	 BYTE PTR $T13[ebp], 0

; 4596 :         _My_data._Mysize = 0;

  008c4	c7 85 70 fe ff
	ff 00 00 00 00	 mov	 DWORD PTR $T12[ebp+16], 0

; 4597 : 
; 4598 : #ifdef __cpp_lib_constexpr_string
; 4599 :         if (_STD is_constant_evaluated()) {
; 4600 :             _My_data._Myres        = _BUF_SIZE; // SSO disabled in constexpr context
; 4601 :             auto& _Al              = _Getal();
; 4602 :             const pointer _New_ptr = _Al.allocate(_BUF_SIZE + 1); // throws
; 4603 :             _My_data._Bx._Ptr      = _New_ptr;
; 4604 : 
; 4605 :             _Elem* const _Raw_new = _Unfancy(_New_ptr);
; 4606 :             _Traits::assign(_Raw_new, _BUF_SIZE + 1, _Elem());
; 4607 :         } else
; 4608 : #endif // __cpp_lib_constexpr_string
; 4609 :         {
; 4610 :             _My_data._Myres = _BUF_SIZE - 1;

  008ce	c7 85 74 fe ff
	ff 0f 00 00 00	 mov	 DWORD PTR $T12[ebp+20], 15 ; 0000000fH

; 4611 :             // the _Traits::assign is last so the codegen doesn't think the char write can alias this
; 4612 :             _Traits::assign(_My_data._Bx._Buf[0], _Elem());

  008d8	c6 85 60 fe ff
	ff 00		 mov	 BYTE PTR $T12[ebp], 0

; 3264 :         return assign(_Ptr, _Convert_size<size_type>(_Traits::length(_Ptr)));

  008df	e8 00 00 00 00	 call	 ?assign@?$basic_string@DU?$char_traits@D@std@@V?$allocator@D@2@@std@@QAEAAV12@QBDI@Z ; std::basic_string<char,std::char_traits<char>,std::allocator<char> >::assign
; File C:\Users\murat\Desktop\Siveps2-1-99-Project\source\client\Client\EterLib\GrpSubImage.cpp

; 96   : 	const std::string& c_rstRight = stTokenMap["right"];

  008e4	8d 85 60 fe ff
	ff		 lea	 eax, DWORD PTR $T12[ebp]
  008ea	c6 45 fc 0c	 mov	 BYTE PTR __$EHRec$[ebp+8], 12 ; 0000000cH
  008ee	50		 push	 eax
  008ef	8d 8d 40 fe ff
	ff		 lea	 ecx, DWORD PTR _stTokenMap$[ebp]
  008f5	e8 00 00 00 00	 call	 ??A?$map@V?$basic_string@DU?$char_traits@D@std@@V?$allocator@D@2@@std@@V12@U?$less@V?$basic_string@DU?$char_traits@D@std@@V?$allocator@D@2@@std@@@2@V?$allocator@U?$pair@$$CBV?$basic_string@DU?$char_traits@D@std@@V?$allocator@D@2@@std@@V12@@std@@@2@@std@@QAEAAV?$basic_string@DU?$char_traits@D@std@@V?$allocator@D@2@@1@$$QAV21@@Z ; std::map<std::basic_string<char,std::char_traits<char>,std::allocator<char> >,std::basic_string<char,std::char_traits<char>,std::allocator<char> >,std::less<std::basic_string<char,std::char_traits<char>,std::allocator<char> > >,std::allocator<std::pair<std::basic_string<char,std::char_traits<char>,std::allocator<char> > const ,std::basic_string<char,std::char_traits<char>,std::allocator<char> > > > >::operator[]
; File C:\Program Files (x86)\Microsoft Visual Studio\2019\Professional\VC\Tools\MSVC\14.29.30133\include\xstring

; 4618 :         if (_Mypair._Myval2._Large_string_engaged()) {

  008fa	8b 95 74 fe ff
	ff		 mov	 edx, DWORD PTR $T12[ebp+20]
; File C:\Users\murat\Desktop\Siveps2-1-99-Project\source\client\Client\EterLib\GrpSubImage.cpp

; 96   : 	const std::string& c_rstRight = stTokenMap["right"];

  00900	8b f8		 mov	 edi, eax
  00902	89 bd 38 fe ff
	ff		 mov	 DWORD PTR __Result$1$[ebp], edi
  00908	c6 45 fc 02	 mov	 BYTE PTR __$EHRec$[ebp+8], 2
; File C:\Program Files (x86)\Microsoft Visual Studio\2019\Professional\VC\Tools\MSVC\14.29.30133\include\xstring

; 4618 :         if (_Mypair._Myval2._Large_string_engaged()) {

  0090c	83 fa 10	 cmp	 edx, 16			; 00000010H
  0090f	72 2f		 jb	 SHORT $LN989@OnLoad
; File C:\Program Files (x86)\Microsoft Visual Studio\2019\Professional\VC\Tools\MSVC\14.29.30133\include\xmemory

; 835  :         _Deallocate<_New_alignof<_Ty>>(_Ptr, sizeof(_Ty) * _Count);

  00911	8b 8d 60 fe ff
	ff		 mov	 ecx, DWORD PTR $T12[ebp]
; File C:\Program Files (x86)\Microsoft Visual Studio\2019\Professional\VC\Tools\MSVC\14.29.30133\include\xstring

; 4622 :             _Al.deallocate(_Ptr, _Mypair._Myval2._Myres + 1);

  00917	42		 inc	 edx
; File C:\Program Files (x86)\Microsoft Visual Studio\2019\Professional\VC\Tools\MSVC\14.29.30133\include\xmemory

; 835  :         _Deallocate<_New_alignof<_Ty>>(_Ptr, sizeof(_Ty) * _Count);

  00918	8b c1		 mov	 eax, ecx

; 260  :         if (_Bytes >= _Big_allocation_threshold) { // boost the alignment of big allocations to help autovectorization

  0091a	81 fa 00 10 00
	00		 cmp	 edx, 4096		; 00001000H
  00920	72 14		 jb	 SHORT $LN999@OnLoad

; 158  :     const uintptr_t _Ptr_container   = _Ptr_user[-1];

  00922	8b 49 fc	 mov	 ecx, DWORD PTR [ecx-4]
  00925	83 c2 23	 add	 edx, 35			; 00000023H
  00928	2b c1		 sub	 eax, ecx

; 172  :     _STL_VERIFY(_Back_shift >= _Min_back_shift && _Back_shift <= _Non_user_size, "invalid argument");

  0092a	83 c0 fc	 add	 eax, -4			; fffffffcH
  0092d	83 f8 1f	 cmp	 eax, 31			; 0000001fH
  00930	0f 87 bb 03 00
	00		 ja	 $LN1300@OnLoad
$LN999@OnLoad:

; 264  :         ::operator delete(_Ptr, _Bytes);

  00936	52		 push	 edx
  00937	51		 push	 ecx
  00938	e8 00 00 00 00	 call	 ??3@YAXPAXI@Z		; operator delete
  0093d	83 c4 08	 add	 esp, 8
$LN989@OnLoad:
; File C:\Program Files (x86)\Microsoft Visual Studio\2019\Professional\VC\Tools\MSVC\14.29.30133\include\xstring

; 3264 :         return assign(_Ptr, _Convert_size<size_type>(_Traits::length(_Ptr)));

  00940	6a 06		 push	 6

; 2346 :         _CONSTEXPR20_CONTAINER _Bxty() noexcept : _Ptr() {} // user-provided, for fancy pointers

  00942	c7 85 48 fe ff
	ff 00 00 00 00	 mov	 DWORD PTR $T11[ebp], 0

; 3264 :         return assign(_Ptr, _Convert_size<size_type>(_Traits::length(_Ptr)));

  0094c	8d 8d 48 fe ff
	ff		 lea	 ecx, DWORD PTR $T11[ebp]
  00952	68 00 00 00 00	 push	 OFFSET ??_C@_06PMMPCIPB@bottom@

; 4633 :             _Mypair._Myval2._Mysize = 0;

  00957	c7 85 70 fe ff
	ff 00 00 00 00	 mov	 DWORD PTR $T12[ebp+16], 0

; 4634 :             _Mypair._Myval2._Myres  = _BUF_SIZE - 1;

  00961	c7 85 74 fe ff
	ff 0f 00 00 00	 mov	 DWORD PTR $T12[ebp+20], 15 ; 0000000fH

; 4635 :             // the _Traits::assign is last so the codegen doesn't think the char write can alias this
; 4636 :             _Traits::assign(_Mypair._Myval2._Bx._Buf[0], _Elem());

  0096b	c6 85 60 fe ff
	ff 00		 mov	 BYTE PTR $T12[ebp], 0

; 4596 :         _My_data._Mysize = 0;

  00972	c7 85 58 fe ff
	ff 00 00 00 00	 mov	 DWORD PTR $T11[ebp+16], 0

; 4597 : 
; 4598 : #ifdef __cpp_lib_constexpr_string
; 4599 :         if (_STD is_constant_evaluated()) {
; 4600 :             _My_data._Myres        = _BUF_SIZE; // SSO disabled in constexpr context
; 4601 :             auto& _Al              = _Getal();
; 4602 :             const pointer _New_ptr = _Al.allocate(_BUF_SIZE + 1); // throws
; 4603 :             _My_data._Bx._Ptr      = _New_ptr;
; 4604 : 
; 4605 :             _Elem* const _Raw_new = _Unfancy(_New_ptr);
; 4606 :             _Traits::assign(_Raw_new, _BUF_SIZE + 1, _Elem());
; 4607 :         } else
; 4608 : #endif // __cpp_lib_constexpr_string
; 4609 :         {
; 4610 :             _My_data._Myres = _BUF_SIZE - 1;

  0097c	c7 85 5c fe ff
	ff 0f 00 00 00	 mov	 DWORD PTR $T11[ebp+20], 15 ; 0000000fH

; 4611 :             // the _Traits::assign is last so the codegen doesn't think the char write can alias this
; 4612 :             _Traits::assign(_My_data._Bx._Buf[0], _Elem());

  00986	c6 85 48 fe ff
	ff 00		 mov	 BYTE PTR $T11[ebp], 0

; 3264 :         return assign(_Ptr, _Convert_size<size_type>(_Traits::length(_Ptr)));

  0098d	e8 00 00 00 00	 call	 ?assign@?$basic_string@DU?$char_traits@D@std@@V?$allocator@D@2@@std@@QAEAAV12@QBDI@Z ; std::basic_string<char,std::char_traits<char>,std::allocator<char> >::assign
; File C:\Users\murat\Desktop\Siveps2-1-99-Project\source\client\Client\EterLib\GrpSubImage.cpp

; 97   : 	const std::string& c_rstBottom = stTokenMap["bottom"];

  00992	8d 85 48 fe ff
	ff		 lea	 eax, DWORD PTR $T11[ebp]
  00998	c6 45 fc 0d	 mov	 BYTE PTR __$EHRec$[ebp+8], 13 ; 0000000dH
  0099c	50		 push	 eax
  0099d	8d 8d 40 fe ff
	ff		 lea	 ecx, DWORD PTR _stTokenMap$[ebp]
  009a3	e8 00 00 00 00	 call	 ??A?$map@V?$basic_string@DU?$char_traits@D@std@@V?$allocator@D@2@@std@@V12@U?$less@V?$basic_string@DU?$char_traits@D@std@@V?$allocator@D@2@@std@@@2@V?$allocator@U?$pair@$$CBV?$basic_string@DU?$char_traits@D@std@@V?$allocator@D@2@@std@@V12@@std@@@2@@std@@QAEAAV?$basic_string@DU?$char_traits@D@std@@V?$allocator@D@2@@1@$$QAV21@@Z ; std::map<std::basic_string<char,std::char_traits<char>,std::allocator<char> >,std::basic_string<char,std::char_traits<char>,std::allocator<char> >,std::less<std::basic_string<char,std::char_traits<char>,std::allocator<char> > >,std::allocator<std::pair<std::basic_string<char,std::char_traits<char>,std::allocator<char> > const ,std::basic_string<char,std::char_traits<char>,std::allocator<char> > > > >::operator[]
; File C:\Program Files (x86)\Microsoft Visual Studio\2019\Professional\VC\Tools\MSVC\14.29.30133\include\xstring

; 2319 :         return _BUF_SIZE <= _Myres;

  009a8	8b 95 5c fe ff
	ff		 mov	 edx, DWORD PTR $T11[ebp+20]
; File C:\Users\murat\Desktop\Siveps2-1-99-Project\source\client\Client\EterLib\GrpSubImage.cpp

; 97   : 	const std::string& c_rstBottom = stTokenMap["bottom"];

  009ae	89 85 14 fe ff
	ff		 mov	 DWORD PTR __Result$1$[ebp], eax
  009b4	c6 45 fc 02	 mov	 BYTE PTR __$EHRec$[ebp+8], 2
; File C:\Program Files (x86)\Microsoft Visual Studio\2019\Professional\VC\Tools\MSVC\14.29.30133\include\xstring

; 2319 :         return _BUF_SIZE <= _Myres;

  009b8	83 fa 10	 cmp	 edx, 16			; 00000010H

; 4618 :         if (_Mypair._Myval2._Large_string_engaged()) {

  009bb	72 2f		 jb	 SHORT $LN1032@OnLoad
; File C:\Program Files (x86)\Microsoft Visual Studio\2019\Professional\VC\Tools\MSVC\14.29.30133\include\xmemory

; 835  :         _Deallocate<_New_alignof<_Ty>>(_Ptr, sizeof(_Ty) * _Count);

  009bd	8b 8d 48 fe ff
	ff		 mov	 ecx, DWORD PTR $T11[ebp]
; File C:\Program Files (x86)\Microsoft Visual Studio\2019\Professional\VC\Tools\MSVC\14.29.30133\include\xstring

; 4622 :             _Al.deallocate(_Ptr, _Mypair._Myval2._Myres + 1);

  009c3	42		 inc	 edx
; File C:\Program Files (x86)\Microsoft Visual Studio\2019\Professional\VC\Tools\MSVC\14.29.30133\include\xmemory

; 835  :         _Deallocate<_New_alignof<_Ty>>(_Ptr, sizeof(_Ty) * _Count);

  009c4	8b c1		 mov	 eax, ecx

; 260  :         if (_Bytes >= _Big_allocation_threshold) { // boost the alignment of big allocations to help autovectorization

  009c6	81 fa 00 10 00
	00		 cmp	 edx, 4096		; 00001000H
  009cc	72 14		 jb	 SHORT $LN1042@OnLoad

; 158  :     const uintptr_t _Ptr_container   = _Ptr_user[-1];

  009ce	8b 49 fc	 mov	 ecx, DWORD PTR [ecx-4]
  009d1	83 c2 23	 add	 edx, 35			; 00000023H
  009d4	2b c1		 sub	 eax, ecx

; 172  :     _STL_VERIFY(_Back_shift >= _Min_back_shift && _Back_shift <= _Non_user_size, "invalid argument");

  009d6	83 c0 fc	 add	 eax, -4			; fffffffcH
  009d9	83 f8 1f	 cmp	 eax, 31			; 0000001fH
  009dc	0f 87 14 03 00
	00		 ja	 $LN1301@OnLoad
$LN1042@OnLoad:

; 264  :         ::operator delete(_Ptr, _Bytes);

  009e2	52		 push	 edx
  009e3	51		 push	 ecx
  009e4	e8 00 00 00 00	 call	 ??3@YAXPAXI@Z		; operator delete
  009e9	83 c4 08	 add	 esp, 8
$LN1032@OnLoad:
; File C:\Users\murat\Desktop\Siveps2-1-99-Project\source\client\Client\EterLib\GrpSubImage.cpp

; 99   : 	if (c_rstTitle != "subimage")

  009ec	68 00 00 00 00	 push	 OFFSET ??_C@_08LAJAOJDG@subimage@
  009f1	ff b5 28 fe ff
	ff		 push	 DWORD PTR _c_rstTitle$1$[ebp]
; File C:\Program Files (x86)\Microsoft Visual Studio\2019\Professional\VC\Tools\MSVC\14.29.30133\include\xstring

; 4633 :             _Mypair._Myval2._Mysize = 0;

  009f7	c7 85 58 fe ff
	ff 00 00 00 00	 mov	 DWORD PTR $T11[ebp+16], 0

; 4634 :             _Mypair._Myval2._Myres  = _BUF_SIZE - 1;

  00a01	c7 85 5c fe ff
	ff 0f 00 00 00	 mov	 DWORD PTR $T11[ebp+20], 15 ; 0000000fH

; 4635 :             // the _Traits::assign is last so the codegen doesn't think the char write can alias this
; 4636 :             _Traits::assign(_Mypair._Myval2._Bx._Buf[0], _Elem());

  00a0b	c6 85 48 fe ff
	ff 00		 mov	 BYTE PTR $T11[ebp], 0
; File C:\Users\murat\Desktop\Siveps2-1-99-Project\source\client\Client\EterLib\GrpSubImage.cpp

; 99   : 	if (c_rstTitle != "subimage")

  00a12	e8 00 00 00 00	 call	 ??$?9DU?$char_traits@D@std@@V?$allocator@D@1@@std@@YA_NABV?$basic_string@DU?$char_traits@D@std@@V?$allocator@D@2@@0@QBD@Z ; std::operator!=<char,std::char_traits<char>,std::allocator<char> >
  00a17	83 c4 08	 add	 esp, 8
  00a1a	84 c0		 test	 al, al
  00a1c	74 65		 je	 SHORT $LN8@OnLoad

; 100  : 		return false;

  00a1e	8d 8d 04 fe ff
	ff		 lea	 ecx, DWORD PTR _textFileLoader$[ebp]
  00a24	e8 00 00 00 00	 call	 ??1CMemoryTextFileLoader@@UAE@XZ ; CMemoryTextFileLoader::~CMemoryTextFileLoader
; File C:\Program Files (x86)\Microsoft Visual Studio\2019\Professional\VC\Tools\MSVC\14.29.30133\include\xtree

; 758  :         _Erase_tree(_Al, _Myhead->_Parent);

  00a29	8b 85 40 fe ff
	ff		 mov	 eax, DWORD PTR _stTokenMap$[ebp]
  00a2f	ff 70 04	 push	 DWORD PTR [eax+4]
  00a32	8d 85 40 fe ff
	ff		 lea	 eax, DWORD PTR _stTokenMap$[ebp]
  00a38	50		 push	 eax
  00a39	8b c8		 mov	 ecx, eax
  00a3b	e8 00 00 00 00	 call	 ??$_Erase_tree@V?$allocator@U?$_Tree_node@U?$pair@$$CBV?$basic_string@DU?$char_traits@D@std@@V?$allocator@D@2@@std@@V12@@std@@PAX@std@@@std@@@?$_Tree_val@U?$_Tree_simple_types@U?$pair@$$CBV?$basic_string@DU?$char_traits@D@std@@V?$allocator@D@2@@std@@V12@@std@@@std@@@std@@QAEXAAV?$allocator@U?$_Tree_node@U?$pair@$$CBV?$basic_string@DU?$char_traits@D@std@@V?$allocator@D@2@@std@@V12@@std@@PAX@std@@@1@PAU?$_Tree_node@U?$pair@$$CBV?$basic_string@DU?$char_traits@D@std@@V?$allocator@D@2@@std@@V12@@std@@PAX@1@@Z ; std::_Tree_val<std::_Tree_simple_types<std::pair<std::basic_string<char,std::char_traits<char>,std::allocator<char> > const ,std::basic_string<char,std::char_traits<char>,std::allocator<char> > > > >::_Erase_tree<std::allocator<std::_Tree_node<std::pair<std::basic_string<char,std::char_traits<char>,std::allocator<char> > const ,std::basic_string<char,std::char_traits<char>,std::allocator<char> > >,void *> > >
; File C:\Program Files (x86)\Microsoft Visual Studio\2019\Professional\VC\Tools\MSVC\14.29.30133\include\xmemory

; 264  :         ::operator delete(_Ptr, _Bytes);

  00a40	6a 40		 push	 64			; 00000040H
  00a42	ff b5 40 fe ff
	ff		 push	 DWORD PTR _stTokenMap$[ebp]
  00a48	e8 00 00 00 00	 call	 ??3@YAXPAXI@Z		; operator delete
; File C:\Program Files (x86)\Microsoft Visual Studio\2019\Professional\VC\Tools\MSVC\14.29.30133\include\vector

; 1763 :         if (_Myfirst) { // destroy and deallocate old array

  00a4d	8b b5 2c fe ff
	ff		 mov	 esi, DWORD PTR _stTokenVector$[ebp]
; File C:\Program Files (x86)\Microsoft Visual Studio\2019\Professional\VC\Tools\MSVC\14.29.30133\include\xmemory

; 264  :         ::operator delete(_Ptr, _Bytes);

  00a53	83 c4 08	 add	 esp, 8
; File C:\Program Files (x86)\Microsoft Visual Studio\2019\Professional\VC\Tools\MSVC\14.29.30133\include\vector

; 1763 :         if (_Myfirst) { // destroy and deallocate old array

  00a56	85 f6		 test	 esi, esi
  00a58	0f 84 81 f9 ff
	ff		 je	 $LN1080@OnLoad

; 1764 :             _Destroy(_Myfirst, _Mylast);

  00a5e	8b bd 30 fe ff
	ff		 mov	 edi, DWORD PTR _stTokenVector$[ebp+4]
  00a64	3b f7		 cmp	 esi, edi
; File C:\Program Files (x86)\Microsoft Visual Studio\2019\Professional\VC\Tools\MSVC\14.29.30133\include\xmemory

; 949  :         for (; _First != _Last; ++_First) {

  00a66	0f 84 2c f9 ff
	ff		 je	 $LN1086@OnLoad
  00a6c	0f 1f 40 00	 npad	 4
$LL1087@OnLoad:
  00a70	8b ce		 mov	 ecx, esi
  00a72	e8 00 00 00 00	 call	 ??1?$basic_string@DU?$char_traits@D@std@@V?$allocator@D@2@@std@@QAE@XZ ; std::basic_string<char,std::char_traits<char>,std::allocator<char> >::~basic_string<char,std::char_traits<char>,std::allocator<char> >
  00a77	83 c6 18	 add	 esi, 24			; 00000018H
  00a7a	3b f7		 cmp	 esi, edi
  00a7c	75 f2		 jne	 SHORT $LL1087@OnLoad

; 264  :         ::operator delete(_Ptr, _Bytes);

  00a7e	e9 0f f9 ff ff	 jmp	 $LN1292@OnLoad
$LN8@OnLoad:
; File C:\Users\murat\Desktop\Siveps2-1-99-Project\source\client\Client\EterLib\GrpSubImage.cpp

; 103  : 	if ("2.0"==c_rstVersion)

  00a83	ff b5 18 fe ff
	ff		 push	 DWORD PTR _c_rstVersion$1$[ebp]
  00a89	68 00 00 00 00	 push	 OFFSET ??_C@_03GJAMENNA@2?40@
  00a8e	e8 00 00 00 00	 call	 ??$?8DU?$char_traits@D@std@@V?$allocator@D@1@@std@@YA_NQBDABV?$basic_string@DU?$char_traits@D@std@@V?$allocator@D@2@@0@@Z ; std::operator==<char,std::char_traits<char>,std::allocator<char> >
  00a93	83 c4 08	 add	 esp, 8
  00a96	84 c0		 test	 al, al
  00a98	0f 84 df 00 00
	00		 je	 $LN9@OnLoad

; 104  : 	{
; 105  : 		const std::string& c_rstSubFileName=GetFileNameString();

  00a9e	8b bd 1c fe ff
	ff		 mov	 edi, DWORD PTR _this$GSCopy$1$[ebp]
  00aa4	83 c7 0c	 add	 edi, 12			; 0000000cH
; File C:\Program Files (x86)\Microsoft Visual Studio\2019\Professional\VC\Tools\MSVC\14.29.30133\include\xstring

; 2305 :         const value_type* _Result = _Bx._Buf;

  00aa7	8b d7		 mov	 edx, edi

; 2319 :         return _BUF_SIZE <= _Myres;

  00aa9	83 7f 14 10	 cmp	 DWORD PTR [edi+20], 16	; 00000010H

; 2306 :         if (_Large_string_engaged()) {

  00aad	72 02		 jb	 SHORT $LN1286@OnLoad

; 2307 :             _Result = _Unfancy(_Bx._Ptr);

  00aaf	8b 17		 mov	 edx, DWORD PTR [edi]
$LN1286@OnLoad:

; 4271 :         return static_cast<size_type>(

  00ab1	8b 47 10	 mov	 eax, DWORD PTR [edi+16]

; 683  :     if (_Hay_size != 0) { // room for match, look for it

  00ab4	85 c0		 test	 eax, eax
  00ab6	0f 84 9c 00 00
	00		 je	 $LN11@OnLoad
; File C:\Program Files (x86)\Microsoft Visual Studio\2019\Professional\VC\Tools\MSVC\14.29.30133\include\utility

; 68   :     return _Right < _Left ? _Right : _Left;

  00abc	83 c9 ff	 or	 ecx, -1
; File C:\Program Files (x86)\Microsoft Visual Studio\2019\Professional\VC\Tools\MSVC\14.29.30133\include\xstring

; 684  :         for (auto _Match_try = _Haystack + (_STD min)(_Start_at, _Hay_size - 1);; --_Match_try) {

  00abf	48		 dec	 eax
; File C:\Program Files (x86)\Microsoft Visual Studio\2019\Professional\VC\Tools\MSVC\14.29.30133\include\utility

; 68   :     return _Right < _Left ? _Right : _Left;

  00ac0	3b c1		 cmp	 eax, ecx
  00ac2	0f 42 c8	 cmovb	 ecx, eax
; File C:\Program Files (x86)\Microsoft Visual Studio\2019\Professional\VC\Tools\MSVC\14.29.30133\include\xstring

; 684  :         for (auto _Match_try = _Haystack + (_STD min)(_Start_at, _Hay_size - 1);; --_Match_try) {

  00ac5	03 ca		 add	 ecx, edx

; 454  :         return _Left == _Right;

  00ac7	80 39 5c	 cmp	 BYTE PTR [ecx], 92	; 0000005cH

; 685  :             if (_Traits::eq(*_Match_try, _Ch)) {

  00aca	74 12		 je	 SHORT $LN1261@OnLoad
  00acc	0f 1f 40 00	 npad	 4
$LL1123@OnLoad:

; 687  :             }
; 688  : 
; 689  :             if (_Match_try == _Haystack) {

  00ad0	3b ca		 cmp	 ecx, edx
  00ad2	0f 84 80 00 00
	00		 je	 $LN11@OnLoad

; 684  :         for (auto _Match_try = _Haystack + (_STD min)(_Start_at, _Hay_size - 1);; --_Match_try) {

  00ad8	49		 dec	 ecx

; 454  :         return _Left == _Right;

  00ad9	80 39 5c	 cmp	 BYTE PTR [ecx], 92	; 0000005cH

; 685  :             if (_Traits::eq(*_Match_try, _Ch)) {

  00adc	75 f2		 jne	 SHORT $LL1123@OnLoad
$LN1261@OnLoad:

; 686  :                 return static_cast<size_t>(_Match_try - _Haystack); // found a match

  00ade	2b ca		 sub	 ecx, edx
; File C:\Users\murat\Desktop\Siveps2-1-99-Project\source\client\Client\EterLib\GrpSubImage.cpp

; 107  : 		if (nPos>=0)

  00ae0	78 76		 js	 SHORT $LN11@OnLoad
; File C:\Program Files (x86)\Microsoft Visual Studio\2019\Professional\VC\Tools\MSVC\14.29.30133\include\xstring

; 2319 :         return _BUF_SIZE <= _Myres;

  00ae2	83 7f 14 10	 cmp	 DWORD PTR [edi+20], 16	; 00000010H
; File C:\Users\murat\Desktop\Siveps2-1-99-Project\source\client\Client\EterLib\GrpSubImage.cpp

; 109  : 			nPos++;

  00ae6	8d 41 01	 lea	 eax, DWORD PTR [ecx+1]
  00ae9	89 85 28 fe ff
	ff		 mov	 DWORD PTR _nPos$1$[ebp], eax
; File C:\Program Files (x86)\Microsoft Visual Studio\2019\Professional\VC\Tools\MSVC\14.29.30133\include\xstring

; 2306 :         if (_Large_string_engaged()) {

  00aef	72 02		 jb	 SHORT $LN1135@OnLoad

; 2307 :             _Result = _Unfancy(_Bx._Ptr);

  00af1	8b 3f		 mov	 edi, DWORD PTR [edi]
$LN1135@OnLoad:
; File C:\Users\murat\Desktop\Siveps2-1-99-Project\source\client\Client\EterLib\GrpSubImage.cpp

; 110  : 			memcpy(szFileName, c_rstSubFileName.c_str(), nPos);

  00af3	50		 push	 eax
  00af4	8d 85 f0 fe ff
	ff		 lea	 eax, DWORD PTR _szFileName$[ebp]
  00afa	57		 push	 edi
  00afb	50		 push	 eax
  00afc	e8 00 00 00 00	 call	 _memcpy

; 111  : 			szFileName[nPos]='\0';

  00b01	8b bd 28 fe ff
	ff		 mov	 edi, DWORD PTR _nPos$1$[ebp]
  00b07	83 c4 0c	 add	 esp, 12			; 0000000cH
  00b0a	81 ff 00 01 00
	00		 cmp	 edi, 256		; 00000100H
  00b10	0f 83 e5 01 00
	00		 jae	 $LN14@OnLoad
  00b16	8d 8d f0 fe ff
	ff		 lea	 ecx, DWORD PTR _szFileName$[ebp]
; File C:\Program Files (x86)\Microsoft Visual Studio\2019\Professional\VC\Tools\MSVC\14.29.30133\include\xstring

; 2305 :         const value_type* _Result = _Bx._Buf;

  00b1c	8b c6		 mov	 eax, esi
; File C:\Users\murat\Desktop\Siveps2-1-99-Project\source\client\Client\EterLib\GrpSubImage.cpp

; 111  : 			szFileName[nPos]='\0';

  00b1e	03 cf		 add	 ecx, edi
  00b20	c6 01 00	 mov	 BYTE PTR [ecx], 0
; File C:\Program Files (x86)\Microsoft Visual Studio\2019\Professional\VC\Tools\MSVC\14.29.30133\include\xstring

; 2319 :         return _BUF_SIZE <= _Myres;

  00b23	83 7e 14 10	 cmp	 DWORD PTR [esi+20], 16	; 00000010H

; 2306 :         if (_Large_string_engaged()) {

  00b27	72 02		 jb	 SHORT $LN1142@OnLoad

; 2307 :             _Result = _Unfancy(_Bx._Ptr);

  00b29	8b 06		 mov	 eax, DWORD PTR [esi]
$LN1142@OnLoad:
; File C:\Users\murat\Desktop\Siveps2-1-99-Project\source\client\Client\EterLib\GrpSubImage.cpp

; 112  : 			memcpy(szFileName+nPos, c_rstImage.c_str(), c_rstImage.length());

  00b2b	ff 76 10	 push	 DWORD PTR [esi+16]
  00b2e	50		 push	 eax
  00b2f	51		 push	 ecx
  00b30	e8 00 00 00 00	 call	 _memcpy

; 113  : 			szFileName[nPos+c_rstImage.length()]='\0';

  00b35	8b 46 10	 mov	 eax, DWORD PTR [esi+16]
  00b38	83 c4 0c	 add	 esp, 12			; 0000000cH
  00b3b	03 c7		 add	 eax, edi
  00b3d	3d 00 01 00 00	 cmp	 eax, 256		; 00000100H
  00b42	0f 83 b3 01 00
	00		 jae	 $LN14@OnLoad

; 114  : 		}

  00b48	8b bd 38 fe ff
	ff		 mov	 edi, DWORD PTR __Result$1$[ebp]
  00b4e	c6 84 05 f0 fe
	ff ff 00	 mov	 BYTE PTR _szFileName$[ebp+eax], 0
  00b56	eb 4c		 jmp	 SHORT $LN10@OnLoad
$LN11@OnLoad:
; File C:\Program Files (x86)\Microsoft Visual Studio\2019\Professional\VC\Tools\MSVC\14.29.30133\include\xstring

; 2319 :         return _BUF_SIZE <= _Myres;

  00b58	83 7e 14 10	 cmp	 DWORD PTR [esi+20], 16	; 00000010H

; 2305 :         const value_type* _Result = _Bx._Buf;

  00b5c	8b c6		 mov	 eax, esi

; 2306 :         if (_Large_string_engaged()) {

  00b5e	72 02		 jb	 SHORT $LN1149@OnLoad

; 2307 :             _Result = _Unfancy(_Bx._Ptr);

  00b60	8b 06		 mov	 eax, DWORD PTR [esi]
$LN1149@OnLoad:
; File C:\Users\murat\Desktop\Siveps2-1-99-Project\source\client\Client\EterLib\GrpSubImage.cpp

; 117  : 			memcpy(szFileName, c_rstImage.c_str(), c_rstImage.length());

  00b62	ff 76 10	 push	 DWORD PTR [esi+16]
  00b65	50		 push	 eax
  00b66	8d 85 f0 fe ff
	ff		 lea	 eax, DWORD PTR _szFileName$[ebp]
  00b6c	50		 push	 eax
  00b6d	e8 00 00 00 00	 call	 _memcpy

; 118  : 		}
; 119  : 	}

  00b72	8b bd 38 fe ff
	ff		 mov	 edi, DWORD PTR __Result$1$[ebp]
  00b78	83 c4 0c	 add	 esp, 12			; 0000000cH
  00b7b	eb 27		 jmp	 SHORT $LN10@OnLoad
$LN9@OnLoad:
; File C:\Program Files (x86)\Microsoft Visual Studio\2019\Professional\VC\Tools\MSVC\14.29.30133\include\xstring

; 2319 :         return _BUF_SIZE <= _Myres;

  00b7d	83 7e 14 10	 cmp	 DWORD PTR [esi+20], 16	; 00000010H

; 2306 :         if (_Large_string_engaged()) {

  00b81	72 02		 jb	 SHORT $LN1156@OnLoad

; 2307 :             _Result = _Unfancy(_Bx._Ptr);

  00b83	8b 36		 mov	 esi, DWORD PTR [esi]
$LN1156@OnLoad:
; File C:\Users\murat\Desktop\Siveps2-1-99-Project\source\client\Client\EterLib\GrpSubImage.cpp

; 122  : 		_snprintf(szFileName, sizeof(szFileName), "%s%s", m_SearchPath, c_rstImage.c_str());

  00b85	56		 push	 esi
  00b86	68 00 00 00 00	 push	 OFFSET ?m_SearchPath@CGraphicSubImage@@2PADA ; CGraphicSubImage::m_SearchPath
  00b8b	68 00 00 00 00	 push	 OFFSET ??_C@_04HDOCAJNK@?$CFs?$CFs@
  00b90	8d 85 f0 fe ff
	ff		 lea	 eax, DWORD PTR _szFileName$[ebp]
  00b96	68 00 01 00 00	 push	 256			; 00000100H
  00b9b	50		 push	 eax
  00b9c	e8 00 00 00 00	 call	 __snprintf
  00ba1	83 c4 14	 add	 esp, 20			; 00000014H
$LN10@OnLoad:

; 123  : 	}
; 124  : 
; 125  : 	SetImageFileName(szFileName);

  00ba4	8b 8d 1c fe ff
	ff		 mov	 ecx, DWORD PTR _this$GSCopy$1$[ebp]
  00baa	8d 85 f0 fe ff
	ff		 lea	 eax, DWORD PTR _szFileName$[ebp]
  00bb0	50		 push	 eax
  00bb1	e8 00 00 00 00	 call	 ?SetImageFileName@CGraphicSubImage@@QAE_NPBD@Z ; CGraphicSubImage::SetImageFileName
; File C:\Program Files (x86)\Microsoft Visual Studio\2019\Professional\VC\Tools\MSVC\14.29.30133\include\xstring

; 2319 :         return _BUF_SIZE <= _Myres;

  00bb6	8b 85 14 fe ff
	ff		 mov	 eax, DWORD PTR __Result$1$[ebp]
  00bbc	83 78 14 10	 cmp	 DWORD PTR [eax+20], 16	; 00000010H

; 2306 :         if (_Large_string_engaged()) {

  00bc0	72 02		 jb	 SHORT $LN1163@OnLoad

; 2307 :             _Result = _Unfancy(_Bx._Ptr);

  00bc2	8b 00		 mov	 eax, DWORD PTR [eax]
$LN1163@OnLoad:

; 2319 :         return _BUF_SIZE <= _Myres;

  00bc4	83 7f 14 10	 cmp	 DWORD PTR [edi+20], 16	; 00000010H

; 2306 :         if (_Large_string_engaged()) {

  00bc8	72 02		 jb	 SHORT $LN1170@OnLoad

; 2307 :             _Result = _Unfancy(_Bx._Ptr);

  00bca	8b 3f		 mov	 edi, DWORD PTR [edi]
$LN1170@OnLoad:

; 2319 :         return _BUF_SIZE <= _Myres;

  00bcc	8b b5 24 fe ff
	ff		 mov	 esi, DWORD PTR __Result$1$[ebp]
  00bd2	83 7e 14 10	 cmp	 DWORD PTR [esi+20], 16	; 00000010H

; 2306 :         if (_Large_string_engaged()) {

  00bd6	72 02		 jb	 SHORT $LN1177@OnLoad

; 2307 :             _Result = _Unfancy(_Bx._Ptr);

  00bd8	8b 36		 mov	 esi, DWORD PTR [esi]
$LN1177@OnLoad:

; 2319 :         return _BUF_SIZE <= _Myres;

  00bda	8b 8d 3c fe ff
	ff		 mov	 ecx, DWORD PTR __Result$1$[ebp]
  00be0	83 79 14 10	 cmp	 DWORD PTR [ecx+20], 16	; 00000010H

; 2306 :         if (_Large_string_engaged()) {

  00be4	72 08		 jb	 SHORT $LN1184@OnLoad

; 2307 :             _Result = _Unfancy(_Bx._Ptr);

  00be6	8b 09		 mov	 ecx, DWORD PTR [ecx]
  00be8	89 8d 3c fe ff
	ff		 mov	 DWORD PTR __Result$1$[ebp], ecx
$LN1184@OnLoad:
; File C:\Users\murat\Desktop\Siveps2-1-99-Project\source\client\Client\EterLib\GrpSubImage.cpp

; 127  : 	SetRectPosition(atoi(c_rstLeft.c_str()),

  00bee	50		 push	 eax
  00bef	e8 00 00 00 00	 call	 __atoi64
  00bf4	83 c4 04	 add	 esp, 4
  00bf7	50		 push	 eax
  00bf8	57		 push	 edi
  00bf9	e8 00 00 00 00	 call	 __atoi64
  00bfe	83 c4 04	 add	 esp, 4
  00c01	50		 push	 eax
  00c02	56		 push	 esi
  00c03	e8 00 00 00 00	 call	 __atoi64
  00c08	83 c4 04	 add	 esp, 4
  00c0b	50		 push	 eax
  00c0c	8b 85 3c fe ff
	ff		 mov	 eax, DWORD PTR __Result$1$[ebp]
  00c12	50		 push	 eax
  00c13	e8 00 00 00 00	 call	 __atoi64
  00c18	8b 8d 1c fe ff
	ff		 mov	 ecx, DWORD PTR _this$GSCopy$1$[ebp]
  00c1e	83 c4 04	 add	 esp, 4
  00c21	50		 push	 eax
  00c22	e8 00 00 00 00	 call	 ?SetRectPosition@CGraphicSubImage@@QAEXHHHH@Z ; CGraphicSubImage::SetRectPosition

; 132  : 	return true;

  00c27	8d 8d 04 fe ff
	ff		 lea	 ecx, DWORD PTR _textFileLoader$[ebp]
  00c2d	e8 00 00 00 00	 call	 ??1CMemoryTextFileLoader@@UAE@XZ ; CMemoryTextFileLoader::~CMemoryTextFileLoader
; File C:\Program Files (x86)\Microsoft Visual Studio\2019\Professional\VC\Tools\MSVC\14.29.30133\include\xtree

; 758  :         _Erase_tree(_Al, _Myhead->_Parent);

  00c32	8b 85 40 fe ff
	ff		 mov	 eax, DWORD PTR _stTokenMap$[ebp]
  00c38	ff 70 04	 push	 DWORD PTR [eax+4]
  00c3b	8d 85 40 fe ff
	ff		 lea	 eax, DWORD PTR _stTokenMap$[ebp]
  00c41	50		 push	 eax
  00c42	8b c8		 mov	 ecx, eax
  00c44	e8 00 00 00 00	 call	 ??$_Erase_tree@V?$allocator@U?$_Tree_node@U?$pair@$$CBV?$basic_string@DU?$char_traits@D@std@@V?$allocator@D@2@@std@@V12@@std@@PAX@std@@@std@@@?$_Tree_val@U?$_Tree_simple_types@U?$pair@$$CBV?$basic_string@DU?$char_traits@D@std@@V?$allocator@D@2@@std@@V12@@std@@@std@@@std@@QAEXAAV?$allocator@U?$_Tree_node@U?$pair@$$CBV?$basic_string@DU?$char_traits@D@std@@V?$allocator@D@2@@std@@V12@@std@@PAX@std@@@1@PAU?$_Tree_node@U?$pair@$$CBV?$basic_string@DU?$char_traits@D@std@@V?$allocator@D@2@@std@@V12@@std@@PAX@1@@Z ; std::_Tree_val<std::_Tree_simple_types<std::pair<std::basic_string<char,std::char_traits<char>,std::allocator<char> > const ,std::basic_string<char,std::char_traits<char>,std::allocator<char> > > > >::_Erase_tree<std::allocator<std::_Tree_node<std::pair<std::basic_string<char,std::char_traits<char>,std::allocator<char> > const ,std::basic_string<char,std::char_traits<char>,std::allocator<char> > >,void *> > >
; File C:\Program Files (x86)\Microsoft Visual Studio\2019\Professional\VC\Tools\MSVC\14.29.30133\include\xmemory

; 264  :         ::operator delete(_Ptr, _Bytes);

  00c49	6a 40		 push	 64			; 00000040H
  00c4b	ff b5 40 fe ff
	ff		 push	 DWORD PTR _stTokenMap$[ebp]
  00c51	e8 00 00 00 00	 call	 ??3@YAXPAXI@Z		; operator delete
; File C:\Program Files (x86)\Microsoft Visual Studio\2019\Professional\VC\Tools\MSVC\14.29.30133\include\vector

; 1763 :         if (_Myfirst) { // destroy and deallocate old array

  00c56	8b b5 2c fe ff
	ff		 mov	 esi, DWORD PTR _stTokenVector$[ebp]
; File C:\Program Files (x86)\Microsoft Visual Studio\2019\Professional\VC\Tools\MSVC\14.29.30133\include\xmemory

; 264  :         ::operator delete(_Ptr, _Bytes);

  00c5c	83 c4 08	 add	 esp, 8
; File C:\Program Files (x86)\Microsoft Visual Studio\2019\Professional\VC\Tools\MSVC\14.29.30133\include\vector

; 1763 :         if (_Myfirst) { // destroy and deallocate old array

  00c5f	85 f6		 test	 esi, esi
  00c61	74 64		 je	 SHORT $LN1221@OnLoad

; 1764 :             _Destroy(_Myfirst, _Mylast);

  00c63	8b bd 30 fe ff
	ff		 mov	 edi, DWORD PTR _stTokenVector$[ebp+4]
  00c69	3b f7		 cmp	 esi, edi
; File C:\Program Files (x86)\Microsoft Visual Studio\2019\Professional\VC\Tools\MSVC\14.29.30133\include\xmemory

; 949  :         for (; _First != _Last; ++_First) {

  00c6b	74 17		 je	 SHORT $LN1227@OnLoad
  00c6d	0f 1f 00	 npad	 3
$LL1228@OnLoad:
  00c70	8b ce		 mov	 ecx, esi
  00c72	e8 00 00 00 00	 call	 ??1?$basic_string@DU?$char_traits@D@std@@V?$allocator@D@2@@std@@QAE@XZ ; std::basic_string<char,std::char_traits<char>,std::allocator<char> >::~basic_string<char,std::char_traits<char>,std::allocator<char> >
  00c77	83 c6 18	 add	 esi, 24			; 00000018H
  00c7a	3b f7		 cmp	 esi, edi
  00c7c	75 f2		 jne	 SHORT $LL1228@OnLoad
  00c7e	8b b5 2c fe ff
	ff		 mov	 esi, DWORD PTR _stTokenVector$[ebp]
$LN1227@OnLoad:
; File C:\Program Files (x86)\Microsoft Visual Studio\2019\Professional\VC\Tools\MSVC\14.29.30133\include\vector

; 1765 :             _Getal().deallocate(_Myfirst, static_cast<size_type>(_Myend - _Myfirst));

  00c84	8b 8d 34 fe ff
	ff		 mov	 ecx, DWORD PTR _stTokenVector$[ebp+8]
  00c8a	b8 ab aa aa 2a	 mov	 eax, 715827883		; 2aaaaaabH
  00c8f	2b ce		 sub	 ecx, esi
  00c91	f7 e9		 imul	 ecx
  00c93	c1 fa 02	 sar	 edx, 2
  00c96	8b c2		 mov	 eax, edx
  00c98	c1 e8 1f	 shr	 eax, 31			; 0000001fH
  00c9b	03 c2		 add	 eax, edx
; File C:\Program Files (x86)\Microsoft Visual Studio\2019\Professional\VC\Tools\MSVC\14.29.30133\include\xmemory

; 835  :         _Deallocate<_New_alignof<_Ty>>(_Ptr, sizeof(_Ty) * _Count);

  00c9d	8d 0c 40	 lea	 ecx, DWORD PTR [eax+eax*2]
  00ca0	8b c6		 mov	 eax, esi
  00ca2	c1 e1 03	 shl	 ecx, 3

; 260  :         if (_Bytes >= _Big_allocation_threshold) { // boost the alignment of big allocations to help autovectorization

  00ca5	81 f9 00 10 00
	00		 cmp	 ecx, 4096		; 00001000H
  00cab	72 10		 jb	 SHORT $LN1249@OnLoad

; 158  :     const uintptr_t _Ptr_container   = _Ptr_user[-1];

  00cad	8b 76 fc	 mov	 esi, DWORD PTR [esi-4]
  00cb0	83 c1 23	 add	 ecx, 35			; 00000023H
  00cb3	2b c6		 sub	 eax, esi

; 172  :     _STL_VERIFY(_Back_shift >= _Min_back_shift && _Back_shift <= _Non_user_size, "invalid argument");

  00cb5	83 c0 fc	 add	 eax, -4			; fffffffcH
  00cb8	83 f8 1f	 cmp	 eax, 31			; 0000001fH
  00cbb	77 43		 ja	 SHORT $LN1246@OnLoad
$LN1249@OnLoad:

; 264  :         ::operator delete(_Ptr, _Bytes);

  00cbd	51		 push	 ecx
  00cbe	56		 push	 esi
  00cbf	e8 00 00 00 00	 call	 ??3@YAXPAXI@Z		; operator delete
  00cc4	83 c4 08	 add	 esp, 8
$LN1221@OnLoad:
; File C:\Users\murat\Desktop\Siveps2-1-99-Project\source\client\Client\EterLib\GrpSubImage.cpp

; 132  : 	return true;

  00cc7	b0 01		 mov	 al, 1
  00cc9	e9 13 f7 ff ff	 jmp	 $LN1@OnLoad
$LN1260@OnLoad:

; 133  : }

  00cce	e8 00 00 00 00	 call	 ?_Throw_tree_length_error@std@@YAXXZ ; std::_Throw_tree_length_error
$LN1294@OnLoad:
; File C:\Program Files (x86)\Microsoft Visual Studio\2019\Professional\VC\Tools\MSVC\14.29.30133\include\xmemory

; 172  :     _STL_VERIFY(_Back_shift >= _Min_back_shift && _Back_shift <= _Non_user_size, "invalid argument");

  00cd3	e8 00 00 00 00	 call	 __invalid_parameter_noinfo_noreturn
$LN1295@OnLoad:
; File C:\Program Files (x86)\Microsoft Visual Studio\2019\Professional\VC\Tools\MSVC\14.29.30133\include\xtree

; 1624 :             _Throw_tree_length_error();

  00cd8	e8 00 00 00 00	 call	 ?_Throw_tree_length_error@std@@YAXXZ ; std::_Throw_tree_length_error
$LN1296@OnLoad:
; File C:\Program Files (x86)\Microsoft Visual Studio\2019\Professional\VC\Tools\MSVC\14.29.30133\include\xmemory

; 172  :     _STL_VERIFY(_Back_shift >= _Min_back_shift && _Back_shift <= _Non_user_size, "invalid argument");

  00cdd	e8 00 00 00 00	 call	 __invalid_parameter_noinfo_noreturn
$LN1297@OnLoad:
  00ce2	e8 00 00 00 00	 call	 __invalid_parameter_noinfo_noreturn
$LN1298@OnLoad:
  00ce7	e8 00 00 00 00	 call	 __invalid_parameter_noinfo_noreturn
$LN1299@OnLoad:
  00cec	e8 00 00 00 00	 call	 __invalid_parameter_noinfo_noreturn
$LN1300@OnLoad:
  00cf1	e8 00 00 00 00	 call	 __invalid_parameter_noinfo_noreturn
$LN1301@OnLoad:
  00cf6	e8 00 00 00 00	 call	 __invalid_parameter_noinfo_noreturn
$LN14@OnLoad:
; File C:\Users\murat\Desktop\Siveps2-1-99-Project\source\client\Client\EterLib\GrpSubImage.cpp

; 111  : 			szFileName[nPos]='\0';

  00cfb	e8 00 00 00 00	 call	 ___report_rangecheckfailure
$LN1246@OnLoad:
; File C:\Program Files (x86)\Microsoft Visual Studio\2019\Professional\VC\Tools\MSVC\14.29.30133\include\xmemory

; 172  :     _STL_VERIFY(_Back_shift >= _Min_back_shift && _Back_shift <= _Non_user_size, "invalid argument");

  00d00	e8 00 00 00 00	 call	 __invalid_parameter_noinfo_noreturn
$LN1290@OnLoad:
  00d05	cc		 int	 3
_TEXT	ENDS
;	COMDAT text$x
text$x	SEGMENT
__unwindfunclet$?OnLoad@CGraphicSubImage@@MAE_NHPBX@Z$0:
  00000	8d 8d 2c fe ff
	ff		 lea	 ecx, DWORD PTR _stTokenVector$[ebp]
  00006	e9 00 00 00 00	 jmp	 ??1?$vector@V?$basic_string@DU?$char_traits@D@std@@V?$allocator@D@2@@std@@V?$allocator@V?$basic_string@DU?$char_traits@D@std@@V?$allocator@D@2@@std@@@2@@std@@QAE@XZ ; std::vector<std::basic_string<char,std::char_traits<char>,std::allocator<char> >,std::allocator<std::basic_string<char,std::char_traits<char>,std::allocator<char> > > >::~vector<std::basic_string<char,std::char_traits<char>,std::allocator<char> >,std::allocator<std::basic_string<char,std::char_traits<char>,std::allocator<char> > > >
__unwindfunclet$?OnLoad@CGraphicSubImage@@MAE_NHPBX@Z$1:
  0000b	8d 8d 40 fe ff
	ff		 lea	 ecx, DWORD PTR _stTokenMap$[ebp]
  00011	e9 00 00 00 00	 jmp	 ??1?$map@V?$basic_string@DU?$char_traits@D@std@@V?$allocator@D@2@@std@@V12@U?$less@V?$basic_string@DU?$char_traits@D@std@@V?$allocator@D@2@@std@@@2@V?$allocator@U?$pair@$$CBV?$basic_string@DU?$char_traits@D@std@@V?$allocator@D@2@@std@@V12@@std@@@2@@std@@QAE@XZ
__unwindfunclet$?OnLoad@CGraphicSubImage@@MAE_NHPBX@Z$2:
  00016	8d 8d 04 fe ff
	ff		 lea	 ecx, DWORD PTR _textFileLoader$[ebp]
  0001c	e9 00 00 00 00	 jmp	 ??1CMemoryTextFileLoader@@UAE@XZ ; CMemoryTextFileLoader::~CMemoryTextFileLoader
__unwindfunclet$?OnLoad@CGraphicSubImage@@MAE_NHPBX@Z$15:
  00021	8d 8d 20 fe ff
	ff		 lea	 ecx, DWORD PTR $T7[ebp]
  00027	e9 00 00 00 00	 jmp	 ??1?$_Alloc_construct_ptr@V?$allocator@U?$_Tree_node@U?$pair@$$CBV?$basic_string@DU?$char_traits@D@std@@V?$allocator@D@2@@std@@V12@@std@@PAX@std@@@std@@@std@@QAE@XZ ; std::_Alloc_construct_ptr<std::allocator<std::_Tree_node<std::pair<std::basic_string<char,std::char_traits<char>,std::allocator<char> > const ,std::basic_string<char,std::char_traits<char>,std::allocator<char> > >,void *> > >::~_Alloc_construct_ptr<std::allocator<std::_Tree_node<std::pair<std::basic_string<char,std::char_traits<char>,std::allocator<char> > const ,std::basic_string<char,std::char_traits<char>,std::allocator<char> > >,void *> > >
__unwindfunclet$?OnLoad@CGraphicSubImage@@MAE_NHPBX@Z$14:
  0002c	8d 8d 20 fe ff
	ff		 lea	 ecx, DWORD PTR $T7[ebp]
  00032	e9 00 00 00 00	 jmp	 ??1?$_Tree_temp_node_alloc@V?$allocator@U?$_Tree_node@U?$pair@$$CBV?$basic_string@DU?$char_traits@D@std@@V?$allocator@D@2@@std@@V12@@std@@PAX@std@@@std@@@std@@QAE@XZ
__unwindfunclet$?OnLoad@CGraphicSubImage@@MAE_NHPBX@Z$3:
  00037	8d 8d a8 fe ff
	ff		 lea	 ecx, DWORD PTR $T15[ebp]
  0003d	e9 00 00 00 00	 jmp	 ??1?$basic_string@DU?$char_traits@D@std@@V?$allocator@D@2@@std@@QAE@XZ ; std::basic_string<char,std::char_traits<char>,std::allocator<char> >::~basic_string<char,std::char_traits<char>,std::allocator<char> >
__unwindfunclet$?OnLoad@CGraphicSubImage@@MAE_NHPBX@Z$28:
  00042	8d 8d 20 fe ff
	ff		 lea	 ecx, DWORD PTR $T6[ebp]
  00048	e9 00 00 00 00	 jmp	 ??1?$_Alloc_construct_ptr@V?$allocator@U?$_Tree_node@U?$pair@$$CBV?$basic_string@DU?$char_traits@D@std@@V?$allocator@D@2@@std@@V12@@std@@PAX@std@@@std@@@std@@QAE@XZ ; std::_Alloc_construct_ptr<std::allocator<std::_Tree_node<std::pair<std::basic_string<char,std::char_traits<char>,std::allocator<char> > const ,std::basic_string<char,std::char_traits<char>,std::allocator<char> > >,void *> > >::~_Alloc_construct_ptr<std::allocator<std::_Tree_node<std::pair<std::basic_string<char,std::char_traits<char>,std::allocator<char> > const ,std::basic_string<char,std::char_traits<char>,std::allocator<char> > >,void *> > >
__unwindfunclet$?OnLoad@CGraphicSubImage@@MAE_NHPBX@Z$4:
  0004d	8d 8d c0 fe ff
	ff		 lea	 ecx, DWORD PTR $T16[ebp]
  00053	e9 00 00 00 00	 jmp	 ??1?$basic_string@DU?$char_traits@D@std@@V?$allocator@D@2@@std@@QAE@XZ ; std::basic_string<char,std::char_traits<char>,std::allocator<char> >::~basic_string<char,std::char_traits<char>,std::allocator<char> >
__unwindfunclet$?OnLoad@CGraphicSubImage@@MAE_NHPBX@Z$42:
  00058	8d 8d 20 fe ff
	ff		 lea	 ecx, DWORD PTR $T5[ebp]
  0005e	e9 00 00 00 00	 jmp	 ??1?$_Alloc_construct_ptr@V?$allocator@U?$_Tree_node@U?$pair@$$CBV?$basic_string@DU?$char_traits@D@std@@V?$allocator@D@2@@std@@V12@@std@@PAX@std@@@std@@@std@@QAE@XZ ; std::_Alloc_construct_ptr<std::allocator<std::_Tree_node<std::pair<std::basic_string<char,std::char_traits<char>,std::allocator<char> > const ,std::basic_string<char,std::char_traits<char>,std::allocator<char> > >,void *> > >::~_Alloc_construct_ptr<std::allocator<std::_Tree_node<std::pair<std::basic_string<char,std::char_traits<char>,std::allocator<char> > const ,std::basic_string<char,std::char_traits<char>,std::allocator<char> > >,void *> > >
__unwindfunclet$?OnLoad@CGraphicSubImage@@MAE_NHPBX@Z$5:
  00063	8d 8d d8 fe ff
	ff		 lea	 ecx, DWORD PTR $T17[ebp]
  00069	e9 00 00 00 00	 jmp	 ??1?$basic_string@DU?$char_traits@D@std@@V?$allocator@D@2@@std@@QAE@XZ ; std::basic_string<char,std::char_traits<char>,std::allocator<char> >::~basic_string<char,std::char_traits<char>,std::allocator<char> >
__unwindfunclet$?OnLoad@CGraphicSubImage@@MAE_NHPBX@Z$6:
  0006e	8d 8d 90 fe ff
	ff		 lea	 ecx, DWORD PTR $T14[ebp]
  00074	e9 00 00 00 00	 jmp	 ??1?$basic_string@DU?$char_traits@D@std@@V?$allocator@D@2@@std@@QAE@XZ ; std::basic_string<char,std::char_traits<char>,std::allocator<char> >::~basic_string<char,std::char_traits<char>,std::allocator<char> >
__unwindfunclet$?OnLoad@CGraphicSubImage@@MAE_NHPBX@Z$7:
  00079	8d 8d 78 fe ff
	ff		 lea	 ecx, DWORD PTR $T13[ebp]
  0007f	e9 00 00 00 00	 jmp	 ??1?$basic_string@DU?$char_traits@D@std@@V?$allocator@D@2@@std@@QAE@XZ ; std::basic_string<char,std::char_traits<char>,std::allocator<char> >::~basic_string<char,std::char_traits<char>,std::allocator<char> >
__unwindfunclet$?OnLoad@CGraphicSubImage@@MAE_NHPBX@Z$8:
  00084	8d 8d 60 fe ff
	ff		 lea	 ecx, DWORD PTR $T12[ebp]
  0008a	e9 00 00 00 00	 jmp	 ??1?$basic_string@DU?$char_traits@D@std@@V?$allocator@D@2@@std@@QAE@XZ ; std::basic_string<char,std::char_traits<char>,std::allocator<char> >::~basic_string<char,std::char_traits<char>,std::allocator<char> >
__unwindfunclet$?OnLoad@CGraphicSubImage@@MAE_NHPBX@Z$9:
  0008f	8d 8d 48 fe ff
	ff		 lea	 ecx, DWORD PTR $T11[ebp]
  00095	e9 00 00 00 00	 jmp	 ??1?$basic_string@DU?$char_traits@D@std@@V?$allocator@D@2@@std@@QAE@XZ ; std::basic_string<char,std::char_traits<char>,std::allocator<char> >::~basic_string<char,std::char_traits<char>,std::allocator<char> >
  0009a	cc		 int	 3
  0009b	cc		 int	 3
  0009c	cc		 int	 3
  0009d	cc		 int	 3
  0009e	cc		 int	 3
__ehhandler$?OnLoad@CGraphicSubImage@@MAE_NHPBX@Z:
  0009f	90		 npad	 1
  000a0	90		 npad	 1
  000a1	8b 54 24 08	 mov	 edx, DWORD PTR [esp+8]
  000a5	8d 42 0c	 lea	 eax, DWORD PTR [edx+12]
  000a8	8b 8a 04 fe ff
	ff		 mov	 ecx, DWORD PTR [edx-508]
  000ae	33 c8		 xor	 ecx, eax
  000b0	e8 00 00 00 00	 call	 @__security_check_cookie@4
  000b5	8b 4a fc	 mov	 ecx, DWORD PTR [edx-4]
  000b8	33 c8		 xor	 ecx, eax
  000ba	e8 00 00 00 00	 call	 @__security_check_cookie@4
  000bf	b8 00 00 00 00	 mov	 eax, OFFSET __ehfuncinfo$?OnLoad@CGraphicSubImage@@MAE_NHPBX@Z
  000c4	e9 00 00 00 00	 jmp	 ___CxxFrameHandler3
text$x	ENDS
?OnLoad@CGraphicSubImage@@MAE_NHPBX@Z ENDP		; CGraphicSubImage::OnLoad
; Function compile flags: /Ogtp
; File C:\Users\murat\Desktop\Siveps2-1-99-Project\source\client\Client\EterLib\GrpSubImage.cpp
; File C:\Users\murat\Desktop\Siveps2-1-99-Project\source\client\Client\EterLib\Ref.h
; File C:\Users\murat\Desktop\Siveps2-1-99-Project\source\client\Client\EterLib\GrpSubImage.cpp
; File C:\Users\murat\Desktop\Siveps2-1-99-Project\source\client\Client\EterLib\Ref.h
; File C:\Users\murat\Desktop\Siveps2-1-99-Project\source\client\Client\EterLib\GrpSubImage.cpp
;	COMDAT ?SetImagePointer@CGraphicSubImage@@IAEXPAVCGraphicImage@@@Z
_TEXT	SEGMENT
_pImage$ = 8						; size = 4
?SetImagePointer@CGraphicSubImage@@IAEXPAVCGraphicImage@@@Z PROC ; CGraphicSubImage::SetImagePointer, COMDAT
; _this$ = ecx

; 31   : {

  00000	55		 push	 ebp
  00001	8b ec		 mov	 ebp, esp
  00003	56		 push	 esi
  00004	8b f1		 mov	 esi, ecx
; File C:\Users\murat\Desktop\Siveps2-1-99-Project\source\client\Client\EterLib\Ref.h

; 69   : 			m_pObject = pObject;

  00006	8b 4d 08	 mov	 ecx, DWORD PTR _pImage$[ebp]
; File C:\Users\murat\Desktop\Siveps2-1-99-Project\source\client\Client\EterLib\GrpSubImage.cpp

; 31   : {

  00009	57		 push	 edi
; File C:\Users\murat\Desktop\Siveps2-1-99-Project\source\client\Client\EterLib\Ref.h

; 67   : 			CReferenceObject* pOldObject = m_pObject;

  0000a	8b 7e 74	 mov	 edi, DWORD PTR [esi+116]

; 69   : 			m_pObject = pObject;

  0000d	89 4e 74	 mov	 DWORD PTR [esi+116], ecx

; 70   : 
; 71   : 			if (m_pObject)

  00010	85 c9		 test	 ecx, ecx
  00012	74 05		 je	 SHORT $LN6@SetImagePo

; 72   : 				m_pObject->AddReference();

  00014	e8 00 00 00 00	 call	 ?AddReference@CReferenceObject@@QAEXXZ ; CReferenceObject::AddReference
$LN6@SetImagePo:

; 73   : 
; 74   : 			if (pOldObject)

  00019	85 ff		 test	 edi, edi
  0001b	74 07		 je	 SHORT $LN7@SetImagePo

; 75   : 				pOldObject->Release();

  0001d	8b cf		 mov	 ecx, edi
  0001f	e8 00 00 00 00	 call	 ?Release@CReferenceObject@@QAEXXZ ; CReferenceObject::Release
$LN7@SetImagePo:
; File C:\Users\murat\Desktop\Siveps2-1-99-Project\source\client\Client\EterLib\GrpSubImage.cpp

; 33   : 	CreateDeviceObjects();

  00024	8b 06		 mov	 eax, DWORD PTR [esi]
  00026	8b ce		 mov	 ecx, esi
  00028	ff 50 0c	 call	 DWORD PTR [eax+12]
  0002b	5f		 pop	 edi
  0002c	5e		 pop	 esi

; 34   : }

  0002d	5d		 pop	 ebp
  0002e	c2 04 00	 ret	 4
?SetImagePointer@CGraphicSubImage@@IAEXPAVCGraphicImage@@@Z ENDP ; CGraphicSubImage::SetImagePointer
_TEXT	ENDS
; Function compile flags: /Ogtp
; File C:\Users\murat\Desktop\Siveps2-1-99-Project\source\client\Client\EterLib\GrpSubImage.cpp
;	COMDAT ?SetSearchPath@CGraphicSubImage@@SAXPBD@Z
_TEXT	SEGMENT
_c_szFileName$ = 8					; size = 4
?SetSearchPath@CGraphicSubImage@@SAXPBD@Z PROC		; CGraphicSubImage::SetSearchPath, COMDAT

; 61   : {

  00000	55		 push	 ebp
  00001	8b ec		 mov	 ebp, esp

; 62   : 	strncpy(m_SearchPath, c_szFileName, sizeof(m_SearchPath)-1);

  00003	68 ff 00 00 00	 push	 255			; 000000ffH
  00008	ff 75 08	 push	 DWORD PTR _c_szFileName$[ebp]
  0000b	68 00 00 00 00	 push	 OFFSET ?m_SearchPath@CGraphicSubImage@@2PADA ; CGraphicSubImage::m_SearchPath
  00010	e8 00 00 00 00	 call	 _strncpy
  00015	83 c4 0c	 add	 esp, 12			; 0000000cH

; 63   : }

  00018	5d		 pop	 ebp
  00019	c3		 ret	 0
?SetSearchPath@CGraphicSubImage@@SAXPBD@Z ENDP		; CGraphicSubImage::SetSearchPath
_TEXT	ENDS
; Function compile flags: /Ogtp
; File C:\Users\murat\Desktop\Siveps2-1-99-Project\source\client\Client\EterLib\GrpSubImage.cpp
;	COMDAT ?SetRectReference@CGraphicSubImage@@QAEXABUtagRECT@@@Z
_TEXT	SEGMENT
_c_rRect$ = 8						; size = 4
?SetRectReference@CGraphicSubImage@@QAEXABUtagRECT@@@Z PROC ; CGraphicSubImage::SetRectReference, COMDAT
; _this$ = ecx

; 56   : {

  00000	55		 push	 ebp
  00001	8b ec		 mov	 ebp, esp

; 57   : 	m_rect = c_rRect;

  00003	8b 45 08	 mov	 eax, DWORD PTR _c_rRect$[ebp]
  00006	0f 10 00	 movups	 xmm0, XMMWORD PTR [eax]
  00009	0f 11 41 60	 movups	 XMMWORD PTR [ecx+96], xmm0

; 58   : }

  0000d	5d		 pop	 ebp
  0000e	c2 04 00	 ret	 4
?SetRectReference@CGraphicSubImage@@QAEXABUtagRECT@@@Z ENDP ; CGraphicSubImage::SetRectReference
_TEXT	ENDS
; Function compile flags: /Ogtp
; File C:\Users\murat\Desktop\Siveps2-1-99-Project\source\client\Client\EterLib\GrpSubImage.cpp
;	COMDAT ?SetRectPosition@CGraphicSubImage@@QAEXHHHH@Z
_TEXT	SEGMENT
_left$ = 8						; size = 4
_top$ = 12						; size = 4
_right$ = 16						; size = 4
_bottom$ = 20						; size = 4
?SetRectPosition@CGraphicSubImage@@QAEXHHHH@Z PROC	; CGraphicSubImage::SetRectPosition, COMDAT
; _this$ = ecx

; 48   : {

  00000	55		 push	 ebp
  00001	8b ec		 mov	 ebp, esp

; 49   : 	m_rect.left = left;

  00003	8b 45 08	 mov	 eax, DWORD PTR _left$[ebp]
  00006	89 41 60	 mov	 DWORD PTR [ecx+96], eax

; 50   : 	m_rect.top = top;

  00009	8b 45 0c	 mov	 eax, DWORD PTR _top$[ebp]
  0000c	89 41 64	 mov	 DWORD PTR [ecx+100], eax

; 51   : 	m_rect.right = right;

  0000f	8b 45 10	 mov	 eax, DWORD PTR _right$[ebp]
  00012	89 41 68	 mov	 DWORD PTR [ecx+104], eax

; 52   : 	m_rect.bottom = bottom;

  00015	8b 45 14	 mov	 eax, DWORD PTR _bottom$[ebp]
  00018	89 41 6c	 mov	 DWORD PTR [ecx+108], eax

; 53   : }

  0001b	5d		 pop	 ebp
  0001c	c2 10 00	 ret	 16			; 00000010H
?SetRectPosition@CGraphicSubImage@@QAEXHHHH@Z ENDP	; CGraphicSubImage::SetRectPosition
_TEXT	ENDS
; Function compile flags: /Ogtp
; File C:\Users\murat\Desktop\Siveps2-1-99-Project\source\client\Client\EterLib\GrpSubImage.cpp
;	COMDAT ?SetImageFileName@CGraphicSubImage@@QAE_NPBD@Z
_TEXT	SEGMENT
_c_szFileName$ = 8					; size = 4
?SetImageFileName@CGraphicSubImage@@QAE_NPBD@Z PROC	; CGraphicSubImage::SetImageFileName, COMDAT
; _this$ = ecx

; 37   : {

  00000	55		 push	 ebp
  00001	8b ec		 mov	 ebp, esp
  00003	56		 push	 esi
  00004	57		 push	 edi

; 38   : 	CResource* pResource = CResourceManager::Instance().GetResourcePointer(c_szFileName);

  00005	ff 75 08	 push	 DWORD PTR _c_szFileName$[ebp]
  00008	8b f9		 mov	 edi, ecx
  0000a	8b 0d 00 00 00
	00		 mov	 ecx, DWORD PTR ?ms_singleton@?$CSingleton@VCResourceManager@@@@0PAVCResourceManager@@A ; CSingleton<CResourceManager>::ms_singleton
  00010	e8 00 00 00 00	 call	 ?GetResourcePointer@CResourceManager@@QAEPAVCResource@@PBD@Z ; CResourceManager::GetResourcePointer
  00015	8b f0		 mov	 esi, eax

; 39   : 
; 40   : 	if (!pResource->IsType(CGraphicImage::Type()))

  00017	e8 00 00 00 00	 call	 ?Type@CGraphicImage@@SAKXZ ; CGraphicImage::Type
  0001c	50		 push	 eax
  0001d	8b ce		 mov	 ecx, esi
  0001f	e8 00 00 00 00	 call	 ?IsType@CResource@@QAE_NK@Z ; CResource::IsType
  00024	84 c0		 test	 al, al
  00026	75 06		 jne	 SHORT $LN2@SetImageFi

; 45   : }

  00028	5f		 pop	 edi
  00029	5e		 pop	 esi
  0002a	5d		 pop	 ebp
  0002b	c2 04 00	 ret	 4
$LN2@SetImageFi:

; 41   : 		return false;
; 42   : 
; 43   : 	SetImagePointer(static_cast<CGraphicImage*>(pResource));

  0002e	56		 push	 esi
  0002f	8b cf		 mov	 ecx, edi
  00031	e8 00 00 00 00	 call	 ?SetImagePointer@CGraphicSubImage@@IAEXPAVCGraphicImage@@@Z ; CGraphicSubImage::SetImagePointer
  00036	5f		 pop	 edi

; 44   : 	return true;

  00037	b0 01		 mov	 al, 1

; 45   : }

  00039	5e		 pop	 esi
  0003a	5d		 pop	 ebp
  0003b	c2 04 00	 ret	 4
?SetImageFileName@CGraphicSubImage@@QAE_NPBD@Z ENDP	; CGraphicSubImage::SetImageFileName
_TEXT	ENDS
; Function compile flags: /Ogtp
; File C:\Users\murat\Desktop\Siveps2-1-99-Project\source\client\Client\EterLib\GrpSubImage.cpp
;	COMDAT ?CreateDeviceObjects@CGraphicSubImage@@UAE_NXZ
_TEXT	SEGMENT
?CreateDeviceObjects@CGraphicSubImage@@UAE_NXZ PROC	; CGraphicSubImage::CreateDeviceObjects, COMDAT
; _this$ = ecx

; 25   : {

  00000	56		 push	 esi
  00001	8b f1		 mov	 esi, ecx

; 26   : 	m_imageTexture.CreateFromTexturePointer(m_roImage->GetTexturePointer());

  00003	8b 4e 74	 mov	 ecx, DWORD PTR [esi+116]
  00006	e8 00 00 00 00	 call	 ?GetTexturePointer@CGraphicImage@@QAEPAVCGraphicTexture@@XZ ; CGraphicImage::GetTexturePointer
  0000b	50		 push	 eax
  0000c	8d 4e 2c	 lea	 ecx, DWORD PTR [esi+44]
  0000f	e8 00 00 00 00	 call	 ?CreateFromTexturePointer@CGraphicImageTexture@@QAEXPBVCGraphicTexture@@@Z ; CGraphicImageTexture::CreateFromTexturePointer

; 27   : 	return true;

  00014	b0 01		 mov	 al, 1
  00016	5e		 pop	 esi

; 28   : }

  00017	c3		 ret	 0
?CreateDeviceObjects@CGraphicSubImage@@UAE_NXZ ENDP	; CGraphicSubImage::CreateDeviceObjects
_TEXT	ENDS
; Function compile flags: /Ogtp
; File C:\Users\murat\Desktop\Siveps2-1-99-Project\source\client\Client\EterLib\GrpSubImage.cpp
; File C:\Users\murat\Desktop\Siveps2-1-99-Project\source\client\Client\EterLib\Ref.h
; File C:\Users\murat\Desktop\Siveps2-1-99-Project\source\client\Client\EterLib\GrpSubImage.cpp
;	COMDAT ??1CGraphicSubImage@@UAE@XZ
_TEXT	SEGMENT
__$EHRec$ = -12						; size = 12
??1CGraphicSubImage@@UAE@XZ PROC			; CGraphicSubImage::~CGraphicSubImage, COMDAT
; _this$ = ecx

; 20   : {

  00000	55		 push	 ebp
  00001	8b ec		 mov	 ebp, esp
  00003	6a ff		 push	 -1
  00005	68 00 00 00 00	 push	 __ehhandler$??1CGraphicSubImage@@UAE@XZ
  0000a	64 a1 00 00 00
	00		 mov	 eax, DWORD PTR fs:0
  00010	50		 push	 eax
  00011	56		 push	 esi
  00012	a1 00 00 00 00	 mov	 eax, DWORD PTR ___security_cookie
  00017	33 c5		 xor	 eax, ebp
  00019	50		 push	 eax
  0001a	8d 45 f4	 lea	 eax, DWORD PTR __$EHRec$[ebp]
  0001d	64 a3 00 00 00
	00		 mov	 DWORD PTR fs:0, eax
  00023	8b f1		 mov	 esi, ecx
  00025	c7 06 00 00 00
	00		 mov	 DWORD PTR [esi], OFFSET ??_7CGraphicSubImage@@6B@
; File C:\Users\murat\Desktop\Siveps2-1-99-Project\source\client\Client\EterLib\Ref.h

; 67   : 			CReferenceObject* pOldObject = m_pObject;

  0002b	8b 4e 74	 mov	 ecx, DWORD PTR [esi+116]

; 68   : 
; 69   : 			m_pObject = pObject;

  0002e	c7 46 74 00 00
	00 00		 mov	 DWORD PTR [esi+116], 0

; 70   : 
; 71   : 			if (m_pObject)
; 72   : 				m_pObject->AddReference();
; 73   : 
; 74   : 			if (pOldObject)

  00035	85 c9		 test	 ecx, ecx
  00037	74 05		 je	 SHORT $LN7@CGraphicSu

; 75   : 				pOldObject->Release();

  00039	e8 00 00 00 00	 call	 ?Release@CReferenceObject@@QAEXXZ ; CReferenceObject::Release
$LN7@CGraphicSu:

; 53   : 			if (m_pObject)

  0003e	8b 4e 74	 mov	 ecx, DWORD PTR [esi+116]

; 37   : 		{

  00041	c7 45 fc 00 00
	00 00		 mov	 DWORD PTR __$EHRec$[ebp+8], 0

; 53   : 			if (m_pObject)

  00048	85 c9		 test	 ecx, ecx
  0004a	74 0c		 je	 SHORT $LN13@CGraphicSu

; 54   : 			{
; 55   : 				m_pObject->Release();

  0004c	e8 00 00 00 00	 call	 ?Release@CReferenceObject@@QAEXXZ ; CReferenceObject::Release

; 56   : 				m_pObject = NULL;

  00051	c7 46 74 00 00
	00 00		 mov	 DWORD PTR [esi+116], 0
$LN13@CGraphicSu:
; File C:\Users\murat\Desktop\Siveps2-1-99-Project\source\client\Client\EterLib\GrpSubImage.cpp

; 22   : }

  00058	8b ce		 mov	 ecx, esi
  0005a	e8 00 00 00 00	 call	 ??1CGraphicImage@@UAE@XZ ; CGraphicImage::~CGraphicImage
  0005f	8b 4d f4	 mov	 ecx, DWORD PTR __$EHRec$[ebp]
  00062	64 89 0d 00 00
	00 00		 mov	 DWORD PTR fs:0, ecx
  00069	59		 pop	 ecx
  0006a	5e		 pop	 esi
  0006b	8b e5		 mov	 esp, ebp
  0006d	5d		 pop	 ebp
  0006e	c3		 ret	 0
  0006f	cc		 int	 3
  00070	cc		 int	 3
  00071	cc		 int	 3
  00072	cc		 int	 3
  00073	cc		 int	 3
_TEXT	ENDS
;	COMDAT text$x
text$x	SEGMENT
__ehhandler$??1CGraphicSubImage@@UAE@XZ:
  00000	90		 npad	 1
  00001	90		 npad	 1
  00002	8b 54 24 08	 mov	 edx, DWORD PTR [esp+8]
  00006	8d 42 0c	 lea	 eax, DWORD PTR [edx+12]
  00009	8b 4a f8	 mov	 ecx, DWORD PTR [edx-8]
  0000c	33 c8		 xor	 ecx, eax
  0000e	e8 00 00 00 00	 call	 @__security_check_cookie@4
  00013	b8 00 00 00 00	 mov	 eax, OFFSET __ehfuncinfo$??1CGraphicSubImage@@UAE@XZ
  00018	e9 00 00 00 00	 jmp	 ___CxxFrameHandler3
text$x	ENDS
??1CGraphicSubImage@@UAE@XZ ENDP			; CGraphicSubImage::~CGraphicSubImage
; Function compile flags: /Ogtp
; File C:\Users\murat\Desktop\Siveps2-1-99-Project\source\client\Client\EterLib\GrpSubImage.cpp
; File C:\Users\murat\Desktop\Siveps2-1-99-Project\source\client\Client\EterLib\Ref.h
; File C:\Users\murat\Desktop\Siveps2-1-99-Project\source\client\Client\EterLib\GrpSubImage.cpp
;	COMDAT ??0CGraphicSubImage@@QAE@PBD@Z
_TEXT	SEGMENT
_this$ = -4						; size = 4
_c_szFileName$ = 8					; size = 4
??0CGraphicSubImage@@QAE@PBD@Z PROC			; CGraphicSubImage::CGraphicSubImage, COMDAT
; _this$ = ecx

; 16   : {

  00000	55		 push	 ebp
  00001	8b ec		 mov	 ebp, esp
  00003	51		 push	 ecx
  00004	56		 push	 esi
  00005	6a 03		 push	 3
  00007	ff 75 08	 push	 DWORD PTR _c_szFileName$[ebp]
  0000a	8b f1		 mov	 esi, ecx
  0000c	89 75 fc	 mov	 DWORD PTR _this$[ebp], esi
  0000f	e8 00 00 00 00	 call	 ??0CGraphicImage@@QAE@PBDK@Z ; CGraphicImage::CGraphicImage
  00014	c7 06 00 00 00
	00		 mov	 DWORD PTR [esi], OFFSET ??_7CGraphicSubImage@@6B@

; 17   : }

  0001a	8b c6		 mov	 eax, esi
; File C:\Users\murat\Desktop\Siveps2-1-99-Project\source\client\Client\EterLib\Ref.h

; 20   : 		CRef() : m_pObject(NULL)

  0001c	c7 46 74 00 00
	00 00		 mov	 DWORD PTR [esi+116], 0
; File C:\Users\murat\Desktop\Siveps2-1-99-Project\source\client\Client\EterLib\GrpSubImage.cpp

; 17   : }

  00023	5e		 pop	 esi
  00024	8b e5		 mov	 esp, ebp
  00026	5d		 pop	 ebp
  00027	c2 04 00	 ret	 4
??0CGraphicSubImage@@QAE@PBD@Z ENDP			; CGraphicSubImage::CGraphicSubImage
_TEXT	ENDS
; Function compile flags: /Ogtp
; File C:\Users\murat\Desktop\Siveps2-1-99-Project\source\client\Client\EterLib\GrpSubImage.cpp
;	COMDAT ?Type@CGraphicSubImage@@SAKXZ
_TEXT	SEGMENT
__$EHRec$ = -12						; size = 12
?Type@CGraphicSubImage@@SAKXZ PROC			; CGraphicSubImage::Type, COMDAT

; 10   : {

  00000	55		 push	 ebp
  00001	8b ec		 mov	 ebp, esp
  00003	6a ff		 push	 -1
  00005	68 00 00 00 00	 push	 __ehhandler$?Type@CGraphicSubImage@@SAKXZ
  0000a	64 a1 00 00 00
	00		 mov	 eax, DWORD PTR fs:0
  00010	50		 push	 eax
  00011	a1 00 00 00 00	 mov	 eax, DWORD PTR ___security_cookie
  00016	33 c5		 xor	 eax, ebp
  00018	50		 push	 eax
  00019	8d 45 f4	 lea	 eax, DWORD PTR __$EHRec$[ebp]
  0001c	64 a3 00 00 00
	00		 mov	 DWORD PTR fs:0, eax

; 11   : 	static TType s_type = StringToType("CGraphicSubImage");

  00022	64 a1 00 00 00
	00		 mov	 eax, DWORD PTR fs:__tls_array
  00028	8b 0d 00 00 00
	00		 mov	 ecx, DWORD PTR __tls_index
  0002e	8b 0c 88	 mov	 ecx, DWORD PTR [eax+ecx*4]
  00031	a1 00 00 00 00	 mov	 eax, DWORD PTR ?$TSS0@?1??Type@CGraphicSubImage@@SAKXZ@4HA
  00036	3b 81 00 00 00
	00		 cmp	 eax, DWORD PTR __Init_thread_epoch[ecx]
  0003c	7f 14		 jg	 SHORT $LN9@Type
$LN5@Type:

; 12   : 	return s_type;
; 13   : }

  0003e	a1 00 00 00 00	 mov	 eax, DWORD PTR ?s_type@?1??Type@CGraphicSubImage@@SAKXZ@4KA
  00043	8b 4d f4	 mov	 ecx, DWORD PTR __$EHRec$[ebp]
  00046	64 89 0d 00 00
	00 00		 mov	 DWORD PTR fs:0, ecx
  0004d	59		 pop	 ecx
  0004e	8b e5		 mov	 esp, ebp
  00050	5d		 pop	 ebp
  00051	c3		 ret	 0
$LN9@Type:

; 11   : 	static TType s_type = StringToType("CGraphicSubImage");

  00052	68 00 00 00 00	 push	 OFFSET ?$TSS0@?1??Type@CGraphicSubImage@@SAKXZ@4HA
  00057	e8 00 00 00 00	 call	 __Init_thread_header
  0005c	83 c4 04	 add	 esp, 4
  0005f	83 3d 00 00 00
	00 ff		 cmp	 DWORD PTR ?$TSS0@?1??Type@CGraphicSubImage@@SAKXZ@4HA, -1
  00066	75 d6		 jne	 SHORT $LN5@Type
  00068	68 00 00 00 00	 push	 OFFSET ??_C@_0BB@PNJLMPJB@CGraphicSubImage@
  0006d	c7 45 fc 00 00
	00 00		 mov	 DWORD PTR __$EHRec$[ebp+8], 0
  00074	e8 00 00 00 00	 call	 ?StringToType@CResource@@SAKPBD@Z ; CResource::StringToType
  00079	68 00 00 00 00	 push	 OFFSET ?$TSS0@?1??Type@CGraphicSubImage@@SAKXZ@4HA
  0007e	a3 00 00 00 00	 mov	 DWORD PTR ?s_type@?1??Type@CGraphicSubImage@@SAKXZ@4KA, eax
  00083	e8 00 00 00 00	 call	 __Init_thread_footer
  00088	83 c4 08	 add	 esp, 8
  0008b	eb b1		 jmp	 SHORT $LN5@Type
_TEXT	ENDS
;	COMDAT text$x
text$x	SEGMENT
__unwindfunclet$?Type@CGraphicSubImage@@SAKXZ$0:
  00000	68 00 00 00 00	 push	 OFFSET ?$TSS0@?1??Type@CGraphicSubImage@@SAKXZ@4HA
  00005	e8 00 00 00 00	 call	 __Init_thread_abort
  0000a	59		 pop	 ecx
  0000b	c3		 ret	 0
  0000c	cc		 int	 3
  0000d	cc		 int	 3
  0000e	cc		 int	 3
  0000f	cc		 int	 3
  00010	cc		 int	 3
__ehhandler$?Type@CGraphicSubImage@@SAKXZ:
  00011	90		 npad	 1
  00012	90		 npad	 1
  00013	8b 54 24 08	 mov	 edx, DWORD PTR [esp+8]
  00017	8d 42 0c	 lea	 eax, DWORD PTR [edx+12]
  0001a	8b 4a fc	 mov	 ecx, DWORD PTR [edx-4]
  0001d	33 c8		 xor	 ecx, eax
  0001f	e8 00 00 00 00	 call	 @__security_check_cookie@4
  00024	b8 00 00 00 00	 mov	 eax, OFFSET __ehfuncinfo$?Type@CGraphicSubImage@@SAKXZ
  00029	e9 00 00 00 00	 jmp	 ___CxxFrameHandler3
text$x	ENDS
?Type@CGraphicSubImage@@SAKXZ ENDP			; CGraphicSubImage::Type
; Function compile flags: /Ogtp
; File C:\Program Files (x86)\Microsoft Visual Studio\2019\Professional\VC\Tools\MSVC\14.29.30133\include\vector
; File C:\Program Files (x86)\Microsoft Visual Studio\2019\Professional\VC\Tools\MSVC\14.29.30133\include\xmemory
; File C:\Program Files (x86)\Microsoft Visual Studio\2019\Professional\VC\Tools\MSVC\14.29.30133\include\xstring
; File C:\Program Files (x86)\Microsoft Visual Studio\2019\Professional\VC\Tools\MSVC\14.29.30133\include\xmemory
; File C:\Program Files (x86)\Microsoft Visual Studio\2019\Professional\VC\Tools\MSVC\14.29.30133\include\xstring
; File C:\Program Files (x86)\Microsoft Visual Studio\2019\Professional\VC\Tools\MSVC\14.29.30133\include\xmemory
; File C:\Program Files (x86)\Microsoft Visual Studio\2019\Professional\VC\Tools\MSVC\14.29.30133\include\xstring
; File C:\Program Files (x86)\Microsoft Visual Studio\2019\Professional\VC\Tools\MSVC\14.29.30133\include\xmemory
; File C:\Program Files (x86)\Microsoft Visual Studio\2019\Professional\VC\Tools\MSVC\14.29.30133\include\vector
; File C:\Program Files (x86)\Microsoft Visual Studio\2019\Professional\VC\Tools\MSVC\14.29.30133\include\xmemory
; File C:\Program Files (x86)\Microsoft Visual Studio\2019\Professional\VC\Tools\MSVC\14.29.30133\include\vector
; File C:\Program Files (x86)\Microsoft Visual Studio\2019\Professional\VC\Tools\MSVC\14.29.30133\include\xmemory
; File C:\Program Files (x86)\Microsoft Visual Studio\2019\Professional\VC\Tools\MSVC\14.29.30133\include\vector
; File C:\Program Files (x86)\Microsoft Visual Studio\2019\Professional\VC\Tools\MSVC\14.29.30133\include\xmemory
; File C:\Program Files (x86)\Microsoft Visual Studio\2019\Professional\VC\Tools\MSVC\14.29.30133\include\vector
; File C:\Program Files (x86)\Microsoft Visual Studio\2019\Professional\VC\Tools\MSVC\14.29.30133\include\xmemory
; File C:\Program Files (x86)\Microsoft Visual Studio\2019\Professional\VC\Tools\MSVC\14.29.30133\include\vector
;	COMDAT ??1?$vector@V?$basic_string@DU?$char_traits@D@std@@V?$allocator@D@2@@std@@V?$allocator@V?$basic_string@DU?$char_traits@D@std@@V?$allocator@D@2@@std@@@2@@std@@QAE@XZ
_TEXT	SEGMENT
??1?$vector@V?$basic_string@DU?$char_traits@D@std@@V?$allocator@D@2@@std@@V?$allocator@V?$basic_string@DU?$char_traits@D@std@@V?$allocator@D@2@@std@@@2@@std@@QAE@XZ PROC ; std::vector<std::basic_string<char,std::char_traits<char>,std::allocator<char> >,std::allocator<std::basic_string<char,std::char_traits<char>,std::allocator<char> > > >::~vector<std::basic_string<char,std::char_traits<char>,std::allocator<char> >,std::allocator<std::basic_string<char,std::char_traits<char>,std::allocator<char> > > >, COMDAT
; _this$ = ecx

; 711  :     _CONSTEXPR20_CONTAINER ~vector() noexcept {

  00000	56		 push	 esi
  00001	57		 push	 edi
  00002	8b f9		 mov	 edi, ecx

; 1763 :         if (_Myfirst) { // destroy and deallocate old array

  00004	8b 37		 mov	 esi, DWORD PTR [edi]
  00006	85 f6		 test	 esi, esi
  00008	0f 84 a5 00 00
	00		 je	 $LN4@vector

; 1764 :             _Destroy(_Myfirst, _Mylast);

  0000e	53		 push	 ebx
  0000f	8b 5f 04	 mov	 ebx, DWORD PTR [edi+4]
; File C:\Program Files (x86)\Microsoft Visual Studio\2019\Professional\VC\Tools\MSVC\14.29.30133\include\xmemory

; 949  :         for (; _First != _Last; ++_First) {

  00012	3b f3		 cmp	 esi, ebx
  00014	74 49		 je	 SHORT $LN10@vector
$LL11@vector:
; File C:\Program Files (x86)\Microsoft Visual Studio\2019\Professional\VC\Tools\MSVC\14.29.30133\include\xstring

; 2319 :         return _BUF_SIZE <= _Myres;

  00016	8b 4e 14	 mov	 ecx, DWORD PTR [esi+20]
  00019	83 f9 10	 cmp	 ecx, 16			; 00000010H

; 4618 :         if (_Mypair._Myval2._Large_string_engaged()) {

  0001c	72 27		 jb	 SHORT $LN30@vector
; File C:\Program Files (x86)\Microsoft Visual Studio\2019\Professional\VC\Tools\MSVC\14.29.30133\include\xmemory

; 835  :         _Deallocate<_New_alignof<_Ty>>(_Ptr, sizeof(_Ty) * _Count);

  0001e	8b 06		 mov	 eax, DWORD PTR [esi]
; File C:\Program Files (x86)\Microsoft Visual Studio\2019\Professional\VC\Tools\MSVC\14.29.30133\include\xstring

; 4622 :             _Al.deallocate(_Ptr, _Mypair._Myval2._Myres + 1);

  00020	41		 inc	 ecx
; File C:\Program Files (x86)\Microsoft Visual Studio\2019\Professional\VC\Tools\MSVC\14.29.30133\include\xmemory

; 260  :         if (_Bytes >= _Big_allocation_threshold) { // boost the alignment of big allocations to help autovectorization

  00021	81 f9 00 10 00
	00		 cmp	 ecx, 4096		; 00001000H
  00027	72 12		 jb	 SHORT $LN40@vector

; 158  :     const uintptr_t _Ptr_container   = _Ptr_user[-1];

  00029	8b 50 fc	 mov	 edx, DWORD PTR [eax-4]
  0002c	83 c1 23	 add	 ecx, 35			; 00000023H

; 159  : 
; 160  :     // If the following asserts, it likely means that we are performing
; 161  :     // an aligned delete on memory coming from an unaligned allocation.
; 162  :     _STL_ASSERT(_Ptr_user[-2] == _Big_allocation_sentinel, "invalid argument");
; 163  : 
; 164  :     // Extra paranoia on aligned allocation/deallocation; ensure _Ptr_container is
; 165  :     // in range [_Min_back_shift, _Non_user_size]
; 166  : #ifdef _DEBUG
; 167  :     constexpr uintptr_t _Min_back_shift = 2 * sizeof(void*);
; 168  : #else // ^^^ _DEBUG ^^^ // vvv !_DEBUG vvv
; 169  :     constexpr uintptr_t _Min_back_shift = sizeof(void*);
; 170  : #endif // _DEBUG
; 171  :     const uintptr_t _Back_shift = reinterpret_cast<uintptr_t>(_Ptr) - _Ptr_container;

  0002f	2b c2		 sub	 eax, edx

; 172  :     _STL_VERIFY(_Back_shift >= _Min_back_shift && _Back_shift <= _Non_user_size, "invalid argument");

  00031	83 c0 fc	 add	 eax, -4			; fffffffcH
  00034	83 f8 1f	 cmp	 eax, 31			; 0000001fH
  00037	77 7d		 ja	 SHORT $LN61@vector

; 173  :     _Ptr = reinterpret_cast<void*>(_Ptr_container);

  00039	8b c2		 mov	 eax, edx
$LN40@vector:

; 264  :         ::operator delete(_Ptr, _Bytes);

  0003b	51		 push	 ecx
  0003c	50		 push	 eax
  0003d	e8 00 00 00 00	 call	 ??3@YAXPAXI@Z		; operator delete
  00042	83 c4 08	 add	 esp, 8
$LN30@vector:
; File C:\Program Files (x86)\Microsoft Visual Studio\2019\Professional\VC\Tools\MSVC\14.29.30133\include\xstring

; 4633 :             _Mypair._Myval2._Mysize = 0;

  00045	c7 46 10 00 00
	00 00		 mov	 DWORD PTR [esi+16], 0

; 4634 :             _Mypair._Myval2._Myres  = _BUF_SIZE - 1;

  0004c	c7 46 14 0f 00
	00 00		 mov	 DWORD PTR [esi+20], 15	; 0000000fH

; 4635 :             // the _Traits::assign is last so the codegen doesn't think the char write can alias this
; 4636 :             _Traits::assign(_Mypair._Myval2._Bx._Buf[0], _Elem());

  00053	c6 06 00	 mov	 BYTE PTR [esi], 0
; File C:\Program Files (x86)\Microsoft Visual Studio\2019\Professional\VC\Tools\MSVC\14.29.30133\include\xmemory

; 949  :         for (; _First != _Last; ++_First) {

  00056	83 c6 18	 add	 esi, 24			; 00000018H
  00059	3b f3		 cmp	 esi, ebx
  0005b	75 b9		 jne	 SHORT $LL11@vector

; 173  :     _Ptr = reinterpret_cast<void*>(_Ptr_container);

  0005d	8b 37		 mov	 esi, DWORD PTR [edi]
$LN10@vector:
; File C:\Program Files (x86)\Microsoft Visual Studio\2019\Professional\VC\Tools\MSVC\14.29.30133\include\vector

; 1765 :             _Getal().deallocate(_Myfirst, static_cast<size_type>(_Myend - _Myfirst));

  0005f	8b 4f 08	 mov	 ecx, DWORD PTR [edi+8]
  00062	b8 ab aa aa 2a	 mov	 eax, 715827883		; 2aaaaaabH
  00067	2b ce		 sub	 ecx, esi
  00069	f7 e9		 imul	 ecx
; File C:\Program Files (x86)\Microsoft Visual Studio\2019\Professional\VC\Tools\MSVC\14.29.30133\include\xmemory

; 835  :         _Deallocate<_New_alignof<_Ty>>(_Ptr, sizeof(_Ty) * _Count);

  0006b	5b		 pop	 ebx
; File C:\Program Files (x86)\Microsoft Visual Studio\2019\Professional\VC\Tools\MSVC\14.29.30133\include\vector

; 1765 :             _Getal().deallocate(_Myfirst, static_cast<size_type>(_Myend - _Myfirst));

  0006c	c1 fa 02	 sar	 edx, 2
  0006f	8b c2		 mov	 eax, edx
  00071	c1 e8 1f	 shr	 eax, 31			; 0000001fH
  00074	03 c2		 add	 eax, edx
; File C:\Program Files (x86)\Microsoft Visual Studio\2019\Professional\VC\Tools\MSVC\14.29.30133\include\xmemory

; 835  :         _Deallocate<_New_alignof<_Ty>>(_Ptr, sizeof(_Ty) * _Count);

  00076	8d 04 40	 lea	 eax, DWORD PTR [eax+eax*2]
  00079	c1 e0 03	 shl	 eax, 3

; 260  :         if (_Bytes >= _Big_allocation_threshold) { // boost the alignment of big allocations to help autovectorization

  0007c	3d 00 10 00 00	 cmp	 eax, 4096		; 00001000H
  00081	72 12		 jb	 SHORT $LN64@vector

; 158  :     const uintptr_t _Ptr_container   = _Ptr_user[-1];

  00083	8b 4e fc	 mov	 ecx, DWORD PTR [esi-4]
  00086	83 c0 23	 add	 eax, 35			; 00000023H

; 159  : 
; 160  :     // If the following asserts, it likely means that we are performing
; 161  :     // an aligned delete on memory coming from an unaligned allocation.
; 162  :     _STL_ASSERT(_Ptr_user[-2] == _Big_allocation_sentinel, "invalid argument");
; 163  : 
; 164  :     // Extra paranoia on aligned allocation/deallocation; ensure _Ptr_container is
; 165  :     // in range [_Min_back_shift, _Non_user_size]
; 166  : #ifdef _DEBUG
; 167  :     constexpr uintptr_t _Min_back_shift = 2 * sizeof(void*);
; 168  : #else // ^^^ _DEBUG ^^^ // vvv !_DEBUG vvv
; 169  :     constexpr uintptr_t _Min_back_shift = sizeof(void*);
; 170  : #endif // _DEBUG
; 171  :     const uintptr_t _Back_shift = reinterpret_cast<uintptr_t>(_Ptr) - _Ptr_container;

  00089	2b f1		 sub	 esi, ecx

; 172  :     _STL_VERIFY(_Back_shift >= _Min_back_shift && _Back_shift <= _Non_user_size, "invalid argument");

  0008b	83 c6 fc	 add	 esi, -4			; fffffffcH
  0008e	83 fe 1f	 cmp	 esi, 31			; 0000001fH
  00091	77 23		 ja	 SHORT $LN61@vector

; 173  :     _Ptr = reinterpret_cast<void*>(_Ptr_container);

  00093	8b f1		 mov	 esi, ecx
$LN64@vector:

; 264  :         ::operator delete(_Ptr, _Bytes);

  00095	50		 push	 eax
  00096	56		 push	 esi
  00097	e8 00 00 00 00	 call	 ??3@YAXPAXI@Z		; operator delete
; File C:\Program Files (x86)\Microsoft Visual Studio\2019\Professional\VC\Tools\MSVC\14.29.30133\include\vector

; 1767 :             _Myfirst = nullptr;

  0009c	c7 07 00 00 00
	00		 mov	 DWORD PTR [edi], 0
; File C:\Program Files (x86)\Microsoft Visual Studio\2019\Professional\VC\Tools\MSVC\14.29.30133\include\xmemory

; 264  :         ::operator delete(_Ptr, _Bytes);

  000a2	83 c4 08	 add	 esp, 8
; File C:\Program Files (x86)\Microsoft Visual Studio\2019\Professional\VC\Tools\MSVC\14.29.30133\include\vector

; 1768 :             _Mylast  = nullptr;

  000a5	c7 47 04 00 00
	00 00		 mov	 DWORD PTR [edi+4], 0

; 1769 :             _Myend   = nullptr;

  000ac	c7 47 08 00 00
	00 00		 mov	 DWORD PTR [edi+8], 0
$LN4@vector:
  000b3	5f		 pop	 edi

; 717  :     }

  000b4	5e		 pop	 esi
  000b5	c3		 ret	 0
$LN61@vector:
; File C:\Program Files (x86)\Microsoft Visual Studio\2019\Professional\VC\Tools\MSVC\14.29.30133\include\xmemory

; 172  :     _STL_VERIFY(_Back_shift >= _Min_back_shift && _Back_shift <= _Non_user_size, "invalid argument");

  000b6	e8 00 00 00 00	 call	 __invalid_parameter_noinfo_noreturn
$LN72@vector:
  000bb	cc		 int	 3
??1?$vector@V?$basic_string@DU?$char_traits@D@std@@V?$allocator@D@2@@std@@V?$allocator@V?$basic_string@DU?$char_traits@D@std@@V?$allocator@D@2@@std@@@2@@std@@QAE@XZ ENDP ; std::vector<std::basic_string<char,std::char_traits<char>,std::allocator<char> >,std::allocator<std::basic_string<char,std::char_traits<char>,std::allocator<char> > > >::~vector<std::basic_string<char,std::char_traits<char>,std::allocator<char> >,std::allocator<std::basic_string<char,std::char_traits<char>,std::allocator<char> > > >
_TEXT	ENDS
; Function compile flags: /Ogtp
; File C:\Program Files (x86)\Microsoft Visual Studio\2019\Professional\VC\Tools\MSVC\14.29.30133\include\xmemory
;	COMDAT ??$_Allocate_manually_vector_aligned@U_Default_allocate_traits@std@@@std@@YAPAXI@Z
_TEXT	SEGMENT
__Bytes$ = 8						; size = 4
??$_Allocate_manually_vector_aligned@U_Default_allocate_traits@std@@@std@@YAPAXI@Z PROC ; std::_Allocate_manually_vector_aligned<std::_Default_allocate_traits>, COMDAT

; 134  : __declspec(allocator) void* _Allocate_manually_vector_aligned(const size_t _Bytes) {

  00000	55		 push	 ebp
  00001	8b ec		 mov	 ebp, esp

; 135  :     // allocate _Bytes manually aligned to at least _Big_allocation_alignment
; 136  :     const size_t _Block_size = _Non_user_size + _Bytes;

  00003	8b 45 08	 mov	 eax, DWORD PTR __Bytes$[ebp]
  00006	8d 48 23	 lea	 ecx, DWORD PTR [eax+35]

; 137  :     if (_Block_size <= _Bytes) {

  00009	3b c8		 cmp	 ecx, eax
  0000b	0f 86 00 00 00
	00		 jbe	 ?_Throw_bad_array_new_length@std@@YAXXZ ; std::_Throw_bad_array_new_length

; 85   :         return ::operator new(_Bytes);

  00011	51		 push	 ecx
  00012	e8 00 00 00 00	 call	 ??2@YAPAXI@Z		; operator new

; 138  :         _Throw_bad_array_new_length(); // add overflow
; 139  :     }
; 140  : 
; 141  :     const uintptr_t _Ptr_container = reinterpret_cast<uintptr_t>(_Traits::_Allocate(_Block_size));

  00017	8b c8		 mov	 ecx, eax

; 85   :         return ::operator new(_Bytes);

  00019	83 c4 04	 add	 esp, 4

; 142  :     _STL_VERIFY(_Ptr_container != 0, "invalid argument"); // validate even in release since we're doing p[-1]

  0001c	85 c9		 test	 ecx, ecx
  0001e	74 0b		 je	 SHORT $LN7@Allocate_m

; 143  :     void* const _Ptr = reinterpret_cast<void*>((_Ptr_container + _Non_user_size) & ~(_Big_allocation_alignment - 1));

  00020	8d 41 23	 lea	 eax, DWORD PTR [ecx+35]
  00023	83 e0 e0	 and	 eax, -32		; ffffffe0H

; 144  :     static_cast<uintptr_t*>(_Ptr)[-1] = _Ptr_container;

  00026	89 48 fc	 mov	 DWORD PTR [eax-4], ecx

; 145  : 
; 146  : #ifdef _DEBUG
; 147  :     static_cast<uintptr_t*>(_Ptr)[-2] = _Big_allocation_sentinel;
; 148  : #endif // _DEBUG
; 149  :     return _Ptr;
; 150  : }

  00029	5d		 pop	 ebp
  0002a	c3		 ret	 0
$LN7@Allocate_m:

; 142  :     _STL_VERIFY(_Ptr_container != 0, "invalid argument"); // validate even in release since we're doing p[-1]

  0002b	e9 00 00 00 00	 jmp	 __invalid_parameter_noinfo_noreturn
??$_Allocate_manually_vector_aligned@U_Default_allocate_traits@std@@@std@@YAPAXI@Z ENDP ; std::_Allocate_manually_vector_aligned<std::_Default_allocate_traits>
_TEXT	ENDS
; Function compile flags: /Ogtp
; File C:\Program Files (x86)\Microsoft Visual Studio\2019\Professional\VC\Tools\MSVC\14.29.30133\include\xstring
; File C:\Program Files (x86)\Microsoft Visual Studio\2019\Professional\VC\Tools\MSVC\14.29.30133\include\utility
; File C:\Program Files (x86)\Microsoft Visual Studio\2019\Professional\VC\Tools\MSVC\14.29.30133\include\xstring
; File C:\Program Files (x86)\Microsoft Visual Studio\2019\Professional\VC\Tools\MSVC\14.29.30133\include\utility
; File C:\Program Files (x86)\Microsoft Visual Studio\2019\Professional\VC\Tools\MSVC\14.29.30133\include\xstring
;	COMDAT ??$_Traits_compare@U?$char_traits@D@std@@@std@@YAHQBDI0I@Z
_TEXT	SEGMENT
__Left$ = 8						; size = 4
__Left_size$ = 12					; size = 4
__Right$ = 16						; size = 4
__Right_size$ = 20					; size = 4
??$_Traits_compare@U?$char_traits@D@std@@@std@@YAHQBDI0I@Z PROC ; std::_Traits_compare<std::char_traits<char> >, COMDAT

; 588  :     _In_reads_(_Right_size) const _Traits_ptr_t<_Traits> _Right, const size_t _Right_size) noexcept {

  00000	55		 push	 ebp
  00001	8b ec		 mov	 ebp, esp

; 392  :         return _CSTD memcmp(_First1, _First2, _Count);

  00003	8b 55 08	 mov	 edx, DWORD PTR __Left$[ebp]

; 588  :     _In_reads_(_Right_size) const _Traits_ptr_t<_Traits> _Right, const size_t _Right_size) noexcept {

  00006	53		 push	 ebx
; File C:\Program Files (x86)\Microsoft Visual Studio\2019\Professional\VC\Tools\MSVC\14.29.30133\include\utility

; 68   :     return _Right < _Left ? _Right : _Left;

  00007	8b 5d 14	 mov	 ebx, DWORD PTR __Right_size$[ebp]
; File C:\Program Files (x86)\Microsoft Visual Studio\2019\Professional\VC\Tools\MSVC\14.29.30133\include\xstring

; 588  :     _In_reads_(_Right_size) const _Traits_ptr_t<_Traits> _Right, const size_t _Right_size) noexcept {

  0000a	56		 push	 esi

; 392  :         return _CSTD memcmp(_First1, _First2, _Count);

  0000b	8b 75 10	 mov	 esi, DWORD PTR __Right$[ebp]

; 588  :     _In_reads_(_Right_size) const _Traits_ptr_t<_Traits> _Right, const size_t _Right_size) noexcept {

  0000e	57		 push	 edi
; File C:\Program Files (x86)\Microsoft Visual Studio\2019\Professional\VC\Tools\MSVC\14.29.30133\include\utility

; 68   :     return _Right < _Left ? _Right : _Left;

  0000f	8b 7d 0c	 mov	 edi, DWORD PTR __Left_size$[ebp]
  00012	3b df		 cmp	 ebx, edi
  00014	8b cf		 mov	 ecx, edi
  00016	0f 42 cb	 cmovb	 ecx, ebx
; File C:\Program Files (x86)\Microsoft Visual Studio\2019\Professional\VC\Tools\MSVC\14.29.30133\include\xstring

; 392  :         return _CSTD memcmp(_First1, _First2, _Count);

  00019	83 e9 04	 sub	 ecx, 4
  0001c	72 13		 jb	 SHORT $LN12@Traits_com
  0001e	66 90		 npad	 2
$LL13@Traits_com:
  00020	8b 02		 mov	 eax, DWORD PTR [edx]
  00022	3b 06		 cmp	 eax, DWORD PTR [esi]
  00024	75 10		 jne	 SHORT $LN11@Traits_com
  00026	83 c2 04	 add	 edx, 4
  00029	83 c6 04	 add	 esi, 4
  0002c	83 e9 04	 sub	 ecx, 4
  0002f	73 ef		 jae	 SHORT $LL13@Traits_com
$LN12@Traits_com:
  00031	83 f9 fc	 cmp	 ecx, -4			; fffffffcH
  00034	74 34		 je	 SHORT $LN10@Traits_com
$LN11@Traits_com:
  00036	8a 02		 mov	 al, BYTE PTR [edx]
  00038	3a 06		 cmp	 al, BYTE PTR [esi]
  0003a	75 27		 jne	 SHORT $LN14@Traits_com
  0003c	83 f9 fd	 cmp	 ecx, -3			; fffffffdH
  0003f	74 29		 je	 SHORT $LN10@Traits_com
  00041	8a 42 01	 mov	 al, BYTE PTR [edx+1]
  00044	3a 46 01	 cmp	 al, BYTE PTR [esi+1]
  00047	75 1a		 jne	 SHORT $LN14@Traits_com
  00049	83 f9 fe	 cmp	 ecx, -2			; fffffffeH
  0004c	74 1c		 je	 SHORT $LN10@Traits_com
  0004e	8a 42 02	 mov	 al, BYTE PTR [edx+2]
  00051	3a 46 02	 cmp	 al, BYTE PTR [esi+2]
  00054	75 0d		 jne	 SHORT $LN14@Traits_com
  00056	83 f9 ff	 cmp	 ecx, -1
  00059	74 0f		 je	 SHORT $LN10@Traits_com
  0005b	8a 42 03	 mov	 al, BYTE PTR [edx+3]
  0005e	3a 46 03	 cmp	 al, BYTE PTR [esi+3]
  00061	74 07		 je	 SHORT $LN10@Traits_com
$LN14@Traits_com:
  00063	1b c0		 sbb	 eax, eax
  00065	83 c8 01	 or	 eax, 1
  00068	eb 02		 jmp	 SHORT $LN15@Traits_com
$LN10@Traits_com:
  0006a	33 c0		 xor	 eax, eax
$LN15@Traits_com:

; 589  :     // compare [_Left, _Left + _Left_size) to [_Right, _Right + _Right_size) using _Traits
; 590  :     const int _Ans = _Traits::compare(_Left, _Right, (_STD min)(_Left_size, _Right_size));
; 591  : 
; 592  :     if (_Ans != 0) {

  0006c	85 c0		 test	 eax, eax
  0006e	75 10		 jne	 SHORT $LN4@Traits_com

; 593  :         return _Ans;
; 594  :     }
; 595  : 
; 596  :     if (_Left_size < _Right_size) {

  00070	3b df		 cmp	 ebx, edi
  00072	76 08		 jbe	 SHORT $LN16@Traits_com

; 601  :         return 1;
; 602  :     }
; 603  : 
; 604  :     return 0;
; 605  : }

  00074	5f		 pop	 edi
  00075	5e		 pop	 esi
  00076	83 c8 ff	 or	 eax, -1
  00079	5b		 pop	 ebx
  0007a	5d		 pop	 ebp
  0007b	c3		 ret	 0
$LN16@Traits_com:

; 597  :         return -1;
; 598  :     }
; 599  : 
; 600  :     if (_Left_size > _Right_size) {

  0007c	1b c0		 sbb	 eax, eax
  0007e	f7 d8		 neg	 eax
$LN4@Traits_com:

; 601  :         return 1;
; 602  :     }
; 603  : 
; 604  :     return 0;
; 605  : }

  00080	5f		 pop	 edi
  00081	5e		 pop	 esi
  00082	5b		 pop	 ebx
  00083	5d		 pop	 ebp
  00084	c3		 ret	 0
??$_Traits_compare@U?$char_traits@D@std@@@std@@YAHQBDI0I@Z ENDP ; std::_Traits_compare<std::char_traits<char> >
_TEXT	ENDS
; Function compile flags: /Ogtp
; File C:\Program Files (x86)\Microsoft Visual Studio\2019\Professional\VC\Tools\MSVC\14.29.30133\include\xtree
;	COMDAT ?_Throw_tree_length_error@std@@YAXXZ
_TEXT	SEGMENT
?_Throw_tree_length_error@std@@YAXXZ PROC		; std::_Throw_tree_length_error, COMDAT

; 421  :     _Xlength_error("map/set too long");

  00000	68 00 00 00 00	 push	 OFFSET ??_C@_0BB@GCADKGJO@map?1set?5too?5long@
  00005	e8 00 00 00 00	 call	 ?_Xlength_error@std@@YAXPBD@Z ; std::_Xlength_error
$LN3@Throw_tree:
  0000a	cc		 int	 3
?_Throw_tree_length_error@std@@YAXXZ ENDP		; std::_Throw_tree_length_error
_TEXT	ENDS
; Function compile flags: /Ogtp
; File C:\Program Files (x86)\Microsoft Visual Studio\2019\Professional\VC\Tools\MSVC\14.29.30133\include\xstring
;	COMDAT ?_Equal@?$basic_string@DU?$char_traits@D@std@@V?$allocator@D@2@@std@@QBE_NQBD@Z
_TEXT	SEGMENT
__Ptr$ = 8						; size = 4
?_Equal@?$basic_string@DU?$char_traits@D@std@@V?$allocator@D@2@@std@@QBE_NQBD@Z PROC ; std::basic_string<char,std::char_traits<char>,std::allocator<char> >::_Equal, COMDAT
; _this$ = ecx

; 4376 :     _CONSTEXPR20_CONTAINER bool _Equal(_In_z_ const _Elem* const _Ptr) const noexcept {

  00000	55		 push	 ebp
  00001	8b ec		 mov	 ebp, esp
  00003	56		 push	 esi

; 412  :         return _CSTD strlen(reinterpret_cast<const char*>(_First));

  00004	8b 75 08	 mov	 esi, DWORD PTR __Ptr$[ebp]

; 4376 :     _CONSTEXPR20_CONTAINER bool _Equal(_In_z_ const _Elem* const _Ptr) const noexcept {

  00007	8b d1		 mov	 edx, ecx
  00009	57		 push	 edi

; 412  :         return _CSTD strlen(reinterpret_cast<const char*>(_First));

  0000a	8b fe		 mov	 edi, esi
  0000c	8d 4f 01	 lea	 ecx, DWORD PTR [edi+1]
  0000f	90		 npad	 1
$LL16@Equal:
  00010	8a 07		 mov	 al, BYTE PTR [edi]
  00012	47		 inc	 edi
  00013	84 c0		 test	 al, al
  00015	75 f9		 jne	 SHORT $LL16@Equal
  00017	2b f9		 sub	 edi, ecx

; 2319 :         return _BUF_SIZE <= _Myres;

  00019	83 7a 14 10	 cmp	 DWORD PTR [edx+20], 16	; 00000010H

; 2305 :         const value_type* _Result = _Bx._Buf;

  0001d	8b ca		 mov	 ecx, edx

; 2306 :         if (_Large_string_engaged()) {

  0001f	72 02		 jb	 SHORT $LN6@Equal

; 2307 :             _Result = _Unfancy(_Bx._Ptr);

  00021	8b 0a		 mov	 ecx, DWORD PTR [edx]
$LN6@Equal:

; 4377 :         // compare [0, size()) with _Ptr for equality
; 4378 :         return _Traits_equal<_Traits>(_Mypair._Myval2._Myptr(), _Mypair._Myval2._Mysize, _Ptr, _Traits::length(_Ptr));

  00023	8b 52 10	 mov	 edx, DWORD PTR [edx+16]

; 583  :     return _Left_size == _Right_size && _Traits::compare(_Left, _Right, _Left_size) == 0;

  00026	3b d7		 cmp	 edx, edi
  00028	75 5e		 jne	 SHORT $LN12@Equal

; 392  :         return _CSTD memcmp(_First1, _First2, _Count);

  0002a	83 ea 04	 sub	 edx, 4
  0002d	72 12		 jb	 SHORT $LN19@Equal
  0002f	90		 npad	 1
$LL20@Equal:
  00030	8b 01		 mov	 eax, DWORD PTR [ecx]
  00032	3b 06		 cmp	 eax, DWORD PTR [esi]
  00034	75 10		 jne	 SHORT $LN18@Equal
  00036	83 c1 04	 add	 ecx, 4
  00039	83 c6 04	 add	 esi, 4
  0003c	83 ea 04	 sub	 edx, 4
  0003f	73 ef		 jae	 SHORT $LL20@Equal
$LN19@Equal:
  00041	83 fa fc	 cmp	 edx, -4			; fffffffcH
  00044	74 34		 je	 SHORT $LN17@Equal
$LN18@Equal:
  00046	8a 01		 mov	 al, BYTE PTR [ecx]
  00048	3a 06		 cmp	 al, BYTE PTR [esi]
  0004a	75 27		 jne	 SHORT $LN21@Equal
  0004c	83 fa fd	 cmp	 edx, -3			; fffffffdH
  0004f	74 29		 je	 SHORT $LN17@Equal
  00051	8a 41 01	 mov	 al, BYTE PTR [ecx+1]
  00054	3a 46 01	 cmp	 al, BYTE PTR [esi+1]
  00057	75 1a		 jne	 SHORT $LN21@Equal
  00059	83 fa fe	 cmp	 edx, -2			; fffffffeH
  0005c	74 1c		 je	 SHORT $LN17@Equal
  0005e	8a 41 02	 mov	 al, BYTE PTR [ecx+2]
  00061	3a 46 02	 cmp	 al, BYTE PTR [esi+2]
  00064	75 0d		 jne	 SHORT $LN21@Equal
  00066	83 fa ff	 cmp	 edx, -1
  00069	74 0f		 je	 SHORT $LN17@Equal
  0006b	8a 41 03	 mov	 al, BYTE PTR [ecx+3]
  0006e	3a 46 03	 cmp	 al, BYTE PTR [esi+3]
  00071	74 07		 je	 SHORT $LN17@Equal
$LN21@Equal:
  00073	1b c0		 sbb	 eax, eax
  00075	83 c8 01	 or	 eax, 1
  00078	eb 02		 jmp	 SHORT $LN22@Equal
$LN17@Equal:
  0007a	33 c0		 xor	 eax, eax
$LN22@Equal:

; 583  :     return _Left_size == _Right_size && _Traits::compare(_Left, _Right, _Left_size) == 0;

  0007c	85 c0		 test	 eax, eax
  0007e	75 08		 jne	 SHORT $LN12@Equal
  00080	5f		 pop	 edi
  00081	b0 01		 mov	 al, 1

; 4379 :     }

  00083	5e		 pop	 esi
  00084	5d		 pop	 ebp
  00085	c2 04 00	 ret	 4
$LN12@Equal:
  00088	5f		 pop	 edi

; 583  :     return _Left_size == _Right_size && _Traits::compare(_Left, _Right, _Left_size) == 0;

  00089	32 c0		 xor	 al, al

; 4379 :     }

  0008b	5e		 pop	 esi
  0008c	5d		 pop	 ebp
  0008d	c2 04 00	 ret	 4
?_Equal@?$basic_string@DU?$char_traits@D@std@@V?$allocator@D@2@@std@@QBE_NQBD@Z ENDP ; std::basic_string<char,std::char_traits<char>,std::allocator<char> >::_Equal
_TEXT	ENDS
; Function compile flags: /Ogtp
; File C:\Program Files (x86)\Microsoft Visual Studio\2019\Professional\VC\Tools\MSVC\14.29.30133\include\xstring
; File C:\Program Files (x86)\Microsoft Visual Studio\2019\Professional\VC\Tools\MSVC\14.29.30133\include\xmemory
; File C:\Program Files (x86)\Microsoft Visual Studio\2019\Professional\VC\Tools\MSVC\14.29.30133\include\xstring
; File C:\Program Files (x86)\Microsoft Visual Studio\2019\Professional\VC\Tools\MSVC\14.29.30133\include\xmemory
; File C:\Program Files (x86)\Microsoft Visual Studio\2019\Professional\VC\Tools\MSVC\14.29.30133\include\xstring
; File C:\Program Files (x86)\Microsoft Visual Studio\2019\Professional\VC\Tools\MSVC\14.29.30133\include\utility
; File C:\Program Files (x86)\Microsoft Visual Studio\2019\Professional\VC\Tools\MSVC\14.29.30133\include\xstring
; File C:\Program Files (x86)\Microsoft Visual Studio\2019\Professional\VC\Tools\MSVC\14.29.30133\include\xmemory
; File C:\Program Files (x86)\Microsoft Visual Studio\2019\Professional\VC\Tools\MSVC\14.29.30133\include\xstring
; File C:\Program Files (x86)\Microsoft Visual Studio\2019\Professional\VC\Tools\MSVC\14.29.30133\include\xmemory
; File C:\Program Files (x86)\Microsoft Visual Studio\2019\Professional\VC\Tools\MSVC\14.29.30133\include\xstring
; File C:\Program Files (x86)\Microsoft Visual Studio\2019\Professional\VC\Tools\MSVC\14.29.30133\include\xmemory
; File C:\Program Files (x86)\Microsoft Visual Studio\2019\Professional\VC\Tools\MSVC\14.29.30133\include\xstring
;	COMDAT ?assign@?$basic_string@DU?$char_traits@D@std@@V?$allocator@D@2@@std@@QAEAAV12@QBDI@Z
_TEXT	SEGMENT
__Old$1$ = -4						; size = 4
__Ptr$ = 8						; size = 4
$T1 = 12						; size = 4
__Count$ = 12						; size = 4
?assign@?$basic_string@DU?$char_traits@D@std@@V?$allocator@D@2@@std@@QAEAAV12@QBDI@Z PROC ; std::basic_string<char,std::char_traits<char>,std::allocator<char> >::assign, COMDAT
; _this$ = ecx

; 3244 :         _In_reads_(_Count) const _Elem* const _Ptr, _CRT_GUARDOVERFLOW const size_type _Count) {

  00000	55		 push	 ebp
  00001	8b ec		 mov	 ebp, esp
  00003	51		 push	 ecx
  00004	53		 push	 ebx

; 3245 :         // assign [_Ptr, _Ptr + _Count)
; 3246 :         if (_Count <= _Mypair._Myval2._Myres) {

  00005	8b 5d 0c	 mov	 ebx, DWORD PTR __Count$[ebp]
  00008	56		 push	 esi
  00009	8b f1		 mov	 esi, ecx
  0000b	57		 push	 edi
  0000c	8b 4e 14	 mov	 ecx, DWORD PTR [esi+20]
  0000f	89 4d fc	 mov	 DWORD PTR __Old$1$[ebp], ecx
  00012	3b d9		 cmp	 ebx, ecx
  00014	77 28		 ja	 SHORT $LN2@assign

; 2296 :         value_type* _Result = _Bx._Buf;

  00016	8b fe		 mov	 edi, esi

; 2319 :         return _BUF_SIZE <= _Myres;

  00018	83 f9 10	 cmp	 ecx, 16			; 00000010H

; 2297 :         if (_Large_string_engaged()) {

  0001b	72 02		 jb	 SHORT $LN5@assign

; 2298 :             _Result = _Unfancy(_Bx._Ptr);

  0001d	8b 3e		 mov	 edi, DWORD PTR [esi]
$LN5@assign:

; 122  :         _CSTD memmove(_First1, _First2, _Count * sizeof(_Elem));

  0001f	53		 push	 ebx
  00020	ff 75 08	 push	 DWORD PTR __Ptr$[ebp]

; 3247 :             _Elem* const _Old_ptr   = _Mypair._Myval2._Myptr();
; 3248 :             _Mypair._Myval2._Mysize = _Count;

  00023	89 5e 10	 mov	 DWORD PTR [esi+16], ebx

; 122  :         _CSTD memmove(_First1, _First2, _Count * sizeof(_Elem));

  00026	57		 push	 edi
  00027	e8 00 00 00 00	 call	 _memmove
  0002c	83 c4 0c	 add	 esp, 12			; 0000000cH

; 3249 :             _Traits::move(_Old_ptr, _Ptr, _Count);
; 3250 :             _Traits::assign(_Old_ptr[_Count], _Elem());

  0002f	c6 04 1f 00	 mov	 BYTE PTR [edi+ebx], 0

; 3259 :             },
; 3260 :             _Ptr);
; 3261 :     }

  00033	8b c6		 mov	 eax, esi
  00035	5f		 pop	 edi
  00036	5e		 pop	 esi
  00037	5b		 pop	 ebx
  00038	8b e5		 mov	 esp, ebp
  0003a	5d		 pop	 ebp
  0003b	c2 08 00	 ret	 8
$LN2@assign:

; 4508 :         if (_New_size > max_size()) {

  0003e	81 fb ff ff ff
	7f		 cmp	 ebx, 2147483647		; 7fffffffH
  00044	0f 87 d4 00 00
	00		 ja	 $LN60@assign

; 4488 :         const size_type _Masked = _Requested | _ALLOC_MASK;

  0004a	8b fb		 mov	 edi, ebx
  0004c	83 cf 0f	 or	 edi, 15			; 0000000fH
  0004f	81 ff ff ff ff
	7f		 cmp	 edi, 2147483647		; 7fffffffH

; 4489 :         if (_Masked > _Max) { // the mask overflows, settle for max_size()

  00055	76 15		 jbe	 SHORT $LN19@assign

; 4490 :             return _Max;

  00057	b8 00 00 00 80	 mov	 eax, -2147483648	; 80000000H
  0005c	bf ff ff ff 7f	 mov	 edi, 2147483647		; 7fffffffH
; File C:\Program Files (x86)\Microsoft Visual Studio\2019\Professional\VC\Tools\MSVC\14.29.30133\include\xmemory

; 238  :             return _Allocate_manually_vector_aligned<_Traits>(_Bytes);

  00061	50		 push	 eax
  00062	e8 00 00 00 00	 call	 ??$_Allocate_manually_vector_aligned@U_Default_allocate_traits@std@@@std@@YAPAXI@Z ; std::_Allocate_manually_vector_aligned<std::_Default_allocate_traits>
  00067	83 c4 04	 add	 esp, 4
  0006a	eb 52		 jmp	 SHORT $LN58@assign
$LN19@assign:
; File C:\Program Files (x86)\Microsoft Visual Studio\2019\Professional\VC\Tools\MSVC\14.29.30133\include\xstring

; 4493 :         if (_Old > _Max - _Old / 2) { // similarly, geometric overflows

  0006c	8b d1		 mov	 edx, ecx
  0006e	b8 ff ff ff 7f	 mov	 eax, 2147483647		; 7fffffffH
  00073	d1 ea		 shr	 edx, 1
  00075	2b c2		 sub	 eax, edx
  00077	3b c8		 cmp	 ecx, eax
  00079	76 15		 jbe	 SHORT $LN20@assign

; 4494 :             return _Max;

  0007b	b8 00 00 00 80	 mov	 eax, -2147483648	; 80000000H
  00080	bf ff ff ff 7f	 mov	 edi, 2147483647		; 7fffffffH
; File C:\Program Files (x86)\Microsoft Visual Studio\2019\Professional\VC\Tools\MSVC\14.29.30133\include\xmemory

; 238  :             return _Allocate_manually_vector_aligned<_Traits>(_Bytes);

  00085	50		 push	 eax
  00086	e8 00 00 00 00	 call	 ??$_Allocate_manually_vector_aligned@U_Default_allocate_traits@std@@@std@@YAPAXI@Z ; std::_Allocate_manually_vector_aligned<std::_Default_allocate_traits>
  0008b	83 c4 04	 add	 esp, 4
  0008e	eb 2e		 jmp	 SHORT $LN58@assign
$LN20@assign:
; File C:\Program Files (x86)\Microsoft Visual Studio\2019\Professional\VC\Tools\MSVC\14.29.30133\include\xstring

; 4497 :         return (_STD max)(_Masked, _Old + _Old / 2);

  00090	8d 04 0a	 lea	 eax, DWORD PTR [edx+ecx]
; File C:\Program Files (x86)\Microsoft Visual Studio\2019\Professional\VC\Tools\MSVC\14.29.30133\include\utility

; 44   :     return _Left < _Right ? _Right : _Left;

  00093	3b f8		 cmp	 edi, eax
  00095	0f 42 f8	 cmovb	 edi, eax
; File C:\Program Files (x86)\Microsoft Visual Studio\2019\Professional\VC\Tools\MSVC\14.29.30133\include\xstring

; 4515 :         const pointer _New_ptr        = _Al.allocate(_New_capacity + 1); // throws

  00098	8d 47 01	 lea	 eax, DWORD PTR [edi+1]
; File C:\Program Files (x86)\Microsoft Visual Studio\2019\Professional\VC\Tools\MSVC\14.29.30133\include\xmemory

; 237  :         if (_Bytes >= _Big_allocation_threshold) { // boost the alignment of big allocations to help autovectorization

  0009b	3d 00 10 00 00	 cmp	 eax, 4096		; 00001000H
  000a0	72 0b		 jb	 SHORT $LN27@assign

; 238  :             return _Allocate_manually_vector_aligned<_Traits>(_Bytes);

  000a2	50		 push	 eax
  000a3	e8 00 00 00 00	 call	 ??$_Allocate_manually_vector_aligned@U_Default_allocate_traits@std@@@std@@YAPAXI@Z ; std::_Allocate_manually_vector_aligned<std::_Default_allocate_traits>
  000a8	83 c4 04	 add	 esp, 4
  000ab	eb 11		 jmp	 SHORT $LN58@assign
$LN27@assign:

; 239  :         }
; 240  :     }
; 241  : #endif // defined(_M_IX86) || defined(_M_X64)
; 242  : 
; 243  :     if (_Bytes != 0) {

  000ad	85 c0		 test	 eax, eax
  000af	74 0b		 je	 SHORT $LN28@assign

; 85   :         return ::operator new(_Bytes);

  000b1	50		 push	 eax
  000b2	e8 00 00 00 00	 call	 ??2@YAPAXI@Z		; operator new
  000b7	83 c4 04	 add	 esp, 4

; 244  :         return _Traits::_Allocate(_Bytes);

  000ba	eb 02		 jmp	 SHORT $LN58@assign
$LN28@assign:

; 245  :     }
; 246  : 
; 247  :     return nullptr;

  000bc	33 c0		 xor	 eax, eax
$LN58@assign:
; File C:\Program Files (x86)\Microsoft Visual Studio\2019\Professional\VC\Tools\MSVC\14.29.30133\include\xstring

; 65   :         _CSTD memcpy(_First1, _First2, _Count * sizeof(_Elem));

  000be	53		 push	 ebx
  000bf	ff 75 08	 push	 DWORD PTR __Ptr$[ebp]

; 4523 :         _Mypair._Myval2._Mysize = _New_size;

  000c2	89 45 0c	 mov	 DWORD PTR $T1[ebp], eax

; 65   :         _CSTD memcpy(_First1, _First2, _Count * sizeof(_Elem));

  000c5	50		 push	 eax

; 4523 :         _Mypair._Myval2._Mysize = _New_size;

  000c6	89 5e 10	 mov	 DWORD PTR [esi+16], ebx

; 4524 :         _Mypair._Myval2._Myres  = _New_capacity;

  000c9	89 7e 14	 mov	 DWORD PTR [esi+20], edi

; 65   :         _CSTD memcpy(_First1, _First2, _Count * sizeof(_Elem));

  000cc	e8 00 00 00 00	 call	 _memcpy

; 3258 :                 _Traits::assign(_New_ptr[_Count], _Elem());

  000d1	8b 7d 0c	 mov	 edi, DWORD PTR $T1[ebp]

; 65   :         _CSTD memcpy(_First1, _First2, _Count * sizeof(_Elem));

  000d4	83 c4 0c	 add	 esp, 12			; 0000000cH

; 4526 :         if (_BUF_SIZE <= _Old_capacity) {

  000d7	8b 45 fc	 mov	 eax, DWORD PTR __Old$1$[ebp]

; 3258 :                 _Traits::assign(_New_ptr[_Count], _Elem());

  000da	c6 04 1f 00	 mov	 BYTE PTR [edi+ebx], 0

; 4526 :         if (_BUF_SIZE <= _Old_capacity) {

  000de	83 f8 10	 cmp	 eax, 16			; 00000010H
  000e1	72 29		 jb	 SHORT $LN13@assign

; 4527 :             _Al.deallocate(_Mypair._Myval2._Bx._Ptr, _Old_capacity + 1);

  000e3	8d 48 01	 lea	 ecx, DWORD PTR [eax+1]
; File C:\Program Files (x86)\Microsoft Visual Studio\2019\Professional\VC\Tools\MSVC\14.29.30133\include\xmemory

; 835  :         _Deallocate<_New_alignof<_Ty>>(_Ptr, sizeof(_Ty) * _Count);

  000e6	8b 06		 mov	 eax, DWORD PTR [esi]

; 260  :         if (_Bytes >= _Big_allocation_threshold) { // boost the alignment of big allocations to help autovectorization

  000e8	81 f9 00 10 00
	00		 cmp	 ecx, 4096		; 00001000H
  000ee	72 12		 jb	 SHORT $LN50@assign

; 158  :     const uintptr_t _Ptr_container   = _Ptr_user[-1];

  000f0	8b 50 fc	 mov	 edx, DWORD PTR [eax-4]
  000f3	83 c1 23	 add	 ecx, 35			; 00000023H

; 159  : 
; 160  :     // If the following asserts, it likely means that we are performing
; 161  :     // an aligned delete on memory coming from an unaligned allocation.
; 162  :     _STL_ASSERT(_Ptr_user[-2] == _Big_allocation_sentinel, "invalid argument");
; 163  : 
; 164  :     // Extra paranoia on aligned allocation/deallocation; ensure _Ptr_container is
; 165  :     // in range [_Min_back_shift, _Non_user_size]
; 166  : #ifdef _DEBUG
; 167  :     constexpr uintptr_t _Min_back_shift = 2 * sizeof(void*);
; 168  : #else // ^^^ _DEBUG ^^^ // vvv !_DEBUG vvv
; 169  :     constexpr uintptr_t _Min_back_shift = sizeof(void*);
; 170  : #endif // _DEBUG
; 171  :     const uintptr_t _Back_shift = reinterpret_cast<uintptr_t>(_Ptr) - _Ptr_container;

  000f6	2b c2		 sub	 eax, edx

; 172  :     _STL_VERIFY(_Back_shift >= _Min_back_shift && _Back_shift <= _Non_user_size, "invalid argument");

  000f8	83 c0 fc	 add	 eax, -4			; fffffffcH
  000fb	83 f8 1f	 cmp	 eax, 31			; 0000001fH
  000fe	77 19		 ja	 SHORT $LN47@assign

; 173  :     _Ptr = reinterpret_cast<void*>(_Ptr_container);

  00100	8b c2		 mov	 eax, edx
$LN50@assign:

; 264  :         ::operator delete(_Ptr, _Bytes);

  00102	51		 push	 ecx
  00103	50		 push	 eax
  00104	e8 00 00 00 00	 call	 ??3@YAXPAXI@Z		; operator delete
  00109	83 c4 08	 add	 esp, 8
$LN13@assign:
; File C:\Program Files (x86)\Microsoft Visual Studio\2019\Professional\VC\Tools\MSVC\14.29.30133\include\xstring

; 3254 :         return _Reallocate_for(

  0010c	89 3e		 mov	 DWORD PTR [esi], edi

; 3259 :             },
; 3260 :             _Ptr);
; 3261 :     }

  0010e	8b c6		 mov	 eax, esi
  00110	5f		 pop	 edi
  00111	5e		 pop	 esi
  00112	5b		 pop	 ebx
  00113	8b e5		 mov	 esp, ebp
  00115	5d		 pop	 ebp
  00116	c2 08 00	 ret	 8
$LN47@assign:
; File C:\Program Files (x86)\Microsoft Visual Studio\2019\Professional\VC\Tools\MSVC\14.29.30133\include\xmemory

; 172  :     _STL_VERIFY(_Back_shift >= _Min_back_shift && _Back_shift <= _Non_user_size, "invalid argument");

  00119	e8 00 00 00 00	 call	 __invalid_parameter_noinfo_noreturn
$LN60@assign:
; File C:\Program Files (x86)\Microsoft Visual Studio\2019\Professional\VC\Tools\MSVC\14.29.30133\include\xstring

; 4509 :             _Xlen_string(); // result too long

  0011e	e8 00 00 00 00	 call	 ?_Xlen_string@std@@YAXXZ ; std::_Xlen_string
$LN56@assign:
  00123	cc		 int	 3
?assign@?$basic_string@DU?$char_traits@D@std@@V?$allocator@D@2@@std@@QAEAAV12@QBDI@Z ENDP ; std::basic_string<char,std::char_traits<char>,std::allocator<char> >::assign
_TEXT	ENDS
; Function compile flags: /Ogtp
; File C:\Program Files (x86)\Microsoft Visual Studio\2019\Professional\VC\Tools\MSVC\14.29.30133\include\xstring
; File C:\Program Files (x86)\Microsoft Visual Studio\2019\Professional\VC\Tools\MSVC\14.29.30133\include\xmemory
; File C:\Program Files (x86)\Microsoft Visual Studio\2019\Professional\VC\Tools\MSVC\14.29.30133\include\xstring
; File C:\Program Files (x86)\Microsoft Visual Studio\2019\Professional\VC\Tools\MSVC\14.29.30133\include\xmemory
; File C:\Program Files (x86)\Microsoft Visual Studio\2019\Professional\VC\Tools\MSVC\14.29.30133\include\xstring
; File C:\Program Files (x86)\Microsoft Visual Studio\2019\Professional\VC\Tools\MSVC\14.29.30133\include\xmemory
; File C:\Program Files (x86)\Microsoft Visual Studio\2019\Professional\VC\Tools\MSVC\14.29.30133\include\xstring
;	COMDAT ??1?$basic_string@DU?$char_traits@D@std@@V?$allocator@D@2@@std@@QAE@XZ
_TEXT	SEGMENT
??1?$basic_string@DU?$char_traits@D@std@@V?$allocator@D@2@@std@@QAE@XZ PROC ; std::basic_string<char,std::char_traits<char>,std::allocator<char> >::~basic_string<char,std::char_traits<char>,std::allocator<char> >, COMDAT
; _this$ = ecx

; 3002 :     _CONSTEXPR20_CONTAINER ~basic_string() noexcept {

  00000	56		 push	 esi
  00001	8b f1		 mov	 esi, ecx

; 2319 :         return _BUF_SIZE <= _Myres;

  00003	8b 4e 14	 mov	 ecx, DWORD PTR [esi+20]
  00006	83 f9 10	 cmp	 ecx, 16			; 00000010H

; 4618 :         if (_Mypair._Myval2._Large_string_engaged()) {

  00009	72 27		 jb	 SHORT $LN12@basic_stri
; File C:\Program Files (x86)\Microsoft Visual Studio\2019\Professional\VC\Tools\MSVC\14.29.30133\include\xmemory

; 835  :         _Deallocate<_New_alignof<_Ty>>(_Ptr, sizeof(_Ty) * _Count);

  0000b	8b 06		 mov	 eax, DWORD PTR [esi]
; File C:\Program Files (x86)\Microsoft Visual Studio\2019\Professional\VC\Tools\MSVC\14.29.30133\include\xstring

; 4622 :             _Al.deallocate(_Ptr, _Mypair._Myval2._Myres + 1);

  0000d	41		 inc	 ecx
; File C:\Program Files (x86)\Microsoft Visual Studio\2019\Professional\VC\Tools\MSVC\14.29.30133\include\xmemory

; 260  :         if (_Bytes >= _Big_allocation_threshold) { // boost the alignment of big allocations to help autovectorization

  0000e	81 f9 00 10 00
	00		 cmp	 ecx, 4096		; 00001000H
  00014	72 12		 jb	 SHORT $LN22@basic_stri

; 158  :     const uintptr_t _Ptr_container   = _Ptr_user[-1];

  00016	8b 50 fc	 mov	 edx, DWORD PTR [eax-4]
  00019	83 c1 23	 add	 ecx, 35			; 00000023H

; 159  : 
; 160  :     // If the following asserts, it likely means that we are performing
; 161  :     // an aligned delete on memory coming from an unaligned allocation.
; 162  :     _STL_ASSERT(_Ptr_user[-2] == _Big_allocation_sentinel, "invalid argument");
; 163  : 
; 164  :     // Extra paranoia on aligned allocation/deallocation; ensure _Ptr_container is
; 165  :     // in range [_Min_back_shift, _Non_user_size]
; 166  : #ifdef _DEBUG
; 167  :     constexpr uintptr_t _Min_back_shift = 2 * sizeof(void*);
; 168  : #else // ^^^ _DEBUG ^^^ // vvv !_DEBUG vvv
; 169  :     constexpr uintptr_t _Min_back_shift = sizeof(void*);
; 170  : #endif // _DEBUG
; 171  :     const uintptr_t _Back_shift = reinterpret_cast<uintptr_t>(_Ptr) - _Ptr_container;

  0001c	2b c2		 sub	 eax, edx

; 172  :     _STL_VERIFY(_Back_shift >= _Min_back_shift && _Back_shift <= _Non_user_size, "invalid argument");

  0001e	83 c0 fc	 add	 eax, -4			; fffffffcH
  00021	83 f8 1f	 cmp	 eax, 31			; 0000001fH
  00024	77 1f		 ja	 SHORT $LN19@basic_stri

; 173  :     _Ptr = reinterpret_cast<void*>(_Ptr_container);

  00026	8b c2		 mov	 eax, edx
$LN22@basic_stri:

; 264  :         ::operator delete(_Ptr, _Bytes);

  00028	51		 push	 ecx
  00029	50		 push	 eax
  0002a	e8 00 00 00 00	 call	 ??3@YAXPAXI@Z		; operator delete
  0002f	83 c4 08	 add	 esp, 8
$LN12@basic_stri:
; File C:\Program Files (x86)\Microsoft Visual Studio\2019\Professional\VC\Tools\MSVC\14.29.30133\include\xstring

; 4633 :             _Mypair._Myval2._Mysize = 0;

  00032	c7 46 10 00 00
	00 00		 mov	 DWORD PTR [esi+16], 0

; 4634 :             _Mypair._Myval2._Myres  = _BUF_SIZE - 1;

  00039	c7 46 14 0f 00
	00 00		 mov	 DWORD PTR [esi+20], 15	; 0000000fH

; 4635 :             // the _Traits::assign is last so the codegen doesn't think the char write can alias this
; 4636 :             _Traits::assign(_Mypair._Myval2._Bx._Buf[0], _Elem());

  00040	c6 06 00	 mov	 BYTE PTR [esi], 0
  00043	5e		 pop	 esi

; 3010 :     }

  00044	c3		 ret	 0
$LN19@basic_stri:
; File C:\Program Files (x86)\Microsoft Visual Studio\2019\Professional\VC\Tools\MSVC\14.29.30133\include\xmemory

; 172  :     _STL_VERIFY(_Back_shift >= _Min_back_shift && _Back_shift <= _Non_user_size, "invalid argument");

  00045	e8 00 00 00 00	 call	 __invalid_parameter_noinfo_noreturn
$LN27@basic_stri:
  0004a	cc		 int	 3
??1?$basic_string@DU?$char_traits@D@std@@V?$allocator@D@2@@std@@QAE@XZ ENDP ; std::basic_string<char,std::char_traits<char>,std::allocator<char> >::~basic_string<char,std::char_traits<char>,std::allocator<char> >
_TEXT	ENDS
; Function compile flags: /Ogtp
; File C:\Program Files (x86)\Microsoft Visual Studio\2019\Professional\VC\Tools\MSVC\14.29.30133\include\xstring
; File C:\Program Files (x86)\Microsoft Visual Studio\2019\Professional\VC\Tools\MSVC\14.29.30133\include\utility
; File C:\Program Files (x86)\Microsoft Visual Studio\2019\Professional\VC\Tools\MSVC\14.29.30133\include\xstring
; File C:\Program Files (x86)\Microsoft Visual Studio\2019\Professional\VC\Tools\MSVC\14.29.30133\include\utility
; File C:\Program Files (x86)\Microsoft Visual Studio\2019\Professional\VC\Tools\MSVC\14.29.30133\include\xstring
; File C:\Program Files (x86)\Microsoft Visual Studio\2019\Professional\VC\Tools\MSVC\14.29.30133\include\xmemory
; File C:\Program Files (x86)\Microsoft Visual Studio\2019\Professional\VC\Tools\MSVC\14.29.30133\include\xstring
;	COMDAT ??0?$basic_string@DU?$char_traits@D@std@@V?$allocator@D@2@@std@@QAE@ABV01@@Z
_TEXT	SEGMENT
__Right_size$1$ = 8					; size = 4
__Right$ = 8						; size = 4
??0?$basic_string@DU?$char_traits@D@std@@V?$allocator@D@2@@std@@QAE@ABV01@@Z PROC ; std::basic_string<char,std::char_traits<char>,std::allocator<char> >::basic_string<char,std::char_traits<char>,std::allocator<char> >, COMDAT
; _this$ = ecx

; 2451 :         : _Mypair(_One_then_variadic_args_t{}, _Alty_traits::select_on_container_copy_construction(_Right._Getal())) {

  00000	55		 push	 ebp
  00001	8b ec		 mov	 ebp, esp
  00003	53		 push	 ebx
  00004	56		 push	 esi
  00005	8b f1		 mov	 esi, ecx
  00007	57		 push	 edi

; 2921 :         const size_type _Right_size   = _Right_data._Mysize;

  00008	8b 7d 08	 mov	 edi, DWORD PTR __Right$[ebp]

; 2346 :         _CONSTEXPR20_CONTAINER _Bxty() noexcept : _Ptr() {} // user-provided, for fancy pointers

  0000b	c7 06 00 00 00
	00		 mov	 DWORD PTR [esi], 0

; 2355 :     size_type _Mysize = 0; // current length of string

  00011	c7 46 10 00 00
	00 00		 mov	 DWORD PTR [esi+16], 0

; 2356 :     size_type _Myres  = 0; // current storage reserved for string

  00018	c7 46 14 00 00
	00 00		 mov	 DWORD PTR [esi+20], 0

; 2319 :         return _BUF_SIZE <= _Myres;

  0001f	83 7f 14 10	 cmp	 DWORD PTR [edi+20], 16	; 00000010H

; 2921 :         const size_type _Right_size   = _Right_data._Mysize;

  00023	8b 4f 10	 mov	 ecx, DWORD PTR [edi+16]
  00026	89 4d 08	 mov	 DWORD PTR __Right_size$1$[ebp], ecx

; 2306 :         if (_Large_string_engaged()) {

  00029	72 02		 jb	 SHORT $LN15@basic_stri

; 2307 :             _Result = _Unfancy(_Bx._Ptr);

  0002b	8b 3f		 mov	 edi, DWORD PTR [edi]
$LN15@basic_stri:

; 2928 :         const bool _Stay_small = _Right_size < _BUF_SIZE;

  0002d	83 f9 10	 cmp	 ecx, 16			; 00000010H

; 2929 : #endif // __cpp_lib_constexpr_string
; 2930 : 
; 2931 :         // NOTE: even if _Right is in large mode, we only go into large mode ourselves if the actual size of _Right
; 2932 :         // requires it
; 2933 :         if (_Stay_small) { // stay small, don't allocate

  00030	73 1a		 jae	 SHORT $LN12@basic_stri

; 65   :         _CSTD memcpy(_First1, _First2, _Count * sizeof(_Elem));

  00032	0f 10 07	 movups	 xmm0, XMMWORD PTR [edi]

; 2936 :             _My_data._Myres  = _BUF_SIZE - 1;

  00035	bb 0f 00 00 00	 mov	 ebx, 15			; 0000000fH

; 2452 :         auto&& _Alproxy = _GET_PROXY_ALLOCATOR(_Alty, _Getal());
; 2453 :         _Container_proxy_ptr<_Alty> _Proxy(_Alproxy, _Mypair._Myval2);
; 2454 :         _Construct_lv_contents(_Right);
; 2455 :         _Proxy._Release();
; 2456 :     }

  0003a	8b c6		 mov	 eax, esi
  0003c	5f		 pop	 edi

; 65   :         _CSTD memcpy(_First1, _First2, _Count * sizeof(_Elem));

  0003d	0f 11 06	 movups	 XMMWORD PTR [esi], xmm0

; 2452 :         auto&& _Alproxy = _GET_PROXY_ALLOCATOR(_Alty, _Getal());
; 2453 :         _Container_proxy_ptr<_Alty> _Proxy(_Alproxy, _Mypair._Myval2);
; 2454 :         _Construct_lv_contents(_Right);
; 2455 :         _Proxy._Release();
; 2456 :     }

  00040	89 4e 10	 mov	 DWORD PTR [esi+16], ecx
  00043	89 5e 14	 mov	 DWORD PTR [esi+20], ebx
  00046	5e		 pop	 esi
  00047	5b		 pop	 ebx
  00048	5d		 pop	 ebp
  00049	c2 04 00	 ret	 4
$LN12@basic_stri:

; 2941 :         const size_type _New_capacity = (_STD min)(_Right_size | _ALLOC_MASK, max_size());

  0004c	8b d9		 mov	 ebx, ecx
; File C:\Program Files (x86)\Microsoft Visual Studio\2019\Professional\VC\Tools\MSVC\14.29.30133\include\utility

; 68   :     return _Right < _Left ? _Right : _Left;

  0004e	b8 ff ff ff 7f	 mov	 eax, 2147483647		; 7fffffffH
; File C:\Program Files (x86)\Microsoft Visual Studio\2019\Professional\VC\Tools\MSVC\14.29.30133\include\xstring

; 2941 :         const size_type _New_capacity = (_STD min)(_Right_size | _ALLOC_MASK, max_size());

  00053	83 cb 0f	 or	 ebx, 15			; 0000000fH
; File C:\Program Files (x86)\Microsoft Visual Studio\2019\Professional\VC\Tools\MSVC\14.29.30133\include\utility

; 68   :     return _Right < _Left ? _Right : _Left;

  00056	3b d8		 cmp	 ebx, eax
  00058	0f 47 d8	 cmova	 ebx, eax
; File C:\Program Files (x86)\Microsoft Visual Studio\2019\Professional\VC\Tools\MSVC\14.29.30133\include\xstring

; 2942 :         const pointer _New_array      = _Al.allocate(_New_capacity + 1); // throws

  0005b	8d 43 01	 lea	 eax, DWORD PTR [ebx+1]
; File C:\Program Files (x86)\Microsoft Visual Studio\2019\Professional\VC\Tools\MSVC\14.29.30133\include\xmemory

; 237  :         if (_Bytes >= _Big_allocation_threshold) { // boost the alignment of big allocations to help autovectorization

  0005e	3d 00 10 00 00	 cmp	 eax, 4096		; 00001000H
  00063	72 0d		 jb	 SHORT $LN26@basic_stri

; 238  :             return _Allocate_manually_vector_aligned<_Traits>(_Bytes);

  00065	50		 push	 eax
  00066	e8 00 00 00 00	 call	 ??$_Allocate_manually_vector_aligned@U_Default_allocate_traits@std@@@std@@YAPAXI@Z ; std::_Allocate_manually_vector_aligned<std::_Default_allocate_traits>
  0006b	83 c4 04	 add	 esp, 4
  0006e	8b c8		 mov	 ecx, eax
  00070	eb 13		 jmp	 SHORT $LN25@basic_stri
$LN26@basic_stri:

; 239  :         }
; 240  :     }
; 241  : #endif // defined(_M_IX86) || defined(_M_X64)
; 242  : 
; 243  :     if (_Bytes != 0) {

  00072	85 c0		 test	 eax, eax
  00074	74 0d		 je	 SHORT $LN27@basic_stri

; 85   :         return ::operator new(_Bytes);

  00076	50		 push	 eax
  00077	e8 00 00 00 00	 call	 ??2@YAPAXI@Z		; operator new
  0007c	83 c4 04	 add	 esp, 4

; 244  :         return _Traits::_Allocate(_Bytes);

  0007f	8b c8		 mov	 ecx, eax
  00081	eb 02		 jmp	 SHORT $LN25@basic_stri
$LN27@basic_stri:

; 245  :     }
; 246  : 
; 247  :     return nullptr;

  00083	33 c9		 xor	 ecx, ecx
$LN25@basic_stri:
; File C:\Program Files (x86)\Microsoft Visual Studio\2019\Professional\VC\Tools\MSVC\14.29.30133\include\xstring

; 2950 :         _Traits::copy(_Unfancy(_New_array), _Right_ptr, _Right_size + 1);

  00085	8b 45 08	 mov	 eax, DWORD PTR __Right_size$1$[ebp]
  00088	40		 inc	 eax
  00089	89 0e		 mov	 DWORD PTR [esi], ecx

; 65   :         _CSTD memcpy(_First1, _First2, _Count * sizeof(_Elem));

  0008b	50		 push	 eax
  0008c	57		 push	 edi
  0008d	51		 push	 ecx
  0008e	e8 00 00 00 00	 call	 _memcpy
  00093	8b 4d 08	 mov	 ecx, DWORD PTR __Right_size$1$[ebp]
  00096	83 c4 0c	 add	 esp, 12			; 0000000cH

; 2452 :         auto&& _Alproxy = _GET_PROXY_ALLOCATOR(_Alty, _Getal());
; 2453 :         _Container_proxy_ptr<_Alty> _Proxy(_Alproxy, _Mypair._Myval2);
; 2454 :         _Construct_lv_contents(_Right);
; 2455 :         _Proxy._Release();
; 2456 :     }

  00099	89 4e 10	 mov	 DWORD PTR [esi+16], ecx
  0009c	8b c6		 mov	 eax, esi
  0009e	89 5e 14	 mov	 DWORD PTR [esi+20], ebx
  000a1	5f		 pop	 edi
  000a2	5e		 pop	 esi
  000a3	5b		 pop	 ebx
  000a4	5d		 pop	 ebp
  000a5	c2 04 00	 ret	 4
??0?$basic_string@DU?$char_traits@D@std@@V?$allocator@D@2@@std@@QAE@ABV01@@Z ENDP ; std::basic_string<char,std::char_traits<char>,std::allocator<char> >::basic_string<char,std::char_traits<char>,std::allocator<char> >
_TEXT	ENDS
; Function compile flags: /Ogtp
; File C:\Program Files (x86)\Microsoft Visual Studio\2019\Professional\VC\Tools\MSVC\14.29.30133\include\xstring
;	COMDAT ?_Xlen_string@std@@YAXXZ
_TEXT	SEGMENT
?_Xlen_string@std@@YAXXZ PROC				; std::_Xlen_string, COMDAT

; 2374 :     _Xlength_error("string too long");

  00000	68 00 00 00 00	 push	 OFFSET ??_C@_0BA@JFNIOLAK@string?5too?5long@
  00005	e8 00 00 00 00	 call	 ?_Xlength_error@std@@YAXPBD@Z ; std::_Xlength_error
$LN3@Xlen_strin:
  0000a	cc		 int	 3
?_Xlen_string@std@@YAXXZ ENDP				; std::_Xlen_string
_TEXT	ENDS
; Function compile flags: /Ogtp
; File C:\Program Files (x86)\Microsoft Visual Studio\2019\Professional\VC\Tools\MSVC\14.29.30133\include\exception
;	COMDAT ?_Throw_bad_array_new_length@std@@YAXXZ
_TEXT	SEGMENT
$T1 = -12						; size = 12
?_Throw_bad_array_new_length@std@@YAXXZ PROC		; std::_Throw_bad_array_new_length, COMDAT

; 320  : [[noreturn]] inline void _Throw_bad_array_new_length() {

  00000	55		 push	 ebp
  00001	8b ec		 mov	 ebp, esp
  00003	83 ec 0c	 sub	 esp, 12			; 0000000cH

; 321  :     _THROW(bad_array_new_length{});

  00006	8d 4d f4	 lea	 ecx, DWORD PTR $T1[ebp]
  00009	e8 00 00 00 00	 call	 ??0bad_array_new_length@std@@QAE@XZ ; std::bad_array_new_length::bad_array_new_length
  0000e	68 00 00 00 00	 push	 OFFSET __TI3?AVbad_array_new_length@std@@
  00013	8d 45 f4	 lea	 eax, DWORD PTR $T1[ebp]
  00016	50		 push	 eax
  00017	e8 00 00 00 00	 call	 __CxxThrowException@8
$LN3@Throw_bad_:
  0001c	cc		 int	 3
?_Throw_bad_array_new_length@std@@YAXXZ ENDP		; std::_Throw_bad_array_new_length
_TEXT	ENDS
; Function compile flags: /Ogtp
; File C:\Program Files (x86)\Microsoft Visual Studio\2019\Professional\VC\Tools\MSVC\14.29.30133\include\vcruntime_exception.h
;	COMDAT ??_Gbad_array_new_length@std@@UAEPAXI@Z
_TEXT	SEGMENT
___flags$ = 8						; size = 4
??_Gbad_array_new_length@std@@UAEPAXI@Z PROC		; std::bad_array_new_length::`scalar deleting destructor', COMDAT
; _this$ = ecx
  00000	55		 push	 ebp
  00001	8b ec		 mov	 ebp, esp

; 89   :     {

  00003	56		 push	 esi
  00004	8b f1		 mov	 esi, ecx

; 90   :         __std_exception_destroy(&_Data);

  00006	8d 46 04	 lea	 eax, DWORD PTR [esi+4]
  00009	c7 06 00 00 00
	00		 mov	 DWORD PTR [esi], OFFSET ??_7exception@std@@6B@
  0000f	50		 push	 eax
  00010	e8 00 00 00 00	 call	 ___std_exception_destroy
  00015	83 c4 04	 add	 esp, 4
  00018	f6 45 08 01	 test	 BYTE PTR ___flags$[ebp], 1
  0001c	74 0b		 je	 SHORT $LN12@scalar
  0001e	6a 0c		 push	 12			; 0000000cH
  00020	56		 push	 esi
  00021	e8 00 00 00 00	 call	 ??3@YAXPAXI@Z		; operator delete
  00026	83 c4 08	 add	 esp, 8
$LN12@scalar:
  00029	8b c6		 mov	 eax, esi
  0002b	5e		 pop	 esi
  0002c	5d		 pop	 ebp
  0002d	c2 04 00	 ret	 4
??_Gbad_array_new_length@std@@UAEPAXI@Z ENDP		; std::bad_array_new_length::`scalar deleting destructor'
_TEXT	ENDS
; Function compile flags: /Ogtp
; File C:\Program Files (x86)\Microsoft Visual Studio\2019\Professional\VC\Tools\MSVC\14.29.30133\include\vcruntime_exception.h
;	COMDAT ??0bad_array_new_length@std@@QAE@ABV01@@Z
_TEXT	SEGMENT
___that$ = 8						; size = 4
??0bad_array_new_length@std@@QAE@ABV01@@Z PROC		; std::bad_array_new_length::bad_array_new_length, COMDAT
; _this$ = ecx
  00000	55		 push	 ebp
  00001	8b ec		 mov	 ebp, esp

; 72   :     {

  00003	56		 push	 esi
  00004	8b f1		 mov	 esi, ecx
  00006	0f 57 c0	 xorps	 xmm0, xmm0

; 71   :         : _Data()

  00009	8d 46 04	 lea	 eax, DWORD PTR [esi+4]

; 73   :         __std_exception_copy(&_Other._Data, &_Data);

  0000c	50		 push	 eax
  0000d	c7 06 00 00 00
	00		 mov	 DWORD PTR [esi], OFFSET ??_7exception@std@@6B@
  00013	66 0f d6 00	 movq	 QWORD PTR [eax], xmm0
  00017	8b 45 08	 mov	 eax, DWORD PTR ___that$[ebp]
  0001a	83 c0 04	 add	 eax, 4
  0001d	50		 push	 eax
  0001e	e8 00 00 00 00	 call	 ___std_exception_copy
  00023	83 c4 08	 add	 esp, 8
  00026	c7 06 00 00 00
	00		 mov	 DWORD PTR [esi], OFFSET ??_7bad_array_new_length@std@@6B@
  0002c	8b c6		 mov	 eax, esi
  0002e	5e		 pop	 esi
  0002f	5d		 pop	 ebp
  00030	c2 04 00	 ret	 4
??0bad_array_new_length@std@@QAE@ABV01@@Z ENDP		; std::bad_array_new_length::bad_array_new_length
_TEXT	ENDS
; Function compile flags: /Ogtp
; File C:\Program Files (x86)\Microsoft Visual Studio\2019\Professional\VC\Tools\MSVC\14.29.30133\include\vcruntime_exception.h
;	COMDAT ??1bad_array_new_length@std@@UAE@XZ
_TEXT	SEGMENT
??1bad_array_new_length@std@@UAE@XZ PROC		; std::bad_array_new_length::~bad_array_new_length, COMDAT
; _this$ = ecx

; 90   :         __std_exception_destroy(&_Data);

  00000	8d 41 04	 lea	 eax, DWORD PTR [ecx+4]
  00003	c7 01 00 00 00
	00		 mov	 DWORD PTR [ecx], OFFSET ??_7exception@std@@6B@
  00009	50		 push	 eax
  0000a	e8 00 00 00 00	 call	 ___std_exception_destroy
  0000f	59		 pop	 ecx
  00010	c3		 ret	 0
??1bad_array_new_length@std@@UAE@XZ ENDP		; std::bad_array_new_length::~bad_array_new_length
_TEXT	ENDS
; Function compile flags: /Ogtp
; File C:\Program Files (x86)\Microsoft Visual Studio\2019\Professional\VC\Tools\MSVC\14.29.30133\include\vcruntime_exception.h
;	COMDAT ??0bad_array_new_length@std@@QAE@XZ
_TEXT	SEGMENT
??0bad_array_new_length@std@@QAE@XZ PROC		; std::bad_array_new_length::bad_array_new_length, COMDAT
; _this$ = ecx

; 141  :     {

  00000	0f 57 c0	 xorps	 xmm0, xmm0

; 142  :     }

  00003	8b c1		 mov	 eax, ecx

; 65   :         : _Data()

  00005	66 0f d6 41 04	 movq	 QWORD PTR [ecx+4], xmm0

; 66   :     {
; 67   :         _Data._What = _Message;

  0000a	c7 41 04 00 00
	00 00		 mov	 DWORD PTR [ecx+4], OFFSET ??_C@_0BF@KINCDENJ@bad?5array?5new?5length@

; 141  :     {

  00011	c7 01 00 00 00
	00		 mov	 DWORD PTR [ecx], OFFSET ??_7bad_array_new_length@std@@6B@

; 142  :     }

  00017	c3		 ret	 0
??0bad_array_new_length@std@@QAE@XZ ENDP		; std::bad_array_new_length::bad_array_new_length
_TEXT	ENDS
; Function compile flags: /Ogtp
; File C:\Program Files (x86)\Microsoft Visual Studio\2019\Professional\VC\Tools\MSVC\14.29.30133\include\vcruntime_exception.h
;	COMDAT ??_Gbad_alloc@std@@UAEPAXI@Z
_TEXT	SEGMENT
___flags$ = 8						; size = 4
??_Gbad_alloc@std@@UAEPAXI@Z PROC			; std::bad_alloc::`scalar deleting destructor', COMDAT
; _this$ = ecx
  00000	55		 push	 ebp
  00001	8b ec		 mov	 ebp, esp

; 89   :     {

  00003	56		 push	 esi
  00004	8b f1		 mov	 esi, ecx

; 90   :         __std_exception_destroy(&_Data);

  00006	8d 46 04	 lea	 eax, DWORD PTR [esi+4]
  00009	c7 06 00 00 00
	00		 mov	 DWORD PTR [esi], OFFSET ??_7exception@std@@6B@
  0000f	50		 push	 eax
  00010	e8 00 00 00 00	 call	 ___std_exception_destroy
  00015	83 c4 04	 add	 esp, 4
  00018	f6 45 08 01	 test	 BYTE PTR ___flags$[ebp], 1
  0001c	74 0b		 je	 SHORT $LN9@scalar
  0001e	6a 0c		 push	 12			; 0000000cH
  00020	56		 push	 esi
  00021	e8 00 00 00 00	 call	 ??3@YAXPAXI@Z		; operator delete
  00026	83 c4 08	 add	 esp, 8
$LN9@scalar:
  00029	8b c6		 mov	 eax, esi
  0002b	5e		 pop	 esi
  0002c	5d		 pop	 ebp
  0002d	c2 04 00	 ret	 4
??_Gbad_alloc@std@@UAEPAXI@Z ENDP			; std::bad_alloc::`scalar deleting destructor'
_TEXT	ENDS
; Function compile flags: /Ogtp
; File C:\Program Files (x86)\Microsoft Visual Studio\2019\Professional\VC\Tools\MSVC\14.29.30133\include\vcruntime_exception.h
;	COMDAT ??0bad_alloc@std@@QAE@ABV01@@Z
_TEXT	SEGMENT
___that$ = 8						; size = 4
??0bad_alloc@std@@QAE@ABV01@@Z PROC			; std::bad_alloc::bad_alloc, COMDAT
; _this$ = ecx
  00000	55		 push	 ebp
  00001	8b ec		 mov	 ebp, esp

; 72   :     {

  00003	56		 push	 esi
  00004	8b f1		 mov	 esi, ecx
  00006	0f 57 c0	 xorps	 xmm0, xmm0

; 71   :         : _Data()

  00009	8d 46 04	 lea	 eax, DWORD PTR [esi+4]

; 73   :         __std_exception_copy(&_Other._Data, &_Data);

  0000c	50		 push	 eax
  0000d	c7 06 00 00 00
	00		 mov	 DWORD PTR [esi], OFFSET ??_7exception@std@@6B@
  00013	66 0f d6 00	 movq	 QWORD PTR [eax], xmm0
  00017	8b 45 08	 mov	 eax, DWORD PTR ___that$[ebp]
  0001a	83 c0 04	 add	 eax, 4
  0001d	50		 push	 eax
  0001e	e8 00 00 00 00	 call	 ___std_exception_copy
  00023	83 c4 08	 add	 esp, 8
  00026	c7 06 00 00 00
	00		 mov	 DWORD PTR [esi], OFFSET ??_7bad_alloc@std@@6B@
  0002c	8b c6		 mov	 eax, esi
  0002e	5e		 pop	 esi
  0002f	5d		 pop	 ebp
  00030	c2 04 00	 ret	 4
??0bad_alloc@std@@QAE@ABV01@@Z ENDP			; std::bad_alloc::bad_alloc
_TEXT	ENDS
; Function compile flags: /Ogtp
; File C:\Program Files (x86)\Microsoft Visual Studio\2019\Professional\VC\Tools\MSVC\14.29.30133\include\vcruntime_exception.h
;	COMDAT ??_Gexception@std@@UAEPAXI@Z
_TEXT	SEGMENT
___flags$ = 8						; size = 4
??_Gexception@std@@UAEPAXI@Z PROC			; std::exception::`scalar deleting destructor', COMDAT
; _this$ = ecx
  00000	55		 push	 ebp
  00001	8b ec		 mov	 ebp, esp

; 89   :     {

  00003	56		 push	 esi
  00004	8b f1		 mov	 esi, ecx

; 90   :         __std_exception_destroy(&_Data);

  00006	8d 46 04	 lea	 eax, DWORD PTR [esi+4]
  00009	c7 06 00 00 00
	00		 mov	 DWORD PTR [esi], OFFSET ??_7exception@std@@6B@
  0000f	50		 push	 eax
  00010	e8 00 00 00 00	 call	 ___std_exception_destroy
  00015	83 c4 04	 add	 esp, 4
  00018	f6 45 08 01	 test	 BYTE PTR ___flags$[ebp], 1
  0001c	74 0b		 je	 SHORT $LN6@scalar
  0001e	6a 0c		 push	 12			; 0000000cH
  00020	56		 push	 esi
  00021	e8 00 00 00 00	 call	 ??3@YAXPAXI@Z		; operator delete
  00026	83 c4 08	 add	 esp, 8
$LN6@scalar:
  00029	8b c6		 mov	 eax, esi
  0002b	5e		 pop	 esi
  0002c	5d		 pop	 ebp
  0002d	c2 04 00	 ret	 4
??_Gexception@std@@UAEPAXI@Z ENDP			; std::exception::`scalar deleting destructor'
_TEXT	ENDS
; Function compile flags: /Ogtp
; File C:\Program Files (x86)\Microsoft Visual Studio\2019\Professional\VC\Tools\MSVC\14.29.30133\include\vcruntime_exception.h
;	COMDAT ?what@exception@std@@UBEPBDXZ
_TEXT	SEGMENT
?what@exception@std@@UBEPBDXZ PROC			; std::exception::what, COMDAT
; _this$ = ecx

; 95   :         return _Data._What ? _Data._What : "Unknown exception";

  00000	8b 49 04	 mov	 ecx, DWORD PTR [ecx+4]
  00003	b8 00 00 00 00	 mov	 eax, OFFSET ??_C@_0BC@EOODALEL@Unknown?5exception@
  00008	85 c9		 test	 ecx, ecx
  0000a	0f 45 c1	 cmovne	 eax, ecx

; 96   :     }

  0000d	c3		 ret	 0
?what@exception@std@@UBEPBDXZ ENDP			; std::exception::what
_TEXT	ENDS
; Function compile flags: /Ogtp
; File C:\Program Files (x86)\Microsoft Visual Studio\2019\Professional\VC\Tools\MSVC\14.29.30133\include\vcruntime_exception.h
;	COMDAT ??1exception@std@@UAE@XZ
_TEXT	SEGMENT
??1exception@std@@UAE@XZ PROC				; std::exception::~exception, COMDAT
; _this$ = ecx

; 90   :         __std_exception_destroy(&_Data);

  00000	8d 41 04	 lea	 eax, DWORD PTR [ecx+4]
  00003	c7 01 00 00 00
	00		 mov	 DWORD PTR [ecx], OFFSET ??_7exception@std@@6B@
  00009	50		 push	 eax
  0000a	e8 00 00 00 00	 call	 ___std_exception_destroy
  0000f	59		 pop	 ecx

; 91   :     }

  00010	c3		 ret	 0
??1exception@std@@UAE@XZ ENDP				; std::exception::~exception
_TEXT	ENDS
; Function compile flags: /Ogtp
; File C:\Program Files (x86)\Microsoft Visual Studio\2019\Professional\VC\Tools\MSVC\14.29.30133\include\vcruntime_exception.h
;	COMDAT ??0exception@std@@QAE@ABV01@@Z
_TEXT	SEGMENT
__Other$ = 8						; size = 4
??0exception@std@@QAE@ABV01@@Z PROC			; std::exception::exception, COMDAT
; _this$ = ecx

; 72   :     {

  00000	55		 push	 ebp
  00001	8b ec		 mov	 ebp, esp
  00003	56		 push	 esi
  00004	8b f1		 mov	 esi, ecx
  00006	0f 57 c0	 xorps	 xmm0, xmm0
  00009	8d 46 04	 lea	 eax, DWORD PTR [esi+4]

; 73   :         __std_exception_copy(&_Other._Data, &_Data);

  0000c	50		 push	 eax
  0000d	c7 06 00 00 00
	00		 mov	 DWORD PTR [esi], OFFSET ??_7exception@std@@6B@
  00013	66 0f d6 00	 movq	 QWORD PTR [eax], xmm0
  00017	8b 45 08	 mov	 eax, DWORD PTR __Other$[ebp]
  0001a	83 c0 04	 add	 eax, 4
  0001d	50		 push	 eax
  0001e	e8 00 00 00 00	 call	 ___std_exception_copy
  00023	83 c4 08	 add	 esp, 8

; 74   :     }

  00026	8b c6		 mov	 eax, esi
  00028	5e		 pop	 esi
  00029	5d		 pop	 ebp
  0002a	c2 04 00	 ret	 4
??0exception@std@@QAE@ABV01@@Z ENDP			; std::exception::exception
_TEXT	ENDS
; Function compile flags: /Ogtp
; File C:\Program Files (x86)\Windows Kits\10\Include\10.0.19041.0\ucrt\stdio.h
;	COMDAT __snprintf
_TEXT	SEGMENT
__Buffer$ = 8						; size = 4
__BufferCount$ = 12					; size = 4
__Format$ = 16						; size = 4
__snprintf PROC						; COMDAT

; 1947 :     {

  00000	55		 push	 ebp
  00001	8b ec		 mov	 ebp, esp

; 1392 :         int const _Result = __stdio_common_vsprintf(

  00003	8d 45 14	 lea	 eax, DWORD PTR __Format$[ebp+4]
  00006	50		 push	 eax
  00007	6a 00		 push	 0
  00009	ff 75 10	 push	 DWORD PTR __Format$[ebp]
  0000c	ff 75 0c	 push	 DWORD PTR __BufferCount$[ebp]
  0000f	ff 75 08	 push	 DWORD PTR __Buffer$[ebp]
  00012	e8 00 00 00 00	 call	 ___local_stdio_printf_options
  00017	8b 08		 mov	 ecx, DWORD PTR [eax]
  00019	ff 70 04	 push	 DWORD PTR [eax+4]
  0001c	83 c9 01	 or	 ecx, 1
  0001f	51		 push	 ecx
  00020	e8 00 00 00 00	 call	 ___stdio_common_vsprintf

; 1393 :             _CRT_INTERNAL_LOCAL_PRINTF_OPTIONS | _CRT_INTERNAL_PRINTF_LEGACY_VSPRINTF_NULL_TERMINATION,
; 1394 :             _Buffer, _BufferCount, _Format, _Locale, _ArgList);
; 1395 : 
; 1396 :         return _Result < 0 ? -1 : _Result;

  00025	83 c9 ff	 or	 ecx, -1
  00028	83 c4 1c	 add	 esp, 28			; 0000001cH
  0002b	85 c0		 test	 eax, eax
  0002d	0f 48 c1	 cmovs	 eax, ecx

; 1948 :         int _Result;
; 1949 :         va_list _ArgList;
; 1950 :         __crt_va_start(_ArgList, _Format);
; 1951 :         _Result = _vsnprintf(_Buffer, _BufferCount, _Format, _ArgList);
; 1952 :         __crt_va_end(_ArgList);
; 1953 :         return _Result;
; 1954 :     }

  00030	5d		 pop	 ebp
  00031	c3		 ret	 0
__snprintf ENDP
_TEXT	ENDS
; Function compile flags: /Ogtp
; File C:\Program Files (x86)\Windows Kits\10\Include\10.0.19041.0\ucrt\corecrt_stdio_config.h
;	COMDAT ___local_stdio_printf_options
_TEXT	SEGMENT
___local_stdio_printf_options PROC			; COMDAT

; 91   :         static unsigned __int64 _OptionsStorage;
; 92   :         return &_OptionsStorage;

  00000	b8 00 00 00 00	 mov	 eax, OFFSET ?_OptionsStorage@?1??__local_stdio_printf_options@@9@4_KA ; `__local_stdio_printf_options'::`2'::_OptionsStorage

; 93   :     }

  00005	c3		 ret	 0
___local_stdio_printf_options ENDP
_TEXT	ENDS
END
