; Listing generated by Microsoft (R) Optimizing Compiler Version 19.29.30137.0 

	TITLE	C:\Users\murat\Desktop\Siveps2-1-99-Project\source\client\Client\EterLib\Distribute\GrpTextInstance.obj
	.686P
	.XMM
	include listing.inc
	.model	flat

INCLUDELIB LIBCMT
INCLUDELIB OLDNAMES

PUBLIC	??_7?$CDynamicPool@VCGraphicTextInstance@@@@6B@	; CDynamicPool<CGraphicTextInstance>::`vftable'
PUBLIC	??_G?$CDynamicPool@VCGraphicTextInstance@@@@UAEPAXI@Z ; CDynamicPool<CGraphicTextInstance>::`scalar deleting destructor'
PUBLIC	??_R4?$CDynamicPool@VCGraphicTextInstance@@@@6B@ ; CDynamicPool<CGraphicTextInstance>::`RTTI Complete Object Locator'
PUBLIC	??_R0?AV?$CDynamicPool@VCGraphicTextInstance@@@@@8 ; CDynamicPool<CGraphicTextInstance> `RTTI Type Descriptor'
PUBLIC	??_R3?$CDynamicPool@VCGraphicTextInstance@@@@8	; CDynamicPool<CGraphicTextInstance>::`RTTI Class Hierarchy Descriptor'
PUBLIC	??_R2?$CDynamicPool@VCGraphicTextInstance@@@@8	; CDynamicPool<CGraphicTextInstance>::`RTTI Base Class Array'
PUBLIC	??_R1A@?0A@EA@?$CDynamicPool@VCGraphicTextInstance@@@@8 ; CDynamicPool<CGraphicTextInstance>::`RTTI Base Class Descriptor at (0,-1,0,64)'
EXTRN	??_E?$CDynamicPool@VCGraphicTextInstance@@@@UAEPAXI@Z:PROC ; CDynamicPool<CGraphicTextInstance>::`vector deleting destructor'
EXTRN	??_7type_info@@6B@:QWORD			; type_info::`vftable'
CONST	SEGMENT
?c_FillRectIndices@@3QBGB DW 00H			; c_FillRectIndices
	DW	02H
	DW	01H
	DW	02H
	DW	03H
	DW	01H
?_Fake_alloc@std@@3U_Fake_allocator@1@B	ORG $+1		; std::_Fake_alloc
CONST	ENDS
;	COMDAT ??_R1A@?0A@EA@?$CDynamicPool@VCGraphicTextInstance@@@@8
rdata$r	SEGMENT
??_R1A@?0A@EA@?$CDynamicPool@VCGraphicTextInstance@@@@8 DD FLAT:??_R0?AV?$CDynamicPool@VCGraphicTextInstance@@@@@8 ; CDynamicPool<CGraphicTextInstance>::`RTTI Base Class Descriptor at (0,-1,0,64)'
	DD	00H
	DD	00H
	DD	0ffffffffH
	DD	00H
	DD	040H
	DD	FLAT:??_R3?$CDynamicPool@VCGraphicTextInstance@@@@8
rdata$r	ENDS
;	COMDAT ??_R2?$CDynamicPool@VCGraphicTextInstance@@@@8
rdata$r	SEGMENT
??_R2?$CDynamicPool@VCGraphicTextInstance@@@@8 DD FLAT:??_R1A@?0A@EA@?$CDynamicPool@VCGraphicTextInstance@@@@8 ; CDynamicPool<CGraphicTextInstance>::`RTTI Base Class Array'
rdata$r	ENDS
;	COMDAT ??_R3?$CDynamicPool@VCGraphicTextInstance@@@@8
rdata$r	SEGMENT
??_R3?$CDynamicPool@VCGraphicTextInstance@@@@8 DD 00H	; CDynamicPool<CGraphicTextInstance>::`RTTI Class Hierarchy Descriptor'
	DD	00H
	DD	01H
	DD	FLAT:??_R2?$CDynamicPool@VCGraphicTextInstance@@@@8
rdata$r	ENDS
;	COMDAT ??_R0?AV?$CDynamicPool@VCGraphicTextInstance@@@@@8
data$rs	SEGMENT
??_R0?AV?$CDynamicPool@VCGraphicTextInstance@@@@@8 DD FLAT:??_7type_info@@6B@ ; CDynamicPool<CGraphicTextInstance> `RTTI Type Descriptor'
	DD	00H
	DB	'.?AV?$CDynamicPool@VCGraphicTextInstance@@@@', 00H
data$rs	ENDS
;	COMDAT ??_R4?$CDynamicPool@VCGraphicTextInstance@@@@6B@
rdata$r	SEGMENT
??_R4?$CDynamicPool@VCGraphicTextInstance@@@@6B@ DD 00H	; CDynamicPool<CGraphicTextInstance>::`RTTI Complete Object Locator'
	DD	00H
	DD	00H
	DD	FLAT:??_R0?AV?$CDynamicPool@VCGraphicTextInstance@@@@@8
	DD	FLAT:??_R3?$CDynamicPool@VCGraphicTextInstance@@@@8
rdata$r	ENDS
;	COMDAT ??_7?$CDynamicPool@VCGraphicTextInstance@@@@6B@
CONST	SEGMENT
??_7?$CDynamicPool@VCGraphicTextInstance@@@@6B@ DD FLAT:??_R4?$CDynamicPool@VCGraphicTextInstance@@@@6B@ ; CDynamicPool<CGraphicTextInstance>::`vftable'
	DD	FLAT:??_E?$CDynamicPool@VCGraphicTextInstance@@@@UAEPAXI@Z
CONST	ENDS
PUBLIC	??_H@YGXPAXIIP6EPAX0@Z@Z			; `vector constructor iterator'
PUBLIC	___local_stdio_printf_options
PUBLIC	__snprintf
PUBLIC	??0exception@std@@QAE@ABV01@@Z			; std::exception::exception
PUBLIC	??1exception@std@@UAE@XZ			; std::exception::~exception
PUBLIC	?what@exception@std@@UBEPBDXZ			; std::exception::what
PUBLIC	??_Gexception@std@@UAEPAXI@Z			; std::exception::`scalar deleting destructor'
PUBLIC	??0bad_alloc@std@@QAE@ABV01@@Z			; std::bad_alloc::bad_alloc
PUBLIC	??_Gbad_alloc@std@@UAEPAXI@Z			; std::bad_alloc::`scalar deleting destructor'
PUBLIC	??0bad_array_new_length@std@@QAE@XZ		; std::bad_array_new_length::bad_array_new_length
PUBLIC	??1bad_array_new_length@std@@UAE@XZ		; std::bad_array_new_length::~bad_array_new_length
PUBLIC	??0bad_array_new_length@std@@QAE@ABV01@@Z	; std::bad_array_new_length::bad_array_new_length
PUBLIC	??_Gbad_array_new_length@std@@UAEPAXI@Z		; std::bad_array_new_length::`scalar deleting destructor'
PUBLIC	?_Throw_bad_array_new_length@std@@YAXXZ		; std::_Throw_bad_array_new_length
PUBLIC	?_Xlen_string@std@@YAXXZ			; std::_Xlen_string
PUBLIC	??1?$basic_string@DU?$char_traits@D@std@@V?$allocator@D@2@@std@@QAE@XZ ; std::basic_string<char,std::char_traits<char>,std::allocator<char> >::~basic_string<char,std::char_traits<char>,std::allocator<char> >
PUBLIC	?assign@?$basic_string@DU?$char_traits@D@std@@V?$allocator@D@2@@std@@QAEAAV12@QBDI@Z ; std::basic_string<char,std::char_traits<char>,std::allocator<char> >::assign
PUBLIC	??1?$basic_string@_WU?$char_traits@_W@std@@V?$allocator@_W@2@@std@@QAE@XZ ; std::basic_string<wchar_t,std::char_traits<wchar_t>,std::allocator<wchar_t> >::~basic_string<wchar_t,std::char_traits<wchar_t>,std::allocator<wchar_t> >
PUBLIC	??4?$basic_string@_WU?$char_traits@_W@std@@V?$allocator@_W@2@@std@@QAEAAV01@ABV01@@Z ; std::basic_string<wchar_t,std::char_traits<wchar_t>,std::allocator<wchar_t> >::operator=
PUBLIC	?assign@?$basic_string@_WU?$char_traits@_W@std@@V?$allocator@_W@2@@std@@QAEAAV12@QB_WI@Z ; std::basic_string<wchar_t,std::char_traits<wchar_t>,std::allocator<wchar_t> >::assign
PUBLIC	??$_Traits_compare@U?$char_traits@D@std@@@std@@YAHQBDI0I@Z ; std::_Traits_compare<std::char_traits<char> >
PUBLIC	??$_Allocate_manually_vector_aligned@U_Default_allocate_traits@std@@@std@@YAPAXI@Z ; std::_Allocate_manually_vector_aligned<std::_Default_allocate_traits>
PUBLIC	??0SPDTVertex@@QAE@XZ				; SPDTVertex::SPDTVertex
PUBLIC	?Hyperlink_UpdateMousePos@CGraphicTextInstance@@SAXHH@Z ; CGraphicTextInstance::Hyperlink_UpdateMousePos
PUBLIC	?Hyperlink_GetText@CGraphicTextInstance@@SAHPADH@Z ; CGraphicTextInstance::Hyperlink_GetText
PUBLIC	??0CGraphicTextInstance@@QAE@XZ			; CGraphicTextInstance::CGraphicTextInstance
PUBLIC	??1CGraphicTextInstance@@UAE@XZ			; CGraphicTextInstance::~CGraphicTextInstance
PUBLIC	?Destroy@CGraphicTextInstance@@QAEXXZ		; CGraphicTextInstance::Destroy
PUBLIC	?Update@CGraphicTextInstance@@QAEXXZ		; CGraphicTextInstance::Update
PUBLIC	?Render@CGraphicTextInstance@@QAEXPAUtagRECT@@@Z ; CGraphicTextInstance::Render
PUBLIC	?ShowCursor@CGraphicTextInstance@@QAEXXZ	; CGraphicTextInstance::ShowCursor
PUBLIC	?HideCursor@CGraphicTextInstance@@QAEXXZ	; CGraphicTextInstance::HideCursor
PUBLIC	?ShowOutLine@CGraphicTextInstance@@QAEXXZ	; CGraphicTextInstance::ShowOutLine
PUBLIC	?HideOutLine@CGraphicTextInstance@@QAEXXZ	; CGraphicTextInstance::HideOutLine
PUBLIC	?SetColor@CGraphicTextInstance@@QAEXK@Z		; CGraphicTextInstance::SetColor
PUBLIC	?SetColor@CGraphicTextInstance@@QAEXMMMM@Z	; CGraphicTextInstance::SetColor
PUBLIC	?SetOutLineColor@CGraphicTextInstance@@QAEXK@Z	; CGraphicTextInstance::SetOutLineColor
PUBLIC	?SetOutLineColor@CGraphicTextInstance@@QAEXMMMM@Z ; CGraphicTextInstance::SetOutLineColor
PUBLIC	?SetHorizonalAlign@CGraphicTextInstance@@QAEXH@Z ; CGraphicTextInstance::SetHorizonalAlign
PUBLIC	?SetVerticalAlign@CGraphicTextInstance@@QAEXH@Z	; CGraphicTextInstance::SetVerticalAlign
PUBLIC	?SetMax@CGraphicTextInstance@@QAEXH@Z		; CGraphicTextInstance::SetMax
PUBLIC	?SetTextPointer@CGraphicTextInstance@@QAEXPAVCGraphicText@@@Z ; CGraphicTextInstance::SetTextPointer
PUBLIC	?SetValueString@CGraphicTextInstance@@QAEXABV?$basic_string@DU?$char_traits@D@std@@V?$allocator@D@2@@std@@@Z ; CGraphicTextInstance::SetValueString
PUBLIC	?SetValue@CGraphicTextInstance@@QAEXPBDI@Z	; CGraphicTextInstance::SetValue
PUBLIC	?SetPosition@CGraphicTextInstance@@QAEXMMM@Z	; CGraphicTextInstance::SetPosition
PUBLIC	?SetSecret@CGraphicTextInstance@@QAEX_N@Z	; CGraphicTextInstance::SetSecret
PUBLIC	?SetOutline@CGraphicTextInstance@@QAEX_N@Z	; CGraphicTextInstance::SetOutline
PUBLIC	?SetFeather@CGraphicTextInstance@@QAEX_N@Z	; CGraphicTextInstance::SetFeather
PUBLIC	?SetMultiLine@CGraphicTextInstance@@QAEX_N@Z	; CGraphicTextInstance::SetMultiLine
PUBLIC	?SetLimitWidth@CGraphicTextInstance@@QAEXM@Z	; CGraphicTextInstance::SetLimitWidth
PUBLIC	?GetTextSize@CGraphicTextInstance@@QAEXPAH0@Z	; CGraphicTextInstance::GetTextSize
PUBLIC	?GetValueStringReference@CGraphicTextInstance@@QAEABV?$basic_string@DU?$char_traits@D@std@@V?$allocator@D@2@@std@@XZ ; CGraphicTextInstance::GetValueStringReference
PUBLIC	?GetTextLineCount@CGraphicTextInstance@@QAEGXZ	; CGraphicTextInstance::GetTextLineCount
PUBLIC	?PixelPositionToCharacterPosition@CGraphicTextInstance@@QAEHH@Z ; CGraphicTextInstance::PixelPositionToCharacterPosition
PUBLIC	?GetHorizontalAlign@CGraphicTextInstance@@QAEHXZ ; CGraphicTextInstance::GetHorizontalAlign
PUBLIC	?__Initialize@CGraphicTextInstance@@IAEXXZ	; CGraphicTextInstance::__Initialize
PUBLIC	?__DrawCharacter@CGraphicTextInstance@@IAEHPAVCGraphicFontTexture@@G_WK@Z ; CGraphicTextInstance::__DrawCharacter
PUBLIC	?__GetTextPos@CGraphicTextInstance@@IAEXKPAM0@Z	; CGraphicTextInstance::__GetTextPos
PUBLIC	??1SHyperlink@CGraphicTextInstance@@QAE@XZ	; CGraphicTextInstance::SHyperlink::~SHyperlink
PUBLIC	??1?$CRef@VCGraphicText@@@@QAE@XZ		; CRef<CGraphicText>::~CRef<CGraphicText>
PUBLIC	??1?$vector@PAUSCharacterInfomation@CGraphicFontTexture@@V?$allocator@PAUSCharacterInfomation@CGraphicFontTexture@@@std@@@std@@QAE@XZ ; std::vector<CGraphicFontTexture::SCharacterInfomation *,std::allocator<CGraphicFontTexture::SCharacterInfomation *> >::~vector<CGraphicFontTexture::SCharacterInfomation *,std::allocator<CGraphicFontTexture::SCharacterInfomation *> >
PUBLIC	?_Xlength@?$vector@PAUSCharacterInfomation@CGraphicFontTexture@@V?$allocator@PAUSCharacterInfomation@CGraphicFontTexture@@@std@@@std@@CAXXZ ; std::vector<CGraphicFontTexture::SCharacterInfomation *,std::allocator<CGraphicFontTexture::SCharacterInfomation *> >::_Xlength
PUBLIC	??1?$vector@KV?$allocator@K@std@@@std@@QAE@XZ	; std::vector<unsigned long,std::allocator<unsigned long> >::~vector<unsigned long,std::allocator<unsigned long> >
PUBLIC	?_Xlength@?$vector@KV?$allocator@K@std@@@std@@CAXXZ ; std::vector<unsigned long,std::allocator<unsigned long> >::_Xlength
PUBLIC	?deallocate@?$allocator@USHyperlink@CGraphicTextInstance@@@std@@QAEXQAUSHyperlink@CGraphicTextInstance@@I@Z ; std::allocator<CGraphicTextInstance::SHyperlink>::deallocate
PUBLIC	??1?$vector@USHyperlink@CGraphicTextInstance@@V?$allocator@USHyperlink@CGraphicTextInstance@@@std@@@std@@QAE@XZ ; std::vector<CGraphicTextInstance::SHyperlink,std::allocator<CGraphicTextInstance::SHyperlink> >::~vector<CGraphicTextInstance::SHyperlink,std::allocator<CGraphicTextInstance::SHyperlink> >
PUBLIC	?clear@?$vector@USHyperlink@CGraphicTextInstance@@V?$allocator@USHyperlink@CGraphicTextInstance@@@std@@@std@@QAEXXZ ; std::vector<CGraphicTextInstance::SHyperlink,std::allocator<CGraphicTextInstance::SHyperlink> >::clear
PUBLIC	?_Destroy@?$vector@USHyperlink@CGraphicTextInstance@@V?$allocator@USHyperlink@CGraphicTextInstance@@@std@@@std@@AAEXPAUSHyperlink@CGraphicTextInstance@@0@Z ; std::vector<CGraphicTextInstance::SHyperlink,std::allocator<CGraphicTextInstance::SHyperlink> >::_Destroy
PUBLIC	?_Xlength@?$vector@USHyperlink@CGraphicTextInstance@@V?$allocator@USHyperlink@CGraphicTextInstance@@@std@@@std@@CAXXZ ; std::vector<CGraphicTextInstance::SHyperlink,std::allocator<CGraphicTextInstance::SHyperlink> >::_Xlength
PUBLIC	??1?$vector@USEmoji@CGraphicTextInstance@@V?$allocator@USEmoji@CGraphicTextInstance@@@std@@@std@@QAE@XZ ; std::vector<CGraphicTextInstance::SEmoji,std::allocator<CGraphicTextInstance::SEmoji> >::~vector<CGraphicTextInstance::SEmoji,std::allocator<CGraphicTextInstance::SEmoji> >
PUBLIC	?_Xlength@?$vector@USEmoji@CGraphicTextInstance@@V?$allocator@USEmoji@CGraphicTextInstance@@@std@@@std@@CAXXZ ; std::vector<CGraphicTextInstance::SEmoji,std::allocator<CGraphicTextInstance::SEmoji> >::_Xlength
PUBLIC	?CreateSystem@CGraphicTextInstance@@SAXI@Z	; CGraphicTextInstance::CreateSystem
PUBLIC	?DestroySystem@CGraphicTextInstance@@SAXXZ	; CGraphicTextInstance::DestroySystem
PUBLIC	?New@CGraphicTextInstance@@SAPAV1@XZ		; CGraphicTextInstance::New
PUBLIC	?Delete@CGraphicTextInstance@@SAXPAV1@@Z	; CGraphicTextInstance::Delete
PUBLIC	??_GCGraphicTextInstance@@UAEPAXI@Z		; CGraphicTextInstance::`scalar deleting destructor'
PUBLIC	?FindToken@@YAPBDPBD0@Z				; FindToken
PUBLIC	?ReadToken@@YAHPBD@Z				; ReadToken
PUBLIC	??1?$CDynamicPool@VCGraphicTextInstance@@@@UAE@XZ ; CDynamicPool<CGraphicTextInstance>::~CDynamicPool<CGraphicTextInstance>
PUBLIC	?Delete@?$CDynamicPool@VCGraphicTextInstance@@@@KAXPAVCGraphicTextInstance@@@Z ; CDynamicPool<CGraphicTextInstance>::Delete
PUBLIC	?_Reallocate_exactly@?$vector@PAVCGraphicTextInstance@@V?$allocator@PAVCGraphicTextInstance@@@std@@@std@@AAEXI@Z ; std::vector<CGraphicTextInstance *,std::allocator<CGraphicTextInstance *> >::_Reallocate_exactly
PUBLIC	?_Change_array@?$vector@PAVCGraphicTextInstance@@V?$allocator@PAVCGraphicTextInstance@@@std@@@std@@AAEXQAPAVCGraphicTextInstance@@II@Z ; std::vector<CGraphicTextInstance *,std::allocator<CGraphicTextInstance *> >::_Change_array
PUBLIC	?_Xlength@?$vector@PAVCGraphicTextInstance@@V?$allocator@PAVCGraphicTextInstance@@@std@@@std@@CAXXZ ; std::vector<CGraphicTextInstance *,std::allocator<CGraphicTextInstance *> >::_Xlength
PUBLIC	?isNumberic@@YA_ND@Z				; isNumberic
PUBLIC	?IsValidToken@@YA_NPBD@Z			; IsValidToken
PUBLIC	??$_Emplace_reallocate@ABUSEmoji@CGraphicTextInstance@@@?$vector@USEmoji@CGraphicTextInstance@@V?$allocator@USEmoji@CGraphicTextInstance@@@std@@@std@@QAEPAUSEmoji@CGraphicTextInstance@@QAU23@ABU23@@Z ; std::vector<CGraphicTextInstance::SEmoji,std::allocator<CGraphicTextInstance::SEmoji> >::_Emplace_reallocate<CGraphicTextInstance::SEmoji const &>
PUBLIC	??$construct@USHyperlink@CGraphicTextInstance@@ABU12@@?$_Default_allocator_traits@V?$allocator@USHyperlink@CGraphicTextInstance@@@std@@@std@@SAXAAV?$allocator@USHyperlink@CGraphicTextInstance@@@1@QAUSHyperlink@CGraphicTextInstance@@ABU34@@Z ; std::_Default_allocator_traits<std::allocator<CGraphicTextInstance::SHyperlink> >::construct<CGraphicTextInstance::SHyperlink,CGraphicTextInstance::SHyperlink const &>
PUBLIC	??$_Emplace_reallocate@ABUSHyperlink@CGraphicTextInstance@@@?$vector@USHyperlink@CGraphicTextInstance@@V?$allocator@USHyperlink@CGraphicTextInstance@@@std@@@std@@QAEPAUSHyperlink@CGraphicTextInstance@@QAU23@ABU23@@Z ; std::vector<CGraphicTextInstance::SHyperlink,std::allocator<CGraphicTextInstance::SHyperlink> >::_Emplace_reallocate<CGraphicTextInstance::SHyperlink const &>
PUBLIC	??$_Emplace_reallocate@ABK@?$vector@KV?$allocator@K@std@@@std@@QAEPAKQAKABK@Z ; std::vector<unsigned long,std::allocator<unsigned long> >::_Emplace_reallocate<unsigned long const &>
PUBLIC	??$_Emplace_reallocate@ABQAUSCharacterInfomation@CGraphicFontTexture@@@?$vector@PAUSCharacterInfomation@CGraphicFontTexture@@V?$allocator@PAUSCharacterInfomation@CGraphicFontTexture@@@std@@@std@@QAEPAPAUSCharacterInfomation@CGraphicFontTexture@@QAPAU23@ABQAU23@@Z ; std::vector<CGraphicFontTexture::SCharacterInfomation *,std::allocator<CGraphicFontTexture::SCharacterInfomation *> >::_Emplace_reallocate<CGraphicFontTexture::SCharacterInfomation * const &>
PUBLIC	??$_Reallocate_grow_by@V<lambda_c3135ae829aeedc0a8af1bd1e887c66a>@@I_W@?$basic_string@_WU?$char_traits@_W@std@@V?$allocator@_W@2@@std@@AAEAAV01@IV<lambda_c3135ae829aeedc0a8af1bd1e887c66a>@@I_W@Z ; std::basic_string<wchar_t,std::char_traits<wchar_t>,std::allocator<wchar_t> >::_Reallocate_grow_by<<lambda_c3135ae829aeedc0a8af1bd1e887c66a>,unsigned int,wchar_t>
PUBLIC	??$_Emplace_reallocate@ABQAVCGraphicTextInstance@@@?$vector@PAVCGraphicTextInstance@@V?$allocator@PAVCGraphicTextInstance@@@std@@@std@@QAEPAPAVCGraphicTextInstance@@QAPAV2@ABQAV2@@Z ; std::vector<CGraphicTextInstance *,std::allocator<CGraphicTextInstance *> >::_Emplace_reallocate<CGraphicTextInstance * const &>
PUBLIC	??$_Copy_memmove@PAPAVCGraphicTextInstance@@PAPAV1@@std@@YAPAPAVCGraphicTextInstance@@PAPAV1@00@Z ; std::_Copy_memmove<CGraphicTextInstance * *,CGraphicTextInstance * *>
PUBLIC	??$_Uninitialized_move@PAUSHyperlink@CGraphicTextInstance@@V?$allocator@USHyperlink@CGraphicTextInstance@@@std@@@std@@YAPAUSHyperlink@CGraphicTextInstance@@QAU12@0PAU12@AAV?$allocator@USHyperlink@CGraphicTextInstance@@@0@@Z ; std::_Uninitialized_move<CGraphicTextInstance::SHyperlink *,std::allocator<CGraphicTextInstance::SHyperlink> >
PUBLIC	??$_Copy_memmove@PAKPAK@std@@YAPAKPAK00@Z	; std::_Copy_memmove<unsigned long *,unsigned long *>
PUBLIC	??$_Copy_memmove@PAPAUSCharacterInfomation@CGraphicFontTexture@@PAPAU12@@std@@YAPAPAUSCharacterInfomation@CGraphicFontTexture@@PAPAU12@00@Z ; std::_Copy_memmove<CGraphicFontTexture::SCharacterInfomation * *,CGraphicFontTexture::SCharacterInfomation * *>
PUBLIC	?_OptionsStorage@?1??__local_stdio_printf_options@@9@4_KA ; `__local_stdio_printf_options'::`2'::_OptionsStorage
PUBLIC	??_7exception@std@@6B@				; std::exception::`vftable'
PUBLIC	??_C@_0BC@EOODALEL@Unknown?5exception@		; `string'
PUBLIC	??_7bad_alloc@std@@6B@				; std::bad_alloc::`vftable'
PUBLIC	??_7bad_array_new_length@std@@6B@		; std::bad_array_new_length::`vftable'
PUBLIC	??_C@_0BF@KINCDENJ@bad?5array?5new?5length@	; `string'
PUBLIC	__TI3?AVbad_array_new_length@std@@
PUBLIC	__CTA3?AVbad_array_new_length@std@@
PUBLIC	??_R0?AVbad_array_new_length@std@@@8		; std::bad_array_new_length `RTTI Type Descriptor'
PUBLIC	__CT??_R0?AVbad_array_new_length@std@@@8??0bad_array_new_length@std@@QAE@ABV01@@Z12
PUBLIC	??_R0?AVbad_alloc@std@@@8			; std::bad_alloc `RTTI Type Descriptor'
PUBLIC	__CT??_R0?AVbad_alloc@std@@@8??0bad_alloc@std@@QAE@ABV01@@Z12
PUBLIC	??_R0?AVexception@std@@@8			; std::exception `RTTI Type Descriptor'
PUBLIC	__CT??_R0?AVexception@std@@@8??0exception@std@@QAE@ABV01@@Z12
PUBLIC	??_C@_0BA@JFNIOLAK@string?5too?5long@		; `string'
PUBLIC	??_R4exception@std@@6B@				; std::exception::`RTTI Complete Object Locator'
PUBLIC	??_R3exception@std@@8				; std::exception::`RTTI Class Hierarchy Descriptor'
PUBLIC	??_R2exception@std@@8				; std::exception::`RTTI Base Class Array'
PUBLIC	??_R1A@?0A@EA@exception@std@@8			; std::exception::`RTTI Base Class Descriptor at (0,-1,0,64)'
PUBLIC	??_R4bad_alloc@std@@6B@				; std::bad_alloc::`RTTI Complete Object Locator'
PUBLIC	??_R3bad_alloc@std@@8				; std::bad_alloc::`RTTI Class Hierarchy Descriptor'
PUBLIC	??_R2bad_alloc@std@@8				; std::bad_alloc::`RTTI Base Class Array'
PUBLIC	??_R1A@?0A@EA@bad_alloc@std@@8			; std::bad_alloc::`RTTI Base Class Descriptor at (0,-1,0,64)'
PUBLIC	??_R4bad_array_new_length@std@@6B@		; std::bad_array_new_length::`RTTI Complete Object Locator'
PUBLIC	??_R3bad_array_new_length@std@@8		; std::bad_array_new_length::`RTTI Class Hierarchy Descriptor'
PUBLIC	??_R2bad_array_new_length@std@@8		; std::bad_array_new_length::`RTTI Base Class Array'
PUBLIC	??_R1A@?0A@EA@bad_array_new_length@std@@8	; std::bad_array_new_length::`RTTI Base Class Descriptor at (0,-1,0,64)'
PUBLIC	?ms_kPool@CGraphicTextInstance@@2V?$CDynamicPool@VCGraphicTextInstance@@@@A ; CGraphicTextInstance::ms_kPool
PUBLIC	??_7CGraphicTextInstance@@6B@			; CGraphicTextInstance::`vftable'
PUBLIC	?ms_singleton@?$CSingleton@VCStateManager@@@@0PAVCStateManager@@A ; CSingleton<CStateManager>::ms_singleton
PUBLIC	?ms_singleton@?$CSingleton@VCResourceManager@@@@0PAVCResourceManager@@A ; CSingleton<CResourceManager>::ms_singleton
PUBLIC	??_C@_11LOCGONAA@@				; `string'
PUBLIC	??_C@_0DG@FOMBDJDA@CGraphicTextInstance?3?3Update?5?9?5@ ; `string'
PUBLIC	??_C@_0M@NHBNKCLI@icon?1?$CFs?4tga@		; `string'
PUBLIC	??_C@_00CNPNBAHC@@				; `string'
PUBLIC	??_C@_0BA@FOIKENOD@vector?5too?5long@		; `string'
PUBLIC	??_R4CGraphicTextInstance@@6B@			; CGraphicTextInstance::`RTTI Complete Object Locator'
PUBLIC	??_R0?AVCGraphicTextInstance@@@8		; CGraphicTextInstance `RTTI Type Descriptor'
PUBLIC	??_R3CGraphicTextInstance@@8			; CGraphicTextInstance::`RTTI Class Hierarchy Descriptor'
PUBLIC	??_R2CGraphicTextInstance@@8			; CGraphicTextInstance::`RTTI Base Class Array'
PUBLIC	??_R1A@?0A@EA@CGraphicTextInstance@@8		; CGraphicTextInstance::`RTTI Base Class Descriptor at (0,-1,0,64)'
PUBLIC	__real@3f000000
PUBLIC	__real@3f800000
PUBLIC	__real@40000000
PUBLIC	__real@401c000000000000
PUBLIC	__real@437f0000
EXTRN	??2@YAPAXI@Z:PROC				; operator new
EXTRN	??3@YAXPAXI@Z:PROC				; operator delete
EXTRN	_atexit:PROC
EXTRN	___report_rangecheckfailure:PROC
EXTRN	___std_terminate:PROC
EXTRN	__invalid_parameter_noinfo_noreturn:PROC
EXTRN	___stdio_common_vsprintf:PROC
EXTRN	___std_exception_copy:PROC
EXTRN	___std_exception_destroy:PROC
EXTRN	??_Eexception@std@@UAEPAXI@Z:PROC		; std::exception::`vector deleting destructor'
EXTRN	??_Ebad_alloc@std@@UAEPAXI@Z:PROC		; std::bad_alloc::`vector deleting destructor'
EXTRN	??_Ebad_array_new_length@std@@UAEPAXI@Z:PROC	; std::bad_array_new_length::`vector deleting destructor'
EXTRN	?_Xlength_error@std@@YAXPBD@Z:PROC		; std::_Xlength_error
EXTRN	?Tracef@@YAXPBDZZ:PROC				; Tracef
EXTRN	?AddReference@CReferenceObject@@QAEXXZ:PROC	; CReferenceObject::AddReference
EXTRN	?Release@CReferenceObject@@QAEXXZ:PROC		; CReferenceObject::Release
EXTRN	?IsEmpty@CResource@@QBE_NXZ:PROC		; CResource::IsEmpty
EXTRN	?SetDefaultIndexBuffer@CGraphicBase@@SAXI@Z:PROC ; CGraphicBase::SetDefaultIndexBuffer
EXTRN	?SetPDTStream@CGraphicBase@@SA_NPAUSPDTVertex@@I@Z:PROC ; CGraphicBase::SetPDTStream
EXTRN	?GetD3DTexture@CGraphicTexture@@QBEPAUIDirect3DTexture8@@XZ:PROC ; CGraphicTexture::GetD3DTexture
EXTRN	?SelectTexture@CGraphicFontTexture@@QAEXK@Z:PROC ; CGraphicFontTexture::SelectTexture
EXTRN	?UpdateTexture@CGraphicFontTexture@@QAE_NXZ:PROC ; CGraphicFontTexture::UpdateTexture
EXTRN	?GetCharacterInfomation@CGraphicFontTexture@@QAEPAUSCharacterInfomation@1@G_W@Z:PROC ; CGraphicFontTexture::GetCharacterInfomation
EXTRN	?GetFontTexturePointer@CGraphicText@@QAEPAVCGraphicFontTexture@@XZ:PROC ; CGraphicText::GetFontTexturePointer
EXTRN	?GetWidth@CGraphicImage@@QBEHXZ:PROC		; CGraphicImage::GetWidth
EXTRN	?Render@CGraphicImageInstance@@QAEXXZ:PROC	; CGraphicImageInstance::Render
EXTRN	?SetPosition@CGraphicImageInstance@@QAEXMM@Z:PROC ; CGraphicImageInstance::SetPosition
EXTRN	?SetImagePointer@CGraphicImageInstance@@QAEXPAVCGraphicImage@@@Z:PROC ; CGraphicImageInstance::SetImagePointer
EXTRN	?GetHeight@CGraphicImageInstance@@QAEHXZ:PROC	; CGraphicImageInstance::GetHeight
EXTRN	?New@CGraphicImageInstance@@SAPAV1@XZ:PROC	; CGraphicImageInstance::New
EXTRN	?Delete@CGraphicImageInstance@@SAXPAV1@@Z:PROC	; CGraphicImageInstance::Delete
EXTRN	??_ECGraphicTextInstance@@UAEPAXI@Z:PROC	; CGraphicTextInstance::`vector deleting destructor'
EXTRN	?SaveRenderState@CStateManager@@QAEXW4_D3DRENDERSTATETYPE@@K@Z:PROC ; CStateManager::SaveRenderState
EXTRN	?RestoreRenderState@CStateManager@@QAEXW4_D3DRENDERSTATETYPE@@@Z:PROC ; CStateManager::RestoreRenderState
EXTRN	?SetRenderState@CStateManager@@QAEXW4_D3DRENDERSTATETYPE@@K@Z:PROC ; CStateManager::SetRenderState
EXTRN	?SetTexture@CStateManager@@QAEXKPAUIDirect3DBaseTexture8@@@Z:PROC ; CStateManager::SetTexture
EXTRN	?SetTextureStageState@CStateManager@@QAEXKW4_D3DTEXTURESTAGESTATETYPE@@K@Z:PROC ; CStateManager::SetTextureStageState
EXTRN	?SetVertexShader@CStateManager@@QAEXK@Z:PROC	; CStateManager::SetVertexShader
EXTRN	?DrawPrimitive@CStateManager@@QAEJW4_D3DPRIMITIVETYPE@@II@Z:PROC ; CStateManager::DrawPrimitive
EXTRN	?DrawIndexedPrimitive@CStateManager@@QAEJW4_D3DPRIMITIVETYPE@@IIII@Z:PROC ; CStateManager::DrawIndexedPrimitive
EXTRN	?DrawIndexedPrimitiveUP@CStateManager@@QAEJW4_D3DPRIMITIVETYPE@@IIIPBXW4_D3DFORMAT@@1I@Z:PROC ; CStateManager::DrawIndexedPrimitiveUP
EXTRN	?GetRenderState@CStateManager@@QAEKW4_D3DRENDERSTATETYPE@@@Z:PROC ; CStateManager::GetRenderState
EXTRN	?GetCurPos@CIME@@SAHXZ:PROC			; CIME::GetCurPos
EXTRN	?GetCompLen@CIME@@SAHXZ:PROC			; CIME::GetCompLen
EXTRN	?GetULBegin@CIME@@SAHXZ:PROC			; CIME::GetULBegin
EXTRN	?GetULEnd@CIME@@SAHXZ:PROC			; CIME::GetULEnd
EXTRN	?GetTextTag@@YAHPB_WHAAHAAV?$basic_string@_WU?$char_traits@_W@std@@V?$allocator@_W@2@@std@@@Z:PROC ; GetTextTag
EXTRN	?Ymir_WideCharToMultiByte@@YAHIKPB_WHPADHPBDPAH@Z:PROC ; Ymir_WideCharToMultiByte
EXTRN	?Ymir_MultiByteToWideChar@@YAHIKPBDHPA_WH@Z:PROC ; Ymir_MultiByteToWideChar
EXTRN	?Arabic_ConvSymbol@@YA_W_W@Z:PROC		; Arabic_ConvSymbol
EXTRN	?Arabic_IsInSymbol@@YA_N_W@Z:PROC		; Arabic_IsInSymbol
EXTRN	?Arabic_IsInPresentation@@YA_N_W@Z:PROC		; Arabic_IsInPresentation
EXTRN	?Arabic_HasPresentation@@YA_NPA_WH@Z:PROC	; Arabic_HasPresentation
EXTRN	?Arabic_MakeShape@@YAIPA_WI0I@Z:PROC		; Arabic_MakeShape
EXTRN	?GetResourcePointer@CResourceManager@@QAEPAVCResource@@PBD@Z:PROC ; CResourceManager::GetResourcePointer
EXTRN	?IsFileExist@CResourceManager@@QAE_NPBD@Z:PROC	; CResourceManager::IsFileExist
EXTRN	?GetDefaultCodePage@@YAKXZ:PROC			; GetDefaultCodePage
EXTRN	@__security_check_cookie@4:PROC
EXTRN	__CxxThrowException@8:PROC
EXTRN	___CxxFrameHandler3:PROC
EXTRN	__alloca_probe_16:PROC
EXTRN	__ftoui3:PROC
EXTRN	_memchr:PROC
EXTRN	_memcpy:PROC
EXTRN	_memmove:PROC
EXTRN	___security_cookie:DWORD
EXTRN	__fltused:DWORD
;	COMDAT ?_OptionsStorage@?1??__local_stdio_printf_options@@9@4_KA
_BSS	SEGMENT
?_OptionsStorage@?1??__local_stdio_printf_options@@9@4_KA DQ 01H DUP (?) ; `__local_stdio_printf_options'::`2'::_OptionsStorage
_BSS	ENDS
;	COMDAT ?ms_singleton@?$CSingleton@VCStateManager@@@@0PAVCStateManager@@A
_BSS	SEGMENT
?ms_singleton@?$CSingleton@VCStateManager@@@@0PAVCStateManager@@A DD 01H DUP (?) ; CSingleton<CStateManager>::ms_singleton
_BSS	ENDS
;	COMDAT ?ms_singleton@?$CSingleton@VCResourceManager@@@@0PAVCResourceManager@@A
_BSS	SEGMENT
?ms_singleton@?$CSingleton@VCResourceManager@@@@0PAVCResourceManager@@A DD 01H DUP (?) ; CSingleton<CResourceManager>::ms_singleton
_BSS	ENDS
_BSS	SEGMENT
?gs_mx@@3HA DD	01H DUP (?)				; gs_mx
?gs_my@@3HA DD	01H DUP (?)				; gs_my
_BSS	ENDS
CRT$XCU	SEGMENT
??ms_kPool$initializer$@CGraphicTextInstance@@2P6AXXZA@@3P6AXXZA DD FLAT:??__E?ms_kPool@CGraphicTextInstance@@2V?$CDynamicPool@VCGraphicTextInstance@@@@A@@YAXXZ ; ??ms_kPool$initializer$@CGraphicTextInstance@@2P6AXXZA@@3P6AXXZA
CRT$XCU	ENDS
;	COMDAT __real@437f0000
CONST	SEGMENT
__real@437f0000 DD 0437f0000r			; 255
CONST	ENDS
;	COMDAT __real@401c000000000000
CONST	SEGMENT
__real@401c000000000000 DQ 0401c000000000000r	; 7
CONST	ENDS
;	COMDAT __real@40000000
CONST	SEGMENT
__real@40000000 DD 040000000r			; 2
CONST	ENDS
;	COMDAT __real@3f800000
CONST	SEGMENT
__real@3f800000 DD 03f800000r			; 1
CONST	ENDS
;	COMDAT __real@3f000000
CONST	SEGMENT
__real@3f000000 DD 03f000000r			; 0.5
CONST	ENDS
;	COMDAT ??_R1A@?0A@EA@CGraphicTextInstance@@8
rdata$r	SEGMENT
??_R1A@?0A@EA@CGraphicTextInstance@@8 DD FLAT:??_R0?AVCGraphicTextInstance@@@8 ; CGraphicTextInstance::`RTTI Base Class Descriptor at (0,-1,0,64)'
	DD	00H
	DD	00H
	DD	0ffffffffH
	DD	00H
	DD	040H
	DD	FLAT:??_R3CGraphicTextInstance@@8
rdata$r	ENDS
;	COMDAT ??_R2CGraphicTextInstance@@8
rdata$r	SEGMENT
??_R2CGraphicTextInstance@@8 DD FLAT:??_R1A@?0A@EA@CGraphicTextInstance@@8 ; CGraphicTextInstance::`RTTI Base Class Array'
rdata$r	ENDS
;	COMDAT ??_R3CGraphicTextInstance@@8
rdata$r	SEGMENT
??_R3CGraphicTextInstance@@8 DD 00H			; CGraphicTextInstance::`RTTI Class Hierarchy Descriptor'
	DD	00H
	DD	01H
	DD	FLAT:??_R2CGraphicTextInstance@@8
rdata$r	ENDS
;	COMDAT ??_R0?AVCGraphicTextInstance@@@8
data$rs	SEGMENT
??_R0?AVCGraphicTextInstance@@@8 DD FLAT:??_7type_info@@6B@ ; CGraphicTextInstance `RTTI Type Descriptor'
	DD	00H
	DB	'.?AVCGraphicTextInstance@@', 00H
data$rs	ENDS
;	COMDAT ??_R4CGraphicTextInstance@@6B@
rdata$r	SEGMENT
??_R4CGraphicTextInstance@@6B@ DD 00H			; CGraphicTextInstance::`RTTI Complete Object Locator'
	DD	00H
	DD	00H
	DD	FLAT:??_R0?AVCGraphicTextInstance@@@8
	DD	FLAT:??_R3CGraphicTextInstance@@8
rdata$r	ENDS
;	COMDAT ??_C@_0BA@FOIKENOD@vector?5too?5long@
CONST	SEGMENT
??_C@_0BA@FOIKENOD@vector?5too?5long@ DB 'vector too long', 00H ; `string'
CONST	ENDS
;	COMDAT ??_C@_00CNPNBAHC@@
CONST	SEGMENT
??_C@_00CNPNBAHC@@ DB 00H				; `string'
CONST	ENDS
;	COMDAT ??_C@_0M@NHBNKCLI@icon?1?$CFs?4tga@
CONST	SEGMENT
??_C@_0M@NHBNKCLI@icon?1?$CFs?4tga@ DB 'icon/%s.tga', 00H ; `string'
CONST	ENDS
;	COMDAT ??_C@_0DG@FOMBDJDA@CGraphicTextInstance?3?3Update?5?9?5@
CONST	SEGMENT
??_C@_0DG@FOMBDJDA@CGraphicTextInstance?3?3Update?5?9?5@ DB 'CGraphicText'
	DB	'Instance::Update - Font has not been set', 0aH, 00H ; `string'
CONST	ENDS
;	COMDAT ??_C@_11LOCGONAA@@
CONST	SEGMENT
??_C@_11LOCGONAA@@ DB 00H, 00H				; `string'
CONST	ENDS
;	COMDAT ??_7CGraphicTextInstance@@6B@
CONST	SEGMENT
??_7CGraphicTextInstance@@6B@ DD FLAT:??_R4CGraphicTextInstance@@6B@ ; CGraphicTextInstance::`vftable'
	DD	FLAT:??_ECGraphicTextInstance@@UAEPAXI@Z
CONST	ENDS
_DATA	SEGMENT
?ms_kPool@CGraphicTextInstance@@2V?$CDynamicPool@VCGraphicTextInstance@@@@A DD FLAT:??_7?$CDynamicPool@VCGraphicTextInstance@@@@6B@ ; CGraphicTextInstance::ms_kPool
	DD	00H
	DD	00H
	DD	00H
	DD	00H
	DD	00H
	DD	00H
	DD	00H
	DD	00H
?gs_hyperlinkText@@3V?$basic_string@_WU?$char_traits@_W@std@@V?$allocator@_W@2@@std@@A DB 014H DUP (?)
	DD	07H					; gs_hyperlinkText
_DATA	ENDS
;	COMDAT ??_R1A@?0A@EA@bad_array_new_length@std@@8
rdata$r	SEGMENT
??_R1A@?0A@EA@bad_array_new_length@std@@8 DD FLAT:??_R0?AVbad_array_new_length@std@@@8 ; std::bad_array_new_length::`RTTI Base Class Descriptor at (0,-1,0,64)'
	DD	02H
	DD	00H
	DD	0ffffffffH
	DD	00H
	DD	040H
	DD	FLAT:??_R3bad_array_new_length@std@@8
rdata$r	ENDS
;	COMDAT ??_R2bad_array_new_length@std@@8
rdata$r	SEGMENT
??_R2bad_array_new_length@std@@8 DD FLAT:??_R1A@?0A@EA@bad_array_new_length@std@@8 ; std::bad_array_new_length::`RTTI Base Class Array'
	DD	FLAT:??_R1A@?0A@EA@bad_alloc@std@@8
	DD	FLAT:??_R1A@?0A@EA@exception@std@@8
rdata$r	ENDS
;	COMDAT ??_R3bad_array_new_length@std@@8
rdata$r	SEGMENT
??_R3bad_array_new_length@std@@8 DD 00H			; std::bad_array_new_length::`RTTI Class Hierarchy Descriptor'
	DD	00H
	DD	03H
	DD	FLAT:??_R2bad_array_new_length@std@@8
rdata$r	ENDS
;	COMDAT ??_R4bad_array_new_length@std@@6B@
rdata$r	SEGMENT
??_R4bad_array_new_length@std@@6B@ DD 00H		; std::bad_array_new_length::`RTTI Complete Object Locator'
	DD	00H
	DD	00H
	DD	FLAT:??_R0?AVbad_array_new_length@std@@@8
	DD	FLAT:??_R3bad_array_new_length@std@@8
rdata$r	ENDS
;	COMDAT ??_R1A@?0A@EA@bad_alloc@std@@8
rdata$r	SEGMENT
??_R1A@?0A@EA@bad_alloc@std@@8 DD FLAT:??_R0?AVbad_alloc@std@@@8 ; std::bad_alloc::`RTTI Base Class Descriptor at (0,-1,0,64)'
	DD	01H
	DD	00H
	DD	0ffffffffH
	DD	00H
	DD	040H
	DD	FLAT:??_R3bad_alloc@std@@8
rdata$r	ENDS
;	COMDAT ??_R2bad_alloc@std@@8
rdata$r	SEGMENT
??_R2bad_alloc@std@@8 DD FLAT:??_R1A@?0A@EA@bad_alloc@std@@8 ; std::bad_alloc::`RTTI Base Class Array'
	DD	FLAT:??_R1A@?0A@EA@exception@std@@8
rdata$r	ENDS
;	COMDAT ??_R3bad_alloc@std@@8
rdata$r	SEGMENT
??_R3bad_alloc@std@@8 DD 00H				; std::bad_alloc::`RTTI Class Hierarchy Descriptor'
	DD	00H
	DD	02H
	DD	FLAT:??_R2bad_alloc@std@@8
rdata$r	ENDS
;	COMDAT ??_R4bad_alloc@std@@6B@
rdata$r	SEGMENT
??_R4bad_alloc@std@@6B@ DD 00H				; std::bad_alloc::`RTTI Complete Object Locator'
	DD	00H
	DD	00H
	DD	FLAT:??_R0?AVbad_alloc@std@@@8
	DD	FLAT:??_R3bad_alloc@std@@8
rdata$r	ENDS
;	COMDAT ??_R1A@?0A@EA@exception@std@@8
rdata$r	SEGMENT
??_R1A@?0A@EA@exception@std@@8 DD FLAT:??_R0?AVexception@std@@@8 ; std::exception::`RTTI Base Class Descriptor at (0,-1,0,64)'
	DD	00H
	DD	00H
	DD	0ffffffffH
	DD	00H
	DD	040H
	DD	FLAT:??_R3exception@std@@8
rdata$r	ENDS
;	COMDAT ??_R2exception@std@@8
rdata$r	SEGMENT
??_R2exception@std@@8 DD FLAT:??_R1A@?0A@EA@exception@std@@8 ; std::exception::`RTTI Base Class Array'
rdata$r	ENDS
;	COMDAT ??_R3exception@std@@8
rdata$r	SEGMENT
??_R3exception@std@@8 DD 00H				; std::exception::`RTTI Class Hierarchy Descriptor'
	DD	00H
	DD	01H
	DD	FLAT:??_R2exception@std@@8
rdata$r	ENDS
;	COMDAT ??_R4exception@std@@6B@
rdata$r	SEGMENT
??_R4exception@std@@6B@ DD 00H				; std::exception::`RTTI Complete Object Locator'
	DD	00H
	DD	00H
	DD	FLAT:??_R0?AVexception@std@@@8
	DD	FLAT:??_R3exception@std@@8
rdata$r	ENDS
;	COMDAT ??_C@_0BA@JFNIOLAK@string?5too?5long@
CONST	SEGMENT
??_C@_0BA@JFNIOLAK@string?5too?5long@ DB 'string too long', 00H ; `string'
CONST	ENDS
;	COMDAT __CT??_R0?AVexception@std@@@8??0exception@std@@QAE@ABV01@@Z12
xdata$x	SEGMENT
__CT??_R0?AVexception@std@@@8??0exception@std@@QAE@ABV01@@Z12 DD 00H
	DD	FLAT:??_R0?AVexception@std@@@8
	DD	00H
	DD	0ffffffffH
	ORG $+4
	DD	0cH
	DD	FLAT:??0exception@std@@QAE@ABV01@@Z
xdata$x	ENDS
;	COMDAT ??_R0?AVexception@std@@@8
data$r	SEGMENT
??_R0?AVexception@std@@@8 DD FLAT:??_7type_info@@6B@	; std::exception `RTTI Type Descriptor'
	DD	00H
	DB	'.?AVexception@std@@', 00H
data$r	ENDS
;	COMDAT __CT??_R0?AVbad_alloc@std@@@8??0bad_alloc@std@@QAE@ABV01@@Z12
xdata$x	SEGMENT
__CT??_R0?AVbad_alloc@std@@@8??0bad_alloc@std@@QAE@ABV01@@Z12 DD 010H
	DD	FLAT:??_R0?AVbad_alloc@std@@@8
	DD	00H
	DD	0ffffffffH
	ORG $+4
	DD	0cH
	DD	FLAT:??0bad_alloc@std@@QAE@ABV01@@Z
xdata$x	ENDS
;	COMDAT ??_R0?AVbad_alloc@std@@@8
data$r	SEGMENT
??_R0?AVbad_alloc@std@@@8 DD FLAT:??_7type_info@@6B@	; std::bad_alloc `RTTI Type Descriptor'
	DD	00H
	DB	'.?AVbad_alloc@std@@', 00H
data$r	ENDS
;	COMDAT __CT??_R0?AVbad_array_new_length@std@@@8??0bad_array_new_length@std@@QAE@ABV01@@Z12
xdata$x	SEGMENT
__CT??_R0?AVbad_array_new_length@std@@@8??0bad_array_new_length@std@@QAE@ABV01@@Z12 DD 00H
	DD	FLAT:??_R0?AVbad_array_new_length@std@@@8
	DD	00H
	DD	0ffffffffH
	ORG $+4
	DD	0cH
	DD	FLAT:??0bad_array_new_length@std@@QAE@ABV01@@Z
xdata$x	ENDS
;	COMDAT ??_R0?AVbad_array_new_length@std@@@8
data$r	SEGMENT
??_R0?AVbad_array_new_length@std@@@8 DD FLAT:??_7type_info@@6B@ ; std::bad_array_new_length `RTTI Type Descriptor'
	DD	00H
	DB	'.?AVbad_array_new_length@std@@', 00H
data$r	ENDS
;	COMDAT __CTA3?AVbad_array_new_length@std@@
xdata$x	SEGMENT
__CTA3?AVbad_array_new_length@std@@ DD 03H
	DD	FLAT:__CT??_R0?AVbad_array_new_length@std@@@8??0bad_array_new_length@std@@QAE@ABV01@@Z12
	DD	FLAT:__CT??_R0?AVbad_alloc@std@@@8??0bad_alloc@std@@QAE@ABV01@@Z12
	DD	FLAT:__CT??_R0?AVexception@std@@@8??0exception@std@@QAE@ABV01@@Z12
xdata$x	ENDS
;	COMDAT __TI3?AVbad_array_new_length@std@@
xdata$x	SEGMENT
__TI3?AVbad_array_new_length@std@@ DD 00H
	DD	FLAT:??1bad_array_new_length@std@@UAE@XZ
	DD	00H
	DD	FLAT:__CTA3?AVbad_array_new_length@std@@
xdata$x	ENDS
;	COMDAT ??_C@_0BF@KINCDENJ@bad?5array?5new?5length@
CONST	SEGMENT
??_C@_0BF@KINCDENJ@bad?5array?5new?5length@ DB 'bad array new length', 00H ; `string'
CONST	ENDS
;	COMDAT ??_7bad_array_new_length@std@@6B@
CONST	SEGMENT
??_7bad_array_new_length@std@@6B@ DD FLAT:??_R4bad_array_new_length@std@@6B@ ; std::bad_array_new_length::`vftable'
	DD	FLAT:??_Ebad_array_new_length@std@@UAEPAXI@Z
	DD	FLAT:?what@exception@std@@UBEPBDXZ
CONST	ENDS
;	COMDAT ??_7bad_alloc@std@@6B@
CONST	SEGMENT
??_7bad_alloc@std@@6B@ DD FLAT:??_R4bad_alloc@std@@6B@	; std::bad_alloc::`vftable'
	DD	FLAT:??_Ebad_alloc@std@@UAEPAXI@Z
	DD	FLAT:?what@exception@std@@UBEPBDXZ
CONST	ENDS
;	COMDAT ??_C@_0BC@EOODALEL@Unknown?5exception@
CONST	SEGMENT
??_C@_0BC@EOODALEL@Unknown?5exception@ DB 'Unknown exception', 00H ; `string'
CONST	ENDS
;	COMDAT ??_7exception@std@@6B@
CONST	SEGMENT
??_7exception@std@@6B@ DD FLAT:??_R4exception@std@@6B@	; std::exception::`vftable'
	DD	FLAT:??_Eexception@std@@UAEPAXI@Z
	DD	FLAT:?what@exception@std@@UBEPBDXZ
CONST	ENDS
;	COMDAT xdata$x
xdata$x	SEGMENT
__catchsym$??$_Emplace_reallocate@ABUSHyperlink@CGraphicTextInstance@@@?$vector@USHyperlink@CGraphicTextInstance@@V?$allocator@USHyperlink@CGraphicTextInstance@@@std@@@std@@QAEPAUSHyperlink@CGraphicTextInstance@@QAU23@ABU23@@Z$2 DD 040H
	DD	00H
	DD	00H
	DD	FLAT:__catch$??$_Emplace_reallocate@ABUSHyperlink@CGraphicTextInstance@@@?$vector@USHyperlink@CGraphicTextInstance@@V?$allocator@USHyperlink@CGraphicTextInstance@@@std@@@std@@QAEPAUSHyperlink@CGraphicTextInstance@@QAU23@ABU23@@Z$0
__unwindtable$??$_Emplace_reallocate@ABUSHyperlink@CGraphicTextInstance@@@?$vector@USHyperlink@CGraphicTextInstance@@V?$allocator@USHyperlink@CGraphicTextInstance@@@std@@@std@@QAEPAUSHyperlink@CGraphicTextInstance@@QAU23@ABU23@@Z DD 0ffffffffH
	DD	00H
	DD	0ffffffffH
	DD	00H
__tryblocktable$??$_Emplace_reallocate@ABUSHyperlink@CGraphicTextInstance@@@?$vector@USHyperlink@CGraphicTextInstance@@V?$allocator@USHyperlink@CGraphicTextInstance@@@std@@@std@@QAEPAUSHyperlink@CGraphicTextInstance@@QAU23@ABU23@@Z DD 00H
	DD	00H
	DD	01H
	DD	01H
	DD	FLAT:__catchsym$??$_Emplace_reallocate@ABUSHyperlink@CGraphicTextInstance@@@?$vector@USHyperlink@CGraphicTextInstance@@V?$allocator@USHyperlink@CGraphicTextInstance@@@std@@@std@@QAEPAUSHyperlink@CGraphicTextInstance@@QAU23@ABU23@@Z$2
__ehfuncinfo$??$_Emplace_reallocate@ABUSHyperlink@CGraphicTextInstance@@@?$vector@USHyperlink@CGraphicTextInstance@@V?$allocator@USHyperlink@CGraphicTextInstance@@@std@@@std@@QAEPAUSHyperlink@CGraphicTextInstance@@QAU23@ABU23@@Z DD 019930522H
	DD	02H
	DD	FLAT:__unwindtable$??$_Emplace_reallocate@ABUSHyperlink@CGraphicTextInstance@@@?$vector@USHyperlink@CGraphicTextInstance@@V?$allocator@USHyperlink@CGraphicTextInstance@@@std@@@std@@QAEPAUSHyperlink@CGraphicTextInstance@@QAU23@ABU23@@Z
	DD	01H
	DD	FLAT:__tryblocktable$??$_Emplace_reallocate@ABUSHyperlink@CGraphicTextInstance@@@?$vector@USHyperlink@CGraphicTextInstance@@V?$allocator@USHyperlink@CGraphicTextInstance@@@std@@@std@@QAEPAUSHyperlink@CGraphicTextInstance@@QAU23@ABU23@@Z
	DD	2 DUP(00H)
	DD	00H
	DD	01H
xdata$x	ENDS
;	COMDAT xdata$x
xdata$x	SEGMENT
__unwindtable$?Alloc@?$CDynamicPool@VCGraphicTextInstance@@@@QAEPAVCGraphicTextInstance@@XZ DD 0ffffffffH
	DD	FLAT:__unwindfunclet$?Alloc@?$CDynamicPool@VCGraphicTextInstance@@@@QAEPAVCGraphicTextInstance@@XZ$0
__ehfuncinfo$?Alloc@?$CDynamicPool@VCGraphicTextInstance@@@@QAEPAVCGraphicTextInstance@@XZ DD 019930522H
	DD	01H
	DD	FLAT:__unwindtable$?Alloc@?$CDynamicPool@VCGraphicTextInstance@@@@QAEPAVCGraphicTextInstance@@XZ
	DD	2 DUP(00H)
	DD	2 DUP(00H)
	DD	00H
	DD	01H
xdata$x	ENDS
;	COMDAT xdata$x
xdata$x	SEGMENT
__unwindtable$?New@CGraphicTextInstance@@SAPAV1@XZ DD 0ffffffffH
	DD	FLAT:__unwindfunclet$?New@CGraphicTextInstance@@SAPAV1@XZ$0
__ehfuncinfo$?New@CGraphicTextInstance@@SAPAV1@XZ DD 019930522H
	DD	01H
	DD	FLAT:__unwindtable$?New@CGraphicTextInstance@@SAPAV1@XZ
	DD	2 DUP(00H)
	DD	2 DUP(00H)
	DD	00H
	DD	01H
xdata$x	ENDS
;	COMDAT xdata$x
xdata$x	SEGMENT
__ehfuncinfo$??1?$CRef@VCGraphicText@@@@QAE@XZ DD 019930522H
	DD	00H
	DD	00H
	DD	2 DUP(00H)
	DD	2 DUP(00H)
	DD	00H
	DD	05H
xdata$x	ENDS
;	COMDAT xdata$x
xdata$x	SEGMENT
__ehfuncinfo$?Update@CGraphicTextInstance@@QAEXXZ DD 019930522H
	DD	05H
	DD	FLAT:__unwindtable$?Update@CGraphicTextInstance@@QAEXXZ
	DD	2 DUP(00H)
	DD	2 DUP(00H)
	DD	00H
	DD	01H
__unwindtable$?Update@CGraphicTextInstance@@QAEXXZ DD 0ffffffffH
	DD	FLAT:__unwindfunclet$?Update@CGraphicTextInstance@@QAEXXZ$0
	DD	00H
	DD	FLAT:__unwindfunclet$?Update@CGraphicTextInstance@@QAEXXZ$1
	DD	0ffffffffH
	DD	FLAT:__unwindfunclet$?Update@CGraphicTextInstance@@QAEXXZ$2
	DD	02H
	DD	FLAT:__unwindfunclet$?Update@CGraphicTextInstance@@QAEXXZ$3
	DD	03H
	DD	FLAT:__unwindfunclet$?Update@CGraphicTextInstance@@QAEXXZ$4
xdata$x	ENDS
;	COMDAT xdata$x
xdata$x	SEGMENT
__unwindtable$??1CGraphicTextInstance@@UAE@XZ DD 0ffffffffH
	DD	FLAT:___std_terminate
__ehfuncinfo$??1CGraphicTextInstance@@UAE@XZ DD 019930522H
	DD	01H
	DD	FLAT:__unwindtable$??1CGraphicTextInstance@@UAE@XZ
	DD	2 DUP(00H)
	DD	2 DUP(00H)
	DD	00H
	DD	05H
xdata$x	ENDS
;	COMDAT xdata$x
xdata$x	SEGMENT
__ehfuncinfo$??0CGraphicTextInstance@@QAE@XZ DD 019930522H
	DD	06H
	DD	FLAT:__unwindtable$??0CGraphicTextInstance@@QAE@XZ
	DD	2 DUP(00H)
	DD	2 DUP(00H)
	DD	00H
	DD	01H
__unwindtable$??0CGraphicTextInstance@@QAE@XZ DD 0ffffffffH
	DD	FLAT:__unwindfunclet$??0CGraphicTextInstance@@QAE@XZ$0
	DD	00H
	DD	FLAT:__unwindfunclet$??0CGraphicTextInstance@@QAE@XZ$1
	DD	01H
	DD	FLAT:__unwindfunclet$??0CGraphicTextInstance@@QAE@XZ$2
	DD	02H
	DD	FLAT:__unwindfunclet$??0CGraphicTextInstance@@QAE@XZ$3
	DD	03H
	DD	FLAT:__unwindfunclet$??0CGraphicTextInstance@@QAE@XZ$4
	DD	04H
	DD	FLAT:__unwindfunclet$??0CGraphicTextInstance@@QAE@XZ$5
xdata$x	ENDS
CRT$XCU	SEGMENT
?gs_hyperlinkText$initializer$@@3P6AXXZA DD FLAT:??__Egs_hyperlinkText@@YAXXZ ; gs_hyperlinkText$initializer$
CRT$XCU	ENDS
; Function compile flags: /Ogtp
; File C:\Program Files (x86)\Microsoft Visual Studio\2019\Professional\VC\Tools\MSVC\14.29.30133\include\xutility
;	COMDAT ??$_Copy_memmove@PAPAUSCharacterInfomation@CGraphicFontTexture@@PAPAU12@@std@@YAPAPAUSCharacterInfomation@CGraphicFontTexture@@PAPAU12@00@Z
_TEXT	SEGMENT
__First$ = 8						; size = 4
__Last$ = 12						; size = 4
__Dest$ = 16						; size = 4
??$_Copy_memmove@PAPAUSCharacterInfomation@CGraphicFontTexture@@PAPAU12@@std@@YAPAPAUSCharacterInfomation@CGraphicFontTexture@@PAPAU12@00@Z PROC ; std::_Copy_memmove<CGraphicFontTexture::SCharacterInfomation * *,CGraphicFontTexture::SCharacterInfomation * *>, COMDAT

; 4159 : _OutCtgIt _Copy_memmove(_CtgIt _First, _CtgIt _Last, _OutCtgIt _Dest) {

  00000	55		 push	 ebp
  00001	8b ec		 mov	 ebp, esp

; 4160 :     auto _FirstPtr              = _To_address(_First);
; 4161 :     auto _LastPtr               = _To_address(_Last);
; 4162 :     auto _DestPtr               = _To_address(_Dest);
; 4163 :     const char* const _First_ch = const_cast<const char*>(reinterpret_cast<const volatile char*>(_FirstPtr));
; 4164 :     const char* const _Last_ch  = const_cast<const char*>(reinterpret_cast<const volatile char*>(_LastPtr));
; 4165 :     char* const _Dest_ch        = const_cast<char*>(reinterpret_cast<const volatile char*>(_DestPtr));
; 4166 :     const auto _Count           = static_cast<size_t>(_Last_ch - _First_ch);

  00003	8b 45 08	 mov	 eax, DWORD PTR __First$[ebp]
  00006	56		 push	 esi

; 4167 :     _CSTD memmove(_Dest_ch, _First_ch, _Count);

  00007	8b 75 10	 mov	 esi, DWORD PTR __Dest$[ebp]
  0000a	57		 push	 edi
  0000b	8b 7d 0c	 mov	 edi, DWORD PTR __Last$[ebp]
  0000e	2b f8		 sub	 edi, eax
  00010	57		 push	 edi
  00011	50		 push	 eax
  00012	56		 push	 esi
  00013	e8 00 00 00 00	 call	 _memmove
  00018	83 c4 0c	 add	 esp, 12			; 0000000cH

; 4168 :     if constexpr (is_pointer_v<_OutCtgIt>) {
; 4169 :         return reinterpret_cast<_OutCtgIt>(_Dest_ch + _Count);

  0001b	8d 04 37	 lea	 eax, DWORD PTR [edi+esi]
  0001e	5f		 pop	 edi
  0001f	5e		 pop	 esi

; 4170 :     } else {
; 4171 :         return _Dest + (_LastPtr - _FirstPtr);
; 4172 :     }
; 4173 : }

  00020	5d		 pop	 ebp
  00021	c3		 ret	 0
??$_Copy_memmove@PAPAUSCharacterInfomation@CGraphicFontTexture@@PAPAU12@@std@@YAPAPAUSCharacterInfomation@CGraphicFontTexture@@PAPAU12@00@Z ENDP ; std::_Copy_memmove<CGraphicFontTexture::SCharacterInfomation * *,CGraphicFontTexture::SCharacterInfomation * *>
_TEXT	ENDS
; Function compile flags: /Ogtp
; File C:\Program Files (x86)\Microsoft Visual Studio\2019\Professional\VC\Tools\MSVC\14.29.30133\include\xutility
;	COMDAT ??$_Copy_memmove@PAKPAK@std@@YAPAKPAK00@Z
_TEXT	SEGMENT
__First$ = 8						; size = 4
__Last$ = 12						; size = 4
__Dest$ = 16						; size = 4
??$_Copy_memmove@PAKPAK@std@@YAPAKPAK00@Z PROC		; std::_Copy_memmove<unsigned long *,unsigned long *>, COMDAT

; 4159 : _OutCtgIt _Copy_memmove(_CtgIt _First, _CtgIt _Last, _OutCtgIt _Dest) {

  00000	55		 push	 ebp
  00001	8b ec		 mov	 ebp, esp

; 4160 :     auto _FirstPtr              = _To_address(_First);
; 4161 :     auto _LastPtr               = _To_address(_Last);
; 4162 :     auto _DestPtr               = _To_address(_Dest);
; 4163 :     const char* const _First_ch = const_cast<const char*>(reinterpret_cast<const volatile char*>(_FirstPtr));
; 4164 :     const char* const _Last_ch  = const_cast<const char*>(reinterpret_cast<const volatile char*>(_LastPtr));
; 4165 :     char* const _Dest_ch        = const_cast<char*>(reinterpret_cast<const volatile char*>(_DestPtr));
; 4166 :     const auto _Count           = static_cast<size_t>(_Last_ch - _First_ch);

  00003	8b 45 08	 mov	 eax, DWORD PTR __First$[ebp]
  00006	56		 push	 esi

; 4167 :     _CSTD memmove(_Dest_ch, _First_ch, _Count);

  00007	8b 75 10	 mov	 esi, DWORD PTR __Dest$[ebp]
  0000a	57		 push	 edi
  0000b	8b 7d 0c	 mov	 edi, DWORD PTR __Last$[ebp]
  0000e	2b f8		 sub	 edi, eax
  00010	57		 push	 edi
  00011	50		 push	 eax
  00012	56		 push	 esi
  00013	e8 00 00 00 00	 call	 _memmove
  00018	83 c4 0c	 add	 esp, 12			; 0000000cH

; 4168 :     if constexpr (is_pointer_v<_OutCtgIt>) {
; 4169 :         return reinterpret_cast<_OutCtgIt>(_Dest_ch + _Count);

  0001b	8d 04 37	 lea	 eax, DWORD PTR [edi+esi]
  0001e	5f		 pop	 edi
  0001f	5e		 pop	 esi

; 4170 :     } else {
; 4171 :         return _Dest + (_LastPtr - _FirstPtr);
; 4172 :     }
; 4173 : }

  00020	5d		 pop	 ebp
  00021	c3		 ret	 0
??$_Copy_memmove@PAKPAK@std@@YAPAKPAK00@Z ENDP		; std::_Copy_memmove<unsigned long *,unsigned long *>
_TEXT	ENDS
; Function compile flags: /Ogtp
; File C:\Program Files (x86)\Microsoft Visual Studio\2019\Professional\VC\Tools\MSVC\14.29.30133\include\xmemory
; File C:\Program Files (x86)\Microsoft Visual Studio\2019\Professional\VC\Tools\MSVC\14.29.30133\include\xstring
; File C:\Program Files (x86)\Microsoft Visual Studio\2019\Professional\VC\Tools\MSVC\14.29.30133\include\xmemory
; File C:\Program Files (x86)\Microsoft Visual Studio\2019\Professional\VC\Tools\MSVC\14.29.30133\include\xstring
; File C:\Program Files (x86)\Microsoft Visual Studio\2019\Professional\VC\Tools\MSVC\14.29.30133\include\xmemory
; File C:\Program Files (x86)\Microsoft Visual Studio\2019\Professional\VC\Tools\MSVC\14.29.30133\include\xstring
; File C:\Program Files (x86)\Microsoft Visual Studio\2019\Professional\VC\Tools\MSVC\14.29.30133\include\xmemory
;	COMDAT ??$_Uninitialized_move@PAUSHyperlink@CGraphicTextInstance@@V?$allocator@USHyperlink@CGraphicTextInstance@@@std@@@std@@YAPAUSHyperlink@CGraphicTextInstance@@QAU12@0PAU12@AAV?$allocator@USHyperlink@CGraphicTextInstance@@@0@@Z
_TEXT	SEGMENT
__First$ = 8						; size = 4
__Last$ = 12						; size = 4
tv640 = 16						; size = 4
__Dest$ = 16						; size = 4
__Al$ = 20						; size = 4
??$_Uninitialized_move@PAUSHyperlink@CGraphicTextInstance@@V?$allocator@USHyperlink@CGraphicTextInstance@@@std@@@std@@YAPAUSHyperlink@CGraphicTextInstance@@QAU12@0PAU12@AAV?$allocator@USHyperlink@CGraphicTextInstance@@@0@@Z PROC ; std::_Uninitialized_move<CGraphicTextInstance::SHyperlink *,std::allocator<CGraphicTextInstance::SHyperlink> >, COMDAT

; 1713 :     const _InIt _First, const _InIt _Last, _Alloc_ptr_t<_Alloc> _Dest, _Alloc& _Al) {

  00000	55		 push	 ebp
  00001	8b ec		 mov	 ebp, esp

; 1731 :     for (; _UFirst != _ULast; ++_UFirst) {

  00003	8b 45 08	 mov	 eax, DWORD PTR __First$[ebp]
  00006	53		 push	 ebx
  00007	8b 5d 0c	 mov	 ebx, DWORD PTR __Last$[ebp]
  0000a	57		 push	 edi

; 1620 :         : _First(_Dest), _Last(_Dest), _Al(_Al_) {}

  0000b	8b 7d 10	 mov	 edi, DWORD PTR __Dest$[ebp]

; 1731 :     for (; _UFirst != _ULast; ++_UFirst) {

  0000e	3b c3		 cmp	 eax, ebx
  00010	74 6d		 je	 SHORT $LN63@Uninitiali

; 1620 :         : _First(_Dest), _Last(_Dest), _Al(_Al_) {}

  00012	8b d7		 mov	 edx, edi
  00014	8d 48 18	 lea	 ecx, DWORD PTR [eax+24]
  00017	2b d0		 sub	 edx, eax
  00019	56		 push	 esi
  0001a	8d 77 04	 lea	 esi, DWORD PTR [edi+4]
  0001d	89 55 10	 mov	 DWORD PTR tv640[ebp], edx
$LL4@Uninitiali:
  00020	0f b7 41 e8	 movzx	 eax, WORD PTR [ecx-24]

; 1632 :         ++_Last;

  00024	8d 49 1c	 lea	 ecx, DWORD PTR [ecx+28]
  00027	66 89 07	 mov	 WORD PTR [edi], ax
  0002a	8d 76 1c	 lea	 esi, DWORD PTR [esi+28]
  0002d	0f b7 41 ce	 movzx	 eax, WORD PTR [ecx-50]
  00031	83 c7 1c	 add	 edi, 28			; 0000001cH
; File C:\Program Files (x86)\Microsoft Visual Studio\2019\Professional\VC\Tools\MSVC\14.29.30133\include\xstring

; 2356 :     size_type _Myres  = 0; // current storage reserved for string

  00034	c7 44 0a e4 00
	00 00 00	 mov	 DWORD PTR [edx+ecx-28], 0
; File C:\Program Files (x86)\Microsoft Visual Studio\2019\Professional\VC\Tools\MSVC\14.29.30133\include\xmemory

; 1731 :     for (; _UFirst != _ULast; ++_UFirst) {

  0003c	8d 51 e8	 lea	 edx, DWORD PTR [ecx-24]
  0003f	66 89 46 e2	 mov	 WORD PTR [esi-30], ax
; File C:\Program Files (x86)\Microsoft Visual Studio\2019\Professional\VC\Tools\MSVC\14.29.30133\include\xstring

; 4612 :             _Traits::assign(_My_data._Bx._Buf[0], _Elem());

  00043	33 c0		 xor	 eax, eax

; 2346 :         _CONSTEXPR20_CONTAINER _Bxty() noexcept : _Ptr() {} // user-provided, for fancy pointers

  00045	c7 46 e4 00 00
	00 00		 mov	 DWORD PTR [esi-28], 0
; File C:\Program Files (x86)\Microsoft Visual Studio\2019\Professional\VC\Tools\MSVC\14.29.30133\include\xmemory

; 1731 :     for (; _UFirst != _ULast; ++_UFirst) {

  0004c	3b d3		 cmp	 edx, ebx
  0004e	8b 55 10	 mov	 edx, DWORD PTR tv640[ebp]
; File C:\Program Files (x86)\Microsoft Visual Studio\2019\Professional\VC\Tools\MSVC\14.29.30133\include\xstring

; 2355 :     size_type _Mysize = 0; // current length of string

  00051	c7 46 f4 00 00
	00 00		 mov	 DWORD PTR [esi-12], 0

; 2869 :         _CSTD memcpy(_My_data_mem, _Right_data_mem, _Memcpy_val_size);

  00058	0f 10 41 d0	 movups	 xmm0, XMMWORD PTR [ecx-48]
  0005c	0f 11 46 e4	 movups	 XMMWORD PTR [esi-28], xmm0
  00060	f3 0f 7e 41 e0	 movq	 xmm0, QWORD PTR [ecx-32]
  00065	66 0f d6 46 f4	 movq	 QWORD PTR [esi-12], xmm0

; 4596 :         _My_data._Mysize = 0;

  0006a	c7 41 e0 00 00
	00 00		 mov	 DWORD PTR [ecx-32], 0

; 4597 : 
; 4598 : #ifdef __cpp_lib_constexpr_string
; 4599 :         if (_STD is_constant_evaluated()) {
; 4600 :             _My_data._Myres        = _BUF_SIZE; // SSO disabled in constexpr context
; 4601 :             auto& _Al              = _Getal();
; 4602 :             const pointer _New_ptr = _Al.allocate(_BUF_SIZE + 1); // throws
; 4603 :             _My_data._Bx._Ptr      = _New_ptr;
; 4604 : 
; 4605 :             _Elem* const _Raw_new = _Unfancy(_New_ptr);
; 4606 :             _Traits::assign(_Raw_new, _BUF_SIZE + 1, _Elem());
; 4607 :         } else
; 4608 : #endif // __cpp_lib_constexpr_string
; 4609 :         {
; 4610 :             _My_data._Myres = _BUF_SIZE - 1;

  00071	c7 41 e4 07 00
	00 00		 mov	 DWORD PTR [ecx-28], 7

; 4612 :             _Traits::assign(_My_data._Bx._Buf[0], _Elem());

  00078	66 89 41 d0	 mov	 WORD PTR [ecx-48], ax
; File C:\Program Files (x86)\Microsoft Visual Studio\2019\Professional\VC\Tools\MSVC\14.29.30133\include\xmemory

; 1731 :     for (; _UFirst != _ULast; ++_UFirst) {

  0007c	75 a2		 jne	 SHORT $LL4@Uninitiali

; 1732 :         _Backout._Emplace_back(_STD move(*_UFirst));
; 1733 :     }
; 1734 : 
; 1735 :     return _Backout._Release();

  0007e	5e		 pop	 esi
$LN63@Uninitiali:

; 1736 : }

  0007f	8b c7		 mov	 eax, edi
  00081	5f		 pop	 edi
  00082	5b		 pop	 ebx
  00083	5d		 pop	 ebp
  00084	c3		 ret	 0
??$_Uninitialized_move@PAUSHyperlink@CGraphicTextInstance@@V?$allocator@USHyperlink@CGraphicTextInstance@@@std@@@std@@YAPAUSHyperlink@CGraphicTextInstance@@QAU12@0PAU12@AAV?$allocator@USHyperlink@CGraphicTextInstance@@@0@@Z ENDP ; std::_Uninitialized_move<CGraphicTextInstance::SHyperlink *,std::allocator<CGraphicTextInstance::SHyperlink> >
_TEXT	ENDS
; Function compile flags: /Ogtp
; File C:\Program Files (x86)\Microsoft Visual Studio\2019\Professional\VC\Tools\MSVC\14.29.30133\include\xutility
;	COMDAT ??$_Copy_memmove@PAPAVCGraphicTextInstance@@PAPAV1@@std@@YAPAPAVCGraphicTextInstance@@PAPAV1@00@Z
_TEXT	SEGMENT
__First$ = 8						; size = 4
__Last$ = 12						; size = 4
__Dest$ = 16						; size = 4
??$_Copy_memmove@PAPAVCGraphicTextInstance@@PAPAV1@@std@@YAPAPAVCGraphicTextInstance@@PAPAV1@00@Z PROC ; std::_Copy_memmove<CGraphicTextInstance * *,CGraphicTextInstance * *>, COMDAT

; 4159 : _OutCtgIt _Copy_memmove(_CtgIt _First, _CtgIt _Last, _OutCtgIt _Dest) {

  00000	55		 push	 ebp
  00001	8b ec		 mov	 ebp, esp

; 4160 :     auto _FirstPtr              = _To_address(_First);
; 4161 :     auto _LastPtr               = _To_address(_Last);
; 4162 :     auto _DestPtr               = _To_address(_Dest);
; 4163 :     const char* const _First_ch = const_cast<const char*>(reinterpret_cast<const volatile char*>(_FirstPtr));
; 4164 :     const char* const _Last_ch  = const_cast<const char*>(reinterpret_cast<const volatile char*>(_LastPtr));
; 4165 :     char* const _Dest_ch        = const_cast<char*>(reinterpret_cast<const volatile char*>(_DestPtr));
; 4166 :     const auto _Count           = static_cast<size_t>(_Last_ch - _First_ch);

  00003	8b 45 08	 mov	 eax, DWORD PTR __First$[ebp]
  00006	56		 push	 esi

; 4167 :     _CSTD memmove(_Dest_ch, _First_ch, _Count);

  00007	8b 75 10	 mov	 esi, DWORD PTR __Dest$[ebp]
  0000a	57		 push	 edi
  0000b	8b 7d 0c	 mov	 edi, DWORD PTR __Last$[ebp]
  0000e	2b f8		 sub	 edi, eax
  00010	57		 push	 edi
  00011	50		 push	 eax
  00012	56		 push	 esi
  00013	e8 00 00 00 00	 call	 _memmove
  00018	83 c4 0c	 add	 esp, 12			; 0000000cH

; 4168 :     if constexpr (is_pointer_v<_OutCtgIt>) {
; 4169 :         return reinterpret_cast<_OutCtgIt>(_Dest_ch + _Count);

  0001b	8d 04 37	 lea	 eax, DWORD PTR [edi+esi]
  0001e	5f		 pop	 edi
  0001f	5e		 pop	 esi

; 4170 :     } else {
; 4171 :         return _Dest + (_LastPtr - _FirstPtr);
; 4172 :     }
; 4173 : }

  00020	5d		 pop	 ebp
  00021	c3		 ret	 0
??$_Copy_memmove@PAPAVCGraphicTextInstance@@PAPAV1@@std@@YAPAPAVCGraphicTextInstance@@PAPAV1@00@Z ENDP ; std::_Copy_memmove<CGraphicTextInstance * *,CGraphicTextInstance * *>
_TEXT	ENDS
; Function compile flags: /Ogtp
; File C:\Program Files (x86)\Microsoft Visual Studio\2019\Professional\VC\Tools\MSVC\14.29.30133\include\vector
; File C:\Program Files (x86)\Microsoft Visual Studio\2019\Professional\VC\Tools\MSVC\14.29.30133\include\xmemory
; File C:\Program Files (x86)\Microsoft Visual Studio\2019\Professional\VC\Tools\MSVC\14.29.30133\include\vector
; File C:\Program Files (x86)\Microsoft Visual Studio\2019\Professional\VC\Tools\MSVC\14.29.30133\include\xmemory
; File C:\Program Files (x86)\Microsoft Visual Studio\2019\Professional\VC\Tools\MSVC\14.29.30133\include\vector
; File C:\Program Files (x86)\Microsoft Visual Studio\2019\Professional\VC\Tools\MSVC\14.29.30133\include\xmemory
; File C:\Program Files (x86)\Microsoft Visual Studio\2019\Professional\VC\Tools\MSVC\14.29.30133\include\vector
; File C:\Program Files (x86)\Microsoft Visual Studio\2019\Professional\VC\Tools\MSVC\14.29.30133\include\xmemory
; File C:\Program Files (x86)\Microsoft Visual Studio\2019\Professional\VC\Tools\MSVC\14.29.30133\include\vector
; File C:\Program Files (x86)\Microsoft Visual Studio\2019\Professional\VC\Tools\MSVC\14.29.30133\include\xmemory
; File C:\Program Files (x86)\Microsoft Visual Studio\2019\Professional\VC\Tools\MSVC\14.29.30133\include\vector
; File C:\Program Files (x86)\Microsoft Visual Studio\2019\Professional\VC\Tools\MSVC\14.29.30133\include\xmemory
; File C:\Program Files (x86)\Microsoft Visual Studio\2019\Professional\VC\Tools\MSVC\14.29.30133\include\vector
; File C:\Program Files (x86)\Microsoft Visual Studio\2019\Professional\VC\Tools\MSVC\14.29.30133\include\xmemory
; File C:\Program Files (x86)\Microsoft Visual Studio\2019\Professional\VC\Tools\MSVC\14.29.30133\include\vector
;	COMDAT ??$_Emplace_reallocate@ABQAVCGraphicTextInstance@@@?$vector@PAVCGraphicTextInstance@@V?$allocator@PAVCGraphicTextInstance@@@std@@@std@@QAEPAPAVCGraphicTextInstance@@QAPAV2@ABQAV2@@Z
_TEXT	SEGMENT
__Newsize$1$ = -8					; size = 4
__Whereoff$1$ = -4					; size = 4
tv505 = -4						; size = 4
__Whereptr$ = 8						; size = 4
_<_Val_0>$ = 12						; size = 4
??$_Emplace_reallocate@ABQAVCGraphicTextInstance@@@?$vector@PAVCGraphicTextInstance@@V?$allocator@PAVCGraphicTextInstance@@@std@@@std@@QAEPAPAVCGraphicTextInstance@@QAPAV2@ABQAV2@@Z PROC ; std::vector<CGraphicTextInstance *,std::allocator<CGraphicTextInstance *> >::_Emplace_reallocate<CGraphicTextInstance * const &>, COMDAT
; _this$ = ecx

; 765  :     _CONSTEXPR20_CONTAINER pointer _Emplace_reallocate(const pointer _Whereptr, _Valty&&... _Val) {

  00000	55		 push	 ebp
  00001	8b ec		 mov	 ebp, esp
  00003	83 ec 08	 sub	 esp, 8

; 766  :         // reallocate and insert by perfectly forwarding _Val at _Whereptr
; 767  :         _Alty& _Al        = _Getal();
; 768  :         auto& _My_data    = _Mypair._Myval2;
; 769  :         pointer& _Myfirst = _My_data._Myfirst;
; 770  :         pointer& _Mylast  = _My_data._Mylast;
; 771  : 
; 772  :         _STL_INTERNAL_CHECK(_Mylast == _My_data._Myend); // check that we have no unused capacity
; 773  : 
; 774  :         const auto _Whereoff = static_cast<size_type>(_Whereptr - _Myfirst);

  00006	8b 45 08	 mov	 eax, DWORD PTR __Whereptr$[ebp]
  00009	53		 push	 ebx
  0000a	8b d9		 mov	 ebx, ecx
  0000c	56		 push	 esi
  0000d	57		 push	 edi
  0000e	8b 13		 mov	 edx, DWORD PTR [ebx]
  00010	2b c2		 sub	 eax, edx
  00012	c1 f8 02	 sar	 eax, 2
  00015	89 45 fc	 mov	 DWORD PTR __Whereoff$1$[ebp], eax

; 775  :         const auto _Oldsize  = static_cast<size_type>(_Mylast - _Myfirst);

  00018	8b 43 04	 mov	 eax, DWORD PTR [ebx+4]
  0001b	2b c2		 sub	 eax, edx
  0001d	c1 f8 02	 sar	 eax, 2

; 776  : 
; 777  :         if (_Oldsize == max_size()) {

  00020	3d ff ff ff 3f	 cmp	 eax, 1073741823		; 3fffffffH
  00025	0f 84 d2 00 00
	00		 je	 $LN74@Emplace_re

; 1559 :         return static_cast<size_type>(_My_data._Myend - _My_data._Myfirst);

  0002b	8b 4b 08	 mov	 ecx, DWORD PTR [ebx+8]

; 779  :         }
; 780  : 
; 781  :         const size_type _Newsize     = _Oldsize + 1;

  0002e	8d 78 01	 lea	 edi, DWORD PTR [eax+1]

; 1559 :         return static_cast<size_type>(_My_data._Myend - _My_data._Myfirst);

  00031	2b ca		 sub	 ecx, edx

; 779  :         }
; 780  : 
; 781  :         const size_type _Newsize     = _Oldsize + 1;

  00033	89 7d f8	 mov	 DWORD PTR __Newsize$1$[ebp], edi

; 1559 :         return static_cast<size_type>(_My_data._Myend - _My_data._Myfirst);

  00036	c1 f9 02	 sar	 ecx, 2

; 1688 :         if (_Oldcapacity > _Max - _Oldcapacity / 2) {

  00039	b8 ff ff ff 3f	 mov	 eax, 1073741823		; 3fffffffH
  0003e	8b d1		 mov	 edx, ecx
  00040	d1 ea		 shr	 edx, 1
  00042	2b c2		 sub	 eax, edx
  00044	3b c8		 cmp	 ecx, eax
  00046	76 17		 jbe	 SHORT $LN12@Emplace_re

; 1689 :             return _Max; // geometric growth would overflow

  00048	b8 fc ff ff ff	 mov	 eax, -4			; fffffffcH
  0004d	be ff ff ff 3f	 mov	 esi, 1073741823		; 3fffffffH
; File C:\Program Files (x86)\Microsoft Visual Studio\2019\Professional\VC\Tools\MSVC\14.29.30133\include\xmemory

; 238  :             return _Allocate_manually_vector_aligned<_Traits>(_Bytes);

  00052	50		 push	 eax
  00053	e8 00 00 00 00	 call	 ??$_Allocate_manually_vector_aligned@U_Default_allocate_traits@std@@@std@@YAPAXI@Z ; std::_Allocate_manually_vector_aligned<std::_Default_allocate_traits>
  00058	83 c4 04	 add	 esp, 4
  0005b	8b f8		 mov	 edi, eax
  0005d	eb 44		 jmp	 SHORT $LN23@Emplace_re
$LN12@Emplace_re:
; File C:\Program Files (x86)\Microsoft Visual Studio\2019\Professional\VC\Tools\MSVC\14.29.30133\include\vector

; 1692 :         const size_type _Geometric = _Oldcapacity + _Oldcapacity / 2;

  0005f	8d 04 0a	 lea	 eax, DWORD PTR [edx+ecx]
; File C:\Program Files (x86)\Microsoft Visual Studio\2019\Professional\VC\Tools\MSVC\14.29.30133\include\xmemory

; 64   :         if (_Count > _Max_possible) {

  00062	8b f7		 mov	 esi, edi
  00064	3b c7		 cmp	 eax, edi
  00066	0f 43 f0	 cmovae	 esi, eax
  00069	81 fe ff ff ff
	3f		 cmp	 esi, 1073741823		; 3fffffffH
  0006f	0f 87 8d 00 00
	00		 ja	 $LN75@Emplace_re

; 66   :         }
; 67   :     }
; 68   : 
; 69   :     return _Count * _Ty_size;

  00075	8d 04 b5 00 00
	00 00		 lea	 eax, DWORD PTR [esi*4]

; 237  :         if (_Bytes >= _Big_allocation_threshold) { // boost the alignment of big allocations to help autovectorization

  0007c	3d 00 10 00 00	 cmp	 eax, 4096		; 00001000H
  00081	72 0d		 jb	 SHORT $LN24@Emplace_re

; 238  :             return _Allocate_manually_vector_aligned<_Traits>(_Bytes);

  00083	50		 push	 eax
  00084	e8 00 00 00 00	 call	 ??$_Allocate_manually_vector_aligned@U_Default_allocate_traits@std@@@std@@YAPAXI@Z ; std::_Allocate_manually_vector_aligned<std::_Default_allocate_traits>
  00089	83 c4 04	 add	 esp, 4
  0008c	8b f8		 mov	 edi, eax
  0008e	eb 13		 jmp	 SHORT $LN23@Emplace_re
$LN24@Emplace_re:

; 239  :         }
; 240  :     }
; 241  : #endif // defined(_M_IX86) || defined(_M_X64)
; 242  : 
; 243  :     if (_Bytes != 0) {

  00090	85 c0		 test	 eax, eax
  00092	74 0d		 je	 SHORT $LN25@Emplace_re

; 85   :         return ::operator new(_Bytes);

  00094	50		 push	 eax
  00095	e8 00 00 00 00	 call	 ??2@YAPAXI@Z		; operator new
  0009a	83 c4 04	 add	 esp, 4

; 244  :         return _Traits::_Allocate(_Bytes);

  0009d	8b f8		 mov	 edi, eax
  0009f	eb 02		 jmp	 SHORT $LN23@Emplace_re
$LN25@Emplace_re:

; 245  :     }
; 246  : 
; 247  :     return nullptr;

  000a1	33 ff		 xor	 edi, edi
$LN23@Emplace_re:
; File C:\Program Files (x86)\Microsoft Visual Studio\2019\Professional\VC\Tools\MSVC\14.29.30133\include\vector

; 789  :         _Alty_traits::construct(_Al, _Unfancy(_Newvec + _Whereoff), _STD forward<_Valty>(_Val)...);

  000a3	8b 45 fc	 mov	 eax, DWORD PTR __Whereoff$1$[ebp]
  000a6	8d 0c 87	 lea	 ecx, DWORD PTR [edi+eax*4]
  000a9	8b 45 0c	 mov	 eax, DWORD PTR _<_Val_0>$[ebp]
  000ac	89 4d fc	 mov	 DWORD PTR tv505[ebp], ecx
  000af	8b 00		 mov	 eax, DWORD PTR [eax]
  000b1	89 01		 mov	 DWORD PTR [ecx], eax

; 790  :         _Constructed_first = _Newvec + _Whereoff;
; 791  : 
; 792  :         if (_Whereptr == _Mylast) { // at back, provide strong guarantee

  000b3	8b 4b 04	 mov	 ecx, DWORD PTR [ebx+4]
  000b6	8b 45 08	 mov	 eax, DWORD PTR __Whereptr$[ebp]
  000b9	8b 13		 mov	 edx, DWORD PTR [ebx]
  000bb	3b c1		 cmp	 eax, ecx
  000bd	75 04		 jne	 SHORT $LN4@Emplace_re
; File C:\Program Files (x86)\Microsoft Visual Studio\2019\Professional\VC\Tools\MSVC\14.29.30133\include\xmemory

; 1725 :             _Copy_memmove(_UFirst, _ULast, _Unfancy(_Dest));

  000bf	8b c7		 mov	 eax, edi
; File C:\Program Files (x86)\Microsoft Visual Studio\2019\Professional\VC\Tools\MSVC\14.29.30133\include\vector

; 794  :         } else { // provide basic guarantee

  000c1	eb 17		 jmp	 SHORT $LN60@Emplace_re
$LN4@Emplace_re:
; File C:\Program Files (x86)\Microsoft Visual Studio\2019\Professional\VC\Tools\MSVC\14.29.30133\include\xmemory

; 1725 :             _Copy_memmove(_UFirst, _ULast, _Unfancy(_Dest));

  000c3	57		 push	 edi
  000c4	50		 push	 eax
  000c5	52		 push	 edx
  000c6	e8 00 00 00 00	 call	 ??$_Copy_memmove@PAPAVCGraphicTextInstance@@PAPAV1@@std@@YAPAPAVCGraphicTextInstance@@PAPAV1@00@Z ; std::_Copy_memmove<CGraphicTextInstance * *,CGraphicTextInstance * *>
; File C:\Program Files (x86)\Microsoft Visual Studio\2019\Professional\VC\Tools\MSVC\14.29.30133\include\vector

; 797  :             _Umove(_Whereptr, _Mylast, _Newvec + _Whereoff + 1);

  000cb	8b 45 fc	 mov	 eax, DWORD PTR tv505[ebp]
; File C:\Program Files (x86)\Microsoft Visual Studio\2019\Professional\VC\Tools\MSVC\14.29.30133\include\xmemory

; 1725 :             _Copy_memmove(_UFirst, _ULast, _Unfancy(_Dest));

  000ce	83 c4 0c	 add	 esp, 12			; 0000000cH
  000d1	8b 55 08	 mov	 edx, DWORD PTR __Whereptr$[ebp]
; File C:\Program Files (x86)\Microsoft Visual Studio\2019\Professional\VC\Tools\MSVC\14.29.30133\include\vector

; 797  :             _Umove(_Whereptr, _Mylast, _Newvec + _Whereoff + 1);

  000d4	83 c0 04	 add	 eax, 4
; File C:\Program Files (x86)\Microsoft Visual Studio\2019\Professional\VC\Tools\MSVC\14.29.30133\include\xmemory

; 1725 :             _Copy_memmove(_UFirst, _ULast, _Unfancy(_Dest));

  000d7	8b 4b 04	 mov	 ecx, DWORD PTR [ebx+4]
$LN60@Emplace_re:
; File C:\Program Files (x86)\Microsoft Visual Studio\2019\Professional\VC\Tools\MSVC\14.29.30133\include\vector

; 797  :             _Umove(_Whereptr, _Mylast, _Newvec + _Whereoff + 1);

  000da	50		 push	 eax
  000db	51		 push	 ecx
  000dc	52		 push	 edx
  000dd	e8 00 00 00 00	 call	 ??$_Copy_memmove@PAPAVCGraphicTextInstance@@PAPAV1@@std@@YAPAPAVCGraphicTextInstance@@PAPAV1@00@Z ; std::_Copy_memmove<CGraphicTextInstance * *,CGraphicTextInstance * *>
  000e2	83 c4 0c	 add	 esp, 12			; 0000000cH

; 798  :         }
; 799  :         _CATCH_ALL
; 800  :         _Destroy(_Constructed_first, _Constructed_last);
; 801  :         _Al.deallocate(_Newvec, _Newcapacity);
; 802  :         _RERAISE;
; 803  :         _CATCH_END
; 804  : 
; 805  :         _Change_array(_Newvec, _Newsize, _Newcapacity);

  000e5	8b cb		 mov	 ecx, ebx
  000e7	56		 push	 esi
  000e8	ff 75 f8	 push	 DWORD PTR __Newsize$1$[ebp]
  000eb	57		 push	 edi
  000ec	e8 00 00 00 00	 call	 ?_Change_array@?$vector@PAVCGraphicTextInstance@@V?$allocator@PAVCGraphicTextInstance@@@std@@@std@@AAEXQAPAVCGraphicTextInstance@@II@Z ; std::vector<CGraphicTextInstance *,std::allocator<CGraphicTextInstance *> >::_Change_array

; 806  :         return _Newvec + _Whereoff;

  000f1	8b 45 fc	 mov	 eax, DWORD PTR tv505[ebp]
  000f4	5f		 pop	 edi
  000f5	5e		 pop	 esi
  000f6	5b		 pop	 ebx

; 807  :     }

  000f7	8b e5		 mov	 esp, ebp
  000f9	5d		 pop	 ebp
  000fa	c2 08 00	 ret	 8
$LN74@Emplace_re:

; 778  :             _Xlength();

  000fd	e8 00 00 00 00	 call	 ?_Xlength@?$vector@PAVCGraphicTextInstance@@V?$allocator@PAVCGraphicTextInstance@@@std@@@std@@CAXXZ ; std::vector<CGraphicTextInstance *,std::allocator<CGraphicTextInstance *> >::_Xlength
$LN75@Emplace_re:
; File C:\Program Files (x86)\Microsoft Visual Studio\2019\Professional\VC\Tools\MSVC\14.29.30133\include\xmemory

; 65   :             _Throw_bad_array_new_length(); // multiply overflow

  00102	e8 00 00 00 00	 call	 ?_Throw_bad_array_new_length@std@@YAXXZ ; std::_Throw_bad_array_new_length
$LN72@Emplace_re:
  00107	cc		 int	 3
??$_Emplace_reallocate@ABQAVCGraphicTextInstance@@@?$vector@PAVCGraphicTextInstance@@V?$allocator@PAVCGraphicTextInstance@@@std@@@std@@QAEPAPAVCGraphicTextInstance@@QAPAV2@ABQAV2@@Z ENDP ; std::vector<CGraphicTextInstance *,std::allocator<CGraphicTextInstance *> >::_Emplace_reallocate<CGraphicTextInstance * const &>
_TEXT	ENDS
; Function compile flags: /Ogtp
; File C:\Program Files (x86)\Microsoft Visual Studio\2019\Professional\VC\Tools\MSVC\14.29.30133\include\xstring
; File C:\Program Files (x86)\Microsoft Visual Studio\2019\Professional\VC\Tools\MSVC\14.29.30133\include\xmemory
; File C:\Program Files (x86)\Microsoft Visual Studio\2019\Professional\VC\Tools\MSVC\14.29.30133\include\xstring
; File C:\Program Files (x86)\Microsoft Visual Studio\2019\Professional\VC\Tools\MSVC\14.29.30133\include\xmemory
; File C:\Program Files (x86)\Microsoft Visual Studio\2019\Professional\VC\Tools\MSVC\14.29.30133\include\xstring
; File C:\Program Files (x86)\Microsoft Visual Studio\2019\Professional\VC\Tools\MSVC\14.29.30133\include\utility
; File C:\Program Files (x86)\Microsoft Visual Studio\2019\Professional\VC\Tools\MSVC\14.29.30133\include\xstring
; File C:\Program Files (x86)\Microsoft Visual Studio\2019\Professional\VC\Tools\MSVC\14.29.30133\include\xmemory
; File C:\Program Files (x86)\Microsoft Visual Studio\2019\Professional\VC\Tools\MSVC\14.29.30133\include\xstring
; File C:\Program Files (x86)\Windows Kits\10\Include\10.0.19041.0\ucrt\wchar.h
; File C:\Program Files (x86)\Microsoft Visual Studio\2019\Professional\VC\Tools\MSVC\14.29.30133\include\xstring
; File C:\Program Files (x86)\Windows Kits\10\Include\10.0.19041.0\ucrt\wchar.h
; File C:\Program Files (x86)\Microsoft Visual Studio\2019\Professional\VC\Tools\MSVC\14.29.30133\include\xstring
; File C:\Program Files (x86)\Microsoft Visual Studio\2019\Professional\VC\Tools\MSVC\14.29.30133\include\xmemory
; File C:\Program Files (x86)\Microsoft Visual Studio\2019\Professional\VC\Tools\MSVC\14.29.30133\include\xstring
; File C:\Program Files (x86)\Windows Kits\10\Include\10.0.19041.0\ucrt\wchar.h
; File C:\Program Files (x86)\Microsoft Visual Studio\2019\Professional\VC\Tools\MSVC\14.29.30133\include\xstring
; File C:\Program Files (x86)\Windows Kits\10\Include\10.0.19041.0\ucrt\wchar.h
; File C:\Program Files (x86)\Microsoft Visual Studio\2019\Professional\VC\Tools\MSVC\14.29.30133\include\xstring
; File C:\Program Files (x86)\Microsoft Visual Studio\2019\Professional\VC\Tools\MSVC\14.29.30133\include\xmemory
; File C:\Program Files (x86)\Microsoft Visual Studio\2019\Professional\VC\Tools\MSVC\14.29.30133\include\xstring
;	COMDAT ??$_Reallocate_grow_by@V<lambda_c3135ae829aeedc0a8af1bd1e887c66a>@@I_W@?$basic_string@_WU?$char_traits@_W@std@@V?$allocator@_W@2@@std@@AAEAAV01@IV<lambda_c3135ae829aeedc0a8af1bd1e887c66a>@@I_W@Z
_TEXT	SEGMENT
_this$1$ = -12						; size = 4
__Su$1$ = -8						; size = 4
__New_size$1$ = -8					; size = 4
__Old_size$1$ = -4					; size = 4
__Old$1$ = 8						; size = 4
__Size_increase$ = 8					; size = 4
__Fn$ = 12						; size = 1
_<_Args_0>$ = 16					; size = 4
_<_Args_1>$ = 20					; size = 2
??$_Reallocate_grow_by@V<lambda_c3135ae829aeedc0a8af1bd1e887c66a>@@I_W@?$basic_string@_WU?$char_traits@_W@std@@V?$allocator@_W@2@@std@@AAEAAV01@IV<lambda_c3135ae829aeedc0a8af1bd1e887c66a>@@I_W@Z PROC ; std::basic_string<wchar_t,std::char_traits<wchar_t>,std::allocator<wchar_t> >::_Reallocate_grow_by<<lambda_c3135ae829aeedc0a8af1bd1e887c66a>,unsigned int,wchar_t>, COMDAT
; _this$ = ecx

; 4538 :         const size_type _Size_increase, _Fty _Fn, _ArgTys... _Args) {

  00000	55		 push	 ebp
  00001	8b ec		 mov	 ebp, esp
  00003	83 ec 0c	 sub	 esp, 12			; 0000000cH

; 4539 :         // reallocate to increase size by _Size_increase elements, new buffer prepared by
; 4540 :         // _Fn(_New_ptr, _Old_ptr, _Old_size, _Args...)
; 4541 :         auto& _My_data            = _Mypair._Myval2;
; 4542 :         const size_type _Old_size = _My_data._Mysize;
; 4543 :         if (max_size() - _Old_size < _Size_increase) {

  00006	8b 55 08	 mov	 edx, DWORD PTR __Size_increase$[ebp]
  00009	53		 push	 ebx
  0000a	56		 push	 esi
  0000b	57		 push	 edi
  0000c	8b f9		 mov	 edi, ecx
  0000e	b9 fe ff ff 7f	 mov	 ecx, 2147483646		; 7ffffffeH
  00013	8b c1		 mov	 eax, ecx
  00015	89 7d f4	 mov	 DWORD PTR _this$1$[ebp], edi
  00018	8b 5f 10	 mov	 ebx, DWORD PTR [edi+16]
  0001b	2b c3		 sub	 eax, ebx
  0001d	89 5d fc	 mov	 DWORD PTR __Old_size$1$[ebp], ebx
  00020	3b c2		 cmp	 eax, edx
  00022	0f 82 63 01 00
	00		 jb	 $LN77@Reallocate

; 4548 :         const size_type _Old_capacity = _My_data._Myres;

  00028	8b 77 14	 mov	 esi, DWORD PTR [edi+20]
  0002b	8d 04 13	 lea	 eax, DWORD PTR [ebx+edx]

; 4488 :         const size_type _Masked = _Requested | _ALLOC_MASK;

  0002e	8b d8		 mov	 ebx, eax

; 4545 :         }
; 4546 : 
; 4547 :         const size_type _New_size     = _Old_size + _Size_increase;

  00030	89 45 f8	 mov	 DWORD PTR __New_size$1$[ebp], eax

; 4488 :         const size_type _Masked = _Requested | _ALLOC_MASK;

  00033	83 cb 07	 or	 ebx, 7

; 4548 :         const size_type _Old_capacity = _My_data._Myres;

  00036	89 75 08	 mov	 DWORD PTR __Old$1$[ebp], esi

; 4488 :         const size_type _Masked = _Requested | _ALLOC_MASK;

  00039	3b d9		 cmp	 ebx, ecx

; 4489 :         if (_Masked > _Max) { // the mask overflows, settle for max_size()

  0003b	76 14		 jbe	 SHORT $LN9@Reallocate

; 4490 :             return _Max;

  0003d	b8 fe ff ff ff	 mov	 eax, -2			; fffffffeH
  00042	8b d9		 mov	 ebx, ecx
; File C:\Program Files (x86)\Microsoft Visual Studio\2019\Professional\VC\Tools\MSVC\14.29.30133\include\xmemory

; 238  :             return _Allocate_manually_vector_aligned<_Traits>(_Bytes);

  00044	50		 push	 eax
  00045	e8 00 00 00 00	 call	 ??$_Allocate_manually_vector_aligned@U_Default_allocate_traits@std@@@std@@YAPAXI@Z ; std::_Allocate_manually_vector_aligned<std::_Default_allocate_traits>
  0004a	83 c4 04	 add	 esp, 4
  0004d	8b f0		 mov	 esi, eax
  0004f	eb 5f		 jmp	 SHORT $LN20@Reallocate
$LN9@Reallocate:
; File C:\Program Files (x86)\Microsoft Visual Studio\2019\Professional\VC\Tools\MSVC\14.29.30133\include\xstring

; 4493 :         if (_Old > _Max - _Old / 2) { // similarly, geometric overflows

  00051	8b c6		 mov	 eax, esi
  00053	d1 e8		 shr	 eax, 1
  00055	2b c8		 sub	 ecx, eax
  00057	3b f1		 cmp	 esi, ecx
  00059	76 17		 jbe	 SHORT $LN10@Reallocate

; 4494 :             return _Max;

  0005b	b8 fe ff ff ff	 mov	 eax, -2			; fffffffeH
  00060	bb fe ff ff 7f	 mov	 ebx, 2147483646		; 7ffffffeH
; File C:\Program Files (x86)\Microsoft Visual Studio\2019\Professional\VC\Tools\MSVC\14.29.30133\include\xmemory

; 238  :             return _Allocate_manually_vector_aligned<_Traits>(_Bytes);

  00065	50		 push	 eax
  00066	e8 00 00 00 00	 call	 ??$_Allocate_manually_vector_aligned@U_Default_allocate_traits@std@@@std@@YAPAXI@Z ; std::_Allocate_manually_vector_aligned<std::_Default_allocate_traits>
  0006b	83 c4 04	 add	 esp, 4
  0006e	8b f0		 mov	 esi, eax
  00070	eb 3e		 jmp	 SHORT $LN20@Reallocate
$LN10@Reallocate:
; File C:\Program Files (x86)\Microsoft Visual Studio\2019\Professional\VC\Tools\MSVC\14.29.30133\include\xstring

; 4497 :         return (_STD max)(_Masked, _Old + _Old / 2);

  00072	03 c6		 add	 eax, esi
; File C:\Program Files (x86)\Microsoft Visual Studio\2019\Professional\VC\Tools\MSVC\14.29.30133\include\utility

; 44   :     return _Left < _Right ? _Right : _Left;

  00074	3b d8		 cmp	 ebx, eax
  00076	0f 42 d8	 cmovb	 ebx, eax
; File C:\Program Files (x86)\Microsoft Visual Studio\2019\Professional\VC\Tools\MSVC\14.29.30133\include\xstring

; 4551 :         const pointer _New_ptr        = _Al.allocate(_New_capacity + 1); // throws

  00079	8d 43 01	 lea	 eax, DWORD PTR [ebx+1]
; File C:\Program Files (x86)\Microsoft Visual Studio\2019\Professional\VC\Tools\MSVC\14.29.30133\include\xmemory

; 64   :         if (_Count > _Max_possible) {

  0007c	3d ff ff ff 7f	 cmp	 eax, 2147483647		; 7fffffffH
  00081	0f 87 09 01 00
	00		 ja	 $LN78@Reallocate

; 66   :         }
; 67   :     }
; 68   : 
; 69   :     return _Count * _Ty_size;

  00087	03 c0		 add	 eax, eax

; 237  :         if (_Bytes >= _Big_allocation_threshold) { // boost the alignment of big allocations to help autovectorization

  00089	3d 00 10 00 00	 cmp	 eax, 4096		; 00001000H
  0008e	72 0d		 jb	 SHORT $LN21@Reallocate

; 238  :             return _Allocate_manually_vector_aligned<_Traits>(_Bytes);

  00090	50		 push	 eax
  00091	e8 00 00 00 00	 call	 ??$_Allocate_manually_vector_aligned@U_Default_allocate_traits@std@@@std@@YAPAXI@Z ; std::_Allocate_manually_vector_aligned<std::_Default_allocate_traits>
  00096	83 c4 04	 add	 esp, 4
  00099	8b f0		 mov	 esi, eax
  0009b	eb 13		 jmp	 SHORT $LN20@Reallocate
$LN21@Reallocate:

; 239  :         }
; 240  :     }
; 241  : #endif // defined(_M_IX86) || defined(_M_X64)
; 242  : 
; 243  :     if (_Bytes != 0) {

  0009d	85 c0		 test	 eax, eax
  0009f	74 0d		 je	 SHORT $LN22@Reallocate

; 85   :         return ::operator new(_Bytes);

  000a1	50		 push	 eax
  000a2	e8 00 00 00 00	 call	 ??2@YAPAXI@Z		; operator new
  000a7	83 c4 04	 add	 esp, 4

; 244  :         return _Traits::_Allocate(_Bytes);

  000aa	8b f0		 mov	 esi, eax
  000ac	eb 02		 jmp	 SHORT $LN20@Reallocate
$LN22@Reallocate:

; 245  :     }
; 246  : 
; 247  :     return nullptr;

  000ae	33 f6		 xor	 esi, esi
$LN20@Reallocate:
; File C:\Program Files (x86)\Microsoft Visual Studio\2019\Professional\VC\Tools\MSVC\14.29.30133\include\xstring

; 4562 :         if (_BUF_SIZE <= _Old_capacity) {

  000b0	83 7d 08 08	 cmp	 DWORD PTR __Old$1$[ebp], 8
  000b4	8b 45 f8	 mov	 eax, DWORD PTR __New_size$1$[ebp]
  000b7	89 5f 14	 mov	 DWORD PTR [edi+20], ebx
  000ba	8b 5d fc	 mov	 ebx, DWORD PTR __Old_size$1$[ebp]
  000bd	89 47 10	 mov	 DWORD PTR [edi+16], eax
  000c0	8d 04 1b	 lea	 eax, DWORD PTR [ebx+ebx]
  000c3	8d 0c 30	 lea	 ecx, DWORD PTR [eax+esi]
  000c6	89 4d f8	 mov	 DWORD PTR __Su$1$[ebp], ecx
  000c9	50		 push	 eax
  000ca	72 78		 jb	 SHORT $LN3@Reallocate

; 4563 :             const pointer _Old_ptr = _My_data._Bx._Ptr;

  000cc	8b 1f		 mov	 ebx, DWORD PTR [edi]

; 65   :         _CSTD memcpy(_First1, _First2, _Count * sizeof(_Elem));

  000ce	53		 push	 ebx
  000cf	56		 push	 esi
  000d0	e8 00 00 00 00	 call	 _memcpy
; File C:\Program Files (x86)\Windows Kits\10\Include\10.0.19041.0\ucrt\wchar.h

; 259  :         for (; 0 < _N; ++_Su, --_N)

  000d5	8b 45 10	 mov	 eax, DWORD PTR _<_Args_0>$[ebp]
; File C:\Program Files (x86)\Microsoft Visual Studio\2019\Professional\VC\Tools\MSVC\14.29.30133\include\xstring

; 65   :         _CSTD memcpy(_First1, _First2, _Count * sizeof(_Elem));

  000d8	83 c4 0c	 add	 esp, 12			; 0000000cH
; File C:\Program Files (x86)\Windows Kits\10\Include\10.0.19041.0\ucrt\wchar.h

; 259  :         for (; 0 < _N; ++_Su, --_N)

  000db	85 c0		 test	 eax, eax
  000dd	74 1e		 je	 SHORT $LN36@Reallocate
; File C:\Program Files (x86)\Microsoft Visual Studio\2019\Professional\VC\Tools\MSVC\14.29.30133\include\xstring

; 4563 :             const pointer _Old_ptr = _My_data._Bx._Ptr;

  000df	8b 7d f8	 mov	 edi, DWORD PTR __Su$1$[ebp]
  000e2	8b c8		 mov	 ecx, eax
  000e4	8b 45 14	 mov	 eax, DWORD PTR _<_Args_1>$[ebp]
  000e7	0f b7 d0	 movzx	 edx, ax
  000ea	8b c2		 mov	 eax, edx
  000ec	c1 e2 10	 shl	 edx, 16			; 00000010H
  000ef	0b c2		 or	 eax, edx
  000f1	d1 e9		 shr	 ecx, 1
  000f3	f3 ab		 rep stosd
  000f5	13 c9		 adc	 ecx, ecx
  000f7	66 f3 ab	 rep stosw
  000fa	8b 7d f4	 mov	 edi, DWORD PTR _this$1$[ebp]
$LN36@Reallocate:

; 3195 :                 _Traits::assign(_New_ptr[_Old_size + _Count], _Elem());

  000fd	8b 45 fc	 mov	 eax, DWORD PTR __Old_size$1$[ebp]
  00100	33 c9		 xor	 ecx, ecx
  00102	03 45 10	 add	 eax, DWORD PTR _<_Args_0>$[ebp]
  00105	66 89 0c 46	 mov	 WORD PTR [esi+eax*2], cx
; File C:\Program Files (x86)\Microsoft Visual Studio\2019\Professional\VC\Tools\MSVC\14.29.30133\include\xmemory

; 835  :         _Deallocate<_New_alignof<_Ty>>(_Ptr, sizeof(_Ty) * _Count);

  00109	8b 45 08	 mov	 eax, DWORD PTR __Old$1$[ebp]
  0010c	8d 0c 45 02 00
	00 00		 lea	 ecx, DWORD PTR [eax*2+2]

; 260  :         if (_Bytes >= _Big_allocation_threshold) { // boost the alignment of big allocations to help autovectorization

  00113	81 f9 00 10 00
	00		 cmp	 ecx, 4096		; 00001000H
  00119	72 12		 jb	 SHORT $LN52@Reallocate

; 158  :     const uintptr_t _Ptr_container   = _Ptr_user[-1];

  0011b	8b 53 fc	 mov	 edx, DWORD PTR [ebx-4]
  0011e	83 c1 23	 add	 ecx, 35			; 00000023H

; 159  : 
; 160  :     // If the following asserts, it likely means that we are performing
; 161  :     // an aligned delete on memory coming from an unaligned allocation.
; 162  :     _STL_ASSERT(_Ptr_user[-2] == _Big_allocation_sentinel, "invalid argument");
; 163  : 
; 164  :     // Extra paranoia on aligned allocation/deallocation; ensure _Ptr_container is
; 165  :     // in range [_Min_back_shift, _Non_user_size]
; 166  : #ifdef _DEBUG
; 167  :     constexpr uintptr_t _Min_back_shift = 2 * sizeof(void*);
; 168  : #else // ^^^ _DEBUG ^^^ // vvv !_DEBUG vvv
; 169  :     constexpr uintptr_t _Min_back_shift = sizeof(void*);
; 170  : #endif // _DEBUG
; 171  :     const uintptr_t _Back_shift = reinterpret_cast<uintptr_t>(_Ptr) - _Ptr_container;

  00121	2b da		 sub	 ebx, edx

; 172  :     _STL_VERIFY(_Back_shift >= _Min_back_shift && _Back_shift <= _Non_user_size, "invalid argument");

  00123	8d 43 fc	 lea	 eax, DWORD PTR [ebx-4]
  00126	83 f8 1f	 cmp	 eax, 31			; 0000001fH
  00129	77 6a		 ja	 SHORT $LN49@Reallocate

; 173  :     _Ptr = reinterpret_cast<void*>(_Ptr_container);

  0012b	8b da		 mov	 ebx, edx
$LN52@Reallocate:

; 264  :         ::operator delete(_Ptr, _Bytes);

  0012d	51		 push	 ecx
  0012e	53		 push	 ebx
  0012f	e8 00 00 00 00	 call	 ??3@YAXPAXI@Z		; operator delete
  00134	83 c4 08	 add	 esp, 8
; File C:\Program Files (x86)\Microsoft Visual Studio\2019\Professional\VC\Tools\MSVC\14.29.30133\include\xstring

; 4572 :         return *this;

  00137	89 37		 mov	 DWORD PTR [edi], esi
  00139	8b c7		 mov	 eax, edi
  0013b	5f		 pop	 edi
  0013c	5e		 pop	 esi
  0013d	5b		 pop	 ebx

; 4573 :     }

  0013e	8b e5		 mov	 esp, ebp
  00140	5d		 pop	 ebp
  00141	c2 10 00	 ret	 16			; 00000010H
$LN3@Reallocate:

; 65   :         _CSTD memcpy(_First1, _First2, _Count * sizeof(_Elem));

  00144	57		 push	 edi
  00145	56		 push	 esi
  00146	e8 00 00 00 00	 call	 _memcpy
; File C:\Program Files (x86)\Windows Kits\10\Include\10.0.19041.0\ucrt\wchar.h

; 259  :         for (; 0 < _N; ++_Su, --_N)

  0014b	8b 45 10	 mov	 eax, DWORD PTR _<_Args_0>$[ebp]
; File C:\Program Files (x86)\Microsoft Visual Studio\2019\Professional\VC\Tools\MSVC\14.29.30133\include\xstring

; 65   :         _CSTD memcpy(_First1, _First2, _Count * sizeof(_Elem));

  0014e	83 c4 0c	 add	 esp, 12			; 0000000cH
; File C:\Program Files (x86)\Windows Kits\10\Include\10.0.19041.0\ucrt\wchar.h

; 259  :         for (; 0 < _N; ++_Su, --_N)

  00151	85 c0		 test	 eax, eax
  00153	74 21		 je	 SHORT $LN64@Reallocate
; File C:\Program Files (x86)\Microsoft Visual Studio\2019\Professional\VC\Tools\MSVC\14.29.30133\include\xstring

; 65   :         _CSTD memcpy(_First1, _First2, _Count * sizeof(_Elem));

  00155	8b 7d f8	 mov	 edi, DWORD PTR __Su$1$[ebp]
  00158	8b c8		 mov	 ecx, eax
  0015a	8b 45 14	 mov	 eax, DWORD PTR _<_Args_1>$[ebp]
  0015d	0f b7 d0	 movzx	 edx, ax
  00160	8b c2		 mov	 eax, edx
  00162	c1 e2 10	 shl	 edx, 16			; 00000010H
  00165	0b c2		 or	 eax, edx
  00167	d1 e9		 shr	 ecx, 1
  00169	f3 ab		 rep stosd
  0016b	13 c9		 adc	 ecx, ecx
  0016d	66 f3 ab	 rep stosw
  00170	8b 7d f4	 mov	 edi, DWORD PTR _this$1$[ebp]
  00173	8b 45 10	 mov	 eax, DWORD PTR _<_Args_0>$[ebp]
$LN64@Reallocate:

; 3195 :                 _Traits::assign(_New_ptr[_Old_size + _Count], _Elem());

  00176	03 c3		 add	 eax, ebx
  00178	33 c9		 xor	 ecx, ecx
  0017a	66 89 0c 46	 mov	 WORD PTR [esi+eax*2], cx

; 4572 :         return *this;

  0017e	8b c7		 mov	 eax, edi
  00180	89 37		 mov	 DWORD PTR [edi], esi
  00182	5f		 pop	 edi
  00183	5e		 pop	 esi
  00184	5b		 pop	 ebx

; 4573 :     }

  00185	8b e5		 mov	 esp, ebp
  00187	5d		 pop	 ebp
  00188	c2 10 00	 ret	 16			; 00000010H
$LN77@Reallocate:

; 4544 :             _Xlen_string(); // result too long

  0018b	e8 00 00 00 00	 call	 ?_Xlen_string@std@@YAXXZ ; std::_Xlen_string
$LN78@Reallocate:
; File C:\Program Files (x86)\Microsoft Visual Studio\2019\Professional\VC\Tools\MSVC\14.29.30133\include\xmemory

; 65   :             _Throw_bad_array_new_length(); // multiply overflow

  00190	e8 00 00 00 00	 call	 ?_Throw_bad_array_new_length@std@@YAXXZ ; std::_Throw_bad_array_new_length
$LN49@Reallocate:

; 172  :     _STL_VERIFY(_Back_shift >= _Min_back_shift && _Back_shift <= _Non_user_size, "invalid argument");

  00195	e8 00 00 00 00	 call	 __invalid_parameter_noinfo_noreturn
$LN75@Reallocate:
  0019a	cc		 int	 3
??$_Reallocate_grow_by@V<lambda_c3135ae829aeedc0a8af1bd1e887c66a>@@I_W@?$basic_string@_WU?$char_traits@_W@std@@V?$allocator@_W@2@@std@@AAEAAV01@IV<lambda_c3135ae829aeedc0a8af1bd1e887c66a>@@I_W@Z ENDP ; std::basic_string<wchar_t,std::char_traits<wchar_t>,std::allocator<wchar_t> >::_Reallocate_grow_by<<lambda_c3135ae829aeedc0a8af1bd1e887c66a>,unsigned int,wchar_t>
_TEXT	ENDS
; Function compile flags: /Ogtp
; File C:\Program Files (x86)\Microsoft Visual Studio\2019\Professional\VC\Tools\MSVC\14.29.30133\include\vector
; File C:\Program Files (x86)\Microsoft Visual Studio\2019\Professional\VC\Tools\MSVC\14.29.30133\include\xmemory
; File C:\Program Files (x86)\Microsoft Visual Studio\2019\Professional\VC\Tools\MSVC\14.29.30133\include\vector
; File C:\Program Files (x86)\Microsoft Visual Studio\2019\Professional\VC\Tools\MSVC\14.29.30133\include\xmemory
; File C:\Program Files (x86)\Microsoft Visual Studio\2019\Professional\VC\Tools\MSVC\14.29.30133\include\vector
; File C:\Program Files (x86)\Microsoft Visual Studio\2019\Professional\VC\Tools\MSVC\14.29.30133\include\xmemory
; File C:\Program Files (x86)\Microsoft Visual Studio\2019\Professional\VC\Tools\MSVC\14.29.30133\include\vector
; File C:\Program Files (x86)\Microsoft Visual Studio\2019\Professional\VC\Tools\MSVC\14.29.30133\include\xmemory
; File C:\Program Files (x86)\Microsoft Visual Studio\2019\Professional\VC\Tools\MSVC\14.29.30133\include\vector
; File C:\Program Files (x86)\Microsoft Visual Studio\2019\Professional\VC\Tools\MSVC\14.29.30133\include\xmemory
; File C:\Program Files (x86)\Microsoft Visual Studio\2019\Professional\VC\Tools\MSVC\14.29.30133\include\vector
; File C:\Program Files (x86)\Microsoft Visual Studio\2019\Professional\VC\Tools\MSVC\14.29.30133\include\xmemory
; File C:\Program Files (x86)\Microsoft Visual Studio\2019\Professional\VC\Tools\MSVC\14.29.30133\include\vector
; File C:\Program Files (x86)\Microsoft Visual Studio\2019\Professional\VC\Tools\MSVC\14.29.30133\include\xmemory
; File C:\Program Files (x86)\Microsoft Visual Studio\2019\Professional\VC\Tools\MSVC\14.29.30133\include\vector
; File C:\Program Files (x86)\Microsoft Visual Studio\2019\Professional\VC\Tools\MSVC\14.29.30133\include\xmemory
; File C:\Program Files (x86)\Microsoft Visual Studio\2019\Professional\VC\Tools\MSVC\14.29.30133\include\vector
; File C:\Program Files (x86)\Microsoft Visual Studio\2019\Professional\VC\Tools\MSVC\14.29.30133\include\xmemory
; File C:\Program Files (x86)\Microsoft Visual Studio\2019\Professional\VC\Tools\MSVC\14.29.30133\include\vector
;	COMDAT ??$_Emplace_reallocate@ABQAUSCharacterInfomation@CGraphicFontTexture@@@?$vector@PAUSCharacterInfomation@CGraphicFontTexture@@V?$allocator@PAUSCharacterInfomation@CGraphicFontTexture@@@std@@@std@@QAEPAPAUSCharacterInfomation@CGraphicFontTexture@@QAPAU23@ABQAU23@@Z
_TEXT	SEGMENT
__Newsize$1$ = -8					; size = 4
tv641 = -4						; size = 4
__Whereoff$1$ = -4					; size = 4
__Whereptr$ = 8						; size = 4
_<_Val_0>$ = 12						; size = 4
??$_Emplace_reallocate@ABQAUSCharacterInfomation@CGraphicFontTexture@@@?$vector@PAUSCharacterInfomation@CGraphicFontTexture@@V?$allocator@PAUSCharacterInfomation@CGraphicFontTexture@@@std@@@std@@QAEPAPAUSCharacterInfomation@CGraphicFontTexture@@QAPAU23@ABQAU23@@Z PROC ; std::vector<CGraphicFontTexture::SCharacterInfomation *,std::allocator<CGraphicFontTexture::SCharacterInfomation *> >::_Emplace_reallocate<CGraphicFontTexture::SCharacterInfomation * const &>, COMDAT
; _this$ = ecx

; 765  :     _CONSTEXPR20_CONTAINER pointer _Emplace_reallocate(const pointer _Whereptr, _Valty&&... _Val) {

  00000	55		 push	 ebp
  00001	8b ec		 mov	 ebp, esp
  00003	83 ec 08	 sub	 esp, 8

; 766  :         // reallocate and insert by perfectly forwarding _Val at _Whereptr
; 767  :         _Alty& _Al        = _Getal();
; 768  :         auto& _My_data    = _Mypair._Myval2;
; 769  :         pointer& _Myfirst = _My_data._Myfirst;
; 770  :         pointer& _Mylast  = _My_data._Mylast;
; 771  : 
; 772  :         _STL_INTERNAL_CHECK(_Mylast == _My_data._Myend); // check that we have no unused capacity
; 773  : 
; 774  :         const auto _Whereoff = static_cast<size_type>(_Whereptr - _Myfirst);

  00006	8b 45 08	 mov	 eax, DWORD PTR __Whereptr$[ebp]
  00009	53		 push	 ebx
  0000a	56		 push	 esi
  0000b	8b f1		 mov	 esi, ecx
  0000d	57		 push	 edi
  0000e	8b 0e		 mov	 ecx, DWORD PTR [esi]
  00010	2b c1		 sub	 eax, ecx
  00012	c1 f8 02	 sar	 eax, 2
  00015	89 45 fc	 mov	 DWORD PTR __Whereoff$1$[ebp], eax

; 775  :         const auto _Oldsize  = static_cast<size_type>(_Mylast - _Myfirst);

  00018	8b 46 04	 mov	 eax, DWORD PTR [esi+4]
  0001b	2b c1		 sub	 eax, ecx
  0001d	c1 f8 02	 sar	 eax, 2

; 776  : 
; 777  :         if (_Oldsize == max_size()) {

  00020	3d ff ff ff 3f	 cmp	 eax, 1073741823		; 3fffffffH
  00025	0f 84 06 01 00
	00		 je	 $LN96@Emplace_re

; 1559 :         return static_cast<size_type>(_My_data._Myend - _My_data._Myfirst);

  0002b	8b 56 08	 mov	 edx, DWORD PTR [esi+8]

; 779  :         }
; 780  : 
; 781  :         const size_type _Newsize     = _Oldsize + 1;

  0002e	8d 78 01	 lea	 edi, DWORD PTR [eax+1]

; 1559 :         return static_cast<size_type>(_My_data._Myend - _My_data._Myfirst);

  00031	2b d1		 sub	 edx, ecx

; 779  :         }
; 780  : 
; 781  :         const size_type _Newsize     = _Oldsize + 1;

  00033	89 7d f8	 mov	 DWORD PTR __Newsize$1$[ebp], edi

; 1559 :         return static_cast<size_type>(_My_data._Myend - _My_data._Myfirst);

  00036	c1 fa 02	 sar	 edx, 2

; 1688 :         if (_Oldcapacity > _Max - _Oldcapacity / 2) {

  00039	b8 ff ff ff 3f	 mov	 eax, 1073741823		; 3fffffffH
  0003e	8b ca		 mov	 ecx, edx
  00040	d1 e9		 shr	 ecx, 1
  00042	2b c1		 sub	 eax, ecx
  00044	3b d0		 cmp	 edx, eax
  00046	76 12		 jbe	 SHORT $LN12@Emplace_re

; 1689 :             return _Max; // geometric growth would overflow

  00048	bb fc ff ff ff	 mov	 ebx, -4			; fffffffcH
; File C:\Program Files (x86)\Microsoft Visual Studio\2019\Professional\VC\Tools\MSVC\14.29.30133\include\xmemory

; 238  :             return _Allocate_manually_vector_aligned<_Traits>(_Bytes);

  0004d	53		 push	 ebx
  0004e	e8 00 00 00 00	 call	 ??$_Allocate_manually_vector_aligned@U_Default_allocate_traits@std@@@std@@YAPAXI@Z ; std::_Allocate_manually_vector_aligned<std::_Default_allocate_traits>
  00053	83 c4 04	 add	 esp, 4
  00056	8b f8		 mov	 edi, eax
  00058	eb 41		 jmp	 SHORT $LN23@Emplace_re
$LN12@Emplace_re:
; File C:\Program Files (x86)\Microsoft Visual Studio\2019\Professional\VC\Tools\MSVC\14.29.30133\include\vector

; 1692 :         const size_type _Geometric = _Oldcapacity + _Oldcapacity / 2;

  0005a	8d 04 11	 lea	 eax, DWORD PTR [ecx+edx]
; File C:\Program Files (x86)\Microsoft Visual Studio\2019\Professional\VC\Tools\MSVC\14.29.30133\include\xmemory

; 64   :         if (_Count > _Max_possible) {

  0005d	8b df		 mov	 ebx, edi
  0005f	3b c7		 cmp	 eax, edi
  00061	0f 43 d8	 cmovae	 ebx, eax
  00064	81 fb ff ff ff
	3f		 cmp	 ebx, 1073741823		; 3fffffffH
  0006a	0f 87 c6 00 00
	00		 ja	 $LN97@Emplace_re

; 66   :         }
; 67   :     }
; 68   : 
; 69   :     return _Count * _Ty_size;

  00070	c1 e3 02	 shl	 ebx, 2

; 237  :         if (_Bytes >= _Big_allocation_threshold) { // boost the alignment of big allocations to help autovectorization

  00073	81 fb 00 10 00
	00		 cmp	 ebx, 4096		; 00001000H
  00079	72 0d		 jb	 SHORT $LN24@Emplace_re

; 238  :             return _Allocate_manually_vector_aligned<_Traits>(_Bytes);

  0007b	53		 push	 ebx
  0007c	e8 00 00 00 00	 call	 ??$_Allocate_manually_vector_aligned@U_Default_allocate_traits@std@@@std@@YAPAXI@Z ; std::_Allocate_manually_vector_aligned<std::_Default_allocate_traits>
  00081	83 c4 04	 add	 esp, 4
  00084	8b f8		 mov	 edi, eax
  00086	eb 13		 jmp	 SHORT $LN23@Emplace_re
$LN24@Emplace_re:

; 239  :         }
; 240  :     }
; 241  : #endif // defined(_M_IX86) || defined(_M_X64)
; 242  : 
; 243  :     if (_Bytes != 0) {

  00088	85 db		 test	 ebx, ebx
  0008a	74 0d		 je	 SHORT $LN25@Emplace_re

; 85   :         return ::operator new(_Bytes);

  0008c	53		 push	 ebx
  0008d	e8 00 00 00 00	 call	 ??2@YAPAXI@Z		; operator new
  00092	83 c4 04	 add	 esp, 4

; 244  :         return _Traits::_Allocate(_Bytes);

  00095	8b f8		 mov	 edi, eax
  00097	eb 02		 jmp	 SHORT $LN23@Emplace_re
$LN25@Emplace_re:

; 245  :     }
; 246  : 
; 247  :     return nullptr;

  00099	33 ff		 xor	 edi, edi
$LN23@Emplace_re:
; File C:\Program Files (x86)\Microsoft Visual Studio\2019\Professional\VC\Tools\MSVC\14.29.30133\include\vector

; 789  :         _Alty_traits::construct(_Al, _Unfancy(_Newvec + _Whereoff), _STD forward<_Valty>(_Val)...);

  0009b	8b 45 fc	 mov	 eax, DWORD PTR __Whereoff$1$[ebp]
  0009e	8d 0c 87	 lea	 ecx, DWORD PTR [edi+eax*4]
  000a1	8b 45 0c	 mov	 eax, DWORD PTR _<_Val_0>$[ebp]
  000a4	89 4d fc	 mov	 DWORD PTR tv641[ebp], ecx
  000a7	8b 00		 mov	 eax, DWORD PTR [eax]
  000a9	89 01		 mov	 DWORD PTR [ecx], eax

; 790  :         _Constructed_first = _Newvec + _Whereoff;
; 791  : 
; 792  :         if (_Whereptr == _Mylast) { // at back, provide strong guarantee

  000ab	8b 4e 04	 mov	 ecx, DWORD PTR [esi+4]
  000ae	8b 45 08	 mov	 eax, DWORD PTR __Whereptr$[ebp]
  000b1	8b 16		 mov	 edx, DWORD PTR [esi]
  000b3	3b c1		 cmp	 eax, ecx
  000b5	75 04		 jne	 SHORT $LN4@Emplace_re
; File C:\Program Files (x86)\Microsoft Visual Studio\2019\Professional\VC\Tools\MSVC\14.29.30133\include\xmemory

; 1725 :             _Copy_memmove(_UFirst, _ULast, _Unfancy(_Dest));

  000b7	8b c7		 mov	 eax, edi
; File C:\Program Files (x86)\Microsoft Visual Studio\2019\Professional\VC\Tools\MSVC\14.29.30133\include\vector

; 794  :         } else { // provide basic guarantee

  000b9	eb 17		 jmp	 SHORT $LN60@Emplace_re
$LN4@Emplace_re:
; File C:\Program Files (x86)\Microsoft Visual Studio\2019\Professional\VC\Tools\MSVC\14.29.30133\include\xmemory

; 1725 :             _Copy_memmove(_UFirst, _ULast, _Unfancy(_Dest));

  000bb	57		 push	 edi
  000bc	50		 push	 eax
  000bd	52		 push	 edx
  000be	e8 00 00 00 00	 call	 ??$_Copy_memmove@PAPAUSCharacterInfomation@CGraphicFontTexture@@PAPAU12@@std@@YAPAPAUSCharacterInfomation@CGraphicFontTexture@@PAPAU12@00@Z ; std::_Copy_memmove<CGraphicFontTexture::SCharacterInfomation * *,CGraphicFontTexture::SCharacterInfomation * *>
; File C:\Program Files (x86)\Microsoft Visual Studio\2019\Professional\VC\Tools\MSVC\14.29.30133\include\vector

; 797  :             _Umove(_Whereptr, _Mylast, _Newvec + _Whereoff + 1);

  000c3	8b 45 fc	 mov	 eax, DWORD PTR tv641[ebp]
; File C:\Program Files (x86)\Microsoft Visual Studio\2019\Professional\VC\Tools\MSVC\14.29.30133\include\xmemory

; 1725 :             _Copy_memmove(_UFirst, _ULast, _Unfancy(_Dest));

  000c6	83 c4 0c	 add	 esp, 12			; 0000000cH
  000c9	8b 55 08	 mov	 edx, DWORD PTR __Whereptr$[ebp]
; File C:\Program Files (x86)\Microsoft Visual Studio\2019\Professional\VC\Tools\MSVC\14.29.30133\include\vector

; 797  :             _Umove(_Whereptr, _Mylast, _Newvec + _Whereoff + 1);

  000cc	83 c0 04	 add	 eax, 4
; File C:\Program Files (x86)\Microsoft Visual Studio\2019\Professional\VC\Tools\MSVC\14.29.30133\include\xmemory

; 1725 :             _Copy_memmove(_UFirst, _ULast, _Unfancy(_Dest));

  000cf	8b 4e 04	 mov	 ecx, DWORD PTR [esi+4]
$LN60@Emplace_re:
; File C:\Program Files (x86)\Microsoft Visual Studio\2019\Professional\VC\Tools\MSVC\14.29.30133\include\vector

; 797  :             _Umove(_Whereptr, _Mylast, _Newvec + _Whereoff + 1);

  000d2	50		 push	 eax
  000d3	51		 push	 ecx
  000d4	52		 push	 edx
  000d5	e8 00 00 00 00	 call	 ??$_Copy_memmove@PAPAUSCharacterInfomation@CGraphicFontTexture@@PAPAU12@@std@@YAPAPAUSCharacterInfomation@CGraphicFontTexture@@PAPAU12@00@Z ; std::_Copy_memmove<CGraphicFontTexture::SCharacterInfomation * *,CGraphicFontTexture::SCharacterInfomation * *>

; 1745 :         if (_Myfirst) { // destroy and deallocate old array

  000da	8b 06		 mov	 eax, DWORD PTR [esi]

; 797  :             _Umove(_Whereptr, _Mylast, _Newvec + _Whereoff + 1);

  000dc	83 c4 0c	 add	 esp, 12			; 0000000cH

; 1745 :         if (_Myfirst) { // destroy and deallocate old array

  000df	85 c0		 test	 eax, eax
  000e1	74 2c		 je	 SHORT $LN78@Emplace_re

; 1746 :             _Destroy(_Myfirst, _Mylast);
; 1747 :             _Getal().deallocate(_Myfirst, static_cast<size_type>(_Myend - _Myfirst));

  000e3	8b 4e 08	 mov	 ecx, DWORD PTR [esi+8]
  000e6	2b c8		 sub	 ecx, eax
; File C:\Program Files (x86)\Microsoft Visual Studio\2019\Professional\VC\Tools\MSVC\14.29.30133\include\xmemory

; 835  :         _Deallocate<_New_alignof<_Ty>>(_Ptr, sizeof(_Ty) * _Count);

  000e8	83 e1 fc	 and	 ecx, -4			; fffffffcH

; 260  :         if (_Bytes >= _Big_allocation_threshold) { // boost the alignment of big allocations to help autovectorization

  000eb	81 f9 00 10 00
	00		 cmp	 ecx, 4096		; 00001000H
  000f1	72 12		 jb	 SHORT $LN88@Emplace_re

; 158  :     const uintptr_t _Ptr_container   = _Ptr_user[-1];

  000f3	8b 50 fc	 mov	 edx, DWORD PTR [eax-4]
  000f6	83 c1 23	 add	 ecx, 35			; 00000023H

; 159  : 
; 160  :     // If the following asserts, it likely means that we are performing
; 161  :     // an aligned delete on memory coming from an unaligned allocation.
; 162  :     _STL_ASSERT(_Ptr_user[-2] == _Big_allocation_sentinel, "invalid argument");
; 163  : 
; 164  :     // Extra paranoia on aligned allocation/deallocation; ensure _Ptr_container is
; 165  :     // in range [_Min_back_shift, _Non_user_size]
; 166  : #ifdef _DEBUG
; 167  :     constexpr uintptr_t _Min_back_shift = 2 * sizeof(void*);
; 168  : #else // ^^^ _DEBUG ^^^ // vvv !_DEBUG vvv
; 169  :     constexpr uintptr_t _Min_back_shift = sizeof(void*);
; 170  : #endif // _DEBUG
; 171  :     const uintptr_t _Back_shift = reinterpret_cast<uintptr_t>(_Ptr) - _Ptr_container;

  000f9	2b c2		 sub	 eax, edx

; 172  :     _STL_VERIFY(_Back_shift >= _Min_back_shift && _Back_shift <= _Non_user_size, "invalid argument");

  000fb	83 c0 fc	 add	 eax, -4			; fffffffcH
  000fe	83 f8 1f	 cmp	 eax, 31			; 0000001fH
  00101	77 29		 ja	 SHORT $LN85@Emplace_re

; 173  :     _Ptr = reinterpret_cast<void*>(_Ptr_container);

  00103	8b c2		 mov	 eax, edx
$LN88@Emplace_re:

; 264  :         ::operator delete(_Ptr, _Bytes);

  00105	51		 push	 ecx
  00106	50		 push	 eax
  00107	e8 00 00 00 00	 call	 ??3@YAXPAXI@Z		; operator delete
  0010c	83 c4 08	 add	 esp, 8
$LN78@Emplace_re:
; File C:\Program Files (x86)\Microsoft Visual Studio\2019\Professional\VC\Tools\MSVC\14.29.30133\include\vector

; 1751 :         _Mylast  = _Newvec + _Newsize;

  0010f	8b 45 f8	 mov	 eax, DWORD PTR __Newsize$1$[ebp]
  00112	89 3e		 mov	 DWORD PTR [esi], edi
  00114	8d 0c 87	 lea	 ecx, DWORD PTR [edi+eax*4]

; 798  :         }
; 799  :         _CATCH_ALL
; 800  :         _Destroy(_Constructed_first, _Constructed_last);
; 801  :         _Al.deallocate(_Newvec, _Newcapacity);
; 802  :         _RERAISE;
; 803  :         _CATCH_END
; 804  : 
; 805  :         _Change_array(_Newvec, _Newsize, _Newcapacity);
; 806  :         return _Newvec + _Whereoff;

  00117	8b 45 fc	 mov	 eax, DWORD PTR tv641[ebp]

; 1751 :         _Mylast  = _Newvec + _Newsize;

  0011a	89 4e 04	 mov	 DWORD PTR [esi+4], ecx

; 1752 :         _Myend   = _Newvec + _Newcapacity;

  0011d	8d 0c 3b	 lea	 ecx, DWORD PTR [ebx+edi]

; 798  :         }
; 799  :         _CATCH_ALL
; 800  :         _Destroy(_Constructed_first, _Constructed_last);
; 801  :         _Al.deallocate(_Newvec, _Newcapacity);
; 802  :         _RERAISE;
; 803  :         _CATCH_END
; 804  : 
; 805  :         _Change_array(_Newvec, _Newsize, _Newcapacity);
; 806  :         return _Newvec + _Whereoff;

  00120	5f		 pop	 edi

; 1752 :         _Myend   = _Newvec + _Newcapacity;

  00121	89 4e 08	 mov	 DWORD PTR [esi+8], ecx

; 798  :         }
; 799  :         _CATCH_ALL
; 800  :         _Destroy(_Constructed_first, _Constructed_last);
; 801  :         _Al.deallocate(_Newvec, _Newcapacity);
; 802  :         _RERAISE;
; 803  :         _CATCH_END
; 804  : 
; 805  :         _Change_array(_Newvec, _Newsize, _Newcapacity);
; 806  :         return _Newvec + _Whereoff;

  00124	5e		 pop	 esi
  00125	5b		 pop	 ebx

; 807  :     }

  00126	8b e5		 mov	 esp, ebp
  00128	5d		 pop	 ebp
  00129	c2 08 00	 ret	 8
$LN85@Emplace_re:
; File C:\Program Files (x86)\Microsoft Visual Studio\2019\Professional\VC\Tools\MSVC\14.29.30133\include\xmemory

; 172  :     _STL_VERIFY(_Back_shift >= _Min_back_shift && _Back_shift <= _Non_user_size, "invalid argument");

  0012c	e8 00 00 00 00	 call	 __invalid_parameter_noinfo_noreturn
$LN96@Emplace_re:
; File C:\Program Files (x86)\Microsoft Visual Studio\2019\Professional\VC\Tools\MSVC\14.29.30133\include\vector

; 778  :             _Xlength();

  00131	e8 00 00 00 00	 call	 ?_Xlength@?$vector@PAUSCharacterInfomation@CGraphicFontTexture@@V?$allocator@PAUSCharacterInfomation@CGraphicFontTexture@@@std@@@std@@CAXXZ ; std::vector<CGraphicFontTexture::SCharacterInfomation *,std::allocator<CGraphicFontTexture::SCharacterInfomation *> >::_Xlength
$LN97@Emplace_re:
; File C:\Program Files (x86)\Microsoft Visual Studio\2019\Professional\VC\Tools\MSVC\14.29.30133\include\xmemory

; 65   :             _Throw_bad_array_new_length(); // multiply overflow

  00136	e8 00 00 00 00	 call	 ?_Throw_bad_array_new_length@std@@YAXXZ ; std::_Throw_bad_array_new_length
$LN94@Emplace_re:
  0013b	cc		 int	 3
??$_Emplace_reallocate@ABQAUSCharacterInfomation@CGraphicFontTexture@@@?$vector@PAUSCharacterInfomation@CGraphicFontTexture@@V?$allocator@PAUSCharacterInfomation@CGraphicFontTexture@@@std@@@std@@QAEPAPAUSCharacterInfomation@CGraphicFontTexture@@QAPAU23@ABQAU23@@Z ENDP ; std::vector<CGraphicFontTexture::SCharacterInfomation *,std::allocator<CGraphicFontTexture::SCharacterInfomation *> >::_Emplace_reallocate<CGraphicFontTexture::SCharacterInfomation * const &>
_TEXT	ENDS
; Function compile flags: /Ogtp
; File C:\Program Files (x86)\Microsoft Visual Studio\2019\Professional\VC\Tools\MSVC\14.29.30133\include\vector
; File C:\Program Files (x86)\Microsoft Visual Studio\2019\Professional\VC\Tools\MSVC\14.29.30133\include\xmemory
; File C:\Program Files (x86)\Microsoft Visual Studio\2019\Professional\VC\Tools\MSVC\14.29.30133\include\vector
; File C:\Program Files (x86)\Microsoft Visual Studio\2019\Professional\VC\Tools\MSVC\14.29.30133\include\xmemory
; File C:\Program Files (x86)\Microsoft Visual Studio\2019\Professional\VC\Tools\MSVC\14.29.30133\include\vector
; File C:\Program Files (x86)\Microsoft Visual Studio\2019\Professional\VC\Tools\MSVC\14.29.30133\include\xmemory
; File C:\Program Files (x86)\Microsoft Visual Studio\2019\Professional\VC\Tools\MSVC\14.29.30133\include\vector
; File C:\Program Files (x86)\Microsoft Visual Studio\2019\Professional\VC\Tools\MSVC\14.29.30133\include\xmemory
; File C:\Program Files (x86)\Microsoft Visual Studio\2019\Professional\VC\Tools\MSVC\14.29.30133\include\vector
; File C:\Program Files (x86)\Microsoft Visual Studio\2019\Professional\VC\Tools\MSVC\14.29.30133\include\xmemory
; File C:\Program Files (x86)\Microsoft Visual Studio\2019\Professional\VC\Tools\MSVC\14.29.30133\include\vector
; File C:\Program Files (x86)\Microsoft Visual Studio\2019\Professional\VC\Tools\MSVC\14.29.30133\include\xmemory
; File C:\Program Files (x86)\Microsoft Visual Studio\2019\Professional\VC\Tools\MSVC\14.29.30133\include\vector
; File C:\Program Files (x86)\Microsoft Visual Studio\2019\Professional\VC\Tools\MSVC\14.29.30133\include\xmemory
; File C:\Program Files (x86)\Microsoft Visual Studio\2019\Professional\VC\Tools\MSVC\14.29.30133\include\vector
; File C:\Program Files (x86)\Microsoft Visual Studio\2019\Professional\VC\Tools\MSVC\14.29.30133\include\xmemory
; File C:\Program Files (x86)\Microsoft Visual Studio\2019\Professional\VC\Tools\MSVC\14.29.30133\include\vector
; File C:\Program Files (x86)\Microsoft Visual Studio\2019\Professional\VC\Tools\MSVC\14.29.30133\include\xmemory
; File C:\Program Files (x86)\Microsoft Visual Studio\2019\Professional\VC\Tools\MSVC\14.29.30133\include\vector
;	COMDAT ??$_Emplace_reallocate@ABK@?$vector@KV?$allocator@K@std@@@std@@QAEPAKQAKABK@Z
_TEXT	SEGMENT
__Newsize$1$ = -8					; size = 4
tv641 = -4						; size = 4
__Whereoff$1$ = -4					; size = 4
__Whereptr$ = 8						; size = 4
_<_Val_0>$ = 12						; size = 4
??$_Emplace_reallocate@ABK@?$vector@KV?$allocator@K@std@@@std@@QAEPAKQAKABK@Z PROC ; std::vector<unsigned long,std::allocator<unsigned long> >::_Emplace_reallocate<unsigned long const &>, COMDAT
; _this$ = ecx

; 765  :     _CONSTEXPR20_CONTAINER pointer _Emplace_reallocate(const pointer _Whereptr, _Valty&&... _Val) {

  00000	55		 push	 ebp
  00001	8b ec		 mov	 ebp, esp
  00003	83 ec 08	 sub	 esp, 8

; 766  :         // reallocate and insert by perfectly forwarding _Val at _Whereptr
; 767  :         _Alty& _Al        = _Getal();
; 768  :         auto& _My_data    = _Mypair._Myval2;
; 769  :         pointer& _Myfirst = _My_data._Myfirst;
; 770  :         pointer& _Mylast  = _My_data._Mylast;
; 771  : 
; 772  :         _STL_INTERNAL_CHECK(_Mylast == _My_data._Myend); // check that we have no unused capacity
; 773  : 
; 774  :         const auto _Whereoff = static_cast<size_type>(_Whereptr - _Myfirst);

  00006	8b 45 08	 mov	 eax, DWORD PTR __Whereptr$[ebp]
  00009	53		 push	 ebx
  0000a	56		 push	 esi
  0000b	8b f1		 mov	 esi, ecx
  0000d	57		 push	 edi
  0000e	8b 0e		 mov	 ecx, DWORD PTR [esi]
  00010	2b c1		 sub	 eax, ecx
  00012	c1 f8 02	 sar	 eax, 2
  00015	89 45 fc	 mov	 DWORD PTR __Whereoff$1$[ebp], eax

; 775  :         const auto _Oldsize  = static_cast<size_type>(_Mylast - _Myfirst);

  00018	8b 46 04	 mov	 eax, DWORD PTR [esi+4]
  0001b	2b c1		 sub	 eax, ecx
  0001d	c1 f8 02	 sar	 eax, 2

; 776  : 
; 777  :         if (_Oldsize == max_size()) {

  00020	3d ff ff ff 3f	 cmp	 eax, 1073741823		; 3fffffffH
  00025	0f 84 06 01 00
	00		 je	 $LN96@Emplace_re

; 1559 :         return static_cast<size_type>(_My_data._Myend - _My_data._Myfirst);

  0002b	8b 56 08	 mov	 edx, DWORD PTR [esi+8]

; 779  :         }
; 780  : 
; 781  :         const size_type _Newsize     = _Oldsize + 1;

  0002e	8d 78 01	 lea	 edi, DWORD PTR [eax+1]

; 1559 :         return static_cast<size_type>(_My_data._Myend - _My_data._Myfirst);

  00031	2b d1		 sub	 edx, ecx

; 779  :         }
; 780  : 
; 781  :         const size_type _Newsize     = _Oldsize + 1;

  00033	89 7d f8	 mov	 DWORD PTR __Newsize$1$[ebp], edi

; 1559 :         return static_cast<size_type>(_My_data._Myend - _My_data._Myfirst);

  00036	c1 fa 02	 sar	 edx, 2

; 1688 :         if (_Oldcapacity > _Max - _Oldcapacity / 2) {

  00039	b8 ff ff ff 3f	 mov	 eax, 1073741823		; 3fffffffH
  0003e	8b ca		 mov	 ecx, edx
  00040	d1 e9		 shr	 ecx, 1
  00042	2b c1		 sub	 eax, ecx
  00044	3b d0		 cmp	 edx, eax
  00046	76 12		 jbe	 SHORT $LN12@Emplace_re

; 1689 :             return _Max; // geometric growth would overflow

  00048	bb fc ff ff ff	 mov	 ebx, -4			; fffffffcH
; File C:\Program Files (x86)\Microsoft Visual Studio\2019\Professional\VC\Tools\MSVC\14.29.30133\include\xmemory

; 238  :             return _Allocate_manually_vector_aligned<_Traits>(_Bytes);

  0004d	53		 push	 ebx
  0004e	e8 00 00 00 00	 call	 ??$_Allocate_manually_vector_aligned@U_Default_allocate_traits@std@@@std@@YAPAXI@Z ; std::_Allocate_manually_vector_aligned<std::_Default_allocate_traits>
  00053	83 c4 04	 add	 esp, 4
  00056	8b f8		 mov	 edi, eax
  00058	eb 41		 jmp	 SHORT $LN23@Emplace_re
$LN12@Emplace_re:
; File C:\Program Files (x86)\Microsoft Visual Studio\2019\Professional\VC\Tools\MSVC\14.29.30133\include\vector

; 1692 :         const size_type _Geometric = _Oldcapacity + _Oldcapacity / 2;

  0005a	8d 04 11	 lea	 eax, DWORD PTR [ecx+edx]
; File C:\Program Files (x86)\Microsoft Visual Studio\2019\Professional\VC\Tools\MSVC\14.29.30133\include\xmemory

; 64   :         if (_Count > _Max_possible) {

  0005d	8b df		 mov	 ebx, edi
  0005f	3b c7		 cmp	 eax, edi
  00061	0f 43 d8	 cmovae	 ebx, eax
  00064	81 fb ff ff ff
	3f		 cmp	 ebx, 1073741823		; 3fffffffH
  0006a	0f 87 c6 00 00
	00		 ja	 $LN97@Emplace_re

; 66   :         }
; 67   :     }
; 68   : 
; 69   :     return _Count * _Ty_size;

  00070	c1 e3 02	 shl	 ebx, 2

; 237  :         if (_Bytes >= _Big_allocation_threshold) { // boost the alignment of big allocations to help autovectorization

  00073	81 fb 00 10 00
	00		 cmp	 ebx, 4096		; 00001000H
  00079	72 0d		 jb	 SHORT $LN24@Emplace_re

; 238  :             return _Allocate_manually_vector_aligned<_Traits>(_Bytes);

  0007b	53		 push	 ebx
  0007c	e8 00 00 00 00	 call	 ??$_Allocate_manually_vector_aligned@U_Default_allocate_traits@std@@@std@@YAPAXI@Z ; std::_Allocate_manually_vector_aligned<std::_Default_allocate_traits>
  00081	83 c4 04	 add	 esp, 4
  00084	8b f8		 mov	 edi, eax
  00086	eb 13		 jmp	 SHORT $LN23@Emplace_re
$LN24@Emplace_re:

; 239  :         }
; 240  :     }
; 241  : #endif // defined(_M_IX86) || defined(_M_X64)
; 242  : 
; 243  :     if (_Bytes != 0) {

  00088	85 db		 test	 ebx, ebx
  0008a	74 0d		 je	 SHORT $LN25@Emplace_re

; 85   :         return ::operator new(_Bytes);

  0008c	53		 push	 ebx
  0008d	e8 00 00 00 00	 call	 ??2@YAPAXI@Z		; operator new
  00092	83 c4 04	 add	 esp, 4

; 244  :         return _Traits::_Allocate(_Bytes);

  00095	8b f8		 mov	 edi, eax
  00097	eb 02		 jmp	 SHORT $LN23@Emplace_re
$LN25@Emplace_re:

; 245  :     }
; 246  : 
; 247  :     return nullptr;

  00099	33 ff		 xor	 edi, edi
$LN23@Emplace_re:
; File C:\Program Files (x86)\Microsoft Visual Studio\2019\Professional\VC\Tools\MSVC\14.29.30133\include\vector

; 789  :         _Alty_traits::construct(_Al, _Unfancy(_Newvec + _Whereoff), _STD forward<_Valty>(_Val)...);

  0009b	8b 45 fc	 mov	 eax, DWORD PTR __Whereoff$1$[ebp]
  0009e	8d 0c 87	 lea	 ecx, DWORD PTR [edi+eax*4]
  000a1	8b 45 0c	 mov	 eax, DWORD PTR _<_Val_0>$[ebp]
  000a4	89 4d fc	 mov	 DWORD PTR tv641[ebp], ecx
  000a7	8b 00		 mov	 eax, DWORD PTR [eax]
  000a9	89 01		 mov	 DWORD PTR [ecx], eax

; 790  :         _Constructed_first = _Newvec + _Whereoff;
; 791  : 
; 792  :         if (_Whereptr == _Mylast) { // at back, provide strong guarantee

  000ab	8b 4e 04	 mov	 ecx, DWORD PTR [esi+4]
  000ae	8b 45 08	 mov	 eax, DWORD PTR __Whereptr$[ebp]
  000b1	8b 16		 mov	 edx, DWORD PTR [esi]
  000b3	3b c1		 cmp	 eax, ecx
  000b5	75 04		 jne	 SHORT $LN4@Emplace_re
; File C:\Program Files (x86)\Microsoft Visual Studio\2019\Professional\VC\Tools\MSVC\14.29.30133\include\xmemory

; 1725 :             _Copy_memmove(_UFirst, _ULast, _Unfancy(_Dest));

  000b7	8b c7		 mov	 eax, edi
; File C:\Program Files (x86)\Microsoft Visual Studio\2019\Professional\VC\Tools\MSVC\14.29.30133\include\vector

; 794  :         } else { // provide basic guarantee

  000b9	eb 17		 jmp	 SHORT $LN60@Emplace_re
$LN4@Emplace_re:
; File C:\Program Files (x86)\Microsoft Visual Studio\2019\Professional\VC\Tools\MSVC\14.29.30133\include\xmemory

; 1725 :             _Copy_memmove(_UFirst, _ULast, _Unfancy(_Dest));

  000bb	57		 push	 edi
  000bc	50		 push	 eax
  000bd	52		 push	 edx
  000be	e8 00 00 00 00	 call	 ??$_Copy_memmove@PAKPAK@std@@YAPAKPAK00@Z ; std::_Copy_memmove<unsigned long *,unsigned long *>
; File C:\Program Files (x86)\Microsoft Visual Studio\2019\Professional\VC\Tools\MSVC\14.29.30133\include\vector

; 797  :             _Umove(_Whereptr, _Mylast, _Newvec + _Whereoff + 1);

  000c3	8b 45 fc	 mov	 eax, DWORD PTR tv641[ebp]
; File C:\Program Files (x86)\Microsoft Visual Studio\2019\Professional\VC\Tools\MSVC\14.29.30133\include\xmemory

; 1725 :             _Copy_memmove(_UFirst, _ULast, _Unfancy(_Dest));

  000c6	83 c4 0c	 add	 esp, 12			; 0000000cH
  000c9	8b 55 08	 mov	 edx, DWORD PTR __Whereptr$[ebp]
; File C:\Program Files (x86)\Microsoft Visual Studio\2019\Professional\VC\Tools\MSVC\14.29.30133\include\vector

; 797  :             _Umove(_Whereptr, _Mylast, _Newvec + _Whereoff + 1);

  000cc	83 c0 04	 add	 eax, 4
; File C:\Program Files (x86)\Microsoft Visual Studio\2019\Professional\VC\Tools\MSVC\14.29.30133\include\xmemory

; 1725 :             _Copy_memmove(_UFirst, _ULast, _Unfancy(_Dest));

  000cf	8b 4e 04	 mov	 ecx, DWORD PTR [esi+4]
$LN60@Emplace_re:
; File C:\Program Files (x86)\Microsoft Visual Studio\2019\Professional\VC\Tools\MSVC\14.29.30133\include\vector

; 797  :             _Umove(_Whereptr, _Mylast, _Newvec + _Whereoff + 1);

  000d2	50		 push	 eax
  000d3	51		 push	 ecx
  000d4	52		 push	 edx
  000d5	e8 00 00 00 00	 call	 ??$_Copy_memmove@PAKPAK@std@@YAPAKPAK00@Z ; std::_Copy_memmove<unsigned long *,unsigned long *>

; 1745 :         if (_Myfirst) { // destroy and deallocate old array

  000da	8b 06		 mov	 eax, DWORD PTR [esi]

; 797  :             _Umove(_Whereptr, _Mylast, _Newvec + _Whereoff + 1);

  000dc	83 c4 0c	 add	 esp, 12			; 0000000cH

; 1745 :         if (_Myfirst) { // destroy and deallocate old array

  000df	85 c0		 test	 eax, eax
  000e1	74 2c		 je	 SHORT $LN78@Emplace_re

; 1746 :             _Destroy(_Myfirst, _Mylast);
; 1747 :             _Getal().deallocate(_Myfirst, static_cast<size_type>(_Myend - _Myfirst));

  000e3	8b 4e 08	 mov	 ecx, DWORD PTR [esi+8]
  000e6	2b c8		 sub	 ecx, eax
; File C:\Program Files (x86)\Microsoft Visual Studio\2019\Professional\VC\Tools\MSVC\14.29.30133\include\xmemory

; 835  :         _Deallocate<_New_alignof<_Ty>>(_Ptr, sizeof(_Ty) * _Count);

  000e8	83 e1 fc	 and	 ecx, -4			; fffffffcH

; 260  :         if (_Bytes >= _Big_allocation_threshold) { // boost the alignment of big allocations to help autovectorization

  000eb	81 f9 00 10 00
	00		 cmp	 ecx, 4096		; 00001000H
  000f1	72 12		 jb	 SHORT $LN88@Emplace_re

; 158  :     const uintptr_t _Ptr_container   = _Ptr_user[-1];

  000f3	8b 50 fc	 mov	 edx, DWORD PTR [eax-4]
  000f6	83 c1 23	 add	 ecx, 35			; 00000023H

; 159  : 
; 160  :     // If the following asserts, it likely means that we are performing
; 161  :     // an aligned delete on memory coming from an unaligned allocation.
; 162  :     _STL_ASSERT(_Ptr_user[-2] == _Big_allocation_sentinel, "invalid argument");
; 163  : 
; 164  :     // Extra paranoia on aligned allocation/deallocation; ensure _Ptr_container is
; 165  :     // in range [_Min_back_shift, _Non_user_size]
; 166  : #ifdef _DEBUG
; 167  :     constexpr uintptr_t _Min_back_shift = 2 * sizeof(void*);
; 168  : #else // ^^^ _DEBUG ^^^ // vvv !_DEBUG vvv
; 169  :     constexpr uintptr_t _Min_back_shift = sizeof(void*);
; 170  : #endif // _DEBUG
; 171  :     const uintptr_t _Back_shift = reinterpret_cast<uintptr_t>(_Ptr) - _Ptr_container;

  000f9	2b c2		 sub	 eax, edx

; 172  :     _STL_VERIFY(_Back_shift >= _Min_back_shift && _Back_shift <= _Non_user_size, "invalid argument");

  000fb	83 c0 fc	 add	 eax, -4			; fffffffcH
  000fe	83 f8 1f	 cmp	 eax, 31			; 0000001fH
  00101	77 29		 ja	 SHORT $LN85@Emplace_re

; 173  :     _Ptr = reinterpret_cast<void*>(_Ptr_container);

  00103	8b c2		 mov	 eax, edx
$LN88@Emplace_re:

; 264  :         ::operator delete(_Ptr, _Bytes);

  00105	51		 push	 ecx
  00106	50		 push	 eax
  00107	e8 00 00 00 00	 call	 ??3@YAXPAXI@Z		; operator delete
  0010c	83 c4 08	 add	 esp, 8
$LN78@Emplace_re:
; File C:\Program Files (x86)\Microsoft Visual Studio\2019\Professional\VC\Tools\MSVC\14.29.30133\include\vector

; 1751 :         _Mylast  = _Newvec + _Newsize;

  0010f	8b 45 f8	 mov	 eax, DWORD PTR __Newsize$1$[ebp]
  00112	89 3e		 mov	 DWORD PTR [esi], edi
  00114	8d 0c 87	 lea	 ecx, DWORD PTR [edi+eax*4]

; 798  :         }
; 799  :         _CATCH_ALL
; 800  :         _Destroy(_Constructed_first, _Constructed_last);
; 801  :         _Al.deallocate(_Newvec, _Newcapacity);
; 802  :         _RERAISE;
; 803  :         _CATCH_END
; 804  : 
; 805  :         _Change_array(_Newvec, _Newsize, _Newcapacity);
; 806  :         return _Newvec + _Whereoff;

  00117	8b 45 fc	 mov	 eax, DWORD PTR tv641[ebp]

; 1751 :         _Mylast  = _Newvec + _Newsize;

  0011a	89 4e 04	 mov	 DWORD PTR [esi+4], ecx

; 1752 :         _Myend   = _Newvec + _Newcapacity;

  0011d	8d 0c 3b	 lea	 ecx, DWORD PTR [ebx+edi]

; 798  :         }
; 799  :         _CATCH_ALL
; 800  :         _Destroy(_Constructed_first, _Constructed_last);
; 801  :         _Al.deallocate(_Newvec, _Newcapacity);
; 802  :         _RERAISE;
; 803  :         _CATCH_END
; 804  : 
; 805  :         _Change_array(_Newvec, _Newsize, _Newcapacity);
; 806  :         return _Newvec + _Whereoff;

  00120	5f		 pop	 edi

; 1752 :         _Myend   = _Newvec + _Newcapacity;

  00121	89 4e 08	 mov	 DWORD PTR [esi+8], ecx

; 798  :         }
; 799  :         _CATCH_ALL
; 800  :         _Destroy(_Constructed_first, _Constructed_last);
; 801  :         _Al.deallocate(_Newvec, _Newcapacity);
; 802  :         _RERAISE;
; 803  :         _CATCH_END
; 804  : 
; 805  :         _Change_array(_Newvec, _Newsize, _Newcapacity);
; 806  :         return _Newvec + _Whereoff;

  00124	5e		 pop	 esi
  00125	5b		 pop	 ebx

; 807  :     }

  00126	8b e5		 mov	 esp, ebp
  00128	5d		 pop	 ebp
  00129	c2 08 00	 ret	 8
$LN85@Emplace_re:
; File C:\Program Files (x86)\Microsoft Visual Studio\2019\Professional\VC\Tools\MSVC\14.29.30133\include\xmemory

; 172  :     _STL_VERIFY(_Back_shift >= _Min_back_shift && _Back_shift <= _Non_user_size, "invalid argument");

  0012c	e8 00 00 00 00	 call	 __invalid_parameter_noinfo_noreturn
$LN96@Emplace_re:
; File C:\Program Files (x86)\Microsoft Visual Studio\2019\Professional\VC\Tools\MSVC\14.29.30133\include\vector

; 778  :             _Xlength();

  00131	e8 00 00 00 00	 call	 ?_Xlength@?$vector@KV?$allocator@K@std@@@std@@CAXXZ ; std::vector<unsigned long,std::allocator<unsigned long> >::_Xlength
$LN97@Emplace_re:
; File C:\Program Files (x86)\Microsoft Visual Studio\2019\Professional\VC\Tools\MSVC\14.29.30133\include\xmemory

; 65   :             _Throw_bad_array_new_length(); // multiply overflow

  00136	e8 00 00 00 00	 call	 ?_Throw_bad_array_new_length@std@@YAXXZ ; std::_Throw_bad_array_new_length
$LN94@Emplace_re:
  0013b	cc		 int	 3
??$_Emplace_reallocate@ABK@?$vector@KV?$allocator@K@std@@@std@@QAEPAKQAKABK@Z ENDP ; std::vector<unsigned long,std::allocator<unsigned long> >::_Emplace_reallocate<unsigned long const &>
_TEXT	ENDS
; Function compile flags: /Ogtp
; File C:\Program Files (x86)\Microsoft Visual Studio\2019\Professional\VC\Tools\MSVC\14.29.30133\include\vector
; File C:\Program Files (x86)\Microsoft Visual Studio\2019\Professional\VC\Tools\MSVC\14.29.30133\include\xmemory
; File C:\Program Files (x86)\Microsoft Visual Studio\2019\Professional\VC\Tools\MSVC\14.29.30133\include\vector
; File C:\Program Files (x86)\Microsoft Visual Studio\2019\Professional\VC\Tools\MSVC\14.29.30133\include\xmemory
; File C:\Program Files (x86)\Microsoft Visual Studio\2019\Professional\VC\Tools\MSVC\14.29.30133\include\vector
; File C:\Program Files (x86)\Microsoft Visual Studio\2019\Professional\VC\Tools\MSVC\14.29.30133\include\xmemory
; File C:\Program Files (x86)\Microsoft Visual Studio\2019\Professional\VC\Tools\MSVC\14.29.30133\include\vector
; File C:\Program Files (x86)\Microsoft Visual Studio\2019\Professional\VC\Tools\MSVC\14.29.30133\include\xmemory
; File C:\Program Files (x86)\Microsoft Visual Studio\2019\Professional\VC\Tools\MSVC\14.29.30133\include\vector
; File C:\Program Files (x86)\Microsoft Visual Studio\2019\Professional\VC\Tools\MSVC\14.29.30133\include\xmemory
; File C:\Program Files (x86)\Microsoft Visual Studio\2019\Professional\VC\Tools\MSVC\14.29.30133\include\vector
; File C:\Program Files (x86)\Microsoft Visual Studio\2019\Professional\VC\Tools\MSVC\14.29.30133\include\xmemory
; File C:\Program Files (x86)\Microsoft Visual Studio\2019\Professional\VC\Tools\MSVC\14.29.30133\include\vector
;	COMDAT ??$_Emplace_reallocate@ABUSHyperlink@CGraphicTextInstance@@@?$vector@USHyperlink@CGraphicTextInstance@@V?$allocator@USHyperlink@CGraphicTextInstance@@@std@@@std@@QAEPAUSHyperlink@CGraphicTextInstance@@QAU23@ABU23@@Z
_TEXT	SEGMENT
_this$ = -44						; size = 4
__Constructed_last$ = -40				; size = 4
__Newsize$1$ = -36					; size = 4
tv505 = -32						; size = 4
__Whereoff$1$ = -32					; size = 4
tv509 = -28						; size = 4
$T2 = -24						; size = 4
__Newcapacity$ = -20					; size = 4
__$EHRec$ = -16						; size = 16
__Last$1$ = 8						; size = 4
__Whereptr$ = 8						; size = 4
_<_Val_0>$ = 12						; size = 4
??$_Emplace_reallocate@ABUSHyperlink@CGraphicTextInstance@@@?$vector@USHyperlink@CGraphicTextInstance@@V?$allocator@USHyperlink@CGraphicTextInstance@@@std@@@std@@QAEPAUSHyperlink@CGraphicTextInstance@@QAU23@ABU23@@Z PROC ; std::vector<CGraphicTextInstance::SHyperlink,std::allocator<CGraphicTextInstance::SHyperlink> >::_Emplace_reallocate<CGraphicTextInstance::SHyperlink const &>, COMDAT
; _this$ = ecx

; 765  :     _CONSTEXPR20_CONTAINER pointer _Emplace_reallocate(const pointer _Whereptr, _Valty&&... _Val) {

  00000	55		 push	 ebp
  00001	8b ec		 mov	 ebp, esp
  00003	6a ff		 push	 -1
  00005	68 00 00 00 00	 push	 __ehhandler$??$_Emplace_reallocate@ABUSHyperlink@CGraphicTextInstance@@@?$vector@USHyperlink@CGraphicTextInstance@@V?$allocator@USHyperlink@CGraphicTextInstance@@@std@@@std@@QAEPAUSHyperlink@CGraphicTextInstance@@QAU23@ABU23@@Z
  0000a	64 a1 00 00 00
	00		 mov	 eax, DWORD PTR fs:0
  00010	50		 push	 eax
  00011	83 ec 20	 sub	 esp, 32			; 00000020H
  00014	53		 push	 ebx
  00015	56		 push	 esi
  00016	57		 push	 edi
  00017	a1 00 00 00 00	 mov	 eax, DWORD PTR ___security_cookie
  0001c	33 c5		 xor	 eax, ebp
  0001e	50		 push	 eax
  0001f	8d 45 f4	 lea	 eax, DWORD PTR __$EHRec$[ebp+4]
  00022	64 a3 00 00 00
	00		 mov	 DWORD PTR fs:0, eax
  00028	89 65 f0	 mov	 DWORD PTR __$EHRec$[ebp], esp
  0002b	8b f9		 mov	 edi, ecx
  0002d	89 7d d4	 mov	 DWORD PTR _this$[ebp], edi

; 766  :         // reallocate and insert by perfectly forwarding _Val at _Whereptr
; 767  :         _Alty& _Al        = _Getal();
; 768  :         auto& _My_data    = _Mypair._Myval2;
; 769  :         pointer& _Myfirst = _My_data._Myfirst;
; 770  :         pointer& _Mylast  = _My_data._Mylast;
; 771  : 
; 772  :         _STL_INTERNAL_CHECK(_Mylast == _My_data._Myend); // check that we have no unused capacity
; 773  : 
; 774  :         const auto _Whereoff = static_cast<size_type>(_Whereptr - _Myfirst);

  00030	8b 75 08	 mov	 esi, DWORD PTR __Whereptr$[ebp]
  00033	b8 93 24 49 92	 mov	 eax, -1840700269	; 92492493H
  00038	2b 37		 sub	 esi, DWORD PTR [edi]

; 775  :         const auto _Oldsize  = static_cast<size_type>(_Mylast - _Myfirst);

  0003a	8b 4f 04	 mov	 ecx, DWORD PTR [edi+4]
  0003d	2b 0f		 sub	 ecx, DWORD PTR [edi]
  0003f	f7 ee		 imul	 esi
  00041	03 d6		 add	 edx, esi
  00043	c1 fa 04	 sar	 edx, 4
  00046	8b c2		 mov	 eax, edx
  00048	c1 e8 1f	 shr	 eax, 31			; 0000001fH
  0004b	03 c2		 add	 eax, edx
  0004d	89 45 e0	 mov	 DWORD PTR __Whereoff$1$[ebp], eax
  00050	b8 93 24 49 92	 mov	 eax, -1840700269	; 92492493H
  00055	f7 e9		 imul	 ecx
  00057	03 d1		 add	 edx, ecx
  00059	c1 fa 04	 sar	 edx, 4
  0005c	8b c2		 mov	 eax, edx
  0005e	c1 e8 1f	 shr	 eax, 31			; 0000001fH
  00061	03 c2		 add	 eax, edx

; 776  : 
; 777  :         if (_Oldsize == max_size()) {

  00063	3d 49 92 24 09	 cmp	 eax, 153391689		; 09249249H
  00068	0f 84 b8 01 00
	00		 je	 $LN82@Emplace_re

; 1559 :         return static_cast<size_type>(_My_data._Myend - _My_data._Myfirst);

  0006e	8b 4f 08	 mov	 ecx, DWORD PTR [edi+8]

; 779  :         }
; 780  : 
; 781  :         const size_type _Newsize     = _Oldsize + 1;

  00071	8d 58 01	 lea	 ebx, DWORD PTR [eax+1]

; 1559 :         return static_cast<size_type>(_My_data._Myend - _My_data._Myfirst);

  00074	2b 0f		 sub	 ecx, DWORD PTR [edi]
  00076	b8 93 24 49 92	 mov	 eax, -1840700269	; 92492493H
  0007b	f7 e9		 imul	 ecx

; 1688 :         if (_Oldcapacity > _Max - _Oldcapacity / 2) {

  0007d	b8 49 92 24 09	 mov	 eax, 153391689		; 09249249H

; 779  :         }
; 780  : 
; 781  :         const size_type _Newsize     = _Oldsize + 1;

  00082	89 5d dc	 mov	 DWORD PTR __Newsize$1$[ebp], ebx

; 1559 :         return static_cast<size_type>(_My_data._Myend - _My_data._Myfirst);

  00085	03 d1		 add	 edx, ecx
  00087	c1 fa 04	 sar	 edx, 4
  0008a	8b ca		 mov	 ecx, edx
  0008c	c1 e9 1f	 shr	 ecx, 31			; 0000001fH
  0008f	03 ca		 add	 ecx, edx

; 1688 :         if (_Oldcapacity > _Max - _Oldcapacity / 2) {

  00091	8b d1		 mov	 edx, ecx
  00093	d1 ea		 shr	 edx, 1
  00095	2b c2		 sub	 eax, edx
  00097	3b c8		 cmp	 ecx, eax
  00099	76 1c		 jbe	 SHORT $LN12@Emplace_re

; 1689 :             return _Max; // geometric growth would overflow

  0009b	b8 fc ff ff ff	 mov	 eax, -4			; fffffffcH
  000a0	c7 45 ec 49 92
	24 09		 mov	 DWORD PTR __Newcapacity$[ebp], 153391689 ; 09249249H
; File C:\Program Files (x86)\Microsoft Visual Studio\2019\Professional\VC\Tools\MSVC\14.29.30133\include\xmemory

; 238  :             return _Allocate_manually_vector_aligned<_Traits>(_Bytes);

  000a7	50		 push	 eax
; File C:\Program Files (x86)\Microsoft Visual Studio\2019\Professional\VC\Tools\MSVC\14.29.30133\include\vector

; 1689 :             return _Max; // geometric growth would overflow

  000a8	89 45 e4	 mov	 DWORD PTR tv509[ebp], eax
; File C:\Program Files (x86)\Microsoft Visual Studio\2019\Professional\VC\Tools\MSVC\14.29.30133\include\xmemory

; 238  :             return _Allocate_manually_vector_aligned<_Traits>(_Bytes);

  000ab	e8 00 00 00 00	 call	 ??$_Allocate_manually_vector_aligned@U_Default_allocate_traits@std@@@std@@YAPAXI@Z ; std::_Allocate_manually_vector_aligned<std::_Default_allocate_traits>
  000b0	83 c4 04	 add	 esp, 4
  000b3	8b d8		 mov	 ebx, eax
  000b5	eb 52		 jmp	 SHORT $LN79@Emplace_re
$LN12@Emplace_re:
; File C:\Program Files (x86)\Microsoft Visual Studio\2019\Professional\VC\Tools\MSVC\14.29.30133\include\vector

; 1692 :         const size_type _Geometric = _Oldcapacity + _Oldcapacity / 2;

  000b7	8d 04 0a	 lea	 eax, DWORD PTR [edx+ecx]
; File C:\Program Files (x86)\Microsoft Visual Studio\2019\Professional\VC\Tools\MSVC\14.29.30133\include\xmemory

; 64   :         if (_Count > _Max_possible) {

  000ba	8b f3		 mov	 esi, ebx
  000bc	3b c3		 cmp	 eax, ebx
  000be	0f 43 f0	 cmovae	 esi, eax
  000c1	81 fe 49 92 24
	09		 cmp	 esi, 153391689		; 09249249H
  000c7	0f 87 5e 01 00
	00		 ja	 $LN83@Emplace_re

; 66   :         }
; 67   :     }
; 68   : 
; 69   :     return _Count * _Ty_size;

  000cd	8d 04 f5 00 00
	00 00		 lea	 eax, DWORD PTR [esi*8]
  000d4	89 75 ec	 mov	 DWORD PTR __Newcapacity$[ebp], esi
  000d7	2b c6		 sub	 eax, esi
  000d9	c1 e0 02	 shl	 eax, 2
  000dc	89 45 e4	 mov	 DWORD PTR tv509[ebp], eax

; 237  :         if (_Bytes >= _Big_allocation_threshold) { // boost the alignment of big allocations to help autovectorization

  000df	3d 00 10 00 00	 cmp	 eax, 4096		; 00001000H
  000e4	72 0d		 jb	 SHORT $LN24@Emplace_re

; 238  :             return _Allocate_manually_vector_aligned<_Traits>(_Bytes);

  000e6	50		 push	 eax
  000e7	e8 00 00 00 00	 call	 ??$_Allocate_manually_vector_aligned@U_Default_allocate_traits@std@@@std@@YAPAXI@Z ; std::_Allocate_manually_vector_aligned<std::_Default_allocate_traits>
  000ec	83 c4 04	 add	 esp, 4
  000ef	8b d8		 mov	 ebx, eax
  000f1	eb 16		 jmp	 SHORT $LN79@Emplace_re
$LN24@Emplace_re:

; 239  :         }
; 240  :     }
; 241  : #endif // defined(_M_IX86) || defined(_M_X64)
; 242  : 
; 243  :     if (_Bytes != 0) {

  000f3	85 c0		 test	 eax, eax
  000f5	74 0d		 je	 SHORT $LN25@Emplace_re

; 85   :         return ::operator new(_Bytes);

  000f7	50		 push	 eax
  000f8	e8 00 00 00 00	 call	 ??2@YAPAXI@Z		; operator new
  000fd	83 c4 04	 add	 esp, 4

; 244  :         return _Traits::_Allocate(_Bytes);

  00100	8b d8		 mov	 ebx, eax
  00102	eb 02		 jmp	 SHORT $LN80@Emplace_re
$LN25@Emplace_re:

; 245  :     }
; 246  : 
; 247  :     return nullptr;

  00104	33 db		 xor	 ebx, ebx
$LN80@Emplace_re:
; File C:\Program Files (x86)\Microsoft Visual Studio\2019\Professional\VC\Tools\MSVC\14.29.30133\include\vector

; 785  :         const pointer _Constructed_last = _Newvec + _Whereoff + 1;

  00106	89 75 ec	 mov	 DWORD PTR __Newcapacity$[ebp], esi
$LN79@Emplace_re:
  00109	8b 4d e0	 mov	 ecx, DWORD PTR __Whereoff$1$[ebp]

; 786  :         pointer _Constructed_first      = _Constructed_last;
; 787  : 
; 788  :         _TRY_BEGIN
; 789  :         _Alty_traits::construct(_Al, _Unfancy(_Newvec + _Whereoff), _STD forward<_Valty>(_Val)...);

  0010c	ff 75 0c	 push	 DWORD PTR _<_Val_0>$[ebp]
  0010f	89 5d e8	 mov	 DWORD PTR $T2[ebp], ebx
  00112	c7 45 fc 00 00
	00 00		 mov	 DWORD PTR __$EHRec$[ebp+12], 0
  00119	8d 04 cd 00 00
	00 00		 lea	 eax, DWORD PTR [ecx*8]
  00120	2b c1		 sub	 eax, ecx
  00122	8d 04 83	 lea	 eax, DWORD PTR [ebx+eax*4]
  00125	50		 push	 eax
  00126	8d 70 1c	 lea	 esi, DWORD PTR [eax+28]
  00129	89 45 e0	 mov	 DWORD PTR tv505[ebp], eax
  0012c	57		 push	 edi
  0012d	89 75 d8	 mov	 DWORD PTR __Constructed_last$[ebp], esi
  00130	e8 00 00 00 00	 call	 ??$construct@USHyperlink@CGraphicTextInstance@@ABU12@@?$_Default_allocator_traits@V?$allocator@USHyperlink@CGraphicTextInstance@@@std@@@std@@SAXAAV?$allocator@USHyperlink@CGraphicTextInstance@@@1@QAUSHyperlink@CGraphicTextInstance@@ABU34@@Z ; std::_Default_allocator_traits<std::allocator<CGraphicTextInstance::SHyperlink> >::construct<CGraphicTextInstance::SHyperlink,CGraphicTextInstance::SHyperlink const &>

; 790  :         _Constructed_first = _Newvec + _Whereoff;
; 791  : 
; 792  :         if (_Whereptr == _Mylast) { // at back, provide strong guarantee

  00135	8b 47 04	 mov	 eax, DWORD PTR [edi+4]
  00138	83 c4 0c	 add	 esp, 12			; 0000000cH
  0013b	8b 55 08	 mov	 edx, DWORD PTR __Whereptr$[ebp]
  0013e	8b 0f		 mov	 ecx, DWORD PTR [edi]
  00140	3b d0		 cmp	 edx, eax
  00142	75 04		 jne	 SHORT $LN4@Emplace_re

; 1664 :         _Uninitialized_move(_First, _Last, _Dest, _Getal());

  00144	8b f3		 mov	 esi, ebx

; 793  :             _Umove_if_noexcept(_Myfirst, _Mylast, _Newvec);
; 794  :         } else { // provide basic guarantee

  00146	eb 12		 jmp	 SHORT $LN5@Emplace_re
$LN4@Emplace_re:

; 1659 :         return _Uninitialized_move(_First, _Last, _Dest, _Getal());

  00148	57		 push	 edi
  00149	53		 push	 ebx
  0014a	52		 push	 edx
  0014b	51		 push	 ecx
  0014c	e8 00 00 00 00	 call	 ??$_Uninitialized_move@PAUSHyperlink@CGraphicTextInstance@@V?$allocator@USHyperlink@CGraphicTextInstance@@@std@@@std@@YAPAUSHyperlink@CGraphicTextInstance@@QAU12@0PAU12@AAV?$allocator@USHyperlink@CGraphicTextInstance@@@0@@Z ; std::_Uninitialized_move<CGraphicTextInstance::SHyperlink *,std::allocator<CGraphicTextInstance::SHyperlink> >
  00151	8b 4d 08	 mov	 ecx, DWORD PTR __Whereptr$[ebp]
  00154	83 c4 10	 add	 esp, 16			; 00000010H
  00157	8b 47 04	 mov	 eax, DWORD PTR [edi+4]
$LN5@Emplace_re:

; 795  :             _Umove(_Myfirst, _Whereptr, _Newvec);
; 796  :             _Constructed_first = _Newvec;
; 797  :             _Umove(_Whereptr, _Mylast, _Newvec + _Whereoff + 1);

  0015a	57		 push	 edi
  0015b	56		 push	 esi
  0015c	50		 push	 eax
  0015d	51		 push	 ecx
  0015e	e8 00 00 00 00	 call	 ??$_Uninitialized_move@PAUSHyperlink@CGraphicTextInstance@@V?$allocator@USHyperlink@CGraphicTextInstance@@@std@@@std@@YAPAUSHyperlink@CGraphicTextInstance@@QAU12@0PAU12@AAV?$allocator@USHyperlink@CGraphicTextInstance@@@0@@Z ; std::_Uninitialized_move<CGraphicTextInstance::SHyperlink *,std::allocator<CGraphicTextInstance::SHyperlink> >

; 1745 :         if (_Myfirst) { // destroy and deallocate old array

  00163	8b 37		 mov	 esi, DWORD PTR [edi]

; 795  :             _Umove(_Myfirst, _Whereptr, _Newvec);
; 796  :             _Constructed_first = _Newvec;
; 797  :             _Umove(_Whereptr, _Mylast, _Newvec + _Whereoff + 1);

  00165	83 c4 10	 add	 esp, 16			; 00000010H

; 1745 :         if (_Myfirst) { // destroy and deallocate old array

  00168	85 f6		 test	 esi, esi
  0016a	74 63		 je	 SHORT $LN57@Emplace_re

; 1746 :             _Destroy(_Myfirst, _Mylast);

  0016c	8b 47 04	 mov	 eax, DWORD PTR [edi+4]
  0016f	89 45 08	 mov	 DWORD PTR __Last$1$[ebp], eax
; File C:\Program Files (x86)\Microsoft Visual Studio\2019\Professional\VC\Tools\MSVC\14.29.30133\include\xmemory

; 949  :         for (; _First != _Last; ++_First) {

  00172	3b f0		 cmp	 esi, eax
  00174	74 11		 je	 SHORT $LN45@Emplace_re
$LL46@Emplace_re:
  00176	8b ce		 mov	 ecx, esi
  00178	e8 00 00 00 00	 call	 ??1SHyperlink@CGraphicTextInstance@@QAE@XZ
  0017d	83 c6 1c	 add	 esi, 28			; 0000001cH
  00180	3b 75 08	 cmp	 esi, DWORD PTR __Last$1$[ebp]
  00183	75 f1		 jne	 SHORT $LL46@Emplace_re
  00185	8b 37		 mov	 esi, DWORD PTR [edi]
$LN45@Emplace_re:
; File C:\Program Files (x86)\Microsoft Visual Studio\2019\Professional\VC\Tools\MSVC\14.29.30133\include\vector

; 1747 :             _Getal().deallocate(_Myfirst, static_cast<size_type>(_Myend - _Myfirst));

  00187	8b 4f 08	 mov	 ecx, DWORD PTR [edi+8]
  0018a	b8 93 24 49 92	 mov	 eax, -1840700269	; 92492493H
  0018f	2b ce		 sub	 ecx, esi
  00191	f7 e9		 imul	 ecx
  00193	03 d1		 add	 edx, ecx
  00195	c1 fa 04	 sar	 edx, 4
  00198	8b c2		 mov	 eax, edx
  0019a	c1 e8 1f	 shr	 eax, 31			; 0000001fH
  0019d	03 c2		 add	 eax, edx
; File C:\Program Files (x86)\Microsoft Visual Studio\2019\Professional\VC\Tools\MSVC\14.29.30133\include\xmemory

; 835  :         _Deallocate<_New_alignof<_Ty>>(_Ptr, sizeof(_Ty) * _Count);

  0019f	8d 0c c5 00 00
	00 00		 lea	 ecx, DWORD PTR [eax*8]
  001a6	2b c8		 sub	 ecx, eax
  001a8	c1 e1 02	 shl	 ecx, 2

; 260  :         if (_Bytes >= _Big_allocation_threshold) { // boost the alignment of big allocations to help autovectorization

  001ab	81 f9 00 10 00
	00		 cmp	 ecx, 4096		; 00001000H
  001b1	72 12		 jb	 SHORT $LN67@Emplace_re

; 158  :     const uintptr_t _Ptr_container   = _Ptr_user[-1];

  001b3	8b 56 fc	 mov	 edx, DWORD PTR [esi-4]
  001b6	83 c1 23	 add	 ecx, 35			; 00000023H

; 159  : 
; 160  :     // If the following asserts, it likely means that we are performing
; 161  :     // an aligned delete on memory coming from an unaligned allocation.
; 162  :     _STL_ASSERT(_Ptr_user[-2] == _Big_allocation_sentinel, "invalid argument");
; 163  : 
; 164  :     // Extra paranoia on aligned allocation/deallocation; ensure _Ptr_container is
; 165  :     // in range [_Min_back_shift, _Non_user_size]
; 166  : #ifdef _DEBUG
; 167  :     constexpr uintptr_t _Min_back_shift = 2 * sizeof(void*);
; 168  : #else // ^^^ _DEBUG ^^^ // vvv !_DEBUG vvv
; 169  :     constexpr uintptr_t _Min_back_shift = sizeof(void*);
; 170  : #endif // _DEBUG
; 171  :     const uintptr_t _Back_shift = reinterpret_cast<uintptr_t>(_Ptr) - _Ptr_container;

  001b9	2b f2		 sub	 esi, edx

; 172  :     _STL_VERIFY(_Back_shift >= _Min_back_shift && _Back_shift <= _Non_user_size, "invalid argument");

  001bb	8d 46 fc	 lea	 eax, DWORD PTR [esi-4]
  001be	83 f8 1f	 cmp	 eax, 31			; 0000001fH
  001c1	77 6d		 ja	 SHORT $LN64@Emplace_re

; 173  :     _Ptr = reinterpret_cast<void*>(_Ptr_container);

  001c3	8b f2		 mov	 esi, edx
$LN67@Emplace_re:

; 264  :         ::operator delete(_Ptr, _Bytes);

  001c5	51		 push	 ecx
  001c6	56		 push	 esi
  001c7	e8 00 00 00 00	 call	 ??3@YAXPAXI@Z		; operator delete
  001cc	83 c4 08	 add	 esp, 8
$LN57@Emplace_re:
; File C:\Program Files (x86)\Microsoft Visual Studio\2019\Professional\VC\Tools\MSVC\14.29.30133\include\vector

; 1751 :         _Mylast  = _Newvec + _Newsize;

  001cf	8b 45 dc	 mov	 eax, DWORD PTR __Newsize$1$[ebp]
  001d2	89 1f		 mov	 DWORD PTR [edi], ebx
  001d4	8d 0c c5 00 00
	00 00		 lea	 ecx, DWORD PTR [eax*8]
  001db	2b c8		 sub	 ecx, eax

; 803  :         _CATCH_END
; 804  : 
; 805  :         _Change_array(_Newvec, _Newsize, _Newcapacity);
; 806  :         return _Newvec + _Whereoff;

  001dd	8b 45 e0	 mov	 eax, DWORD PTR tv505[ebp]

; 1751 :         _Mylast  = _Newvec + _Newsize;

  001e0	8d 0c 8b	 lea	 ecx, DWORD PTR [ebx+ecx*4]
  001e3	89 4f 04	 mov	 DWORD PTR [edi+4], ecx

; 1752 :         _Myend   = _Newvec + _Newcapacity;

  001e6	8b 4d e4	 mov	 ecx, DWORD PTR tv509[ebp]
  001e9	03 cb		 add	 ecx, ebx
  001eb	89 4f 08	 mov	 DWORD PTR [edi+8], ecx

; 807  :     }

  001ee	8b 4d f4	 mov	 ecx, DWORD PTR __$EHRec$[ebp+4]
  001f1	64 89 0d 00 00
	00 00		 mov	 DWORD PTR fs:0, ecx
  001f8	59		 pop	 ecx
  001f9	5f		 pop	 edi
  001fa	5e		 pop	 esi
  001fb	5b		 pop	 ebx
  001fc	8b e5		 mov	 esp, ebp
  001fe	5d		 pop	 ebp
  001ff	c2 08 00	 ret	 8
__catch$??$_Emplace_reallocate@ABUSHyperlink@CGraphicTextInstance@@@?$vector@USHyperlink@CGraphicTextInstance@@V?$allocator@USHyperlink@CGraphicTextInstance@@@std@@@std@@QAEPAUSHyperlink@CGraphicTextInstance@@QAU23@ABU23@@Z$0:

; 798  :         }
; 799  :         _CATCH_ALL
; 800  :         _Destroy(_Constructed_first, _Constructed_last);

  00202	8b 45 d8	 mov	 eax, DWORD PTR __Constructed_last$[ebp]
  00205	8b 4d d4	 mov	 ecx, DWORD PTR _this$[ebp]
  00208	50		 push	 eax
  00209	50		 push	 eax
  0020a	e8 00 00 00 00	 call	 ?_Destroy@?$vector@USHyperlink@CGraphicTextInstance@@V?$allocator@USHyperlink@CGraphicTextInstance@@@std@@@std@@AAEXPAUSHyperlink@CGraphicTextInstance@@0@Z ; std::vector<CGraphicTextInstance::SHyperlink,std::allocator<CGraphicTextInstance::SHyperlink> >::_Destroy

; 801  :         _Al.deallocate(_Newvec, _Newcapacity);

  0020f	ff 75 ec	 push	 DWORD PTR __Newcapacity$[ebp]
  00212	8b 4d d4	 mov	 ecx, DWORD PTR _this$[ebp]
  00215	ff 75 e8	 push	 DWORD PTR $T2[ebp]
  00218	e8 00 00 00 00	 call	 ?deallocate@?$allocator@USHyperlink@CGraphicTextInstance@@@std@@QAEXQAUSHyperlink@CGraphicTextInstance@@I@Z ; std::allocator<CGraphicTextInstance::SHyperlink>::deallocate

; 802  :         _RERAISE;

  0021d	6a 00		 push	 0
  0021f	6a 00		 push	 0
  00221	e8 00 00 00 00	 call	 __CxxThrowException@8
$LN82@Emplace_re:

; 778  :             _Xlength();

  00226	e8 00 00 00 00	 call	 ?_Xlength@?$vector@USHyperlink@CGraphicTextInstance@@V?$allocator@USHyperlink@CGraphicTextInstance@@@std@@@std@@CAXXZ ; std::vector<CGraphicTextInstance::SHyperlink,std::allocator<CGraphicTextInstance::SHyperlink> >::_Xlength
$LN83@Emplace_re:
; File C:\Program Files (x86)\Microsoft Visual Studio\2019\Professional\VC\Tools\MSVC\14.29.30133\include\xmemory

; 65   :             _Throw_bad_array_new_length(); // multiply overflow

  0022b	e8 00 00 00 00	 call	 ?_Throw_bad_array_new_length@std@@YAXXZ ; std::_Throw_bad_array_new_length
$LN64@Emplace_re:

; 172  :     _STL_VERIFY(_Back_shift >= _Min_back_shift && _Back_shift <= _Non_user_size, "invalid argument");

  00230	e8 00 00 00 00	 call	 __invalid_parameter_noinfo_noreturn
$LN78@Emplace_re:
  00235	cc		 int	 3
  00236	cc		 int	 3
  00237	cc		 int	 3
  00238	cc		 int	 3
  00239	cc		 int	 3
  0023a	cc		 int	 3
_TEXT	ENDS
;	COMDAT text$x
text$x	SEGMENT
__ehhandler$??$_Emplace_reallocate@ABUSHyperlink@CGraphicTextInstance@@@?$vector@USHyperlink@CGraphicTextInstance@@V?$allocator@USHyperlink@CGraphicTextInstance@@@std@@@std@@QAEPAUSHyperlink@CGraphicTextInstance@@QAU23@ABU23@@Z:
  00000	90		 npad	 1
  00001	90		 npad	 1
  00002	8b 54 24 08	 mov	 edx, DWORD PTR [esp+8]
  00006	8d 42 0c	 lea	 eax, DWORD PTR [edx+12]
  00009	8b 4a d0	 mov	 ecx, DWORD PTR [edx-48]
  0000c	33 c8		 xor	 ecx, eax
  0000e	e8 00 00 00 00	 call	 @__security_check_cookie@4
  00013	b8 00 00 00 00	 mov	 eax, OFFSET __ehfuncinfo$??$_Emplace_reallocate@ABUSHyperlink@CGraphicTextInstance@@@?$vector@USHyperlink@CGraphicTextInstance@@V?$allocator@USHyperlink@CGraphicTextInstance@@@std@@@std@@QAEPAUSHyperlink@CGraphicTextInstance@@QAU23@ABU23@@Z
  00018	e9 00 00 00 00	 jmp	 ___CxxFrameHandler3
text$x	ENDS
??$_Emplace_reallocate@ABUSHyperlink@CGraphicTextInstance@@@?$vector@USHyperlink@CGraphicTextInstance@@V?$allocator@USHyperlink@CGraphicTextInstance@@@std@@@std@@QAEPAUSHyperlink@CGraphicTextInstance@@QAU23@ABU23@@Z ENDP ; std::vector<CGraphicTextInstance::SHyperlink,std::allocator<CGraphicTextInstance::SHyperlink> >::_Emplace_reallocate<CGraphicTextInstance::SHyperlink const &>
; Function compile flags: /Ogtp
; File C:\Program Files (x86)\Microsoft Visual Studio\2019\Professional\VC\Tools\MSVC\14.29.30133\include\xmemory
; File C:\Program Files (x86)\Microsoft Visual Studio\2019\Professional\VC\Tools\MSVC\14.29.30133\include\xstring
; File C:\Program Files (x86)\Microsoft Visual Studio\2019\Professional\VC\Tools\MSVC\14.29.30133\include\xmemory
; File C:\Program Files (x86)\Microsoft Visual Studio\2019\Professional\VC\Tools\MSVC\14.29.30133\include\xstring
; File C:\Program Files (x86)\Microsoft Visual Studio\2019\Professional\VC\Tools\MSVC\14.29.30133\include\xmemory
; File C:\Program Files (x86)\Microsoft Visual Studio\2019\Professional\VC\Tools\MSVC\14.29.30133\include\xstring
; File C:\Program Files (x86)\Microsoft Visual Studio\2019\Professional\VC\Tools\MSVC\14.29.30133\include\utility
; File C:\Program Files (x86)\Microsoft Visual Studio\2019\Professional\VC\Tools\MSVC\14.29.30133\include\xstring
; File C:\Program Files (x86)\Microsoft Visual Studio\2019\Professional\VC\Tools\MSVC\14.29.30133\include\utility
; File C:\Program Files (x86)\Microsoft Visual Studio\2019\Professional\VC\Tools\MSVC\14.29.30133\include\xstring
; File C:\Program Files (x86)\Microsoft Visual Studio\2019\Professional\VC\Tools\MSVC\14.29.30133\include\xmemory
; File C:\Program Files (x86)\Microsoft Visual Studio\2019\Professional\VC\Tools\MSVC\14.29.30133\include\xstring
; File C:\Program Files (x86)\Microsoft Visual Studio\2019\Professional\VC\Tools\MSVC\14.29.30133\include\xmemory
; File C:\Program Files (x86)\Microsoft Visual Studio\2019\Professional\VC\Tools\MSVC\14.29.30133\include\xstring
; File C:\Program Files (x86)\Microsoft Visual Studio\2019\Professional\VC\Tools\MSVC\14.29.30133\include\xmemory
;	COMDAT ??$construct@USHyperlink@CGraphicTextInstance@@ABU12@@?$_Default_allocator_traits@V?$allocator@USHyperlink@CGraphicTextInstance@@@std@@@std@@SAXAAV?$allocator@USHyperlink@CGraphicTextInstance@@@1@QAUSHyperlink@CGraphicTextInstance@@ABU34@@Z
_TEXT	SEGMENT
___formal$ = 8						; size = 4
__Ptr$ = 12						; size = 4
__New_capacity$1$ = 16					; size = 4
_<_Args_0>$ = 16					; size = 4
??$construct@USHyperlink@CGraphicTextInstance@@ABU12@@?$_Default_allocator_traits@V?$allocator@USHyperlink@CGraphicTextInstance@@@std@@@std@@SAXAAV?$allocator@USHyperlink@CGraphicTextInstance@@@1@QAUSHyperlink@CGraphicTextInstance@@ABU34@@Z PROC ; std::_Default_allocator_traits<std::allocator<CGraphicTextInstance::SHyperlink> >::construct<CGraphicTextInstance::SHyperlink,CGraphicTextInstance::SHyperlink const &>, COMDAT

; 707  :     static _CONSTEXPR20_DYNALLOC void construct(_Alloc&, _Objty* const _Ptr, _Types&&... _Args) {

  00000	55		 push	 ebp
  00001	8b ec		 mov	 ebp, esp
  00003	8b 4d 10	 mov	 ecx, DWORD PTR _<_Args_0>$[ebp]
  00006	53		 push	 ebx
  00007	56		 push	 esi
  00008	8b 75 0c	 mov	 esi, DWORD PTR __Ptr$[ebp]
  0000b	0f b7 01	 movzx	 eax, WORD PTR [ecx]
  0000e	57		 push	 edi
; File C:\Program Files (x86)\Microsoft Visual Studio\2019\Professional\VC\Tools\MSVC\14.29.30133\include\xstring

; 2920 :         auto& _Right_data             = _Right._Mypair._Myval2;

  0000f	8d 79 04	 lea	 edi, DWORD PTR [ecx+4]
  00012	66 89 06	 mov	 WORD PTR [esi], ax
  00015	0f b7 41 02	 movzx	 eax, WORD PTR [ecx+2]
  00019	66 89 46 02	 mov	 WORD PTR [esi+2], ax

; 2346 :         _CONSTEXPR20_CONTAINER _Bxty() noexcept : _Ptr() {} // user-provided, for fancy pointers

  0001d	c7 46 04 00 00
	00 00		 mov	 DWORD PTR [esi+4], 0

; 2355 :     size_type _Mysize = 0; // current length of string

  00024	c7 46 14 00 00
	00 00		 mov	 DWORD PTR [esi+20], 0

; 2356 :     size_type _Myres  = 0; // current storage reserved for string

  0002b	c7 46 18 00 00
	00 00		 mov	 DWORD PTR [esi+24], 0

; 2319 :         return _BUF_SIZE <= _Myres;

  00032	83 7f 14 08	 cmp	 DWORD PTR [edi+20], 8

; 2921 :         const size_type _Right_size   = _Right_data._Mysize;

  00036	8b 5f 10	 mov	 ebx, DWORD PTR [edi+16]

; 2306 :         if (_Large_string_engaged()) {

  00039	72 02		 jb	 SHORT $LN20@construct

; 2307 :             _Result = _Unfancy(_Bx._Ptr);

  0003b	8b 3f		 mov	 edi, DWORD PTR [edi]
$LN20@construct:

; 2928 :         const bool _Stay_small = _Right_size < _BUF_SIZE;

  0003d	83 fb 08	 cmp	 ebx, 8

; 2929 : #endif // __cpp_lib_constexpr_string
; 2930 : 
; 2931 :         // NOTE: even if _Right is in large mode, we only go into large mode ourselves if the actual size of _Right
; 2932 :         // requires it
; 2933 :         if (_Stay_small) { // stay small, don't allocate

  00040	73 16		 jae	 SHORT $LN17@construct

; 65   :         _CSTD memcpy(_First1, _First2, _Count * sizeof(_Elem));

  00042	0f 10 07	 movups	 xmm0, XMMWORD PTR [edi]
  00045	5f		 pop	 edi
  00046	0f 11 46 04	 movups	 XMMWORD PTR [esi+4], xmm0
; File C:\Program Files (x86)\Microsoft Visual Studio\2019\Professional\VC\Tools\MSVC\14.29.30133\include\xmemory

; 716  :     }

  0004a	89 5e 14	 mov	 DWORD PTR [esi+20], ebx
; File C:\Program Files (x86)\Microsoft Visual Studio\2019\Professional\VC\Tools\MSVC\14.29.30133\include\xstring

; 2936 :             _My_data._Myres  = _BUF_SIZE - 1;

  0004d	c7 46 18 07 00
	00 00		 mov	 DWORD PTR [esi+24], 7
; File C:\Program Files (x86)\Microsoft Visual Studio\2019\Professional\VC\Tools\MSVC\14.29.30133\include\xmemory

; 716  :     }

  00054	5e		 pop	 esi
  00055	5b		 pop	 ebx
  00056	5d		 pop	 ebp
  00057	c3		 ret	 0
$LN17@construct:
; File C:\Program Files (x86)\Microsoft Visual Studio\2019\Professional\VC\Tools\MSVC\14.29.30133\include\xstring

; 2941 :         const size_type _New_capacity = (_STD min)(_Right_size | _ALLOC_MASK, max_size());

  00058	8b c3		 mov	 eax, ebx
; File C:\Program Files (x86)\Microsoft Visual Studio\2019\Professional\VC\Tools\MSVC\14.29.30133\include\utility

; 68   :     return _Right < _Left ? _Right : _Left;

  0005a	b9 fe ff ff 7f	 mov	 ecx, 2147483646		; 7ffffffeH
; File C:\Program Files (x86)\Microsoft Visual Studio\2019\Professional\VC\Tools\MSVC\14.29.30133\include\xstring

; 2941 :         const size_type _New_capacity = (_STD min)(_Right_size | _ALLOC_MASK, max_size());

  0005f	83 c8 07	 or	 eax, 7
; File C:\Program Files (x86)\Microsoft Visual Studio\2019\Professional\VC\Tools\MSVC\14.29.30133\include\utility

; 68   :     return _Right < _Left ? _Right : _Left;

  00062	3b c1		 cmp	 eax, ecx
  00064	0f 47 c1	 cmova	 eax, ecx
  00067	89 45 10	 mov	 DWORD PTR __New_capacity$1$[ebp], eax
; File C:\Program Files (x86)\Microsoft Visual Studio\2019\Professional\VC\Tools\MSVC\14.29.30133\include\xstring

; 2942 :         const pointer _New_array      = _Al.allocate(_New_capacity + 1); // throws

  0006a	40		 inc	 eax
; File C:\Program Files (x86)\Microsoft Visual Studio\2019\Professional\VC\Tools\MSVC\14.29.30133\include\xmemory

; 64   :         if (_Count > _Max_possible) {

  0006b	3d ff ff ff 7f	 cmp	 eax, 2147483647		; 7fffffffH
  00070	77 4c		 ja	 SHORT $LN49@construct

; 66   :         }
; 67   :     }
; 68   : 
; 69   :     return _Count * _Ty_size;

  00072	03 c0		 add	 eax, eax

; 237  :         if (_Bytes >= _Big_allocation_threshold) { // boost the alignment of big allocations to help autovectorization

  00074	3d 00 10 00 00	 cmp	 eax, 4096		; 00001000H
  00079	72 0d		 jb	 SHORT $LN35@construct

; 238  :             return _Allocate_manually_vector_aligned<_Traits>(_Bytes);

  0007b	50		 push	 eax
  0007c	e8 00 00 00 00	 call	 ??$_Allocate_manually_vector_aligned@U_Default_allocate_traits@std@@@std@@YAPAXI@Z ; std::_Allocate_manually_vector_aligned<std::_Default_allocate_traits>
  00081	83 c4 04	 add	 esp, 4
  00084	8b c8		 mov	 ecx, eax
  00086	eb 13		 jmp	 SHORT $LN34@construct
$LN35@construct:

; 239  :         }
; 240  :     }
; 241  : #endif // defined(_M_IX86) || defined(_M_X64)
; 242  : 
; 243  :     if (_Bytes != 0) {

  00088	85 c0		 test	 eax, eax
  0008a	74 0d		 je	 SHORT $LN36@construct

; 85   :         return ::operator new(_Bytes);

  0008c	50		 push	 eax
  0008d	e8 00 00 00 00	 call	 ??2@YAPAXI@Z		; operator new
  00092	83 c4 04	 add	 esp, 4

; 244  :         return _Traits::_Allocate(_Bytes);

  00095	8b c8		 mov	 ecx, eax
  00097	eb 02		 jmp	 SHORT $LN34@construct
$LN36@construct:

; 245  :     }
; 246  : 
; 247  :     return nullptr;

  00099	33 c9		 xor	 ecx, ecx
$LN34@construct:
; File C:\Program Files (x86)\Microsoft Visual Studio\2019\Professional\VC\Tools\MSVC\14.29.30133\include\xstring

; 65   :         _CSTD memcpy(_First1, _First2, _Count * sizeof(_Elem));

  0009b	8d 04 5d 02 00
	00 00		 lea	 eax, DWORD PTR [ebx*2+2]

; 2943 :         _Construct_in_place(_My_data._Bx._Ptr, _New_array);

  000a2	89 4e 04	 mov	 DWORD PTR [esi+4], ecx

; 65   :         _CSTD memcpy(_First1, _First2, _Count * sizeof(_Elem));

  000a5	50		 push	 eax
  000a6	57		 push	 edi
  000a7	51		 push	 ecx
  000a8	e8 00 00 00 00	 call	 _memcpy

; 2952 :         _My_data._Myres  = _New_capacity;

  000ad	8b 45 10	 mov	 eax, DWORD PTR __New_capacity$1$[ebp]

; 65   :         _CSTD memcpy(_First1, _First2, _Count * sizeof(_Elem));

  000b0	83 c4 0c	 add	 esp, 12			; 0000000cH
; File C:\Program Files (x86)\Microsoft Visual Studio\2019\Professional\VC\Tools\MSVC\14.29.30133\include\xmemory

; 716  :     }

  000b3	89 5e 14	 mov	 DWORD PTR [esi+20], ebx
; File C:\Program Files (x86)\Microsoft Visual Studio\2019\Professional\VC\Tools\MSVC\14.29.30133\include\xstring

; 2952 :         _My_data._Myres  = _New_capacity;

  000b6	89 46 18	 mov	 DWORD PTR [esi+24], eax
  000b9	5f		 pop	 edi
; File C:\Program Files (x86)\Microsoft Visual Studio\2019\Professional\VC\Tools\MSVC\14.29.30133\include\xmemory

; 716  :     }

  000ba	5e		 pop	 esi
  000bb	5b		 pop	 ebx
  000bc	5d		 pop	 ebp
  000bd	c3		 ret	 0
$LN49@construct:

; 65   :             _Throw_bad_array_new_length(); // multiply overflow

  000be	e8 00 00 00 00	 call	 ?_Throw_bad_array_new_length@std@@YAXXZ ; std::_Throw_bad_array_new_length
$LN46@construct:
  000c3	cc		 int	 3
??$construct@USHyperlink@CGraphicTextInstance@@ABU12@@?$_Default_allocator_traits@V?$allocator@USHyperlink@CGraphicTextInstance@@@std@@@std@@SAXAAV?$allocator@USHyperlink@CGraphicTextInstance@@@1@QAUSHyperlink@CGraphicTextInstance@@ABU34@@Z ENDP ; std::_Default_allocator_traits<std::allocator<CGraphicTextInstance::SHyperlink> >::construct<CGraphicTextInstance::SHyperlink,CGraphicTextInstance::SHyperlink const &>
_TEXT	ENDS
; Function compile flags: /Ogtp
; File C:\Program Files (x86)\Microsoft Visual Studio\2019\Professional\VC\Tools\MSVC\14.29.30133\include\vector
; File C:\Program Files (x86)\Microsoft Visual Studio\2019\Professional\VC\Tools\MSVC\14.29.30133\include\xmemory
; File C:\Program Files (x86)\Microsoft Visual Studio\2019\Professional\VC\Tools\MSVC\14.29.30133\include\vector
; File C:\Program Files (x86)\Microsoft Visual Studio\2019\Professional\VC\Tools\MSVC\14.29.30133\include\xmemory
; File C:\Program Files (x86)\Microsoft Visual Studio\2019\Professional\VC\Tools\MSVC\14.29.30133\include\vector
; File C:\Program Files (x86)\Microsoft Visual Studio\2019\Professional\VC\Tools\MSVC\14.29.30133\include\xmemory
; File C:\Program Files (x86)\Microsoft Visual Studio\2019\Professional\VC\Tools\MSVC\14.29.30133\include\vector
; File C:\Program Files (x86)\Microsoft Visual Studio\2019\Professional\VC\Tools\MSVC\14.29.30133\include\xmemory
; File C:\Program Files (x86)\Microsoft Visual Studio\2019\Professional\VC\Tools\MSVC\14.29.30133\include\vector
; File C:\Program Files (x86)\Microsoft Visual Studio\2019\Professional\VC\Tools\MSVC\14.29.30133\include\xmemory
; File C:\Program Files (x86)\Microsoft Visual Studio\2019\Professional\VC\Tools\MSVC\14.29.30133\include\vector
; File C:\Program Files (x86)\Microsoft Visual Studio\2019\Professional\VC\Tools\MSVC\14.29.30133\include\xmemory
; File C:\Program Files (x86)\Microsoft Visual Studio\2019\Professional\VC\Tools\MSVC\14.29.30133\include\vector
; File C:\Program Files (x86)\Microsoft Visual Studio\2019\Professional\VC\Tools\MSVC\14.29.30133\include\xmemory
; File C:\Program Files (x86)\Microsoft Visual Studio\2019\Professional\VC\Tools\MSVC\14.29.30133\include\vector
; File C:\Program Files (x86)\Microsoft Visual Studio\2019\Professional\VC\Tools\MSVC\14.29.30133\include\xmemory
; File C:\Program Files (x86)\Microsoft Visual Studio\2019\Professional\VC\Tools\MSVC\14.29.30133\include\vector
;	COMDAT ??$_Emplace_reallocate@ABUSEmoji@CGraphicTextInstance@@@?$vector@USEmoji@CGraphicTextInstance@@V?$allocator@USEmoji@CGraphicTextInstance@@@std@@@std@@QAEPAUSEmoji@CGraphicTextInstance@@QAU23@ABU23@@Z
_TEXT	SEGMENT
tv696 = -16						; size = 4
tv701 = -12						; size = 4
__Newsize$1$ = -8					; size = 4
_this$1$ = -4						; size = 4
$T4 = 8							; size = 4
__Whereptr$ = 8						; size = 4
_<_Val_0>$ = 12						; size = 4
??$_Emplace_reallocate@ABUSEmoji@CGraphicTextInstance@@@?$vector@USEmoji@CGraphicTextInstance@@V?$allocator@USEmoji@CGraphicTextInstance@@@std@@@std@@QAEPAUSEmoji@CGraphicTextInstance@@QAU23@ABU23@@Z PROC ; std::vector<CGraphicTextInstance::SEmoji,std::allocator<CGraphicTextInstance::SEmoji> >::_Emplace_reallocate<CGraphicTextInstance::SEmoji const &>, COMDAT
; _this$ = ecx

; 765  :     _CONSTEXPR20_CONTAINER pointer _Emplace_reallocate(const pointer _Whereptr, _Valty&&... _Val) {

  00000	55		 push	 ebp
  00001	8b ec		 mov	 ebp, esp
  00003	83 ec 10	 sub	 esp, 16			; 00000010H
  00006	53		 push	 ebx
  00007	56		 push	 esi

; 766  :         // reallocate and insert by perfectly forwarding _Val at _Whereptr
; 767  :         _Alty& _Al        = _Getal();
; 768  :         auto& _My_data    = _Mypair._Myval2;
; 769  :         pointer& _Myfirst = _My_data._Myfirst;
; 770  :         pointer& _Mylast  = _My_data._Mylast;
; 771  : 
; 772  :         _STL_INTERNAL_CHECK(_Mylast == _My_data._Myend); // check that we have no unused capacity
; 773  : 
; 774  :         const auto _Whereoff = static_cast<size_type>(_Whereptr - _Myfirst);

  00008	8b 75 08	 mov	 esi, DWORD PTR __Whereptr$[ebp]
  0000b	8b de		 mov	 ebx, esi
  0000d	57		 push	 edi
  0000e	8b f9		 mov	 edi, ecx
  00010	89 7d fc	 mov	 DWORD PTR _this$1$[ebp], edi
  00013	8b 0f		 mov	 ecx, DWORD PTR [edi]
  00015	2b d9		 sub	 ebx, ecx

; 775  :         const auto _Oldsize  = static_cast<size_type>(_Mylast - _Myfirst);

  00017	8b 47 04	 mov	 eax, DWORD PTR [edi+4]
  0001a	2b c1		 sub	 eax, ecx
  0001c	c1 fb 03	 sar	 ebx, 3
  0001f	c1 f8 03	 sar	 eax, 3

; 776  : 
; 777  :         if (_Oldsize == max_size()) {

  00022	3d ff ff ff 1f	 cmp	 eax, 536870911		; 1fffffffH
  00027	0f 84 50 01 00
	00		 je	 $LN110@Emplace_re

; 1559 :         return static_cast<size_type>(_My_data._Myend - _My_data._Myfirst);

  0002d	8b 57 08	 mov	 edx, DWORD PTR [edi+8]

; 779  :         }
; 780  : 
; 781  :         const size_type _Newsize     = _Oldsize + 1;

  00030	40		 inc	 eax

; 1559 :         return static_cast<size_type>(_My_data._Myend - _My_data._Myfirst);

  00031	2b d1		 sub	 edx, ecx

; 779  :         }
; 780  : 
; 781  :         const size_type _Newsize     = _Oldsize + 1;

  00033	89 45 f8	 mov	 DWORD PTR __Newsize$1$[ebp], eax

; 1559 :         return static_cast<size_type>(_My_data._Myend - _My_data._Myfirst);

  00036	c1 fa 03	 sar	 edx, 3

; 1688 :         if (_Oldcapacity > _Max - _Oldcapacity / 2) {

  00039	b8 ff ff ff 1f	 mov	 eax, 536870911		; 1fffffffH
  0003e	8b ca		 mov	 ecx, edx
  00040	d1 e9		 shr	 ecx, 1
  00042	2b c1		 sub	 eax, ecx
  00044	3b d0		 cmp	 edx, eax
  00046	76 13		 jbe	 SHORT $LN12@Emplace_re

; 1689 :             return _Max; // geometric growth would overflow

  00048	b8 f8 ff ff ff	 mov	 eax, -8			; fffffff8H
; File C:\Program Files (x86)\Microsoft Visual Studio\2019\Professional\VC\Tools\MSVC\14.29.30133\include\xmemory

; 238  :             return _Allocate_manually_vector_aligned<_Traits>(_Bytes);

  0004d	50		 push	 eax
; File C:\Program Files (x86)\Microsoft Visual Studio\2019\Professional\VC\Tools\MSVC\14.29.30133\include\vector

; 1689 :             return _Max; // geometric growth would overflow

  0004e	89 45 f4	 mov	 DWORD PTR tv701[ebp], eax
; File C:\Program Files (x86)\Microsoft Visual Studio\2019\Professional\VC\Tools\MSVC\14.29.30133\include\xmemory

; 238  :             return _Allocate_manually_vector_aligned<_Traits>(_Bytes);

  00051	e8 00 00 00 00	 call	 ??$_Allocate_manually_vector_aligned@U_Default_allocate_traits@std@@@std@@YAPAXI@Z ; std::_Allocate_manually_vector_aligned<std::_Default_allocate_traits>
  00056	83 c4 04	 add	 esp, 4
  00059	eb 44		 jmp	 SHORT $LN108@Emplace_re
$LN12@Emplace_re:
; File C:\Program Files (x86)\Microsoft Visual Studio\2019\Professional\VC\Tools\MSVC\14.29.30133\include\vector

; 1692 :         const size_type _Geometric = _Oldcapacity + _Oldcapacity / 2;

  0005b	8d 04 11	 lea	 eax, DWORD PTR [ecx+edx]
; File C:\Program Files (x86)\Microsoft Visual Studio\2019\Professional\VC\Tools\MSVC\14.29.30133\include\xmemory

; 64   :         if (_Count > _Max_possible) {

  0005e	8b 4d f8	 mov	 ecx, DWORD PTR __Newsize$1$[ebp]
  00061	3b c1		 cmp	 eax, ecx
  00063	0f 43 c8	 cmovae	 ecx, eax
  00066	81 f9 ff ff ff
	1f		 cmp	 ecx, 536870911		; 1fffffffH
  0006c	0f 87 10 01 00
	00		 ja	 $LN111@Emplace_re

; 66   :         }
; 67   :     }
; 68   : 
; 69   :     return _Count * _Ty_size;

  00072	8d 04 cd 00 00
	00 00		 lea	 eax, DWORD PTR [ecx*8]
  00079	89 45 f4	 mov	 DWORD PTR tv701[ebp], eax

; 237  :         if (_Bytes >= _Big_allocation_threshold) { // boost the alignment of big allocations to help autovectorization

  0007c	3d 00 10 00 00	 cmp	 eax, 4096		; 00001000H
  00081	72 0b		 jb	 SHORT $LN24@Emplace_re

; 238  :             return _Allocate_manually_vector_aligned<_Traits>(_Bytes);

  00083	50		 push	 eax
  00084	e8 00 00 00 00	 call	 ??$_Allocate_manually_vector_aligned@U_Default_allocate_traits@std@@@std@@YAPAXI@Z ; std::_Allocate_manually_vector_aligned<std::_Default_allocate_traits>
  00089	83 c4 04	 add	 esp, 4
  0008c	eb 11		 jmp	 SHORT $LN108@Emplace_re
$LN24@Emplace_re:

; 239  :         }
; 240  :     }
; 241  : #endif // defined(_M_IX86) || defined(_M_X64)
; 242  : 
; 243  :     if (_Bytes != 0) {

  0008e	85 c0		 test	 eax, eax
  00090	74 0b		 je	 SHORT $LN25@Emplace_re

; 85   :         return ::operator new(_Bytes);

  00092	50		 push	 eax
  00093	e8 00 00 00 00	 call	 ??2@YAPAXI@Z		; operator new
  00098	83 c4 04	 add	 esp, 4

; 244  :         return _Traits::_Allocate(_Bytes);

  0009b	eb 02		 jmp	 SHORT $LN108@Emplace_re
$LN25@Emplace_re:

; 245  :     }
; 246  : 
; 247  :     return nullptr;

  0009d	33 c0		 xor	 eax, eax
$LN108@Emplace_re:
; File C:\Program Files (x86)\Microsoft Visual Studio\2019\Professional\VC\Tools\MSVC\14.29.30133\include\vector

; 789  :         _Alty_traits::construct(_Al, _Unfancy(_Newvec + _Whereoff), _STD forward<_Valty>(_Val)...);

  0009f	8d 14 d8	 lea	 edx, DWORD PTR [eax+ebx*8]
  000a2	89 45 08	 mov	 DWORD PTR $T4[ebp], eax
  000a5	8b 45 0c	 mov	 eax, DWORD PTR _<_Val_0>$[ebp]
  000a8	89 55 f0	 mov	 DWORD PTR tv696[ebp], edx
  000ab	8b 08		 mov	 ecx, DWORD PTR [eax]
  000ad	8b 40 04	 mov	 eax, DWORD PTR [eax+4]
  000b0	89 0a		 mov	 DWORD PTR [edx], ecx
  000b2	89 42 04	 mov	 DWORD PTR [edx+4], eax

; 790  :         _Constructed_first = _Newvec + _Whereoff;
; 791  : 
; 792  :         if (_Whereptr == _Mylast) { // at back, provide strong guarantee

  000b5	8b 5f 04	 mov	 ebx, DWORD PTR [edi+4]
  000b8	8b 17		 mov	 edx, DWORD PTR [edi]
  000ba	3b f3		 cmp	 esi, ebx
  000bc	75 1e		 jne	 SHORT $LN4@Emplace_re
; File C:\Program Files (x86)\Microsoft Visual Studio\2019\Professional\VC\Tools\MSVC\14.29.30133\include\xmemory

; 1620 :         : _First(_Dest), _Last(_Dest), _Al(_Al_) {}

  000be	8b 75 08	 mov	 esi, DWORD PTR $T4[ebp]

; 1731 :     for (; _UFirst != _ULast; ++_UFirst) {

  000c1	3b d3		 cmp	 edx, ebx
  000c3	74 5f		 je	 SHORT $LN62@Emplace_re
$LL37@Emplace_re:

; 1631 :         allocator_traits<_Alloc>::construct(_Al, _Unfancy(_Last), _STD forward<_Types>(_Vals)...);

  000c5	8b 02		 mov	 eax, DWORD PTR [edx]

; 1632 :         ++_Last;

  000c7	8d 76 08	 lea	 esi, DWORD PTR [esi+8]
  000ca	8b 4a 04	 mov	 ecx, DWORD PTR [edx+4]

; 1731 :     for (; _UFirst != _ULast; ++_UFirst) {

  000cd	83 c2 08	 add	 edx, 8

; 1631 :         allocator_traits<_Alloc>::construct(_Al, _Unfancy(_Last), _STD forward<_Types>(_Vals)...);

  000d0	89 46 f8	 mov	 DWORD PTR [esi-8], eax
  000d3	89 4e fc	 mov	 DWORD PTR [esi-4], ecx

; 1731 :     for (; _UFirst != _ULast; ++_UFirst) {

  000d6	3b d3		 cmp	 edx, ebx
  000d8	75 eb		 jne	 SHORT $LL37@Emplace_re
; File C:\Program Files (x86)\Microsoft Visual Studio\2019\Professional\VC\Tools\MSVC\14.29.30133\include\vector

; 794  :         } else { // provide basic guarantee

  000da	eb 48		 jmp	 SHORT $LN62@Emplace_re
$LN4@Emplace_re:
; File C:\Program Files (x86)\Microsoft Visual Studio\2019\Professional\VC\Tools\MSVC\14.29.30133\include\xmemory

; 1620 :         : _First(_Dest), _Last(_Dest), _Al(_Al_) {}

  000dc	8b 7d 08	 mov	 edi, DWORD PTR $T4[ebp]

; 1731 :     for (; _UFirst != _ULast; ++_UFirst) {

  000df	3b d6		 cmp	 edx, esi
  000e1	74 1d		 je	 SHORT $LN106@Emplace_re
$LL50@Emplace_re:

; 1631 :         allocator_traits<_Alloc>::construct(_Al, _Unfancy(_Last), _STD forward<_Types>(_Vals)...);

  000e3	8b 02		 mov	 eax, DWORD PTR [edx]

; 1632 :         ++_Last;

  000e5	8d 7f 08	 lea	 edi, DWORD PTR [edi+8]
  000e8	8b 4a 04	 mov	 ecx, DWORD PTR [edx+4]

; 1731 :     for (; _UFirst != _ULast; ++_UFirst) {

  000eb	83 c2 08	 add	 edx, 8

; 1631 :         allocator_traits<_Alloc>::construct(_Al, _Unfancy(_Last), _STD forward<_Types>(_Vals)...);

  000ee	89 47 f8	 mov	 DWORD PTR [edi-8], eax
  000f1	89 4f fc	 mov	 DWORD PTR [edi-4], ecx

; 1731 :     for (; _UFirst != _ULast; ++_UFirst) {

  000f4	3b d6		 cmp	 edx, esi
  000f6	75 eb		 jne	 SHORT $LL50@Emplace_re
  000f8	8b 7d fc	 mov	 edi, DWORD PTR _this$1$[ebp]
  000fb	8b 5f 04	 mov	 ebx, DWORD PTR [edi+4]
  000fe	eb 03		 jmp	 SHORT $LN49@Emplace_re
$LN106@Emplace_re:
  00100	8b 7d fc	 mov	 edi, DWORD PTR _this$1$[ebp]
$LN49@Emplace_re:
  00103	3b f3		 cmp	 esi, ebx
  00105	74 1d		 je	 SHORT $LN62@Emplace_re
  00107	8b 55 f0	 mov	 edx, DWORD PTR tv696[ebp]
  0010a	2b d6		 sub	 edx, esi
  0010c	0f 1f 40 00	 npad	 4
$LL63@Emplace_re:

; 1631 :         allocator_traits<_Alloc>::construct(_Al, _Unfancy(_Last), _STD forward<_Types>(_Vals)...);

  00110	8b 06		 mov	 eax, DWORD PTR [esi]
  00112	8b 4e 04	 mov	 ecx, DWORD PTR [esi+4]
  00115	89 44 32 08	 mov	 DWORD PTR [edx+esi+8], eax
  00119	89 4c 32 0c	 mov	 DWORD PTR [edx+esi+12], ecx

; 1731 :     for (; _UFirst != _ULast; ++_UFirst) {

  0011d	83 c6 08	 add	 esi, 8
  00120	3b f3		 cmp	 esi, ebx
  00122	75 ec		 jne	 SHORT $LL63@Emplace_re
$LN62@Emplace_re:
; File C:\Program Files (x86)\Microsoft Visual Studio\2019\Professional\VC\Tools\MSVC\14.29.30133\include\vector

; 1745 :         if (_Myfirst) { // destroy and deallocate old array

  00124	8b 07		 mov	 eax, DWORD PTR [edi]
  00126	85 c0		 test	 eax, eax
  00128	74 2c		 je	 SHORT $LN78@Emplace_re

; 1746 :             _Destroy(_Myfirst, _Mylast);
; 1747 :             _Getal().deallocate(_Myfirst, static_cast<size_type>(_Myend - _Myfirst));

  0012a	8b 4f 08	 mov	 ecx, DWORD PTR [edi+8]
  0012d	2b c8		 sub	 ecx, eax
; File C:\Program Files (x86)\Microsoft Visual Studio\2019\Professional\VC\Tools\MSVC\14.29.30133\include\xmemory

; 835  :         _Deallocate<_New_alignof<_Ty>>(_Ptr, sizeof(_Ty) * _Count);

  0012f	83 e1 f8	 and	 ecx, -8			; fffffff8H

; 260  :         if (_Bytes >= _Big_allocation_threshold) { // boost the alignment of big allocations to help autovectorization

  00132	81 f9 00 10 00
	00		 cmp	 ecx, 4096		; 00001000H
  00138	72 12		 jb	 SHORT $LN88@Emplace_re

; 158  :     const uintptr_t _Ptr_container   = _Ptr_user[-1];

  0013a	8b 50 fc	 mov	 edx, DWORD PTR [eax-4]
  0013d	83 c1 23	 add	 ecx, 35			; 00000023H

; 159  : 
; 160  :     // If the following asserts, it likely means that we are performing
; 161  :     // an aligned delete on memory coming from an unaligned allocation.
; 162  :     _STL_ASSERT(_Ptr_user[-2] == _Big_allocation_sentinel, "invalid argument");
; 163  : 
; 164  :     // Extra paranoia on aligned allocation/deallocation; ensure _Ptr_container is
; 165  :     // in range [_Min_back_shift, _Non_user_size]
; 166  : #ifdef _DEBUG
; 167  :     constexpr uintptr_t _Min_back_shift = 2 * sizeof(void*);
; 168  : #else // ^^^ _DEBUG ^^^ // vvv !_DEBUG vvv
; 169  :     constexpr uintptr_t _Min_back_shift = sizeof(void*);
; 170  : #endif // _DEBUG
; 171  :     const uintptr_t _Back_shift = reinterpret_cast<uintptr_t>(_Ptr) - _Ptr_container;

  00140	2b c2		 sub	 eax, edx

; 172  :     _STL_VERIFY(_Back_shift >= _Min_back_shift && _Back_shift <= _Non_user_size, "invalid argument");

  00142	83 c0 fc	 add	 eax, -4			; fffffffcH
  00145	83 f8 1f	 cmp	 eax, 31			; 0000001fH
  00148	77 2e		 ja	 SHORT $LN85@Emplace_re

; 173  :     _Ptr = reinterpret_cast<void*>(_Ptr_container);

  0014a	8b c2		 mov	 eax, edx
$LN88@Emplace_re:

; 264  :         ::operator delete(_Ptr, _Bytes);

  0014c	51		 push	 ecx
  0014d	50		 push	 eax
  0014e	e8 00 00 00 00	 call	 ??3@YAXPAXI@Z		; operator delete
  00153	83 c4 08	 add	 esp, 8
$LN78@Emplace_re:
; File C:\Program Files (x86)\Microsoft Visual Studio\2019\Professional\VC\Tools\MSVC\14.29.30133\include\vector

; 1750 :         _Myfirst = _Newvec;

  00156	8b 45 08	 mov	 eax, DWORD PTR $T4[ebp]

; 1751 :         _Mylast  = _Newvec + _Newsize;

  00159	8b 4d f8	 mov	 ecx, DWORD PTR __Newsize$1$[ebp]
  0015c	89 07		 mov	 DWORD PTR [edi], eax
  0015e	8d 0c c8	 lea	 ecx, DWORD PTR [eax+ecx*8]
  00161	89 4f 04	 mov	 DWORD PTR [edi+4], ecx

; 1752 :         _Myend   = _Newvec + _Newcapacity;

  00164	8b 4d f4	 mov	 ecx, DWORD PTR tv701[ebp]
  00167	03 c8		 add	 ecx, eax

; 795  :             _Umove(_Myfirst, _Whereptr, _Newvec);
; 796  :             _Constructed_first = _Newvec;
; 797  :             _Umove(_Whereptr, _Mylast, _Newvec + _Whereoff + 1);
; 798  :         }
; 799  :         _CATCH_ALL
; 800  :         _Destroy(_Constructed_first, _Constructed_last);
; 801  :         _Al.deallocate(_Newvec, _Newcapacity);
; 802  :         _RERAISE;
; 803  :         _CATCH_END
; 804  : 
; 805  :         _Change_array(_Newvec, _Newsize, _Newcapacity);
; 806  :         return _Newvec + _Whereoff;

  00169	8b 45 f0	 mov	 eax, DWORD PTR tv696[ebp]

; 1752 :         _Myend   = _Newvec + _Newcapacity;

  0016c	89 4f 08	 mov	 DWORD PTR [edi+8], ecx

; 795  :             _Umove(_Myfirst, _Whereptr, _Newvec);
; 796  :             _Constructed_first = _Newvec;
; 797  :             _Umove(_Whereptr, _Mylast, _Newvec + _Whereoff + 1);
; 798  :         }
; 799  :         _CATCH_ALL
; 800  :         _Destroy(_Constructed_first, _Constructed_last);
; 801  :         _Al.deallocate(_Newvec, _Newcapacity);
; 802  :         _RERAISE;
; 803  :         _CATCH_END
; 804  : 
; 805  :         _Change_array(_Newvec, _Newsize, _Newcapacity);
; 806  :         return _Newvec + _Whereoff;

  0016f	5f		 pop	 edi
  00170	5e		 pop	 esi
  00171	5b		 pop	 ebx

; 807  :     }

  00172	8b e5		 mov	 esp, ebp
  00174	5d		 pop	 ebp
  00175	c2 08 00	 ret	 8
$LN85@Emplace_re:
; File C:\Program Files (x86)\Microsoft Visual Studio\2019\Professional\VC\Tools\MSVC\14.29.30133\include\xmemory

; 172  :     _STL_VERIFY(_Back_shift >= _Min_back_shift && _Back_shift <= _Non_user_size, "invalid argument");

  00178	e8 00 00 00 00	 call	 __invalid_parameter_noinfo_noreturn
$LN110@Emplace_re:
; File C:\Program Files (x86)\Microsoft Visual Studio\2019\Professional\VC\Tools\MSVC\14.29.30133\include\vector

; 778  :             _Xlength();

  0017d	e8 00 00 00 00	 call	 ?_Xlength@?$vector@USEmoji@CGraphicTextInstance@@V?$allocator@USEmoji@CGraphicTextInstance@@@std@@@std@@CAXXZ ; std::vector<CGraphicTextInstance::SEmoji,std::allocator<CGraphicTextInstance::SEmoji> >::_Xlength
$LN111@Emplace_re:
; File C:\Program Files (x86)\Microsoft Visual Studio\2019\Professional\VC\Tools\MSVC\14.29.30133\include\xmemory

; 65   :             _Throw_bad_array_new_length(); // multiply overflow

  00182	e8 00 00 00 00	 call	 ?_Throw_bad_array_new_length@std@@YAXXZ ; std::_Throw_bad_array_new_length
$LN107@Emplace_re:
  00187	cc		 int	 3
??$_Emplace_reallocate@ABUSEmoji@CGraphicTextInstance@@@?$vector@USEmoji@CGraphicTextInstance@@V?$allocator@USEmoji@CGraphicTextInstance@@@std@@@std@@QAEPAUSEmoji@CGraphicTextInstance@@QAU23@ABU23@@Z ENDP ; std::vector<CGraphicTextInstance::SEmoji,std::allocator<CGraphicTextInstance::SEmoji> >::_Emplace_reallocate<CGraphicTextInstance::SEmoji const &>
_TEXT	ENDS
; Function compile flags: /Ogtp
; File C:\Users\murat\Desktop\Siveps2-1-99-Project\source\client\Client\EterLib\GrpTextInstance.cpp
;	COMDAT ?IsValidToken@@YA_NPBD@Z
_TEXT	SEGMENT
_iter$ = 8						; size = 4
?IsValidToken@@YA_NPBD@Z PROC				; IsValidToken, COMDAT

; 90   : {

  00000	55		 push	 ebp
  00001	8b ec		 mov	 ebp, esp
  00003	56		 push	 esi

; 91   : 	return	iter[0]=='@' &&

  00004	8b 75 08	 mov	 esi, DWORD PTR _iter$[ebp]
  00007	80 3e 40	 cmp	 BYTE PTR [esi], 64	; 00000040H
  0000a	75 49		 jne	 SHORT $LN3@IsValidTok
  0000c	0f b6 46 01	 movzx	 eax, BYTE PTR [esi+1]
  00010	50		 push	 eax
  00011	e8 00 00 00 00	 call	 ?isNumberic@@YA_ND@Z	; isNumberic
  00016	83 c4 04	 add	 esp, 4
  00019	84 c0		 test	 al, al
  0001b	74 38		 je	 SHORT $LN3@IsValidTok
  0001d	0f b6 46 02	 movzx	 eax, BYTE PTR [esi+2]
  00021	50		 push	 eax
  00022	e8 00 00 00 00	 call	 ?isNumberic@@YA_ND@Z	; isNumberic
  00027	83 c4 04	 add	 esp, 4
  0002a	84 c0		 test	 al, al
  0002c	74 27		 je	 SHORT $LN3@IsValidTok
  0002e	0f b6 46 03	 movzx	 eax, BYTE PTR [esi+3]
  00032	50		 push	 eax
  00033	e8 00 00 00 00	 call	 ?isNumberic@@YA_ND@Z	; isNumberic
  00038	83 c4 04	 add	 esp, 4
  0003b	84 c0		 test	 al, al
  0003d	74 16		 je	 SHORT $LN3@IsValidTok
  0003f	0f b6 46 04	 movzx	 eax, BYTE PTR [esi+4]
  00043	50		 push	 eax
  00044	e8 00 00 00 00	 call	 ?isNumberic@@YA_ND@Z	; isNumberic
  00049	83 c4 04	 add	 esp, 4
  0004c	84 c0		 test	 al, al
  0004e	74 05		 je	 SHORT $LN3@IsValidTok
  00050	b0 01		 mov	 al, 1
  00052	5e		 pop	 esi

; 92   : 		isNumberic(iter[1]) &&
; 93   : 		isNumberic(iter[2]) &&
; 94   : 		isNumberic(iter[3]) &&
; 95   : 		isNumberic(iter[4]);
; 96   : }

  00053	5d		 pop	 ebp
  00054	c3		 ret	 0
$LN3@IsValidTok:

; 91   : 	return	iter[0]=='@' &&

  00055	32 c0		 xor	 al, al
  00057	5e		 pop	 esi

; 92   : 		isNumberic(iter[1]) &&
; 93   : 		isNumberic(iter[2]) &&
; 94   : 		isNumberic(iter[3]) &&
; 95   : 		isNumberic(iter[4]);
; 96   : }

  00058	5d		 pop	 ebp
  00059	c3		 ret	 0
?IsValidToken@@YA_NPBD@Z ENDP				; IsValidToken
_TEXT	ENDS
; Function compile flags: /Ogtp
; File C:\Users\murat\Desktop\Siveps2-1-99-Project\source\client\Client\EterLib\GrpTextInstance.cpp
;	COMDAT ?isNumberic@@YA_ND@Z
_TEXT	SEGMENT
_chr$ = 8						; size = 1
?isNumberic@@YA_ND@Z PROC				; isNumberic, COMDAT

; 83   : {

  00000	55		 push	 ebp
  00001	8b ec		 mov	 ebp, esp

; 84   : 	if (chr >= '0' && chr <= '9')

  00003	8a 45 08	 mov	 al, BYTE PTR _chr$[ebp]
  00006	2c 30		 sub	 al, 48			; 00000030H
  00008	3c 09		 cmp	 al, 9
  0000a	0f 96 c0	 setbe	 al

; 85   : 		return true;
; 86   : 	return false;
; 87   : }

  0000d	5d		 pop	 ebp
  0000e	c3		 ret	 0
?isNumberic@@YA_ND@Z ENDP				; isNumberic
_TEXT	ENDS
; Function compile flags: /Ogtp
; File C:\Program Files (x86)\Microsoft Visual Studio\2019\Professional\VC\Tools\MSVC\14.29.30133\include\xstring
; File C:\Program Files (x86)\Microsoft Visual Studio\2019\Professional\VC\Tools\MSVC\14.29.30133\include\xmemory
; File C:\Program Files (x86)\Microsoft Visual Studio\2019\Professional\VC\Tools\MSVC\14.29.30133\include\xstring
;	COMDAT ??__Fgs_hyperlinkText@@YAXXZ
text$yd	SEGMENT
??__Fgs_hyperlinkText@@YAXXZ PROC			; `dynamic atexit destructor for 'gs_hyperlinkText'', COMDAT

; 2319 :         return _BUF_SIZE <= _Myres;

  00000	8b 15 14 00 00
	00		 mov	 edx, DWORD PTR ?gs_hyperlinkText@@3V?$basic_string@_WU?$char_traits@_W@std@@V?$allocator@_W@2@@std@@A+20
  00006	83 fa 08	 cmp	 edx, 8

; 4618 :         if (_Mypair._Myval2._Large_string_engaged()) {

  00009	72 35		 jb	 SHORT $LN15@dynamic
; File C:\Program Files (x86)\Microsoft Visual Studio\2019\Professional\VC\Tools\MSVC\14.29.30133\include\xmemory

; 835  :         _Deallocate<_New_alignof<_Ty>>(_Ptr, sizeof(_Ty) * _Count);

  0000b	8b 0d 00 00 00
	00		 mov	 ecx, DWORD PTR ?gs_hyperlinkText@@3V?$basic_string@_WU?$char_traits@_W@std@@V?$allocator@_W@2@@std@@A
  00011	8d 14 55 02 00
	00 00		 lea	 edx, DWORD PTR [edx*2+2]
  00018	8b c1		 mov	 eax, ecx

; 260  :         if (_Bytes >= _Big_allocation_threshold) { // boost the alignment of big allocations to help autovectorization

  0001a	81 fa 00 10 00
	00		 cmp	 edx, 4096		; 00001000H
  00020	72 14		 jb	 SHORT $LN25@dynamic

; 158  :     const uintptr_t _Ptr_container   = _Ptr_user[-1];

  00022	8b 49 fc	 mov	 ecx, DWORD PTR [ecx-4]
  00025	83 c2 23	 add	 edx, 35			; 00000023H
  00028	2b c1		 sub	 eax, ecx

; 159  : 
; 160  :     // If the following asserts, it likely means that we are performing
; 161  :     // an aligned delete on memory coming from an unaligned allocation.
; 162  :     _STL_ASSERT(_Ptr_user[-2] == _Big_allocation_sentinel, "invalid argument");
; 163  : 
; 164  :     // Extra paranoia on aligned allocation/deallocation; ensure _Ptr_container is
; 165  :     // in range [_Min_back_shift, _Non_user_size]
; 166  : #ifdef _DEBUG
; 167  :     constexpr uintptr_t _Min_back_shift = 2 * sizeof(void*);
; 168  : #else // ^^^ _DEBUG ^^^ // vvv !_DEBUG vvv
; 169  :     constexpr uintptr_t _Min_back_shift = sizeof(void*);
; 170  : #endif // _DEBUG
; 171  :     const uintptr_t _Back_shift = reinterpret_cast<uintptr_t>(_Ptr) - _Ptr_container;
; 172  :     _STL_VERIFY(_Back_shift >= _Min_back_shift && _Back_shift <= _Non_user_size, "invalid argument");

  0002a	83 c0 fc	 add	 eax, -4			; fffffffcH
  0002d	83 f8 1f	 cmp	 eax, 31			; 0000001fH
  00030	0f 87 00 00 00
	00		 ja	 __invalid_parameter_noinfo_noreturn
$LN25@dynamic:

; 264  :         ::operator delete(_Ptr, _Bytes);

  00036	52		 push	 edx
  00037	51		 push	 ecx
  00038	e8 00 00 00 00	 call	 ??3@YAXPAXI@Z		; operator delete
  0003d	83 c4 08	 add	 esp, 8
$LN15@dynamic:
; File C:\Program Files (x86)\Microsoft Visual Studio\2019\Professional\VC\Tools\MSVC\14.29.30133\include\xstring

; 4636 :             _Traits::assign(_Mypair._Myval2._Bx._Buf[0], _Elem());

  00040	33 c0		 xor	 eax, eax
  00042	c7 05 10 00 00
	00 00 00 00 00	 mov	 DWORD PTR ?gs_hyperlinkText@@3V?$basic_string@_WU?$char_traits@_W@std@@V?$allocator@_W@2@@std@@A+16, 0
  0004c	c7 05 14 00 00
	00 07 00 00 00	 mov	 DWORD PTR ?gs_hyperlinkText@@3V?$basic_string@_WU?$char_traits@_W@std@@V?$allocator@_W@2@@std@@A+20, 7
  00056	66 a3 00 00 00
	00		 mov	 WORD PTR ?gs_hyperlinkText@@3V?$basic_string@_WU?$char_traits@_W@std@@V?$allocator@_W@2@@std@@A, ax
  0005c	c3		 ret	 0
??__Fgs_hyperlinkText@@YAXXZ ENDP			; `dynamic atexit destructor for 'gs_hyperlinkText''
text$yd	ENDS
; Function compile flags: /Ogtp
; File C:\Users\murat\Desktop\Siveps2-1-99-Project\source\client\Client\EterLib\GrpTextInstance.cpp
;	COMDAT ??__Egs_hyperlinkText@@YAXXZ
text$di	SEGMENT
??__Egs_hyperlinkText@@YAXXZ PROC			; `dynamic initializer for 'gs_hyperlinkText'', COMDAT

; 22   : static std::wstring gs_hyperlinkText;

  00000	68 00 00 00 00	 push	 OFFSET ??__Fgs_hyperlinkText@@YAXXZ ; `dynamic atexit destructor for 'gs_hyperlinkText''
  00005	e8 00 00 00 00	 call	 _atexit
  0000a	59		 pop	 ecx
  0000b	c3		 ret	 0
??__Egs_hyperlinkText@@YAXXZ ENDP			; `dynamic initializer for 'gs_hyperlinkText''
text$di	ENDS
; Function compile flags: /Ogtp
;	COMDAT ??__F?ms_kPool@CGraphicTextInstance@@2V?$CDynamicPool@VCGraphicTextInstance@@@@A@@YAXXZ
text$yd	SEGMENT
??__F?ms_kPool@CGraphicTextInstance@@2V?$CDynamicPool@VCGraphicTextInstance@@@@A@@YAXXZ PROC ; `dynamic atexit destructor for 'CGraphicTextInstance::ms_kPool'', COMDAT
  00000	b9 00 00 00 00	 mov	 ecx, OFFSET ?ms_kPool@CGraphicTextInstance@@2V?$CDynamicPool@VCGraphicTextInstance@@@@A ; CGraphicTextInstance::ms_kPool
  00005	e9 00 00 00 00	 jmp	 ??1?$CDynamicPool@VCGraphicTextInstance@@@@UAE@XZ ; CDynamicPool<CGraphicTextInstance>::~CDynamicPool<CGraphicTextInstance>
??__F?ms_kPool@CGraphicTextInstance@@2V?$CDynamicPool@VCGraphicTextInstance@@@@A@@YAXXZ ENDP ; `dynamic atexit destructor for 'CGraphicTextInstance::ms_kPool''
text$yd	ENDS
; Function compile flags: /Ogtp
; File C:\Users\murat\Desktop\Siveps2-1-99-Project\source\client\Client\EterLib\GrpTextInstance.cpp
;	COMDAT ??__E?ms_kPool@CGraphicTextInstance@@2V?$CDynamicPool@VCGraphicTextInstance@@@@A@@YAXXZ
text$di	SEGMENT
??__E?ms_kPool@CGraphicTextInstance@@2V?$CDynamicPool@VCGraphicTextInstance@@@@A@@YAXXZ PROC ; `dynamic initializer for 'CGraphicTextInstance::ms_kPool'', COMDAT

; 17   : CDynamicPool<CGraphicTextInstance>		CGraphicTextInstance::ms_kPool;

  00000	68 00 00 00 00	 push	 OFFSET ??__F?ms_kPool@CGraphicTextInstance@@2V?$CDynamicPool@VCGraphicTextInstance@@@@A@@YAXXZ ; `dynamic atexit destructor for 'CGraphicTextInstance::ms_kPool''
  00005	e8 00 00 00 00	 call	 _atexit
  0000a	59		 pop	 ecx
  0000b	c3		 ret	 0
??__E?ms_kPool@CGraphicTextInstance@@2V?$CDynamicPool@VCGraphicTextInstance@@@@A@@YAXXZ ENDP ; `dynamic initializer for 'CGraphicTextInstance::ms_kPool''
text$di	ENDS
; Function compile flags: /Ogtp
;	COMDAT ??_G?$CDynamicPool@VCGraphicTextInstance@@@@UAEPAXI@Z
_TEXT	SEGMENT
___flags$ = 8						; size = 4
??_G?$CDynamicPool@VCGraphicTextInstance@@@@UAEPAXI@Z PROC ; CDynamicPool<CGraphicTextInstance>::`scalar deleting destructor', COMDAT
; _this$ = ecx
  00000	55		 push	 ebp
  00001	8b ec		 mov	 ebp, esp
  00003	56		 push	 esi
  00004	8b f1		 mov	 esi, ecx
  00006	e8 00 00 00 00	 call	 ??1?$CDynamicPool@VCGraphicTextInstance@@@@UAE@XZ ; CDynamicPool<CGraphicTextInstance>::~CDynamicPool<CGraphicTextInstance>
  0000b	f6 45 08 01	 test	 BYTE PTR ___flags$[ebp], 1
  0000f	74 0b		 je	 SHORT $LN4@scalar
  00011	6a 24		 push	 36			; 00000024H
  00013	56		 push	 esi
  00014	e8 00 00 00 00	 call	 ??3@YAXPAXI@Z		; operator delete
  00019	83 c4 08	 add	 esp, 8
$LN4@scalar:
  0001c	8b c6		 mov	 eax, esi
  0001e	5e		 pop	 esi
  0001f	5d		 pop	 ebp
  00020	c2 04 00	 ret	 4
??_G?$CDynamicPool@VCGraphicTextInstance@@@@UAEPAXI@Z ENDP ; CDynamicPool<CGraphicTextInstance>::`scalar deleting destructor'
_TEXT	ENDS
; Function compile flags: /Ogtp
; File C:\Program Files (x86)\Microsoft Visual Studio\2019\Professional\VC\Tools\MSVC\14.29.30133\include\vector
;	COMDAT ?_Xlength@?$vector@PAVCGraphicTextInstance@@V?$allocator@PAVCGraphicTextInstance@@@std@@@std@@CAXXZ
_TEXT	SEGMENT
?_Xlength@?$vector@PAVCGraphicTextInstance@@V?$allocator@PAVCGraphicTextInstance@@@std@@@std@@CAXXZ PROC ; std::vector<CGraphicTextInstance *,std::allocator<CGraphicTextInstance *> >::_Xlength, COMDAT

; 1774 :         _Xlength_error("vector too long");

  00000	68 00 00 00 00	 push	 OFFSET ??_C@_0BA@FOIKENOD@vector?5too?5long@
  00005	e8 00 00 00 00	 call	 ?_Xlength_error@std@@YAXPBD@Z ; std::_Xlength_error
$LN3@Xlength:
  0000a	cc		 int	 3
?_Xlength@?$vector@PAVCGraphicTextInstance@@V?$allocator@PAVCGraphicTextInstance@@@std@@@std@@CAXXZ ENDP ; std::vector<CGraphicTextInstance *,std::allocator<CGraphicTextInstance *> >::_Xlength
_TEXT	ENDS
; Function compile flags: /Ogtp
; File C:\Program Files (x86)\Microsoft Visual Studio\2019\Professional\VC\Tools\MSVC\14.29.30133\include\vector
; File C:\Program Files (x86)\Microsoft Visual Studio\2019\Professional\VC\Tools\MSVC\14.29.30133\include\xmemory
; File C:\Program Files (x86)\Microsoft Visual Studio\2019\Professional\VC\Tools\MSVC\14.29.30133\include\vector
; File C:\Program Files (x86)\Microsoft Visual Studio\2019\Professional\VC\Tools\MSVC\14.29.30133\include\xmemory
; File C:\Program Files (x86)\Microsoft Visual Studio\2019\Professional\VC\Tools\MSVC\14.29.30133\include\vector
;	COMDAT ?_Change_array@?$vector@PAVCGraphicTextInstance@@V?$allocator@PAVCGraphicTextInstance@@@std@@@std@@AAEXQAPAVCGraphicTextInstance@@II@Z
_TEXT	SEGMENT
__Newvec$ = 8						; size = 4
__Newsize$ = 12						; size = 4
__Newcapacity$ = 16					; size = 4
?_Change_array@?$vector@PAVCGraphicTextInstance@@V?$allocator@PAVCGraphicTextInstance@@@std@@@std@@AAEXQAPAVCGraphicTextInstance@@II@Z PROC ; std::vector<CGraphicTextInstance *,std::allocator<CGraphicTextInstance *> >::_Change_array, COMDAT
; _this$ = ecx

; 1736 :         const pointer _Newvec, const size_type _Newsize, const size_type _Newcapacity) {

  00000	55		 push	 ebp
  00001	8b ec		 mov	 ebp, esp
  00003	56		 push	 esi
  00004	8b f1		 mov	 esi, ecx

; 1737 :         // orphan all iterators, discard old array, acquire new array
; 1738 :         auto& _My_data    = _Mypair._Myval2;
; 1739 :         pointer& _Myfirst = _My_data._Myfirst;
; 1740 :         pointer& _Mylast  = _My_data._Mylast;
; 1741 :         pointer& _Myend   = _My_data._Myend;
; 1742 : 
; 1743 :         _My_data._Orphan_all();
; 1744 : 
; 1745 :         if (_Myfirst) { // destroy and deallocate old array

  00006	8b 06		 mov	 eax, DWORD PTR [esi]
  00008	85 c0		 test	 eax, eax
  0000a	74 2c		 je	 SHORT $LN8@Change_arr

; 1746 :             _Destroy(_Myfirst, _Mylast);
; 1747 :             _Getal().deallocate(_Myfirst, static_cast<size_type>(_Myend - _Myfirst));

  0000c	8b 4e 08	 mov	 ecx, DWORD PTR [esi+8]
  0000f	2b c8		 sub	 ecx, eax
; File C:\Program Files (x86)\Microsoft Visual Studio\2019\Professional\VC\Tools\MSVC\14.29.30133\include\xmemory

; 835  :         _Deallocate<_New_alignof<_Ty>>(_Ptr, sizeof(_Ty) * _Count);

  00011	83 e1 fc	 and	 ecx, -4			; fffffffcH

; 260  :         if (_Bytes >= _Big_allocation_threshold) { // boost the alignment of big allocations to help autovectorization

  00014	81 f9 00 10 00
	00		 cmp	 ecx, 4096		; 00001000H
  0001a	72 12		 jb	 SHORT $LN18@Change_arr

; 158  :     const uintptr_t _Ptr_container   = _Ptr_user[-1];

  0001c	8b 50 fc	 mov	 edx, DWORD PTR [eax-4]
  0001f	83 c1 23	 add	 ecx, 35			; 00000023H

; 159  : 
; 160  :     // If the following asserts, it likely means that we are performing
; 161  :     // an aligned delete on memory coming from an unaligned allocation.
; 162  :     _STL_ASSERT(_Ptr_user[-2] == _Big_allocation_sentinel, "invalid argument");
; 163  : 
; 164  :     // Extra paranoia on aligned allocation/deallocation; ensure _Ptr_container is
; 165  :     // in range [_Min_back_shift, _Non_user_size]
; 166  : #ifdef _DEBUG
; 167  :     constexpr uintptr_t _Min_back_shift = 2 * sizeof(void*);
; 168  : #else // ^^^ _DEBUG ^^^ // vvv !_DEBUG vvv
; 169  :     constexpr uintptr_t _Min_back_shift = sizeof(void*);
; 170  : #endif // _DEBUG
; 171  :     const uintptr_t _Back_shift = reinterpret_cast<uintptr_t>(_Ptr) - _Ptr_container;

  00022	2b c2		 sub	 eax, edx

; 172  :     _STL_VERIFY(_Back_shift >= _Min_back_shift && _Back_shift <= _Non_user_size, "invalid argument");

  00024	83 c0 fc	 add	 eax, -4			; fffffffcH
  00027	83 f8 1f	 cmp	 eax, 31			; 0000001fH
  0002a	77 28		 ja	 SHORT $LN15@Change_arr

; 173  :     _Ptr = reinterpret_cast<void*>(_Ptr_container);

  0002c	8b c2		 mov	 eax, edx
$LN18@Change_arr:

; 264  :         ::operator delete(_Ptr, _Bytes);

  0002e	51		 push	 ecx
  0002f	50		 push	 eax
  00030	e8 00 00 00 00	 call	 ??3@YAXPAXI@Z		; operator delete
  00035	83 c4 08	 add	 esp, 8
$LN8@Change_arr:
; File C:\Program Files (x86)\Microsoft Visual Studio\2019\Professional\VC\Tools\MSVC\14.29.30133\include\vector

; 1750 :         _Myfirst = _Newvec;

  00038	8b 4d 08	 mov	 ecx, DWORD PTR __Newvec$[ebp]

; 1751 :         _Mylast  = _Newvec + _Newsize;

  0003b	8b 45 0c	 mov	 eax, DWORD PTR __Newsize$[ebp]
  0003e	89 0e		 mov	 DWORD PTR [esi], ecx
  00040	8d 04 81	 lea	 eax, DWORD PTR [ecx+eax*4]
  00043	89 46 04	 mov	 DWORD PTR [esi+4], eax

; 1752 :         _Myend   = _Newvec + _Newcapacity;

  00046	8b 45 10	 mov	 eax, DWORD PTR __Newcapacity$[ebp]
  00049	8d 04 81	 lea	 eax, DWORD PTR [ecx+eax*4]
  0004c	89 46 08	 mov	 DWORD PTR [esi+8], eax
  0004f	5e		 pop	 esi

; 1753 :     }

  00050	5d		 pop	 ebp
  00051	c2 0c 00	 ret	 12			; 0000000cH
$LN15@Change_arr:
; File C:\Program Files (x86)\Microsoft Visual Studio\2019\Professional\VC\Tools\MSVC\14.29.30133\include\xmemory

; 172  :     _STL_VERIFY(_Back_shift >= _Min_back_shift && _Back_shift <= _Non_user_size, "invalid argument");

  00054	e8 00 00 00 00	 call	 __invalid_parameter_noinfo_noreturn
$LN22@Change_arr:
  00059	cc		 int	 3
?_Change_array@?$vector@PAVCGraphicTextInstance@@V?$allocator@PAVCGraphicTextInstance@@@std@@@std@@AAEXQAPAVCGraphicTextInstance@@II@Z ENDP ; std::vector<CGraphicTextInstance *,std::allocator<CGraphicTextInstance *> >::_Change_array
_TEXT	ENDS
; Function compile flags: /Ogtp
; File C:\Program Files (x86)\Microsoft Visual Studio\2019\Professional\VC\Tools\MSVC\14.29.30133\include\vector
; File C:\Program Files (x86)\Microsoft Visual Studio\2019\Professional\VC\Tools\MSVC\14.29.30133\include\xmemory
; File C:\Program Files (x86)\Microsoft Visual Studio\2019\Professional\VC\Tools\MSVC\14.29.30133\include\vector
; File C:\Program Files (x86)\Microsoft Visual Studio\2019\Professional\VC\Tools\MSVC\14.29.30133\include\xmemory
; File C:\Program Files (x86)\Microsoft Visual Studio\2019\Professional\VC\Tools\MSVC\14.29.30133\include\vector
; File C:\Program Files (x86)\Microsoft Visual Studio\2019\Professional\VC\Tools\MSVC\14.29.30133\include\xmemory
; File C:\Program Files (x86)\Microsoft Visual Studio\2019\Professional\VC\Tools\MSVC\14.29.30133\include\vector
; File C:\Program Files (x86)\Microsoft Visual Studio\2019\Professional\VC\Tools\MSVC\14.29.30133\include\xmemory
; File C:\Program Files (x86)\Microsoft Visual Studio\2019\Professional\VC\Tools\MSVC\14.29.30133\include\vector
; File C:\Program Files (x86)\Microsoft Visual Studio\2019\Professional\VC\Tools\MSVC\14.29.30133\include\xmemory
; File C:\Program Files (x86)\Microsoft Visual Studio\2019\Professional\VC\Tools\MSVC\14.29.30133\include\vector
;	COMDAT ?_Reallocate_exactly@?$vector@PAVCGraphicTextInstance@@V?$allocator@PAVCGraphicTextInstance@@@std@@@std@@AAEXI@Z
_TEXT	SEGMENT
__Size$1$ = -4						; size = 4
__Newcapacity$ = 8					; size = 4
?_Reallocate_exactly@?$vector@PAVCGraphicTextInstance@@V?$allocator@PAVCGraphicTextInstance@@@std@@@std@@AAEXI@Z PROC ; std::vector<CGraphicTextInstance *,std::allocator<CGraphicTextInstance *> >::_Reallocate_exactly, COMDAT
; _this$ = ecx

; 1299 :     _CONSTEXPR20_CONTAINER void _Reallocate_exactly(const size_type _Newcapacity) {

  00000	55		 push	 ebp
  00001	8b ec		 mov	 ebp, esp
  00003	51		 push	 ecx
  00004	53		 push	 ebx
; File C:\Program Files (x86)\Microsoft Visual Studio\2019\Professional\VC\Tools\MSVC\14.29.30133\include\xmemory

; 64   :         if (_Count > _Max_possible) {

  00005	8b 5d 08	 mov	 ebx, DWORD PTR __Newcapacity$[ebp]
; File C:\Program Files (x86)\Microsoft Visual Studio\2019\Professional\VC\Tools\MSVC\14.29.30133\include\vector

; 1299 :     _CONSTEXPR20_CONTAINER void _Reallocate_exactly(const size_type _Newcapacity) {

  00008	56		 push	 esi
  00009	8b f1		 mov	 esi, ecx
  0000b	57		 push	 edi

; 1300 :         // set capacity to _Newcapacity (without geometric growth), provide strong guarantee
; 1301 :         auto& _My_data    = _Mypair._Myval2;
; 1302 :         pointer& _Myfirst = _My_data._Myfirst;
; 1303 :         pointer& _Mylast  = _My_data._Mylast;
; 1304 : 
; 1305 :         const auto _Size = static_cast<size_type>(_Mylast - _Myfirst);

  0000c	8b 46 04	 mov	 eax, DWORD PTR [esi+4]
  0000f	2b 06		 sub	 eax, DWORD PTR [esi]
  00011	c1 f8 02	 sar	 eax, 2
  00014	89 45 fc	 mov	 DWORD PTR __Size$1$[ebp], eax
; File C:\Program Files (x86)\Microsoft Visual Studio\2019\Professional\VC\Tools\MSVC\14.29.30133\include\xmemory

; 64   :         if (_Count > _Max_possible) {

  00017	81 fb ff ff ff
	3f		 cmp	 ebx, 1073741823		; 3fffffffH
  0001d	0f 87 8a 00 00
	00		 ja	 $LN59@Reallocate

; 66   :         }
; 67   :     }
; 68   : 
; 69   :     return _Count * _Ty_size;

  00023	c1 e3 02	 shl	 ebx, 2

; 237  :         if (_Bytes >= _Big_allocation_threshold) { // boost the alignment of big allocations to help autovectorization

  00026	81 fb 00 10 00
	00		 cmp	 ebx, 4096		; 00001000H
  0002c	72 0d		 jb	 SHORT $LN15@Reallocate

; 238  :             return _Allocate_manually_vector_aligned<_Traits>(_Bytes);

  0002e	53		 push	 ebx
  0002f	e8 00 00 00 00	 call	 ??$_Allocate_manually_vector_aligned@U_Default_allocate_traits@std@@@std@@YAPAXI@Z ; std::_Allocate_manually_vector_aligned<std::_Default_allocate_traits>
  00034	83 c4 04	 add	 esp, 4
  00037	8b f8		 mov	 edi, eax
  00039	eb 13		 jmp	 SHORT $LN14@Reallocate
$LN15@Reallocate:

; 239  :         }
; 240  :     }
; 241  : #endif // defined(_M_IX86) || defined(_M_X64)
; 242  : 
; 243  :     if (_Bytes != 0) {

  0003b	85 db		 test	 ebx, ebx
  0003d	74 0d		 je	 SHORT $LN16@Reallocate

; 85   :         return ::operator new(_Bytes);

  0003f	53		 push	 ebx
  00040	e8 00 00 00 00	 call	 ??2@YAPAXI@Z		; operator new
  00045	83 c4 04	 add	 esp, 4

; 244  :         return _Traits::_Allocate(_Bytes);

  00048	8b f8		 mov	 edi, eax
  0004a	eb 02		 jmp	 SHORT $LN14@Reallocate
$LN16@Reallocate:

; 245  :     }
; 246  : 
; 247  :     return nullptr;

  0004c	33 ff		 xor	 edi, edi
$LN14@Reallocate:

; 1725 :             _Copy_memmove(_UFirst, _ULast, _Unfancy(_Dest));

  0004e	57		 push	 edi
  0004f	ff 76 04	 push	 DWORD PTR [esi+4]
  00052	ff 36		 push	 DWORD PTR [esi]
  00054	e8 00 00 00 00	 call	 ??$_Copy_memmove@PAPAVCGraphicTextInstance@@PAPAV1@@std@@YAPAPAVCGraphicTextInstance@@PAPAV1@00@Z ; std::_Copy_memmove<CGraphicTextInstance * *,CGraphicTextInstance * *>
; File C:\Program Files (x86)\Microsoft Visual Studio\2019\Professional\VC\Tools\MSVC\14.29.30133\include\vector

; 1745 :         if (_Myfirst) { // destroy and deallocate old array

  00059	8b 06		 mov	 eax, DWORD PTR [esi]
; File C:\Program Files (x86)\Microsoft Visual Studio\2019\Professional\VC\Tools\MSVC\14.29.30133\include\xmemory

; 1725 :             _Copy_memmove(_UFirst, _ULast, _Unfancy(_Dest));

  0005b	83 c4 0c	 add	 esp, 12			; 0000000cH
; File C:\Program Files (x86)\Microsoft Visual Studio\2019\Professional\VC\Tools\MSVC\14.29.30133\include\vector

; 1745 :         if (_Myfirst) { // destroy and deallocate old array

  0005e	85 c0		 test	 eax, eax
  00060	74 2c		 je	 SHORT $LN43@Reallocate

; 1746 :             _Destroy(_Myfirst, _Mylast);
; 1747 :             _Getal().deallocate(_Myfirst, static_cast<size_type>(_Myend - _Myfirst));

  00062	8b 4e 08	 mov	 ecx, DWORD PTR [esi+8]
  00065	2b c8		 sub	 ecx, eax
; File C:\Program Files (x86)\Microsoft Visual Studio\2019\Professional\VC\Tools\MSVC\14.29.30133\include\xmemory

; 835  :         _Deallocate<_New_alignof<_Ty>>(_Ptr, sizeof(_Ty) * _Count);

  00067	83 e1 fc	 and	 ecx, -4			; fffffffcH

; 260  :         if (_Bytes >= _Big_allocation_threshold) { // boost the alignment of big allocations to help autovectorization

  0006a	81 f9 00 10 00
	00		 cmp	 ecx, 4096		; 00001000H
  00070	72 12		 jb	 SHORT $LN53@Reallocate

; 158  :     const uintptr_t _Ptr_container   = _Ptr_user[-1];

  00072	8b 50 fc	 mov	 edx, DWORD PTR [eax-4]
  00075	83 c1 23	 add	 ecx, 35			; 00000023H

; 159  : 
; 160  :     // If the following asserts, it likely means that we are performing
; 161  :     // an aligned delete on memory coming from an unaligned allocation.
; 162  :     _STL_ASSERT(_Ptr_user[-2] == _Big_allocation_sentinel, "invalid argument");
; 163  : 
; 164  :     // Extra paranoia on aligned allocation/deallocation; ensure _Ptr_container is
; 165  :     // in range [_Min_back_shift, _Non_user_size]
; 166  : #ifdef _DEBUG
; 167  :     constexpr uintptr_t _Min_back_shift = 2 * sizeof(void*);
; 168  : #else // ^^^ _DEBUG ^^^ // vvv !_DEBUG vvv
; 169  :     constexpr uintptr_t _Min_back_shift = sizeof(void*);
; 170  : #endif // _DEBUG
; 171  :     const uintptr_t _Back_shift = reinterpret_cast<uintptr_t>(_Ptr) - _Ptr_container;

  00078	2b c2		 sub	 eax, edx

; 172  :     _STL_VERIFY(_Back_shift >= _Min_back_shift && _Back_shift <= _Non_user_size, "invalid argument");

  0007a	83 c0 fc	 add	 eax, -4			; fffffffcH
  0007d	83 f8 1f	 cmp	 eax, 31			; 0000001fH
  00080	77 26		 ja	 SHORT $LN50@Reallocate

; 173  :     _Ptr = reinterpret_cast<void*>(_Ptr_container);

  00082	8b c2		 mov	 eax, edx
$LN53@Reallocate:

; 264  :         ::operator delete(_Ptr, _Bytes);

  00084	51		 push	 ecx
  00085	50		 push	 eax
  00086	e8 00 00 00 00	 call	 ??3@YAXPAXI@Z		; operator delete
  0008b	83 c4 08	 add	 esp, 8
$LN43@Reallocate:
; File C:\Program Files (x86)\Microsoft Visual Studio\2019\Professional\VC\Tools\MSVC\14.29.30133\include\vector

; 1751 :         _Mylast  = _Newvec + _Newsize;

  0008e	8b 45 fc	 mov	 eax, DWORD PTR __Size$1$[ebp]
  00091	89 3e		 mov	 DWORD PTR [esi], edi
  00093	8d 04 87	 lea	 eax, DWORD PTR [edi+eax*4]
  00096	89 46 04	 mov	 DWORD PTR [esi+4], eax

; 1752 :         _Myend   = _Newvec + _Newcapacity;

  00099	8d 04 3b	 lea	 eax, DWORD PTR [ebx+edi]
  0009c	5f		 pop	 edi
  0009d	89 46 08	 mov	 DWORD PTR [esi+8], eax
  000a0	5e		 pop	 esi
  000a1	5b		 pop	 ebx

; 1317 :     }

  000a2	8b e5		 mov	 esp, ebp
  000a4	5d		 pop	 ebp
  000a5	c2 04 00	 ret	 4
$LN50@Reallocate:
; File C:\Program Files (x86)\Microsoft Visual Studio\2019\Professional\VC\Tools\MSVC\14.29.30133\include\xmemory

; 172  :     _STL_VERIFY(_Back_shift >= _Min_back_shift && _Back_shift <= _Non_user_size, "invalid argument");

  000a8	e8 00 00 00 00	 call	 __invalid_parameter_noinfo_noreturn
$LN59@Reallocate:

; 65   :             _Throw_bad_array_new_length(); // multiply overflow

  000ad	e8 00 00 00 00	 call	 ?_Throw_bad_array_new_length@std@@YAXXZ ; std::_Throw_bad_array_new_length
$LN57@Reallocate:
  000b2	cc		 int	 3
?_Reallocate_exactly@?$vector@PAVCGraphicTextInstance@@V?$allocator@PAVCGraphicTextInstance@@@std@@@std@@AAEXI@Z ENDP ; std::vector<CGraphicTextInstance *,std::allocator<CGraphicTextInstance *> >::_Reallocate_exactly
_TEXT	ENDS
; Function compile flags: /Ogtp
; File C:\Users\murat\Desktop\Siveps2-1-99-Project\source\client\Client\EterLib\Pool.h
;	COMDAT ?Delete@?$CDynamicPool@VCGraphicTextInstance@@@@KAXPAVCGraphicTextInstance@@@Z
_TEXT	SEGMENT
_pkData$ = 8						; size = 4
?Delete@?$CDynamicPool@VCGraphicTextInstance@@@@KAXPAVCGraphicTextInstance@@@Z PROC ; CDynamicPool<CGraphicTextInstance>::Delete, COMDAT

; 109  : 		{

  00000	55		 push	 ebp
  00001	8b ec		 mov	 ebp, esp

; 110  : 			delete pkData;

  00003	8b 4d 08	 mov	 ecx, DWORD PTR _pkData$[ebp]
  00006	85 c9		 test	 ecx, ecx
  00008	74 06		 je	 SHORT $LN3@Delete
  0000a	8b 01		 mov	 eax, DWORD PTR [ecx]
  0000c	6a 01		 push	 1
  0000e	ff 10		 call	 DWORD PTR [eax]
$LN3@Delete:

; 111  : 		}

  00010	5d		 pop	 ebp
  00011	c3		 ret	 0
?Delete@?$CDynamicPool@VCGraphicTextInstance@@@@KAXPAVCGraphicTextInstance@@@Z ENDP ; CDynamicPool<CGraphicTextInstance>::Delete
_TEXT	ENDS
; Function compile flags: /Ogtp
; File C:\Users\murat\Desktop\Siveps2-1-99-Project\source\client\Client\EterLib\Pool.h
; File C:\Program Files (x86)\Microsoft Visual Studio\2019\Professional\VC\Tools\MSVC\14.29.30133\include\vector
; File C:\Program Files (x86)\Microsoft Visual Studio\2019\Professional\VC\Tools\MSVC\14.29.30133\include\xmemory
; File C:\Program Files (x86)\Microsoft Visual Studio\2019\Professional\VC\Tools\MSVC\14.29.30133\include\vector
; File C:\Program Files (x86)\Microsoft Visual Studio\2019\Professional\VC\Tools\MSVC\14.29.30133\include\xmemory
; File C:\Program Files (x86)\Microsoft Visual Studio\2019\Professional\VC\Tools\MSVC\14.29.30133\include\vector
; File C:\Program Files (x86)\Microsoft Visual Studio\2019\Professional\VC\Tools\MSVC\14.29.30133\include\xmemory
; File C:\Program Files (x86)\Microsoft Visual Studio\2019\Professional\VC\Tools\MSVC\14.29.30133\include\vector
; File C:\Program Files (x86)\Microsoft Visual Studio\2019\Professional\VC\Tools\MSVC\14.29.30133\include\xmemory
; File C:\Program Files (x86)\Microsoft Visual Studio\2019\Professional\VC\Tools\MSVC\14.29.30133\include\vector
; File C:\Users\murat\Desktop\Siveps2-1-99-Project\source\client\Client\EterLib\Pool.h
; File C:\Program Files (x86)\Microsoft Visual Studio\2019\Professional\VC\Tools\MSVC\14.29.30133\include\xmemory
; File C:\Users\murat\Desktop\Siveps2-1-99-Project\source\client\Client\EterLib\Pool.h
;	COMDAT ??1?$CDynamicPool@VCGraphicTextInstance@@@@UAE@XZ
_TEXT	SEGMENT
??1?$CDynamicPool@VCGraphicTextInstance@@@@UAE@XZ PROC	; CDynamicPool<CGraphicTextInstance>::~CDynamicPool<CGraphicTextInstance>, COMDAT
; _this$ = ecx

; 18   : 		{

  00000	56		 push	 esi
  00001	8b f1		 mov	 esi, ecx
  00003	c7 06 00 00 00
	00		 mov	 DWORD PTR [esi], OFFSET ??_7?$CDynamicPool@VCGraphicTextInstance@@@@6B@
; File C:\Program Files (x86)\Microsoft Visual Studio\2019\Professional\VC\Tools\MSVC\14.29.30133\include\vector

; 1763 :         if (_Myfirst) { // destroy and deallocate old array

  00009	8b 46 10	 mov	 eax, DWORD PTR [esi+16]
  0000c	85 c0		 test	 eax, eax
  0000e	74 41		 je	 SHORT $LN6@CDynamicPo

; 1764 :             _Destroy(_Myfirst, _Mylast);
; 1765 :             _Getal().deallocate(_Myfirst, static_cast<size_type>(_Myend - _Myfirst));

  00010	8b 4e 18	 mov	 ecx, DWORD PTR [esi+24]
  00013	2b c8		 sub	 ecx, eax
; File C:\Program Files (x86)\Microsoft Visual Studio\2019\Professional\VC\Tools\MSVC\14.29.30133\include\xmemory

; 835  :         _Deallocate<_New_alignof<_Ty>>(_Ptr, sizeof(_Ty) * _Count);

  00015	83 e1 fc	 and	 ecx, -4			; fffffffcH

; 260  :         if (_Bytes >= _Big_allocation_threshold) { // boost the alignment of big allocations to help autovectorization

  00018	81 f9 00 10 00
	00		 cmp	 ecx, 4096		; 00001000H
  0001e	72 12		 jb	 SHORT $LN22@CDynamicPo

; 158  :     const uintptr_t _Ptr_container   = _Ptr_user[-1];

  00020	8b 50 fc	 mov	 edx, DWORD PTR [eax-4]
  00023	83 c1 23	 add	 ecx, 35			; 00000023H

; 159  : 
; 160  :     // If the following asserts, it likely means that we are performing
; 161  :     // an aligned delete on memory coming from an unaligned allocation.
; 162  :     _STL_ASSERT(_Ptr_user[-2] == _Big_allocation_sentinel, "invalid argument");
; 163  : 
; 164  :     // Extra paranoia on aligned allocation/deallocation; ensure _Ptr_container is
; 165  :     // in range [_Min_back_shift, _Non_user_size]
; 166  : #ifdef _DEBUG
; 167  :     constexpr uintptr_t _Min_back_shift = 2 * sizeof(void*);
; 168  : #else // ^^^ _DEBUG ^^^ // vvv !_DEBUG vvv
; 169  :     constexpr uintptr_t _Min_back_shift = sizeof(void*);
; 170  : #endif // _DEBUG
; 171  :     const uintptr_t _Back_shift = reinterpret_cast<uintptr_t>(_Ptr) - _Ptr_container;

  00026	2b c2		 sub	 eax, edx

; 172  :     _STL_VERIFY(_Back_shift >= _Min_back_shift && _Back_shift <= _Non_user_size, "invalid argument");

  00028	83 c0 fc	 add	 eax, -4			; fffffffcH
  0002b	83 f8 1f	 cmp	 eax, 31			; 0000001fH
  0002e	77 6b		 ja	 SHORT $LN44@CDynamicPo

; 173  :     _Ptr = reinterpret_cast<void*>(_Ptr_container);

  00030	8b c2		 mov	 eax, edx
$LN22@CDynamicPo:

; 264  :         ::operator delete(_Ptr, _Bytes);

  00032	51		 push	 ecx
  00033	50		 push	 eax
  00034	e8 00 00 00 00	 call	 ??3@YAXPAXI@Z		; operator delete
; File C:\Program Files (x86)\Microsoft Visual Studio\2019\Professional\VC\Tools\MSVC\14.29.30133\include\vector

; 1767 :             _Myfirst = nullptr;

  00039	c7 46 10 00 00
	00 00		 mov	 DWORD PTR [esi+16], 0
; File C:\Program Files (x86)\Microsoft Visual Studio\2019\Professional\VC\Tools\MSVC\14.29.30133\include\xmemory

; 264  :         ::operator delete(_Ptr, _Bytes);

  00040	83 c4 08	 add	 esp, 8
; File C:\Program Files (x86)\Microsoft Visual Studio\2019\Professional\VC\Tools\MSVC\14.29.30133\include\vector

; 1768 :             _Mylast  = nullptr;

  00043	c7 46 14 00 00
	00 00		 mov	 DWORD PTR [esi+20], 0

; 1769 :             _Myend   = nullptr;

  0004a	c7 46 18 00 00
	00 00		 mov	 DWORD PTR [esi+24], 0
$LN6@CDynamicPo:

; 1763 :         if (_Myfirst) { // destroy and deallocate old array

  00051	8b 46 04	 mov	 eax, DWORD PTR [esi+4]
  00054	85 c0		 test	 eax, eax
  00056	74 41		 je	 SHORT $LN31@CDynamicPo

; 1764 :             _Destroy(_Myfirst, _Mylast);
; 1765 :             _Getal().deallocate(_Myfirst, static_cast<size_type>(_Myend - _Myfirst));

  00058	8b 4e 0c	 mov	 ecx, DWORD PTR [esi+12]
  0005b	2b c8		 sub	 ecx, eax
; File C:\Program Files (x86)\Microsoft Visual Studio\2019\Professional\VC\Tools\MSVC\14.29.30133\include\xmemory

; 835  :         _Deallocate<_New_alignof<_Ty>>(_Ptr, sizeof(_Ty) * _Count);

  0005d	83 e1 fc	 and	 ecx, -4			; fffffffcH

; 260  :         if (_Bytes >= _Big_allocation_threshold) { // boost the alignment of big allocations to help autovectorization

  00060	81 f9 00 10 00
	00		 cmp	 ecx, 4096		; 00001000H
  00066	72 12		 jb	 SHORT $LN47@CDynamicPo

; 158  :     const uintptr_t _Ptr_container   = _Ptr_user[-1];

  00068	8b 50 fc	 mov	 edx, DWORD PTR [eax-4]
  0006b	83 c1 23	 add	 ecx, 35			; 00000023H

; 159  : 
; 160  :     // If the following asserts, it likely means that we are performing
; 161  :     // an aligned delete on memory coming from an unaligned allocation.
; 162  :     _STL_ASSERT(_Ptr_user[-2] == _Big_allocation_sentinel, "invalid argument");
; 163  : 
; 164  :     // Extra paranoia on aligned allocation/deallocation; ensure _Ptr_container is
; 165  :     // in range [_Min_back_shift, _Non_user_size]
; 166  : #ifdef _DEBUG
; 167  :     constexpr uintptr_t _Min_back_shift = 2 * sizeof(void*);
; 168  : #else // ^^^ _DEBUG ^^^ // vvv !_DEBUG vvv
; 169  :     constexpr uintptr_t _Min_back_shift = sizeof(void*);
; 170  : #endif // _DEBUG
; 171  :     const uintptr_t _Back_shift = reinterpret_cast<uintptr_t>(_Ptr) - _Ptr_container;

  0006e	2b c2		 sub	 eax, edx

; 172  :     _STL_VERIFY(_Back_shift >= _Min_back_shift && _Back_shift <= _Non_user_size, "invalid argument");

  00070	83 c0 fc	 add	 eax, -4			; fffffffcH
  00073	83 f8 1f	 cmp	 eax, 31			; 0000001fH
  00076	77 23		 ja	 SHORT $LN44@CDynamicPo

; 173  :     _Ptr = reinterpret_cast<void*>(_Ptr_container);

  00078	8b c2		 mov	 eax, edx
$LN47@CDynamicPo:

; 264  :         ::operator delete(_Ptr, _Bytes);

  0007a	51		 push	 ecx
  0007b	50		 push	 eax
  0007c	e8 00 00 00 00	 call	 ??3@YAXPAXI@Z		; operator delete
; File C:\Program Files (x86)\Microsoft Visual Studio\2019\Professional\VC\Tools\MSVC\14.29.30133\include\vector

; 1767 :             _Myfirst = nullptr;

  00081	c7 46 04 00 00
	00 00		 mov	 DWORD PTR [esi+4], 0
; File C:\Program Files (x86)\Microsoft Visual Studio\2019\Professional\VC\Tools\MSVC\14.29.30133\include\xmemory

; 264  :         ::operator delete(_Ptr, _Bytes);

  00088	83 c4 08	 add	 esp, 8
; File C:\Program Files (x86)\Microsoft Visual Studio\2019\Professional\VC\Tools\MSVC\14.29.30133\include\vector

; 1768 :             _Mylast  = nullptr;

  0008b	c7 46 08 00 00
	00 00		 mov	 DWORD PTR [esi+8], 0

; 1769 :             _Myend   = nullptr;

  00092	c7 46 0c 00 00
	00 00		 mov	 DWORD PTR [esi+12], 0
$LN31@CDynamicPo:
  00099	5e		 pop	 esi
; File C:\Users\murat\Desktop\Siveps2-1-99-Project\source\client\Client\EterLib\Pool.h

; 26   : 		}

  0009a	c3		 ret	 0
$LN44@CDynamicPo:
; File C:\Program Files (x86)\Microsoft Visual Studio\2019\Professional\VC\Tools\MSVC\14.29.30133\include\xmemory

; 172  :     _STL_VERIFY(_Back_shift >= _Min_back_shift && _Back_shift <= _Non_user_size, "invalid argument");

  0009b	e8 00 00 00 00	 call	 __invalid_parameter_noinfo_noreturn
$LN52@CDynamicPo:
  000a0	cc		 int	 3
??1?$CDynamicPool@VCGraphicTextInstance@@@@UAE@XZ ENDP	; CDynamicPool<CGraphicTextInstance>::~CDynamicPool<CGraphicTextInstance>
_TEXT	ENDS
; Function compile flags: /Ogtp
; File C:\Users\murat\Desktop\Siveps2-1-99-Project\source\client\Client\EterLib\GrpTextInstance.cpp
;	COMDAT ?ReadToken@@YAHPBD@Z
_TEXT	SEGMENT
_token$ = 8						; size = 4
?ReadToken@@YAHPBD@Z PROC				; ReadToken, COMDAT

; 118  : {

  00000	55		 push	 ebp
  00001	8b ec		 mov	 ebp, esp

; 119  : 	int nRet = (token[1]-'0')*1000 + (token[2]-'0')*100 + (token[3]-'0')*10 + (token[4]-'0');

  00003	8b 55 08	 mov	 edx, DWORD PTR _token$[ebp]
  00006	0f be 42 01	 movsx	 eax, BYTE PTR [edx+1]
  0000a	8d 0c 80	 lea	 ecx, DWORD PTR [eax+eax*4]
  0000d	0f be 42 02	 movsx	 eax, BYTE PTR [edx+2]
  00011	8d 04 48	 lea	 eax, DWORD PTR [eax+ecx*2]
  00014	8d 0c 80	 lea	 ecx, DWORD PTR [eax+eax*4]
  00017	0f be 42 03	 movsx	 eax, BYTE PTR [edx+3]
  0001b	8d 04 48	 lea	 eax, DWORD PTR [eax+ecx*2]
  0001e	8d 0c 80	 lea	 ecx, DWORD PTR [eax+eax*4]
  00021	0f be 42 04	 movsx	 eax, BYTE PTR [edx+4]
  00025	8d 04 48	 lea	 eax, DWORD PTR [eax+ecx*2]

; 120  : 	if (nRet == 9999)

  00028	b9 e9 fd 00 00	 mov	 ecx, 65001		; 0000fde9H
  0002d	05 b0 2f ff ff	 add	 eax, -53328		; ffff2fb0H
  00032	3d 0f 27 00 00	 cmp	 eax, 9999		; 0000270fH
  00037	0f 44 c1	 cmove	 eax, ecx

; 121  : 		return CP_UTF8;
; 122  : 	return nRet;
; 123  : }

  0003a	5d		 pop	 ebp
  0003b	c3		 ret	 0
?ReadToken@@YAHPBD@Z ENDP				; ReadToken
_TEXT	ENDS
; Function compile flags: /Ogtp
; File C:\Users\murat\Desktop\Siveps2-1-99-Project\source\client\Client\EterLib\GrpTextInstance.cpp
; File C:\Program Files (x86)\Microsoft Visual Studio\2019\Professional\VC\Tools\MSVC\14.29.30133\include\xutility
; File C:\Users\murat\Desktop\Siveps2-1-99-Project\source\client\Client\EterLib\GrpTextInstance.cpp
;	COMDAT ?FindToken@@YAPBDPBD0@Z
_TEXT	SEGMENT
_begin$ = 8						; size = 4
_end$ = 12						; size = 4
?FindToken@@YAPBDPBD0@Z PROC				; FindToken, COMDAT

; 99   : {

  00000	55		 push	 ebp
  00001	8b ec		 mov	 ebp, esp
  00003	56		 push	 esi

; 100  : 	while(begin < end)

  00004	8b 75 08	 mov	 esi, DWORD PTR _begin$[ebp]
  00007	57		 push	 edi
  00008	8b 7d 0c	 mov	 edi, DWORD PTR _end$[ebp]
  0000b	3b f7		 cmp	 esi, edi
  0000d	73 33		 jae	 SHORT $LN18@FindToken
  0000f	90		 npad	 1
$LL2@FindToken:
; File C:\Program Files (x86)\Microsoft Visual Studio\2019\Professional\VC\Tools\MSVC\14.29.30133\include\xutility

; 5329 :     const auto _Result    = static_cast<remove_reference_t<_Iter_ref_t<_InIt>>*>(

  00010	8b c7		 mov	 eax, edi
  00012	2b c6		 sub	 eax, esi
  00014	50		 push	 eax
  00015	6a 40		 push	 64			; 00000040H
  00017	56		 push	 esi
  00018	e8 00 00 00 00	 call	 _memchr
  0001d	83 c4 0c	 add	 esp, 12			; 0000000cH

; 5330 :         _CSTD memchr(_First_ptr, static_cast<unsigned char>(_Val), static_cast<size_t>(_Last - _First)));
; 5331 :     if constexpr (is_pointer_v<_InIt>) {
; 5332 :         return _Result ? _Result : _Last;

  00020	8b f7		 mov	 esi, edi
  00022	85 c0		 test	 eax, eax
  00024	0f 45 f0	 cmovne	 esi, eax
; File C:\Users\murat\Desktop\Siveps2-1-99-Project\source\client\Client\EterLib\GrpTextInstance.cpp

; 104  : 		if(end-begin>5 && IsValidToken(begin))

  00027	8b c7		 mov	 eax, edi
  00029	2b c6		 sub	 eax, esi
  0002b	83 f8 05	 cmp	 eax, 5
  0002e	7e 0d		 jle	 SHORT $LN4@FindToken
  00030	56		 push	 esi
  00031	e8 00 00 00 00	 call	 ?IsValidToken@@YA_NPBD@Z ; IsValidToken
  00036	83 c4 04	 add	 esp, 4
  00039	84 c0		 test	 al, al
  0003b	75 0b		 jne	 SHORT $LN15@FindToken
$LN4@FindToken:

; 107  : 		}
; 108  : 		else
; 109  : 		{
; 110  : 			++begin;

  0003d	46		 inc	 esi
  0003e	3b f7		 cmp	 esi, edi
  00040	72 ce		 jb	 SHORT $LL2@FindToken
$LN18@FindToken:

; 111  : 		}
; 112  : 	}
; 113  : 
; 114  : 	return end;

  00042	8b c7		 mov	 eax, edi
  00044	5f		 pop	 edi

; 115  : }

  00045	5e		 pop	 esi
  00046	5d		 pop	 ebp
  00047	c3		 ret	 0
$LN15@FindToken:
  00048	5f		 pop	 edi

; 105  : 		{
; 106  : 			return begin;

  00049	8b c6		 mov	 eax, esi

; 115  : }

  0004b	5e		 pop	 esi
  0004c	5d		 pop	 ebp
  0004d	c3		 ret	 0
?FindToken@@YAPBDPBD0@Z ENDP				; FindToken
_TEXT	ENDS
; Function compile flags: /Ogtp
;	COMDAT ??_GCGraphicTextInstance@@UAEPAXI@Z
_TEXT	SEGMENT
___flags$ = 8						; size = 4
??_GCGraphicTextInstance@@UAEPAXI@Z PROC		; CGraphicTextInstance::`scalar deleting destructor', COMDAT
; _this$ = ecx
  00000	55		 push	 ebp
  00001	8b ec		 mov	 ebp, esp
  00003	56		 push	 esi
  00004	8b f1		 mov	 esi, ecx
  00006	e8 00 00 00 00	 call	 ??1CGraphicTextInstance@@UAE@XZ ; CGraphicTextInstance::~CGraphicTextInstance
  0000b	f6 45 08 01	 test	 BYTE PTR ___flags$[ebp], 1
  0000f	74 0b		 je	 SHORT $LN4@scalar
  00011	6a 7c		 push	 124			; 0000007cH
  00013	56		 push	 esi
  00014	e8 00 00 00 00	 call	 ??3@YAXPAXI@Z		; operator delete
  00019	83 c4 08	 add	 esp, 8
$LN4@scalar:
  0001c	8b c6		 mov	 eax, esi
  0001e	5e		 pop	 esi
  0001f	5d		 pop	 ebp
  00020	c2 04 00	 ret	 4
??_GCGraphicTextInstance@@UAEPAXI@Z ENDP		; CGraphicTextInstance::`scalar deleting destructor'
_TEXT	ENDS
; Function compile flags: /Ogtp
; File C:\Users\murat\Desktop\Siveps2-1-99-Project\source\client\Client\EterLib\GrpTextInstance.cpp
; File C:\Program Files (x86)\Microsoft Visual Studio\2019\Professional\VC\Tools\MSVC\14.29.30133\include\vector
; File C:\Users\murat\Desktop\Siveps2-1-99-Project\source\client\Client\EterLib\GrpTextInstance.cpp
; File C:\Program Files (x86)\Microsoft Visual Studio\2019\Professional\VC\Tools\MSVC\14.29.30133\include\vector
; File C:\Users\murat\Desktop\Siveps2-1-99-Project\source\client\Client\EterLib\GrpTextInstance.cpp
; File C:\Program Files (x86)\Microsoft Visual Studio\2019\Professional\VC\Tools\MSVC\14.29.30133\include\vector
; File C:\Users\murat\Desktop\Siveps2-1-99-Project\source\client\Client\EterLib\GrpTextInstance.cpp
;	COMDAT ?Delete@CGraphicTextInstance@@SAXPAV1@@Z
_TEXT	SEGMENT
_pkData$ = 8						; size = 4
_pkInst$ = 8						; size = 4
?Delete@CGraphicTextInstance@@SAXPAV1@@Z PROC		; CGraphicTextInstance::Delete, COMDAT

; 992  : {

  00000	55		 push	 ebp
  00001	8b ec		 mov	 ebp, esp
  00003	56		 push	 esi

; 993  : 	pkInst->Destroy();

  00004	8b 75 08	 mov	 esi, DWORD PTR _pkInst$[ebp]
  00007	8b ce		 mov	 ecx, esi
  00009	e8 00 00 00 00	 call	 ?Destroy@CGraphicTextInstance@@QAEXXZ ; CGraphicTextInstance::Destroy
; File C:\Program Files (x86)\Microsoft Visual Studio\2019\Professional\VC\Tools\MSVC\14.29.30133\include\vector

; 743  :         if (_Mylast != _My_data._Myend) {

  0000e	a1 14 00 00 00	 mov	 eax, DWORD PTR ?ms_kPool@CGraphicTextInstance@@2V?$CDynamicPool@VCGraphicTextInstance@@@@A+20
; File C:\Users\murat\Desktop\Siveps2-1-99-Project\source\client\Client\EterLib\GrpTextInstance.cpp

; 994  : 	ms_kPool.Free(pkInst);

  00013	89 75 08	 mov	 DWORD PTR _pkData$[ebp], esi
; File C:\Program Files (x86)\Microsoft Visual Studio\2019\Professional\VC\Tools\MSVC\14.29.30133\include\vector

; 743  :         if (_Mylast != _My_data._Myend) {

  00016	3b 05 18 00 00
	00		 cmp	 eax, DWORD PTR ?ms_kPool@CGraphicTextInstance@@2V?$CDynamicPool@VCGraphicTextInstance@@@@A+24
  0001c	74 0c		 je	 SHORT $LN8@Delete

; 726  :         _Alty_traits::construct(_Getal(), _Unfancy(_Mylast), _STD forward<_Valty>(_Val)...);

  0001e	89 30		 mov	 DWORD PTR [eax], esi

; 727  :         _Orphan_range(_Mylast, _Mylast);
; 728  :         _Ty& _Result = *_Mylast;
; 729  :         ++_Mylast;

  00020	83 05 14 00 00
	00 04		 add	 DWORD PTR ?ms_kPool@CGraphicTextInstance@@2V?$CDynamicPool@VCGraphicTextInstance@@@@A+20, 4
  00027	5e		 pop	 esi
; File C:\Users\murat\Desktop\Siveps2-1-99-Project\source\client\Client\EterLib\GrpTextInstance.cpp

; 995  : }

  00028	5d		 pop	 ebp
  00029	c3		 ret	 0
$LN8@Delete:
; File C:\Program Files (x86)\Microsoft Visual Studio\2019\Professional\VC\Tools\MSVC\14.29.30133\include\vector

; 747  :         _Ty& _Result = *_Emplace_reallocate(_Mylast, _STD forward<_Valty>(_Val)...);

  0002a	8d 4d 08	 lea	 ecx, DWORD PTR _pkData$[ebp]
  0002d	51		 push	 ecx
  0002e	50		 push	 eax
  0002f	b9 10 00 00 00	 mov	 ecx, OFFSET ?ms_kPool@CGraphicTextInstance@@2V?$CDynamicPool@VCGraphicTextInstance@@@@A+16
  00034	e8 00 00 00 00	 call	 ??$_Emplace_reallocate@ABQAVCGraphicTextInstance@@@?$vector@PAVCGraphicTextInstance@@V?$allocator@PAVCGraphicTextInstance@@@std@@@std@@QAEPAPAVCGraphicTextInstance@@QAPAV2@ABQAV2@@Z ; std::vector<CGraphicTextInstance *,std::allocator<CGraphicTextInstance *> >::_Emplace_reallocate<CGraphicTextInstance * const &>
  00039	5e		 pop	 esi
; File C:\Users\murat\Desktop\Siveps2-1-99-Project\source\client\Client\EterLib\GrpTextInstance.cpp

; 995  : }

  0003a	5d		 pop	 ebp
  0003b	c3		 ret	 0
?Delete@CGraphicTextInstance@@SAXPAV1@@Z ENDP		; CGraphicTextInstance::Delete
_TEXT	ENDS
; Function compile flags: /Ogtp
; File C:\Users\murat\Desktop\Siveps2-1-99-Project\source\client\Client\EterLib\GrpTextInstance.cpp
; File C:\Users\murat\Desktop\Siveps2-1-99-Project\source\client\Client\EterLib\Pool.h
; File C:\Program Files (x86)\Microsoft Visual Studio\2019\Professional\VC\Tools\MSVC\14.29.30133\include\vector
; File C:\Users\murat\Desktop\Siveps2-1-99-Project\source\client\Client\EterLib\Pool.h
; File C:\Program Files (x86)\Microsoft Visual Studio\2019\Professional\VC\Tools\MSVC\14.29.30133\include\vector
; File C:\Users\murat\Desktop\Siveps2-1-99-Project\source\client\Client\EterLib\GrpTextInstance.cpp
; File C:\Program Files (x86)\Microsoft Visual Studio\2019\Professional\VC\Tools\MSVC\14.29.30133\include\vector
; File C:\Users\murat\Desktop\Siveps2-1-99-Project\source\client\Client\EterLib\Pool.h
; File C:\Users\murat\Desktop\Siveps2-1-99-Project\source\client\Client\EterLib\GrpTextInstance.cpp
; File C:\Program Files (x86)\Microsoft Visual Studio\2019\Professional\VC\Tools\MSVC\14.29.30133\include\vector
; File C:\Users\murat\Desktop\Siveps2-1-99-Project\source\client\Client\EterLib\Pool.h
; File C:\Users\murat\Desktop\Siveps2-1-99-Project\source\client\Client\EterLib\GrpTextInstance.cpp
; File C:\Users\murat\Desktop\Siveps2-1-99-Project\source\client\Client\EterLib\Pool.h
; File C:\Program Files (x86)\Microsoft Visual Studio\2019\Professional\VC\Tools\MSVC\14.29.30133\include\vector
; File C:\Users\murat\Desktop\Siveps2-1-99-Project\source\client\Client\EterLib\GrpTextInstance.cpp
;	COMDAT ?New@CGraphicTextInstance@@SAPAV1@XZ
_TEXT	SEGMENT
$T2 = -16						; size = 4
_pkNewData$3 = -16					; size = 4
__$EHRec$ = -12						; size = 12
?New@CGraphicTextInstance@@SAPAV1@XZ PROC		; CGraphicTextInstance::New, COMDAT

; 987  : {

  00000	55		 push	 ebp
  00001	8b ec		 mov	 ebp, esp
  00003	6a ff		 push	 -1
  00005	68 00 00 00 00	 push	 __ehhandler$?New@CGraphicTextInstance@@SAPAV1@XZ
  0000a	64 a1 00 00 00
	00		 mov	 eax, DWORD PTR fs:0
  00010	50		 push	 eax
  00011	51		 push	 ecx
  00012	56		 push	 esi
  00013	a1 00 00 00 00	 mov	 eax, DWORD PTR ___security_cookie
  00018	33 c5		 xor	 eax, ebp
  0001a	50		 push	 eax
  0001b	8d 45 f4	 lea	 eax, DWORD PTR __$EHRec$[ebp]
  0001e	64 a3 00 00 00
	00		 mov	 DWORD PTR fs:0, eax
; File C:\Users\murat\Desktop\Siveps2-1-99-Project\source\client\Client\EterLib\Pool.h

; 63   : 			if (m_kVct_pkFree.empty())

  00024	8b 0d 14 00 00
	00		 mov	 ecx, DWORD PTR ?ms_kPool@CGraphicTextInstance@@2V?$CDynamicPool@VCGraphicTextInstance@@@@A+20
  0002a	39 0d 10 00 00
	00		 cmp	 DWORD PTR ?ms_kPool@CGraphicTextInstance@@2V?$CDynamicPool@VCGraphicTextInstance@@@@A+16, ecx
  00030	0f 85 84 00 00
	00		 jne	 $LN4@New

; 65   : 				T* pkNewData=new T;

  00036	6a 7c		 push	 124			; 0000007cH
  00038	e8 00 00 00 00	 call	 ??2@YAPAXI@Z		; operator new
  0003d	83 c4 04	 add	 esp, 4
  00040	89 45 f0	 mov	 DWORD PTR $T2[ebp], eax
  00043	c7 45 fc 00 00
	00 00		 mov	 DWORD PTR __$EHRec$[ebp+8], 0
  0004a	85 c0		 test	 eax, eax
  0004c	74 0b		 je	 SHORT $LN6@New
  0004e	8b c8		 mov	 ecx, eax
  00050	e8 00 00 00 00	 call	 ??0CGraphicTextInstance@@QAE@XZ ; CGraphicTextInstance::CGraphicTextInstance
  00055	8b f0		 mov	 esi, eax
  00057	eb 02		 jmp	 SHORT $LN7@New
$LN6@New:
  00059	33 f6		 xor	 esi, esi
$LN7@New:
; File C:\Program Files (x86)\Microsoft Visual Studio\2019\Professional\VC\Tools\MSVC\14.29.30133\include\vector

; 743  :         if (_Mylast != _My_data._Myend) {

  0005b	a1 08 00 00 00	 mov	 eax, DWORD PTR ?ms_kPool@CGraphicTextInstance@@2V?$CDynamicPool@VCGraphicTextInstance@@@@A+8
; File C:\Users\murat\Desktop\Siveps2-1-99-Project\source\client\Client\EterLib\Pool.h

; 65   : 				T* pkNewData=new T;

  00060	c7 45 fc ff ff
	ff ff		 mov	 DWORD PTR __$EHRec$[ebp+8], -1
  00067	89 75 f0	 mov	 DWORD PTR _pkNewData$3[ebp], esi
; File C:\Program Files (x86)\Microsoft Visual Studio\2019\Professional\VC\Tools\MSVC\14.29.30133\include\vector

; 743  :         if (_Mylast != _My_data._Myend) {

  0006a	3b 05 0c 00 00
	00		 cmp	 eax, DWORD PTR ?ms_kPool@CGraphicTextInstance@@2V?$CDynamicPool@VCGraphicTextInstance@@@@A+12
  00070	74 21		 je	 SHORT $LN14@New

; 726  :         _Alty_traits::construct(_Getal(), _Unfancy(_Mylast), _STD forward<_Valty>(_Val)...);

  00072	89 30		 mov	 DWORD PTR [eax], esi
; File C:\Users\murat\Desktop\Siveps2-1-99-Project\source\client\Client\EterLib\GrpTextInstance.cpp

; 988  : 	return ms_kPool.Alloc();

  00074	8b c6		 mov	 eax, esi
; File C:\Program Files (x86)\Microsoft Visual Studio\2019\Professional\VC\Tools\MSVC\14.29.30133\include\vector

; 729  :         ++_Mylast;

  00076	83 05 08 00 00
	00 04		 add	 DWORD PTR ?ms_kPool@CGraphicTextInstance@@2V?$CDynamicPool@VCGraphicTextInstance@@@@A+8, 4
; File C:\Users\murat\Desktop\Siveps2-1-99-Project\source\client\Client\EterLib\Pool.h

; 67   : 				++m_uUsedCapacity;

  0007d	ff 05 20 00 00
	00		 inc	 DWORD PTR ?ms_kPool@CGraphicTextInstance@@2V?$CDynamicPool@VCGraphicTextInstance@@@@A+32
; File C:\Users\murat\Desktop\Siveps2-1-99-Project\source\client\Client\EterLib\GrpTextInstance.cpp

; 989  : }

  00083	8b 4d f4	 mov	 ecx, DWORD PTR __$EHRec$[ebp]
  00086	64 89 0d 00 00
	00 00		 mov	 DWORD PTR fs:0, ecx
  0008d	59		 pop	 ecx
  0008e	5e		 pop	 esi
  0008f	8b e5		 mov	 esp, ebp
  00091	5d		 pop	 ebp
  00092	c3		 ret	 0
$LN14@New:
; File C:\Program Files (x86)\Microsoft Visual Studio\2019\Professional\VC\Tools\MSVC\14.29.30133\include\vector

; 747  :         _Ty& _Result = *_Emplace_reallocate(_Mylast, _STD forward<_Valty>(_Val)...);

  00093	8d 4d f0	 lea	 ecx, DWORD PTR _pkNewData$3[ebp]
  00096	51		 push	 ecx
  00097	50		 push	 eax
  00098	b9 04 00 00 00	 mov	 ecx, OFFSET ?ms_kPool@CGraphicTextInstance@@2V?$CDynamicPool@VCGraphicTextInstance@@@@A+4
  0009d	e8 00 00 00 00	 call	 ??$_Emplace_reallocate@ABQAVCGraphicTextInstance@@@?$vector@PAVCGraphicTextInstance@@V?$allocator@PAVCGraphicTextInstance@@@std@@@std@@QAEPAPAVCGraphicTextInstance@@QAPAV2@ABQAV2@@Z ; std::vector<CGraphicTextInstance *,std::allocator<CGraphicTextInstance *> >::_Emplace_reallocate<CGraphicTextInstance * const &>
; File C:\Users\murat\Desktop\Siveps2-1-99-Project\source\client\Client\EterLib\Pool.h

; 67   : 				++m_uUsedCapacity;

  000a2	ff 05 20 00 00
	00		 inc	 DWORD PTR ?ms_kPool@CGraphicTextInstance@@2V?$CDynamicPool@VCGraphicTextInstance@@@@A+32
; File C:\Users\murat\Desktop\Siveps2-1-99-Project\source\client\Client\EterLib\GrpTextInstance.cpp

; 988  : 	return ms_kPool.Alloc();

  000a8	8b c6		 mov	 eax, esi

; 989  : }

  000aa	8b 4d f4	 mov	 ecx, DWORD PTR __$EHRec$[ebp]
  000ad	64 89 0d 00 00
	00 00		 mov	 DWORD PTR fs:0, ecx
  000b4	59		 pop	 ecx
  000b5	5e		 pop	 esi
  000b6	8b e5		 mov	 esp, ebp
  000b8	5d		 pop	 ebp
  000b9	c3		 ret	 0
$LN4@New:
; File C:\Users\murat\Desktop\Siveps2-1-99-Project\source\client\Client\EterLib\Pool.h

; 71   : 			T* pkFreeData=m_kVct_pkFree.back();

  000ba	8b 41 fc	 mov	 eax, DWORD PTR [ecx-4]
; File C:\Program Files (x86)\Microsoft Visual Studio\2019\Professional\VC\Tools\MSVC\14.29.30133\include\vector

; 1624 :         return _My_data._Mylast[-1];

  000bd	83 c1 fc	 add	 ecx, -4			; fffffffcH

; 1403 :         --_Mylast;

  000c0	89 0d 14 00 00
	00		 mov	 DWORD PTR ?ms_kPool@CGraphicTextInstance@@2V?$CDynamicPool@VCGraphicTextInstance@@@@A+20, ecx
; File C:\Users\murat\Desktop\Siveps2-1-99-Project\source\client\Client\EterLib\GrpTextInstance.cpp

; 989  : }

  000c6	8b 4d f4	 mov	 ecx, DWORD PTR __$EHRec$[ebp]
  000c9	64 89 0d 00 00
	00 00		 mov	 DWORD PTR fs:0, ecx
  000d0	59		 pop	 ecx
  000d1	5e		 pop	 esi
  000d2	8b e5		 mov	 esp, ebp
  000d4	5d		 pop	 ebp
  000d5	c3		 ret	 0
_TEXT	ENDS
;	COMDAT text$x
text$x	SEGMENT
__unwindfunclet$?New@CGraphicTextInstance@@SAPAV1@XZ$0:
  00000	6a 7c		 push	 124			; 0000007cH
  00002	8b 45 f0	 mov	 eax, DWORD PTR $T2[ebp]
  00005	50		 push	 eax
  00006	e8 00 00 00 00	 call	 ??3@YAXPAXI@Z		; operator delete
  0000b	83 c4 08	 add	 esp, 8
  0000e	c3		 ret	 0
  0000f	cc		 int	 3
  00010	cc		 int	 3
  00011	cc		 int	 3
  00012	cc		 int	 3
  00013	cc		 int	 3
__ehhandler$?New@CGraphicTextInstance@@SAPAV1@XZ:
  00014	90		 npad	 1
  00015	90		 npad	 1
  00016	8b 54 24 08	 mov	 edx, DWORD PTR [esp+8]
  0001a	8d 42 0c	 lea	 eax, DWORD PTR [edx+12]
  0001d	8b 4a f4	 mov	 ecx, DWORD PTR [edx-12]
  00020	33 c8		 xor	 ecx, eax
  00022	e8 00 00 00 00	 call	 @__security_check_cookie@4
  00027	b8 00 00 00 00	 mov	 eax, OFFSET __ehfuncinfo$?New@CGraphicTextInstance@@SAPAV1@XZ
  0002c	e9 00 00 00 00	 jmp	 ___CxxFrameHandler3
text$x	ENDS
?New@CGraphicTextInstance@@SAPAV1@XZ ENDP		; CGraphicTextInstance::New
; Function compile flags: /Ogtp
; File C:\Users\murat\Desktop\Siveps2-1-99-Project\source\client\Client\EterLib\GrpTextInstance.cpp
; File C:\Program Files (x86)\Microsoft Visual Studio\2019\Professional\VC\Tools\MSVC\14.29.30133\include\algorithm
; File C:\Users\murat\Desktop\Siveps2-1-99-Project\source\client\Client\EterLib\GrpTextInstance.cpp
; File C:\Program Files (x86)\Microsoft Visual Studio\2019\Professional\VC\Tools\MSVC\14.29.30133\include\algorithm
; File C:\Users\murat\Desktop\Siveps2-1-99-Project\source\client\Client\EterLib\Pool.h
; File C:\Program Files (x86)\Microsoft Visual Studio\2019\Professional\VC\Tools\MSVC\14.29.30133\include\algorithm
; File C:\Users\murat\Desktop\Siveps2-1-99-Project\source\client\Client\EterLib\Pool.h
; File C:\Users\murat\Desktop\Siveps2-1-99-Project\source\client\Client\EterLib\GrpTextInstance.cpp
; File C:\Users\murat\Desktop\Siveps2-1-99-Project\source\client\Client\EterLib\Pool.h
; File C:\Users\murat\Desktop\Siveps2-1-99-Project\source\client\Client\EterLib\GrpTextInstance.cpp
;	COMDAT ?DestroySystem@CGraphicTextInstance@@SAXXZ
_TEXT	SEGMENT
?DestroySystem@CGraphicTextInstance@@SAXXZ PROC		; CGraphicTextInstance::DestroySystem, COMDAT

; 982  : {

  00000	56		 push	 esi
; File C:\Program Files (x86)\Microsoft Visual Studio\2019\Professional\VC\Tools\MSVC\14.29.30133\include\algorithm

; 270  :     for (; _UFirst != _ULast; ++_UFirst) {

  00001	8b 35 04 00 00
	00		 mov	 esi, DWORD PTR ?ms_kPool@CGraphicTextInstance@@2V?$CDynamicPool@VCGraphicTextInstance@@@@A+4
; File C:\Users\murat\Desktop\Siveps2-1-99-Project\source\client\Client\EterLib\GrpTextInstance.cpp

; 982  : {

  00007	57		 push	 edi
; File C:\Program Files (x86)\Microsoft Visual Studio\2019\Professional\VC\Tools\MSVC\14.29.30133\include\algorithm

; 269  :     const auto _ULast = _Get_unwrapped(_Last);

  00008	8b 3d 08 00 00
	00		 mov	 edi, DWORD PTR ?ms_kPool@CGraphicTextInstance@@2V?$CDynamicPool@VCGraphicTextInstance@@@@A+8

; 270  :     for (; _UFirst != _ULast; ++_UFirst) {

  0000e	3b f7		 cmp	 esi, edi
  00010	74 2a		 je	 SHORT $LN30@DestroySys
$LL20@DestroySys:
; File C:\Users\murat\Desktop\Siveps2-1-99-Project\source\client\Client\EterLib\Pool.h

; 110  : 			delete pkData;

  00012	8b 0e		 mov	 ecx, DWORD PTR [esi]
  00014	85 c9		 test	 ecx, ecx
  00016	74 06		 je	 SHORT $LN18@DestroySys
  00018	8b 01		 mov	 eax, DWORD PTR [ecx]
  0001a	6a 01		 push	 1
  0001c	ff 10		 call	 DWORD PTR [eax]
$LN18@DestroySys:
; File C:\Program Files (x86)\Microsoft Visual Studio\2019\Professional\VC\Tools\MSVC\14.29.30133\include\algorithm

; 270  :     for (; _UFirst != _ULast; ++_UFirst) {

  0001e	83 c6 04	 add	 esi, 4
  00021	3b f7		 cmp	 esi, edi
  00023	75 ed		 jne	 SHORT $LL20@DestroySys
; File C:\Users\murat\Desktop\Siveps2-1-99-Project\source\client\Client\EterLib\Pool.h

; 51   : 			m_kVct_pkData.clear();

  00025	a1 04 00 00 00	 mov	 eax, DWORD PTR ?ms_kPool@CGraphicTextInstance@@2V?$CDynamicPool@VCGraphicTextInstance@@@@A+4
  0002a	a3 08 00 00 00	 mov	 DWORD PTR ?ms_kPool@CGraphicTextInstance@@2V?$CDynamicPool@VCGraphicTextInstance@@@@A+8, eax
; File C:\Users\murat\Desktop\Siveps2-1-99-Project\source\client\Client\EterLib\GrpTextInstance.cpp

; 984  : }

  0002f	a1 10 00 00 00	 mov	 eax, DWORD PTR ?ms_kPool@CGraphicTextInstance@@2V?$CDynamicPool@VCGraphicTextInstance@@@@A+16
  00034	5f		 pop	 edi
  00035	a3 14 00 00 00	 mov	 DWORD PTR ?ms_kPool@CGraphicTextInstance@@2V?$CDynamicPool@VCGraphicTextInstance@@@@A+20, eax
  0003a	5e		 pop	 esi
  0003b	c3		 ret	 0
$LN30@DestroySys:
  0003c	a1 10 00 00 00	 mov	 eax, DWORD PTR ?ms_kPool@CGraphicTextInstance@@2V?$CDynamicPool@VCGraphicTextInstance@@@@A+16
  00041	5f		 pop	 edi
; File C:\Users\murat\Desktop\Siveps2-1-99-Project\source\client\Client\EterLib\Pool.h

; 51   : 			m_kVct_pkData.clear();

  00042	89 35 08 00 00
	00		 mov	 DWORD PTR ?ms_kPool@CGraphicTextInstance@@2V?$CDynamicPool@VCGraphicTextInstance@@@@A+8, esi
; File C:\Users\murat\Desktop\Siveps2-1-99-Project\source\client\Client\EterLib\GrpTextInstance.cpp

; 984  : }

  00048	a3 14 00 00 00	 mov	 DWORD PTR ?ms_kPool@CGraphicTextInstance@@2V?$CDynamicPool@VCGraphicTextInstance@@@@A+20, eax
  0004d	5e		 pop	 esi
  0004e	c3		 ret	 0
?DestroySystem@CGraphicTextInstance@@SAXXZ ENDP		; CGraphicTextInstance::DestroySystem
_TEXT	ENDS
; Function compile flags: /Ogtp
; File C:\Users\murat\Desktop\Siveps2-1-99-Project\source\client\Client\EterLib\GrpTextInstance.cpp
; File C:\Program Files (x86)\Microsoft Visual Studio\2019\Professional\VC\Tools\MSVC\14.29.30133\include\vector
; File C:\Users\murat\Desktop\Siveps2-1-99-Project\source\client\Client\EterLib\GrpTextInstance.cpp
; File C:\Users\murat\Desktop\Siveps2-1-99-Project\source\client\Client\EterLib\Pool.h
; File C:\Program Files (x86)\Microsoft Visual Studio\2019\Professional\VC\Tools\MSVC\14.29.30133\include\vector
; File C:\Users\murat\Desktop\Siveps2-1-99-Project\source\client\Client\EterLib\Pool.h
; File C:\Program Files (x86)\Microsoft Visual Studio\2019\Professional\VC\Tools\MSVC\14.29.30133\include\vector
; File C:\Users\murat\Desktop\Siveps2-1-99-Project\source\client\Client\EterLib\GrpTextInstance.cpp
; File C:\Program Files (x86)\Microsoft Visual Studio\2019\Professional\VC\Tools\MSVC\14.29.30133\include\vector
; File C:\Users\murat\Desktop\Siveps2-1-99-Project\source\client\Client\EterLib\GrpTextInstance.cpp
;	COMDAT ?CreateSystem@CGraphicTextInstance@@SAXI@Z
_TEXT	SEGMENT
_uCapacity$ = 8						; size = 4
?CreateSystem@CGraphicTextInstance@@SAXI@Z PROC		; CGraphicTextInstance::CreateSystem, COMDAT

; 977  : {

  00000	55		 push	 ebp
  00001	8b ec		 mov	 ebp, esp
; File C:\Program Files (x86)\Microsoft Visual Studio\2019\Professional\VC\Tools\MSVC\14.29.30133\include\vector

; 1559 :         return static_cast<size_type>(_My_data._Myend - _My_data._Myfirst);

  00003	a1 0c 00 00 00	 mov	 eax, DWORD PTR ?ms_kPool@CGraphicTextInstance@@2V?$CDynamicPool@VCGraphicTextInstance@@@@A+12
  00008	2b 05 04 00 00
	00		 sub	 eax, DWORD PTR ?ms_kPool@CGraphicTextInstance@@2V?$CDynamicPool@VCGraphicTextInstance@@@@A+4
; File C:\Users\murat\Desktop\Siveps2-1-99-Project\source\client\Client\EterLib\GrpTextInstance.cpp

; 977  : {

  0000e	56		 push	 esi
; File C:\Users\murat\Desktop\Siveps2-1-99-Project\source\client\Client\EterLib\Pool.h

; 57   : 			m_uInitCapacity=uCapacity;

  0000f	8b 75 08	 mov	 esi, DWORD PTR _uCapacity$[ebp]
; File C:\Program Files (x86)\Microsoft Visual Studio\2019\Professional\VC\Tools\MSVC\14.29.30133\include\vector

; 1559 :         return static_cast<size_type>(_My_data._Myend - _My_data._Myfirst);

  00012	c1 f8 02	 sar	 eax, 2
; File C:\Users\murat\Desktop\Siveps2-1-99-Project\source\client\Client\EterLib\Pool.h

; 57   : 			m_uInitCapacity=uCapacity;

  00015	89 35 1c 00 00
	00		 mov	 DWORD PTR ?ms_kPool@CGraphicTextInstance@@2V?$CDynamicPool@VCGraphicTextInstance@@@@A+28, esi
; File C:\Program Files (x86)\Microsoft Visual Studio\2019\Professional\VC\Tools\MSVC\14.29.30133\include\vector

; 1371 :         if (_Newcapacity > capacity()) { // something to do (reserve() never shrinks)

  0001b	3b f0		 cmp	 esi, eax
  0001d	76 13		 jbe	 SHORT $LN6@CreateSyst

; 1372 :             if (_Newcapacity > max_size()) {

  0001f	81 fe ff ff ff
	3f		 cmp	 esi, 1073741823		; 3fffffffH
  00025	77 33		 ja	 SHORT $LN19@CreateSyst

; 1374 :             }
; 1375 : 
; 1376 :             _Reallocate_exactly(_Newcapacity);

  00027	56		 push	 esi
  00028	b9 04 00 00 00	 mov	 ecx, OFFSET ?ms_kPool@CGraphicTextInstance@@2V?$CDynamicPool@VCGraphicTextInstance@@@@A+4
  0002d	e8 00 00 00 00	 call	 ?_Reallocate_exactly@?$vector@PAVCGraphicTextInstance@@V?$allocator@PAVCGraphicTextInstance@@@std@@@std@@AAEXI@Z ; std::vector<CGraphicTextInstance *,std::allocator<CGraphicTextInstance *> >::_Reallocate_exactly
$LN6@CreateSyst:

; 1559 :         return static_cast<size_type>(_My_data._Myend - _My_data._Myfirst);

  00032	a1 18 00 00 00	 mov	 eax, DWORD PTR ?ms_kPool@CGraphicTextInstance@@2V?$CDynamicPool@VCGraphicTextInstance@@@@A+24
  00037	2b 05 10 00 00
	00		 sub	 eax, DWORD PTR ?ms_kPool@CGraphicTextInstance@@2V?$CDynamicPool@VCGraphicTextInstance@@@@A+16
  0003d	c1 f8 02	 sar	 eax, 2

; 1371 :         if (_Newcapacity > capacity()) { // something to do (reserve() never shrinks)

  00040	3b f0		 cmp	 esi, eax
  00042	76 13		 jbe	 SHORT $LN13@CreateSyst

; 1372 :             if (_Newcapacity > max_size()) {

  00044	81 fe ff ff ff
	3f		 cmp	 esi, 1073741823		; 3fffffffH
  0004a	77 0e		 ja	 SHORT $LN19@CreateSyst

; 1374 :             }
; 1375 : 
; 1376 :             _Reallocate_exactly(_Newcapacity);

  0004c	56		 push	 esi
  0004d	b9 10 00 00 00	 mov	 ecx, OFFSET ?ms_kPool@CGraphicTextInstance@@2V?$CDynamicPool@VCGraphicTextInstance@@@@A+16
  00052	e8 00 00 00 00	 call	 ?_Reallocate_exactly@?$vector@PAVCGraphicTextInstance@@V?$allocator@PAVCGraphicTextInstance@@@std@@@std@@AAEXI@Z ; std::vector<CGraphicTextInstance *,std::allocator<CGraphicTextInstance *> >::_Reallocate_exactly
$LN13@CreateSyst:
  00057	5e		 pop	 esi
; File C:\Users\murat\Desktop\Siveps2-1-99-Project\source\client\Client\EterLib\GrpTextInstance.cpp

; 979  : }

  00058	5d		 pop	 ebp
  00059	c3		 ret	 0
$LN19@CreateSyst:
; File C:\Program Files (x86)\Microsoft Visual Studio\2019\Professional\VC\Tools\MSVC\14.29.30133\include\vector

; 1373 :                 _Xlength();

  0005a	e8 00 00 00 00	 call	 ?_Xlength@?$vector@PAVCGraphicTextInstance@@V?$allocator@PAVCGraphicTextInstance@@@std@@@std@@CAXXZ ; std::vector<CGraphicTextInstance *,std::allocator<CGraphicTextInstance *> >::_Xlength
$LN20@CreateSyst:
  0005f	cc		 int	 3
?CreateSystem@CGraphicTextInstance@@SAXI@Z ENDP		; CGraphicTextInstance::CreateSystem
_TEXT	ENDS
; Function compile flags: /Ogtp
; File C:\Program Files (x86)\Microsoft Visual Studio\2019\Professional\VC\Tools\MSVC\14.29.30133\include\vector
;	COMDAT ?_Xlength@?$vector@USEmoji@CGraphicTextInstance@@V?$allocator@USEmoji@CGraphicTextInstance@@@std@@@std@@CAXXZ
_TEXT	SEGMENT
?_Xlength@?$vector@USEmoji@CGraphicTextInstance@@V?$allocator@USEmoji@CGraphicTextInstance@@@std@@@std@@CAXXZ PROC ; std::vector<CGraphicTextInstance::SEmoji,std::allocator<CGraphicTextInstance::SEmoji> >::_Xlength, COMDAT

; 1774 :         _Xlength_error("vector too long");

  00000	68 00 00 00 00	 push	 OFFSET ??_C@_0BA@FOIKENOD@vector?5too?5long@
  00005	e8 00 00 00 00	 call	 ?_Xlength_error@std@@YAXPBD@Z ; std::_Xlength_error
$LN3@Xlength:
  0000a	cc		 int	 3
?_Xlength@?$vector@USEmoji@CGraphicTextInstance@@V?$allocator@USEmoji@CGraphicTextInstance@@@std@@@std@@CAXXZ ENDP ; std::vector<CGraphicTextInstance::SEmoji,std::allocator<CGraphicTextInstance::SEmoji> >::_Xlength
_TEXT	ENDS
; Function compile flags: /Ogtp
; File C:\Program Files (x86)\Microsoft Visual Studio\2019\Professional\VC\Tools\MSVC\14.29.30133\include\vector
; File C:\Program Files (x86)\Microsoft Visual Studio\2019\Professional\VC\Tools\MSVC\14.29.30133\include\xmemory
; File C:\Program Files (x86)\Microsoft Visual Studio\2019\Professional\VC\Tools\MSVC\14.29.30133\include\vector
; File C:\Program Files (x86)\Microsoft Visual Studio\2019\Professional\VC\Tools\MSVC\14.29.30133\include\xmemory
; File C:\Program Files (x86)\Microsoft Visual Studio\2019\Professional\VC\Tools\MSVC\14.29.30133\include\vector
; File C:\Program Files (x86)\Microsoft Visual Studio\2019\Professional\VC\Tools\MSVC\14.29.30133\include\xmemory
; File C:\Program Files (x86)\Microsoft Visual Studio\2019\Professional\VC\Tools\MSVC\14.29.30133\include\vector
;	COMDAT ??1?$vector@USEmoji@CGraphicTextInstance@@V?$allocator@USEmoji@CGraphicTextInstance@@@std@@@std@@QAE@XZ
_TEXT	SEGMENT
??1?$vector@USEmoji@CGraphicTextInstance@@V?$allocator@USEmoji@CGraphicTextInstance@@@std@@@std@@QAE@XZ PROC ; std::vector<CGraphicTextInstance::SEmoji,std::allocator<CGraphicTextInstance::SEmoji> >::~vector<CGraphicTextInstance::SEmoji,std::allocator<CGraphicTextInstance::SEmoji> >, COMDAT
; _this$ = ecx

; 711  :     _CONSTEXPR20_CONTAINER ~vector() noexcept {

  00000	56		 push	 esi
  00001	8b f1		 mov	 esi, ecx

; 1763 :         if (_Myfirst) { // destroy and deallocate old array

  00003	8b 06		 mov	 eax, DWORD PTR [esi]
  00005	85 c0		 test	 eax, eax
  00007	74 40		 je	 SHORT $LN4@vector

; 1764 :             _Destroy(_Myfirst, _Mylast);
; 1765 :             _Getal().deallocate(_Myfirst, static_cast<size_type>(_Myend - _Myfirst));

  00009	8b 4e 08	 mov	 ecx, DWORD PTR [esi+8]
  0000c	2b c8		 sub	 ecx, eax
; File C:\Program Files (x86)\Microsoft Visual Studio\2019\Professional\VC\Tools\MSVC\14.29.30133\include\xmemory

; 835  :         _Deallocate<_New_alignof<_Ty>>(_Ptr, sizeof(_Ty) * _Count);

  0000e	83 e1 f8	 and	 ecx, -8			; fffffff8H

; 260  :         if (_Bytes >= _Big_allocation_threshold) { // boost the alignment of big allocations to help autovectorization

  00011	81 f9 00 10 00
	00		 cmp	 ecx, 4096		; 00001000H
  00017	72 12		 jb	 SHORT $LN20@vector

; 158  :     const uintptr_t _Ptr_container   = _Ptr_user[-1];

  00019	8b 50 fc	 mov	 edx, DWORD PTR [eax-4]
  0001c	83 c1 23	 add	 ecx, 35			; 00000023H

; 159  : 
; 160  :     // If the following asserts, it likely means that we are performing
; 161  :     // an aligned delete on memory coming from an unaligned allocation.
; 162  :     _STL_ASSERT(_Ptr_user[-2] == _Big_allocation_sentinel, "invalid argument");
; 163  : 
; 164  :     // Extra paranoia on aligned allocation/deallocation; ensure _Ptr_container is
; 165  :     // in range [_Min_back_shift, _Non_user_size]
; 166  : #ifdef _DEBUG
; 167  :     constexpr uintptr_t _Min_back_shift = 2 * sizeof(void*);
; 168  : #else // ^^^ _DEBUG ^^^ // vvv !_DEBUG vvv
; 169  :     constexpr uintptr_t _Min_back_shift = sizeof(void*);
; 170  : #endif // _DEBUG
; 171  :     const uintptr_t _Back_shift = reinterpret_cast<uintptr_t>(_Ptr) - _Ptr_container;

  0001f	2b c2		 sub	 eax, edx

; 172  :     _STL_VERIFY(_Back_shift >= _Min_back_shift && _Back_shift <= _Non_user_size, "invalid argument");

  00021	83 c0 fc	 add	 eax, -4			; fffffffcH
  00024	83 f8 1f	 cmp	 eax, 31			; 0000001fH
  00027	77 22		 ja	 SHORT $LN17@vector

; 173  :     _Ptr = reinterpret_cast<void*>(_Ptr_container);

  00029	8b c2		 mov	 eax, edx
$LN20@vector:

; 264  :         ::operator delete(_Ptr, _Bytes);

  0002b	51		 push	 ecx
  0002c	50		 push	 eax
  0002d	e8 00 00 00 00	 call	 ??3@YAXPAXI@Z		; operator delete
; File C:\Program Files (x86)\Microsoft Visual Studio\2019\Professional\VC\Tools\MSVC\14.29.30133\include\vector

; 1767 :             _Myfirst = nullptr;

  00032	c7 06 00 00 00
	00		 mov	 DWORD PTR [esi], 0
; File C:\Program Files (x86)\Microsoft Visual Studio\2019\Professional\VC\Tools\MSVC\14.29.30133\include\xmemory

; 264  :         ::operator delete(_Ptr, _Bytes);

  00038	83 c4 08	 add	 esp, 8
; File C:\Program Files (x86)\Microsoft Visual Studio\2019\Professional\VC\Tools\MSVC\14.29.30133\include\vector

; 1768 :             _Mylast  = nullptr;

  0003b	c7 46 04 00 00
	00 00		 mov	 DWORD PTR [esi+4], 0

; 1769 :             _Myend   = nullptr;

  00042	c7 46 08 00 00
	00 00		 mov	 DWORD PTR [esi+8], 0
$LN4@vector:
  00049	5e		 pop	 esi

; 717  :     }

  0004a	c3		 ret	 0
$LN17@vector:
; File C:\Program Files (x86)\Microsoft Visual Studio\2019\Professional\VC\Tools\MSVC\14.29.30133\include\xmemory

; 172  :     _STL_VERIFY(_Back_shift >= _Min_back_shift && _Back_shift <= _Non_user_size, "invalid argument");

  0004b	e8 00 00 00 00	 call	 __invalid_parameter_noinfo_noreturn
$LN25@vector:
  00050	cc		 int	 3
??1?$vector@USEmoji@CGraphicTextInstance@@V?$allocator@USEmoji@CGraphicTextInstance@@@std@@@std@@QAE@XZ ENDP ; std::vector<CGraphicTextInstance::SEmoji,std::allocator<CGraphicTextInstance::SEmoji> >::~vector<CGraphicTextInstance::SEmoji,std::allocator<CGraphicTextInstance::SEmoji> >
_TEXT	ENDS
; Function compile flags: /Ogtp
; File C:\Program Files (x86)\Microsoft Visual Studio\2019\Professional\VC\Tools\MSVC\14.29.30133\include\vector
;	COMDAT ?_Xlength@?$vector@USHyperlink@CGraphicTextInstance@@V?$allocator@USHyperlink@CGraphicTextInstance@@@std@@@std@@CAXXZ
_TEXT	SEGMENT
?_Xlength@?$vector@USHyperlink@CGraphicTextInstance@@V?$allocator@USHyperlink@CGraphicTextInstance@@@std@@@std@@CAXXZ PROC ; std::vector<CGraphicTextInstance::SHyperlink,std::allocator<CGraphicTextInstance::SHyperlink> >::_Xlength, COMDAT

; 1774 :         _Xlength_error("vector too long");

  00000	68 00 00 00 00	 push	 OFFSET ??_C@_0BA@FOIKENOD@vector?5too?5long@
  00005	e8 00 00 00 00	 call	 ?_Xlength_error@std@@YAXPBD@Z ; std::_Xlength_error
$LN3@Xlength:
  0000a	cc		 int	 3
?_Xlength@?$vector@USHyperlink@CGraphicTextInstance@@V?$allocator@USHyperlink@CGraphicTextInstance@@@std@@@std@@CAXXZ ENDP ; std::vector<CGraphicTextInstance::SHyperlink,std::allocator<CGraphicTextInstance::SHyperlink> >::_Xlength
_TEXT	ENDS
; Function compile flags: /Ogtp
; File C:\Program Files (x86)\Microsoft Visual Studio\2019\Professional\VC\Tools\MSVC\14.29.30133\include\vector
; File C:\Program Files (x86)\Microsoft Visual Studio\2019\Professional\VC\Tools\MSVC\14.29.30133\include\xmemory
; File C:\Program Files (x86)\Microsoft Visual Studio\2019\Professional\VC\Tools\MSVC\14.29.30133\include\vector
;	COMDAT ?_Destroy@?$vector@USHyperlink@CGraphicTextInstance@@V?$allocator@USHyperlink@CGraphicTextInstance@@@std@@@std@@AAEXPAUSHyperlink@CGraphicTextInstance@@0@Z
_TEXT	SEGMENT
__First$ = 8						; size = 4
__Last$ = 12						; size = 4
?_Destroy@?$vector@USHyperlink@CGraphicTextInstance@@V?$allocator@USHyperlink@CGraphicTextInstance@@@std@@@std@@AAEXPAUSHyperlink@CGraphicTextInstance@@0@Z PROC ; std::vector<CGraphicTextInstance::SHyperlink,std::allocator<CGraphicTextInstance::SHyperlink> >::_Destroy, COMDAT
; _this$ = ecx

; 1678 :     _CONSTEXPR20_CONTAINER void _Destroy(pointer _First, pointer _Last) {

  00000	55		 push	 ebp
  00001	8b ec		 mov	 ebp, esp
  00003	56		 push	 esi

; 1679 :         // destroy [_First, _Last) using allocator
; 1680 :         _Destroy_range(_First, _Last, _Getal());

  00004	8b 75 08	 mov	 esi, DWORD PTR __First$[ebp]
  00007	57		 push	 edi
; File C:\Program Files (x86)\Microsoft Visual Studio\2019\Professional\VC\Tools\MSVC\14.29.30133\include\xmemory

; 949  :         for (; _First != _Last; ++_First) {

  00008	8b 7d 0c	 mov	 edi, DWORD PTR __Last$[ebp]
  0000b	3b f7		 cmp	 esi, edi
  0000d	74 0f		 je	 SHORT $LN5@Destroy
  0000f	90		 npad	 1
$LL6@Destroy:
  00010	8b ce		 mov	 ecx, esi
  00012	e8 00 00 00 00	 call	 ??1SHyperlink@CGraphicTextInstance@@QAE@XZ
  00017	83 c6 1c	 add	 esi, 28			; 0000001cH
  0001a	3b f7		 cmp	 esi, edi
  0001c	75 f2		 jne	 SHORT $LL6@Destroy
$LN5@Destroy:
  0001e	5f		 pop	 edi
; File C:\Program Files (x86)\Microsoft Visual Studio\2019\Professional\VC\Tools\MSVC\14.29.30133\include\vector

; 1681 :     }

  0001f	5e		 pop	 esi
  00020	5d		 pop	 ebp
  00021	c2 08 00	 ret	 8
?_Destroy@?$vector@USHyperlink@CGraphicTextInstance@@V?$allocator@USHyperlink@CGraphicTextInstance@@@std@@@std@@AAEXPAUSHyperlink@CGraphicTextInstance@@0@Z ENDP ; std::vector<CGraphicTextInstance::SHyperlink,std::allocator<CGraphicTextInstance::SHyperlink> >::_Destroy
_TEXT	ENDS
; Function compile flags: /Ogtp
; File C:\Program Files (x86)\Microsoft Visual Studio\2019\Professional\VC\Tools\MSVC\14.29.30133\include\vector
; File C:\Program Files (x86)\Microsoft Visual Studio\2019\Professional\VC\Tools\MSVC\14.29.30133\include\xmemory
; File C:\Program Files (x86)\Microsoft Visual Studio\2019\Professional\VC\Tools\MSVC\14.29.30133\include\vector
;	COMDAT ?clear@?$vector@USHyperlink@CGraphicTextInstance@@V?$allocator@USHyperlink@CGraphicTextInstance@@@std@@@std@@QAEXXZ
_TEXT	SEGMENT
?clear@?$vector@USHyperlink@CGraphicTextInstance@@V?$allocator@USHyperlink@CGraphicTextInstance@@@std@@@std@@QAEXXZ PROC ; std::vector<CGraphicTextInstance::SHyperlink,std::allocator<CGraphicTextInstance::SHyperlink> >::clear, COMDAT
; _this$ = ecx

; 1449 :     _CONSTEXPR20_CONTAINER void clear() noexcept { // erase all

  00000	53		 push	 ebx
  00001	56		 push	 esi
  00002	57		 push	 edi
  00003	8b f9		 mov	 edi, ecx

; 1450 :         auto& _My_data    = _Mypair._Myval2;
; 1451 :         pointer& _Myfirst = _My_data._Myfirst;
; 1452 :         pointer& _Mylast  = _My_data._Mylast;
; 1453 : 
; 1454 :         _My_data._Orphan_all();
; 1455 :         _Destroy(_Myfirst, _Mylast);

  00005	8b 5f 04	 mov	 ebx, DWORD PTR [edi+4]
  00008	8b 37		 mov	 esi, DWORD PTR [edi]
; File C:\Program Files (x86)\Microsoft Visual Studio\2019\Professional\VC\Tools\MSVC\14.29.30133\include\xmemory

; 949  :         for (; _First != _Last; ++_First) {

  0000a	3b f3		 cmp	 esi, ebx
  0000c	74 19		 je	 SHORT $LN19@clear
  0000e	66 90		 npad	 2
$LL8@clear:
  00010	8b ce		 mov	 ecx, esi
  00012	e8 00 00 00 00	 call	 ??1SHyperlink@CGraphicTextInstance@@QAE@XZ
  00017	83 c6 1c	 add	 esi, 28			; 0000001cH
  0001a	3b f3		 cmp	 esi, ebx
  0001c	75 f2		 jne	 SHORT $LL8@clear
; File C:\Program Files (x86)\Microsoft Visual Studio\2019\Professional\VC\Tools\MSVC\14.29.30133\include\vector

; 1456 :         _Mylast = _Myfirst;

  0001e	8b 07		 mov	 eax, DWORD PTR [edi]
  00020	89 47 04	 mov	 DWORD PTR [edi+4], eax
  00023	5f		 pop	 edi

; 1457 :     }

  00024	5e		 pop	 esi
  00025	5b		 pop	 ebx
  00026	c3		 ret	 0
$LN19@clear:

; 1456 :         _Mylast = _Myfirst;

  00027	89 77 04	 mov	 DWORD PTR [edi+4], esi
  0002a	5f		 pop	 edi

; 1457 :     }

  0002b	5e		 pop	 esi
  0002c	5b		 pop	 ebx
  0002d	c3		 ret	 0
?clear@?$vector@USHyperlink@CGraphicTextInstance@@V?$allocator@USHyperlink@CGraphicTextInstance@@@std@@@std@@QAEXXZ ENDP ; std::vector<CGraphicTextInstance::SHyperlink,std::allocator<CGraphicTextInstance::SHyperlink> >::clear
_TEXT	ENDS
; Function compile flags: /Ogtp
; File C:\Program Files (x86)\Microsoft Visual Studio\2019\Professional\VC\Tools\MSVC\14.29.30133\include\vector
; File C:\Program Files (x86)\Microsoft Visual Studio\2019\Professional\VC\Tools\MSVC\14.29.30133\include\xmemory
; File C:\Program Files (x86)\Microsoft Visual Studio\2019\Professional\VC\Tools\MSVC\14.29.30133\include\vector
; File C:\Program Files (x86)\Microsoft Visual Studio\2019\Professional\VC\Tools\MSVC\14.29.30133\include\xmemory
; File C:\Program Files (x86)\Microsoft Visual Studio\2019\Professional\VC\Tools\MSVC\14.29.30133\include\vector
; File C:\Program Files (x86)\Microsoft Visual Studio\2019\Professional\VC\Tools\MSVC\14.29.30133\include\xmemory
; File C:\Program Files (x86)\Microsoft Visual Studio\2019\Professional\VC\Tools\MSVC\14.29.30133\include\vector
; File C:\Program Files (x86)\Microsoft Visual Studio\2019\Professional\VC\Tools\MSVC\14.29.30133\include\xmemory
; File C:\Program Files (x86)\Microsoft Visual Studio\2019\Professional\VC\Tools\MSVC\14.29.30133\include\vector
; File C:\Program Files (x86)\Microsoft Visual Studio\2019\Professional\VC\Tools\MSVC\14.29.30133\include\xmemory
; File C:\Program Files (x86)\Microsoft Visual Studio\2019\Professional\VC\Tools\MSVC\14.29.30133\include\vector
;	COMDAT ??1?$vector@USHyperlink@CGraphicTextInstance@@V?$allocator@USHyperlink@CGraphicTextInstance@@@std@@@std@@QAE@XZ
_TEXT	SEGMENT
??1?$vector@USHyperlink@CGraphicTextInstance@@V?$allocator@USHyperlink@CGraphicTextInstance@@@std@@@std@@QAE@XZ PROC ; std::vector<CGraphicTextInstance::SHyperlink,std::allocator<CGraphicTextInstance::SHyperlink> >::~vector<CGraphicTextInstance::SHyperlink,std::allocator<CGraphicTextInstance::SHyperlink> >, COMDAT
; _this$ = ecx

; 711  :     _CONSTEXPR20_CONTAINER ~vector() noexcept {

  00000	56		 push	 esi
  00001	57		 push	 edi
  00002	8b f9		 mov	 edi, ecx

; 1763 :         if (_Myfirst) { // destroy and deallocate old array

  00004	8b 37		 mov	 esi, DWORD PTR [edi]
  00006	85 f6		 test	 esi, esi
  00008	74 75		 je	 SHORT $LN4@vector

; 1764 :             _Destroy(_Myfirst, _Mylast);

  0000a	53		 push	 ebx
  0000b	8b 5f 04	 mov	 ebx, DWORD PTR [edi+4]
; File C:\Program Files (x86)\Microsoft Visual Studio\2019\Professional\VC\Tools\MSVC\14.29.30133\include\xmemory

; 949  :         for (; _First != _Last; ++_First) {

  0000e	3b f3		 cmp	 esi, ebx
  00010	74 10		 je	 SHORT $LN10@vector
$LL11@vector:
  00012	8b ce		 mov	 ecx, esi
  00014	e8 00 00 00 00	 call	 ??1SHyperlink@CGraphicTextInstance@@QAE@XZ
  00019	83 c6 1c	 add	 esi, 28			; 0000001cH
  0001c	3b f3		 cmp	 esi, ebx
  0001e	75 f2		 jne	 SHORT $LL11@vector
  00020	8b 37		 mov	 esi, DWORD PTR [edi]
$LN10@vector:
; File C:\Program Files (x86)\Microsoft Visual Studio\2019\Professional\VC\Tools\MSVC\14.29.30133\include\vector

; 1765 :             _Getal().deallocate(_Myfirst, static_cast<size_type>(_Myend - _Myfirst));

  00022	8b 4f 08	 mov	 ecx, DWORD PTR [edi+8]
  00025	b8 93 24 49 92	 mov	 eax, -1840700269	; 92492493H
  0002a	2b ce		 sub	 ecx, esi
  0002c	f7 e9		 imul	 ecx
; File C:\Program Files (x86)\Microsoft Visual Studio\2019\Professional\VC\Tools\MSVC\14.29.30133\include\xmemory

; 835  :         _Deallocate<_New_alignof<_Ty>>(_Ptr, sizeof(_Ty) * _Count);

  0002e	5b		 pop	 ebx
; File C:\Program Files (x86)\Microsoft Visual Studio\2019\Professional\VC\Tools\MSVC\14.29.30133\include\vector

; 1765 :             _Getal().deallocate(_Myfirst, static_cast<size_type>(_Myend - _Myfirst));

  0002f	03 d1		 add	 edx, ecx
  00031	c1 fa 04	 sar	 edx, 4
  00034	8b c2		 mov	 eax, edx
  00036	c1 e8 1f	 shr	 eax, 31			; 0000001fH
  00039	03 c2		 add	 eax, edx
; File C:\Program Files (x86)\Microsoft Visual Studio\2019\Professional\VC\Tools\MSVC\14.29.30133\include\xmemory

; 835  :         _Deallocate<_New_alignof<_Ty>>(_Ptr, sizeof(_Ty) * _Count);

  0003b	8d 0c c5 00 00
	00 00		 lea	 ecx, DWORD PTR [eax*8]
  00042	2b c8		 sub	 ecx, eax
  00044	c1 e1 02	 shl	 ecx, 2

; 260  :         if (_Bytes >= _Big_allocation_threshold) { // boost the alignment of big allocations to help autovectorization

  00047	81 f9 00 10 00
	00		 cmp	 ecx, 4096		; 00001000H
  0004d	72 12		 jb	 SHORT $LN32@vector

; 158  :     const uintptr_t _Ptr_container   = _Ptr_user[-1];

  0004f	8b 46 fc	 mov	 eax, DWORD PTR [esi-4]
  00052	83 c1 23	 add	 ecx, 35			; 00000023H

; 159  : 
; 160  :     // If the following asserts, it likely means that we are performing
; 161  :     // an aligned delete on memory coming from an unaligned allocation.
; 162  :     _STL_ASSERT(_Ptr_user[-2] == _Big_allocation_sentinel, "invalid argument");
; 163  : 
; 164  :     // Extra paranoia on aligned allocation/deallocation; ensure _Ptr_container is
; 165  :     // in range [_Min_back_shift, _Non_user_size]
; 166  : #ifdef _DEBUG
; 167  :     constexpr uintptr_t _Min_back_shift = 2 * sizeof(void*);
; 168  : #else // ^^^ _DEBUG ^^^ // vvv !_DEBUG vvv
; 169  :     constexpr uintptr_t _Min_back_shift = sizeof(void*);
; 170  : #endif // _DEBUG
; 171  :     const uintptr_t _Back_shift = reinterpret_cast<uintptr_t>(_Ptr) - _Ptr_container;

  00055	2b f0		 sub	 esi, eax

; 172  :     _STL_VERIFY(_Back_shift >= _Min_back_shift && _Back_shift <= _Non_user_size, "invalid argument");

  00057	83 c6 fc	 add	 esi, -4			; fffffffcH
  0005a	83 fe 1f	 cmp	 esi, 31			; 0000001fH
  0005d	77 23		 ja	 SHORT $LN29@vector

; 173  :     _Ptr = reinterpret_cast<void*>(_Ptr_container);

  0005f	8b f0		 mov	 esi, eax
$LN32@vector:

; 264  :         ::operator delete(_Ptr, _Bytes);

  00061	51		 push	 ecx
  00062	56		 push	 esi
  00063	e8 00 00 00 00	 call	 ??3@YAXPAXI@Z		; operator delete
; File C:\Program Files (x86)\Microsoft Visual Studio\2019\Professional\VC\Tools\MSVC\14.29.30133\include\vector

; 1767 :             _Myfirst = nullptr;

  00068	c7 07 00 00 00
	00		 mov	 DWORD PTR [edi], 0
; File C:\Program Files (x86)\Microsoft Visual Studio\2019\Professional\VC\Tools\MSVC\14.29.30133\include\xmemory

; 264  :         ::operator delete(_Ptr, _Bytes);

  0006e	83 c4 08	 add	 esp, 8
; File C:\Program Files (x86)\Microsoft Visual Studio\2019\Professional\VC\Tools\MSVC\14.29.30133\include\vector

; 1768 :             _Mylast  = nullptr;

  00071	c7 47 04 00 00
	00 00		 mov	 DWORD PTR [edi+4], 0

; 1769 :             _Myend   = nullptr;

  00078	c7 47 08 00 00
	00 00		 mov	 DWORD PTR [edi+8], 0
$LN4@vector:
  0007f	5f		 pop	 edi

; 717  :     }

  00080	5e		 pop	 esi
  00081	c3		 ret	 0
$LN29@vector:
; File C:\Program Files (x86)\Microsoft Visual Studio\2019\Professional\VC\Tools\MSVC\14.29.30133\include\xmemory

; 172  :     _STL_VERIFY(_Back_shift >= _Min_back_shift && _Back_shift <= _Non_user_size, "invalid argument");

  00082	e8 00 00 00 00	 call	 __invalid_parameter_noinfo_noreturn
$LN41@vector:
  00087	cc		 int	 3
??1?$vector@USHyperlink@CGraphicTextInstance@@V?$allocator@USHyperlink@CGraphicTextInstance@@@std@@@std@@QAE@XZ ENDP ; std::vector<CGraphicTextInstance::SHyperlink,std::allocator<CGraphicTextInstance::SHyperlink> >::~vector<CGraphicTextInstance::SHyperlink,std::allocator<CGraphicTextInstance::SHyperlink> >
_TEXT	ENDS
; Function compile flags: /Ogtp
; File C:\Program Files (x86)\Microsoft Visual Studio\2019\Professional\VC\Tools\MSVC\14.29.30133\include\xmemory
;	COMDAT ?deallocate@?$allocator@USHyperlink@CGraphicTextInstance@@@std@@QAEXQAUSHyperlink@CGraphicTextInstance@@I@Z
_TEXT	SEGMENT
__Ptr$ = 8						; size = 4
__Count$ = 12						; size = 4
?deallocate@?$allocator@USHyperlink@CGraphicTextInstance@@@std@@QAEXQAUSHyperlink@CGraphicTextInstance@@I@Z PROC ; std::allocator<CGraphicTextInstance::SHyperlink>::deallocate, COMDAT
; _this$ = ecx

; 833  :     _CONSTEXPR20_DYNALLOC void deallocate(_Ty* const _Ptr, const size_t _Count) {

  00000	55		 push	 ebp
  00001	8b ec		 mov	 ebp, esp

; 834  :         // no overflow check on the following multiply; we assume _Allocate did that check
; 835  :         _Deallocate<_New_alignof<_Ty>>(_Ptr, sizeof(_Ty) * _Count);

  00003	8b 45 0c	 mov	 eax, DWORD PTR __Count$[ebp]
  00006	8d 0c c5 00 00
	00 00		 lea	 ecx, DWORD PTR [eax*8]
  0000d	2b c8		 sub	 ecx, eax
  0000f	8b 45 08	 mov	 eax, DWORD PTR __Ptr$[ebp]
  00012	c1 e1 02	 shl	 ecx, 2

; 260  :         if (_Bytes >= _Big_allocation_threshold) { // boost the alignment of big allocations to help autovectorization

  00015	81 f9 00 10 00
	00		 cmp	 ecx, 4096		; 00001000H
  0001b	72 12		 jb	 SHORT $LN15@deallocate

; 158  :     const uintptr_t _Ptr_container   = _Ptr_user[-1];

  0001d	8b 50 fc	 mov	 edx, DWORD PTR [eax-4]
  00020	83 c1 23	 add	 ecx, 35			; 00000023H

; 159  : 
; 160  :     // If the following asserts, it likely means that we are performing
; 161  :     // an aligned delete on memory coming from an unaligned allocation.
; 162  :     _STL_ASSERT(_Ptr_user[-2] == _Big_allocation_sentinel, "invalid argument");
; 163  : 
; 164  :     // Extra paranoia on aligned allocation/deallocation; ensure _Ptr_container is
; 165  :     // in range [_Min_back_shift, _Non_user_size]
; 166  : #ifdef _DEBUG
; 167  :     constexpr uintptr_t _Min_back_shift = 2 * sizeof(void*);
; 168  : #else // ^^^ _DEBUG ^^^ // vvv !_DEBUG vvv
; 169  :     constexpr uintptr_t _Min_back_shift = sizeof(void*);
; 170  : #endif // _DEBUG
; 171  :     const uintptr_t _Back_shift = reinterpret_cast<uintptr_t>(_Ptr) - _Ptr_container;

  00023	2b c2		 sub	 eax, edx

; 172  :     _STL_VERIFY(_Back_shift >= _Min_back_shift && _Back_shift <= _Non_user_size, "invalid argument");

  00025	83 c0 fc	 add	 eax, -4			; fffffffcH
  00028	83 f8 1f	 cmp	 eax, 31			; 0000001fH
  0002b	77 10		 ja	 SHORT $LN12@deallocate

; 173  :     _Ptr = reinterpret_cast<void*>(_Ptr_container);

  0002d	8b c2		 mov	 eax, edx
$LN15@deallocate:

; 264  :         ::operator delete(_Ptr, _Bytes);

  0002f	51		 push	 ecx
  00030	50		 push	 eax
  00031	e8 00 00 00 00	 call	 ??3@YAXPAXI@Z		; operator delete
  00036	83 c4 08	 add	 esp, 8

; 836  :     }

  00039	5d		 pop	 ebp
  0003a	c2 08 00	 ret	 8
$LN12@deallocate:

; 172  :     _STL_VERIFY(_Back_shift >= _Min_back_shift && _Back_shift <= _Non_user_size, "invalid argument");

  0003d	e8 00 00 00 00	 call	 __invalid_parameter_noinfo_noreturn
$LN18@deallocate:
  00042	cc		 int	 3
?deallocate@?$allocator@USHyperlink@CGraphicTextInstance@@@std@@QAEXQAUSHyperlink@CGraphicTextInstance@@I@Z ENDP ; std::allocator<CGraphicTextInstance::SHyperlink>::deallocate
_TEXT	ENDS
; Function compile flags: /Ogtp
; File C:\Program Files (x86)\Microsoft Visual Studio\2019\Professional\VC\Tools\MSVC\14.29.30133\include\vector
;	COMDAT ?_Xlength@?$vector@KV?$allocator@K@std@@@std@@CAXXZ
_TEXT	SEGMENT
?_Xlength@?$vector@KV?$allocator@K@std@@@std@@CAXXZ PROC ; std::vector<unsigned long,std::allocator<unsigned long> >::_Xlength, COMDAT

; 1774 :         _Xlength_error("vector too long");

  00000	68 00 00 00 00	 push	 OFFSET ??_C@_0BA@FOIKENOD@vector?5too?5long@
  00005	e8 00 00 00 00	 call	 ?_Xlength_error@std@@YAXPBD@Z ; std::_Xlength_error
$LN3@Xlength:
  0000a	cc		 int	 3
?_Xlength@?$vector@KV?$allocator@K@std@@@std@@CAXXZ ENDP ; std::vector<unsigned long,std::allocator<unsigned long> >::_Xlength
_TEXT	ENDS
; Function compile flags: /Ogtp
; File C:\Program Files (x86)\Microsoft Visual Studio\2019\Professional\VC\Tools\MSVC\14.29.30133\include\vector
; File C:\Program Files (x86)\Microsoft Visual Studio\2019\Professional\VC\Tools\MSVC\14.29.30133\include\xmemory
; File C:\Program Files (x86)\Microsoft Visual Studio\2019\Professional\VC\Tools\MSVC\14.29.30133\include\vector
; File C:\Program Files (x86)\Microsoft Visual Studio\2019\Professional\VC\Tools\MSVC\14.29.30133\include\xmemory
; File C:\Program Files (x86)\Microsoft Visual Studio\2019\Professional\VC\Tools\MSVC\14.29.30133\include\vector
; File C:\Program Files (x86)\Microsoft Visual Studio\2019\Professional\VC\Tools\MSVC\14.29.30133\include\xmemory
; File C:\Program Files (x86)\Microsoft Visual Studio\2019\Professional\VC\Tools\MSVC\14.29.30133\include\vector
;	COMDAT ??1?$vector@KV?$allocator@K@std@@@std@@QAE@XZ
_TEXT	SEGMENT
??1?$vector@KV?$allocator@K@std@@@std@@QAE@XZ PROC	; std::vector<unsigned long,std::allocator<unsigned long> >::~vector<unsigned long,std::allocator<unsigned long> >, COMDAT
; _this$ = ecx

; 711  :     _CONSTEXPR20_CONTAINER ~vector() noexcept {

  00000	56		 push	 esi
  00001	8b f1		 mov	 esi, ecx

; 1763 :         if (_Myfirst) { // destroy and deallocate old array

  00003	8b 06		 mov	 eax, DWORD PTR [esi]
  00005	85 c0		 test	 eax, eax
  00007	74 40		 je	 SHORT $LN4@vector

; 1764 :             _Destroy(_Myfirst, _Mylast);
; 1765 :             _Getal().deallocate(_Myfirst, static_cast<size_type>(_Myend - _Myfirst));

  00009	8b 4e 08	 mov	 ecx, DWORD PTR [esi+8]
  0000c	2b c8		 sub	 ecx, eax
; File C:\Program Files (x86)\Microsoft Visual Studio\2019\Professional\VC\Tools\MSVC\14.29.30133\include\xmemory

; 835  :         _Deallocate<_New_alignof<_Ty>>(_Ptr, sizeof(_Ty) * _Count);

  0000e	83 e1 fc	 and	 ecx, -4			; fffffffcH

; 260  :         if (_Bytes >= _Big_allocation_threshold) { // boost the alignment of big allocations to help autovectorization

  00011	81 f9 00 10 00
	00		 cmp	 ecx, 4096		; 00001000H
  00017	72 12		 jb	 SHORT $LN20@vector

; 158  :     const uintptr_t _Ptr_container   = _Ptr_user[-1];

  00019	8b 50 fc	 mov	 edx, DWORD PTR [eax-4]
  0001c	83 c1 23	 add	 ecx, 35			; 00000023H

; 159  : 
; 160  :     // If the following asserts, it likely means that we are performing
; 161  :     // an aligned delete on memory coming from an unaligned allocation.
; 162  :     _STL_ASSERT(_Ptr_user[-2] == _Big_allocation_sentinel, "invalid argument");
; 163  : 
; 164  :     // Extra paranoia on aligned allocation/deallocation; ensure _Ptr_container is
; 165  :     // in range [_Min_back_shift, _Non_user_size]
; 166  : #ifdef _DEBUG
; 167  :     constexpr uintptr_t _Min_back_shift = 2 * sizeof(void*);
; 168  : #else // ^^^ _DEBUG ^^^ // vvv !_DEBUG vvv
; 169  :     constexpr uintptr_t _Min_back_shift = sizeof(void*);
; 170  : #endif // _DEBUG
; 171  :     const uintptr_t _Back_shift = reinterpret_cast<uintptr_t>(_Ptr) - _Ptr_container;

  0001f	2b c2		 sub	 eax, edx

; 172  :     _STL_VERIFY(_Back_shift >= _Min_back_shift && _Back_shift <= _Non_user_size, "invalid argument");

  00021	83 c0 fc	 add	 eax, -4			; fffffffcH
  00024	83 f8 1f	 cmp	 eax, 31			; 0000001fH
  00027	77 22		 ja	 SHORT $LN17@vector

; 173  :     _Ptr = reinterpret_cast<void*>(_Ptr_container);

  00029	8b c2		 mov	 eax, edx
$LN20@vector:

; 264  :         ::operator delete(_Ptr, _Bytes);

  0002b	51		 push	 ecx
  0002c	50		 push	 eax
  0002d	e8 00 00 00 00	 call	 ??3@YAXPAXI@Z		; operator delete
; File C:\Program Files (x86)\Microsoft Visual Studio\2019\Professional\VC\Tools\MSVC\14.29.30133\include\vector

; 1767 :             _Myfirst = nullptr;

  00032	c7 06 00 00 00
	00		 mov	 DWORD PTR [esi], 0
; File C:\Program Files (x86)\Microsoft Visual Studio\2019\Professional\VC\Tools\MSVC\14.29.30133\include\xmemory

; 264  :         ::operator delete(_Ptr, _Bytes);

  00038	83 c4 08	 add	 esp, 8
; File C:\Program Files (x86)\Microsoft Visual Studio\2019\Professional\VC\Tools\MSVC\14.29.30133\include\vector

; 1768 :             _Mylast  = nullptr;

  0003b	c7 46 04 00 00
	00 00		 mov	 DWORD PTR [esi+4], 0

; 1769 :             _Myend   = nullptr;

  00042	c7 46 08 00 00
	00 00		 mov	 DWORD PTR [esi+8], 0
$LN4@vector:
  00049	5e		 pop	 esi

; 717  :     }

  0004a	c3		 ret	 0
$LN17@vector:
; File C:\Program Files (x86)\Microsoft Visual Studio\2019\Professional\VC\Tools\MSVC\14.29.30133\include\xmemory

; 172  :     _STL_VERIFY(_Back_shift >= _Min_back_shift && _Back_shift <= _Non_user_size, "invalid argument");

  0004b	e8 00 00 00 00	 call	 __invalid_parameter_noinfo_noreturn
$LN25@vector:
  00050	cc		 int	 3
??1?$vector@KV?$allocator@K@std@@@std@@QAE@XZ ENDP	; std::vector<unsigned long,std::allocator<unsigned long> >::~vector<unsigned long,std::allocator<unsigned long> >
_TEXT	ENDS
; Function compile flags: /Ogtp
; File C:\Program Files (x86)\Microsoft Visual Studio\2019\Professional\VC\Tools\MSVC\14.29.30133\include\vector
;	COMDAT ?_Xlength@?$vector@PAUSCharacterInfomation@CGraphicFontTexture@@V?$allocator@PAUSCharacterInfomation@CGraphicFontTexture@@@std@@@std@@CAXXZ
_TEXT	SEGMENT
?_Xlength@?$vector@PAUSCharacterInfomation@CGraphicFontTexture@@V?$allocator@PAUSCharacterInfomation@CGraphicFontTexture@@@std@@@std@@CAXXZ PROC ; std::vector<CGraphicFontTexture::SCharacterInfomation *,std::allocator<CGraphicFontTexture::SCharacterInfomation *> >::_Xlength, COMDAT

; 1774 :         _Xlength_error("vector too long");

  00000	68 00 00 00 00	 push	 OFFSET ??_C@_0BA@FOIKENOD@vector?5too?5long@
  00005	e8 00 00 00 00	 call	 ?_Xlength_error@std@@YAXPBD@Z ; std::_Xlength_error
$LN3@Xlength:
  0000a	cc		 int	 3
?_Xlength@?$vector@PAUSCharacterInfomation@CGraphicFontTexture@@V?$allocator@PAUSCharacterInfomation@CGraphicFontTexture@@@std@@@std@@CAXXZ ENDP ; std::vector<CGraphicFontTexture::SCharacterInfomation *,std::allocator<CGraphicFontTexture::SCharacterInfomation *> >::_Xlength
_TEXT	ENDS
; Function compile flags: /Ogtp
; File C:\Program Files (x86)\Microsoft Visual Studio\2019\Professional\VC\Tools\MSVC\14.29.30133\include\vector
; File C:\Program Files (x86)\Microsoft Visual Studio\2019\Professional\VC\Tools\MSVC\14.29.30133\include\xmemory
; File C:\Program Files (x86)\Microsoft Visual Studio\2019\Professional\VC\Tools\MSVC\14.29.30133\include\vector
; File C:\Program Files (x86)\Microsoft Visual Studio\2019\Professional\VC\Tools\MSVC\14.29.30133\include\xmemory
; File C:\Program Files (x86)\Microsoft Visual Studio\2019\Professional\VC\Tools\MSVC\14.29.30133\include\vector
; File C:\Program Files (x86)\Microsoft Visual Studio\2019\Professional\VC\Tools\MSVC\14.29.30133\include\xmemory
; File C:\Program Files (x86)\Microsoft Visual Studio\2019\Professional\VC\Tools\MSVC\14.29.30133\include\vector
;	COMDAT ??1?$vector@PAUSCharacterInfomation@CGraphicFontTexture@@V?$allocator@PAUSCharacterInfomation@CGraphicFontTexture@@@std@@@std@@QAE@XZ
_TEXT	SEGMENT
??1?$vector@PAUSCharacterInfomation@CGraphicFontTexture@@V?$allocator@PAUSCharacterInfomation@CGraphicFontTexture@@@std@@@std@@QAE@XZ PROC ; std::vector<CGraphicFontTexture::SCharacterInfomation *,std::allocator<CGraphicFontTexture::SCharacterInfomation *> >::~vector<CGraphicFontTexture::SCharacterInfomation *,std::allocator<CGraphicFontTexture::SCharacterInfomation *> >, COMDAT
; _this$ = ecx

; 711  :     _CONSTEXPR20_CONTAINER ~vector() noexcept {

  00000	56		 push	 esi
  00001	8b f1		 mov	 esi, ecx

; 1763 :         if (_Myfirst) { // destroy and deallocate old array

  00003	8b 06		 mov	 eax, DWORD PTR [esi]
  00005	85 c0		 test	 eax, eax
  00007	74 40		 je	 SHORT $LN4@vector

; 1764 :             _Destroy(_Myfirst, _Mylast);
; 1765 :             _Getal().deallocate(_Myfirst, static_cast<size_type>(_Myend - _Myfirst));

  00009	8b 4e 08	 mov	 ecx, DWORD PTR [esi+8]
  0000c	2b c8		 sub	 ecx, eax
; File C:\Program Files (x86)\Microsoft Visual Studio\2019\Professional\VC\Tools\MSVC\14.29.30133\include\xmemory

; 835  :         _Deallocate<_New_alignof<_Ty>>(_Ptr, sizeof(_Ty) * _Count);

  0000e	83 e1 fc	 and	 ecx, -4			; fffffffcH

; 260  :         if (_Bytes >= _Big_allocation_threshold) { // boost the alignment of big allocations to help autovectorization

  00011	81 f9 00 10 00
	00		 cmp	 ecx, 4096		; 00001000H
  00017	72 12		 jb	 SHORT $LN20@vector

; 158  :     const uintptr_t _Ptr_container   = _Ptr_user[-1];

  00019	8b 50 fc	 mov	 edx, DWORD PTR [eax-4]
  0001c	83 c1 23	 add	 ecx, 35			; 00000023H

; 159  : 
; 160  :     // If the following asserts, it likely means that we are performing
; 161  :     // an aligned delete on memory coming from an unaligned allocation.
; 162  :     _STL_ASSERT(_Ptr_user[-2] == _Big_allocation_sentinel, "invalid argument");
; 163  : 
; 164  :     // Extra paranoia on aligned allocation/deallocation; ensure _Ptr_container is
; 165  :     // in range [_Min_back_shift, _Non_user_size]
; 166  : #ifdef _DEBUG
; 167  :     constexpr uintptr_t _Min_back_shift = 2 * sizeof(void*);
; 168  : #else // ^^^ _DEBUG ^^^ // vvv !_DEBUG vvv
; 169  :     constexpr uintptr_t _Min_back_shift = sizeof(void*);
; 170  : #endif // _DEBUG
; 171  :     const uintptr_t _Back_shift = reinterpret_cast<uintptr_t>(_Ptr) - _Ptr_container;

  0001f	2b c2		 sub	 eax, edx

; 172  :     _STL_VERIFY(_Back_shift >= _Min_back_shift && _Back_shift <= _Non_user_size, "invalid argument");

  00021	83 c0 fc	 add	 eax, -4			; fffffffcH
  00024	83 f8 1f	 cmp	 eax, 31			; 0000001fH
  00027	77 22		 ja	 SHORT $LN17@vector

; 173  :     _Ptr = reinterpret_cast<void*>(_Ptr_container);

  00029	8b c2		 mov	 eax, edx
$LN20@vector:

; 264  :         ::operator delete(_Ptr, _Bytes);

  0002b	51		 push	 ecx
  0002c	50		 push	 eax
  0002d	e8 00 00 00 00	 call	 ??3@YAXPAXI@Z		; operator delete
; File C:\Program Files (x86)\Microsoft Visual Studio\2019\Professional\VC\Tools\MSVC\14.29.30133\include\vector

; 1767 :             _Myfirst = nullptr;

  00032	c7 06 00 00 00
	00		 mov	 DWORD PTR [esi], 0
; File C:\Program Files (x86)\Microsoft Visual Studio\2019\Professional\VC\Tools\MSVC\14.29.30133\include\xmemory

; 264  :         ::operator delete(_Ptr, _Bytes);

  00038	83 c4 08	 add	 esp, 8
; File C:\Program Files (x86)\Microsoft Visual Studio\2019\Professional\VC\Tools\MSVC\14.29.30133\include\vector

; 1768 :             _Mylast  = nullptr;

  0003b	c7 46 04 00 00
	00 00		 mov	 DWORD PTR [esi+4], 0

; 1769 :             _Myend   = nullptr;

  00042	c7 46 08 00 00
	00 00		 mov	 DWORD PTR [esi+8], 0
$LN4@vector:
  00049	5e		 pop	 esi

; 717  :     }

  0004a	c3		 ret	 0
$LN17@vector:
; File C:\Program Files (x86)\Microsoft Visual Studio\2019\Professional\VC\Tools\MSVC\14.29.30133\include\xmemory

; 172  :     _STL_VERIFY(_Back_shift >= _Min_back_shift && _Back_shift <= _Non_user_size, "invalid argument");

  0004b	e8 00 00 00 00	 call	 __invalid_parameter_noinfo_noreturn
$LN25@vector:
  00050	cc		 int	 3
??1?$vector@PAUSCharacterInfomation@CGraphicFontTexture@@V?$allocator@PAUSCharacterInfomation@CGraphicFontTexture@@@std@@@std@@QAE@XZ ENDP ; std::vector<CGraphicFontTexture::SCharacterInfomation *,std::allocator<CGraphicFontTexture::SCharacterInfomation *> >::~vector<CGraphicFontTexture::SCharacterInfomation *,std::allocator<CGraphicFontTexture::SCharacterInfomation *> >
_TEXT	ENDS
; Function compile flags: /Ogtp
; File C:\Users\murat\Desktop\Siveps2-1-99-Project\source\client\Client\EterLib\Ref.h
;	COMDAT ??1?$CRef@VCGraphicText@@@@QAE@XZ
_TEXT	SEGMENT
__$EHRec$ = -12						; size = 12
??1?$CRef@VCGraphicText@@@@QAE@XZ PROC			; CRef<CGraphicText>::~CRef<CGraphicText>, COMDAT
; _this$ = ecx

; 37   : 		{

  00000	55		 push	 ebp
  00001	8b ec		 mov	 ebp, esp
  00003	6a ff		 push	 -1
  00005	68 00 00 00 00	 push	 __ehhandler$??1?$CRef@VCGraphicText@@@@QAE@XZ
  0000a	64 a1 00 00 00
	00		 mov	 eax, DWORD PTR fs:0
  00010	50		 push	 eax
  00011	56		 push	 esi
  00012	a1 00 00 00 00	 mov	 eax, DWORD PTR ___security_cookie
  00017	33 c5		 xor	 eax, ebp
  00019	50		 push	 eax
  0001a	8d 45 f4	 lea	 eax, DWORD PTR __$EHRec$[ebp]
  0001d	64 a3 00 00 00
	00		 mov	 DWORD PTR fs:0, eax
  00023	8b f1		 mov	 esi, ecx

; 53   : 			if (m_pObject)

  00025	8b 0e		 mov	 ecx, DWORD PTR [esi]
  00027	85 c9		 test	 ecx, ecx
  00029	74 0b		 je	 SHORT $LN4@CRef

; 54   : 			{
; 55   : 				m_pObject->Release();

  0002b	e8 00 00 00 00	 call	 ?Release@CReferenceObject@@QAEXXZ ; CReferenceObject::Release

; 56   : 				m_pObject = NULL;

  00030	c7 06 00 00 00
	00		 mov	 DWORD PTR [esi], 0
$LN4@CRef:

; 38   : 			Clear();
; 39   : 		}

  00036	8b 4d f4	 mov	 ecx, DWORD PTR __$EHRec$[ebp]
  00039	64 89 0d 00 00
	00 00		 mov	 DWORD PTR fs:0, ecx
  00040	59		 pop	 ecx
  00041	5e		 pop	 esi
  00042	8b e5		 mov	 esp, ebp
  00044	5d		 pop	 ebp
  00045	c3		 ret	 0
  00046	cc		 int	 3
  00047	cc		 int	 3
  00048	cc		 int	 3
  00049	cc		 int	 3
  0004a	cc		 int	 3
_TEXT	ENDS
;	COMDAT text$x
text$x	SEGMENT
__ehhandler$??1?$CRef@VCGraphicText@@@@QAE@XZ:
  00000	90		 npad	 1
  00001	90		 npad	 1
  00002	8b 54 24 08	 mov	 edx, DWORD PTR [esp+8]
  00006	8d 42 0c	 lea	 eax, DWORD PTR [edx+12]
  00009	8b 4a f8	 mov	 ecx, DWORD PTR [edx-8]
  0000c	33 c8		 xor	 ecx, eax
  0000e	e8 00 00 00 00	 call	 @__security_check_cookie@4
  00013	b8 00 00 00 00	 mov	 eax, OFFSET __ehfuncinfo$??1?$CRef@VCGraphicText@@@@QAE@XZ
  00018	e9 00 00 00 00	 jmp	 ___CxxFrameHandler3
text$x	ENDS
??1?$CRef@VCGraphicText@@@@QAE@XZ ENDP			; CRef<CGraphicText>::~CRef<CGraphicText>
; Function compile flags: /Ogtp
; File C:\Program Files (x86)\Microsoft Visual Studio\2019\Professional\VC\Tools\MSVC\14.29.30133\include\xstring
; File C:\Program Files (x86)\Microsoft Visual Studio\2019\Professional\VC\Tools\MSVC\14.29.30133\include\xmemory
; File C:\Program Files (x86)\Microsoft Visual Studio\2019\Professional\VC\Tools\MSVC\14.29.30133\include\xstring
; File C:\Program Files (x86)\Microsoft Visual Studio\2019\Professional\VC\Tools\MSVC\14.29.30133\include\xmemory
;	COMDAT ??1SHyperlink@CGraphicTextInstance@@QAE@XZ
_TEXT	SEGMENT
??1SHyperlink@CGraphicTextInstance@@QAE@XZ PROC		; CGraphicTextInstance::SHyperlink::~SHyperlink, COMDAT
; _this$ = ecx
; File C:\Program Files (x86)\Microsoft Visual Studio\2019\Professional\VC\Tools\MSVC\14.29.30133\include\xstring

; 2319 :         return _BUF_SIZE <= _Myres;

  00000	56		 push	 esi
  00001	8b f1		 mov	 esi, ecx
  00003	8b 4e 18	 mov	 ecx, DWORD PTR [esi+24]
  00006	83 f9 08	 cmp	 ecx, 8

; 4618 :         if (_Mypair._Myval2._Large_string_engaged()) {

  00009	72 2e		 jb	 SHORT $LN15@SHyperlink
; File C:\Program Files (x86)\Microsoft Visual Studio\2019\Professional\VC\Tools\MSVC\14.29.30133\include\xmemory

; 835  :         _Deallocate<_New_alignof<_Ty>>(_Ptr, sizeof(_Ty) * _Count);

  0000b	8b 46 04	 mov	 eax, DWORD PTR [esi+4]
  0000e	8d 0c 4d 02 00
	00 00		 lea	 ecx, DWORD PTR [ecx*2+2]

; 260  :         if (_Bytes >= _Big_allocation_threshold) { // boost the alignment of big allocations to help autovectorization

  00015	81 f9 00 10 00
	00		 cmp	 ecx, 4096		; 00001000H
  0001b	72 12		 jb	 SHORT $LN25@SHyperlink

; 158  :     const uintptr_t _Ptr_container   = _Ptr_user[-1];

  0001d	8b 50 fc	 mov	 edx, DWORD PTR [eax-4]
  00020	83 c1 23	 add	 ecx, 35			; 00000023H

; 159  : 
; 160  :     // If the following asserts, it likely means that we are performing
; 161  :     // an aligned delete on memory coming from an unaligned allocation.
; 162  :     _STL_ASSERT(_Ptr_user[-2] == _Big_allocation_sentinel, "invalid argument");
; 163  : 
; 164  :     // Extra paranoia on aligned allocation/deallocation; ensure _Ptr_container is
; 165  :     // in range [_Min_back_shift, _Non_user_size]
; 166  : #ifdef _DEBUG
; 167  :     constexpr uintptr_t _Min_back_shift = 2 * sizeof(void*);
; 168  : #else // ^^^ _DEBUG ^^^ // vvv !_DEBUG vvv
; 169  :     constexpr uintptr_t _Min_back_shift = sizeof(void*);
; 170  : #endif // _DEBUG
; 171  :     const uintptr_t _Back_shift = reinterpret_cast<uintptr_t>(_Ptr) - _Ptr_container;

  00023	2b c2		 sub	 eax, edx

; 172  :     _STL_VERIFY(_Back_shift >= _Min_back_shift && _Back_shift <= _Non_user_size, "invalid argument");

  00025	83 c0 fc	 add	 eax, -4			; fffffffcH
  00028	83 f8 1f	 cmp	 eax, 31			; 0000001fH
  0002b	77 22		 ja	 SHORT $LN22@SHyperlink

; 173  :     _Ptr = reinterpret_cast<void*>(_Ptr_container);

  0002d	8b c2		 mov	 eax, edx
$LN25@SHyperlink:

; 264  :         ::operator delete(_Ptr, _Bytes);

  0002f	51		 push	 ecx
  00030	50		 push	 eax
  00031	e8 00 00 00 00	 call	 ??3@YAXPAXI@Z		; operator delete
  00036	83 c4 08	 add	 esp, 8
$LN15@SHyperlink:
; File C:\Program Files (x86)\Microsoft Visual Studio\2019\Professional\VC\Tools\MSVC\14.29.30133\include\xstring

; 4636 :             _Traits::assign(_Mypair._Myval2._Bx._Buf[0], _Elem());

  00039	33 c0		 xor	 eax, eax
  0003b	c7 46 14 00 00
	00 00		 mov	 DWORD PTR [esi+20], 0
  00042	c7 46 18 07 00
	00 00		 mov	 DWORD PTR [esi+24], 7
  00049	66 89 46 04	 mov	 WORD PTR [esi+4], ax
  0004d	5e		 pop	 esi
  0004e	c3		 ret	 0
$LN22@SHyperlink:
; File C:\Program Files (x86)\Microsoft Visual Studio\2019\Professional\VC\Tools\MSVC\14.29.30133\include\xmemory

; 172  :     _STL_VERIFY(_Back_shift >= _Min_back_shift && _Back_shift <= _Non_user_size, "invalid argument");

  0004f	e8 00 00 00 00	 call	 __invalid_parameter_noinfo_noreturn
$LN31@SHyperlink:
  00054	cc		 int	 3
??1SHyperlink@CGraphicTextInstance@@QAE@XZ ENDP		; CGraphicTextInstance::SHyperlink::~SHyperlink
_TEXT	ENDS
; Function compile flags: /Ogtp
; File C:\Users\murat\Desktop\Siveps2-1-99-Project\source\client\Client\EterLib\GrpTextInstance.cpp
; File C:\Program Files (x86)\Microsoft Visual Studio\2019\Professional\VC\Tools\MSVC\14.29.30133\include\vector
; File C:\Users\murat\Desktop\Siveps2-1-99-Project\source\client\Client\EterLib\GrpTextInstance.cpp
; File C:\Program Files (x86)\Microsoft Visual Studio\2019\Professional\VC\Tools\MSVC\14.29.30133\include\vector
; File C:\Users\murat\Desktop\Siveps2-1-99-Project\source\client\Client\EterLib\GrpTextInstance.cpp
;	COMDAT ?__GetTextPos@CGraphicTextInstance@@IAEXKPAM0@Z
_TEXT	SEGMENT
_index$ = 8						; size = 4
_x$ = 12						; size = 4
_y$ = 16						; size = 4
?__GetTextPos@CGraphicTextInstance@@IAEXKPAM0@Z PROC	; CGraphicTextInstance::__GetTextPos, COMDAT
; _this$ = ecx

; 59   : {

  00000	55		 push	 ebp
  00001	8b ec		 mov	 ebp, esp
  00003	56		 push	 esi
; File C:\Program Files (x86)\Microsoft Visual Studio\2019\Professional\VC\Tools\MSVC\14.29.30133\include\vector

; 1549 :         return static_cast<size_type>(_My_data._Mylast - _My_data._Myfirst);

  00004	8b 71 50	 mov	 esi, DWORD PTR [ecx+80]
  00007	0f 57 c9	 xorps	 xmm1, xmm1
; File C:\Users\murat\Desktop\Siveps2-1-99-Project\source\client\Client\EterLib\GrpTextInstance.cpp

; 59   : {

  0000a	57		 push	 edi
; File C:\Program Files (x86)\Microsoft Visual Studio\2019\Professional\VC\Tools\MSVC\14.29.30133\include\vector

; 1549 :         return static_cast<size_type>(_My_data._Mylast - _My_data._Myfirst);

  0000b	8b 79 4c	 mov	 edi, DWORD PTR [ecx+76]
  0000e	0f 57 db	 xorps	 xmm3, xmm3
  00011	2b f7		 sub	 esi, edi
  00013	0f 57 d2	 xorps	 xmm2, xmm2
  00016	c1 fe 02	 sar	 esi, 2
; File C:\Users\murat\Desktop\Siveps2-1-99-Project\source\client\Client\EterLib\GrpTextInstance.cpp

; 60   : 	index = min(index, m_pCharInfoVector.size());

  00019	39 75 08	 cmp	 DWORD PTR _index$[ebp], esi
  0001c	0f 42 75 08	 cmovb	 esi, DWORD PTR _index$[ebp]
  00020	33 d2		 xor	 edx, edx

; 61   : 
; 62   : 	float sx = 0;
; 63   : 	float sy = 0;
; 64   : 	float fFontMaxHeight = 0;
; 65   : 
; 66   : 	for(DWORD i=0; i<index; ++i)

  00022	85 f6		 test	 esi, esi
  00024	74 47		 je	 SHORT $LN3@GetTextPos

; 67   : 	{
; 68   : 		if (sx+float(m_pCharInfoVector[i]->width) > m_fLimitWidth)

  00026	f3 0f 10 61 14	 movss	 xmm4, DWORD PTR [ecx+20]
  0002b	0f 1f 44 00 00	 npad	 5
$LL4@GetTextPos:
  00030	8b 0c 97	 mov	 ecx, DWORD PTR [edi+edx*4]
  00033	0f bf 41 02	 movsx	 eax, WORD PTR [ecx+2]
  00037	66 0f 6e c0	 movd	 xmm0, eax
  0003b	0f 5b c0	 cvtdq2ps xmm0, xmm0
  0003e	f3 0f 58 c1	 addss	 xmm0, xmm1
  00042	0f 2f c4	 comiss	 xmm0, xmm4
  00045	76 0a		 jbe	 SHORT $LN5@GetTextPos

; 69   : 		{
; 70   : 			sx = 0;
; 71   : 			sy += fFontMaxHeight;

  00047	0f 28 c2	 movaps	 xmm0, xmm2
  0004a	0f 57 c9	 xorps	 xmm1, xmm1
  0004d	f3 0f 58 d8	 addss	 xmm3, xmm0
$LN5@GetTextPos:

; 72   : 		}
; 73   : 
; 74   : 		sx += float(m_pCharInfoVector[i]->advance);
; 75   : 		fFontMaxHeight = max(float(m_pCharInfoVector[i]->height), fFontMaxHeight);

  00051	0f bf 41 04	 movsx	 eax, WORD PTR [ecx+4]
  00055	42		 inc	 edx
  00056	f3 0f 58 49 18	 addss	 xmm1, DWORD PTR [ecx+24]
  0005b	66 0f 6e c0	 movd	 xmm0, eax
  0005f	0f 5b c0	 cvtdq2ps xmm0, xmm0
  00062	f3 0f 5f c2	 maxss	 xmm0, xmm2
  00066	0f 28 d0	 movaps	 xmm2, xmm0
  00069	3b d6		 cmp	 edx, esi
  0006b	72 c3		 jb	 SHORT $LL4@GetTextPos
$LN3@GetTextPos:

; 76   : 	}
; 77   : 
; 78   : 	*x = sx;

  0006d	8b 45 0c	 mov	 eax, DWORD PTR _x$[ebp]

; 79   : 	*y = sy;

  00070	5f		 pop	 edi
  00071	5e		 pop	 esi
  00072	f3 0f 11 08	 movss	 DWORD PTR [eax], xmm1
  00076	8b 45 10	 mov	 eax, DWORD PTR _y$[ebp]
  00079	f3 0f 11 18	 movss	 DWORD PTR [eax], xmm3

; 80   : }

  0007d	5d		 pop	 ebp
  0007e	c2 0c 00	 ret	 12			; 0000000cH
?__GetTextPos@CGraphicTextInstance@@IAEXKPAM0@Z ENDP	; CGraphicTextInstance::__GetTextPos
_TEXT	ENDS
; Function compile flags: /Ogtp
; File C:\Users\murat\Desktop\Siveps2-1-99-Project\source\client\Client\EterLib\GrpTextInstance.cpp
; File C:\Program Files (x86)\Microsoft Visual Studio\2019\Professional\VC\Tools\MSVC\14.29.30133\include\vector
; File C:\Users\murat\Desktop\Siveps2-1-99-Project\source\client\Client\EterLib\GrpTextInstance.cpp
; File C:\Program Files (x86)\Microsoft Visual Studio\2019\Professional\VC\Tools\MSVC\14.29.30133\include\vector
; File C:\Users\murat\Desktop\Siveps2-1-99-Project\source\client\Client\EterLib\GrpTextInstance.cpp
; File C:\Program Files (x86)\Microsoft Visual Studio\2019\Professional\VC\Tools\MSVC\14.29.30133\include\vector
; File C:\Users\murat\Desktop\Siveps2-1-99-Project\source\client\Client\EterLib\GrpTextInstance.cpp
;	COMDAT ?__DrawCharacter@CGraphicTextInstance@@IAEHPAVCGraphicFontTexture@@G_WK@Z
_TEXT	SEGMENT
_pFontTexture$ = 8					; size = 4
_codePage$ = 12						; size = 2
_text$ = 16						; size = 2
_pInsCharInfo$ = 16					; size = 4
_dwColor$ = 20						; size = 4
?__DrawCharacter@CGraphicTextInstance@@IAEHPAVCGraphicFontTexture@@G_WK@Z PROC ; CGraphicTextInstance::__DrawCharacter, COMDAT
; _this$ = ecx

; 42   : {

  00000	55		 push	 ebp
  00001	8b ec		 mov	 ebp, esp
  00003	53		 push	 ebx
  00004	57		 push	 edi

; 43   : 	CGraphicFontTexture::TCharacterInfomation* pInsCharInfo = pFontTexture->GetCharacterInfomation(codePage, text);

  00005	ff 75 10	 push	 DWORD PTR _text$[ebp]
  00008	8b d9		 mov	 ebx, ecx
  0000a	8b 4d 08	 mov	 ecx, DWORD PTR _pFontTexture$[ebp]
  0000d	ff 75 0c	 push	 DWORD PTR _codePage$[ebp]
  00010	e8 00 00 00 00	 call	 ?GetCharacterInfomation@CGraphicFontTexture@@QAEPAUSCharacterInfomation@1@G_W@Z ; CGraphicFontTexture::GetCharacterInfomation
  00015	8b f8		 mov	 edi, eax
  00017	89 7d 10	 mov	 DWORD PTR _pInsCharInfo$[ebp], edi

; 44   : 
; 45   : 	if (pInsCharInfo)

  0001a	85 ff		 test	 edi, edi
  0001c	74 78		 je	 SHORT $LN2@DrawCharac
; File C:\Program Files (x86)\Microsoft Visual Studio\2019\Professional\VC\Tools\MSVC\14.29.30133\include\vector

; 743  :         if (_Mylast != _My_data._Myend) {

  0001e	8b 53 5c	 mov	 edx, DWORD PTR [ebx+92]
; File C:\Users\murat\Desktop\Siveps2-1-99-Project\source\client\Client\EterLib\GrpTextInstance.cpp

; 47   : 		m_dwColorInfoVector.push_back(dwColor);

  00021	8d 4b 58	 lea	 ecx, DWORD PTR [ebx+88]
; File C:\Program Files (x86)\Microsoft Visual Studio\2019\Professional\VC\Tools\MSVC\14.29.30133\include\vector

; 743  :         if (_Mylast != _My_data._Myend) {

  00024	3b 51 08	 cmp	 edx, DWORD PTR [ecx+8]
  00027	74 0b		 je	 SHORT $LN9@DrawCharac

; 726  :         _Alty_traits::construct(_Getal(), _Unfancy(_Mylast), _STD forward<_Valty>(_Val)...);

  00029	8b 45 14	 mov	 eax, DWORD PTR _dwColor$[ebp]
  0002c	89 02		 mov	 DWORD PTR [edx], eax

; 727  :         _Orphan_range(_Mylast, _Mylast);
; 728  :         _Ty& _Result = *_Mylast;
; 729  :         ++_Mylast;

  0002e	83 41 04 04	 add	 DWORD PTR [ecx+4], 4

; 744  :             return _Emplace_back_with_unused_capacity(_STD forward<_Valty>(_Val)...);

  00032	eb 0a		 jmp	 SHORT $LN8@DrawCharac
$LN9@DrawCharac:

; 745  :         }
; 746  : 
; 747  :         _Ty& _Result = *_Emplace_reallocate(_Mylast, _STD forward<_Valty>(_Val)...);

  00034	8d 45 14	 lea	 eax, DWORD PTR _dwColor$[ebp]
  00037	50		 push	 eax
  00038	52		 push	 edx
  00039	e8 00 00 00 00	 call	 ??$_Emplace_reallocate@ABK@?$vector@KV?$allocator@K@std@@@std@@QAEPAKQAKABK@Z ; std::vector<unsigned long,std::allocator<unsigned long> >::_Emplace_reallocate<unsigned long const &>
$LN8@DrawCharac:

; 743  :         if (_Mylast != _My_data._Myend) {

  0003e	8b 43 50	 mov	 eax, DWORD PTR [ebx+80]
; File C:\Users\murat\Desktop\Siveps2-1-99-Project\source\client\Client\EterLib\GrpTextInstance.cpp

; 48   : 		m_pCharInfoVector.push_back(pInsCharInfo);

  00041	8d 4b 4c	 lea	 ecx, DWORD PTR [ebx+76]
; File C:\Program Files (x86)\Microsoft Visual Studio\2019\Professional\VC\Tools\MSVC\14.29.30133\include\vector

; 743  :         if (_Mylast != _My_data._Myend) {

  00044	3b 41 08	 cmp	 eax, DWORD PTR [ecx+8]
  00047	74 08		 je	 SHORT $LN16@DrawCharac

; 726  :         _Alty_traits::construct(_Getal(), _Unfancy(_Mylast), _STD forward<_Valty>(_Val)...);

  00049	89 38		 mov	 DWORD PTR [eax], edi

; 727  :         _Orphan_range(_Mylast, _Mylast);
; 728  :         _Ty& _Result = *_Mylast;
; 729  :         ++_Mylast;

  0004b	83 41 04 04	 add	 DWORD PTR [ecx+4], 4

; 744  :             return _Emplace_back_with_unused_capacity(_STD forward<_Valty>(_Val)...);

  0004f	eb 0a		 jmp	 SHORT $LN15@DrawCharac
$LN16@DrawCharac:

; 745  :         }
; 746  : 
; 747  :         _Ty& _Result = *_Emplace_reallocate(_Mylast, _STD forward<_Valty>(_Val)...);

  00051	8d 55 10	 lea	 edx, DWORD PTR _pInsCharInfo$[ebp]
  00054	52		 push	 edx
  00055	50		 push	 eax
  00056	e8 00 00 00 00	 call	 ??$_Emplace_reallocate@ABQAUSCharacterInfomation@CGraphicFontTexture@@@?$vector@PAUSCharacterInfomation@CGraphicFontTexture@@V?$allocator@PAUSCharacterInfomation@CGraphicFontTexture@@@std@@@std@@QAEPAPAUSCharacterInfomation@CGraphicFontTexture@@QAPAU23@ABQAU23@@Z ; std::vector<CGraphicFontTexture::SCharacterInfomation *,std::allocator<CGraphicFontTexture::SCharacterInfomation *> >::_Emplace_reallocate<CGraphicFontTexture::SCharacterInfomation * const &>
$LN15@DrawCharac:
; File C:\Users\murat\Desktop\Siveps2-1-99-Project\source\client\Client\EterLib\GrpTextInstance.cpp

; 50   : 		m_textWidth += pInsCharInfo->advance;

  0005b	0f b7 43 0c	 movzx	 eax, WORD PTR [ebx+12]

; 51   : 		m_textHeight = max(pInsCharInfo->height, m_textHeight);

  0005f	0f b7 4b 0e	 movzx	 ecx, WORD PTR [ebx+14]
  00063	56		 push	 esi
  00064	66 0f 6e c0	 movd	 xmm0, eax
  00068	0f 5b c0	 cvtdq2ps xmm0, xmm0
  0006b	f3 0f 58 47 18	 addss	 xmm0, DWORD PTR [edi+24]
  00070	f3 0f 2c c0	 cvttss2si eax, xmm0
  00074	66 89 43 0c	 mov	 WORD PTR [ebx+12], ax
  00078	8b c1		 mov	 eax, ecx
  0007a	0f bf 77 04	 movsx	 esi, WORD PTR [edi+4]
  0007e	3b f1		 cmp	 esi, ecx
  00080	0f b7 d6	 movzx	 edx, si

; 52   : 		return pInsCharInfo->advance;

  00083	5e		 pop	 esi
  00084	0f 4e d0	 cmovle	 edx, eax
  00087	66 89 53 0e	 mov	 WORD PTR [ebx+14], dx
  0008b	f3 0f 2c 47 18	 cvttss2si eax, DWORD PTR [edi+24]
  00090	5f		 pop	 edi

; 56   : }

  00091	5b		 pop	 ebx
  00092	5d		 pop	 ebp
  00093	c2 10 00	 ret	 16			; 00000010H
$LN2@DrawCharac:
  00096	5f		 pop	 edi

; 53   : 	}
; 54   : 
; 55   : 	return 0;

  00097	33 c0		 xor	 eax, eax

; 56   : }

  00099	5b		 pop	 ebx
  0009a	5d		 pop	 ebp
  0009b	c2 10 00	 ret	 16			; 00000010H
?__DrawCharacter@CGraphicTextInstance@@IAEHPAVCGraphicFontTexture@@G_WK@Z ENDP ; CGraphicTextInstance::__DrawCharacter
_TEXT	ENDS
; Function compile flags: /Ogtp
; File C:\Users\murat\Desktop\Siveps2-1-99-Project\source\client\Client\EterLib\GrpTextInstance.cpp
; File C:\Users\murat\Desktop\Siveps2-1-99-Project\source\client\Client\EterLib\Ref.h
; File C:\Users\murat\Desktop\Siveps2-1-99-Project\source\client\Client\EterLib\GrpTextInstance.cpp
;	COMDAT ?__Initialize@CGraphicTextInstance@@IAEXXZ
_TEXT	SEGMENT
?__Initialize@CGraphicTextInstance@@IAEXXZ PROC		; CGraphicTextInstance::__Initialize, COMDAT
; _this$ = ecx

; 1181 : {

  00000	56		 push	 esi
  00001	8b f1		 mov	 esi, ecx
; File C:\Users\murat\Desktop\Siveps2-1-99-Project\source\client\Client\EterLib\Ref.h

; 67   : 			CReferenceObject* pOldObject = m_pObject;

  00003	8b 4e 48	 mov	 ecx, DWORD PTR [esi+72]

; 68   : 
; 69   : 			m_pObject = pObject;

  00006	c7 46 48 00 00
	00 00		 mov	 DWORD PTR [esi+72], 0

; 70   : 
; 71   : 			if (m_pObject)
; 72   : 				m_pObject->AddReference();
; 73   : 
; 74   : 			if (pOldObject)

  0000d	85 c9		 test	 ecx, ecx
  0000f	74 05		 je	 SHORT $LN7@Initialize

; 75   : 				pOldObject->Release();

  00011	e8 00 00 00 00	 call	 ?Release@CReferenceObject@@QAEXXZ ; CReferenceObject::Release
$LN7@Initialize:
; File C:\Users\murat\Desktop\Siveps2-1-99-Project\source\client\Client\EterLib\GrpTextInstance.cpp

; 1199 : 	m_textWidth = 0;

  00016	33 c0		 xor	 eax, eax
  00018	c7 46 10 01 10
	00 00		 mov	 DWORD PTR [esi+16], 4097 ; 00001001H
  0001f	c7 46 14 00 00
	c8 44		 mov	 DWORD PTR [esi+20], 1153957888 ; 44c80000H
  00026	c7 46 18 00 00
	00 00		 mov	 DWORD PTR [esi+24], 0
  0002d	c7 46 1c 00 00
	00 3f		 mov	 DWORD PTR [esi+28], 1056964608 ; 3f000000H
  00034	c6 46 44 00	 mov	 BYTE PTR [esi+68], 0
  00038	89 46 0c	 mov	 DWORD PTR [esi+12], eax

; 1200 : 	m_textHeight = 0;
; 1201 : 
; 1202 : 	m_v3Position.x = m_v3Position.y = m_v3Position.z = 0.0f;

  0003b	89 46 40	 mov	 DWORD PTR [esi+64], eax
  0003e	89 46 3c	 mov	 DWORD PTR [esi+60], eax
  00041	89 46 38	 mov	 DWORD PTR [esi+56], eax

; 1203 : 
; 1204 : 	m_dwOutLineColor=0xff000000;

  00044	c7 46 08 00 00
	00 ff		 mov	 DWORD PTR [esi+8], -16777216 ; ff000000H
  0004b	5e		 pop	 esi

; 1205 : }

  0004c	c3		 ret	 0
?__Initialize@CGraphicTextInstance@@IAEXXZ ENDP		; CGraphicTextInstance::__Initialize
_TEXT	ENDS
; Function compile flags: /Ogtp
; File C:\Users\murat\Desktop\Siveps2-1-99-Project\source\client\Client\EterLib\GrpTextInstance.cpp
;	COMDAT ?GetHorizontalAlign@CGraphicTextInstance@@QAEHXZ
_TEXT	SEGMENT
?GetHorizontalAlign@CGraphicTextInstance@@QAEHXZ PROC	; CGraphicTextInstance::GetHorizontalAlign, COMDAT
; _this$ = ecx

; 1177 : 	return m_hAlign;

  00000	0f b6 41 10	 movzx	 eax, BYTE PTR [ecx+16]

; 1178 : }

  00004	c3		 ret	 0
?GetHorizontalAlign@CGraphicTextInstance@@QAEHXZ ENDP	; CGraphicTextInstance::GetHorizontalAlign
_TEXT	ENDS
; Function compile flags: /Ogtp
; File C:\Users\murat\Desktop\Siveps2-1-99-Project\source\client\Client\EterLib\GrpTextInstance.cpp
; File C:\Program Files (x86)\Microsoft Visual Studio\2019\Professional\VC\Tools\MSVC\14.29.30133\include\vector
; File C:\Users\murat\Desktop\Siveps2-1-99-Project\source\client\Client\EterLib\GrpTextInstance.cpp
; File C:\Program Files (x86)\Microsoft Visual Studio\2019\Professional\VC\Tools\MSVC\14.29.30133\include\vector
; File C:\Users\murat\Desktop\Siveps2-1-99-Project\source\client\Client\EterLib\GrpTextInstance.cpp
; File C:\Program Files (x86)\Microsoft Visual Studio\2019\Professional\VC\Tools\MSVC\14.29.30133\include\vector
; File C:\Users\murat\Desktop\Siveps2-1-99-Project\source\client\Client\EterLib\GrpTextInstance.cpp
;	COMDAT ?PixelPositionToCharacterPosition@CGraphicTextInstance@@QAEHH@Z
_TEXT	SEGMENT
_iPixelPosition$ = 8					; size = 4
?PixelPositionToCharacterPosition@CGraphicTextInstance@@QAEHH@Z PROC ; CGraphicTextInstance::PixelPositionToCharacterPosition, COMDAT
; _this$ = ecx

; 1161 : {

  00000	55		 push	 ebp
  00001	8b ec		 mov	 ebp, esp
; File C:\Program Files (x86)\Microsoft Visual Studio\2019\Professional\VC\Tools\MSVC\14.29.30133\include\vector

; 1549 :         return static_cast<size_type>(_My_data._Mylast - _My_data._Myfirst);

  00003	8b 51 4c	 mov	 edx, DWORD PTR [ecx+76]
; File C:\Users\murat\Desktop\Siveps2-1-99-Project\source\client\Client\EterLib\GrpTextInstance.cpp

; 1163 : 	for (int i = 0; i < (int)m_pCharInfoVector.size(); ++i)

  00006	33 c0		 xor	 eax, eax
  00008	53		 push	 ebx
  00009	56		 push	 esi
  0000a	57		 push	 edi
; File C:\Program Files (x86)\Microsoft Visual Studio\2019\Professional\VC\Tools\MSVC\14.29.30133\include\vector

; 1549 :         return static_cast<size_type>(_My_data._Mylast - _My_data._Myfirst);

  0000b	8b 79 50	 mov	 edi, DWORD PTR [ecx+80]
; File C:\Users\murat\Desktop\Siveps2-1-99-Project\source\client\Client\EterLib\GrpTextInstance.cpp

; 1162 : 	int icurPosition = 0;

  0000e	33 f6		 xor	 esi, esi
; File C:\Program Files (x86)\Microsoft Visual Studio\2019\Professional\VC\Tools\MSVC\14.29.30133\include\vector

; 1549 :         return static_cast<size_type>(_My_data._Mylast - _My_data._Myfirst);

  00010	2b fa		 sub	 edi, edx
  00012	c1 ff 02	 sar	 edi, 2
; File C:\Users\murat\Desktop\Siveps2-1-99-Project\source\client\Client\EterLib\GrpTextInstance.cpp

; 1163 : 	for (int i = 0; i < (int)m_pCharInfoVector.size(); ++i)

  00015	85 ff		 test	 edi, edi
  00017	7e 1b		 jle	 SHORT $LN3@PixelPosit
  00019	8b 5d 08	 mov	 ebx, DWORD PTR _iPixelPosition$[ebp]
  0001c	0f 1f 40 00	 npad	 4
$LL4@PixelPosit:

; 1164 : 	{
; 1165 : 		CGraphicFontTexture::TCharacterInfomation* pCurCharInfo = m_pCharInfoVector[i];
; 1166 : 		icurPosition += pCurCharInfo->width;

  00020	8b 0a		 mov	 ecx, DWORD PTR [edx]
  00022	0f bf 49 02	 movsx	 ecx, WORD PTR [ecx+2]
  00026	03 f1		 add	 esi, ecx

; 1167 : 
; 1168 : 		if (iPixelPosition < icurPosition)

  00028	3b de		 cmp	 ebx, esi
  0002a	7c 0b		 jl	 SHORT $LN1@PixelPosit

; 1163 : 	for (int i = 0; i < (int)m_pCharInfoVector.size(); ++i)

  0002c	40		 inc	 eax
  0002d	83 c2 04	 add	 edx, 4
  00030	3b c7		 cmp	 eax, edi
  00032	7c ec		 jl	 SHORT $LL4@PixelPosit
$LN3@PixelPosit:

; 1169 : 			return i;
; 1170 : 	}
; 1171 : 
; 1172 : 	return -1;

  00034	83 c8 ff	 or	 eax, -1
$LN1@PixelPosit:
  00037	5f		 pop	 edi

; 1173 : }

  00038	5e		 pop	 esi
  00039	5b		 pop	 ebx
  0003a	5d		 pop	 ebp
  0003b	c2 04 00	 ret	 4
?PixelPositionToCharacterPosition@CGraphicTextInstance@@QAEHH@Z ENDP ; CGraphicTextInstance::PixelPositionToCharacterPosition
_TEXT	ENDS
; Function compile flags: /Ogtp
; File C:\Users\murat\Desktop\Siveps2-1-99-Project\source\client\Client\EterLib\GrpTextInstance.cpp
; File C:\Program Files (x86)\Microsoft Visual Studio\2019\Professional\VC\Tools\MSVC\14.29.30133\include\vector
; File C:\Users\murat\Desktop\Siveps2-1-99-Project\source\client\Client\EterLib\GrpTextInstance.cpp
; File C:\Program Files (x86)\Microsoft Visual Studio\2019\Professional\VC\Tools\MSVC\14.29.30133\include\vector
; File C:\Users\murat\Desktop\Siveps2-1-99-Project\source\client\Client\EterLib\GrpTextInstance.cpp
; File C:\Program Files (x86)\Microsoft Visual Studio\2019\Professional\VC\Tools\MSVC\14.29.30133\include\vector
; File C:\Users\murat\Desktop\Siveps2-1-99-Project\source\client\Client\EterLib\GrpTextInstance.cpp
; File C:\Program Files (x86)\Microsoft Visual Studio\2019\Professional\VC\Tools\MSVC\14.29.30133\include\vector
; File C:\Users\murat\Desktop\Siveps2-1-99-Project\source\client\Client\EterLib\GrpTextInstance.cpp
;	COMDAT ?GetTextLineCount@CGraphicTextInstance@@QAEGXZ
_TEXT	SEGMENT
?GetTextLineCount@CGraphicTextInstance@@QAEGXZ PROC	; CGraphicTextInstance::GetTextLineCount, COMDAT
; _this$ = ecx
; File C:\Program Files (x86)\Microsoft Visual Studio\2019\Professional\VC\Tools\MSVC\14.29.30133\include\vector

; 42   :     _CONSTEXPR20_CONTAINER _Vector_const_iterator(_Tptr _Parg, const _Container_base* _Pvector) noexcept : _Ptr(_Parg) {

  00000	8b 41 4c	 mov	 eax, DWORD PTR [ecx+76]
  00003	0f 57 c0	 xorps	 xmm0, xmm0
  00006	8b 51 50	 mov	 edx, DWORD PTR [ecx+80]
; File C:\Users\murat\Desktop\Siveps2-1-99-Project\source\client\Client\EterLib\GrpTextInstance.cpp

; 1127 : {

  00009	57		 push	 edi

; 1128 : 	CGraphicFontTexture::TCharacterInfomation* pCurCharInfo;
; 1129 : 	CGraphicFontTexture::TPCharacterInfomationVector::iterator itor;
; 1130 : 
; 1131 : 	float fx = 0.0f;
; 1132 : 	WORD wLineCount = 1;

  0000a	bf 01 00 00 00	 mov	 edi, 1
; File C:\Program Files (x86)\Microsoft Visual Studio\2019\Professional\VC\Tools\MSVC\14.29.30133\include\vector

; 42   :     _CONSTEXPR20_CONTAINER _Vector_const_iterator(_Tptr _Parg, const _Container_base* _Pvector) noexcept : _Ptr(_Parg) {

  0000f	3b c2		 cmp	 eax, edx
; File C:\Users\murat\Desktop\Siveps2-1-99-Project\source\client\Client\EterLib\GrpTextInstance.cpp

; 1133 : 	for (itor=m_pCharInfoVector.begin(); itor!=m_pCharInfoVector.end(); ++itor)

  00011	74 4e		 je	 SHORT $LN35@GetTextLin

; 1139 : 		//float fFontHeight=float(pCurCharInfo->height);
; 1140 : 
; 1141 : 		// NOTE :   Width  . - [levites]
; 1142 : 		if (fx+fFontWidth > m_fLimitWidth)

  00013	f3 0f 10 59 14	 movss	 xmm3, DWORD PTR [ecx+20]
  00018	56		 push	 esi
  00019	0f 1f 80 00 00
	00 00		 npad	 7
$LL20@GetTextLin:

; 1134 : 	{
; 1135 : 		pCurCharInfo = *itor;
; 1136 : 
; 1137 : 		float fFontWidth=float(pCurCharInfo->width);
; 1138 : 		float fFontAdvance=float(pCurCharInfo->advance);

  00020	8b 08		 mov	 ecx, DWORD PTR [eax]
  00022	f3 0f 10 51 18	 movss	 xmm2, DWORD PTR [ecx+24]

; 1139 : 		//float fFontHeight=float(pCurCharInfo->height);
; 1140 : 
; 1141 : 		// NOTE :   Width  . - [levites]
; 1142 : 		if (fx+fFontWidth > m_fLimitWidth)

  00027	0f bf 49 02	 movsx	 ecx, WORD PTR [ecx+2]
  0002b	66 0f 6e c9	 movd	 xmm1, ecx
  0002f	0f 5b c9	 cvtdq2ps xmm1, xmm1
  00032	f3 0f 58 c8	 addss	 xmm1, xmm0
  00036	0f 2f cb	 comiss	 xmm1, xmm3
  00039	76 03		 jbe	 SHORT $LN5@GetTextLin
  0003b	0f 57 c0	 xorps	 xmm0, xmm0
$LN5@GetTextLin:

; 1148 : 		fx += fFontAdvance;

  0003e	8d 4f 01	 lea	 ecx, DWORD PTR [edi+1]
  00041	0f b7 f1	 movzx	 esi, cx
  00044	f3 0f 58 c2	 addss	 xmm0, xmm2
  00048	0f b7 cf	 movzx	 ecx, di
  0004b	0f 46 f1	 cmovbe	 esi, ecx
; File C:\Program Files (x86)\Microsoft Visual Studio\2019\Professional\VC\Tools\MSVC\14.29.30133\include\vector

; 78   :         ++_Ptr;

  0004e	83 c0 04	 add	 eax, 4
; File C:\Users\murat\Desktop\Siveps2-1-99-Project\source\client\Client\EterLib\GrpTextInstance.cpp

; 1148 : 		fx += fFontAdvance;

  00051	0f b7 ce	 movzx	 ecx, si
  00054	8b f1		 mov	 esi, ecx
; File C:\Program Files (x86)\Microsoft Visual Studio\2019\Professional\VC\Tools\MSVC\14.29.30133\include\vector

; 42   :     _CONSTEXPR20_CONTAINER _Vector_const_iterator(_Tptr _Parg, const _Container_base* _Pvector) noexcept : _Ptr(_Parg) {

  00056	8b f9		 mov	 edi, ecx

; 154  :         return _Ptr == _Right._Ptr;

  00058	3b c2		 cmp	 eax, edx
; File C:\Users\murat\Desktop\Siveps2-1-99-Project\source\client\Client\EterLib\GrpTextInstance.cpp

; 1133 : 	for (itor=m_pCharInfoVector.begin(); itor!=m_pCharInfoVector.end(); ++itor)

  0005a	75 c4		 jne	 SHORT $LL20@GetTextLin

; 1149 : 	}
; 1150 : 
; 1151 : 	return wLineCount;

  0005c	8b c6		 mov	 eax, esi
  0005e	5e		 pop	 esi
  0005f	5f		 pop	 edi

; 1152 : }

  00060	c3		 ret	 0
$LN35@GetTextLin:

; 1149 : 	}
; 1150 : 
; 1151 : 	return wLineCount;

  00061	66 8b c7	 mov	 ax, di
  00064	5f		 pop	 edi

; 1152 : }

  00065	c3		 ret	 0
?GetTextLineCount@CGraphicTextInstance@@QAEGXZ ENDP	; CGraphicTextInstance::GetTextLineCount
_TEXT	ENDS
; Function compile flags: /Ogtp
; File C:\Users\murat\Desktop\Siveps2-1-99-Project\source\client\Client\EterLib\GrpTextInstance.cpp
;	COMDAT ?GetValueStringReference@CGraphicTextInstance@@QAEABV?$basic_string@DU?$char_traits@D@std@@V?$allocator@D@2@@std@@XZ
_TEXT	SEGMENT
?GetValueStringReference@CGraphicTextInstance@@QAEABV?$basic_string@DU?$char_traits@D@std@@V?$allocator@D@2@@std@@XZ PROC ; CGraphicTextInstance::GetValueStringReference, COMDAT
; _this$ = ecx

; 1123 : 	return m_stText;

  00000	8d 41 20	 lea	 eax, DWORD PTR [ecx+32]

; 1124 : }

  00003	c3		 ret	 0
?GetValueStringReference@CGraphicTextInstance@@QAEABV?$basic_string@DU?$char_traits@D@std@@V?$allocator@D@2@@std@@XZ ENDP ; CGraphicTextInstance::GetValueStringReference
_TEXT	ENDS
; Function compile flags: /Ogtp
; File C:\Users\murat\Desktop\Siveps2-1-99-Project\source\client\Client\EterLib\GrpTextInstance.cpp
;	COMDAT ?GetTextSize@CGraphicTextInstance@@QAEXPAH0@Z
_TEXT	SEGMENT
_pRetWidth$ = 8						; size = 4
_pRetHeight$ = 12					; size = 4
?GetTextSize@CGraphicTextInstance@@QAEXPAH0@Z PROC	; CGraphicTextInstance::GetTextSize, COMDAT
; _this$ = ecx

; 1155 : {

  00000	55		 push	 ebp
  00001	8b ec		 mov	 ebp, esp

; 1156 : 	*pRetWidth = m_textWidth;

  00003	8b 45 08	 mov	 eax, DWORD PTR _pRetWidth$[ebp]
  00006	0f b7 51 0c	 movzx	 edx, WORD PTR [ecx+12]
  0000a	89 10		 mov	 DWORD PTR [eax], edx

; 1157 : 	*pRetHeight = m_textHeight;

  0000c	8b 45 0c	 mov	 eax, DWORD PTR _pRetHeight$[ebp]
  0000f	0f b7 49 0e	 movzx	 ecx, WORD PTR [ecx+14]
  00013	89 08		 mov	 DWORD PTR [eax], ecx

; 1158 : }

  00015	5d		 pop	 ebp
  00016	c2 08 00	 ret	 8
?GetTextSize@CGraphicTextInstance@@QAEXPAH0@Z ENDP	; CGraphicTextInstance::GetTextSize
_TEXT	ENDS
; Function compile flags: /Ogtp
; File C:\Users\murat\Desktop\Siveps2-1-99-Project\source\client\Client\EterLib\GrpTextInstance.cpp
;	COMDAT ?SetLimitWidth@CGraphicTextInstance@@QAEXM@Z
_TEXT	SEGMENT
_fWidth$ = 8						; size = 4
?SetLimitWidth@CGraphicTextInstance@@QAEXM@Z PROC	; CGraphicTextInstance::SetLimitWidth, COMDAT
; _this$ = ecx

; 1087 : {

  00000	55		 push	 ebp
  00001	8b ec		 mov	 ebp, esp

; 1088 : 	m_fLimitWidth = fWidth;

  00003	f3 0f 10 45 08	 movss	 xmm0, DWORD PTR _fWidth$[ebp]
  00008	f3 0f 11 41 14	 movss	 DWORD PTR [ecx+20], xmm0

; 1089 : }

  0000d	5d		 pop	 ebp
  0000e	c2 04 00	 ret	 4
?SetLimitWidth@CGraphicTextInstance@@QAEXM@Z ENDP	; CGraphicTextInstance::SetLimitWidth
_TEXT	ENDS
; Function compile flags: /Ogtp
; File C:\Users\murat\Desktop\Siveps2-1-99-Project\source\client\Client\EterLib\GrpTextInstance.cpp
;	COMDAT ?SetMultiLine@CGraphicTextInstance@@QAEX_N@Z
_TEXT	SEGMENT
_Value$ = 8						; size = 1
?SetMultiLine@CGraphicTextInstance@@QAEX_N@Z PROC	; CGraphicTextInstance::SetMultiLine, COMDAT
; _this$ = ecx

; 1067 : {

  00000	55		 push	 ebp
  00001	8b ec		 mov	 ebp, esp

; 1068 : 	m_isMultiLine = Value;

  00003	8a 45 08	 mov	 al, BYTE PTR _Value$[ebp]
  00006	88 41 1a	 mov	 BYTE PTR [ecx+26], al

; 1069 : }

  00009	5d		 pop	 ebp
  0000a	c2 04 00	 ret	 4
?SetMultiLine@CGraphicTextInstance@@QAEX_N@Z ENDP	; CGraphicTextInstance::SetMultiLine
_TEXT	ENDS
; Function compile flags: /Ogtp
; File C:\Users\murat\Desktop\Siveps2-1-99-Project\source\client\Client\EterLib\GrpTextInstance.cpp
;	COMDAT ?SetFeather@CGraphicTextInstance@@QAEX_N@Z
_TEXT	SEGMENT
_Value$ = 8						; size = 1
?SetFeather@CGraphicTextInstance@@QAEX_N@Z PROC		; CGraphicTextInstance::SetFeather, COMDAT
; _this$ = ecx

; 1055 : {

  00000	55		 push	 ebp
  00001	8b ec		 mov	 ebp, esp

; 1056 : 	if (Value)

  00003	80 7d 08 00	 cmp	 BYTE PTR _Value$[ebp], 0
  00007	74 11		 je	 SHORT $LN2@SetFeather

; 1057 : 	{
; 1058 : 		m_fFontFeather = c_fFontFeather;

  00009	f3 0f 10 05 00
	00 00 00	 movss	 xmm0, DWORD PTR __real@3f000000

; 1059 : 	}
; 1060 : 	else
; 1061 : 	{
; 1062 : 		m_fFontFeather = 0.0f;
; 1063 : 	}
; 1064 : }

  00011	f3 0f 11 41 1c	 movss	 DWORD PTR [ecx+28], xmm0
  00016	5d		 pop	 ebp
  00017	c2 04 00	 ret	 4
$LN2@SetFeather:
  0001a	0f 57 c0	 xorps	 xmm0, xmm0
  0001d	f3 0f 11 41 1c	 movss	 DWORD PTR [ecx+28], xmm0
  00022	5d		 pop	 ebp
  00023	c2 04 00	 ret	 4
?SetFeather@CGraphicTextInstance@@QAEX_N@Z ENDP		; CGraphicTextInstance::SetFeather
_TEXT	ENDS
; Function compile flags: /Ogtp
; File C:\Users\murat\Desktop\Siveps2-1-99-Project\source\client\Client\EterLib\GrpTextInstance.cpp
;	COMDAT ?SetOutline@CGraphicTextInstance@@QAEX_N@Z
_TEXT	SEGMENT
_Value$ = 8						; size = 1
?SetOutline@CGraphicTextInstance@@QAEX_N@Z PROC		; CGraphicTextInstance::SetOutline, COMDAT
; _this$ = ecx

; 1050 : {

  00000	55		 push	 ebp
  00001	8b ec		 mov	 ebp, esp

; 1051 : 	m_isOutline = Value;

  00003	8a 45 08	 mov	 al, BYTE PTR _Value$[ebp]
  00006	88 41 1b	 mov	 BYTE PTR [ecx+27], al

; 1052 : }

  00009	5d		 pop	 ebp
  0000a	c2 04 00	 ret	 4
?SetOutline@CGraphicTextInstance@@QAEX_N@Z ENDP		; CGraphicTextInstance::SetOutline
_TEXT	ENDS
; Function compile flags: /Ogtp
; File C:\Users\murat\Desktop\Siveps2-1-99-Project\source\client\Client\EterLib\GrpTextInstance.cpp
;	COMDAT ?SetSecret@CGraphicTextInstance@@QAEX_N@Z
_TEXT	SEGMENT
_Value$ = 8						; size = 1
?SetSecret@CGraphicTextInstance@@QAEX_N@Z PROC		; CGraphicTextInstance::SetSecret, COMDAT
; _this$ = ecx

; 1045 : {

  00000	55		 push	 ebp
  00001	8b ec		 mov	 ebp, esp

; 1046 : 	m_isSecret = Value;

  00003	8a 45 08	 mov	 al, BYTE PTR _Value$[ebp]
  00006	88 41 19	 mov	 BYTE PTR [ecx+25], al

; 1047 : }

  00009	5d		 pop	 ebp
  0000a	c2 04 00	 ret	 4
?SetSecret@CGraphicTextInstance@@QAEX_N@Z ENDP		; CGraphicTextInstance::SetSecret
_TEXT	ENDS
; Function compile flags: /Ogtp
; File C:\Users\murat\Desktop\Siveps2-1-99-Project\source\client\Client\EterLib\GrpTextInstance.cpp
;	COMDAT ?SetPosition@CGraphicTextInstance@@QAEXMMM@Z
_TEXT	SEGMENT
_fx$ = 8						; size = 4
_fy$ = 12						; size = 4
_fz$ = 16						; size = 4
?SetPosition@CGraphicTextInstance@@QAEXMMM@Z PROC	; CGraphicTextInstance::SetPosition, COMDAT
; _this$ = ecx

; 1110 : {

  00000	55		 push	 ebp
  00001	8b ec		 mov	 ebp, esp

; 1111 : 	m_v3Position.x = fx;

  00003	f3 0f 10 45 08	 movss	 xmm0, DWORD PTR _fx$[ebp]
  00008	f3 0f 11 41 38	 movss	 DWORD PTR [ecx+56], xmm0

; 1112 : 	m_v3Position.y = fy;

  0000d	f3 0f 10 45 0c	 movss	 xmm0, DWORD PTR _fy$[ebp]
  00012	f3 0f 11 41 3c	 movss	 DWORD PTR [ecx+60], xmm0

; 1113 : 	m_v3Position.z = fz;

  00017	f3 0f 10 45 10	 movss	 xmm0, DWORD PTR _fz$[ebp]
  0001c	f3 0f 11 41 40	 movss	 DWORD PTR [ecx+64], xmm0

; 1114 : }

  00021	5d		 pop	 ebp
  00022	c2 0c 00	 ret	 12			; 0000000cH
?SetPosition@CGraphicTextInstance@@QAEXMMM@Z ENDP	; CGraphicTextInstance::SetPosition
_TEXT	ENDS
; Function compile flags: /Ogtp
; File C:\Users\murat\Desktop\Siveps2-1-99-Project\source\client\Client\EterLib\GrpTextInstance.cpp
; File C:\Program Files (x86)\Microsoft Visual Studio\2019\Professional\VC\Tools\MSVC\14.29.30133\include\xstring
; File C:\Users\murat\Desktop\Siveps2-1-99-Project\source\client\Client\EterLib\GrpTextInstance.cpp
; File C:\Program Files (x86)\Microsoft Visual Studio\2019\Professional\VC\Tools\MSVC\14.29.30133\include\xstring
; File C:\Users\murat\Desktop\Siveps2-1-99-Project\source\client\Client\EterLib\GrpTextInstance.cpp
; File C:\Program Files (x86)\Microsoft Visual Studio\2019\Professional\VC\Tools\MSVC\14.29.30133\include\xstring
; File C:\Users\murat\Desktop\Siveps2-1-99-Project\source\client\Client\EterLib\GrpTextInstance.cpp
;	COMDAT ?SetValue@CGraphicTextInstance@@QAEXPBDI@Z
_TEXT	SEGMENT
_c_szText$ = 8						; size = 4
_len$ = 12						; size = 4
?SetValue@CGraphicTextInstance@@QAEXPBDI@Z PROC		; CGraphicTextInstance::SetValue, COMDAT
; _this$ = ecx

; 1101 : {

  00000	55		 push	 ebp
  00001	8b ec		 mov	 ebp, esp
  00003	53		 push	 ebx
  00004	56		 push	 esi
  00005	57		 push	 edi
; File C:\Program Files (x86)\Microsoft Visual Studio\2019\Professional\VC\Tools\MSVC\14.29.30133\include\xstring

; 412  :         return _CSTD strlen(reinterpret_cast<const char*>(_First));

  00006	8b 7d 08	 mov	 edi, DWORD PTR _c_szText$[ebp]
; File C:\Users\murat\Desktop\Siveps2-1-99-Project\source\client\Client\EterLib\GrpTextInstance.cpp

; 1101 : {

  00009	8b d9		 mov	 ebx, ecx
; File C:\Program Files (x86)\Microsoft Visual Studio\2019\Professional\VC\Tools\MSVC\14.29.30133\include\xstring

; 412  :         return _CSTD strlen(reinterpret_cast<const char*>(_First));

  0000b	8b d7		 mov	 edx, edi
  0000d	8d 4a 01	 lea	 ecx, DWORD PTR [edx+1]
$LL19@SetValue:
  00010	8a 02		 mov	 al, BYTE PTR [edx]
  00012	42		 inc	 edx
  00013	84 c0		 test	 al, al
  00015	75 f9		 jne	 SHORT $LL19@SetValue
  00017	2b d1		 sub	 edx, ecx

; 2305 :         const value_type* _Result = _Bx._Buf;

  00019	8d 43 20	 lea	 eax, DWORD PTR [ebx+32]

; 2319 :         return _BUF_SIZE <= _Myres;

  0001c	83 7b 34 10	 cmp	 DWORD PTR [ebx+52], 16	; 00000010H

; 2306 :         if (_Large_string_engaged()) {

  00020	72 03		 jb	 SHORT $LN9@SetValue

; 2307 :             _Result = _Unfancy(_Bx._Ptr);

  00022	8b 43 20	 mov	 eax, DWORD PTR [ebx+32]
$LN9@SetValue:

; 4436 :         return _Traits_compare<_Traits>(_Mypair._Myval2._Myptr(), _Mypair._Myval2._Mysize, _Ptr, _Traits::length(_Ptr));

  00025	52		 push	 edx
  00026	57		 push	 edi
  00027	ff 73 30	 push	 DWORD PTR [ebx+48]
  0002a	50		 push	 eax
  0002b	e8 00 00 00 00	 call	 ??$_Traits_compare@U?$char_traits@D@std@@@std@@YAHQBDI0I@Z ; std::_Traits_compare<std::char_traits<char> >
  00030	83 c4 10	 add	 esp, 16			; 00000010H
; File C:\Users\murat\Desktop\Siveps2-1-99-Project\source\client\Client\EterLib\GrpTextInstance.cpp

; 1102 : 	if (0 == m_stText.compare(c_szText))

  00033	85 c0		 test	 eax, eax
  00035	74 20		 je	 SHORT $LN1@SetValue
; File C:\Program Files (x86)\Microsoft Visual Studio\2019\Professional\VC\Tools\MSVC\14.29.30133\include\xstring

; 412  :         return _CSTD strlen(reinterpret_cast<const char*>(_First));

  00037	8b d7		 mov	 edx, edi
  00039	8d 4a 01	 lea	 ecx, DWORD PTR [edx+1]
  0003c	0f 1f 40 00	 npad	 4
$LL20@SetValue:
  00040	8a 02		 mov	 al, BYTE PTR [edx]
  00042	42		 inc	 edx
  00043	84 c0		 test	 al, al
  00045	75 f9		 jne	 SHORT $LL20@SetValue
  00047	2b d1		 sub	 edx, ecx

; 3264 :         return assign(_Ptr, _Convert_size<size_type>(_Traits::length(_Ptr)));

  00049	8d 4b 20	 lea	 ecx, DWORD PTR [ebx+32]
  0004c	52		 push	 edx
  0004d	57		 push	 edi
  0004e	e8 00 00 00 00	 call	 ?assign@?$basic_string@DU?$char_traits@D@std@@V?$allocator@D@2@@std@@QAEAAV12@QBDI@Z ; std::basic_string<char,std::char_traits<char>,std::allocator<char> >::assign
; File C:\Users\murat\Desktop\Siveps2-1-99-Project\source\client\Client\EterLib\GrpTextInstance.cpp

; 1106 : 	m_isUpdate = false;

  00053	c6 43 44 00	 mov	 BYTE PTR [ebx+68], 0
$LN1@SetValue:

; 1107 : }

  00057	5f		 pop	 edi
  00058	5e		 pop	 esi
  00059	5b		 pop	 ebx
  0005a	5d		 pop	 ebp
  0005b	c2 08 00	 ret	 8
?SetValue@CGraphicTextInstance@@QAEXPBDI@Z ENDP		; CGraphicTextInstance::SetValue
_TEXT	ENDS
; Function compile flags: /Ogtp
; File C:\Users\murat\Desktop\Siveps2-1-99-Project\source\client\Client\EterLib\GrpTextInstance.cpp
; File C:\Program Files (x86)\Microsoft Visual Studio\2019\Professional\VC\Tools\MSVC\14.29.30133\include\xstring
; File C:\Users\murat\Desktop\Siveps2-1-99-Project\source\client\Client\EterLib\GrpTextInstance.cpp
; File C:\Program Files (x86)\Microsoft Visual Studio\2019\Professional\VC\Tools\MSVC\14.29.30133\include\xstring
; File C:\Users\murat\Desktop\Siveps2-1-99-Project\source\client\Client\EterLib\GrpTextInstance.cpp
; File C:\Program Files (x86)\Microsoft Visual Studio\2019\Professional\VC\Tools\MSVC\14.29.30133\include\xstring
; File C:\Users\murat\Desktop\Siveps2-1-99-Project\source\client\Client\EterLib\GrpTextInstance.cpp
; File C:\Program Files (x86)\Microsoft Visual Studio\2019\Professional\VC\Tools\MSVC\14.29.30133\include\xstring
; File C:\Users\murat\Desktop\Siveps2-1-99-Project\source\client\Client\EterLib\GrpTextInstance.cpp
;	COMDAT ?SetValueString@CGraphicTextInstance@@QAEXABV?$basic_string@DU?$char_traits@D@std@@V?$allocator@D@2@@std@@@Z
_TEXT	SEGMENT
tv288 = 8						; size = 4
_c_stValue$ = 8						; size = 4
?SetValueString@CGraphicTextInstance@@QAEXABV?$basic_string@DU?$char_traits@D@std@@V?$allocator@D@2@@std@@@Z PROC ; CGraphicTextInstance::SetValueString, COMDAT
; _this$ = ecx

; 1092 : {

  00000	55		 push	 ebp
  00001	8b ec		 mov	 ebp, esp
  00003	53		 push	 ebx
  00004	56		 push	 esi
; File C:\Program Files (x86)\Microsoft Visual Studio\2019\Professional\VC\Tools\MSVC\14.29.30133\include\xstring

; 2305 :         const value_type* _Result = _Bx._Buf;

  00005	8b 75 08	 mov	 esi, DWORD PTR _c_stValue$[ebp]
; File C:\Users\murat\Desktop\Siveps2-1-99-Project\source\client\Client\EterLib\GrpTextInstance.cpp

; 1092 : {

  00008	8b d9		 mov	 ebx, ecx
  0000a	57		 push	 edi
; File C:\Program Files (x86)\Microsoft Visual Studio\2019\Professional\VC\Tools\MSVC\14.29.30133\include\xstring

; 2305 :         const value_type* _Result = _Bx._Buf;

  0000b	8b ce		 mov	 ecx, esi

; 2319 :         return _BUF_SIZE <= _Myres;

  0000d	83 7e 14 10	 cmp	 DWORD PTR [esi+20], 16	; 00000010H
; File C:\Users\murat\Desktop\Siveps2-1-99-Project\source\client\Client\EterLib\GrpTextInstance.cpp

; 1093 : 	if (0 == m_stText.compare(c_stValue))

  00011	8d 7b 20	 lea	 edi, DWORD PTR [ebx+32]
; File C:\Program Files (x86)\Microsoft Visual Studio\2019\Professional\VC\Tools\MSVC\14.29.30133\include\xstring

; 2306 :         if (_Large_string_engaged()) {

  00014	72 02		 jb	 SHORT $LN27@SetValueSt

; 2307 :             _Result = _Unfancy(_Bx._Ptr);

  00016	8b 0e		 mov	 ecx, DWORD PTR [esi]
$LN27@SetValueSt:

; 2319 :         return _BUF_SIZE <= _Myres;

  00018	83 7f 14 10	 cmp	 DWORD PTR [edi+20], 16	; 00000010H

; 2305 :         const value_type* _Result = _Bx._Buf;

  0001c	8b c7		 mov	 eax, edi

; 2306 :         if (_Large_string_engaged()) {

  0001e	72 02		 jb	 SHORT $LN12@SetValueSt

; 2307 :             _Result = _Unfancy(_Bx._Ptr);

  00020	8b 07		 mov	 eax, DWORD PTR [edi]
$LN12@SetValueSt:

; 4414 :         return _Traits_compare<_Traits>(_Mypair._Myval2._Myptr(), _Mypair._Myval2._Mysize,

  00022	8b 56 10	 mov	 edx, DWORD PTR [esi+16]
  00025	52		 push	 edx
  00026	51		 push	 ecx
  00027	ff 77 10	 push	 DWORD PTR [edi+16]
  0002a	89 55 08	 mov	 DWORD PTR tv288[ebp], edx
  0002d	50		 push	 eax
  0002e	e8 00 00 00 00	 call	 ??$_Traits_compare@U?$char_traits@D@std@@@std@@YAHQBDI0I@Z ; std::_Traits_compare<std::char_traits<char> >
  00033	83 c4 10	 add	 esp, 16			; 00000010H
; File C:\Users\murat\Desktop\Siveps2-1-99-Project\source\client\Client\EterLib\GrpTextInstance.cpp

; 1093 : 	if (0 == m_stText.compare(c_stValue))

  00036	85 c0		 test	 eax, eax
  00038	74 1b		 je	 SHORT $LN1@SetValueSt
; File C:\Program Files (x86)\Microsoft Visual Studio\2019\Professional\VC\Tools\MSVC\14.29.30133\include\xstring

; 3077 :         if (this != _STD addressof(_Right)) {

  0003a	3b fe		 cmp	 edi, esi
  0003c	74 13		 je	 SHORT $LN17@SetValueSt

; 2319 :         return _BUF_SIZE <= _Myres;

  0003e	83 7e 14 10	 cmp	 DWORD PTR [esi+20], 16	; 00000010H

; 2306 :         if (_Large_string_engaged()) {

  00042	72 02		 jb	 SHORT $LN22@SetValueSt

; 2307 :             _Result = _Unfancy(_Bx._Ptr);

  00044	8b 36		 mov	 esi, DWORD PTR [esi]
$LN22@SetValueSt:

; 3035 :         assign(_Right._Mypair._Myval2._Myptr(), _Right._Mypair._Myval2._Mysize);

  00046	ff 75 08	 push	 DWORD PTR tv288[ebp]
  00049	8b cf		 mov	 ecx, edi
  0004b	56		 push	 esi
  0004c	e8 00 00 00 00	 call	 ?assign@?$basic_string@DU?$char_traits@D@std@@V?$allocator@D@2@@std@@QAEAAV12@QBDI@Z ; std::basic_string<char,std::char_traits<char>,std::allocator<char> >::assign
$LN17@SetValueSt:
; File C:\Users\murat\Desktop\Siveps2-1-99-Project\source\client\Client\EterLib\GrpTextInstance.cpp

; 1097 : 	m_isUpdate = false;

  00051	c6 43 44 00	 mov	 BYTE PTR [ebx+68], 0
$LN1@SetValueSt:
  00055	5f		 pop	 edi

; 1098 : }

  00056	5e		 pop	 esi
  00057	5b		 pop	 ebx
  00058	5d		 pop	 ebp
  00059	c2 04 00	 ret	 4
?SetValueString@CGraphicTextInstance@@QAEXABV?$basic_string@DU?$char_traits@D@std@@V?$allocator@D@2@@std@@@Z ENDP ; CGraphicTextInstance::SetValueString
_TEXT	ENDS
; Function compile flags: /Ogtp
; File C:\Users\murat\Desktop\Siveps2-1-99-Project\source\client\Client\EterLib\GrpTextInstance.cpp
; File C:\Users\murat\Desktop\Siveps2-1-99-Project\source\client\Client\EterLib\Ref.h
; File C:\Users\murat\Desktop\Siveps2-1-99-Project\source\client\Client\EterLib\GrpTextInstance.cpp
; File C:\Users\murat\Desktop\Siveps2-1-99-Project\source\client\Client\EterLib\Ref.h
; File C:\Users\murat\Desktop\Siveps2-1-99-Project\source\client\Client\EterLib\GrpTextInstance.cpp
;	COMDAT ?SetTextPointer@CGraphicTextInstance@@QAEXPAVCGraphicText@@@Z
_TEXT	SEGMENT
_pText$ = 8						; size = 4
?SetTextPointer@CGraphicTextInstance@@QAEXPAVCGraphicText@@@Z PROC ; CGraphicTextInstance::SetTextPointer, COMDAT
; _this$ = ecx

; 1117 : {

  00000	55		 push	 ebp
  00001	8b ec		 mov	 ebp, esp
; File C:\Users\murat\Desktop\Siveps2-1-99-Project\source\client\Client\EterLib\Ref.h

; 69   : 			m_pObject = pObject;

  00003	8b 45 08	 mov	 eax, DWORD PTR _pText$[ebp]
; File C:\Users\murat\Desktop\Siveps2-1-99-Project\source\client\Client\EterLib\GrpTextInstance.cpp

; 1117 : {

  00006	56		 push	 esi
; File C:\Users\murat\Desktop\Siveps2-1-99-Project\source\client\Client\EterLib\Ref.h

; 67   : 			CReferenceObject* pOldObject = m_pObject;

  00007	8b 71 48	 mov	 esi, DWORD PTR [ecx+72]

; 69   : 			m_pObject = pObject;

  0000a	89 41 48	 mov	 DWORD PTR [ecx+72], eax

; 70   : 
; 71   : 			if (m_pObject)

  0000d	85 c0		 test	 eax, eax
  0000f	74 07		 je	 SHORT $LN6@SetTextPoi

; 72   : 				m_pObject->AddReference();

  00011	8b c8		 mov	 ecx, eax
  00013	e8 00 00 00 00	 call	 ?AddReference@CReferenceObject@@QAEXXZ ; CReferenceObject::AddReference
$LN6@SetTextPoi:

; 73   : 
; 74   : 			if (pOldObject)

  00018	85 f6		 test	 esi, esi
  0001a	74 07		 je	 SHORT $LN7@SetTextPoi

; 75   : 				pOldObject->Release();

  0001c	8b ce		 mov	 ecx, esi
  0001e	e8 00 00 00 00	 call	 ?Release@CReferenceObject@@QAEXXZ ; CReferenceObject::Release
$LN7@SetTextPoi:
  00023	5e		 pop	 esi
; File C:\Users\murat\Desktop\Siveps2-1-99-Project\source\client\Client\EterLib\GrpTextInstance.cpp

; 1119 : }

  00024	5d		 pop	 ebp
  00025	c2 04 00	 ret	 4
?SetTextPointer@CGraphicTextInstance@@QAEXPAVCGraphicText@@@Z ENDP ; CGraphicTextInstance::SetTextPointer
_TEXT	ENDS
; Function compile flags: /Ogtp
; File C:\Users\murat\Desktop\Siveps2-1-99-Project\source\client\Client\EterLib\GrpTextInstance.cpp
;	COMDAT ?SetMax@CGraphicTextInstance@@QAEXH@Z
_TEXT	SEGMENT
_iMax$ = 8						; size = 4
?SetMax@CGraphicTextInstance@@QAEXH@Z PROC		; CGraphicTextInstance::SetMax, COMDAT
; _this$ = ecx

; 1082 : {

  00000	55		 push	 ebp
  00001	8b ec		 mov	 ebp, esp

; 1083 : 	m_iMax = iMax;

  00003	66 8b 45 08	 mov	 ax, WORD PTR _iMax$[ebp]
  00007	66 89 41 12	 mov	 WORD PTR [ecx+18], ax

; 1084 : }

  0000b	5d		 pop	 ebp
  0000c	c2 04 00	 ret	 4
?SetMax@CGraphicTextInstance@@QAEXH@Z ENDP		; CGraphicTextInstance::SetMax
_TEXT	ENDS
; Function compile flags: /Ogtp
; File C:\Users\murat\Desktop\Siveps2-1-99-Project\source\client\Client\EterLib\GrpTextInstance.cpp
;	COMDAT ?SetVerticalAlign@CGraphicTextInstance@@QAEXH@Z
_TEXT	SEGMENT
_vAlign$ = 8						; size = 4
?SetVerticalAlign@CGraphicTextInstance@@QAEXH@Z PROC	; CGraphicTextInstance::SetVerticalAlign, COMDAT
; _this$ = ecx

; 1077 : {

  00000	55		 push	 ebp
  00001	8b ec		 mov	 ebp, esp

; 1078 : 	m_vAlign = vAlign;

  00003	8a 45 08	 mov	 al, BYTE PTR _vAlign$[ebp]
  00006	88 41 11	 mov	 BYTE PTR [ecx+17], al

; 1079 : }

  00009	5d		 pop	 ebp
  0000a	c2 04 00	 ret	 4
?SetVerticalAlign@CGraphicTextInstance@@QAEXH@Z ENDP	; CGraphicTextInstance::SetVerticalAlign
_TEXT	ENDS
; Function compile flags: /Ogtp
; File C:\Users\murat\Desktop\Siveps2-1-99-Project\source\client\Client\EterLib\GrpTextInstance.cpp
;	COMDAT ?SetHorizonalAlign@CGraphicTextInstance@@QAEXH@Z
_TEXT	SEGMENT
_hAlign$ = 8						; size = 4
?SetHorizonalAlign@CGraphicTextInstance@@QAEXH@Z PROC	; CGraphicTextInstance::SetHorizonalAlign, COMDAT
; _this$ = ecx

; 1072 : {

  00000	55		 push	 ebp
  00001	8b ec		 mov	 ebp, esp

; 1073 : 	m_hAlign = hAlign;

  00003	8a 45 08	 mov	 al, BYTE PTR _hAlign$[ebp]
  00006	88 41 10	 mov	 BYTE PTR [ecx+16], al

; 1074 : }

  00009	5d		 pop	 ebp
  0000a	c2 04 00	 ret	 4
?SetHorizonalAlign@CGraphicTextInstance@@QAEXH@Z ENDP	; CGraphicTextInstance::SetHorizonalAlign
_TEXT	ENDS
; Function compile flags: /Ogtp
; File C:\Users\murat\Desktop\Siveps2-1-99-Project\source\client\Client\EterLib\GrpTextInstance.cpp
; File C:\Users\murat\Desktop\Siveps2-1-99-Project\source\client\extern\include\d3dx8math.inl
; File C:\Users\murat\Desktop\Siveps2-1-99-Project\source\client\Client\EterLib\GrpTextInstance.cpp
; File C:\Users\murat\Desktop\Siveps2-1-99-Project\source\client\extern\include\d3dx8math.inl
; File C:\Users\murat\Desktop\Siveps2-1-99-Project\source\client\Client\EterLib\GrpTextInstance.cpp
; File C:\Users\murat\Desktop\Siveps2-1-99-Project\source\client\extern\include\d3dx8math.inl
; File C:\Users\murat\Desktop\Siveps2-1-99-Project\source\client\Client\EterLib\GrpTextInstance.cpp
; File C:\Users\murat\Desktop\Siveps2-1-99-Project\source\client\extern\include\d3dx8math.inl
; File C:\Users\murat\Desktop\Siveps2-1-99-Project\source\client\Client\EterLib\GrpTextInstance.cpp
;	COMDAT ?SetOutLineColor@CGraphicTextInstance@@QAEXMMMM@Z
_TEXT	SEGMENT
_this$1$ = -4						; size = 4
_r$ = 8							; size = 4
_g$ = 12						; size = 4
_b$ = 16						; size = 4
_a$ = 20						; size = 4
?SetOutLineColor@CGraphicTextInstance@@QAEXMMMM@Z PROC	; CGraphicTextInstance::SetOutLineColor, COMDAT
; _this$ = ecx

; 1040 : {

  00000	55		 push	 ebp
  00001	8b ec		 mov	 ebp, esp
  00003	51		 push	 ecx
; File C:\Users\murat\Desktop\Siveps2-1-99-Project\source\client\extern\include\d3dx8math.inl

; 923  :     a = fa;

  00004	f3 0f 10 45 08	 movss	 xmm0, DWORD PTR _r$[ebp]

; 931  :     DWORD dwR = r >= 1.0f ? 0xff : r <= 0.0f ? 0x00 : (DWORD) (r * 255.0f + 0.5f);

  00009	0f 57 c9	 xorps	 xmm1, xmm1

; 923  :     a = fa;

  0000c	0f 2f 05 00 00
	00 00		 comiss	 xmm0, DWORD PTR __real@3f800000
; File C:\Users\murat\Desktop\Siveps2-1-99-Project\source\client\Client\EterLib\GrpTextInstance.cpp

; 1040 : {

  00013	53		 push	 ebx
  00014	56		 push	 esi
  00015	57		 push	 edi
  00016	89 4d fc	 mov	 DWORD PTR _this$1$[ebp], ecx
; File C:\Users\murat\Desktop\Siveps2-1-99-Project\source\client\extern\include\d3dx8math.inl

; 931  :     DWORD dwR = r >= 1.0f ? 0xff : r <= 0.0f ? 0x00 : (DWORD) (r * 255.0f + 0.5f);

  00019	f3 0f 10 1d 00
	00 00 00	 movss	 xmm3, DWORD PTR __real@437f0000
  00021	f3 0f 10 25 00
	00 00 00	 movss	 xmm4, DWORD PTR __real@3f000000
  00029	72 07		 jb	 SHORT $LN9@SetOutLine
  0002b	bb ff 00 00 00	 mov	 ebx, 255		; 000000ffH
  00030	eb 2b		 jmp	 SHORT $LN8@SetOutLine
$LN9@SetOutLine:
  00032	0f 2f c8	 comiss	 xmm1, xmm0
  00035	72 04		 jb	 SHORT $LN7@SetOutLine
  00037	33 db		 xor	 ebx, ebx
  00039	eb 22		 jmp	 SHORT $LN8@SetOutLine
$LN7@SetOutLine:
  0003b	f3 0f 59 c3	 mulss	 xmm0, xmm3
  0003f	f3 0f 58 c4	 addss	 xmm0, xmm4
  00043	e8 00 00 00 00	 call	 __ftoui3
  00048	f3 0f 10 1d 00
	00 00 00	 movss	 xmm3, DWORD PTR __real@437f0000
  00050	8b d8		 mov	 ebx, eax
  00052	f3 0f 10 25 00
	00 00 00	 movss	 xmm4, DWORD PTR __real@3f000000
  0005a	0f 57 c9	 xorps	 xmm1, xmm1
$LN8@SetOutLine:

; 932  :     DWORD dwG = g >= 1.0f ? 0xff : g <= 0.0f ? 0x00 : (DWORD) (g * 255.0f + 0.5f);

  0005d	f3 0f 10 45 0c	 movss	 xmm0, DWORD PTR _g$[ebp]
  00062	0f 2f 05 00 00
	00 00		 comiss	 xmm0, DWORD PTR __real@3f800000
  00069	72 07		 jb	 SHORT $LN13@SetOutLine
  0006b	bf ff 00 00 00	 mov	 edi, 255		; 000000ffH
  00070	eb 18		 jmp	 SHORT $LN12@SetOutLine
$LN13@SetOutLine:
  00072	0f 2f c8	 comiss	 xmm1, xmm0
  00075	72 04		 jb	 SHORT $LN11@SetOutLine
  00077	33 ff		 xor	 edi, edi
  00079	eb 0f		 jmp	 SHORT $LN12@SetOutLine
$LN11@SetOutLine:
  0007b	f3 0f 59 c3	 mulss	 xmm0, xmm3
  0007f	f3 0f 58 c4	 addss	 xmm0, xmm4
  00083	e8 00 00 00 00	 call	 __ftoui3
  00088	8b f8		 mov	 edi, eax
$LN12@SetOutLine:

; 933  :     DWORD dwB = b >= 1.0f ? 0xff : b <= 0.0f ? 0x00 : (DWORD) (b * 255.0f + 0.5f);

  0008a	f3 0f 10 45 10	 movss	 xmm0, DWORD PTR _b$[ebp]
  0008f	0f 57 c9	 xorps	 xmm1, xmm1
  00092	0f 2f 05 00 00
	00 00		 comiss	 xmm0, DWORD PTR __real@3f800000
  00099	72 07		 jb	 SHORT $LN17@SetOutLine
  0009b	be ff 00 00 00	 mov	 esi, 255		; 000000ffH
  000a0	eb 23		 jmp	 SHORT $LN16@SetOutLine
$LN17@SetOutLine:
  000a2	0f 2f c8	 comiss	 xmm1, xmm0
  000a5	72 04		 jb	 SHORT $LN15@SetOutLine
  000a7	33 f6		 xor	 esi, esi
  000a9	eb 1a		 jmp	 SHORT $LN16@SetOutLine
$LN15@SetOutLine:
  000ab	f3 0f 59 05 00
	00 00 00	 mulss	 xmm0, DWORD PTR __real@437f0000
  000b3	f3 0f 58 05 00
	00 00 00	 addss	 xmm0, DWORD PTR __real@3f000000
  000bb	e8 00 00 00 00	 call	 __ftoui3
  000c0	8b f0		 mov	 esi, eax
  000c2	0f 57 c9	 xorps	 xmm1, xmm1
$LN16@SetOutLine:

; 934  :     DWORD dwA = a >= 1.0f ? 0xff : a <= 0.0f ? 0x00 : (DWORD) (a * 255.0f + 0.5f);

  000c5	f3 0f 10 45 14	 movss	 xmm0, DWORD PTR _a$[ebp]
  000ca	0f 2f 05 00 00
	00 00		 comiss	 xmm0, DWORD PTR __real@3f800000
  000d1	72 07		 jb	 SHORT $LN21@SetOutLine
  000d3	b8 ff 00 00 00	 mov	 eax, 255		; 000000ffH
  000d8	eb 1e		 jmp	 SHORT $LN20@SetOutLine
$LN21@SetOutLine:
  000da	0f 2f c8	 comiss	 xmm1, xmm0
  000dd	72 04		 jb	 SHORT $LN19@SetOutLine
  000df	33 c0		 xor	 eax, eax
  000e1	eb 15		 jmp	 SHORT $LN20@SetOutLine
$LN19@SetOutLine:
  000e3	f3 0f 59 05 00
	00 00 00	 mulss	 xmm0, DWORD PTR __real@437f0000
  000eb	f3 0f 58 05 00
	00 00 00	 addss	 xmm0, DWORD PTR __real@3f000000
  000f3	e8 00 00 00 00	 call	 __ftoui3
$LN20@SetOutLine:
; File C:\Users\murat\Desktop\Siveps2-1-99-Project\source\client\Client\EterLib\GrpTextInstance.cpp

; 1041 : 	m_dwOutLineColor=D3DXCOLOR(r, g, b, a);

  000f8	8b 4d fc	 mov	 ecx, DWORD PTR _this$1$[ebp]
; File C:\Users\murat\Desktop\Siveps2-1-99-Project\source\client\extern\include\d3dx8math.inl

; 936  :     return (dwA << 24) | (dwR << 16) | (dwG << 8) | dwB;

  000fb	c1 e0 08	 shl	 eax, 8
  000fe	0b c3		 or	 eax, ebx
  00100	c1 e0 08	 shl	 eax, 8
  00103	0b c7		 or	 eax, edi
  00105	c1 e0 08	 shl	 eax, 8
; File C:\Users\murat\Desktop\Siveps2-1-99-Project\source\client\Client\EterLib\GrpTextInstance.cpp

; 1041 : 	m_dwOutLineColor=D3DXCOLOR(r, g, b, a);

  00108	5f		 pop	 edi
; File C:\Users\murat\Desktop\Siveps2-1-99-Project\source\client\extern\include\d3dx8math.inl

; 936  :     return (dwA << 24) | (dwR << 16) | (dwG << 8) | dwB;

  00109	0b c6		 or	 eax, esi
; File C:\Users\murat\Desktop\Siveps2-1-99-Project\source\client\Client\EterLib\GrpTextInstance.cpp

; 1041 : 	m_dwOutLineColor=D3DXCOLOR(r, g, b, a);

  0010b	5e		 pop	 esi
  0010c	89 41 08	 mov	 DWORD PTR [ecx+8], eax
  0010f	5b		 pop	 ebx

; 1042 : }

  00110	8b e5		 mov	 esp, ebp
  00112	5d		 pop	 ebp
  00113	c2 10 00	 ret	 16			; 00000010H
?SetOutLineColor@CGraphicTextInstance@@QAEXMMMM@Z ENDP	; CGraphicTextInstance::SetOutLineColor
_TEXT	ENDS
; Function compile flags: /Ogtp
; File C:\Users\murat\Desktop\Siveps2-1-99-Project\source\client\Client\EterLib\GrpTextInstance.cpp
;	COMDAT ?SetOutLineColor@CGraphicTextInstance@@QAEXK@Z
_TEXT	SEGMENT
_color$ = 8						; size = 4
?SetOutLineColor@CGraphicTextInstance@@QAEXK@Z PROC	; CGraphicTextInstance::SetOutLineColor, COMDAT
; _this$ = ecx

; 1035 : {

  00000	55		 push	 ebp
  00001	8b ec		 mov	 ebp, esp

; 1036 : 	m_dwOutLineColor=color;

  00003	8b 45 08	 mov	 eax, DWORD PTR _color$[ebp]
  00006	89 41 08	 mov	 DWORD PTR [ecx+8], eax

; 1037 : }

  00009	5d		 pop	 ebp
  0000a	c2 04 00	 ret	 4
?SetOutLineColor@CGraphicTextInstance@@QAEXK@Z ENDP	; CGraphicTextInstance::SetOutLineColor
_TEXT	ENDS
; Function compile flags: /Ogtp
; File C:\Users\murat\Desktop\Siveps2-1-99-Project\source\client\Client\EterLib\GrpTextInstance.cpp
; File C:\Users\murat\Desktop\Siveps2-1-99-Project\source\client\extern\include\d3dx8math.inl
; File C:\Users\murat\Desktop\Siveps2-1-99-Project\source\client\Client\EterLib\GrpTextInstance.cpp
; File C:\Users\murat\Desktop\Siveps2-1-99-Project\source\client\extern\include\d3dx8math.inl
; File C:\Users\murat\Desktop\Siveps2-1-99-Project\source\client\Client\EterLib\GrpTextInstance.cpp
; File C:\Users\murat\Desktop\Siveps2-1-99-Project\source\client\extern\include\d3dx8math.inl
; File C:\Users\murat\Desktop\Siveps2-1-99-Project\source\client\Client\EterLib\GrpTextInstance.cpp
;	COMDAT ?SetColor@CGraphicTextInstance@@QAEXMMMM@Z
_TEXT	SEGMENT
_this$1$ = -4						; size = 4
_r$ = 8							; size = 4
_g$ = 12						; size = 4
_b$ = 16						; size = 4
_a$ = 20						; size = 4
?SetColor@CGraphicTextInstance@@QAEXMMMM@Z PROC		; CGraphicTextInstance::SetColor, COMDAT
; _this$ = ecx

; 1030 : {

  00000	55		 push	 ebp
  00001	8b ec		 mov	 ebp, esp
  00003	51		 push	 ecx
; File C:\Users\murat\Desktop\Siveps2-1-99-Project\source\client\extern\include\d3dx8math.inl

; 923  :     a = fa;

  00004	f3 0f 10 45 08	 movss	 xmm0, DWORD PTR _r$[ebp]

; 931  :     DWORD dwR = r >= 1.0f ? 0xff : r <= 0.0f ? 0x00 : (DWORD) (r * 255.0f + 0.5f);

  00009	0f 57 c9	 xorps	 xmm1, xmm1

; 923  :     a = fa;

  0000c	0f 2f 05 00 00
	00 00		 comiss	 xmm0, DWORD PTR __real@3f800000
; File C:\Users\murat\Desktop\Siveps2-1-99-Project\source\client\Client\EterLib\GrpTextInstance.cpp

; 1030 : {

  00013	53		 push	 ebx
  00014	56		 push	 esi
  00015	57		 push	 edi
  00016	89 4d fc	 mov	 DWORD PTR _this$1$[ebp], ecx
; File C:\Users\murat\Desktop\Siveps2-1-99-Project\source\client\extern\include\d3dx8math.inl

; 931  :     DWORD dwR = r >= 1.0f ? 0xff : r <= 0.0f ? 0x00 : (DWORD) (r * 255.0f + 0.5f);

  00019	f3 0f 10 1d 00
	00 00 00	 movss	 xmm3, DWORD PTR __real@437f0000
  00021	f3 0f 10 25 00
	00 00 00	 movss	 xmm4, DWORD PTR __real@3f000000
  00029	72 07		 jb	 SHORT $LN9@SetColor
  0002b	bb ff 00 00 00	 mov	 ebx, 255		; 000000ffH
  00030	eb 2b		 jmp	 SHORT $LN8@SetColor
$LN9@SetColor:
  00032	0f 2f c8	 comiss	 xmm1, xmm0
  00035	72 04		 jb	 SHORT $LN7@SetColor
  00037	33 db		 xor	 ebx, ebx
  00039	eb 22		 jmp	 SHORT $LN8@SetColor
$LN7@SetColor:
  0003b	f3 0f 59 c3	 mulss	 xmm0, xmm3
  0003f	f3 0f 58 c4	 addss	 xmm0, xmm4
  00043	e8 00 00 00 00	 call	 __ftoui3
  00048	f3 0f 10 1d 00
	00 00 00	 movss	 xmm3, DWORD PTR __real@437f0000
  00050	8b d8		 mov	 ebx, eax
  00052	f3 0f 10 25 00
	00 00 00	 movss	 xmm4, DWORD PTR __real@3f000000
  0005a	0f 57 c9	 xorps	 xmm1, xmm1
$LN8@SetColor:

; 932  :     DWORD dwG = g >= 1.0f ? 0xff : g <= 0.0f ? 0x00 : (DWORD) (g * 255.0f + 0.5f);

  0005d	f3 0f 10 45 0c	 movss	 xmm0, DWORD PTR _g$[ebp]
  00062	0f 2f 05 00 00
	00 00		 comiss	 xmm0, DWORD PTR __real@3f800000
  00069	72 07		 jb	 SHORT $LN13@SetColor
  0006b	bf ff 00 00 00	 mov	 edi, 255		; 000000ffH
  00070	eb 18		 jmp	 SHORT $LN12@SetColor
$LN13@SetColor:
  00072	0f 2f c8	 comiss	 xmm1, xmm0
  00075	72 04		 jb	 SHORT $LN11@SetColor
  00077	33 ff		 xor	 edi, edi
  00079	eb 0f		 jmp	 SHORT $LN12@SetColor
$LN11@SetColor:
  0007b	f3 0f 59 c3	 mulss	 xmm0, xmm3
  0007f	f3 0f 58 c4	 addss	 xmm0, xmm4
  00083	e8 00 00 00 00	 call	 __ftoui3
  00088	8b f8		 mov	 edi, eax
$LN12@SetColor:

; 933  :     DWORD dwB = b >= 1.0f ? 0xff : b <= 0.0f ? 0x00 : (DWORD) (b * 255.0f + 0.5f);

  0008a	f3 0f 10 45 10	 movss	 xmm0, DWORD PTR _b$[ebp]
  0008f	0f 57 c9	 xorps	 xmm1, xmm1
  00092	0f 2f 05 00 00
	00 00		 comiss	 xmm0, DWORD PTR __real@3f800000
  00099	72 07		 jb	 SHORT $LN17@SetColor
  0009b	be ff 00 00 00	 mov	 esi, 255		; 000000ffH
  000a0	eb 23		 jmp	 SHORT $LN16@SetColor
$LN17@SetColor:
  000a2	0f 2f c8	 comiss	 xmm1, xmm0
  000a5	72 04		 jb	 SHORT $LN15@SetColor
  000a7	33 f6		 xor	 esi, esi
  000a9	eb 1a		 jmp	 SHORT $LN16@SetColor
$LN15@SetColor:
  000ab	f3 0f 59 05 00
	00 00 00	 mulss	 xmm0, DWORD PTR __real@437f0000
  000b3	f3 0f 58 05 00
	00 00 00	 addss	 xmm0, DWORD PTR __real@3f000000
  000bb	e8 00 00 00 00	 call	 __ftoui3
  000c0	8b f0		 mov	 esi, eax
  000c2	0f 57 c9	 xorps	 xmm1, xmm1
$LN16@SetColor:

; 934  :     DWORD dwA = a >= 1.0f ? 0xff : a <= 0.0f ? 0x00 : (DWORD) (a * 255.0f + 0.5f);

  000c5	f3 0f 10 45 14	 movss	 xmm0, DWORD PTR _a$[ebp]
  000ca	0f 2f 05 00 00
	00 00		 comiss	 xmm0, DWORD PTR __real@3f800000
  000d1	72 07		 jb	 SHORT $LN21@SetColor
  000d3	b8 ff 00 00 00	 mov	 eax, 255		; 000000ffH
  000d8	eb 1e		 jmp	 SHORT $LN20@SetColor
$LN21@SetColor:
  000da	0f 2f c8	 comiss	 xmm1, xmm0
  000dd	72 04		 jb	 SHORT $LN19@SetColor
  000df	33 c0		 xor	 eax, eax
  000e1	eb 15		 jmp	 SHORT $LN20@SetColor
$LN19@SetColor:
  000e3	f3 0f 59 05 00
	00 00 00	 mulss	 xmm0, DWORD PTR __real@437f0000
  000eb	f3 0f 58 05 00
	00 00 00	 addss	 xmm0, DWORD PTR __real@3f000000
  000f3	e8 00 00 00 00	 call	 __ftoui3
$LN20@SetColor:
; File C:\Users\murat\Desktop\Siveps2-1-99-Project\source\client\Client\EterLib\GrpTextInstance.cpp

; 1031 : 	SetColor(D3DXCOLOR(r, g, b, a));

  000f8	8b 4d fc	 mov	 ecx, DWORD PTR _this$1$[ebp]
; File C:\Users\murat\Desktop\Siveps2-1-99-Project\source\client\extern\include\d3dx8math.inl

; 936  :     return (dwA << 24) | (dwR << 16) | (dwG << 8) | dwB;

  000fb	c1 e0 08	 shl	 eax, 8
  000fe	0b c3		 or	 eax, ebx
  00100	c1 e0 08	 shl	 eax, 8
  00103	0b c7		 or	 eax, edi
  00105	c1 e0 08	 shl	 eax, 8
  00108	0b c6		 or	 eax, esi
; File C:\Users\murat\Desktop\Siveps2-1-99-Project\source\client\Client\EterLib\GrpTextInstance.cpp

; 1031 : 	SetColor(D3DXCOLOR(r, g, b, a));

  0010a	50		 push	 eax
  0010b	e8 00 00 00 00	 call	 ?SetColor@CGraphicTextInstance@@QAEXK@Z ; CGraphicTextInstance::SetColor
  00110	5f		 pop	 edi
  00111	5e		 pop	 esi
  00112	5b		 pop	 ebx

; 1032 : }

  00113	8b e5		 mov	 esp, ebp
  00115	5d		 pop	 ebp
  00116	c2 10 00	 ret	 16			; 00000010H
?SetColor@CGraphicTextInstance@@QAEXMMMM@Z ENDP		; CGraphicTextInstance::SetColor
_TEXT	ENDS
; Function compile flags: /Ogtp
; File C:\Users\murat\Desktop\Siveps2-1-99-Project\source\client\Client\EterLib\GrpTextInstance.cpp
; File C:\Program Files (x86)\Microsoft Visual Studio\2019\Professional\VC\Tools\MSVC\14.29.30133\include\vector
; File C:\Users\murat\Desktop\Siveps2-1-99-Project\source\client\Client\EterLib\GrpTextInstance.cpp
; File C:\Program Files (x86)\Microsoft Visual Studio\2019\Professional\VC\Tools\MSVC\14.29.30133\include\vector
; File C:\Users\murat\Desktop\Siveps2-1-99-Project\source\client\Client\EterLib\GrpTextInstance.cpp
; File C:\Program Files (x86)\Microsoft Visual Studio\2019\Professional\VC\Tools\MSVC\14.29.30133\include\vector
; File C:\Users\murat\Desktop\Siveps2-1-99-Project\source\client\Client\EterLib\GrpTextInstance.cpp
; File C:\Program Files (x86)\Microsoft Visual Studio\2019\Professional\VC\Tools\MSVC\14.29.30133\include\vector
; File C:\Users\murat\Desktop\Siveps2-1-99-Project\source\client\Client\EterLib\GrpTextInstance.cpp
; File C:\Program Files (x86)\Microsoft Visual Studio\2019\Professional\VC\Tools\MSVC\14.29.30133\include\vector
; File C:\Users\murat\Desktop\Siveps2-1-99-Project\source\client\Client\EterLib\GrpTextInstance.cpp
;	COMDAT ?SetColor@CGraphicTextInstance@@QAEXK@Z
_TEXT	SEGMENT
_color$ = 8						; size = 4
?SetColor@CGraphicTextInstance@@QAEXK@Z PROC		; CGraphicTextInstance::SetColor, COMDAT
; _this$ = ecx

; 1018 : {

  00000	55		 push	 ebp
  00001	8b ec		 mov	 ebp, esp
  00003	57		 push	 edi

; 1019 : 	if (m_dwTextColor != color)

  00004	8b 7d 08	 mov	 edi, DWORD PTR _color$[ebp]
  00007	39 79 04	 cmp	 DWORD PTR [ecx+4], edi
  0000a	74 35		 je	 SHORT $LN5@SetColor
; File C:\Program Files (x86)\Microsoft Visual Studio\2019\Professional\VC\Tools\MSVC\14.29.30133\include\vector

; 1549 :         return static_cast<size_type>(_My_data._Mylast - _My_data._Myfirst);

  0000c	8b 41 50	 mov	 eax, DWORD PTR [ecx+80]
; File C:\Users\murat\Desktop\Siveps2-1-99-Project\source\client\Client\EterLib\GrpTextInstance.cpp

; 1021 : 		for (int i = 0; i < m_pCharInfoVector.size(); ++i)

  0000f	33 d2		 xor	 edx, edx
; File C:\Program Files (x86)\Microsoft Visual Studio\2019\Professional\VC\Tools\MSVC\14.29.30133\include\vector

; 1549 :         return static_cast<size_type>(_My_data._Mylast - _My_data._Myfirst);

  00011	2b 41 4c	 sub	 eax, DWORD PTR [ecx+76]
  00014	c1 f8 02	 sar	 eax, 2
; File C:\Users\murat\Desktop\Siveps2-1-99-Project\source\client\Client\EterLib\GrpTextInstance.cpp

; 1021 : 		for (int i = 0; i < m_pCharInfoVector.size(); ++i)

  00017	85 c0		 test	 eax, eax
  00019	74 23		 je	 SHORT $LN3@SetColor
  0001b	56		 push	 esi
  0001c	0f 1f 40 00	 npad	 4
$LL4@SetColor:
; File C:\Program Files (x86)\Microsoft Visual Studio\2019\Professional\VC\Tools\MSVC\14.29.30133\include\vector

; 1569 :         return _My_data._Myfirst[_Pos];

  00020	8b 41 58	 mov	 eax, DWORD PTR [ecx+88]
  00023	8d 34 90	 lea	 esi, DWORD PTR [eax+edx*4]
; File C:\Users\murat\Desktop\Siveps2-1-99-Project\source\client\Client\EterLib\GrpTextInstance.cpp

; 1022 : 			if (m_dwColorInfoVector[i] == m_dwTextColor)

  00026	8b 06		 mov	 eax, DWORD PTR [esi]
  00028	3b 41 04	 cmp	 eax, DWORD PTR [ecx+4]
  0002b	75 02		 jne	 SHORT $LN2@SetColor

; 1023 : 				m_dwColorInfoVector[i] = color;

  0002d	89 3e		 mov	 DWORD PTR [esi], edi
$LN2@SetColor:
; File C:\Program Files (x86)\Microsoft Visual Studio\2019\Professional\VC\Tools\MSVC\14.29.30133\include\vector

; 1549 :         return static_cast<size_type>(_My_data._Mylast - _My_data._Myfirst);

  0002f	8b 41 50	 mov	 eax, DWORD PTR [ecx+80]
; File C:\Users\murat\Desktop\Siveps2-1-99-Project\source\client\Client\EterLib\GrpTextInstance.cpp

; 1021 : 		for (int i = 0; i < m_pCharInfoVector.size(); ++i)

  00032	42		 inc	 edx
; File C:\Program Files (x86)\Microsoft Visual Studio\2019\Professional\VC\Tools\MSVC\14.29.30133\include\vector

; 1549 :         return static_cast<size_type>(_My_data._Mylast - _My_data._Myfirst);

  00033	2b 41 4c	 sub	 eax, DWORD PTR [ecx+76]
  00036	c1 f8 02	 sar	 eax, 2
; File C:\Users\murat\Desktop\Siveps2-1-99-Project\source\client\Client\EterLib\GrpTextInstance.cpp

; 1021 : 		for (int i = 0; i < m_pCharInfoVector.size(); ++i)

  00039	3b d0		 cmp	 edx, eax
  0003b	72 e3		 jb	 SHORT $LL4@SetColor
  0003d	5e		 pop	 esi
$LN3@SetColor:

; 1024 : 
; 1025 : 		m_dwTextColor = color;

  0003e	89 79 04	 mov	 DWORD PTR [ecx+4], edi
$LN5@SetColor:
  00041	5f		 pop	 edi

; 1026 : 	}
; 1027 : }

  00042	5d		 pop	 ebp
  00043	c2 04 00	 ret	 4
?SetColor@CGraphicTextInstance@@QAEXK@Z ENDP		; CGraphicTextInstance::SetColor
_TEXT	ENDS
; Function compile flags: /Ogtp
; File C:\Users\murat\Desktop\Siveps2-1-99-Project\source\client\Client\EterLib\GrpTextInstance.cpp
;	COMDAT ?HideOutLine@CGraphicTextInstance@@QAEXXZ
_TEXT	SEGMENT
?HideOutLine@CGraphicTextInstance@@QAEXXZ PROC		; CGraphicTextInstance::HideOutLine, COMDAT
; _this$ = ecx

; 1014 : 	m_isOutline = false;

  00000	c6 41 1b 00	 mov	 BYTE PTR [ecx+27], 0

; 1015 : }

  00004	c3		 ret	 0
?HideOutLine@CGraphicTextInstance@@QAEXXZ ENDP		; CGraphicTextInstance::HideOutLine
_TEXT	ENDS
; Function compile flags: /Ogtp
; File C:\Users\murat\Desktop\Siveps2-1-99-Project\source\client\Client\EterLib\GrpTextInstance.cpp
;	COMDAT ?ShowOutLine@CGraphicTextInstance@@QAEXXZ
_TEXT	SEGMENT
?ShowOutLine@CGraphicTextInstance@@QAEXXZ PROC		; CGraphicTextInstance::ShowOutLine, COMDAT
; _this$ = ecx

; 1009 : 	m_isOutline = true;

  00000	c6 41 1b 01	 mov	 BYTE PTR [ecx+27], 1

; 1010 : }

  00004	c3		 ret	 0
?ShowOutLine@CGraphicTextInstance@@QAEXXZ ENDP		; CGraphicTextInstance::ShowOutLine
_TEXT	ENDS
; Function compile flags: /Ogtp
; File C:\Users\murat\Desktop\Siveps2-1-99-Project\source\client\Client\EterLib\GrpTextInstance.cpp
;	COMDAT ?HideCursor@CGraphicTextInstance@@QAEXXZ
_TEXT	SEGMENT
?HideCursor@CGraphicTextInstance@@QAEXXZ PROC		; CGraphicTextInstance::HideCursor, COMDAT
; _this$ = ecx

; 1004 : 	m_isCursor = false;

  00000	c6 41 18 00	 mov	 BYTE PTR [ecx+24], 0

; 1005 : }

  00004	c3		 ret	 0
?HideCursor@CGraphicTextInstance@@QAEXXZ ENDP		; CGraphicTextInstance::HideCursor
_TEXT	ENDS
; Function compile flags: /Ogtp
; File C:\Users\murat\Desktop\Siveps2-1-99-Project\source\client\Client\EterLib\GrpTextInstance.cpp
;	COMDAT ?ShowCursor@CGraphicTextInstance@@QAEXXZ
_TEXT	SEGMENT
?ShowCursor@CGraphicTextInstance@@QAEXXZ PROC		; CGraphicTextInstance::ShowCursor, COMDAT
; _this$ = ecx

; 999  : 	m_isCursor = true;

  00000	c6 41 18 01	 mov	 BYTE PTR [ecx+24], 1

; 1000 : }

  00004	c3		 ret	 0
?ShowCursor@CGraphicTextInstance@@QAEXXZ ENDP		; CGraphicTextInstance::ShowCursor
_TEXT	ENDS
; Function compile flags: /Ogtp
; File C:\Users\murat\Desktop\Siveps2-1-99-Project\source\client\Client\EterLib\GrpTextInstance.cpp
; File C:\Program Files (x86)\Microsoft Visual Studio\2019\Professional\VC\Tools\MSVC\14.29.30133\include\vector
; File C:\Users\murat\Desktop\Siveps2-1-99-Project\source\client\Client\EterLib\GrpTextInstance.cpp
; File C:\Program Files (x86)\Microsoft Visual Studio\2019\Professional\VC\Tools\MSVC\14.29.30133\include\vector
; File C:\Users\murat\Desktop\Siveps2-1-99-Project\source\client\Client\EterLib\GrpTextInstance.cpp
; File C:\Program Files (x86)\Microsoft Visual Studio\2019\Professional\VC\Tools\MSVC\14.29.30133\include\vector
; File C:\Users\murat\Desktop\Siveps2-1-99-Project\source\client\Client\EterLib\GrpTextInstance.cpp
; File C:\Program Files (x86)\Microsoft Visual Studio\2019\Professional\VC\Tools\MSVC\14.29.30133\include\vector
; File C:\Users\murat\Desktop\Siveps2-1-99-Project\source\client\Client\EterLib\GrpTextInstance.cpp
; File C:\Program Files (x86)\Microsoft Visual Studio\2019\Professional\VC\Tools\MSVC\14.29.30133\include\vector
; File C:\Users\murat\Desktop\Siveps2-1-99-Project\source\client\Client\EterLib\GrpTextInstance.cpp
; File C:\Program Files (x86)\Microsoft Visual Studio\2019\Professional\VC\Tools\MSVC\14.29.30133\include\vector
; File C:\Users\murat\Desktop\Siveps2-1-99-Project\source\client\Client\EterLib\GrpTextInstance.cpp
; File C:\Program Files (x86)\Microsoft Visual Studio\2019\Professional\VC\Tools\MSVC\14.29.30133\include\vector
; File C:\Users\murat\Desktop\Siveps2-1-99-Project\source\client\Client\EterLib\GrpTextInstance.cpp
; File C:\Program Files (x86)\Microsoft Visual Studio\2019\Professional\VC\Tools\MSVC\14.29.30133\include\vector
; File C:\Users\murat\Desktop\Siveps2-1-99-Project\source\client\Client\EterLib\GrpTextInstance.cpp
; File C:\Program Files (x86)\Microsoft Visual Studio\2019\Professional\VC\Tools\MSVC\14.29.30133\include\vector
; File C:\Users\murat\Desktop\Siveps2-1-99-Project\source\client\Client\EterLib\GrpTextInstance.cpp
; File C:\Users\murat\Desktop\Siveps2-1-99-Project\source\client\extern\include\d3dx8math.inl
; File C:\Users\murat\Desktop\Siveps2-1-99-Project\source\client\Client\EterLib\GrpTextInstance.cpp
; File C:\Users\murat\Desktop\Siveps2-1-99-Project\source\client\extern\include\d3dx8math.inl
; File C:\Users\murat\Desktop\Siveps2-1-99-Project\source\client\Client\EterLib\GrpTextInstance.cpp
; File C:\Users\murat\Desktop\Siveps2-1-99-Project\source\client\extern\include\d3dx8math.inl
; File C:\Users\murat\Desktop\Siveps2-1-99-Project\source\client\Client\EterLib\GrpTextInstance.cpp
; File C:\Users\murat\Desktop\Siveps2-1-99-Project\source\client\extern\include\d3dx8math.inl
; File C:\Users\murat\Desktop\Siveps2-1-99-Project\source\client\Client\EterLib\GrpTextInstance.cpp
; File C:\Users\murat\Desktop\Siveps2-1-99-Project\source\client\extern\include\d3dx8math.inl
; File C:\Users\murat\Desktop\Siveps2-1-99-Project\source\client\Client\EterLib\GrpTextInstance.cpp
; File C:\Users\murat\Desktop\Siveps2-1-99-Project\source\client\extern\include\d3dx8math.inl
; File C:\Users\murat\Desktop\Siveps2-1-99-Project\source\client\Client\EterLib\GrpTextInstance.cpp
; File C:\Users\murat\Desktop\Siveps2-1-99-Project\source\client\extern\include\d3dx8math.inl
; File C:\Users\murat\Desktop\Siveps2-1-99-Project\source\client\Client\EterLib\GrpTextInstance.cpp
; File C:\Users\murat\Desktop\Siveps2-1-99-Project\source\client\extern\include\d3dx8math.inl
; File C:\Users\murat\Desktop\Siveps2-1-99-Project\source\client\Client\EterLib\GrpTextInstance.cpp
; File C:\Program Files (x86)\Microsoft Visual Studio\2019\Professional\VC\Tools\MSVC\14.29.30133\include\vector
; File C:\Users\murat\Desktop\Siveps2-1-99-Project\source\client\Client\EterLib\GrpTextInstance.cpp
; File C:\Program Files (x86)\Microsoft Visual Studio\2019\Professional\VC\Tools\MSVC\14.29.30133\include\vector
; File C:\Users\murat\Desktop\Siveps2-1-99-Project\source\client\Client\EterLib\GrpTextInstance.cpp
; File C:\Program Files (x86)\Microsoft Visual Studio\2019\Professional\VC\Tools\MSVC\14.29.30133\include\vector
; File C:\Users\murat\Desktop\Siveps2-1-99-Project\source\client\Client\EterLib\GrpTextInstance.cpp
; File C:\Program Files (x86)\Microsoft Visual Studio\2019\Professional\VC\Tools\MSVC\14.29.30133\include\vector
; File C:\Users\murat\Desktop\Siveps2-1-99-Project\source\client\Client\EterLib\GrpTextInstance.cpp
; File C:\Program Files (x86)\Microsoft Visual Studio\2019\Professional\VC\Tools\MSVC\14.29.30133\include\vector
; File C:\Users\murat\Desktop\Siveps2-1-99-Project\source\client\Client\EterLib\GrpTextInstance.cpp
; File C:\Program Files (x86)\Microsoft Visual Studio\2019\Professional\VC\Tools\MSVC\14.29.30133\include\vector
; File C:\Users\murat\Desktop\Siveps2-1-99-Project\source\client\Client\EterLib\GrpTextInstance.cpp
; File C:\Program Files (x86)\Microsoft Visual Studio\2019\Professional\VC\Tools\MSVC\14.29.30133\include\vector
; File C:\Users\murat\Desktop\Siveps2-1-99-Project\source\client\Client\EterLib\GrpTextInstance.cpp
;	COMDAT ?Render@CGraphicTextInstance@@QAEXPAUtagRECT@@@Z
_TEXT	SEGMENT
tv2364 = -168						; size = 8
_dwLighting$1$ = -164					; size = 4
_dwFogEnable$1$ = -160					; size = 4
_ulend$1$ = -156					; size = 4
_defCodePage$1$ = -156					; size = 4
_fFontSx$2$ = -152					; size = 4
tv2225 = -152						; size = 4
$T1 = -148						; size = 12
$T2 = -148						; size = 12
$T3 = -148						; size = 12
$T4 = -148						; size = 12
$T5 = -148						; size = 12
$T6 = -148						; size = 12
$T7 = -148						; size = 12
$T8 = -148						; size = 12
_fFontEy$1$ = -136					; size = 4
_fFontSy$2$ = -136					; size = 4
_fFontEy$2$ = -132					; size = 4
_fFontSy$1$ = -132					; size = 4
_fFontEx$2$ = -128					; size = 4
_fFontEx$1$ = -128					; size = 4
_fCurY$2$ = -124					; size = 4
_fCurY$1$ = -124					; size = 4
_fStanY$1$ = -120					; size = 4
_fFontSx$1$ = -116					; size = 4
tv2263 = -116						; size = 4
_ex$9 = -116						; size = 4
_pFontTexture$1$ = -112					; size = 4
_sy$10 = -112						; size = 4
_fStanX$1$ = -108					; size = 4
_fCurX$2$ = -104					; size = 4
_fCurX$1$ = -104					; size = 4
_sx$11 = -104						; size = 4
_vertices$12 = -100					; size = 96
_akVertex$13 = -100					; size = 96
__$ArrayPad$ = -4					; size = 4
_pClipRect$ = 8						; size = 4
?Render@CGraphicTextInstance@@QAEXPAUtagRECT@@@Z PROC	; CGraphicTextInstance::Render, COMDAT
; _this$ = ecx

; 539  : {

  00000	55		 push	 ebp
  00001	8b ec		 mov	 ebp, esp
  00003	81 ec a8 00 00
	00		 sub	 esp, 168		; 000000a8H
  00009	a1 00 00 00 00	 mov	 eax, DWORD PTR ___security_cookie
  0000e	33 c5		 xor	 eax, ebp
  00010	89 45 fc	 mov	 DWORD PTR __$ArrayPad$[ebp], eax
  00013	57		 push	 edi
  00014	8b f9		 mov	 edi, ecx

; 540  : 	if (!m_isUpdate)

  00016	80 7f 44 00	 cmp	 BYTE PTR [edi+68], 0
  0001a	0f 84 48 0b 00
	00		 je	 $LN19@Render

; 541  : 		return;
; 542  : 
; 543  : 	CGraphicText* pkText=m_roText.GetPointer();

  00020	8b 4f 48	 mov	 ecx, DWORD PTR [edi+72]

; 544  : 	if (!pkText)

  00023	85 c9		 test	 ecx, ecx
  00025	0f 84 3d 0b 00
	00		 je	 $LN19@Render

; 545  : 		return;
; 546  : 
; 547  : 	CGraphicFontTexture* pFontTexture = pkText->GetFontTexturePointer();

  0002b	e8 00 00 00 00	 call	 ?GetFontTexturePointer@CGraphicText@@QAEPAVCGraphicFontTexture@@XZ ; CGraphicText::GetFontTexturePointer
  00030	89 45 90	 mov	 DWORD PTR _pFontTexture$1$[ebp], eax

; 548  : 	if (!pFontTexture)

  00033	85 c0		 test	 eax, eax
  00035	0f 84 2d 0b 00
	00		 je	 $LN19@Render

; 549  : 		return;
; 550  : 
; 551  : 	float fStanX = m_v3Position.x;

  0003b	f3 0f 10 47 38	 movss	 xmm0, DWORD PTR [edi+56]
  00040	f3 0f 11 45 94	 movss	 DWORD PTR _fStanX$1$[ebp], xmm0

; 552  : 	float fStanY = m_v3Position.y + 1.0f;

  00045	f3 0f 10 47 3c	 movss	 xmm0, DWORD PTR [edi+60]
  0004a	f3 0f 58 05 00
	00 00 00	 addss	 xmm0, DWORD PTR __real@3f800000
  00052	f3 0f 11 45 88	 movss	 DWORD PTR _fStanY$1$[ebp], xmm0

; 553  : 
; 554  : 	UINT defCodePage = GetDefaultCodePage();

  00057	e8 00 00 00 00	 call	 ?GetDefaultCodePage@@YAKXZ ; GetDefaultCodePage
  0005c	0f b6 4f 10	 movzx	 ecx, BYTE PTR [edi+16]
  00060	89 85 64 ff ff
	ff		 mov	 DWORD PTR _defCodePage$1$[ebp], eax

; 555  : 
; 556  : 	if (defCodePage == CP_ARABIC)

  00066	3d e8 04 00 00	 cmp	 eax, 1256		; 000004e8H
  0006b	75 41		 jne	 SHORT $LN24@Render

; 557  : 	{
; 558  : 		switch (m_hAlign)

  0006d	83 e9 01	 sub	 ecx, 1
  00070	74 46		 je	 SHORT $LN26@Render
  00072	83 e9 01	 sub	 ecx, 1
  00075	75 1f		 jne	 SHORT $LN4@Render
$LN29@Render:

; 572  : 		{
; 573  : 			case HORIZONTAL_ALIGN_RIGHT:
; 574  : 				fStanX -= m_textWidth;
; 575  : 				break;
; 576  : 
; 577  : 			case HORIZONTAL_ALIGN_CENTER:
; 578  : 				fStanX -= float(m_textWidth / 2);
; 579  : 				break;
; 580  : 		}
; 581  : 	}
; 582  : 
; 583  : 	switch (m_vAlign)

  00077	66 8b 47 0c	 mov	 ax, WORD PTR [edi+12]
  0007b	66 d1 e8	 shr	 ax, 1
  0007e	0f b7 c0	 movzx	 eax, ax
$LN221@Render:
  00081	f3 0f 10 4d 94	 movss	 xmm1, DWORD PTR _fStanX$1$[ebp]
  00086	66 0f 6e c0	 movd	 xmm0, eax
  0008a	0f 5b c0	 cvtdq2ps xmm0, xmm0
  0008d	f3 0f 5c c8	 subss	 xmm1, xmm0
  00091	f3 0f 11 4d 94	 movss	 DWORD PTR _fStanX$1$[ebp], xmm1
$LN4@Render:
  00096	8a 47 11	 mov	 al, BYTE PTR [edi+17]
  00099	3c 20		 cmp	 al, 32			; 00000020H
  0009b	74 21		 je	 SHORT $LN31@Render
  0009d	3c 30		 cmp	 al, 48			; 00000030H
  0009f	75 3e		 jne	 SHORT $LN6@Render

; 584  : 	{
; 585  : 		case VERTICAL_ALIGN_BOTTOM:
; 586  : 			fStanY -= m_textHeight;

  000a1	0f b7 47 0e	 movzx	 eax, WORD PTR [edi+14]
  000a5	66 0f 6e c0	 movd	 xmm0, eax
  000a9	0f 5b c0	 cvtdq2ps xmm0, xmm0

; 587  : 			break;

  000ac	eb 23		 jmp	 SHORT $LN222@Render
$LN24@Render:

; 559  : 		{
; 560  : 			case HORIZONTAL_ALIGN_LEFT:
; 561  : 				fStanX -= m_textWidth;
; 562  : 				break;
; 563  : 
; 564  : 			case HORIZONTAL_ALIGN_CENTER:
; 565  : 				fStanX -= float(m_textWidth / 2);
; 566  : 				break;
; 567  : 		}
; 568  : 	}
; 569  : 	else
; 570  : 	{
; 571  : 		switch (m_hAlign)

  000ae	83 e9 02	 sub	 ecx, 2
  000b1	74 c4		 je	 SHORT $LN29@Render
  000b3	83 e9 01	 sub	 ecx, 1
  000b6	75 de		 jne	 SHORT $LN4@Render
$LN26@Render:

; 572  : 		{
; 573  : 			case HORIZONTAL_ALIGN_RIGHT:
; 574  : 				fStanX -= m_textWidth;
; 575  : 				break;
; 576  : 
; 577  : 			case HORIZONTAL_ALIGN_CENTER:
; 578  : 				fStanX -= float(m_textWidth / 2);
; 579  : 				break;
; 580  : 		}
; 581  : 	}
; 582  : 
; 583  : 	switch (m_vAlign)

  000b8	0f b7 47 0c	 movzx	 eax, WORD PTR [edi+12]
  000bc	eb c3		 jmp	 SHORT $LN221@Render
$LN31@Render:

; 588  : 
; 589  : 		case VERTICAL_ALIGN_CENTER:
; 590  : 			fStanY -= float(m_textHeight) / 2.0f;

  000be	0f b7 47 0e	 movzx	 eax, WORD PTR [edi+14]
  000c2	66 0f 6e c0	 movd	 xmm0, eax
  000c6	0f 5b c0	 cvtdq2ps xmm0, xmm0
  000c9	f3 0f 59 05 00
	00 00 00	 mulss	 xmm0, DWORD PTR __real@3f000000
$LN222@Render:

; 591  : 			break;
; 592  : 	}
; 593  : 
; 594  : 	//WORD FillRectIndices[6] = { 0, 2, 1, 2, 3, 1 };
; 595  : 
; 596  : 	STATEMANAGER.SaveRenderState(D3DRS_SRCBLEND, D3DBLEND_SRCALPHA);

  000d1	f3 0f 10 4d 88	 movss	 xmm1, DWORD PTR _fStanY$1$[ebp]
  000d6	f3 0f 5c c8	 subss	 xmm1, xmm0
  000da	f3 0f 11 4d 88	 movss	 DWORD PTR _fStanY$1$[ebp], xmm1
$LN6@Render:
  000df	8b 0d 00 00 00
	00		 mov	 ecx, DWORD PTR ?ms_singleton@?$CSingleton@VCStateManager@@@@0PAVCStateManager@@A ; CSingleton<CStateManager>::ms_singleton
  000e5	53		 push	 ebx
  000e6	56		 push	 esi
  000e7	6a 05		 push	 5
  000e9	6a 13		 push	 19			; 00000013H
  000eb	e8 00 00 00 00	 call	 ?SaveRenderState@CStateManager@@QAEXW4_D3DRENDERSTATETYPE@@K@Z ; CStateManager::SaveRenderState

; 597  : 	STATEMANAGER.SaveRenderState(D3DRS_DESTBLEND, D3DBLEND_INVSRCALPHA);

  000f0	8b 0d 00 00 00
	00		 mov	 ecx, DWORD PTR ?ms_singleton@?$CSingleton@VCStateManager@@@@0PAVCStateManager@@A ; CSingleton<CStateManager>::ms_singleton
  000f6	6a 06		 push	 6
  000f8	6a 14		 push	 20			; 00000014H
  000fa	e8 00 00 00 00	 call	 ?SaveRenderState@CStateManager@@QAEXW4_D3DRENDERSTATETYPE@@K@Z ; CStateManager::SaveRenderState

; 598  : 	DWORD dwFogEnable = STATEMANAGER.GetRenderState(D3DRS_FOGENABLE);

  000ff	8b 0d 00 00 00
	00		 mov	 ecx, DWORD PTR ?ms_singleton@?$CSingleton@VCStateManager@@@@0PAVCStateManager@@A ; CSingleton<CStateManager>::ms_singleton
  00105	6a 1c		 push	 28			; 0000001cH
  00107	e8 00 00 00 00	 call	 ?GetRenderState@CStateManager@@QAEKW4_D3DRENDERSTATETYPE@@@Z ; CStateManager::GetRenderState

; 599  : 	DWORD dwLighting = STATEMANAGER.GetRenderState(D3DRS_LIGHTING);

  0010c	8b 0d 00 00 00
	00		 mov	 ecx, DWORD PTR ?ms_singleton@?$CSingleton@VCStateManager@@@@0PAVCStateManager@@A ; CSingleton<CStateManager>::ms_singleton
  00112	68 89 00 00 00	 push	 137			; 00000089H
  00117	89 85 60 ff ff
	ff		 mov	 DWORD PTR _dwFogEnable$1$[ebp], eax
  0011d	e8 00 00 00 00	 call	 ?GetRenderState@CStateManager@@QAEKW4_D3DRENDERSTATETYPE@@@Z ; CStateManager::GetRenderState

; 600  : 	STATEMANAGER.SetRenderState(D3DRS_FOGENABLE, FALSE);

  00122	8b 0d 00 00 00
	00		 mov	 ecx, DWORD PTR ?ms_singleton@?$CSingleton@VCStateManager@@@@0PAVCStateManager@@A ; CSingleton<CStateManager>::ms_singleton
  00128	6a 00		 push	 0
  0012a	6a 1c		 push	 28			; 0000001cH
  0012c	89 85 5c ff ff
	ff		 mov	 DWORD PTR _dwLighting$1$[ebp], eax
  00132	e8 00 00 00 00	 call	 ?SetRenderState@CStateManager@@QAEXW4_D3DRENDERSTATETYPE@@K@Z ; CStateManager::SetRenderState

; 601  : 	STATEMANAGER.SetRenderState(D3DRS_LIGHTING, FALSE);

  00137	8b 0d 00 00 00
	00		 mov	 ecx, DWORD PTR ?ms_singleton@?$CSingleton@VCStateManager@@@@0PAVCStateManager@@A ; CSingleton<CStateManager>::ms_singleton
  0013d	6a 00		 push	 0
  0013f	68 89 00 00 00	 push	 137			; 00000089H
  00144	e8 00 00 00 00	 call	 ?SetRenderState@CStateManager@@QAEXW4_D3DRENDERSTATETYPE@@K@Z ; CStateManager::SetRenderState

; 602  : 
; 603  : 	STATEMANAGER.SetVertexShader(D3DFVF_XYZ|D3DFVF_DIFFUSE|D3DFVF_TEX1);

  00149	8b 0d 00 00 00
	00		 mov	 ecx, DWORD PTR ?ms_singleton@?$CSingleton@VCStateManager@@@@0PAVCStateManager@@A ; CSingleton<CStateManager>::ms_singleton
  0014f	68 42 01 00 00	 push	 322			; 00000142H
  00154	e8 00 00 00 00	 call	 ?SetVertexShader@CStateManager@@QAEXK@Z ; CStateManager::SetVertexShader

; 604  : 	STATEMANAGER.SetTextureStageState(0, D3DTSS_COLORARG1,	D3DTA_TEXTURE);

  00159	8b 0d 00 00 00
	00		 mov	 ecx, DWORD PTR ?ms_singleton@?$CSingleton@VCStateManager@@@@0PAVCStateManager@@A ; CSingleton<CStateManager>::ms_singleton
  0015f	6a 02		 push	 2
  00161	6a 02		 push	 2
  00163	6a 00		 push	 0
  00165	e8 00 00 00 00	 call	 ?SetTextureStageState@CStateManager@@QAEXKW4_D3DTEXTURESTAGESTATETYPE@@K@Z ; CStateManager::SetTextureStageState

; 605  : 	STATEMANAGER.SetTextureStageState(0, D3DTSS_COLORARG2,	D3DTA_DIFFUSE);

  0016a	8b 0d 00 00 00
	00		 mov	 ecx, DWORD PTR ?ms_singleton@?$CSingleton@VCStateManager@@@@0PAVCStateManager@@A ; CSingleton<CStateManager>::ms_singleton
  00170	6a 00		 push	 0
  00172	6a 03		 push	 3
  00174	6a 00		 push	 0
  00176	e8 00 00 00 00	 call	 ?SetTextureStageState@CStateManager@@QAEXKW4_D3DTEXTURESTAGESTATETYPE@@K@Z ; CStateManager::SetTextureStageState

; 606  : 	STATEMANAGER.SetTextureStageState(0, D3DTSS_COLOROP,	D3DTOP_MODULATE);

  0017b	8b 0d 00 00 00
	00		 mov	 ecx, DWORD PTR ?ms_singleton@?$CSingleton@VCStateManager@@@@0PAVCStateManager@@A ; CSingleton<CStateManager>::ms_singleton
  00181	6a 04		 push	 4
  00183	6a 01		 push	 1
  00185	6a 00		 push	 0
  00187	e8 00 00 00 00	 call	 ?SetTextureStageState@CStateManager@@QAEXKW4_D3DTEXTURESTAGESTATETYPE@@K@Z ; CStateManager::SetTextureStageState

; 607  : 	STATEMANAGER.SetTextureStageState(0, D3DTSS_ALPHAARG1,	D3DTA_TEXTURE);

  0018c	8b 0d 00 00 00
	00		 mov	 ecx, DWORD PTR ?ms_singleton@?$CSingleton@VCStateManager@@@@0PAVCStateManager@@A ; CSingleton<CStateManager>::ms_singleton
  00192	6a 02		 push	 2
  00194	6a 05		 push	 5
  00196	6a 00		 push	 0
  00198	e8 00 00 00 00	 call	 ?SetTextureStageState@CStateManager@@QAEXKW4_D3DTEXTURESTAGESTATETYPE@@K@Z ; CStateManager::SetTextureStageState

; 608  : 	STATEMANAGER.SetTextureStageState(0, D3DTSS_ALPHAARG2,	D3DTA_DIFFUSE);

  0019d	8b 0d 00 00 00
	00		 mov	 ecx, DWORD PTR ?ms_singleton@?$CSingleton@VCStateManager@@@@0PAVCStateManager@@A ; CSingleton<CStateManager>::ms_singleton
  001a3	6a 00		 push	 0
  001a5	6a 06		 push	 6
  001a7	6a 00		 push	 0
  001a9	e8 00 00 00 00	 call	 ?SetTextureStageState@CStateManager@@QAEXKW4_D3DTEXTURESTAGESTATETYPE@@K@Z ; CStateManager::SetTextureStageState

; 609  : 	STATEMANAGER.SetTextureStageState(0, D3DTSS_ALPHAOP,	D3DTOP_MODULATE);

  001ae	8b 0d 00 00 00
	00		 mov	 ecx, DWORD PTR ?ms_singleton@?$CSingleton@VCStateManager@@@@0PAVCStateManager@@A ; CSingleton<CStateManager>::ms_singleton
  001b4	6a 04		 push	 4
  001b6	6a 04		 push	 4
  001b8	6a 00		 push	 0
  001ba	e8 00 00 00 00	 call	 ?SetTextureStageState@CStateManager@@QAEXKW4_D3DTEXTURESTAGESTATETYPE@@K@Z ; CStateManager::SetTextureStageState

; 610  : 
; 611  : 	{
; 612  : 		const float fFontHalfWeight=1.0f;
; 613  : 
; 614  : 		float fCurX;
; 615  : 		float fCurY;
; 616  : 
; 617  : 		float fFontSx;
; 618  : 		float fFontSy;
; 619  : 		float fFontEx;
; 620  : 		float fFontEy;
; 621  : 		float fFontWidth;
; 622  : 		float fFontHeight;
; 623  : 		float fFontMaxHeight;
; 624  : 		float fFontAdvance;
; 625  : 
; 626  : 		SVertex akVertex[4];
; 627  : 		akVertex[0].z=m_v3Position.z;
; 628  : 		akVertex[1].z=m_v3Position.z;
; 629  : 		akVertex[2].z=m_v3Position.z;
; 630  : 		akVertex[3].z=m_v3Position.z;
; 631  : 
; 632  : 		CGraphicFontTexture::TCharacterInfomation* pCurCharInfo;
; 633  : 
; 634  : 		// 
; 635  : 		if (m_isOutline)

  001bf	80 7f 1b 00	 cmp	 BYTE PTR [edi+27], 0
  001c3	0f 57 c9	 xorps	 xmm1, xmm1
  001c6	f3 0f 10 47 40	 movss	 xmm0, DWORD PTR [edi+64]
  001cb	f3 0f 11 45 a4	 movss	 DWORD PTR _akVertex$13[ebp+8], xmm0
  001d0	f3 0f 11 45 bc	 movss	 DWORD PTR _akVertex$13[ebp+32], xmm0
  001d5	f3 0f 11 45 d4	 movss	 DWORD PTR _akVertex$13[ebp+56], xmm0
  001da	f3 0f 11 45 ec	 movss	 DWORD PTR _akVertex$13[ebp+80], xmm0
  001df	0f 84 47 03 00
	00		 je	 $LN216@Render

; 637  : 			fCurX=fStanX;

  001e5	f3 0f 10 55 94	 movss	 xmm2, DWORD PTR _fStanX$1$[ebp]

; 638  : 			fCurY=fStanY;

  001ea	f3 0f 10 5d 88	 movss	 xmm3, DWORD PTR _fStanY$1$[ebp]
  001ef	0f 28 e2	 movaps	 xmm4, xmm2
; File C:\Program Files (x86)\Microsoft Visual Studio\2019\Professional\VC\Tools\MSVC\14.29.30133\include\vector

; 42   :     _CONSTEXPR20_CONTAINER _Vector_const_iterator(_Tptr _Parg, const _Container_base* _Pvector) noexcept : _Ptr(_Parg) {

  001f2	8b 77 4c	 mov	 esi, DWORD PTR [edi+76]
; File C:\Users\murat\Desktop\Siveps2-1-99-Project\source\client\Client\EterLib\GrpTextInstance.cpp

; 637  : 			fCurX=fStanX;

  001f5	f3 0f 11 65 98	 movss	 DWORD PTR _fCurX$1$[ebp], xmm4

; 638  : 			fCurY=fStanY;

  001fa	f3 0f 11 5d 84	 movss	 DWORD PTR _fCurY$1$[ebp], xmm3
; File C:\Program Files (x86)\Microsoft Visual Studio\2019\Professional\VC\Tools\MSVC\14.29.30133\include\vector

; 42   :     _CONSTEXPR20_CONTAINER _Vector_const_iterator(_Tptr _Parg, const _Container_base* _Pvector) noexcept : _Ptr(_Parg) {

  001ff	3b 77 50	 cmp	 esi, DWORD PTR [edi+80]
; File C:\Users\murat\Desktop\Siveps2-1-99-Project\source\client\Client\EterLib\GrpTextInstance.cpp

; 642  : 			for (i=m_pCharInfoVector.begin(); i!=m_pCharInfoVector.end(); ++i)

  00202	0f 84 24 03 00
	00		 je	 $LN216@Render
  00208	0f 1f 84 00 00
	00 00 00	 npad	 8
$LL79@Render:

; 643  : 			{
; 644  : 				pCurCharInfo = *i;

  00210	8b 1e		 mov	 ebx, DWORD PTR [esi]

; 645  : 
; 646  : 				fFontWidth=float(pCurCharInfo->width);

  00212	0f bf 43 02	 movsx	 eax, WORD PTR [ebx+2]

; 647  : 				fFontHeight=float(pCurCharInfo->height);
; 648  : 				fFontAdvance=float(pCurCharInfo->advance);

  00216	f3 0f 10 43 18	 movss	 xmm0, DWORD PTR [ebx+24]
  0021b	f3 0f 11 85 68
	ff ff ff	 movss	 DWORD PTR tv2225[ebp], xmm0
  00223	66 0f 6e e8	 movd	 xmm5, eax
  00227	0f bf 43 04	 movsx	 eax, WORD PTR [ebx+4]
  0022b	0f 5b ed	 cvtdq2ps xmm5, xmm5
  0022e	66 0f 6e f0	 movd	 xmm6, eax

; 649  : 
; 650  : 				// NOTE :   Width  . - [levites]
; 651  : 				if ((fCurX+fFontWidth)-m_v3Position.x > m_fLimitWidth)

  00232	0f 28 c5	 movaps	 xmm0, xmm5
  00235	f3 0f 58 c4	 addss	 xmm0, xmm4
  00239	0f 5b f6	 cvtdq2ps xmm6, xmm6
  0023c	f3 0f 5c 47 38	 subss	 xmm0, DWORD PTR [edi+56]
  00241	0f 2f 47 14	 comiss	 xmm0, DWORD PTR [edi+20]
  00245	76 1b		 jbe	 SHORT $LN35@Render

; 652  : 				{
; 653  : 					if (m_isMultiLine)

  00247	80 7f 1a 00	 cmp	 BYTE PTR [edi+26], 0
  0024b	0f 84 db 02 00
	00		 je	 $LN216@Render

; 654  : 					{
; 655  : 						fCurX=fStanX;
; 656  : 						fCurY+=fFontMaxHeight;

  00251	f3 0f 58 d9	 addss	 xmm3, xmm1
  00255	0f 28 e2	 movaps	 xmm4, xmm2
  00258	f3 0f 11 65 98	 movss	 DWORD PTR _fCurX$1$[ebp], xmm4
  0025d	f3 0f 11 5d 84	 movss	 DWORD PTR _fCurY$1$[ebp], xmm3
$LN35@Render:

; 657  : 					}
; 658  : 					else
; 659  : 					{
; 660  : 						break;
; 661  : 					}
; 662  : 				}
; 663  : 
; 664  : 				if (pClipRect)

  00262	8b 45 08	 mov	 eax, DWORD PTR _pClipRect$[ebp]
  00265	85 c0		 test	 eax, eax
  00267	74 11		 je	 SHORT $LN37@Render

; 665  : 				{
; 666  : 					if (fCurY <= pClipRect->top)

  00269	66 0f 6e 40 04	 movd	 xmm0, DWORD PTR [eax+4]
  0026e	0f 5b c0	 cvtdq2ps xmm0, xmm0
  00271	0f 2f c3	 comiss	 xmm0, xmm3
  00274	0f 83 99 02 00
	00		 jae	 $LN8@Render
$LN37@Render:

; 667  : 					{
; 668  : 						fCurX += fFontAdvance;
; 669  : 						continue;
; 670  : 					}
; 671  : 				}
; 672  : 
; 673  : 				fFontSx = fCurX - 0.5f;
; 674  : 				fFontSy = fCurY - 0.5f;
; 675  : 				fFontEx = fFontSx + fFontWidth;
; 676  : 				fFontEy = fFontSy + fFontHeight;
; 677  : 
; 678  : 				pFontTexture->SelectTexture(pCurCharInfo->index);

  0027a	0f bf 03	 movsx	 eax, WORD PTR [ebx]
  0027d	0f 28 cc	 movaps	 xmm1, xmm4
  00280	f3 0f 5c 0d 00
	00 00 00	 subss	 xmm1, DWORD PTR __real@3f000000
  00288	8b 4d 90	 mov	 ecx, DWORD PTR _pFontTexture$1$[ebp]
  0028b	0f 28 c3	 movaps	 xmm0, xmm3
  0028e	f3 0f 5c 05 00
	00 00 00	 subss	 xmm0, DWORD PTR __real@3f000000
  00296	50		 push	 eax
  00297	f3 0f 11 4d 8c	 movss	 DWORD PTR _fFontSx$1$[ebp], xmm1
  0029c	f3 0f 58 cd	 addss	 xmm1, xmm5
  002a0	f3 0f 11 85 7c
	ff ff ff	 movss	 DWORD PTR _fFontSy$1$[ebp], xmm0
  002a8	f3 0f 58 c6	 addss	 xmm0, xmm6
  002ac	f3 0f 11 4d 80	 movss	 DWORD PTR _fFontEx$1$[ebp], xmm1
  002b1	f3 0f 11 85 78
	ff ff ff	 movss	 DWORD PTR _fFontEy$1$[ebp], xmm0
  002b9	e8 00 00 00 00	 call	 ?SelectTexture@CGraphicFontTexture@@QAEXK@Z ; CGraphicFontTexture::SelectTexture

; 679  : 				STATEMANAGER.SetTexture(0, pFontTexture->GetD3DTexture());

  002be	8b 4d 90	 mov	 ecx, DWORD PTR _pFontTexture$1$[ebp]
  002c1	e8 00 00 00 00	 call	 ?GetD3DTexture@CGraphicTexture@@QBEPAUIDirect3DTexture8@@XZ ; CGraphicTexture::GetD3DTexture
  002c6	8b 0d 00 00 00
	00		 mov	 ecx, DWORD PTR ?ms_singleton@?$CSingleton@VCStateManager@@@@0PAVCStateManager@@A ; CSingleton<CStateManager>::ms_singleton
  002cc	50		 push	 eax
  002cd	6a 00		 push	 0
  002cf	e8 00 00 00 00	 call	 ?SetTexture@CStateManager@@QAEXKPAUIDirect3DBaseTexture8@@@Z ; CStateManager::SetTexture

; 680  : 
; 681  : 				akVertex[0].u=pCurCharInfo->left;

  002d4	f3 0f 10 43 08	 movss	 xmm0, DWORD PTR [ebx+8]
  002d9	0f 57 d2	 xorps	 xmm2, xmm2
  002dc	f3 0f 11 45 ac	 movss	 DWORD PTR _akVertex$13[ebp+16], xmm0

; 682  : 				akVertex[0].v=pCurCharInfo->top;

  002e1	f3 0f 10 43 0c	 movss	 xmm0, DWORD PTR [ebx+12]
  002e6	f3 0f 11 45 b0	 movss	 DWORD PTR _akVertex$13[ebp+20], xmm0

; 683  : 				akVertex[1].u=pCurCharInfo->left;

  002eb	f3 0f 10 43 08	 movss	 xmm0, DWORD PTR [ebx+8]
  002f0	f3 0f 11 45 c4	 movss	 DWORD PTR _akVertex$13[ebp+40], xmm0

; 684  : 				akVertex[1].v=pCurCharInfo->bottom;

  002f5	f3 0f 10 43 14	 movss	 xmm0, DWORD PTR [ebx+20]
  002fa	f3 0f 11 45 c8	 movss	 DWORD PTR _akVertex$13[ebp+44], xmm0

; 685  : 				akVertex[2].u=pCurCharInfo->right;

  002ff	f3 0f 10 43 10	 movss	 xmm0, DWORD PTR [ebx+16]
  00304	f3 0f 11 45 dc	 movss	 DWORD PTR _akVertex$13[ebp+64], xmm0

; 686  : 				akVertex[2].v=pCurCharInfo->top;

  00309	f3 0f 10 43 0c	 movss	 xmm0, DWORD PTR [ebx+12]
  0030e	f3 0f 11 45 e0	 movss	 DWORD PTR _akVertex$13[ebp+68], xmm0

; 687  : 				akVertex[3].u=pCurCharInfo->right;

  00313	f3 0f 10 43 10	 movss	 xmm0, DWORD PTR [ebx+16]
  00318	f3 0f 11 45 f4	 movss	 DWORD PTR _akVertex$13[ebp+88], xmm0

; 688  : 				akVertex[3].v=pCurCharInfo->bottom;

  0031d	f3 0f 10 43 14	 movss	 xmm0, DWORD PTR [ebx+20]
  00322	f3 0f 11 45 f8	 movss	 DWORD PTR _akVertex$13[ebp+92], xmm0

; 689  : 
; 690  : 				akVertex[3].color = akVertex[2].color = akVertex[1].color = akVertex[0].color = m_dwOutLineColor;
; 691  : 
; 692  : 
; 693  : 				float feather = 0.0f; // m_fFontFeather
; 694  : 
; 695  : 				akVertex[0].y=fFontSy-feather;
; 696  : 				akVertex[1].y=fFontEy+feather;

  00327	f3 0f 10 85 78
	ff ff ff	 movss	 xmm0, DWORD PTR _fFontEy$1$[ebp]
  0032f	f3 0f 58 c2	 addss	 xmm0, xmm2
  00333	8b 47 08	 mov	 eax, DWORD PTR [edi+8]
  00336	f3 0f 10 8d 7c
	ff ff ff	 movss	 xmm1, DWORD PTR _fFontSy$1$[ebp]
  0033e	f3 0f 5c ca	 subss	 xmm1, xmm2
  00342	89 45 a8	 mov	 DWORD PTR _akVertex$13[ebp+12], eax
  00345	89 45 c0	 mov	 DWORD PTR _akVertex$13[ebp+36], eax
  00348	89 45 d8	 mov	 DWORD PTR _akVertex$13[ebp+60], eax
  0034b	f3 0f 11 45 b8	 movss	 DWORD PTR _akVertex$13[ebp+28], xmm0

; 697  : 				akVertex[2].y=fFontSy-feather;
; 698  : 				akVertex[3].y=fFontEy+feather;

  00350	f3 0f 11 45 e8	 movss	 DWORD PTR _akVertex$13[ebp+76], xmm0

; 699  : 
; 700  : 				// 
; 701  : 				akVertex[0].x=fFontSx-fFontHalfWeight-feather;

  00355	f3 0f 10 45 8c	 movss	 xmm0, DWORD PTR _fFontSx$1$[ebp]
  0035a	f3 0f 5c 05 00
	00 00 00	 subss	 xmm0, DWORD PTR __real@3f800000
  00362	89 45 f0	 mov	 DWORD PTR _akVertex$13[ebp+84], eax

; 702  : 				akVertex[1].x=fFontSx-fFontHalfWeight-feather;
; 703  : 				akVertex[2].x=fFontEx-fFontHalfWeight+feather;
; 704  : 				akVertex[3].x=fFontEx-fFontHalfWeight+feather;
; 705  : 
; 706  : 				if (CGraphicBase::SetPDTStream((SPDTVertex*)akVertex, 4))

  00365	8d 45 9c	 lea	 eax, DWORD PTR _akVertex$13[ebp]
  00368	6a 04		 push	 4
  0036a	50		 push	 eax
  0036b	f3 0f 11 4d a0	 movss	 DWORD PTR _akVertex$13[ebp+4], xmm1
  00370	f3 0f 5c c2	 subss	 xmm0, xmm2
  00374	f3 0f 11 4d d0	 movss	 DWORD PTR _akVertex$13[ebp+52], xmm1
  00379	f3 0f 11 45 9c	 movss	 DWORD PTR _akVertex$13[ebp], xmm0
  0037e	f3 0f 11 45 b4	 movss	 DWORD PTR _akVertex$13[ebp+24], xmm0
  00383	f3 0f 10 45 80	 movss	 xmm0, DWORD PTR _fFontEx$1$[ebp]
  00388	f3 0f 5c 05 00
	00 00 00	 subss	 xmm0, DWORD PTR __real@3f800000
  00390	f3 0f 58 c2	 addss	 xmm0, xmm2
  00394	f3 0f 11 45 cc	 movss	 DWORD PTR _akVertex$13[ebp+48], xmm0
  00399	f3 0f 11 45 e4	 movss	 DWORD PTR _akVertex$13[ebp+72], xmm0
  0039e	e8 00 00 00 00	 call	 ?SetPDTStream@CGraphicBase@@SA_NPAUSPDTVertex@@I@Z ; CGraphicBase::SetPDTStream
  003a3	83 c4 08	 add	 esp, 8
  003a6	84 c0		 test	 al, al
  003a8	74 11		 je	 SHORT $LN38@Render

; 707  : 					STATEMANAGER.DrawPrimitive(D3DPT_TRIANGLESTRIP, 0, 2);

  003aa	8b 0d 00 00 00
	00		 mov	 ecx, DWORD PTR ?ms_singleton@?$CSingleton@VCStateManager@@@@0PAVCStateManager@@A ; CSingleton<CStateManager>::ms_singleton
  003b0	6a 02		 push	 2
  003b2	6a 00		 push	 0
  003b4	6a 05		 push	 5
  003b6	e8 00 00 00 00	 call	 ?DrawPrimitive@CStateManager@@QAEJW4_D3DPRIMITIVETYPE@@II@Z ; CStateManager::DrawPrimitive
$LN38@Render:

; 708  : 
; 709  : 
; 710  : 				// 
; 711  : 				akVertex[0].x=fFontSx+fFontHalfWeight-feather;

  003bb	f3 0f 10 45 8c	 movss	 xmm0, DWORD PTR _fFontSx$1$[ebp]

; 712  : 				akVertex[1].x=fFontSx+fFontHalfWeight-feather;
; 713  : 				akVertex[2].x=fFontEx+fFontHalfWeight+feather;
; 714  : 				akVertex[3].x=fFontEx+fFontHalfWeight+feather;
; 715  : 
; 716  : 				if (CGraphicBase::SetPDTStream((SPDTVertex*)akVertex, 4))

  003c0	8d 45 9c	 lea	 eax, DWORD PTR _akVertex$13[ebp]
  003c3	f3 0f 58 05 00
	00 00 00	 addss	 xmm0, DWORD PTR __real@3f800000
  003cb	0f 57 c9	 xorps	 xmm1, xmm1
  003ce	6a 04		 push	 4
  003d0	50		 push	 eax
  003d1	f3 0f 5c c1	 subss	 xmm0, xmm1
  003d5	f3 0f 11 45 9c	 movss	 DWORD PTR _akVertex$13[ebp], xmm0
  003da	f3 0f 11 45 b4	 movss	 DWORD PTR _akVertex$13[ebp+24], xmm0
  003df	f3 0f 10 45 80	 movss	 xmm0, DWORD PTR _fFontEx$1$[ebp]
  003e4	f3 0f 58 05 00
	00 00 00	 addss	 xmm0, DWORD PTR __real@3f800000
  003ec	f3 0f 58 c1	 addss	 xmm0, xmm1
  003f0	f3 0f 11 45 cc	 movss	 DWORD PTR _akVertex$13[ebp+48], xmm0
  003f5	f3 0f 11 45 e4	 movss	 DWORD PTR _akVertex$13[ebp+72], xmm0
  003fa	e8 00 00 00 00	 call	 ?SetPDTStream@CGraphicBase@@SA_NPAUSPDTVertex@@I@Z ; CGraphicBase::SetPDTStream
  003ff	83 c4 08	 add	 esp, 8
  00402	84 c0		 test	 al, al
  00404	74 11		 je	 SHORT $LN39@Render

; 717  : 					STATEMANAGER.DrawPrimitive(D3DPT_TRIANGLESTRIP, 0, 2);

  00406	8b 0d 00 00 00
	00		 mov	 ecx, DWORD PTR ?ms_singleton@?$CSingleton@VCStateManager@@@@0PAVCStateManager@@A ; CSingleton<CStateManager>::ms_singleton
  0040c	6a 02		 push	 2
  0040e	6a 00		 push	 0
  00410	6a 05		 push	 5
  00412	e8 00 00 00 00	 call	 ?DrawPrimitive@CStateManager@@QAEJW4_D3DPRIMITIVETYPE@@II@Z ; CStateManager::DrawPrimitive
$LN39@Render:

; 718  : 
; 719  : 				akVertex[0].x=fFontSx-feather;

  00417	f3 0f 10 45 8c	 movss	 xmm0, DWORD PTR _fFontSx$1$[ebp]

; 720  : 				akVertex[1].x=fFontSx-feather;
; 721  : 				akVertex[2].x=fFontEx+feather;
; 722  : 				akVertex[3].x=fFontEx+feather;
; 723  : 
; 724  : 				// 
; 725  : 				akVertex[0].y=fFontSy-fFontHalfWeight-feather;
; 726  : 				akVertex[1].y=fFontEy-fFontHalfWeight+feather;
; 727  : 				akVertex[2].y=fFontSy-fFontHalfWeight-feather;
; 728  : 				akVertex[3].y=fFontEy-fFontHalfWeight+feather;
; 729  : 
; 730  : 				// 20041216.myevan.DrawPrimitiveUP
; 731  : 				if (CGraphicBase::SetPDTStream((SPDTVertex*)akVertex, 4))

  0041c	8d 45 9c	 lea	 eax, DWORD PTR _akVertex$13[ebp]
  0041f	f3 0f 10 8d 7c
	ff ff ff	 movss	 xmm1, DWORD PTR _fFontSy$1$[ebp]
  00427	0f 57 d2	 xorps	 xmm2, xmm2
  0042a	f3 0f 5c 0d 00
	00 00 00	 subss	 xmm1, DWORD PTR __real@3f800000
  00432	f3 0f 5c c2	 subss	 xmm0, xmm2
  00436	6a 04		 push	 4
  00438	50		 push	 eax
  00439	f3 0f 5c ca	 subss	 xmm1, xmm2
  0043d	f3 0f 11 45 9c	 movss	 DWORD PTR _akVertex$13[ebp], xmm0
  00442	f3 0f 11 45 b4	 movss	 DWORD PTR _akVertex$13[ebp+24], xmm0
  00447	f3 0f 10 45 80	 movss	 xmm0, DWORD PTR _fFontEx$1$[ebp]
  0044c	f3 0f 58 c2	 addss	 xmm0, xmm2
  00450	f3 0f 11 4d a0	 movss	 DWORD PTR _akVertex$13[ebp+4], xmm1
  00455	f3 0f 11 4d d0	 movss	 DWORD PTR _akVertex$13[ebp+52], xmm1
  0045a	f3 0f 11 45 cc	 movss	 DWORD PTR _akVertex$13[ebp+48], xmm0
  0045f	f3 0f 11 45 e4	 movss	 DWORD PTR _akVertex$13[ebp+72], xmm0
  00464	f3 0f 10 85 78
	ff ff ff	 movss	 xmm0, DWORD PTR _fFontEy$1$[ebp]
  0046c	f3 0f 5c 05 00
	00 00 00	 subss	 xmm0, DWORD PTR __real@3f800000
  00474	f3 0f 58 c2	 addss	 xmm0, xmm2
  00478	f3 0f 11 45 b8	 movss	 DWORD PTR _akVertex$13[ebp+28], xmm0
  0047d	f3 0f 11 45 e8	 movss	 DWORD PTR _akVertex$13[ebp+76], xmm0
  00482	e8 00 00 00 00	 call	 ?SetPDTStream@CGraphicBase@@SA_NPAUSPDTVertex@@I@Z ; CGraphicBase::SetPDTStream
  00487	83 c4 08	 add	 esp, 8
  0048a	84 c0		 test	 al, al
  0048c	74 11		 je	 SHORT $LN40@Render

; 732  : 					STATEMANAGER.DrawPrimitive(D3DPT_TRIANGLESTRIP, 0, 2);

  0048e	8b 0d 00 00 00
	00		 mov	 ecx, DWORD PTR ?ms_singleton@?$CSingleton@VCStateManager@@@@0PAVCStateManager@@A ; CSingleton<CStateManager>::ms_singleton
  00494	6a 02		 push	 2
  00496	6a 00		 push	 0
  00498	6a 05		 push	 5
  0049a	e8 00 00 00 00	 call	 ?DrawPrimitive@CStateManager@@QAEJW4_D3DPRIMITIVETYPE@@II@Z ; CStateManager::DrawPrimitive
$LN40@Render:

; 733  : 
; 734  : 				// 
; 735  : 				akVertex[0].y=fFontSy+fFontHalfWeight-feather;

  0049f	f3 0f 10 85 7c
	ff ff ff	 movss	 xmm0, DWORD PTR _fFontSy$1$[ebp]

; 736  : 				akVertex[1].y=fFontEy+fFontHalfWeight+feather;
; 737  : 				akVertex[2].y=fFontSy+fFontHalfWeight-feather;
; 738  : 				akVertex[3].y=fFontEy+fFontHalfWeight+feather;
; 739  : 
; 740  : 				// 20041216.myevan.DrawPrimitiveUP
; 741  : 				if (CGraphicBase::SetPDTStream((SPDTVertex*)akVertex, 4))

  004a7	8d 45 9c	 lea	 eax, DWORD PTR _akVertex$13[ebp]
  004aa	f3 0f 10 95 78
	ff ff ff	 movss	 xmm2, DWORD PTR _fFontEy$1$[ebp]
  004b2	0f 57 c9	 xorps	 xmm1, xmm1
  004b5	f3 0f 58 05 00
	00 00 00	 addss	 xmm0, DWORD PTR __real@3f800000
  004bd	f3 0f 58 15 00
	00 00 00	 addss	 xmm2, DWORD PTR __real@3f800000
  004c5	6a 04		 push	 4
  004c7	50		 push	 eax
  004c8	f3 0f 5c c1	 subss	 xmm0, xmm1
  004cc	f3 0f 58 d1	 addss	 xmm2, xmm1
  004d0	f3 0f 11 45 a0	 movss	 DWORD PTR _akVertex$13[ebp+4], xmm0
  004d5	f3 0f 11 55 b8	 movss	 DWORD PTR _akVertex$13[ebp+28], xmm2
  004da	f3 0f 11 45 d0	 movss	 DWORD PTR _akVertex$13[ebp+52], xmm0
  004df	f3 0f 11 55 e8	 movss	 DWORD PTR _akVertex$13[ebp+76], xmm2
  004e4	e8 00 00 00 00	 call	 ?SetPDTStream@CGraphicBase@@SA_NPAUSPDTVertex@@I@Z ; CGraphicBase::SetPDTStream
  004e9	83 c4 08	 add	 esp, 8
  004ec	84 c0		 test	 al, al
  004ee	74 11		 je	 SHORT $LN218@Render

; 742  : 					STATEMANAGER.DrawPrimitive(D3DPT_TRIANGLESTRIP, 0, 2);

  004f0	8b 0d 00 00 00
	00		 mov	 ecx, DWORD PTR ?ms_singleton@?$CSingleton@VCStateManager@@@@0PAVCStateManager@@A ; CSingleton<CStateManager>::ms_singleton
  004f6	6a 02		 push	 2
  004f8	6a 00		 push	 0
  004fa	6a 05		 push	 5
  004fc	e8 00 00 00 00	 call	 ?DrawPrimitive@CStateManager@@QAEJW4_D3DPRIMITIVETYPE@@II@Z ; CStateManager::DrawPrimitive
$LN218@Render:
; File C:\Program Files (x86)\Microsoft Visual Studio\2019\Professional\VC\Tools\MSVC\14.29.30133\include\vector

; 78   :         ++_Ptr;

  00501	f3 0f 10 65 98	 movss	 xmm4, DWORD PTR _fCurX$1$[ebp]
  00506	0f 57 c9	 xorps	 xmm1, xmm1
  00509	f3 0f 10 5d 84	 movss	 xmm3, DWORD PTR _fCurY$1$[ebp]
  0050e	f3 0f 10 55 94	 movss	 xmm2, DWORD PTR _fStanX$1$[ebp]
$LN8@Render:
  00513	f3 0f 58 a5 68
	ff ff ff	 addss	 xmm4, DWORD PTR tv2225[ebp]
  0051b	83 c6 04	 add	 esi, 4

; 42   :     _CONSTEXPR20_CONTAINER _Vector_const_iterator(_Tptr _Parg, const _Container_base* _Pvector) noexcept : _Ptr(_Parg) {

  0051e	f3 0f 11 65 98	 movss	 DWORD PTR _fCurX$1$[ebp], xmm4

; 154  :         return _Ptr == _Right._Ptr;

  00523	3b 77 50	 cmp	 esi, DWORD PTR [edi+80]
; File C:\Users\murat\Desktop\Siveps2-1-99-Project\source\client\Client\EterLib\GrpTextInstance.cpp

; 642  : 			for (i=m_pCharInfoVector.begin(); i!=m_pCharInfoVector.end(); ++i)

  00526	0f 85 e4 fc ff
	ff		 jne	 $LL79@Render
$LN216@Render:
; File C:\Program Files (x86)\Microsoft Visual Studio\2019\Professional\VC\Tools\MSVC\14.29.30133\include\vector

; 1549 :         return static_cast<size_type>(_My_data._Mylast - _My_data._Myfirst);

  0052c	8b 47 50	 mov	 eax, DWORD PTR [edi+80]
; File C:\Users\murat\Desktop\Siveps2-1-99-Project\source\client\Client\EterLib\GrpTextInstance.cpp

; 753  : 		for (int i = 0; i < m_pCharInfoVector.size(); ++i)

  0052f	33 db		 xor	 ebx, ebx
; File C:\Program Files (x86)\Microsoft Visual Studio\2019\Professional\VC\Tools\MSVC\14.29.30133\include\vector

; 1549 :         return static_cast<size_type>(_My_data._Mylast - _My_data._Myfirst);

  00531	8b 4f 4c	 mov	 ecx, DWORD PTR [edi+76]
  00534	2b c1		 sub	 eax, ecx
; File C:\Users\murat\Desktop\Siveps2-1-99-Project\source\client\Client\EterLib\GrpTextInstance.cpp

; 749  : 		fCurX=fStanX;

  00536	f3 0f 10 4d 94	 movss	 xmm1, DWORD PTR _fStanX$1$[ebp]

; 750  : 		fCurY=fStanY;

  0053b	f3 0f 10 5d 88	 movss	 xmm3, DWORD PTR _fStanY$1$[ebp]
  00540	0f 28 d1	 movaps	 xmm2, xmm1
; File C:\Program Files (x86)\Microsoft Visual Studio\2019\Professional\VC\Tools\MSVC\14.29.30133\include\vector

; 1549 :         return static_cast<size_type>(_My_data._Mylast - _My_data._Myfirst);

  00543	c1 f8 02	 sar	 eax, 2
; File C:\Users\murat\Desktop\Siveps2-1-99-Project\source\client\Client\EterLib\GrpTextInstance.cpp

; 749  : 		fCurX=fStanX;

  00546	f3 0f 11 55 98	 movss	 DWORD PTR _fCurX$2$[ebp], xmm2

; 750  : 		fCurY=fStanY;

  0054b	f3 0f 11 5d 84	 movss	 DWORD PTR _fCurY$2$[ebp], xmm3

; 753  : 		for (int i = 0; i < m_pCharInfoVector.size(); ++i)

  00550	85 c0		 test	 eax, eax
  00552	0f 84 ca 01 00
	00		 je	 $LN217@Render
  00558	0f 1f 84 00 00
	00 00 00	 npad	 8
$LL13@Render:

; 754  : 		{
; 755  : 			pCurCharInfo = m_pCharInfoVector[i];

  00560	8b 34 99	 mov	 esi, DWORD PTR [ecx+ebx*4]

; 756  : 
; 757  : 			fFontWidth=float(pCurCharInfo->width);

  00563	0f bf 46 02	 movsx	 eax, WORD PTR [esi+2]

; 758  : 			fFontHeight=float(pCurCharInfo->height);
; 759  : 			fFontMaxHeight=max(fFontHeight, pCurCharInfo->height);
; 760  : 			fFontAdvance=float(pCurCharInfo->advance);

  00567	f3 0f 10 46 18	 movss	 xmm0, DWORD PTR [esi+24]
  0056c	f3 0f 11 45 8c	 movss	 DWORD PTR tv2263[ebp], xmm0
  00571	66 0f 6e e8	 movd	 xmm5, eax
  00575	0f bf 46 04	 movsx	 eax, WORD PTR [esi+4]
  00579	0f 5b ed	 cvtdq2ps xmm5, xmm5
  0057c	66 0f 6e e0	 movd	 xmm4, eax

; 761  : 
; 762  : 			// NOTE :   Width  . - [levites]
; 763  : 			if ((fCurX+fFontWidth)-m_v3Position.x > m_fLimitWidth)

  00580	0f 28 c5	 movaps	 xmm0, xmm5
  00583	f3 0f 58 c2	 addss	 xmm0, xmm2
  00587	0f 5b e4	 cvtdq2ps xmm4, xmm4
  0058a	f3 0f 5c 47 38	 subss	 xmm0, DWORD PTR [edi+56]
  0058f	0f 2f 47 14	 comiss	 xmm0, DWORD PTR [edi+20]
  00593	76 1e		 jbe	 SHORT $LN44@Render

; 764  : 			{
; 765  : 				if (m_isMultiLine)

  00595	80 7f 1a 00	 cmp	 BYTE PTR [edi+26], 0
  00599	0f 84 83 01 00
	00		 je	 $LN217@Render

; 766  : 				{
; 767  : 					fCurX=fStanX;
; 768  : 					fCurY+=fFontMaxHeight;

  0059f	0f 28 c4	 movaps	 xmm0, xmm4
  005a2	0f 28 d1	 movaps	 xmm2, xmm1
  005a5	f3 0f 58 d8	 addss	 xmm3, xmm0
  005a9	f3 0f 11 55 98	 movss	 DWORD PTR _fCurX$2$[ebp], xmm2
  005ae	f3 0f 11 5d 84	 movss	 DWORD PTR _fCurY$2$[ebp], xmm3
$LN44@Render:

; 769  : 				}
; 770  : 				else
; 771  : 				{
; 772  : 					break;
; 773  : 				}
; 774  : 			}
; 775  : 
; 776  : 			if (pClipRect)

  005b3	8b 45 08	 mov	 eax, DWORD PTR _pClipRect$[ebp]
  005b6	85 c0		 test	 eax, eax
  005b8	74 11		 je	 SHORT $LN46@Render

; 777  : 			{
; 778  : 				if (fCurY <= pClipRect->top)

  005ba	66 0f 6e 40 04	 movd	 xmm0, DWORD PTR [eax+4]
  005bf	0f 5b c0	 cvtdq2ps xmm0, xmm0
  005c2	0f 2f c3	 comiss	 xmm0, xmm3
  005c5	0f 83 39 01 00
	00		 jae	 $LN11@Render
$LN46@Render:

; 779  : 				{
; 780  : 					fCurX += fFontAdvance;
; 781  : 					continue;
; 782  : 				}
; 783  : 			}
; 784  : 
; 785  : 			fFontSx = fCurX-0.5f;
; 786  : 			fFontSy = fCurY-0.5f;
; 787  : 			fFontEx = fFontSx + fFontWidth;
; 788  : 			fFontEy = fFontSy + fFontHeight;
; 789  : 
; 790  : 			pFontTexture->SelectTexture(pCurCharInfo->index);

  005cb	0f bf 06	 movsx	 eax, WORD PTR [esi]
  005ce	0f 28 c2	 movaps	 xmm0, xmm2
  005d1	f3 0f 5c 05 00
	00 00 00	 subss	 xmm0, DWORD PTR __real@3f000000
  005d9	8b 4d 90	 mov	 ecx, DWORD PTR _pFontTexture$1$[ebp]
  005dc	0f 28 cb	 movaps	 xmm1, xmm3
  005df	f3 0f 5c 0d 00
	00 00 00	 subss	 xmm1, DWORD PTR __real@3f000000
  005e7	50		 push	 eax
  005e8	f3 0f 11 85 68
	ff ff ff	 movss	 DWORD PTR _fFontSx$2$[ebp], xmm0
  005f0	f3 0f 58 c5	 addss	 xmm0, xmm5
  005f4	f3 0f 11 8d 78
	ff ff ff	 movss	 DWORD PTR _fFontSy$2$[ebp], xmm1
  005fc	f3 0f 11 45 80	 movss	 DWORD PTR _fFontEx$2$[ebp], xmm0
  00601	0f 28 c1	 movaps	 xmm0, xmm1
  00604	f3 0f 58 c4	 addss	 xmm0, xmm4
  00608	f3 0f 11 85 7c
	ff ff ff	 movss	 DWORD PTR _fFontEy$2$[ebp], xmm0
  00610	e8 00 00 00 00	 call	 ?SelectTexture@CGraphicFontTexture@@QAEXK@Z ; CGraphicFontTexture::SelectTexture

; 791  : 			STATEMANAGER.SetTexture(0, pFontTexture->GetD3DTexture());

  00615	8b 4d 90	 mov	 ecx, DWORD PTR _pFontTexture$1$[ebp]
  00618	e8 00 00 00 00	 call	 ?GetD3DTexture@CGraphicTexture@@QBEPAUIDirect3DTexture8@@XZ ; CGraphicTexture::GetD3DTexture
  0061d	8b 0d 00 00 00
	00		 mov	 ecx, DWORD PTR ?ms_singleton@?$CSingleton@VCStateManager@@@@0PAVCStateManager@@A ; CSingleton<CStateManager>::ms_singleton
  00623	50		 push	 eax
  00624	6a 00		 push	 0
  00626	e8 00 00 00 00	 call	 ?SetTexture@CStateManager@@QAEXKPAUIDirect3DBaseTexture8@@@Z ; CStateManager::SetTexture

; 792  : 
; 793  : 			akVertex[0].x=fFontSx;

  0062b	f3 0f 10 8d 68
	ff ff ff	 movss	 xmm1, DWORD PTR _fFontSx$2$[ebp]

; 794  : 			akVertex[0].y=fFontSy;

  00633	f3 0f 10 95 78
	ff ff ff	 movss	 xmm2, DWORD PTR _fFontSy$2$[ebp]

; 795  : 			akVertex[0].u=pCurCharInfo->left;
; 796  : 			akVertex[0].v=pCurCharInfo->top;
; 797  : 
; 798  : 			akVertex[1].x=fFontSx;
; 799  : 			akVertex[1].y=fFontEy;
; 800  : 			akVertex[1].u=pCurCharInfo->left;
; 801  : 			akVertex[1].v=pCurCharInfo->bottom;
; 802  : 
; 803  : 			akVertex[2].x=fFontEx;

  0063b	f3 0f 10 5d 80	 movss	 xmm3, DWORD PTR _fFontEx$2$[ebp]

; 804  : 			akVertex[2].y=fFontSy;
; 805  : 			akVertex[2].u=pCurCharInfo->right;
; 806  : 			akVertex[2].v=pCurCharInfo->top;
; 807  : 
; 808  : 			akVertex[3].x=fFontEx;
; 809  : 			akVertex[3].y=fFontEy;
; 810  : 			akVertex[3].u=pCurCharInfo->right;
; 811  : 			akVertex[3].v=pCurCharInfo->bottom;
; 812  : 
; 813  : 			//m_dwColorInfoVector[i];
; 814  : 			//m_dwTextColor;
; 815  : 			akVertex[0].color = akVertex[1].color = akVertex[2].color = akVertex[3].color = m_dwColorInfoVector[i];

  00640	8b 47 58	 mov	 eax, DWORD PTR [edi+88]
  00643	f3 0f 11 4d 9c	 movss	 DWORD PTR _akVertex$13[ebp], xmm1
  00648	f3 0f 11 55 a0	 movss	 DWORD PTR _akVertex$13[ebp+4], xmm2
  0064d	f3 0f 10 46 08	 movss	 xmm0, DWORD PTR [esi+8]
  00652	f3 0f 11 45 ac	 movss	 DWORD PTR _akVertex$13[ebp+16], xmm0
  00657	f3 0f 10 46 0c	 movss	 xmm0, DWORD PTR [esi+12]
  0065c	f3 0f 11 4d b4	 movss	 DWORD PTR _akVertex$13[ebp+24], xmm1
  00661	f3 0f 10 8d 7c
	ff ff ff	 movss	 xmm1, DWORD PTR _fFontEy$2$[ebp]
  00669	f3 0f 11 45 b0	 movss	 DWORD PTR _akVertex$13[ebp+20], xmm0
  0066e	f3 0f 11 4d b8	 movss	 DWORD PTR _akVertex$13[ebp+28], xmm1
  00673	f3 0f 10 46 08	 movss	 xmm0, DWORD PTR [esi+8]
  00678	f3 0f 11 45 c4	 movss	 DWORD PTR _akVertex$13[ebp+40], xmm0
  0067d	f3 0f 10 46 14	 movss	 xmm0, DWORD PTR [esi+20]
  00682	f3 0f 11 45 c8	 movss	 DWORD PTR _akVertex$13[ebp+44], xmm0
  00687	f3 0f 11 5d cc	 movss	 DWORD PTR _akVertex$13[ebp+48], xmm3
  0068c	f3 0f 11 55 d0	 movss	 DWORD PTR _akVertex$13[ebp+52], xmm2
  00691	f3 0f 10 46 10	 movss	 xmm0, DWORD PTR [esi+16]
  00696	f3 0f 11 45 dc	 movss	 DWORD PTR _akVertex$13[ebp+64], xmm0
  0069b	f3 0f 10 46 0c	 movss	 xmm0, DWORD PTR [esi+12]
  006a0	f3 0f 11 45 e0	 movss	 DWORD PTR _akVertex$13[ebp+68], xmm0
  006a5	f3 0f 11 5d e4	 movss	 DWORD PTR _akVertex$13[ebp+72], xmm3
  006aa	f3 0f 11 4d e8	 movss	 DWORD PTR _akVertex$13[ebp+76], xmm1
  006af	f3 0f 10 46 10	 movss	 xmm0, DWORD PTR [esi+16]
  006b4	f3 0f 11 45 f4	 movss	 DWORD PTR _akVertex$13[ebp+88], xmm0
  006b9	f3 0f 10 46 14	 movss	 xmm0, DWORD PTR [esi+20]
  006be	f3 0f 11 45 f8	 movss	 DWORD PTR _akVertex$13[ebp+92], xmm0
  006c3	8b 04 98	 mov	 eax, DWORD PTR [eax+ebx*4]
  006c6	89 45 f0	 mov	 DWORD PTR _akVertex$13[ebp+84], eax
  006c9	89 45 d8	 mov	 DWORD PTR _akVertex$13[ebp+60], eax
  006cc	89 45 c0	 mov	 DWORD PTR _akVertex$13[ebp+36], eax
  006cf	89 45 a8	 mov	 DWORD PTR _akVertex$13[ebp+12], eax

; 816  : 
; 817  : 			// 20041216.myevan.DrawPrimitiveUP
; 818  : 			if (CGraphicBase::SetPDTStream((SPDTVertex*)akVertex, 4))

  006d2	8d 45 9c	 lea	 eax, DWORD PTR _akVertex$13[ebp]
  006d5	6a 04		 push	 4
  006d7	50		 push	 eax
  006d8	e8 00 00 00 00	 call	 ?SetPDTStream@CGraphicBase@@SA_NPAUSPDTVertex@@I@Z ; CGraphicBase::SetPDTStream
  006dd	83 c4 08	 add	 esp, 8
  006e0	84 c0		 test	 al, al
  006e2	74 11		 je	 SHORT $LN219@Render

; 819  : 				STATEMANAGER.DrawPrimitive(D3DPT_TRIANGLESTRIP, 0, 2);

  006e4	8b 0d 00 00 00
	00		 mov	 ecx, DWORD PTR ?ms_singleton@?$CSingleton@VCStateManager@@@@0PAVCStateManager@@A ; CSingleton<CStateManager>::ms_singleton
  006ea	6a 02		 push	 2
  006ec	6a 00		 push	 0
  006ee	6a 05		 push	 5
  006f0	e8 00 00 00 00	 call	 ?DrawPrimitive@CStateManager@@QAEJW4_D3DPRIMITIVETYPE@@II@Z ; CStateManager::DrawPrimitive
$LN219@Render:

; 753  : 		for (int i = 0; i < m_pCharInfoVector.size(); ++i)

  006f5	f3 0f 10 5d 84	 movss	 xmm3, DWORD PTR _fCurY$2$[ebp]
  006fa	f3 0f 10 55 98	 movss	 xmm2, DWORD PTR _fCurX$2$[ebp]
  006ff	f3 0f 10 4d 94	 movss	 xmm1, DWORD PTR _fStanX$1$[ebp]
$LN11@Render:
; File C:\Program Files (x86)\Microsoft Visual Studio\2019\Professional\VC\Tools\MSVC\14.29.30133\include\vector

; 1549 :         return static_cast<size_type>(_My_data._Mylast - _My_data._Myfirst);

  00704	8b 47 50	 mov	 eax, DWORD PTR [edi+80]
; File C:\Users\murat\Desktop\Siveps2-1-99-Project\source\client\Client\EterLib\GrpTextInstance.cpp

; 753  : 		for (int i = 0; i < m_pCharInfoVector.size(); ++i)

  00707	43		 inc	 ebx
; File C:\Program Files (x86)\Microsoft Visual Studio\2019\Professional\VC\Tools\MSVC\14.29.30133\include\vector

; 1549 :         return static_cast<size_type>(_My_data._Mylast - _My_data._Myfirst);

  00708	8b 4f 4c	 mov	 ecx, DWORD PTR [edi+76]
  0070b	2b c1		 sub	 eax, ecx
; File C:\Users\murat\Desktop\Siveps2-1-99-Project\source\client\Client\EterLib\GrpTextInstance.cpp

; 753  : 		for (int i = 0; i < m_pCharInfoVector.size(); ++i)

  0070d	f3 0f 58 55 8c	 addss	 xmm2, DWORD PTR tv2263[ebp]
; File C:\Program Files (x86)\Microsoft Visual Studio\2019\Professional\VC\Tools\MSVC\14.29.30133\include\vector

; 1549 :         return static_cast<size_type>(_My_data._Mylast - _My_data._Myfirst);

  00712	c1 f8 02	 sar	 eax, 2
  00715	f3 0f 11 55 98	 movss	 DWORD PTR _fCurX$2$[ebp], xmm2
; File C:\Users\murat\Desktop\Siveps2-1-99-Project\source\client\Client\EterLib\GrpTextInstance.cpp

; 753  : 		for (int i = 0; i < m_pCharInfoVector.size(); ++i)

  0071a	3b d8		 cmp	 ebx, eax
  0071c	0f 82 3e fe ff
	ff		 jb	 $LL13@Render
$LN217@Render:

; 820  : 			//STATEMANAGER.DrawPrimitiveUP(D3DPT_TRIANGLESTRIP, 2, akVertex, sizeof(SVertex));
; 821  : 
; 822  : 			fCurX += fFontAdvance;
; 823  : 		}
; 824  : 	}
; 825  : 
; 826  : 	if (m_isCursor)

  00722	80 7f 18 00	 cmp	 BYTE PTR [edi+24], 0
  00726	0f 84 c6 02 00
	00		 je	 $LN56@Render

; 827  : 	{
; 828  : 		// Draw Cursor
; 829  : 		float sx, sy, ex, ey;
; 830  : 		TDiffuse diffuse;
; 831  : 
; 832  : 		int curpos = CIME::GetCurPos();

  0072c	e8 00 00 00 00	 call	 ?GetCurPos@CIME@@SAHXZ	; CIME::GetCurPos
  00731	8b d8		 mov	 ebx, eax

; 833  : 		int compend = curpos + CIME::GetCompLen();

  00733	e8 00 00 00 00	 call	 ?GetCompLen@CIME@@SAHXZ	; CIME::GetCompLen

; 834  : 
; 835  : 		__GetTextPos(curpos, &sx, &sy);

  00738	8b cf		 mov	 ecx, edi
  0073a	8d 34 03	 lea	 esi, DWORD PTR [ebx+eax]
  0073d	8d 45 90	 lea	 eax, DWORD PTR _sy$10[ebp]
  00740	50		 push	 eax
  00741	8d 45 98	 lea	 eax, DWORD PTR _sx$11[ebp]
  00744	50		 push	 eax
  00745	53		 push	 ebx
  00746	e8 00 00 00 00	 call	 ?__GetTextPos@CGraphicTextInstance@@IAEXKPAM0@Z ; CGraphicTextInstance::__GetTextPos

; 836  : 
; 837  : 		// If Composition
; 838  : 		if(curpos<compend)

  0074b	f3 0f 10 4d 98	 movss	 xmm1, DWORD PTR _sx$11[ebp]
  00750	3b de		 cmp	 ebx, esi
  00752	7d 21		 jge	 SHORT $LN49@Render

; 839  : 		{
; 840  : 			diffuse = 0x7fffffff;
; 841  : 			__GetTextPos(compend, &ex, &sy);

  00754	8d 45 90	 lea	 eax, DWORD PTR _sy$10[ebp]
  00757	8b cf		 mov	 ecx, edi
  00759	50		 push	 eax
  0075a	8d 45 8c	 lea	 eax, DWORD PTR _ex$9[ebp]
  0075d	50		 push	 eax
  0075e	56		 push	 esi
  0075f	e8 00 00 00 00	 call	 ?__GetTextPos@CGraphicTextInstance@@IAEXKPAM0@Z ; CGraphicTextInstance::__GetTextPos

; 842  : 		}

  00764	f3 0f 10 65 8c	 movss	 xmm4, DWORD PTR _ex$9[ebp]
  00769	ba ff ff ff 7f	 mov	 edx, 2147483647		; 7fffffffH
  0076e	f3 0f 10 4d 98	 movss	 xmm1, DWORD PTR _sx$11[ebp]
  00773	eb 0e		 jmp	 SHORT $LN50@Render
$LN49@Render:

; 843  : 		else
; 844  : 		{
; 845  : 			diffuse = 0xffffffff;
; 846  : 			ex = sx + 2;

  00775	0f 28 e1	 movaps	 xmm4, xmm1
  00778	83 ca ff	 or	 edx, -1
  0077b	f3 0f 58 25 00
	00 00 00	 addss	 xmm4, DWORD PTR __real@40000000
$LN50@Render:

; 847  : 		}
; 848  : 
; 849  : 		// FOR_ARABIC_ALIGN
; 850  : 		if (defCodePage == CP_ARABIC)

  00783	81 bd 64 ff ff
	ff e8 04 00 00	 cmp	 DWORD PTR _defCodePage$1$[ebp], 1256 ; 000004e8H
  0078d	0f b7 4f 0e	 movzx	 ecx, WORD PTR [edi+14]
  00791	f3 0f 10 57 38	 movss	 xmm2, DWORD PTR [edi+56]
  00796	66 0f 6e e9	 movd	 xmm5, ecx
  0079a	0f 5b ed	 cvtdq2ps xmm5, xmm5
  0079d	75 0f		 jne	 SHORT $LN51@Render

; 851  : 		{
; 852  : 			sx += m_v3Position.x - m_textWidth;

  0079f	0f b7 47 0c	 movzx	 eax, WORD PTR [edi+12]
  007a3	66 0f 6e c0	 movd	 xmm0, eax
  007a7	0f 5b c0	 cvtdq2ps xmm0, xmm0
  007aa	f3 0f 5c d0	 subss	 xmm2, xmm0
$LN51@Render:

; 853  : 			ex += m_v3Position.x - m_textWidth;
; 854  : 			sy += m_v3Position.y;
; 855  : 			ey = sy + m_textHeight;
; 856  : 		}
; 857  : 		else
; 858  : 		{
; 859  : 			sx += m_v3Position.x;
; 860  : 			sy += m_v3Position.y;
; 861  : 			ex += m_v3Position.x;
; 862  : 			ey = sy + m_textHeight;
; 863  : 		}
; 864  : 
; 865  : 		switch (m_vAlign)

  007ae	0f 28 da	 movaps	 xmm3, xmm2
  007b1	8b c1		 mov	 eax, ecx
  007b3	8a 4f 11	 mov	 cl, BYTE PTR [edi+17]
  007b6	f3 0f 58 d9	 addss	 xmm3, xmm1
  007ba	f3 0f 10 4d 90	 movss	 xmm1, DWORD PTR _sy$10[ebp]
  007bf	f3 0f 58 d4	 addss	 xmm2, xmm4
  007c3	f3 0f 58 4f 3c	 addss	 xmm1, DWORD PTR [edi+60]
  007c8	f3 0f 11 5d 98	 movss	 DWORD PTR _sx$11[ebp], xmm3
  007cd	f3 0f 11 55 8c	 movss	 DWORD PTR _ex$9[ebp], xmm2
  007d2	f3 0f 11 4d 90	 movss	 DWORD PTR _sy$10[ebp], xmm1
  007d7	0f 28 e1	 movaps	 xmm4, xmm1
  007da	f3 0f 58 e9	 addss	 xmm5, xmm1
  007de	80 f9 20	 cmp	 cl, 32			; 00000020H
  007e1	74 11		 je	 SHORT $LN54@Render
  007e3	80 f9 30	 cmp	 cl, 48			; 00000030H
  007e6	75 2a		 jne	 SHORT $LN97@Render

; 866  : 		{
; 867  : 			case VERTICAL_ALIGN_BOTTOM:
; 868  : 				sy -= m_textHeight;

  007e8	0f b7 c0	 movzx	 eax, ax
  007eb	66 0f 6e c0	 movd	 xmm0, eax
  007ef	0f 5b c0	 cvtdq2ps xmm0, xmm0

; 869  : 				break;

  007f2	eb 12		 jmp	 SHORT $LN223@Render
$LN54@Render:

; 870  : 
; 871  : 			case VERTICAL_ALIGN_CENTER:
; 872  : 				sy -= float(m_textHeight) / 2.0f;

  007f4	0f b7 c0	 movzx	 eax, ax
  007f7	66 0f 6e c0	 movd	 xmm0, eax
  007fb	0f 5b c0	 cvtdq2ps xmm0, xmm0
  007fe	f3 0f 59 05 00
	00 00 00	 mulss	 xmm0, DWORD PTR __real@3f000000
$LN223@Render:

; 873  : 				break;
; 874  : 		}
; 875  : 		//  
; 876  : 		//  ... STRIP ,    DrawPrimitive 
; 877  : 		//   !
; 878  : 
; 879  : 		TPDTVertex vertices[4];
; 880  : 		vertices[0].diffuse = diffuse;

  00806	0f 28 cc	 movaps	 xmm1, xmm4
  00809	f3 0f 5c c8	 subss	 xmm1, xmm0
  0080d	f3 0f 11 4d 90	 movss	 DWORD PTR _sy$10[ebp], xmm1
$LN97@Render:

; 888  : 
; 889  : 		STATEMANAGER.SetTexture(0, NULL);

  00812	8b 0d 00 00 00
	00		 mov	 ecx, DWORD PTR ?ms_singleton@?$CSingleton@VCStateManager@@@@0PAVCStateManager@@A ; CSingleton<CStateManager>::ms_singleton
  00818	0f 28 c3	 movaps	 xmm0, xmm3
  0081b	0f 14 c1	 unpcklps xmm0, xmm1
; File C:\Users\murat\Desktop\Siveps2-1-99-Project\source\client\extern\include\d3dx8math.inl

; 182  :     z = fz;

  0081e	c7 85 74 ff ff
	ff 00 00 00 00	 mov	 DWORD PTR $T8[ebp+8], 0
; File C:\Users\murat\Desktop\Siveps2-1-99-Project\source\client\Client\EterLib\GrpTextInstance.cpp

; 884  : 		vertices[0].position = TPosition(sx, sy, 0.0f);

  00828	8b 85 74 ff ff
	ff		 mov	 eax, DWORD PTR $T8[ebp+8]
  0082e	89 45 a4	 mov	 DWORD PTR _vertices$12[ebp+8], eax
  00831	66 0f d6 45 9c	 movq	 QWORD PTR _vertices$12[ebp], xmm0

; 885  : 		vertices[1].position = TPosition(ex, sy, 0.0f);

  00836	0f 28 c2	 movaps	 xmm0, xmm2
; File C:\Users\murat\Desktop\Siveps2-1-99-Project\source\client\extern\include\d3dx8math.inl

; 182  :     z = fz;

  00839	c7 85 74 ff ff
	ff 00 00 00 00	 mov	 DWORD PTR $T7[ebp+8], 0
; File C:\Users\murat\Desktop\Siveps2-1-99-Project\source\client\Client\EterLib\GrpTextInstance.cpp

; 885  : 		vertices[1].position = TPosition(ex, sy, 0.0f);

  00843	8b 85 74 ff ff
	ff		 mov	 eax, DWORD PTR $T7[ebp+8]
  00849	89 45 bc	 mov	 DWORD PTR _vertices$12[ebp+32], eax
; File C:\Users\murat\Desktop\Siveps2-1-99-Project\source\client\extern\include\d3dx8math.inl

; 182  :     z = fz;

  0084c	c7 85 74 ff ff
	ff 00 00 00 00	 mov	 DWORD PTR $T6[ebp+8], 0
; File C:\Users\murat\Desktop\Siveps2-1-99-Project\source\client\Client\EterLib\GrpTextInstance.cpp

; 886  : 		vertices[2].position = TPosition(sx, ey, 0.0f);

  00856	8b 85 74 ff ff
	ff		 mov	 eax, DWORD PTR $T6[ebp+8]

; 888  : 
; 889  : 		STATEMANAGER.SetTexture(0, NULL);

  0085c	6a 00		 push	 0
  0085e	0f 14 c1	 unpcklps xmm0, xmm1
  00861	0f 14 dd	 unpcklps xmm3, xmm5
  00864	89 45 d4	 mov	 DWORD PTR _vertices$12[ebp+56], eax
  00867	0f 14 d5	 unpcklps xmm2, xmm5
; File C:\Users\murat\Desktop\Siveps2-1-99-Project\source\client\extern\include\d3dx8math.inl

; 182  :     z = fz;

  0086a	c7 85 74 ff ff
	ff 00 00 00 00	 mov	 DWORD PTR $T5[ebp+8], 0
; File C:\Users\murat\Desktop\Siveps2-1-99-Project\source\client\Client\EterLib\GrpTextInstance.cpp

; 887  : 		vertices[3].position = TPosition(ex, ey, 0.0f);

  00874	8b 85 74 ff ff
	ff		 mov	 eax, DWORD PTR $T5[ebp+8]

; 888  : 
; 889  : 		STATEMANAGER.SetTexture(0, NULL);

  0087a	6a 00		 push	 0
  0087c	89 55 a8	 mov	 DWORD PTR _vertices$12[ebp+12], edx
  0087f	89 55 c0	 mov	 DWORD PTR _vertices$12[ebp+36], edx
  00882	89 55 d8	 mov	 DWORD PTR _vertices$12[ebp+60], edx
  00885	89 55 f0	 mov	 DWORD PTR _vertices$12[ebp+84], edx
  00888	66 0f d6 45 b4	 movq	 QWORD PTR _vertices$12[ebp+24], xmm0
  0088d	66 0f d6 5d cc	 movq	 QWORD PTR _vertices$12[ebp+48], xmm3
  00892	66 0f d6 55 e4	 movq	 QWORD PTR _vertices$12[ebp+72], xmm2
  00897	89 45 ec	 mov	 DWORD PTR _vertices$12[ebp+80], eax
  0089a	e8 00 00 00 00	 call	 ?SetTexture@CStateManager@@QAEXKPAUIDirect3DBaseTexture8@@@Z ; CStateManager::SetTexture

; 890  : 
; 891  : 
; 892  : 		// 2004.11.18.myevan.DrawIndexPrimitiveUP -> DynamicVertexBuffer
; 893  : 		CGraphicBase::SetDefaultIndexBuffer(CGraphicBase::DEFAULT_IB_FILL_RECT);

  0089f	6a 05		 push	 5
  008a1	e8 00 00 00 00	 call	 ?SetDefaultIndexBuffer@CGraphicBase@@SAXI@Z ; CGraphicBase::SetDefaultIndexBuffer

; 894  : 		if (CGraphicBase::SetPDTStream(vertices, 4))

  008a6	8d 45 9c	 lea	 eax, DWORD PTR _vertices$12[ebp]
  008a9	6a 04		 push	 4
  008ab	50		 push	 eax
  008ac	e8 00 00 00 00	 call	 ?SetPDTStream@CGraphicBase@@SA_NPAUSPDTVertex@@I@Z ; CGraphicBase::SetPDTStream
  008b1	83 c4 0c	 add	 esp, 12			; 0000000cH
  008b4	84 c0		 test	 al, al
  008b6	74 15		 je	 SHORT $LN55@Render

; 895  : 			STATEMANAGER.DrawIndexedPrimitive(D3DPT_TRIANGLELIST, 0, 4, 0, 2);

  008b8	8b 0d 00 00 00
	00		 mov	 ecx, DWORD PTR ?ms_singleton@?$CSingleton@VCStateManager@@@@0PAVCStateManager@@A ; CSingleton<CStateManager>::ms_singleton
  008be	6a 02		 push	 2
  008c0	6a 00		 push	 0
  008c2	6a 04		 push	 4
  008c4	6a 00		 push	 0
  008c6	6a 04		 push	 4
  008c8	e8 00 00 00 00	 call	 ?DrawIndexedPrimitive@CStateManager@@QAEJW4_D3DPRIMITIVETYPE@@IIII@Z ; CStateManager::DrawIndexedPrimitive
$LN55@Render:

; 896  : 
; 897  : 		int ulbegin = CIME::GetULBegin();

  008cd	e8 00 00 00 00	 call	 ?GetULBegin@CIME@@SAHXZ	; CIME::GetULBegin
  008d2	8b f0		 mov	 esi, eax

; 898  : 		int ulend = CIME::GetULEnd();

  008d4	e8 00 00 00 00	 call	 ?GetULEnd@CIME@@SAHXZ	; CIME::GetULEnd
  008d9	89 85 64 ff ff
	ff		 mov	 DWORD PTR _ulend$1$[ebp], eax

; 899  : 
; 900  : 		if(ulbegin < ulend)

  008df	3b f0		 cmp	 esi, eax
  008e1	0f 8d 0b 01 00
	00		 jge	 $LN56@Render

; 901  : 		{
; 902  : 			__GetTextPos(curpos+ulbegin, &sx, &sy);

  008e7	8d 45 90	 lea	 eax, DWORD PTR _sy$10[ebp]
  008ea	50		 push	 eax
  008eb	8d 45 98	 lea	 eax, DWORD PTR _sx$11[ebp]
  008ee	50		 push	 eax
  008ef	8d 0c 1e	 lea	 ecx, DWORD PTR [esi+ebx]
  008f2	51		 push	 ecx
  008f3	8b cf		 mov	 ecx, edi
  008f5	e8 00 00 00 00	 call	 ?__GetTextPos@CGraphicTextInstance@@IAEXKPAM0@Z ; CGraphicTextInstance::__GetTextPos

; 903  : 			__GetTextPos(curpos+ulend, &ex, &sy);

  008fa	8d 45 90	 lea	 eax, DWORD PTR _sy$10[ebp]
  008fd	8b cf		 mov	 ecx, edi
  008ff	50		 push	 eax
  00900	8d 45 8c	 lea	 eax, DWORD PTR _ex$9[ebp]
  00903	50		 push	 eax
  00904	8b 85 64 ff ff
	ff		 mov	 eax, DWORD PTR _ulend$1$[ebp]
  0090a	03 c3		 add	 eax, ebx
  0090c	50		 push	 eax
  0090d	e8 00 00 00 00	 call	 ?__GetTextPos@CGraphicTextInstance@@IAEXKPAM0@Z ; CGraphicTextInstance::__GetTextPos

; 904  : 
; 905  : 			sx += m_v3Position.x;
; 906  : 			sy += m_v3Position.y + m_textHeight;

  00912	0f b7 47 0e	 movzx	 eax, WORD PTR [edi+14]
  00916	f3 0f 10 67 38	 movss	 xmm4, DWORD PTR [edi+56]

; 918  : 
; 919  : 			STATEMANAGER.DrawIndexedPrimitiveUP(D3DPT_TRIANGLELIST, 0, 4, 2, c_FillRectIndices, D3DFMT_INDEX16, vertices, sizeof(TPDTVertex));

  0091b	8b 0d 00 00 00
	00		 mov	 ecx, DWORD PTR ?ms_singleton@?$CSingleton@VCStateManager@@@@0PAVCStateManager@@A ; CSingleton<CStateManager>::ms_singleton
  00921	0f 28 dc	 movaps	 xmm3, xmm4
  00924	f3 0f 58 5d 98	 addss	 xmm3, DWORD PTR _sx$11[ebp]
  00929	f3 0f 58 65 8c	 addss	 xmm4, DWORD PTR _ex$9[ebp]
  0092e	66 0f 6e c8	 movd	 xmm1, eax
  00932	0f 5b c9	 cvtdq2ps xmm1, xmm1
; File C:\Users\murat\Desktop\Siveps2-1-99-Project\source\client\extern\include\d3dx8math.inl

; 182  :     z = fz;

  00935	c7 85 74 ff ff
	ff 00 00 00 00	 mov	 DWORD PTR $T4[ebp+8], 0
; File C:\Users\murat\Desktop\Siveps2-1-99-Project\source\client\Client\EterLib\GrpTextInstance.cpp

; 914  : 			vertices[0].position = TPosition(sx, sy, 0.0f);

  0093f	8b 85 74 ff ff
	ff		 mov	 eax, DWORD PTR $T4[ebp+8]
  00945	89 45 a4	 mov	 DWORD PTR _vertices$12[ebp+8], eax
; File C:\Users\murat\Desktop\Siveps2-1-99-Project\source\client\extern\include\d3dx8math.inl

; 182  :     z = fz;

  00948	c7 85 74 ff ff
	ff 00 00 00 00	 mov	 DWORD PTR $T3[ebp+8], 0
; File C:\Users\murat\Desktop\Siveps2-1-99-Project\source\client\Client\EterLib\GrpTextInstance.cpp

; 915  : 			vertices[1].position = TPosition(ex, sy, 0.0f);

  00952	8b 85 74 ff ff
	ff		 mov	 eax, DWORD PTR $T3[ebp+8]
  00958	0f 28 c3	 movaps	 xmm0, xmm3
  0095b	f3 0f 58 4f 3c	 addss	 xmm1, DWORD PTR [edi+60]
  00960	89 45 bc	 mov	 DWORD PTR _vertices$12[ebp+32], eax

; 918  : 
; 919  : 			STATEMANAGER.DrawIndexedPrimitiveUP(D3DPT_TRIANGLELIST, 0, 4, 2, c_FillRectIndices, D3DFMT_INDEX16, vertices, sizeof(TPDTVertex));

  00963	6a 18		 push	 24			; 00000018H
; File C:\Users\murat\Desktop\Siveps2-1-99-Project\source\client\extern\include\d3dx8math.inl

; 182  :     z = fz;

  00965	c7 85 74 ff ff
	ff 00 00 00 00	 mov	 DWORD PTR $T2[ebp+8], 0
; File C:\Users\murat\Desktop\Siveps2-1-99-Project\source\client\Client\EterLib\GrpTextInstance.cpp

; 916  : 			vertices[2].position = TPosition(sx, ey, 0.0f);

  0096f	8b 85 74 ff ff
	ff		 mov	 eax, DWORD PTR $T2[ebp+8]
  00975	f3 0f 58 4d 90	 addss	 xmm1, DWORD PTR _sy$10[ebp]
  0097a	89 45 d4	 mov	 DWORD PTR _vertices$12[ebp+56], eax
; File C:\Users\murat\Desktop\Siveps2-1-99-Project\source\client\extern\include\d3dx8math.inl

; 182  :     z = fz;

  0097d	c7 85 74 ff ff
	ff 00 00 00 00	 mov	 DWORD PTR $T1[ebp+8], 0
; File C:\Users\murat\Desktop\Siveps2-1-99-Project\source\client\Client\EterLib\GrpTextInstance.cpp

; 917  : 			vertices[3].position = TPosition(ex, ey, 0.0f);

  00987	8b 85 74 ff ff
	ff		 mov	 eax, DWORD PTR $T1[ebp+8]
  0098d	89 45 ec	 mov	 DWORD PTR _vertices$12[ebp+80], eax

; 918  : 
; 919  : 			STATEMANAGER.DrawIndexedPrimitiveUP(D3DPT_TRIANGLELIST, 0, 4, 2, c_FillRectIndices, D3DFMT_INDEX16, vertices, sizeof(TPDTVertex));

  00990	8d 45 9c	 lea	 eax, DWORD PTR _vertices$12[ebp]
  00993	50		 push	 eax
  00994	6a 65		 push	 101			; 00000065H
  00996	68 00 00 00 00	 push	 OFFSET ?c_FillRectIndices@@3QBGB
  0099b	0f 28 d1	 movaps	 xmm2, xmm1
  0099e	0f 14 c1	 unpcklps xmm0, xmm1
  009a1	f3 0f 58 15 00
	00 00 00	 addss	 xmm2, DWORD PTR __real@40000000
  009a9	6a 02		 push	 2
  009ab	66 0f d6 45 9c	 movq	 QWORD PTR _vertices$12[ebp], xmm0
  009b0	0f 28 c4	 movaps	 xmm0, xmm4
  009b3	6a 04		 push	 4
  009b5	6a 00		 push	 0
  009b7	0f 14 c1	 unpcklps xmm0, xmm1
  009ba	0f 14 da	 unpcklps xmm3, xmm2
  009bd	0f 14 e2	 unpcklps xmm4, xmm2
  009c0	6a 04		 push	 4
  009c2	c7 45 a8 00 00
	ff ff		 mov	 DWORD PTR _vertices$12[ebp+12], -65536 ; ffff0000H
  009c9	c7 45 c0 00 00
	ff ff		 mov	 DWORD PTR _vertices$12[ebp+36], -65536 ; ffff0000H
  009d0	c7 45 d8 00 00
	ff ff		 mov	 DWORD PTR _vertices$12[ebp+60], -65536 ; ffff0000H
  009d7	c7 45 f0 00 00
	ff ff		 mov	 DWORD PTR _vertices$12[ebp+84], -65536 ; ffff0000H
  009de	66 0f d6 45 b4	 movq	 QWORD PTR _vertices$12[ebp+24], xmm0
  009e3	66 0f d6 5d cc	 movq	 QWORD PTR _vertices$12[ebp+48], xmm3
  009e8	66 0f d6 65 e4	 movq	 QWORD PTR _vertices$12[ebp+72], xmm4
  009ed	e8 00 00 00 00	 call	 ?DrawIndexedPrimitiveUP@CStateManager@@QAEJW4_D3DPRIMITIVETYPE@@IIIPBXW4_D3DFORMAT@@1I@Z ; CStateManager::DrawIndexedPrimitiveUP
$LN56@Render:

; 920  : 		}
; 921  : 	}
; 922  : 
; 923  : 	STATEMANAGER.RestoreRenderState(D3DRS_SRCBLEND);

  009f2	8b 0d 00 00 00
	00		 mov	 ecx, DWORD PTR ?ms_singleton@?$CSingleton@VCStateManager@@@@0PAVCStateManager@@A ; CSingleton<CStateManager>::ms_singleton
  009f8	6a 13		 push	 19			; 00000013H
  009fa	e8 00 00 00 00	 call	 ?RestoreRenderState@CStateManager@@QAEXW4_D3DRENDERSTATETYPE@@@Z ; CStateManager::RestoreRenderState

; 924  : 	STATEMANAGER.RestoreRenderState(D3DRS_DESTBLEND);

  009ff	8b 0d 00 00 00
	00		 mov	 ecx, DWORD PTR ?ms_singleton@?$CSingleton@VCStateManager@@@@0PAVCStateManager@@A ; CSingleton<CStateManager>::ms_singleton
  00a05	6a 14		 push	 20			; 00000014H
  00a07	e8 00 00 00 00	 call	 ?RestoreRenderState@CStateManager@@QAEXW4_D3DRENDERSTATETYPE@@@Z ; CStateManager::RestoreRenderState

; 925  : 
; 926  : 	STATEMANAGER.SetRenderState(D3DRS_FOGENABLE, dwFogEnable);

  00a0c	ff b5 60 ff ff
	ff		 push	 DWORD PTR _dwFogEnable$1$[ebp]
  00a12	8b 0d 00 00 00
	00		 mov	 ecx, DWORD PTR ?ms_singleton@?$CSingleton@VCStateManager@@@@0PAVCStateManager@@A ; CSingleton<CStateManager>::ms_singleton
  00a18	6a 1c		 push	 28			; 0000001cH
  00a1a	e8 00 00 00 00	 call	 ?SetRenderState@CStateManager@@QAEXW4_D3DRENDERSTATETYPE@@K@Z ; CStateManager::SetRenderState

; 927  : 	STATEMANAGER.SetRenderState(D3DRS_LIGHTING, dwLighting);

  00a1f	ff b5 5c ff ff
	ff		 push	 DWORD PTR _dwLighting$1$[ebp]
  00a25	8b 0d 00 00 00
	00		 mov	 ecx, DWORD PTR ?ms_singleton@?$CSingleton@VCStateManager@@@@0PAVCStateManager@@A ; CSingleton<CStateManager>::ms_singleton
  00a2b	68 89 00 00 00	 push	 137			; 00000089H
  00a30	e8 00 00 00 00	 call	 ?SetRenderState@CStateManager@@QAEXW4_D3DRENDERSTATETYPE@@K@Z ; CStateManager::SetRenderState
; File C:\Program Files (x86)\Microsoft Visual Studio\2019\Professional\VC\Tools\MSVC\14.29.30133\include\vector

; 1549 :         return static_cast<size_type>(_My_data._Mylast - _My_data._Myfirst);

  00a35	8b 4f 68	 mov	 ecx, DWORD PTR [edi+104]
  00a38	b8 93 24 49 92	 mov	 eax, -1840700269	; 92492493H
  00a3d	2b 4f 64	 sub	 ecx, DWORD PTR [edi+100]
  00a40	f7 e9		 imul	 ecx
  00a42	03 d1		 add	 edx, ecx
  00a44	c1 fa 04	 sar	 edx, 4
  00a47	8b c2		 mov	 eax, edx
  00a49	c1 e8 1f	 shr	 eax, 31			; 0000001fH
  00a4c	03 c2		 add	 eax, edx
; File C:\Users\murat\Desktop\Siveps2-1-99-Project\source\client\Client\EterLib\GrpTextInstance.cpp

; 930  : 	if (m_hyperlinkVector.size() != 0)

  00a4e	0f 84 88 00 00
	00		 je	 $LN215@Render

; 931  : 	{
; 932  : 		int lx = gs_mx - m_v3Position.x;

  00a54	66 0f 6e 05 00
	00 00 00	 movd	 xmm0, DWORD PTR ?gs_mx@@3HA
  00a5c	0f 5b c0	 cvtdq2ps xmm0, xmm0
  00a5f	f3 0f 5c 47 38	 subss	 xmm0, DWORD PTR [edi+56]
  00a64	f3 0f 2c f0	 cvttss2si esi, xmm0
  00a68	66 0f 6e 05 00
	00 00 00	 movd	 xmm0, DWORD PTR ?gs_my@@3HA

; 933  : 		int ly = gs_my - m_v3Position.y;

  00a70	0f 5b c0	 cvtdq2ps xmm0, xmm0
  00a73	f3 0f 5c 47 3c	 subss	 xmm0, DWORD PTR [edi+60]
  00a78	f3 0f 2c d8	 cvttss2si ebx, xmm0

; 934  : 
; 935  : 		//   .
; 936  : 		if (GetDefaultCodePage() == CP_ARABIC) {

  00a7c	e8 00 00 00 00	 call	 ?GetDefaultCodePage@@YAKXZ ; GetDefaultCodePage
  00a81	3d e8 04 00 00	 cmp	 eax, 1256		; 000004e8H
  00a86	75 0a		 jne	 SHORT $LN214@Render

; 937  : 			lx = -lx;
; 938  : 			ly = -ly + m_textHeight;

  00a88	0f b7 47 0e	 movzx	 eax, WORD PTR [edi+14]
  00a8c	f7 de		 neg	 esi
  00a8e	2b c3		 sub	 eax, ebx
  00a90	8b d8		 mov	 ebx, eax
$LN214@Render:

; 939  : 		}
; 940  : 
; 941  : 		if (lx >= 0 && ly >= 0 && lx < m_textWidth && ly < m_textHeight)

  00a92	85 f6		 test	 esi, esi
  00a94	78 46		 js	 SHORT $LN215@Render
  00a96	85 db		 test	 ebx, ebx
  00a98	78 42		 js	 SHORT $LN215@Render
  00a9a	0f b7 47 0c	 movzx	 eax, WORD PTR [edi+12]
  00a9e	3b f0		 cmp	 esi, eax
  00aa0	7d 3a		 jge	 SHORT $LN215@Render
  00aa2	0f b7 47 0e	 movzx	 eax, WORD PTR [edi+14]
  00aa6	3b d8		 cmp	 ebx, eax
  00aa8	7d 32		 jge	 SHORT $LN215@Render
; File C:\Program Files (x86)\Microsoft Visual Studio\2019\Professional\VC\Tools\MSVC\14.29.30133\include\vector

; 42   :     _CONSTEXPR20_CONTAINER _Vector_const_iterator(_Tptr _Parg, const _Container_base* _Pvector) noexcept : _Ptr(_Parg) {

  00aaa	8b 47 64	 mov	 eax, DWORD PTR [edi+100]
  00aad	8b 4f 68	 mov	 ecx, DWORD PTR [edi+104]
  00ab0	3b c1		 cmp	 eax, ecx
; File C:\Users\murat\Desktop\Siveps2-1-99-Project\source\client\Client\EterLib\GrpTextInstance.cpp

; 945  : 			while (it != m_hyperlinkVector.end())

  00ab2	74 28		 je	 SHORT $LN215@Render
$LL16@Render:
; File C:\Program Files (x86)\Microsoft Visual Studio\2019\Professional\VC\Tools\MSVC\14.29.30133\include\vector

; 289  :         _Vector_iterator _Tmp = *this;

  00ab4	8b d8		 mov	 ebx, eax

; 78   :         ++_Ptr;

  00ab6	83 c0 1c	 add	 eax, 28			; 0000001cH
; File C:\Users\murat\Desktop\Siveps2-1-99-Project\source\client\Client\EterLib\GrpTextInstance.cpp

; 948  : 				if (lx >= link.sx && lx < link.ex)

  00ab9	0f bf 13	 movsx	 edx, WORD PTR [ebx]
  00abc	3b f2		 cmp	 esi, edx
  00abe	7c 08		 jl	 SHORT $LN60@Render
  00ac0	0f bf 53 02	 movsx	 edx, WORD PTR [ebx+2]
  00ac4	3b f2		 cmp	 esi, edx
  00ac6	7c 06		 jl	 SHORT $LN165@Render
$LN60@Render:
; File C:\Program Files (x86)\Microsoft Visual Studio\2019\Professional\VC\Tools\MSVC\14.29.30133\include\vector

; 154  :         return _Ptr == _Right._Ptr;

  00ac8	3b c1		 cmp	 eax, ecx
; File C:\Users\murat\Desktop\Siveps2-1-99-Project\source\client\Client\EterLib\GrpTextInstance.cpp

; 945  : 			while (it != m_hyperlinkVector.end())

  00aca	75 e8		 jne	 SHORT $LL16@Render
  00acc	eb 0e		 jmp	 SHORT $LN215@Render
$LN165@Render:

; 949  : 				{
; 950  : 					gs_hyperlinkText = link.text;

  00ace	8d 43 04	 lea	 eax, DWORD PTR [ebx+4]
  00ad1	b9 00 00 00 00	 mov	 ecx, OFFSET ?gs_hyperlinkText@@3V?$basic_string@_WU?$char_traits@_W@std@@V?$allocator@_W@2@@std@@A
  00ad6	50		 push	 eax
  00ad7	e8 00 00 00 00	 call	 ??4?$basic_string@_WU?$char_traits@_W@std@@V?$allocator@_W@2@@std@@QAEAAV01@ABV01@@Z ; std::basic_string<wchar_t,std::char_traits<wchar_t>,std::allocator<wchar_t> >::operator=
$LN215@Render:
; File C:\Program Files (x86)\Microsoft Visual Studio\2019\Professional\VC\Tools\MSVC\14.29.30133\include\vector

; 1549 :         return static_cast<size_type>(_My_data._Mylast - _My_data._Myfirst);

  00adc	8b 47 74	 mov	 eax, DWORD PTR [edi+116]
  00adf	8b 77 70	 mov	 esi, DWORD PTR [edi+112]
  00ae2	2b c6		 sub	 eax, esi
; File C:\Users\murat\Desktop\Siveps2-1-99-Project\source\client\Client\EterLib\GrpTextInstance.cpp

; 961  : 	if (m_emojiVector.size() != 0)

  00ae4	a9 f8 ff ff ff	 test	 eax, -8			; fffffff8H
  00ae9	74 7b		 je	 SHORT $LN220@Render
; File C:\Program Files (x86)\Microsoft Visual Studio\2019\Professional\VC\Tools\MSVC\14.29.30133\include\vector

; 42   :     _CONSTEXPR20_CONTAINER _Vector_const_iterator(_Tptr _Parg, const _Container_base* _Pvector) noexcept : _Ptr(_Parg) {

  00aeb	3b 77 74	 cmp	 esi, DWORD PTR [edi+116]
; File C:\Users\murat\Desktop\Siveps2-1-99-Project\source\client\Client\EterLib\GrpTextInstance.cpp

; 963  : 		for (std::vector<SEmoji>::iterator itor = m_emojiVector.begin(); itor != m_emojiVector.end(); ++itor)

  00aee	74 76		 je	 SHORT $LN220@Render
$LL149@Render:

; 964  : 		{
; 965  : 			SEmoji & rEmo = *itor;
; 966  : 			if (rEmo.pInstance)

  00af0	8b 4e 04	 mov	 ecx, DWORD PTR [esi+4]
  00af3	85 c9		 test	 ecx, ecx
  00af5	74 67		 je	 SHORT $LN18@Render

; 967  : 			{
; 968  : 				rEmo.pInstance->SetPosition(fStanX + rEmo.x, (fStanY + 7.0) - (rEmo.pInstance->GetHeight() / 2));

  00af7	f3 0f 10 45 88	 movss	 xmm0, DWORD PTR _fStanY$1$[ebp]
  00afc	0f 5a c0	 cvtps2pd xmm0, xmm0
  00aff	f2 0f 58 05 00
	00 00 00	 addsd	 xmm0, QWORD PTR __real@401c000000000000
  00b07	f2 0f 11 85 58
	ff ff ff	 movsd	 QWORD PTR tv2364[ebp], xmm0
  00b0f	e8 00 00 00 00	 call	 ?GetHeight@CGraphicImageInstance@@QAEHXZ ; CGraphicImageInstance::GetHeight
  00b14	f2 0f 10 8d 58
	ff ff ff	 movsd	 xmm1, QWORD PTR tv2364[ebp]
  00b1c	83 ec 08	 sub	 esp, 8
  00b1f	99		 cdq
  00b20	2b c2		 sub	 eax, edx
  00b22	8b 4e 04	 mov	 ecx, DWORD PTR [esi+4]
  00b25	d1 f8		 sar	 eax, 1
  00b27	66 0f 6e c0	 movd	 xmm0, eax
  00b2b	0f bf 06	 movsx	 eax, WORD PTR [esi]
  00b2e	f3 0f e6 c0	 cvtdq2pd xmm0, xmm0
  00b32	f2 0f 5c c8	 subsd	 xmm1, xmm0
  00b36	66 0f 5a c1	 cvtpd2ps xmm0, xmm1
  00b3a	f3 0f 11 44 24
	04		 movss	 DWORD PTR [esp+4], xmm0
  00b40	66 0f 6e c0	 movd	 xmm0, eax
  00b44	0f 5b c0	 cvtdq2ps xmm0, xmm0
  00b47	f3 0f 58 45 94	 addss	 xmm0, DWORD PTR _fStanX$1$[ebp]
  00b4c	f3 0f 11 04 24	 movss	 DWORD PTR [esp], xmm0
  00b51	e8 00 00 00 00	 call	 ?SetPosition@CGraphicImageInstance@@QAEXMM@Z ; CGraphicImageInstance::SetPosition

; 969  : 				rEmo.pInstance->Render();

  00b56	8b 4e 04	 mov	 ecx, DWORD PTR [esi+4]
  00b59	e8 00 00 00 00	 call	 ?Render@CGraphicImageInstance@@QAEXXZ ; CGraphicImageInstance::Render
$LN18@Render:
; File C:\Program Files (x86)\Microsoft Visual Studio\2019\Professional\VC\Tools\MSVC\14.29.30133\include\vector

; 78   :         ++_Ptr;

  00b5e	83 c6 08	 add	 esi, 8

; 154  :         return _Ptr == _Right._Ptr;

  00b61	3b 77 74	 cmp	 esi, DWORD PTR [edi+116]
; File C:\Users\murat\Desktop\Siveps2-1-99-Project\source\client\Client\EterLib\GrpTextInstance.cpp

; 963  : 		for (std::vector<SEmoji>::iterator itor = m_emojiVector.begin(); itor != m_emojiVector.end(); ++itor)

  00b64	75 8a		 jne	 SHORT $LL149@Render
$LN220@Render:
  00b66	5e		 pop	 esi
  00b67	5b		 pop	 ebx
$LN19@Render:

; 970  : 			}
; 971  : 		}
; 972  : 	}
; 973  : #endif
; 974  : }

  00b68	8b 4d fc	 mov	 ecx, DWORD PTR __$ArrayPad$[ebp]
  00b6b	33 cd		 xor	 ecx, ebp
  00b6d	5f		 pop	 edi
  00b6e	e8 00 00 00 00	 call	 @__security_check_cookie@4
  00b73	8b e5		 mov	 esp, ebp
  00b75	5d		 pop	 ebp
  00b76	c2 04 00	 ret	 4
?Render@CGraphicTextInstance@@QAEXPAUtagRECT@@@Z ENDP	; CGraphicTextInstance::Render
_TEXT	ENDS
; Function compile flags: /Ogtp
; File C:\Users\murat\Desktop\Siveps2-1-99-Project\source\client\Client\EterLib\GrpTextInstance.cpp
; File C:\Users\murat\Desktop\Siveps2-1-99-Project\source\client\Client\EterLib\Ref.h
; File C:\Users\murat\Desktop\Siveps2-1-99-Project\source\client\Client\EterLib\GrpTextInstance.cpp
; File C:\Program Files (x86)\Microsoft Visual Studio\2019\Professional\VC\Tools\MSVC\14.29.30133\include\vector
; File C:\Users\murat\Desktop\Siveps2-1-99-Project\source\client\Client\EterLib\GrpTextInstance.cpp
; File C:\Program Files (x86)\Microsoft Visual Studio\2019\Professional\VC\Tools\MSVC\14.29.30133\include\vector
; File C:\Users\murat\Desktop\Siveps2-1-99-Project\source\client\Client\EterLib\GrpTextInstance.cpp
; File C:\Program Files (x86)\Microsoft Visual Studio\2019\Professional\VC\Tools\MSVC\14.29.30133\include\xstring
; File C:\Users\murat\Desktop\Siveps2-1-99-Project\source\client\Client\EterLib\GrpTextInstance.cpp
; File C:\Program Files (x86)\Microsoft Visual Studio\2019\Professional\VC\Tools\MSVC\14.29.30133\include\xstring
; File C:\Users\murat\Desktop\Siveps2-1-99-Project\source\client\Client\EterLib\GrpTextInstance.cpp
; File C:\Program Files (x86)\Microsoft Visual Studio\2019\Professional\VC\Tools\MSVC\14.29.30133\include\xstring
; File C:\Users\murat\Desktop\Siveps2-1-99-Project\source\client\Client\EterLib\GrpTextInstance.cpp
; File C:\Users\murat\Desktop\Siveps2-1-99-Project\source\client\Client\EterLib\GrpTextInstance.h
; File C:\Users\murat\Desktop\Siveps2-1-99-Project\source\client\Client\EterLib\GrpTextInstance.cpp
; File C:\Users\murat\Desktop\Siveps2-1-99-Project\source\client\Client\EterLib\GrpTextInstance.h
; File C:\Users\murat\Desktop\Siveps2-1-99-Project\source\client\Client\EterLib\GrpTextInstance.cpp
; File C:\Program Files (x86)\Microsoft Visual Studio\2019\Professional\VC\Tools\MSVC\14.29.30133\include\xstring
; File C:\Users\murat\Desktop\Siveps2-1-99-Project\source\client\Client\EterLib\GrpTextInstance.cpp
; File C:\Users\murat\Desktop\Siveps2-1-99-Project\source\client\Client\EterLib\GrpTextInstance.h
; File C:\Program Files (x86)\Microsoft Visual Studio\2019\Professional\VC\Tools\MSVC\14.29.30133\include\xstring
; File C:\Users\murat\Desktop\Siveps2-1-99-Project\source\client\Client\EterLib\GrpTextInstance.h
; File C:\Program Files (x86)\Microsoft Visual Studio\2019\Professional\VC\Tools\MSVC\14.29.30133\include\xstring
; File C:\Users\murat\Desktop\Siveps2-1-99-Project\source\client\Client\EterLib\GrpTextInstance.cpp
; File C:\Program Files (x86)\Microsoft Visual Studio\2019\Professional\VC\Tools\MSVC\14.29.30133\include\xstring
; File C:\Users\murat\Desktop\Siveps2-1-99-Project\source\client\Client\EterLib\GrpTextInstance.cpp
; File C:\Program Files (x86)\Microsoft Visual Studio\2019\Professional\VC\Tools\MSVC\14.29.30133\include\xstring
; File C:\Users\murat\Desktop\Siveps2-1-99-Project\source\client\Client\EterBase\Utils.h
; File C:\Program Files (x86)\Microsoft Visual Studio\2019\Professional\VC\Tools\MSVC\14.29.30133\include\xstring
; File C:\Users\murat\Desktop\Siveps2-1-99-Project\source\client\Client\EterBase\Utils.h
; File C:\Program Files (x86)\Microsoft Visual Studio\2019\Professional\VC\Tools\MSVC\14.29.30133\include\xmemory
; File C:\Users\murat\Desktop\Siveps2-1-99-Project\source\client\Client\EterBase\Utils.h
; File C:\Users\murat\Desktop\Siveps2-1-99-Project\source\client\Client\EterLib\GrpTextInstance.cpp
; File C:\Program Files (x86)\Microsoft Visual Studio\2019\Professional\VC\Tools\MSVC\14.29.30133\include\xstring
; File C:\Users\murat\Desktop\Siveps2-1-99-Project\source\client\Client\EterLib\GrpTextInstance.cpp
; File C:\Program Files (x86)\Microsoft Visual Studio\2019\Professional\VC\Tools\MSVC\14.29.30133\include\xstring
; File C:\Users\murat\Desktop\Siveps2-1-99-Project\source\client\Client\EterLib\GrpTextInstance.cpp
; File C:\Program Files (x86)\Microsoft Visual Studio\2019\Professional\VC\Tools\MSVC\14.29.30133\include\xstring
; File C:\Program Files (x86)\Microsoft Visual Studio\2019\Professional\VC\Tools\MSVC\14.29.30133\include\xmemory
; File C:\Program Files (x86)\Microsoft Visual Studio\2019\Professional\VC\Tools\MSVC\14.29.30133\include\xstring
; File C:\Program Files (x86)\Microsoft Visual Studio\2019\Professional\VC\Tools\MSVC\14.29.30133\include\xmemory
; File C:\Program Files (x86)\Microsoft Visual Studio\2019\Professional\VC\Tools\MSVC\14.29.30133\include\xstring
; File C:\Program Files (x86)\Microsoft Visual Studio\2019\Professional\VC\Tools\MSVC\14.29.30133\include\xmemory
; File C:\Program Files (x86)\Microsoft Visual Studio\2019\Professional\VC\Tools\MSVC\14.29.30133\include\xstring
; File C:\Program Files (x86)\Microsoft Visual Studio\2019\Professional\VC\Tools\MSVC\14.29.30133\include\xmemory
; File C:\Program Files (x86)\Microsoft Visual Studio\2019\Professional\VC\Tools\MSVC\14.29.30133\include\vector
; File C:\Users\murat\Desktop\Siveps2-1-99-Project\source\client\Client\EterLib\GrpTextInstance.cpp
; File C:\Program Files (x86)\Microsoft Visual Studio\2019\Professional\VC\Tools\MSVC\14.29.30133\include\xstring
; File C:\Users\murat\Desktop\Siveps2-1-99-Project\source\client\Client\EterLib\GrpTextInstance.cpp
; File C:\Program Files (x86)\Microsoft Visual Studio\2019\Professional\VC\Tools\MSVC\14.29.30133\include\xstring
; File C:\Users\murat\Desktop\Siveps2-1-99-Project\source\client\Client\EterLib\GrpTextInstance.cpp
; File C:\Program Files (x86)\Microsoft Visual Studio\2019\Professional\VC\Tools\MSVC\14.29.30133\include\xstring
; File C:\Users\murat\Desktop\Siveps2-1-99-Project\source\client\Client\EterLib\GrpTextInstance.cpp
; File C:\Program Files (x86)\Microsoft Visual Studio\2019\Professional\VC\Tools\MSVC\14.29.30133\include\xstring
; File C:\Program Files (x86)\Windows Kits\10\Include\10.0.19041.0\ucrt\wchar.h
; File C:\Program Files (x86)\Microsoft Visual Studio\2019\Professional\VC\Tools\MSVC\14.29.30133\include\xstring
; File C:\Users\murat\Desktop\Siveps2-1-99-Project\source\client\Client\EterLib\GrpTextInstance.cpp
; File C:\Program Files (x86)\Microsoft Visual Studio\2019\Professional\VC\Tools\MSVC\14.29.30133\include\vector
; File C:\Users\murat\Desktop\Siveps2-1-99-Project\source\client\Client\EterLib\GrpTextInstance.cpp
; File C:\Program Files (x86)\Microsoft Visual Studio\2019\Professional\VC\Tools\MSVC\14.29.30133\include\vector
; File C:\Users\murat\Desktop\Siveps2-1-99-Project\source\client\Client\EterLib\GrpTextInstance.cpp
; File C:\Program Files (x86)\Microsoft Visual Studio\2019\Professional\VC\Tools\MSVC\14.29.30133\include\vector
; File C:\Users\murat\Desktop\Siveps2-1-99-Project\source\client\Client\EterLib\GrpTextInstance.cpp
; File C:\Program Files (x86)\Microsoft Visual Studio\2019\Professional\VC\Tools\MSVC\14.29.30133\include\vector
; File C:\Users\murat\Desktop\Siveps2-1-99-Project\source\client\Client\EterLib\GrpTextInstance.cpp
; File C:\Program Files (x86)\Microsoft Visual Studio\2019\Professional\VC\Tools\MSVC\14.29.30133\include\vector
; File C:\Users\murat\Desktop\Siveps2-1-99-Project\source\client\Client\EterLib\GrpTextInstance.cpp
; File C:\Program Files (x86)\Microsoft Visual Studio\2019\Professional\VC\Tools\MSVC\14.29.30133\include\vector
; File C:\Users\murat\Desktop\Siveps2-1-99-Project\source\client\Client\EterLib\GrpTextInstance.cpp
; File C:\Program Files (x86)\Microsoft Visual Studio\2019\Professional\VC\Tools\MSVC\14.29.30133\include\vector
; File C:\Users\murat\Desktop\Siveps2-1-99-Project\source\client\Client\EterLib\GrpTextInstance.cpp
; File C:\Program Files (x86)\Microsoft Visual Studio\2019\Professional\VC\Tools\MSVC\14.29.30133\include\vector
; File C:\Users\murat\Desktop\Siveps2-1-99-Project\source\client\Client\EterLib\GrpTextInstance.cpp
; File C:\Program Files (x86)\Microsoft Visual Studio\2019\Professional\VC\Tools\MSVC\14.29.30133\include\vector
; File C:\Users\murat\Desktop\Siveps2-1-99-Project\source\client\Client\EterLib\GrpTextInstance.cpp
; File C:\Program Files (x86)\Microsoft Visual Studio\2019\Professional\VC\Tools\MSVC\14.29.30133\include\xstring
; File C:\Users\murat\Desktop\Siveps2-1-99-Project\source\client\Client\EterBase\Utils.h
; File C:\Program Files (x86)\Microsoft Visual Studio\2019\Professional\VC\Tools\MSVC\14.29.30133\include\xstring
; File C:\Users\murat\Desktop\Siveps2-1-99-Project\source\client\Client\EterBase\Utils.h
; File C:\Program Files (x86)\Microsoft Visual Studio\2019\Professional\VC\Tools\MSVC\14.29.30133\include\xmemory
; File C:\Users\murat\Desktop\Siveps2-1-99-Project\source\client\Client\EterBase\Utils.h
; File C:\Users\murat\Desktop\Siveps2-1-99-Project\source\client\Client\EterLib\GrpTextInstance.cpp
; File C:\Program Files (x86)\Microsoft Visual Studio\2019\Professional\VC\Tools\MSVC\14.29.30133\include\xstring
; File C:\Users\murat\Desktop\Siveps2-1-99-Project\source\client\Client\EterLib\GrpTextInstance.cpp
; File C:\Program Files (x86)\Microsoft Visual Studio\2019\Professional\VC\Tools\MSVC\14.29.30133\include\xstring
; File C:\Users\murat\Desktop\Siveps2-1-99-Project\source\client\Client\EterLib\GrpTextInstance.cpp
; File C:\Program Files (x86)\Microsoft Visual Studio\2019\Professional\VC\Tools\MSVC\14.29.30133\include\xstring
; File C:\Program Files (x86)\Microsoft Visual Studio\2019\Professional\VC\Tools\MSVC\14.29.30133\include\xmemory
; File C:\Program Files (x86)\Microsoft Visual Studio\2019\Professional\VC\Tools\MSVC\14.29.30133\include\xstring
; File C:\Program Files (x86)\Microsoft Visual Studio\2019\Professional\VC\Tools\MSVC\14.29.30133\include\xmemory
; File C:\Program Files (x86)\Microsoft Visual Studio\2019\Professional\VC\Tools\MSVC\14.29.30133\include\xstring
; File C:\Program Files (x86)\Microsoft Visual Studio\2019\Professional\VC\Tools\MSVC\14.29.30133\include\xmemory
; File C:\Program Files (x86)\Microsoft Visual Studio\2019\Professional\VC\Tools\MSVC\14.29.30133\include\xstring
; File C:\Program Files (x86)\Microsoft Visual Studio\2019\Professional\VC\Tools\MSVC\14.29.30133\include\xmemory
; File C:\Program Files (x86)\Microsoft Visual Studio\2019\Professional\VC\Tools\MSVC\14.29.30133\include\vector
; File C:\Users\murat\Desktop\Siveps2-1-99-Project\source\client\Client\EterLib\GrpTextInstance.cpp
; File C:\Program Files (x86)\Microsoft Visual Studio\2019\Professional\VC\Tools\MSVC\14.29.30133\include\xstring
; File C:\Users\murat\Desktop\Siveps2-1-99-Project\source\client\Client\EterLib\GrpTextInstance.cpp
; File C:\Program Files (x86)\Microsoft Visual Studio\2019\Professional\VC\Tools\MSVC\14.29.30133\include\xstring
; File C:\Users\murat\Desktop\Siveps2-1-99-Project\source\client\Client\EterLib\GrpTextInstance.cpp
; File C:\Program Files (x86)\Microsoft Visual Studio\2019\Professional\VC\Tools\MSVC\14.29.30133\include\xstring
; File C:\Users\murat\Desktop\Siveps2-1-99-Project\source\client\Client\EterLib\GrpTextInstance.cpp
; File C:\Program Files (x86)\Microsoft Visual Studio\2019\Professional\VC\Tools\MSVC\14.29.30133\include\xstring
; File C:\Program Files (x86)\Windows Kits\10\Include\10.0.19041.0\ucrt\wchar.h
; File C:\Program Files (x86)\Microsoft Visual Studio\2019\Professional\VC\Tools\MSVC\14.29.30133\include\xstring
; File C:\Users\murat\Desktop\Siveps2-1-99-Project\source\client\Client\EterLib\GrpTextInstance.cpp
; File C:\Program Files (x86)\Microsoft Visual Studio\2019\Professional\VC\Tools\MSVC\14.29.30133\include\vector
; File C:\Users\murat\Desktop\Siveps2-1-99-Project\source\client\Client\EterLib\GrpTextInstance.cpp
; File C:\Program Files (x86)\Microsoft Visual Studio\2019\Professional\VC\Tools\MSVC\14.29.30133\include\vector
; File C:\Users\murat\Desktop\Siveps2-1-99-Project\source\client\Client\EterLib\GrpTextInstance.cpp
; File C:\Program Files (x86)\Microsoft Visual Studio\2019\Professional\VC\Tools\MSVC\14.29.30133\include\vector
; File C:\Users\murat\Desktop\Siveps2-1-99-Project\source\client\Client\EterLib\GrpTextInstance.cpp
; File C:\Program Files (x86)\Microsoft Visual Studio\2019\Professional\VC\Tools\MSVC\14.29.30133\include\xstring
; File C:\Users\murat\Desktop\Siveps2-1-99-Project\source\client\Client\EterLib\GrpTextInstance.cpp
; File C:\Program Files (x86)\Microsoft Visual Studio\2019\Professional\VC\Tools\MSVC\14.29.30133\include\xstring
; File C:\Program Files (x86)\Microsoft Visual Studio\2019\Professional\VC\Tools\MSVC\14.29.30133\include\xmemory
; File C:\Program Files (x86)\Microsoft Visual Studio\2019\Professional\VC\Tools\MSVC\14.29.30133\include\xstring
; File C:\Users\murat\Desktop\Siveps2-1-99-Project\source\client\Client\EterLib\GrpTextInstance.cpp
; File C:\Program Files (x86)\Microsoft Visual Studio\2019\Professional\VC\Tools\MSVC\14.29.30133\include\xstring
; File C:\Program Files (x86)\Microsoft Visual Studio\2019\Professional\VC\Tools\MSVC\14.29.30133\include\xmemory
; File C:\Users\murat\Desktop\Siveps2-1-99-Project\source\client\Client\EterLib\GrpTextInstance.cpp
; File C:\Users\murat\Desktop\Siveps2-1-99-Project\source\client\Client\EterLib\GrpTextInstance.h
; File C:\Users\murat\Desktop\Siveps2-1-99-Project\source\client\Client\EterLib\GrpTextInstance.cpp
; File C:\Program Files (x86)\Microsoft Visual Studio\2019\Professional\VC\Tools\MSVC\14.29.30133\include\xstring
; File C:\Users\murat\Desktop\Siveps2-1-99-Project\source\client\Client\EterLib\GrpTextInstance.h
; File C:\Users\murat\Desktop\Siveps2-1-99-Project\source\client\Client\EterLib\GrpTextInstance.cpp
; File C:\Users\murat\Desktop\Siveps2-1-99-Project\source\client\Client\EterLib\GrpTextInstance.h
; File C:\Program Files (x86)\Microsoft Visual Studio\2019\Professional\VC\Tools\MSVC\14.29.30133\include\xstring
; File C:\Users\murat\Desktop\Siveps2-1-99-Project\source\client\Client\EterLib\GrpTextInstance.cpp
; File C:\Program Files (x86)\Microsoft Visual Studio\2019\Professional\VC\Tools\MSVC\14.29.30133\include\xstring
; File C:\Users\murat\Desktop\Siveps2-1-99-Project\source\client\Client\EterLib\GrpTextInstance.h
; File C:\Users\murat\Desktop\Siveps2-1-99-Project\source\client\Client\EterLib\GrpTextInstance.cpp
; File C:\Program Files (x86)\Microsoft Visual Studio\2019\Professional\VC\Tools\MSVC\14.29.30133\include\xstring
; File C:\Users\murat\Desktop\Siveps2-1-99-Project\source\client\Client\EterLib\GrpTextInstance.cpp
; File C:\Program Files (x86)\Microsoft Visual Studio\2019\Professional\VC\Tools\MSVC\14.29.30133\include\xstring
; File C:\Users\murat\Desktop\Siveps2-1-99-Project\source\client\Client\EterLib\GrpTextInstance.cpp
; File C:\Program Files (x86)\Microsoft Visual Studio\2019\Professional\VC\Tools\MSVC\14.29.30133\include\xstring
; File C:\Users\murat\Desktop\Siveps2-1-99-Project\source\client\Client\EterLib\GrpTextInstance.cpp
; File C:\Program Files (x86)\Microsoft Visual Studio\2019\Professional\VC\Tools\MSVC\14.29.30133\include\xstring
; File C:\Users\murat\Desktop\Siveps2-1-99-Project\source\client\Client\EterLib\GrpTextInstance.cpp
; File C:\Program Files (x86)\Microsoft Visual Studio\2019\Professional\VC\Tools\MSVC\14.29.30133\include\xstring
; File C:\Users\murat\Desktop\Siveps2-1-99-Project\source\client\Client\EterLib\GrpTextInstance.cpp
; File C:\Program Files (x86)\Microsoft Visual Studio\2019\Professional\VC\Tools\MSVC\14.29.30133\include\xstring
; File C:\Users\murat\Desktop\Siveps2-1-99-Project\source\client\Client\EterLib\GrpTextInstance.cpp
; File C:\Program Files (x86)\Microsoft Visual Studio\2019\Professional\VC\Tools\MSVC\14.29.30133\include\vector
; File C:\Users\murat\Desktop\Siveps2-1-99-Project\source\client\Client\EterLib\GrpTextInstance.cpp
; File C:\Program Files (x86)\Microsoft Visual Studio\2019\Professional\VC\Tools\MSVC\14.29.30133\include\xstring
; File C:\Users\murat\Desktop\Siveps2-1-99-Project\source\client\Client\EterLib\GrpTextInstance.cpp
; File C:\Program Files (x86)\Microsoft Visual Studio\2019\Professional\VC\Tools\MSVC\14.29.30133\include\xstring
; File C:\Users\murat\Desktop\Siveps2-1-99-Project\source\client\Client\EterLib\GrpTextInstance.cpp
; File C:\Program Files (x86)\Microsoft Visual Studio\2019\Professional\VC\Tools\MSVC\14.29.30133\include\xstring
; File C:\Users\murat\Desktop\Siveps2-1-99-Project\source\client\Client\EterBase\Utils.h
; File C:\Program Files (x86)\Microsoft Visual Studio\2019\Professional\VC\Tools\MSVC\14.29.30133\include\xstring
; File C:\Users\murat\Desktop\Siveps2-1-99-Project\source\client\Client\EterBase\Utils.h
; File C:\Program Files (x86)\Microsoft Visual Studio\2019\Professional\VC\Tools\MSVC\14.29.30133\include\xmemory
; File C:\Users\murat\Desktop\Siveps2-1-99-Project\source\client\Client\EterBase\Utils.h
; File C:\Users\murat\Desktop\Siveps2-1-99-Project\source\client\Client\EterLib\GrpTextInstance.cpp
; File C:\Program Files (x86)\Microsoft Visual Studio\2019\Professional\VC\Tools\MSVC\14.29.30133\include\xstring
; File C:\Users\murat\Desktop\Siveps2-1-99-Project\source\client\Client\EterLib\GrpTextInstance.cpp
; File C:\Program Files (x86)\Microsoft Visual Studio\2019\Professional\VC\Tools\MSVC\14.29.30133\include\xstring
; File C:\Users\murat\Desktop\Siveps2-1-99-Project\source\client\Client\EterLib\GrpTextInstance.cpp
; File C:\Program Files (x86)\Microsoft Visual Studio\2019\Professional\VC\Tools\MSVC\14.29.30133\include\xstring
; File C:\Program Files (x86)\Microsoft Visual Studio\2019\Professional\VC\Tools\MSVC\14.29.30133\include\xmemory
; File C:\Program Files (x86)\Microsoft Visual Studio\2019\Professional\VC\Tools\MSVC\14.29.30133\include\xstring
; File C:\Program Files (x86)\Microsoft Visual Studio\2019\Professional\VC\Tools\MSVC\14.29.30133\include\xmemory
; File C:\Program Files (x86)\Microsoft Visual Studio\2019\Professional\VC\Tools\MSVC\14.29.30133\include\xstring
; File C:\Program Files (x86)\Microsoft Visual Studio\2019\Professional\VC\Tools\MSVC\14.29.30133\include\xmemory
; File C:\Program Files (x86)\Microsoft Visual Studio\2019\Professional\VC\Tools\MSVC\14.29.30133\include\xstring
; File C:\Program Files (x86)\Microsoft Visual Studio\2019\Professional\VC\Tools\MSVC\14.29.30133\include\xmemory
; File C:\Program Files (x86)\Microsoft Visual Studio\2019\Professional\VC\Tools\MSVC\14.29.30133\include\vector
; File C:\Program Files (x86)\Microsoft Visual Studio\2019\Professional\VC\Tools\MSVC\14.29.30133\include\xstring
; File C:\Users\murat\Desktop\Siveps2-1-99-Project\source\client\Client\EterLib\GrpTextInstance.cpp
; File C:\Program Files (x86)\Microsoft Visual Studio\2019\Professional\VC\Tools\MSVC\14.29.30133\include\xstring
; File C:\Users\murat\Desktop\Siveps2-1-99-Project\source\client\Client\EterLib\GrpTextInstance.cpp
; File C:\Program Files (x86)\Microsoft Visual Studio\2019\Professional\VC\Tools\MSVC\14.29.30133\include\xstring
; File C:\Users\murat\Desktop\Siveps2-1-99-Project\source\client\Client\EterLib\GrpTextInstance.cpp
; File C:\Program Files (x86)\Microsoft Visual Studio\2019\Professional\VC\Tools\MSVC\14.29.30133\include\xstring
; File C:\Program Files (x86)\Windows Kits\10\Include\10.0.19041.0\ucrt\wchar.h
; File C:\Program Files (x86)\Microsoft Visual Studio\2019\Professional\VC\Tools\MSVC\14.29.30133\include\xstring
; File C:\Users\murat\Desktop\Siveps2-1-99-Project\source\client\Client\EterLib\GrpTextInstance.cpp
; File C:\Program Files (x86)\Microsoft Visual Studio\2019\Professional\VC\Tools\MSVC\14.29.30133\include\xstring
; File C:\Users\murat\Desktop\Siveps2-1-99-Project\source\client\Client\EterLib\GrpTextInstance.cpp
; File C:\Program Files (x86)\Microsoft Visual Studio\2019\Professional\VC\Tools\MSVC\14.29.30133\include\xstring
; File C:\Program Files (x86)\Windows Kits\10\Include\10.0.19041.0\ucrt\wchar.h
; File C:\Program Files (x86)\Microsoft Visual Studio\2019\Professional\VC\Tools\MSVC\14.29.30133\include\xstring
; File C:\Users\murat\Desktop\Siveps2-1-99-Project\source\client\Client\EterLib\GrpTextInstance.cpp
; File C:\Program Files (x86)\Microsoft Visual Studio\2019\Professional\VC\Tools\MSVC\14.29.30133\include\xstring
; File C:\Program Files (x86)\Microsoft Visual Studio\2019\Professional\VC\Tools\MSVC\14.29.30133\include\xmemory
; File C:\Program Files (x86)\Microsoft Visual Studio\2019\Professional\VC\Tools\MSVC\14.29.30133\include\xstring
; File C:\Users\murat\Desktop\Siveps2-1-99-Project\source\client\Client\EterLib\GrpTextInstance.cpp
; File C:\Program Files (x86)\Microsoft Visual Studio\2019\Professional\VC\Tools\MSVC\14.29.30133\include\xstring
; File C:\Program Files (x86)\Microsoft Visual Studio\2019\Professional\VC\Tools\MSVC\14.29.30133\include\xmemory
; File C:\Program Files (x86)\Microsoft Visual Studio\2019\Professional\VC\Tools\MSVC\14.29.30133\include\xstring
; File C:\Users\murat\Desktop\Siveps2-1-99-Project\source\client\Client\EterLib\GrpTextInstance.cpp
; File C:\Program Files (x86)\Microsoft Visual Studio\2019\Professional\VC\Tools\MSVC\14.29.30133\include\xstring
; File C:\Program Files (x86)\Microsoft Visual Studio\2019\Professional\VC\Tools\MSVC\14.29.30133\include\xmemory
; File C:\Users\murat\Desktop\Siveps2-1-99-Project\source\client\Client\EterLib\GrpTextInstance.cpp
;	COMDAT ?Update@CGraphicTextInstance@@QAEXXZ
_TEXT	SEGMENT
_defCodePage$1$ = -1540					; size = 4
_wTextMax$1$ = -1536					; size = 4
_token$1$ = -1532					; size = 4
_len$2 = -1528						; size = 4
$T3 = -1524						; size = 1
$T4 = -1520						; size = 1
_this$1$ = -1516					; size = 4
$T5 = -1512						; size = 1
$T6 = -1508						; size = 1
_kEmoji$7 = -1504					; size = 8
_len$8 = -1496						; size = 4
_wText$1$ = -1492					; size = 4
_pSpaceInfo$1$ = -1488					; size = 4
_end$1$ = -1484						; size = 4
_i$1$ = -1480						; size = 4
_wArabicTextLen$1$ = -1480				; size = 4
_isEnglish$1$ = -1473					; size = 1
_pFontTexture$1$ = -1472				; size = 4
_dataCodePage$1$ = -1468				; size = 4
_wArabicText$1$ = -1464					; size = 4
_i$1$ = -1460						; size = 4
__Old_capacity$1$ = -1456				; size = 4
_x$1$ = -1456						; size = 4
_no_hyperlink$1$ = -1452				; size = 4
_wTextLen$1$ = -1452					; size = 4
_emojiStep$1$ = -1448					; size = 4
_nEnglishBase$1$ = -1448				; size = 4
__Result$2$ = -1444					; size = 4
__Result$2$ = -1444					; size = 4
_hyperlinkStep$1$ = -1444				; size = 4
tv4647 = -1444						; size = 4
_this$GSCopy$1$ = -1440					; size = 4
__Result$2$ = -1436					; size = 4
_hyperlinkStep$1$ = -1436				; size = 4
_e$1$ = -1436						; size = 4
_e$1$ = -1436						; size = 4
tv4487 = -1436						; size = 4
_dwColor$1$ = -1432					; size = 4
__Old_capacity$1$ = -1428				; size = 4
tv4479 = -1428						; size = 4
_kHyperlink$9 = -1424					; size = 28
_emojiBuffer$10 = -1396					; size = 24
_hyperlinkBuffer$11 = -1372				; size = 24
_kHyperlink$12 = -1348					; size = 28
_hyperlinkBuffer$13 = -1320				; size = 24
_retBuf$14 = -1296					; size = 1024
_szPath$15 = -272					; size = 255
__$ArrayPad$ = -16					; size = 4
__$EHRec$ = -12						; size = 12
?Update@CGraphicTextInstance@@QAEXXZ PROC		; CGraphicTextInstance::Update, COMDAT
; _this$ = ecx

; 126  : {

  00000	55		 push	 ebp
  00001	8b ec		 mov	 ebp, esp
  00003	6a ff		 push	 -1
  00005	68 00 00 00 00	 push	 __ehhandler$?Update@CGraphicTextInstance@@QAEXXZ
  0000a	64 a1 00 00 00
	00		 mov	 eax, DWORD PTR fs:0
  00010	50		 push	 eax
  00011	81 ec f8 05 00
	00		 sub	 esp, 1528		; 000005f8H
  00017	a1 00 00 00 00	 mov	 eax, DWORD PTR ___security_cookie
  0001c	33 c5		 xor	 eax, ebp
  0001e	89 45 f0	 mov	 DWORD PTR __$ArrayPad$[ebp], eax
  00021	53		 push	 ebx
  00022	56		 push	 esi
  00023	57		 push	 edi
  00024	50		 push	 eax
  00025	8d 45 f4	 lea	 eax, DWORD PTR __$EHRec$[ebp]
  00028	64 a3 00 00 00
	00		 mov	 DWORD PTR fs:0, eax
  0002e	8b d9		 mov	 ebx, ecx
  00030	89 9d 60 fa ff
	ff		 mov	 DWORD PTR _this$GSCopy$1$[ebp], ebx

; 127  : 	if (m_isUpdate) //     .

  00036	80 7b 44 00	 cmp	 BYTE PTR [ebx+68], 0
  0003a	0f 85 51 16 00
	00		 jne	 $LN1@Update
; File C:\Users\murat\Desktop\Siveps2-1-99-Project\source\client\Client\EterLib\Ref.h

; 62   : 			return m_pObject == NULL ? true : false;

  00040	8b 4b 48	 mov	 ecx, DWORD PTR [ebx+72]
  00043	85 c9		 test	 ecx, ecx
; File C:\Users\murat\Desktop\Siveps2-1-99-Project\source\client\Client\EterLib\GrpTextInstance.cpp

; 130  : 	if (m_roText.IsNull())

  00045	75 12		 jne	 SHORT $LN38@Update

; 131  : 	{
; 132  : 		Tracef("CGraphicTextInstance::Update - Font has not been set\n");

  00047	68 00 00 00 00	 push	 OFFSET ??_C@_0DG@FOMBDJDA@CGraphicTextInstance?3?3Update?5?9?5@
  0004c	e8 00 00 00 00	 call	 ?Tracef@@YAXPBDZZ	; Tracef
  00051	83 c4 04	 add	 esp, 4

; 133  : 		return;

  00054	e9 38 16 00 00	 jmp	 $LN1@Update
$LN38@Update:

; 134  : 	}
; 135  : 
; 136  : 	if (m_roText->IsEmpty())

  00059	e8 00 00 00 00	 call	 ?IsEmpty@CResource@@QBE_NXZ ; CResource::IsEmpty
  0005e	84 c0		 test	 al, al
  00060	0f 85 2b 16 00
	00		 jne	 $LN1@Update

; 137  : 		return;
; 138  : 
; 139  : 	CGraphicFontTexture* pFontTexture = m_roText->GetFontTexturePointer();

  00066	8b 4b 48	 mov	 ecx, DWORD PTR [ebx+72]
  00069	e8 00 00 00 00	 call	 ?GetFontTexturePointer@CGraphicText@@QAEPAVCGraphicFontTexture@@XZ ; CGraphicText::GetFontTexturePointer
  0006e	8b f0		 mov	 esi, eax
  00070	89 b5 40 fa ff
	ff		 mov	 DWORD PTR _pFontTexture$1$[ebp], esi

; 140  : 	if (!pFontTexture)

  00076	85 f6		 test	 esi, esi
  00078	0f 84 13 16 00
	00		 je	 $LN1@Update

; 141  : 		return;
; 142  : 
; 143  : 	UINT defCodePage = GetDefaultCodePage();

  0007e	e8 00 00 00 00	 call	 ?GetDefaultCodePage@@YAKXZ ; GetDefaultCodePage

; 144  : 
; 145  : 	UINT dataCodePage = defCodePage; //      UTF8    
; 146  : 
; 147  : 	CGraphicFontTexture::TCharacterInfomation* pSpaceInfo = pFontTexture->GetCharacterInfomation(dataCodePage, ' ');

  00083	6a 20		 push	 32			; 00000020H
  00085	50		 push	 eax
  00086	8b ce		 mov	 ecx, esi
  00088	89 85 fc f9 ff
	ff		 mov	 DWORD PTR _defCodePage$1$[ebp], eax
  0008e	89 85 44 fa ff
	ff		 mov	 DWORD PTR _dataCodePage$1$[ebp], eax
  00094	e8 00 00 00 00	 call	 ?GetCharacterInfomation@CGraphicFontTexture@@QAEPAUSCharacterInfomation@1@G_W@Z ; CGraphicFontTexture::GetCharacterInfomation
  00099	89 85 30 fa ff
	ff		 mov	 DWORD PTR _pSpaceInfo$1$[ebp], eax

; 148  : 
; 149  : 	int spaceHeight = pSpaceInfo ? pSpaceInfo->height : 12;

  0009f	85 c0		 test	 eax, eax
  000a1	74 06		 je	 SHORT $LN117@Update
  000a3	0f b7 78 04	 movzx	 edi, WORD PTR [eax+4]
  000a7	eb 05		 jmp	 SHORT $LN118@Update
$LN117@Update:
  000a9	bf 0c 00 00 00	 mov	 edi, 12			; 0000000cH
$LN118@Update:

; 150  : 
; 151  : 	m_pCharInfoVector.clear();

  000ae	8b 43 4c	 mov	 eax, DWORD PTR [ebx+76]

; 152  : 	m_dwColorInfoVector.clear();
; 153  : 	m_hyperlinkVector.clear();

  000b1	8d 4b 64	 lea	 ecx, DWORD PTR [ebx+100]
  000b4	89 43 50	 mov	 DWORD PTR [ebx+80], eax
  000b7	8b 43 58	 mov	 eax, DWORD PTR [ebx+88]
  000ba	89 43 5c	 mov	 DWORD PTR [ebx+92], eax
  000bd	e8 00 00 00 00	 call	 ?clear@?$vector@USHyperlink@CGraphicTextInstance@@V?$allocator@USHyperlink@CGraphicTextInstance@@@std@@@std@@QAEXXZ ; std::vector<CGraphicTextInstance::SHyperlink,std::allocator<CGraphicTextInstance::SHyperlink> >::clear
; File C:\Program Files (x86)\Microsoft Visual Studio\2019\Professional\VC\Tools\MSVC\14.29.30133\include\vector

; 1549 :         return static_cast<size_type>(_My_data._Mylast - _My_data._Myfirst);

  000c2	8b 53 74	 mov	 edx, DWORD PTR [ebx+116]
  000c5	8d 43 70	 lea	 eax, DWORD PTR [ebx+112]
  000c8	8b 73 70	 mov	 esi, DWORD PTR [ebx+112]
  000cb	8b ce		 mov	 ecx, esi
  000cd	89 85 14 fa ff
	ff		 mov	 DWORD PTR _this$1$[ebp], eax
  000d3	8b c2		 mov	 eax, edx
  000d5	2b c6		 sub	 eax, esi
; File C:\Users\murat\Desktop\Siveps2-1-99-Project\source\client\Client\EterLib\GrpTextInstance.cpp

; 156  :     if (m_emojiVector.size() != 0)

  000d7	83 f8 08	 cmp	 eax, 8
  000da	72 26		 jb	 SHORT $LN3@Update

; 158  :         for (std::vector<SEmoji>::iterator itor = m_emojiVector.begin(); itor != m_emojiVector.end(); ++itor)

  000dc	3b f2		 cmp	 esi, edx
  000de	74 22		 je	 SHORT $LN3@Update
$LL139@Update:

; 159  :         {
; 160  :             SEmoji & rEmo = *itor;
; 161  :             if (rEmo.pInstance)

  000e0	8b 46 04	 mov	 eax, DWORD PTR [esi+4]
  000e3	85 c0		 test	 eax, eax
  000e5	74 10		 je	 SHORT $LN2@Update

; 162  :             {
; 163  :                 CGraphicImageInstance::Delete(rEmo.pInstance);

  000e7	50		 push	 eax
  000e8	e8 00 00 00 00	 call	 ?Delete@CGraphicImageInstance@@SAXPAV1@@Z ; CGraphicImageInstance::Delete
  000ed	83 c4 04	 add	 esp, 4

; 164  :                 rEmo.pInstance = NULL;

  000f0	c7 46 04 00 00
	00 00		 mov	 DWORD PTR [esi+4], 0
$LN2@Update:
; File C:\Program Files (x86)\Microsoft Visual Studio\2019\Professional\VC\Tools\MSVC\14.29.30133\include\vector

; 78   :         ++_Ptr;

  000f7	83 c6 08	 add	 esi, 8
; File C:\Users\murat\Desktop\Siveps2-1-99-Project\source\client\Client\EterLib\GrpTextInstance.cpp

; 158  :         for (std::vector<SEmoji>::iterator itor = m_emojiVector.begin(); itor != m_emojiVector.end(); ++itor)

  000fa	3b 73 74	 cmp	 esi, DWORD PTR [ebx+116]
  000fd	75 e1		 jne	 SHORT $LL139@Update

; 164  :                 rEmo.pInstance = NULL;

  000ff	8b 4b 70	 mov	 ecx, DWORD PTR [ebx+112]
$LN3@Update:

; 171  : 	m_textWidth = 0;

  00102	33 c0		 xor	 eax, eax
  00104	89 4b 74	 mov	 DWORD PTR [ebx+116], ecx
; File C:\Program Files (x86)\Microsoft Visual Studio\2019\Professional\VC\Tools\MSVC\14.29.30133\include\xstring

; 3922 :         return _Mypair._Myval2._Myptr();

  00107	8d 73 20	 lea	 esi, DWORD PTR [ebx+32]
; File C:\Users\murat\Desktop\Siveps2-1-99-Project\source\client\Client\EterLib\GrpTextInstance.cpp

; 171  : 	m_textWidth = 0;

  0010a	66 89 43 0c	 mov	 WORD PTR [ebx+12], ax

; 172  : 	m_textHeight = spaceHeight;

  0010e	66 89 7b 0e	 mov	 WORD PTR [ebx+14], di
; File C:\Program Files (x86)\Microsoft Visual Studio\2019\Professional\VC\Tools\MSVC\14.29.30133\include\xstring

; 2306 :         if (_Large_string_engaged()) {

  00112	83 7e 14 10	 cmp	 DWORD PTR [esi+20], 16	; 00000010H
  00116	72 02		 jb	 SHORT $LN153@Update

; 2307 :             _Result = _Unfancy(_Bx._Ptr);

  00118	8b 36		 mov	 esi, DWORD PTR [esi]
$LN153@Update:
; File C:\Users\murat\Desktop\Siveps2-1-99-Project\source\client\Client\EterLib\GrpTextInstance.cpp

; 177  : 	const char* end = begin + m_stText.length();

  0011a	8b 43 30	 mov	 eax, DWORD PTR [ebx+48]
  0011d	8d 0c 30	 lea	 ecx, DWORD PTR [eax+esi]

; 178  : 
; 179  : 	int wTextMax = (end - begin) * 2;

  00120	03 c0		 add	 eax, eax
  00122	89 85 00 fa ff
	ff		 mov	 DWORD PTR _wTextMax$1$[ebp], eax

; 180  : 	wchar_t* wText = (wchar_t*)_alloca(sizeof(wchar_t)*wTextMax);

  00128	03 c0		 add	 eax, eax
  0012a	89 8d 34 fa ff
	ff		 mov	 DWORD PTR _end$1$[ebp], ecx
  00130	e8 00 00 00 00	 call	 __alloca_probe_16

; 181  : 
; 182  : 	DWORD dwColor = m_dwTextColor;
; 183  : 
; 184  : 	/* wstring end */
; 185  : 	while (begin < end)

  00135	8b 85 34 fa ff
	ff		 mov	 eax, DWORD PTR _end$1$[ebp]
  0013b	8b 7b 04	 mov	 edi, DWORD PTR [ebx+4]
  0013e	89 a5 2c fa ff
	ff		 mov	 DWORD PTR _wText$1$[ebp], esp
  00144	89 bd 68 fa ff
	ff		 mov	 DWORD PTR _dwColor$1$[ebp], edi
  0014a	3b f0		 cmp	 esi, eax
  0014c	0f 83 30 15 00
	00		 jae	 $LN897@Update
$LL5@Update:

; 186  : 	{
; 187  : 		const char * token = FindToken(begin, end);

  00152	50		 push	 eax
  00153	56		 push	 esi
  00154	e8 00 00 00 00	 call	 ?FindToken@@YAPBDPBD0@Z	; FindToken

; 188  : 
; 189  : 		int wTextLen = Ymir_MultiByteToWideChar(dataCodePage, 0, begin, token - begin, wText, wTextMax);

  00159	ff b5 00 fa ff
	ff		 push	 DWORD PTR _wTextMax$1$[ebp]
  0015f	89 85 04 fa ff
	ff		 mov	 DWORD PTR _token$1$[ebp], eax
  00165	2b c6		 sub	 eax, esi
  00167	ff b5 2c fa ff
	ff		 push	 DWORD PTR _wText$1$[ebp]
  0016d	50		 push	 eax
  0016e	56		 push	 esi
  0016f	8b b5 44 fa ff
	ff		 mov	 esi, DWORD PTR _dataCodePage$1$[ebp]
  00175	6a 00		 push	 0
  00177	56		 push	 esi
  00178	e8 00 00 00 00	 call	 ?Ymir_MultiByteToWideChar@@YAHIKPBDHPA_WH@Z ; Ymir_MultiByteToWideChar
  0017d	8b d8		 mov	 ebx, eax
  0017f	83 c4 20	 add	 esp, 32			; 00000020H

; 190  : 
; 191  : 		if (m_isSecret)

  00182	8b 85 60 fa ff
	ff		 mov	 eax, DWORD PTR _this$GSCopy$1$[ebp]
  00188	89 9d 54 fa ff
	ff		 mov	 DWORD PTR _wTextLen$1$[ebp], ebx
  0018e	80 78 19 00	 cmp	 BYTE PTR [eax+25], 0
  00192	74 2d		 je	 SHORT $LN43@Update

; 192  : 		{
; 193  : 			for(int i=0; i<wTextLen; ++i)

  00194	85 db		 test	 ebx, ebx
  00196	0f 8e b2 14 00
	00		 jle	 $LN784@Update
  0019c	0f 1f 40 00	 npad	 4
$LL9@Update:

; 194  : 				__DrawCharacter(pFontTexture, dataCodePage, '*', dwColor);

  001a0	57		 push	 edi
  001a1	6a 2a		 push	 42			; 0000002aH
  001a3	56		 push	 esi
  001a4	ff b5 40 fa ff
	ff		 push	 DWORD PTR _pFontTexture$1$[ebp]
  001aa	8b c8		 mov	 ecx, eax
  001ac	e8 00 00 00 00	 call	 ?__DrawCharacter@CGraphicTextInstance@@IAEHPAVCGraphicFontTexture@@G_WK@Z ; CGraphicTextInstance::__DrawCharacter
  001b1	8b 85 60 fa ff
	ff		 mov	 eax, DWORD PTR _this$GSCopy$1$[ebp]
  001b7	83 eb 01	 sub	 ebx, 1
  001ba	75 e4		 jne	 SHORT $LL9@Update

; 195  : 		}

  001bc	e9 8d 14 00 00	 jmp	 $LN784@Update
$LN43@Update:

; 196  : 		else
; 197  : 		{
; 198  : 			if (defCodePage == CP_ARABIC) // ARABIC

  001c1	81 bd fc f9 ff
	ff e8 04 00 00	 cmp	 DWORD PTR _defCodePage$1$[ebp], 1256 ; 000004e8H
  001cb	0f 85 a1 0c 00
	00		 jne	 $LN45@Update

; 199  : 			{
; 200  : 
; 201  : 				wchar_t* wArabicText = (wchar_t*)_alloca(sizeof(wchar_t) * wTextLen);

  001d1	8d 04 1b	 lea	 eax, DWORD PTR [ebx+ebx]
  001d4	e8 00 00 00 00	 call	 __alloca_probe_16
  001d9	8b c4		 mov	 eax, esp

; 202  : 				int wArabicTextLen = Arabic_MakeShape(wText, wTextLen, wArabicText, wTextLen);

  001db	53		 push	 ebx
  001dc	50		 push	 eax
  001dd	53		 push	 ebx
  001de	ff b5 2c fa ff
	ff		 push	 DWORD PTR _wText$1$[ebp]
  001e4	89 85 48 fa ff
	ff		 mov	 DWORD PTR _wArabicText$1$[ebp], eax
  001ea	e8 00 00 00 00	 call	 ?Arabic_MakeShape@@YAIPA_WI0I@Z ; Arabic_MakeShape
  001ef	8b c8		 mov	 ecx, eax

; 203  : 
; 204  : 				bool isEnglish = true;

  001f1	c6 85 3f fa ff
	ff 01		 mov	 BYTE PTR _isEnglish$1$[ebp], 1
; File C:\Program Files (x86)\Microsoft Visual Studio\2019\Professional\VC\Tools\MSVC\14.29.30133\include\xstring

; 4610 :             _My_data._Myres = _BUF_SIZE - 1;

  001f8	be 07 00 00 00	 mov	 esi, 7
; File C:\Users\murat\Desktop\Siveps2-1-99-Project\source\client\Client\EterLib\GrpTextInstance.cpp

; 202  : 				int wArabicTextLen = Arabic_MakeShape(wText, wTextLen, wArabicText, wTextLen);

  001fd	89 8d 38 fa ff
	ff		 mov	 DWORD PTR _wArabicTextLen$1$[ebp], ecx
; File C:\Users\murat\Desktop\Siveps2-1-99-Project\source\client\Client\EterLib\GrpTextInstance.h

; 87   : 			SHyperlink() : sx(0), ex(0) { }

  00203	33 db		 xor	 ebx, ebx
; File C:\Users\murat\Desktop\Siveps2-1-99-Project\source\client\Client\EterLib\GrpTextInstance.cpp

; 211  : 				int hyperlinkStep = 0;

  00205	c7 85 5c fa ff
	ff 00 00 00 00	 mov	 DWORD PTR _hyperlinkStep$1$[ebp], 0
; File C:\Users\murat\Desktop\Siveps2-1-99-Project\source\client\Client\EterLib\GrpTextInstance.h

; 87   : 			SHyperlink() : sx(0), ex(0) { }

  0020f	89 9d 6c fa ff
	ff		 mov	 DWORD PTR tv4479[ebp], ebx
; File C:\Users\murat\Desktop\Siveps2-1-99-Project\source\client\Client\EterLib\GrpTextInstance.cpp

; 205  : 				int nEnglishBase = wArabicTextLen - 1;

  00215	8d 41 ff	 lea	 eax, DWORD PTR [ecx-1]
; File C:\Program Files (x86)\Microsoft Visual Studio\2019\Professional\VC\Tools\MSVC\14.29.30133\include\xstring

; 4610 :             _My_data._Myres = _BUF_SIZE - 1;

  00218	89 b5 50 fa ff
	ff		 mov	 DWORD PTR __Old_capacity$1$[ebp], esi
; File C:\Users\murat\Desktop\Siveps2-1-99-Project\source\client\Client\EterLib\GrpTextInstance.cpp

; 205  : 				int nEnglishBase = wArabicTextLen - 1;

  0021e	89 85 58 fa ff
	ff		 mov	 DWORD PTR _nEnglishBase$1$[ebp], eax
; File C:\Users\murat\Desktop\Siveps2-1-99-Project\source\client\Client\EterLib\GrpTextInstance.h

; 87   : 			SHyperlink() : sx(0), ex(0) { }

  00224	33 c0		 xor	 eax, eax
; File C:\Program Files (x86)\Microsoft Visual Studio\2019\Professional\VC\Tools\MSVC\14.29.30133\include\xstring

; 2346 :         _CONSTEXPR20_CONTAINER _Bxty() noexcept : _Ptr() {} // user-provided, for fancy pointers

  00226	89 85 c0 fa ff
	ff		 mov	 DWORD PTR _kHyperlink$12[ebp+4], eax
; File C:\Users\murat\Desktop\Siveps2-1-99-Project\source\client\Client\EterLib\GrpTextInstance.h

; 87   : 			SHyperlink() : sx(0), ex(0) { }

  0022c	89 85 bc fa ff
	ff		 mov	 DWORD PTR _kHyperlink$12[ebp], eax
; File C:\Program Files (x86)\Microsoft Visual Studio\2019\Professional\VC\Tools\MSVC\14.29.30133\include\xstring

; 4596 :         _My_data._Mysize = 0;

  00232	89 85 d0 fa ff
	ff		 mov	 DWORD PTR _kHyperlink$12[ebp+20], eax

; 4610 :             _My_data._Myres = _BUF_SIZE - 1;

  00238	89 b5 d4 fa ff
	ff		 mov	 DWORD PTR _kHyperlink$12[ebp+24], esi

; 4611 :             // the _Traits::assign is last so the codegen doesn't think the char write can alias this
; 4612 :             _Traits::assign(_My_data._Bx._Buf[0], _Elem());

  0023e	66 89 85 c0 fa
	ff ff		 mov	 WORD PTR _kHyperlink$12[ebp+4], ax

; 2346 :         _CONSTEXPR20_CONTAINER _Bxty() noexcept : _Ptr() {} // user-provided, for fancy pointers

  00245	89 9d d8 fa ff
	ff		 mov	 DWORD PTR _hyperlinkBuffer$13[ebp], ebx
; File C:\Users\murat\Desktop\Siveps2-1-99-Project\source\client\Client\EterLib\GrpTextInstance.cpp

; 212  : 				SHyperlink kHyperlink;

  0024b	89 5d fc	 mov	 DWORD PTR __$EHRec$[ebp+8], ebx
; File C:\Program Files (x86)\Microsoft Visual Studio\2019\Professional\VC\Tools\MSVC\14.29.30133\include\xstring

; 4596 :         _My_data._Mysize = 0;

  0024e	89 9d e8 fa ff
	ff		 mov	 DWORD PTR _hyperlinkBuffer$13[ebp+16], ebx

; 4610 :             _My_data._Myres = _BUF_SIZE - 1;

  00254	89 b5 ec fa ff
	ff		 mov	 DWORD PTR _hyperlinkBuffer$13[ebp+20], esi

; 4611 :             // the _Traits::assign is last so the codegen doesn't think the char write can alias this
; 4612 :             _Traits::assign(_My_data._Bx._Buf[0], _Elem());

  0025a	66 89 85 d8 fa
	ff ff		 mov	 WORD PTR _hyperlinkBuffer$13[ebp], ax
; File C:\Users\murat\Desktop\Siveps2-1-99-Project\source\client\Client\EterLib\GrpTextInstance.cpp

; 217  : 				if (Arabic_IsInSymbol(wArabicText[wArabicTextLen - 1]))

  00261	8b 85 48 fa ff
	ff		 mov	 eax, DWORD PTR _wArabicText$1$[ebp]
  00267	c6 45 fc 01	 mov	 BYTE PTR __$EHRec$[ebp+8], 1
  0026b	89 9d 54 fa ff
	ff		 mov	 DWORD PTR _no_hyperlink$1$[ebp], ebx
  00271	0f b7 44 48 fe	 movzx	 eax, WORD PTR [eax+ecx*2-2]
  00276	50		 push	 eax
  00277	e8 00 00 00 00	 call	 ?Arabic_IsInSymbol@@YA_N_W@Z ; Arabic_IsInSymbol
  0027c	0f b6 8d 3f fa
	ff ff		 movzx	 ecx, BYTE PTR _isEnglish$1$[ebp]
  00283	33 d2		 xor	 edx, edx
  00285	83 c4 14	 add	 esp, 20			; 00000014H
  00288	84 c0		 test	 al, al
  0028a	0f 45 ca	 cmovne	 ecx, edx

; 218  : 				{
; 219  : 					isEnglish = false;
; 220  : 				}
; 221  : 
; 222  : 				int i = 0;
; 223  : 				for (i = wArabicTextLen - 1 ; i >= 0; --i)

  0028d	8b 95 58 fa ff
	ff		 mov	 edx, DWORD PTR _nEnglishBase$1$[ebp]
  00293	8b c2		 mov	 eax, edx
  00295	89 8d 64 fa ff
	ff		 mov	 DWORD PTR tv4487[ebp], ecx
  0029b	89 85 4c fa ff
	ff		 mov	 DWORD PTR _i$1$[ebp], eax
  002a1	85 c0		 test	 eax, eax
  002a3	0f 88 c1 06 00
	00		 js	 $LN11@Update
  002a9	8b f2		 mov	 esi, edx
  002ab	0f 1f 44 00 00	 npad	 5
$LL12@Update:

; 224  : 				{
; 225  : 					wchar_t wArabicChar = wArabicText[i];

  002b0	8b 85 48 fa ff
	ff		 mov	 eax, DWORD PTR _wArabicText$1$[ebp]
  002b6	0f b7 34 70	 movzx	 esi, WORD PTR [eax+esi*2]

; 226  : 
; 227  : 					if (isEnglish)

  002ba	56		 push	 esi
  002bb	84 c9		 test	 cl, cl
  002bd	0f 84 96 05 00
	00		 je	 $LN48@Update

; 228  : 					{
; 229  : 
; 230  : 						// <<  (ex. , )>> ->   .
; 231  : 						//		<<(   : , , )>>
; 232  : 						//  (1)    or
; 233  : 						//	(2)
; 234  : 						//		1)     &&
; 235  : 						//		2)     &&
; 236  : 						//		3)   '|'  &&
; 237  : 						//		or
; 238  : 						//	(3)   '|'
; 239  : 						// <<    : .>>
; 240  : 						//	1)  
; 241  : 						//	2)  
; 242  : 						//
; 243  : 						//
; 244  : 						if (Arabic_IsInSymbol(wArabicChar) && (

  002c3	e8 00 00 00 00	 call	 ?Arabic_IsInSymbol@@YA_N_W@Z ; Arabic_IsInSymbol
  002c8	83 c4 04	 add	 esp, 4
  002cb	84 c0		 test	 al, al
  002cd	74 6d		 je	 SHORT $LN889@Update
  002cf	8b 85 4c fa ff
	ff		 mov	 eax, DWORD PTR _i$1$[ebp]
  002d5	85 c0		 test	 eax, eax
  002d7	0f 84 60 06 00
	00		 je	 $LN912@Update
  002dd	7e 4c		 jle	 SHORT $LN918@Update
  002df	48		 dec	 eax
  002e0	50		 push	 eax
  002e1	ff b5 48 fa ff
	ff		 push	 DWORD PTR _wArabicText$1$[ebp]
  002e7	e8 00 00 00 00	 call	 ?Arabic_HasPresentation@@YA_NPA_WH@Z ; Arabic_HasPresentation
  002ec	8b 8d 48 fa ff
	ff		 mov	 ecx, DWORD PTR _wArabicText$1$[ebp]
  002f2	83 c4 08	 add	 esp, 8
  002f5	84 c0		 test	 al, al
  002f7	8b 85 4c fa ff
	ff		 mov	 eax, DWORD PTR _i$1$[ebp]
  002fd	75 32		 jne	 SHORT $LN53@Update
  002ff	0f b7 44 41 02	 movzx	 eax, WORD PTR [ecx+eax*2+2]
  00304	50		 push	 eax
  00305	e8 00 00 00 00	 call	 ?Arabic_IsInPresentation@@YA_N_W@Z ; Arabic_IsInPresentation
  0030a	8b 8d 48 fa ff
	ff		 mov	 ecx, DWORD PTR _wArabicText$1$[ebp]
  00310	83 c4 04	 add	 esp, 4
  00313	84 c0		 test	 al, al
  00315	8b 85 4c fa ff
	ff		 mov	 eax, DWORD PTR _i$1$[ebp]
  0031b	75 14		 jne	 SHORT $LN53@Update
  0031d	66 83 7c 41 02
	7c		 cmp	 WORD PTR [ecx+eax*2+2], 124 ; 0000007cH
  00323	0f 85 14 06 00
	00		 jne	 $LN912@Update
  00329	eb 06		 jmp	 SHORT $LN53@Update
$LN918@Update:
  0032b	8b 8d 48 fa ff
	ff		 mov	 ecx, DWORD PTR _wArabicText$1$[ebp]
$LN53@Update:
  00331	66 83 3c 41 7c	 cmp	 WORD PTR [ecx+eax*2], 124 ; 0000007cH
  00336	0f 84 01 06 00
	00		 je	 $LN912@Update
$LN889@Update:

; 245  : 								(i == 0) ||
; 246  : 								(i > 0 &&
; 247  : 									!(Arabic_HasPresentation(wArabicText, i - 1) || Arabic_IsInPresentation(wArabicText[i + 1]))  && //,   .
; 248  : 									wArabicText[i+1] != '|'
; 249  : 								) ||
; 250  : 								wArabicText[i] == '|'
; 251  : 							))//if end.
; 252  : 						{
; 253  : 							// pass
; 254  : 							int temptest = 1;
; 255  : 						}
; 256  : 						// (1) (2)     
; 257  : 						else if (Arabic_IsInPresentation(wArabicChar) || Arabic_IsInSymbol(wArabicChar))

  0033c	56		 push	 esi
  0033d	e8 00 00 00 00	 call	 ?Arabic_IsInPresentation@@YA_N_W@Z ; Arabic_IsInPresentation
  00342	83 c4 04	 add	 esp, 4
  00345	84 c0		 test	 al, al
  00347	75 11		 jne	 SHORT $LN55@Update
  00349	56		 push	 esi
  0034a	e8 00 00 00 00	 call	 ?Arabic_IsInSymbol@@YA_N_W@Z ; Arabic_IsInSymbol
  0034f	83 c4 04	 add	 esp, 4
  00352	84 c0		 test	 al, al
  00354	0f 84 e3 05 00
	00		 je	 $LN912@Update
$LN55@Update:

; 258  : 						{
; 259  : 							//   .
; 260  : 							for (int e = i + 1; e <= nEnglishBase;) {

  0035a	8b 85 4c fa ff
	ff		 mov	 eax, DWORD PTR _i$1$[ebp]
  00360	8d 48 01	 lea	 ecx, DWORD PTR [eax+1]
  00363	89 8d 64 fa ff
	ff		 mov	 DWORD PTR _e$1$[ebp], ecx
  00369	3b 8d 58 fa ff
	ff		 cmp	 ecx, DWORD PTR _nEnglishBase$1$[ebp]
  0036f	0f 8f 32 04 00
	00		 jg	 $LN14@Update
  00375	66 66 66 0f 1f
	84 00 00 00 00
	00		 npad	 11
$LL13@Update:

; 261  : 								int ret = GetTextTag(&wArabicText[e], wArabicTextLen - e, len, hyperlinkBuffer);

  00380	8b 85 48 fa ff
	ff		 mov	 eax, DWORD PTR _wArabicText$1$[ebp]
  00386	8d 34 48	 lea	 esi, DWORD PTR [eax+ecx*2]
  00389	8d 85 d8 fa ff
	ff		 lea	 eax, DWORD PTR _hyperlinkBuffer$13[ebp]
  0038f	50		 push	 eax
  00390	8d 85 28 fa ff
	ff		 lea	 eax, DWORD PTR _len$8[ebp]
  00396	50		 push	 eax
  00397	8b 85 38 fa ff
	ff		 mov	 eax, DWORD PTR _wArabicTextLen$1$[ebp]
  0039d	2b c1		 sub	 eax, ecx
  0039f	50		 push	 eax
  003a0	56		 push	 esi
  003a1	e8 00 00 00 00	 call	 ?GetTextTag@@YAHPB_WHAAHAAV?$basic_string@_WU?$char_traits@_W@std@@V?$allocator@_W@2@@std@@@Z ; GetTextTag
  003a6	83 c4 10	 add	 esp, 16			; 00000010H

; 262  : 
; 263  : 								if (ret == TEXT_TAG_PLAIN || ret == TEXT_TAG_TAG)

  003a9	85 c0		 test	 eax, eax
  003ab	0f 84 d2 02 00
	00		 je	 $LN58@Update
  003b1	83 f8 01	 cmp	 eax, 1
  003b4	0f 84 c9 02 00
	00		 je	 $LN58@Update

; 282  : 										}
; 283  : 									}
; 284  : 								}
; 285  : 								else
; 286  : 								{
; 287  : 									if (ret == TEXT_TAG_COLOR)

  003ba	83 f8 02	 cmp	 eax, 2
  003bd	0f 85 82 00 00
	00		 jne	 $LN62@Update
; File C:\Program Files (x86)\Microsoft Visual Studio\2019\Professional\VC\Tools\MSVC\14.29.30133\include\xstring

; 2306 :         if (_Large_string_engaged()) {

  003c3	83 bd ec fa ff
	ff 08		 cmp	 DWORD PTR _hyperlinkBuffer$13[ebp+20], 8
  003ca	8d bd d8 fa ff
	ff		 lea	 edi, DWORD PTR _hyperlinkBuffer$13[ebp]
; File C:\Users\murat\Desktop\Siveps2-1-99-Project\source\client\Client\EterBase\Utils.h

; 149  :     int x = 0, y = 1;

  003d0	8d 70 ff	 lea	 esi, DWORD PTR [eax-1]
; File C:\Program Files (x86)\Microsoft Visual Studio\2019\Professional\VC\Tools\MSVC\14.29.30133\include\xstring

; 2306 :         if (_Large_string_engaged()) {

  003d3	0f 43 bd d8 fa
	ff ff		 cmovae	 edi, DWORD PTR _hyperlinkBuffer$13[ebp]
; File C:\Users\murat\Desktop\Siveps2-1-99-Project\source\client\Client\EterBase\Utils.h

; 149  :     int x = 0, y = 1;

  003da	33 db		 xor	 ebx, ebx
  003dc	89 9d 68 fa ff
	ff		 mov	 DWORD PTR _dwColor$1$[ebp], ebx

; 152  :     while (t <= --s)

  003e2	8d 57 0e	 lea	 edx, DWORD PTR [edi+14]
  003e5	3b fa		 cmp	 edi, edx
  003e7	0f 87 8a 03 00
	00		 ja	 $LN904@Update
  003ed	0f 1f 00	 npad	 3
$LL214@Update:

; 153  :     {
; 154  : 		if (L'0' <= *s && *s <= L'9')

  003f0	0f b7 0a	 movzx	 ecx, WORD PTR [edx]
  003f3	8d 41 d0	 lea	 eax, DWORD PTR [ecx-48]
  003f6	66 83 f8 09	 cmp	 ax, 9
  003fa	77 05		 ja	 SHORT $LN216@Update

; 155  :             x += y * (*s - L'0');

  003fc	8d 41 d0	 lea	 eax, DWORD PTR [ecx-48]
  003ff	eb 1a		 jmp	 SHORT $LN221@Update
$LN216@Update:

; 156  :         else if (L'a' <= *s && *s <= L'f')

  00401	8d 41 9f	 lea	 eax, DWORD PTR [ecx-97]
  00404	66 83 f8 05	 cmp	 ax, 5
  00408	77 05		 ja	 SHORT $LN218@Update

; 157  :             x += y * (*s - L'a' + 10);

  0040a	8d 41 a9	 lea	 eax, DWORD PTR [ecx-87]
  0040d	eb 0c		 jmp	 SHORT $LN221@Update
$LN218@Update:

; 158  :         else if (L'A' <= *s && *s <= L'F')

  0040f	8d 41 bf	 lea	 eax, DWORD PTR [ecx-65]
  00412	66 83 f8 05	 cmp	 ax, 5
  00416	77 1f		 ja	 SHORT $LN220@Update

; 159  :             x += y * (10 + *s - L'A');

  00418	8d 41 c9	 lea	 eax, DWORD PTR [ecx-55]
$LN221@Update:

; 162  :         y <<= 4;

  0041b	8b ce		 mov	 ecx, esi
  0041d	83 ea 02	 sub	 edx, 2
  00420	0f af c8	 imul	 ecx, eax
  00423	c1 e6 04	 shl	 esi, 4
  00426	03 d9		 add	 ebx, ecx
  00428	3b fa		 cmp	 edi, edx
  0042a	76 c4		 jbe	 SHORT $LL214@Update
; File C:\Program Files (x86)\Microsoft Visual Studio\2019\Professional\VC\Tools\MSVC\14.29.30133\include\xmemory

; 64   :         if (_Count > _Max_possible) {

  0042c	89 9d 68 fa ff
	ff		 mov	 DWORD PTR _dwColor$1$[ebp], ebx
  00432	e9 40 03 00 00	 jmp	 $LN904@Update
$LN220@Update:
; File C:\Users\murat\Desktop\Siveps2-1-99-Project\source\client\Client\EterBase\Utils.h

; 161  :             return -1; /* invalid input! */

  00437	83 cf ff	 or	 edi, -1
  0043a	89 bd 68 fa ff
	ff		 mov	 DWORD PTR _dwColor$1$[ebp], edi
  00440	e9 38 03 00 00	 jmp	 $LN213@Update
$LN62@Update:
; File C:\Users\murat\Desktop\Siveps2-1-99-Project\source\client\Client\EterLib\GrpTextInstance.cpp

; 289  : 									else if (ret == TEXT_TAG_RESTORE_COLOR)

  00445	83 f8 05	 cmp	 eax, 5
  00448	75 14		 jne	 SHORT $LN64@Update

; 290  : 										dwColor = m_dwTextColor;

  0044a	8b 85 60 fa ff
	ff		 mov	 eax, DWORD PTR _this$GSCopy$1$[ebp]
  00450	8b 78 04	 mov	 edi, DWORD PTR [eax+4]
  00453	89 bd 68 fa ff
	ff		 mov	 DWORD PTR _dwColor$1$[ebp], edi
  00459	e9 25 03 00 00	 jmp	 $LN819@Update
$LN64@Update:

; 291  : 									else if (ret == TEXT_TAG_HYPERLINK_START)

  0045e	83 f8 03	 cmp	 eax, 3
  00461	75 21		 jne	 SHORT $LN66@Update
; File C:\Program Files (x86)\Microsoft Visual Studio\2019\Professional\VC\Tools\MSVC\14.29.30133\include\xstring

; 3264 :         return assign(_Ptr, _Convert_size<size_type>(_Traits::length(_Ptr)));

  00463	6a 00		 push	 0
  00465	68 00 00 00 00	 push	 OFFSET ??_C@_11LOCGONAA@@
  0046a	8d 8d d8 fa ff
	ff		 lea	 ecx, DWORD PTR _hyperlinkBuffer$13[ebp]
; File C:\Users\murat\Desktop\Siveps2-1-99-Project\source\client\Client\EterLib\GrpTextInstance.cpp

; 293  : 										hyperlinkStep = 1;

  00470	c7 85 5c fa ff
	ff 01 00 00 00	 mov	 DWORD PTR _hyperlinkStep$1$[ebp], 1
; File C:\Program Files (x86)\Microsoft Visual Studio\2019\Professional\VC\Tools\MSVC\14.29.30133\include\xstring

; 3264 :         return assign(_Ptr, _Convert_size<size_type>(_Traits::length(_Ptr)));

  0047a	e8 00 00 00 00	 call	 ?assign@?$basic_string@_WU?$char_traits@_W@std@@V?$allocator@_W@2@@std@@QAEAAV12@QB_WI@Z ; std::basic_string<wchar_t,std::char_traits<wchar_t>,std::allocator<wchar_t> >::assign
; File C:\Users\murat\Desktop\Siveps2-1-99-Project\source\client\Client\EterLib\GrpTextInstance.cpp

; 295  : 									}

  0047f	e9 ff 02 00 00	 jmp	 $LN819@Update
$LN66@Update:

; 296  : 									else if (ret == TEXT_TAG_HYPERLINK_END)

  00484	83 f8 04	 cmp	 eax, 4
  00487	0f 85 f6 02 00
	00		 jne	 $LN819@Update

; 297  : 									{
; 298  : 										if (hyperlinkStep == 1)

  0048d	83 bd 5c fa ff
	ff 01		 cmp	 DWORD PTR _hyperlinkStep$1$[ebp], 1
  00494	75 1f		 jne	 SHORT $LN69@Update

; 299  : 										{
; 300  : 											++hyperlinkStep;
; 301  : 											kHyperlink.ex = kHyperlink.sx = 0; //    

  00496	33 c0		 xor	 eax, eax
  00498	c7 85 5c fa ff
	ff 02 00 00 00	 mov	 DWORD PTR _hyperlinkStep$1$[ebp], 2
  004a2	33 db		 xor	 ebx, ebx
  004a4	89 85 bc fa ff
	ff		 mov	 DWORD PTR _kHyperlink$12[ebp], eax
  004aa	89 9d 6c fa ff
	ff		 mov	 DWORD PTR tv4479[ebp], ebx

; 302  : 										}

  004b0	e9 ce 02 00 00	 jmp	 $LN819@Update
$LN69@Update:
; File C:\Program Files (x86)\Microsoft Visual Studio\2019\Professional\VC\Tools\MSVC\14.29.30133\include\xstring

; 2306 :         if (_Large_string_engaged()) {

  004b5	83 bd ec fa ff
	ff 08		 cmp	 DWORD PTR _hyperlinkBuffer$13[ebp+20], 8
  004bc	8d 85 d8 fa ff
	ff		 lea	 eax, DWORD PTR _hyperlinkBuffer$13[ebp]

; 3035 :         assign(_Right._Mypair._Myval2._Myptr(), _Right._Mypair._Myval2._Mysize);

  004c2	8b 9d e8 fa ff
	ff		 mov	 ebx, DWORD PTR _hyperlinkBuffer$13[ebp+16]

; 2306 :         if (_Large_string_engaged()) {

  004c8	0f 43 85 d8 fa
	ff ff		 cmovae	 eax, DWORD PTR _hyperlinkBuffer$13[ebp]

; 3035 :         assign(_Right._Mypair._Myval2._Myptr(), _Right._Mypair._Myval2._Mysize);

  004cf	8b 95 50 fa ff
	ff		 mov	 edx, DWORD PTR __Old_capacity$1$[ebp]

; 2306 :         if (_Large_string_engaged()) {

  004d5	89 85 5c fa ff
	ff		 mov	 DWORD PTR __Result$2$[ebp], eax

; 3035 :         assign(_Right._Mypair._Myval2._Myptr(), _Right._Mypair._Myval2._Mysize);

  004db	3b da		 cmp	 ebx, edx

; 3246 :         if (_Count <= _Mypair._Myval2._Myres) {

  004dd	77 2f		 ja	 SHORT $LN240@Update

; 2297 :         if (_Large_string_engaged()) {

  004df	83 fa 08	 cmp	 edx, 8

; 3248 :             _Mypair._Myval2._Mysize = _Count;

  004e2	89 9d d0 fa ff
	ff		 mov	 DWORD PTR _kHyperlink$12[ebp+20], ebx

; 122  :         _CSTD memmove(_First1, _First2, _Count * sizeof(_Elem));

  004e8	8d 34 1b	 lea	 esi, DWORD PTR [ebx+ebx]
  004eb	56		 push	 esi

; 2296 :         value_type* _Result = _Bx._Buf;

  004ec	8d bd c0 fa ff
	ff		 lea	 edi, DWORD PTR _kHyperlink$12[ebp+4]

; 2297 :         if (_Large_string_engaged()) {

  004f2	0f 43 bd c0 fa
	ff ff		 cmovae	 edi, DWORD PTR _kHyperlink$12[ebp+4]

; 122  :         _CSTD memmove(_First1, _First2, _Count * sizeof(_Elem));

  004f9	50		 push	 eax
  004fa	57		 push	 edi
  004fb	e8 00 00 00 00	 call	 _memmove
  00500	83 c4 0c	 add	 esp, 12			; 0000000cH

; 3250 :             _Traits::assign(_Old_ptr[_Count], _Elem());

  00503	33 c0		 xor	 eax, eax
  00505	66 89 04 37	 mov	 WORD PTR [edi+esi], ax

; 3251 :             return *this;

  00509	e9 00 01 00 00	 jmp	 $LN252@Update
$LN240@Update:

; 4508 :         if (_New_size > max_size()) {

  0050e	81 fb fe ff ff
	7f		 cmp	 ebx, 2147483646		; 7ffffffeH
  00514	0f 87 a3 11 00
	00		 ja	 $LN825@Update

; 4509 :             _Xlen_string(); // result too long
; 4510 :         }
; 4511 : 
; 4512 :         const size_type _Old_capacity = _Mypair._Myval2._Myres;

  0051a	8b f3		 mov	 esi, ebx
  0051c	83 ce 07	 or	 esi, 7

; 4488 :         const size_type _Masked = _Requested | _ALLOC_MASK;

  0051f	81 fe fe ff ff
	7f		 cmp	 esi, 2147483646		; 7ffffffeH

; 4489 :         if (_Masked > _Max) { // the mask overflows, settle for max_size()

  00525	76 17		 jbe	 SHORT $LN257@Update

; 4490 :             return _Max;

  00527	b8 fe ff ff ff	 mov	 eax, -2			; fffffffeH
  0052c	be fe ff ff 7f	 mov	 esi, 2147483646		; 7ffffffeH
; File C:\Program Files (x86)\Microsoft Visual Studio\2019\Professional\VC\Tools\MSVC\14.29.30133\include\xmemory

; 238  :             return _Allocate_manually_vector_aligned<_Traits>(_Bytes);

  00531	50		 push	 eax
  00532	e8 00 00 00 00	 call	 ??$_Allocate_manually_vector_aligned@U_Default_allocate_traits@std@@@std@@YAPAXI@Z ; std::_Allocate_manually_vector_aligned<std::_Default_allocate_traits>
  00537	83 c4 04	 add	 esp, 4
  0053a	8b f8		 mov	 edi, eax
  0053c	eb 65		 jmp	 SHORT $LN268@Update
$LN257@Update:
; File C:\Program Files (x86)\Microsoft Visual Studio\2019\Professional\VC\Tools\MSVC\14.29.30133\include\xstring

; 4493 :         if (_Old > _Max - _Old / 2) { // similarly, geometric overflows

  0053e	8b ca		 mov	 ecx, edx
  00540	b8 fe ff ff 7f	 mov	 eax, 2147483646		; 7ffffffeH
  00545	d1 e9		 shr	 ecx, 1
  00547	2b c1		 sub	 eax, ecx
  00549	3b d0		 cmp	 edx, eax
  0054b	76 17		 jbe	 SHORT $LN258@Update

; 4494 :             return _Max;

  0054d	b8 fe ff ff ff	 mov	 eax, -2			; fffffffeH
  00552	be fe ff ff 7f	 mov	 esi, 2147483646		; 7ffffffeH
; File C:\Program Files (x86)\Microsoft Visual Studio\2019\Professional\VC\Tools\MSVC\14.29.30133\include\xmemory

; 238  :             return _Allocate_manually_vector_aligned<_Traits>(_Bytes);

  00557	50		 push	 eax
  00558	e8 00 00 00 00	 call	 ??$_Allocate_manually_vector_aligned@U_Default_allocate_traits@std@@@std@@YAPAXI@Z ; std::_Allocate_manually_vector_aligned<std::_Default_allocate_traits>
  0055d	83 c4 04	 add	 esp, 4
  00560	8b f8		 mov	 edi, eax
  00562	eb 3f		 jmp	 SHORT $LN268@Update
$LN258@Update:
; File C:\Program Files (x86)\Microsoft Visual Studio\2019\Professional\VC\Tools\MSVC\14.29.30133\include\xstring

; 4497 :         return (_STD max)(_Masked, _Old + _Old / 2);

  00564	8d 04 11	 lea	 eax, DWORD PTR [ecx+edx]
  00567	3b f0		 cmp	 esi, eax
  00569	0f 42 f0	 cmovb	 esi, eax

; 4515 :         const pointer _New_ptr        = _Al.allocate(_New_capacity + 1); // throws

  0056c	8d 46 01	 lea	 eax, DWORD PTR [esi+1]
; File C:\Program Files (x86)\Microsoft Visual Studio\2019\Professional\VC\Tools\MSVC\14.29.30133\include\xmemory

; 64   :         if (_Count > _Max_possible) {

  0056f	3d ff ff ff 7f	 cmp	 eax, 2147483647		; 7fffffffH
  00574	0f 87 3e 11 00
	00		 ja	 $LN826@Update

; 65   :             _Throw_bad_array_new_length(); // multiply overflow
; 66   :         }
; 67   :     }
; 68   : 
; 69   :     return _Count * _Ty_size;

  0057a	03 c0		 add	 eax, eax

; 237  :         if (_Bytes >= _Big_allocation_threshold) { // boost the alignment of big allocations to help autovectorization

  0057c	3d 00 10 00 00	 cmp	 eax, 4096		; 00001000H
  00581	72 0d		 jb	 SHORT $LN269@Update

; 238  :             return _Allocate_manually_vector_aligned<_Traits>(_Bytes);

  00583	50		 push	 eax
  00584	e8 00 00 00 00	 call	 ??$_Allocate_manually_vector_aligned@U_Default_allocate_traits@std@@@std@@YAPAXI@Z ; std::_Allocate_manually_vector_aligned<std::_Default_allocate_traits>
  00589	83 c4 04	 add	 esp, 4
  0058c	8b f8		 mov	 edi, eax
  0058e	eb 13		 jmp	 SHORT $LN268@Update
$LN269@Update:

; 239  :         }
; 240  :     }
; 241  : #endif // defined(_M_IX86) || defined(_M_X64)
; 242  : 
; 243  :     if (_Bytes != 0) {

  00590	85 c0		 test	 eax, eax
  00592	74 0d		 je	 SHORT $LN270@Update

; 85   :         return ::operator new(_Bytes);

  00594	50		 push	 eax
  00595	e8 00 00 00 00	 call	 ??2@YAPAXI@Z		; operator new
  0059a	83 c4 04	 add	 esp, 4

; 244  :         return _Traits::_Allocate(_Bytes);

  0059d	8b f8		 mov	 edi, eax
  0059f	eb 02		 jmp	 SHORT $LN268@Update
$LN270@Update:

; 245  :     }
; 246  : 
; 247  :     return nullptr;

  005a1	33 ff		 xor	 edi, edi
$LN268@Update:
; File C:\Program Files (x86)\Microsoft Visual Studio\2019\Professional\VC\Tools\MSVC\14.29.30133\include\xstring

; 4524 :         _Mypair._Myval2._Myres  = _New_capacity;

  005a3	89 b5 d4 fa ff
	ff		 mov	 DWORD PTR _kHyperlink$12[ebp+24], esi

; 65   :         _CSTD memcpy(_First1, _First2, _Count * sizeof(_Elem));

  005a9	8d 34 1b	 lea	 esi, DWORD PTR [ebx+ebx]
  005ac	56		 push	 esi
  005ad	ff b5 5c fa ff
	ff		 push	 DWORD PTR __Result$2$[ebp]

; 4523 :         _Mypair._Myval2._Mysize = _New_size;

  005b3	89 9d d0 fa ff
	ff		 mov	 DWORD PTR _kHyperlink$12[ebp+20], ebx

; 65   :         _CSTD memcpy(_First1, _First2, _Count * sizeof(_Elem));

  005b9	57		 push	 edi
  005ba	e8 00 00 00 00	 call	 _memcpy

; 3258 :                 _Traits::assign(_New_ptr[_Count], _Elem());

  005bf	33 c0		 xor	 eax, eax

; 65   :         _CSTD memcpy(_First1, _First2, _Count * sizeof(_Elem));

  005c1	83 c4 0c	 add	 esp, 12			; 0000000cH

; 3258 :                 _Traits::assign(_New_ptr[_Count], _Elem());

  005c4	66 89 04 37	 mov	 WORD PTR [edi+esi], ax

; 4526 :         if (_BUF_SIZE <= _Old_capacity) {

  005c8	8b 85 50 fa ff
	ff		 mov	 eax, DWORD PTR __Old_capacity$1$[ebp]
  005ce	83 f8 08	 cmp	 eax, 8
  005d1	72 35		 jb	 SHORT $LN251@Update
; File C:\Program Files (x86)\Microsoft Visual Studio\2019\Professional\VC\Tools\MSVC\14.29.30133\include\xmemory

; 835  :         _Deallocate<_New_alignof<_Ty>>(_Ptr, sizeof(_Ty) * _Count);

  005d3	8b 8d c0 fa ff
	ff		 mov	 ecx, DWORD PTR _kHyperlink$12[ebp+4]
  005d9	8d 14 45 02 00
	00 00		 lea	 edx, DWORD PTR [eax*2+2]
  005e0	8b c1		 mov	 eax, ecx

; 260  :         if (_Bytes >= _Big_allocation_threshold) { // boost the alignment of big allocations to help autovectorization

  005e2	81 fa 00 10 00
	00		 cmp	 edx, 4096		; 00001000H
  005e8	72 14		 jb	 SHORT $LN293@Update

; 158  :     const uintptr_t _Ptr_container   = _Ptr_user[-1];

  005ea	8b 49 fc	 mov	 ecx, DWORD PTR [ecx-4]
  005ed	83 c2 23	 add	 edx, 35			; 00000023H
  005f0	2b c1		 sub	 eax, ecx

; 159  : 
; 160  :     // If the following asserts, it likely means that we are performing
; 161  :     // an aligned delete on memory coming from an unaligned allocation.
; 162  :     _STL_ASSERT(_Ptr_user[-2] == _Big_allocation_sentinel, "invalid argument");
; 163  : 
; 164  :     // Extra paranoia on aligned allocation/deallocation; ensure _Ptr_container is
; 165  :     // in range [_Min_back_shift, _Non_user_size]
; 166  : #ifdef _DEBUG
; 167  :     constexpr uintptr_t _Min_back_shift = 2 * sizeof(void*);
; 168  : #else // ^^^ _DEBUG ^^^ // vvv !_DEBUG vvv
; 169  :     constexpr uintptr_t _Min_back_shift = sizeof(void*);
; 170  : #endif // _DEBUG
; 171  :     const uintptr_t _Back_shift = reinterpret_cast<uintptr_t>(_Ptr) - _Ptr_container;
; 172  :     _STL_VERIFY(_Back_shift >= _Min_back_shift && _Back_shift <= _Non_user_size, "invalid argument");

  005f2	83 c0 fc	 add	 eax, -4			; fffffffcH
  005f5	83 f8 1f	 cmp	 eax, 31			; 0000001fH
  005f8	0f 87 c4 10 00
	00		 ja	 $LN501@Update
$LN293@Update:

; 264  :         ::operator delete(_Ptr, _Bytes);

  005fe	52		 push	 edx
  005ff	51		 push	 ecx
  00600	e8 00 00 00 00	 call	 ??3@YAXPAXI@Z		; operator delete
  00605	83 c4 08	 add	 esp, 8
$LN251@Update:
; File C:\Program Files (x86)\Microsoft Visual Studio\2019\Professional\VC\Tools\MSVC\14.29.30133\include\vector

; 743  :         if (_Mylast != _My_data._Myend) {

  00608	89 bd c0 fa ff
	ff		 mov	 DWORD PTR _kHyperlink$12[ebp+4], edi
$LN252@Update:
  0060e	8b 9d 60 fa ff
	ff		 mov	 ebx, DWORD PTR _this$GSCopy$1$[ebp]
  00614	8d 8d bc fa ff
	ff		 lea	 ecx, DWORD PTR _kHyperlink$12[ebp]
  0061a	83 c3 64	 add	 ebx, 100		; 00000064H
  0061d	51		 push	 ecx
  0061e	8b 43 04	 mov	 eax, DWORD PTR [ebx+4]
  00621	50		 push	 eax
  00622	3b 43 08	 cmp	 eax, DWORD PTR [ebx+8]
  00625	74 0f		 je	 SHORT $LN303@Update

; 726  :         _Alty_traits::construct(_Getal(), _Unfancy(_Mylast), _STD forward<_Valty>(_Val)...);

  00627	53		 push	 ebx
  00628	e8 00 00 00 00	 call	 ??$construct@USHyperlink@CGraphicTextInstance@@ABU12@@?$_Default_allocator_traits@V?$allocator@USHyperlink@CGraphicTextInstance@@@std@@@std@@SAXAAV?$allocator@USHyperlink@CGraphicTextInstance@@@1@QAUSHyperlink@CGraphicTextInstance@@ABU34@@Z ; std::_Default_allocator_traits<std::allocator<CGraphicTextInstance::SHyperlink> >::construct<CGraphicTextInstance::SHyperlink,CGraphicTextInstance::SHyperlink const &>
  0062d	83 c4 0c	 add	 esp, 12			; 0000000cH

; 727  :         _Orphan_range(_Mylast, _Mylast);
; 728  :         _Ty& _Result = *_Mylast;
; 729  :         ++_Mylast;

  00630	83 43 04 1c	 add	 DWORD PTR [ebx+4], 28	; 0000001cH

; 744  :             return _Emplace_back_with_unused_capacity(_STD forward<_Valty>(_Val)...);

  00634	eb 07		 jmp	 SHORT $LN302@Update
$LN303@Update:

; 745  :         }
; 746  : 
; 747  :         _Ty& _Result = *_Emplace_reallocate(_Mylast, _STD forward<_Valty>(_Val)...);

  00636	8b cb		 mov	 ecx, ebx
  00638	e8 00 00 00 00	 call	 ??$_Emplace_reallocate@ABUSHyperlink@CGraphicTextInstance@@@?$vector@USHyperlink@CGraphicTextInstance@@V?$allocator@USHyperlink@CGraphicTextInstance@@@std@@@std@@QAEPAUSHyperlink@CGraphicTextInstance@@QAU23@ABU23@@Z ; std::vector<CGraphicTextInstance::SHyperlink,std::allocator<CGraphicTextInstance::SHyperlink> >::_Emplace_reallocate<CGraphicTextInstance::SHyperlink const &>
$LN302@Update:
; File C:\Users\murat\Desktop\Siveps2-1-99-Project\source\client\Client\EterLib\GrpTextInstance.cpp

; 307  : 											no_hyperlink++;

  0063d	ff 85 54 fa ff
	ff		 inc	 DWORD PTR _no_hyperlink$1$[ebp]
; File C:\Program Files (x86)\Microsoft Visual Studio\2019\Professional\VC\Tools\MSVC\14.29.30133\include\xstring

; 3264 :         return assign(_Ptr, _Convert_size<size_type>(_Traits::length(_Ptr)));

  00643	8d 8d d8 fa ff
	ff		 lea	 ecx, DWORD PTR _hyperlinkBuffer$13[ebp]
  00649	6a 00		 push	 0
  0064b	68 00 00 00 00	 push	 OFFSET ??_C@_11LOCGONAA@@
; File C:\Users\murat\Desktop\Siveps2-1-99-Project\source\client\Client\EterLib\GrpTextInstance.cpp

; 310  : 											hyperlinkStep = 0;

  00650	c7 85 5c fa ff
	ff 00 00 00 00	 mov	 DWORD PTR _hyperlinkStep$1$[ebp], 0
; File C:\Program Files (x86)\Microsoft Visual Studio\2019\Professional\VC\Tools\MSVC\14.29.30133\include\xstring

; 3264 :         return assign(_Ptr, _Convert_size<size_type>(_Traits::length(_Ptr)));

  0065a	e8 00 00 00 00	 call	 ?assign@?$basic_string@_WU?$char_traits@_W@std@@V?$allocator@_W@2@@std@@QAEAAV12@QB_WI@Z ; std::basic_string<wchar_t,std::char_traits<wchar_t>,std::allocator<wchar_t> >::assign
  0065f	66 8b 9d be fa
	ff ff		 mov	 bx, WORD PTR _kHyperlink$12[ebp+2]
  00666	8b 85 d4 fa ff
	ff		 mov	 eax, DWORD PTR _kHyperlink$12[ebp+24]
  0066c	8b bd 68 fa ff
	ff		 mov	 edi, DWORD PTR _dwColor$1$[ebp]
  00672	89 85 50 fa ff
	ff		 mov	 DWORD PTR __Old_capacity$1$[ebp], eax
  00678	89 9d 6c fa ff
	ff		 mov	 DWORD PTR tv4479[ebp], ebx
  0067e	e9 00 01 00 00	 jmp	 $LN819@Update
$LN58@Update:
; File C:\Users\murat\Desktop\Siveps2-1-99-Project\source\client\Client\EterLib\GrpTextInstance.cpp

; 265  : 									if (hyperlinkStep == 1)

  00683	83 bd 5c fa ff
	ff 01		 cmp	 DWORD PTR _hyperlinkStep$1$[ebp], 1
  0068a	0f b7 0e	 movzx	 ecx, WORD PTR [esi]
  0068d	75 62		 jne	 SHORT $LN59@Update
; File C:\Program Files (x86)\Microsoft Visual Studio\2019\Professional\VC\Tools\MSVC\14.29.30133\include\xstring

; 3180 :         const size_type _Old_size = _Mypair._Myval2._Mysize;

  0068f	8b b5 ec fa ff
	ff		 mov	 esi, DWORD PTR _hyperlinkBuffer$13[ebp+20]
; File C:\Users\murat\Desktop\Siveps2-1-99-Project\source\client\Client\EterLib\GrpTextInstance.cpp

; 266  : 										hyperlinkBuffer.append(1, wArabicText[e]);

  00695	8b d1		 mov	 edx, ecx
; File C:\Program Files (x86)\Microsoft Visual Studio\2019\Professional\VC\Tools\MSVC\14.29.30133\include\xstring

; 3180 :         const size_type _Old_size = _Mypair._Myval2._Mysize;

  00697	8b 8d e8 fa ff
	ff		 mov	 ecx, DWORD PTR _hyperlinkBuffer$13[ebp+16]
  0069d	8b c6		 mov	 eax, esi
  0069f	2b c1		 sub	 eax, ecx

; 3181 :         if (_Count <= _Mypair._Myval2._Myres - _Old_size) {

  006a1	83 f8 01	 cmp	 eax, 1
  006a4	72 29		 jb	 SHORT $LN186@Update

; 3182 :             _Mypair._Myval2._Mysize = _Old_size + _Count;

  006a6	8d 41 01	 lea	 eax, DWORD PTR [ecx+1]

; 2297 :         if (_Large_string_engaged()) {

  006a9	83 fe 08	 cmp	 esi, 8

; 3182 :             _Mypair._Myval2._Mysize = _Old_size + _Count;

  006ac	89 85 e8 fa ff
	ff		 mov	 DWORD PTR _hyperlinkBuffer$13[ebp+16], eax

; 2296 :         value_type* _Result = _Bx._Buf;

  006b2	8d 85 d8 fa ff
	ff		 lea	 eax, DWORD PTR _hyperlinkBuffer$13[ebp]

; 2297 :         if (_Large_string_engaged()) {

  006b8	0f 43 85 d8 fa
	ff ff		 cmovae	 eax, DWORD PTR _hyperlinkBuffer$13[ebp]
; File C:\Program Files (x86)\Windows Kits\10\Include\10.0.19041.0\ucrt\wchar.h

; 261  :             *_Su = _C;

  006bf	66 89 14 48	 mov	 WORD PTR [eax+ecx*2], dx
; File C:\Program Files (x86)\Microsoft Visual Studio\2019\Professional\VC\Tools\MSVC\14.29.30133\include\xstring

; 3185 :             _Traits::assign(_Old_ptr[_Old_size + _Count], _Elem());

  006c3	33 d2		 xor	 edx, edx
  006c5	66 89 54 48 02	 mov	 WORD PTR [eax+ecx*2+2], dx

; 3186 :             return *this;

  006ca	e9 b4 00 00 00	 jmp	 $LN819@Update
$LN186@Update:

; 3187 :         }
; 3188 : 
; 3189 :         return _Reallocate_grow_by(

  006cf	52		 push	 edx
  006d0	6a 01		 push	 1
  006d2	c6 85 1c fa ff
	ff 00		 mov	 BYTE PTR $T6[ebp], 0
  006d9	8d 8d d8 fa ff
	ff		 lea	 ecx, DWORD PTR _hyperlinkBuffer$13[ebp]
  006df	ff b5 1c fa ff
	ff		 push	 DWORD PTR $T6[ebp]
  006e5	6a 01		 push	 1
  006e7	e8 00 00 00 00	 call	 ??$_Reallocate_grow_by@V<lambda_c3135ae829aeedc0a8af1bd1e887c66a>@@I_W@?$basic_string@_WU?$char_traits@_W@std@@V?$allocator@_W@2@@std@@AAEAAV01@IV<lambda_c3135ae829aeedc0a8af1bd1e887c66a>@@I_W@Z ; std::basic_string<wchar_t,std::char_traits<wchar_t>,std::allocator<wchar_t> >::_Reallocate_grow_by<<lambda_c3135ae829aeedc0a8af1bd1e887c66a>,unsigned int,wchar_t>
; File C:\Users\murat\Desktop\Siveps2-1-99-Project\source\client\Client\EterLib\GrpTextInstance.cpp

; 266  : 										hyperlinkBuffer.append(1, wArabicText[e]);

  006ec	e9 92 00 00 00	 jmp	 $LN819@Update
$LN59@Update:

; 267  : 									else
; 268  : 									{
; 269  : 										int charWidth = __DrawCharacter(pFontTexture, dataCodePage, wArabicText[e], dwColor);

  006f1	8b 85 44 fa ff
	ff		 mov	 eax, DWORD PTR _dataCodePage$1$[ebp]
  006f7	57		 push	 edi
  006f8	51		 push	 ecx
  006f9	8b 8d 60 fa ff
	ff		 mov	 ecx, DWORD PTR _this$GSCopy$1$[ebp]
  006ff	0f b7 c0	 movzx	 eax, ax
  00702	50		 push	 eax
  00703	ff b5 40 fa ff
	ff		 push	 DWORD PTR _pFontTexture$1$[ebp]
  00709	e8 00 00 00 00	 call	 ?__DrawCharacter@CGraphicTextInstance@@IAEHPAVCGraphicFontTexture@@G_WK@Z ; CGraphicTextInstance::__DrawCharacter

; 270  : 										kHyperlink.ex += charWidth;

  0070e	66 03 d8	 add	 bx, ax

; 274  : 										for (int j = 1; j <= no_hyperlink; j++)

  00711	be 01 00 00 00	 mov	 esi, 1
  00716	89 9d 6c fa ff
	ff		 mov	 DWORD PTR tv4479[ebp], ebx
  0071c	66 89 9d be fa
	ff ff		 mov	 WORD PTR _kHyperlink$12[ebp+2], bx
  00723	39 b5 54 fa ff
	ff		 cmp	 DWORD PTR _no_hyperlink$1$[ebp], esi
  00729	7c 58		 jl	 SHORT $LN819@Update
; File C:\Program Files (x86)\Microsoft Visual Studio\2019\Professional\VC\Tools\MSVC\14.29.30133\include\vector

; 1548 :         auto& _My_data = _Mypair._Myval2;

  0072b	0f b7 c0	 movzx	 eax, ax
  0072e	66 90		 npad	 2
$LL18@Update:

; 1549 :         return static_cast<size_type>(_My_data._Mylast - _My_data._Myfirst);

  00730	8b 8d 60 fa ff
	ff		 mov	 ecx, DWORD PTR _this$GSCopy$1$[ebp]
  00736	0f b7 f8	 movzx	 edi, ax
  00739	b8 93 24 49 92	 mov	 eax, -1840700269	; 92492493H
  0073e	8b 59 64	 mov	 ebx, DWORD PTR [ecx+100]
  00741	8b 49 68	 mov	 ecx, DWORD PTR [ecx+104]
  00744	2b cb		 sub	 ecx, ebx
  00746	f7 e9		 imul	 ecx
  00748	03 d1		 add	 edx, ecx
  0074a	c1 fa 04	 sar	 edx, 4
  0074d	8b ca		 mov	 ecx, edx
  0074f	c1 e9 1f	 shr	 ecx, 31			; 0000001fH
  00752	03 ca		 add	 ecx, edx
; File C:\Users\murat\Desktop\Siveps2-1-99-Project\source\client\Client\EterLib\GrpTextInstance.cpp

; 276  : 											if(m_hyperlinkVector.size() < j)

  00754	3b ce		 cmp	 ecx, esi
  00756	72 1f		 jb	 SHORT $LN904@Update
; File C:\Program Files (x86)\Microsoft Visual Studio\2019\Professional\VC\Tools\MSVC\14.29.30133\include\vector

; 1569 :         return _My_data._Myfirst[_Pos];

  00758	2b ce		 sub	 ecx, esi
; File C:\Users\murat\Desktop\Siveps2-1-99-Project\source\client\Client\EterLib\GrpTextInstance.cpp

; 274  : 										for (int j = 1; j <= no_hyperlink; j++)

  0075a	46		 inc	 esi
; File C:\Program Files (x86)\Microsoft Visual Studio\2019\Professional\VC\Tools\MSVC\14.29.30133\include\vector

; 1569 :         return _My_data._Myfirst[_Pos];

  0075b	8d 04 cd 00 00
	00 00		 lea	 eax, DWORD PTR [ecx*8]
  00762	2b c1		 sub	 eax, ecx
; File C:\Users\murat\Desktop\Siveps2-1-99-Project\source\client\Client\EterLib\GrpTextInstance.cpp

; 280  : 											tempLink.ex += charWidth;

  00764	66 01 7c 83 02	 add	 WORD PTR [ebx+eax*4+2], di

; 281  : 											tempLink.sx += charWidth;

  00769	66 01 3c 83	 add	 WORD PTR [ebx+eax*4], di
  0076d	8b c7		 mov	 eax, edi
  0076f	3b b5 54 fa ff
	ff		 cmp	 esi, DWORD PTR _no_hyperlink$1$[ebp]
  00775	7e b9		 jle	 SHORT $LL18@Update
$LN904@Update:

; 311  : 											hyperlinkBuffer = L"";
; 312  : 										}
; 313  : 									}
; 314  : 								}
; 315  : 								e += len;

  00777	8b bd 68 fa ff
	ff		 mov	 edi, DWORD PTR _dwColor$1$[ebp]
$LN213@Update:
  0077d	8b 9d 6c fa ff
	ff		 mov	 ebx, DWORD PTR tv4479[ebp]
$LN819@Update:
  00783	8b 8d 64 fa ff
	ff		 mov	 ecx, DWORD PTR _e$1$[ebp]
  00789	03 8d 28 fa ff
	ff		 add	 ecx, DWORD PTR _len$8[ebp]
  0078f	89 8d 64 fa ff
	ff		 mov	 DWORD PTR _e$1$[ebp], ecx
  00795	3b 8d 58 fa ff
	ff		 cmp	 ecx, DWORD PTR _nEnglishBase$1$[ebp]
  0079b	0f 8e df fb ff
	ff		 jle	 $LL13@Update
  007a1	8b 85 4c fa ff
	ff		 mov	 eax, DWORD PTR _i$1$[ebp]
$LN14@Update:

; 316  : 							}
; 317  : 
; 318  : 							int charWidth = __DrawCharacter(pFontTexture, dataCodePage, Arabic_ConvSymbol(wArabicText[i]), dwColor);

  007a7	8b 8d 44 fa ff
	ff		 mov	 ecx, DWORD PTR _dataCodePage$1$[ebp]
  007ad	0f b7 f1	 movzx	 esi, cx
  007b0	8b 8d 48 fa ff
	ff		 mov	 ecx, DWORD PTR _wArabicText$1$[ebp]
  007b6	57		 push	 edi
  007b7	0f b7 04 41	 movzx	 eax, WORD PTR [ecx+eax*2]
  007bb	50		 push	 eax
  007bc	e8 00 00 00 00	 call	 ?Arabic_ConvSymbol@@YA_W_W@Z ; Arabic_ConvSymbol
  007c1	8b bd 60 fa ff
	ff		 mov	 edi, DWORD PTR _this$GSCopy$1$[ebp]
  007c7	83 c4 04	 add	 esp, 4
  007ca	0f b7 c0	 movzx	 eax, ax
  007cd	8b cf		 mov	 ecx, edi
  007cf	50		 push	 eax
  007d0	56		 push	 esi
  007d1	ff b5 40 fa ff
	ff		 push	 DWORD PTR _pFontTexture$1$[ebp]
  007d7	e8 00 00 00 00	 call	 ?__DrawCharacter@CGraphicTextInstance@@IAEHPAVCGraphicFontTexture@@G_WK@Z ; CGraphicTextInstance::__DrawCharacter

; 319  : 							kHyperlink.ex += charWidth;

  007dc	0f b7 d8	 movzx	 ebx, ax

; 322  : 							for (int j = 1; j <= no_hyperlink; j++)

  007df	be 01 00 00 00	 mov	 esi, 1
  007e4	8b 85 6c fa ff
	ff		 mov	 eax, DWORD PTR tv4479[ebp]
  007ea	66 03 c3	 add	 ax, bx
  007ed	89 85 6c fa ff
	ff		 mov	 DWORD PTR tv4479[ebp], eax
  007f3	66 89 85 be fa
	ff ff		 mov	 WORD PTR _kHyperlink$12[ebp+2], ax
  007fa	39 b5 54 fa ff
	ff		 cmp	 DWORD PTR _no_hyperlink$1$[ebp], esi
  00800	7c 44		 jl	 SHORT $LN822@Update
$LL21@Update:
; File C:\Program Files (x86)\Microsoft Visual Studio\2019\Professional\VC\Tools\MSVC\14.29.30133\include\vector

; 1549 :         return static_cast<size_type>(_My_data._Mylast - _My_data._Myfirst);

  00802	8b 4f 68	 mov	 ecx, DWORD PTR [edi+104]
  00805	8d 47 64	 lea	 eax, DWORD PTR [edi+100]
  00808	8b 38		 mov	 edi, DWORD PTR [eax]
  0080a	2b cf		 sub	 ecx, edi
  0080c	b8 93 24 49 92	 mov	 eax, -1840700269	; 92492493H
  00811	f7 e9		 imul	 ecx
  00813	03 d1		 add	 edx, ecx
  00815	c1 fa 04	 sar	 edx, 4
  00818	8b ca		 mov	 ecx, edx
  0081a	c1 e9 1f	 shr	 ecx, 31			; 0000001fH
  0081d	03 ca		 add	 ecx, edx
; File C:\Users\murat\Desktop\Siveps2-1-99-Project\source\client\Client\EterLib\GrpTextInstance.cpp

; 324  : 								if(m_hyperlinkVector.size() < j)

  0081f	3b ce		 cmp	 ecx, esi
  00821	72 23		 jb	 SHORT $LN822@Update
; File C:\Program Files (x86)\Microsoft Visual Studio\2019\Professional\VC\Tools\MSVC\14.29.30133\include\vector

; 1569 :         return _My_data._Myfirst[_Pos];

  00823	2b ce		 sub	 ecx, esi
; File C:\Users\murat\Desktop\Siveps2-1-99-Project\source\client\Client\EterLib\GrpTextInstance.cpp

; 322  : 							for (int j = 1; j <= no_hyperlink; j++)

  00825	46		 inc	 esi
; File C:\Program Files (x86)\Microsoft Visual Studio\2019\Professional\VC\Tools\MSVC\14.29.30133\include\vector

; 1569 :         return _My_data._Myfirst[_Pos];

  00826	8d 04 cd 00 00
	00 00		 lea	 eax, DWORD PTR [ecx*8]
  0082d	2b c1		 sub	 eax, ecx
; File C:\Users\murat\Desktop\Siveps2-1-99-Project\source\client\Client\EterLib\GrpTextInstance.cpp

; 328  : 								tempLink.ex += charWidth;

  0082f	66 01 5c 87 02	 add	 WORD PTR [edi+eax*4+2], bx

; 329  : 								tempLink.sx += charWidth;

  00834	66 01 1c 87	 add	 WORD PTR [edi+eax*4], bx
  00838	8b bd 60 fa ff
	ff		 mov	 edi, DWORD PTR _this$GSCopy$1$[ebp]
  0083e	3b b5 54 fa ff
	ff		 cmp	 esi, DWORD PTR _no_hyperlink$1$[ebp]
  00844	7e bc		 jle	 SHORT $LL21@Update
$LN822@Update:

; 330  : 							}
; 331  : 
; 332  : 							isEnglish = false;
; 333  : 						}
; 334  : 					}

  00846	8b 9d 6c fa ff
	ff		 mov	 ebx, DWORD PTR tv4479[ebp]
  0084c	32 c9		 xor	 cl, cl
  0084e	89 8d 64 fa ff
	ff		 mov	 DWORD PTR tv4487[ebp], ecx
  00854	e9 ea 00 00 00	 jmp	 $LN923@Update
$LN48@Update:

; 335  : 					else //[[[ ]]]
; 336  : 					{
; 337  : 						//     
; 338  : 						if (Arabic_IsInPresentation(wArabicChar) || Arabic_IsInSymbol(wArabicChar))

  00859	e8 00 00 00 00	 call	 ?Arabic_IsInPresentation@@YA_N_W@Z ; Arabic_IsInPresentation
  0085e	83 c4 04	 add	 esp, 4
  00861	84 c0		 test	 al, al
  00863	75 29		 jne	 SHORT $LN74@Update
  00865	56		 push	 esi
  00866	e8 00 00 00 00	 call	 ?Arabic_IsInSymbol@@YA_N_W@Z ; Arabic_IsInSymbol
  0086b	83 c4 04	 add	 esp, 4
  0086e	84 c0		 test	 al, al
  00870	75 1c		 jne	 SHORT $LN74@Update

; 353  : 							}
; 354  : 						}
; 355  : 						else //,    ,
; 356  : 						{
; 357  : 							nEnglishBase = i;

  00872	8b 95 4c fa ff
	ff		 mov	 edx, DWORD PTR _i$1$[ebp]

; 358  : 							isEnglish = true;

  00878	b9 01 00 00 00	 mov	 ecx, 1
  0087d	89 95 58 fa ff
	ff		 mov	 DWORD PTR _nEnglishBase$1$[ebp], edx
  00883	89 8d 64 fa ff
	ff		 mov	 DWORD PTR tv4487[ebp], ecx
  00889	e9 bb 00 00 00	 jmp	 $LN10@Update
$LN74@Update:

; 339  : 						{
; 340  : 							int charWidth = __DrawCharacter(pFontTexture, dataCodePage, Arabic_ConvSymbol(wArabicText[i]), dwColor);

  0088e	8b 85 44 fa ff
	ff		 mov	 eax, DWORD PTR _dataCodePage$1$[ebp]
  00894	8b 8d 48 fa ff
	ff		 mov	 ecx, DWORD PTR _wArabicText$1$[ebp]
  0089a	0f b7 f0	 movzx	 esi, ax
  0089d	8b 85 4c fa ff
	ff		 mov	 eax, DWORD PTR _i$1$[ebp]
  008a3	57		 push	 edi
  008a4	0f b7 04 41	 movzx	 eax, WORD PTR [ecx+eax*2]
  008a8	50		 push	 eax
  008a9	e8 00 00 00 00	 call	 ?Arabic_ConvSymbol@@YA_W_W@Z ; Arabic_ConvSymbol
  008ae	8b 8d 60 fa ff
	ff		 mov	 ecx, DWORD PTR _this$GSCopy$1$[ebp]
  008b4	83 c4 04	 add	 esp, 4
  008b7	0f b7 c0	 movzx	 eax, ax
  008ba	50		 push	 eax
  008bb	56		 push	 esi
  008bc	ff b5 40 fa ff
	ff		 push	 DWORD PTR _pFontTexture$1$[ebp]
  008c2	e8 00 00 00 00	 call	 ?__DrawCharacter@CGraphicTextInstance@@IAEHPAVCGraphicFontTexture@@G_WK@Z ; CGraphicTextInstance::__DrawCharacter

; 341  : 							kHyperlink.ex += charWidth;

  008c7	66 03 d8	 add	 bx, ax

; 345  : 							for (int j = 1; j <= no_hyperlink; j++)

  008ca	be 01 00 00 00	 mov	 esi, 1
  008cf	89 9d 6c fa ff
	ff		 mov	 DWORD PTR tv4479[ebp], ebx
  008d5	66 89 9d be fa
	ff ff		 mov	 WORD PTR _kHyperlink$12[ebp+2], bx
  008dc	39 b5 54 fa ff
	ff		 cmp	 DWORD PTR _no_hyperlink$1$[ebp], esi
  008e2	7c 59		 jl	 SHORT $LN912@Update
; File C:\Program Files (x86)\Microsoft Visual Studio\2019\Professional\VC\Tools\MSVC\14.29.30133\include\vector

; 1548 :         auto& _My_data = _Mypair._Myval2;

  008e4	0f b7 c0	 movzx	 eax, ax
  008e7	66 0f 1f 84 00
	00 00 00 00	 npad	 9
$LL24@Update:

; 1549 :         return static_cast<size_type>(_My_data._Mylast - _My_data._Myfirst);

  008f0	8b 8d 60 fa ff
	ff		 mov	 ecx, DWORD PTR _this$GSCopy$1$[ebp]
  008f6	0f b7 f8	 movzx	 edi, ax
  008f9	b8 93 24 49 92	 mov	 eax, -1840700269	; 92492493H
  008fe	8b 59 64	 mov	 ebx, DWORD PTR [ecx+100]
  00901	8b 49 68	 mov	 ecx, DWORD PTR [ecx+104]
  00904	2b cb		 sub	 ecx, ebx
  00906	f7 e9		 imul	 ecx
  00908	03 d1		 add	 edx, ecx
  0090a	c1 fa 04	 sar	 edx, 4
  0090d	8b ca		 mov	 ecx, edx
  0090f	c1 e9 1f	 shr	 ecx, 31			; 0000001fH
  00912	03 ca		 add	 ecx, edx
; File C:\Users\murat\Desktop\Siveps2-1-99-Project\source\client\Client\EterLib\GrpTextInstance.cpp

; 347  : 								if(m_hyperlinkVector.size() < j)

  00914	3b ce		 cmp	 ecx, esi
  00916	72 1f		 jb	 SHORT $LN906@Update
; File C:\Program Files (x86)\Microsoft Visual Studio\2019\Professional\VC\Tools\MSVC\14.29.30133\include\vector

; 1569 :         return _My_data._Myfirst[_Pos];

  00918	2b ce		 sub	 ecx, esi
; File C:\Users\murat\Desktop\Siveps2-1-99-Project\source\client\Client\EterLib\GrpTextInstance.cpp

; 345  : 							for (int j = 1; j <= no_hyperlink; j++)

  0091a	46		 inc	 esi
; File C:\Program Files (x86)\Microsoft Visual Studio\2019\Professional\VC\Tools\MSVC\14.29.30133\include\vector

; 1569 :         return _My_data._Myfirst[_Pos];

  0091b	8d 04 cd 00 00
	00 00		 lea	 eax, DWORD PTR [ecx*8]
  00922	2b c1		 sub	 eax, ecx
; File C:\Users\murat\Desktop\Siveps2-1-99-Project\source\client\Client\EterLib\GrpTextInstance.cpp

; 351  : 								tempLink.ex += charWidth;

  00924	66 01 7c 83 02	 add	 WORD PTR [ebx+eax*4+2], di

; 352  : 								tempLink.sx += charWidth;

  00929	66 01 3c 83	 add	 WORD PTR [ebx+eax*4], di
  0092d	8b c7		 mov	 eax, edi
  0092f	3b b5 54 fa ff
	ff		 cmp	 esi, DWORD PTR _no_hyperlink$1$[ebp]
  00935	7e b9		 jle	 SHORT $LL24@Update
$LN906@Update:

; 228  : 					{
; 229  : 
; 230  : 						// <<  (ex. , )>> ->   .
; 231  : 						//		<<(   : , , )>>
; 232  : 						//  (1)    or
; 233  : 						//	(2)
; 234  : 						//		1)     &&
; 235  : 						//		2)     &&
; 236  : 						//		3)   '|'  &&
; 237  : 						//		or
; 238  : 						//	(3)   '|'
; 239  : 						// <<    : .>>
; 240  : 						//	1)  
; 241  : 						//	2)  
; 242  : 						//
; 243  : 						//
; 244  : 						if (Arabic_IsInSymbol(wArabicChar) && (

  00937	8b 9d 6c fa ff
	ff		 mov	 ebx, DWORD PTR tv4479[ebp]
$LN912@Update:

; 218  : 				{
; 219  : 					isEnglish = false;
; 220  : 				}
; 221  : 
; 222  : 				int i = 0;
; 223  : 				for (i = wArabicTextLen - 1 ; i >= 0; --i)

  0093d	8b 8d 64 fa ff
	ff		 mov	 ecx, DWORD PTR tv4487[ebp]
$LN923@Update:
  00943	8b 95 58 fa ff
	ff		 mov	 edx, DWORD PTR _nEnglishBase$1$[ebp]
$LN10@Update:
  00949	8b b5 4c fa ff
	ff		 mov	 esi, DWORD PTR _i$1$[ebp]
  0094f	8b bd 68 fa ff
	ff		 mov	 edi, DWORD PTR _dwColor$1$[ebp]
  00955	83 ee 01	 sub	 esi, 1
  00958	89 b5 4c fa ff
	ff		 mov	 DWORD PTR _i$1$[ebp], esi
  0095e	0f 89 4c f9 ff
	ff		 jns	 $LL12@Update
  00964	8b b5 50 fa ff
	ff		 mov	 esi, DWORD PTR __Old_capacity$1$[ebp]
$LN11@Update:

; 359  : 						}
; 360  : 					}
; 361  : 				}
; 362  : 
; 363  : 				if (isEnglish)

  0096a	84 c9		 test	 cl, cl
  0096c	0f 84 55 04 00
	00		 je	 $LN899@Update

; 364  : 				{
; 365  : 					for (int e = i + 1; e <= nEnglishBase;) {

  00972	8b 8d 4c fa ff
	ff		 mov	 ecx, DWORD PTR _i$1$[ebp]
  00978	41		 inc	 ecx
  00979	89 8d 64 fa ff
	ff		 mov	 DWORD PTR _e$1$[ebp], ecx
  0097f	3b ca		 cmp	 ecx, edx
  00981	0f 8f 40 04 00
	00		 jg	 $LN899@Update
  00987	66 0f 1f 84 00
	00 00 00 00	 npad	 9
$LL25@Update:

; 366  : 						int ret = GetTextTag(&wArabicText[e], wArabicTextLen - e, len, hyperlinkBuffer);

  00990	8b 85 48 fa ff
	ff		 mov	 eax, DWORD PTR _wArabicText$1$[ebp]
  00996	8d 34 48	 lea	 esi, DWORD PTR [eax+ecx*2]
  00999	8d 85 d8 fa ff
	ff		 lea	 eax, DWORD PTR _hyperlinkBuffer$13[ebp]
  0099f	50		 push	 eax
  009a0	8d 85 28 fa ff
	ff		 lea	 eax, DWORD PTR _len$8[ebp]
  009a6	50		 push	 eax
  009a7	8b 85 38 fa ff
	ff		 mov	 eax, DWORD PTR _wArabicTextLen$1$[ebp]
  009ad	2b c1		 sub	 eax, ecx
  009af	50		 push	 eax
  009b0	56		 push	 esi
  009b1	e8 00 00 00 00	 call	 ?GetTextTag@@YAHPB_WHAAHAAV?$basic_string@_WU?$char_traits@_W@std@@V?$allocator@_W@2@@std@@@Z ; GetTextTag
  009b6	83 c4 10	 add	 esp, 16			; 00000010H

; 367  : 
; 368  : 						if (ret == TEXT_TAG_PLAIN || ret == TEXT_TAG_TAG)

  009b9	85 c0		 test	 eax, eax
  009bb	0f 84 df 02 00
	00		 je	 $LN79@Update
  009c1	83 f8 01	 cmp	 eax, 1
  009c4	0f 84 d6 02 00
	00		 je	 $LN79@Update

; 386  : 								}
; 387  : 							}
; 388  : 						}
; 389  : 						else
; 390  : 						{
; 391  : 							if (ret == TEXT_TAG_COLOR)

  009ca	83 f8 02	 cmp	 eax, 2
  009cd	0f 85 8f 00 00
	00		 jne	 $LN83@Update
; File C:\Program Files (x86)\Microsoft Visual Studio\2019\Professional\VC\Tools\MSVC\14.29.30133\include\xstring

; 2306 :         if (_Large_string_engaged()) {

  009d3	83 bd ec fa ff
	ff 08		 cmp	 DWORD PTR _hyperlinkBuffer$13[ebp+20], 8
  009da	8d bd d8 fa ff
	ff		 lea	 edi, DWORD PTR _hyperlinkBuffer$13[ebp]
; File C:\Users\murat\Desktop\Siveps2-1-99-Project\source\client\Client\EterBase\Utils.h

; 149  :     int x = 0, y = 1;

  009e0	8d 70 ff	 lea	 esi, DWORD PTR [eax-1]
; File C:\Program Files (x86)\Microsoft Visual Studio\2019\Professional\VC\Tools\MSVC\14.29.30133\include\xstring

; 2306 :         if (_Large_string_engaged()) {

  009e3	0f 43 bd d8 fa
	ff ff		 cmovae	 edi, DWORD PTR _hyperlinkBuffer$13[ebp]
; File C:\Users\murat\Desktop\Siveps2-1-99-Project\source\client\Client\EterBase\Utils.h

; 149  :     int x = 0, y = 1;

  009ea	33 db		 xor	 ebx, ebx
  009ec	89 9d 68 fa ff
	ff		 mov	 DWORD PTR _dwColor$1$[ebp], ebx

; 152  :     while (t <= --s)

  009f2	8d 57 0e	 lea	 edx, DWORD PTR [edi+14]
  009f5	3b fa		 cmp	 edi, edx
  009f7	77 62		 ja	 SHORT $LN915@Update
  009f9	0f 1f 80 00 00
	00 00		 npad	 7
$LL354@Update:

; 153  :     {
; 154  : 		if (L'0' <= *s && *s <= L'9')

  00a00	0f b7 0a	 movzx	 ecx, WORD PTR [edx]
  00a03	8d 41 d0	 lea	 eax, DWORD PTR [ecx-48]
  00a06	66 83 f8 09	 cmp	 ax, 9
  00a0a	77 05		 ja	 SHORT $LN356@Update

; 155  :             x += y * (*s - L'0');

  00a0c	8d 41 d0	 lea	 eax, DWORD PTR [ecx-48]
  00a0f	eb 1a		 jmp	 SHORT $LN361@Update
$LN356@Update:

; 156  :         else if (L'a' <= *s && *s <= L'f')

  00a11	8d 41 9f	 lea	 eax, DWORD PTR [ecx-97]
  00a14	66 83 f8 05	 cmp	 ax, 5
  00a18	77 05		 ja	 SHORT $LN358@Update

; 157  :             x += y * (*s - L'a' + 10);

  00a1a	8d 41 a9	 lea	 eax, DWORD PTR [ecx-87]
  00a1d	eb 0c		 jmp	 SHORT $LN361@Update
$LN358@Update:

; 158  :         else if (L'A' <= *s && *s <= L'F')

  00a1f	8d 41 bf	 lea	 eax, DWORD PTR [ecx-65]
  00a22	66 83 f8 05	 cmp	 ax, 5
  00a26	77 25		 ja	 SHORT $LN360@Update

; 159  :             x += y * (10 + *s - L'A');

  00a28	8d 41 c9	 lea	 eax, DWORD PTR [ecx-55]
$LN361@Update:

; 162  :         y <<= 4;

  00a2b	0f af c6	 imul	 eax, esi
  00a2e	83 ea 02	 sub	 edx, 2
  00a31	c1 e6 04	 shl	 esi, 4
  00a34	03 d8		 add	 ebx, eax
  00a36	89 9d 68 fa ff
	ff		 mov	 DWORD PTR _dwColor$1$[ebp], ebx
  00a3c	3b fa		 cmp	 edi, edx
  00a3e	76 c0		 jbe	 SHORT $LL354@Update
; File C:\Program Files (x86)\Microsoft Visual Studio\2019\Professional\VC\Tools\MSVC\14.29.30133\include\xmemory

; 64   :         if (_Count > _Max_possible) {

  00a40	8b fb		 mov	 edi, ebx
  00a42	89 bd 68 fa ff
	ff		 mov	 DWORD PTR _dwColor$1$[ebp], edi
  00a48	e9 50 03 00 00	 jmp	 $LN353@Update
$LN360@Update:
; File C:\Users\murat\Desktop\Siveps2-1-99-Project\source\client\Client\EterBase\Utils.h

; 161  :             return -1; /* invalid input! */

  00a4d	83 cf ff	 or	 edi, -1
  00a50	89 bd 68 fa ff
	ff		 mov	 DWORD PTR _dwColor$1$[ebp], edi
  00a56	e9 42 03 00 00	 jmp	 $LN353@Update
$LN915@Update:

; 152  :     while (t <= --s)

  00a5b	33 ff		 xor	 edi, edi
; File C:\Users\murat\Desktop\Siveps2-1-99-Project\source\client\Client\EterLib\GrpTextInstance.cpp

; 392  : 								dwColor = htoi(hyperlinkBuffer.c_str(), 8);

  00a5d	e9 3b 03 00 00	 jmp	 $LN353@Update
$LN83@Update:

; 393  : 							else if (ret == TEXT_TAG_RESTORE_COLOR)

  00a62	83 f8 05	 cmp	 eax, 5
  00a65	75 14		 jne	 SHORT $LN85@Update

; 394  : 								dwColor = m_dwTextColor;

  00a67	8b 85 60 fa ff
	ff		 mov	 eax, DWORD PTR _this$GSCopy$1$[ebp]
  00a6d	8b 78 04	 mov	 edi, DWORD PTR [eax+4]
  00a70	89 bd 68 fa ff
	ff		 mov	 DWORD PTR _dwColor$1$[ebp], edi
  00a76	e9 28 03 00 00	 jmp	 $LN898@Update
$LN85@Update:

; 395  : 							else if (ret == TEXT_TAG_HYPERLINK_START)

  00a7b	83 f8 03	 cmp	 eax, 3
  00a7e	75 21		 jne	 SHORT $LN87@Update
; File C:\Program Files (x86)\Microsoft Visual Studio\2019\Professional\VC\Tools\MSVC\14.29.30133\include\xstring

; 3264 :         return assign(_Ptr, _Convert_size<size_type>(_Traits::length(_Ptr)));

  00a80	6a 00		 push	 0
  00a82	68 00 00 00 00	 push	 OFFSET ??_C@_11LOCGONAA@@
  00a87	8d 8d d8 fa ff
	ff		 lea	 ecx, DWORD PTR _hyperlinkBuffer$13[ebp]
; File C:\Users\murat\Desktop\Siveps2-1-99-Project\source\client\Client\EterLib\GrpTextInstance.cpp

; 397  : 								hyperlinkStep = 1;

  00a8d	c7 85 5c fa ff
	ff 01 00 00 00	 mov	 DWORD PTR _hyperlinkStep$1$[ebp], 1
; File C:\Program Files (x86)\Microsoft Visual Studio\2019\Professional\VC\Tools\MSVC\14.29.30133\include\xstring

; 3264 :         return assign(_Ptr, _Convert_size<size_type>(_Traits::length(_Ptr)));

  00a97	e8 00 00 00 00	 call	 ?assign@?$basic_string@_WU?$char_traits@_W@std@@V?$allocator@_W@2@@std@@QAEAAV12@QB_WI@Z ; std::basic_string<wchar_t,std::char_traits<wchar_t>,std::allocator<wchar_t> >::assign
; File C:\Users\murat\Desktop\Siveps2-1-99-Project\source\client\Client\EterLib\GrpTextInstance.cpp

; 399  : 							}

  00a9c	e9 02 03 00 00	 jmp	 $LN898@Update
$LN87@Update:

; 400  : 							else if (ret == TEXT_TAG_HYPERLINK_END)

  00aa1	83 f8 04	 cmp	 eax, 4
  00aa4	0f 85 f9 02 00
	00		 jne	 $LN898@Update

; 401  : 							{
; 402  : 								if (hyperlinkStep == 1)

  00aaa	83 bd 5c fa ff
	ff 01		 cmp	 DWORD PTR _hyperlinkStep$1$[ebp], 1
  00ab1	75 1f		 jne	 SHORT $LN90@Update

; 403  : 								{
; 404  : 									++hyperlinkStep;
; 405  : 									kHyperlink.ex = kHyperlink.sx = 0; //    

  00ab3	33 c0		 xor	 eax, eax
  00ab5	c7 85 5c fa ff
	ff 02 00 00 00	 mov	 DWORD PTR _hyperlinkStep$1$[ebp], 2
  00abf	33 db		 xor	 ebx, ebx
  00ac1	89 85 bc fa ff
	ff		 mov	 DWORD PTR _kHyperlink$12[ebp], eax
  00ac7	89 9d 6c fa ff
	ff		 mov	 DWORD PTR tv4479[ebp], ebx

; 406  : 								}

  00acd	e9 d1 02 00 00	 jmp	 $LN898@Update
$LN90@Update:
; File C:\Program Files (x86)\Microsoft Visual Studio\2019\Professional\VC\Tools\MSVC\14.29.30133\include\xstring

; 2306 :         if (_Large_string_engaged()) {

  00ad2	83 bd ec fa ff
	ff 08		 cmp	 DWORD PTR _hyperlinkBuffer$13[ebp+20], 8
  00ad9	8d 85 d8 fa ff
	ff		 lea	 eax, DWORD PTR _hyperlinkBuffer$13[ebp]

; 3035 :         assign(_Right._Mypair._Myval2._Myptr(), _Right._Mypair._Myval2._Mysize);

  00adf	8b 9d e8 fa ff
	ff		 mov	 ebx, DWORD PTR _hyperlinkBuffer$13[ebp+16]

; 2306 :         if (_Large_string_engaged()) {

  00ae5	0f 43 85 d8 fa
	ff ff		 cmovae	 eax, DWORD PTR _hyperlinkBuffer$13[ebp]

; 3035 :         assign(_Right._Mypair._Myval2._Myptr(), _Right._Mypair._Myval2._Mysize);

  00aec	8b 95 50 fa ff
	ff		 mov	 edx, DWORD PTR __Old_capacity$1$[ebp]

; 2306 :         if (_Large_string_engaged()) {

  00af2	89 85 5c fa ff
	ff		 mov	 DWORD PTR __Result$2$[ebp], eax

; 3035 :         assign(_Right._Mypair._Myval2._Myptr(), _Right._Mypair._Myval2._Mysize);

  00af8	3b da		 cmp	 ebx, edx

; 3246 :         if (_Count <= _Mypair._Myval2._Myres) {

  00afa	77 2f		 ja	 SHORT $LN380@Update

; 2297 :         if (_Large_string_engaged()) {

  00afc	83 fa 08	 cmp	 edx, 8

; 3248 :             _Mypair._Myval2._Mysize = _Count;

  00aff	89 9d d0 fa ff
	ff		 mov	 DWORD PTR _kHyperlink$12[ebp+20], ebx

; 122  :         _CSTD memmove(_First1, _First2, _Count * sizeof(_Elem));

  00b05	8d 34 1b	 lea	 esi, DWORD PTR [ebx+ebx]
  00b08	56		 push	 esi

; 2296 :         value_type* _Result = _Bx._Buf;

  00b09	8d bd c0 fa ff
	ff		 lea	 edi, DWORD PTR _kHyperlink$12[ebp+4]

; 2297 :         if (_Large_string_engaged()) {

  00b0f	0f 43 bd c0 fa
	ff ff		 cmovae	 edi, DWORD PTR _kHyperlink$12[ebp+4]

; 122  :         _CSTD memmove(_First1, _First2, _Count * sizeof(_Elem));

  00b16	50		 push	 eax
  00b17	57		 push	 edi
  00b18	e8 00 00 00 00	 call	 _memmove
  00b1d	83 c4 0c	 add	 esp, 12			; 0000000cH

; 3250 :             _Traits::assign(_Old_ptr[_Count], _Elem());

  00b20	33 c0		 xor	 eax, eax
  00b22	66 89 04 37	 mov	 WORD PTR [edi+esi], ax

; 3251 :             return *this;

  00b26	e9 00 01 00 00	 jmp	 $LN392@Update
$LN380@Update:

; 4508 :         if (_New_size > max_size()) {

  00b2b	81 fb fe ff ff
	7f		 cmp	 ebx, 2147483646		; 7ffffffeH
  00b31	0f 87 86 0b 00
	00		 ja	 $LN825@Update

; 4509 :             _Xlen_string(); // result too long
; 4510 :         }
; 4511 : 
; 4512 :         const size_type _Old_capacity = _Mypair._Myval2._Myres;

  00b37	8b f3		 mov	 esi, ebx
  00b39	83 ce 07	 or	 esi, 7

; 4488 :         const size_type _Masked = _Requested | _ALLOC_MASK;

  00b3c	81 fe fe ff ff
	7f		 cmp	 esi, 2147483646		; 7ffffffeH

; 4489 :         if (_Masked > _Max) { // the mask overflows, settle for max_size()

  00b42	76 17		 jbe	 SHORT $LN397@Update

; 4490 :             return _Max;

  00b44	b8 fe ff ff ff	 mov	 eax, -2			; fffffffeH
  00b49	be fe ff ff 7f	 mov	 esi, 2147483646		; 7ffffffeH
; File C:\Program Files (x86)\Microsoft Visual Studio\2019\Professional\VC\Tools\MSVC\14.29.30133\include\xmemory

; 238  :             return _Allocate_manually_vector_aligned<_Traits>(_Bytes);

  00b4e	50		 push	 eax
  00b4f	e8 00 00 00 00	 call	 ??$_Allocate_manually_vector_aligned@U_Default_allocate_traits@std@@@std@@YAPAXI@Z ; std::_Allocate_manually_vector_aligned<std::_Default_allocate_traits>
  00b54	83 c4 04	 add	 esp, 4
  00b57	8b f8		 mov	 edi, eax
  00b59	eb 65		 jmp	 SHORT $LN408@Update
$LN397@Update:
; File C:\Program Files (x86)\Microsoft Visual Studio\2019\Professional\VC\Tools\MSVC\14.29.30133\include\xstring

; 4493 :         if (_Old > _Max - _Old / 2) { // similarly, geometric overflows

  00b5b	8b ca		 mov	 ecx, edx
  00b5d	b8 fe ff ff 7f	 mov	 eax, 2147483646		; 7ffffffeH
  00b62	d1 e9		 shr	 ecx, 1
  00b64	2b c1		 sub	 eax, ecx
  00b66	3b d0		 cmp	 edx, eax
  00b68	76 17		 jbe	 SHORT $LN398@Update

; 4494 :             return _Max;

  00b6a	b8 fe ff ff ff	 mov	 eax, -2			; fffffffeH
  00b6f	be fe ff ff 7f	 mov	 esi, 2147483646		; 7ffffffeH
; File C:\Program Files (x86)\Microsoft Visual Studio\2019\Professional\VC\Tools\MSVC\14.29.30133\include\xmemory

; 238  :             return _Allocate_manually_vector_aligned<_Traits>(_Bytes);

  00b74	50		 push	 eax
  00b75	e8 00 00 00 00	 call	 ??$_Allocate_manually_vector_aligned@U_Default_allocate_traits@std@@@std@@YAPAXI@Z ; std::_Allocate_manually_vector_aligned<std::_Default_allocate_traits>
  00b7a	83 c4 04	 add	 esp, 4
  00b7d	8b f8		 mov	 edi, eax
  00b7f	eb 3f		 jmp	 SHORT $LN408@Update
$LN398@Update:
; File C:\Program Files (x86)\Microsoft Visual Studio\2019\Professional\VC\Tools\MSVC\14.29.30133\include\xstring

; 4497 :         return (_STD max)(_Masked, _Old + _Old / 2);

  00b81	8d 04 0a	 lea	 eax, DWORD PTR [edx+ecx]
  00b84	3b f0		 cmp	 esi, eax
  00b86	0f 42 f0	 cmovb	 esi, eax

; 4515 :         const pointer _New_ptr        = _Al.allocate(_New_capacity + 1); // throws

  00b89	8d 46 01	 lea	 eax, DWORD PTR [esi+1]
; File C:\Program Files (x86)\Microsoft Visual Studio\2019\Professional\VC\Tools\MSVC\14.29.30133\include\xmemory

; 64   :         if (_Count > _Max_possible) {

  00b8c	3d ff ff ff 7f	 cmp	 eax, 2147483647		; 7fffffffH
  00b91	0f 87 21 0b 00
	00		 ja	 $LN826@Update

; 65   :             _Throw_bad_array_new_length(); // multiply overflow
; 66   :         }
; 67   :     }
; 68   : 
; 69   :     return _Count * _Ty_size;

  00b97	03 c0		 add	 eax, eax

; 237  :         if (_Bytes >= _Big_allocation_threshold) { // boost the alignment of big allocations to help autovectorization

  00b99	3d 00 10 00 00	 cmp	 eax, 4096		; 00001000H
  00b9e	72 0d		 jb	 SHORT $LN409@Update

; 238  :             return _Allocate_manually_vector_aligned<_Traits>(_Bytes);

  00ba0	50		 push	 eax
  00ba1	e8 00 00 00 00	 call	 ??$_Allocate_manually_vector_aligned@U_Default_allocate_traits@std@@@std@@YAPAXI@Z ; std::_Allocate_manually_vector_aligned<std::_Default_allocate_traits>
  00ba6	83 c4 04	 add	 esp, 4
  00ba9	8b f8		 mov	 edi, eax
  00bab	eb 13		 jmp	 SHORT $LN408@Update
$LN409@Update:

; 239  :         }
; 240  :     }
; 241  : #endif // defined(_M_IX86) || defined(_M_X64)
; 242  : 
; 243  :     if (_Bytes != 0) {

  00bad	85 c0		 test	 eax, eax
  00baf	74 0d		 je	 SHORT $LN410@Update

; 85   :         return ::operator new(_Bytes);

  00bb1	50		 push	 eax
  00bb2	e8 00 00 00 00	 call	 ??2@YAPAXI@Z		; operator new
  00bb7	83 c4 04	 add	 esp, 4

; 244  :         return _Traits::_Allocate(_Bytes);

  00bba	8b f8		 mov	 edi, eax
  00bbc	eb 02		 jmp	 SHORT $LN408@Update
$LN410@Update:

; 245  :     }
; 246  : 
; 247  :     return nullptr;

  00bbe	33 ff		 xor	 edi, edi
$LN408@Update:
; File C:\Program Files (x86)\Microsoft Visual Studio\2019\Professional\VC\Tools\MSVC\14.29.30133\include\xstring

; 4524 :         _Mypair._Myval2._Myres  = _New_capacity;

  00bc0	89 b5 d4 fa ff
	ff		 mov	 DWORD PTR _kHyperlink$12[ebp+24], esi

; 65   :         _CSTD memcpy(_First1, _First2, _Count * sizeof(_Elem));

  00bc6	8d 34 1b	 lea	 esi, DWORD PTR [ebx+ebx]
  00bc9	56		 push	 esi
  00bca	ff b5 5c fa ff
	ff		 push	 DWORD PTR __Result$2$[ebp]

; 4523 :         _Mypair._Myval2._Mysize = _New_size;

  00bd0	89 9d d0 fa ff
	ff		 mov	 DWORD PTR _kHyperlink$12[ebp+20], ebx

; 65   :         _CSTD memcpy(_First1, _First2, _Count * sizeof(_Elem));

  00bd6	57		 push	 edi
  00bd7	e8 00 00 00 00	 call	 _memcpy

; 3258 :                 _Traits::assign(_New_ptr[_Count], _Elem());

  00bdc	33 c0		 xor	 eax, eax

; 65   :         _CSTD memcpy(_First1, _First2, _Count * sizeof(_Elem));

  00bde	83 c4 0c	 add	 esp, 12			; 0000000cH

; 3258 :                 _Traits::assign(_New_ptr[_Count], _Elem());

  00be1	66 89 04 37	 mov	 WORD PTR [edi+esi], ax

; 4526 :         if (_BUF_SIZE <= _Old_capacity) {

  00be5	8b 85 50 fa ff
	ff		 mov	 eax, DWORD PTR __Old_capacity$1$[ebp]
  00beb	83 f8 08	 cmp	 eax, 8
  00bee	72 35		 jb	 SHORT $LN391@Update
; File C:\Program Files (x86)\Microsoft Visual Studio\2019\Professional\VC\Tools\MSVC\14.29.30133\include\xmemory

; 835  :         _Deallocate<_New_alignof<_Ty>>(_Ptr, sizeof(_Ty) * _Count);

  00bf0	8b 8d c0 fa ff
	ff		 mov	 ecx, DWORD PTR _kHyperlink$12[ebp+4]
  00bf6	8d 14 45 02 00
	00 00		 lea	 edx, DWORD PTR [eax*2+2]
  00bfd	8b c1		 mov	 eax, ecx

; 260  :         if (_Bytes >= _Big_allocation_threshold) { // boost the alignment of big allocations to help autovectorization

  00bff	81 fa 00 10 00
	00		 cmp	 edx, 4096		; 00001000H
  00c05	72 14		 jb	 SHORT $LN433@Update

; 158  :     const uintptr_t _Ptr_container   = _Ptr_user[-1];

  00c07	8b 49 fc	 mov	 ecx, DWORD PTR [ecx-4]
  00c0a	83 c2 23	 add	 edx, 35			; 00000023H
  00c0d	2b c1		 sub	 eax, ecx

; 159  : 
; 160  :     // If the following asserts, it likely means that we are performing
; 161  :     // an aligned delete on memory coming from an unaligned allocation.
; 162  :     _STL_ASSERT(_Ptr_user[-2] == _Big_allocation_sentinel, "invalid argument");
; 163  : 
; 164  :     // Extra paranoia on aligned allocation/deallocation; ensure _Ptr_container is
; 165  :     // in range [_Min_back_shift, _Non_user_size]
; 166  : #ifdef _DEBUG
; 167  :     constexpr uintptr_t _Min_back_shift = 2 * sizeof(void*);
; 168  : #else // ^^^ _DEBUG ^^^ // vvv !_DEBUG vvv
; 169  :     constexpr uintptr_t _Min_back_shift = sizeof(void*);
; 170  : #endif // _DEBUG
; 171  :     const uintptr_t _Back_shift = reinterpret_cast<uintptr_t>(_Ptr) - _Ptr_container;
; 172  :     _STL_VERIFY(_Back_shift >= _Min_back_shift && _Back_shift <= _Non_user_size, "invalid argument");

  00c0f	83 c0 fc	 add	 eax, -4			; fffffffcH
  00c12	83 f8 1f	 cmp	 eax, 31			; 0000001fH
  00c15	0f 87 a7 0a 00
	00		 ja	 $LN501@Update
$LN433@Update:

; 264  :         ::operator delete(_Ptr, _Bytes);

  00c1b	52		 push	 edx
  00c1c	51		 push	 ecx
  00c1d	e8 00 00 00 00	 call	 ??3@YAXPAXI@Z		; operator delete
  00c22	83 c4 08	 add	 esp, 8
$LN391@Update:
; File C:\Program Files (x86)\Microsoft Visual Studio\2019\Professional\VC\Tools\MSVC\14.29.30133\include\vector

; 743  :         if (_Mylast != _My_data._Myend) {

  00c25	89 bd c0 fa ff
	ff		 mov	 DWORD PTR _kHyperlink$12[ebp+4], edi
$LN392@Update:
  00c2b	8b 9d 60 fa ff
	ff		 mov	 ebx, DWORD PTR _this$GSCopy$1$[ebp]
  00c31	8d 8d bc fa ff
	ff		 lea	 ecx, DWORD PTR _kHyperlink$12[ebp]
  00c37	83 c3 64	 add	 ebx, 100		; 00000064H
  00c3a	51		 push	 ecx
  00c3b	8b 43 04	 mov	 eax, DWORD PTR [ebx+4]
  00c3e	50		 push	 eax
  00c3f	3b 43 08	 cmp	 eax, DWORD PTR [ebx+8]
  00c42	74 0f		 je	 SHORT $LN442@Update

; 726  :         _Alty_traits::construct(_Getal(), _Unfancy(_Mylast), _STD forward<_Valty>(_Val)...);

  00c44	53		 push	 ebx
  00c45	e8 00 00 00 00	 call	 ??$construct@USHyperlink@CGraphicTextInstance@@ABU12@@?$_Default_allocator_traits@V?$allocator@USHyperlink@CGraphicTextInstance@@@std@@@std@@SAXAAV?$allocator@USHyperlink@CGraphicTextInstance@@@1@QAUSHyperlink@CGraphicTextInstance@@ABU34@@Z ; std::_Default_allocator_traits<std::allocator<CGraphicTextInstance::SHyperlink> >::construct<CGraphicTextInstance::SHyperlink,CGraphicTextInstance::SHyperlink const &>
  00c4a	83 c4 0c	 add	 esp, 12			; 0000000cH

; 727  :         _Orphan_range(_Mylast, _Mylast);
; 728  :         _Ty& _Result = *_Mylast;
; 729  :         ++_Mylast;

  00c4d	83 43 04 1c	 add	 DWORD PTR [ebx+4], 28	; 0000001cH

; 744  :             return _Emplace_back_with_unused_capacity(_STD forward<_Valty>(_Val)...);

  00c51	eb 07		 jmp	 SHORT $LN441@Update
$LN442@Update:

; 745  :         }
; 746  : 
; 747  :         _Ty& _Result = *_Emplace_reallocate(_Mylast, _STD forward<_Valty>(_Val)...);

  00c53	8b cb		 mov	 ecx, ebx
  00c55	e8 00 00 00 00	 call	 ??$_Emplace_reallocate@ABUSHyperlink@CGraphicTextInstance@@@?$vector@USHyperlink@CGraphicTextInstance@@V?$allocator@USHyperlink@CGraphicTextInstance@@@std@@@std@@QAEPAUSHyperlink@CGraphicTextInstance@@QAU23@ABU23@@Z ; std::vector<CGraphicTextInstance::SHyperlink,std::allocator<CGraphicTextInstance::SHyperlink> >::_Emplace_reallocate<CGraphicTextInstance::SHyperlink const &>
$LN441@Update:
; File C:\Users\murat\Desktop\Siveps2-1-99-Project\source\client\Client\EterLib\GrpTextInstance.cpp

; 411  : 									no_hyperlink++;

  00c5a	ff 85 54 fa ff
	ff		 inc	 DWORD PTR _no_hyperlink$1$[ebp]
; File C:\Program Files (x86)\Microsoft Visual Studio\2019\Professional\VC\Tools\MSVC\14.29.30133\include\xstring

; 3264 :         return assign(_Ptr, _Convert_size<size_type>(_Traits::length(_Ptr)));

  00c60	8d 8d d8 fa ff
	ff		 lea	 ecx, DWORD PTR _hyperlinkBuffer$13[ebp]
  00c66	6a 00		 push	 0
  00c68	68 00 00 00 00	 push	 OFFSET ??_C@_11LOCGONAA@@
; File C:\Users\murat\Desktop\Siveps2-1-99-Project\source\client\Client\EterLib\GrpTextInstance.cpp

; 413  : 									hyperlinkStep = 0;

  00c6d	c7 85 5c fa ff
	ff 00 00 00 00	 mov	 DWORD PTR _hyperlinkStep$1$[ebp], 0
; File C:\Program Files (x86)\Microsoft Visual Studio\2019\Professional\VC\Tools\MSVC\14.29.30133\include\xstring

; 3264 :         return assign(_Ptr, _Convert_size<size_type>(_Traits::length(_Ptr)));

  00c77	e8 00 00 00 00	 call	 ?assign@?$basic_string@_WU?$char_traits@_W@std@@V?$allocator@_W@2@@std@@QAEAAV12@QB_WI@Z ; std::basic_string<wchar_t,std::char_traits<wchar_t>,std::allocator<wchar_t> >::assign
  00c7c	66 8b 9d be fa
	ff ff		 mov	 bx, WORD PTR _kHyperlink$12[ebp+2]
  00c83	8b 85 d4 fa ff
	ff		 mov	 eax, DWORD PTR _kHyperlink$12[ebp+24]
  00c89	8b bd 68 fa ff
	ff		 mov	 edi, DWORD PTR _dwColor$1$[ebp]
  00c8f	89 85 50 fa ff
	ff		 mov	 DWORD PTR __Old_capacity$1$[ebp], eax
  00c95	89 9d 6c fa ff
	ff		 mov	 DWORD PTR tv4479[ebp], ebx
  00c9b	e9 03 01 00 00	 jmp	 $LN898@Update
$LN79@Update:
; File C:\Users\murat\Desktop\Siveps2-1-99-Project\source\client\Client\EterLib\GrpTextInstance.cpp

; 370  : 							if (hyperlinkStep == 1)

  00ca0	83 bd 5c fa ff
	ff 01		 cmp	 DWORD PTR _hyperlinkStep$1$[ebp], 1
  00ca7	0f b7 0e	 movzx	 ecx, WORD PTR [esi]
  00caa	75 62		 jne	 SHORT $LN80@Update
; File C:\Program Files (x86)\Microsoft Visual Studio\2019\Professional\VC\Tools\MSVC\14.29.30133\include\xstring

; 3180 :         const size_type _Old_size = _Mypair._Myval2._Mysize;

  00cac	8b b5 ec fa ff
	ff		 mov	 esi, DWORD PTR _hyperlinkBuffer$13[ebp+20]
; File C:\Users\murat\Desktop\Siveps2-1-99-Project\source\client\Client\EterLib\GrpTextInstance.cpp

; 371  : 								hyperlinkBuffer.append(1, wArabicText[e]);

  00cb2	8b d1		 mov	 edx, ecx
; File C:\Program Files (x86)\Microsoft Visual Studio\2019\Professional\VC\Tools\MSVC\14.29.30133\include\xstring

; 3180 :         const size_type _Old_size = _Mypair._Myval2._Mysize;

  00cb4	8b 8d e8 fa ff
	ff		 mov	 ecx, DWORD PTR _hyperlinkBuffer$13[ebp+16]
  00cba	8b c6		 mov	 eax, esi
  00cbc	2b c1		 sub	 eax, ecx

; 3181 :         if (_Count <= _Mypair._Myval2._Myres - _Old_size) {

  00cbe	83 f8 01	 cmp	 eax, 1
  00cc1	72 29		 jb	 SHORT $LN326@Update

; 3182 :             _Mypair._Myval2._Mysize = _Old_size + _Count;

  00cc3	8d 41 01	 lea	 eax, DWORD PTR [ecx+1]

; 2297 :         if (_Large_string_engaged()) {

  00cc6	83 fe 08	 cmp	 esi, 8

; 3182 :             _Mypair._Myval2._Mysize = _Old_size + _Count;

  00cc9	89 85 e8 fa ff
	ff		 mov	 DWORD PTR _hyperlinkBuffer$13[ebp+16], eax

; 2296 :         value_type* _Result = _Bx._Buf;

  00ccf	8d 85 d8 fa ff
	ff		 lea	 eax, DWORD PTR _hyperlinkBuffer$13[ebp]

; 2297 :         if (_Large_string_engaged()) {

  00cd5	0f 43 85 d8 fa
	ff ff		 cmovae	 eax, DWORD PTR _hyperlinkBuffer$13[ebp]
; File C:\Program Files (x86)\Windows Kits\10\Include\10.0.19041.0\ucrt\wchar.h

; 261  :             *_Su = _C;

  00cdc	66 89 14 48	 mov	 WORD PTR [eax+ecx*2], dx
; File C:\Program Files (x86)\Microsoft Visual Studio\2019\Professional\VC\Tools\MSVC\14.29.30133\include\xstring

; 3185 :             _Traits::assign(_Old_ptr[_Old_size + _Count], _Elem());

  00ce0	33 d2		 xor	 edx, edx
  00ce2	66 89 54 48 02	 mov	 WORD PTR [eax+ecx*2+2], dx

; 3186 :             return *this;

  00ce7	e9 b7 00 00 00	 jmp	 $LN898@Update
$LN326@Update:

; 3187 :         }
; 3188 : 
; 3189 :         return _Reallocate_grow_by(

  00cec	52		 push	 edx
  00ced	6a 01		 push	 1
  00cef	c6 85 18 fa ff
	ff 00		 mov	 BYTE PTR $T5[ebp], 0
  00cf6	8d 8d d8 fa ff
	ff		 lea	 ecx, DWORD PTR _hyperlinkBuffer$13[ebp]
  00cfc	ff b5 18 fa ff
	ff		 push	 DWORD PTR $T5[ebp]
  00d02	6a 01		 push	 1
  00d04	e8 00 00 00 00	 call	 ??$_Reallocate_grow_by@V<lambda_c3135ae829aeedc0a8af1bd1e887c66a>@@I_W@?$basic_string@_WU?$char_traits@_W@std@@V?$allocator@_W@2@@std@@AAEAAV01@IV<lambda_c3135ae829aeedc0a8af1bd1e887c66a>@@I_W@Z ; std::basic_string<wchar_t,std::char_traits<wchar_t>,std::allocator<wchar_t> >::_Reallocate_grow_by<<lambda_c3135ae829aeedc0a8af1bd1e887c66a>,unsigned int,wchar_t>
; File C:\Users\murat\Desktop\Siveps2-1-99-Project\source\client\Client\EterLib\GrpTextInstance.cpp

; 371  : 								hyperlinkBuffer.append(1, wArabicText[e]);

  00d09	e9 95 00 00 00	 jmp	 $LN898@Update
$LN80@Update:

; 372  : 							else
; 373  : 							{
; 374  : 								int charWidth = __DrawCharacter(pFontTexture, dataCodePage, wArabicText[e], dwColor);

  00d0e	8b 85 44 fa ff
	ff		 mov	 eax, DWORD PTR _dataCodePage$1$[ebp]
  00d14	57		 push	 edi
  00d15	51		 push	 ecx
  00d16	8b 8d 60 fa ff
	ff		 mov	 ecx, DWORD PTR _this$GSCopy$1$[ebp]
  00d1c	0f b7 c0	 movzx	 eax, ax
  00d1f	50		 push	 eax
  00d20	ff b5 40 fa ff
	ff		 push	 DWORD PTR _pFontTexture$1$[ebp]
  00d26	e8 00 00 00 00	 call	 ?__DrawCharacter@CGraphicTextInstance@@IAEHPAVCGraphicFontTexture@@G_WK@Z ; CGraphicTextInstance::__DrawCharacter

; 375  : 								kHyperlink.ex += charWidth;

  00d2b	66 03 d8	 add	 bx, ax

; 378  : 								for (int j = 1; j <= no_hyperlink; j++)

  00d2e	be 01 00 00 00	 mov	 esi, 1
  00d33	89 9d 6c fa ff
	ff		 mov	 DWORD PTR tv4479[ebp], ebx
  00d39	66 89 9d be fa
	ff ff		 mov	 WORD PTR _kHyperlink$12[ebp+2], bx
  00d40	39 b5 54 fa ff
	ff		 cmp	 DWORD PTR _no_hyperlink$1$[ebp], esi
  00d46	7c 5b		 jl	 SHORT $LN898@Update
; File C:\Program Files (x86)\Microsoft Visual Studio\2019\Professional\VC\Tools\MSVC\14.29.30133\include\vector

; 1548 :         auto& _My_data = _Mypair._Myval2;

  00d48	0f b7 c0	 movzx	 eax, ax
  00d4b	0f 1f 44 00 00	 npad	 5
$LL30@Update:

; 1549 :         return static_cast<size_type>(_My_data._Mylast - _My_data._Myfirst);

  00d50	8b 8d 60 fa ff
	ff		 mov	 ecx, DWORD PTR _this$GSCopy$1$[ebp]
  00d56	0f b7 f8	 movzx	 edi, ax
  00d59	b8 93 24 49 92	 mov	 eax, -1840700269	; 92492493H
  00d5e	8b 59 64	 mov	 ebx, DWORD PTR [ecx+100]
  00d61	8b 49 68	 mov	 ecx, DWORD PTR [ecx+104]
  00d64	2b cb		 sub	 ecx, ebx
  00d66	f7 e9		 imul	 ecx
  00d68	03 d1		 add	 edx, ecx
  00d6a	c1 fa 04	 sar	 edx, 4
  00d6d	8b ca		 mov	 ecx, edx
  00d6f	c1 e9 1f	 shr	 ecx, 31			; 0000001fH
  00d72	03 ca		 add	 ecx, edx
; File C:\Users\murat\Desktop\Siveps2-1-99-Project\source\client\Client\EterLib\GrpTextInstance.cpp

; 380  : 									if(m_hyperlinkVector.size() < j)

  00d74	3b ce		 cmp	 ecx, esi
  00d76	72 1f		 jb	 SHORT $LN907@Update
; File C:\Program Files (x86)\Microsoft Visual Studio\2019\Professional\VC\Tools\MSVC\14.29.30133\include\vector

; 1569 :         return _My_data._Myfirst[_Pos];

  00d78	2b ce		 sub	 ecx, esi
; File C:\Users\murat\Desktop\Siveps2-1-99-Project\source\client\Client\EterLib\GrpTextInstance.cpp

; 378  : 								for (int j = 1; j <= no_hyperlink; j++)

  00d7a	46		 inc	 esi
; File C:\Program Files (x86)\Microsoft Visual Studio\2019\Professional\VC\Tools\MSVC\14.29.30133\include\vector

; 1569 :         return _My_data._Myfirst[_Pos];

  00d7b	8d 04 cd 00 00
	00 00		 lea	 eax, DWORD PTR [ecx*8]
  00d82	2b c1		 sub	 eax, ecx
; File C:\Users\murat\Desktop\Siveps2-1-99-Project\source\client\Client\EterLib\GrpTextInstance.cpp

; 384  : 									tempLink.ex += charWidth;

  00d84	66 01 7c 83 02	 add	 WORD PTR [ebx+eax*4+2], di

; 385  : 									tempLink.sx += charWidth;

  00d89	66 01 3c 83	 add	 WORD PTR [ebx+eax*4], di
  00d8d	8b c7		 mov	 eax, edi
  00d8f	3b b5 54 fa ff
	ff		 cmp	 esi, DWORD PTR _no_hyperlink$1$[ebp]
  00d95	7e b9		 jle	 SHORT $LL30@Update
$LN907@Update:
  00d97	8b bd 68 fa ff
	ff		 mov	 edi, DWORD PTR _dwColor$1$[ebp]
$LN353@Update:

; 414  : 									hyperlinkBuffer = L"";
; 415  : 								}
; 416  : 							}
; 417  : 						}
; 418  : 						e += len;

  00d9d	8b 9d 6c fa ff
	ff		 mov	 ebx, DWORD PTR tv4479[ebp]
$LN898@Update:
  00da3	8b 8d 64 fa ff
	ff		 mov	 ecx, DWORD PTR _e$1$[ebp]
  00da9	03 8d 28 fa ff
	ff		 add	 ecx, DWORD PTR _len$8[ebp]
  00daf	89 8d 64 fa ff
	ff		 mov	 DWORD PTR _e$1$[ebp], ecx
  00db5	3b 8d 58 fa ff
	ff		 cmp	 ecx, DWORD PTR _nEnglishBase$1$[ebp]
  00dbb	0f 8e cf fb ff
	ff		 jle	 $LL25@Update
  00dc1	8b b5 50 fa ff
	ff		 mov	 esi, DWORD PTR __Old_capacity$1$[ebp]
$LN899@Update:
; File C:\Program Files (x86)\Microsoft Visual Studio\2019\Professional\VC\Tools\MSVC\14.29.30133\include\xstring

; 4618 :         if (_Mypair._Myval2._Large_string_engaged()) {

  00dc7	8b 95 ec fa ff
	ff		 mov	 edx, DWORD PTR _hyperlinkBuffer$13[ebp+20]
; File C:\Users\murat\Desktop\Siveps2-1-99-Project\source\client\Client\EterLib\GrpTextInstance.cpp

; 422  : 			}

  00dcd	c6 45 fc 00	 mov	 BYTE PTR __$EHRec$[ebp+8], 0
; File C:\Program Files (x86)\Microsoft Visual Studio\2019\Professional\VC\Tools\MSVC\14.29.30133\include\xstring

; 4618 :         if (_Mypair._Myval2._Large_string_engaged()) {

  00dd1	83 fa 08	 cmp	 edx, 8
  00dd4	72 35		 jb	 SHORT $LN464@Update
; File C:\Program Files (x86)\Microsoft Visual Studio\2019\Professional\VC\Tools\MSVC\14.29.30133\include\xmemory

; 835  :         _Deallocate<_New_alignof<_Ty>>(_Ptr, sizeof(_Ty) * _Count);

  00dd6	8b 8d d8 fa ff
	ff		 mov	 ecx, DWORD PTR _hyperlinkBuffer$13[ebp]
  00ddc	8d 14 55 02 00
	00 00		 lea	 edx, DWORD PTR [edx*2+2]
  00de3	8b c1		 mov	 eax, ecx

; 260  :         if (_Bytes >= _Big_allocation_threshold) { // boost the alignment of big allocations to help autovectorization

  00de5	81 fa 00 10 00
	00		 cmp	 edx, 4096		; 00001000H
  00deb	72 14		 jb	 SHORT $LN474@Update

; 158  :     const uintptr_t _Ptr_container   = _Ptr_user[-1];

  00ded	8b 49 fc	 mov	 ecx, DWORD PTR [ecx-4]
  00df0	83 c2 23	 add	 edx, 35			; 00000023H
  00df3	2b c1		 sub	 eax, ecx

; 159  : 
; 160  :     // If the following asserts, it likely means that we are performing
; 161  :     // an aligned delete on memory coming from an unaligned allocation.
; 162  :     _STL_ASSERT(_Ptr_user[-2] == _Big_allocation_sentinel, "invalid argument");
; 163  : 
; 164  :     // Extra paranoia on aligned allocation/deallocation; ensure _Ptr_container is
; 165  :     // in range [_Min_back_shift, _Non_user_size]
; 166  : #ifdef _DEBUG
; 167  :     constexpr uintptr_t _Min_back_shift = 2 * sizeof(void*);
; 168  : #else // ^^^ _DEBUG ^^^ // vvv !_DEBUG vvv
; 169  :     constexpr uintptr_t _Min_back_shift = sizeof(void*);
; 170  : #endif // _DEBUG
; 171  :     const uintptr_t _Back_shift = reinterpret_cast<uintptr_t>(_Ptr) - _Ptr_container;
; 172  :     _STL_VERIFY(_Back_shift >= _Min_back_shift && _Back_shift <= _Non_user_size, "invalid argument");

  00df5	83 c0 fc	 add	 eax, -4			; fffffffcH
  00df8	83 f8 1f	 cmp	 eax, 31			; 0000001fH
  00dfb	0f 87 c1 08 00
	00		 ja	 $LN501@Update
$LN474@Update:

; 264  :         ::operator delete(_Ptr, _Bytes);

  00e01	52		 push	 edx
  00e02	51		 push	 ecx
  00e03	e8 00 00 00 00	 call	 ??3@YAXPAXI@Z		; operator delete
  00e08	83 c4 08	 add	 esp, 8
$LN464@Update:
; File C:\Program Files (x86)\Microsoft Visual Studio\2019\Professional\VC\Tools\MSVC\14.29.30133\include\xstring

; 4636 :             _Traits::assign(_Mypair._Myval2._Bx._Buf[0], _Elem());

  00e0b	33 c0		 xor	 eax, eax
  00e0d	c7 85 e8 fa ff
	ff 00 00 00 00	 mov	 DWORD PTR _hyperlinkBuffer$13[ebp+16], 0
  00e17	c7 85 ec fa ff
	ff 07 00 00 00	 mov	 DWORD PTR _hyperlinkBuffer$13[ebp+20], 7
  00e21	66 89 85 d8 fa
	ff ff		 mov	 WORD PTR _hyperlinkBuffer$13[ebp], ax
; File C:\Users\murat\Desktop\Siveps2-1-99-Project\source\client\Client\EterLib\GrpTextInstance.cpp

; 422  : 			}

  00e28	c7 45 fc ff ff
	ff ff		 mov	 DWORD PTR __$EHRec$[ebp+8], -1
; File C:\Program Files (x86)\Microsoft Visual Studio\2019\Professional\VC\Tools\MSVC\14.29.30133\include\xstring

; 2319 :         return _BUF_SIZE <= _Myres;

  00e2f	83 fe 08	 cmp	 esi, 8

; 4618 :         if (_Mypair._Myval2._Large_string_engaged()) {

  00e32	0f 82 16 08 00
	00		 jb	 $LN784@Update
; File C:\Program Files (x86)\Microsoft Visual Studio\2019\Professional\VC\Tools\MSVC\14.29.30133\include\xmemory

; 835  :         _Deallocate<_New_alignof<_Ty>>(_Ptr, sizeof(_Ty) * _Count);

  00e38	8b 8d c0 fa ff
	ff		 mov	 ecx, DWORD PTR _kHyperlink$12[ebp+4]
  00e3e	8d 14 75 02 00
	00 00		 lea	 edx, DWORD PTR [esi*2+2]
  00e45	8b c1		 mov	 eax, ecx

; 260  :         if (_Bytes >= _Big_allocation_threshold) { // boost the alignment of big allocations to help autovectorization

  00e47	81 fa 00 10 00
	00		 cmp	 edx, 4096		; 00001000H
  00e4d	72 14		 jb	 SHORT $LN504@Update

; 158  :     const uintptr_t _Ptr_container   = _Ptr_user[-1];

  00e4f	8b 49 fc	 mov	 ecx, DWORD PTR [ecx-4]
  00e52	83 c2 23	 add	 edx, 35			; 00000023H
  00e55	2b c1		 sub	 eax, ecx

; 159  : 
; 160  :     // If the following asserts, it likely means that we are performing
; 161  :     // an aligned delete on memory coming from an unaligned allocation.
; 162  :     _STL_ASSERT(_Ptr_user[-2] == _Big_allocation_sentinel, "invalid argument");
; 163  : 
; 164  :     // Extra paranoia on aligned allocation/deallocation; ensure _Ptr_container is
; 165  :     // in range [_Min_back_shift, _Non_user_size]
; 166  : #ifdef _DEBUG
; 167  :     constexpr uintptr_t _Min_back_shift = 2 * sizeof(void*);
; 168  : #else // ^^^ _DEBUG ^^^ // vvv !_DEBUG vvv
; 169  :     constexpr uintptr_t _Min_back_shift = sizeof(void*);
; 170  : #endif // _DEBUG
; 171  :     const uintptr_t _Back_shift = reinterpret_cast<uintptr_t>(_Ptr) - _Ptr_container;
; 172  :     _STL_VERIFY(_Back_shift >= _Min_back_shift && _Back_shift <= _Non_user_size, "invalid argument");

  00e57	83 c0 fc	 add	 eax, -4			; fffffffcH
  00e5a	83 f8 1f	 cmp	 eax, 31			; 0000001fH
  00e5d	0f 87 5f 08 00
	00		 ja	 $LN501@Update
$LN504@Update:

; 264  :         ::operator delete(_Ptr, _Bytes);

  00e63	52		 push	 edx
  00e64	51		 push	 ecx
  00e65	e8 00 00 00 00	 call	 ??3@YAXPAXI@Z		; operator delete
  00e6a	83 c4 08	 add	 esp, 8
; File C:\Users\murat\Desktop\Siveps2-1-99-Project\source\client\Client\EterLib\GrpTextInstance.cpp

; 422  : 			}

  00e6d	e9 dc 07 00 00	 jmp	 $LN784@Update
$LN45@Update:
; File C:\Users\murat\Desktop\Siveps2-1-99-Project\source\client\Client\EterLib\GrpTextInstance.h

; 87   : 			SHyperlink() : sx(0), ex(0) { }

  00e72	33 c0		 xor	 eax, eax
; File C:\Users\murat\Desktop\Siveps2-1-99-Project\source\client\Client\EterLib\GrpTextInstance.cpp

; 425  : 				int x = 0;

  00e74	33 ff		 xor	 edi, edi
; File C:\Program Files (x86)\Microsoft Visual Studio\2019\Professional\VC\Tools\MSVC\14.29.30133\include\xstring

; 4610 :             _My_data._Myres = _BUF_SIZE - 1;

  00e76	be 07 00 00 00	 mov	 esi, 7

; 2346 :         _CONSTEXPR20_CONTAINER _Bxty() noexcept : _Ptr() {} // user-provided, for fancy pointers

  00e7b	89 85 74 fa ff
	ff		 mov	 DWORD PTR _kHyperlink$9[ebp+4], eax
; File C:\Users\murat\Desktop\Siveps2-1-99-Project\source\client\Client\EterLib\GrpTextInstance.h

; 87   : 			SHyperlink() : sx(0), ex(0) { }

  00e81	33 db		 xor	 ebx, ebx
; File C:\Users\murat\Desktop\Siveps2-1-99-Project\source\client\Client\EterLib\GrpTextInstance.cpp

; 425  : 				int x = 0;

  00e83	89 bd 50 fa ff
	ff		 mov	 DWORD PTR _x$1$[ebp], edi

; 426  : 				int len;
; 427  : 				int hyperlinkStep = 0;

  00e89	89 bd 64 fa ff
	ff		 mov	 DWORD PTR _hyperlinkStep$1$[ebp], edi
; File C:\Users\murat\Desktop\Siveps2-1-99-Project\source\client\Client\EterLib\GrpTextInstance.h

; 87   : 			SHyperlink() : sx(0), ex(0) { }

  00e8f	89 85 70 fa ff
	ff		 mov	 DWORD PTR _kHyperlink$9[ebp], eax
  00e95	89 9d 5c fa ff
	ff		 mov	 DWORD PTR tv4647[ebp], ebx
; File C:\Program Files (x86)\Microsoft Visual Studio\2019\Professional\VC\Tools\MSVC\14.29.30133\include\xstring

; 4596 :         _My_data._Mysize = 0;

  00e9b	89 85 84 fa ff
	ff		 mov	 DWORD PTR _kHyperlink$9[ebp+20], eax

; 4610 :             _My_data._Myres = _BUF_SIZE - 1;

  00ea1	89 b5 6c fa ff
	ff		 mov	 DWORD PTR __Old_capacity$1$[ebp], esi
  00ea7	89 b5 88 fa ff
	ff		 mov	 DWORD PTR _kHyperlink$9[ebp+24], esi

; 4611 :             // the _Traits::assign is last so the codegen doesn't think the char write can alias this
; 4612 :             _Traits::assign(_My_data._Bx._Buf[0], _Elem());

  00ead	66 89 85 74 fa
	ff ff		 mov	 WORD PTR _kHyperlink$9[ebp+4], ax

; 2346 :         _CONSTEXPR20_CONTAINER _Bxty() noexcept : _Ptr() {} // user-provided, for fancy pointers

  00eb4	89 9d a4 fa ff
	ff		 mov	 DWORD PTR _hyperlinkBuffer$11[ebp], ebx
; File C:\Users\murat\Desktop\Siveps2-1-99-Project\source\client\Client\EterLib\GrpTextInstance.cpp

; 428  : 				SHyperlink kHyperlink;

  00eba	c7 45 fc 02 00
	00 00		 mov	 DWORD PTR __$EHRec$[ebp+8], 2
; File C:\Program Files (x86)\Microsoft Visual Studio\2019\Professional\VC\Tools\MSVC\14.29.30133\include\xstring

; 4596 :         _My_data._Mysize = 0;

  00ec1	89 9d b4 fa ff
	ff		 mov	 DWORD PTR _hyperlinkBuffer$11[ebp+16], ebx

; 4610 :             _My_data._Myres = _BUF_SIZE - 1;

  00ec7	89 b5 b8 fa ff
	ff		 mov	 DWORD PTR _hyperlinkBuffer$11[ebp+20], esi

; 4611 :             // the _Traits::assign is last so the codegen doesn't think the char write can alias this
; 4612 :             _Traits::assign(_My_data._Bx._Buf[0], _Elem());

  00ecd	66 89 85 a4 fa
	ff ff		 mov	 WORD PTR _hyperlinkBuffer$11[ebp], ax

; 4610 :             _My_data._Myres = _BUF_SIZE - 1;

  00ed4	8b d6		 mov	 edx, esi

; 2346 :         _CONSTEXPR20_CONTAINER _Bxty() noexcept : _Ptr() {} // user-provided, for fancy pointers

  00ed6	89 85 8c fa ff
	ff		 mov	 DWORD PTR _emojiBuffer$10[ebp], eax
; File C:\Users\murat\Desktop\Siveps2-1-99-Project\source\client\Client\EterLib\GrpTextInstance.h

; 96   :             SEmoji() : x(0)

  00edc	66 89 85 20 fa
	ff ff		 mov	 WORD PTR _kEmoji$7[ebp], ax

; 97   :             {
; 98   :                 pInstance = NULL;

  00ee3	89 85 24 fa ff
	ff		 mov	 DWORD PTR _kEmoji$7[ebp+4], eax
; File C:\Users\murat\Desktop\Siveps2-1-99-Project\source\client\Client\EterLib\GrpTextInstance.cpp

; 433  :                 int emojiStep = 0;

  00ee9	89 85 58 fa ff
	ff		 mov	 DWORD PTR _emojiStep$1$[ebp], eax
; File C:\Program Files (x86)\Microsoft Visual Studio\2019\Professional\VC\Tools\MSVC\14.29.30133\include\xstring

; 4596 :         _My_data._Mysize = 0;

  00eef	89 85 9c fa ff
	ff		 mov	 DWORD PTR _emojiBuffer$10[ebp+16], eax

; 4610 :             _My_data._Myres = _BUF_SIZE - 1;

  00ef5	89 95 a0 fa ff
	ff		 mov	 DWORD PTR _emojiBuffer$10[ebp+20], edx

; 4611 :             // the _Traits::assign is last so the codegen doesn't think the char write can alias this
; 4612 :             _Traits::assign(_My_data._Bx._Buf[0], _Elem());

  00efb	66 89 85 8c fa
	ff ff		 mov	 WORD PTR _emojiBuffer$10[ebp], ax
; File C:\Users\murat\Desktop\Siveps2-1-99-Project\source\client\Client\EterLib\GrpTextInstance.cpp

; 437  : 				for (int i = 0; i < wTextLen; )

  00f02	8b 85 54 fa ff
	ff		 mov	 eax, DWORD PTR _wTextLen$1$[ebp]
  00f08	33 c9		 xor	 ecx, ecx
  00f0a	c6 45 fc 04	 mov	 BYTE PTR __$EHRec$[ebp+8], 4
  00f0e	89 8d 38 fa ff
	ff		 mov	 DWORD PTR _i$1$[ebp], ecx
  00f14	85 c0		 test	 eax, eax
  00f16	0f 8e 2f 06 00
	00		 jle	 $LN901@Update
  00f1c	0f 1f 40 00	 npad	 4
$LL31@Update:

; 438  : 				{
; 439  : 					int ret = GetTextTag(&wText[i], wTextLen - i, len, hyperlinkBuffer);

  00f20	8b 95 2c fa ff
	ff		 mov	 edx, DWORD PTR _wText$1$[ebp]
  00f26	2b c1		 sub	 eax, ecx
  00f28	8d 34 4a	 lea	 esi, DWORD PTR [edx+ecx*2]
  00f2b	8d 95 a4 fa ff
	ff		 lea	 edx, DWORD PTR _hyperlinkBuffer$11[ebp]
  00f31	52		 push	 edx
  00f32	8d 95 08 fa ff
	ff		 lea	 edx, DWORD PTR _len$2[ebp]
  00f38	52		 push	 edx
  00f39	50		 push	 eax
  00f3a	56		 push	 esi
  00f3b	e8 00 00 00 00	 call	 ?GetTextTag@@YAHPB_WHAAHAAV?$basic_string@_WU?$char_traits@_W@std@@V?$allocator@_W@2@@std@@@Z ; GetTextTag
  00f40	83 c4 10	 add	 esp, 16			; 00000010H

; 440  : 
; 441  : 					if (ret == TEXT_TAG_PLAIN || ret == TEXT_TAG_TAG)

  00f43	85 c0		 test	 eax, eax
  00f45	0f 84 bf 04 00
	00		 je	 $LN94@Update
  00f4b	83 f8 01	 cmp	 eax, 1
  00f4e	0f 84 b6 04 00
	00		 je	 $LN94@Update

; 454  : 						}
; 455  : 					}
; 456  : #ifdef ENABLE_EMOJI_IN_TEXT
; 457  : 					else if (ret == TEXT_TAG_EMOJI_START)

  00f54	83 f8 06	 cmp	 eax, 6
  00f57	75 21		 jne	 SHORT $LN99@Update
; File C:\Program Files (x86)\Microsoft Visual Studio\2019\Professional\VC\Tools\MSVC\14.29.30133\include\xstring

; 3264 :         return assign(_Ptr, _Convert_size<size_type>(_Traits::length(_Ptr)));

  00f59	6a 00		 push	 0
  00f5b	68 00 00 00 00	 push	 OFFSET ??_C@_11LOCGONAA@@
  00f60	8d 8d 8c fa ff
	ff		 lea	 ecx, DWORD PTR _emojiBuffer$10[ebp]
; File C:\Users\murat\Desktop\Siveps2-1-99-Project\source\client\Client\EterLib\GrpTextInstance.cpp

; 459  : 						emojiStep = 1;

  00f66	c7 85 58 fa ff
	ff 01 00 00 00	 mov	 DWORD PTR _emojiStep$1$[ebp], 1
; File C:\Program Files (x86)\Microsoft Visual Studio\2019\Professional\VC\Tools\MSVC\14.29.30133\include\xstring

; 3264 :         return assign(_Ptr, _Convert_size<size_type>(_Traits::length(_Ptr)));

  00f70	e8 00 00 00 00	 call	 ?assign@?$basic_string@_WU?$char_traits@_W@std@@V?$allocator@_W@2@@std@@QAEAAV12@QB_WI@Z ; std::basic_string<wchar_t,std::char_traits<wchar_t>,std::allocator<wchar_t> >::assign
; File C:\Users\murat\Desktop\Siveps2-1-99-Project\source\client\Client\EterLib\GrpTextInstance.cpp

; 461  : 					}

  00f75	e9 9f 05 00 00	 jmp	 $LN924@Update
$LN99@Update:

; 462  : 					else if (ret == TEXT_TAG_EMOJI_END)

  00f7a	83 f8 07	 cmp	 eax, 7
  00f7d	0f 85 c6 01 00
	00		 jne	 $LN101@Update
; File C:\Program Files (x86)\Microsoft Visual Studio\2019\Professional\VC\Tools\MSVC\14.29.30133\include\xstring

; 2306 :         if (_Large_string_engaged()) {

  00f83	83 bd a0 fa ff
	ff 08		 cmp	 DWORD PTR _emojiBuffer$10[ebp+20], 8
; File C:\Users\murat\Desktop\Siveps2-1-99-Project\source\client\Client\EterLib\GrpTextInstance.cpp

; 467  : 						int retLen = Ymir_WideCharToMultiByte(GetDefaultCodePage(), 0, emojiBuffer.c_str(), emojiBuffer.length(), retBuf, sizeof(retBuf) - 1, NULL, NULL);

  00f8a	8d 8d f0 fa ff
	ff		 lea	 ecx, DWORD PTR _retBuf$14[ebp]
  00f90	6a 00		 push	 0
  00f92	6a 00		 push	 0
  00f94	68 ff 03 00 00	 push	 1023			; 000003ffH
  00f99	51		 push	 ecx
  00f9a	ff b5 9c fa ff
	ff		 push	 DWORD PTR _emojiBuffer$10[ebp+16]
; File C:\Program Files (x86)\Microsoft Visual Studio\2019\Professional\VC\Tools\MSVC\14.29.30133\include\xstring

; 2305 :         const value_type* _Result = _Bx._Buf;

  00fa0	8d 85 8c fa ff
	ff		 lea	 eax, DWORD PTR _emojiBuffer$10[ebp]
; File C:\Users\murat\Desktop\Siveps2-1-99-Project\source\client\Client\EterLib\GrpTextInstance.cpp

; 464  : 						kEmoji.x = x;

  00fa6	66 89 bd 20 fa
	ff ff		 mov	 WORD PTR _kEmoji$7[ebp], di
; File C:\Program Files (x86)\Microsoft Visual Studio\2019\Professional\VC\Tools\MSVC\14.29.30133\include\xstring

; 2306 :         if (_Large_string_engaged()) {

  00fad	0f 43 85 8c fa
	ff ff		 cmovae	 eax, DWORD PTR _emojiBuffer$10[ebp]
; File C:\Users\murat\Desktop\Siveps2-1-99-Project\source\client\Client\EterLib\GrpTextInstance.cpp

; 467  : 						int retLen = Ymir_WideCharToMultiByte(GetDefaultCodePage(), 0, emojiBuffer.c_str(), emojiBuffer.length(), retBuf, sizeof(retBuf) - 1, NULL, NULL);

  00fb4	50		 push	 eax
  00fb5	6a 00		 push	 0
  00fb7	e8 00 00 00 00	 call	 ?GetDefaultCodePage@@YAKXZ ; GetDefaultCodePage
  00fbc	50		 push	 eax
  00fbd	e8 00 00 00 00	 call	 ?Ymir_WideCharToMultiByte@@YAHIKPB_WHPADHPBDPAH@Z ; Ymir_WideCharToMultiByte
  00fc2	83 c4 20	 add	 esp, 32			; 00000020H

; 468  : 						retBuf[retLen] = '\0';

  00fc5	3d 00 04 00 00	 cmp	 eax, 1024		; 00000400H
  00fca	0f 83 e3 06 00
	00		 jae	 $LN119@Update
  00fd0	c6 84 05 f0 fa
	ff ff 00	 mov	 BYTE PTR _retBuf$14[ebp+eax], 0

; 469  : 
; 470  : 						char szPath[255];
; 471  : 						_snprintf(szPath, sizeof(szPath), "icon/%s.tga", retBuf);

  00fd8	8d 85 f0 fa ff
	ff		 lea	 eax, DWORD PTR _retBuf$14[ebp]
  00fde	50		 push	 eax
  00fdf	68 00 00 00 00	 push	 OFFSET ??_C@_0M@NHBNKCLI@icon?1?$CFs?4tga@
  00fe4	8d 85 f0 fe ff
	ff		 lea	 eax, DWORD PTR _szPath$15[ebp]
  00fea	68 ff 00 00 00	 push	 255			; 000000ffH
  00fef	50		 push	 eax
  00ff0	e8 00 00 00 00	 call	 __snprintf

; 472  : 						if (CResourceManager::Instance().IsFileExist(szPath))

  00ff5	8b 0d 00 00 00
	00		 mov	 ecx, DWORD PTR ?ms_singleton@?$CSingleton@VCResourceManager@@@@0PAVCResourceManager@@A ; CSingleton<CResourceManager>::ms_singleton
  00ffb	8d 85 f0 fe ff
	ff		 lea	 eax, DWORD PTR _szPath$15[ebp]
  01001	83 c4 10	 add	 esp, 16			; 00000010H
  01004	50		 push	 eax
  01005	e8 00 00 00 00	 call	 ?IsFileExist@CResourceManager@@QAE_NPBD@Z ; CResourceManager::IsFileExist
  0100a	84 c0		 test	 al, al
  0100c	0f 84 16 01 00
	00		 je	 $LN104@Update

; 473  : 						{
; 474  : 							CGraphicImage * pImage = (CGraphicImage *)CResourceManager::Instance().GetResourcePointer(szPath);

  01012	8b 0d 00 00 00
	00		 mov	 ecx, DWORD PTR ?ms_singleton@?$CSingleton@VCResourceManager@@@@0PAVCResourceManager@@A ; CSingleton<CResourceManager>::ms_singleton
  01018	8d 85 f0 fe ff
	ff		 lea	 eax, DWORD PTR _szPath$15[ebp]
  0101e	50		 push	 eax
  0101f	e8 00 00 00 00	 call	 ?GetResourcePointer@CResourceManager@@QAEPAVCResource@@PBD@Z ; CResourceManager::GetResourcePointer
  01024	8b d8		 mov	 ebx, eax

; 475  : 							kEmoji.pInstance = CGraphicImageInstance::New();

  01026	e8 00 00 00 00	 call	 ?New@CGraphicImageInstance@@SAPAV1@XZ ; CGraphicImageInstance::New
  0102b	8b f0		 mov	 esi, eax

; 476  : 							kEmoji.pInstance->SetImagePointer(pImage);

  0102d	53		 push	 ebx
  0102e	8b ce		 mov	 ecx, esi
  01030	89 b5 24 fa ff
	ff		 mov	 DWORD PTR _kEmoji$7[ebp+4], esi
  01036	e8 00 00 00 00	 call	 ?SetImagePointer@CGraphicImageInstance@@QAEXPAVCGraphicImage@@@Z ; CGraphicImageInstance::SetImagePointer
; File C:\Program Files (x86)\Microsoft Visual Studio\2019\Professional\VC\Tools\MSVC\14.29.30133\include\vector

; 743  :         if (_Mylast != _My_data._Myend) {

  0103b	8b 95 14 fa ff
	ff		 mov	 edx, DWORD PTR _this$1$[ebp]
  01041	8b 4a 04	 mov	 ecx, DWORD PTR [edx+4]
  01044	3b 4a 08	 cmp	 ecx, DWORD PTR [edx+8]
  01047	74 11		 je	 SHORT $LN599@Update

; 726  :         _Alty_traits::construct(_Getal(), _Unfancy(_Mylast), _STD forward<_Valty>(_Val)...);

  01049	8b 85 20 fa ff
	ff		 mov	 eax, DWORD PTR _kEmoji$7[ebp]
  0104f	89 01		 mov	 DWORD PTR [ecx], eax
  01051	89 71 04	 mov	 DWORD PTR [ecx+4], esi

; 727  :         _Orphan_range(_Mylast, _Mylast);
; 728  :         _Ty& _Result = *_Mylast;
; 729  :         ++_Mylast;

  01054	83 42 04 08	 add	 DWORD PTR [edx+4], 8

; 744  :             return _Emplace_back_with_unused_capacity(_STD forward<_Valty>(_Val)...);

  01058	eb 0f		 jmp	 SHORT $LN598@Update
$LN599@Update:

; 745  :         }
; 746  : 
; 747  :         _Ty& _Result = *_Emplace_reallocate(_Mylast, _STD forward<_Valty>(_Val)...);

  0105a	8d 85 20 fa ff
	ff		 lea	 eax, DWORD PTR _kEmoji$7[ebp]
  01060	50		 push	 eax
  01061	51		 push	 ecx
  01062	8b ca		 mov	 ecx, edx
  01064	e8 00 00 00 00	 call	 ??$_Emplace_reallocate@ABUSEmoji@CGraphicTextInstance@@@?$vector@USEmoji@CGraphicTextInstance@@V?$allocator@USEmoji@CGraphicTextInstance@@@std@@@std@@QAEPAUSEmoji@CGraphicTextInstance@@QAU23@ABU23@@Z ; std::vector<CGraphicTextInstance::SEmoji,std::allocator<CGraphicTextInstance::SEmoji> >::_Emplace_reallocate<CGraphicTextInstance::SEmoji const &>
$LN598@Update:
  01069	0f 57 c0	 xorps	 xmm0, xmm0
; File C:\Users\murat\Desktop\Siveps2-1-99-Project\source\client\Client\EterLib\GrpTextInstance.cpp

; 479  : 							for (int i = 0; i < pImage->GetWidth() / (pSpaceInfo->width-1); ++i)

  0106c	8b cb		 mov	 ecx, ebx
  0106e	66 0f 13 85 20
	fa ff ff	 movlpd	 QWORD PTR _kEmoji$7[ebp], xmm0
  01076	33 f6		 xor	 esi, esi
  01078	e8 00 00 00 00	 call	 ?GetWidth@CGraphicImage@@QBEHXZ ; CGraphicImage::GetWidth
  0107d	8b 8d 30 fa ff
	ff		 mov	 ecx, DWORD PTR _pSpaceInfo$1$[ebp]
  01083	99		 cdq
  01084	0f bf 49 02	 movsx	 ecx, WORD PTR [ecx+2]
  01088	49		 dec	 ecx
  01089	f7 f9		 idiv	 ecx
  0108b	85 c0		 test	 eax, eax
  0108d	7e 4e		 jle	 SHORT $LN868@Update
  0108f	90		 npad	 1
$LL36@Update:

; 480  : 								x += __DrawCharacter(pFontTexture, dataCodePage, ' ', dwColor);

  01090	ff b5 68 fa ff
	ff		 push	 DWORD PTR _dwColor$1$[ebp]
  01096	8b 85 44 fa ff
	ff		 mov	 eax, DWORD PTR _dataCodePage$1$[ebp]
  0109c	8b 8d 60 fa ff
	ff		 mov	 ecx, DWORD PTR _this$GSCopy$1$[ebp]
  010a2	6a 20		 push	 32			; 00000020H
  010a4	0f b7 f8	 movzx	 edi, ax
  010a7	57		 push	 edi
  010a8	ff b5 40 fa ff
	ff		 push	 DWORD PTR _pFontTexture$1$[ebp]
  010ae	e8 00 00 00 00	 call	 ?__DrawCharacter@CGraphicTextInstance@@IAEHPAVCGraphicFontTexture@@G_WK@Z ; CGraphicTextInstance::__DrawCharacter
  010b3	01 85 50 fa ff
	ff		 add	 DWORD PTR _x$1$[ebp], eax
  010b9	8b cb		 mov	 ecx, ebx
  010bb	46		 inc	 esi
  010bc	e8 00 00 00 00	 call	 ?GetWidth@CGraphicImage@@QBEHXZ ; CGraphicImage::GetWidth
  010c1	8b 8d 30 fa ff
	ff		 mov	 ecx, DWORD PTR _pSpaceInfo$1$[ebp]
  010c7	99		 cdq
  010c8	0f bf 49 02	 movsx	 ecx, WORD PTR [ecx+2]
  010cc	49		 dec	 ecx
  010cd	f7 f9		 idiv	 ecx
  010cf	3b f0		 cmp	 esi, eax
  010d1	7c bd		 jl	 SHORT $LL36@Update
  010d3	8b f7		 mov	 esi, edi
  010d5	8b bd 50 fa ff
	ff		 mov	 edi, DWORD PTR _x$1$[ebp]
  010db	eb 09		 jmp	 SHORT $LN35@Update
$LN868@Update:
  010dd	8b 85 44 fa ff
	ff		 mov	 eax, DWORD PTR _dataCodePage$1$[ebp]
  010e3	0f b7 f0	 movzx	 esi, ax
$LN35@Update:

; 481  : 							if (pImage->GetWidth() % (pSpaceInfo->width - 1) > 1)

  010e6	8b cb		 mov	 ecx, ebx
  010e8	e8 00 00 00 00	 call	 ?GetWidth@CGraphicImage@@QBEHXZ ; CGraphicImage::GetWidth
  010ed	8b 8d 30 fa ff
	ff		 mov	 ecx, DWORD PTR _pSpaceInfo$1$[ebp]
  010f3	99		 cdq
  010f4	0f bf 49 02	 movsx	 ecx, WORD PTR [ecx+2]
  010f8	49		 dec	 ecx
  010f9	f7 f9		 idiv	 ecx
  010fb	83 fa 01	 cmp	 edx, 1
  010fe	7e 22		 jle	 SHORT $LN913@Update

; 482  : 								x += __DrawCharacter(pFontTexture, dataCodePage, ' ', dwColor);

  01100	ff b5 68 fa ff
	ff		 push	 DWORD PTR _dwColor$1$[ebp]
  01106	8b 8d 60 fa ff
	ff		 mov	 ecx, DWORD PTR _this$GSCopy$1$[ebp]
  0110c	6a 20		 push	 32			; 00000020H
  0110e	56		 push	 esi
  0110f	ff b5 40 fa ff
	ff		 push	 DWORD PTR _pFontTexture$1$[ebp]
  01115	e8 00 00 00 00	 call	 ?__DrawCharacter@CGraphicTextInstance@@IAEHPAVCGraphicFontTexture@@G_WK@Z ; CGraphicTextInstance::__DrawCharacter
  0111a	03 f8		 add	 edi, eax
  0111c	89 bd 50 fa ff
	ff		 mov	 DWORD PTR _x$1$[ebp], edi
$LN913@Update:

; 484  : 						emojiStep = 0;

  01122	8b 9d 5c fa ff
	ff		 mov	 ebx, DWORD PTR tv4647[ebp]
$LN104@Update:
; File C:\Program Files (x86)\Microsoft Visual Studio\2019\Professional\VC\Tools\MSVC\14.29.30133\include\xstring

; 3264 :         return assign(_Ptr, _Convert_size<size_type>(_Traits::length(_Ptr)));

  01128	6a 00		 push	 0
  0112a	68 00 00 00 00	 push	 OFFSET ??_C@_11LOCGONAA@@
  0112f	8d 8d 8c fa ff
	ff		 lea	 ecx, DWORD PTR _emojiBuffer$10[ebp]
; File C:\Users\murat\Desktop\Siveps2-1-99-Project\source\client\Client\EterLib\GrpTextInstance.cpp

; 484  : 						emojiStep = 0;

  01135	c7 85 58 fa ff
	ff 00 00 00 00	 mov	 DWORD PTR _emojiStep$1$[ebp], 0
; File C:\Program Files (x86)\Microsoft Visual Studio\2019\Professional\VC\Tools\MSVC\14.29.30133\include\xstring

; 3264 :         return assign(_Ptr, _Convert_size<size_type>(_Traits::length(_Ptr)));

  0113f	e8 00 00 00 00	 call	 ?assign@?$basic_string@_WU?$char_traits@_W@std@@V?$allocator@_W@2@@std@@QAEAAV12@QB_WI@Z ; std::basic_string<wchar_t,std::char_traits<wchar_t>,std::allocator<wchar_t> >::assign
; File C:\Users\murat\Desktop\Siveps2-1-99-Project\source\client\Client\EterLib\GrpTextInstance.cpp

; 486  : 					}

  01144	e9 d0 03 00 00	 jmp	 $LN924@Update
$LN101@Update:

; 487  : #endif
; 488  : 					else
; 489  : 					{
; 490  : 						if (ret == TEXT_TAG_COLOR)

  01149	83 f8 02	 cmp	 eax, 2
  0114c	0f 85 8c 00 00
	00		 jne	 $LN105@Update
; File C:\Program Files (x86)\Microsoft Visual Studio\2019\Professional\VC\Tools\MSVC\14.29.30133\include\xstring

; 2306 :         if (_Large_string_engaged()) {

  01152	83 bd b8 fa ff
	ff 08		 cmp	 DWORD PTR _hyperlinkBuffer$11[ebp+20], 8
  01159	8d bd a4 fa ff
	ff		 lea	 edi, DWORD PTR _hyperlinkBuffer$11[ebp]
; File C:\Users\murat\Desktop\Siveps2-1-99-Project\source\client\Client\EterBase\Utils.h

; 149  :     int x = 0, y = 1;

  0115f	c7 85 68 fa ff
	ff 00 00 00 00	 mov	 DWORD PTR _dwColor$1$[ebp], 0
  01169	8d 70 ff	 lea	 esi, DWORD PTR [eax-1]
; File C:\Program Files (x86)\Microsoft Visual Studio\2019\Professional\VC\Tools\MSVC\14.29.30133\include\xstring

; 2306 :         if (_Large_string_engaged()) {

  0116c	0f 43 bd a4 fa
	ff ff		 cmovae	 edi, DWORD PTR _hyperlinkBuffer$11[ebp]
; File C:\Users\murat\Desktop\Siveps2-1-99-Project\source\client\Client\EterBase\Utils.h

; 152  :     while (t <= --s)

  01173	8d 57 0e	 lea	 edx, DWORD PTR [edi+14]
  01176	3b fa		 cmp	 edi, edx
  01178	0f 87 9b 03 00
	00		 ja	 $LN924@Update
  0117e	66 90		 npad	 2
$LL617@Update:

; 153  :     {
; 154  : 		if (L'0' <= *s && *s <= L'9')

  01180	0f b7 0a	 movzx	 ecx, WORD PTR [edx]
  01183	8d 41 d0	 lea	 eax, DWORD PTR [ecx-48]
  01186	66 83 f8 09	 cmp	 ax, 9
  0118a	77 05		 ja	 SHORT $LN619@Update

; 155  :             x += y * (*s - L'0');

  0118c	8d 41 d0	 lea	 eax, DWORD PTR [ecx-48]
  0118f	eb 1a		 jmp	 SHORT $LN624@Update
$LN619@Update:

; 156  :         else if (L'a' <= *s && *s <= L'f')

  01191	8d 41 9f	 lea	 eax, DWORD PTR [ecx-97]
  01194	66 83 f8 05	 cmp	 ax, 5
  01198	77 05		 ja	 SHORT $LN621@Update

; 157  :             x += y * (*s - L'a' + 10);

  0119a	8d 41 a9	 lea	 eax, DWORD PTR [ecx-87]
  0119d	eb 0c		 jmp	 SHORT $LN624@Update
$LN621@Update:

; 158  :         else if (L'A' <= *s && *s <= L'F')

  0119f	8d 41 bf	 lea	 eax, DWORD PTR [ecx-65]
  011a2	66 83 f8 05	 cmp	 ax, 5
  011a6	77 27		 ja	 SHORT $LN623@Update

; 159  :             x += y * (10 + *s - L'A');

  011a8	8d 41 c9	 lea	 eax, DWORD PTR [ecx-55]
$LN624@Update:

; 162  :         y <<= 4;

  011ab	0f af c6	 imul	 eax, esi
  011ae	83 ea 02	 sub	 edx, 2
  011b1	c1 e6 04	 shl	 esi, 4
  011b4	03 85 68 fa ff
	ff		 add	 eax, DWORD PTR _dwColor$1$[ebp]
  011ba	89 85 68 fa ff
	ff		 mov	 DWORD PTR _dwColor$1$[ebp], eax
  011c0	3b fa		 cmp	 edi, edx
  011c2	76 bc		 jbe	 SHORT $LL617@Update
; File C:\Program Files (x86)\Microsoft Visual Studio\2019\Professional\VC\Tools\MSVC\14.29.30133\include\xmemory

; 64   :         if (_Count > _Max_possible) {

  011c4	89 85 68 fa ff
	ff		 mov	 DWORD PTR _dwColor$1$[ebp], eax
  011ca	e9 4a 03 00 00	 jmp	 $LN924@Update
$LN623@Update:
; File C:\Users\murat\Desktop\Siveps2-1-99-Project\source\client\Client\EterBase\Utils.h

; 161  :             return -1; /* invalid input! */

  011cf	c7 85 68 fa ff
	ff ff ff ff ff	 mov	 DWORD PTR _dwColor$1$[ebp], -1
; File C:\Users\murat\Desktop\Siveps2-1-99-Project\source\client\Client\EterLib\GrpTextInstance.cpp

; 491  : 							dwColor = htoi(hyperlinkBuffer.c_str(), 8);

  011d9	e9 3b 03 00 00	 jmp	 $LN924@Update
$LN105@Update:

; 492  : 						else if (ret == TEXT_TAG_RESTORE_COLOR)

  011de	83 f8 05	 cmp	 eax, 5
  011e1	75 14		 jne	 SHORT $LN107@Update

; 493  : 							dwColor = m_dwTextColor;

  011e3	8b 85 60 fa ff
	ff		 mov	 eax, DWORD PTR _this$GSCopy$1$[ebp]
  011e9	8b 40 04	 mov	 eax, DWORD PTR [eax+4]
  011ec	89 85 68 fa ff
	ff		 mov	 DWORD PTR _dwColor$1$[ebp], eax
  011f2	e9 22 03 00 00	 jmp	 $LN924@Update
$LN107@Update:

; 494  : 						else if (ret == TEXT_TAG_HYPERLINK_START)

  011f7	83 f8 03	 cmp	 eax, 3
  011fa	75 21		 jne	 SHORT $LN109@Update
; File C:\Program Files (x86)\Microsoft Visual Studio\2019\Professional\VC\Tools\MSVC\14.29.30133\include\xstring

; 3264 :         return assign(_Ptr, _Convert_size<size_type>(_Traits::length(_Ptr)));

  011fc	6a 00		 push	 0
  011fe	68 00 00 00 00	 push	 OFFSET ??_C@_11LOCGONAA@@
  01203	8d 8d a4 fa ff
	ff		 lea	 ecx, DWORD PTR _hyperlinkBuffer$11[ebp]
; File C:\Users\murat\Desktop\Siveps2-1-99-Project\source\client\Client\EterLib\GrpTextInstance.cpp

; 496  : 							hyperlinkStep = 1;

  01209	c7 85 64 fa ff
	ff 01 00 00 00	 mov	 DWORD PTR _hyperlinkStep$1$[ebp], 1
; File C:\Program Files (x86)\Microsoft Visual Studio\2019\Professional\VC\Tools\MSVC\14.29.30133\include\xstring

; 3264 :         return assign(_Ptr, _Convert_size<size_type>(_Traits::length(_Ptr)));

  01213	e8 00 00 00 00	 call	 ?assign@?$basic_string@_WU?$char_traits@_W@std@@V?$allocator@_W@2@@std@@QAEAAV12@QB_WI@Z ; std::basic_string<wchar_t,std::char_traits<wchar_t>,std::allocator<wchar_t> >::assign
; File C:\Users\murat\Desktop\Siveps2-1-99-Project\source\client\Client\EterLib\GrpTextInstance.cpp

; 498  : 						}

  01218	e9 fc 02 00 00	 jmp	 $LN924@Update
$LN109@Update:

; 499  : 						else if (ret == TEXT_TAG_HYPERLINK_END)

  0121d	83 f8 04	 cmp	 eax, 4
  01220	0f 85 f3 02 00
	00		 jne	 $LN924@Update

; 500  : 						{
; 501  : 							if (hyperlinkStep == 1)

  01226	83 bd 64 fa ff
	ff 01		 cmp	 DWORD PTR _hyperlinkStep$1$[ebp], 1
  0122d	75 19		 jne	 SHORT $LN112@Update

; 502  : 							{
; 503  : 								++hyperlinkStep;

  0122f	c7 85 64 fa ff
	ff 02 00 00 00	 mov	 DWORD PTR _hyperlinkStep$1$[ebp], 2

; 504  : 								kHyperlink.ex = kHyperlink.sx = x; //    

  01239	66 8b df	 mov	 bx, di
  0123c	66 89 bd 70 fa
	ff ff		 mov	 WORD PTR _kHyperlink$9[ebp], di

; 505  : 							}

  01243	e9 c4 02 00 00	 jmp	 $LN925@Update
$LN112@Update:
; File C:\Program Files (x86)\Microsoft Visual Studio\2019\Professional\VC\Tools\MSVC\14.29.30133\include\xstring

; 2306 :         if (_Large_string_engaged()) {

  01248	83 bd b8 fa ff
	ff 08		 cmp	 DWORD PTR _hyperlinkBuffer$11[ebp+20], 8
  0124f	8d 85 a4 fa ff
	ff		 lea	 eax, DWORD PTR _hyperlinkBuffer$11[ebp]

; 3035 :         assign(_Right._Mypair._Myval2._Myptr(), _Right._Mypair._Myval2._Mysize);

  01255	8b 9d b4 fa ff
	ff		 mov	 ebx, DWORD PTR _hyperlinkBuffer$11[ebp+16]

; 2306 :         if (_Large_string_engaged()) {

  0125b	0f 43 85 a4 fa
	ff ff		 cmovae	 eax, DWORD PTR _hyperlinkBuffer$11[ebp]

; 3035 :         assign(_Right._Mypair._Myval2._Myptr(), _Right._Mypair._Myval2._Mysize);

  01262	8b 95 6c fa ff
	ff		 mov	 edx, DWORD PTR __Old_capacity$1$[ebp]

; 2306 :         if (_Large_string_engaged()) {

  01268	89 85 64 fa ff
	ff		 mov	 DWORD PTR __Result$2$[ebp], eax

; 3035 :         assign(_Right._Mypair._Myval2._Myptr(), _Right._Mypair._Myval2._Mysize);

  0126e	3b da		 cmp	 ebx, edx

; 3246 :         if (_Count <= _Mypair._Myval2._Myres) {

  01270	77 2f		 ja	 SHORT $LN643@Update

; 2297 :         if (_Large_string_engaged()) {

  01272	83 fa 08	 cmp	 edx, 8

; 3248 :             _Mypair._Myval2._Mysize = _Count;

  01275	89 9d 84 fa ff
	ff		 mov	 DWORD PTR _kHyperlink$9[ebp+20], ebx

; 122  :         _CSTD memmove(_First1, _First2, _Count * sizeof(_Elem));

  0127b	8d 34 1b	 lea	 esi, DWORD PTR [ebx+ebx]
  0127e	56		 push	 esi

; 2296 :         value_type* _Result = _Bx._Buf;

  0127f	8d bd 74 fa ff
	ff		 lea	 edi, DWORD PTR _kHyperlink$9[ebp+4]

; 2297 :         if (_Large_string_engaged()) {

  01285	0f 43 bd 74 fa
	ff ff		 cmovae	 edi, DWORD PTR _kHyperlink$9[ebp+4]

; 122  :         _CSTD memmove(_First1, _First2, _Count * sizeof(_Elem));

  0128c	50		 push	 eax
  0128d	57		 push	 edi
  0128e	e8 00 00 00 00	 call	 _memmove
  01293	83 c4 0c	 add	 esp, 12			; 0000000cH

; 3250 :             _Traits::assign(_Old_ptr[_Count], _Elem());

  01296	33 c0		 xor	 eax, eax
  01298	66 89 04 3e	 mov	 WORD PTR [esi+edi], ax

; 3251 :             return *this;

  0129c	e9 00 01 00 00	 jmp	 $LN655@Update
$LN643@Update:

; 4508 :         if (_New_size > max_size()) {

  012a1	81 fb fe ff ff
	7f		 cmp	 ebx, 2147483646		; 7ffffffeH
  012a7	0f 87 10 04 00
	00		 ja	 $LN825@Update

; 4509 :             _Xlen_string(); // result too long
; 4510 :         }
; 4511 : 
; 4512 :         const size_type _Old_capacity = _Mypair._Myval2._Myres;

  012ad	8b f3		 mov	 esi, ebx
  012af	83 ce 07	 or	 esi, 7

; 4488 :         const size_type _Masked = _Requested | _ALLOC_MASK;

  012b2	81 fe fe ff ff
	7f		 cmp	 esi, 2147483646		; 7ffffffeH

; 4489 :         if (_Masked > _Max) { // the mask overflows, settle for max_size()

  012b8	76 17		 jbe	 SHORT $LN660@Update

; 4490 :             return _Max;

  012ba	b8 fe ff ff ff	 mov	 eax, -2			; fffffffeH
  012bf	be fe ff ff 7f	 mov	 esi, 2147483646		; 7ffffffeH
; File C:\Program Files (x86)\Microsoft Visual Studio\2019\Professional\VC\Tools\MSVC\14.29.30133\include\xmemory

; 238  :             return _Allocate_manually_vector_aligned<_Traits>(_Bytes);

  012c4	50		 push	 eax
  012c5	e8 00 00 00 00	 call	 ??$_Allocate_manually_vector_aligned@U_Default_allocate_traits@std@@@std@@YAPAXI@Z ; std::_Allocate_manually_vector_aligned<std::_Default_allocate_traits>
  012ca	83 c4 04	 add	 esp, 4
  012cd	8b f8		 mov	 edi, eax
  012cf	eb 65		 jmp	 SHORT $LN671@Update
$LN660@Update:
; File C:\Program Files (x86)\Microsoft Visual Studio\2019\Professional\VC\Tools\MSVC\14.29.30133\include\xstring

; 4493 :         if (_Old > _Max - _Old / 2) { // similarly, geometric overflows

  012d1	8b ca		 mov	 ecx, edx
  012d3	b8 fe ff ff 7f	 mov	 eax, 2147483646		; 7ffffffeH
  012d8	d1 e9		 shr	 ecx, 1
  012da	2b c1		 sub	 eax, ecx
  012dc	3b d0		 cmp	 edx, eax
  012de	76 17		 jbe	 SHORT $LN661@Update

; 4494 :             return _Max;

  012e0	b8 fe ff ff ff	 mov	 eax, -2			; fffffffeH
  012e5	be fe ff ff 7f	 mov	 esi, 2147483646		; 7ffffffeH
; File C:\Program Files (x86)\Microsoft Visual Studio\2019\Professional\VC\Tools\MSVC\14.29.30133\include\xmemory

; 238  :             return _Allocate_manually_vector_aligned<_Traits>(_Bytes);

  012ea	50		 push	 eax
  012eb	e8 00 00 00 00	 call	 ??$_Allocate_manually_vector_aligned@U_Default_allocate_traits@std@@@std@@YAPAXI@Z ; std::_Allocate_manually_vector_aligned<std::_Default_allocate_traits>
  012f0	83 c4 04	 add	 esp, 4
  012f3	8b f8		 mov	 edi, eax
  012f5	eb 3f		 jmp	 SHORT $LN671@Update
$LN661@Update:
; File C:\Program Files (x86)\Microsoft Visual Studio\2019\Professional\VC\Tools\MSVC\14.29.30133\include\xstring

; 4497 :         return (_STD max)(_Masked, _Old + _Old / 2);

  012f7	8d 04 0a	 lea	 eax, DWORD PTR [edx+ecx]
  012fa	3b f0		 cmp	 esi, eax
  012fc	0f 42 f0	 cmovb	 esi, eax

; 4515 :         const pointer _New_ptr        = _Al.allocate(_New_capacity + 1); // throws

  012ff	8d 46 01	 lea	 eax, DWORD PTR [esi+1]
; File C:\Program Files (x86)\Microsoft Visual Studio\2019\Professional\VC\Tools\MSVC\14.29.30133\include\xmemory

; 64   :         if (_Count > _Max_possible) {

  01302	3d ff ff ff 7f	 cmp	 eax, 2147483647		; 7fffffffH
  01307	0f 87 ab 03 00
	00		 ja	 $LN826@Update

; 65   :             _Throw_bad_array_new_length(); // multiply overflow
; 66   :         }
; 67   :     }
; 68   : 
; 69   :     return _Count * _Ty_size;

  0130d	03 c0		 add	 eax, eax

; 237  :         if (_Bytes >= _Big_allocation_threshold) { // boost the alignment of big allocations to help autovectorization

  0130f	3d 00 10 00 00	 cmp	 eax, 4096		; 00001000H
  01314	72 0d		 jb	 SHORT $LN672@Update

; 238  :             return _Allocate_manually_vector_aligned<_Traits>(_Bytes);

  01316	50		 push	 eax
  01317	e8 00 00 00 00	 call	 ??$_Allocate_manually_vector_aligned@U_Default_allocate_traits@std@@@std@@YAPAXI@Z ; std::_Allocate_manually_vector_aligned<std::_Default_allocate_traits>
  0131c	83 c4 04	 add	 esp, 4
  0131f	8b f8		 mov	 edi, eax
  01321	eb 13		 jmp	 SHORT $LN671@Update
$LN672@Update:

; 239  :         }
; 240  :     }
; 241  : #endif // defined(_M_IX86) || defined(_M_X64)
; 242  : 
; 243  :     if (_Bytes != 0) {

  01323	85 c0		 test	 eax, eax
  01325	74 0d		 je	 SHORT $LN673@Update

; 85   :         return ::operator new(_Bytes);

  01327	50		 push	 eax
  01328	e8 00 00 00 00	 call	 ??2@YAPAXI@Z		; operator new
  0132d	83 c4 04	 add	 esp, 4

; 244  :         return _Traits::_Allocate(_Bytes);

  01330	8b f8		 mov	 edi, eax
  01332	eb 02		 jmp	 SHORT $LN671@Update
$LN673@Update:

; 245  :     }
; 246  : 
; 247  :     return nullptr;

  01334	33 ff		 xor	 edi, edi
$LN671@Update:
; File C:\Program Files (x86)\Microsoft Visual Studio\2019\Professional\VC\Tools\MSVC\14.29.30133\include\xstring

; 4524 :         _Mypair._Myval2._Myres  = _New_capacity;

  01336	89 b5 88 fa ff
	ff		 mov	 DWORD PTR _kHyperlink$9[ebp+24], esi

; 65   :         _CSTD memcpy(_First1, _First2, _Count * sizeof(_Elem));

  0133c	8d 34 1b	 lea	 esi, DWORD PTR [ebx+ebx]
  0133f	56		 push	 esi
  01340	ff b5 64 fa ff
	ff		 push	 DWORD PTR __Result$2$[ebp]

; 4523 :         _Mypair._Myval2._Mysize = _New_size;

  01346	89 9d 84 fa ff
	ff		 mov	 DWORD PTR _kHyperlink$9[ebp+20], ebx

; 65   :         _CSTD memcpy(_First1, _First2, _Count * sizeof(_Elem));

  0134c	57		 push	 edi
  0134d	e8 00 00 00 00	 call	 _memcpy

; 4526 :         if (_BUF_SIZE <= _Old_capacity) {

  01352	8b 95 6c fa ff
	ff		 mov	 edx, DWORD PTR __Old_capacity$1$[ebp]

; 3258 :                 _Traits::assign(_New_ptr[_Count], _Elem());

  01358	33 c0		 xor	 eax, eax

; 65   :         _CSTD memcpy(_First1, _First2, _Count * sizeof(_Elem));

  0135a	83 c4 0c	 add	 esp, 12			; 0000000cH

; 3258 :                 _Traits::assign(_New_ptr[_Count], _Elem());

  0135d	66 89 04 3e	 mov	 WORD PTR [esi+edi], ax

; 4526 :         if (_BUF_SIZE <= _Old_capacity) {

  01361	83 fa 08	 cmp	 edx, 8
  01364	72 35		 jb	 SHORT $LN654@Update
; File C:\Program Files (x86)\Microsoft Visual Studio\2019\Professional\VC\Tools\MSVC\14.29.30133\include\xmemory

; 835  :         _Deallocate<_New_alignof<_Ty>>(_Ptr, sizeof(_Ty) * _Count);

  01366	8b 8d 74 fa ff
	ff		 mov	 ecx, DWORD PTR _kHyperlink$9[ebp+4]
  0136c	8d 14 55 02 00
	00 00		 lea	 edx, DWORD PTR [edx*2+2]
  01373	8b c1		 mov	 eax, ecx

; 260  :         if (_Bytes >= _Big_allocation_threshold) { // boost the alignment of big allocations to help autovectorization

  01375	81 fa 00 10 00
	00		 cmp	 edx, 4096		; 00001000H
  0137b	72 14		 jb	 SHORT $LN696@Update

; 158  :     const uintptr_t _Ptr_container   = _Ptr_user[-1];

  0137d	8b 49 fc	 mov	 ecx, DWORD PTR [ecx-4]
  01380	83 c2 23	 add	 edx, 35			; 00000023H
  01383	2b c1		 sub	 eax, ecx

; 159  : 
; 160  :     // If the following asserts, it likely means that we are performing
; 161  :     // an aligned delete on memory coming from an unaligned allocation.
; 162  :     _STL_ASSERT(_Ptr_user[-2] == _Big_allocation_sentinel, "invalid argument");
; 163  : 
; 164  :     // Extra paranoia on aligned allocation/deallocation; ensure _Ptr_container is
; 165  :     // in range [_Min_back_shift, _Non_user_size]
; 166  : #ifdef _DEBUG
; 167  :     constexpr uintptr_t _Min_back_shift = 2 * sizeof(void*);
; 168  : #else // ^^^ _DEBUG ^^^ // vvv !_DEBUG vvv
; 169  :     constexpr uintptr_t _Min_back_shift = sizeof(void*);
; 170  : #endif // _DEBUG
; 171  :     const uintptr_t _Back_shift = reinterpret_cast<uintptr_t>(_Ptr) - _Ptr_container;
; 172  :     _STL_VERIFY(_Back_shift >= _Min_back_shift && _Back_shift <= _Non_user_size, "invalid argument");

  01385	83 c0 fc	 add	 eax, -4			; fffffffcH
  01388	83 f8 1f	 cmp	 eax, 31			; 0000001fH
  0138b	0f 87 31 03 00
	00		 ja	 $LN501@Update
$LN696@Update:

; 264  :         ::operator delete(_Ptr, _Bytes);

  01391	52		 push	 edx
  01392	51		 push	 ecx
  01393	e8 00 00 00 00	 call	 ??3@YAXPAXI@Z		; operator delete
  01398	83 c4 08	 add	 esp, 8
$LN654@Update:
; File C:\Program Files (x86)\Microsoft Visual Studio\2019\Professional\VC\Tools\MSVC\14.29.30133\include\vector

; 743  :         if (_Mylast != _My_data._Myend) {

  0139b	89 bd 74 fa ff
	ff		 mov	 DWORD PTR _kHyperlink$9[ebp+4], edi
$LN655@Update:
  013a1	8b 9d 60 fa ff
	ff		 mov	 ebx, DWORD PTR _this$GSCopy$1$[ebp]
  013a7	8d 8d 70 fa ff
	ff		 lea	 ecx, DWORD PTR _kHyperlink$9[ebp]
  013ad	83 c3 64	 add	 ebx, 100		; 00000064H
  013b0	51		 push	 ecx
  013b1	8b 43 04	 mov	 eax, DWORD PTR [ebx+4]
  013b4	50		 push	 eax
  013b5	3b 43 08	 cmp	 eax, DWORD PTR [ebx+8]
  013b8	74 0f		 je	 SHORT $LN705@Update

; 726  :         _Alty_traits::construct(_Getal(), _Unfancy(_Mylast), _STD forward<_Valty>(_Val)...);

  013ba	53		 push	 ebx
  013bb	e8 00 00 00 00	 call	 ??$construct@USHyperlink@CGraphicTextInstance@@ABU12@@?$_Default_allocator_traits@V?$allocator@USHyperlink@CGraphicTextInstance@@@std@@@std@@SAXAAV?$allocator@USHyperlink@CGraphicTextInstance@@@1@QAUSHyperlink@CGraphicTextInstance@@ABU34@@Z ; std::_Default_allocator_traits<std::allocator<CGraphicTextInstance::SHyperlink> >::construct<CGraphicTextInstance::SHyperlink,CGraphicTextInstance::SHyperlink const &>
  013c0	83 c4 0c	 add	 esp, 12			; 0000000cH

; 727  :         _Orphan_range(_Mylast, _Mylast);
; 728  :         _Ty& _Result = *_Mylast;
; 729  :         ++_Mylast;

  013c3	83 43 04 1c	 add	 DWORD PTR [ebx+4], 28	; 0000001cH

; 744  :             return _Emplace_back_with_unused_capacity(_STD forward<_Valty>(_Val)...);

  013c7	eb 07		 jmp	 SHORT $LN704@Update
$LN705@Update:

; 745  :         }
; 746  : 
; 747  :         _Ty& _Result = *_Emplace_reallocate(_Mylast, _STD forward<_Valty>(_Val)...);

  013c9	8b cb		 mov	 ecx, ebx
  013cb	e8 00 00 00 00	 call	 ??$_Emplace_reallocate@ABUSHyperlink@CGraphicTextInstance@@@?$vector@USHyperlink@CGraphicTextInstance@@V?$allocator@USHyperlink@CGraphicTextInstance@@@std@@@std@@QAEPAUSHyperlink@CGraphicTextInstance@@QAU23@ABU23@@Z ; std::vector<CGraphicTextInstance::SHyperlink,std::allocator<CGraphicTextInstance::SHyperlink> >::_Emplace_reallocate<CGraphicTextInstance::SHyperlink const &>
$LN704@Update:
; File C:\Program Files (x86)\Microsoft Visual Studio\2019\Professional\VC\Tools\MSVC\14.29.30133\include\xstring

; 3264 :         return assign(_Ptr, _Convert_size<size_type>(_Traits::length(_Ptr)));

  013d0	6a 00		 push	 0
  013d2	68 00 00 00 00	 push	 OFFSET ??_C@_11LOCGONAA@@
  013d7	8d 8d a4 fa ff
	ff		 lea	 ecx, DWORD PTR _hyperlinkBuffer$11[ebp]
; File C:\Users\murat\Desktop\Siveps2-1-99-Project\source\client\Client\EterLib\GrpTextInstance.cpp

; 511  : 								hyperlinkStep = 0;

  013dd	c7 85 64 fa ff
	ff 00 00 00 00	 mov	 DWORD PTR _hyperlinkStep$1$[ebp], 0
; File C:\Program Files (x86)\Microsoft Visual Studio\2019\Professional\VC\Tools\MSVC\14.29.30133\include\xstring

; 3264 :         return assign(_Ptr, _Convert_size<size_type>(_Traits::length(_Ptr)));

  013e7	e8 00 00 00 00	 call	 ?assign@?$basic_string@_WU?$char_traits@_W@std@@V?$allocator@_W@2@@std@@QAEAAV12@QB_WI@Z ; std::basic_string<wchar_t,std::char_traits<wchar_t>,std::allocator<wchar_t> >::assign
  013ec	66 8b 9d 72 fa
	ff ff		 mov	 bx, WORD PTR _kHyperlink$9[ebp+2]
  013f3	8b b5 88 fa ff
	ff		 mov	 esi, DWORD PTR _kHyperlink$9[ebp+24]
  013f9	89 b5 6c fa ff
	ff		 mov	 DWORD PTR __Old_capacity$1$[ebp], esi
  013ff	89 9d 5c fa ff
	ff		 mov	 DWORD PTR tv4647[ebp], ebx
  01405	e9 15 01 00 00	 jmp	 $LN98@Update
$LN94@Update:
; File C:\Users\murat\Desktop\Siveps2-1-99-Project\source\client\Client\EterLib\GrpTextInstance.cpp

; 443  : 						if (hyperlinkStep == 1)

  0140a	83 bd 64 fa ff
	ff 01		 cmp	 DWORD PTR _hyperlinkStep$1$[ebp], 1
  01411	0f b7 06	 movzx	 eax, WORD PTR [esi]
  01414	75 62		 jne	 SHORT $LN95@Update
; File C:\Program Files (x86)\Microsoft Visual Studio\2019\Professional\VC\Tools\MSVC\14.29.30133\include\xstring

; 3180 :         const size_type _Old_size = _Mypair._Myval2._Mysize;

  01416	8b b5 b8 fa ff
	ff		 mov	 esi, DWORD PTR _hyperlinkBuffer$11[ebp+20]
; File C:\Users\murat\Desktop\Siveps2-1-99-Project\source\client\Client\EterLib\GrpTextInstance.cpp

; 444  : 							hyperlinkBuffer.append(1, wText[i]);

  0141c	8b d0		 mov	 edx, eax
; File C:\Program Files (x86)\Microsoft Visual Studio\2019\Professional\VC\Tools\MSVC\14.29.30133\include\xstring

; 3180 :         const size_type _Old_size = _Mypair._Myval2._Mysize;

  0141e	8b 8d b4 fa ff
	ff		 mov	 ecx, DWORD PTR _hyperlinkBuffer$11[ebp+16]
  01424	8b c6		 mov	 eax, esi
  01426	2b c1		 sub	 eax, ecx

; 3181 :         if (_Count <= _Mypair._Myval2._Myres - _Old_size) {

  01428	83 f8 01	 cmp	 eax, 1
  0142b	72 29		 jb	 SHORT $LN554@Update

; 3182 :             _Mypair._Myval2._Mysize = _Old_size + _Count;

  0142d	8d 41 01	 lea	 eax, DWORD PTR [ecx+1]

; 2297 :         if (_Large_string_engaged()) {

  01430	83 fe 08	 cmp	 esi, 8

; 3182 :             _Mypair._Myval2._Mysize = _Old_size + _Count;

  01433	89 85 b4 fa ff
	ff		 mov	 DWORD PTR _hyperlinkBuffer$11[ebp+16], eax

; 2296 :         value_type* _Result = _Bx._Buf;

  01439	8d 85 a4 fa ff
	ff		 lea	 eax, DWORD PTR _hyperlinkBuffer$11[ebp]

; 2297 :         if (_Large_string_engaged()) {

  0143f	0f 43 85 a4 fa
	ff ff		 cmovae	 eax, DWORD PTR _hyperlinkBuffer$11[ebp]
; File C:\Program Files (x86)\Windows Kits\10\Include\10.0.19041.0\ucrt\wchar.h

; 261  :             *_Su = _C;

  01446	66 89 14 48	 mov	 WORD PTR [eax+ecx*2], dx
; File C:\Program Files (x86)\Microsoft Visual Studio\2019\Professional\VC\Tools\MSVC\14.29.30133\include\xstring

; 3185 :             _Traits::assign(_Old_ptr[_Old_size + _Count], _Elem());

  0144a	33 d2		 xor	 edx, edx
  0144c	66 89 54 48 02	 mov	 WORD PTR [eax+ecx*2+2], dx

; 3186 :             return *this;

  01451	e9 c3 00 00 00	 jmp	 $LN924@Update
$LN554@Update:

; 3187 :         }
; 3188 : 
; 3189 :         return _Reallocate_grow_by(

  01456	52		 push	 edx
  01457	6a 01		 push	 1
  01459	c6 85 10 fa ff
	ff 00		 mov	 BYTE PTR $T4[ebp], 0
  01460	8d 8d a4 fa ff
	ff		 lea	 ecx, DWORD PTR _hyperlinkBuffer$11[ebp]
  01466	ff b5 10 fa ff
	ff		 push	 DWORD PTR $T4[ebp]
  0146c	6a 01		 push	 1
  0146e	e8 00 00 00 00	 call	 ??$_Reallocate_grow_by@V<lambda_c3135ae829aeedc0a8af1bd1e887c66a>@@I_W@?$basic_string@_WU?$char_traits@_W@std@@V?$allocator@_W@2@@std@@AAEAAV01@IV<lambda_c3135ae829aeedc0a8af1bd1e887c66a>@@I_W@Z ; std::basic_string<wchar_t,std::char_traits<wchar_t>,std::allocator<wchar_t> >::_Reallocate_grow_by<<lambda_c3135ae829aeedc0a8af1bd1e887c66a>,unsigned int,wchar_t>
; File C:\Users\murat\Desktop\Siveps2-1-99-Project\source\client\Client\EterLib\GrpTextInstance.cpp

; 444  : 							hyperlinkBuffer.append(1, wText[i]);

  01473	e9 a1 00 00 00	 jmp	 $LN924@Update
$LN95@Update:

; 445  : #ifdef ENABLE_EMOJI_IN_TEXT
; 446  :                         else if (emojiStep == 1)

  01478	83 bd 58 fa ff
	ff 01		 cmp	 DWORD PTR _emojiStep$1$[ebp], 1
  0147f	8b c8		 mov	 ecx, eax
  01481	75 5c		 jne	 SHORT $LN97@Update
; File C:\Program Files (x86)\Microsoft Visual Studio\2019\Professional\VC\Tools\MSVC\14.29.30133\include\xstring

; 3180 :         const size_type _Old_size = _Mypair._Myval2._Mysize;

  01483	8b b5 a0 fa ff
	ff		 mov	 esi, DWORD PTR _emojiBuffer$10[ebp+20]
; File C:\Users\murat\Desktop\Siveps2-1-99-Project\source\client\Client\EterLib\GrpTextInstance.cpp

; 447  :                             emojiBuffer.append(1, wText[i]);

  01489	8b d1		 mov	 edx, ecx
; File C:\Program Files (x86)\Microsoft Visual Studio\2019\Professional\VC\Tools\MSVC\14.29.30133\include\xstring

; 3180 :         const size_type _Old_size = _Mypair._Myval2._Mysize;

  0148b	8b 8d 9c fa ff
	ff		 mov	 ecx, DWORD PTR _emojiBuffer$10[ebp+16]
  01491	8b c6		 mov	 eax, esi
  01493	2b c1		 sub	 eax, ecx

; 3181 :         if (_Count <= _Mypair._Myval2._Myres - _Old_size) {

  01495	83 f8 01	 cmp	 eax, 1
  01498	72 26		 jb	 SHORT $LN569@Update

; 3182 :             _Mypair._Myval2._Mysize = _Old_size + _Count;

  0149a	8d 41 01	 lea	 eax, DWORD PTR [ecx+1]

; 2297 :         if (_Large_string_engaged()) {

  0149d	83 fe 08	 cmp	 esi, 8

; 3182 :             _Mypair._Myval2._Mysize = _Old_size + _Count;

  014a0	89 85 9c fa ff
	ff		 mov	 DWORD PTR _emojiBuffer$10[ebp+16], eax

; 2296 :         value_type* _Result = _Bx._Buf;

  014a6	8d 85 8c fa ff
	ff		 lea	 eax, DWORD PTR _emojiBuffer$10[ebp]

; 2297 :         if (_Large_string_engaged()) {

  014ac	0f 43 85 8c fa
	ff ff		 cmovae	 eax, DWORD PTR _emojiBuffer$10[ebp]
; File C:\Program Files (x86)\Windows Kits\10\Include\10.0.19041.0\ucrt\wchar.h

; 261  :             *_Su = _C;

  014b3	66 89 14 48	 mov	 WORD PTR [eax+ecx*2], dx
; File C:\Program Files (x86)\Microsoft Visual Studio\2019\Professional\VC\Tools\MSVC\14.29.30133\include\xstring

; 3185 :             _Traits::assign(_Old_ptr[_Old_size + _Count], _Elem());

  014b7	33 d2		 xor	 edx, edx
  014b9	66 89 54 48 02	 mov	 WORD PTR [eax+ecx*2+2], dx

; 3186 :             return *this;

  014be	eb 59		 jmp	 SHORT $LN924@Update
$LN569@Update:

; 3187 :         }
; 3188 : 
; 3189 :         return _Reallocate_grow_by(

  014c0	52		 push	 edx
  014c1	6a 01		 push	 1
  014c3	c6 85 0c fa ff
	ff 00		 mov	 BYTE PTR $T3[ebp], 0
  014ca	8d 8d 8c fa ff
	ff		 lea	 ecx, DWORD PTR _emojiBuffer$10[ebp]
  014d0	ff b5 0c fa ff
	ff		 push	 DWORD PTR $T3[ebp]
  014d6	6a 01		 push	 1
  014d8	e8 00 00 00 00	 call	 ??$_Reallocate_grow_by@V<lambda_c3135ae829aeedc0a8af1bd1e887c66a>@@I_W@?$basic_string@_WU?$char_traits@_W@std@@V?$allocator@_W@2@@std@@AAEAAV01@IV<lambda_c3135ae829aeedc0a8af1bd1e887c66a>@@I_W@Z ; std::basic_string<wchar_t,std::char_traits<wchar_t>,std::allocator<wchar_t> >::_Reallocate_grow_by<<lambda_c3135ae829aeedc0a8af1bd1e887c66a>,unsigned int,wchar_t>
; File C:\Users\murat\Desktop\Siveps2-1-99-Project\source\client\Client\EterLib\GrpTextInstance.cpp

; 447  :                             emojiBuffer.append(1, wText[i]);

  014dd	eb 3a		 jmp	 SHORT $LN924@Update
$LN97@Update:

; 448  : #endif
; 449  : 						else
; 450  : 						{
; 451  : 							int charWidth = __DrawCharacter(pFontTexture, dataCodePage, wText[i], dwColor);

  014df	ff b5 68 fa ff
	ff		 push	 DWORD PTR _dwColor$1$[ebp]
  014e5	8b 85 44 fa ff
	ff		 mov	 eax, DWORD PTR _dataCodePage$1$[ebp]
  014eb	51		 push	 ecx
  014ec	8b 8d 60 fa ff
	ff		 mov	 ecx, DWORD PTR _this$GSCopy$1$[ebp]
  014f2	0f b7 c0	 movzx	 eax, ax
  014f5	50		 push	 eax
  014f6	ff b5 40 fa ff
	ff		 push	 DWORD PTR _pFontTexture$1$[ebp]
  014fc	e8 00 00 00 00	 call	 ?__DrawCharacter@CGraphicTextInstance@@IAEHPAVCGraphicFontTexture@@G_WK@Z ; CGraphicTextInstance::__DrawCharacter

; 452  : 							kHyperlink.ex += charWidth;

  01501	66 03 d8	 add	 bx, ax

; 453  : 							x += charWidth;

  01504	03 f8		 add	 edi, eax
  01506	89 bd 50 fa ff
	ff		 mov	 DWORD PTR _x$1$[ebp], edi
$LN925@Update:

; 512  : 								hyperlinkBuffer = L"";
; 513  : 							}
; 514  : 						}
; 515  : 					}
; 516  : 					i += len;

  0150c	66 89 9d 72 fa
	ff ff		 mov	 WORD PTR _kHyperlink$9[ebp+2], bx
  01513	89 9d 5c fa ff
	ff		 mov	 DWORD PTR tv4647[ebp], ebx
$LN924@Update:
  01519	8b b5 6c fa ff
	ff		 mov	 esi, DWORD PTR __Old_capacity$1$[ebp]
$LN98@Update:
  0151f	8b 8d 38 fa ff
	ff		 mov	 ecx, DWORD PTR _i$1$[ebp]
  01525	03 8d 08 fa ff
	ff		 add	 ecx, DWORD PTR _len$2[ebp]
  0152b	8b 85 54 fa ff
	ff		 mov	 eax, DWORD PTR _wTextLen$1$[ebp]
  01531	8b bd 50 fa ff
	ff		 mov	 edi, DWORD PTR _x$1$[ebp]
  01537	89 8d 38 fa ff
	ff		 mov	 DWORD PTR _i$1$[ebp], ecx
  0153d	3b c8		 cmp	 ecx, eax
  0153f	0f 8c db f9 ff
	ff		 jl	 $LL31@Update
  01545	8b 95 a0 fa ff
	ff		 mov	 edx, DWORD PTR _emojiBuffer$10[ebp+20]
$LN901@Update:

; 518  : 			}

  0154b	c6 45 fc 03	 mov	 BYTE PTR __$EHRec$[ebp+8], 3
; File C:\Program Files (x86)\Microsoft Visual Studio\2019\Professional\VC\Tools\MSVC\14.29.30133\include\xstring

; 4618 :         if (_Mypair._Myval2._Large_string_engaged()) {

  0154f	83 fa 08	 cmp	 edx, 8
  01552	72 35		 jb	 SHORT $LN727@Update
; File C:\Program Files (x86)\Microsoft Visual Studio\2019\Professional\VC\Tools\MSVC\14.29.30133\include\xmemory

; 835  :         _Deallocate<_New_alignof<_Ty>>(_Ptr, sizeof(_Ty) * _Count);

  01554	8b 8d 8c fa ff
	ff		 mov	 ecx, DWORD PTR _emojiBuffer$10[ebp]
  0155a	8d 14 55 02 00
	00 00		 lea	 edx, DWORD PTR [edx*2+2]
  01561	8b c1		 mov	 eax, ecx

; 260  :         if (_Bytes >= _Big_allocation_threshold) { // boost the alignment of big allocations to help autovectorization

  01563	81 fa 00 10 00
	00		 cmp	 edx, 4096		; 00001000H
  01569	72 14		 jb	 SHORT $LN737@Update

; 158  :     const uintptr_t _Ptr_container   = _Ptr_user[-1];

  0156b	8b 49 fc	 mov	 ecx, DWORD PTR [ecx-4]
  0156e	83 c2 23	 add	 edx, 35			; 00000023H
  01571	2b c1		 sub	 eax, ecx

; 159  : 
; 160  :     // If the following asserts, it likely means that we are performing
; 161  :     // an aligned delete on memory coming from an unaligned allocation.
; 162  :     _STL_ASSERT(_Ptr_user[-2] == _Big_allocation_sentinel, "invalid argument");
; 163  : 
; 164  :     // Extra paranoia on aligned allocation/deallocation; ensure _Ptr_container is
; 165  :     // in range [_Min_back_shift, _Non_user_size]
; 166  : #ifdef _DEBUG
; 167  :     constexpr uintptr_t _Min_back_shift = 2 * sizeof(void*);
; 168  : #else // ^^^ _DEBUG ^^^ // vvv !_DEBUG vvv
; 169  :     constexpr uintptr_t _Min_back_shift = sizeof(void*);
; 170  : #endif // _DEBUG
; 171  :     const uintptr_t _Back_shift = reinterpret_cast<uintptr_t>(_Ptr) - _Ptr_container;
; 172  :     _STL_VERIFY(_Back_shift >= _Min_back_shift && _Back_shift <= _Non_user_size, "invalid argument");

  01573	83 c0 fc	 add	 eax, -4			; fffffffcH
  01576	83 f8 1f	 cmp	 eax, 31			; 0000001fH
  01579	0f 87 43 01 00
	00		 ja	 $LN501@Update
$LN737@Update:

; 264  :         ::operator delete(_Ptr, _Bytes);

  0157f	52		 push	 edx
  01580	51		 push	 ecx
  01581	e8 00 00 00 00	 call	 ??3@YAXPAXI@Z		; operator delete
  01586	83 c4 08	 add	 esp, 8
$LN727@Update:
; File C:\Program Files (x86)\Microsoft Visual Studio\2019\Professional\VC\Tools\MSVC\14.29.30133\include\xstring

; 4618 :         if (_Mypair._Myval2._Large_string_engaged()) {

  01589	8b 95 b8 fa ff
	ff		 mov	 edx, DWORD PTR _hyperlinkBuffer$11[ebp+20]

; 4636 :             _Traits::assign(_Mypair._Myval2._Bx._Buf[0], _Elem());

  0158f	33 c0		 xor	 eax, eax
  01591	c7 85 9c fa ff
	ff 00 00 00 00	 mov	 DWORD PTR _emojiBuffer$10[ebp+16], 0
  0159b	c7 85 a0 fa ff
	ff 07 00 00 00	 mov	 DWORD PTR _emojiBuffer$10[ebp+20], 7
  015a5	66 89 85 8c fa
	ff ff		 mov	 WORD PTR _emojiBuffer$10[ebp], ax
; File C:\Users\murat\Desktop\Siveps2-1-99-Project\source\client\Client\EterLib\GrpTextInstance.cpp

; 518  : 			}

  015ac	c6 45 fc 02	 mov	 BYTE PTR __$EHRec$[ebp+8], 2
; File C:\Program Files (x86)\Microsoft Visual Studio\2019\Professional\VC\Tools\MSVC\14.29.30133\include\xstring

; 4618 :         if (_Mypair._Myval2._Large_string_engaged()) {

  015b0	83 fa 08	 cmp	 edx, 8
  015b3	72 35		 jb	 SHORT $LN754@Update
; File C:\Program Files (x86)\Microsoft Visual Studio\2019\Professional\VC\Tools\MSVC\14.29.30133\include\xmemory

; 835  :         _Deallocate<_New_alignof<_Ty>>(_Ptr, sizeof(_Ty) * _Count);

  015b5	8b 8d a4 fa ff
	ff		 mov	 ecx, DWORD PTR _hyperlinkBuffer$11[ebp]
  015bb	8d 14 55 02 00
	00 00		 lea	 edx, DWORD PTR [edx*2+2]
  015c2	8b c1		 mov	 eax, ecx

; 260  :         if (_Bytes >= _Big_allocation_threshold) { // boost the alignment of big allocations to help autovectorization

  015c4	81 fa 00 10 00
	00		 cmp	 edx, 4096		; 00001000H
  015ca	72 14		 jb	 SHORT $LN764@Update

; 158  :     const uintptr_t _Ptr_container   = _Ptr_user[-1];

  015cc	8b 49 fc	 mov	 ecx, DWORD PTR [ecx-4]
  015cf	83 c2 23	 add	 edx, 35			; 00000023H
  015d2	2b c1		 sub	 eax, ecx

; 159  : 
; 160  :     // If the following asserts, it likely means that we are performing
; 161  :     // an aligned delete on memory coming from an unaligned allocation.
; 162  :     _STL_ASSERT(_Ptr_user[-2] == _Big_allocation_sentinel, "invalid argument");
; 163  : 
; 164  :     // Extra paranoia on aligned allocation/deallocation; ensure _Ptr_container is
; 165  :     // in range [_Min_back_shift, _Non_user_size]
; 166  : #ifdef _DEBUG
; 167  :     constexpr uintptr_t _Min_back_shift = 2 * sizeof(void*);
; 168  : #else // ^^^ _DEBUG ^^^ // vvv !_DEBUG vvv
; 169  :     constexpr uintptr_t _Min_back_shift = sizeof(void*);
; 170  : #endif // _DEBUG
; 171  :     const uintptr_t _Back_shift = reinterpret_cast<uintptr_t>(_Ptr) - _Ptr_container;
; 172  :     _STL_VERIFY(_Back_shift >= _Min_back_shift && _Back_shift <= _Non_user_size, "invalid argument");

  015d4	83 c0 fc	 add	 eax, -4			; fffffffcH
  015d7	83 f8 1f	 cmp	 eax, 31			; 0000001fH
  015da	0f 87 e2 00 00
	00		 ja	 $LN501@Update
$LN764@Update:

; 264  :         ::operator delete(_Ptr, _Bytes);

  015e0	52		 push	 edx
  015e1	51		 push	 ecx
  015e2	e8 00 00 00 00	 call	 ??3@YAXPAXI@Z		; operator delete
  015e7	83 c4 08	 add	 esp, 8
$LN754@Update:
; File C:\Program Files (x86)\Microsoft Visual Studio\2019\Professional\VC\Tools\MSVC\14.29.30133\include\xstring

; 4636 :             _Traits::assign(_Mypair._Myval2._Bx._Buf[0], _Elem());

  015ea	33 c0		 xor	 eax, eax
  015ec	c7 85 b4 fa ff
	ff 00 00 00 00	 mov	 DWORD PTR _hyperlinkBuffer$11[ebp+16], 0
  015f6	c7 85 b8 fa ff
	ff 07 00 00 00	 mov	 DWORD PTR _hyperlinkBuffer$11[ebp+20], 7
  01600	66 89 85 a4 fa
	ff ff		 mov	 WORD PTR _hyperlinkBuffer$11[ebp], ax
; File C:\Users\murat\Desktop\Siveps2-1-99-Project\source\client\Client\EterLib\GrpTextInstance.cpp

; 518  : 			}

  01607	c7 45 fc ff ff
	ff ff		 mov	 DWORD PTR __$EHRec$[ebp+8], -1
; File C:\Program Files (x86)\Microsoft Visual Studio\2019\Professional\VC\Tools\MSVC\14.29.30133\include\xstring

; 2319 :         return _BUF_SIZE <= _Myres;

  0160e	83 fe 08	 cmp	 esi, 8

; 4618 :         if (_Mypair._Myval2._Large_string_engaged()) {

  01611	72 35		 jb	 SHORT $LN914@Update
; File C:\Program Files (x86)\Microsoft Visual Studio\2019\Professional\VC\Tools\MSVC\14.29.30133\include\xmemory

; 835  :         _Deallocate<_New_alignof<_Ty>>(_Ptr, sizeof(_Ty) * _Count);

  01613	8b 8d 74 fa ff
	ff		 mov	 ecx, DWORD PTR _kHyperlink$9[ebp+4]
  01619	8d 14 75 02 00
	00 00		 lea	 edx, DWORD PTR [esi*2+2]
  01620	8b c1		 mov	 eax, ecx

; 260  :         if (_Bytes >= _Big_allocation_threshold) { // boost the alignment of big allocations to help autovectorization

  01622	81 fa 00 10 00
	00		 cmp	 edx, 4096		; 00001000H
  01628	72 14		 jb	 SHORT $LN794@Update

; 158  :     const uintptr_t _Ptr_container   = _Ptr_user[-1];

  0162a	8b 49 fc	 mov	 ecx, DWORD PTR [ecx-4]
  0162d	83 c2 23	 add	 edx, 35			; 00000023H
  01630	2b c1		 sub	 eax, ecx

; 159  : 
; 160  :     // If the following asserts, it likely means that we are performing
; 161  :     // an aligned delete on memory coming from an unaligned allocation.
; 162  :     _STL_ASSERT(_Ptr_user[-2] == _Big_allocation_sentinel, "invalid argument");
; 163  : 
; 164  :     // Extra paranoia on aligned allocation/deallocation; ensure _Ptr_container is
; 165  :     // in range [_Min_back_shift, _Non_user_size]
; 166  : #ifdef _DEBUG
; 167  :     constexpr uintptr_t _Min_back_shift = 2 * sizeof(void*);
; 168  : #else // ^^^ _DEBUG ^^^ // vvv !_DEBUG vvv
; 169  :     constexpr uintptr_t _Min_back_shift = sizeof(void*);
; 170  : #endif // _DEBUG
; 171  :     const uintptr_t _Back_shift = reinterpret_cast<uintptr_t>(_Ptr) - _Ptr_container;
; 172  :     _STL_VERIFY(_Back_shift >= _Min_back_shift && _Back_shift <= _Non_user_size, "invalid argument");

  01632	83 c0 fc	 add	 eax, -4			; fffffffcH
  01635	83 f8 1f	 cmp	 eax, 31			; 0000001fH
  01638	0f 87 84 00 00
	00		 ja	 $LN501@Update
$LN794@Update:

; 264  :         ::operator delete(_Ptr, _Bytes);

  0163e	52		 push	 edx
  0163f	51		 push	 ecx
  01640	e8 00 00 00 00	 call	 ??3@YAXPAXI@Z		; operator delete
  01645	83 c4 08	 add	 esp, 8
$LN914@Update:
; File C:\Users\murat\Desktop\Siveps2-1-99-Project\source\client\Client\EterLib\GrpTextInstance.cpp

; 521  : 		if (token < end)

  01648	8b bd 68 fa ff
	ff		 mov	 edi, DWORD PTR _dwColor$1$[ebp]
$LN784@Update:
  0164e	8b 85 04 fa ff
	ff		 mov	 eax, DWORD PTR _token$1$[ebp]
  01654	3b 85 34 fa ff
	ff		 cmp	 eax, DWORD PTR _end$1$[ebp]
  0165a	73 20		 jae	 SHORT $LN920@Update

; 522  : 		{
; 523  : 			int newCodePage = ReadToken(token);

  0165c	50		 push	 eax

; 524  : 			dataCodePage = newCodePage;	//      UTF8    
; 525  : 			begin = token + 5;

  0165d	8d 70 05	 lea	 esi, DWORD PTR [eax+5]
  01660	e8 00 00 00 00	 call	 ?ReadToken@@YAHPBD@Z	; ReadToken
  01665	89 85 44 fa ff
	ff		 mov	 DWORD PTR _dataCodePage$1$[ebp], eax
  0166b	83 c4 04	 add	 esp, 4
  0166e	8b 85 34 fa ff
	ff		 mov	 eax, DWORD PTR _end$1$[ebp]
  01674	3b f0		 cmp	 esi, eax
  01676	0f 82 d6 ea ff
	ff		 jb	 $LL5@Update
$LN920@Update:

; 526  : 		}
; 527  : 		else
; 528  : 		{
; 529  : 			begin = token;
; 530  : 		}
; 531  : 	}
; 532  : 
; 533  : 	pFontTexture->UpdateTexture();

  0167c	8b 9d 60 fa ff
	ff		 mov	 ebx, DWORD PTR _this$GSCopy$1$[ebp]
$LN897@Update:
  01682	8b 8d 40 fa ff
	ff		 mov	 ecx, DWORD PTR _pFontTexture$1$[ebp]
  01688	e8 00 00 00 00	 call	 ?UpdateTexture@CGraphicFontTexture@@QAE_NXZ ; CGraphicFontTexture::UpdateTexture

; 534  : 
; 535  : 	m_isUpdate = true;

  0168d	c6 43 44 01	 mov	 BYTE PTR [ebx+68], 1
$LN1@Update:

; 536  : }

  01691	8d a5 ec f9 ff
	ff		 lea	 esp, DWORD PTR [ebp-1556]
  01697	8b 4d f4	 mov	 ecx, DWORD PTR __$EHRec$[ebp]
  0169a	64 89 0d 00 00
	00 00		 mov	 DWORD PTR fs:0, ecx
  016a1	59		 pop	 ecx
  016a2	5f		 pop	 edi
  016a3	5e		 pop	 esi
  016a4	5b		 pop	 ebx
  016a5	8b 4d f0	 mov	 ecx, DWORD PTR __$ArrayPad$[ebp]
  016a8	33 cd		 xor	 ecx, ebp
  016aa	e8 00 00 00 00	 call	 @__security_check_cookie@4
  016af	8b e5		 mov	 esp, ebp
  016b1	5d		 pop	 ebp
  016b2	c3		 ret	 0
$LN119@Update:

; 468  : 						retBuf[retLen] = '\0';

  016b3	e8 00 00 00 00	 call	 ___report_rangecheckfailure
$LN826@Update:

; 536  : }

  016b8	e8 00 00 00 00	 call	 ?_Throw_bad_array_new_length@std@@YAXXZ ; std::_Throw_bad_array_new_length
$LN825@Update:
  016bd	e8 00 00 00 00	 call	 ?_Xlen_string@std@@YAXXZ ; std::_Xlen_string
$LN501@Update:
  016c2	e8 00 00 00 00	 call	 __invalid_parameter_noinfo_noreturn
$LN922@Update:
  016c7	cc		 int	 3
_TEXT	ENDS
;	COMDAT text$x
text$x	SEGMENT
__unwindfunclet$?Update@CGraphicTextInstance@@QAEXXZ$0:
  00000	8d 8d bc fa ff
	ff		 lea	 ecx, DWORD PTR _kHyperlink$12[ebp]
  00006	e9 00 00 00 00	 jmp	 ??1SHyperlink@CGraphicTextInstance@@QAE@XZ
__unwindfunclet$?Update@CGraphicTextInstance@@QAEXXZ$1:
  0000b	8d 8d d8 fa ff
	ff		 lea	 ecx, DWORD PTR _hyperlinkBuffer$13[ebp]
  00011	e9 00 00 00 00	 jmp	 ??1?$basic_string@_WU?$char_traits@_W@std@@V?$allocator@_W@2@@std@@QAE@XZ ; std::basic_string<wchar_t,std::char_traits<wchar_t>,std::allocator<wchar_t> >::~basic_string<wchar_t,std::char_traits<wchar_t>,std::allocator<wchar_t> >
__unwindfunclet$?Update@CGraphicTextInstance@@QAEXXZ$2:
  00016	8d 8d 70 fa ff
	ff		 lea	 ecx, DWORD PTR _kHyperlink$9[ebp]
  0001c	e9 00 00 00 00	 jmp	 ??1SHyperlink@CGraphicTextInstance@@QAE@XZ
__unwindfunclet$?Update@CGraphicTextInstance@@QAEXXZ$3:
  00021	8d 8d a4 fa ff
	ff		 lea	 ecx, DWORD PTR _hyperlinkBuffer$11[ebp]
  00027	e9 00 00 00 00	 jmp	 ??1?$basic_string@_WU?$char_traits@_W@std@@V?$allocator@_W@2@@std@@QAE@XZ ; std::basic_string<wchar_t,std::char_traits<wchar_t>,std::allocator<wchar_t> >::~basic_string<wchar_t,std::char_traits<wchar_t>,std::allocator<wchar_t> >
__unwindfunclet$?Update@CGraphicTextInstance@@QAEXXZ$4:
  0002c	8d 8d 8c fa ff
	ff		 lea	 ecx, DWORD PTR _emojiBuffer$10[ebp]
  00032	e9 00 00 00 00	 jmp	 ??1?$basic_string@_WU?$char_traits@_W@std@@V?$allocator@_W@2@@std@@QAE@XZ ; std::basic_string<wchar_t,std::char_traits<wchar_t>,std::allocator<wchar_t> >::~basic_string<wchar_t,std::char_traits<wchar_t>,std::allocator<wchar_t> >
  00037	cc		 int	 3
  00038	cc		 int	 3
  00039	cc		 int	 3
  0003a	cc		 int	 3
  0003b	cc		 int	 3
__ehhandler$?Update@CGraphicTextInstance@@QAEXXZ:
  0003c	90		 npad	 1
  0003d	90		 npad	 1
  0003e	8b 54 24 08	 mov	 edx, DWORD PTR [esp+8]
  00042	8d 42 0c	 lea	 eax, DWORD PTR [edx+12]
  00045	8b 8a f8 f9 ff
	ff		 mov	 ecx, DWORD PTR [edx-1544]
  0004b	33 c8		 xor	 ecx, eax
  0004d	e8 00 00 00 00	 call	 @__security_check_cookie@4
  00052	8b 4a fc	 mov	 ecx, DWORD PTR [edx-4]
  00055	33 c8		 xor	 ecx, eax
  00057	e8 00 00 00 00	 call	 @__security_check_cookie@4
  0005c	b8 00 00 00 00	 mov	 eax, OFFSET __ehfuncinfo$?Update@CGraphicTextInstance@@QAEXXZ
  00061	e9 00 00 00 00	 jmp	 ___CxxFrameHandler3
text$x	ENDS
?Update@CGraphicTextInstance@@QAEXXZ ENDP		; CGraphicTextInstance::Update
; Function compile flags: /Ogtp
; File C:\Users\murat\Desktop\Siveps2-1-99-Project\source\client\Client\EterLib\GrpTextInstance.cpp
; File C:\Program Files (x86)\Microsoft Visual Studio\2019\Professional\VC\Tools\MSVC\14.29.30133\include\xstring
; File C:\Users\murat\Desktop\Siveps2-1-99-Project\source\client\Client\EterLib\GrpTextInstance.cpp
; File C:\Program Files (x86)\Microsoft Visual Studio\2019\Professional\VC\Tools\MSVC\14.29.30133\include\xstring
; File C:\Users\murat\Desktop\Siveps2-1-99-Project\source\client\Client\EterLib\GrpTextInstance.cpp
; File C:\Program Files (x86)\Microsoft Visual Studio\2019\Professional\VC\Tools\MSVC\14.29.30133\include\vector
; File C:\Program Files (x86)\Microsoft Visual Studio\2019\Professional\VC\Tools\MSVC\14.29.30133\include\xmemory
; File C:\Program Files (x86)\Microsoft Visual Studio\2019\Professional\VC\Tools\MSVC\14.29.30133\include\vector
; File C:\Users\murat\Desktop\Siveps2-1-99-Project\source\client\Client\EterLib\GrpTextInstance.cpp
; File C:\Program Files (x86)\Microsoft Visual Studio\2019\Professional\VC\Tools\MSVC\14.29.30133\include\vector
; File C:\Users\murat\Desktop\Siveps2-1-99-Project\source\client\Client\EterLib\GrpTextInstance.cpp
; File C:\Program Files (x86)\Microsoft Visual Studio\2019\Professional\VC\Tools\MSVC\14.29.30133\include\vector
; File C:\Users\murat\Desktop\Siveps2-1-99-Project\source\client\Client\EterLib\GrpTextInstance.cpp
;	COMDAT ?Destroy@CGraphicTextInstance@@QAEXXZ
_TEXT	SEGMENT
?Destroy@CGraphicTextInstance@@QAEXXZ PROC		; CGraphicTextInstance::Destroy, COMDAT
; _this$ = ecx

; 1208 : {

  00000	53		 push	 ebx
  00001	56		 push	 esi
  00002	57		 push	 edi
  00003	8b f9		 mov	 edi, ecx
; File C:\Program Files (x86)\Microsoft Visual Studio\2019\Professional\VC\Tools\MSVC\14.29.30133\include\xstring

; 3264 :         return assign(_Ptr, _Convert_size<size_type>(_Traits::length(_Ptr)));

  00005	6a 00		 push	 0
  00007	68 00 00 00 00	 push	 OFFSET ??_C@_00CNPNBAHC@@
; File C:\Users\murat\Desktop\Siveps2-1-99-Project\source\client\Client\EterLib\GrpTextInstance.cpp

; 1209 : 	m_stText="";

  0000c	8d 4f 20	 lea	 ecx, DWORD PTR [edi+32]
; File C:\Program Files (x86)\Microsoft Visual Studio\2019\Professional\VC\Tools\MSVC\14.29.30133\include\xstring

; 3264 :         return assign(_Ptr, _Convert_size<size_type>(_Traits::length(_Ptr)));

  0000f	e8 00 00 00 00	 call	 ?assign@?$basic_string@DU?$char_traits@D@std@@V?$allocator@D@2@@std@@QAEAAV12@QBDI@Z ; std::basic_string<char,std::char_traits<char>,std::allocator<char> >::assign
; File C:\Users\murat\Desktop\Siveps2-1-99-Project\source\client\Client\EterLib\GrpTextInstance.cpp

; 1210 : 	m_pCharInfoVector.clear();

  00014	8b 47 4c	 mov	 eax, DWORD PTR [edi+76]
  00017	89 47 50	 mov	 DWORD PTR [edi+80], eax

; 1211 : 	m_dwColorInfoVector.clear();

  0001a	8b 47 58	 mov	 eax, DWORD PTR [edi+88]
  0001d	89 47 5c	 mov	 DWORD PTR [edi+92], eax
; File C:\Program Files (x86)\Microsoft Visual Studio\2019\Professional\VC\Tools\MSVC\14.29.30133\include\vector

; 1455 :         _Destroy(_Myfirst, _Mylast);

  00020	8b 5f 68	 mov	 ebx, DWORD PTR [edi+104]
  00023	8b 77 64	 mov	 esi, DWORD PTR [edi+100]
; File C:\Program Files (x86)\Microsoft Visual Studio\2019\Professional\VC\Tools\MSVC\14.29.30133\include\xmemory

; 949  :         for (; _First != _Last; ++_First) {

  00026	3b f3		 cmp	 esi, ebx
  00028	74 17		 je	 SHORT $LN20@Destroy
  0002a	66 0f 1f 44 00
	00		 npad	 6
$LL21@Destroy:
  00030	8b ce		 mov	 ecx, esi
  00032	e8 00 00 00 00	 call	 ??1SHyperlink@CGraphicTextInstance@@QAE@XZ
  00037	83 c6 1c	 add	 esi, 28			; 0000001cH
  0003a	3b f3		 cmp	 esi, ebx
  0003c	75 f2		 jne	 SHORT $LL21@Destroy
  0003e	8b 77 64	 mov	 esi, DWORD PTR [edi+100]
$LN20@Destroy:
; File C:\Program Files (x86)\Microsoft Visual Studio\2019\Professional\VC\Tools\MSVC\14.29.30133\include\vector

; 1456 :         _Mylast = _Myfirst;

  00041	89 77 68	 mov	 DWORD PTR [edi+104], esi

; 1549 :         return static_cast<size_type>(_My_data._Mylast - _My_data._Myfirst);

  00044	8b 47 74	 mov	 eax, DWORD PTR [edi+116]
  00047	8b 4f 70	 mov	 ecx, DWORD PTR [edi+112]
  0004a	2b c1		 sub	 eax, ecx
; File C:\Users\murat\Desktop\Siveps2-1-99-Project\source\client\Client\EterLib\GrpTextInstance.cpp

; 1214 : 	if (m_emojiVector.size() != 0)

  0004c	a9 f8 ff ff ff	 test	 eax, -8			; fffffff8H
  00051	74 2f		 je	 SHORT $LN3@Destroy
; File C:\Program Files (x86)\Microsoft Visual Studio\2019\Professional\VC\Tools\MSVC\14.29.30133\include\vector

; 42   :     _CONSTEXPR20_CONTAINER _Vector_const_iterator(_Tptr _Parg, const _Container_base* _Pvector) noexcept : _Ptr(_Parg) {

  00053	8b f1		 mov	 esi, ecx
  00055	3b 77 74	 cmp	 esi, DWORD PTR [edi+116]
; File C:\Users\murat\Desktop\Siveps2-1-99-Project\source\client\Client\EterLib\GrpTextInstance.cpp

; 1216 : 		for (std::vector<SEmoji>::iterator itor = m_emojiVector.begin(); itor != m_emojiVector.end(); ++itor)

  00058	74 28		 je	 SHORT $LN3@Destroy
  0005a	66 0f 1f 44 00
	00		 npad	 6
$LL39@Destroy:

; 1217 : 		{
; 1218 : 			SEmoji & rEmo = *itor;
; 1219 : 			if (rEmo.pInstance)

  00060	8b 46 04	 mov	 eax, DWORD PTR [esi+4]
  00063	85 c0		 test	 eax, eax
  00065	74 10		 je	 SHORT $LN2@Destroy

; 1220 : 			{
; 1221 : 				CGraphicImageInstance::Delete(rEmo.pInstance);

  00067	50		 push	 eax
  00068	e8 00 00 00 00	 call	 ?Delete@CGraphicImageInstance@@SAXPAV1@@Z ; CGraphicImageInstance::Delete
  0006d	83 c4 04	 add	 esp, 4

; 1222 : 				rEmo.pInstance = NULL;

  00070	c7 46 04 00 00
	00 00		 mov	 DWORD PTR [esi+4], 0
$LN2@Destroy:
; File C:\Program Files (x86)\Microsoft Visual Studio\2019\Professional\VC\Tools\MSVC\14.29.30133\include\vector

; 78   :         ++_Ptr;

  00077	83 c6 08	 add	 esi, 8

; 154  :         return _Ptr == _Right._Ptr;

  0007a	3b 77 74	 cmp	 esi, DWORD PTR [edi+116]
; File C:\Users\murat\Desktop\Siveps2-1-99-Project\source\client\Client\EterLib\GrpTextInstance.cpp

; 1216 : 		for (std::vector<SEmoji>::iterator itor = m_emojiVector.begin(); itor != m_emojiVector.end(); ++itor)

  0007d	75 e1		 jne	 SHORT $LL39@Destroy

; 1222 : 				rEmo.pInstance = NULL;

  0007f	8b 4f 70	 mov	 ecx, DWORD PTR [edi+112]
$LN3@Destroy:

; 1223 : 			}
; 1224 : 		}
; 1225 : 	}
; 1226 : 	m_emojiVector.clear();

  00082	89 4f 74	 mov	 DWORD PTR [edi+116], ecx

; 1227 : #endif
; 1228 : 	__Initialize();

  00085	8b cf		 mov	 ecx, edi
  00087	5f		 pop	 edi
  00088	5e		 pop	 esi
  00089	5b		 pop	 ebx
  0008a	e9 00 00 00 00	 jmp	 ?__Initialize@CGraphicTextInstance@@IAEXXZ ; CGraphicTextInstance::__Initialize
?Destroy@CGraphicTextInstance@@QAEXXZ ENDP		; CGraphicTextInstance::Destroy
_TEXT	ENDS
; Function compile flags: /Ogtp
; File C:\Users\murat\Desktop\Siveps2-1-99-Project\source\client\Client\EterLib\GrpTextInstance.cpp
; File C:\Program Files (x86)\Microsoft Visual Studio\2019\Professional\VC\Tools\MSVC\14.29.30133\include\vector
; File C:\Program Files (x86)\Microsoft Visual Studio\2019\Professional\VC\Tools\MSVC\14.29.30133\include\xmemory
; File C:\Program Files (x86)\Microsoft Visual Studio\2019\Professional\VC\Tools\MSVC\14.29.30133\include\vector
; File C:\Program Files (x86)\Microsoft Visual Studio\2019\Professional\VC\Tools\MSVC\14.29.30133\include\xmemory
; File C:\Program Files (x86)\Microsoft Visual Studio\2019\Professional\VC\Tools\MSVC\14.29.30133\include\vector
; File C:\Users\murat\Desktop\Siveps2-1-99-Project\source\client\Client\EterLib\GrpTextInstance.cpp
; File C:\Program Files (x86)\Microsoft Visual Studio\2019\Professional\VC\Tools\MSVC\14.29.30133\include\vector
; File C:\Program Files (x86)\Microsoft Visual Studio\2019\Professional\VC\Tools\MSVC\14.29.30133\include\xmemory
; File C:\Program Files (x86)\Microsoft Visual Studio\2019\Professional\VC\Tools\MSVC\14.29.30133\include\vector
; File C:\Program Files (x86)\Microsoft Visual Studio\2019\Professional\VC\Tools\MSVC\14.29.30133\include\xmemory
; File C:\Program Files (x86)\Microsoft Visual Studio\2019\Professional\VC\Tools\MSVC\14.29.30133\include\vector
; File C:\Program Files (x86)\Microsoft Visual Studio\2019\Professional\VC\Tools\MSVC\14.29.30133\include\xmemory
; File C:\Program Files (x86)\Microsoft Visual Studio\2019\Professional\VC\Tools\MSVC\14.29.30133\include\vector
; File C:\Program Files (x86)\Microsoft Visual Studio\2019\Professional\VC\Tools\MSVC\14.29.30133\include\xmemory
; File C:\Program Files (x86)\Microsoft Visual Studio\2019\Professional\VC\Tools\MSVC\14.29.30133\include\vector
; File C:\Users\murat\Desktop\Siveps2-1-99-Project\source\client\Client\EterLib\Ref.h
; File C:\Program Files (x86)\Microsoft Visual Studio\2019\Professional\VC\Tools\MSVC\14.29.30133\include\xstring
; File C:\Program Files (x86)\Microsoft Visual Studio\2019\Professional\VC\Tools\MSVC\14.29.30133\include\xmemory
; File C:\Program Files (x86)\Microsoft Visual Studio\2019\Professional\VC\Tools\MSVC\14.29.30133\include\xstring
; File C:\Program Files (x86)\Microsoft Visual Studio\2019\Professional\VC\Tools\MSVC\14.29.30133\include\xmemory
; File C:\Program Files (x86)\Microsoft Visual Studio\2019\Professional\VC\Tools\MSVC\14.29.30133\include\xstring
; File C:\Users\murat\Desktop\Siveps2-1-99-Project\source\client\Client\EterLib\GrpTextInstance.cpp
; File C:\Program Files (x86)\Microsoft Visual Studio\2019\Professional\VC\Tools\MSVC\14.29.30133\include\xmemory
; File C:\Users\murat\Desktop\Siveps2-1-99-Project\source\client\Client\EterLib\GrpTextInstance.cpp
;	COMDAT ??1CGraphicTextInstance@@UAE@XZ
_TEXT	SEGMENT
__$EHRec$ = -12						; size = 12
??1CGraphicTextInstance@@UAE@XZ PROC			; CGraphicTextInstance::~CGraphicTextInstance, COMDAT
; _this$ = ecx

; 1237 : {

  00000	55		 push	 ebp
  00001	8b ec		 mov	 ebp, esp
  00003	6a ff		 push	 -1
  00005	68 00 00 00 00	 push	 __ehhandler$??1CGraphicTextInstance@@UAE@XZ
  0000a	64 a1 00 00 00
	00		 mov	 eax, DWORD PTR fs:0
  00010	50		 push	 eax
  00011	56		 push	 esi
  00012	57		 push	 edi
  00013	a1 00 00 00 00	 mov	 eax, DWORD PTR ___security_cookie
  00018	33 c5		 xor	 eax, ebp
  0001a	50		 push	 eax
  0001b	8d 45 f4	 lea	 eax, DWORD PTR __$EHRec$[ebp]
  0001e	64 a3 00 00 00
	00		 mov	 DWORD PTR fs:0, eax
  00024	8b f1		 mov	 esi, ecx
  00026	c7 06 00 00 00
	00		 mov	 DWORD PTR [esi], OFFSET ??_7CGraphicTextInstance@@6B@

; 1238 : 	Destroy();

  0002c	e8 00 00 00 00	 call	 ?Destroy@CGraphicTextInstance@@QAEXXZ ; CGraphicTextInstance::Destroy
; File C:\Program Files (x86)\Microsoft Visual Studio\2019\Professional\VC\Tools\MSVC\14.29.30133\include\vector

; 1763 :         if (_Myfirst) { // destroy and deallocate old array

  00031	8b 4e 70	 mov	 ecx, DWORD PTR [esi+112]
  00034	85 c9		 test	 ecx, ecx
  00036	74 4c		 je	 SHORT $LN6@CGraphicTe

; 1764 :             _Destroy(_Myfirst, _Mylast);
; 1765 :             _Getal().deallocate(_Myfirst, static_cast<size_type>(_Myend - _Myfirst));

  00038	8b 46 78	 mov	 eax, DWORD PTR [esi+120]
  0003b	2b c1		 sub	 eax, ecx
  0003d	c1 f8 03	 sar	 eax, 3
; File C:\Program Files (x86)\Microsoft Visual Studio\2019\Professional\VC\Tools\MSVC\14.29.30133\include\xmemory

; 835  :         _Deallocate<_New_alignof<_Ty>>(_Ptr, sizeof(_Ty) * _Count);

  00040	8d 14 c5 00 00
	00 00		 lea	 edx, DWORD PTR [eax*8]

; 260  :         if (_Bytes >= _Big_allocation_threshold) { // boost the alignment of big allocations to help autovectorization

  00047	81 fa 00 10 00
	00		 cmp	 edx, 4096		; 00001000H
  0004d	72 16		 jb	 SHORT $LN22@CGraphicTe

; 158  :     const uintptr_t _Ptr_container   = _Ptr_user[-1];

  0004f	8b 79 fc	 mov	 edi, DWORD PTR [ecx-4]
  00052	83 c2 23	 add	 edx, 35			; 00000023H

; 159  : 
; 160  :     // If the following asserts, it likely means that we are performing
; 161  :     // an aligned delete on memory coming from an unaligned allocation.
; 162  :     _STL_ASSERT(_Ptr_user[-2] == _Big_allocation_sentinel, "invalid argument");
; 163  : 
; 164  :     // Extra paranoia on aligned allocation/deallocation; ensure _Ptr_container is
; 165  :     // in range [_Min_back_shift, _Non_user_size]
; 166  : #ifdef _DEBUG
; 167  :     constexpr uintptr_t _Min_back_shift = 2 * sizeof(void*);
; 168  : #else // ^^^ _DEBUG ^^^ // vvv !_DEBUG vvv
; 169  :     constexpr uintptr_t _Min_back_shift = sizeof(void*);
; 170  : #endif // _DEBUG
; 171  :     const uintptr_t _Back_shift = reinterpret_cast<uintptr_t>(_Ptr) - _Ptr_container;

  00055	2b cf		 sub	 ecx, edi

; 172  :     _STL_VERIFY(_Back_shift >= _Min_back_shift && _Back_shift <= _Non_user_size, "invalid argument");

  00057	8d 41 fc	 lea	 eax, DWORD PTR [ecx-4]
  0005a	83 f8 1f	 cmp	 eax, 31			; 0000001fH
  0005d	0f 87 3c 01 00
	00		 ja	 $LN101@CGraphicTe

; 173  :     _Ptr = reinterpret_cast<void*>(_Ptr_container);

  00063	8b cf		 mov	 ecx, edi
$LN22@CGraphicTe:

; 264  :         ::operator delete(_Ptr, _Bytes);

  00065	52		 push	 edx
  00066	51		 push	 ecx
  00067	e8 00 00 00 00	 call	 ??3@YAXPAXI@Z		; operator delete
; File C:\Program Files (x86)\Microsoft Visual Studio\2019\Professional\VC\Tools\MSVC\14.29.30133\include\vector

; 1767 :             _Myfirst = nullptr;

  0006c	c7 46 70 00 00
	00 00		 mov	 DWORD PTR [esi+112], 0
; File C:\Program Files (x86)\Microsoft Visual Studio\2019\Professional\VC\Tools\MSVC\14.29.30133\include\xmemory

; 264  :         ::operator delete(_Ptr, _Bytes);

  00073	83 c4 08	 add	 esp, 8
; File C:\Program Files (x86)\Microsoft Visual Studio\2019\Professional\VC\Tools\MSVC\14.29.30133\include\vector

; 1768 :             _Mylast  = nullptr;

  00076	c7 46 74 00 00
	00 00		 mov	 DWORD PTR [esi+116], 0

; 1769 :             _Myend   = nullptr;

  0007d	c7 46 78 00 00
	00 00		 mov	 DWORD PTR [esi+120], 0
$LN6@CGraphicTe:
; File C:\Users\murat\Desktop\Siveps2-1-99-Project\source\client\Client\EterLib\GrpTextInstance.cpp

; 1239 : }

  00084	8d 4e 64	 lea	 ecx, DWORD PTR [esi+100]
  00087	e8 00 00 00 00	 call	 ??1?$vector@USHyperlink@CGraphicTextInstance@@V?$allocator@USHyperlink@CGraphicTextInstance@@@std@@@std@@QAE@XZ ; std::vector<CGraphicTextInstance::SHyperlink,std::allocator<CGraphicTextInstance::SHyperlink> >::~vector<CGraphicTextInstance::SHyperlink,std::allocator<CGraphicTextInstance::SHyperlink> >
; File C:\Program Files (x86)\Microsoft Visual Studio\2019\Professional\VC\Tools\MSVC\14.29.30133\include\vector

; 1763 :         if (_Myfirst) { // destroy and deallocate old array

  0008c	8b 4e 58	 mov	 ecx, DWORD PTR [esi+88]
  0008f	85 c9		 test	 ecx, ecx
  00091	74 4c		 je	 SHORT $LN31@CGraphicTe

; 1764 :             _Destroy(_Myfirst, _Mylast);
; 1765 :             _Getal().deallocate(_Myfirst, static_cast<size_type>(_Myend - _Myfirst));

  00093	8b 46 60	 mov	 eax, DWORD PTR [esi+96]
  00096	2b c1		 sub	 eax, ecx
  00098	c1 f8 02	 sar	 eax, 2
; File C:\Program Files (x86)\Microsoft Visual Studio\2019\Professional\VC\Tools\MSVC\14.29.30133\include\xmemory

; 835  :         _Deallocate<_New_alignof<_Ty>>(_Ptr, sizeof(_Ty) * _Count);

  0009b	8d 14 85 00 00
	00 00		 lea	 edx, DWORD PTR [eax*4]

; 260  :         if (_Bytes >= _Big_allocation_threshold) { // boost the alignment of big allocations to help autovectorization

  000a2	81 fa 00 10 00
	00		 cmp	 edx, 4096		; 00001000H
  000a8	72 16		 jb	 SHORT $LN47@CGraphicTe

; 158  :     const uintptr_t _Ptr_container   = _Ptr_user[-1];

  000aa	8b 79 fc	 mov	 edi, DWORD PTR [ecx-4]
  000ad	83 c2 23	 add	 edx, 35			; 00000023H

; 159  : 
; 160  :     // If the following asserts, it likely means that we are performing
; 161  :     // an aligned delete on memory coming from an unaligned allocation.
; 162  :     _STL_ASSERT(_Ptr_user[-2] == _Big_allocation_sentinel, "invalid argument");
; 163  : 
; 164  :     // Extra paranoia on aligned allocation/deallocation; ensure _Ptr_container is
; 165  :     // in range [_Min_back_shift, _Non_user_size]
; 166  : #ifdef _DEBUG
; 167  :     constexpr uintptr_t _Min_back_shift = 2 * sizeof(void*);
; 168  : #else // ^^^ _DEBUG ^^^ // vvv !_DEBUG vvv
; 169  :     constexpr uintptr_t _Min_back_shift = sizeof(void*);
; 170  : #endif // _DEBUG
; 171  :     const uintptr_t _Back_shift = reinterpret_cast<uintptr_t>(_Ptr) - _Ptr_container;

  000b0	2b cf		 sub	 ecx, edi

; 172  :     _STL_VERIFY(_Back_shift >= _Min_back_shift && _Back_shift <= _Non_user_size, "invalid argument");

  000b2	8d 41 fc	 lea	 eax, DWORD PTR [ecx-4]
  000b5	83 f8 1f	 cmp	 eax, 31			; 0000001fH
  000b8	0f 87 e1 00 00
	00		 ja	 $LN101@CGraphicTe

; 173  :     _Ptr = reinterpret_cast<void*>(_Ptr_container);

  000be	8b cf		 mov	 ecx, edi
$LN47@CGraphicTe:

; 264  :         ::operator delete(_Ptr, _Bytes);

  000c0	52		 push	 edx
  000c1	51		 push	 ecx
  000c2	e8 00 00 00 00	 call	 ??3@YAXPAXI@Z		; operator delete
; File C:\Program Files (x86)\Microsoft Visual Studio\2019\Professional\VC\Tools\MSVC\14.29.30133\include\vector

; 1767 :             _Myfirst = nullptr;

  000c7	c7 46 58 00 00
	00 00		 mov	 DWORD PTR [esi+88], 0
; File C:\Program Files (x86)\Microsoft Visual Studio\2019\Professional\VC\Tools\MSVC\14.29.30133\include\xmemory

; 264  :         ::operator delete(_Ptr, _Bytes);

  000ce	83 c4 08	 add	 esp, 8
; File C:\Program Files (x86)\Microsoft Visual Studio\2019\Professional\VC\Tools\MSVC\14.29.30133\include\vector

; 1768 :             _Mylast  = nullptr;

  000d1	c7 46 5c 00 00
	00 00		 mov	 DWORD PTR [esi+92], 0

; 1769 :             _Myend   = nullptr;

  000d8	c7 46 60 00 00
	00 00		 mov	 DWORD PTR [esi+96], 0
$LN31@CGraphicTe:

; 1763 :         if (_Myfirst) { // destroy and deallocate old array

  000df	8b 4e 4c	 mov	 ecx, DWORD PTR [esi+76]
  000e2	85 c9		 test	 ecx, ecx
  000e4	74 4c		 je	 SHORT $LN55@CGraphicTe

; 1764 :             _Destroy(_Myfirst, _Mylast);
; 1765 :             _Getal().deallocate(_Myfirst, static_cast<size_type>(_Myend - _Myfirst));

  000e6	8b 46 54	 mov	 eax, DWORD PTR [esi+84]
  000e9	2b c1		 sub	 eax, ecx
  000eb	c1 f8 02	 sar	 eax, 2
; File C:\Program Files (x86)\Microsoft Visual Studio\2019\Professional\VC\Tools\MSVC\14.29.30133\include\xmemory

; 835  :         _Deallocate<_New_alignof<_Ty>>(_Ptr, sizeof(_Ty) * _Count);

  000ee	8d 14 85 00 00
	00 00		 lea	 edx, DWORD PTR [eax*4]

; 260  :         if (_Bytes >= _Big_allocation_threshold) { // boost the alignment of big allocations to help autovectorization

  000f5	81 fa 00 10 00
	00		 cmp	 edx, 4096		; 00001000H
  000fb	72 16		 jb	 SHORT $LN71@CGraphicTe

; 158  :     const uintptr_t _Ptr_container   = _Ptr_user[-1];

  000fd	8b 79 fc	 mov	 edi, DWORD PTR [ecx-4]
  00100	83 c2 23	 add	 edx, 35			; 00000023H

; 159  : 
; 160  :     // If the following asserts, it likely means that we are performing
; 161  :     // an aligned delete on memory coming from an unaligned allocation.
; 162  :     _STL_ASSERT(_Ptr_user[-2] == _Big_allocation_sentinel, "invalid argument");
; 163  : 
; 164  :     // Extra paranoia on aligned allocation/deallocation; ensure _Ptr_container is
; 165  :     // in range [_Min_back_shift, _Non_user_size]
; 166  : #ifdef _DEBUG
; 167  :     constexpr uintptr_t _Min_back_shift = 2 * sizeof(void*);
; 168  : #else // ^^^ _DEBUG ^^^ // vvv !_DEBUG vvv
; 169  :     constexpr uintptr_t _Min_back_shift = sizeof(void*);
; 170  : #endif // _DEBUG
; 171  :     const uintptr_t _Back_shift = reinterpret_cast<uintptr_t>(_Ptr) - _Ptr_container;

  00103	2b cf		 sub	 ecx, edi

; 172  :     _STL_VERIFY(_Back_shift >= _Min_back_shift && _Back_shift <= _Non_user_size, "invalid argument");

  00105	8d 41 fc	 lea	 eax, DWORD PTR [ecx-4]
  00108	83 f8 1f	 cmp	 eax, 31			; 0000001fH
  0010b	0f 87 8e 00 00
	00		 ja	 $LN101@CGraphicTe

; 173  :     _Ptr = reinterpret_cast<void*>(_Ptr_container);

  00111	8b cf		 mov	 ecx, edi
$LN71@CGraphicTe:

; 264  :         ::operator delete(_Ptr, _Bytes);

  00113	52		 push	 edx
  00114	51		 push	 ecx
  00115	e8 00 00 00 00	 call	 ??3@YAXPAXI@Z		; operator delete
; File C:\Program Files (x86)\Microsoft Visual Studio\2019\Professional\VC\Tools\MSVC\14.29.30133\include\vector

; 1767 :             _Myfirst = nullptr;

  0011a	c7 46 4c 00 00
	00 00		 mov	 DWORD PTR [esi+76], 0
; File C:\Program Files (x86)\Microsoft Visual Studio\2019\Professional\VC\Tools\MSVC\14.29.30133\include\xmemory

; 264  :         ::operator delete(_Ptr, _Bytes);

  00121	83 c4 08	 add	 esp, 8
; File C:\Program Files (x86)\Microsoft Visual Studio\2019\Professional\VC\Tools\MSVC\14.29.30133\include\vector

; 1768 :             _Mylast  = nullptr;

  00124	c7 46 50 00 00
	00 00		 mov	 DWORD PTR [esi+80], 0

; 1769 :             _Myend   = nullptr;

  0012b	c7 46 54 00 00
	00 00		 mov	 DWORD PTR [esi+84], 0
$LN55@CGraphicTe:
; File C:\Users\murat\Desktop\Siveps2-1-99-Project\source\client\Client\EterLib\Ref.h

; 53   : 			if (m_pObject)

  00132	8b 4e 48	 mov	 ecx, DWORD PTR [esi+72]

; 37   : 		{

  00135	c7 45 fc 00 00
	00 00		 mov	 DWORD PTR __$EHRec$[ebp+8], 0

; 53   : 			if (m_pObject)

  0013c	85 c9		 test	 ecx, ecx
  0013e	74 0c		 je	 SHORT $LN80@CGraphicTe

; 54   : 			{
; 55   : 				m_pObject->Release();

  00140	e8 00 00 00 00	 call	 ?Release@CReferenceObject@@QAEXXZ ; CReferenceObject::Release

; 56   : 				m_pObject = NULL;

  00145	c7 46 48 00 00
	00 00		 mov	 DWORD PTR [esi+72], 0
$LN80@CGraphicTe:
; File C:\Program Files (x86)\Microsoft Visual Studio\2019\Professional\VC\Tools\MSVC\14.29.30133\include\xstring

; 2319 :         return _BUF_SIZE <= _Myres;

  0014c	8b 4e 34	 mov	 ecx, DWORD PTR [esi+52]
  0014f	83 f9 10	 cmp	 ecx, 16			; 00000010H

; 4618 :         if (_Mypair._Myval2._Large_string_engaged()) {

  00152	72 28		 jb	 SHORT $LN94@CGraphicTe
; File C:\Program Files (x86)\Microsoft Visual Studio\2019\Professional\VC\Tools\MSVC\14.29.30133\include\xmemory

; 835  :         _Deallocate<_New_alignof<_Ty>>(_Ptr, sizeof(_Ty) * _Count);

  00154	8b 46 20	 mov	 eax, DWORD PTR [esi+32]
; File C:\Program Files (x86)\Microsoft Visual Studio\2019\Professional\VC\Tools\MSVC\14.29.30133\include\xstring

; 4622 :             _Al.deallocate(_Ptr, _Mypair._Myval2._Myres + 1);

  00157	41		 inc	 ecx
; File C:\Program Files (x86)\Microsoft Visual Studio\2019\Professional\VC\Tools\MSVC\14.29.30133\include\xmemory

; 260  :         if (_Bytes >= _Big_allocation_threshold) { // boost the alignment of big allocations to help autovectorization

  00158	81 f9 00 10 00
	00		 cmp	 ecx, 4096		; 00001000H
  0015e	72 12		 jb	 SHORT $LN104@CGraphicTe

; 158  :     const uintptr_t _Ptr_container   = _Ptr_user[-1];

  00160	8b 50 fc	 mov	 edx, DWORD PTR [eax-4]
  00163	83 c1 23	 add	 ecx, 35			; 00000023H

; 159  : 
; 160  :     // If the following asserts, it likely means that we are performing
; 161  :     // an aligned delete on memory coming from an unaligned allocation.
; 162  :     _STL_ASSERT(_Ptr_user[-2] == _Big_allocation_sentinel, "invalid argument");
; 163  : 
; 164  :     // Extra paranoia on aligned allocation/deallocation; ensure _Ptr_container is
; 165  :     // in range [_Min_back_shift, _Non_user_size]
; 166  : #ifdef _DEBUG
; 167  :     constexpr uintptr_t _Min_back_shift = 2 * sizeof(void*);
; 168  : #else // ^^^ _DEBUG ^^^ // vvv !_DEBUG vvv
; 169  :     constexpr uintptr_t _Min_back_shift = sizeof(void*);
; 170  : #endif // _DEBUG
; 171  :     const uintptr_t _Back_shift = reinterpret_cast<uintptr_t>(_Ptr) - _Ptr_container;

  00166	2b c2		 sub	 eax, edx

; 172  :     _STL_VERIFY(_Back_shift >= _Min_back_shift && _Back_shift <= _Non_user_size, "invalid argument");

  00168	83 c0 fc	 add	 eax, -4			; fffffffcH
  0016b	83 f8 1f	 cmp	 eax, 31			; 0000001fH
  0016e	77 2f		 ja	 SHORT $LN101@CGraphicTe

; 173  :     _Ptr = reinterpret_cast<void*>(_Ptr_container);

  00170	8b c2		 mov	 eax, edx
$LN104@CGraphicTe:

; 264  :         ::operator delete(_Ptr, _Bytes);

  00172	51		 push	 ecx
  00173	50		 push	 eax
  00174	e8 00 00 00 00	 call	 ??3@YAXPAXI@Z		; operator delete
  00179	83 c4 08	 add	 esp, 8
$LN94@CGraphicTe:
; File C:\Program Files (x86)\Microsoft Visual Studio\2019\Professional\VC\Tools\MSVC\14.29.30133\include\xstring

; 4633 :             _Mypair._Myval2._Mysize = 0;

  0017c	c7 46 30 00 00
	00 00		 mov	 DWORD PTR [esi+48], 0

; 4634 :             _Mypair._Myval2._Myres  = _BUF_SIZE - 1;

  00183	c7 46 34 0f 00
	00 00		 mov	 DWORD PTR [esi+52], 15	; 0000000fH

; 4635 :             // the _Traits::assign is last so the codegen doesn't think the char write can alias this
; 4636 :             _Traits::assign(_Mypair._Myval2._Bx._Buf[0], _Elem());

  0018a	c6 46 20 00	 mov	 BYTE PTR [esi+32], 0
; File C:\Users\murat\Desktop\Siveps2-1-99-Project\source\client\Client\EterLib\GrpTextInstance.cpp

; 1239 : }

  0018e	8b 4d f4	 mov	 ecx, DWORD PTR __$EHRec$[ebp]
  00191	64 89 0d 00 00
	00 00		 mov	 DWORD PTR fs:0, ecx
  00198	59		 pop	 ecx
  00199	5f		 pop	 edi
  0019a	5e		 pop	 esi
  0019b	8b e5		 mov	 esp, ebp
  0019d	5d		 pop	 ebp
  0019e	c3		 ret	 0
$LN101@CGraphicTe:
; File C:\Program Files (x86)\Microsoft Visual Studio\2019\Professional\VC\Tools\MSVC\14.29.30133\include\xmemory

; 172  :     _STL_VERIFY(_Back_shift >= _Min_back_shift && _Back_shift <= _Non_user_size, "invalid argument");

  0019f	e8 00 00 00 00	 call	 __invalid_parameter_noinfo_noreturn
$LN110@CGraphicTe:
  001a4	cc		 int	 3
  001a5	cc		 int	 3
  001a6	cc		 int	 3
  001a7	cc		 int	 3
  001a8	cc		 int	 3
  001a9	cc		 int	 3
_TEXT	ENDS
;	COMDAT text$x
text$x	SEGMENT
__ehhandler$??1CGraphicTextInstance@@UAE@XZ:
  00000	90		 npad	 1
  00001	90		 npad	 1
  00002	8b 54 24 08	 mov	 edx, DWORD PTR [esp+8]
  00006	8d 42 0c	 lea	 eax, DWORD PTR [edx+12]
  00009	8b 4a f4	 mov	 ecx, DWORD PTR [edx-12]
  0000c	33 c8		 xor	 ecx, eax
  0000e	e8 00 00 00 00	 call	 @__security_check_cookie@4
  00013	b8 00 00 00 00	 mov	 eax, OFFSET __ehfuncinfo$??1CGraphicTextInstance@@UAE@XZ
  00018	e9 00 00 00 00	 jmp	 ___CxxFrameHandler3
text$x	ENDS
??1CGraphicTextInstance@@UAE@XZ ENDP			; CGraphicTextInstance::~CGraphicTextInstance
; Function compile flags: /Ogtp
; File C:\Users\murat\Desktop\Siveps2-1-99-Project\source\client\Client\EterLib\GrpTextInstance.cpp
; File C:\Program Files (x86)\Microsoft Visual Studio\2019\Professional\VC\Tools\MSVC\14.29.30133\include\xstring
; File C:\Users\murat\Desktop\Siveps2-1-99-Project\source\client\Client\EterLib\GrpTextInstance.cpp
; File C:\Users\murat\Desktop\Siveps2-1-99-Project\source\client\Client\EterLib\Ref.h
; File C:\Program Files (x86)\Microsoft Visual Studio\2019\Professional\VC\Tools\MSVC\14.29.30133\include\vector
; File C:\Users\murat\Desktop\Siveps2-1-99-Project\source\client\Client\EterLib\GrpTextInstance.cpp
;	COMDAT ??0CGraphicTextInstance@@QAE@XZ
_TEXT	SEGMENT
_this$ = -16						; size = 4
__$EHRec$ = -12						; size = 12
??0CGraphicTextInstance@@QAE@XZ PROC			; CGraphicTextInstance::CGraphicTextInstance, COMDAT
; _this$ = ecx

; 1232 : {

  00000	55		 push	 ebp
  00001	8b ec		 mov	 ebp, esp
  00003	6a ff		 push	 -1
  00005	68 00 00 00 00	 push	 __ehhandler$??0CGraphicTextInstance@@QAE@XZ
  0000a	64 a1 00 00 00
	00		 mov	 eax, DWORD PTR fs:0
  00010	50		 push	 eax
  00011	51		 push	 ecx
  00012	56		 push	 esi
  00013	a1 00 00 00 00	 mov	 eax, DWORD PTR ___security_cookie
  00018	33 c5		 xor	 eax, ebp
  0001a	50		 push	 eax
  0001b	8d 45 f4	 lea	 eax, DWORD PTR __$EHRec$[ebp]
  0001e	64 a3 00 00 00
	00		 mov	 DWORD PTR fs:0, eax
  00024	8b f1		 mov	 esi, ecx
  00026	89 75 f0	 mov	 DWORD PTR _this$[ebp], esi
  00029	c7 06 00 00 00
	00		 mov	 DWORD PTR [esi], OFFSET ??_7CGraphicTextInstance@@6B@
; File C:\Program Files (x86)\Microsoft Visual Studio\2019\Professional\VC\Tools\MSVC\14.29.30133\include\xstring

; 2346 :         _CONSTEXPR20_CONTAINER _Bxty() noexcept : _Ptr() {} // user-provided, for fancy pointers

  0002f	c7 46 20 00 00
	00 00		 mov	 DWORD PTR [esi+32], 0

; 4596 :         _My_data._Mysize = 0;

  00036	c7 46 30 00 00
	00 00		 mov	 DWORD PTR [esi+48], 0

; 4597 : 
; 4598 : #ifdef __cpp_lib_constexpr_string
; 4599 :         if (_STD is_constant_evaluated()) {
; 4600 :             _My_data._Myres        = _BUF_SIZE; // SSO disabled in constexpr context
; 4601 :             auto& _Al              = _Getal();
; 4602 :             const pointer _New_ptr = _Al.allocate(_BUF_SIZE + 1); // throws
; 4603 :             _My_data._Bx._Ptr      = _New_ptr;
; 4604 : 
; 4605 :             _Elem* const _Raw_new = _Unfancy(_New_ptr);
; 4606 :             _Traits::assign(_Raw_new, _BUF_SIZE + 1, _Elem());
; 4607 :         } else
; 4608 : #endif // __cpp_lib_constexpr_string
; 4609 :         {
; 4610 :             _My_data._Myres = _BUF_SIZE - 1;

  0003d	c7 46 34 0f 00
	00 00		 mov	 DWORD PTR [esi+52], 15	; 0000000fH

; 4611 :             // the _Traits::assign is last so the codegen doesn't think the char write can alias this
; 4612 :             _Traits::assign(_My_data._Bx._Buf[0], _Elem());

  00044	c6 46 20 00	 mov	 BYTE PTR [esi+32], 0
; File C:\Users\murat\Desktop\Siveps2-1-99-Project\source\client\Client\EterLib\GrpTextInstance.cpp

; 1232 : {

  00048	c7 45 fc 00 00
	00 00		 mov	 DWORD PTR __$EHRec$[ebp+8], 0
; File C:\Users\murat\Desktop\Siveps2-1-99-Project\source\client\Client\EterLib\Ref.h

; 20   : 		CRef() : m_pObject(NULL)

  0004f	c7 46 48 00 00
	00 00		 mov	 DWORD PTR [esi+72], 0
; File C:\Program Files (x86)\Microsoft Visual Studio\2019\Professional\VC\Tools\MSVC\14.29.30133\include\vector

; 401  :     _CONSTEXPR20_CONTAINER _Vector_val() noexcept : _Myfirst(), _Mylast(), _Myend() {}

  00056	c7 46 4c 00 00
	00 00		 mov	 DWORD PTR [esi+76], 0
  0005d	c7 46 50 00 00
	00 00		 mov	 DWORD PTR [esi+80], 0
  00064	c7 46 54 00 00
	00 00		 mov	 DWORD PTR [esi+84], 0
  0006b	c7 46 58 00 00
	00 00		 mov	 DWORD PTR [esi+88], 0
  00072	c7 46 5c 00 00
	00 00		 mov	 DWORD PTR [esi+92], 0
  00079	c7 46 60 00 00
	00 00		 mov	 DWORD PTR [esi+96], 0
  00080	c7 46 64 00 00
	00 00		 mov	 DWORD PTR [esi+100], 0
  00087	c7 46 68 00 00
	00 00		 mov	 DWORD PTR [esi+104], 0
  0008e	c7 46 6c 00 00
	00 00		 mov	 DWORD PTR [esi+108], 0
  00095	c7 46 70 00 00
	00 00		 mov	 DWORD PTR [esi+112], 0
  0009c	c7 46 74 00 00
	00 00		 mov	 DWORD PTR [esi+116], 0
  000a3	c7 46 78 00 00
	00 00		 mov	 DWORD PTR [esi+120], 0
; File C:\Users\murat\Desktop\Siveps2-1-99-Project\source\client\Client\EterLib\GrpTextInstance.cpp

; 1232 : {

  000aa	c6 45 fc 05	 mov	 BYTE PTR __$EHRec$[ebp+8], 5

; 1233 : 	__Initialize();

  000ae	e8 00 00 00 00	 call	 ?__Initialize@CGraphicTextInstance@@IAEXXZ ; CGraphicTextInstance::__Initialize

; 1234 : }

  000b3	8b c6		 mov	 eax, esi
  000b5	8b 4d f4	 mov	 ecx, DWORD PTR __$EHRec$[ebp]
  000b8	64 89 0d 00 00
	00 00		 mov	 DWORD PTR fs:0, ecx
  000bf	59		 pop	 ecx
  000c0	5e		 pop	 esi
  000c1	8b e5		 mov	 esp, ebp
  000c3	5d		 pop	 ebp
  000c4	c3		 ret	 0
_TEXT	ENDS
;	COMDAT text$x
text$x	SEGMENT
__unwindfunclet$??0CGraphicTextInstance@@QAE@XZ$0:
  00000	8b 4d f0	 mov	 ecx, DWORD PTR _this$[ebp]
  00003	83 c1 20	 add	 ecx, 32			; 00000020H
  00006	e9 00 00 00 00	 jmp	 ??1?$basic_string@DU?$char_traits@D@std@@V?$allocator@D@2@@std@@QAE@XZ ; std::basic_string<char,std::char_traits<char>,std::allocator<char> >::~basic_string<char,std::char_traits<char>,std::allocator<char> >
__unwindfunclet$??0CGraphicTextInstance@@QAE@XZ$1:
  0000b	8b 4d f0	 mov	 ecx, DWORD PTR _this$[ebp]
  0000e	83 c1 48	 add	 ecx, 72			; 00000048H
  00011	e9 00 00 00 00	 jmp	 ??1?$CRef@VCGraphicText@@@@QAE@XZ ; CRef<CGraphicText>::~CRef<CGraphicText>
__unwindfunclet$??0CGraphicTextInstance@@QAE@XZ$2:
  00016	8b 4d f0	 mov	 ecx, DWORD PTR _this$[ebp]
  00019	83 c1 4c	 add	 ecx, 76			; 0000004cH
  0001c	e9 00 00 00 00	 jmp	 ??1?$vector@PAUSCharacterInfomation@CGraphicFontTexture@@V?$allocator@PAUSCharacterInfomation@CGraphicFontTexture@@@std@@@std@@QAE@XZ ; std::vector<CGraphicFontTexture::SCharacterInfomation *,std::allocator<CGraphicFontTexture::SCharacterInfomation *> >::~vector<CGraphicFontTexture::SCharacterInfomation *,std::allocator<CGraphicFontTexture::SCharacterInfomation *> >
__unwindfunclet$??0CGraphicTextInstance@@QAE@XZ$3:
  00021	8b 4d f0	 mov	 ecx, DWORD PTR _this$[ebp]
  00024	83 c1 58	 add	 ecx, 88			; 00000058H
  00027	e9 00 00 00 00	 jmp	 ??1?$vector@KV?$allocator@K@std@@@std@@QAE@XZ ; std::vector<unsigned long,std::allocator<unsigned long> >::~vector<unsigned long,std::allocator<unsigned long> >
__unwindfunclet$??0CGraphicTextInstance@@QAE@XZ$4:
  0002c	8b 4d f0	 mov	 ecx, DWORD PTR _this$[ebp]
  0002f	83 c1 64	 add	 ecx, 100		; 00000064H
  00032	e9 00 00 00 00	 jmp	 ??1?$vector@USHyperlink@CGraphicTextInstance@@V?$allocator@USHyperlink@CGraphicTextInstance@@@std@@@std@@QAE@XZ ; std::vector<CGraphicTextInstance::SHyperlink,std::allocator<CGraphicTextInstance::SHyperlink> >::~vector<CGraphicTextInstance::SHyperlink,std::allocator<CGraphicTextInstance::SHyperlink> >
__unwindfunclet$??0CGraphicTextInstance@@QAE@XZ$5:
  00037	8b 4d f0	 mov	 ecx, DWORD PTR _this$[ebp]
  0003a	83 c1 70	 add	 ecx, 112		; 00000070H
  0003d	e9 00 00 00 00	 jmp	 ??1?$vector@USEmoji@CGraphicTextInstance@@V?$allocator@USEmoji@CGraphicTextInstance@@@std@@@std@@QAE@XZ ; std::vector<CGraphicTextInstance::SEmoji,std::allocator<CGraphicTextInstance::SEmoji> >::~vector<CGraphicTextInstance::SEmoji,std::allocator<CGraphicTextInstance::SEmoji> >
  00042	cc		 int	 3
  00043	cc		 int	 3
  00044	cc		 int	 3
  00045	cc		 int	 3
  00046	cc		 int	 3
__ehhandler$??0CGraphicTextInstance@@QAE@XZ:
  00047	90		 npad	 1
  00048	90		 npad	 1
  00049	8b 54 24 08	 mov	 edx, DWORD PTR [esp+8]
  0004d	8d 42 0c	 lea	 eax, DWORD PTR [edx+12]
  00050	8b 4a f4	 mov	 ecx, DWORD PTR [edx-12]
  00053	33 c8		 xor	 ecx, eax
  00055	e8 00 00 00 00	 call	 @__security_check_cookie@4
  0005a	b8 00 00 00 00	 mov	 eax, OFFSET __ehfuncinfo$??0CGraphicTextInstance@@QAE@XZ
  0005f	e9 00 00 00 00	 jmp	 ___CxxFrameHandler3
text$x	ENDS
??0CGraphicTextInstance@@QAE@XZ ENDP			; CGraphicTextInstance::CGraphicTextInstance
; Function compile flags: /Ogtp
; File C:\Users\murat\Desktop\Siveps2-1-99-Project\source\client\Client\EterLib\GrpTextInstance.cpp
; File C:\Program Files (x86)\Microsoft Visual Studio\2019\Professional\VC\Tools\MSVC\14.29.30133\include\xstring
; File C:\Users\murat\Desktop\Siveps2-1-99-Project\source\client\Client\EterLib\GrpTextInstance.cpp
; File C:\Program Files (x86)\Microsoft Visual Studio\2019\Professional\VC\Tools\MSVC\14.29.30133\include\xstring
; File C:\Users\murat\Desktop\Siveps2-1-99-Project\source\client\Client\EterLib\GrpTextInstance.cpp
; File C:\Program Files (x86)\Microsoft Visual Studio\2019\Professional\VC\Tools\MSVC\14.29.30133\include\xstring
; File C:\Users\murat\Desktop\Siveps2-1-99-Project\source\client\Client\EterLib\GrpTextInstance.cpp
;	COMDAT ?Hyperlink_GetText@CGraphicTextInstance@@SAHPADH@Z
_TEXT	SEGMENT
_buf$ = 8						; size = 4
_len$ = 12						; size = 4
?Hyperlink_GetText@CGraphicTextInstance@@SAHPADH@Z PROC	; CGraphicTextInstance::Hyperlink_GetText, COMDAT

; 32   : {

  00000	55		 push	 ebp
  00001	8b ec		 mov	 ebp, esp
; File C:\Program Files (x86)\Microsoft Visual Studio\2019\Professional\VC\Tools\MSVC\14.29.30133\include\xstring

; 4019 :         return size() == 0;

  00003	83 3d 10 00 00
	00 00		 cmp	 DWORD PTR ?gs_hyperlinkText@@3V?$basic_string@_WU?$char_traits@_W@std@@V?$allocator@_W@2@@std@@A+16, 0
; File C:\Users\murat\Desktop\Siveps2-1-99-Project\source\client\Client\EterLib\GrpTextInstance.cpp

; 33   : 	if (gs_hyperlinkText.empty())

  0000a	75 04		 jne	 SHORT $LN2@Hyperlink_

; 34   : 		return 0;

  0000c	33 c0		 xor	 eax, eax

; 39   : }

  0000e	5d		 pop	 ebp
  0000f	c3		 ret	 0
$LN2@Hyperlink_:

; 35   : 
; 36   : 	int codePage = GetDefaultCodePage();

  00010	e8 00 00 00 00	 call	 ?GetDefaultCodePage@@YAKXZ ; GetDefaultCodePage
; File C:\Program Files (x86)\Microsoft Visual Studio\2019\Professional\VC\Tools\MSVC\14.29.30133\include\xstring

; 2319 :         return _BUF_SIZE <= _Myres;

  00015	83 3d 14 00 00
	00 08		 cmp	 DWORD PTR ?gs_hyperlinkText@@3V?$basic_string@_WU?$char_traits@_W@std@@V?$allocator@_W@2@@std@@A+20, 8

; 2305 :         const value_type* _Result = _Bx._Buf;

  0001c	b9 00 00 00 00	 mov	 ecx, OFFSET ?gs_hyperlinkText@@3V?$basic_string@_WU?$char_traits@_W@std@@V?$allocator@_W@2@@std@@A
; File C:\Users\murat\Desktop\Siveps2-1-99-Project\source\client\Client\EterLib\GrpTextInstance.cpp

; 38   : 	return Ymir_WideCharToMultiByte(codePage, 0, gs_hyperlinkText.c_str(), gs_hyperlinkText.length(), buf, len, NULL, NULL);

  00021	6a 00		 push	 0
; File C:\Program Files (x86)\Microsoft Visual Studio\2019\Professional\VC\Tools\MSVC\14.29.30133\include\xstring

; 2306 :         if (_Large_string_engaged()) {

  00023	0f 43 0d 00 00
	00 00		 cmovae	 ecx, DWORD PTR ?gs_hyperlinkText@@3V?$basic_string@_WU?$char_traits@_W@std@@V?$allocator@_W@2@@std@@A
; File C:\Users\murat\Desktop\Siveps2-1-99-Project\source\client\Client\EterLib\GrpTextInstance.cpp

; 38   : 	return Ymir_WideCharToMultiByte(codePage, 0, gs_hyperlinkText.c_str(), gs_hyperlinkText.length(), buf, len, NULL, NULL);

  0002a	6a 00		 push	 0
  0002c	ff 75 0c	 push	 DWORD PTR _len$[ebp]
  0002f	ff 75 08	 push	 DWORD PTR _buf$[ebp]
  00032	ff 35 10 00 00
	00		 push	 DWORD PTR ?gs_hyperlinkText@@3V?$basic_string@_WU?$char_traits@_W@std@@V?$allocator@_W@2@@std@@A+16
  00038	51		 push	 ecx
  00039	6a 00		 push	 0
  0003b	50		 push	 eax
  0003c	e8 00 00 00 00	 call	 ?Ymir_WideCharToMultiByte@@YAHIKPB_WHPADHPBDPAH@Z ; Ymir_WideCharToMultiByte
  00041	83 c4 20	 add	 esp, 32			; 00000020H

; 39   : }

  00044	5d		 pop	 ebp
  00045	c3		 ret	 0
?Hyperlink_GetText@CGraphicTextInstance@@SAHPADH@Z ENDP	; CGraphicTextInstance::Hyperlink_GetText
_TEXT	ENDS
; Function compile flags: /Ogtp
; File C:\Users\murat\Desktop\Siveps2-1-99-Project\source\client\Client\EterLib\GrpTextInstance.cpp
; File C:\Program Files (x86)\Microsoft Visual Studio\2019\Professional\VC\Tools\MSVC\14.29.30133\include\xstring
; File C:\Users\murat\Desktop\Siveps2-1-99-Project\source\client\Client\EterLib\GrpTextInstance.cpp
; File C:\Program Files (x86)\Microsoft Visual Studio\2019\Professional\VC\Tools\MSVC\14.29.30133\include\xstring
; File C:\Users\murat\Desktop\Siveps2-1-99-Project\source\client\Client\EterLib\GrpTextInstance.cpp
; File C:\Program Files (x86)\Microsoft Visual Studio\2019\Professional\VC\Tools\MSVC\14.29.30133\include\xstring
; File C:\Users\murat\Desktop\Siveps2-1-99-Project\source\client\Client\EterLib\GrpTextInstance.cpp
;	COMDAT ?Hyperlink_UpdateMousePos@CGraphicTextInstance@@SAXHH@Z
_TEXT	SEGMENT
_x$ = 8							; size = 4
_y$ = 12						; size = 4
?Hyperlink_UpdateMousePos@CGraphicTextInstance@@SAXHH@Z PROC ; CGraphicTextInstance::Hyperlink_UpdateMousePos, COMDAT

; 25   : {

  00000	55		 push	 ebp
  00001	8b ec		 mov	 ebp, esp

; 26   : 	gs_mx = x;

  00003	8b 45 08	 mov	 eax, DWORD PTR _x$[ebp]
; File C:\Program Files (x86)\Microsoft Visual Studio\2019\Professional\VC\Tools\MSVC\14.29.30133\include\xstring

; 3264 :         return assign(_Ptr, _Convert_size<size_type>(_Traits::length(_Ptr)));

  00006	b9 00 00 00 00	 mov	 ecx, OFFSET ?gs_hyperlinkText@@3V?$basic_string@_WU?$char_traits@_W@std@@V?$allocator@_W@2@@std@@A
  0000b	6a 00		 push	 0
; File C:\Users\murat\Desktop\Siveps2-1-99-Project\source\client\Client\EterLib\GrpTextInstance.cpp

; 26   : 	gs_mx = x;

  0000d	a3 00 00 00 00	 mov	 DWORD PTR ?gs_mx@@3HA, eax

; 27   : 	gs_my = y;

  00012	8b 45 0c	 mov	 eax, DWORD PTR _y$[ebp]
; File C:\Program Files (x86)\Microsoft Visual Studio\2019\Professional\VC\Tools\MSVC\14.29.30133\include\xstring

; 3264 :         return assign(_Ptr, _Convert_size<size_type>(_Traits::length(_Ptr)));

  00015	68 00 00 00 00	 push	 OFFSET ??_C@_11LOCGONAA@@
; File C:\Users\murat\Desktop\Siveps2-1-99-Project\source\client\Client\EterLib\GrpTextInstance.cpp

; 27   : 	gs_my = y;

  0001a	a3 00 00 00 00	 mov	 DWORD PTR ?gs_my@@3HA, eax
; File C:\Program Files (x86)\Microsoft Visual Studio\2019\Professional\VC\Tools\MSVC\14.29.30133\include\xstring

; 3264 :         return assign(_Ptr, _Convert_size<size_type>(_Traits::length(_Ptr)));

  0001f	e8 00 00 00 00	 call	 ?assign@?$basic_string@_WU?$char_traits@_W@std@@V?$allocator@_W@2@@std@@QAEAAV12@QB_WI@Z ; std::basic_string<wchar_t,std::char_traits<wchar_t>,std::allocator<wchar_t> >::assign
; File C:\Users\murat\Desktop\Siveps2-1-99-Project\source\client\Client\EterLib\GrpTextInstance.cpp

; 29   : }

  00024	5d		 pop	 ebp
  00025	c3		 ret	 0
?Hyperlink_UpdateMousePos@CGraphicTextInstance@@SAXHH@Z ENDP ; CGraphicTextInstance::Hyperlink_UpdateMousePos
_TEXT	ENDS
; Function compile flags: /Ogtp
;	COMDAT ??0SPDTVertex@@QAE@XZ
_TEXT	SEGMENT
??0SPDTVertex@@QAE@XZ PROC				; SPDTVertex::SPDTVertex, COMDAT
; _this$ = ecx
  00000	8b c1		 mov	 eax, ecx
  00002	c3		 ret	 0
??0SPDTVertex@@QAE@XZ ENDP				; SPDTVertex::SPDTVertex
_TEXT	ENDS
; Function compile flags: /Ogtp
; File C:\Program Files (x86)\Microsoft Visual Studio\2019\Professional\VC\Tools\MSVC\14.29.30133\include\xmemory
;	COMDAT ??$_Allocate_manually_vector_aligned@U_Default_allocate_traits@std@@@std@@YAPAXI@Z
_TEXT	SEGMENT
__Bytes$ = 8						; size = 4
??$_Allocate_manually_vector_aligned@U_Default_allocate_traits@std@@@std@@YAPAXI@Z PROC ; std::_Allocate_manually_vector_aligned<std::_Default_allocate_traits>, COMDAT

; 134  : __declspec(allocator) void* _Allocate_manually_vector_aligned(const size_t _Bytes) {

  00000	55		 push	 ebp
  00001	8b ec		 mov	 ebp, esp

; 135  :     // allocate _Bytes manually aligned to at least _Big_allocation_alignment
; 136  :     const size_t _Block_size = _Non_user_size + _Bytes;

  00003	8b 45 08	 mov	 eax, DWORD PTR __Bytes$[ebp]
  00006	8d 48 23	 lea	 ecx, DWORD PTR [eax+35]

; 137  :     if (_Block_size <= _Bytes) {

  00009	3b c8		 cmp	 ecx, eax
  0000b	0f 86 00 00 00
	00		 jbe	 ?_Throw_bad_array_new_length@std@@YAXXZ ; std::_Throw_bad_array_new_length

; 85   :         return ::operator new(_Bytes);

  00011	51		 push	 ecx
  00012	e8 00 00 00 00	 call	 ??2@YAPAXI@Z		; operator new

; 138  :         _Throw_bad_array_new_length(); // add overflow
; 139  :     }
; 140  : 
; 141  :     const uintptr_t _Ptr_container = reinterpret_cast<uintptr_t>(_Traits::_Allocate(_Block_size));

  00017	8b c8		 mov	 ecx, eax

; 85   :         return ::operator new(_Bytes);

  00019	83 c4 04	 add	 esp, 4

; 142  :     _STL_VERIFY(_Ptr_container != 0, "invalid argument"); // validate even in release since we're doing p[-1]

  0001c	85 c9		 test	 ecx, ecx
  0001e	74 0b		 je	 SHORT $LN7@Allocate_m

; 143  :     void* const _Ptr = reinterpret_cast<void*>((_Ptr_container + _Non_user_size) & ~(_Big_allocation_alignment - 1));

  00020	8d 41 23	 lea	 eax, DWORD PTR [ecx+35]
  00023	83 e0 e0	 and	 eax, -32		; ffffffe0H

; 144  :     static_cast<uintptr_t*>(_Ptr)[-1] = _Ptr_container;

  00026	89 48 fc	 mov	 DWORD PTR [eax-4], ecx

; 145  : 
; 146  : #ifdef _DEBUG
; 147  :     static_cast<uintptr_t*>(_Ptr)[-2] = _Big_allocation_sentinel;
; 148  : #endif // _DEBUG
; 149  :     return _Ptr;
; 150  : }

  00029	5d		 pop	 ebp
  0002a	c3		 ret	 0
$LN7@Allocate_m:

; 142  :     _STL_VERIFY(_Ptr_container != 0, "invalid argument"); // validate even in release since we're doing p[-1]

  0002b	e9 00 00 00 00	 jmp	 __invalid_parameter_noinfo_noreturn
??$_Allocate_manually_vector_aligned@U_Default_allocate_traits@std@@@std@@YAPAXI@Z ENDP ; std::_Allocate_manually_vector_aligned<std::_Default_allocate_traits>
_TEXT	ENDS
; Function compile flags: /Ogtp
; File C:\Program Files (x86)\Microsoft Visual Studio\2019\Professional\VC\Tools\MSVC\14.29.30133\include\xstring
; File C:\Program Files (x86)\Microsoft Visual Studio\2019\Professional\VC\Tools\MSVC\14.29.30133\include\utility
; File C:\Program Files (x86)\Microsoft Visual Studio\2019\Professional\VC\Tools\MSVC\14.29.30133\include\xstring
; File C:\Program Files (x86)\Microsoft Visual Studio\2019\Professional\VC\Tools\MSVC\14.29.30133\include\utility
; File C:\Program Files (x86)\Microsoft Visual Studio\2019\Professional\VC\Tools\MSVC\14.29.30133\include\xstring
;	COMDAT ??$_Traits_compare@U?$char_traits@D@std@@@std@@YAHQBDI0I@Z
_TEXT	SEGMENT
__Left$ = 8						; size = 4
__Left_size$ = 12					; size = 4
__Right$ = 16						; size = 4
__Right_size$ = 20					; size = 4
??$_Traits_compare@U?$char_traits@D@std@@@std@@YAHQBDI0I@Z PROC ; std::_Traits_compare<std::char_traits<char> >, COMDAT

; 588  :     _In_reads_(_Right_size) const _Traits_ptr_t<_Traits> _Right, const size_t _Right_size) noexcept {

  00000	55		 push	 ebp
  00001	8b ec		 mov	 ebp, esp

; 392  :         return _CSTD memcmp(_First1, _First2, _Count);

  00003	8b 55 08	 mov	 edx, DWORD PTR __Left$[ebp]

; 588  :     _In_reads_(_Right_size) const _Traits_ptr_t<_Traits> _Right, const size_t _Right_size) noexcept {

  00006	53		 push	 ebx
; File C:\Program Files (x86)\Microsoft Visual Studio\2019\Professional\VC\Tools\MSVC\14.29.30133\include\utility

; 68   :     return _Right < _Left ? _Right : _Left;

  00007	8b 5d 14	 mov	 ebx, DWORD PTR __Right_size$[ebp]
; File C:\Program Files (x86)\Microsoft Visual Studio\2019\Professional\VC\Tools\MSVC\14.29.30133\include\xstring

; 588  :     _In_reads_(_Right_size) const _Traits_ptr_t<_Traits> _Right, const size_t _Right_size) noexcept {

  0000a	56		 push	 esi

; 392  :         return _CSTD memcmp(_First1, _First2, _Count);

  0000b	8b 75 10	 mov	 esi, DWORD PTR __Right$[ebp]

; 588  :     _In_reads_(_Right_size) const _Traits_ptr_t<_Traits> _Right, const size_t _Right_size) noexcept {

  0000e	57		 push	 edi
; File C:\Program Files (x86)\Microsoft Visual Studio\2019\Professional\VC\Tools\MSVC\14.29.30133\include\utility

; 68   :     return _Right < _Left ? _Right : _Left;

  0000f	8b 7d 0c	 mov	 edi, DWORD PTR __Left_size$[ebp]
  00012	3b df		 cmp	 ebx, edi
  00014	8b cf		 mov	 ecx, edi
  00016	0f 42 cb	 cmovb	 ecx, ebx
; File C:\Program Files (x86)\Microsoft Visual Studio\2019\Professional\VC\Tools\MSVC\14.29.30133\include\xstring

; 392  :         return _CSTD memcmp(_First1, _First2, _Count);

  00019	83 e9 04	 sub	 ecx, 4
  0001c	72 13		 jb	 SHORT $LN12@Traits_com
  0001e	66 90		 npad	 2
$LL13@Traits_com:
  00020	8b 02		 mov	 eax, DWORD PTR [edx]
  00022	3b 06		 cmp	 eax, DWORD PTR [esi]
  00024	75 10		 jne	 SHORT $LN11@Traits_com
  00026	83 c2 04	 add	 edx, 4
  00029	83 c6 04	 add	 esi, 4
  0002c	83 e9 04	 sub	 ecx, 4
  0002f	73 ef		 jae	 SHORT $LL13@Traits_com
$LN12@Traits_com:
  00031	83 f9 fc	 cmp	 ecx, -4			; fffffffcH
  00034	74 34		 je	 SHORT $LN10@Traits_com
$LN11@Traits_com:
  00036	8a 02		 mov	 al, BYTE PTR [edx]
  00038	3a 06		 cmp	 al, BYTE PTR [esi]
  0003a	75 27		 jne	 SHORT $LN14@Traits_com
  0003c	83 f9 fd	 cmp	 ecx, -3			; fffffffdH
  0003f	74 29		 je	 SHORT $LN10@Traits_com
  00041	8a 42 01	 mov	 al, BYTE PTR [edx+1]
  00044	3a 46 01	 cmp	 al, BYTE PTR [esi+1]
  00047	75 1a		 jne	 SHORT $LN14@Traits_com
  00049	83 f9 fe	 cmp	 ecx, -2			; fffffffeH
  0004c	74 1c		 je	 SHORT $LN10@Traits_com
  0004e	8a 42 02	 mov	 al, BYTE PTR [edx+2]
  00051	3a 46 02	 cmp	 al, BYTE PTR [esi+2]
  00054	75 0d		 jne	 SHORT $LN14@Traits_com
  00056	83 f9 ff	 cmp	 ecx, -1
  00059	74 0f		 je	 SHORT $LN10@Traits_com
  0005b	8a 42 03	 mov	 al, BYTE PTR [edx+3]
  0005e	3a 46 03	 cmp	 al, BYTE PTR [esi+3]
  00061	74 07		 je	 SHORT $LN10@Traits_com
$LN14@Traits_com:
  00063	1b c0		 sbb	 eax, eax
  00065	83 c8 01	 or	 eax, 1
  00068	eb 02		 jmp	 SHORT $LN15@Traits_com
$LN10@Traits_com:
  0006a	33 c0		 xor	 eax, eax
$LN15@Traits_com:

; 589  :     // compare [_Left, _Left + _Left_size) to [_Right, _Right + _Right_size) using _Traits
; 590  :     const int _Ans = _Traits::compare(_Left, _Right, (_STD min)(_Left_size, _Right_size));
; 591  : 
; 592  :     if (_Ans != 0) {

  0006c	85 c0		 test	 eax, eax
  0006e	75 10		 jne	 SHORT $LN4@Traits_com

; 593  :         return _Ans;
; 594  :     }
; 595  : 
; 596  :     if (_Left_size < _Right_size) {

  00070	3b df		 cmp	 ebx, edi
  00072	76 08		 jbe	 SHORT $LN16@Traits_com

; 601  :         return 1;
; 602  :     }
; 603  : 
; 604  :     return 0;
; 605  : }

  00074	5f		 pop	 edi
  00075	5e		 pop	 esi
  00076	83 c8 ff	 or	 eax, -1
  00079	5b		 pop	 ebx
  0007a	5d		 pop	 ebp
  0007b	c3		 ret	 0
$LN16@Traits_com:

; 597  :         return -1;
; 598  :     }
; 599  : 
; 600  :     if (_Left_size > _Right_size) {

  0007c	1b c0		 sbb	 eax, eax
  0007e	f7 d8		 neg	 eax
$LN4@Traits_com:

; 601  :         return 1;
; 602  :     }
; 603  : 
; 604  :     return 0;
; 605  : }

  00080	5f		 pop	 edi
  00081	5e		 pop	 esi
  00082	5b		 pop	 ebx
  00083	5d		 pop	 ebp
  00084	c3		 ret	 0
??$_Traits_compare@U?$char_traits@D@std@@@std@@YAHQBDI0I@Z ENDP ; std::_Traits_compare<std::char_traits<char> >
_TEXT	ENDS
; Function compile flags: /Ogtp
; File C:\Program Files (x86)\Microsoft Visual Studio\2019\Professional\VC\Tools\MSVC\14.29.30133\include\xstring
; File C:\Program Files (x86)\Microsoft Visual Studio\2019\Professional\VC\Tools\MSVC\14.29.30133\include\xmemory
; File C:\Program Files (x86)\Microsoft Visual Studio\2019\Professional\VC\Tools\MSVC\14.29.30133\include\xstring
; File C:\Program Files (x86)\Microsoft Visual Studio\2019\Professional\VC\Tools\MSVC\14.29.30133\include\xmemory
; File C:\Program Files (x86)\Microsoft Visual Studio\2019\Professional\VC\Tools\MSVC\14.29.30133\include\xstring
; File C:\Program Files (x86)\Microsoft Visual Studio\2019\Professional\VC\Tools\MSVC\14.29.30133\include\utility
; File C:\Program Files (x86)\Microsoft Visual Studio\2019\Professional\VC\Tools\MSVC\14.29.30133\include\xstring
; File C:\Program Files (x86)\Microsoft Visual Studio\2019\Professional\VC\Tools\MSVC\14.29.30133\include\xmemory
; File C:\Program Files (x86)\Microsoft Visual Studio\2019\Professional\VC\Tools\MSVC\14.29.30133\include\xstring
; File C:\Program Files (x86)\Microsoft Visual Studio\2019\Professional\VC\Tools\MSVC\14.29.30133\include\xmemory
; File C:\Program Files (x86)\Microsoft Visual Studio\2019\Professional\VC\Tools\MSVC\14.29.30133\include\xstring
; File C:\Program Files (x86)\Microsoft Visual Studio\2019\Professional\VC\Tools\MSVC\14.29.30133\include\xmemory
; File C:\Program Files (x86)\Microsoft Visual Studio\2019\Professional\VC\Tools\MSVC\14.29.30133\include\xstring
; File C:\Program Files (x86)\Microsoft Visual Studio\2019\Professional\VC\Tools\MSVC\14.29.30133\include\xmemory
; File C:\Program Files (x86)\Microsoft Visual Studio\2019\Professional\VC\Tools\MSVC\14.29.30133\include\xstring
;	COMDAT ?assign@?$basic_string@_WU?$char_traits@_W@std@@V?$allocator@_W@2@@std@@QAEAAV12@QB_WI@Z
_TEXT	SEGMENT
$T1 = -4						; size = 4
__Ptr$ = 8						; size = 4
__Result$1$ = 12					; size = 4
__Count$ = 12						; size = 4
?assign@?$basic_string@_WU?$char_traits@_W@std@@V?$allocator@_W@2@@std@@QAEAAV12@QB_WI@Z PROC ; std::basic_string<wchar_t,std::char_traits<wchar_t>,std::allocator<wchar_t> >::assign, COMDAT
; _this$ = ecx

; 3244 :         _In_reads_(_Count) const _Elem* const _Ptr, _CRT_GUARDOVERFLOW const size_type _Count) {

  00000	55		 push	 ebp
  00001	8b ec		 mov	 ebp, esp
  00003	51		 push	 ecx

; 3245 :         // assign [_Ptr, _Ptr + _Count)
; 3246 :         if (_Count <= _Mypair._Myval2._Myres) {

  00004	8b 45 0c	 mov	 eax, DWORD PTR __Count$[ebp]
  00007	53		 push	 ebx
  00008	56		 push	 esi
  00009	57		 push	 edi
  0000a	8b f9		 mov	 edi, ecx
  0000c	8b 5f 14	 mov	 ebx, DWORD PTR [edi+20]
  0000f	3b c3		 cmp	 eax, ebx
  00011	77 34		 ja	 SHORT $LN2@assign

; 2296 :         value_type* _Result = _Bx._Buf;

  00013	89 7d 0c	 mov	 DWORD PTR __Result$1$[ebp], edi

; 2319 :         return _BUF_SIZE <= _Myres;

  00016	83 fb 08	 cmp	 ebx, 8

; 2297 :         if (_Large_string_engaged()) {

  00019	72 05		 jb	 SHORT $LN5@assign

; 2298 :             _Result = _Unfancy(_Bx._Ptr);

  0001b	8b 0f		 mov	 ecx, DWORD PTR [edi]
  0001d	89 4d 0c	 mov	 DWORD PTR __Result$1$[ebp], ecx
$LN5@assign:

; 122  :         _CSTD memmove(_First1, _First2, _Count * sizeof(_Elem));

  00020	8d 34 00	 lea	 esi, DWORD PTR [eax+eax]

; 3247 :             _Elem* const _Old_ptr   = _Mypair._Myval2._Myptr();
; 3248 :             _Mypair._Myval2._Mysize = _Count;

  00023	89 47 10	 mov	 DWORD PTR [edi+16], eax

; 122  :         _CSTD memmove(_First1, _First2, _Count * sizeof(_Elem));

  00026	56		 push	 esi
  00027	ff 75 08	 push	 DWORD PTR __Ptr$[ebp]
  0002a	51		 push	 ecx
  0002b	e8 00 00 00 00	 call	 _memmove

; 3249 :             _Traits::move(_Old_ptr, _Ptr, _Count);
; 3250 :             _Traits::assign(_Old_ptr[_Count], _Elem());

  00030	8b 45 0c	 mov	 eax, DWORD PTR __Result$1$[ebp]

; 122  :         _CSTD memmove(_First1, _First2, _Count * sizeof(_Elem));

  00033	83 c4 0c	 add	 esp, 12			; 0000000cH

; 3249 :             _Traits::move(_Old_ptr, _Ptr, _Count);
; 3250 :             _Traits::assign(_Old_ptr[_Count], _Elem());

  00036	33 c9		 xor	 ecx, ecx
  00038	66 89 0c 06	 mov	 WORD PTR [esi+eax], cx

; 3261 :     }

  0003c	8b c7		 mov	 eax, edi
  0003e	5f		 pop	 edi
  0003f	5e		 pop	 esi
  00040	5b		 pop	 ebx
  00041	8b e5		 mov	 esp, ebp
  00043	5d		 pop	 ebp
  00044	c2 08 00	 ret	 8
$LN2@assign:

; 4508 :         if (_New_size > max_size()) {

  00047	3d fe ff ff 7f	 cmp	 eax, 2147483646		; 7ffffffeH
  0004c	0f 87 f8 00 00
	00		 ja	 $LN64@assign

; 4488 :         const size_type _Masked = _Requested | _ALLOC_MASK;

  00052	8b f0		 mov	 esi, eax
  00054	83 ce 07	 or	 esi, 7
  00057	81 fe fe ff ff
	7f		 cmp	 esi, 2147483646		; 7ffffffeH

; 4489 :         if (_Masked > _Max) { // the mask overflows, settle for max_size()

  0005d	76 17		 jbe	 SHORT $LN19@assign

; 4490 :             return _Max;

  0005f	b8 fe ff ff ff	 mov	 eax, -2			; fffffffeH
  00064	be fe ff ff 7f	 mov	 esi, 2147483646		; 7ffffffeH
; File C:\Program Files (x86)\Microsoft Visual Studio\2019\Professional\VC\Tools\MSVC\14.29.30133\include\xmemory

; 238  :             return _Allocate_manually_vector_aligned<_Traits>(_Bytes);

  00069	50		 push	 eax
  0006a	e8 00 00 00 00	 call	 ??$_Allocate_manually_vector_aligned@U_Default_allocate_traits@std@@@std@@YAPAXI@Z ; std::_Allocate_manually_vector_aligned<std::_Default_allocate_traits>
  0006f	83 c4 04	 add	 esp, 4
  00072	8b c8		 mov	 ecx, eax
  00074	eb 68		 jmp	 SHORT $LN62@assign
$LN19@assign:
; File C:\Program Files (x86)\Microsoft Visual Studio\2019\Professional\VC\Tools\MSVC\14.29.30133\include\xstring

; 4493 :         if (_Old > _Max - _Old / 2) { // similarly, geometric overflows

  00076	8b cb		 mov	 ecx, ebx
  00078	b8 fe ff ff 7f	 mov	 eax, 2147483646		; 7ffffffeH
  0007d	d1 e9		 shr	 ecx, 1
  0007f	2b c1		 sub	 eax, ecx
  00081	3b d8		 cmp	 ebx, eax
  00083	76 17		 jbe	 SHORT $LN20@assign

; 4494 :             return _Max;

  00085	b8 fe ff ff ff	 mov	 eax, -2			; fffffffeH
  0008a	be fe ff ff 7f	 mov	 esi, 2147483646		; 7ffffffeH
; File C:\Program Files (x86)\Microsoft Visual Studio\2019\Professional\VC\Tools\MSVC\14.29.30133\include\xmemory

; 238  :             return _Allocate_manually_vector_aligned<_Traits>(_Bytes);

  0008f	50		 push	 eax
  00090	e8 00 00 00 00	 call	 ??$_Allocate_manually_vector_aligned@U_Default_allocate_traits@std@@@std@@YAPAXI@Z ; std::_Allocate_manually_vector_aligned<std::_Default_allocate_traits>
  00095	83 c4 04	 add	 esp, 4
  00098	8b c8		 mov	 ecx, eax
  0009a	eb 42		 jmp	 SHORT $LN62@assign
$LN20@assign:
; File C:\Program Files (x86)\Microsoft Visual Studio\2019\Professional\VC\Tools\MSVC\14.29.30133\include\xstring

; 4497 :         return (_STD max)(_Masked, _Old + _Old / 2);

  0009c	8d 04 19	 lea	 eax, DWORD PTR [ecx+ebx]
; File C:\Program Files (x86)\Microsoft Visual Studio\2019\Professional\VC\Tools\MSVC\14.29.30133\include\utility

; 44   :     return _Left < _Right ? _Right : _Left;

  0009f	3b f0		 cmp	 esi, eax
  000a1	0f 42 f0	 cmovb	 esi, eax
; File C:\Program Files (x86)\Microsoft Visual Studio\2019\Professional\VC\Tools\MSVC\14.29.30133\include\xstring

; 4515 :         const pointer _New_ptr        = _Al.allocate(_New_capacity + 1); // throws

  000a4	8d 46 01	 lea	 eax, DWORD PTR [esi+1]
; File C:\Program Files (x86)\Microsoft Visual Studio\2019\Professional\VC\Tools\MSVC\14.29.30133\include\xmemory

; 64   :         if (_Count > _Max_possible) {

  000a7	3d ff ff ff 7f	 cmp	 eax, 2147483647		; 7fffffffH
  000ac	0f 87 9d 00 00
	00		 ja	 $LN65@assign

; 66   :         }
; 67   :     }
; 68   : 
; 69   :     return _Count * _Ty_size;

  000b2	03 c0		 add	 eax, eax

; 237  :         if (_Bytes >= _Big_allocation_threshold) { // boost the alignment of big allocations to help autovectorization

  000b4	3d 00 10 00 00	 cmp	 eax, 4096		; 00001000H
  000b9	72 0d		 jb	 SHORT $LN31@assign

; 238  :             return _Allocate_manually_vector_aligned<_Traits>(_Bytes);

  000bb	50		 push	 eax
  000bc	e8 00 00 00 00	 call	 ??$_Allocate_manually_vector_aligned@U_Default_allocate_traits@std@@@std@@YAPAXI@Z ; std::_Allocate_manually_vector_aligned<std::_Default_allocate_traits>
  000c1	83 c4 04	 add	 esp, 4
  000c4	8b c8		 mov	 ecx, eax
  000c6	eb 16		 jmp	 SHORT $LN62@assign
$LN31@assign:

; 239  :         }
; 240  :     }
; 241  : #endif // defined(_M_IX86) || defined(_M_X64)
; 242  : 
; 243  :     if (_Bytes != 0) {

  000c8	85 c0		 test	 eax, eax
  000ca	74 10		 je	 SHORT $LN32@assign

; 85   :         return ::operator new(_Bytes);

  000cc	50		 push	 eax
  000cd	e8 00 00 00 00	 call	 ??2@YAPAXI@Z		; operator new
  000d2	83 c4 04	 add	 esp, 4

; 244  :         return _Traits::_Allocate(_Bytes);

  000d5	89 45 fc	 mov	 DWORD PTR $T1[ebp], eax
  000d8	8b c8		 mov	 ecx, eax
  000da	eb 05		 jmp	 SHORT $LN30@assign
$LN32@assign:

; 245  :     }
; 246  : 
; 247  :     return nullptr;

  000dc	33 c9		 xor	 ecx, ecx
$LN62@assign:
; File C:\Program Files (x86)\Microsoft Visual Studio\2019\Professional\VC\Tools\MSVC\14.29.30133\include\xstring

; 4523 :         _Mypair._Myval2._Mysize = _New_size;

  000de	89 4d fc	 mov	 DWORD PTR $T1[ebp], ecx
$LN30@assign:
  000e1	8b 45 0c	 mov	 eax, DWORD PTR __Count$[ebp]

; 4524 :         _Mypair._Myval2._Myres  = _New_capacity;

  000e4	89 77 14	 mov	 DWORD PTR [edi+20], esi
  000e7	89 47 10	 mov	 DWORD PTR [edi+16], eax

; 65   :         _CSTD memcpy(_First1, _First2, _Count * sizeof(_Elem));

  000ea	8d 34 00	 lea	 esi, DWORD PTR [eax+eax]
  000ed	56		 push	 esi
  000ee	ff 75 08	 push	 DWORD PTR __Ptr$[ebp]
  000f1	51		 push	 ecx
  000f2	e8 00 00 00 00	 call	 _memcpy

; 3258 :                 _Traits::assign(_New_ptr[_Count], _Elem());

  000f7	8b 45 fc	 mov	 eax, DWORD PTR $T1[ebp]
  000fa	33 c9		 xor	 ecx, ecx

; 65   :         _CSTD memcpy(_First1, _First2, _Count * sizeof(_Elem));

  000fc	83 c4 0c	 add	 esp, 12			; 0000000cH

; 3258 :                 _Traits::assign(_New_ptr[_Count], _Elem());

  000ff	66 89 0c 06	 mov	 WORD PTR [esi+eax], cx

; 4526 :         if (_BUF_SIZE <= _Old_capacity) {

  00103	83 fb 08	 cmp	 ebx, 8
  00106	72 30		 jb	 SHORT $LN13@assign
; File C:\Program Files (x86)\Microsoft Visual Studio\2019\Professional\VC\Tools\MSVC\14.29.30133\include\xmemory

; 835  :         _Deallocate<_New_alignof<_Ty>>(_Ptr, sizeof(_Ty) * _Count);

  00108	8b 07		 mov	 eax, DWORD PTR [edi]
  0010a	8d 1c 5d 02 00
	00 00		 lea	 ebx, DWORD PTR [ebx*2+2]

; 260  :         if (_Bytes >= _Big_allocation_threshold) { // boost the alignment of big allocations to help autovectorization

  00111	81 fb 00 10 00
	00		 cmp	 ebx, 4096		; 00001000H
  00117	72 12		 jb	 SHORT $LN55@assign

; 158  :     const uintptr_t _Ptr_container   = _Ptr_user[-1];

  00119	8b 48 fc	 mov	 ecx, DWORD PTR [eax-4]
  0011c	83 c3 23	 add	 ebx, 35			; 00000023H

; 159  : 
; 160  :     // If the following asserts, it likely means that we are performing
; 161  :     // an aligned delete on memory coming from an unaligned allocation.
; 162  :     _STL_ASSERT(_Ptr_user[-2] == _Big_allocation_sentinel, "invalid argument");
; 163  : 
; 164  :     // Extra paranoia on aligned allocation/deallocation; ensure _Ptr_container is
; 165  :     // in range [_Min_back_shift, _Non_user_size]
; 166  : #ifdef _DEBUG
; 167  :     constexpr uintptr_t _Min_back_shift = 2 * sizeof(void*);
; 168  : #else // ^^^ _DEBUG ^^^ // vvv !_DEBUG vvv
; 169  :     constexpr uintptr_t _Min_back_shift = sizeof(void*);
; 170  : #endif // _DEBUG
; 171  :     const uintptr_t _Back_shift = reinterpret_cast<uintptr_t>(_Ptr) - _Ptr_container;

  0011f	2b c1		 sub	 eax, ecx

; 172  :     _STL_VERIFY(_Back_shift >= _Min_back_shift && _Back_shift <= _Non_user_size, "invalid argument");

  00121	83 c0 fc	 add	 eax, -4			; fffffffcH
  00124	83 f8 1f	 cmp	 eax, 31			; 0000001fH
  00127	77 1c		 ja	 SHORT $LN52@assign

; 173  :     _Ptr = reinterpret_cast<void*>(_Ptr_container);

  00129	8b c1		 mov	 eax, ecx
$LN55@assign:

; 264  :         ::operator delete(_Ptr, _Bytes);

  0012b	53		 push	 ebx
  0012c	50		 push	 eax
  0012d	e8 00 00 00 00	 call	 ??3@YAXPAXI@Z		; operator delete
  00132	8b 45 fc	 mov	 eax, DWORD PTR $T1[ebp]
  00135	83 c4 08	 add	 esp, 8
$LN13@assign:
; File C:\Program Files (x86)\Microsoft Visual Studio\2019\Professional\VC\Tools\MSVC\14.29.30133\include\xstring

; 3254 :         return _Reallocate_for(

  00138	89 07		 mov	 DWORD PTR [edi], eax

; 3261 :     }

  0013a	8b c7		 mov	 eax, edi
  0013c	5f		 pop	 edi
  0013d	5e		 pop	 esi
  0013e	5b		 pop	 ebx
  0013f	8b e5		 mov	 esp, ebp
  00141	5d		 pop	 ebp
  00142	c2 08 00	 ret	 8
$LN52@assign:
; File C:\Program Files (x86)\Microsoft Visual Studio\2019\Professional\VC\Tools\MSVC\14.29.30133\include\xmemory

; 172  :     _STL_VERIFY(_Back_shift >= _Min_back_shift && _Back_shift <= _Non_user_size, "invalid argument");

  00145	e8 00 00 00 00	 call	 __invalid_parameter_noinfo_noreturn
$LN64@assign:
; File C:\Program Files (x86)\Microsoft Visual Studio\2019\Professional\VC\Tools\MSVC\14.29.30133\include\xstring

; 4509 :             _Xlen_string(); // result too long

  0014a	e8 00 00 00 00	 call	 ?_Xlen_string@std@@YAXXZ ; std::_Xlen_string
$LN65@assign:
; File C:\Program Files (x86)\Microsoft Visual Studio\2019\Professional\VC\Tools\MSVC\14.29.30133\include\xmemory

; 65   :             _Throw_bad_array_new_length(); // multiply overflow

  0014f	e8 00 00 00 00	 call	 ?_Throw_bad_array_new_length@std@@YAXXZ ; std::_Throw_bad_array_new_length
$LN60@assign:
  00154	cc		 int	 3
?assign@?$basic_string@_WU?$char_traits@_W@std@@V?$allocator@_W@2@@std@@QAEAAV12@QB_WI@Z ENDP ; std::basic_string<wchar_t,std::char_traits<wchar_t>,std::allocator<wchar_t> >::assign
_TEXT	ENDS
; Function compile flags: /Ogtp
; File C:\Program Files (x86)\Microsoft Visual Studio\2019\Professional\VC\Tools\MSVC\14.29.30133\include\xstring
;	COMDAT ??4?$basic_string@_WU?$char_traits@_W@std@@V?$allocator@_W@2@@std@@QAEAAV01@ABV01@@Z
_TEXT	SEGMENT
__Right$ = 8						; size = 4
??4?$basic_string@_WU?$char_traits@_W@std@@V?$allocator@_W@2@@std@@QAEAAV01@ABV01@@Z PROC ; std::basic_string<wchar_t,std::char_traits<wchar_t>,std::allocator<wchar_t> >::operator=, COMDAT
; _this$ = ecx

; 3076 :     _CONSTEXPR20_CONTAINER basic_string& operator=(const basic_string& _Right) {

  00000	55		 push	 ebp
  00001	8b ec		 mov	 ebp, esp

; 3077 :         if (this != _STD addressof(_Right)) {

  00003	8b 45 08	 mov	 eax, DWORD PTR __Right$[ebp]
  00006	56		 push	 esi
  00007	8b f1		 mov	 esi, ecx
  00009	3b f0		 cmp	 esi, eax
  0000b	74 15		 je	 SHORT $LN11@operator

; 2319 :         return _BUF_SIZE <= _Myres;

  0000d	83 78 14 08	 cmp	 DWORD PTR [eax+20], 8

; 2305 :         const value_type* _Result = _Bx._Buf;

  00011	8b c8		 mov	 ecx, eax

; 2306 :         if (_Large_string_engaged()) {

  00013	72 02		 jb	 SHORT $LN7@operator

; 2307 :             _Result = _Unfancy(_Bx._Ptr);

  00015	8b 08		 mov	 ecx, DWORD PTR [eax]
$LN7@operator:

; 3035 :         assign(_Right._Mypair._Myval2._Myptr(), _Right._Mypair._Myval2._Mysize);

  00017	ff 70 10	 push	 DWORD PTR [eax+16]
  0001a	51		 push	 ecx
  0001b	8b ce		 mov	 ecx, esi
  0001d	e8 00 00 00 00	 call	 ?assign@?$basic_string@_WU?$char_traits@_W@std@@V?$allocator@_W@2@@std@@QAEAAV12@QB_WI@Z ; std::basic_string<wchar_t,std::char_traits<wchar_t>,std::allocator<wchar_t> >::assign
$LN11@operator:

; 3078 :             _Copy_assign(_Right, _Choose_pocca<_Alty>{});
; 3079 :         }
; 3080 : 
; 3081 :         return *this;
; 3082 :     }

  00022	8b c6		 mov	 eax, esi
  00024	5e		 pop	 esi
  00025	5d		 pop	 ebp
  00026	c2 04 00	 ret	 4
??4?$basic_string@_WU?$char_traits@_W@std@@V?$allocator@_W@2@@std@@QAEAAV01@ABV01@@Z ENDP ; std::basic_string<wchar_t,std::char_traits<wchar_t>,std::allocator<wchar_t> >::operator=
_TEXT	ENDS
; Function compile flags: /Ogtp
; File C:\Program Files (x86)\Microsoft Visual Studio\2019\Professional\VC\Tools\MSVC\14.29.30133\include\xstring
; File C:\Program Files (x86)\Microsoft Visual Studio\2019\Professional\VC\Tools\MSVC\14.29.30133\include\xmemory
; File C:\Program Files (x86)\Microsoft Visual Studio\2019\Professional\VC\Tools\MSVC\14.29.30133\include\xstring
; File C:\Program Files (x86)\Microsoft Visual Studio\2019\Professional\VC\Tools\MSVC\14.29.30133\include\xmemory
; File C:\Program Files (x86)\Microsoft Visual Studio\2019\Professional\VC\Tools\MSVC\14.29.30133\include\xstring
;	COMDAT ??1?$basic_string@_WU?$char_traits@_W@std@@V?$allocator@_W@2@@std@@QAE@XZ
_TEXT	SEGMENT
??1?$basic_string@_WU?$char_traits@_W@std@@V?$allocator@_W@2@@std@@QAE@XZ PROC ; std::basic_string<wchar_t,std::char_traits<wchar_t>,std::allocator<wchar_t> >::~basic_string<wchar_t,std::char_traits<wchar_t>,std::allocator<wchar_t> >, COMDAT
; _this$ = ecx

; 3002 :     _CONSTEXPR20_CONTAINER ~basic_string() noexcept {

  00000	56		 push	 esi
  00001	8b f1		 mov	 esi, ecx

; 2319 :         return _BUF_SIZE <= _Myres;

  00003	8b 4e 14	 mov	 ecx, DWORD PTR [esi+20]
  00006	83 f9 08	 cmp	 ecx, 8

; 4618 :         if (_Mypair._Myval2._Large_string_engaged()) {

  00009	72 2d		 jb	 SHORT $LN12@basic_stri
; File C:\Program Files (x86)\Microsoft Visual Studio\2019\Professional\VC\Tools\MSVC\14.29.30133\include\xmemory

; 835  :         _Deallocate<_New_alignof<_Ty>>(_Ptr, sizeof(_Ty) * _Count);

  0000b	8b 06		 mov	 eax, DWORD PTR [esi]
  0000d	8d 0c 4d 02 00
	00 00		 lea	 ecx, DWORD PTR [ecx*2+2]

; 260  :         if (_Bytes >= _Big_allocation_threshold) { // boost the alignment of big allocations to help autovectorization

  00014	81 f9 00 10 00
	00		 cmp	 ecx, 4096		; 00001000H
  0001a	72 12		 jb	 SHORT $LN22@basic_stri

; 158  :     const uintptr_t _Ptr_container   = _Ptr_user[-1];

  0001c	8b 50 fc	 mov	 edx, DWORD PTR [eax-4]
  0001f	83 c1 23	 add	 ecx, 35			; 00000023H

; 159  : 
; 160  :     // If the following asserts, it likely means that we are performing
; 161  :     // an aligned delete on memory coming from an unaligned allocation.
; 162  :     _STL_ASSERT(_Ptr_user[-2] == _Big_allocation_sentinel, "invalid argument");
; 163  : 
; 164  :     // Extra paranoia on aligned allocation/deallocation; ensure _Ptr_container is
; 165  :     // in range [_Min_back_shift, _Non_user_size]
; 166  : #ifdef _DEBUG
; 167  :     constexpr uintptr_t _Min_back_shift = 2 * sizeof(void*);
; 168  : #else // ^^^ _DEBUG ^^^ // vvv !_DEBUG vvv
; 169  :     constexpr uintptr_t _Min_back_shift = sizeof(void*);
; 170  : #endif // _DEBUG
; 171  :     const uintptr_t _Back_shift = reinterpret_cast<uintptr_t>(_Ptr) - _Ptr_container;

  00022	2b c2		 sub	 eax, edx

; 172  :     _STL_VERIFY(_Back_shift >= _Min_back_shift && _Back_shift <= _Non_user_size, "invalid argument");

  00024	83 c0 fc	 add	 eax, -4			; fffffffcH
  00027	83 f8 1f	 cmp	 eax, 31			; 0000001fH
  0002a	77 21		 ja	 SHORT $LN19@basic_stri

; 173  :     _Ptr = reinterpret_cast<void*>(_Ptr_container);

  0002c	8b c2		 mov	 eax, edx
$LN22@basic_stri:

; 264  :         ::operator delete(_Ptr, _Bytes);

  0002e	51		 push	 ecx
  0002f	50		 push	 eax
  00030	e8 00 00 00 00	 call	 ??3@YAXPAXI@Z		; operator delete
  00035	83 c4 08	 add	 esp, 8
$LN12@basic_stri:
; File C:\Program Files (x86)\Microsoft Visual Studio\2019\Professional\VC\Tools\MSVC\14.29.30133\include\xstring

; 4636 :             _Traits::assign(_Mypair._Myval2._Bx._Buf[0], _Elem());

  00038	33 c0		 xor	 eax, eax
  0003a	c7 46 10 00 00
	00 00		 mov	 DWORD PTR [esi+16], 0
  00041	c7 46 14 07 00
	00 00		 mov	 DWORD PTR [esi+20], 7
  00048	66 89 06	 mov	 WORD PTR [esi], ax
  0004b	5e		 pop	 esi

; 3010 :     }

  0004c	c3		 ret	 0
$LN19@basic_stri:
; File C:\Program Files (x86)\Microsoft Visual Studio\2019\Professional\VC\Tools\MSVC\14.29.30133\include\xmemory

; 172  :     _STL_VERIFY(_Back_shift >= _Min_back_shift && _Back_shift <= _Non_user_size, "invalid argument");

  0004d	e8 00 00 00 00	 call	 __invalid_parameter_noinfo_noreturn
$LN27@basic_stri:
  00052	cc		 int	 3
??1?$basic_string@_WU?$char_traits@_W@std@@V?$allocator@_W@2@@std@@QAE@XZ ENDP ; std::basic_string<wchar_t,std::char_traits<wchar_t>,std::allocator<wchar_t> >::~basic_string<wchar_t,std::char_traits<wchar_t>,std::allocator<wchar_t> >
_TEXT	ENDS
; Function compile flags: /Ogtp
; File C:\Program Files (x86)\Microsoft Visual Studio\2019\Professional\VC\Tools\MSVC\14.29.30133\include\xstring
; File C:\Program Files (x86)\Microsoft Visual Studio\2019\Professional\VC\Tools\MSVC\14.29.30133\include\xmemory
; File C:\Program Files (x86)\Microsoft Visual Studio\2019\Professional\VC\Tools\MSVC\14.29.30133\include\xstring
; File C:\Program Files (x86)\Microsoft Visual Studio\2019\Professional\VC\Tools\MSVC\14.29.30133\include\xmemory
; File C:\Program Files (x86)\Microsoft Visual Studio\2019\Professional\VC\Tools\MSVC\14.29.30133\include\xstring
; File C:\Program Files (x86)\Microsoft Visual Studio\2019\Professional\VC\Tools\MSVC\14.29.30133\include\utility
; File C:\Program Files (x86)\Microsoft Visual Studio\2019\Professional\VC\Tools\MSVC\14.29.30133\include\xstring
; File C:\Program Files (x86)\Microsoft Visual Studio\2019\Professional\VC\Tools\MSVC\14.29.30133\include\xmemory
; File C:\Program Files (x86)\Microsoft Visual Studio\2019\Professional\VC\Tools\MSVC\14.29.30133\include\xstring
; File C:\Program Files (x86)\Microsoft Visual Studio\2019\Professional\VC\Tools\MSVC\14.29.30133\include\xmemory
; File C:\Program Files (x86)\Microsoft Visual Studio\2019\Professional\VC\Tools\MSVC\14.29.30133\include\xstring
; File C:\Program Files (x86)\Microsoft Visual Studio\2019\Professional\VC\Tools\MSVC\14.29.30133\include\xmemory
; File C:\Program Files (x86)\Microsoft Visual Studio\2019\Professional\VC\Tools\MSVC\14.29.30133\include\xstring
;	COMDAT ?assign@?$basic_string@DU?$char_traits@D@std@@V?$allocator@D@2@@std@@QAEAAV12@QBDI@Z
_TEXT	SEGMENT
__Old$1$ = -4						; size = 4
__Ptr$ = 8						; size = 4
$T1 = 12						; size = 4
__Count$ = 12						; size = 4
?assign@?$basic_string@DU?$char_traits@D@std@@V?$allocator@D@2@@std@@QAEAAV12@QBDI@Z PROC ; std::basic_string<char,std::char_traits<char>,std::allocator<char> >::assign, COMDAT
; _this$ = ecx

; 3244 :         _In_reads_(_Count) const _Elem* const _Ptr, _CRT_GUARDOVERFLOW const size_type _Count) {

  00000	55		 push	 ebp
  00001	8b ec		 mov	 ebp, esp
  00003	51		 push	 ecx
  00004	53		 push	 ebx

; 3245 :         // assign [_Ptr, _Ptr + _Count)
; 3246 :         if (_Count <= _Mypair._Myval2._Myres) {

  00005	8b 5d 0c	 mov	 ebx, DWORD PTR __Count$[ebp]
  00008	56		 push	 esi
  00009	8b f1		 mov	 esi, ecx
  0000b	57		 push	 edi
  0000c	8b 4e 14	 mov	 ecx, DWORD PTR [esi+20]
  0000f	89 4d fc	 mov	 DWORD PTR __Old$1$[ebp], ecx
  00012	3b d9		 cmp	 ebx, ecx
  00014	77 28		 ja	 SHORT $LN2@assign

; 2296 :         value_type* _Result = _Bx._Buf;

  00016	8b fe		 mov	 edi, esi

; 2319 :         return _BUF_SIZE <= _Myres;

  00018	83 f9 10	 cmp	 ecx, 16			; 00000010H

; 2297 :         if (_Large_string_engaged()) {

  0001b	72 02		 jb	 SHORT $LN5@assign

; 2298 :             _Result = _Unfancy(_Bx._Ptr);

  0001d	8b 3e		 mov	 edi, DWORD PTR [esi]
$LN5@assign:

; 122  :         _CSTD memmove(_First1, _First2, _Count * sizeof(_Elem));

  0001f	53		 push	 ebx
  00020	ff 75 08	 push	 DWORD PTR __Ptr$[ebp]

; 3247 :             _Elem* const _Old_ptr   = _Mypair._Myval2._Myptr();
; 3248 :             _Mypair._Myval2._Mysize = _Count;

  00023	89 5e 10	 mov	 DWORD PTR [esi+16], ebx

; 122  :         _CSTD memmove(_First1, _First2, _Count * sizeof(_Elem));

  00026	57		 push	 edi
  00027	e8 00 00 00 00	 call	 _memmove
  0002c	83 c4 0c	 add	 esp, 12			; 0000000cH

; 3249 :             _Traits::move(_Old_ptr, _Ptr, _Count);
; 3250 :             _Traits::assign(_Old_ptr[_Count], _Elem());

  0002f	c6 04 1f 00	 mov	 BYTE PTR [edi+ebx], 0

; 3259 :             },
; 3260 :             _Ptr);
; 3261 :     }

  00033	8b c6		 mov	 eax, esi
  00035	5f		 pop	 edi
  00036	5e		 pop	 esi
  00037	5b		 pop	 ebx
  00038	8b e5		 mov	 esp, ebp
  0003a	5d		 pop	 ebp
  0003b	c2 08 00	 ret	 8
$LN2@assign:

; 4508 :         if (_New_size > max_size()) {

  0003e	81 fb ff ff ff
	7f		 cmp	 ebx, 2147483647		; 7fffffffH
  00044	0f 87 d4 00 00
	00		 ja	 $LN60@assign

; 4488 :         const size_type _Masked = _Requested | _ALLOC_MASK;

  0004a	8b fb		 mov	 edi, ebx
  0004c	83 cf 0f	 or	 edi, 15			; 0000000fH
  0004f	81 ff ff ff ff
	7f		 cmp	 edi, 2147483647		; 7fffffffH

; 4489 :         if (_Masked > _Max) { // the mask overflows, settle for max_size()

  00055	76 15		 jbe	 SHORT $LN19@assign

; 4490 :             return _Max;

  00057	b8 00 00 00 80	 mov	 eax, -2147483648	; 80000000H
  0005c	bf ff ff ff 7f	 mov	 edi, 2147483647		; 7fffffffH
; File C:\Program Files (x86)\Microsoft Visual Studio\2019\Professional\VC\Tools\MSVC\14.29.30133\include\xmemory

; 238  :             return _Allocate_manually_vector_aligned<_Traits>(_Bytes);

  00061	50		 push	 eax
  00062	e8 00 00 00 00	 call	 ??$_Allocate_manually_vector_aligned@U_Default_allocate_traits@std@@@std@@YAPAXI@Z ; std::_Allocate_manually_vector_aligned<std::_Default_allocate_traits>
  00067	83 c4 04	 add	 esp, 4
  0006a	eb 52		 jmp	 SHORT $LN58@assign
$LN19@assign:
; File C:\Program Files (x86)\Microsoft Visual Studio\2019\Professional\VC\Tools\MSVC\14.29.30133\include\xstring

; 4493 :         if (_Old > _Max - _Old / 2) { // similarly, geometric overflows

  0006c	8b d1		 mov	 edx, ecx
  0006e	b8 ff ff ff 7f	 mov	 eax, 2147483647		; 7fffffffH
  00073	d1 ea		 shr	 edx, 1
  00075	2b c2		 sub	 eax, edx
  00077	3b c8		 cmp	 ecx, eax
  00079	76 15		 jbe	 SHORT $LN20@assign

; 4494 :             return _Max;

  0007b	b8 00 00 00 80	 mov	 eax, -2147483648	; 80000000H
  00080	bf ff ff ff 7f	 mov	 edi, 2147483647		; 7fffffffH
; File C:\Program Files (x86)\Microsoft Visual Studio\2019\Professional\VC\Tools\MSVC\14.29.30133\include\xmemory

; 238  :             return _Allocate_manually_vector_aligned<_Traits>(_Bytes);

  00085	50		 push	 eax
  00086	e8 00 00 00 00	 call	 ??$_Allocate_manually_vector_aligned@U_Default_allocate_traits@std@@@std@@YAPAXI@Z ; std::_Allocate_manually_vector_aligned<std::_Default_allocate_traits>
  0008b	83 c4 04	 add	 esp, 4
  0008e	eb 2e		 jmp	 SHORT $LN58@assign
$LN20@assign:
; File C:\Program Files (x86)\Microsoft Visual Studio\2019\Professional\VC\Tools\MSVC\14.29.30133\include\xstring

; 4497 :         return (_STD max)(_Masked, _Old + _Old / 2);

  00090	8d 04 0a	 lea	 eax, DWORD PTR [edx+ecx]
; File C:\Program Files (x86)\Microsoft Visual Studio\2019\Professional\VC\Tools\MSVC\14.29.30133\include\utility

; 44   :     return _Left < _Right ? _Right : _Left;

  00093	3b f8		 cmp	 edi, eax
  00095	0f 42 f8	 cmovb	 edi, eax
; File C:\Program Files (x86)\Microsoft Visual Studio\2019\Professional\VC\Tools\MSVC\14.29.30133\include\xstring

; 4515 :         const pointer _New_ptr        = _Al.allocate(_New_capacity + 1); // throws

  00098	8d 47 01	 lea	 eax, DWORD PTR [edi+1]
; File C:\Program Files (x86)\Microsoft Visual Studio\2019\Professional\VC\Tools\MSVC\14.29.30133\include\xmemory

; 237  :         if (_Bytes >= _Big_allocation_threshold) { // boost the alignment of big allocations to help autovectorization

  0009b	3d 00 10 00 00	 cmp	 eax, 4096		; 00001000H
  000a0	72 0b		 jb	 SHORT $LN27@assign

; 238  :             return _Allocate_manually_vector_aligned<_Traits>(_Bytes);

  000a2	50		 push	 eax
  000a3	e8 00 00 00 00	 call	 ??$_Allocate_manually_vector_aligned@U_Default_allocate_traits@std@@@std@@YAPAXI@Z ; std::_Allocate_manually_vector_aligned<std::_Default_allocate_traits>
  000a8	83 c4 04	 add	 esp, 4
  000ab	eb 11		 jmp	 SHORT $LN58@assign
$LN27@assign:

; 239  :         }
; 240  :     }
; 241  : #endif // defined(_M_IX86) || defined(_M_X64)
; 242  : 
; 243  :     if (_Bytes != 0) {

  000ad	85 c0		 test	 eax, eax
  000af	74 0b		 je	 SHORT $LN28@assign

; 85   :         return ::operator new(_Bytes);

  000b1	50		 push	 eax
  000b2	e8 00 00 00 00	 call	 ??2@YAPAXI@Z		; operator new
  000b7	83 c4 04	 add	 esp, 4

; 244  :         return _Traits::_Allocate(_Bytes);

  000ba	eb 02		 jmp	 SHORT $LN58@assign
$LN28@assign:

; 245  :     }
; 246  : 
; 247  :     return nullptr;

  000bc	33 c0		 xor	 eax, eax
$LN58@assign:
; File C:\Program Files (x86)\Microsoft Visual Studio\2019\Professional\VC\Tools\MSVC\14.29.30133\include\xstring

; 65   :         _CSTD memcpy(_First1, _First2, _Count * sizeof(_Elem));

  000be	53		 push	 ebx
  000bf	ff 75 08	 push	 DWORD PTR __Ptr$[ebp]

; 4523 :         _Mypair._Myval2._Mysize = _New_size;

  000c2	89 45 0c	 mov	 DWORD PTR $T1[ebp], eax

; 65   :         _CSTD memcpy(_First1, _First2, _Count * sizeof(_Elem));

  000c5	50		 push	 eax

; 4523 :         _Mypair._Myval2._Mysize = _New_size;

  000c6	89 5e 10	 mov	 DWORD PTR [esi+16], ebx

; 4524 :         _Mypair._Myval2._Myres  = _New_capacity;

  000c9	89 7e 14	 mov	 DWORD PTR [esi+20], edi

; 65   :         _CSTD memcpy(_First1, _First2, _Count * sizeof(_Elem));

  000cc	e8 00 00 00 00	 call	 _memcpy

; 3258 :                 _Traits::assign(_New_ptr[_Count], _Elem());

  000d1	8b 7d 0c	 mov	 edi, DWORD PTR $T1[ebp]

; 65   :         _CSTD memcpy(_First1, _First2, _Count * sizeof(_Elem));

  000d4	83 c4 0c	 add	 esp, 12			; 0000000cH

; 4526 :         if (_BUF_SIZE <= _Old_capacity) {

  000d7	8b 45 fc	 mov	 eax, DWORD PTR __Old$1$[ebp]

; 3258 :                 _Traits::assign(_New_ptr[_Count], _Elem());

  000da	c6 04 1f 00	 mov	 BYTE PTR [edi+ebx], 0

; 4526 :         if (_BUF_SIZE <= _Old_capacity) {

  000de	83 f8 10	 cmp	 eax, 16			; 00000010H
  000e1	72 29		 jb	 SHORT $LN13@assign

; 4527 :             _Al.deallocate(_Mypair._Myval2._Bx._Ptr, _Old_capacity + 1);

  000e3	8d 48 01	 lea	 ecx, DWORD PTR [eax+1]
; File C:\Program Files (x86)\Microsoft Visual Studio\2019\Professional\VC\Tools\MSVC\14.29.30133\include\xmemory

; 835  :         _Deallocate<_New_alignof<_Ty>>(_Ptr, sizeof(_Ty) * _Count);

  000e6	8b 06		 mov	 eax, DWORD PTR [esi]

; 260  :         if (_Bytes >= _Big_allocation_threshold) { // boost the alignment of big allocations to help autovectorization

  000e8	81 f9 00 10 00
	00		 cmp	 ecx, 4096		; 00001000H
  000ee	72 12		 jb	 SHORT $LN50@assign

; 158  :     const uintptr_t _Ptr_container   = _Ptr_user[-1];

  000f0	8b 50 fc	 mov	 edx, DWORD PTR [eax-4]
  000f3	83 c1 23	 add	 ecx, 35			; 00000023H

; 159  : 
; 160  :     // If the following asserts, it likely means that we are performing
; 161  :     // an aligned delete on memory coming from an unaligned allocation.
; 162  :     _STL_ASSERT(_Ptr_user[-2] == _Big_allocation_sentinel, "invalid argument");
; 163  : 
; 164  :     // Extra paranoia on aligned allocation/deallocation; ensure _Ptr_container is
; 165  :     // in range [_Min_back_shift, _Non_user_size]
; 166  : #ifdef _DEBUG
; 167  :     constexpr uintptr_t _Min_back_shift = 2 * sizeof(void*);
; 168  : #else // ^^^ _DEBUG ^^^ // vvv !_DEBUG vvv
; 169  :     constexpr uintptr_t _Min_back_shift = sizeof(void*);
; 170  : #endif // _DEBUG
; 171  :     const uintptr_t _Back_shift = reinterpret_cast<uintptr_t>(_Ptr) - _Ptr_container;

  000f6	2b c2		 sub	 eax, edx

; 172  :     _STL_VERIFY(_Back_shift >= _Min_back_shift && _Back_shift <= _Non_user_size, "invalid argument");

  000f8	83 c0 fc	 add	 eax, -4			; fffffffcH
  000fb	83 f8 1f	 cmp	 eax, 31			; 0000001fH
  000fe	77 19		 ja	 SHORT $LN47@assign

; 173  :     _Ptr = reinterpret_cast<void*>(_Ptr_container);

  00100	8b c2		 mov	 eax, edx
$LN50@assign:

; 264  :         ::operator delete(_Ptr, _Bytes);

  00102	51		 push	 ecx
  00103	50		 push	 eax
  00104	e8 00 00 00 00	 call	 ??3@YAXPAXI@Z		; operator delete
  00109	83 c4 08	 add	 esp, 8
$LN13@assign:
; File C:\Program Files (x86)\Microsoft Visual Studio\2019\Professional\VC\Tools\MSVC\14.29.30133\include\xstring

; 3254 :         return _Reallocate_for(

  0010c	89 3e		 mov	 DWORD PTR [esi], edi

; 3259 :             },
; 3260 :             _Ptr);
; 3261 :     }

  0010e	8b c6		 mov	 eax, esi
  00110	5f		 pop	 edi
  00111	5e		 pop	 esi
  00112	5b		 pop	 ebx
  00113	8b e5		 mov	 esp, ebp
  00115	5d		 pop	 ebp
  00116	c2 08 00	 ret	 8
$LN47@assign:
; File C:\Program Files (x86)\Microsoft Visual Studio\2019\Professional\VC\Tools\MSVC\14.29.30133\include\xmemory

; 172  :     _STL_VERIFY(_Back_shift >= _Min_back_shift && _Back_shift <= _Non_user_size, "invalid argument");

  00119	e8 00 00 00 00	 call	 __invalid_parameter_noinfo_noreturn
$LN60@assign:
; File C:\Program Files (x86)\Microsoft Visual Studio\2019\Professional\VC\Tools\MSVC\14.29.30133\include\xstring

; 4509 :             _Xlen_string(); // result too long

  0011e	e8 00 00 00 00	 call	 ?_Xlen_string@std@@YAXXZ ; std::_Xlen_string
$LN56@assign:
  00123	cc		 int	 3
?assign@?$basic_string@DU?$char_traits@D@std@@V?$allocator@D@2@@std@@QAEAAV12@QBDI@Z ENDP ; std::basic_string<char,std::char_traits<char>,std::allocator<char> >::assign
_TEXT	ENDS
; Function compile flags: /Ogtp
; File C:\Program Files (x86)\Microsoft Visual Studio\2019\Professional\VC\Tools\MSVC\14.29.30133\include\xstring
; File C:\Program Files (x86)\Microsoft Visual Studio\2019\Professional\VC\Tools\MSVC\14.29.30133\include\xmemory
; File C:\Program Files (x86)\Microsoft Visual Studio\2019\Professional\VC\Tools\MSVC\14.29.30133\include\xstring
; File C:\Program Files (x86)\Microsoft Visual Studio\2019\Professional\VC\Tools\MSVC\14.29.30133\include\xmemory
; File C:\Program Files (x86)\Microsoft Visual Studio\2019\Professional\VC\Tools\MSVC\14.29.30133\include\xstring
; File C:\Program Files (x86)\Microsoft Visual Studio\2019\Professional\VC\Tools\MSVC\14.29.30133\include\xmemory
; File C:\Program Files (x86)\Microsoft Visual Studio\2019\Professional\VC\Tools\MSVC\14.29.30133\include\xstring
;	COMDAT ??1?$basic_string@DU?$char_traits@D@std@@V?$allocator@D@2@@std@@QAE@XZ
_TEXT	SEGMENT
??1?$basic_string@DU?$char_traits@D@std@@V?$allocator@D@2@@std@@QAE@XZ PROC ; std::basic_string<char,std::char_traits<char>,std::allocator<char> >::~basic_string<char,std::char_traits<char>,std::allocator<char> >, COMDAT
; _this$ = ecx

; 3002 :     _CONSTEXPR20_CONTAINER ~basic_string() noexcept {

  00000	56		 push	 esi
  00001	8b f1		 mov	 esi, ecx

; 2319 :         return _BUF_SIZE <= _Myres;

  00003	8b 4e 14	 mov	 ecx, DWORD PTR [esi+20]
  00006	83 f9 10	 cmp	 ecx, 16			; 00000010H

; 4618 :         if (_Mypair._Myval2._Large_string_engaged()) {

  00009	72 27		 jb	 SHORT $LN12@basic_stri
; File C:\Program Files (x86)\Microsoft Visual Studio\2019\Professional\VC\Tools\MSVC\14.29.30133\include\xmemory

; 835  :         _Deallocate<_New_alignof<_Ty>>(_Ptr, sizeof(_Ty) * _Count);

  0000b	8b 06		 mov	 eax, DWORD PTR [esi]
; File C:\Program Files (x86)\Microsoft Visual Studio\2019\Professional\VC\Tools\MSVC\14.29.30133\include\xstring

; 4622 :             _Al.deallocate(_Ptr, _Mypair._Myval2._Myres + 1);

  0000d	41		 inc	 ecx
; File C:\Program Files (x86)\Microsoft Visual Studio\2019\Professional\VC\Tools\MSVC\14.29.30133\include\xmemory

; 260  :         if (_Bytes >= _Big_allocation_threshold) { // boost the alignment of big allocations to help autovectorization

  0000e	81 f9 00 10 00
	00		 cmp	 ecx, 4096		; 00001000H
  00014	72 12		 jb	 SHORT $LN22@basic_stri

; 158  :     const uintptr_t _Ptr_container   = _Ptr_user[-1];

  00016	8b 50 fc	 mov	 edx, DWORD PTR [eax-4]
  00019	83 c1 23	 add	 ecx, 35			; 00000023H

; 159  : 
; 160  :     // If the following asserts, it likely means that we are performing
; 161  :     // an aligned delete on memory coming from an unaligned allocation.
; 162  :     _STL_ASSERT(_Ptr_user[-2] == _Big_allocation_sentinel, "invalid argument");
; 163  : 
; 164  :     // Extra paranoia on aligned allocation/deallocation; ensure _Ptr_container is
; 165  :     // in range [_Min_back_shift, _Non_user_size]
; 166  : #ifdef _DEBUG
; 167  :     constexpr uintptr_t _Min_back_shift = 2 * sizeof(void*);
; 168  : #else // ^^^ _DEBUG ^^^ // vvv !_DEBUG vvv
; 169  :     constexpr uintptr_t _Min_back_shift = sizeof(void*);
; 170  : #endif // _DEBUG
; 171  :     const uintptr_t _Back_shift = reinterpret_cast<uintptr_t>(_Ptr) - _Ptr_container;

  0001c	2b c2		 sub	 eax, edx

; 172  :     _STL_VERIFY(_Back_shift >= _Min_back_shift && _Back_shift <= _Non_user_size, "invalid argument");

  0001e	83 c0 fc	 add	 eax, -4			; fffffffcH
  00021	83 f8 1f	 cmp	 eax, 31			; 0000001fH
  00024	77 1f		 ja	 SHORT $LN19@basic_stri

; 173  :     _Ptr = reinterpret_cast<void*>(_Ptr_container);

  00026	8b c2		 mov	 eax, edx
$LN22@basic_stri:

; 264  :         ::operator delete(_Ptr, _Bytes);

  00028	51		 push	 ecx
  00029	50		 push	 eax
  0002a	e8 00 00 00 00	 call	 ??3@YAXPAXI@Z		; operator delete
  0002f	83 c4 08	 add	 esp, 8
$LN12@basic_stri:
; File C:\Program Files (x86)\Microsoft Visual Studio\2019\Professional\VC\Tools\MSVC\14.29.30133\include\xstring

; 4633 :             _Mypair._Myval2._Mysize = 0;

  00032	c7 46 10 00 00
	00 00		 mov	 DWORD PTR [esi+16], 0

; 4634 :             _Mypair._Myval2._Myres  = _BUF_SIZE - 1;

  00039	c7 46 14 0f 00
	00 00		 mov	 DWORD PTR [esi+20], 15	; 0000000fH

; 4635 :             // the _Traits::assign is last so the codegen doesn't think the char write can alias this
; 4636 :             _Traits::assign(_Mypair._Myval2._Bx._Buf[0], _Elem());

  00040	c6 06 00	 mov	 BYTE PTR [esi], 0
  00043	5e		 pop	 esi

; 3010 :     }

  00044	c3		 ret	 0
$LN19@basic_stri:
; File C:\Program Files (x86)\Microsoft Visual Studio\2019\Professional\VC\Tools\MSVC\14.29.30133\include\xmemory

; 172  :     _STL_VERIFY(_Back_shift >= _Min_back_shift && _Back_shift <= _Non_user_size, "invalid argument");

  00045	e8 00 00 00 00	 call	 __invalid_parameter_noinfo_noreturn
$LN27@basic_stri:
  0004a	cc		 int	 3
??1?$basic_string@DU?$char_traits@D@std@@V?$allocator@D@2@@std@@QAE@XZ ENDP ; std::basic_string<char,std::char_traits<char>,std::allocator<char> >::~basic_string<char,std::char_traits<char>,std::allocator<char> >
_TEXT	ENDS
; Function compile flags: /Ogtp
; File C:\Program Files (x86)\Microsoft Visual Studio\2019\Professional\VC\Tools\MSVC\14.29.30133\include\xstring
;	COMDAT ?_Xlen_string@std@@YAXXZ
_TEXT	SEGMENT
?_Xlen_string@std@@YAXXZ PROC				; std::_Xlen_string, COMDAT

; 2374 :     _Xlength_error("string too long");

  00000	68 00 00 00 00	 push	 OFFSET ??_C@_0BA@JFNIOLAK@string?5too?5long@
  00005	e8 00 00 00 00	 call	 ?_Xlength_error@std@@YAXPBD@Z ; std::_Xlength_error
$LN3@Xlen_strin:
  0000a	cc		 int	 3
?_Xlen_string@std@@YAXXZ ENDP				; std::_Xlen_string
_TEXT	ENDS
; Function compile flags: /Ogtp
; File C:\Program Files (x86)\Microsoft Visual Studio\2019\Professional\VC\Tools\MSVC\14.29.30133\include\exception
;	COMDAT ?_Throw_bad_array_new_length@std@@YAXXZ
_TEXT	SEGMENT
$T1 = -12						; size = 12
?_Throw_bad_array_new_length@std@@YAXXZ PROC		; std::_Throw_bad_array_new_length, COMDAT

; 320  : [[noreturn]] inline void _Throw_bad_array_new_length() {

  00000	55		 push	 ebp
  00001	8b ec		 mov	 ebp, esp
  00003	83 ec 0c	 sub	 esp, 12			; 0000000cH

; 321  :     _THROW(bad_array_new_length{});

  00006	8d 4d f4	 lea	 ecx, DWORD PTR $T1[ebp]
  00009	e8 00 00 00 00	 call	 ??0bad_array_new_length@std@@QAE@XZ ; std::bad_array_new_length::bad_array_new_length
  0000e	68 00 00 00 00	 push	 OFFSET __TI3?AVbad_array_new_length@std@@
  00013	8d 45 f4	 lea	 eax, DWORD PTR $T1[ebp]
  00016	50		 push	 eax
  00017	e8 00 00 00 00	 call	 __CxxThrowException@8
$LN3@Throw_bad_:
  0001c	cc		 int	 3
?_Throw_bad_array_new_length@std@@YAXXZ ENDP		; std::_Throw_bad_array_new_length
_TEXT	ENDS
; Function compile flags: /Ogtp
; File C:\Program Files (x86)\Microsoft Visual Studio\2019\Professional\VC\Tools\MSVC\14.29.30133\include\vcruntime_exception.h
;	COMDAT ??_Gbad_array_new_length@std@@UAEPAXI@Z
_TEXT	SEGMENT
___flags$ = 8						; size = 4
??_Gbad_array_new_length@std@@UAEPAXI@Z PROC		; std::bad_array_new_length::`scalar deleting destructor', COMDAT
; _this$ = ecx
  00000	55		 push	 ebp
  00001	8b ec		 mov	 ebp, esp

; 89   :     {

  00003	56		 push	 esi
  00004	8b f1		 mov	 esi, ecx

; 90   :         __std_exception_destroy(&_Data);

  00006	8d 46 04	 lea	 eax, DWORD PTR [esi+4]
  00009	c7 06 00 00 00
	00		 mov	 DWORD PTR [esi], OFFSET ??_7exception@std@@6B@
  0000f	50		 push	 eax
  00010	e8 00 00 00 00	 call	 ___std_exception_destroy
  00015	83 c4 04	 add	 esp, 4
  00018	f6 45 08 01	 test	 BYTE PTR ___flags$[ebp], 1
  0001c	74 0b		 je	 SHORT $LN12@scalar
  0001e	6a 0c		 push	 12			; 0000000cH
  00020	56		 push	 esi
  00021	e8 00 00 00 00	 call	 ??3@YAXPAXI@Z		; operator delete
  00026	83 c4 08	 add	 esp, 8
$LN12@scalar:
  00029	8b c6		 mov	 eax, esi
  0002b	5e		 pop	 esi
  0002c	5d		 pop	 ebp
  0002d	c2 04 00	 ret	 4
??_Gbad_array_new_length@std@@UAEPAXI@Z ENDP		; std::bad_array_new_length::`scalar deleting destructor'
_TEXT	ENDS
; Function compile flags: /Ogtp
; File C:\Program Files (x86)\Microsoft Visual Studio\2019\Professional\VC\Tools\MSVC\14.29.30133\include\vcruntime_exception.h
;	COMDAT ??0bad_array_new_length@std@@QAE@ABV01@@Z
_TEXT	SEGMENT
___that$ = 8						; size = 4
??0bad_array_new_length@std@@QAE@ABV01@@Z PROC		; std::bad_array_new_length::bad_array_new_length, COMDAT
; _this$ = ecx
  00000	55		 push	 ebp
  00001	8b ec		 mov	 ebp, esp

; 72   :     {

  00003	56		 push	 esi
  00004	8b f1		 mov	 esi, ecx
  00006	0f 57 c0	 xorps	 xmm0, xmm0

; 71   :         : _Data()

  00009	8d 46 04	 lea	 eax, DWORD PTR [esi+4]

; 73   :         __std_exception_copy(&_Other._Data, &_Data);

  0000c	50		 push	 eax
  0000d	c7 06 00 00 00
	00		 mov	 DWORD PTR [esi], OFFSET ??_7exception@std@@6B@
  00013	66 0f d6 00	 movq	 QWORD PTR [eax], xmm0
  00017	8b 45 08	 mov	 eax, DWORD PTR ___that$[ebp]
  0001a	83 c0 04	 add	 eax, 4
  0001d	50		 push	 eax
  0001e	e8 00 00 00 00	 call	 ___std_exception_copy
  00023	83 c4 08	 add	 esp, 8
  00026	c7 06 00 00 00
	00		 mov	 DWORD PTR [esi], OFFSET ??_7bad_array_new_length@std@@6B@
  0002c	8b c6		 mov	 eax, esi
  0002e	5e		 pop	 esi
  0002f	5d		 pop	 ebp
  00030	c2 04 00	 ret	 4
??0bad_array_new_length@std@@QAE@ABV01@@Z ENDP		; std::bad_array_new_length::bad_array_new_length
_TEXT	ENDS
; Function compile flags: /Ogtp
; File C:\Program Files (x86)\Microsoft Visual Studio\2019\Professional\VC\Tools\MSVC\14.29.30133\include\vcruntime_exception.h
;	COMDAT ??1bad_array_new_length@std@@UAE@XZ
_TEXT	SEGMENT
??1bad_array_new_length@std@@UAE@XZ PROC		; std::bad_array_new_length::~bad_array_new_length, COMDAT
; _this$ = ecx

; 90   :         __std_exception_destroy(&_Data);

  00000	8d 41 04	 lea	 eax, DWORD PTR [ecx+4]
  00003	c7 01 00 00 00
	00		 mov	 DWORD PTR [ecx], OFFSET ??_7exception@std@@6B@
  00009	50		 push	 eax
  0000a	e8 00 00 00 00	 call	 ___std_exception_destroy
  0000f	59		 pop	 ecx
  00010	c3		 ret	 0
??1bad_array_new_length@std@@UAE@XZ ENDP		; std::bad_array_new_length::~bad_array_new_length
_TEXT	ENDS
; Function compile flags: /Ogtp
; File C:\Program Files (x86)\Microsoft Visual Studio\2019\Professional\VC\Tools\MSVC\14.29.30133\include\vcruntime_exception.h
;	COMDAT ??0bad_array_new_length@std@@QAE@XZ
_TEXT	SEGMENT
??0bad_array_new_length@std@@QAE@XZ PROC		; std::bad_array_new_length::bad_array_new_length, COMDAT
; _this$ = ecx

; 141  :     {

  00000	0f 57 c0	 xorps	 xmm0, xmm0

; 142  :     }

  00003	8b c1		 mov	 eax, ecx

; 65   :         : _Data()

  00005	66 0f d6 41 04	 movq	 QWORD PTR [ecx+4], xmm0

; 66   :     {
; 67   :         _Data._What = _Message;

  0000a	c7 41 04 00 00
	00 00		 mov	 DWORD PTR [ecx+4], OFFSET ??_C@_0BF@KINCDENJ@bad?5array?5new?5length@

; 141  :     {

  00011	c7 01 00 00 00
	00		 mov	 DWORD PTR [ecx], OFFSET ??_7bad_array_new_length@std@@6B@

; 142  :     }

  00017	c3		 ret	 0
??0bad_array_new_length@std@@QAE@XZ ENDP		; std::bad_array_new_length::bad_array_new_length
_TEXT	ENDS
; Function compile flags: /Ogtp
; File C:\Program Files (x86)\Microsoft Visual Studio\2019\Professional\VC\Tools\MSVC\14.29.30133\include\vcruntime_exception.h
;	COMDAT ??_Gbad_alloc@std@@UAEPAXI@Z
_TEXT	SEGMENT
___flags$ = 8						; size = 4
??_Gbad_alloc@std@@UAEPAXI@Z PROC			; std::bad_alloc::`scalar deleting destructor', COMDAT
; _this$ = ecx
  00000	55		 push	 ebp
  00001	8b ec		 mov	 ebp, esp

; 89   :     {

  00003	56		 push	 esi
  00004	8b f1		 mov	 esi, ecx

; 90   :         __std_exception_destroy(&_Data);

  00006	8d 46 04	 lea	 eax, DWORD PTR [esi+4]
  00009	c7 06 00 00 00
	00		 mov	 DWORD PTR [esi], OFFSET ??_7exception@std@@6B@
  0000f	50		 push	 eax
  00010	e8 00 00 00 00	 call	 ___std_exception_destroy
  00015	83 c4 04	 add	 esp, 4
  00018	f6 45 08 01	 test	 BYTE PTR ___flags$[ebp], 1
  0001c	74 0b		 je	 SHORT $LN9@scalar
  0001e	6a 0c		 push	 12			; 0000000cH
  00020	56		 push	 esi
  00021	e8 00 00 00 00	 call	 ??3@YAXPAXI@Z		; operator delete
  00026	83 c4 08	 add	 esp, 8
$LN9@scalar:
  00029	8b c6		 mov	 eax, esi
  0002b	5e		 pop	 esi
  0002c	5d		 pop	 ebp
  0002d	c2 04 00	 ret	 4
??_Gbad_alloc@std@@UAEPAXI@Z ENDP			; std::bad_alloc::`scalar deleting destructor'
_TEXT	ENDS
; Function compile flags: /Ogtp
; File C:\Program Files (x86)\Microsoft Visual Studio\2019\Professional\VC\Tools\MSVC\14.29.30133\include\vcruntime_exception.h
;	COMDAT ??0bad_alloc@std@@QAE@ABV01@@Z
_TEXT	SEGMENT
___that$ = 8						; size = 4
??0bad_alloc@std@@QAE@ABV01@@Z PROC			; std::bad_alloc::bad_alloc, COMDAT
; _this$ = ecx
  00000	55		 push	 ebp
  00001	8b ec		 mov	 ebp, esp

; 72   :     {

  00003	56		 push	 esi
  00004	8b f1		 mov	 esi, ecx
  00006	0f 57 c0	 xorps	 xmm0, xmm0

; 71   :         : _Data()

  00009	8d 46 04	 lea	 eax, DWORD PTR [esi+4]

; 73   :         __std_exception_copy(&_Other._Data, &_Data);

  0000c	50		 push	 eax
  0000d	c7 06 00 00 00
	00		 mov	 DWORD PTR [esi], OFFSET ??_7exception@std@@6B@
  00013	66 0f d6 00	 movq	 QWORD PTR [eax], xmm0
  00017	8b 45 08	 mov	 eax, DWORD PTR ___that$[ebp]
  0001a	83 c0 04	 add	 eax, 4
  0001d	50		 push	 eax
  0001e	e8 00 00 00 00	 call	 ___std_exception_copy
  00023	83 c4 08	 add	 esp, 8
  00026	c7 06 00 00 00
	00		 mov	 DWORD PTR [esi], OFFSET ??_7bad_alloc@std@@6B@
  0002c	8b c6		 mov	 eax, esi
  0002e	5e		 pop	 esi
  0002f	5d		 pop	 ebp
  00030	c2 04 00	 ret	 4
??0bad_alloc@std@@QAE@ABV01@@Z ENDP			; std::bad_alloc::bad_alloc
_TEXT	ENDS
; Function compile flags: /Ogtp
; File C:\Program Files (x86)\Microsoft Visual Studio\2019\Professional\VC\Tools\MSVC\14.29.30133\include\vcruntime_exception.h
;	COMDAT ??_Gexception@std@@UAEPAXI@Z
_TEXT	SEGMENT
___flags$ = 8						; size = 4
??_Gexception@std@@UAEPAXI@Z PROC			; std::exception::`scalar deleting destructor', COMDAT
; _this$ = ecx
  00000	55		 push	 ebp
  00001	8b ec		 mov	 ebp, esp

; 89   :     {

  00003	56		 push	 esi
  00004	8b f1		 mov	 esi, ecx

; 90   :         __std_exception_destroy(&_Data);

  00006	8d 46 04	 lea	 eax, DWORD PTR [esi+4]
  00009	c7 06 00 00 00
	00		 mov	 DWORD PTR [esi], OFFSET ??_7exception@std@@6B@
  0000f	50		 push	 eax
  00010	e8 00 00 00 00	 call	 ___std_exception_destroy
  00015	83 c4 04	 add	 esp, 4
  00018	f6 45 08 01	 test	 BYTE PTR ___flags$[ebp], 1
  0001c	74 0b		 je	 SHORT $LN6@scalar
  0001e	6a 0c		 push	 12			; 0000000cH
  00020	56		 push	 esi
  00021	e8 00 00 00 00	 call	 ??3@YAXPAXI@Z		; operator delete
  00026	83 c4 08	 add	 esp, 8
$LN6@scalar:
  00029	8b c6		 mov	 eax, esi
  0002b	5e		 pop	 esi
  0002c	5d		 pop	 ebp
  0002d	c2 04 00	 ret	 4
??_Gexception@std@@UAEPAXI@Z ENDP			; std::exception::`scalar deleting destructor'
_TEXT	ENDS
; Function compile flags: /Ogtp
; File C:\Program Files (x86)\Microsoft Visual Studio\2019\Professional\VC\Tools\MSVC\14.29.30133\include\vcruntime_exception.h
;	COMDAT ?what@exception@std@@UBEPBDXZ
_TEXT	SEGMENT
?what@exception@std@@UBEPBDXZ PROC			; std::exception::what, COMDAT
; _this$ = ecx

; 95   :         return _Data._What ? _Data._What : "Unknown exception";

  00000	8b 49 04	 mov	 ecx, DWORD PTR [ecx+4]
  00003	b8 00 00 00 00	 mov	 eax, OFFSET ??_C@_0BC@EOODALEL@Unknown?5exception@
  00008	85 c9		 test	 ecx, ecx
  0000a	0f 45 c1	 cmovne	 eax, ecx

; 96   :     }

  0000d	c3		 ret	 0
?what@exception@std@@UBEPBDXZ ENDP			; std::exception::what
_TEXT	ENDS
; Function compile flags: /Ogtp
; File C:\Program Files (x86)\Microsoft Visual Studio\2019\Professional\VC\Tools\MSVC\14.29.30133\include\vcruntime_exception.h
;	COMDAT ??1exception@std@@UAE@XZ
_TEXT	SEGMENT
??1exception@std@@UAE@XZ PROC				; std::exception::~exception, COMDAT
; _this$ = ecx

; 90   :         __std_exception_destroy(&_Data);

  00000	8d 41 04	 lea	 eax, DWORD PTR [ecx+4]
  00003	c7 01 00 00 00
	00		 mov	 DWORD PTR [ecx], OFFSET ??_7exception@std@@6B@
  00009	50		 push	 eax
  0000a	e8 00 00 00 00	 call	 ___std_exception_destroy
  0000f	59		 pop	 ecx

; 91   :     }

  00010	c3		 ret	 0
??1exception@std@@UAE@XZ ENDP				; std::exception::~exception
_TEXT	ENDS
; Function compile flags: /Ogtp
; File C:\Program Files (x86)\Microsoft Visual Studio\2019\Professional\VC\Tools\MSVC\14.29.30133\include\vcruntime_exception.h
;	COMDAT ??0exception@std@@QAE@ABV01@@Z
_TEXT	SEGMENT
__Other$ = 8						; size = 4
??0exception@std@@QAE@ABV01@@Z PROC			; std::exception::exception, COMDAT
; _this$ = ecx

; 72   :     {

  00000	55		 push	 ebp
  00001	8b ec		 mov	 ebp, esp
  00003	56		 push	 esi
  00004	8b f1		 mov	 esi, ecx
  00006	0f 57 c0	 xorps	 xmm0, xmm0
  00009	8d 46 04	 lea	 eax, DWORD PTR [esi+4]

; 73   :         __std_exception_copy(&_Other._Data, &_Data);

  0000c	50		 push	 eax
  0000d	c7 06 00 00 00
	00		 mov	 DWORD PTR [esi], OFFSET ??_7exception@std@@6B@
  00013	66 0f d6 00	 movq	 QWORD PTR [eax], xmm0
  00017	8b 45 08	 mov	 eax, DWORD PTR __Other$[ebp]
  0001a	83 c0 04	 add	 eax, 4
  0001d	50		 push	 eax
  0001e	e8 00 00 00 00	 call	 ___std_exception_copy
  00023	83 c4 08	 add	 esp, 8

; 74   :     }

  00026	8b c6		 mov	 eax, esi
  00028	5e		 pop	 esi
  00029	5d		 pop	 ebp
  0002a	c2 04 00	 ret	 4
??0exception@std@@QAE@ABV01@@Z ENDP			; std::exception::exception
_TEXT	ENDS
; Function compile flags: /Ogtp
; File C:\Program Files (x86)\Windows Kits\10\Include\10.0.19041.0\ucrt\stdio.h
;	COMDAT __snprintf
_TEXT	SEGMENT
__Buffer$ = 8						; size = 4
__BufferCount$ = 12					; size = 4
__Format$ = 16						; size = 4
__snprintf PROC						; COMDAT

; 1947 :     {

  00000	55		 push	 ebp
  00001	8b ec		 mov	 ebp, esp

; 1392 :         int const _Result = __stdio_common_vsprintf(

  00003	8d 45 14	 lea	 eax, DWORD PTR __Format$[ebp+4]
  00006	50		 push	 eax
  00007	6a 00		 push	 0
  00009	ff 75 10	 push	 DWORD PTR __Format$[ebp]
  0000c	ff 75 0c	 push	 DWORD PTR __BufferCount$[ebp]
  0000f	ff 75 08	 push	 DWORD PTR __Buffer$[ebp]
  00012	e8 00 00 00 00	 call	 ___local_stdio_printf_options
  00017	8b 08		 mov	 ecx, DWORD PTR [eax]
  00019	ff 70 04	 push	 DWORD PTR [eax+4]
  0001c	83 c9 01	 or	 ecx, 1
  0001f	51		 push	 ecx
  00020	e8 00 00 00 00	 call	 ___stdio_common_vsprintf

; 1393 :             _CRT_INTERNAL_LOCAL_PRINTF_OPTIONS | _CRT_INTERNAL_PRINTF_LEGACY_VSPRINTF_NULL_TERMINATION,
; 1394 :             _Buffer, _BufferCount, _Format, _Locale, _ArgList);
; 1395 : 
; 1396 :         return _Result < 0 ? -1 : _Result;

  00025	83 c9 ff	 or	 ecx, -1
  00028	83 c4 1c	 add	 esp, 28			; 0000001cH
  0002b	85 c0		 test	 eax, eax
  0002d	0f 48 c1	 cmovs	 eax, ecx

; 1948 :         int _Result;
; 1949 :         va_list _ArgList;
; 1950 :         __crt_va_start(_ArgList, _Format);
; 1951 :         _Result = _vsnprintf(_Buffer, _BufferCount, _Format, _ArgList);
; 1952 :         __crt_va_end(_ArgList);
; 1953 :         return _Result;
; 1954 :     }

  00030	5d		 pop	 ebp
  00031	c3		 ret	 0
__snprintf ENDP
_TEXT	ENDS
; Function compile flags: /Ogtp
; File C:\Program Files (x86)\Windows Kits\10\Include\10.0.19041.0\ucrt\corecrt_stdio_config.h
;	COMDAT ___local_stdio_printf_options
_TEXT	SEGMENT
___local_stdio_printf_options PROC			; COMDAT

; 91   :         static unsigned __int64 _OptionsStorage;
; 92   :         return &_OptionsStorage;

  00000	b8 00 00 00 00	 mov	 eax, OFFSET ?_OptionsStorage@?1??__local_stdio_printf_options@@9@4_KA ; `__local_stdio_printf_options'::`2'::_OptionsStorage

; 93   :     }

  00005	c3		 ret	 0
___local_stdio_printf_options ENDP
_TEXT	ENDS
; Function compile flags: /Ogtp
;	COMDAT ??_H@YGXPAXIIP6EPAX0@Z@Z
_TEXT	SEGMENT
___t$ = 8						; size = 4
___s$ = 12						; size = 4
___n$ = 16						; size = 4
___f$ = 20						; size = 4
??_H@YGXPAXIIP6EPAX0@Z@Z PROC				; `vector constructor iterator', COMDAT
  00000	55		 push	 ebp
  00001	8b ec		 mov	 ebp, esp
  00003	56		 push	 esi
  00004	8b 75 10	 mov	 esi, DWORD PTR ___n$[ebp]
  00007	85 f6		 test	 esi, esi
  00009	74 16		 je	 SHORT $LN6@vector
  0000b	53		 push	 ebx
  0000c	8b 5d 14	 mov	 ebx, DWORD PTR ___f$[ebp]
  0000f	57		 push	 edi
  00010	8b 7d 08	 mov	 edi, DWORD PTR ___t$[ebp]
$LL2@vector:
  00013	8b cf		 mov	 ecx, edi
  00015	ff d3		 call	 ebx
  00017	03 7d 0c	 add	 edi, DWORD PTR ___s$[ebp]
  0001a	83 ee 01	 sub	 esi, 1
  0001d	75 f4		 jne	 SHORT $LL2@vector
  0001f	5f		 pop	 edi
  00020	5b		 pop	 ebx
$LN6@vector:
  00021	5e		 pop	 esi
  00022	5d		 pop	 ebp
  00023	c2 10 00	 ret	 16			; 00000010H
??_H@YGXPAXIIP6EPAX0@Z@Z ENDP				; `vector constructor iterator'
_TEXT	ENDS
END
