; Listing generated by Microsoft (R) Optimizing Compiler Version 19.29.30137.0 

	TITLE	C:\Users\murat\Desktop\Siveps2-1-99-Project\source\client\Client\EterLib\Distribute\LensFlare.obj
	.686P
	.XMM
	include listing.inc
	.model	flat

INCLUDELIB LIBCMT
INCLUDELIB OLDNAMES

PUBLIC	??_C@_0L@FDOKIIIA@flare2?4dds@			; `string'
PUBLIC	??_C@_0L@NFHOPKCO@flare1?4dds@			; `string'
PUBLIC	??_C@_0L@MIHLMKJG@flare6?4dds@			; `string'
PUBLIC	??_C@_0L@IFLDGLJN@flare4?4dds@			; `string'
PUBLIC	??_C@_0L@JILGFLCF@flare3?4dds@			; `string'
PUBLIC	??_C@_00CNPNBAHC@@				; `string'
CONST	SEGMENT
?_Fake_alloc@std@@3U_Fake_allocator@1@B	ORG $+1		; std::_Fake_alloc
CONST	ENDS
;	COMDAT ??_C@_00CNPNBAHC@@
CONST	SEGMENT
??_C@_00CNPNBAHC@@ DB 00H				; `string'
CONST	ENDS
;	COMDAT ??_C@_0L@JILGFLCF@flare3?4dds@
CONST	SEGMENT
??_C@_0L@JILGFLCF@flare3?4dds@ DB 'flare3.dds', 00H	; `string'
CONST	ENDS
;	COMDAT ??_C@_0L@IFLDGLJN@flare4?4dds@
CONST	SEGMENT
??_C@_0L@IFLDGLJN@flare4?4dds@ DB 'flare4.dds', 00H	; `string'
CONST	ENDS
;	COMDAT ??_C@_0L@MIHLMKJG@flare6?4dds@
CONST	SEGMENT
??_C@_0L@MIHLMKJG@flare6?4dds@ DB 'flare6.dds', 00H	; `string'
CONST	ENDS
;	COMDAT ??_C@_0L@NFHOPKCO@flare1?4dds@
CONST	SEGMENT
??_C@_0L@NFHOPKCO@flare1?4dds@ DB 'flare1.dds', 00H	; `string'
CONST	ENDS
;	COMDAT ??_C@_0L@FDOKIIIA@flare2?4dds@
CONST	SEGMENT
??_C@_0L@FDOKIIIA@flare2?4dds@ DB 'flare2.dds', 00H	; `string'
CONST	ENDS
PUBLIC	??_H@YGXPAXIIP6EPAX0@Z@Z			; `vector constructor iterator'
PUBLIC	??0D3DXMATRIX@@QAE@XZ				; D3DXMATRIX::D3DXMATRIX
PUBLIC	??0exception@std@@QAE@ABV01@@Z			; std::exception::exception
PUBLIC	??1exception@std@@UAE@XZ			; std::exception::~exception
PUBLIC	?what@exception@std@@UBEPBDXZ			; std::exception::what
PUBLIC	??_Gexception@std@@UAEPAXI@Z			; std::exception::`scalar deleting destructor'
PUBLIC	??0bad_alloc@std@@QAE@ABV01@@Z			; std::bad_alloc::bad_alloc
PUBLIC	??_Gbad_alloc@std@@UAEPAXI@Z			; std::bad_alloc::`scalar deleting destructor'
PUBLIC	??0bad_array_new_length@std@@QAE@XZ		; std::bad_array_new_length::bad_array_new_length
PUBLIC	??1bad_array_new_length@std@@UAE@XZ		; std::bad_array_new_length::~bad_array_new_length
PUBLIC	??0bad_array_new_length@std@@QAE@ABV01@@Z	; std::bad_array_new_length::bad_array_new_length
PUBLIC	??_Gbad_array_new_length@std@@UAEPAXI@Z		; std::bad_array_new_length::`scalar deleting destructor'
PUBLIC	?_Throw_bad_array_new_length@std@@YAXXZ		; std::_Throw_bad_array_new_length
PUBLIC	?_Xlen_string@std@@YAXXZ			; std::_Xlen_string
PUBLIC	??0?$basic_string@DU?$char_traits@D@std@@V?$allocator@D@2@@std@@QAE@ABV01@@Z ; std::basic_string<char,std::char_traits<char>,std::allocator<char> >::basic_string<char,std::char_traits<char>,std::allocator<char> >
PUBLIC	??0?$basic_string@DU?$char_traits@D@std@@V?$allocator@D@2@@std@@QAE@QBD@Z ; std::basic_string<char,std::char_traits<char>,std::allocator<char> >::basic_string<char,std::char_traits<char>,std::allocator<char> >
PUBLIC	??0?$basic_string@DU?$char_traits@D@std@@V?$allocator@D@2@@std@@QAE@U_String_constructor_concat_tag@1@AAV01@1@Z ; std::basic_string<char,std::char_traits<char>,std::allocator<char> >::basic_string<char,std::char_traits<char>,std::allocator<char> >
PUBLIC	??1?$basic_string@DU?$char_traits@D@std@@V?$allocator@D@2@@std@@QAE@XZ ; std::basic_string<char,std::char_traits<char>,std::allocator<char> >::~basic_string<char,std::char_traits<char>,std::allocator<char> >
PUBLIC	??$_Allocate_manually_vector_aligned@U_Default_allocate_traits@std@@@std@@YAPAXI@Z ; std::_Allocate_manually_vector_aligned<std::_Default_allocate_traits>
PUBLIC	?Draw@CFlare@@QAEXMHHHH@Z			; CFlare::Draw
PUBLIC	?Init@CFlare@@QAEXV?$basic_string@DU?$char_traits@D@std@@V?$allocator@D@2@@std@@@Z ; CFlare::Init
PUBLIC	??0CFlare@@QAE@XZ				; CFlare::CFlare
PUBLIC	??1CFlare@@UAE@XZ				; CFlare::~CFlare
PUBLIC	?_Xlength@?$vector@PAUSFlarePiece@CFlare@@V?$allocator@PAUSFlarePiece@CFlare@@@std@@@std@@CAXXZ ; std::vector<CFlare::SFlarePiece *,std::allocator<CFlare::SFlarePiece *> >::_Xlength
PUBLIC	??_GCFlare@@UAEPAXI@Z				; CFlare::`scalar deleting destructor'
PUBLIC	??0CLensFlare@@QAE@XZ				; CLensFlare::CLensFlare
PUBLIC	??1CLensFlare@@UAE@XZ				; CLensFlare::~CLensFlare
PUBLIC	?Compute@CLensFlare@@QAEXABUD3DXVECTOR3@@@Z	; CLensFlare::Compute
PUBLIC	?DrawBeforeFlare@CLensFlare@@QAEXXZ		; CLensFlare::DrawBeforeFlare
PUBLIC	?DrawAfterFlare@CLensFlare@@QAEXXZ		; CLensFlare::DrawAfterFlare
PUBLIC	?DrawFlare@CLensFlare@@QAEXXZ			; CLensFlare::DrawFlare
PUBLIC	?SetMainFlare@CLensFlare@@QAEXV?$basic_string@DU?$char_traits@D@std@@V?$allocator@D@2@@std@@M@Z ; CLensFlare::SetMainFlare
PUBLIC	?Initialize@CLensFlare@@QAEXV?$basic_string@DU?$char_traits@D@std@@V?$allocator@D@2@@std@@@Z ; CLensFlare::Initialize
PUBLIC	?SetFlareLocation@CLensFlare@@QAEXNN@Z		; CLensFlare::SetFlareLocation
PUBLIC	?SetBrightnesses@CLensFlare@@QAEXMM@Z		; CLensFlare::SetBrightnesses
PUBLIC	?ReadControlPixels@CLensFlare@@QAEXXZ		; CLensFlare::ReadControlPixels
PUBLIC	?AdjustBrightness@CLensFlare@@QAEXXZ		; CLensFlare::AdjustBrightness
PUBLIC	?CharacterizeFlare@CLensFlare@@QAEX_N0MABUD3DXCOLOR@@@Z ; CLensFlare::CharacterizeFlare
PUBLIC	?Interpolate@CLensFlare@@IAEMMMM@Z		; CLensFlare::Interpolate
PUBLIC	?ReadDepthPixels@CLensFlare@@AAEXPAM@Z		; CLensFlare::ReadDepthPixels
PUBLIC	?ClampBrightness@CLensFlare@@AAEXXZ		; CLensFlare::ClampBrightness
PUBLIC	??_GCLensFlare@@UAEPAXI@Z			; CLensFlare::`scalar deleting destructor'
PUBLIC	??$?9DU?$char_traits@D@std@@V?$allocator@D@1@@std@@YA_NABV?$basic_string@DU?$char_traits@D@std@@V?$allocator@D@2@@0@QBD@Z ; std::operator!=<char,std::char_traits<char>,std::allocator<char> >
PUBLIC	??$_Emplace_reallocate@ABQAUSFlarePiece@CFlare@@@?$vector@PAUSFlarePiece@CFlare@@V?$allocator@PAUSFlarePiece@CFlare@@@std@@@std@@QAEPAPAUSFlarePiece@CFlare@@QAPAU23@ABQAU23@@Z ; std::vector<CFlare::SFlarePiece *,std::allocator<CFlare::SFlarePiece *> >::_Emplace_reallocate<CFlare::SFlarePiece * const &>
PUBLIC	??$_Copy_memmove@PAPAUSFlarePiece@CFlare@@PAPAU12@@std@@YAPAPAUSFlarePiece@CFlare@@PAPAU12@00@Z ; std::_Copy_memmove<CFlare::SFlarePiece * *,CFlare::SFlarePiece * *>
PUBLIC	??_7exception@std@@6B@				; std::exception::`vftable'
PUBLIC	??_C@_0BC@EOODALEL@Unknown?5exception@		; `string'
PUBLIC	??_7bad_alloc@std@@6B@				; std::bad_alloc::`vftable'
PUBLIC	??_7bad_array_new_length@std@@6B@		; std::bad_array_new_length::`vftable'
PUBLIC	??_C@_0BF@KINCDENJ@bad?5array?5new?5length@	; `string'
PUBLIC	__TI3?AVbad_array_new_length@std@@
PUBLIC	__CTA3?AVbad_array_new_length@std@@
PUBLIC	??_R0?AVbad_array_new_length@std@@@8		; std::bad_array_new_length `RTTI Type Descriptor'
PUBLIC	__CT??_R0?AVbad_array_new_length@std@@@8??0bad_array_new_length@std@@QAE@ABV01@@Z12
PUBLIC	??_R0?AVbad_alloc@std@@@8			; std::bad_alloc `RTTI Type Descriptor'
PUBLIC	__CT??_R0?AVbad_alloc@std@@@8??0bad_alloc@std@@QAE@ABV01@@Z12
PUBLIC	??_R0?AVexception@std@@@8			; std::exception `RTTI Type Descriptor'
PUBLIC	__CT??_R0?AVexception@std@@@8??0exception@std@@QAE@ABV01@@Z12
PUBLIC	??_C@_0BA@JFNIOLAK@string?5too?5long@		; `string'
PUBLIC	??_R4exception@std@@6B@				; std::exception::`RTTI Complete Object Locator'
PUBLIC	??_R3exception@std@@8				; std::exception::`RTTI Class Hierarchy Descriptor'
PUBLIC	??_R2exception@std@@8				; std::exception::`RTTI Base Class Array'
PUBLIC	??_R1A@?0A@EA@exception@std@@8			; std::exception::`RTTI Base Class Descriptor at (0,-1,0,64)'
PUBLIC	??_R4bad_alloc@std@@6B@				; std::bad_alloc::`RTTI Complete Object Locator'
PUBLIC	??_R3bad_alloc@std@@8				; std::bad_alloc::`RTTI Class Hierarchy Descriptor'
PUBLIC	??_R2bad_alloc@std@@8				; std::bad_alloc::`RTTI Base Class Array'
PUBLIC	??_R1A@?0A@EA@bad_alloc@std@@8			; std::bad_alloc::`RTTI Base Class Descriptor at (0,-1,0,64)'
PUBLIC	??_R4bad_array_new_length@std@@6B@		; std::bad_array_new_length::`RTTI Complete Object Locator'
PUBLIC	??_R3bad_array_new_length@std@@8		; std::bad_array_new_length::`RTTI Class Hierarchy Descriptor'
PUBLIC	??_R2bad_array_new_length@std@@8		; std::bad_array_new_length::`RTTI Base Class Array'
PUBLIC	??_R1A@?0A@EA@bad_array_new_length@std@@8	; std::bad_array_new_length::`RTTI Base Class Descriptor at (0,-1,0,64)'
PUBLIC	??_7CFlare@@6B@					; CFlare::`vftable'
PUBLIC	??_7CLensFlare@@6B@				; CLensFlare::`vftable'
PUBLIC	?ms_singleton@?$CSingleton@VCCameraManager@@@@0PAVCCameraManager@@A ; CSingleton<CCameraManager>::ms_singleton
PUBLIC	?ms_singleton@?$CSingleton@VCStateManager@@@@0PAVCStateManager@@A ; CSingleton<CStateManager>::ms_singleton
PUBLIC	?ms_singleton@?$CSingleton@VCResourceManager@@@@0PAVCResourceManager@@A ; CSingleton<CResourceManager>::ms_singleton
PUBLIC	??_C@_0BA@FOIKENOD@vector?5too?5long@		; `string'
PUBLIC	??_R4CFlare@@6B@				; CFlare::`RTTI Complete Object Locator'
PUBLIC	??_R0?AVCFlare@@@8				; CFlare `RTTI Type Descriptor'
PUBLIC	??_R3CFlare@@8					; CFlare::`RTTI Class Hierarchy Descriptor'
PUBLIC	??_R2CFlare@@8					; CFlare::`RTTI Base Class Array'
PUBLIC	??_R1A@?0A@EA@CFlare@@8				; CFlare::`RTTI Base Class Descriptor at (0,-1,0,64)'
PUBLIC	??_R4CLensFlare@@6B@				; CLensFlare::`RTTI Complete Object Locator'
PUBLIC	??_R0?AVCLensFlare@@@8				; CLensFlare `RTTI Type Descriptor'
PUBLIC	??_R3CLensFlare@@8				; CLensFlare::`RTTI Class Hierarchy Descriptor'
PUBLIC	??_R2CLensFlare@@8				; CLensFlare::`RTTI Base Class Array'
PUBLIC	??_R1A@?0A@EA@CLensFlare@@8			; CLensFlare::`RTTI Base Class Descriptor at (0,-1,0,64)'
PUBLIC	??_R1A@?0A@EA@CScreen@@8			; CScreen::`RTTI Base Class Descriptor at (0,-1,0,64)'
PUBLIC	??_R0?AVCScreen@@@8				; CScreen `RTTI Type Descriptor'
PUBLIC	??_R3CScreen@@8					; CScreen::`RTTI Class Hierarchy Descriptor'
PUBLIC	??_R2CScreen@@8					; CScreen::`RTTI Base Class Array'
PUBLIC	??_R1A@?0A@EA@CGraphicCollisionObject@@8	; CGraphicCollisionObject::`RTTI Base Class Descriptor at (0,-1,0,64)'
PUBLIC	??_R0?AVCGraphicCollisionObject@@@8		; CGraphicCollisionObject `RTTI Type Descriptor'
PUBLIC	??_R3CGraphicCollisionObject@@8			; CGraphicCollisionObject::`RTTI Class Hierarchy Descriptor'
PUBLIC	??_R2CGraphicCollisionObject@@8			; CGraphicCollisionObject::`RTTI Base Class Array'
PUBLIC	??_R1A@?0A@EA@CGraphicBase@@8			; CGraphicBase::`RTTI Base Class Descriptor at (0,-1,0,64)'
PUBLIC	??_R0?AVCGraphicBase@@@8			; CGraphicBase `RTTI Type Descriptor'
PUBLIC	??_R3CGraphicBase@@8				; CGraphicBase::`RTTI Class Hierarchy Descriptor'
PUBLIC	??_R2CGraphicBase@@8				; CGraphicBase::`RTTI Base Class Array'
PUBLIC	__real@3f000000
PUBLIC	__real@3f59999a
PUBLIC	__real@3f800000
PUBLIC	__real@3fc90fdb
PUBLIC	__real@43610000
PUBLIC	__real@437f0000
PUBLIC	__real@4cbebc20
PUBLIC	__xmm@00000001000000010000000100000001
PUBLIC	__xmm@41f00000000000000000000000000000
PUBLIC	__xmm@80000000800000008000000080000000
EXTRN	??_M@YGXPAXIIP6EX0@Z@Z:PROC			; `eh vector destructor iterator'
EXTRN	??2@YAPAXI@Z:PROC				; operator new
EXTRN	??3@YAXPAXI@Z:PROC				; operator delete
EXTRN	??_U@YAPAXI@Z:PROC				; operator new[]
EXTRN	??_V@YAXPAX@Z:PROC				; operator delete[]
EXTRN	_atexit:PROC
EXTRN	__invalid_parameter_noinfo_noreturn:PROC
EXTRN	_D3DXMatrixTranslation@16:PROC
EXTRN	_D3DXMatrixOrthoOffCenterRH@28:PROC
EXTRN	___std_exception_copy:PROC
EXTRN	___std_exception_destroy:PROC
EXTRN	??_Eexception@std@@UAEPAXI@Z:PROC		; std::exception::`vector deleting destructor'
EXTRN	??_Ebad_alloc@std@@UAEPAXI@Z:PROC		; std::bad_alloc::`vector deleting destructor'
EXTRN	??_Ebad_array_new_length@std@@UAEPAXI@Z:PROC	; std::bad_array_new_length::`vector deleting destructor'
EXTRN	?_Xlength_error@std@@YAXPBD@Z:PROC		; std::_Xlength_error
EXTRN	?IsType@CResource@@QAE_NK@Z:PROC		; CResource::IsType
EXTRN	?GetD3DTexture@CGraphicTexture@@QBEPAUIDirect3DTexture8@@XZ:PROC ; CGraphicTexture::GetD3DTexture
EXTRN	?Type@CGraphicImage@@SAKXZ:PROC			; CGraphicImage::Type
EXTRN	??0CGraphicImageInstance@@QAE@XZ:PROC		; CGraphicImageInstance::CGraphicImageInstance
EXTRN	??1CGraphicImageInstance@@UAE@XZ:PROC		; CGraphicImageInstance::~CGraphicImageInstance
EXTRN	?SetImagePointer@CGraphicImageInstance@@QAEXPAVCGraphicImage@@@Z:PROC ; CGraphicImageInstance::SetImagePointer
EXTRN	?IsEmpty@CGraphicImageInstance@@QBE_NXZ:PROC	; CGraphicImageInstance::IsEmpty
EXTRN	?GetTexturePointer@CGraphicImageInstance@@QAEPAVCGraphicTexture@@XZ:PROC ; CGraphicImageInstance::GetTexturePointer
EXTRN	??0CScreen@@QAE@XZ:PROC				; CScreen::CScreen
EXTRN	??1CScreen@@UAE@XZ:PROC				; CScreen::~CScreen
EXTRN	?RenderBar2d@CScreen@@QAEXMMMMM@Z:PROC		; CScreen::RenderBar2d
EXTRN	?SetDiffuseColor@CScreen@@QAEXMMMM@Z:PROC	; CScreen::SetDiffuseColor
EXTRN	?ProjectPosition@CScreen@@QAEXMMMPAM0@Z:PROC	; CScreen::ProjectPosition
EXTRN	??_ECFlare@@UAEPAXI@Z:PROC			; CFlare::`vector deleting destructor'
EXTRN	??_ECLensFlare@@UAEPAXI@Z:PROC			; CLensFlare::`vector deleting destructor'
EXTRN	?GetCurrentCamera@CCameraManager@@QAEPAVCCamera@@XZ:PROC ; CCameraManager::GetCurrentCamera
EXTRN	?SaveRenderState@CStateManager@@QAEXW4_D3DRENDERSTATETYPE@@K@Z:PROC ; CStateManager::SaveRenderState
EXTRN	?RestoreRenderState@CStateManager@@QAEXW4_D3DRENDERSTATETYPE@@@Z:PROC ; CStateManager::RestoreRenderState
EXTRN	?SetTexture@CStateManager@@QAEXKPAUIDirect3DBaseTexture8@@@Z:PROC ; CStateManager::SetTexture
EXTRN	?SetTextureStageState@CStateManager@@QAEXKW4_D3DTEXTURESTAGESTATETYPE@@K@Z:PROC ; CStateManager::SetTextureStageState
EXTRN	?SetVertexShader@CStateManager@@QAEXK@Z:PROC	; CStateManager::SetVertexShader
EXTRN	?SaveTransform@CStateManager@@QAEXW4_D3DTRANSFORMSTATETYPE@@PBU_D3DMATRIX@@@Z:PROC ; CStateManager::SaveTransform
EXTRN	?RestoreTransform@CStateManager@@QAEXW4_D3DTRANSFORMSTATETYPE@@@Z:PROC ; CStateManager::RestoreTransform
EXTRN	?SetTransform@CStateManager@@QAEXW4_D3DTRANSFORMSTATETYPE@@PBU_D3DMATRIX@@@Z:PROC ; CStateManager::SetTransform
EXTRN	?DrawPrimitiveUP@CStateManager@@QAEJW4_D3DPRIMITIVETYPE@@IPBXI@Z:PROC ; CStateManager::DrawPrimitiveUP
EXTRN	?GetResourcePointer@CResourceManager@@QAEPAVCResource@@PBD@Z:PROC ; CResourceManager::GetResourcePointer
EXTRN	@__security_check_cookie@4:PROC
EXTRN	__CxxThrowException@8:PROC
EXTRN	___CxxFrameHandler3:PROC
EXTRN	__ftoui3:PROC
EXTRN	__libm_sse2_acos_precise:PROC
EXTRN	__libm_sse2_sqrt_precise:PROC
EXTRN	_memcpy:PROC
EXTRN	_memmove:PROC
EXTRN	??_7type_info@@6B@:QWORD			; type_info::`vftable'
EXTRN	?ms_matIdentity@CGraphicBase@@1UD3DXMATRIX@@A:ZWORD ; CGraphicBase::ms_matIdentity
EXTRN	?ms_matView@CGraphicBase@@1UD3DXMATRIX@@A:ZWORD	; CGraphicBase::ms_matView
EXTRN	?ms_Viewport@CGraphicBase@@1U_D3DVIEWPORT8@@A:BYTE ; CGraphicBase::ms_Viewport
EXTRN	___security_cookie:DWORD
EXTRN	__fltused:DWORD
;	COMDAT ?ms_singleton@?$CSingleton@VCCameraManager@@@@0PAVCCameraManager@@A
_BSS	SEGMENT
?ms_singleton@?$CSingleton@VCCameraManager@@@@0PAVCCameraManager@@A DD 01H DUP (?) ; CSingleton<CCameraManager>::ms_singleton
_BSS	ENDS
;	COMDAT ?ms_singleton@?$CSingleton@VCStateManager@@@@0PAVCStateManager@@A
_BSS	SEGMENT
?ms_singleton@?$CSingleton@VCStateManager@@@@0PAVCStateManager@@A DD 01H DUP (?) ; CSingleton<CStateManager>::ms_singleton
_BSS	ENDS
;	COMDAT ?ms_singleton@?$CSingleton@VCResourceManager@@@@0PAVCResourceManager@@A
_BSS	SEGMENT
?ms_singleton@?$CSingleton@VCResourceManager@@@@0PAVCResourceManager@@A DD 01H DUP (?) ; CSingleton<CResourceManager>::ms_singleton
_BSS	ENDS
_BSS	SEGMENT
?g_strFiles@@3PAV?$basic_string@DU?$char_traits@D@std@@V?$allocator@D@2@@std@@A DB 0d8H DUP (?) ; g_strFiles
_BSS	ENDS
CRT$XCU	SEGMENT
?g_strFiles$initializer$@@3P6AXXZA DD FLAT:??__Eg_strFiles@@YAXXZ ; g_strFiles$initializer$
CRT$XCU	ENDS
;	COMDAT __xmm@80000000800000008000000080000000
CONST	SEGMENT
__xmm@80000000800000008000000080000000 DB 00H, 00H, 00H, 080H, 00H, 00H, 00H
	DB	080H, 00H, 00H, 00H, 080H, 00H, 00H, 00H, 080H
CONST	ENDS
;	COMDAT __xmm@41f00000000000000000000000000000
CONST	SEGMENT
__xmm@41f00000000000000000000000000000 DB 00H, 00H, 00H, 00H, 00H, 00H, 00H
	DB	00H, 00H, 00H, 00H, 00H, 00H, 00H, 0f0H, 'A'
CONST	ENDS
;	COMDAT __xmm@00000001000000010000000100000001
CONST	SEGMENT
__xmm@00000001000000010000000100000001 DB 01H, 00H, 00H, 00H, 01H, 00H, 00H
	DB	00H, 01H, 00H, 00H, 00H, 01H, 00H, 00H, 00H
CONST	ENDS
;	COMDAT __real@4cbebc20
CONST	SEGMENT
__real@4cbebc20 DD 04cbebc20r			; 1e+08
CONST	ENDS
;	COMDAT __real@437f0000
CONST	SEGMENT
__real@437f0000 DD 0437f0000r			; 255
CONST	ENDS
;	COMDAT __real@43610000
CONST	SEGMENT
__real@43610000 DD 043610000r			; 225
CONST	ENDS
;	COMDAT __real@3fc90fdb
CONST	SEGMENT
__real@3fc90fdb DD 03fc90fdbr			; 1.5708
CONST	ENDS
;	COMDAT __real@3f800000
CONST	SEGMENT
__real@3f800000 DD 03f800000r			; 1
CONST	ENDS
;	COMDAT __real@3f59999a
CONST	SEGMENT
__real@3f59999a DD 03f59999ar			; 0.85
CONST	ENDS
;	COMDAT __real@3f000000
CONST	SEGMENT
__real@3f000000 DD 03f000000r			; 0.5
CONST	ENDS
;	COMDAT ??_R2CGraphicBase@@8
rdata$r	SEGMENT
??_R2CGraphicBase@@8 DD FLAT:??_R1A@?0A@EA@CGraphicBase@@8 ; CGraphicBase::`RTTI Base Class Array'
rdata$r	ENDS
;	COMDAT ??_R3CGraphicBase@@8
rdata$r	SEGMENT
??_R3CGraphicBase@@8 DD 00H				; CGraphicBase::`RTTI Class Hierarchy Descriptor'
	DD	00H
	DD	01H
	DD	FLAT:??_R2CGraphicBase@@8
rdata$r	ENDS
;	COMDAT ??_R0?AVCGraphicBase@@@8
data$rs	SEGMENT
??_R0?AVCGraphicBase@@@8 DD FLAT:??_7type_info@@6B@	; CGraphicBase `RTTI Type Descriptor'
	DD	00H
	DB	'.?AVCGraphicBase@@', 00H
data$rs	ENDS
;	COMDAT ??_R1A@?0A@EA@CGraphicBase@@8
rdata$r	SEGMENT
??_R1A@?0A@EA@CGraphicBase@@8 DD FLAT:??_R0?AVCGraphicBase@@@8 ; CGraphicBase::`RTTI Base Class Descriptor at (0,-1,0,64)'
	DD	00H
	DD	00H
	DD	0ffffffffH
	DD	00H
	DD	040H
	DD	FLAT:??_R3CGraphicBase@@8
rdata$r	ENDS
;	COMDAT ??_R2CGraphicCollisionObject@@8
rdata$r	SEGMENT
??_R2CGraphicCollisionObject@@8 DD FLAT:??_R1A@?0A@EA@CGraphicCollisionObject@@8 ; CGraphicCollisionObject::`RTTI Base Class Array'
	DD	FLAT:??_R1A@?0A@EA@CGraphicBase@@8
rdata$r	ENDS
;	COMDAT ??_R3CGraphicCollisionObject@@8
rdata$r	SEGMENT
??_R3CGraphicCollisionObject@@8 DD 00H			; CGraphicCollisionObject::`RTTI Class Hierarchy Descriptor'
	DD	00H
	DD	02H
	DD	FLAT:??_R2CGraphicCollisionObject@@8
rdata$r	ENDS
;	COMDAT ??_R0?AVCGraphicCollisionObject@@@8
data$rs	SEGMENT
??_R0?AVCGraphicCollisionObject@@@8 DD FLAT:??_7type_info@@6B@ ; CGraphicCollisionObject `RTTI Type Descriptor'
	DD	00H
	DB	'.?AVCGraphicCollisionObject@@', 00H
data$rs	ENDS
;	COMDAT ??_R1A@?0A@EA@CGraphicCollisionObject@@8
rdata$r	SEGMENT
??_R1A@?0A@EA@CGraphicCollisionObject@@8 DD FLAT:??_R0?AVCGraphicCollisionObject@@@8 ; CGraphicCollisionObject::`RTTI Base Class Descriptor at (0,-1,0,64)'
	DD	01H
	DD	00H
	DD	0ffffffffH
	DD	00H
	DD	040H
	DD	FLAT:??_R3CGraphicCollisionObject@@8
rdata$r	ENDS
;	COMDAT ??_R2CScreen@@8
rdata$r	SEGMENT
??_R2CScreen@@8 DD FLAT:??_R1A@?0A@EA@CScreen@@8	; CScreen::`RTTI Base Class Array'
	DD	FLAT:??_R1A@?0A@EA@CGraphicCollisionObject@@8
	DD	FLAT:??_R1A@?0A@EA@CGraphicBase@@8
rdata$r	ENDS
;	COMDAT ??_R3CScreen@@8
rdata$r	SEGMENT
??_R3CScreen@@8 DD 00H					; CScreen::`RTTI Class Hierarchy Descriptor'
	DD	00H
	DD	03H
	DD	FLAT:??_R2CScreen@@8
rdata$r	ENDS
;	COMDAT ??_R0?AVCScreen@@@8
data$rs	SEGMENT
??_R0?AVCScreen@@@8 DD FLAT:??_7type_info@@6B@		; CScreen `RTTI Type Descriptor'
	DD	00H
	DB	'.?AVCScreen@@', 00H
data$rs	ENDS
;	COMDAT ??_R1A@?0A@EA@CScreen@@8
rdata$r	SEGMENT
??_R1A@?0A@EA@CScreen@@8 DD FLAT:??_R0?AVCScreen@@@8	; CScreen::`RTTI Base Class Descriptor at (0,-1,0,64)'
	DD	02H
	DD	00H
	DD	0ffffffffH
	DD	00H
	DD	040H
	DD	FLAT:??_R3CScreen@@8
rdata$r	ENDS
;	COMDAT ??_R1A@?0A@EA@CLensFlare@@8
rdata$r	SEGMENT
??_R1A@?0A@EA@CLensFlare@@8 DD FLAT:??_R0?AVCLensFlare@@@8 ; CLensFlare::`RTTI Base Class Descriptor at (0,-1,0,64)'
	DD	03H
	DD	00H
	DD	0ffffffffH
	DD	00H
	DD	040H
	DD	FLAT:??_R3CLensFlare@@8
rdata$r	ENDS
;	COMDAT ??_R2CLensFlare@@8
rdata$r	SEGMENT
??_R2CLensFlare@@8 DD FLAT:??_R1A@?0A@EA@CLensFlare@@8	; CLensFlare::`RTTI Base Class Array'
	DD	FLAT:??_R1A@?0A@EA@CScreen@@8
	DD	FLAT:??_R1A@?0A@EA@CGraphicCollisionObject@@8
	DD	FLAT:??_R1A@?0A@EA@CGraphicBase@@8
rdata$r	ENDS
;	COMDAT ??_R3CLensFlare@@8
rdata$r	SEGMENT
??_R3CLensFlare@@8 DD 00H				; CLensFlare::`RTTI Class Hierarchy Descriptor'
	DD	00H
	DD	04H
	DD	FLAT:??_R2CLensFlare@@8
rdata$r	ENDS
;	COMDAT ??_R0?AVCLensFlare@@@8
data$rs	SEGMENT
??_R0?AVCLensFlare@@@8 DD FLAT:??_7type_info@@6B@	; CLensFlare `RTTI Type Descriptor'
	DD	00H
	DB	'.?AVCLensFlare@@', 00H
data$rs	ENDS
;	COMDAT ??_R4CLensFlare@@6B@
rdata$r	SEGMENT
??_R4CLensFlare@@6B@ DD 00H				; CLensFlare::`RTTI Complete Object Locator'
	DD	00H
	DD	00H
	DD	FLAT:??_R0?AVCLensFlare@@@8
	DD	FLAT:??_R3CLensFlare@@8
rdata$r	ENDS
;	COMDAT ??_R1A@?0A@EA@CFlare@@8
rdata$r	SEGMENT
??_R1A@?0A@EA@CFlare@@8 DD FLAT:??_R0?AVCFlare@@@8	; CFlare::`RTTI Base Class Descriptor at (0,-1,0,64)'
	DD	00H
	DD	00H
	DD	0ffffffffH
	DD	00H
	DD	040H
	DD	FLAT:??_R3CFlare@@8
rdata$r	ENDS
;	COMDAT ??_R2CFlare@@8
rdata$r	SEGMENT
??_R2CFlare@@8 DD FLAT:??_R1A@?0A@EA@CFlare@@8		; CFlare::`RTTI Base Class Array'
rdata$r	ENDS
;	COMDAT ??_R3CFlare@@8
rdata$r	SEGMENT
??_R3CFlare@@8 DD 00H					; CFlare::`RTTI Class Hierarchy Descriptor'
	DD	00H
	DD	01H
	DD	FLAT:??_R2CFlare@@8
rdata$r	ENDS
;	COMDAT ??_R0?AVCFlare@@@8
data$rs	SEGMENT
??_R0?AVCFlare@@@8 DD FLAT:??_7type_info@@6B@		; CFlare `RTTI Type Descriptor'
	DD	00H
	DB	'.?AVCFlare@@', 00H
data$rs	ENDS
;	COMDAT ??_R4CFlare@@6B@
rdata$r	SEGMENT
??_R4CFlare@@6B@ DD 00H					; CFlare::`RTTI Complete Object Locator'
	DD	00H
	DD	00H
	DD	FLAT:??_R0?AVCFlare@@@8
	DD	FLAT:??_R3CFlare@@8
rdata$r	ENDS
;	COMDAT ??_C@_0BA@FOIKENOD@vector?5too?5long@
CONST	SEGMENT
??_C@_0BA@FOIKENOD@vector?5too?5long@ DB 'vector too long', 00H ; `string'
CONST	ENDS
_DATA	SEGMENT
?g_fPosition@@3PAMA DD 0bf0ccccdr		; -0.55	; g_fPosition
	DD	0bf000000r			; -0.5
	DD	0bee66666r			; -0.45
	DD	03e4ccccdr			; 0.2
	DD	03e99999ar			; 0.3
	DD	03f733333r			; 0.95
	DD	03f666666r			; 0.9
	DD	03f800000r			; 1
?g_fWidth@@3PAMA DD 041a00000r			; 20	; g_fWidth
	DD	042000000r			; 32
	DD	041a00000r			; 20
	DD	042000000r			; 32
	DD	042c80000r			; 100
	DD	042000000r			; 32
	DD	041a00000r			; 20
	DD	0437a0000r			; 250
?g_afColors@@3PAY03MA DD 03f800000r		; 1	; g_afColors
	DD	03f800000r			; 1
	DD	000000000r			; 0
	DD	03f800000r			; 1
	DD	03f800000r			; 1
	DD	03f800000r			; 1
	DD	03f800000r			; 1
	DD	03f800000r			; 1
	DD	000000000r			; 0
	DD	03f800000r			; 1
	DD	000000000r			; 0
	DD	03f4ccccdr			; 0.8
	DD	03e99999ar			; 0.3
	DD	03f000000r			; 0.5
	DD	03f800000r			; 1
	DD	03f666666r			; 0.9
	DD	03e99999ar			; 0.3
	DD	03f000000r			; 0.5
	DD	03f800000r			; 1
	DD	03f19999ar			; 0.6
	DD	03f800000r			; 1
	DD	03f19999ar			; 0.6
	DD	03f666666r			; 0.9
	DD	03ecccccdr			; 0.4
	DD	03f800000r			; 1
	DD	000000000r			; 0
	DD	000000000r			; 0
	DD	03f000000r			; 0.5
	DD	03f800000r			; 1
	DD	03f19999ar			; 0.6
	DD	03e99999ar			; 0.3
	DD	03ecccccdr			; 0.4
_DATA	ENDS
;	COMDAT ??_7CLensFlare@@6B@
CONST	SEGMENT
??_7CLensFlare@@6B@ DD FLAT:??_R4CLensFlare@@6B@	; CLensFlare::`vftable'
	DD	FLAT:??_ECLensFlare@@UAEPAXI@Z
CONST	ENDS
;	COMDAT ??_7CFlare@@6B@
CONST	SEGMENT
??_7CFlare@@6B@ DD FLAT:??_R4CFlare@@6B@		; CFlare::`vftable'
	DD	FLAT:??_ECFlare@@UAEPAXI@Z
CONST	ENDS
;	COMDAT ??_R1A@?0A@EA@bad_array_new_length@std@@8
rdata$r	SEGMENT
??_R1A@?0A@EA@bad_array_new_length@std@@8 DD FLAT:??_R0?AVbad_array_new_length@std@@@8 ; std::bad_array_new_length::`RTTI Base Class Descriptor at (0,-1,0,64)'
	DD	02H
	DD	00H
	DD	0ffffffffH
	DD	00H
	DD	040H
	DD	FLAT:??_R3bad_array_new_length@std@@8
rdata$r	ENDS
;	COMDAT ??_R2bad_array_new_length@std@@8
rdata$r	SEGMENT
??_R2bad_array_new_length@std@@8 DD FLAT:??_R1A@?0A@EA@bad_array_new_length@std@@8 ; std::bad_array_new_length::`RTTI Base Class Array'
	DD	FLAT:??_R1A@?0A@EA@bad_alloc@std@@8
	DD	FLAT:??_R1A@?0A@EA@exception@std@@8
rdata$r	ENDS
;	COMDAT ??_R3bad_array_new_length@std@@8
rdata$r	SEGMENT
??_R3bad_array_new_length@std@@8 DD 00H			; std::bad_array_new_length::`RTTI Class Hierarchy Descriptor'
	DD	00H
	DD	03H
	DD	FLAT:??_R2bad_array_new_length@std@@8
rdata$r	ENDS
;	COMDAT ??_R4bad_array_new_length@std@@6B@
rdata$r	SEGMENT
??_R4bad_array_new_length@std@@6B@ DD 00H		; std::bad_array_new_length::`RTTI Complete Object Locator'
	DD	00H
	DD	00H
	DD	FLAT:??_R0?AVbad_array_new_length@std@@@8
	DD	FLAT:??_R3bad_array_new_length@std@@8
rdata$r	ENDS
;	COMDAT ??_R1A@?0A@EA@bad_alloc@std@@8
rdata$r	SEGMENT
??_R1A@?0A@EA@bad_alloc@std@@8 DD FLAT:??_R0?AVbad_alloc@std@@@8 ; std::bad_alloc::`RTTI Base Class Descriptor at (0,-1,0,64)'
	DD	01H
	DD	00H
	DD	0ffffffffH
	DD	00H
	DD	040H
	DD	FLAT:??_R3bad_alloc@std@@8
rdata$r	ENDS
;	COMDAT ??_R2bad_alloc@std@@8
rdata$r	SEGMENT
??_R2bad_alloc@std@@8 DD FLAT:??_R1A@?0A@EA@bad_alloc@std@@8 ; std::bad_alloc::`RTTI Base Class Array'
	DD	FLAT:??_R1A@?0A@EA@exception@std@@8
rdata$r	ENDS
;	COMDAT ??_R3bad_alloc@std@@8
rdata$r	SEGMENT
??_R3bad_alloc@std@@8 DD 00H				; std::bad_alloc::`RTTI Class Hierarchy Descriptor'
	DD	00H
	DD	02H
	DD	FLAT:??_R2bad_alloc@std@@8
rdata$r	ENDS
;	COMDAT ??_R4bad_alloc@std@@6B@
rdata$r	SEGMENT
??_R4bad_alloc@std@@6B@ DD 00H				; std::bad_alloc::`RTTI Complete Object Locator'
	DD	00H
	DD	00H
	DD	FLAT:??_R0?AVbad_alloc@std@@@8
	DD	FLAT:??_R3bad_alloc@std@@8
rdata$r	ENDS
;	COMDAT ??_R1A@?0A@EA@exception@std@@8
rdata$r	SEGMENT
??_R1A@?0A@EA@exception@std@@8 DD FLAT:??_R0?AVexception@std@@@8 ; std::exception::`RTTI Base Class Descriptor at (0,-1,0,64)'
	DD	00H
	DD	00H
	DD	0ffffffffH
	DD	00H
	DD	040H
	DD	FLAT:??_R3exception@std@@8
rdata$r	ENDS
;	COMDAT ??_R2exception@std@@8
rdata$r	SEGMENT
??_R2exception@std@@8 DD FLAT:??_R1A@?0A@EA@exception@std@@8 ; std::exception::`RTTI Base Class Array'
rdata$r	ENDS
;	COMDAT ??_R3exception@std@@8
rdata$r	SEGMENT
??_R3exception@std@@8 DD 00H				; std::exception::`RTTI Class Hierarchy Descriptor'
	DD	00H
	DD	01H
	DD	FLAT:??_R2exception@std@@8
rdata$r	ENDS
;	COMDAT ??_R4exception@std@@6B@
rdata$r	SEGMENT
??_R4exception@std@@6B@ DD 00H				; std::exception::`RTTI Complete Object Locator'
	DD	00H
	DD	00H
	DD	FLAT:??_R0?AVexception@std@@@8
	DD	FLAT:??_R3exception@std@@8
rdata$r	ENDS
;	COMDAT ??_C@_0BA@JFNIOLAK@string?5too?5long@
CONST	SEGMENT
??_C@_0BA@JFNIOLAK@string?5too?5long@ DB 'string too long', 00H ; `string'
CONST	ENDS
;	COMDAT __CT??_R0?AVexception@std@@@8??0exception@std@@QAE@ABV01@@Z12
xdata$x	SEGMENT
__CT??_R0?AVexception@std@@@8??0exception@std@@QAE@ABV01@@Z12 DD 00H
	DD	FLAT:??_R0?AVexception@std@@@8
	DD	00H
	DD	0ffffffffH
	ORG $+4
	DD	0cH
	DD	FLAT:??0exception@std@@QAE@ABV01@@Z
xdata$x	ENDS
;	COMDAT ??_R0?AVexception@std@@@8
data$r	SEGMENT
??_R0?AVexception@std@@@8 DD FLAT:??_7type_info@@6B@	; std::exception `RTTI Type Descriptor'
	DD	00H
	DB	'.?AVexception@std@@', 00H
data$r	ENDS
;	COMDAT __CT??_R0?AVbad_alloc@std@@@8??0bad_alloc@std@@QAE@ABV01@@Z12
xdata$x	SEGMENT
__CT??_R0?AVbad_alloc@std@@@8??0bad_alloc@std@@QAE@ABV01@@Z12 DD 010H
	DD	FLAT:??_R0?AVbad_alloc@std@@@8
	DD	00H
	DD	0ffffffffH
	ORG $+4
	DD	0cH
	DD	FLAT:??0bad_alloc@std@@QAE@ABV01@@Z
xdata$x	ENDS
;	COMDAT ??_R0?AVbad_alloc@std@@@8
data$r	SEGMENT
??_R0?AVbad_alloc@std@@@8 DD FLAT:??_7type_info@@6B@	; std::bad_alloc `RTTI Type Descriptor'
	DD	00H
	DB	'.?AVbad_alloc@std@@', 00H
data$r	ENDS
;	COMDAT __CT??_R0?AVbad_array_new_length@std@@@8??0bad_array_new_length@std@@QAE@ABV01@@Z12
xdata$x	SEGMENT
__CT??_R0?AVbad_array_new_length@std@@@8??0bad_array_new_length@std@@QAE@ABV01@@Z12 DD 00H
	DD	FLAT:??_R0?AVbad_array_new_length@std@@@8
	DD	00H
	DD	0ffffffffH
	ORG $+4
	DD	0cH
	DD	FLAT:??0bad_array_new_length@std@@QAE@ABV01@@Z
xdata$x	ENDS
;	COMDAT ??_R0?AVbad_array_new_length@std@@@8
data$r	SEGMENT
??_R0?AVbad_array_new_length@std@@@8 DD FLAT:??_7type_info@@6B@ ; std::bad_array_new_length `RTTI Type Descriptor'
	DD	00H
	DB	'.?AVbad_array_new_length@std@@', 00H
data$r	ENDS
;	COMDAT __CTA3?AVbad_array_new_length@std@@
xdata$x	SEGMENT
__CTA3?AVbad_array_new_length@std@@ DD 03H
	DD	FLAT:__CT??_R0?AVbad_array_new_length@std@@@8??0bad_array_new_length@std@@QAE@ABV01@@Z12
	DD	FLAT:__CT??_R0?AVbad_alloc@std@@@8??0bad_alloc@std@@QAE@ABV01@@Z12
	DD	FLAT:__CT??_R0?AVexception@std@@@8??0exception@std@@QAE@ABV01@@Z12
xdata$x	ENDS
;	COMDAT __TI3?AVbad_array_new_length@std@@
xdata$x	SEGMENT
__TI3?AVbad_array_new_length@std@@ DD 00H
	DD	FLAT:??1bad_array_new_length@std@@UAE@XZ
	DD	00H
	DD	FLAT:__CTA3?AVbad_array_new_length@std@@
xdata$x	ENDS
;	COMDAT ??_C@_0BF@KINCDENJ@bad?5array?5new?5length@
CONST	SEGMENT
??_C@_0BF@KINCDENJ@bad?5array?5new?5length@ DB 'bad array new length', 00H ; `string'
CONST	ENDS
;	COMDAT ??_7bad_array_new_length@std@@6B@
CONST	SEGMENT
??_7bad_array_new_length@std@@6B@ DD FLAT:??_R4bad_array_new_length@std@@6B@ ; std::bad_array_new_length::`vftable'
	DD	FLAT:??_Ebad_array_new_length@std@@UAEPAXI@Z
	DD	FLAT:?what@exception@std@@UBEPBDXZ
CONST	ENDS
;	COMDAT ??_7bad_alloc@std@@6B@
CONST	SEGMENT
??_7bad_alloc@std@@6B@ DD FLAT:??_R4bad_alloc@std@@6B@	; std::bad_alloc::`vftable'
	DD	FLAT:??_Ebad_alloc@std@@UAEPAXI@Z
	DD	FLAT:?what@exception@std@@UBEPBDXZ
CONST	ENDS
;	COMDAT ??_C@_0BC@EOODALEL@Unknown?5exception@
CONST	SEGMENT
??_C@_0BC@EOODALEL@Unknown?5exception@ DB 'Unknown exception', 00H ; `string'
CONST	ENDS
;	COMDAT ??_7exception@std@@6B@
CONST	SEGMENT
??_7exception@std@@6B@ DD FLAT:??_R4exception@std@@6B@	; std::exception::`vftable'
	DD	FLAT:??_Eexception@std@@UAEPAXI@Z
	DD	FLAT:?what@exception@std@@UBEPBDXZ
CONST	ENDS
;	COMDAT xdata$x
xdata$x	SEGMENT
__ehfuncinfo$??__Eg_strFiles@@YAXXZ DD 019930522H
	DD	08H
	DD	FLAT:__unwindtable$??__Eg_strFiles@@YAXXZ
	DD	2 DUP(00H)
	DD	2 DUP(00H)
	DD	00H
	DD	01H
__unwindtable$??__Eg_strFiles@@YAXXZ DD 0ffffffffH
	DD	FLAT:__unwindfunclet$??__Eg_strFiles@@YAXXZ$0
	DD	00H
	DD	FLAT:__unwindfunclet$??__Eg_strFiles@@YAXXZ$1
	DD	01H
	DD	FLAT:__unwindfunclet$??__Eg_strFiles@@YAXXZ$2
	DD	02H
	DD	FLAT:__unwindfunclet$??__Eg_strFiles@@YAXXZ$3
	DD	03H
	DD	FLAT:__unwindfunclet$??__Eg_strFiles@@YAXXZ$4
	DD	04H
	DD	FLAT:__unwindfunclet$??__Eg_strFiles@@YAXXZ$5
	DD	05H
	DD	FLAT:__unwindfunclet$??__Eg_strFiles@@YAXXZ$6
	DD	06H
	DD	FLAT:__unwindfunclet$??__Eg_strFiles@@YAXXZ$7
xdata$x	ENDS
;	COMDAT xdata$x
xdata$x	SEGMENT
__unwindtable$?Initialize@CLensFlare@@QAEXV?$basic_string@DU?$char_traits@D@std@@V?$allocator@D@2@@std@@@Z DD 0ffffffffH
	DD	FLAT:__unwindfunclet$?Initialize@CLensFlare@@QAEXV?$basic_string@DU?$char_traits@D@std@@V?$allocator@D@2@@std@@@Z$0
__ehfuncinfo$?Initialize@CLensFlare@@QAEXV?$basic_string@DU?$char_traits@D@std@@V?$allocator@D@2@@std@@@Z DD 019930522H
	DD	01H
	DD	FLAT:__unwindtable$?Initialize@CLensFlare@@QAEXV?$basic_string@DU?$char_traits@D@std@@V?$allocator@D@2@@std@@@Z
	DD	2 DUP(00H)
	DD	2 DUP(00H)
	DD	00H
	DD	01H
xdata$x	ENDS
;	COMDAT xdata$x
xdata$x	SEGMENT
__unwindtable$?SetMainFlare@CLensFlare@@QAEXV?$basic_string@DU?$char_traits@D@std@@V?$allocator@D@2@@std@@M@Z DD 0ffffffffH
	DD	FLAT:__unwindfunclet$?SetMainFlare@CLensFlare@@QAEXV?$basic_string@DU?$char_traits@D@std@@V?$allocator@D@2@@std@@M@Z$0
__ehfuncinfo$?SetMainFlare@CLensFlare@@QAEXV?$basic_string@DU?$char_traits@D@std@@V?$allocator@D@2@@std@@M@Z DD 019930522H
	DD	01H
	DD	FLAT:__unwindtable$?SetMainFlare@CLensFlare@@QAEXV?$basic_string@DU?$char_traits@D@std@@V?$allocator@D@2@@std@@M@Z
	DD	2 DUP(00H)
	DD	2 DUP(00H)
	DD	00H
	DD	01H
xdata$x	ENDS
;	COMDAT xdata$x
xdata$x	SEGMENT
__unwindtable$??0CLensFlare@@QAE@XZ DD 0ffffffffH
	DD	FLAT:__unwindfunclet$??0CLensFlare@@QAE@XZ$0
	DD	00H
	DD	FLAT:__unwindfunclet$??0CLensFlare@@QAE@XZ$1
	DD	01H
	DD	FLAT:__unwindfunclet$??0CLensFlare@@QAE@XZ$2
__ehfuncinfo$??0CLensFlare@@QAE@XZ DD 019930522H
	DD	03H
	DD	FLAT:__unwindtable$??0CLensFlare@@QAE@XZ
	DD	2 DUP(00H)
	DD	2 DUP(00H)
	DD	00H
	DD	01H
xdata$x	ENDS
;	COMDAT xdata$x
xdata$x	SEGMENT
__ehfuncinfo$?Init@CFlare@@QAEXV?$basic_string@DU?$char_traits@D@std@@V?$allocator@D@2@@std@@@Z DD 019930522H
	DD	05H
	DD	FLAT:__unwindtable$?Init@CFlare@@QAEXV?$basic_string@DU?$char_traits@D@std@@V?$allocator@D@2@@std@@@Z
	DD	2 DUP(00H)
	DD	2 DUP(00H)
	DD	00H
	DD	01H
__unwindtable$?Init@CFlare@@QAEXV?$basic_string@DU?$char_traits@D@std@@V?$allocator@D@2@@std@@@Z DD 0ffffffffH
	DD	FLAT:__unwindfunclet$?Init@CFlare@@QAEXV?$basic_string@DU?$char_traits@D@std@@V?$allocator@D@2@@std@@@Z$0
	DD	00H
	DD	FLAT:__unwindfunclet$?Init@CFlare@@QAEXV?$basic_string@DU?$char_traits@D@std@@V?$allocator@D@2@@std@@@Z$1
	DD	01H
	DD	FLAT:__unwindfunclet$?Init@CFlare@@QAEXV?$basic_string@DU?$char_traits@D@std@@V?$allocator@D@2@@std@@@Z$2
	DD	02H
	DD	FLAT:__unwindfunclet$?Init@CFlare@@QAEXV?$basic_string@DU?$char_traits@D@std@@V?$allocator@D@2@@std@@@Z$3
	DD	00H
	DD	FLAT:__unwindfunclet$?Init@CFlare@@QAEXV?$basic_string@DU?$char_traits@D@std@@V?$allocator@D@2@@std@@@Z$4
xdata$x	ENDS
; Function compile flags: /Ogtp
; File C:\Program Files (x86)\Microsoft Visual Studio\2019\Professional\VC\Tools\MSVC\14.29.30133\include\xutility
;	COMDAT ??$_Copy_memmove@PAPAUSFlarePiece@CFlare@@PAPAU12@@std@@YAPAPAUSFlarePiece@CFlare@@PAPAU12@00@Z
_TEXT	SEGMENT
__First$ = 8						; size = 4
__Last$ = 12						; size = 4
__Dest$ = 16						; size = 4
??$_Copy_memmove@PAPAUSFlarePiece@CFlare@@PAPAU12@@std@@YAPAPAUSFlarePiece@CFlare@@PAPAU12@00@Z PROC ; std::_Copy_memmove<CFlare::SFlarePiece * *,CFlare::SFlarePiece * *>, COMDAT

; 4159 : _OutCtgIt _Copy_memmove(_CtgIt _First, _CtgIt _Last, _OutCtgIt _Dest) {

  00000	55		 push	 ebp
  00001	8b ec		 mov	 ebp, esp

; 4160 :     auto _FirstPtr              = _To_address(_First);
; 4161 :     auto _LastPtr               = _To_address(_Last);
; 4162 :     auto _DestPtr               = _To_address(_Dest);
; 4163 :     const char* const _First_ch = const_cast<const char*>(reinterpret_cast<const volatile char*>(_FirstPtr));
; 4164 :     const char* const _Last_ch  = const_cast<const char*>(reinterpret_cast<const volatile char*>(_LastPtr));
; 4165 :     char* const _Dest_ch        = const_cast<char*>(reinterpret_cast<const volatile char*>(_DestPtr));
; 4166 :     const auto _Count           = static_cast<size_t>(_Last_ch - _First_ch);

  00003	8b 45 08	 mov	 eax, DWORD PTR __First$[ebp]
  00006	56		 push	 esi

; 4167 :     _CSTD memmove(_Dest_ch, _First_ch, _Count);

  00007	8b 75 10	 mov	 esi, DWORD PTR __Dest$[ebp]
  0000a	57		 push	 edi
  0000b	8b 7d 0c	 mov	 edi, DWORD PTR __Last$[ebp]
  0000e	2b f8		 sub	 edi, eax
  00010	57		 push	 edi
  00011	50		 push	 eax
  00012	56		 push	 esi
  00013	e8 00 00 00 00	 call	 _memmove
  00018	83 c4 0c	 add	 esp, 12			; 0000000cH

; 4168 :     if constexpr (is_pointer_v<_OutCtgIt>) {
; 4169 :         return reinterpret_cast<_OutCtgIt>(_Dest_ch + _Count);

  0001b	8d 04 37	 lea	 eax, DWORD PTR [edi+esi]
  0001e	5f		 pop	 edi
  0001f	5e		 pop	 esi

; 4170 :     } else {
; 4171 :         return _Dest + (_LastPtr - _FirstPtr);
; 4172 :     }
; 4173 : }

  00020	5d		 pop	 ebp
  00021	c3		 ret	 0
??$_Copy_memmove@PAPAUSFlarePiece@CFlare@@PAPAU12@@std@@YAPAPAUSFlarePiece@CFlare@@PAPAU12@00@Z ENDP ; std::_Copy_memmove<CFlare::SFlarePiece * *,CFlare::SFlarePiece * *>
_TEXT	ENDS
; Function compile flags: /Ogtp
; File C:\Program Files (x86)\Microsoft Visual Studio\2019\Professional\VC\Tools\MSVC\14.29.30133\include\vector
; File C:\Program Files (x86)\Microsoft Visual Studio\2019\Professional\VC\Tools\MSVC\14.29.30133\include\xmemory
; File C:\Program Files (x86)\Microsoft Visual Studio\2019\Professional\VC\Tools\MSVC\14.29.30133\include\vector
; File C:\Program Files (x86)\Microsoft Visual Studio\2019\Professional\VC\Tools\MSVC\14.29.30133\include\xmemory
; File C:\Program Files (x86)\Microsoft Visual Studio\2019\Professional\VC\Tools\MSVC\14.29.30133\include\vector
; File C:\Program Files (x86)\Microsoft Visual Studio\2019\Professional\VC\Tools\MSVC\14.29.30133\include\xmemory
; File C:\Program Files (x86)\Microsoft Visual Studio\2019\Professional\VC\Tools\MSVC\14.29.30133\include\vector
; File C:\Program Files (x86)\Microsoft Visual Studio\2019\Professional\VC\Tools\MSVC\14.29.30133\include\xmemory
; File C:\Program Files (x86)\Microsoft Visual Studio\2019\Professional\VC\Tools\MSVC\14.29.30133\include\vector
; File C:\Program Files (x86)\Microsoft Visual Studio\2019\Professional\VC\Tools\MSVC\14.29.30133\include\xmemory
; File C:\Program Files (x86)\Microsoft Visual Studio\2019\Professional\VC\Tools\MSVC\14.29.30133\include\vector
; File C:\Program Files (x86)\Microsoft Visual Studio\2019\Professional\VC\Tools\MSVC\14.29.30133\include\xmemory
; File C:\Program Files (x86)\Microsoft Visual Studio\2019\Professional\VC\Tools\MSVC\14.29.30133\include\vector
; File C:\Program Files (x86)\Microsoft Visual Studio\2019\Professional\VC\Tools\MSVC\14.29.30133\include\xmemory
; File C:\Program Files (x86)\Microsoft Visual Studio\2019\Professional\VC\Tools\MSVC\14.29.30133\include\vector
; File C:\Program Files (x86)\Microsoft Visual Studio\2019\Professional\VC\Tools\MSVC\14.29.30133\include\xmemory
; File C:\Program Files (x86)\Microsoft Visual Studio\2019\Professional\VC\Tools\MSVC\14.29.30133\include\vector
; File C:\Program Files (x86)\Microsoft Visual Studio\2019\Professional\VC\Tools\MSVC\14.29.30133\include\xmemory
; File C:\Program Files (x86)\Microsoft Visual Studio\2019\Professional\VC\Tools\MSVC\14.29.30133\include\vector
;	COMDAT ??$_Emplace_reallocate@ABQAUSFlarePiece@CFlare@@@?$vector@PAUSFlarePiece@CFlare@@V?$allocator@PAUSFlarePiece@CFlare@@@std@@@std@@QAEPAPAUSFlarePiece@CFlare@@QAPAU23@ABQAU23@@Z
_TEXT	SEGMENT
__Newsize$1$ = -8					; size = 4
tv641 = -4						; size = 4
__Whereoff$1$ = -4					; size = 4
__Whereptr$ = 8						; size = 4
_<_Val_0>$ = 12						; size = 4
??$_Emplace_reallocate@ABQAUSFlarePiece@CFlare@@@?$vector@PAUSFlarePiece@CFlare@@V?$allocator@PAUSFlarePiece@CFlare@@@std@@@std@@QAEPAPAUSFlarePiece@CFlare@@QAPAU23@ABQAU23@@Z PROC ; std::vector<CFlare::SFlarePiece *,std::allocator<CFlare::SFlarePiece *> >::_Emplace_reallocate<CFlare::SFlarePiece * const &>, COMDAT
; _this$ = ecx

; 765  :     _CONSTEXPR20_CONTAINER pointer _Emplace_reallocate(const pointer _Whereptr, _Valty&&... _Val) {

  00000	55		 push	 ebp
  00001	8b ec		 mov	 ebp, esp
  00003	83 ec 08	 sub	 esp, 8

; 766  :         // reallocate and insert by perfectly forwarding _Val at _Whereptr
; 767  :         _Alty& _Al        = _Getal();
; 768  :         auto& _My_data    = _Mypair._Myval2;
; 769  :         pointer& _Myfirst = _My_data._Myfirst;
; 770  :         pointer& _Mylast  = _My_data._Mylast;
; 771  : 
; 772  :         _STL_INTERNAL_CHECK(_Mylast == _My_data._Myend); // check that we have no unused capacity
; 773  : 
; 774  :         const auto _Whereoff = static_cast<size_type>(_Whereptr - _Myfirst);

  00006	8b 45 08	 mov	 eax, DWORD PTR __Whereptr$[ebp]
  00009	53		 push	 ebx
  0000a	56		 push	 esi
  0000b	8b f1		 mov	 esi, ecx
  0000d	57		 push	 edi
  0000e	8b 0e		 mov	 ecx, DWORD PTR [esi]
  00010	2b c1		 sub	 eax, ecx
  00012	c1 f8 02	 sar	 eax, 2
  00015	89 45 fc	 mov	 DWORD PTR __Whereoff$1$[ebp], eax

; 775  :         const auto _Oldsize  = static_cast<size_type>(_Mylast - _Myfirst);

  00018	8b 46 04	 mov	 eax, DWORD PTR [esi+4]
  0001b	2b c1		 sub	 eax, ecx
  0001d	c1 f8 02	 sar	 eax, 2

; 776  : 
; 777  :         if (_Oldsize == max_size()) {

  00020	3d ff ff ff 3f	 cmp	 eax, 1073741823		; 3fffffffH
  00025	0f 84 06 01 00
	00		 je	 $LN96@Emplace_re

; 1559 :         return static_cast<size_type>(_My_data._Myend - _My_data._Myfirst);

  0002b	8b 56 08	 mov	 edx, DWORD PTR [esi+8]

; 779  :         }
; 780  : 
; 781  :         const size_type _Newsize     = _Oldsize + 1;

  0002e	8d 78 01	 lea	 edi, DWORD PTR [eax+1]

; 1559 :         return static_cast<size_type>(_My_data._Myend - _My_data._Myfirst);

  00031	2b d1		 sub	 edx, ecx

; 779  :         }
; 780  : 
; 781  :         const size_type _Newsize     = _Oldsize + 1;

  00033	89 7d f8	 mov	 DWORD PTR __Newsize$1$[ebp], edi

; 1559 :         return static_cast<size_type>(_My_data._Myend - _My_data._Myfirst);

  00036	c1 fa 02	 sar	 edx, 2

; 1688 :         if (_Oldcapacity > _Max - _Oldcapacity / 2) {

  00039	b8 ff ff ff 3f	 mov	 eax, 1073741823		; 3fffffffH
  0003e	8b ca		 mov	 ecx, edx
  00040	d1 e9		 shr	 ecx, 1
  00042	2b c1		 sub	 eax, ecx
  00044	3b d0		 cmp	 edx, eax
  00046	76 12		 jbe	 SHORT $LN12@Emplace_re

; 1689 :             return _Max; // geometric growth would overflow

  00048	bb fc ff ff ff	 mov	 ebx, -4			; fffffffcH
; File C:\Program Files (x86)\Microsoft Visual Studio\2019\Professional\VC\Tools\MSVC\14.29.30133\include\xmemory

; 238  :             return _Allocate_manually_vector_aligned<_Traits>(_Bytes);

  0004d	53		 push	 ebx
  0004e	e8 00 00 00 00	 call	 ??$_Allocate_manually_vector_aligned@U_Default_allocate_traits@std@@@std@@YAPAXI@Z ; std::_Allocate_manually_vector_aligned<std::_Default_allocate_traits>
  00053	83 c4 04	 add	 esp, 4
  00056	8b f8		 mov	 edi, eax
  00058	eb 41		 jmp	 SHORT $LN23@Emplace_re
$LN12@Emplace_re:
; File C:\Program Files (x86)\Microsoft Visual Studio\2019\Professional\VC\Tools\MSVC\14.29.30133\include\vector

; 1692 :         const size_type _Geometric = _Oldcapacity + _Oldcapacity / 2;

  0005a	8d 04 11	 lea	 eax, DWORD PTR [ecx+edx]
; File C:\Program Files (x86)\Microsoft Visual Studio\2019\Professional\VC\Tools\MSVC\14.29.30133\include\xmemory

; 64   :         if (_Count > _Max_possible) {

  0005d	8b df		 mov	 ebx, edi
  0005f	3b c7		 cmp	 eax, edi
  00061	0f 43 d8	 cmovae	 ebx, eax
  00064	81 fb ff ff ff
	3f		 cmp	 ebx, 1073741823		; 3fffffffH
  0006a	0f 87 c6 00 00
	00		 ja	 $LN97@Emplace_re

; 66   :         }
; 67   :     }
; 68   : 
; 69   :     return _Count * _Ty_size;

  00070	c1 e3 02	 shl	 ebx, 2

; 237  :         if (_Bytes >= _Big_allocation_threshold) { // boost the alignment of big allocations to help autovectorization

  00073	81 fb 00 10 00
	00		 cmp	 ebx, 4096		; 00001000H
  00079	72 0d		 jb	 SHORT $LN24@Emplace_re

; 238  :             return _Allocate_manually_vector_aligned<_Traits>(_Bytes);

  0007b	53		 push	 ebx
  0007c	e8 00 00 00 00	 call	 ??$_Allocate_manually_vector_aligned@U_Default_allocate_traits@std@@@std@@YAPAXI@Z ; std::_Allocate_manually_vector_aligned<std::_Default_allocate_traits>
  00081	83 c4 04	 add	 esp, 4
  00084	8b f8		 mov	 edi, eax
  00086	eb 13		 jmp	 SHORT $LN23@Emplace_re
$LN24@Emplace_re:

; 239  :         }
; 240  :     }
; 241  : #endif // defined(_M_IX86) || defined(_M_X64)
; 242  : 
; 243  :     if (_Bytes != 0) {

  00088	85 db		 test	 ebx, ebx
  0008a	74 0d		 je	 SHORT $LN25@Emplace_re

; 85   :         return ::operator new(_Bytes);

  0008c	53		 push	 ebx
  0008d	e8 00 00 00 00	 call	 ??2@YAPAXI@Z		; operator new
  00092	83 c4 04	 add	 esp, 4

; 244  :         return _Traits::_Allocate(_Bytes);

  00095	8b f8		 mov	 edi, eax
  00097	eb 02		 jmp	 SHORT $LN23@Emplace_re
$LN25@Emplace_re:

; 245  :     }
; 246  : 
; 247  :     return nullptr;

  00099	33 ff		 xor	 edi, edi
$LN23@Emplace_re:
; File C:\Program Files (x86)\Microsoft Visual Studio\2019\Professional\VC\Tools\MSVC\14.29.30133\include\vector

; 789  :         _Alty_traits::construct(_Al, _Unfancy(_Newvec + _Whereoff), _STD forward<_Valty>(_Val)...);

  0009b	8b 45 fc	 mov	 eax, DWORD PTR __Whereoff$1$[ebp]
  0009e	8d 0c 87	 lea	 ecx, DWORD PTR [edi+eax*4]
  000a1	8b 45 0c	 mov	 eax, DWORD PTR _<_Val_0>$[ebp]
  000a4	89 4d fc	 mov	 DWORD PTR tv641[ebp], ecx
  000a7	8b 00		 mov	 eax, DWORD PTR [eax]
  000a9	89 01		 mov	 DWORD PTR [ecx], eax

; 790  :         _Constructed_first = _Newvec + _Whereoff;
; 791  : 
; 792  :         if (_Whereptr == _Mylast) { // at back, provide strong guarantee

  000ab	8b 4e 04	 mov	 ecx, DWORD PTR [esi+4]
  000ae	8b 45 08	 mov	 eax, DWORD PTR __Whereptr$[ebp]
  000b1	8b 16		 mov	 edx, DWORD PTR [esi]
  000b3	3b c1		 cmp	 eax, ecx
  000b5	75 04		 jne	 SHORT $LN4@Emplace_re
; File C:\Program Files (x86)\Microsoft Visual Studio\2019\Professional\VC\Tools\MSVC\14.29.30133\include\xmemory

; 1725 :             _Copy_memmove(_UFirst, _ULast, _Unfancy(_Dest));

  000b7	8b c7		 mov	 eax, edi
; File C:\Program Files (x86)\Microsoft Visual Studio\2019\Professional\VC\Tools\MSVC\14.29.30133\include\vector

; 794  :         } else { // provide basic guarantee

  000b9	eb 17		 jmp	 SHORT $LN60@Emplace_re
$LN4@Emplace_re:
; File C:\Program Files (x86)\Microsoft Visual Studio\2019\Professional\VC\Tools\MSVC\14.29.30133\include\xmemory

; 1725 :             _Copy_memmove(_UFirst, _ULast, _Unfancy(_Dest));

  000bb	57		 push	 edi
  000bc	50		 push	 eax
  000bd	52		 push	 edx
  000be	e8 00 00 00 00	 call	 ??$_Copy_memmove@PAPAUSFlarePiece@CFlare@@PAPAU12@@std@@YAPAPAUSFlarePiece@CFlare@@PAPAU12@00@Z ; std::_Copy_memmove<CFlare::SFlarePiece * *,CFlare::SFlarePiece * *>
; File C:\Program Files (x86)\Microsoft Visual Studio\2019\Professional\VC\Tools\MSVC\14.29.30133\include\vector

; 797  :             _Umove(_Whereptr, _Mylast, _Newvec + _Whereoff + 1);

  000c3	8b 45 fc	 mov	 eax, DWORD PTR tv641[ebp]
; File C:\Program Files (x86)\Microsoft Visual Studio\2019\Professional\VC\Tools\MSVC\14.29.30133\include\xmemory

; 1725 :             _Copy_memmove(_UFirst, _ULast, _Unfancy(_Dest));

  000c6	83 c4 0c	 add	 esp, 12			; 0000000cH
  000c9	8b 55 08	 mov	 edx, DWORD PTR __Whereptr$[ebp]
; File C:\Program Files (x86)\Microsoft Visual Studio\2019\Professional\VC\Tools\MSVC\14.29.30133\include\vector

; 797  :             _Umove(_Whereptr, _Mylast, _Newvec + _Whereoff + 1);

  000cc	83 c0 04	 add	 eax, 4
; File C:\Program Files (x86)\Microsoft Visual Studio\2019\Professional\VC\Tools\MSVC\14.29.30133\include\xmemory

; 1725 :             _Copy_memmove(_UFirst, _ULast, _Unfancy(_Dest));

  000cf	8b 4e 04	 mov	 ecx, DWORD PTR [esi+4]
$LN60@Emplace_re:
; File C:\Program Files (x86)\Microsoft Visual Studio\2019\Professional\VC\Tools\MSVC\14.29.30133\include\vector

; 797  :             _Umove(_Whereptr, _Mylast, _Newvec + _Whereoff + 1);

  000d2	50		 push	 eax
  000d3	51		 push	 ecx
  000d4	52		 push	 edx
  000d5	e8 00 00 00 00	 call	 ??$_Copy_memmove@PAPAUSFlarePiece@CFlare@@PAPAU12@@std@@YAPAPAUSFlarePiece@CFlare@@PAPAU12@00@Z ; std::_Copy_memmove<CFlare::SFlarePiece * *,CFlare::SFlarePiece * *>

; 1745 :         if (_Myfirst) { // destroy and deallocate old array

  000da	8b 06		 mov	 eax, DWORD PTR [esi]

; 797  :             _Umove(_Whereptr, _Mylast, _Newvec + _Whereoff + 1);

  000dc	83 c4 0c	 add	 esp, 12			; 0000000cH

; 1745 :         if (_Myfirst) { // destroy and deallocate old array

  000df	85 c0		 test	 eax, eax
  000e1	74 2c		 je	 SHORT $LN78@Emplace_re

; 1746 :             _Destroy(_Myfirst, _Mylast);
; 1747 :             _Getal().deallocate(_Myfirst, static_cast<size_type>(_Myend - _Myfirst));

  000e3	8b 4e 08	 mov	 ecx, DWORD PTR [esi+8]
  000e6	2b c8		 sub	 ecx, eax
; File C:\Program Files (x86)\Microsoft Visual Studio\2019\Professional\VC\Tools\MSVC\14.29.30133\include\xmemory

; 835  :         _Deallocate<_New_alignof<_Ty>>(_Ptr, sizeof(_Ty) * _Count);

  000e8	83 e1 fc	 and	 ecx, -4			; fffffffcH

; 260  :         if (_Bytes >= _Big_allocation_threshold) { // boost the alignment of big allocations to help autovectorization

  000eb	81 f9 00 10 00
	00		 cmp	 ecx, 4096		; 00001000H
  000f1	72 12		 jb	 SHORT $LN88@Emplace_re

; 158  :     const uintptr_t _Ptr_container   = _Ptr_user[-1];

  000f3	8b 50 fc	 mov	 edx, DWORD PTR [eax-4]
  000f6	83 c1 23	 add	 ecx, 35			; 00000023H

; 159  : 
; 160  :     // If the following asserts, it likely means that we are performing
; 161  :     // an aligned delete on memory coming from an unaligned allocation.
; 162  :     _STL_ASSERT(_Ptr_user[-2] == _Big_allocation_sentinel, "invalid argument");
; 163  : 
; 164  :     // Extra paranoia on aligned allocation/deallocation; ensure _Ptr_container is
; 165  :     // in range [_Min_back_shift, _Non_user_size]
; 166  : #ifdef _DEBUG
; 167  :     constexpr uintptr_t _Min_back_shift = 2 * sizeof(void*);
; 168  : #else // ^^^ _DEBUG ^^^ // vvv !_DEBUG vvv
; 169  :     constexpr uintptr_t _Min_back_shift = sizeof(void*);
; 170  : #endif // _DEBUG
; 171  :     const uintptr_t _Back_shift = reinterpret_cast<uintptr_t>(_Ptr) - _Ptr_container;

  000f9	2b c2		 sub	 eax, edx

; 172  :     _STL_VERIFY(_Back_shift >= _Min_back_shift && _Back_shift <= _Non_user_size, "invalid argument");

  000fb	83 c0 fc	 add	 eax, -4			; fffffffcH
  000fe	83 f8 1f	 cmp	 eax, 31			; 0000001fH
  00101	77 29		 ja	 SHORT $LN85@Emplace_re

; 173  :     _Ptr = reinterpret_cast<void*>(_Ptr_container);

  00103	8b c2		 mov	 eax, edx
$LN88@Emplace_re:

; 264  :         ::operator delete(_Ptr, _Bytes);

  00105	51		 push	 ecx
  00106	50		 push	 eax
  00107	e8 00 00 00 00	 call	 ??3@YAXPAXI@Z		; operator delete
  0010c	83 c4 08	 add	 esp, 8
$LN78@Emplace_re:
; File C:\Program Files (x86)\Microsoft Visual Studio\2019\Professional\VC\Tools\MSVC\14.29.30133\include\vector

; 1751 :         _Mylast  = _Newvec + _Newsize;

  0010f	8b 45 f8	 mov	 eax, DWORD PTR __Newsize$1$[ebp]
  00112	89 3e		 mov	 DWORD PTR [esi], edi
  00114	8d 0c 87	 lea	 ecx, DWORD PTR [edi+eax*4]

; 798  :         }
; 799  :         _CATCH_ALL
; 800  :         _Destroy(_Constructed_first, _Constructed_last);
; 801  :         _Al.deallocate(_Newvec, _Newcapacity);
; 802  :         _RERAISE;
; 803  :         _CATCH_END
; 804  : 
; 805  :         _Change_array(_Newvec, _Newsize, _Newcapacity);
; 806  :         return _Newvec + _Whereoff;

  00117	8b 45 fc	 mov	 eax, DWORD PTR tv641[ebp]

; 1751 :         _Mylast  = _Newvec + _Newsize;

  0011a	89 4e 04	 mov	 DWORD PTR [esi+4], ecx

; 1752 :         _Myend   = _Newvec + _Newcapacity;

  0011d	8d 0c 3b	 lea	 ecx, DWORD PTR [ebx+edi]

; 798  :         }
; 799  :         _CATCH_ALL
; 800  :         _Destroy(_Constructed_first, _Constructed_last);
; 801  :         _Al.deallocate(_Newvec, _Newcapacity);
; 802  :         _RERAISE;
; 803  :         _CATCH_END
; 804  : 
; 805  :         _Change_array(_Newvec, _Newsize, _Newcapacity);
; 806  :         return _Newvec + _Whereoff;

  00120	5f		 pop	 edi

; 1752 :         _Myend   = _Newvec + _Newcapacity;

  00121	89 4e 08	 mov	 DWORD PTR [esi+8], ecx

; 798  :         }
; 799  :         _CATCH_ALL
; 800  :         _Destroy(_Constructed_first, _Constructed_last);
; 801  :         _Al.deallocate(_Newvec, _Newcapacity);
; 802  :         _RERAISE;
; 803  :         _CATCH_END
; 804  : 
; 805  :         _Change_array(_Newvec, _Newsize, _Newcapacity);
; 806  :         return _Newvec + _Whereoff;

  00124	5e		 pop	 esi
  00125	5b		 pop	 ebx

; 807  :     }

  00126	8b e5		 mov	 esp, ebp
  00128	5d		 pop	 ebp
  00129	c2 08 00	 ret	 8
$LN85@Emplace_re:
; File C:\Program Files (x86)\Microsoft Visual Studio\2019\Professional\VC\Tools\MSVC\14.29.30133\include\xmemory

; 172  :     _STL_VERIFY(_Back_shift >= _Min_back_shift && _Back_shift <= _Non_user_size, "invalid argument");

  0012c	e8 00 00 00 00	 call	 __invalid_parameter_noinfo_noreturn
$LN96@Emplace_re:
; File C:\Program Files (x86)\Microsoft Visual Studio\2019\Professional\VC\Tools\MSVC\14.29.30133\include\vector

; 778  :             _Xlength();

  00131	e8 00 00 00 00	 call	 ?_Xlength@?$vector@PAUSFlarePiece@CFlare@@V?$allocator@PAUSFlarePiece@CFlare@@@std@@@std@@CAXXZ ; std::vector<CFlare::SFlarePiece *,std::allocator<CFlare::SFlarePiece *> >::_Xlength
$LN97@Emplace_re:
; File C:\Program Files (x86)\Microsoft Visual Studio\2019\Professional\VC\Tools\MSVC\14.29.30133\include\xmemory

; 65   :             _Throw_bad_array_new_length(); // multiply overflow

  00136	e8 00 00 00 00	 call	 ?_Throw_bad_array_new_length@std@@YAXXZ ; std::_Throw_bad_array_new_length
$LN94@Emplace_re:
  0013b	cc		 int	 3
??$_Emplace_reallocate@ABQAUSFlarePiece@CFlare@@@?$vector@PAUSFlarePiece@CFlare@@V?$allocator@PAUSFlarePiece@CFlare@@@std@@@std@@QAEPAPAUSFlarePiece@CFlare@@QAPAU23@ABQAU23@@Z ENDP ; std::vector<CFlare::SFlarePiece *,std::allocator<CFlare::SFlarePiece *> >::_Emplace_reallocate<CFlare::SFlarePiece * const &>
_TEXT	ENDS
; Function compile flags: /Ogtp
; File C:\Program Files (x86)\Microsoft Visual Studio\2019\Professional\VC\Tools\MSVC\14.29.30133\include\xstring
;	COMDAT ??$?9DU?$char_traits@D@std@@V?$allocator@D@1@@std@@YA_NABV?$basic_string@DU?$char_traits@D@std@@V?$allocator@D@2@@0@QBD@Z
_TEXT	SEGMENT
__Left$ = 8						; size = 4
__Right$ = 12						; size = 4
??$?9DU?$char_traits@D@std@@V?$allocator@D@1@@std@@YA_NABV?$basic_string@DU?$char_traits@D@std@@V?$allocator@D@2@@0@QBD@Z PROC ; std::operator!=<char,std::char_traits<char>,std::allocator<char> >, COMDAT

; 4836 : _NODISCARD bool operator!=(const basic_string<_Elem, _Traits, _Alloc>& _Left, _In_z_ const _Elem* const _Right) {

  00000	55		 push	 ebp
  00001	8b ec		 mov	 ebp, esp
  00003	56		 push	 esi

; 412  :         return _CSTD strlen(reinterpret_cast<const char*>(_First));

  00004	8b 75 0c	 mov	 esi, DWORD PTR __Right$[ebp]

; 4836 : _NODISCARD bool operator!=(const basic_string<_Elem, _Traits, _Alloc>& _Left, _In_z_ const _Elem* const _Right) {

  00007	57		 push	 edi

; 412  :         return _CSTD strlen(reinterpret_cast<const char*>(_First));

  00008	8b fe		 mov	 edi, esi
  0000a	8d 4f 01	 lea	 ecx, DWORD PTR [edi+1]
  0000d	0f 1f 00	 npad	 3
$LL20@operator:
  00010	8a 07		 mov	 al, BYTE PTR [edi]
  00012	47		 inc	 edi
  00013	84 c0		 test	 al, al
  00015	75 f9		 jne	 SHORT $LL20@operator

; 2305 :         const value_type* _Result = _Bx._Buf;

  00017	8b 55 08	 mov	 edx, DWORD PTR __Left$[ebp]

; 412  :         return _CSTD strlen(reinterpret_cast<const char*>(_First));

  0001a	2b f9		 sub	 edi, ecx

; 2305 :         const value_type* _Result = _Bx._Buf;

  0001c	8b ca		 mov	 ecx, edx

; 2319 :         return _BUF_SIZE <= _Myres;

  0001e	83 7a 14 10	 cmp	 DWORD PTR [edx+20], 16	; 00000010H

; 2306 :         if (_Large_string_engaged()) {

  00022	72 02		 jb	 SHORT $LN10@operator

; 2307 :             _Result = _Unfancy(_Bx._Ptr);

  00024	8b 0a		 mov	 ecx, DWORD PTR [edx]
$LN10@operator:

; 4378 :         return _Traits_equal<_Traits>(_Mypair._Myval2._Myptr(), _Mypair._Myval2._Mysize, _Ptr, _Traits::length(_Ptr));

  00026	8b 52 10	 mov	 edx, DWORD PTR [edx+16]

; 583  :     return _Left_size == _Right_size && _Traits::compare(_Left, _Right, _Left_size) == 0;

  00029	3b d7		 cmp	 edx, edi
  0002b	75 5b		 jne	 SHORT $LN16@operator

; 392  :         return _CSTD memcmp(_First1, _First2, _Count);

  0002d	83 ea 04	 sub	 edx, 4
  00030	72 11		 jb	 SHORT $LN23@operator
$LL24@operator:
  00032	8b 01		 mov	 eax, DWORD PTR [ecx]
  00034	3b 06		 cmp	 eax, DWORD PTR [esi]
  00036	75 10		 jne	 SHORT $LN22@operator
  00038	83 c1 04	 add	 ecx, 4
  0003b	83 c6 04	 add	 esi, 4
  0003e	83 ea 04	 sub	 edx, 4
  00041	73 ef		 jae	 SHORT $LL24@operator
$LN23@operator:
  00043	83 fa fc	 cmp	 edx, -4			; fffffffcH
  00046	74 34		 je	 SHORT $LN21@operator
$LN22@operator:
  00048	8a 01		 mov	 al, BYTE PTR [ecx]
  0004a	3a 06		 cmp	 al, BYTE PTR [esi]
  0004c	75 27		 jne	 SHORT $LN25@operator
  0004e	83 fa fd	 cmp	 edx, -3			; fffffffdH
  00051	74 29		 je	 SHORT $LN21@operator
  00053	8a 41 01	 mov	 al, BYTE PTR [ecx+1]
  00056	3a 46 01	 cmp	 al, BYTE PTR [esi+1]
  00059	75 1a		 jne	 SHORT $LN25@operator
  0005b	83 fa fe	 cmp	 edx, -2			; fffffffeH
  0005e	74 1c		 je	 SHORT $LN21@operator
  00060	8a 41 02	 mov	 al, BYTE PTR [ecx+2]
  00063	3a 46 02	 cmp	 al, BYTE PTR [esi+2]
  00066	75 0d		 jne	 SHORT $LN25@operator
  00068	83 fa ff	 cmp	 edx, -1
  0006b	74 0f		 je	 SHORT $LN21@operator
  0006d	8a 41 03	 mov	 al, BYTE PTR [ecx+3]
  00070	3a 46 03	 cmp	 al, BYTE PTR [esi+3]
  00073	74 07		 je	 SHORT $LN21@operator
$LN25@operator:
  00075	1b c0		 sbb	 eax, eax
  00077	83 c8 01	 or	 eax, 1
  0007a	eb 02		 jmp	 SHORT $LN26@operator
$LN21@operator:
  0007c	33 c0		 xor	 eax, eax
$LN26@operator:

; 583  :     return _Left_size == _Right_size && _Traits::compare(_Left, _Right, _Left_size) == 0;

  0007e	85 c0		 test	 eax, eax
  00080	75 06		 jne	 SHORT $LN16@operator
  00082	5f		 pop	 edi
  00083	32 c0		 xor	 al, al

; 4837 :     return !(_Left == _Right);
; 4838 : }

  00085	5e		 pop	 esi
  00086	5d		 pop	 ebp
  00087	c3		 ret	 0
$LN16@operator:
  00088	5f		 pop	 edi

; 583  :     return _Left_size == _Right_size && _Traits::compare(_Left, _Right, _Left_size) == 0;

  00089	b0 01		 mov	 al, 1

; 4837 :     return !(_Left == _Right);
; 4838 : }

  0008b	5e		 pop	 esi
  0008c	5d		 pop	 ebp
  0008d	c3		 ret	 0
??$?9DU?$char_traits@D@std@@V?$allocator@D@1@@std@@YA_NABV?$basic_string@DU?$char_traits@D@std@@V?$allocator@D@2@@0@QBD@Z ENDP ; std::operator!=<char,std::char_traits<char>,std::allocator<char> >
_TEXT	ENDS
; Function compile flags: /Ogtp
;	COMDAT ??__Fg_strFiles@@YAXXZ
text$yd	SEGMENT
??__Fg_strFiles@@YAXXZ PROC				; `dynamic atexit destructor for 'g_strFiles'', COMDAT
  00000	68 00 00 00 00	 push	 OFFSET ??1?$basic_string@DU?$char_traits@D@std@@V?$allocator@D@2@@std@@QAE@XZ ; std::basic_string<char,std::char_traits<char>,std::allocator<char> >::~basic_string<char,std::char_traits<char>,std::allocator<char> >
  00005	6a 09		 push	 9
  00007	6a 18		 push	 24			; 00000018H
  00009	68 00 00 00 00	 push	 OFFSET ?g_strFiles@@3PAV?$basic_string@DU?$char_traits@D@std@@V?$allocator@D@2@@std@@A
  0000e	e8 00 00 00 00	 call	 ??_M@YGXPAXIIP6EX0@Z@Z
  00013	c3		 ret	 0
??__Fg_strFiles@@YAXXZ ENDP				; `dynamic atexit destructor for 'g_strFiles''
text$yd	ENDS
; Function compile flags: /Ogtp
; File C:\Users\murat\Desktop\Siveps2-1-99-Project\source\client\Client\EterLib\LensFlare.cpp
;	COMDAT ??__Eg_strFiles@@YAXXZ
text$di	SEGMENT
__$EHRec$ = -12						; size = 12
??__Eg_strFiles@@YAXXZ PROC				; `dynamic initializer for 'g_strFiles'', COMDAT

; 50   : };

  00000	55		 push	 ebp
  00001	8b ec		 mov	 ebp, esp
  00003	6a ff		 push	 -1
  00005	68 00 00 00 00	 push	 __ehhandler$??__Eg_strFiles@@YAXXZ
  0000a	64 a1 00 00 00
	00		 mov	 eax, DWORD PTR fs:0
  00010	50		 push	 eax
  00011	a1 00 00 00 00	 mov	 eax, DWORD PTR ___security_cookie
  00016	33 c5		 xor	 eax, ebp
  00018	50		 push	 eax
  00019	8d 45 f4	 lea	 eax, DWORD PTR __$EHRec$[ebp]
  0001c	64 a3 00 00 00
	00		 mov	 DWORD PTR fs:0, eax

; 40   : {
; 41   : 	"flare2.dds",

  00022	68 00 00 00 00	 push	 OFFSET ??_C@_0L@FDOKIIIA@flare2?4dds@
  00027	b9 00 00 00 00	 mov	 ecx, OFFSET ?g_strFiles@@3PAV?$basic_string@DU?$char_traits@D@std@@V?$allocator@D@2@@std@@A
  0002c	e8 00 00 00 00	 call	 ??0?$basic_string@DU?$char_traits@D@std@@V?$allocator@D@2@@std@@QAE@QBD@Z ; std::basic_string<char,std::char_traits<char>,std::allocator<char> >::basic_string<char,std::char_traits<char>,std::allocator<char> >

; 42   : 	"flare1.dds",

  00031	68 00 00 00 00	 push	 OFFSET ??_C@_0L@NFHOPKCO@flare1?4dds@
  00036	b9 18 00 00 00	 mov	 ecx, OFFSET ?g_strFiles@@3PAV?$basic_string@DU?$char_traits@D@std@@V?$allocator@D@2@@std@@A+24
  0003b	c7 45 fc 00 00
	00 00		 mov	 DWORD PTR __$EHRec$[ebp+8], 0
  00042	e8 00 00 00 00	 call	 ??0?$basic_string@DU?$char_traits@D@std@@V?$allocator@D@2@@std@@QAE@QBD@Z ; std::basic_string<char,std::char_traits<char>,std::allocator<char> >::basic_string<char,std::char_traits<char>,std::allocator<char> >

; 43   : 	"flare2.dds",

  00047	68 00 00 00 00	 push	 OFFSET ??_C@_0L@FDOKIIIA@flare2?4dds@
  0004c	b9 30 00 00 00	 mov	 ecx, OFFSET ?g_strFiles@@3PAV?$basic_string@DU?$char_traits@D@std@@V?$allocator@D@2@@std@@A+48
  00051	c6 45 fc 01	 mov	 BYTE PTR __$EHRec$[ebp+8], 1
  00055	e8 00 00 00 00	 call	 ??0?$basic_string@DU?$char_traits@D@std@@V?$allocator@D@2@@std@@QAE@QBD@Z ; std::basic_string<char,std::char_traits<char>,std::allocator<char> >::basic_string<char,std::char_traits<char>,std::allocator<char> >

; 44   : 	"flare1.dds",

  0005a	68 00 00 00 00	 push	 OFFSET ??_C@_0L@NFHOPKCO@flare1?4dds@
  0005f	b9 48 00 00 00	 mov	 ecx, OFFSET ?g_strFiles@@3PAV?$basic_string@DU?$char_traits@D@std@@V?$allocator@D@2@@std@@A+72
  00064	c6 45 fc 02	 mov	 BYTE PTR __$EHRec$[ebp+8], 2
  00068	e8 00 00 00 00	 call	 ??0?$basic_string@DU?$char_traits@D@std@@V?$allocator@D@2@@std@@QAE@QBD@Z ; std::basic_string<char,std::char_traits<char>,std::allocator<char> >::basic_string<char,std::char_traits<char>,std::allocator<char> >

; 45   : 	"flare6.dds",

  0006d	68 00 00 00 00	 push	 OFFSET ??_C@_0L@MIHLMKJG@flare6?4dds@
  00072	b9 60 00 00 00	 mov	 ecx, OFFSET ?g_strFiles@@3PAV?$basic_string@DU?$char_traits@D@std@@V?$allocator@D@2@@std@@A+96
  00077	c6 45 fc 03	 mov	 BYTE PTR __$EHRec$[ebp+8], 3
  0007b	e8 00 00 00 00	 call	 ??0?$basic_string@DU?$char_traits@D@std@@V?$allocator@D@2@@std@@QAE@QBD@Z ; std::basic_string<char,std::char_traits<char>,std::allocator<char> >::basic_string<char,std::char_traits<char>,std::allocator<char> >

; 46   : 	"flare4.dds",

  00080	68 00 00 00 00	 push	 OFFSET ??_C@_0L@IFLDGLJN@flare4?4dds@
  00085	b9 78 00 00 00	 mov	 ecx, OFFSET ?g_strFiles@@3PAV?$basic_string@DU?$char_traits@D@std@@V?$allocator@D@2@@std@@A+120
  0008a	c6 45 fc 04	 mov	 BYTE PTR __$EHRec$[ebp+8], 4
  0008e	e8 00 00 00 00	 call	 ??0?$basic_string@DU?$char_traits@D@std@@V?$allocator@D@2@@std@@QAE@QBD@Z ; std::basic_string<char,std::char_traits<char>,std::allocator<char> >::basic_string<char,std::char_traits<char>,std::allocator<char> >

; 47   : 	"flare2.dds",

  00093	68 00 00 00 00	 push	 OFFSET ??_C@_0L@FDOKIIIA@flare2?4dds@
  00098	b9 90 00 00 00	 mov	 ecx, OFFSET ?g_strFiles@@3PAV?$basic_string@DU?$char_traits@D@std@@V?$allocator@D@2@@std@@A+144
  0009d	c6 45 fc 05	 mov	 BYTE PTR __$EHRec$[ebp+8], 5
  000a1	e8 00 00 00 00	 call	 ??0?$basic_string@DU?$char_traits@D@std@@V?$allocator@D@2@@std@@QAE@QBD@Z ; std::basic_string<char,std::char_traits<char>,std::allocator<char> >::basic_string<char,std::char_traits<char>,std::allocator<char> >

; 48   : 	"flare3.dds",

  000a6	68 00 00 00 00	 push	 OFFSET ??_C@_0L@JILGFLCF@flare3?4dds@
  000ab	b9 a8 00 00 00	 mov	 ecx, OFFSET ?g_strFiles@@3PAV?$basic_string@DU?$char_traits@D@std@@V?$allocator@D@2@@std@@A+168
  000b0	c6 45 fc 06	 mov	 BYTE PTR __$EHRec$[ebp+8], 6
  000b4	e8 00 00 00 00	 call	 ??0?$basic_string@DU?$char_traits@D@std@@V?$allocator@D@2@@std@@QAE@QBD@Z ; std::basic_string<char,std::char_traits<char>,std::allocator<char> >::basic_string<char,std::char_traits<char>,std::allocator<char> >

; 49   : 	""

  000b9	68 00 00 00 00	 push	 OFFSET ??_C@_00CNPNBAHC@@
  000be	b9 c0 00 00 00	 mov	 ecx, OFFSET ?g_strFiles@@3PAV?$basic_string@DU?$char_traits@D@std@@V?$allocator@D@2@@std@@A+192
  000c3	c6 45 fc 07	 mov	 BYTE PTR __$EHRec$[ebp+8], 7
  000c7	e8 00 00 00 00	 call	 ??0?$basic_string@DU?$char_traits@D@std@@V?$allocator@D@2@@std@@QAE@QBD@Z ; std::basic_string<char,std::char_traits<char>,std::allocator<char> >::basic_string<char,std::char_traits<char>,std::allocator<char> >
  000cc	68 00 00 00 00	 push	 OFFSET ??__Fg_strFiles@@YAXXZ ; `dynamic atexit destructor for 'g_strFiles''
  000d1	e8 00 00 00 00	 call	 _atexit
  000d6	83 c4 04	 add	 esp, 4

; 39   : static string g_strFiles[] =

  000d9	8b 4d f4	 mov	 ecx, DWORD PTR __$EHRec$[ebp]
  000dc	64 89 0d 00 00
	00 00		 mov	 DWORD PTR fs:0, ecx
  000e3	59		 pop	 ecx
  000e4	8b e5		 mov	 esp, ebp
  000e6	5d		 pop	 ebp
  000e7	c3		 ret	 0
text$di	ENDS
;	COMDAT text$x
text$x	SEGMENT
__unwindfunclet$??__Eg_strFiles@@YAXXZ$0:
  00000	b9 00 00 00 00	 mov	 ecx, OFFSET ?g_strFiles@@3PAV?$basic_string@DU?$char_traits@D@std@@V?$allocator@D@2@@std@@A
  00005	e9 00 00 00 00	 jmp	 ??1?$basic_string@DU?$char_traits@D@std@@V?$allocator@D@2@@std@@QAE@XZ ; std::basic_string<char,std::char_traits<char>,std::allocator<char> >::~basic_string<char,std::char_traits<char>,std::allocator<char> >
__unwindfunclet$??__Eg_strFiles@@YAXXZ$1:
  0000a	b9 18 00 00 00	 mov	 ecx, OFFSET ?g_strFiles@@3PAV?$basic_string@DU?$char_traits@D@std@@V?$allocator@D@2@@std@@A+24
  0000f	e9 00 00 00 00	 jmp	 ??1?$basic_string@DU?$char_traits@D@std@@V?$allocator@D@2@@std@@QAE@XZ ; std::basic_string<char,std::char_traits<char>,std::allocator<char> >::~basic_string<char,std::char_traits<char>,std::allocator<char> >
__unwindfunclet$??__Eg_strFiles@@YAXXZ$2:
  00014	b9 30 00 00 00	 mov	 ecx, OFFSET ?g_strFiles@@3PAV?$basic_string@DU?$char_traits@D@std@@V?$allocator@D@2@@std@@A+48
  00019	e9 00 00 00 00	 jmp	 ??1?$basic_string@DU?$char_traits@D@std@@V?$allocator@D@2@@std@@QAE@XZ ; std::basic_string<char,std::char_traits<char>,std::allocator<char> >::~basic_string<char,std::char_traits<char>,std::allocator<char> >
__unwindfunclet$??__Eg_strFiles@@YAXXZ$3:
  0001e	b9 48 00 00 00	 mov	 ecx, OFFSET ?g_strFiles@@3PAV?$basic_string@DU?$char_traits@D@std@@V?$allocator@D@2@@std@@A+72
  00023	e9 00 00 00 00	 jmp	 ??1?$basic_string@DU?$char_traits@D@std@@V?$allocator@D@2@@std@@QAE@XZ ; std::basic_string<char,std::char_traits<char>,std::allocator<char> >::~basic_string<char,std::char_traits<char>,std::allocator<char> >
__unwindfunclet$??__Eg_strFiles@@YAXXZ$4:
  00028	b9 60 00 00 00	 mov	 ecx, OFFSET ?g_strFiles@@3PAV?$basic_string@DU?$char_traits@D@std@@V?$allocator@D@2@@std@@A+96
  0002d	e9 00 00 00 00	 jmp	 ??1?$basic_string@DU?$char_traits@D@std@@V?$allocator@D@2@@std@@QAE@XZ ; std::basic_string<char,std::char_traits<char>,std::allocator<char> >::~basic_string<char,std::char_traits<char>,std::allocator<char> >
__unwindfunclet$??__Eg_strFiles@@YAXXZ$5:
  00032	b9 78 00 00 00	 mov	 ecx, OFFSET ?g_strFiles@@3PAV?$basic_string@DU?$char_traits@D@std@@V?$allocator@D@2@@std@@A+120
  00037	e9 00 00 00 00	 jmp	 ??1?$basic_string@DU?$char_traits@D@std@@V?$allocator@D@2@@std@@QAE@XZ ; std::basic_string<char,std::char_traits<char>,std::allocator<char> >::~basic_string<char,std::char_traits<char>,std::allocator<char> >
__unwindfunclet$??__Eg_strFiles@@YAXXZ$6:
  0003c	b9 90 00 00 00	 mov	 ecx, OFFSET ?g_strFiles@@3PAV?$basic_string@DU?$char_traits@D@std@@V?$allocator@D@2@@std@@A+144
  00041	e9 00 00 00 00	 jmp	 ??1?$basic_string@DU?$char_traits@D@std@@V?$allocator@D@2@@std@@QAE@XZ ; std::basic_string<char,std::char_traits<char>,std::allocator<char> >::~basic_string<char,std::char_traits<char>,std::allocator<char> >
__unwindfunclet$??__Eg_strFiles@@YAXXZ$7:
  00046	b9 a8 00 00 00	 mov	 ecx, OFFSET ?g_strFiles@@3PAV?$basic_string@DU?$char_traits@D@std@@V?$allocator@D@2@@std@@A+168
  0004b	e9 00 00 00 00	 jmp	 ??1?$basic_string@DU?$char_traits@D@std@@V?$allocator@D@2@@std@@QAE@XZ ; std::basic_string<char,std::char_traits<char>,std::allocator<char> >::~basic_string<char,std::char_traits<char>,std::allocator<char> >
  00050	cc		 int	 3
  00051	cc		 int	 3
  00052	cc		 int	 3
  00053	cc		 int	 3
  00054	cc		 int	 3
__ehhandler$??__Eg_strFiles@@YAXXZ:
  00055	90		 npad	 1
  00056	90		 npad	 1
  00057	8b 54 24 08	 mov	 edx, DWORD PTR [esp+8]
  0005b	8d 42 0c	 lea	 eax, DWORD PTR [edx+12]
  0005e	8b 4a fc	 mov	 ecx, DWORD PTR [edx-4]
  00061	33 c8		 xor	 ecx, eax
  00063	e8 00 00 00 00	 call	 @__security_check_cookie@4
  00068	b8 00 00 00 00	 mov	 eax, OFFSET __ehfuncinfo$??__Eg_strFiles@@YAXXZ
  0006d	e9 00 00 00 00	 jmp	 ___CxxFrameHandler3
text$x	ENDS
??__Eg_strFiles@@YAXXZ ENDP				; `dynamic initializer for 'g_strFiles''
; Function compile flags: /Ogtp
;	COMDAT ??_GCLensFlare@@UAEPAXI@Z
_TEXT	SEGMENT
___flags$ = 8						; size = 4
??_GCLensFlare@@UAEPAXI@Z PROC				; CLensFlare::`scalar deleting destructor', COMDAT
; _this$ = ecx
  00000	55		 push	 ebp
  00001	8b ec		 mov	 ebp, esp
  00003	56		 push	 esi
  00004	8b f1		 mov	 esi, ecx
  00006	e8 00 00 00 00	 call	 ??1CLensFlare@@UAE@XZ	; CLensFlare::~CLensFlare
  0000b	f6 45 08 01	 test	 BYTE PTR ___flags$[ebp], 1
  0000f	74 0b		 je	 SHORT $LN4@scalar
  00011	6a 74		 push	 116			; 00000074H
  00013	56		 push	 esi
  00014	e8 00 00 00 00	 call	 ??3@YAXPAXI@Z		; operator delete
  00019	83 c4 08	 add	 esp, 8
$LN4@scalar:
  0001c	8b c6		 mov	 eax, esi
  0001e	5e		 pop	 esi
  0001f	5d		 pop	 ebp
  00020	c2 04 00	 ret	 4
??_GCLensFlare@@UAEPAXI@Z ENDP				; CLensFlare::`scalar deleting destructor'
_TEXT	ENDS
; Function compile flags: /Ogtp
; File C:\Users\murat\Desktop\Siveps2-1-99-Project\source\client\Client\EterLib\LensFlare.cpp
;	COMDAT ?ClampBrightness@CLensFlare@@AAEXXZ
_TEXT	SEGMENT
?ClampBrightness@CLensFlare@@AAEXXZ PROC		; CLensFlare::ClampBrightness, COMDAT
; _this$ = ecx

; 470  : 	// before
; 471  :     if (m_fBeforeBright < 0.0f)

  00000	f3 0f 10 51 14	 movss	 xmm2, DWORD PTR [ecx+20]
  00005	0f 57 c9	 xorps	 xmm1, xmm1
  00008	0f 2f ca	 comiss	 xmm1, xmm2
  0000b	f3 0f 10 1d 00
	00 00 00	 movss	 xmm3, DWORD PTR __real@3f800000
  00013	76 05		 jbe	 SHORT $LN2@ClampBrigh

; 472  :         m_fBeforeBright = 0.0f;

  00015	0f 57 d2	 xorps	 xmm2, xmm2
  00018	eb 08		 jmp	 SHORT $LN4@ClampBrigh
$LN2@ClampBrigh:

; 473  :     else if (m_fBeforeBright > 1.0f)

  0001a	0f 2f d3	 comiss	 xmm2, xmm3
  0001d	76 03		 jbe	 SHORT $LN4@ClampBrigh

; 474  :         m_fBeforeBright = 1.0f;

  0001f	0f 28 d3	 movaps	 xmm2, xmm3
$LN4@ClampBrigh:

; 475  : 
; 476  : 	m_fBeforeBright *= m_fMaxBrightness;

  00022	f3 0f 10 61 40	 movss	 xmm4, DWORD PTR [ecx+64]
  00027	0f 28 c4	 movaps	 xmm0, xmm4
  0002a	f3 0f 59 c2	 mulss	 xmm0, xmm2
  0002e	f3 0f 11 41 14	 movss	 DWORD PTR [ecx+20], xmm0

; 477  : 
; 478  :     if (m_fAfterBright < 0.0f)

  00033	f3 0f 10 41 18	 movss	 xmm0, DWORD PTR [ecx+24]
  00038	0f 2f c8	 comiss	 xmm1, xmm0
  0003b	77 0b		 ja	 SHORT $LN7@ClampBrigh

; 479  :         m_fAfterBright = 0.0f;
; 480  :     else if (m_fAfterBright > 1.0f)

  0003d	0f 2f c3	 comiss	 xmm0, xmm3
  00040	0f 28 c8	 movaps	 xmm1, xmm0
  00043	76 03		 jbe	 SHORT $LN7@ClampBrigh

; 481  :         m_fAfterBright = 1.0f;

  00045	0f 28 cb	 movaps	 xmm1, xmm3
$LN7@ClampBrigh:

; 482  : 
; 483  : 	m_fAfterBright *= m_fMaxBrightness;

  00048	f3 0f 59 e1	 mulss	 xmm4, xmm1
  0004c	f3 0f 11 61 18	 movss	 DWORD PTR [ecx+24], xmm4

; 484  : }

  00051	c3		 ret	 0
?ClampBrightness@CLensFlare@@AAEXXZ ENDP		; CLensFlare::ClampBrightness
_TEXT	ENDS
; Function compile flags: /Ogtp
; File C:\Users\murat\Desktop\Siveps2-1-99-Project\source\client\Client\EterLib\LensFlare.cpp
;	COMDAT ?ReadDepthPixels@CLensFlare@@AAEXPAM@Z
_TEXT	SEGMENT
___formal$ = 8						; size = 4
?ReadDepthPixels@CLensFlare@@AAEXPAM@Z PROC		; CLensFlare::ReadDepthPixels, COMDAT
; _this$ = ecx

; 447  : 	/*
; 448  : 	LPDIRECT3DSURFACE8 lpSurface;
; 449  : 	if (FAILED(ms_lpd3dDevice->GetDepthStencilSurface(&lpSurface)))
; 450  : 		assert(false);
; 451  : 
; 452  : 	D3DLOCKED_RECT rect;
; 453  : 	lpSurface->LockRect(&rect, NULL, D3DLOCK_READONLY | D3DLOCK_NO_DIRTY_UPDATE);
; 454  : 
; 455  : 	lpSurface->UnlockRect();
; 456  : 	*/
; 457  : 	/*
; 458  : 	glReadPixels(GLint(m_afFlareWinPos[0] - c_nDepthTestDimension / 2),
; 459  : 				 GLint(m_afFlareWinPos[1] - c_nDepthTestDimension / 2),
; 460  : 				 c_nDepthTestDimension, c_nDepthTestDimension,
; 461  : 				 GL_DEPTH_COMPONENT, GL_FLOAT, pPixels);
; 462  : 	*/
; 463  : }

  00000	c2 04 00	 ret	 4
?ReadDepthPixels@CLensFlare@@AAEXPAM@Z ENDP		; CLensFlare::ReadDepthPixels
_TEXT	ENDS
; Function compile flags: /Ogtp
; File C:\Users\murat\Desktop\Siveps2-1-99-Project\source\client\Client\EterLib\LensFlare.cpp
;	COMDAT ?Interpolate@CLensFlare@@IAEMMMM@Z
_TEXT	SEGMENT
_fStart$ = 8						; size = 4
tv128 = 12						; size = 4
_fEnd$ = 12						; size = 4
_fPercent$ = 16						; size = 4
?Interpolate@CLensFlare@@IAEMMMM@Z PROC			; CLensFlare::Interpolate, COMDAT
; _this$ = ecx

; 120  : {

  00000	55		 push	 ebp
  00001	8b ec		 mov	 ebp, esp

; 121  : 	return fStart + (fEnd - fStart) * fPercent;

  00003	f3 0f 10 4d 0c	 movss	 xmm1, DWORD PTR _fEnd$[ebp]
  00008	f3 0f 5c 4d 08	 subss	 xmm1, DWORD PTR _fStart$[ebp]
  0000d	f3 0f 59 4d 10	 mulss	 xmm1, DWORD PTR _fPercent$[ebp]
  00012	f3 0f 58 4d 08	 addss	 xmm1, DWORD PTR _fStart$[ebp]
  00017	f3 0f 11 4d 0c	 movss	 DWORD PTR tv128[ebp], xmm1
  0001c	d9 45 0c	 fld	 DWORD PTR tv128[ebp]

; 122  : }

  0001f	5d		 pop	 ebp
  00020	c2 0c 00	 ret	 12			; 0000000cH
?Interpolate@CLensFlare@@IAEMMMM@Z ENDP			; CLensFlare::Interpolate
_TEXT	ENDS
; Function compile flags: /Ogtp
; File C:\Users\murat\Desktop\Siveps2-1-99-Project\source\client\Client\EterLib\LensFlare.cpp
;	COMDAT ?CharacterizeFlare@CLensFlare@@QAEX_N0MABUD3DXCOLOR@@@Z
_TEXT	SEGMENT
_bEnabled$ = 8						; size = 1
_bShowMainFlare$ = 12					; size = 1
_fMaxBrightness$ = 16					; size = 4
_c_rColor$ = 20						; size = 4
?CharacterizeFlare@CLensFlare@@QAEX_N0MABUD3DXCOLOR@@@Z PROC ; CLensFlare::CharacterizeFlare, COMDAT
; _this$ = ecx

; 360  : {

  00000	55		 push	 ebp
  00001	8b ec		 mov	 ebp, esp

; 361  : 	m_bEnabled = bEnabled;

  00003	8a 45 08	 mov	 al, BYTE PTR _bEnabled$[ebp]

; 362  : 	m_bShowMainFlare = bShowMainFlare;
; 363  : 	m_fMaxBrightness = fMaxBrightness;
; 364  : 
; 365  : 	m_afColor[0] = c_rColor.r;

  00006	8b 55 14	 mov	 edx, DWORD PTR _c_rColor$[ebp]
  00009	f3 0f 10 45 10	 movss	 xmm0, DWORD PTR _fMaxBrightness$[ebp]
  0000e	88 41 3c	 mov	 BYTE PTR [ecx+60], al
  00011	8a 45 0c	 mov	 al, BYTE PTR _bShowMainFlare$[ebp]
  00014	88 41 3d	 mov	 BYTE PTR [ecx+61], al
  00017	f3 0f 11 41 40	 movss	 DWORD PTR [ecx+64], xmm0
  0001c	8b 02		 mov	 eax, DWORD PTR [edx]
  0001e	89 41 44	 mov	 DWORD PTR [ecx+68], eax

; 366  : 	m_afColor[1] = c_rColor.g;

  00021	8b 42 04	 mov	 eax, DWORD PTR [edx+4]
  00024	89 41 48	 mov	 DWORD PTR [ecx+72], eax

; 367  : 	m_afColor[2] = c_rColor.b;

  00027	8b 42 08	 mov	 eax, DWORD PTR [edx+8]
  0002a	89 41 4c	 mov	 DWORD PTR [ecx+76], eax

; 368  : }

  0002d	5d		 pop	 ebp
  0002e	c2 10 00	 ret	 16			; 00000010H
?CharacterizeFlare@CLensFlare@@QAEX_N0MABUD3DXCOLOR@@@Z ENDP ; CLensFlare::CharacterizeFlare
_TEXT	ENDS
; Function compile flags: /Ogtp
; File C:\Users\murat\Desktop\Siveps2-1-99-Project\source\client\Client\EterLib\LensFlare.cpp
; File C:\Program Files (x86)\Windows Kits\10\Include\10.0.19041.0\ucrt\corecrt_math.h
; File C:\Users\murat\Desktop\Siveps2-1-99-Project\source\client\Client\EterLib\LensFlare.cpp
; File C:\Program Files (x86)\Windows Kits\10\Include\10.0.19041.0\ucrt\corecrt_math.h
; File C:\Users\murat\Desktop\Siveps2-1-99-Project\source\client\Client\EterLib\LensFlare.cpp
;	COMDAT ?AdjustBrightness@CLensFlare@@QAEXXZ
_TEXT	SEGMENT
?AdjustBrightness@CLensFlare@@QAEXXZ PROC		; CLensFlare::AdjustBrightness, COMDAT
; _this$ = ecx

; 424  : {

  00000	55		 push	 ebp
  00001	8b ec		 mov	 ebp, esp
  00003	83 e4 f8	 and	 esp, -8			; fffffff8H
  00006	51		 push	 ecx
  00007	53		 push	 ebx
  00008	8b d9		 mov	 ebx, ecx
  0000a	56		 push	 esi
  0000b	57		 push	 edi

; 425  : 	if (m_bEnabled)

  0000c	80 7b 3c 00	 cmp	 BYTE PTR [ebx+60], 0
  00010	0f 84 6d 01 00
	00		 je	 $LN5@AdjustBrig

; 432  : 			if (m_pTestPixels[i] != m_pControlPixels[i])

  00016	8b 73 38	 mov	 esi, DWORD PTR [ebx+56]
  00019	33 d2		 xor	 edx, edx
  0001b	8b 7b 34	 mov	 edi, DWORD PTR [ebx+52]
  0001e	0f 57 db	 xorps	 xmm3, xmm3
  00021	0f 28 25 00 00
	00 00		 movaps	 xmm4, XMMWORD PTR __xmm@00000001000000010000000100000001
  00028	0f 57 d2	 xorps	 xmm2, xmm2
  0002b	0f 1f 44 00 00	 npad	 5
$LL4@AdjustBrig:
  00030	0f 10 04 96	 movups	 xmm0, XMMWORD PTR [esi+edx*4]
  00034	0f 10 0c 97	 movups	 xmm1, XMMWORD PTR [edi+edx*4]
  00038	0f c2 c8 04	 cmpneqps xmm1, xmm0

; 433  : 				++nDifferent;

  0003c	0f 28 c4	 movaps	 xmm0, xmm4
  0003f	66 0f fe c3	 paddd	 xmm0, xmm3
  00043	66 0f db c1	 pand	 xmm0, xmm1
  00047	66 0f df cb	 pandn	 xmm1, xmm3
  0004b	66 0f eb c1	 por	 xmm0, xmm1
  0004f	0f 10 4c 97 10	 movups	 xmm1, XMMWORD PTR [edi+edx*4+16]
  00054	0f 28 d8	 movaps	 xmm3, xmm0
  00057	0f 10 44 96 10	 movups	 xmm0, XMMWORD PTR [esi+edx*4+16]
  0005c	83 c2 08	 add	 edx, 8
  0005f	0f c2 c8 04	 cmpneqps xmm1, xmm0
  00063	0f 28 c4	 movaps	 xmm0, xmm4
  00066	66 0f fe c2	 paddd	 xmm0, xmm2
  0006a	66 0f db c1	 pand	 xmm0, xmm1
  0006e	66 0f df ca	 pandn	 xmm1, xmm2
  00072	66 0f eb c1	 por	 xmm0, xmm1
  00076	0f 28 d0	 movaps	 xmm2, xmm0
  00079	81 fa e0 00 00
	00		 cmp	 edx, 224		; 000000e0H
  0007f	7c af		 jl	 SHORT $LL4@AdjustBrig

; 426  : 	{
; 427  : 		ReadDepthPixels(m_pTestPixels);
; 428  : 
; 429  : 		int nDifferent = 0;

  00081	66 0f fe d3	 paddd	 xmm2, xmm3
  00085	0f 28 c2	 movaps	 xmm0, xmm2
  00088	66 0f 73 d8 08	 psrldq	 xmm0, 8
  0008d	66 0f fe d0	 paddd	 xmm2, xmm0
  00091	0f 10 c2	 movups	 xmm0, xmm2
  00094	66 0f 73 d8 04	 psrldq	 xmm0, 4
  00099	66 0f fe d0	 paddd	 xmm2, xmm0
  0009d	66 0f 7e d1	 movd	 ecx, xmm2

; 430  : 
; 431  : 		for (int i = 0; i < c_nDepthTestDimension * c_nDepthTestDimension; ++i)

  000a1	81 fa e1 00 00
	00		 cmp	 edx, 225		; 000000e1H
  000a7	0f 8d 8e 00 00
	00		 jge	 $LN19@AdjustBrig
  000ad	b8 e1 00 00 00	 mov	 eax, 225		; 000000e1H
  000b2	2b c2		 sub	 eax, edx
  000b4	83 f8 04	 cmp	 eax, 4
  000b7	7c 60		 jl	 SHORT $LC20@AdjustBrig
  000b9	0f 1f 80 00 00
	00 00		 npad	 7

; 432  : 			if (m_pTestPixels[i] != m_pControlPixels[i])

$LL25@AdjustBrig:
  000c0	f3 0f 10 04 96	 movss	 xmm0, DWORD PTR [esi+edx*4]
  000c5	0f 2e 04 97	 ucomiss xmm0, DWORD PTR [edi+edx*4]
  000c9	9f		 lahf
  000ca	f6 c4 44	 test	 ah, 68			; 00000044H
  000cd	7b 01		 jnp	 SHORT $LN21@AdjustBrig

; 433  : 				++nDifferent;

  000cf	41		 inc	 ecx
$LN21@AdjustBrig:

; 432  : 			if (m_pTestPixels[i] != m_pControlPixels[i])

  000d0	f3 0f 10 44 96
	04		 movss	 xmm0, DWORD PTR [esi+edx*4+4]
  000d6	0f 2e 44 97 04	 ucomiss xmm0, DWORD PTR [edi+edx*4+4]
  000db	9f		 lahf
  000dc	f6 c4 44	 test	 ah, 68			; 00000044H
  000df	7b 01		 jnp	 SHORT $LN22@AdjustBrig

; 433  : 				++nDifferent;

  000e1	41		 inc	 ecx
$LN22@AdjustBrig:

; 432  : 			if (m_pTestPixels[i] != m_pControlPixels[i])

  000e2	f3 0f 10 44 96
	08		 movss	 xmm0, DWORD PTR [esi+edx*4+8]
  000e8	0f 2e 44 97 08	 ucomiss xmm0, DWORD PTR [edi+edx*4+8]
  000ed	9f		 lahf
  000ee	f6 c4 44	 test	 ah, 68			; 00000044H
  000f1	7b 01		 jnp	 SHORT $LN23@AdjustBrig

; 433  : 				++nDifferent;

  000f3	41		 inc	 ecx
$LN23@AdjustBrig:

; 432  : 			if (m_pTestPixels[i] != m_pControlPixels[i])

  000f4	f3 0f 10 44 96
	0c		 movss	 xmm0, DWORD PTR [esi+edx*4+12]
  000fa	0f 2e 44 97 0c	 ucomiss xmm0, DWORD PTR [edi+edx*4+12]
  000ff	9f		 lahf
  00100	f6 c4 44	 test	 ah, 68			; 00000044H
  00103	7b 01		 jnp	 SHORT $LN24@AdjustBrig

; 433  : 				++nDifferent;

  00105	41		 inc	 ecx
$LN24@AdjustBrig:
  00106	83 c2 04	 add	 edx, 4
  00109	81 fa de 00 00
	00		 cmp	 edx, 222		; 000000deH
  0010f	7c af		 jl	 SHORT $LL25@AdjustBrig

; 430  : 
; 431  : 		for (int i = 0; i < c_nDepthTestDimension * c_nDepthTestDimension; ++i)

  00111	81 fa e1 00 00
	00		 cmp	 edx, 225		; 000000e1H
  00117	7d 22		 jge	 SHORT $LN19@AdjustBrig
$LC20@AdjustBrig:
  00119	c1 e2 02	 shl	 edx, 2
  0011c	0f 1f 40 00	 npad	 4
$LC30@AdjustBrig:

; 432  : 			if (m_pTestPixels[i] != m_pControlPixels[i])

  00120	f3 0f 10 04 32	 movss	 xmm0, DWORD PTR [edx+esi]
  00125	0f 2e 04 3a	 ucomiss xmm0, DWORD PTR [edx+edi]
  00129	9f		 lahf
  0012a	f6 c4 44	 test	 ah, 68			; 00000044H
  0012d	7b 01		 jnp	 SHORT $LN13@AdjustBrig

; 433  : 				++nDifferent;

  0012f	41		 inc	 ecx
$LN13@AdjustBrig:

; 430  : 
; 431  : 		for (int i = 0; i < c_nDepthTestDimension * c_nDepthTestDimension; ++i)

  00130	83 c2 04	 add	 edx, 4
  00133	81 fa 84 03 00
	00		 cmp	 edx, 900		; 00000384H
  00139	7c e5		 jl	 SHORT $LC30@AdjustBrig
$LN19@AdjustBrig:
  0013b	66 0f 6e c1	 movd	 xmm0, ecx
  0013f	0f 57 c9	 xorps	 xmm1, xmm1

; 434  : 
; 435  : 		float fAdjust = (static_cast<float>(nDifferent) / (c_nDepthTestDimension * c_nDepthTestDimension));

  00142	0f 5b c0	 cvtdq2ps xmm0, xmm0
  00145	f3 0f 5e 05 00
	00 00 00	 divss	 xmm0, DWORD PTR __real@43610000
; File C:\Program Files (x86)\Windows Kits\10\Include\10.0.19041.0\ucrt\corecrt_math.h

; 758  :             return (float)sqrt(_X);

  0014d	0f 5a c0	 cvtps2pd xmm0, xmm0
  00150	66 0f 2e c8	 ucomisd xmm1, xmm0
  00154	77 06		 ja	 SHORT $LN32@AdjustBrig
  00156	f2 0f 51 c0	 sqrtsd	 xmm0, xmm0
  0015a	eb 05		 jmp	 SHORT $LN33@AdjustBrig
$LN32@AdjustBrig:
  0015c	e8 00 00 00 00	 call	 __libm_sse2_sqrt_precise
$LN33@AdjustBrig:
; File C:\Users\murat\Desktop\Siveps2-1-99-Project\source\client\Client\EterLib\LensFlare.cpp

; 437  : 		m_fAfterBright *= 1.0f - fAdjust;

  00161	f3 0f 10 0d 00
	00 00 00	 movss	 xmm1, DWORD PTR __real@3f800000
; File C:\Program Files (x86)\Windows Kits\10\Include\10.0.19041.0\ucrt\corecrt_math.h

; 758  :             return (float)sqrt(_X);

  00169	f2 0f 5a c0	 cvtsd2ss xmm0, xmm0
; File C:\Users\murat\Desktop\Siveps2-1-99-Project\source\client\Client\EterLib\LensFlare.cpp

; 436  : 		fAdjust = sqrtf(fAdjust) * 0.85f;

  0016d	f3 0f 59 05 00
	00 00 00	 mulss	 xmm0, DWORD PTR __real@3f59999a

; 437  : 		m_fAfterBright *= 1.0f - fAdjust;

  00175	f3 0f 5c c8	 subss	 xmm1, xmm0
  00179	f3 0f 59 4b 18	 mulss	 xmm1, DWORD PTR [ebx+24]
  0017e	f3 0f 11 4b 18	 movss	 DWORD PTR [ebx+24], xmm1
$LN5@AdjustBrig:

; 438  : 	}
; 439  : }

  00183	5f		 pop	 edi
  00184	5e		 pop	 esi
  00185	5b		 pop	 ebx
  00186	8b e5		 mov	 esp, ebp
  00188	5d		 pop	 ebp
  00189	c3		 ret	 0
?AdjustBrightness@CLensFlare@@QAEXXZ ENDP		; CLensFlare::AdjustBrightness
_TEXT	ENDS
; Function compile flags: /Ogtp
; File C:\Users\murat\Desktop\Siveps2-1-99-Project\source\client\Client\EterLib\LensFlare.cpp
;	COMDAT ?ReadControlPixels@CLensFlare@@QAEXXZ
_TEXT	SEGMENT
?ReadControlPixels@CLensFlare@@QAEXXZ PROC		; CLensFlare::ReadControlPixels, COMDAT
; _this$ = ecx

; 415  : 	if (m_bEnabled)
; 416  : 		ReadDepthPixels(m_pControlPixels);
; 417  : }

  00000	c2 00 00	 ret	 0
?ReadControlPixels@CLensFlare@@QAEXXZ ENDP		; CLensFlare::ReadControlPixels
_TEXT	ENDS
; Function compile flags: /Ogtp
; File C:\Users\murat\Desktop\Siveps2-1-99-Project\source\client\Client\EterLib\LensFlare.cpp
;	COMDAT ?SetBrightnesses@CLensFlare@@QAEXMM@Z
_TEXT	SEGMENT
_fBeforeBright$ = 8					; size = 4
_fAfterBright$ = 12					; size = 4
?SetBrightnesses@CLensFlare@@QAEXMM@Z PROC		; CLensFlare::SetBrightnesses, COMDAT
; _this$ = ecx

; 399  : {

  00000	55		 push	 ebp
  00001	8b ec		 mov	 ebp, esp

; 400  : 	if (m_bEnabled)

  00003	80 79 3c 00	 cmp	 BYTE PTR [ecx+60], 0
  00007	74 19		 je	 SHORT $LN2@SetBrightn

; 401  : 	{
; 402  : 	    m_fBeforeBright = fBeforeBright;

  00009	f3 0f 10 45 08	 movss	 xmm0, DWORD PTR _fBeforeBright$[ebp]
  0000e	f3 0f 11 41 14	 movss	 DWORD PTR [ecx+20], xmm0

; 403  : 	    m_fAfterBright = fAfterBright;

  00013	f3 0f 10 45 0c	 movss	 xmm0, DWORD PTR _fAfterBright$[ebp]
  00018	f3 0f 11 41 18	 movss	 DWORD PTR [ecx+24], xmm0

; 404  : 
; 405  : 		ClampBrightness();

  0001d	e8 00 00 00 00	 call	 ?ClampBrightness@CLensFlare@@AAEXXZ ; CLensFlare::ClampBrightness
$LN2@SetBrightn:

; 406  : 	}
; 407  : }

  00022	5d		 pop	 ebp
  00023	c2 08 00	 ret	 8
?SetBrightnesses@CLensFlare@@QAEXMM@Z ENDP		; CLensFlare::SetBrightnesses
_TEXT	ENDS
; Function compile flags: /Ogtp
; File C:\Users\murat\Desktop\Siveps2-1-99-Project\source\client\Client\EterLib\LensFlare.cpp
;	COMDAT ?SetFlareLocation@CLensFlare@@QAEXNN@Z
_TEXT	SEGMENT
_dX$ = 8						; size = 8
_dY$ = 16						; size = 8
?SetFlareLocation@CLensFlare@@QAEXNN@Z PROC		; CLensFlare::SetFlareLocation, COMDAT
; _this$ = ecx

; 383  : {

  00000	55		 push	 ebp
  00001	8b ec		 mov	 ebp, esp

; 384  : 	if (m_bEnabled)

  00003	80 79 3c 00	 cmp	 BYTE PTR [ecx+60], 0
  00007	74 66		 je	 SHORT $LN2@SetFlareLo

; 385  : 	{
; 386  : 		m_afFlareWinPos[0] = float(dX);

  00009	f2 0f 10 4d 08	 movsd	 xmm1, QWORD PTR _dX$[ebp]
  0000e	0f 57 c0	 xorps	 xmm0, xmm0
  00011	f2 0f 10 55 10	 movsd	 xmm2, QWORD PTR _dY$[ebp]
  00016	66 0f 5a c9	 cvtpd2ps xmm1, xmm1

; 387  : 		m_afFlareWinPos[1] = float(dY);

  0001a	66 0f 5a d2	 cvtpd2ps xmm2, xmm2
  0001e	f3 0f 11 49 0c	 movss	 DWORD PTR [ecx+12], xmm1
  00023	f3 0f 11 51 10	 movss	 DWORD PTR [ecx+16], xmm2

; 388  : 
; 389  : 		m_afFlarePos[0] = float(dX) / ms_Viewport.Width;

  00028	a1 08 00 00 00	 mov	 eax, DWORD PTR ?ms_Viewport@CGraphicBase@@1U_D3DVIEWPORT8@@A+8
  0002d	f2 0f 2a c0	 cvtsi2sd xmm0, eax
  00031	c1 e8 1f	 shr	 eax, 31			; 0000001fH
  00034	f2 0f 58 04 c5
	00 00 00 00	 addsd	 xmm0, QWORD PTR __xmm@41f00000000000000000000000000000[eax*8]
  0003d	66 0f 5a c0	 cvtpd2ps xmm0, xmm0
  00041	f3 0f 5e c8	 divss	 xmm1, xmm0
  00045	0f 57 c0	 xorps	 xmm0, xmm0
  00048	f3 0f 11 49 04	 movss	 DWORD PTR [ecx+4], xmm1

; 390  : 		m_afFlarePos[1] = float(dY) / ms_Viewport.Height;

  0004d	a1 0c 00 00 00	 mov	 eax, DWORD PTR ?ms_Viewport@CGraphicBase@@1U_D3DVIEWPORT8@@A+12
  00052	f2 0f 2a c0	 cvtsi2sd xmm0, eax
  00056	c1 e8 1f	 shr	 eax, 31			; 0000001fH
  00059	f2 0f 58 04 c5
	00 00 00 00	 addsd	 xmm0, QWORD PTR __xmm@41f00000000000000000000000000000[eax*8]
  00062	66 0f 5a c0	 cvtpd2ps xmm0, xmm0
  00066	f3 0f 5e d0	 divss	 xmm2, xmm0
  0006a	f3 0f 11 51 08	 movss	 DWORD PTR [ecx+8], xmm2
$LN2@SetFlareLo:

; 391  : 	}
; 392  : }

  0006f	5d		 pop	 ebp
  00070	c2 10 00	 ret	 16			; 00000010H
?SetFlareLocation@CLensFlare@@QAEXNN@Z ENDP		; CLensFlare::SetFlareLocation
_TEXT	ENDS
; Function compile flags: /Ogtp
; File C:\Users\murat\Desktop\Siveps2-1-99-Project\source\client\Client\EterLib\LensFlare.cpp
; File C:\Program Files (x86)\Microsoft Visual Studio\2019\Professional\VC\Tools\MSVC\14.29.30133\include\xstring
; File C:\Program Files (x86)\Microsoft Visual Studio\2019\Professional\VC\Tools\MSVC\14.29.30133\include\xmemory
; File C:\Program Files (x86)\Microsoft Visual Studio\2019\Professional\VC\Tools\MSVC\14.29.30133\include\xstring
; File C:\Program Files (x86)\Microsoft Visual Studio\2019\Professional\VC\Tools\MSVC\14.29.30133\include\xmemory
; File C:\Users\murat\Desktop\Siveps2-1-99-Project\source\client\Client\EterLib\LensFlare.cpp
; File C:\Program Files (x86)\Microsoft Visual Studio\2019\Professional\VC\Tools\MSVC\14.29.30133\include\xmemory
; File C:\Users\murat\Desktop\Siveps2-1-99-Project\source\client\Client\EterLib\LensFlare.cpp
;	COMDAT ?Initialize@CLensFlare@@QAEXV?$basic_string@DU?$char_traits@D@std@@V?$allocator@D@2@@std@@@Z
_TEXT	SEGMENT
__$EHRec$ = -12						; size = 12
_strPath$ = 8						; size = 24
?Initialize@CLensFlare@@QAEXV?$basic_string@DU?$char_traits@D@std@@V?$allocator@D@2@@std@@@Z PROC ; CLensFlare::Initialize, COMDAT
; _this$ = ecx

; 374  : {

  00000	55		 push	 ebp
  00001	8b ec		 mov	 ebp, esp
  00003	6a ff		 push	 -1
  00005	68 00 00 00 00	 push	 __ehhandler$?Initialize@CLensFlare@@QAEXV?$basic_string@DU?$char_traits@D@std@@V?$allocator@D@2@@std@@@Z
  0000a	64 a1 00 00 00
	00		 mov	 eax, DWORD PTR fs:0
  00010	50		 push	 eax
  00011	51		 push	 ecx
  00012	56		 push	 esi
  00013	a1 00 00 00 00	 mov	 eax, DWORD PTR ___security_cookie
  00018	33 c5		 xor	 eax, ebp
  0001a	50		 push	 eax
  0001b	8d 45 f4	 lea	 eax, DWORD PTR __$EHRec$[ebp]
  0001e	64 a3 00 00 00
	00		 mov	 DWORD PTR fs:0, eax
  00024	8b f1		 mov	 esi, ecx

; 375  : 	if (m_bEnabled)

  00026	80 7e 3c 00	 cmp	 BYTE PTR [esi+60], 0
  0002a	c7 45 fc 00 00
	00 00		 mov	 DWORD PTR __$EHRec$[ebp+8], 0
  00031	74 16		 je	 SHORT $LN2@Initialize

; 376  : 		m_cFlare.Init(strPath);

  00033	83 ec 18	 sub	 esp, 24			; 00000018H
  00036	8d 45 08	 lea	 eax, DWORD PTR _strPath$[ebp]
  00039	8b cc		 mov	 ecx, esp
  0003b	50		 push	 eax
  0003c	e8 00 00 00 00	 call	 ??0?$basic_string@DU?$char_traits@D@std@@V?$allocator@D@2@@std@@QAE@ABV01@@Z ; std::basic_string<char,std::char_traits<char>,std::allocator<char> >::basic_string<char,std::char_traits<char>,std::allocator<char> >
  00041	8d 4e 24	 lea	 ecx, DWORD PTR [esi+36]
  00044	e8 00 00 00 00	 call	 ?Init@CFlare@@QAEXV?$basic_string@DU?$char_traits@D@std@@V?$allocator@D@2@@std@@@Z ; CFlare::Init
$LN2@Initialize:
; File C:\Program Files (x86)\Microsoft Visual Studio\2019\Professional\VC\Tools\MSVC\14.29.30133\include\xstring

; 2319 :         return _BUF_SIZE <= _Myres;

  00049	8b 55 1c	 mov	 edx, DWORD PTR _strPath$[ebp+20]
  0004c	83 fa 10	 cmp	 edx, 16			; 00000010H

; 4618 :         if (_Mypair._Myval2._Large_string_engaged()) {

  0004f	72 28		 jb	 SHORT $LN18@Initialize
; File C:\Program Files (x86)\Microsoft Visual Studio\2019\Professional\VC\Tools\MSVC\14.29.30133\include\xmemory

; 835  :         _Deallocate<_New_alignof<_Ty>>(_Ptr, sizeof(_Ty) * _Count);

  00051	8b 4d 08	 mov	 ecx, DWORD PTR _strPath$[ebp]
; File C:\Program Files (x86)\Microsoft Visual Studio\2019\Professional\VC\Tools\MSVC\14.29.30133\include\xstring

; 4622 :             _Al.deallocate(_Ptr, _Mypair._Myval2._Myres + 1);

  00054	42		 inc	 edx
; File C:\Program Files (x86)\Microsoft Visual Studio\2019\Professional\VC\Tools\MSVC\14.29.30133\include\xmemory

; 835  :         _Deallocate<_New_alignof<_Ty>>(_Ptr, sizeof(_Ty) * _Count);

  00055	8b c1		 mov	 eax, ecx

; 260  :         if (_Bytes >= _Big_allocation_threshold) { // boost the alignment of big allocations to help autovectorization

  00057	81 fa 00 10 00
	00		 cmp	 edx, 4096		; 00001000H
  0005d	72 10		 jb	 SHORT $LN28@Initialize

; 158  :     const uintptr_t _Ptr_container   = _Ptr_user[-1];

  0005f	8b 49 fc	 mov	 ecx, DWORD PTR [ecx-4]
  00062	83 c2 23	 add	 edx, 35			; 00000023H
  00065	2b c1		 sub	 eax, ecx

; 172  :     _STL_VERIFY(_Back_shift >= _Min_back_shift && _Back_shift <= _Non_user_size, "invalid argument");

  00067	83 c0 fc	 add	 eax, -4			; fffffffcH
  0006a	83 f8 1f	 cmp	 eax, 31			; 0000001fH
  0006d	77 1c		 ja	 SHORT $LN37@Initialize
$LN28@Initialize:

; 264  :         ::operator delete(_Ptr, _Bytes);

  0006f	52		 push	 edx
  00070	51		 push	 ecx
  00071	e8 00 00 00 00	 call	 ??3@YAXPAXI@Z		; operator delete
  00076	83 c4 08	 add	 esp, 8
$LN18@Initialize:
; File C:\Users\murat\Desktop\Siveps2-1-99-Project\source\client\Client\EterLib\LensFlare.cpp

; 377  : }

  00079	8b 4d f4	 mov	 ecx, DWORD PTR __$EHRec$[ebp]
  0007c	64 89 0d 00 00
	00 00		 mov	 DWORD PTR fs:0, ecx
  00083	59		 pop	 ecx
  00084	5e		 pop	 esi
  00085	8b e5		 mov	 esp, ebp
  00087	5d		 pop	 ebp
  00088	c2 18 00	 ret	 24			; 00000018H
$LN37@Initialize:
; File C:\Program Files (x86)\Microsoft Visual Studio\2019\Professional\VC\Tools\MSVC\14.29.30133\include\xmemory

; 172  :     _STL_VERIFY(_Back_shift >= _Min_back_shift && _Back_shift <= _Non_user_size, "invalid argument");

  0008b	e8 00 00 00 00	 call	 __invalid_parameter_noinfo_noreturn
$LN35@Initialize:
  00090	cc		 int	 3
_TEXT	ENDS
;	COMDAT text$x
text$x	SEGMENT
__unwindfunclet$?Initialize@CLensFlare@@QAEXV?$basic_string@DU?$char_traits@D@std@@V?$allocator@D@2@@std@@@Z$0:
  00000	8d 4d 08	 lea	 ecx, DWORD PTR _strPath$[ebp]
  00003	e9 00 00 00 00	 jmp	 ??1?$basic_string@DU?$char_traits@D@std@@V?$allocator@D@2@@std@@QAE@XZ ; std::basic_string<char,std::char_traits<char>,std::allocator<char> >::~basic_string<char,std::char_traits<char>,std::allocator<char> >
  00008	cc		 int	 3
  00009	cc		 int	 3
  0000a	cc		 int	 3
  0000b	cc		 int	 3
  0000c	cc		 int	 3
__ehhandler$?Initialize@CLensFlare@@QAEXV?$basic_string@DU?$char_traits@D@std@@V?$allocator@D@2@@std@@@Z:
  0000d	90		 npad	 1
  0000e	90		 npad	 1
  0000f	8b 54 24 08	 mov	 edx, DWORD PTR [esp+8]
  00013	8d 42 0c	 lea	 eax, DWORD PTR [edx+12]
  00016	8b 4a f4	 mov	 ecx, DWORD PTR [edx-12]
  00019	33 c8		 xor	 ecx, eax
  0001b	e8 00 00 00 00	 call	 @__security_check_cookie@4
  00020	b8 00 00 00 00	 mov	 eax, OFFSET __ehfuncinfo$?Initialize@CLensFlare@@QAEXV?$basic_string@DU?$char_traits@D@std@@V?$allocator@D@2@@std@@@Z
  00025	e9 00 00 00 00	 jmp	 ___CxxFrameHandler3
text$x	ENDS
?Initialize@CLensFlare@@QAEXV?$basic_string@DU?$char_traits@D@std@@V?$allocator@D@2@@std@@@Z ENDP ; CLensFlare::Initialize
; Function compile flags: /Ogtp
; File C:\Users\murat\Desktop\Siveps2-1-99-Project\source\client\Client\EterLib\LensFlare.cpp
; File C:\Program Files (x86)\Microsoft Visual Studio\2019\Professional\VC\Tools\MSVC\14.29.30133\include\xstring
; File C:\Users\murat\Desktop\Siveps2-1-99-Project\source\client\Client\EterLib\LensFlare.cpp
; File C:\Program Files (x86)\Microsoft Visual Studio\2019\Professional\VC\Tools\MSVC\14.29.30133\include\xstring
; File C:\Users\murat\Desktop\Siveps2-1-99-Project\source\client\Client\EterLib\LensFlare.cpp
; File C:\Program Files (x86)\Microsoft Visual Studio\2019\Professional\VC\Tools\MSVC\14.29.30133\include\xstring
; File C:\Program Files (x86)\Microsoft Visual Studio\2019\Professional\VC\Tools\MSVC\14.29.30133\include\xmemory
; File C:\Program Files (x86)\Microsoft Visual Studio\2019\Professional\VC\Tools\MSVC\14.29.30133\include\xstring
; File C:\Program Files (x86)\Microsoft Visual Studio\2019\Professional\VC\Tools\MSVC\14.29.30133\include\xmemory
; File C:\Users\murat\Desktop\Siveps2-1-99-Project\source\client\Client\EterLib\LensFlare.cpp
; File C:\Program Files (x86)\Microsoft Visual Studio\2019\Professional\VC\Tools\MSVC\14.29.30133\include\xmemory
; File C:\Users\murat\Desktop\Siveps2-1-99-Project\source\client\Client\EterLib\LensFlare.cpp
;	COMDAT ?SetMainFlare@CLensFlare@@QAEXV?$basic_string@DU?$char_traits@D@std@@V?$allocator@D@2@@std@@M@Z
_TEXT	SEGMENT
__$EHRec$ = -12						; size = 12
_strSunFile$ = 8					; size = 24
_fSunSize$ = 32						; size = 4
?SetMainFlare@CLensFlare@@QAEXV?$basic_string@DU?$char_traits@D@std@@V?$allocator@D@2@@std@@M@Z PROC ; CLensFlare::SetMainFlare, COMDAT
; _this$ = ecx

; 297  : {

  00000	55		 push	 ebp
  00001	8b ec		 mov	 ebp, esp
  00003	6a ff		 push	 -1
  00005	68 00 00 00 00	 push	 __ehhandler$?SetMainFlare@CLensFlare@@QAEXV?$basic_string@DU?$char_traits@D@std@@V?$allocator@D@2@@std@@M@Z
  0000a	64 a1 00 00 00
	00		 mov	 eax, DWORD PTR fs:0
  00010	50		 push	 eax
  00011	56		 push	 esi
  00012	57		 push	 edi
  00013	a1 00 00 00 00	 mov	 eax, DWORD PTR ___security_cookie
  00018	33 c5		 xor	 eax, ebp
  0001a	50		 push	 eax
  0001b	8d 45 f4	 lea	 eax, DWORD PTR __$EHRec$[ebp]
  0001e	64 a3 00 00 00
	00		 mov	 DWORD PTR fs:0, eax
  00024	8b f9		 mov	 edi, ecx

; 298  : 	if (m_bEnabled && m_bShowMainFlare)

  00026	80 7f 3c 00	 cmp	 BYTE PTR [edi+60], 0
  0002a	c7 45 fc 00 00
	00 00		 mov	 DWORD PTR __$EHRec$[ebp+8], 0
  00031	74 3f		 je	 SHORT $LN2@SetMainFla
  00033	80 7f 3d 00	 cmp	 BYTE PTR [edi+61], 0
  00037	74 39		 je	 SHORT $LN2@SetMainFla
; File C:\Program Files (x86)\Microsoft Visual Studio\2019\Professional\VC\Tools\MSVC\14.29.30133\include\xstring

; 2319 :         return _BUF_SIZE <= _Myres;

  00039	83 7d 1c 10	 cmp	 DWORD PTR _strSunFile$[ebp+20], 16 ; 00000010H

; 2305 :         const value_type* _Result = _Bx._Buf;

  0003d	8d 45 08	 lea	 eax, DWORD PTR _strSunFile$[ebp]
; File C:\Users\murat\Desktop\Siveps2-1-99-Project\source\client\Client\EterLib\LensFlare.cpp

; 300  : 		m_fSunSize = fSunSize;

  00040	f3 0f 10 45 20	 movss	 xmm0, DWORD PTR _fSunSize$[ebp]
; File C:\Program Files (x86)\Microsoft Visual Studio\2019\Professional\VC\Tools\MSVC\14.29.30133\include\xstring

; 2306 :         if (_Large_string_engaged()) {

  00045	0f 43 45 08	 cmovae	 eax, DWORD PTR _strSunFile$[ebp]
; File C:\Users\murat\Desktop\Siveps2-1-99-Project\source\client\Client\EterLib\LensFlare.cpp

; 300  : 		m_fSunSize = fSunSize;

  00049	f3 0f 11 47 20	 movss	 DWORD PTR [edi+32], xmm0

; 301  : 		CResource * pResource = CResourceManager::Instance().GetResourcePointer(strSunFile.c_str());

  0004e	8b 0d 00 00 00
	00		 mov	 ecx, DWORD PTR ?ms_singleton@?$CSingleton@VCResourceManager@@@@0PAVCResourceManager@@A ; CSingleton<CResourceManager>::ms_singleton
  00054	50		 push	 eax
  00055	e8 00 00 00 00	 call	 ?GetResourcePointer@CResourceManager@@QAEPAVCResource@@PBD@Z ; CResourceManager::GetResourcePointer
  0005a	8b f0		 mov	 esi, eax

; 302  : 
; 303  : 		if (!pResource->IsType(CGraphicImage::Type()))

  0005c	e8 00 00 00 00	 call	 ?Type@CGraphicImage@@SAKXZ ; CGraphicImage::Type
  00061	50		 push	 eax
  00062	8b ce		 mov	 ecx, esi
  00064	e8 00 00 00 00	 call	 ?IsType@CResource@@QAE_NK@Z ; CResource::IsType

; 304  : 			assert(false);
; 305  : 
; 306  : 		m_SunFlareImageInstance.SetImagePointer(static_cast<CGraphicImage *> (pResource));

  00069	56		 push	 esi
  0006a	8d 4f 54	 lea	 ecx, DWORD PTR [edi+84]
  0006d	e8 00 00 00 00	 call	 ?SetImagePointer@CGraphicImageInstance@@QAEXPAVCGraphicImage@@@Z ; CGraphicImageInstance::SetImagePointer
$LN2@SetMainFla:
; File C:\Program Files (x86)\Microsoft Visual Studio\2019\Professional\VC\Tools\MSVC\14.29.30133\include\xstring

; 2319 :         return _BUF_SIZE <= _Myres;

  00072	8b 55 1c	 mov	 edx, DWORD PTR _strSunFile$[ebp+20]
  00075	83 fa 10	 cmp	 edx, 16			; 00000010H

; 4618 :         if (_Mypair._Myval2._Large_string_engaged()) {

  00078	72 28		 jb	 SHORT $LN25@SetMainFla
; File C:\Program Files (x86)\Microsoft Visual Studio\2019\Professional\VC\Tools\MSVC\14.29.30133\include\xmemory

; 835  :         _Deallocate<_New_alignof<_Ty>>(_Ptr, sizeof(_Ty) * _Count);

  0007a	8b 4d 08	 mov	 ecx, DWORD PTR _strSunFile$[ebp]
; File C:\Program Files (x86)\Microsoft Visual Studio\2019\Professional\VC\Tools\MSVC\14.29.30133\include\xstring

; 4622 :             _Al.deallocate(_Ptr, _Mypair._Myval2._Myres + 1);

  0007d	42		 inc	 edx
; File C:\Program Files (x86)\Microsoft Visual Studio\2019\Professional\VC\Tools\MSVC\14.29.30133\include\xmemory

; 835  :         _Deallocate<_New_alignof<_Ty>>(_Ptr, sizeof(_Ty) * _Count);

  0007e	8b c1		 mov	 eax, ecx

; 260  :         if (_Bytes >= _Big_allocation_threshold) { // boost the alignment of big allocations to help autovectorization

  00080	81 fa 00 10 00
	00		 cmp	 edx, 4096		; 00001000H
  00086	72 10		 jb	 SHORT $LN35@SetMainFla

; 158  :     const uintptr_t _Ptr_container   = _Ptr_user[-1];

  00088	8b 49 fc	 mov	 ecx, DWORD PTR [ecx-4]
  0008b	83 c2 23	 add	 edx, 35			; 00000023H
  0008e	2b c1		 sub	 eax, ecx

; 172  :     _STL_VERIFY(_Back_shift >= _Min_back_shift && _Back_shift <= _Non_user_size, "invalid argument");

  00090	83 c0 fc	 add	 eax, -4			; fffffffcH
  00093	83 f8 1f	 cmp	 eax, 31			; 0000001fH
  00096	77 1d		 ja	 SHORT $LN44@SetMainFla
$LN35@SetMainFla:

; 264  :         ::operator delete(_Ptr, _Bytes);

  00098	52		 push	 edx
  00099	51		 push	 ecx
  0009a	e8 00 00 00 00	 call	 ??3@YAXPAXI@Z		; operator delete
  0009f	83 c4 08	 add	 esp, 8
$LN25@SetMainFla:
; File C:\Users\murat\Desktop\Siveps2-1-99-Project\source\client\Client\EterLib\LensFlare.cpp

; 308  : }

  000a2	8b 4d f4	 mov	 ecx, DWORD PTR __$EHRec$[ebp]
  000a5	64 89 0d 00 00
	00 00		 mov	 DWORD PTR fs:0, ecx
  000ac	59		 pop	 ecx
  000ad	5f		 pop	 edi
  000ae	5e		 pop	 esi
  000af	8b e5		 mov	 esp, ebp
  000b1	5d		 pop	 ebp
  000b2	c2 1c 00	 ret	 28			; 0000001cH
$LN44@SetMainFla:
; File C:\Program Files (x86)\Microsoft Visual Studio\2019\Professional\VC\Tools\MSVC\14.29.30133\include\xmemory

; 172  :     _STL_VERIFY(_Back_shift >= _Min_back_shift && _Back_shift <= _Non_user_size, "invalid argument");

  000b5	e8 00 00 00 00	 call	 __invalid_parameter_noinfo_noreturn
$LN42@SetMainFla:
  000ba	cc		 int	 3
_TEXT	ENDS
;	COMDAT text$x
text$x	SEGMENT
__unwindfunclet$?SetMainFlare@CLensFlare@@QAEXV?$basic_string@DU?$char_traits@D@std@@V?$allocator@D@2@@std@@M@Z$0:
  00000	8d 4d 08	 lea	 ecx, DWORD PTR _strSunFile$[ebp]
  00003	e9 00 00 00 00	 jmp	 ??1?$basic_string@DU?$char_traits@D@std@@V?$allocator@D@2@@std@@QAE@XZ ; std::basic_string<char,std::char_traits<char>,std::allocator<char> >::~basic_string<char,std::char_traits<char>,std::allocator<char> >
  00008	cc		 int	 3
  00009	cc		 int	 3
  0000a	cc		 int	 3
  0000b	cc		 int	 3
  0000c	cc		 int	 3
__ehhandler$?SetMainFlare@CLensFlare@@QAEXV?$basic_string@DU?$char_traits@D@std@@V?$allocator@D@2@@std@@M@Z:
  0000d	90		 npad	 1
  0000e	90		 npad	 1
  0000f	8b 54 24 08	 mov	 edx, DWORD PTR [esp+8]
  00013	8d 42 0c	 lea	 eax, DWORD PTR [edx+12]
  00016	8b 4a f4	 mov	 ecx, DWORD PTR [edx-12]
  00019	33 c8		 xor	 ecx, eax
  0001b	e8 00 00 00 00	 call	 @__security_check_cookie@4
  00020	b8 00 00 00 00	 mov	 eax, OFFSET __ehfuncinfo$?SetMainFlare@CLensFlare@@QAEXV?$basic_string@DU?$char_traits@D@std@@V?$allocator@D@2@@std@@M@Z
  00025	e9 00 00 00 00	 jmp	 ___CxxFrameHandler3
text$x	ENDS
?SetMainFlare@CLensFlare@@QAEXV?$basic_string@DU?$char_traits@D@std@@V?$allocator@D@2@@std@@M@Z ENDP ; CLensFlare::SetMainFlare
; Function compile flags: /Ogtp
; File C:\Users\murat\Desktop\Siveps2-1-99-Project\source\client\Client\EterLib\LensFlare.cpp
;	COMDAT ?DrawFlare@CLensFlare@@QAEXXZ
_TEXT	SEGMENT
_matProj$1 = -68					; size = 64
__$ArrayPad$ = -4					; size = 4
?DrawFlare@CLensFlare@@QAEXXZ PROC			; CLensFlare::DrawFlare, COMDAT
; _this$ = ecx

; 315  : {

  00000	55		 push	 ebp
  00001	8b ec		 mov	 ebp, esp
  00003	83 ec 44	 sub	 esp, 68			; 00000044H
  00006	a1 00 00 00 00	 mov	 eax, DWORD PTR ___security_cookie
  0000b	33 c5		 xor	 eax, ebp
  0000d	89 45 fc	 mov	 DWORD PTR __$ArrayPad$[ebp], eax
  00010	56		 push	 esi
  00011	8b f1		 mov	 esi, ecx

; 316  : 	if (m_bEnabled && m_bFlareVisible && m_bDrawFlare && m_fAfterBright != 0.0f)

  00013	80 7e 3c 00	 cmp	 BYTE PTR [esi+60], 0
  00017	0f 84 b0 01 00
	00		 je	 $LN2@DrawFlare
  0001d	80 7e 1c 00	 cmp	 BYTE PTR [esi+28], 0
  00021	0f 84 a6 01 00
	00		 je	 $LN2@DrawFlare
  00027	80 7e 1d 00	 cmp	 BYTE PTR [esi+29], 0
  0002b	0f 84 9c 01 00
	00		 je	 $LN2@DrawFlare
  00031	f3 0f 10 4e 18	 movss	 xmm1, DWORD PTR [esi+24]
  00036	0f 57 c0	 xorps	 xmm0, xmm0
  00039	0f 2e c8	 ucomiss xmm1, xmm0
  0003c	9f		 lahf
  0003d	f6 c4 44	 test	 ah, 68			; 00000044H
  00040	0f 8b 87 01 00
	00		 jnp	 $LN2@DrawFlare

; 317  : 	{
; 318  :         //glPushAttrib(GL_ENABLE_BIT);
; 319  : 		STATEMANAGER.SaveRenderState(D3DRS_LIGHTING, FALSE); // glDisable(GL_LIGHTING);

  00046	8b 0d 00 00 00
	00		 mov	 ecx, DWORD PTR ?ms_singleton@?$CSingleton@VCStateManager@@@@0PAVCStateManager@@A ; CSingleton<CStateManager>::ms_singleton
  0004c	6a 00		 push	 0
  0004e	68 89 00 00 00	 push	 137			; 00000089H
  00053	e8 00 00 00 00	 call	 ?SaveRenderState@CStateManager@@QAEXW4_D3DRENDERSTATETYPE@@K@Z ; CStateManager::SaveRenderState

; 320  : 		STATEMANAGER.SaveRenderState(D3DRS_ZENABLE, FALSE); // glDisable(GL_DEPTH_TEST);

  00058	8b 0d 00 00 00
	00		 mov	 ecx, DWORD PTR ?ms_singleton@?$CSingleton@VCStateManager@@@@0PAVCStateManager@@A ; CSingleton<CStateManager>::ms_singleton
  0005e	6a 00		 push	 0
  00060	6a 07		 push	 7
  00062	e8 00 00 00 00	 call	 ?SaveRenderState@CStateManager@@QAEXW4_D3DRENDERSTATETYPE@@K@Z ; CStateManager::SaveRenderState

; 321  : 		STATEMANAGER.SaveRenderState(D3DRS_CULLMODE, D3DCULL_NONE); // glDisable(GL_CULL_FACE);

  00067	8b 0d 00 00 00
	00		 mov	 ecx, DWORD PTR ?ms_singleton@?$CSingleton@VCStateManager@@@@0PAVCStateManager@@A ; CSingleton<CStateManager>::ms_singleton
  0006d	6a 01		 push	 1
  0006f	6a 16		 push	 22			; 00000016H
  00071	e8 00 00 00 00	 call	 ?SaveRenderState@CStateManager@@QAEXW4_D3DRENDERSTATETYPE@@K@Z ; CStateManager::SaveRenderState

; 322  : 		STATEMANAGER.SaveRenderState(D3DRS_ALPHATESTENABLE, FALSE); // glDisable(GL_ALPHA_TEST);

  00076	8b 0d 00 00 00
	00		 mov	 ecx, DWORD PTR ?ms_singleton@?$CSingleton@VCStateManager@@@@0PAVCStateManager@@A ; CSingleton<CStateManager>::ms_singleton
  0007c	6a 00		 push	 0
  0007e	6a 0f		 push	 15			; 0000000fH
  00080	e8 00 00 00 00	 call	 ?SaveRenderState@CStateManager@@QAEXW4_D3DRENDERSTATETYPE@@K@Z ; CStateManager::SaveRenderState

; 323  : 		STATEMANAGER.SaveRenderState(D3DRS_ALPHABLENDENABLE, TRUE); // glEnable(GL_BLEND);

  00085	8b 0d 00 00 00
	00		 mov	 ecx, DWORD PTR ?ms_singleton@?$CSingleton@VCStateManager@@@@0PAVCStateManager@@A ; CSingleton<CStateManager>::ms_singleton
  0008b	6a 01		 push	 1
  0008d	6a 1b		 push	 27			; 0000001bH
  0008f	e8 00 00 00 00	 call	 ?SaveRenderState@CStateManager@@QAEXW4_D3DRENDERSTATETYPE@@K@Z ; CStateManager::SaveRenderState

; 324  : 
; 325  : 		D3DXMATRIX matProj;
; 326  : 		D3DXMatrixOrthoOffCenterRH(&matProj, 0.0f, ms_Viewport.Width, ms_Viewport.Height, 0.0f, -1.0f, 1.0f);

  00094	a1 0c 00 00 00	 mov	 eax, DWORD PTR ?ms_Viewport@CGraphicBase@@1U_D3DVIEWPORT8@@A+12
  00099	83 ec 18	 sub	 esp, 24			; 00000018H
  0009c	66 0f 6e c0	 movd	 xmm0, eax
  000a0	f3 0f e6 c0	 cvtdq2pd xmm0, xmm0
  000a4	c7 44 24 14 00
	00 80 3f	 mov	 DWORD PTR [esp+20], 1065353216 ; 3f800000H
  000ac	c7 44 24 10 00
	00 80 bf	 mov	 DWORD PTR [esp+16], -1082130432 ; bf800000H
  000b4	c1 e8 1f	 shr	 eax, 31			; 0000001fH
  000b7	c7 44 24 0c 00
	00 00 00	 mov	 DWORD PTR [esp+12], 0
  000bf	f2 0f 58 04 c5
	00 00 00 00	 addsd	 xmm0, QWORD PTR __xmm@41f00000000000000000000000000000[eax*8]
  000c8	a1 08 00 00 00	 mov	 eax, DWORD PTR ?ms_Viewport@CGraphicBase@@1U_D3DVIEWPORT8@@A+8
  000cd	66 0f 5a c0	 cvtpd2ps xmm0, xmm0
  000d1	f3 0f 11 44 24
	08		 movss	 DWORD PTR [esp+8], xmm0
  000d7	66 0f 6e c0	 movd	 xmm0, eax
  000db	f3 0f e6 c0	 cvtdq2pd xmm0, xmm0
  000df	c1 e8 1f	 shr	 eax, 31			; 0000001fH
  000e2	f2 0f 58 04 c5
	00 00 00 00	 addsd	 xmm0, QWORD PTR __xmm@41f00000000000000000000000000000[eax*8]
  000eb	8d 45 bc	 lea	 eax, DWORD PTR _matProj$1[ebp]
  000ee	66 0f 5a c0	 cvtpd2ps xmm0, xmm0
  000f2	f3 0f 11 44 24
	04		 movss	 DWORD PTR [esp+4], xmm0
  000f8	c7 04 24 00 00
	00 00		 mov	 DWORD PTR [esp], 0
  000ff	50		 push	 eax
  00100	e8 00 00 00 00	 call	 _D3DXMatrixOrthoOffCenterRH@28

; 327  : 		STATEMANAGER.SaveTransform(D3DTS_PROJECTION, &matProj);

  00105	8b 0d 00 00 00
	00		 mov	 ecx, DWORD PTR ?ms_singleton@?$CSingleton@VCStateManager@@@@0PAVCStateManager@@A ; CSingleton<CStateManager>::ms_singleton
  0010b	8d 45 bc	 lea	 eax, DWORD PTR _matProj$1[ebp]
  0010e	50		 push	 eax
  0010f	6a 03		 push	 3
  00111	e8 00 00 00 00	 call	 ?SaveTransform@CStateManager@@QAEXW4_D3DTRANSFORMSTATETYPE@@PBU_D3DMATRIX@@@Z ; CStateManager::SaveTransform

; 328  : 		STATEMANAGER.SaveTransform(D3DTS_VIEW, &ms_matIdentity);

  00116	8b 0d 00 00 00
	00		 mov	 ecx, DWORD PTR ?ms_singleton@?$CSingleton@VCStateManager@@@@0PAVCStateManager@@A ; CSingleton<CStateManager>::ms_singleton
  0011c	68 00 00 00 00	 push	 OFFSET ?ms_matIdentity@CGraphicBase@@1UD3DXMATRIX@@A ; CGraphicBase::ms_matIdentity
  00121	6a 02		 push	 2
  00123	e8 00 00 00 00	 call	 ?SaveTransform@CStateManager@@QAEXW4_D3DTRANSFORMSTATETYPE@@PBU_D3DMATRIX@@@Z ; CStateManager::SaveTransform

; 329  : 
; 330  : 		STATEMANAGER.SetTransform(D3DTS_WORLD, &ms_matIdentity);

  00128	8b 0d 00 00 00
	00		 mov	 ecx, DWORD PTR ?ms_singleton@?$CSingleton@VCStateManager@@@@0PAVCStateManager@@A ; CSingleton<CStateManager>::ms_singleton
  0012e	68 00 00 00 00	 push	 OFFSET ?ms_matIdentity@CGraphicBase@@1UD3DXMATRIX@@A ; CGraphicBase::ms_matIdentity
  00133	68 00 01 00 00	 push	 256			; 00000100H
  00138	e8 00 00 00 00	 call	 ?SetTransform@CStateManager@@QAEXW4_D3DTRANSFORMSTATETYPE@@PBU_D3DMATRIX@@@Z ; CStateManager::SetTransform

; 331  : 		//glMatrixMode(GL_MODELVIEW);
; 332  : 		//glLoadIdentity();
; 333  : 
; 334  : 		//glDisable(GL_TEXTURE_2D);
; 335  : 		DrawAfterFlare();

  0013d	8b ce		 mov	 ecx, esi
  0013f	e8 00 00 00 00	 call	 ?DrawAfterFlare@CLensFlare@@QAEXXZ ; CLensFlare::DrawAfterFlare

; 336  : 
; 337  : 		//glEnable(GL_TEXTURE_2D);
; 338  : 		m_cFlare.Draw(m_fAfterBright,

  00144	f3 0f 2c 46 10	 cvttss2si eax, DWORD PTR [esi+16]
  00149	f3 0f 10 46 18	 movss	 xmm0, DWORD PTR [esi+24]
  0014e	50		 push	 eax
  0014f	f3 0f 2c 46 0c	 cvttss2si eax, DWORD PTR [esi+12]
  00154	50		 push	 eax
  00155	ff 35 0c 00 00
	00		 push	 DWORD PTR ?ms_Viewport@CGraphicBase@@1U_D3DVIEWPORT8@@A+12
  0015b	ff 35 08 00 00
	00		 push	 DWORD PTR ?ms_Viewport@CGraphicBase@@1U_D3DVIEWPORT8@@A+8
  00161	51		 push	 ecx
  00162	8d 4e 24	 lea	 ecx, DWORD PTR [esi+36]
  00165	f3 0f 11 04 24	 movss	 DWORD PTR [esp], xmm0
  0016a	e8 00 00 00 00	 call	 ?Draw@CFlare@@QAEXMHHHH@Z ; CFlare::Draw

; 339  : 					  ms_Viewport.Width,
; 340  : 					  ms_Viewport.Height,
; 341  : 					  static_cast<int>(m_afFlareWinPos[0]),
; 342  : 					  static_cast<int>(m_afFlareWinPos[1]));
; 343  : 
; 344  : 		STATEMANAGER.RestoreRenderState(D3DRS_LIGHTING); // glDisable(GL_LIGHTING);

  0016f	8b 0d 00 00 00
	00		 mov	 ecx, DWORD PTR ?ms_singleton@?$CSingleton@VCStateManager@@@@0PAVCStateManager@@A ; CSingleton<CStateManager>::ms_singleton
  00175	68 89 00 00 00	 push	 137			; 00000089H
  0017a	e8 00 00 00 00	 call	 ?RestoreRenderState@CStateManager@@QAEXW4_D3DRENDERSTATETYPE@@@Z ; CStateManager::RestoreRenderState

; 345  : 		STATEMANAGER.RestoreRenderState(D3DRS_ZENABLE); // glDisable(GL_DEPTH_TEST);

  0017f	8b 0d 00 00 00
	00		 mov	 ecx, DWORD PTR ?ms_singleton@?$CSingleton@VCStateManager@@@@0PAVCStateManager@@A ; CSingleton<CStateManager>::ms_singleton
  00185	6a 07		 push	 7
  00187	e8 00 00 00 00	 call	 ?RestoreRenderState@CStateManager@@QAEXW4_D3DRENDERSTATETYPE@@@Z ; CStateManager::RestoreRenderState

; 346  : 		STATEMANAGER.RestoreRenderState(D3DRS_CULLMODE); // glDisable(GL_CULL_FACE);

  0018c	8b 0d 00 00 00
	00		 mov	 ecx, DWORD PTR ?ms_singleton@?$CSingleton@VCStateManager@@@@0PAVCStateManager@@A ; CSingleton<CStateManager>::ms_singleton
  00192	6a 16		 push	 22			; 00000016H
  00194	e8 00 00 00 00	 call	 ?RestoreRenderState@CStateManager@@QAEXW4_D3DRENDERSTATETYPE@@@Z ; CStateManager::RestoreRenderState

; 347  : 		STATEMANAGER.RestoreRenderState(D3DRS_ALPHABLENDENABLE); // glEnable(GL_BLEND);

  00199	8b 0d 00 00 00
	00		 mov	 ecx, DWORD PTR ?ms_singleton@?$CSingleton@VCStateManager@@@@0PAVCStateManager@@A ; CSingleton<CStateManager>::ms_singleton
  0019f	6a 1b		 push	 27			; 0000001bH
  001a1	e8 00 00 00 00	 call	 ?RestoreRenderState@CStateManager@@QAEXW4_D3DRENDERSTATETYPE@@@Z ; CStateManager::RestoreRenderState

; 348  : 		STATEMANAGER.RestoreRenderState(D3DRS_ALPHATESTENABLE); // glDisable(GL_ALPHA_TEST);

  001a6	6a 0f		 push	 15			; 0000000fH
  001a8	8b 0d 00 00 00
	00		 mov	 ecx, DWORD PTR ?ms_singleton@?$CSingleton@VCStateManager@@@@0PAVCStateManager@@A ; CSingleton<CStateManager>::ms_singleton
  001ae	e8 00 00 00 00	 call	 ?RestoreRenderState@CStateManager@@QAEXW4_D3DRENDERSTATETYPE@@@Z ; CStateManager::RestoreRenderState

; 349  : 
; 350  : 		STATEMANAGER.RestoreTransform(D3DTS_PROJECTION);

  001b3	8b 0d 00 00 00
	00		 mov	 ecx, DWORD PTR ?ms_singleton@?$CSingleton@VCStateManager@@@@0PAVCStateManager@@A ; CSingleton<CStateManager>::ms_singleton
  001b9	6a 03		 push	 3
  001bb	e8 00 00 00 00	 call	 ?RestoreTransform@CStateManager@@QAEXW4_D3DTRANSFORMSTATETYPE@@@Z ; CStateManager::RestoreTransform

; 351  : 		STATEMANAGER.RestoreTransform(D3DTS_VIEW);

  001c0	8b 0d 00 00 00
	00		 mov	 ecx, DWORD PTR ?ms_singleton@?$CSingleton@VCStateManager@@@@0PAVCStateManager@@A ; CSingleton<CStateManager>::ms_singleton
  001c6	6a 02		 push	 2
  001c8	e8 00 00 00 00	 call	 ?RestoreTransform@CStateManager@@QAEXW4_D3DTRANSFORMSTATETYPE@@@Z ; CStateManager::RestoreTransform
$LN2@DrawFlare:

; 352  : 		//glDisable(GL_TEXTURE_2D);
; 353  :         //glPopAttrib();
; 354  : 	}
; 355  : }

  001cd	8b 4d fc	 mov	 ecx, DWORD PTR __$ArrayPad$[ebp]
  001d0	33 cd		 xor	 ecx, ebp
  001d2	5e		 pop	 esi
  001d3	e8 00 00 00 00	 call	 @__security_check_cookie@4
  001d8	8b e5		 mov	 esp, ebp
  001da	5d		 pop	 ebp
  001db	c3		 ret	 0
?DrawFlare@CLensFlare@@QAEXXZ ENDP			; CLensFlare::DrawFlare
_TEXT	ENDS
; Function compile flags: /Ogtp
; File C:\Users\murat\Desktop\Siveps2-1-99-Project\source\client\Client\EterLib\LensFlare.cpp
;	COMDAT ?DrawAfterFlare@CLensFlare@@QAEXXZ
_TEXT	SEGMENT
?DrawAfterFlare@CLensFlare@@QAEXXZ PROC			; CLensFlare::DrawAfterFlare, COMDAT
; _this$ = ecx

; 284  : {

  00000	56		 push	 esi
  00001	8b f1		 mov	 esi, ecx

; 285  : 	if (m_bEnabled && m_fAfterBright != 0.0f && m_bDrawBrightScreen)

  00003	80 7e 3c 00	 cmp	 BYTE PTR [esi+60], 0
  00007	74 76		 je	 SHORT $LN2@DrawAfterF
  00009	f3 0f 10 4e 18	 movss	 xmm1, DWORD PTR [esi+24]
  0000e	0f 57 c0	 xorps	 xmm0, xmm0
  00011	0f 2e c8	 ucomiss xmm1, xmm0
  00014	9f		 lahf
  00015	f6 c4 44	 test	 ah, 68			; 00000044H
  00018	7b 65		 jnp	 SHORT $LN2@DrawAfterF
  0001a	80 7e 1e 00	 cmp	 BYTE PTR [esi+30], 0
  0001e	74 5f		 je	 SHORT $LN2@DrawAfterF

; 286  : 	{
; 287  : 		SetDiffuseColor(m_afColor[0], m_afColor[1], m_afColor[2], m_fAfterBright);

  00020	f3 0f 10 46 4c	 movss	 xmm0, DWORD PTR [esi+76]
  00025	83 ec 10	 sub	 esp, 16			; 00000010H
  00028	f3 0f 11 4c 24
	0c		 movss	 DWORD PTR [esp+12], xmm1
  0002e	f3 0f 11 44 24
	08		 movss	 DWORD PTR [esp+8], xmm0
  00034	f3 0f 10 46 48	 movss	 xmm0, DWORD PTR [esi+72]
  00039	f3 0f 11 44 24
	04		 movss	 DWORD PTR [esp+4], xmm0
  0003f	f3 0f 10 46 44	 movss	 xmm0, DWORD PTR [esi+68]
  00044	f3 0f 11 04 24	 movss	 DWORD PTR [esp], xmm0
  00049	e8 00 00 00 00	 call	 ?SetDiffuseColor@CScreen@@QAEXMMMM@Z ; CScreen::SetDiffuseColor

; 288  : 		RenderBar2d(0.0f, 0.0f, 1024.0f, 1024.0f);

  0004e	83 ec 14	 sub	 esp, 20			; 00000014H
  00051	8b ce		 mov	 ecx, esi
  00053	c7 44 24 10 00
	00 00 00	 mov	 DWORD PTR [esp+16], 0
  0005b	c7 44 24 0c 00
	00 80 44	 mov	 DWORD PTR [esp+12], 1149239296 ; 44800000H
  00063	c7 44 24 08 00
	00 80 44	 mov	 DWORD PTR [esp+8], 1149239296 ; 44800000H
  0006b	c7 44 24 04 00
	00 00 00	 mov	 DWORD PTR [esp+4], 0
  00073	c7 04 24 00 00
	00 00		 mov	 DWORD PTR [esp], 0
  0007a	e8 00 00 00 00	 call	 ?RenderBar2d@CScreen@@QAEXMMMMM@Z ; CScreen::RenderBar2d
$LN2@DrawAfterF:

; 289  : 	}
; 290  : }

  0007f	5e		 pop	 esi
  00080	c3		 ret	 0
?DrawAfterFlare@CLensFlare@@QAEXXZ ENDP			; CLensFlare::DrawAfterFlare
_TEXT	ENDS
; Function compile flags: /Ogtp
; File C:\Users\murat\Desktop\Siveps2-1-99-Project\source\client\Client\EterLib\LensFlare.cpp
;	COMDAT ?DrawBeforeFlare@CLensFlare@@QAEXXZ
_TEXT	SEGMENT
_matWorld$ = -228					; size = 64
_matProj$ = -164					; size = 64
_vertices$ = -100					; size = 96
__$ArrayPad$ = -4					; size = 4
?DrawBeforeFlare@CLensFlare@@QAEXXZ PROC		; CLensFlare::DrawBeforeFlare, COMDAT
; _this$ = ecx

; 183  : {

  00000	55		 push	 ebp
  00001	8b ec		 mov	 ebp, esp
  00003	81 ec e4 00 00
	00		 sub	 esp, 228		; 000000e4H
  00009	a1 00 00 00 00	 mov	 eax, DWORD PTR ___security_cookie
  0000e	33 c5		 xor	 eax, ebp
  00010	89 45 fc	 mov	 DWORD PTR __$ArrayPad$[ebp], eax
  00013	56		 push	 esi
  00014	8b f1		 mov	 esi, ecx

; 184  :     if (!m_bFlareVisible || !m_bEnabled || !m_bShowMainFlare)

  00016	80 7e 1c 00	 cmp	 BYTE PTR [esi+28], 0
  0001a	0f 84 82 03 00
	00		 je	 $LN3@DrawBefore
  00020	80 7e 3c 00	 cmp	 BYTE PTR [esi+60], 0
  00024	0f 84 78 03 00
	00		 je	 $LN3@DrawBefore
  0002a	80 7e 3d 00	 cmp	 BYTE PTR [esi+61], 0
  0002e	0f 84 6e 03 00
	00		 je	 $LN3@DrawBefore

; 185  :         return;
; 186  : 
; 187  : 	if (m_SunFlareImageInstance.IsEmpty())

  00034	57		 push	 edi
  00035	8d 4e 54	 lea	 ecx, DWORD PTR [esi+84]
  00038	e8 00 00 00 00	 call	 ?IsEmpty@CGraphicImageInstance@@QBE_NXZ ; CGraphicImageInstance::IsEmpty
  0003d	84 c0		 test	 al, al
  0003f	0f 85 5c 03 00
	00		 jne	 $LN91@DrawBefore

; 188  : 		return;
; 189  : 
; 190  : 	D3DXMATRIX matProj;
; 191  : 	D3DXMatrixOrthoOffCenterRH(&matProj, 0.0f, 1.0f, 1.0f, 0.0f, -1.0f, 1.0f);

  00045	83 ec 18	 sub	 esp, 24			; 00000018H
  00048	8d 85 5c ff ff
	ff		 lea	 eax, DWORD PTR _matProj$[ebp]
  0004e	c7 44 24 14 00
	00 80 3f	 mov	 DWORD PTR [esp+20], 1065353216 ; 3f800000H
  00056	c7 44 24 10 00
	00 80 bf	 mov	 DWORD PTR [esp+16], -1082130432 ; bf800000H
  0005e	c7 44 24 0c 00
	00 00 00	 mov	 DWORD PTR [esp+12], 0
  00066	c7 44 24 08 00
	00 80 3f	 mov	 DWORD PTR [esp+8], 1065353216 ; 3f800000H
  0006e	c7 44 24 04 00
	00 80 3f	 mov	 DWORD PTR [esp+4], 1065353216 ; 3f800000H
  00076	c7 04 24 00 00
	00 00		 mov	 DWORD PTR [esp], 0
  0007d	50		 push	 eax
  0007e	e8 00 00 00 00	 call	 _D3DXMatrixOrthoOffCenterRH@28

; 192  : 	STATEMANAGER.SaveTransform(D3DTS_PROJECTION, &matProj);

  00083	8b 0d 00 00 00
	00		 mov	 ecx, DWORD PTR ?ms_singleton@?$CSingleton@VCStateManager@@@@0PAVCStateManager@@A ; CSingleton<CStateManager>::ms_singleton
  00089	8d 85 5c ff ff
	ff		 lea	 eax, DWORD PTR _matProj$[ebp]
  0008f	50		 push	 eax
  00090	6a 03		 push	 3
  00092	e8 00 00 00 00	 call	 ?SaveTransform@CStateManager@@QAEXW4_D3DTRANSFORMSTATETYPE@@PBU_D3DMATRIX@@@Z ; CStateManager::SaveTransform

; 193  : 	STATEMANAGER.SaveTransform(D3DTS_VIEW, &ms_matIdentity);

  00097	8b 0d 00 00 00
	00		 mov	 ecx, DWORD PTR ?ms_singleton@?$CSingleton@VCStateManager@@@@0PAVCStateManager@@A ; CSingleton<CStateManager>::ms_singleton
  0009d	68 00 00 00 00	 push	 OFFSET ?ms_matIdentity@CGraphicBase@@1UD3DXMATRIX@@A ; CGraphicBase::ms_matIdentity
  000a2	6a 02		 push	 2
  000a4	e8 00 00 00 00	 call	 ?SaveTransform@CStateManager@@QAEXW4_D3DTRANSFORMSTATETYPE@@PBU_D3DMATRIX@@@Z ; CStateManager::SaveTransform

; 194  : 
; 195  : 	D3DXMATRIX matWorld;
; 196  : 	D3DXMatrixTranslation(&matWorld, m_afFlarePos[0], m_afFlarePos[1], 0.0f);

  000a9	f3 0f 10 46 08	 movss	 xmm0, DWORD PTR [esi+8]
  000ae	8d 85 1c ff ff
	ff		 lea	 eax, DWORD PTR _matWorld$[ebp]
  000b4	83 ec 0c	 sub	 esp, 12			; 0000000cH
  000b7	c7 44 24 08 00
	00 00 00	 mov	 DWORD PTR [esp+8], 0
  000bf	f3 0f 11 44 24
	04		 movss	 DWORD PTR [esp+4], xmm0
  000c5	f3 0f 10 46 04	 movss	 xmm0, DWORD PTR [esi+4]
  000ca	f3 0f 11 04 24	 movss	 DWORD PTR [esp], xmm0
  000cf	50		 push	 eax
  000d0	e8 00 00 00 00	 call	 _D3DXMatrixTranslation@16

; 197  : 	STATEMANAGER.SetTransform(D3DTS_WORLD, &matWorld);

  000d5	8b 0d 00 00 00
	00		 mov	 ecx, DWORD PTR ?ms_singleton@?$CSingleton@VCStateManager@@@@0PAVCStateManager@@A ; CSingleton<CStateManager>::ms_singleton
  000db	8d 85 1c ff ff
	ff		 lea	 eax, DWORD PTR _matWorld$[ebp]
  000e1	50		 push	 eax
  000e2	68 00 01 00 00	 push	 256			; 00000100H
  000e7	e8 00 00 00 00	 call	 ?SetTransform@CStateManager@@QAEXW4_D3DTRANSFORMSTATETYPE@@PBU_D3DMATRIX@@@Z ; CStateManager::SetTransform

; 198  : 
; 199  : 	STATEMANAGER.SaveRenderState(D3DRS_LIGHTING, FALSE);

  000ec	8b 0d 00 00 00
	00		 mov	 ecx, DWORD PTR ?ms_singleton@?$CSingleton@VCStateManager@@@@0PAVCStateManager@@A ; CSingleton<CStateManager>::ms_singleton
  000f2	6a 00		 push	 0
  000f4	68 89 00 00 00	 push	 137			; 00000089H
  000f9	e8 00 00 00 00	 call	 ?SaveRenderState@CStateManager@@QAEXW4_D3DRENDERSTATETYPE@@K@Z ; CStateManager::SaveRenderState

; 200  : 	STATEMANAGER.SaveRenderState(D3DRS_ZENABLE, FALSE);					// glDisable(GL_DEPTH_TEST);

  000fe	8b 0d 00 00 00
	00		 mov	 ecx, DWORD PTR ?ms_singleton@?$CSingleton@VCStateManager@@@@0PAVCStateManager@@A ; CSingleton<CStateManager>::ms_singleton
  00104	6a 00		 push	 0
  00106	6a 07		 push	 7
  00108	e8 00 00 00 00	 call	 ?SaveRenderState@CStateManager@@QAEXW4_D3DRENDERSTATETYPE@@K@Z ; CStateManager::SaveRenderState

; 201  : 	STATEMANAGER.SaveRenderState(D3DRS_ZWRITEENABLE, FALSE);

  0010d	8b 0d 00 00 00
	00		 mov	 ecx, DWORD PTR ?ms_singleton@?$CSingleton@VCStateManager@@@@0PAVCStateManager@@A ; CSingleton<CStateManager>::ms_singleton
  00113	6a 00		 push	 0
  00115	6a 0e		 push	 14			; 0000000eH
  00117	e8 00 00 00 00	 call	 ?SaveRenderState@CStateManager@@QAEXW4_D3DRENDERSTATETYPE@@K@Z ; CStateManager::SaveRenderState

; 202  : 	STATEMANAGER.SaveRenderState(D3DRS_CULLMODE, D3DCULL_NONE);			// glDisable(GL_CULL_FACE);

  0011c	8b 0d 00 00 00
	00		 mov	 ecx, DWORD PTR ?ms_singleton@?$CSingleton@VCStateManager@@@@0PAVCStateManager@@A ; CSingleton<CStateManager>::ms_singleton
  00122	6a 01		 push	 1
  00124	6a 16		 push	 22			; 00000016H
  00126	e8 00 00 00 00	 call	 ?SaveRenderState@CStateManager@@QAEXW4_D3DRENDERSTATETYPE@@K@Z ; CStateManager::SaveRenderState

; 203  : 	STATEMANAGER.SaveRenderState(D3DRS_SHADEMODE, D3DSHADE_FLAT);		// glShadeModel(GL_FLAT);

  0012b	8b 0d 00 00 00
	00		 mov	 ecx, DWORD PTR ?ms_singleton@?$CSingleton@VCStateManager@@@@0PAVCStateManager@@A ; CSingleton<CStateManager>::ms_singleton
  00131	6a 01		 push	 1
  00133	6a 09		 push	 9
  00135	e8 00 00 00 00	 call	 ?SaveRenderState@CStateManager@@QAEXW4_D3DRENDERSTATETYPE@@K@Z ; CStateManager::SaveRenderState

; 204  :     STATEMANAGER.SaveRenderState(D3DRS_ALPHATESTENABLE, FALSE);			// glDisable(GL_ALPHA_TEST);

  0013a	8b 0d 00 00 00
	00		 mov	 ecx, DWORD PTR ?ms_singleton@?$CSingleton@VCStateManager@@@@0PAVCStateManager@@A ; CSingleton<CStateManager>::ms_singleton
  00140	6a 00		 push	 0
  00142	6a 0f		 push	 15			; 0000000fH
  00144	e8 00 00 00 00	 call	 ?SaveRenderState@CStateManager@@QAEXW4_D3DRENDERSTATETYPE@@K@Z ; CStateManager::SaveRenderState

; 205  :     STATEMANAGER.SaveRenderState(D3DRS_ALPHABLENDENABLE, TRUE);			// glEnable(GL_BLEND);

  00149	8b 0d 00 00 00
	00		 mov	 ecx, DWORD PTR ?ms_singleton@?$CSingleton@VCStateManager@@@@0PAVCStateManager@@A ; CSingleton<CStateManager>::ms_singleton
  0014f	6a 01		 push	 1
  00151	6a 1b		 push	 27			; 0000001bH
  00153	e8 00 00 00 00	 call	 ?SaveRenderState@CStateManager@@QAEXW4_D3DRENDERSTATETYPE@@K@Z ; CStateManager::SaveRenderState

; 206  : 	STATEMANAGER.SaveRenderState(D3DRS_SRCBLEND, D3DBLEND_SRCALPHA);

  00158	8b 0d 00 00 00
	00		 mov	 ecx, DWORD PTR ?ms_singleton@?$CSingleton@VCStateManager@@@@0PAVCStateManager@@A ; CSingleton<CStateManager>::ms_singleton
  0015e	6a 05		 push	 5
  00160	6a 13		 push	 19			; 00000013H
  00162	e8 00 00 00 00	 call	 ?SaveRenderState@CStateManager@@QAEXW4_D3DRENDERSTATETYPE@@K@Z ; CStateManager::SaveRenderState

; 207  : 	STATEMANAGER.SaveRenderState(D3DRS_DESTBLEND, D3DBLEND_INVSRCALPHA);

  00167	8b 0d 00 00 00
	00		 mov	 ecx, DWORD PTR ?ms_singleton@?$CSingleton@VCStateManager@@@@0PAVCStateManager@@A ; CSingleton<CStateManager>::ms_singleton
  0016d	6a 06		 push	 6
  0016f	6a 14		 push	 20			; 00000014H
  00171	e8 00 00 00 00	 call	 ?SaveRenderState@CStateManager@@QAEXW4_D3DRENDERSTATETYPE@@K@Z ; CStateManager::SaveRenderState

; 208  : 	/*
; 209  : 	if (m_fBeforeBright != 0.0f && m_bDrawFlare && m_bDrawBrightScreen && false)	//  false?
; 210  : 	{
; 211  : 		glColor4f(1.0f, 1.0f, 1.0f, m_fBeforeBright);
; 212  : 		glDisable(GL_TEXTURE_2D);
; 213  : 		glBegin(GL_TRIANGLE_STRIP);
; 214  : 			glVertex2f(0.0f, 0.0f);
; 215  : 			glVertex2f(0.0f, 1.0f);
; 216  : 			glVertex2f(1.0f, 0.0f);
; 217  : 			glVertex2f(1.0f, 1.0f);
; 218  : 		glEnd();
; 219  : 	}
; 220  : 	*/
; 221  : 	float fAspectRatio = ms_Viewport.Width / float(ms_Viewport.Height);

  00176	a1 08 00 00 00	 mov	 eax, DWORD PTR ?ms_Viewport@CGraphicBase@@1U_D3DVIEWPORT8@@A+8

; 222  : 	float fHeight = m_fSunSize * fAspectRatio;

  0017b	f3 0f 10 66 20	 movss	 xmm4, DWORD PTR [esi+32]
  00180	66 0f 6e c0	 movd	 xmm0, eax
  00184	f3 0f e6 c0	 cvtdq2pd xmm0, xmm0
  00188	c1 e8 1f	 shr	 eax, 31			; 0000001fH
  0018b	f2 0f 58 04 c5
	00 00 00 00	 addsd	 xmm0, QWORD PTR __xmm@41f00000000000000000000000000000[eax*8]
  00194	a1 0c 00 00 00	 mov	 eax, DWORD PTR ?ms_Viewport@CGraphicBase@@1U_D3DVIEWPORT8@@A+12
  00199	66 0f 5a d8	 cvtpd2ps xmm3, xmm0
  0019d	66 0f 6e c0	 movd	 xmm0, eax
  001a1	f3 0f e6 c0	 cvtdq2pd xmm0, xmm0
  001a5	c1 e8 1f	 shr	 eax, 31			; 0000001fH
  001a8	f2 0f 58 04 c5
	00 00 00 00	 addsd	 xmm0, QWORD PTR __xmm@41f00000000000000000000000000000[eax*8]

; 223  : 	D3DXCOLOR color(1.0f, 1.0f, 1.0f, 1.0f);
; 224  : 
; 225  : 	SVertex vertices[4];
; 226  : 	vertices[0].x = -m_fSunSize;
; 227  : 	vertices[0].y = -fHeight;
; 228  : 	vertices[0].z = 0.0f;

  001b1	66 0f 5a c0	 cvtpd2ps xmm0, xmm0
  001b5	c7 45 a4 00 00
	00 00		 mov	 DWORD PTR _vertices$[ebp+8], 0

; 229  : 	vertices[0].color = color;
; 230  : 	vertices[0].u = 0.0f;
; 231  : 	vertices[0].v = 0.0f;
; 232  : 
; 233  : 	vertices[1].x = -m_fSunSize;
; 234  : 	vertices[1].y = fHeight;
; 235  : 	vertices[1].z = 0.0f;
; 236  : 	vertices[1].color = color;
; 237  : 	vertices[1].u = 0.0f;
; 238  : 	vertices[1].v = 1.0f;
; 239  : 
; 240  : 	vertices[2].x = m_fSunSize;
; 241  : 	vertices[2].y = -fHeight;
; 242  : 	vertices[2].z = 0.0f;
; 243  : 	vertices[2].color = color;
; 244  : 	vertices[2].u = 1.0f;
; 245  : 	vertices[2].v = 0.0f;
; 246  : 
; 247  : 	vertices[3].x = m_fSunSize;
; 248  : 	vertices[3].y = fHeight;
; 249  : 	vertices[3].z = 0.0f;
; 250  : 	vertices[3].color = color;
; 251  : 	vertices[3].u = 1.0f;
; 252  : 	vertices[3].v = 1.0f;
; 253  : 
; 254  : 	STATEMANAGER.SetTexture(0, m_SunFlareImageInstance.GetTexturePointer()->GetD3DTexture());

  001bc	8d 4e 54	 lea	 ecx, DWORD PTR [esi+84]
  001bf	c7 45 a8 ff ff
	ff ff		 mov	 DWORD PTR _vertices$[ebp+12], -1
  001c6	c7 45 ac 00 00
	00 00		 mov	 DWORD PTR _vertices$[ebp+16], 0
  001cd	c7 45 b0 00 00
	00 00		 mov	 DWORD PTR _vertices$[ebp+20], 0
  001d4	c7 45 bc 00 00
	00 00		 mov	 DWORD PTR _vertices$[ebp+32], 0
  001db	0f 28 cc	 movaps	 xmm1, xmm4
  001de	c7 45 c0 ff ff
	ff ff		 mov	 DWORD PTR _vertices$[ebp+36], -1
  001e5	f3 0f 5e d8	 divss	 xmm3, xmm0
  001e9	c7 45 c4 00 00
	00 00		 mov	 DWORD PTR _vertices$[ebp+40], 0
  001f0	c7 45 c8 00 00
	80 3f		 mov	 DWORD PTR _vertices$[ebp+44], 1065353216 ; 3f800000H
  001f7	c7 45 d4 00 00
	00 00		 mov	 DWORD PTR _vertices$[ebp+56], 0
  001fe	c7 45 d8 ff ff
	ff ff		 mov	 DWORD PTR _vertices$[ebp+60], -1
  00205	c7 45 dc 00 00
	80 3f		 mov	 DWORD PTR _vertices$[ebp+64], 1065353216 ; 3f800000H
  0020c	c7 45 e0 00 00
	00 00		 mov	 DWORD PTR _vertices$[ebp+68], 0
  00213	c7 45 ec 00 00
	00 00		 mov	 DWORD PTR _vertices$[ebp+80], 0
  0021a	c7 45 f0 ff ff
	ff ff		 mov	 DWORD PTR _vertices$[ebp+84], -1
  00221	c7 45 f4 00 00
	80 3f		 mov	 DWORD PTR _vertices$[ebp+88], 1065353216 ; 3f800000H
  00228	c7 45 f8 00 00
	80 3f		 mov	 DWORD PTR _vertices$[ebp+92], 1065353216 ; 3f800000H
  0022f	0f 57 0d 00 00
	00 00		 xorps	 xmm1, DWORD PTR __xmm@80000000800000008000000080000000
  00236	f3 0f 59 dc	 mulss	 xmm3, xmm4
  0023a	f3 0f 11 4d 9c	 movss	 DWORD PTR _vertices$[ebp], xmm1
  0023f	f3 0f 11 4d b4	 movss	 DWORD PTR _vertices$[ebp+24], xmm1
  00244	0f 28 d3	 movaps	 xmm2, xmm3
  00247	f3 0f 11 5d b8	 movss	 DWORD PTR _vertices$[ebp+28], xmm3
  0024c	0f 57 15 00 00
	00 00		 xorps	 xmm2, DWORD PTR __xmm@80000000800000008000000080000000
  00253	f3 0f 11 55 a0	 movss	 DWORD PTR _vertices$[ebp+4], xmm2
  00258	f3 0f 11 65 cc	 movss	 DWORD PTR _vertices$[ebp+48], xmm4
  0025d	f3 0f 11 55 d0	 movss	 DWORD PTR _vertices$[ebp+52], xmm2
  00262	f3 0f 11 65 e4	 movss	 DWORD PTR _vertices$[ebp+72], xmm4
  00267	f3 0f 11 5d e8	 movss	 DWORD PTR _vertices$[ebp+76], xmm3
  0026c	e8 00 00 00 00	 call	 ?GetTexturePointer@CGraphicImageInstance@@QAEPAVCGraphicTexture@@XZ ; CGraphicImageInstance::GetTexturePointer
  00271	8b c8		 mov	 ecx, eax
  00273	e8 00 00 00 00	 call	 ?GetD3DTexture@CGraphicTexture@@QBEPAUIDirect3DTexture8@@XZ ; CGraphicTexture::GetD3DTexture
  00278	8b 0d 00 00 00
	00		 mov	 ecx, DWORD PTR ?ms_singleton@?$CSingleton@VCStateManager@@@@0PAVCStateManager@@A ; CSingleton<CStateManager>::ms_singleton
  0027e	50		 push	 eax
  0027f	6a 00		 push	 0
  00281	e8 00 00 00 00	 call	 ?SetTexture@CStateManager@@QAEXKPAUIDirect3DBaseTexture8@@@Z ; CStateManager::SetTexture

; 255  : 	STATEMANAGER.SetTexture(1, NULL);

  00286	8b 0d 00 00 00
	00		 mov	 ecx, DWORD PTR ?ms_singleton@?$CSingleton@VCStateManager@@@@0PAVCStateManager@@A ; CSingleton<CStateManager>::ms_singleton
  0028c	6a 00		 push	 0
  0028e	6a 01		 push	 1
  00290	e8 00 00 00 00	 call	 ?SetTexture@CStateManager@@QAEXKPAUIDirect3DBaseTexture8@@@Z ; CStateManager::SetTexture

; 256  : 	STATEMANAGER.SetTextureStageState(0, D3DTSS_COLOROP, D3DTOP_MODULATE);

  00295	8b 0d 00 00 00
	00		 mov	 ecx, DWORD PTR ?ms_singleton@?$CSingleton@VCStateManager@@@@0PAVCStateManager@@A ; CSingleton<CStateManager>::ms_singleton
  0029b	6a 04		 push	 4
  0029d	6a 01		 push	 1
  0029f	6a 00		 push	 0
  002a1	e8 00 00 00 00	 call	 ?SetTextureStageState@CStateManager@@QAEXKW4_D3DTEXTURESTAGESTATETYPE@@K@Z ; CStateManager::SetTextureStageState

; 257  : 	STATEMANAGER.SetTextureStageState(0, D3DTSS_COLORARG1, D3DTA_TEXTURE);

  002a6	8b 0d 00 00 00
	00		 mov	 ecx, DWORD PTR ?ms_singleton@?$CSingleton@VCStateManager@@@@0PAVCStateManager@@A ; CSingleton<CStateManager>::ms_singleton
  002ac	6a 02		 push	 2
  002ae	6a 02		 push	 2
  002b0	6a 00		 push	 0
  002b2	e8 00 00 00 00	 call	 ?SetTextureStageState@CStateManager@@QAEXKW4_D3DTEXTURESTAGESTATETYPE@@K@Z ; CStateManager::SetTextureStageState

; 258  : 	STATEMANAGER.SetTextureStageState(0, D3DTSS_COLORARG2, D3DTA_DIFFUSE);

  002b7	8b 0d 00 00 00
	00		 mov	 ecx, DWORD PTR ?ms_singleton@?$CSingleton@VCStateManager@@@@0PAVCStateManager@@A ; CSingleton<CStateManager>::ms_singleton
  002bd	6a 00		 push	 0
  002bf	6a 03		 push	 3
  002c1	6a 00		 push	 0
  002c3	e8 00 00 00 00	 call	 ?SetTextureStageState@CStateManager@@QAEXKW4_D3DTEXTURESTAGESTATETYPE@@K@Z ; CStateManager::SetTextureStageState

; 259  : 	STATEMANAGER.SetTextureStageState(0, D3DTSS_ALPHAOP, D3DTOP_SELECTARG1);

  002c8	8b 0d 00 00 00
	00		 mov	 ecx, DWORD PTR ?ms_singleton@?$CSingleton@VCStateManager@@@@0PAVCStateManager@@A ; CSingleton<CStateManager>::ms_singleton
  002ce	6a 02		 push	 2
  002d0	6a 04		 push	 4
  002d2	6a 00		 push	 0
  002d4	e8 00 00 00 00	 call	 ?SetTextureStageState@CStateManager@@QAEXKW4_D3DTEXTURESTAGESTATETYPE@@K@Z ; CStateManager::SetTextureStageState

; 260  : 	STATEMANAGER.SetTextureStageState(0, D3DTSS_COLORARG1, D3DTA_TEXTURE);

  002d9	8b 0d 00 00 00
	00		 mov	 ecx, DWORD PTR ?ms_singleton@?$CSingleton@VCStateManager@@@@0PAVCStateManager@@A ; CSingleton<CStateManager>::ms_singleton
  002df	6a 02		 push	 2
  002e1	6a 02		 push	 2
  002e3	6a 00		 push	 0
  002e5	e8 00 00 00 00	 call	 ?SetTextureStageState@CStateManager@@QAEXKW4_D3DTEXTURESTAGESTATETYPE@@K@Z ; CStateManager::SetTextureStageState

; 261  : 
; 262  : 	STATEMANAGER.SetVertexShader(D3DFVF_XYZ|D3DFVF_DIFFUSE|D3DFVF_TEX1);

  002ea	8b 0d 00 00 00
	00		 mov	 ecx, DWORD PTR ?ms_singleton@?$CSingleton@VCStateManager@@@@0PAVCStateManager@@A ; CSingleton<CStateManager>::ms_singleton
  002f0	68 42 01 00 00	 push	 322			; 00000142H
  002f5	e8 00 00 00 00	 call	 ?SetVertexShader@CStateManager@@QAEXK@Z ; CStateManager::SetVertexShader

; 263  : 	STATEMANAGER.DrawPrimitiveUP(D3DPT_TRIANGLESTRIP, 2, vertices, sizeof(SVertex));

  002fa	8b 0d 00 00 00
	00		 mov	 ecx, DWORD PTR ?ms_singleton@?$CSingleton@VCStateManager@@@@0PAVCStateManager@@A ; CSingleton<CStateManager>::ms_singleton
  00300	8d 45 9c	 lea	 eax, DWORD PTR _vertices$[ebp]
  00303	6a 18		 push	 24			; 00000018H
  00305	50		 push	 eax
  00306	6a 02		 push	 2
  00308	6a 05		 push	 5
  0030a	e8 00 00 00 00	 call	 ?DrawPrimitiveUP@CStateManager@@QAEJW4_D3DPRIMITIVETYPE@@IPBXI@Z ; CStateManager::DrawPrimitiveUP

; 264  : 
; 265  : 	STATEMANAGER.RestoreRenderState(D3DRS_LIGHTING);

  0030f	8b 0d 00 00 00
	00		 mov	 ecx, DWORD PTR ?ms_singleton@?$CSingleton@VCStateManager@@@@0PAVCStateManager@@A ; CSingleton<CStateManager>::ms_singleton
  00315	68 89 00 00 00	 push	 137			; 00000089H
  0031a	e8 00 00 00 00	 call	 ?RestoreRenderState@CStateManager@@QAEXW4_D3DRENDERSTATETYPE@@@Z ; CStateManager::RestoreRenderState

; 266  : 	STATEMANAGER.RestoreRenderState(D3DRS_ZENABLE); // glDisable(GL_DEPTH_TEST);

  0031f	8b 0d 00 00 00
	00		 mov	 ecx, DWORD PTR ?ms_singleton@?$CSingleton@VCStateManager@@@@0PAVCStateManager@@A ; CSingleton<CStateManager>::ms_singleton
  00325	6a 07		 push	 7
  00327	e8 00 00 00 00	 call	 ?RestoreRenderState@CStateManager@@QAEXW4_D3DRENDERSTATETYPE@@@Z ; CStateManager::RestoreRenderState

; 267  : 	STATEMANAGER.RestoreRenderState(D3DRS_ZWRITEENABLE);

  0032c	8b 0d 00 00 00
	00		 mov	 ecx, DWORD PTR ?ms_singleton@?$CSingleton@VCStateManager@@@@0PAVCStateManager@@A ; CSingleton<CStateManager>::ms_singleton
  00332	6a 0e		 push	 14			; 0000000eH
  00334	e8 00 00 00 00	 call	 ?RestoreRenderState@CStateManager@@QAEXW4_D3DRENDERSTATETYPE@@@Z ; CStateManager::RestoreRenderState

; 268  : 	STATEMANAGER.RestoreRenderState(D3DRS_CULLMODE); // glDisable(GL_CULL_FACE);

  00339	8b 0d 00 00 00
	00		 mov	 ecx, DWORD PTR ?ms_singleton@?$CSingleton@VCStateManager@@@@0PAVCStateManager@@A ; CSingleton<CStateManager>::ms_singleton
  0033f	6a 16		 push	 22			; 00000016H
  00341	e8 00 00 00 00	 call	 ?RestoreRenderState@CStateManager@@QAEXW4_D3DRENDERSTATETYPE@@@Z ; CStateManager::RestoreRenderState

; 269  : 	STATEMANAGER.RestoreRenderState(D3DRS_SHADEMODE); // glShadeModel(GL_FLAT);

  00346	8b 0d 00 00 00
	00		 mov	 ecx, DWORD PTR ?ms_singleton@?$CSingleton@VCStateManager@@@@0PAVCStateManager@@A ; CSingleton<CStateManager>::ms_singleton
  0034c	6a 09		 push	 9
  0034e	e8 00 00 00 00	 call	 ?RestoreRenderState@CStateManager@@QAEXW4_D3DRENDERSTATETYPE@@@Z ; CStateManager::RestoreRenderState

; 270  : 	STATEMANAGER.RestoreRenderState(D3DRS_ALPHATESTENABLE); // glDisable(GL_ALPHA_TEST);

  00353	8b 0d 00 00 00
	00		 mov	 ecx, DWORD PTR ?ms_singleton@?$CSingleton@VCStateManager@@@@0PAVCStateManager@@A ; CSingleton<CStateManager>::ms_singleton
  00359	6a 0f		 push	 15			; 0000000fH
  0035b	e8 00 00 00 00	 call	 ?RestoreRenderState@CStateManager@@QAEXW4_D3DRENDERSTATETYPE@@@Z ; CStateManager::RestoreRenderState

; 271  : 	STATEMANAGER.RestoreRenderState(D3DRS_ALPHABLENDENABLE); // glEnable(GL_BLEND);

  00360	8b 0d 00 00 00
	00		 mov	 ecx, DWORD PTR ?ms_singleton@?$CSingleton@VCStateManager@@@@0PAVCStateManager@@A ; CSingleton<CStateManager>::ms_singleton
  00366	6a 1b		 push	 27			; 0000001bH
  00368	e8 00 00 00 00	 call	 ?RestoreRenderState@CStateManager@@QAEXW4_D3DRENDERSTATETYPE@@@Z ; CStateManager::RestoreRenderState

; 272  : 	STATEMANAGER.RestoreRenderState(D3DRS_SRCBLEND);

  0036d	8b 0d 00 00 00
	00		 mov	 ecx, DWORD PTR ?ms_singleton@?$CSingleton@VCStateManager@@@@0PAVCStateManager@@A ; CSingleton<CStateManager>::ms_singleton
  00373	6a 13		 push	 19			; 00000013H
  00375	e8 00 00 00 00	 call	 ?RestoreRenderState@CStateManager@@QAEXW4_D3DRENDERSTATETYPE@@@Z ; CStateManager::RestoreRenderState

; 273  : 	STATEMANAGER.RestoreRenderState(D3DRS_DESTBLEND);

  0037a	8b 0d 00 00 00
	00		 mov	 ecx, DWORD PTR ?ms_singleton@?$CSingleton@VCStateManager@@@@0PAVCStateManager@@A ; CSingleton<CStateManager>::ms_singleton
  00380	6a 14		 push	 20			; 00000014H
  00382	e8 00 00 00 00	 call	 ?RestoreRenderState@CStateManager@@QAEXW4_D3DRENDERSTATETYPE@@@Z ; CStateManager::RestoreRenderState

; 274  : 
; 275  : 	STATEMANAGER.RestoreTransform(D3DTS_VIEW);

  00387	8b 0d 00 00 00
	00		 mov	 ecx, DWORD PTR ?ms_singleton@?$CSingleton@VCStateManager@@@@0PAVCStateManager@@A ; CSingleton<CStateManager>::ms_singleton
  0038d	6a 02		 push	 2
  0038f	e8 00 00 00 00	 call	 ?RestoreTransform@CStateManager@@QAEXW4_D3DTRANSFORMSTATETYPE@@@Z ; CStateManager::RestoreTransform

; 276  : 	STATEMANAGER.RestoreTransform(D3DTS_PROJECTION);

  00394	8b 0d 00 00 00
	00		 mov	 ecx, DWORD PTR ?ms_singleton@?$CSingleton@VCStateManager@@@@0PAVCStateManager@@A ; CSingleton<CStateManager>::ms_singleton
  0039a	6a 03		 push	 3
  0039c	e8 00 00 00 00	 call	 ?RestoreTransform@CStateManager@@QAEXW4_D3DTRANSFORMSTATETYPE@@@Z ; CStateManager::RestoreTransform
$LN91@DrawBefore:
  003a1	5f		 pop	 edi
$LN3@DrawBefore:

; 277  : }

  003a2	8b 4d fc	 mov	 ecx, DWORD PTR __$ArrayPad$[ebp]
  003a5	33 cd		 xor	 ecx, ebp
  003a7	5e		 pop	 esi
  003a8	e8 00 00 00 00	 call	 @__security_check_cookie@4
  003ad	8b e5		 mov	 esp, ebp
  003af	5d		 pop	 ebp
  003b0	c3		 ret	 0
?DrawBeforeFlare@CLensFlare@@QAEXXZ ENDP		; CLensFlare::DrawBeforeFlare
_TEXT	ENDS
; Function compile flags: /Ogtp
; File C:\Users\murat\Desktop\Siveps2-1-99-Project\source\client\Client\EterLib\LensFlare.cpp
; File C:\Program Files (x86)\Windows Kits\10\Include\10.0.19041.0\ucrt\corecrt_math.h
; File C:\Users\murat\Desktop\Siveps2-1-99-Project\source\client\Client\EterLib\LensFlare.cpp
; File C:\Program Files (x86)\Windows Kits\10\Include\10.0.19041.0\ucrt\corecrt_math.h
; File C:\Users\murat\Desktop\Siveps2-1-99-Project\source\client\Client\EterLib\LensFlare.cpp
; File C:\Program Files (x86)\Windows Kits\10\Include\10.0.19041.0\ucrt\corecrt_math.h
; File C:\Users\murat\Desktop\Siveps2-1-99-Project\source\client\Client\EterLib\LensFlare.cpp
; File C:\Program Files (x86)\Windows Kits\10\Include\10.0.19041.0\ucrt\corecrt_math.h
; File C:\Users\murat\Desktop\Siveps2-1-99-Project\source\client\Client\EterLib\LensFlare.cpp
; File C:\Program Files (x86)\Windows Kits\10\Include\10.0.19041.0\ucrt\corecrt_math.h
; File C:\Users\murat\Desktop\Siveps2-1-99-Project\source\client\Client\EterLib\LensFlare.cpp
; File C:\Program Files (x86)\Windows Kits\10\Include\10.0.19041.0\ucrt\corecrt_math.h
; File C:\Users\murat\Desktop\Siveps2-1-99-Project\source\client\Client\EterLib\LensFlare.cpp
; File C:\Program Files (x86)\Windows Kits\10\Include\10.0.19041.0\ucrt\corecrt_math.h
; File C:\Users\murat\Desktop\Siveps2-1-99-Project\source\client\Client\EterLib\LensFlare.cpp
;	COMDAT ?Compute@CLensFlare@@QAEXABUD3DXVECTOR3@@@Z
_TEXT	SEGMENT
tv192 = -40						; size = 4
tv187 = -36						; size = 4
tv190 = -32						; size = 4
_fY$ = -28						; size = 4
_fX$ = -24						; size = 4
_fY$1$ = -20						; size = 4
_fX$1$ = -16						; size = 4
__real@3f800000$1$ = -16				; size = 4
_v3Target$ = -12					; size = 12
_c_rv3LightDirection$ = 8				; size = 4
?Compute@CLensFlare@@QAEXABUD3DXVECTOR3@@@Z PROC	; CLensFlare::Compute, COMDAT
; _this$ = ecx

; 128  : {

  00000	55		 push	 ebp
  00001	8b ec		 mov	 ebp, esp
  00003	83 e4 f8	 and	 esp, -8			; fffffff8H
  00006	83 ec 2c	 sub	 esp, 44			; 0000002cH
  00009	56		 push	 esi
  0000a	8b f1		 mov	 esi, ecx

; 129  : 	float afSunPos[3];
; 130  : 
; 131  : 	D3DXVECTOR3 v3Target = CCameraManager::Instance().GetCurrentCamera()->GetTarget();

  0000c	8b 0d 00 00 00
	00		 mov	 ecx, DWORD PTR ?ms_singleton@?$CSingleton@VCCameraManager@@@@0PAVCCameraManager@@A ; CSingleton<CCameraManager>::ms_singleton
  00012	e8 00 00 00 00	 call	 ?GetCurrentCamera@CCameraManager@@QAEPAVCCamera@@XZ ; CCameraManager::GetCurrentCamera

; 132  : 
; 133  : 	afSunPos[0]	= v3Target.x - c_rv3LightDirection.x * 99999999.0f;

  00017	f3 0f 10 0d 00
	00 00 00	 movss	 xmm1, DWORD PTR __real@4cbebc20

; 134  : 	afSunPos[1]	= v3Target.y - c_rv3LightDirection.y * 99999999.0f;
; 135  : 	afSunPos[2]	= v3Target.z - c_rv3LightDirection.z * 99999999.0f;
; 136  : 
; 137  : 	float fX, fY;
; 138  : 	ProjectPosition(afSunPos[0], afSunPos[1], afSunPos[2], &fX, &fY);

  0001f	8b ce		 mov	 ecx, esi
  00021	f3 0f 7e 40 3c	 movq	 xmm0, QWORD PTR [eax+60]
  00026	8b 40 44	 mov	 eax, DWORD PTR [eax+68]
  00029	89 44 24 2c	 mov	 DWORD PTR _v3Target$[esp+56], eax
  0002d	8b 45 08	 mov	 eax, DWORD PTR _c_rv3LightDirection$[ebp]
  00030	66 0f d6 44 24
	24		 movq	 QWORD PTR _v3Target$[esp+48], xmm0
  00036	f3 0f 10 5c 24
	24		 movss	 xmm3, DWORD PTR _v3Target$[esp+48]
  0003c	f3 0f 10 54 24
	28		 movss	 xmm2, DWORD PTR _v3Target$[esp+52]
  00042	f3 0f 10 00	 movss	 xmm0, DWORD PTR [eax]
  00046	f3 0f 59 c1	 mulss	 xmm0, xmm1
  0004a	f3 0f 5c d8	 subss	 xmm3, xmm0
  0004e	f3 0f 10 40 04	 movss	 xmm0, DWORD PTR [eax+4]
  00053	f3 0f 59 c1	 mulss	 xmm0, xmm1
  00057	f3 0f 5c d0	 subss	 xmm2, xmm0
  0005b	f3 0f 11 5c 24
	0c		 movss	 DWORD PTR tv187[esp+48], xmm3
  00061	f3 0f 10 40 08	 movss	 xmm0, DWORD PTR [eax+8]
  00066	8d 44 24 14	 lea	 eax, DWORD PTR _fY$[esp+48]
  0006a	f3 0f 59 c1	 mulss	 xmm0, xmm1
  0006e	50		 push	 eax
  0006f	f3 0f 10 4c 24
	30		 movss	 xmm1, DWORD PTR _v3Target$[esp+60]
  00075	8d 44 24 1c	 lea	 eax, DWORD PTR _fX$[esp+52]
  00079	50		 push	 eax
  0007a	f3 0f 5c c8	 subss	 xmm1, xmm0
  0007e	f3 0f 11 54 24
	10		 movss	 DWORD PTR tv192[esp+56], xmm2
  00084	83 ec 0c	 sub	 esp, 12			; 0000000cH
  00087	f3 0f 11 4c 24
	08		 movss	 DWORD PTR [esp+8], xmm1
  0008d	f3 0f 11 54 24
	04		 movss	 DWORD PTR [esp+4], xmm2
  00093	f3 0f 11 4c 24
	24		 movss	 DWORD PTR tv190[esp+68], xmm1
  00099	f3 0f 11 1c 24	 movss	 DWORD PTR [esp], xmm3
  0009e	e8 00 00 00 00	 call	 ?ProjectPosition@CScreen@@QAEXMMMPAM0@Z ; CScreen::ProjectPosition

; 139  : 
; 140  : 	// set flare location
; 141  : 	SetFlareLocation(fX, fY);

  000a3	f3 0f 10 44 24
	14		 movss	 xmm0, DWORD PTR _fY$[esp+48]
  000a9	83 ec 10	 sub	 esp, 16			; 00000010H
  000ac	f3 0f 11 44 24
	2c		 movss	 DWORD PTR _fY$1$[esp+64], xmm0
  000b2	8b ce		 mov	 ecx, esi
  000b4	0f 5a c0	 cvtps2pd xmm0, xmm0
  000b7	f2 0f 11 44 24
	08		 movsd	 QWORD PTR [esp+8], xmm0
  000bd	f3 0f 10 44 24
	28		 movss	 xmm0, DWORD PTR _fX$[esp+64]
  000c3	f3 0f 11 44 24
	30		 movss	 DWORD PTR _fX$1$[esp+64], xmm0
  000c9	0f 5a c0	 cvtps2pd xmm0, xmm0
  000cc	f2 0f 11 04 24	 movsd	 QWORD PTR [esp], xmm0
  000d1	e8 00 00 00 00	 call	 ?SetFlareLocation@CLensFlare@@QAEXNN@Z ; CLensFlare::SetFlareLocation

; 142  : 
; 143  : 	// determine visibility
; 144  : 	float fSunVectorMagnitude = sqrtf(afSunPos[0] * afSunPos[0] +

  000d6	f3 0f 10 4c 24
	08		 movss	 xmm1, DWORD PTR tv192[esp+48]
  000dc	f3 0f 10 44 24
	0c		 movss	 xmm0, DWORD PTR tv187[esp+48]
  000e2	f3 0f 59 c0	 mulss	 xmm0, xmm0
  000e6	f3 0f 59 c9	 mulss	 xmm1, xmm1
  000ea	f3 0f 58 c8	 addss	 xmm1, xmm0
  000ee	f3 0f 10 44 24
	10		 movss	 xmm0, DWORD PTR tv190[esp+48]
  000f4	f3 0f 59 c0	 mulss	 xmm0, xmm0
  000f8	f3 0f 58 c8	 addss	 xmm1, xmm0
; File C:\Program Files (x86)\Windows Kits\10\Include\10.0.19041.0\ucrt\corecrt_math.h

; 758  :             return (float)sqrt(_X);

  000fc	0f 5a c1	 cvtps2pd xmm0, xmm1
  000ff	0f 57 c9	 xorps	 xmm1, xmm1
  00102	66 0f 2e c8	 ucomisd xmm1, xmm0
  00106	77 06		 ja	 SHORT $LN11@Compute
  00108	f2 0f 51 c0	 sqrtsd	 xmm0, xmm0
  0010c	eb 05		 jmp	 SHORT $LN12@Compute
$LN11@Compute:
  0010e	e8 00 00 00 00	 call	 __libm_sse2_sqrt_precise
$LN12@Compute:
; File C:\Users\murat\Desktop\Siveps2-1-99-Project\source\client\Client\EterLib\LensFlare.cpp

; 148  : 	afSunVector[0] = -afSunPos[0] / fSunVectorMagnitude;

  00113	f3 0f 10 54 24
	0c		 movss	 xmm2, DWORD PTR tv187[esp+48]
; File C:\Program Files (x86)\Windows Kits\10\Include\10.0.19041.0\ucrt\corecrt_math.h

; 758  :             return (float)sqrt(_X);

  00119	0f 57 c9	 xorps	 xmm1, xmm1
; File C:\Users\murat\Desktop\Siveps2-1-99-Project\source\client\Client\EterLib\LensFlare.cpp

; 149  : 	afSunVector[1] = -afSunPos[1] / fSunVectorMagnitude;

  0011c	f3 0f 10 5c 24
	08		 movss	 xmm3, DWORD PTR tv192[esp+48]
; File C:\Program Files (x86)\Windows Kits\10\Include\10.0.19041.0\ucrt\corecrt_math.h

; 758  :             return (float)sqrt(_X);

  00122	f2 0f 5a c8	 cvtsd2ss xmm1, xmm0
; File C:\Users\murat\Desktop\Siveps2-1-99-Project\source\client\Client\EterLib\LensFlare.cpp

; 149  : 	afSunVector[1] = -afSunPos[1] / fSunVectorMagnitude;

  00126	f3 0f 10 05 00
	00 00 00	 movss	 xmm0, DWORD PTR __xmm@80000000800000008000000080000000
  0012e	0f 57 d0	 xorps	 xmm2, xmm0
  00131	0f 57 d8	 xorps	 xmm3, xmm0
  00134	f3 0f 5e d1	 divss	 xmm2, xmm1
  00138	f3 0f 5e d9	 divss	 xmm3, xmm1

; 151  : 
; 152  : 	float afCameraDirection[3];
; 153  : 	afCameraDirection[0] = ms_matView._13;
; 154  : 	afCameraDirection[1] = ms_matView._23;
; 155  : 	afCameraDirection[2] = ms_matView._33;
; 156  : 
; 157  : 
; 158  : 	float fDotProduct =

  0013c	f3 0f 59 15 08
	00 00 00	 mulss	 xmm2, DWORD PTR ?ms_matView@CGraphicBase@@1UD3DXMATRIX@@A+8
  00144	f3 0f 59 1d 18
	00 00 00	 mulss	 xmm3, DWORD PTR ?ms_matView@CGraphicBase@@1UD3DXMATRIX@@A+24
  0014c	f3 0f 58 da	 addss	 xmm3, xmm2
  00150	f3 0f 10 54 24
	10		 movss	 xmm2, DWORD PTR tv190[esp+48]
  00156	0f 57 d0	 xorps	 xmm2, xmm0
; File C:\Program Files (x86)\Windows Kits\10\Include\10.0.19041.0\ucrt\corecrt_math.h

; 622  :             return (float)acos(_X);

  00159	0f 57 c0	 xorps	 xmm0, xmm0
; File C:\Users\murat\Desktop\Siveps2-1-99-Project\source\client\Client\EterLib\LensFlare.cpp

; 150  : 	afSunVector[2] = -afSunPos[2] / fSunVectorMagnitude;

  0015c	f3 0f 5e d1	 divss	 xmm2, xmm1

; 151  : 
; 152  : 	float afCameraDirection[3];
; 153  : 	afCameraDirection[0] = ms_matView._13;
; 154  : 	afCameraDirection[1] = ms_matView._23;
; 155  : 	afCameraDirection[2] = ms_matView._33;
; 156  : 
; 157  : 
; 158  : 	float fDotProduct =

  00160	f3 0f 59 15 28
	00 00 00	 mulss	 xmm2, DWORD PTR ?ms_matView@CGraphicBase@@1UD3DXMATRIX@@A+40
  00168	f3 0f 58 da	 addss	 xmm3, xmm2
; File C:\Program Files (x86)\Windows Kits\10\Include\10.0.19041.0\ucrt\corecrt_math.h

; 622  :             return (float)acos(_X);

  0016c	f3 0f 5a c3	 cvtss2sd xmm0, xmm3
  00170	e8 00 00 00 00	 call	 __libm_sse2_acos_precise
  00175	0f 57 c9	 xorps	 xmm1, xmm1
  00178	f2 0f 5a c8	 cvtsd2ss xmm1, xmm0
; File C:\Users\murat\Desktop\Siveps2-1-99-Project\source\client\Client\EterLib\LensFlare.cpp

; 169  : 	fX /= ms_Viewport.Width;

  0017c	f3 0f 10 05 00
	00 00 00	 movss	 xmm0, DWORD PTR __real@3fc90fdb
  00184	0f 2f c1	 comiss	 xmm0, xmm1
  00187	0f 57 c0	 xorps	 xmm0, xmm0
  0018a	0f 97 c0	 seta	 al
  0018d	88 46 1c	 mov	 BYTE PTR [esi+28], al

; 170  : 	fY /= ms_Viewport.Height;

  00190	a1 0c 00 00 00	 mov	 eax, DWORD PTR ?ms_Viewport@CGraphicBase@@1U_D3DVIEWPORT8@@A+12
  00195	f3 0f 10 5c 24
	1c		 movss	 xmm3, DWORD PTR _fY$1$[esp+48]

; 171  : 
; 172  : 	float fDistance = sqrtf(((0.5f - fX) * (0.5f - fX)) + ((0.5f - fY) * (0.5f - fY)));

  0019b	f3 0f 10 15 00
	00 00 00	 movss	 xmm2, DWORD PTR __real@3f000000
  001a3	0f 28 ca	 movaps	 xmm1, xmm2
  001a6	f2 0f 2a c0	 cvtsi2sd xmm0, eax
  001aa	c1 e8 1f	 shr	 eax, 31			; 0000001fH
  001ad	f2 0f 58 04 c5
	00 00 00 00	 addsd	 xmm0, QWORD PTR __xmm@41f00000000000000000000000000000[eax*8]
  001b6	a1 08 00 00 00	 mov	 eax, DWORD PTR ?ms_Viewport@CGraphicBase@@1U_D3DVIEWPORT8@@A+8
  001bb	66 0f 5a c0	 cvtpd2ps xmm0, xmm0
  001bf	f3 0f 5e d8	 divss	 xmm3, xmm0
  001c3	0f 57 c0	 xorps	 xmm0, xmm0
  001c6	f2 0f 2a c0	 cvtsi2sd xmm0, eax
  001ca	c1 e8 1f	 shr	 eax, 31			; 0000001fH
  001cd	f3 0f 5c cb	 subss	 xmm1, xmm3
  001d1	f3 0f 10 5c 24
	20		 movss	 xmm3, DWORD PTR _fX$1$[esp+48]
  001d7	f2 0f 58 04 c5
	00 00 00 00	 addsd	 xmm0, QWORD PTR __xmm@41f00000000000000000000000000000[eax*8]
  001e0	f3 0f 59 c9	 mulss	 xmm1, xmm1
  001e4	66 0f 5a c0	 cvtpd2ps xmm0, xmm0
  001e8	f3 0f 5e d8	 divss	 xmm3, xmm0
  001ec	f3 0f 5c d3	 subss	 xmm2, xmm3
  001f0	f3 0f 59 d2	 mulss	 xmm2, xmm2
  001f4	f3 0f 58 d1	 addss	 xmm2, xmm1
  001f8	0f 57 c9	 xorps	 xmm1, xmm1
; File C:\Program Files (x86)\Windows Kits\10\Include\10.0.19041.0\ucrt\corecrt_math.h

; 758  :             return (float)sqrt(_X);

  001fb	0f 5a c2	 cvtps2pd xmm0, xmm2
  001fe	66 0f 2e c8	 ucomisd xmm1, xmm0
  00202	77 06		 ja	 SHORT $LN13@Compute
  00204	f2 0f 51 c0	 sqrtsd	 xmm0, xmm0
  00208	eb 05		 jmp	 SHORT $LN14@Compute
$LN13@Compute:
  0020a	e8 00 00 00 00	 call	 __libm_sse2_sqrt_precise
$LN14@Compute:
; File C:\Users\murat\Desktop\Siveps2-1-99-Project\source\client\Client\EterLib\LensFlare.cpp

; 174  : 	float fAfterBright = Interpolate(0.0f, 1.0f, 1.0f - (fDistance * c_fDistanceScale));

  0020f	f3 0f 10 0d 00
	00 00 00	 movss	 xmm1, DWORD PTR __real@3f800000
  00217	83 ec 0c	 sub	 esp, 12			; 0000000cH
; File C:\Program Files (x86)\Windows Kits\10\Include\10.0.19041.0\ucrt\corecrt_math.h

; 758  :             return (float)sqrt(_X);

  0021a	f2 0f 5a c0	 cvtsd2ss xmm0, xmm0
; File C:\Users\murat\Desktop\Siveps2-1-99-Project\source\client\Client\EterLib\LensFlare.cpp

; 174  : 	float fAfterBright = Interpolate(0.0f, 1.0f, 1.0f - (fDistance * c_fDistanceScale));

  0021e	8b ce		 mov	 ecx, esi
  00220	f3 0f 5c c8	 subss	 xmm1, xmm0
  00224	f3 0f 11 4c 24
	08		 movss	 DWORD PTR [esp+8], xmm1
  0022a	c7 44 24 04 00
	00 80 3f	 mov	 DWORD PTR [esp+4], 1065353216 ; 3f800000H
  00232	f3 0f 11 4c 24
	2c		 movss	 DWORD PTR __real@3f800000$1$[esp+60], xmm1
  00238	c7 04 24 00 00
	00 00		 mov	 DWORD PTR [esp], 0
  0023f	e8 00 00 00 00	 call	 ?Interpolate@CLensFlare@@IAEMMMM@Z ; CLensFlare::Interpolate
  00244	f3 0f 10 44 24
	20		 movss	 xmm0, DWORD PTR __real@3f800000$1$[esp+48]

; 175  : 
; 176  : 	SetBrightnesses(fBeforeBright, fAfterBright);

  0024a	83 ec 10	 sub	 esp, 16			; 00000010H
  0024d	8b ce		 mov	 ecx, esi
  0024f	d9 5c 24 0c	 fstp	 DWORD PTR [esp+12]
  00253	f3 0f 11 44 24
	08		 movss	 DWORD PTR [esp+8], xmm0
  00259	c7 44 24 04 66
	66 e6 3e	 mov	 DWORD PTR [esp+4], 1055286886 ; 3ee66666H
  00261	c7 04 24 00 00
	00 00		 mov	 DWORD PTR [esp], 0
  00268	e8 00 00 00 00	 call	 ?Interpolate@CLensFlare@@IAEMMMM@Z ; CLensFlare::Interpolate
  0026d	51		 push	 ecx
  0026e	8b ce		 mov	 ecx, esi
  00270	d9 1c 24	 fstp	 DWORD PTR [esp]
  00273	e8 00 00 00 00	 call	 ?SetBrightnesses@CLensFlare@@QAEXMM@Z ; CLensFlare::SetBrightnesses

; 177  : }

  00278	5e		 pop	 esi
  00279	8b e5		 mov	 esp, ebp
  0027b	5d		 pop	 ebp
  0027c	c2 04 00	 ret	 4
?Compute@CLensFlare@@QAEXABUD3DXVECTOR3@@@Z ENDP	; CLensFlare::Compute
_TEXT	ENDS
; Function compile flags: /Ogtp
; File C:\Users\murat\Desktop\Siveps2-1-99-Project\source\client\Client\EterLib\LensFlare.cpp
;	COMDAT ??1CLensFlare@@UAE@XZ
_TEXT	SEGMENT
??1CLensFlare@@UAE@XZ PROC				; CLensFlare::~CLensFlare, COMDAT
; _this$ = ecx

; 111  : {

  00000	56		 push	 esi
  00001	8b f1		 mov	 esi, ecx

; 112  :     delete[] m_pControlPixels;

  00003	ff 76 34	 push	 DWORD PTR [esi+52]
  00006	c7 06 00 00 00
	00		 mov	 DWORD PTR [esi], OFFSET ??_7CLensFlare@@6B@
  0000c	e8 00 00 00 00	 call	 ??_V@YAXPAX@Z		; operator delete[]

; 113  :     delete[] m_pTestPixels;

  00011	ff 76 38	 push	 DWORD PTR [esi+56]
  00014	e8 00 00 00 00	 call	 ??_V@YAXPAX@Z		; operator delete[]
  00019	83 c4 08	 add	 esp, 8

; 114  : }

  0001c	8d 4e 54	 lea	 ecx, DWORD PTR [esi+84]
  0001f	e8 00 00 00 00	 call	 ??1CGraphicImageInstance@@UAE@XZ ; CGraphicImageInstance::~CGraphicImageInstance
  00024	8d 4e 24	 lea	 ecx, DWORD PTR [esi+36]
  00027	e8 00 00 00 00	 call	 ??1CFlare@@UAE@XZ	; CFlare::~CFlare
  0002c	8b ce		 mov	 ecx, esi
  0002e	5e		 pop	 esi
  0002f	e9 00 00 00 00	 jmp	 ??1CScreen@@UAE@XZ	; CScreen::~CScreen
??1CLensFlare@@UAE@XZ ENDP				; CLensFlare::~CLensFlare
_TEXT	ENDS
; Function compile flags: /Ogtp
; File C:\Users\murat\Desktop\Siveps2-1-99-Project\source\client\Client\EterLib\LensFlare.cpp
;	COMDAT ??0CLensFlare@@QAE@XZ
_TEXT	SEGMENT
_this$ = -16						; size = 4
__$EHRec$ = -12						; size = 12
??0CLensFlare@@QAE@XZ PROC				; CLensFlare::CLensFlare, COMDAT
; _this$ = ecx

; 100  : {

  00000	55		 push	 ebp
  00001	8b ec		 mov	 ebp, esp
  00003	6a ff		 push	 -1
  00005	68 00 00 00 00	 push	 __ehhandler$??0CLensFlare@@QAE@XZ
  0000a	64 a1 00 00 00
	00		 mov	 eax, DWORD PTR fs:0
  00010	50		 push	 eax
  00011	51		 push	 ecx
  00012	56		 push	 esi
  00013	a1 00 00 00 00	 mov	 eax, DWORD PTR ___security_cookie
  00018	33 c5		 xor	 eax, ebp
  0001a	50		 push	 eax
  0001b	8d 45 f4	 lea	 eax, DWORD PTR __$EHRec$[ebp]
  0001e	64 a3 00 00 00
	00		 mov	 DWORD PTR fs:0, eax
  00024	8b f1		 mov	 esi, ecx
  00026	89 75 f0	 mov	 DWORD PTR _this$[ebp], esi
  00029	e8 00 00 00 00	 call	 ??0CScreen@@QAE@XZ	; CScreen::CScreen
  0002e	8d 4e 24	 lea	 ecx, DWORD PTR [esi+36]
  00031	c7 45 fc 00 00
	00 00		 mov	 DWORD PTR __$EHRec$[ebp+8], 0
  00038	c7 06 00 00 00
	00		 mov	 DWORD PTR [esi], OFFSET ??_7CLensFlare@@6B@
  0003e	c7 46 14 00 00
	00 00		 mov	 DWORD PTR [esi+20], 0
  00045	c7 46 18 00 00
	00 00		 mov	 DWORD PTR [esi+24], 0
  0004c	66 c7 46 1c 00
	01		 mov	 WORD PTR [esi+28], 256	; 00000100H
  00052	c6 46 1e 01	 mov	 BYTE PTR [esi+30], 1
  00056	c7 46 20 00 00
	00 00		 mov	 DWORD PTR [esi+32], 0
  0005d	e8 00 00 00 00	 call	 ??0CFlare@@QAE@XZ	; CFlare::CFlare
  00062	8d 4e 54	 lea	 ecx, DWORD PTR [esi+84]
  00065	c6 45 fc 01	 mov	 BYTE PTR __$EHRec$[ebp+8], 1
  00069	66 c7 46 3c 01
	01		 mov	 WORD PTR [esi+60], 257	; 00000101H
  0006f	c7 46 40 00 00
	80 3f		 mov	 DWORD PTR [esi+64], 1065353216 ; 3f800000H
  00076	e8 00 00 00 00	 call	 ??0CGraphicImageInstance@@QAE@XZ ; CGraphicImageInstance::CGraphicImageInstance

; 101  :     m_pControlPixels = new float[c_nDepthTestDimension * c_nDepthTestDimension];

  0007b	68 84 03 00 00	 push	 900			; 00000384H
  00080	c6 45 fc 02	 mov	 BYTE PTR __$EHRec$[ebp+8], 2
  00084	e8 00 00 00 00	 call	 ??_U@YAPAXI@Z		; operator new[]

; 102  :     m_pTestPixels = new float[c_nDepthTestDimension * c_nDepthTestDimension];

  00089	68 84 03 00 00	 push	 900			; 00000384H
  0008e	89 46 34	 mov	 DWORD PTR [esi+52], eax
  00091	e8 00 00 00 00	 call	 ??_U@YAPAXI@Z		; operator new[]
  00096	89 46 38	 mov	 DWORD PTR [esi+56], eax
  00099	83 c4 08	 add	 esp, 8

; 103  : 	m_afColor[0] = m_afColor[1] = m_afColor[2] = 1.0f;

  0009c	c7 46 4c 00 00
	80 3f		 mov	 DWORD PTR [esi+76], 1065353216 ; 3f800000H

; 104  : }

  000a3	8b c6		 mov	 eax, esi
  000a5	c7 46 48 00 00
	80 3f		 mov	 DWORD PTR [esi+72], 1065353216 ; 3f800000H
  000ac	c7 46 44 00 00
	80 3f		 mov	 DWORD PTR [esi+68], 1065353216 ; 3f800000H
  000b3	8b 4d f4	 mov	 ecx, DWORD PTR __$EHRec$[ebp]
  000b6	64 89 0d 00 00
	00 00		 mov	 DWORD PTR fs:0, ecx
  000bd	59		 pop	 ecx
  000be	5e		 pop	 esi
  000bf	8b e5		 mov	 esp, ebp
  000c1	5d		 pop	 ebp
  000c2	c3		 ret	 0
_TEXT	ENDS
;	COMDAT text$x
text$x	SEGMENT
__unwindfunclet$??0CLensFlare@@QAE@XZ$0:
  00000	8b 4d f0	 mov	 ecx, DWORD PTR _this$[ebp]
  00003	e9 00 00 00 00	 jmp	 ??1CScreen@@UAE@XZ	; CScreen::~CScreen
__unwindfunclet$??0CLensFlare@@QAE@XZ$1:
  00008	8b 4d f0	 mov	 ecx, DWORD PTR _this$[ebp]
  0000b	83 c1 24	 add	 ecx, 36			; 00000024H
  0000e	e9 00 00 00 00	 jmp	 ??1CFlare@@UAE@XZ	; CFlare::~CFlare
__unwindfunclet$??0CLensFlare@@QAE@XZ$2:
  00013	8b 4d f0	 mov	 ecx, DWORD PTR _this$[ebp]
  00016	83 c1 54	 add	 ecx, 84			; 00000054H
  00019	e9 00 00 00 00	 jmp	 ??1CGraphicImageInstance@@UAE@XZ ; CGraphicImageInstance::~CGraphicImageInstance
  0001e	cc		 int	 3
  0001f	cc		 int	 3
  00020	cc		 int	 3
  00021	cc		 int	 3
  00022	cc		 int	 3
__ehhandler$??0CLensFlare@@QAE@XZ:
  00023	90		 npad	 1
  00024	90		 npad	 1
  00025	8b 54 24 08	 mov	 edx, DWORD PTR [esp+8]
  00029	8d 42 0c	 lea	 eax, DWORD PTR [edx+12]
  0002c	8b 4a f4	 mov	 ecx, DWORD PTR [edx-12]
  0002f	33 c8		 xor	 ecx, eax
  00031	e8 00 00 00 00	 call	 @__security_check_cookie@4
  00036	b8 00 00 00 00	 mov	 eax, OFFSET __ehfuncinfo$??0CLensFlare@@QAE@XZ
  0003b	e9 00 00 00 00	 jmp	 ___CxxFrameHandler3
text$x	ENDS
??0CLensFlare@@QAE@XZ ENDP				; CLensFlare::CLensFlare
; Function compile flags: /Ogtp
;	COMDAT ??_GCFlare@@UAEPAXI@Z
_TEXT	SEGMENT
___flags$ = 8						; size = 4
??_GCFlare@@UAEPAXI@Z PROC				; CFlare::`scalar deleting destructor', COMDAT
; _this$ = ecx
  00000	55		 push	 ebp
  00001	8b ec		 mov	 ebp, esp
  00003	56		 push	 esi
  00004	8b f1		 mov	 esi, ecx
  00006	e8 00 00 00 00	 call	 ??1CFlare@@UAE@XZ	; CFlare::~CFlare
  0000b	f6 45 08 01	 test	 BYTE PTR ___flags$[ebp], 1
  0000f	74 0b		 je	 SHORT $LN4@scalar
  00011	6a 10		 push	 16			; 00000010H
  00013	56		 push	 esi
  00014	e8 00 00 00 00	 call	 ??3@YAXPAXI@Z		; operator delete
  00019	83 c4 08	 add	 esp, 8
$LN4@scalar:
  0001c	8b c6		 mov	 eax, esi
  0001e	5e		 pop	 esi
  0001f	5d		 pop	 ebp
  00020	c2 04 00	 ret	 4
??_GCFlare@@UAEPAXI@Z ENDP				; CFlare::`scalar deleting destructor'
_TEXT	ENDS
; Function compile flags: /Ogtp
; File C:\Program Files (x86)\Microsoft Visual Studio\2019\Professional\VC\Tools\MSVC\14.29.30133\include\vector
;	COMDAT ?_Xlength@?$vector@PAUSFlarePiece@CFlare@@V?$allocator@PAUSFlarePiece@CFlare@@@std@@@std@@CAXXZ
_TEXT	SEGMENT
?_Xlength@?$vector@PAUSFlarePiece@CFlare@@V?$allocator@PAUSFlarePiece@CFlare@@@std@@@std@@CAXXZ PROC ; std::vector<CFlare::SFlarePiece *,std::allocator<CFlare::SFlarePiece *> >::_Xlength, COMDAT

; 1774 :         _Xlength_error("vector too long");

  00000	68 00 00 00 00	 push	 OFFSET ??_C@_0BA@FOIKENOD@vector?5too?5long@
  00005	e8 00 00 00 00	 call	 ?_Xlength_error@std@@YAXPBD@Z ; std::_Xlength_error
$LN3@Xlength:
  0000a	cc		 int	 3
?_Xlength@?$vector@PAUSFlarePiece@CFlare@@V?$allocator@PAUSFlarePiece@CFlare@@@std@@@std@@CAXXZ ENDP ; std::vector<CFlare::SFlarePiece *,std::allocator<CFlare::SFlarePiece *> >::_Xlength
_TEXT	ENDS
; Function compile flags: /Ogtp
; File C:\Users\murat\Desktop\Siveps2-1-99-Project\source\client\Client\EterLib\LensFlare.cpp
; File C:\Program Files (x86)\Microsoft Visual Studio\2019\Professional\VC\Tools\MSVC\14.29.30133\include\vector
; File C:\Program Files (x86)\Microsoft Visual Studio\2019\Professional\VC\Tools\MSVC\14.29.30133\include\xmemory
; File C:\Program Files (x86)\Microsoft Visual Studio\2019\Professional\VC\Tools\MSVC\14.29.30133\include\vector
; File C:\Program Files (x86)\Microsoft Visual Studio\2019\Professional\VC\Tools\MSVC\14.29.30133\include\xmemory
; File C:\Program Files (x86)\Microsoft Visual Studio\2019\Professional\VC\Tools\MSVC\14.29.30133\include\vector
; File C:\Users\murat\Desktop\Siveps2-1-99-Project\source\client\Client\EterLib\LensFlare.cpp
; File C:\Program Files (x86)\Microsoft Visual Studio\2019\Professional\VC\Tools\MSVC\14.29.30133\include\xmemory
; File C:\Users\murat\Desktop\Siveps2-1-99-Project\source\client\Client\EterLib\LensFlare.cpp
;	COMDAT ??1CFlare@@UAE@XZ
_TEXT	SEGMENT
??1CFlare@@UAE@XZ PROC					; CFlare::~CFlare, COMDAT
; _this$ = ecx

; 502  : {

  00000	56		 push	 esi
  00001	8b f1		 mov	 esi, ecx
  00003	c7 06 00 00 00
	00		 mov	 DWORD PTR [esi], OFFSET ??_7CFlare@@6B@
; File C:\Program Files (x86)\Microsoft Visual Studio\2019\Professional\VC\Tools\MSVC\14.29.30133\include\vector

; 1763 :         if (_Myfirst) { // destroy and deallocate old array

  00009	8b 46 04	 mov	 eax, DWORD PTR [esi+4]
  0000c	85 c0		 test	 eax, eax
  0000e	74 41		 je	 SHORT $LN6@CFlare

; 1764 :             _Destroy(_Myfirst, _Mylast);
; 1765 :             _Getal().deallocate(_Myfirst, static_cast<size_type>(_Myend - _Myfirst));

  00010	8b 4e 0c	 mov	 ecx, DWORD PTR [esi+12]
  00013	2b c8		 sub	 ecx, eax
; File C:\Program Files (x86)\Microsoft Visual Studio\2019\Professional\VC\Tools\MSVC\14.29.30133\include\xmemory

; 835  :         _Deallocate<_New_alignof<_Ty>>(_Ptr, sizeof(_Ty) * _Count);

  00015	83 e1 fc	 and	 ecx, -4			; fffffffcH

; 260  :         if (_Bytes >= _Big_allocation_threshold) { // boost the alignment of big allocations to help autovectorization

  00018	81 f9 00 10 00
	00		 cmp	 ecx, 4096		; 00001000H
  0001e	72 12		 jb	 SHORT $LN22@CFlare

; 158  :     const uintptr_t _Ptr_container   = _Ptr_user[-1];

  00020	8b 50 fc	 mov	 edx, DWORD PTR [eax-4]
  00023	83 c1 23	 add	 ecx, 35			; 00000023H

; 159  : 
; 160  :     // If the following asserts, it likely means that we are performing
; 161  :     // an aligned delete on memory coming from an unaligned allocation.
; 162  :     _STL_ASSERT(_Ptr_user[-2] == _Big_allocation_sentinel, "invalid argument");
; 163  : 
; 164  :     // Extra paranoia on aligned allocation/deallocation; ensure _Ptr_container is
; 165  :     // in range [_Min_back_shift, _Non_user_size]
; 166  : #ifdef _DEBUG
; 167  :     constexpr uintptr_t _Min_back_shift = 2 * sizeof(void*);
; 168  : #else // ^^^ _DEBUG ^^^ // vvv !_DEBUG vvv
; 169  :     constexpr uintptr_t _Min_back_shift = sizeof(void*);
; 170  : #endif // _DEBUG
; 171  :     const uintptr_t _Back_shift = reinterpret_cast<uintptr_t>(_Ptr) - _Ptr_container;

  00026	2b c2		 sub	 eax, edx

; 172  :     _STL_VERIFY(_Back_shift >= _Min_back_shift && _Back_shift <= _Non_user_size, "invalid argument");

  00028	83 c0 fc	 add	 eax, -4			; fffffffcH
  0002b	83 f8 1f	 cmp	 eax, 31			; 0000001fH
  0002e	77 23		 ja	 SHORT $LN19@CFlare

; 173  :     _Ptr = reinterpret_cast<void*>(_Ptr_container);

  00030	8b c2		 mov	 eax, edx
$LN22@CFlare:

; 264  :         ::operator delete(_Ptr, _Bytes);

  00032	51		 push	 ecx
  00033	50		 push	 eax
  00034	e8 00 00 00 00	 call	 ??3@YAXPAXI@Z		; operator delete
; File C:\Program Files (x86)\Microsoft Visual Studio\2019\Professional\VC\Tools\MSVC\14.29.30133\include\vector

; 1767 :             _Myfirst = nullptr;

  00039	c7 46 04 00 00
	00 00		 mov	 DWORD PTR [esi+4], 0
; File C:\Program Files (x86)\Microsoft Visual Studio\2019\Professional\VC\Tools\MSVC\14.29.30133\include\xmemory

; 264  :         ::operator delete(_Ptr, _Bytes);

  00040	83 c4 08	 add	 esp, 8
; File C:\Program Files (x86)\Microsoft Visual Studio\2019\Professional\VC\Tools\MSVC\14.29.30133\include\vector

; 1768 :             _Mylast  = nullptr;

  00043	c7 46 08 00 00
	00 00		 mov	 DWORD PTR [esi+8], 0

; 1769 :             _Myend   = nullptr;

  0004a	c7 46 0c 00 00
	00 00		 mov	 DWORD PTR [esi+12], 0
$LN6@CFlare:
  00051	5e		 pop	 esi
; File C:\Users\murat\Desktop\Siveps2-1-99-Project\source\client\Client\EterLib\LensFlare.cpp

; 503  : }

  00052	c3		 ret	 0
$LN19@CFlare:
; File C:\Program Files (x86)\Microsoft Visual Studio\2019\Professional\VC\Tools\MSVC\14.29.30133\include\xmemory

; 172  :     _STL_VERIFY(_Back_shift >= _Min_back_shift && _Back_shift <= _Non_user_size, "invalid argument");

  00053	e8 00 00 00 00	 call	 __invalid_parameter_noinfo_noreturn
$LN28@CFlare:
  00058	cc		 int	 3
??1CFlare@@UAE@XZ ENDP					; CFlare::~CFlare
_TEXT	ENDS
; Function compile flags: /Ogtp
; File C:\Users\murat\Desktop\Siveps2-1-99-Project\source\client\Client\EterLib\LensFlare.cpp
; File C:\Program Files (x86)\Microsoft Visual Studio\2019\Professional\VC\Tools\MSVC\14.29.30133\include\vector
; File C:\Users\murat\Desktop\Siveps2-1-99-Project\source\client\Client\EterLib\LensFlare.cpp
;	COMDAT ??0CFlare@@QAE@XZ
_TEXT	SEGMENT
_this$ = -4						; size = 4
??0CFlare@@QAE@XZ PROC					; CFlare::CFlare, COMDAT
; _this$ = ecx

; 494  : {

  00000	55		 push	 ebp
  00001	8b ec		 mov	 ebp, esp
  00003	51		 push	 ecx
  00004	c7 01 00 00 00
	00		 mov	 DWORD PTR [ecx], OFFSET ??_7CFlare@@6B@

; 495  : }

  0000a	8b c1		 mov	 eax, ecx
  0000c	89 4d fc	 mov	 DWORD PTR _this$[ebp], ecx
; File C:\Program Files (x86)\Microsoft Visual Studio\2019\Professional\VC\Tools\MSVC\14.29.30133\include\vector

; 401  :     _CONSTEXPR20_CONTAINER _Vector_val() noexcept : _Myfirst(), _Mylast(), _Myend() {}

  0000f	c7 41 04 00 00
	00 00		 mov	 DWORD PTR [ecx+4], 0
  00016	c7 41 08 00 00
	00 00		 mov	 DWORD PTR [ecx+8], 0
  0001d	c7 41 0c 00 00
	00 00		 mov	 DWORD PTR [ecx+12], 0
; File C:\Users\murat\Desktop\Siveps2-1-99-Project\source\client\Client\EterLib\LensFlare.cpp

; 495  : }

  00024	8b e5		 mov	 esp, ebp
  00026	5d		 pop	 ebp
  00027	c3		 ret	 0
??0CFlare@@QAE@XZ ENDP					; CFlare::CFlare
_TEXT	ENDS
; Function compile flags: /Ogtp
; File C:\Users\murat\Desktop\Siveps2-1-99-Project\source\client\Client\EterLib\LensFlare.cpp
; File C:\Program Files (x86)\Microsoft Visual Studio\2019\Professional\VC\Tools\MSVC\14.29.30133\include\xstring
; File C:\Program Files (x86)\Microsoft Visual Studio\2019\Professional\VC\Tools\MSVC\14.29.30133\include\xmemory
; File C:\Program Files (x86)\Microsoft Visual Studio\2019\Professional\VC\Tools\MSVC\14.29.30133\include\xstring
; File C:\Users\murat\Desktop\Siveps2-1-99-Project\source\client\Client\EterLib\LensFlare.cpp
; File C:\Program Files (x86)\Microsoft Visual Studio\2019\Professional\VC\Tools\MSVC\14.29.30133\include\xstring
; File C:\Program Files (x86)\Microsoft Visual Studio\2019\Professional\VC\Tools\MSVC\14.29.30133\include\xmemory
; File C:\Program Files (x86)\Microsoft Visual Studio\2019\Professional\VC\Tools\MSVC\14.29.30133\include\xstring
; File C:\Users\murat\Desktop\Siveps2-1-99-Project\source\client\Client\EterLib\LensFlare.cpp
; File C:\Program Files (x86)\Microsoft Visual Studio\2019\Professional\VC\Tools\MSVC\14.29.30133\include\xstring
; File C:\Users\murat\Desktop\Siveps2-1-99-Project\source\client\Client\EterLib\LensFlare.cpp
; File C:\Program Files (x86)\Microsoft Visual Studio\2019\Professional\VC\Tools\MSVC\14.29.30133\include\xstring
; File C:\Users\murat\Desktop\Siveps2-1-99-Project\source\client\Client\EterLib\LensFlare.cpp
; File C:\Program Files (x86)\Microsoft Visual Studio\2019\Professional\VC\Tools\MSVC\14.29.30133\include\xstring
; File C:\Users\murat\Desktop\Siveps2-1-99-Project\source\client\Client\EterLib\LensFlare.cpp
; File C:\Program Files (x86)\Microsoft Visual Studio\2019\Professional\VC\Tools\MSVC\14.29.30133\include\xstring
; File C:\Program Files (x86)\Microsoft Visual Studio\2019\Professional\VC\Tools\MSVC\14.29.30133\include\xmemory
; File C:\Program Files (x86)\Microsoft Visual Studio\2019\Professional\VC\Tools\MSVC\14.29.30133\include\xstring
; File C:\Program Files (x86)\Microsoft Visual Studio\2019\Professional\VC\Tools\MSVC\14.29.30133\include\xmemory
; File C:\Program Files (x86)\Microsoft Visual Studio\2019\Professional\VC\Tools\MSVC\14.29.30133\include\xstring
; File C:\Users\murat\Desktop\Siveps2-1-99-Project\source\client\Client\EterLib\LensFlare.cpp
; File C:\Program Files (x86)\Microsoft Visual Studio\2019\Professional\VC\Tools\MSVC\14.29.30133\include\xstring
; File C:\Program Files (x86)\Microsoft Visual Studio\2019\Professional\VC\Tools\MSVC\14.29.30133\include\xmemory
; File C:\Program Files (x86)\Microsoft Visual Studio\2019\Professional\VC\Tools\MSVC\14.29.30133\include\xstring
; File C:\Program Files (x86)\Microsoft Visual Studio\2019\Professional\VC\Tools\MSVC\14.29.30133\include\xmemory
; File C:\Program Files (x86)\Microsoft Visual Studio\2019\Professional\VC\Tools\MSVC\14.29.30133\include\xstring
; File C:\Users\murat\Desktop\Siveps2-1-99-Project\source\client\Client\EterLib\LensFlare.cpp
; File C:\Program Files (x86)\Microsoft Visual Studio\2019\Professional\VC\Tools\MSVC\14.29.30133\include\xstring
; File C:\Program Files (x86)\Microsoft Visual Studio\2019\Professional\VC\Tools\MSVC\14.29.30133\include\xmemory
; File C:\Program Files (x86)\Microsoft Visual Studio\2019\Professional\VC\Tools\MSVC\14.29.30133\include\xstring
; File C:\Program Files (x86)\Microsoft Visual Studio\2019\Professional\VC\Tools\MSVC\14.29.30133\include\xmemory
; File C:\Users\murat\Desktop\Siveps2-1-99-Project\source\client\Client\EterLib\LensFlare.cpp
; File C:\Users\murat\Desktop\Siveps2-1-99-Project\source\client\Client\EterLib\LensFlare.h
; File C:\Users\murat\Desktop\Siveps2-1-99-Project\source\client\Client\EterLib\LensFlare.cpp
; File C:\Program Files (x86)\Microsoft Visual Studio\2019\Professional\VC\Tools\MSVC\14.29.30133\include\vector
; File C:\Users\murat\Desktop\Siveps2-1-99-Project\source\client\Client\EterLib\LensFlare.cpp
; File C:\Program Files (x86)\Microsoft Visual Studio\2019\Professional\VC\Tools\MSVC\14.29.30133\include\xstring
; File C:\Program Files (x86)\Microsoft Visual Studio\2019\Professional\VC\Tools\MSVC\14.29.30133\include\xmemory
; File C:\Program Files (x86)\Microsoft Visual Studio\2019\Professional\VC\Tools\MSVC\14.29.30133\include\xstring
; File C:\Program Files (x86)\Microsoft Visual Studio\2019\Professional\VC\Tools\MSVC\14.29.30133\include\xmemory
; File C:\Users\murat\Desktop\Siveps2-1-99-Project\source\client\Client\EterLib\LensFlare.cpp
; File C:\Program Files (x86)\Microsoft Visual Studio\2019\Professional\VC\Tools\MSVC\14.29.30133\include\xstring
; File C:\Users\murat\Desktop\Siveps2-1-99-Project\source\client\Client\EterLib\LensFlare.cpp
;	COMDAT ?Init@CFlare@@QAEXV?$basic_string@DU?$char_traits@D@std@@V?$allocator@D@2@@std@@@Z
_TEXT	SEGMENT
$T2 = -116						; size = 4
_this$GSCopy$1$ = -112					; size = 4
$T3 = -112						; size = 1
_i$1$ = -108						; size = 4
__New_size$1$ = -104					; size = 4
__Result$2$ = -100					; size = 4
_pPiece$4 = -100					; size = 4
tv1311 = -96						; size = 4
__Right_size$1$ = -92					; size = 4
__Left_size$1$ = -92					; size = 4
$T5 = -88						; size = 24
$T6 = -64						; size = 24
$T7 = -40						; size = 24
__$ArrayPad$ = -16					; size = 4
__$EHRec$ = -12						; size = 12
_strPath$ = 8						; size = 24
?Init@CFlare@@QAEXV?$basic_string@DU?$char_traits@D@std@@V?$allocator@D@2@@std@@@Z PROC ; CFlare::Init, COMDAT
; _this$ = ecx

; 510  : {

  00000	55		 push	 ebp
  00001	8b ec		 mov	 ebp, esp
  00003	6a ff		 push	 -1
  00005	68 00 00 00 00	 push	 __ehhandler$?Init@CFlare@@QAEXV?$basic_string@DU?$char_traits@D@std@@V?$allocator@D@2@@std@@@Z
  0000a	64 a1 00 00 00
	00		 mov	 eax, DWORD PTR fs:0
  00010	50		 push	 eax
  00011	83 ec 68	 sub	 esp, 104		; 00000068H
  00014	a1 00 00 00 00	 mov	 eax, DWORD PTR ___security_cookie
  00019	33 c5		 xor	 eax, ebp
  0001b	89 45 f0	 mov	 DWORD PTR __$ArrayPad$[ebp], eax
  0001e	56		 push	 esi
  0001f	57		 push	 edi
  00020	50		 push	 eax
  00021	8d 45 f4	 lea	 eax, DWORD PTR __$EHRec$[ebp]
  00024	64 a3 00 00 00
	00		 mov	 DWORD PTR fs:0, eax
  0002a	89 4d 90	 mov	 DWORD PTR _this$GSCopy$1$[ebp], ecx

; 511  : 	int i = 0;
; 512  : 
; 513  : 	while (g_strFiles[i] != "")

  0002d	68 00 00 00 00	 push	 OFFSET ??_C@_00CNPNBAHC@@
  00032	68 00 00 00 00	 push	 OFFSET ?g_strFiles@@3PAV?$basic_string@DU?$char_traits@D@std@@V?$allocator@D@2@@std@@A
  00037	c7 45 fc 00 00
	00 00		 mov	 DWORD PTR __$EHRec$[ebp+8], 0
  0003e	c7 45 94 00 00
	00 00		 mov	 DWORD PTR _i$1$[ebp], 0
  00045	e8 00 00 00 00	 call	 ??$?9DU?$char_traits@D@std@@V?$allocator@D@1@@std@@YA_NABV?$basic_string@DU?$char_traits@D@std@@V?$allocator@D@2@@0@QBD@Z ; std::operator!=<char,std::char_traits<char>,std::allocator<char> >
  0004a	83 c4 08	 add	 esp, 8
  0004d	84 c0		 test	 al, al
  0004f	0f 84 e7 02 00
	00		 je	 $LN3@Init

; 510  : {

  00055	be 00 00 00 00	 mov	 esi, OFFSET ?g_strFiles@@3PAV?$basic_string@DU?$char_traits@D@std@@V?$allocator@D@2@@std@@A
  0005a	c7 45 a0 00 00
	00 00		 mov	 DWORD PTR tv1311[ebp], OFFSET ?g_afColors@@3PAY03MA
$LN229@Init:
; File C:\Program Files (x86)\Microsoft Visual Studio\2019\Professional\VC\Tools\MSVC\14.29.30133\include\xstring

; 2306 :         if (_Large_string_engaged()) {

  00061	83 7e 14 10	 cmp	 DWORD PTR [esi+20], 16	; 00000010H

; 2921 :         const size_type _Right_size   = _Right_data._Mysize;

  00065	b9 ff ff ff 7f	 mov	 ecx, 2147483647		; 7fffffffH
  0006a	8b 7e 10	 mov	 edi, DWORD PTR [esi+16]
  0006d	89 7d a4	 mov	 DWORD PTR __Right_size$1$[ebp], edi

; 2306 :         if (_Large_string_engaged()) {

  00070	72 02		 jb	 SHORT $LN27@Init

; 2307 :             _Result = _Unfancy(_Bx._Ptr);

  00072	8b 36		 mov	 esi, DWORD PTR [esi]
$LN27@Init:

; 2933 :         if (_Stay_small) { // stay small, don't allocate

  00074	83 ff 10	 cmp	 edi, 16			; 00000010H
  00077	73 13		 jae	 SHORT $LN24@Init

; 65   :         _CSTD memcpy(_First1, _First2, _Count * sizeof(_Elem));

  00079	0f 10 06	 movups	 xmm0, XMMWORD PTR [esi]

; 2935 :             _My_data._Mysize = _Right_size;

  0007c	89 7d d0	 mov	 DWORD PTR $T6[ebp+16], edi

; 2936 :             _My_data._Myres  = _BUF_SIZE - 1;

  0007f	c7 45 d4 0f 00
	00 00		 mov	 DWORD PTR $T6[ebp+20], 15 ; 0000000fH

; 65   :         _CSTD memcpy(_First1, _First2, _Count * sizeof(_Elem));

  00086	0f 11 45 c0	 movups	 XMMWORD PTR $T6[ebp], xmm0

; 2937 :             return;

  0008a	eb 51		 jmp	 SHORT $LN23@Init
$LN24@Init:

; 2938 :         }
; 2939 : 
; 2940 :         auto& _Al                     = _Getal();
; 2941 :         const size_type _New_capacity = (_STD min)(_Right_size | _ALLOC_MASK, max_size());

  0008c	83 cf 0f	 or	 edi, 15			; 0000000fH
  0008f	81 ff ff ff ff
	7f		 cmp	 edi, 2147483647		; 7fffffffH
  00095	0f 47 f9	 cmova	 edi, ecx

; 2942 :         const pointer _New_array      = _Al.allocate(_New_capacity + 1); // throws

  00098	8d 47 01	 lea	 eax, DWORD PTR [edi+1]
; File C:\Program Files (x86)\Microsoft Visual Studio\2019\Professional\VC\Tools\MSVC\14.29.30133\include\xmemory

; 237  :         if (_Bytes >= _Big_allocation_threshold) { // boost the alignment of big allocations to help autovectorization

  0009b	3d 00 10 00 00	 cmp	 eax, 4096		; 00001000H
  000a0	72 0d		 jb	 SHORT $LN38@Init

; 238  :             return _Allocate_manually_vector_aligned<_Traits>(_Bytes);

  000a2	50		 push	 eax
  000a3	e8 00 00 00 00	 call	 ??$_Allocate_manually_vector_aligned@U_Default_allocate_traits@std@@@std@@YAPAXI@Z ; std::_Allocate_manually_vector_aligned<std::_Default_allocate_traits>
  000a8	83 c4 04	 add	 esp, 4
  000ab	8b c8		 mov	 ecx, eax
  000ad	eb 13		 jmp	 SHORT $LN37@Init
$LN38@Init:

; 239  :         }
; 240  :     }
; 241  : #endif // defined(_M_IX86) || defined(_M_X64)
; 242  : 
; 243  :     if (_Bytes != 0) {

  000af	85 c0		 test	 eax, eax
  000b1	74 0d		 je	 SHORT $LN39@Init

; 85   :         return ::operator new(_Bytes);

  000b3	50		 push	 eax
  000b4	e8 00 00 00 00	 call	 ??2@YAPAXI@Z		; operator new
  000b9	83 c4 04	 add	 esp, 4

; 244  :         return _Traits::_Allocate(_Bytes);

  000bc	8b c8		 mov	 ecx, eax
  000be	eb 02		 jmp	 SHORT $LN37@Init
$LN39@Init:

; 245  :     }
; 246  : 
; 247  :     return nullptr;

  000c0	33 c9		 xor	 ecx, ecx
$LN37@Init:
; File C:\Program Files (x86)\Microsoft Visual Studio\2019\Professional\VC\Tools\MSVC\14.29.30133\include\xstring

; 2950 :         _Traits::copy(_Unfancy(_New_array), _Right_ptr, _Right_size + 1);

  000c2	8b 45 a4	 mov	 eax, DWORD PTR __Right_size$1$[ebp]
  000c5	40		 inc	 eax
  000c6	89 4d c0	 mov	 DWORD PTR $T6[ebp], ecx

; 65   :         _CSTD memcpy(_First1, _First2, _Count * sizeof(_Elem));

  000c9	50		 push	 eax
  000ca	56		 push	 esi
  000cb	51		 push	 ecx
  000cc	e8 00 00 00 00	 call	 _memcpy

; 2951 :         _My_data._Mysize = _Right_size;

  000d1	8b 45 a4	 mov	 eax, DWORD PTR __Right_size$1$[ebp]

; 65   :         _CSTD memcpy(_First1, _First2, _Count * sizeof(_Elem));

  000d4	83 c4 0c	 add	 esp, 12			; 0000000cH

; 2951 :         _My_data._Mysize = _Right_size;

  000d7	89 45 d0	 mov	 DWORD PTR $T6[ebp+16], eax

; 2952 :         _My_data._Myres  = _New_capacity;

  000da	89 7d d4	 mov	 DWORD PTR $T6[ebp+20], edi
$LN23@Init:

; 4724 :     const auto _Left_size  = _Left.size();

  000dd	8b 4d 18	 mov	 ecx, DWORD PTR _strPath$[ebp+16]
  000e0	b8 ff ff ff 7f	 mov	 eax, 2147483647		; 7fffffffH
  000e5	2b c1		 sub	 eax, ecx
; File C:\Users\murat\Desktop\Siveps2-1-99-Project\source\client\Client\EterLib\LensFlare.cpp

; 515  : 		CResource * pResource = CResourceManager::Instance().GetResourcePointer((strPath + "/" + string(g_strFiles[i])).c_str());

  000e7	c6 45 fc 01	 mov	 BYTE PTR __$EHRec$[ebp+8], 1
; File C:\Program Files (x86)\Microsoft Visual Studio\2019\Professional\VC\Tools\MSVC\14.29.30133\include\xstring

; 4724 :     const auto _Left_size  = _Left.size();

  000eb	89 4d a4	 mov	 DWORD PTR __Left_size$1$[ebp], ecx

; 4725 :     const auto _Right_size = _Convert_size<_Size_type>(_Traits::length(_Right));
; 4726 :     if (_Left.max_size() - _Left_size < _Right_size) {

  000ee	83 f8 01	 cmp	 eax, 1
  000f1	0f 82 97 02 00
	00		 jb	 $LN221@Init

; 2306 :         if (_Large_string_engaged()) {

  000f7	83 7d 1c 10	 cmp	 DWORD PTR _strPath$[ebp+20], 16 ; 00000010H
  000fb	8d 45 08	 lea	 eax, DWORD PTR _strPath$[ebp]

; 2635 :         const auto _New_size    = static_cast<size_type>(_Left_size + _Right_size);

  000fe	8d 51 01	 lea	 edx, DWORD PTR [ecx+1]

; 2346 :         _CONSTEXPR20_CONTAINER _Bxty() noexcept : _Ptr() {} // user-provided, for fancy pointers

  00101	c7 45 a8 00 00
	00 00		 mov	 DWORD PTR $T5[ebp], 0

; 2306 :         if (_Large_string_engaged()) {

  00108	0f 43 45 08	 cmovae	 eax, DWORD PTR _strPath$[ebp]

; 2638 :         _Elem* _Ptr             = _My_data._Bx._Buf;

  0010c	8d 7d a8	 lea	 edi, DWORD PTR $T5[ebp]
  0010f	be 0f 00 00 00	 mov	 esi, 15			; 0000000fH

; 2306 :         if (_Large_string_engaged()) {

  00114	89 45 9c	 mov	 DWORD PTR __Result$2$[ebp], eax

; 2635 :         const auto _New_size    = static_cast<size_type>(_Left_size + _Right_size);

  00117	89 55 98	 mov	 DWORD PTR __New_size$1$[ebp], edx

; 2639 :         auto&& _Alproxy         = _GET_PROXY_ALLOCATOR(_Alty, _Getal());
; 2640 :         _Container_proxy_ptr<_Alty> _Proxy(_Alproxy, _My_data); // throws
; 2641 : 
; 2642 : #ifdef __cpp_lib_constexpr_string
; 2643 :         const bool _Activate_large_mode = _New_capacity < _New_size || _STD is_constant_evaluated();
; 2644 : #else // ^^^ __cpp_lib_constexpr_string / !__cpp_lib_constexpr_string vvv
; 2645 :         const bool _Activate_large_mode = _New_capacity < _New_size;
; 2646 : #endif // __cpp_lib_constexpr_string
; 2647 : 
; 2648 :         if (_Activate_large_mode) {

  0011a	3b d6		 cmp	 edx, esi
  0011c	76 5e		 jbe	 SHORT $LN60@Init

; 2649 :             // we should never allocate less than _BUF_SIZE space (_New_size could be small if constant evaluated)
; 2650 :             const size_type _Requested_size = (_STD max)(_New_size, _BUF_SIZE);

  0011e	8b f2		 mov	 esi, edx

; 4488 :         const size_type _Masked = _Requested | _ALLOC_MASK;

  00120	83 ce 0f	 or	 esi, 15			; 0000000fH
  00123	81 fe ff ff ff
	7f		 cmp	 esi, 2147483647		; 7fffffffH

; 4489 :         if (_Masked > _Max) { // the mask overflows, settle for max_size()

  00129	76 0a		 jbe	 SHORT $LN73@Init

; 4490 :             return _Max;

  0012b	be ff ff ff 7f	 mov	 esi, 2147483647		; 7fffffffH
  00130	8d 46 01	 lea	 eax, DWORD PTR [esi+1]
  00133	eb 15		 jmp	 SHORT $LN225@Init
$LN73@Init:

; 4491 :         }
; 4492 : 
; 4493 :         if (_Old > _Max - _Old / 2) { // similarly, geometric overflows
; 4494 :             return _Max;
; 4495 :         }
; 4496 : 
; 4497 :         return (_STD max)(_Masked, _Old + _Old / 2);

  00135	83 fe 16	 cmp	 esi, 22			; 00000016H
  00138	b8 16 00 00 00	 mov	 eax, 22			; 00000016H
  0013d	0f 42 f0	 cmovb	 esi, eax

; 2652 :             const pointer _Fancyptr         = _Getal().allocate(_New_capacity + 1); // throws

  00140	8d 46 01	 lea	 eax, DWORD PTR [esi+1]
; File C:\Program Files (x86)\Microsoft Visual Studio\2019\Professional\VC\Tools\MSVC\14.29.30133\include\xmemory

; 237  :         if (_Bytes >= _Big_allocation_threshold) { // boost the alignment of big allocations to help autovectorization

  00143	3d 00 10 00 00	 cmp	 eax, 4096		; 00001000H
  00148	72 13		 jb	 SHORT $LN81@Init
$LN225@Init:

; 238  :             return _Allocate_manually_vector_aligned<_Traits>(_Bytes);

  0014a	50		 push	 eax
  0014b	e8 00 00 00 00	 call	 ??$_Allocate_manually_vector_aligned@U_Default_allocate_traits@std@@@std@@YAPAXI@Z ; std::_Allocate_manually_vector_aligned<std::_Default_allocate_traits>
  00150	8b 4d a4	 mov	 ecx, DWORD PTR __Left_size$1$[ebp]
  00153	83 c4 04	 add	 esp, 4
  00156	8b 55 98	 mov	 edx, DWORD PTR __New_size$1$[ebp]
  00159	8b f8		 mov	 edi, eax
  0015b	eb 19		 jmp	 SHORT $LN80@Init
$LN81@Init:

; 239  :         }
; 240  :     }
; 241  : #endif // defined(_M_IX86) || defined(_M_X64)
; 242  : 
; 243  :     if (_Bytes != 0) {

  0015d	85 c0		 test	 eax, eax
  0015f	74 13		 je	 SHORT $LN82@Init

; 85   :         return ::operator new(_Bytes);

  00161	50		 push	 eax
  00162	e8 00 00 00 00	 call	 ??2@YAPAXI@Z		; operator new

; 244  :         return _Traits::_Allocate(_Bytes);

  00167	8b 4d a4	 mov	 ecx, DWORD PTR __Left_size$1$[ebp]

; 85   :         return ::operator new(_Bytes);

  0016a	83 c4 04	 add	 esp, 4

; 244  :         return _Traits::_Allocate(_Bytes);

  0016d	8b 55 98	 mov	 edx, DWORD PTR __New_size$1$[ebp]
  00170	8b f8		 mov	 edi, eax
  00172	eb 02		 jmp	 SHORT $LN80@Init
$LN82@Init:

; 245  :     }
; 246  : 
; 247  :     return nullptr;

  00174	33 ff		 xor	 edi, edi
$LN80@Init:
  00176	8b 45 9c	 mov	 eax, DWORD PTR __Result$2$[ebp]
; File C:\Program Files (x86)\Microsoft Visual Studio\2019\Professional\VC\Tools\MSVC\14.29.30133\include\xstring

; 2654 :             _Construct_in_place(_My_data._Bx._Ptr, _Fancyptr);

  00179	89 7d a8	 mov	 DWORD PTR $T5[ebp], edi
$LN60@Init:

; 65   :         _CSTD memcpy(_First1, _First2, _Count * sizeof(_Elem));

  0017c	51		 push	 ecx
  0017d	50		 push	 eax
  0017e	57		 push	 edi

; 2663 :         _My_data._Mysize = _New_size;

  0017f	89 55 b8	 mov	 DWORD PTR $T5[ebp+16], edx

; 2664 :         _My_data._Myres  = _New_capacity;

  00182	89 75 bc	 mov	 DWORD PTR $T5[ebp+20], esi

; 65   :         _CSTD memcpy(_First1, _First2, _Count * sizeof(_Elem));

  00185	e8 00 00 00 00	 call	 _memcpy
  0018a	8b 45 a4	 mov	 eax, DWORD PTR __Left_size$1$[ebp]
  0018d	83 c4 0c	 add	 esp, 12			; 0000000cH
  00190	66 c7 04 07 2f
	00		 mov	 WORD PTR [edi+eax], 47	; 0000002fH

; 4766 :     return {_String_constructor_concat_tag{}, _Left, _Right};

  00196	8d 45 c0	 lea	 eax, DWORD PTR $T6[ebp]
; File C:\Users\murat\Desktop\Siveps2-1-99-Project\source\client\Client\EterLib\LensFlare.cpp

; 515  : 		CResource * pResource = CResourceManager::Instance().GetResourcePointer((strPath + "/" + string(g_strFiles[i])).c_str());

  00199	c6 45 fc 02	 mov	 BYTE PTR __$EHRec$[ebp+8], 2
; File C:\Program Files (x86)\Microsoft Visual Studio\2019\Professional\VC\Tools\MSVC\14.29.30133\include\xstring

; 4766 :     return {_String_constructor_concat_tag{}, _Left, _Right};

  0019d	50		 push	 eax
  0019e	8d 45 a8	 lea	 eax, DWORD PTR $T5[ebp]
  001a1	50		 push	 eax
  001a2	ff 75 90	 push	 DWORD PTR $T3[ebp]
  001a5	8d 4d d8	 lea	 ecx, DWORD PTR $T7[ebp]
  001a8	e8 00 00 00 00	 call	 ??0?$basic_string@DU?$char_traits@D@std@@V?$allocator@D@2@@std@@QAE@U_String_constructor_concat_tag@1@AAV01@1@Z ; std::basic_string<char,std::char_traits<char>,std::allocator<char> >::basic_string<char,std::char_traits<char>,std::allocator<char> >

; 2306 :         if (_Large_string_engaged()) {

  001ad	83 7d ec 10	 cmp	 DWORD PTR $T7[ebp+20], 16 ; 00000010H
  001b1	8d 45 d8	 lea	 eax, DWORD PTR $T7[ebp]
; File C:\Users\murat\Desktop\Siveps2-1-99-Project\source\client\Client\EterLib\LensFlare.cpp

; 515  : 		CResource * pResource = CResourceManager::Instance().GetResourcePointer((strPath + "/" + string(g_strFiles[i])).c_str());

  001b4	8b 0d 00 00 00
	00		 mov	 ecx, DWORD PTR ?ms_singleton@?$CSingleton@VCResourceManager@@@@0PAVCResourceManager@@A ; CSingleton<CResourceManager>::ms_singleton
; File C:\Program Files (x86)\Microsoft Visual Studio\2019\Professional\VC\Tools\MSVC\14.29.30133\include\xstring

; 2306 :         if (_Large_string_engaged()) {

  001ba	0f 43 45 d8	 cmovae	 eax, DWORD PTR $T7[ebp]
; File C:\Users\murat\Desktop\Siveps2-1-99-Project\source\client\Client\EterLib\LensFlare.cpp

; 515  : 		CResource * pResource = CResourceManager::Instance().GetResourcePointer((strPath + "/" + string(g_strFiles[i])).c_str());

  001be	50		 push	 eax
  001bf	c6 45 fc 03	 mov	 BYTE PTR __$EHRec$[ebp+8], 3
  001c3	e8 00 00 00 00	 call	 ?GetResourcePointer@CResourceManager@@QAEPAVCResource@@PBD@Z ; CResourceManager::GetResourcePointer
; File C:\Program Files (x86)\Microsoft Visual Studio\2019\Professional\VC\Tools\MSVC\14.29.30133\include\xstring

; 4618 :         if (_Mypair._Myval2._Large_string_engaged()) {

  001c8	8b 55 ec	 mov	 edx, DWORD PTR $T7[ebp+20]
; File C:\Users\murat\Desktop\Siveps2-1-99-Project\source\client\Client\EterLib\LensFlare.cpp

; 515  : 		CResource * pResource = CResourceManager::Instance().GetResourcePointer((strPath + "/" + string(g_strFiles[i])).c_str());

  001cb	8b f8		 mov	 edi, eax
  001cd	c6 45 fc 02	 mov	 BYTE PTR __$EHRec$[ebp+8], 2
; File C:\Program Files (x86)\Microsoft Visual Studio\2019\Professional\VC\Tools\MSVC\14.29.30133\include\xstring

; 4618 :         if (_Mypair._Myval2._Large_string_engaged()) {

  001d1	83 fa 10	 cmp	 edx, 16			; 00000010H
  001d4	72 2c		 jb	 SHORT $LN114@Init
; File C:\Program Files (x86)\Microsoft Visual Studio\2019\Professional\VC\Tools\MSVC\14.29.30133\include\xmemory

; 835  :         _Deallocate<_New_alignof<_Ty>>(_Ptr, sizeof(_Ty) * _Count);

  001d6	8b 4d d8	 mov	 ecx, DWORD PTR $T7[ebp]
; File C:\Program Files (x86)\Microsoft Visual Studio\2019\Professional\VC\Tools\MSVC\14.29.30133\include\xstring

; 4622 :             _Al.deallocate(_Ptr, _Mypair._Myval2._Myres + 1);

  001d9	42		 inc	 edx
; File C:\Program Files (x86)\Microsoft Visual Studio\2019\Professional\VC\Tools\MSVC\14.29.30133\include\xmemory

; 835  :         _Deallocate<_New_alignof<_Ty>>(_Ptr, sizeof(_Ty) * _Count);

  001da	8b c1		 mov	 eax, ecx

; 260  :         if (_Bytes >= _Big_allocation_threshold) { // boost the alignment of big allocations to help autovectorization

  001dc	81 fa 00 10 00
	00		 cmp	 edx, 4096		; 00001000H
  001e2	72 14		 jb	 SHORT $LN124@Init

; 158  :     const uintptr_t _Ptr_container   = _Ptr_user[-1];

  001e4	8b 49 fc	 mov	 ecx, DWORD PTR [ecx-4]
  001e7	83 c2 23	 add	 edx, 35			; 00000023H
  001ea	2b c1		 sub	 eax, ecx

; 159  : 
; 160  :     // If the following asserts, it likely means that we are performing
; 161  :     // an aligned delete on memory coming from an unaligned allocation.
; 162  :     _STL_ASSERT(_Ptr_user[-2] == _Big_allocation_sentinel, "invalid argument");
; 163  : 
; 164  :     // Extra paranoia on aligned allocation/deallocation; ensure _Ptr_container is
; 165  :     // in range [_Min_back_shift, _Non_user_size]
; 166  : #ifdef _DEBUG
; 167  :     constexpr uintptr_t _Min_back_shift = 2 * sizeof(void*);
; 168  : #else // ^^^ _DEBUG ^^^ // vvv !_DEBUG vvv
; 169  :     constexpr uintptr_t _Min_back_shift = sizeof(void*);
; 170  : #endif // _DEBUG
; 171  :     const uintptr_t _Back_shift = reinterpret_cast<uintptr_t>(_Ptr) - _Ptr_container;
; 172  :     _STL_VERIFY(_Back_shift >= _Min_back_shift && _Back_shift <= _Non_user_size, "invalid argument");

  001ec	83 c0 fc	 add	 eax, -4			; fffffffcH
  001ef	83 f8 1f	 cmp	 eax, 31			; 0000001fH
  001f2	0f 87 91 01 00
	00		 ja	 $LN175@Init
$LN124@Init:

; 264  :         ::operator delete(_Ptr, _Bytes);

  001f8	52		 push	 edx
  001f9	51		 push	 ecx
  001fa	e8 00 00 00 00	 call	 ??3@YAXPAXI@Z		; operator delete
  001ff	83 c4 08	 add	 esp, 8
$LN114@Init:
; File C:\Program Files (x86)\Microsoft Visual Studio\2019\Professional\VC\Tools\MSVC\14.29.30133\include\xstring

; 4618 :         if (_Mypair._Myval2._Large_string_engaged()) {

  00202	8b 55 bc	 mov	 edx, DWORD PTR $T5[ebp+20]

; 4633 :             _Mypair._Myval2._Mysize = 0;

  00205	c7 45 e8 00 00
	00 00		 mov	 DWORD PTR $T7[ebp+16], 0

; 4634 :             _Mypair._Myval2._Myres  = _BUF_SIZE - 1;

  0020c	c7 45 ec 0f 00
	00 00		 mov	 DWORD PTR $T7[ebp+20], 15 ; 0000000fH

; 4635 :             // the _Traits::assign is last so the codegen doesn't think the char write can alias this
; 4636 :             _Traits::assign(_Mypair._Myval2._Bx._Buf[0], _Elem());

  00213	c6 45 d8 00	 mov	 BYTE PTR $T7[ebp], 0
; File C:\Users\murat\Desktop\Siveps2-1-99-Project\source\client\Client\EterLib\LensFlare.cpp

; 515  : 		CResource * pResource = CResourceManager::Instance().GetResourcePointer((strPath + "/" + string(g_strFiles[i])).c_str());

  00217	c6 45 fc 01	 mov	 BYTE PTR __$EHRec$[ebp+8], 1
; File C:\Program Files (x86)\Microsoft Visual Studio\2019\Professional\VC\Tools\MSVC\14.29.30133\include\xstring

; 4618 :         if (_Mypair._Myval2._Large_string_engaged()) {

  0021b	83 fa 10	 cmp	 edx, 16			; 00000010H
  0021e	72 2c		 jb	 SHORT $LN141@Init
; File C:\Program Files (x86)\Microsoft Visual Studio\2019\Professional\VC\Tools\MSVC\14.29.30133\include\xmemory

; 835  :         _Deallocate<_New_alignof<_Ty>>(_Ptr, sizeof(_Ty) * _Count);

  00220	8b 4d a8	 mov	 ecx, DWORD PTR $T5[ebp]
; File C:\Program Files (x86)\Microsoft Visual Studio\2019\Professional\VC\Tools\MSVC\14.29.30133\include\xstring

; 4622 :             _Al.deallocate(_Ptr, _Mypair._Myval2._Myres + 1);

  00223	42		 inc	 edx
; File C:\Program Files (x86)\Microsoft Visual Studio\2019\Professional\VC\Tools\MSVC\14.29.30133\include\xmemory

; 835  :         _Deallocate<_New_alignof<_Ty>>(_Ptr, sizeof(_Ty) * _Count);

  00224	8b c1		 mov	 eax, ecx

; 260  :         if (_Bytes >= _Big_allocation_threshold) { // boost the alignment of big allocations to help autovectorization

  00226	81 fa 00 10 00
	00		 cmp	 edx, 4096		; 00001000H
  0022c	72 14		 jb	 SHORT $LN151@Init

; 158  :     const uintptr_t _Ptr_container   = _Ptr_user[-1];

  0022e	8b 49 fc	 mov	 ecx, DWORD PTR [ecx-4]
  00231	83 c2 23	 add	 edx, 35			; 00000023H
  00234	2b c1		 sub	 eax, ecx

; 159  : 
; 160  :     // If the following asserts, it likely means that we are performing
; 161  :     // an aligned delete on memory coming from an unaligned allocation.
; 162  :     _STL_ASSERT(_Ptr_user[-2] == _Big_allocation_sentinel, "invalid argument");
; 163  : 
; 164  :     // Extra paranoia on aligned allocation/deallocation; ensure _Ptr_container is
; 165  :     // in range [_Min_back_shift, _Non_user_size]
; 166  : #ifdef _DEBUG
; 167  :     constexpr uintptr_t _Min_back_shift = 2 * sizeof(void*);
; 168  : #else // ^^^ _DEBUG ^^^ // vvv !_DEBUG vvv
; 169  :     constexpr uintptr_t _Min_back_shift = sizeof(void*);
; 170  : #endif // _DEBUG
; 171  :     const uintptr_t _Back_shift = reinterpret_cast<uintptr_t>(_Ptr) - _Ptr_container;
; 172  :     _STL_VERIFY(_Back_shift >= _Min_back_shift && _Back_shift <= _Non_user_size, "invalid argument");

  00236	83 c0 fc	 add	 eax, -4			; fffffffcH
  00239	83 f8 1f	 cmp	 eax, 31			; 0000001fH
  0023c	0f 87 47 01 00
	00		 ja	 $LN175@Init
$LN151@Init:

; 264  :         ::operator delete(_Ptr, _Bytes);

  00242	52		 push	 edx
  00243	51		 push	 ecx
  00244	e8 00 00 00 00	 call	 ??3@YAXPAXI@Z		; operator delete
  00249	83 c4 08	 add	 esp, 8
$LN141@Init:
; File C:\Program Files (x86)\Microsoft Visual Studio\2019\Professional\VC\Tools\MSVC\14.29.30133\include\xstring

; 4618 :         if (_Mypair._Myval2._Large_string_engaged()) {

  0024c	8b 55 d4	 mov	 edx, DWORD PTR $T6[ebp+20]
; File C:\Users\murat\Desktop\Siveps2-1-99-Project\source\client\Client\EterLib\LensFlare.cpp

; 515  : 		CResource * pResource = CResourceManager::Instance().GetResourcePointer((strPath + "/" + string(g_strFiles[i])).c_str());

  0024f	c6 45 fc 00	 mov	 BYTE PTR __$EHRec$[ebp+8], 0
; File C:\Program Files (x86)\Microsoft Visual Studio\2019\Professional\VC\Tools\MSVC\14.29.30133\include\xstring

; 4618 :         if (_Mypair._Myval2._Large_string_engaged()) {

  00253	83 fa 10	 cmp	 edx, 16			; 00000010H
  00256	72 2c		 jb	 SHORT $LN168@Init
; File C:\Program Files (x86)\Microsoft Visual Studio\2019\Professional\VC\Tools\MSVC\14.29.30133\include\xmemory

; 835  :         _Deallocate<_New_alignof<_Ty>>(_Ptr, sizeof(_Ty) * _Count);

  00258	8b 4d c0	 mov	 ecx, DWORD PTR $T6[ebp]
; File C:\Program Files (x86)\Microsoft Visual Studio\2019\Professional\VC\Tools\MSVC\14.29.30133\include\xstring

; 4622 :             _Al.deallocate(_Ptr, _Mypair._Myval2._Myres + 1);

  0025b	42		 inc	 edx
; File C:\Program Files (x86)\Microsoft Visual Studio\2019\Professional\VC\Tools\MSVC\14.29.30133\include\xmemory

; 835  :         _Deallocate<_New_alignof<_Ty>>(_Ptr, sizeof(_Ty) * _Count);

  0025c	8b c1		 mov	 eax, ecx

; 260  :         if (_Bytes >= _Big_allocation_threshold) { // boost the alignment of big allocations to help autovectorization

  0025e	81 fa 00 10 00
	00		 cmp	 edx, 4096		; 00001000H
  00264	72 14		 jb	 SHORT $LN178@Init

; 158  :     const uintptr_t _Ptr_container   = _Ptr_user[-1];

  00266	8b 49 fc	 mov	 ecx, DWORD PTR [ecx-4]
  00269	83 c2 23	 add	 edx, 35			; 00000023H
  0026c	2b c1		 sub	 eax, ecx

; 159  : 
; 160  :     // If the following asserts, it likely means that we are performing
; 161  :     // an aligned delete on memory coming from an unaligned allocation.
; 162  :     _STL_ASSERT(_Ptr_user[-2] == _Big_allocation_sentinel, "invalid argument");
; 163  : 
; 164  :     // Extra paranoia on aligned allocation/deallocation; ensure _Ptr_container is
; 165  :     // in range [_Min_back_shift, _Non_user_size]
; 166  : #ifdef _DEBUG
; 167  :     constexpr uintptr_t _Min_back_shift = 2 * sizeof(void*);
; 168  : #else // ^^^ _DEBUG ^^^ // vvv !_DEBUG vvv
; 169  :     constexpr uintptr_t _Min_back_shift = sizeof(void*);
; 170  : #endif // _DEBUG
; 171  :     const uintptr_t _Back_shift = reinterpret_cast<uintptr_t>(_Ptr) - _Ptr_container;
; 172  :     _STL_VERIFY(_Back_shift >= _Min_back_shift && _Back_shift <= _Non_user_size, "invalid argument");

  0026e	83 c0 fc	 add	 eax, -4			; fffffffcH
  00271	83 f8 1f	 cmp	 eax, 31			; 0000001fH
  00274	0f 87 0f 01 00
	00		 ja	 $LN175@Init
$LN178@Init:

; 264  :         ::operator delete(_Ptr, _Bytes);

  0027a	52		 push	 edx
  0027b	51		 push	 ecx
  0027c	e8 00 00 00 00	 call	 ??3@YAXPAXI@Z		; operator delete
  00281	83 c4 08	 add	 esp, 8
$LN168@Init:
; File C:\Users\murat\Desktop\Siveps2-1-99-Project\source\client\Client\EterLib\LensFlare.cpp

; 517  : 		if (!pResource->IsType(CGraphicImage::Type()))

  00284	e8 00 00 00 00	 call	 ?Type@CGraphicImage@@SAKXZ ; CGraphicImage::Type
  00289	50		 push	 eax
  0028a	8b cf		 mov	 ecx, edi
  0028c	e8 00 00 00 00	 call	 ?IsType@CResource@@QAE_NK@Z ; CResource::IsType

; 520  : 		SFlarePiece * pPiece = new SFlarePiece;

  00291	6a 2c		 push	 44			; 0000002cH
  00293	e8 00 00 00 00	 call	 ??2@YAPAXI@Z		; operator new
  00298	8b f0		 mov	 esi, eax
  0029a	83 c4 04	 add	 esp, 4
  0029d	89 75 8c	 mov	 DWORD PTR $T2[ebp], esi
  002a0	c6 45 fc 04	 mov	 BYTE PTR __$EHRec$[ebp+8], 4
  002a4	85 f6		 test	 esi, esi
  002a6	74 1e		 je	 SHORT $LN6@Init
; File C:\Users\murat\Desktop\Siveps2-1-99-Project\source\client\Client\EterLib\LensFlare.h

; 65   : 	{

  002a8	8b ce		 mov	 ecx, esi
  002aa	e8 00 00 00 00	 call	 ??0CGraphicImageInstance@@QAE@XZ ; CGraphicImageInstance::CGraphicImageInstance
  002af	c7 46 20 00 00
	00 00		 mov	 DWORD PTR [esi+32], 0
  002b6	c7 46 24 00 00
	00 00		 mov	 DWORD PTR [esi+36], 0
  002bd	c7 46 28 00 00
	00 00		 mov	 DWORD PTR [esi+40], 0
; File C:\Users\murat\Desktop\Siveps2-1-99-Project\source\client\Client\EterLib\LensFlare.cpp

; 520  : 		SFlarePiece * pPiece = new SFlarePiece;

  002c4	eb 02		 jmp	 SHORT $LN7@Init
$LN6@Init:
  002c6	33 f6		 xor	 esi, esi
$LN7@Init:

; 521  : 
; 522  : 		pPiece->m_imageInstance.SetImagePointer(static_cast<CGraphicImage *> (pResource));

  002c8	57		 push	 edi
  002c9	8b ce		 mov	 ecx, esi
  002cb	c6 45 fc 00	 mov	 BYTE PTR __$EHRec$[ebp+8], 0
  002cf	89 75 9c	 mov	 DWORD PTR _pPiece$4[ebp], esi
  002d2	e8 00 00 00 00	 call	 ?SetImagePointer@CGraphicImageInstance@@QAEXPAVCGraphicImage@@@Z ; CGraphicImageInstance::SetImagePointer

; 523  : 		pPiece->m_fPosition = g_fPosition[i];

  002d7	8b 7d 94	 mov	 edi, DWORD PTR _i$1$[ebp]

; 524  : 		pPiece->m_fWidth = g_fWidth[i];
; 525  : 		pPiece->m_pColor = g_afColors[i];
; 526  : 
; 527  : 		m_vFlares.push_back(pPiece);

  002da	8b 4d 90	 mov	 ecx, DWORD PTR _this$GSCopy$1$[ebp]
  002dd	83 c1 04	 add	 ecx, 4
  002e0	8b 04 bd 00 00
	00 00		 mov	 eax, DWORD PTR ?g_fPosition@@3PAMA[edi*4]
  002e7	89 46 20	 mov	 DWORD PTR [esi+32], eax
  002ea	8b 04 bd 00 00
	00 00		 mov	 eax, DWORD PTR ?g_fWidth@@3PAMA[edi*4]
  002f1	89 46 24	 mov	 DWORD PTR [esi+36], eax
  002f4	8b 45 a0	 mov	 eax, DWORD PTR tv1311[ebp]
  002f7	89 46 28	 mov	 DWORD PTR [esi+40], eax
; File C:\Program Files (x86)\Microsoft Visual Studio\2019\Professional\VC\Tools\MSVC\14.29.30133\include\vector

; 743  :         if (_Mylast != _My_data._Myend) {

  002fa	8b 41 04	 mov	 eax, DWORD PTR [ecx+4]
  002fd	3b 41 08	 cmp	 eax, DWORD PTR [ecx+8]
  00300	74 08		 je	 SHORT $LN189@Init

; 726  :         _Alty_traits::construct(_Getal(), _Unfancy(_Mylast), _STD forward<_Valty>(_Val)...);

  00302	89 30		 mov	 DWORD PTR [eax], esi

; 727  :         _Orphan_range(_Mylast, _Mylast);
; 728  :         _Ty& _Result = *_Mylast;
; 729  :         ++_Mylast;

  00304	83 41 04 04	 add	 DWORD PTR [ecx+4], 4

; 744  :             return _Emplace_back_with_unused_capacity(_STD forward<_Valty>(_Val)...);

  00308	eb 0a		 jmp	 SHORT $LN188@Init
$LN189@Init:

; 745  :         }
; 746  : 
; 747  :         _Ty& _Result = *_Emplace_reallocate(_Mylast, _STD forward<_Valty>(_Val)...);

  0030a	8d 55 9c	 lea	 edx, DWORD PTR _pPiece$4[ebp]
  0030d	52		 push	 edx
  0030e	50		 push	 eax
  0030f	e8 00 00 00 00	 call	 ??$_Emplace_reallocate@ABQAUSFlarePiece@CFlare@@@?$vector@PAUSFlarePiece@CFlare@@V?$allocator@PAUSFlarePiece@CFlare@@@std@@@std@@QAEPAPAUSFlarePiece@CFlare@@QAPAU23@ABQAU23@@Z ; std::vector<CFlare::SFlarePiece *,std::allocator<CFlare::SFlarePiece *> >::_Emplace_reallocate<CFlare::SFlarePiece * const &>
$LN188@Init:
; File C:\Users\murat\Desktop\Siveps2-1-99-Project\source\client\Client\EterLib\LensFlare.cpp

; 528  : 		i++;

  00314	83 45 a0 10	 add	 DWORD PTR tv1311[ebp], 16 ; 00000010H
  00318	47		 inc	 edi
  00319	68 00 00 00 00	 push	 OFFSET ??_C@_00CNPNBAHC@@
  0031e	89 7d 94	 mov	 DWORD PTR _i$1$[ebp], edi
  00321	8d 04 7f	 lea	 eax, DWORD PTR [edi+edi*2]
  00324	8d 34 c5 00 00
	00 00		 lea	 esi, DWORD PTR ?g_strFiles@@3PAV?$basic_string@DU?$char_traits@D@std@@V?$allocator@D@2@@std@@A[eax*8]
  0032b	56		 push	 esi
  0032c	e8 00 00 00 00	 call	 ??$?9DU?$char_traits@D@std@@V?$allocator@D@1@@std@@YA_NABV?$basic_string@DU?$char_traits@D@std@@V?$allocator@D@2@@0@QBD@Z ; std::operator!=<char,std::char_traits<char>,std::allocator<char> >
  00331	83 c4 08	 add	 esp, 8
  00334	84 c0		 test	 al, al
  00336	0f 85 25 fd ff
	ff		 jne	 $LN229@Init
$LN3@Init:
; File C:\Program Files (x86)\Microsoft Visual Studio\2019\Professional\VC\Tools\MSVC\14.29.30133\include\xstring

; 2319 :         return _BUF_SIZE <= _Myres;

  0033c	8b 55 1c	 mov	 edx, DWORD PTR _strPath$[ebp+20]
  0033f	83 fa 10	 cmp	 edx, 16			; 00000010H

; 4618 :         if (_Mypair._Myval2._Large_string_engaged()) {

  00342	72 28		 jb	 SHORT $LN205@Init
; File C:\Program Files (x86)\Microsoft Visual Studio\2019\Professional\VC\Tools\MSVC\14.29.30133\include\xmemory

; 835  :         _Deallocate<_New_alignof<_Ty>>(_Ptr, sizeof(_Ty) * _Count);

  00344	8b 4d 08	 mov	 ecx, DWORD PTR _strPath$[ebp]
; File C:\Program Files (x86)\Microsoft Visual Studio\2019\Professional\VC\Tools\MSVC\14.29.30133\include\xstring

; 4622 :             _Al.deallocate(_Ptr, _Mypair._Myval2._Myres + 1);

  00347	42		 inc	 edx
; File C:\Program Files (x86)\Microsoft Visual Studio\2019\Professional\VC\Tools\MSVC\14.29.30133\include\xmemory

; 835  :         _Deallocate<_New_alignof<_Ty>>(_Ptr, sizeof(_Ty) * _Count);

  00348	8b c1		 mov	 eax, ecx

; 260  :         if (_Bytes >= _Big_allocation_threshold) { // boost the alignment of big allocations to help autovectorization

  0034a	81 fa 00 10 00
	00		 cmp	 edx, 4096		; 00001000H
  00350	72 10		 jb	 SHORT $LN215@Init

; 158  :     const uintptr_t _Ptr_container   = _Ptr_user[-1];

  00352	8b 49 fc	 mov	 ecx, DWORD PTR [ecx-4]
  00355	83 c2 23	 add	 edx, 35			; 00000023H
  00358	2b c1		 sub	 eax, ecx

; 159  : 
; 160  :     // If the following asserts, it likely means that we are performing
; 161  :     // an aligned delete on memory coming from an unaligned allocation.
; 162  :     _STL_ASSERT(_Ptr_user[-2] == _Big_allocation_sentinel, "invalid argument");
; 163  : 
; 164  :     // Extra paranoia on aligned allocation/deallocation; ensure _Ptr_container is
; 165  :     // in range [_Min_back_shift, _Non_user_size]
; 166  : #ifdef _DEBUG
; 167  :     constexpr uintptr_t _Min_back_shift = 2 * sizeof(void*);
; 168  : #else // ^^^ _DEBUG ^^^ // vvv !_DEBUG vvv
; 169  :     constexpr uintptr_t _Min_back_shift = sizeof(void*);
; 170  : #endif // _DEBUG
; 171  :     const uintptr_t _Back_shift = reinterpret_cast<uintptr_t>(_Ptr) - _Ptr_container;
; 172  :     _STL_VERIFY(_Back_shift >= _Min_back_shift && _Back_shift <= _Non_user_size, "invalid argument");

  0035a	83 c0 fc	 add	 eax, -4			; fffffffcH
  0035d	83 f8 1f	 cmp	 eax, 31			; 0000001fH
  00360	77 27		 ja	 SHORT $LN175@Init
$LN215@Init:

; 264  :         ::operator delete(_Ptr, _Bytes);

  00362	52		 push	 edx
  00363	51		 push	 ecx
  00364	e8 00 00 00 00	 call	 ??3@YAXPAXI@Z		; operator delete
  00369	83 c4 08	 add	 esp, 8
$LN205@Init:
; File C:\Users\murat\Desktop\Siveps2-1-99-Project\source\client\Client\EterLib\LensFlare.cpp

; 530  : }

  0036c	8b 4d f4	 mov	 ecx, DWORD PTR __$EHRec$[ebp]
  0036f	64 89 0d 00 00
	00 00		 mov	 DWORD PTR fs:0, ecx
  00376	59		 pop	 ecx
  00377	5f		 pop	 edi
  00378	5e		 pop	 esi
  00379	8b 4d f0	 mov	 ecx, DWORD PTR __$ArrayPad$[ebp]
  0037c	33 cd		 xor	 ecx, ebp
  0037e	e8 00 00 00 00	 call	 @__security_check_cookie@4
  00383	8b e5		 mov	 esp, ebp
  00385	5d		 pop	 ebp
  00386	c2 18 00	 ret	 24			; 00000018H
$LN175@Init:
  00389	e8 00 00 00 00	 call	 __invalid_parameter_noinfo_noreturn
$LN221@Init:
; File C:\Program Files (x86)\Microsoft Visual Studio\2019\Professional\VC\Tools\MSVC\14.29.30133\include\xstring

; 4727 :         _Xlen_string();

  0038e	e8 00 00 00 00	 call	 ?_Xlen_string@std@@YAXXZ ; std::_Xlen_string
$LN228@Init:
  00393	cc		 int	 3
_TEXT	ENDS
;	COMDAT text$x
text$x	SEGMENT
__unwindfunclet$?Init@CFlare@@QAEXV?$basic_string@DU?$char_traits@D@std@@V?$allocator@D@2@@std@@@Z$0:
  00000	8d 4d 08	 lea	 ecx, DWORD PTR _strPath$[ebp]
  00003	e9 00 00 00 00	 jmp	 ??1?$basic_string@DU?$char_traits@D@std@@V?$allocator@D@2@@std@@QAE@XZ ; std::basic_string<char,std::char_traits<char>,std::allocator<char> >::~basic_string<char,std::char_traits<char>,std::allocator<char> >
__unwindfunclet$?Init@CFlare@@QAEXV?$basic_string@DU?$char_traits@D@std@@V?$allocator@D@2@@std@@@Z$1:
  00008	8d 4d c0	 lea	 ecx, DWORD PTR $T6[ebp]
  0000b	e9 00 00 00 00	 jmp	 ??1?$basic_string@DU?$char_traits@D@std@@V?$allocator@D@2@@std@@QAE@XZ ; std::basic_string<char,std::char_traits<char>,std::allocator<char> >::~basic_string<char,std::char_traits<char>,std::allocator<char> >
__unwindfunclet$?Init@CFlare@@QAEXV?$basic_string@DU?$char_traits@D@std@@V?$allocator@D@2@@std@@@Z$2:
  00010	8d 4d a8	 lea	 ecx, DWORD PTR $T5[ebp]
  00013	e9 00 00 00 00	 jmp	 ??1?$basic_string@DU?$char_traits@D@std@@V?$allocator@D@2@@std@@QAE@XZ ; std::basic_string<char,std::char_traits<char>,std::allocator<char> >::~basic_string<char,std::char_traits<char>,std::allocator<char> >
__unwindfunclet$?Init@CFlare@@QAEXV?$basic_string@DU?$char_traits@D@std@@V?$allocator@D@2@@std@@@Z$3:
  00018	8d 4d d8	 lea	 ecx, DWORD PTR $T7[ebp]
  0001b	e9 00 00 00 00	 jmp	 ??1?$basic_string@DU?$char_traits@D@std@@V?$allocator@D@2@@std@@QAE@XZ ; std::basic_string<char,std::char_traits<char>,std::allocator<char> >::~basic_string<char,std::char_traits<char>,std::allocator<char> >
__unwindfunclet$?Init@CFlare@@QAEXV?$basic_string@DU?$char_traits@D@std@@V?$allocator@D@2@@std@@@Z$4:
  00020	6a 2c		 push	 44			; 0000002cH
  00022	8b 45 8c	 mov	 eax, DWORD PTR $T2[ebp]
  00025	50		 push	 eax
  00026	e8 00 00 00 00	 call	 ??3@YAXPAXI@Z		; operator delete
  0002b	83 c4 08	 add	 esp, 8
  0002e	c3		 ret	 0
  0002f	cc		 int	 3
  00030	cc		 int	 3
  00031	cc		 int	 3
  00032	cc		 int	 3
  00033	cc		 int	 3
__ehhandler$?Init@CFlare@@QAEXV?$basic_string@DU?$char_traits@D@std@@V?$allocator@D@2@@std@@@Z:
  00034	90		 npad	 1
  00035	90		 npad	 1
  00036	8b 54 24 08	 mov	 edx, DWORD PTR [esp+8]
  0003a	8d 42 0c	 lea	 eax, DWORD PTR [edx+12]
  0003d	8b 4a 8c	 mov	 ecx, DWORD PTR [edx-116]
  00040	33 c8		 xor	 ecx, eax
  00042	e8 00 00 00 00	 call	 @__security_check_cookie@4
  00047	8b 4a fc	 mov	 ecx, DWORD PTR [edx-4]
  0004a	33 c8		 xor	 ecx, eax
  0004c	e8 00 00 00 00	 call	 @__security_check_cookie@4
  00051	b8 00 00 00 00	 mov	 eax, OFFSET __ehfuncinfo$?Init@CFlare@@QAEXV?$basic_string@DU?$char_traits@D@std@@V?$allocator@D@2@@std@@@Z
  00056	e9 00 00 00 00	 jmp	 ___CxxFrameHandler3
text$x	ENDS
?Init@CFlare@@QAEXV?$basic_string@DU?$char_traits@D@std@@V?$allocator@D@2@@std@@@Z ENDP ; CFlare::Init
; Function compile flags: /Ogtp
; File C:\Users\murat\Desktop\Siveps2-1-99-Project\source\client\Client\EterLib\LensFlare.cpp
; File C:\Program Files (x86)\Microsoft Visual Studio\2019\Professional\VC\Tools\MSVC\14.29.30133\include\vector
; File C:\Users\murat\Desktop\Siveps2-1-99-Project\source\client\Client\EterLib\LensFlare.cpp
; File C:\Program Files (x86)\Microsoft Visual Studio\2019\Professional\VC\Tools\MSVC\14.29.30133\include\vector
; File C:\Users\murat\Desktop\Siveps2-1-99-Project\source\client\Client\EterLib\LensFlare.cpp
; File C:\Program Files (x86)\Microsoft Visual Studio\2019\Professional\VC\Tools\MSVC\14.29.30133\include\vector
; File C:\Users\murat\Desktop\Siveps2-1-99-Project\source\client\Client\EterLib\LensFlare.cpp
; File C:\Users\murat\Desktop\Siveps2-1-99-Project\source\client\extern\include\d3dx8math.inl
; File C:\Users\murat\Desktop\Siveps2-1-99-Project\source\client\Client\EterLib\LensFlare.cpp
; File C:\Users\murat\Desktop\Siveps2-1-99-Project\source\client\extern\include\d3dx8math.inl
; File C:\Users\murat\Desktop\Siveps2-1-99-Project\source\client\Client\EterLib\LensFlare.cpp
; File C:\Users\murat\Desktop\Siveps2-1-99-Project\source\client\extern\include\d3dx8math.inl
; File C:\Users\murat\Desktop\Siveps2-1-99-Project\source\client\Client\EterLib\LensFlare.cpp
; File C:\Users\murat\Desktop\Siveps2-1-99-Project\source\client\extern\include\d3dx8math.inl
; File C:\Users\murat\Desktop\Siveps2-1-99-Project\source\client\Client\EterLib\LensFlare.cpp
; File C:\Users\murat\Desktop\Siveps2-1-99-Project\source\client\extern\include\d3dx8math.inl
; File C:\Users\murat\Desktop\Siveps2-1-99-Project\source\client\Client\EterLib\LensFlare.cpp
; File C:\Users\murat\Desktop\Siveps2-1-99-Project\source\client\extern\include\d3dx8math.inl
; File C:\Users\murat\Desktop\Siveps2-1-99-Project\source\client\Client\EterLib\LensFlare.cpp
; File C:\Users\murat\Desktop\Siveps2-1-99-Project\source\client\extern\include\d3dx8math.inl
; File C:\Users\murat\Desktop\Siveps2-1-99-Project\source\client\Client\EterLib\LensFlare.cpp
; File C:\Users\murat\Desktop\Siveps2-1-99-Project\source\client\extern\include\d3dx8math.inl
; File C:\Users\murat\Desktop\Siveps2-1-99-Project\source\client\Client\EterLib\LensFlare.cpp
; File C:\Users\murat\Desktop\Siveps2-1-99-Project\source\client\extern\include\d3dx8math.inl
; File C:\Users\murat\Desktop\Siveps2-1-99-Project\source\client\Client\EterLib\LensFlare.cpp
; File C:\Users\murat\Desktop\Siveps2-1-99-Project\source\client\extern\include\d3dx8math.inl
; File C:\Users\murat\Desktop\Siveps2-1-99-Project\source\client\Client\EterLib\LensFlare.cpp
; File C:\Users\murat\Desktop\Siveps2-1-99-Project\source\client\extern\include\d3dx8math.inl
; File C:\Users\murat\Desktop\Siveps2-1-99-Project\source\client\Client\EterLib\LensFlare.cpp
; File C:\Users\murat\Desktop\Siveps2-1-99-Project\source\client\extern\include\d3dx8math.inl
; File C:\Users\murat\Desktop\Siveps2-1-99-Project\source\client\Client\EterLib\LensFlare.cpp
; File C:\Users\murat\Desktop\Siveps2-1-99-Project\source\client\extern\include\d3dx8math.inl
; File C:\Users\murat\Desktop\Siveps2-1-99-Project\source\client\Client\EterLib\LensFlare.cpp
; File C:\Users\murat\Desktop\Siveps2-1-99-Project\source\client\extern\include\d3dx8math.inl
; File C:\Users\murat\Desktop\Siveps2-1-99-Project\source\client\Client\EterLib\LensFlare.cpp
; File C:\Users\murat\Desktop\Siveps2-1-99-Project\source\client\extern\include\d3dx8math.inl
; File C:\Users\murat\Desktop\Siveps2-1-99-Project\source\client\Client\EterLib\LensFlare.cpp
; File C:\Users\murat\Desktop\Siveps2-1-99-Project\source\client\extern\include\d3dx8math.inl
; File C:\Users\murat\Desktop\Siveps2-1-99-Project\source\client\Client\EterLib\LensFlare.cpp
; File C:\Users\murat\Desktop\Siveps2-1-99-Project\source\client\extern\include\d3dx8math.inl
; File C:\Users\murat\Desktop\Siveps2-1-99-Project\source\client\Client\EterLib\LensFlare.cpp
; File C:\Users\murat\Desktop\Siveps2-1-99-Project\source\client\extern\include\d3dx8math.inl
; File C:\Users\murat\Desktop\Siveps2-1-99-Project\source\client\Client\EterLib\LensFlare.cpp
; File C:\Program Files (x86)\Microsoft Visual Studio\2019\Professional\VC\Tools\MSVC\14.29.30133\include\vector
; File C:\Users\murat\Desktop\Siveps2-1-99-Project\source\client\Client\EterLib\LensFlare.cpp
; File C:\Program Files (x86)\Microsoft Visual Studio\2019\Professional\VC\Tools\MSVC\14.29.30133\include\vector
; File C:\Users\murat\Desktop\Siveps2-1-99-Project\source\client\Client\EterLib\LensFlare.cpp
;	COMDAT ?Draw@CFlare@@QAEXMHHHH@Z
_TEXT	SEGMENT
_this$GSCopy$1$ = -152					; size = 4
tv963 = -148						; size = 4
_fDY$1$ = -144						; size = 4
_fDX$1$ = -140						; size = 4
_i$1$ = -136						; size = 4
_fCenterX$1$ = -132					; size = 4
_fCenterY$1$ = -128					; size = 4
tv978 = -124						; size = 4
tv945 = -124						; size = 4
_d3dColor$1$sroa$486$1$ = -120				; size = 4
_d3dColor$1$sroa$489$1$ = -116				; size = 4
_d3dColor$1$sroa$493$1$ = -112				; size = 4
_d3dColor$1$sroa$495$1$ = -108				; size = 4
_fW$1$ = -104						; size = 4
_vertices$2 = -100					; size = 96
__$ArrayPad$ = -4					; size = 4
_fBrightScale$ = 8					; size = 4
_nWidth$ = 12						; size = 4
_nHeight$ = 16						; size = 4
_nX$ = 20						; size = 4
_nY$ = 24						; size = 4
?Draw@CFlare@@QAEXMHHHH@Z PROC				; CFlare::Draw, COMDAT
; _this$ = ecx

; 536  : {

  00000	55		 push	 ebp
  00001	8b ec		 mov	 ebp, esp
  00003	81 ec 98 00 00
	00		 sub	 esp, 152		; 00000098H
  00009	a1 00 00 00 00	 mov	 eax, DWORD PTR ___security_cookie
  0000e	33 c5		 xor	 eax, ebp
  00010	89 45 fc	 mov	 DWORD PTR __$ArrayPad$[ebp], eax
  00013	56		 push	 esi
  00014	8b f1		 mov	 esi, ecx

; 537  : 	STATEMANAGER.SaveRenderState(D3DRS_DESTBLEND, D3DBLEND_ONE);

  00016	8b 0d 00 00 00
	00		 mov	 ecx, DWORD PTR ?ms_singleton@?$CSingleton@VCStateManager@@@@0PAVCStateManager@@A ; CSingleton<CStateManager>::ms_singleton
  0001c	6a 02		 push	 2
  0001e	6a 14		 push	 20			; 00000014H
  00020	89 b5 68 ff ff
	ff		 mov	 DWORD PTR _this$GSCopy$1$[ebp], esi
  00026	e8 00 00 00 00	 call	 ?SaveRenderState@CStateManager@@QAEXW4_D3DRENDERSTATETYPE@@K@Z ; CStateManager::SaveRenderState
  0002b	66 0f 6e 45 0c	 movd	 xmm0, DWORD PTR _nWidth$[ebp]
  00030	66 0f 6e 55 14	 movd	 xmm2, DWORD PTR _nX$[ebp]

; 538  : 
; 539  : 	float fDX = float(nX) - float(nWidth) / 2.0f;

  00035	0f 5b c0	 cvtdq2ps xmm0, xmm0

; 540  : 	float fDY = float(nY) - float(nHeight) / 2.0f;
; 541  : 
; 542  : 	STATEMANAGER.SetTexture(1, NULL);

  00038	8b 0d 00 00 00
	00		 mov	 ecx, DWORD PTR ?ms_singleton@?$CSingleton@VCStateManager@@@@0PAVCStateManager@@A ; CSingleton<CStateManager>::ms_singleton
  0003e	6a 00		 push	 0
  00040	6a 01		 push	 1
  00042	0f 5b d2	 cvtdq2ps xmm2, xmm2
  00045	f3 0f 59 05 00
	00 00 00	 mulss	 xmm0, DWORD PTR __real@3f000000
  0004d	f3 0f 5c d0	 subss	 xmm2, xmm0
  00051	66 0f 6e 45 10	 movd	 xmm0, DWORD PTR _nHeight$[ebp]
  00056	0f 5b c0	 cvtdq2ps xmm0, xmm0
  00059	f3 0f 11 95 74
	ff ff ff	 movss	 DWORD PTR _fDX$1$[ebp], xmm2
  00061	66 0f 6e 55 18	 movd	 xmm2, DWORD PTR _nY$[ebp]
  00066	f3 0f 59 05 00
	00 00 00	 mulss	 xmm0, DWORD PTR __real@3f000000
  0006e	0f 5b d2	 cvtdq2ps xmm2, xmm2
  00071	f3 0f 5c d0	 subss	 xmm2, xmm0
  00075	f3 0f 11 95 70
	ff ff ff	 movss	 DWORD PTR _fDY$1$[ebp], xmm2
  0007d	e8 00 00 00 00	 call	 ?SetTexture@CStateManager@@QAEXKPAUIDirect3DBaseTexture8@@@Z ; CStateManager::SetTexture

; 543  : 	STATEMANAGER.SetVertexShader(D3DFVF_XYZ|D3DFVF_DIFFUSE|D3DFVF_TEX1);

  00082	8b 0d 00 00 00
	00		 mov	 ecx, DWORD PTR ?ms_singleton@?$CSingleton@VCStateManager@@@@0PAVCStateManager@@A ; CSingleton<CStateManager>::ms_singleton
  00088	68 42 01 00 00	 push	 322			; 00000142H
  0008d	e8 00 00 00 00	 call	 ?SetVertexShader@CStateManager@@QAEXK@Z ; CStateManager::SetVertexShader

; 544  : 
; 545  : 	STATEMANAGER.SetTextureStageState(0, D3DTSS_COLORARG1,	D3DTA_TEXTURE);

  00092	8b 0d 00 00 00
	00		 mov	 ecx, DWORD PTR ?ms_singleton@?$CSingleton@VCStateManager@@@@0PAVCStateManager@@A ; CSingleton<CStateManager>::ms_singleton
  00098	6a 02		 push	 2
  0009a	6a 02		 push	 2
  0009c	6a 00		 push	 0
  0009e	e8 00 00 00 00	 call	 ?SetTextureStageState@CStateManager@@QAEXKW4_D3DTEXTURESTAGESTATETYPE@@K@Z ; CStateManager::SetTextureStageState

; 546  : 	STATEMANAGER.SetTextureStageState(0, D3DTSS_COLORARG2,	D3DTA_DIFFUSE);

  000a3	8b 0d 00 00 00
	00		 mov	 ecx, DWORD PTR ?ms_singleton@?$CSingleton@VCStateManager@@@@0PAVCStateManager@@A ; CSingleton<CStateManager>::ms_singleton
  000a9	6a 00		 push	 0
  000ab	6a 03		 push	 3
  000ad	6a 00		 push	 0
  000af	e8 00 00 00 00	 call	 ?SetTextureStageState@CStateManager@@QAEXKW4_D3DTEXTURESTAGESTATETYPE@@K@Z ; CStateManager::SetTextureStageState

; 547  : 	STATEMANAGER.SetTextureStageState(0, D3DTSS_COLOROP,	D3DTOP_MODULATE);

  000b4	8b 0d 00 00 00
	00		 mov	 ecx, DWORD PTR ?ms_singleton@?$CSingleton@VCStateManager@@@@0PAVCStateManager@@A ; CSingleton<CStateManager>::ms_singleton
  000ba	6a 04		 push	 4
  000bc	6a 01		 push	 1
  000be	6a 00		 push	 0
  000c0	e8 00 00 00 00	 call	 ?SetTextureStageState@CStateManager@@QAEXKW4_D3DTEXTURESTAGESTATETYPE@@K@Z ; CStateManager::SetTextureStageState

; 548  : 	STATEMANAGER.SetTextureStageState(0, D3DTSS_ALPHAARG1,	D3DTA_TEXTURE);

  000c5	8b 0d 00 00 00
	00		 mov	 ecx, DWORD PTR ?ms_singleton@?$CSingleton@VCStateManager@@@@0PAVCStateManager@@A ; CSingleton<CStateManager>::ms_singleton
  000cb	6a 02		 push	 2
  000cd	6a 05		 push	 5
  000cf	6a 00		 push	 0
  000d1	e8 00 00 00 00	 call	 ?SetTextureStageState@CStateManager@@QAEXKW4_D3DTEXTURESTAGESTATETYPE@@K@Z ; CStateManager::SetTextureStageState

; 549  : 	STATEMANAGER.SetTextureStageState(0, D3DTSS_ALPHAARG2,	D3DTA_DIFFUSE);

  000d6	8b 0d 00 00 00
	00		 mov	 ecx, DWORD PTR ?ms_singleton@?$CSingleton@VCStateManager@@@@0PAVCStateManager@@A ; CSingleton<CStateManager>::ms_singleton
  000dc	6a 00		 push	 0
  000de	6a 06		 push	 6
  000e0	6a 00		 push	 0
  000e2	e8 00 00 00 00	 call	 ?SetTextureStageState@CStateManager@@QAEXKW4_D3DTEXTURESTAGESTATETYPE@@K@Z ; CStateManager::SetTextureStageState

; 550  : 	STATEMANAGER.SetTextureStageState(0, D3DTSS_ALPHAOP,	D3DTOP_MODULATE);

  000e7	8b 0d 00 00 00
	00		 mov	 ecx, DWORD PTR ?ms_singleton@?$CSingleton@VCStateManager@@@@0PAVCStateManager@@A ; CSingleton<CStateManager>::ms_singleton
  000ed	6a 04		 push	 4
  000ef	6a 04		 push	 4
  000f1	6a 00		 push	 0
  000f3	e8 00 00 00 00	 call	 ?SetTextureStageState@CStateManager@@QAEXKW4_D3DTEXTURESTAGESTATETYPE@@K@Z ; CStateManager::SetTextureStageState
; File C:\Program Files (x86)\Microsoft Visual Studio\2019\Professional\VC\Tools\MSVC\14.29.30133\include\vector

; 1549 :         return static_cast<size_type>(_My_data._Mylast - _My_data._Myfirst);

  000f8	8b 46 08	 mov	 eax, DWORD PTR [esi+8]
; File C:\Users\murat\Desktop\Siveps2-1-99-Project\source\client\Client\EterLib\LensFlare.cpp

; 552  : 	for (unsigned int i = 0; i < m_vFlares.size(); i++)

  000fb	33 d2		 xor	 edx, edx
; File C:\Program Files (x86)\Microsoft Visual Studio\2019\Professional\VC\Tools\MSVC\14.29.30133\include\vector

; 1549 :         return static_cast<size_type>(_My_data._Mylast - _My_data._Myfirst);

  000fd	8b 4e 04	 mov	 ecx, DWORD PTR [esi+4]
  00100	2b c1		 sub	 eax, ecx
  00102	c1 f8 02	 sar	 eax, 2
; File C:\Users\murat\Desktop\Siveps2-1-99-Project\source\client\Client\EterLib\LensFlare.cpp

; 552  : 	for (unsigned int i = 0; i < m_vFlares.size(); i++)

  00105	89 95 78 ff ff
	ff		 mov	 DWORD PTR _i$1$[ebp], edx
  0010b	85 c0		 test	 eax, eax
  0010d	0f 84 a0 05 00
	00		 je	 $LN3@Draw
; File C:\Program Files (x86)\Microsoft Visual Studio\2019\Professional\VC\Tools\MSVC\14.29.30133\include\vector

; 1548 :         auto& _My_data = _Mypair._Myval2;

  00113	f3 0f 10 5d 08	 movss	 xmm3, DWORD PTR _fBrightScale$[ebp]
  00118	53		 push	 ebx
  00119	57		 push	 edi
  0011a	66 0f 1f 44 00
	00		 npad	 6
$LL4@Draw:
; File C:\Users\murat\Desktop\Siveps2-1-99-Project\source\client\Client\EterLib\LensFlare.cpp

; 554  : 		float fCenterX = float(nX) - (m_vFlares[i]->m_fPosition + 1.0f) * fDX;

  00120	8b 0c 91	 mov	 ecx, DWORD PTR [ecx+edx*4]
  00123	66 0f 6e 55 14	 movd	 xmm2, DWORD PTR _nX$[ebp]
  00128	f3 0f 10 85 74
	ff ff ff	 movss	 xmm0, DWORD PTR _fDX$1$[ebp]
  00130	0f 5b d2	 cvtdq2ps xmm2, xmm2

; 555  : 		float fCenterY = float(nY) - (m_vFlares[i]->m_fPosition + 1.0f) * fDY;
; 556  : 		float fW = m_vFlares[i]->m_fWidth;
; 557  : 
; 558  : 		D3DXCOLOR d3dColor(m_vFlares[i]->m_pColor[0] * fBrightScale,

  00133	8b 41 28	 mov	 eax, DWORD PTR [ecx+40]
  00136	f3 0f 10 49 20	 movss	 xmm1, DWORD PTR [ecx+32]
  0013b	f3 0f 58 0d 00
	00 00 00	 addss	 xmm1, DWORD PTR __real@3f800000
  00143	f3 0f 59 c1	 mulss	 xmm0, xmm1
  00147	f3 0f 5c d0	 subss	 xmm2, xmm0
  0014b	f3 0f 10 85 70
	ff ff ff	 movss	 xmm0, DWORD PTR _fDY$1$[ebp]
  00153	f3 0f 59 c1	 mulss	 xmm0, xmm1
  00157	66 0f 6e 4d 18	 movd	 xmm1, DWORD PTR _nY$[ebp]
  0015c	0f 5b c9	 cvtdq2ps xmm1, xmm1
  0015f	f3 0f 11 95 7c
	ff ff ff	 movss	 DWORD PTR _fCenterX$1$[ebp], xmm2
  00167	f3 0f 5c c8	 subss	 xmm1, xmm0
  0016b	0f 28 c3	 movaps	 xmm0, xmm3
  0016e	f3 0f 59 00	 mulss	 xmm0, DWORD PTR [eax]
  00172	f3 0f 11 45 94	 movss	 DWORD PTR _d3dColor$1$sroa$495$1$[ebp], xmm0
  00177	0f 28 c3	 movaps	 xmm0, xmm3
  0017a	f3 0f 59 40 04	 mulss	 xmm0, DWORD PTR [eax+4]
  0017f	f3 0f 11 4d 80	 movss	 DWORD PTR _fCenterY$1$[ebp], xmm1
  00184	f3 0f 10 49 24	 movss	 xmm1, DWORD PTR [ecx+36]
  00189	f3 0f 11 45 90	 movss	 DWORD PTR _d3dColor$1$sroa$493$1$[ebp], xmm0
  0018e	0f 28 c3	 movaps	 xmm0, xmm3
  00191	f3 0f 59 40 08	 mulss	 xmm0, DWORD PTR [eax+8]
  00196	f3 0f 11 4d 98	 movss	 DWORD PTR _fW$1$[ebp], xmm1
  0019b	f3 0f 11 45 8c	 movss	 DWORD PTR _d3dColor$1$sroa$489$1$[ebp], xmm0
  001a0	0f 28 c3	 movaps	 xmm0, xmm3
  001a3	f3 0f 59 40 0c	 mulss	 xmm0, DWORD PTR [eax+12]
  001a8	f3 0f 11 45 88	 movss	 DWORD PTR _d3dColor$1$sroa$486$1$[ebp], xmm0

; 559  : 						   m_vFlares[i]->m_pColor[1] * fBrightScale,
; 560  : 						   m_vFlares[i]->m_pColor[2] * fBrightScale,
; 561  : 						   m_vFlares[i]->m_pColor[3] * fBrightScale);
; 562  : 
; 563  : 		STATEMANAGER.SetTexture(0, m_vFlares[i]->m_imageInstance.GetTexturePointer()->GetD3DTexture());

  001ad	e8 00 00 00 00	 call	 ?GetTexturePointer@CGraphicImageInstance@@QAEPAVCGraphicTexture@@XZ ; CGraphicImageInstance::GetTexturePointer
  001b2	8b c8		 mov	 ecx, eax
  001b4	e8 00 00 00 00	 call	 ?GetD3DTexture@CGraphicTexture@@QBEPAUIDirect3DTexture8@@XZ ; CGraphicTexture::GetD3DTexture
  001b9	8b 0d 00 00 00
	00		 mov	 ecx, DWORD PTR ?ms_singleton@?$CSingleton@VCStateManager@@@@0PAVCStateManager@@A ; CSingleton<CStateManager>::ms_singleton
  001bf	50		 push	 eax
  001c0	6a 00		 push	 0
  001c2	e8 00 00 00 00	 call	 ?SetTexture@CStateManager@@QAEXKPAUIDirect3DBaseTexture8@@@Z ; CStateManager::SetTexture

; 564  : 
; 565  : 		TVertex vertices[4];
; 566  : 
; 567  : 		vertices[0].u = 0.0f;
; 568  : 		vertices[0].v = 0.0f;
; 569  : 		vertices[0].x = fCenterX - fW;

  001c7	f3 0f 10 8d 7c
	ff ff ff	 movss	 xmm1, DWORD PTR _fCenterX$1$[ebp]
  001cf	f3 0f 5c 4d 98	 subss	 xmm1, DWORD PTR _fW$1$[ebp]

; 570  : 		vertices[0].y = fCenterY - fW;
; 571  : 		vertices[0].z = 0.0f;

  001d4	f3 0f 10 45 94	 movss	 xmm0, DWORD PTR _d3dColor$1$sroa$495$1$[ebp]
  001d9	0f 2f 05 00 00
	00 00		 comiss	 xmm0, DWORD PTR __real@3f800000
  001e0	c7 45 ac 00 00
	00 00		 mov	 DWORD PTR _vertices$2[ebp+16], 0
  001e7	c7 45 b0 00 00
	00 00		 mov	 DWORD PTR _vertices$2[ebp+20], 0
  001ee	c7 45 a4 00 00
	00 00		 mov	 DWORD PTR _vertices$2[ebp+8], 0
  001f5	f3 0f 11 4d 84	 movss	 DWORD PTR tv945[ebp], xmm1
  001fa	f3 0f 11 4d 9c	 movss	 DWORD PTR _vertices$2[ebp], xmm1
  001ff	f3 0f 10 4d 80	 movss	 xmm1, DWORD PTR _fCenterY$1$[ebp]
  00204	f3 0f 5c 4d 98	 subss	 xmm1, DWORD PTR _fW$1$[ebp]
  00209	f3 0f 11 8d 6c
	ff ff ff	 movss	 DWORD PTR tv963[ebp], xmm1
  00211	f3 0f 11 4d a0	 movss	 DWORD PTR _vertices$2[ebp+4], xmm1
; File C:\Users\murat\Desktop\Siveps2-1-99-Project\source\client\extern\include\d3dx8math.inl

; 931  :     DWORD dwR = r >= 1.0f ? 0xff : r <= 0.0f ? 0x00 : (DWORD) (r * 255.0f + 0.5f);

  00216	0f 57 c9	 xorps	 xmm1, xmm1
  00219	72 07		 jb	 SHORT $LN30@Draw
  0021b	bb ff 00 00 00	 mov	 ebx, 255		; 000000ffH
  00220	eb 23		 jmp	 SHORT $LN29@Draw
$LN30@Draw:
  00222	0f 2f c8	 comiss	 xmm1, xmm0
  00225	72 04		 jb	 SHORT $LN28@Draw
  00227	33 db		 xor	 ebx, ebx
  00229	eb 1a		 jmp	 SHORT $LN29@Draw
$LN28@Draw:
  0022b	f3 0f 59 05 00
	00 00 00	 mulss	 xmm0, DWORD PTR __real@437f0000
  00233	f3 0f 58 05 00
	00 00 00	 addss	 xmm0, DWORD PTR __real@3f000000
  0023b	e8 00 00 00 00	 call	 __ftoui3
  00240	8b d8		 mov	 ebx, eax
  00242	0f 57 c9	 xorps	 xmm1, xmm1
$LN29@Draw:

; 932  :     DWORD dwG = g >= 1.0f ? 0xff : g <= 0.0f ? 0x00 : (DWORD) (g * 255.0f + 0.5f);

  00245	f3 0f 10 45 90	 movss	 xmm0, DWORD PTR _d3dColor$1$sroa$493$1$[ebp]
  0024a	0f 2f 05 00 00
	00 00		 comiss	 xmm0, DWORD PTR __real@3f800000
  00251	72 07		 jb	 SHORT $LN34@Draw
  00253	bf ff 00 00 00	 mov	 edi, 255		; 000000ffH
  00258	eb 20		 jmp	 SHORT $LN33@Draw
$LN34@Draw:
  0025a	0f 2f c8	 comiss	 xmm1, xmm0
  0025d	72 04		 jb	 SHORT $LN32@Draw
  0025f	33 ff		 xor	 edi, edi
  00261	eb 17		 jmp	 SHORT $LN33@Draw
$LN32@Draw:
  00263	f3 0f 59 05 00
	00 00 00	 mulss	 xmm0, DWORD PTR __real@437f0000
  0026b	f3 0f 58 05 00
	00 00 00	 addss	 xmm0, DWORD PTR __real@3f000000
  00273	e8 00 00 00 00	 call	 __ftoui3
  00278	8b f8		 mov	 edi, eax
$LN33@Draw:

; 933  :     DWORD dwB = b >= 1.0f ? 0xff : b <= 0.0f ? 0x00 : (DWORD) (b * 255.0f + 0.5f);

  0027a	f3 0f 10 45 8c	 movss	 xmm0, DWORD PTR _d3dColor$1$sroa$489$1$[ebp]
  0027f	0f 2f 05 00 00
	00 00		 comiss	 xmm0, DWORD PTR __real@3f800000
  00286	72 07		 jb	 SHORT $LN38@Draw
  00288	be ff 00 00 00	 mov	 esi, 255		; 000000ffH
  0028d	eb 23		 jmp	 SHORT $LN37@Draw
$LN38@Draw:
  0028f	0f 57 c9	 xorps	 xmm1, xmm1
  00292	0f 2f c8	 comiss	 xmm1, xmm0
  00295	72 04		 jb	 SHORT $LN36@Draw
  00297	33 f6		 xor	 esi, esi
  00299	eb 17		 jmp	 SHORT $LN37@Draw
$LN36@Draw:
  0029b	f3 0f 59 05 00
	00 00 00	 mulss	 xmm0, DWORD PTR __real@437f0000
  002a3	f3 0f 58 05 00
	00 00 00	 addss	 xmm0, DWORD PTR __real@3f000000
  002ab	e8 00 00 00 00	 call	 __ftoui3
  002b0	8b f0		 mov	 esi, eax
$LN37@Draw:

; 934  :     DWORD dwA = a >= 1.0f ? 0xff : a <= 0.0f ? 0x00 : (DWORD) (a * 255.0f + 0.5f);

  002b2	f3 0f 10 4d 88	 movss	 xmm1, DWORD PTR _d3dColor$1$sroa$486$1$[ebp]
  002b7	0f 57 c0	 xorps	 xmm0, xmm0
  002ba	0f 2f 0d 00 00
	00 00		 comiss	 xmm1, DWORD PTR __real@3f800000
  002c1	72 07		 jb	 SHORT $LN42@Draw
  002c3	b8 ff 00 00 00	 mov	 eax, 255		; 000000ffH
  002c8	eb 24		 jmp	 SHORT $LN41@Draw
$LN42@Draw:
  002ca	0f 2f c1	 comiss	 xmm0, xmm1
  002cd	72 04		 jb	 SHORT $LN40@Draw
  002cf	33 c0		 xor	 eax, eax
  002d1	eb 1b		 jmp	 SHORT $LN41@Draw
$LN40@Draw:
  002d3	0f 28 c1	 movaps	 xmm0, xmm1
  002d6	f3 0f 59 05 00
	00 00 00	 mulss	 xmm0, DWORD PTR __real@437f0000
  002de	f3 0f 58 05 00
	00 00 00	 addss	 xmm0, DWORD PTR __real@3f000000
  002e6	e8 00 00 00 00	 call	 __ftoui3
  002eb	0f 57 c0	 xorps	 xmm0, xmm0
$LN41@Draw:
; File C:\Users\murat\Desktop\Siveps2-1-99-Project\source\client\Client\EterLib\LensFlare.cpp

; 576  : 		vertices[1].x = fCenterX - fW;

  002ee	f3 0f 10 4d 84	 movss	 xmm1, DWORD PTR tv945[ebp]
; File C:\Users\murat\Desktop\Siveps2-1-99-Project\source\client\extern\include\d3dx8math.inl

; 936  :     return (dwA << 24) | (dwR << 16) | (dwG << 8) | dwB;

  002f3	c1 e0 08	 shl	 eax, 8
; File C:\Users\murat\Desktop\Siveps2-1-99-Project\source\client\Client\EterLib\LensFlare.cpp

; 576  : 		vertices[1].x = fCenterX - fW;

  002f6	f3 0f 11 4d b4	 movss	 DWORD PTR _vertices$2[ebp+24], xmm1
; File C:\Users\murat\Desktop\Siveps2-1-99-Project\source\client\extern\include\d3dx8math.inl

; 936  :     return (dwA << 24) | (dwR << 16) | (dwG << 8) | dwB;

  002fb	0b c3		 or	 eax, ebx
; File C:\Users\murat\Desktop\Siveps2-1-99-Project\source\client\Client\EterLib\LensFlare.cpp

; 577  : 		vertices[1].y = fCenterY + fW;

  002fd	f3 0f 10 4d 98	 movss	 xmm1, DWORD PTR _fW$1$[ebp]
  00302	f3 0f 58 4d 80	 addss	 xmm1, DWORD PTR _fCenterY$1$[ebp]
; File C:\Users\murat\Desktop\Siveps2-1-99-Project\source\client\extern\include\d3dx8math.inl

; 936  :     return (dwA << 24) | (dwR << 16) | (dwG << 8) | dwB;

  00307	c1 e0 08	 shl	 eax, 8
  0030a	0b c7		 or	 eax, edi
; File C:\Users\murat\Desktop\Siveps2-1-99-Project\source\client\Client\EterLib\LensFlare.cpp

; 574  : 		vertices[1].u = 0.0f;

  0030c	c7 45 c4 00 00
	00 00		 mov	 DWORD PTR _vertices$2[ebp+40], 0
; File C:\Users\murat\Desktop\Siveps2-1-99-Project\source\client\extern\include\d3dx8math.inl

; 936  :     return (dwA << 24) | (dwR << 16) | (dwG << 8) | dwB;

  00313	c1 e0 08	 shl	 eax, 8
  00316	0b c6		 or	 eax, esi
; File C:\Users\murat\Desktop\Siveps2-1-99-Project\source\client\Client\EterLib\LensFlare.cpp

; 575  : 		vertices[1].v = 1.0f;

  00318	c7 45 c8 00 00
	80 3f		 mov	 DWORD PTR _vertices$2[ebp+44], 1065353216 ; 3f800000H

; 577  : 		vertices[1].y = fCenterY + fW;

  0031f	f3 0f 11 4d 84	 movss	 DWORD PTR tv978[ebp], xmm1
  00324	f3 0f 11 4d b8	 movss	 DWORD PTR _vertices$2[ebp+28], xmm1
; File C:\Users\murat\Desktop\Siveps2-1-99-Project\source\client\extern\include\d3dx8math.inl

; 931  :     DWORD dwR = r >= 1.0f ? 0xff : r <= 0.0f ? 0x00 : (DWORD) (r * 255.0f + 0.5f);

  00329	f3 0f 10 4d 94	 movss	 xmm1, DWORD PTR _d3dColor$1$sroa$495$1$[ebp]
  0032e	0f 2f 0d 00 00
	00 00		 comiss	 xmm1, DWORD PTR __real@3f800000
; File C:\Users\murat\Desktop\Siveps2-1-99-Project\source\client\Client\EterLib\LensFlare.cpp

; 572  : 		vertices[0].color = d3dColor;

  00335	89 45 a8	 mov	 DWORD PTR _vertices$2[ebp+12], eax

; 578  : 		vertices[1].z = 0.0f;

  00338	c7 45 bc 00 00
	00 00		 mov	 DWORD PTR _vertices$2[ebp+32], 0
; File C:\Users\murat\Desktop\Siveps2-1-99-Project\source\client\extern\include\d3dx8math.inl

; 931  :     DWORD dwR = r >= 1.0f ? 0xff : r <= 0.0f ? 0x00 : (DWORD) (r * 255.0f + 0.5f);

  0033f	72 07		 jb	 SHORT $LN48@Draw
  00341	bb ff 00 00 00	 mov	 ebx, 255		; 000000ffH
  00346	eb 23		 jmp	 SHORT $LN47@Draw
$LN48@Draw:
  00348	0f 2f c1	 comiss	 xmm0, xmm1
  0034b	72 04		 jb	 SHORT $LN46@Draw
  0034d	33 db		 xor	 ebx, ebx
  0034f	eb 1a		 jmp	 SHORT $LN47@Draw
$LN46@Draw:
  00351	0f 28 c1	 movaps	 xmm0, xmm1
  00354	f3 0f 59 05 00
	00 00 00	 mulss	 xmm0, DWORD PTR __real@437f0000
  0035c	f3 0f 58 05 00
	00 00 00	 addss	 xmm0, DWORD PTR __real@3f000000
  00364	e8 00 00 00 00	 call	 __ftoui3
  00369	8b d8		 mov	 ebx, eax
$LN47@Draw:

; 932  :     DWORD dwG = g >= 1.0f ? 0xff : g <= 0.0f ? 0x00 : (DWORD) (g * 255.0f + 0.5f);

  0036b	f3 0f 10 45 90	 movss	 xmm0, DWORD PTR _d3dColor$1$sroa$493$1$[ebp]
  00370	0f 57 c9	 xorps	 xmm1, xmm1
  00373	0f 2f 05 00 00
	00 00		 comiss	 xmm0, DWORD PTR __real@3f800000
  0037a	72 07		 jb	 SHORT $LN52@Draw
  0037c	bf ff 00 00 00	 mov	 edi, 255		; 000000ffH
  00381	eb 23		 jmp	 SHORT $LN51@Draw
$LN52@Draw:
  00383	0f 2f c8	 comiss	 xmm1, xmm0
  00386	72 04		 jb	 SHORT $LN50@Draw
  00388	33 ff		 xor	 edi, edi
  0038a	eb 1a		 jmp	 SHORT $LN51@Draw
$LN50@Draw:
  0038c	f3 0f 59 05 00
	00 00 00	 mulss	 xmm0, DWORD PTR __real@437f0000
  00394	f3 0f 58 05 00
	00 00 00	 addss	 xmm0, DWORD PTR __real@3f000000
  0039c	e8 00 00 00 00	 call	 __ftoui3
  003a1	8b f8		 mov	 edi, eax
  003a3	0f 57 c9	 xorps	 xmm1, xmm1
$LN51@Draw:

; 933  :     DWORD dwB = b >= 1.0f ? 0xff : b <= 0.0f ? 0x00 : (DWORD) (b * 255.0f + 0.5f);

  003a6	f3 0f 10 45 8c	 movss	 xmm0, DWORD PTR _d3dColor$1$sroa$489$1$[ebp]
  003ab	0f 2f 05 00 00
	00 00		 comiss	 xmm0, DWORD PTR __real@3f800000
  003b2	72 07		 jb	 SHORT $LN56@Draw
  003b4	be ff 00 00 00	 mov	 esi, 255		; 000000ffH
  003b9	eb 20		 jmp	 SHORT $LN55@Draw
$LN56@Draw:
  003bb	0f 2f c8	 comiss	 xmm1, xmm0
  003be	72 04		 jb	 SHORT $LN54@Draw
  003c0	33 f6		 xor	 esi, esi
  003c2	eb 17		 jmp	 SHORT $LN55@Draw
$LN54@Draw:
  003c4	f3 0f 59 05 00
	00 00 00	 mulss	 xmm0, DWORD PTR __real@437f0000
  003cc	f3 0f 58 05 00
	00 00 00	 addss	 xmm0, DWORD PTR __real@3f000000
  003d4	e8 00 00 00 00	 call	 __ftoui3
  003d9	8b f0		 mov	 esi, eax
$LN55@Draw:

; 934  :     DWORD dwA = a >= 1.0f ? 0xff : a <= 0.0f ? 0x00 : (DWORD) (a * 255.0f + 0.5f);

  003db	f3 0f 10 4d 88	 movss	 xmm1, DWORD PTR _d3dColor$1$sroa$486$1$[ebp]
  003e0	0f 57 c0	 xorps	 xmm0, xmm0
  003e3	0f 2f 0d 00 00
	00 00		 comiss	 xmm1, DWORD PTR __real@3f800000
  003ea	72 07		 jb	 SHORT $LN60@Draw
  003ec	b8 ff 00 00 00	 mov	 eax, 255		; 000000ffH
  003f1	eb 24		 jmp	 SHORT $LN59@Draw
$LN60@Draw:
  003f3	0f 2f c1	 comiss	 xmm0, xmm1
  003f6	72 04		 jb	 SHORT $LN58@Draw
  003f8	33 c0		 xor	 eax, eax
  003fa	eb 1b		 jmp	 SHORT $LN59@Draw
$LN58@Draw:
  003fc	0f 28 c1	 movaps	 xmm0, xmm1
  003ff	f3 0f 59 05 00
	00 00 00	 mulss	 xmm0, DWORD PTR __real@437f0000
  00407	f3 0f 58 05 00
	00 00 00	 addss	 xmm0, DWORD PTR __real@3f000000
  0040f	e8 00 00 00 00	 call	 __ftoui3
  00414	0f 57 c0	 xorps	 xmm0, xmm0
$LN59@Draw:
; File C:\Users\murat\Desktop\Siveps2-1-99-Project\source\client\Client\EterLib\LensFlare.cpp

; 583  : 		vertices[2].x = fCenterX + fW;

  00417	f3 0f 10 4d 98	 movss	 xmm1, DWORD PTR _fW$1$[ebp]
  0041c	f3 0f 58 8d 7c
	ff ff ff	 addss	 xmm1, DWORD PTR _fCenterX$1$[ebp]
; File C:\Users\murat\Desktop\Siveps2-1-99-Project\source\client\extern\include\d3dx8math.inl

; 936  :     return (dwA << 24) | (dwR << 16) | (dwG << 8) | dwB;

  00424	c1 e0 08	 shl	 eax, 8
  00427	0b c3		 or	 eax, ebx
; File C:\Users\murat\Desktop\Siveps2-1-99-Project\source\client\Client\EterLib\LensFlare.cpp

; 581  : 		vertices[2].u = 1.0f;

  00429	c7 45 dc 00 00
	80 3f		 mov	 DWORD PTR _vertices$2[ebp+64], 1065353216 ; 3f800000H
; File C:\Users\murat\Desktop\Siveps2-1-99-Project\source\client\extern\include\d3dx8math.inl

; 936  :     return (dwA << 24) | (dwR << 16) | (dwG << 8) | dwB;

  00430	c1 e0 08	 shl	 eax, 8
  00433	0b c7		 or	 eax, edi
; File C:\Users\murat\Desktop\Siveps2-1-99-Project\source\client\Client\EterLib\LensFlare.cpp

; 582  : 		vertices[2].v = 0.0f;

  00435	c7 45 e0 00 00
	00 00		 mov	 DWORD PTR _vertices$2[ebp+68], 0

; 583  : 		vertices[2].x = fCenterX + fW;

  0043c	f3 0f 11 4d 98	 movss	 DWORD PTR _fW$1$[ebp], xmm1
  00441	f3 0f 11 4d cc	 movss	 DWORD PTR _vertices$2[ebp+48], xmm1

; 584  : 		vertices[2].y = fCenterY - fW;

  00446	f3 0f 10 8d 6c
	ff ff ff	 movss	 xmm1, DWORD PTR tv963[ebp]
; File C:\Users\murat\Desktop\Siveps2-1-99-Project\source\client\extern\include\d3dx8math.inl

; 936  :     return (dwA << 24) | (dwR << 16) | (dwG << 8) | dwB;

  0044e	c1 e0 08	 shl	 eax, 8
; File C:\Users\murat\Desktop\Siveps2-1-99-Project\source\client\Client\EterLib\LensFlare.cpp

; 584  : 		vertices[2].y = fCenterY - fW;

  00451	f3 0f 11 4d d0	 movss	 DWORD PTR _vertices$2[ebp+52], xmm1
; File C:\Users\murat\Desktop\Siveps2-1-99-Project\source\client\extern\include\d3dx8math.inl

; 936  :     return (dwA << 24) | (dwR << 16) | (dwG << 8) | dwB;

  00456	0b c6		 or	 eax, esi

; 931  :     DWORD dwR = r >= 1.0f ? 0xff : r <= 0.0f ? 0x00 : (DWORD) (r * 255.0f + 0.5f);

  00458	f3 0f 10 4d 94	 movss	 xmm1, DWORD PTR _d3dColor$1$sroa$495$1$[ebp]
  0045d	0f 2f 0d 00 00
	00 00		 comiss	 xmm1, DWORD PTR __real@3f800000
; File C:\Users\murat\Desktop\Siveps2-1-99-Project\source\client\Client\EterLib\LensFlare.cpp

; 579  : 		vertices[1].color = d3dColor;

  00464	89 45 c0	 mov	 DWORD PTR _vertices$2[ebp+36], eax

; 585  : 		vertices[2].z = 0.0f;

  00467	c7 45 d4 00 00
	00 00		 mov	 DWORD PTR _vertices$2[ebp+56], 0
; File C:\Users\murat\Desktop\Siveps2-1-99-Project\source\client\extern\include\d3dx8math.inl

; 931  :     DWORD dwR = r >= 1.0f ? 0xff : r <= 0.0f ? 0x00 : (DWORD) (r * 255.0f + 0.5f);

  0046e	72 07		 jb	 SHORT $LN66@Draw
  00470	bb ff 00 00 00	 mov	 ebx, 255		; 000000ffH
  00475	eb 23		 jmp	 SHORT $LN65@Draw
$LN66@Draw:
  00477	0f 2f c1	 comiss	 xmm0, xmm1
  0047a	72 04		 jb	 SHORT $LN64@Draw
  0047c	33 db		 xor	 ebx, ebx
  0047e	eb 1a		 jmp	 SHORT $LN65@Draw
$LN64@Draw:
  00480	0f 28 c1	 movaps	 xmm0, xmm1
  00483	f3 0f 59 05 00
	00 00 00	 mulss	 xmm0, DWORD PTR __real@437f0000
  0048b	f3 0f 58 05 00
	00 00 00	 addss	 xmm0, DWORD PTR __real@3f000000
  00493	e8 00 00 00 00	 call	 __ftoui3
  00498	8b d8		 mov	 ebx, eax
$LN65@Draw:

; 932  :     DWORD dwG = g >= 1.0f ? 0xff : g <= 0.0f ? 0x00 : (DWORD) (g * 255.0f + 0.5f);

  0049a	f3 0f 10 45 90	 movss	 xmm0, DWORD PTR _d3dColor$1$sroa$493$1$[ebp]
  0049f	0f 57 c9	 xorps	 xmm1, xmm1
  004a2	0f 2f 05 00 00
	00 00		 comiss	 xmm0, DWORD PTR __real@3f800000
  004a9	72 07		 jb	 SHORT $LN70@Draw
  004ab	bf ff 00 00 00	 mov	 edi, 255		; 000000ffH
  004b0	eb 23		 jmp	 SHORT $LN69@Draw
$LN70@Draw:
  004b2	0f 2f c8	 comiss	 xmm1, xmm0
  004b5	72 04		 jb	 SHORT $LN68@Draw
  004b7	33 ff		 xor	 edi, edi
  004b9	eb 1a		 jmp	 SHORT $LN69@Draw
$LN68@Draw:
  004bb	f3 0f 59 05 00
	00 00 00	 mulss	 xmm0, DWORD PTR __real@437f0000
  004c3	f3 0f 58 05 00
	00 00 00	 addss	 xmm0, DWORD PTR __real@3f000000
  004cb	e8 00 00 00 00	 call	 __ftoui3
  004d0	8b f8		 mov	 edi, eax
  004d2	0f 57 c9	 xorps	 xmm1, xmm1
$LN69@Draw:

; 933  :     DWORD dwB = b >= 1.0f ? 0xff : b <= 0.0f ? 0x00 : (DWORD) (b * 255.0f + 0.5f);

  004d5	f3 0f 10 45 8c	 movss	 xmm0, DWORD PTR _d3dColor$1$sroa$489$1$[ebp]
  004da	0f 2f 05 00 00
	00 00		 comiss	 xmm0, DWORD PTR __real@3f800000
  004e1	72 07		 jb	 SHORT $LN74@Draw
  004e3	be ff 00 00 00	 mov	 esi, 255		; 000000ffH
  004e8	eb 20		 jmp	 SHORT $LN73@Draw
$LN74@Draw:
  004ea	0f 2f c8	 comiss	 xmm1, xmm0
  004ed	72 04		 jb	 SHORT $LN72@Draw
  004ef	33 f6		 xor	 esi, esi
  004f1	eb 17		 jmp	 SHORT $LN73@Draw
$LN72@Draw:
  004f3	f3 0f 59 05 00
	00 00 00	 mulss	 xmm0, DWORD PTR __real@437f0000
  004fb	f3 0f 58 05 00
	00 00 00	 addss	 xmm0, DWORD PTR __real@3f000000
  00503	e8 00 00 00 00	 call	 __ftoui3
  00508	8b f0		 mov	 esi, eax
$LN73@Draw:

; 934  :     DWORD dwA = a >= 1.0f ? 0xff : a <= 0.0f ? 0x00 : (DWORD) (a * 255.0f + 0.5f);

  0050a	f3 0f 10 4d 88	 movss	 xmm1, DWORD PTR _d3dColor$1$sroa$486$1$[ebp]
  0050f	0f 57 c0	 xorps	 xmm0, xmm0
  00512	0f 2f 0d 00 00
	00 00		 comiss	 xmm1, DWORD PTR __real@3f800000
  00519	72 07		 jb	 SHORT $LN78@Draw
  0051b	b8 ff 00 00 00	 mov	 eax, 255		; 000000ffH
  00520	eb 24		 jmp	 SHORT $LN77@Draw
$LN78@Draw:
  00522	0f 2f c1	 comiss	 xmm0, xmm1
  00525	72 04		 jb	 SHORT $LN76@Draw
  00527	33 c0		 xor	 eax, eax
  00529	eb 1b		 jmp	 SHORT $LN77@Draw
$LN76@Draw:
  0052b	0f 28 c1	 movaps	 xmm0, xmm1
  0052e	f3 0f 59 05 00
	00 00 00	 mulss	 xmm0, DWORD PTR __real@437f0000
  00536	f3 0f 58 05 00
	00 00 00	 addss	 xmm0, DWORD PTR __real@3f000000
  0053e	e8 00 00 00 00	 call	 __ftoui3
  00543	0f 57 c0	 xorps	 xmm0, xmm0
$LN77@Draw:
; File C:\Users\murat\Desktop\Siveps2-1-99-Project\source\client\Client\EterLib\LensFlare.cpp

; 590  : 		vertices[3].x = fCenterX + fW;

  00546	f3 0f 10 4d 98	 movss	 xmm1, DWORD PTR _fW$1$[ebp]
; File C:\Users\murat\Desktop\Siveps2-1-99-Project\source\client\extern\include\d3dx8math.inl

; 936  :     return (dwA << 24) | (dwR << 16) | (dwG << 8) | dwB;

  0054b	c1 e0 08	 shl	 eax, 8
  0054e	0b c3		 or	 eax, ebx
; File C:\Users\murat\Desktop\Siveps2-1-99-Project\source\client\Client\EterLib\LensFlare.cpp

; 590  : 		vertices[3].x = fCenterX + fW;

  00550	f3 0f 11 4d e4	 movss	 DWORD PTR _vertices$2[ebp+72], xmm1

; 591  : 		vertices[3].y = fCenterY + fW;

  00555	f3 0f 10 4d 84	 movss	 xmm1, DWORD PTR tv978[ebp]
; File C:\Users\murat\Desktop\Siveps2-1-99-Project\source\client\extern\include\d3dx8math.inl

; 936  :     return (dwA << 24) | (dwR << 16) | (dwG << 8) | dwB;

  0055a	c1 e0 08	 shl	 eax, 8
  0055d	0b c7		 or	 eax, edi
; File C:\Users\murat\Desktop\Siveps2-1-99-Project\source\client\Client\EterLib\LensFlare.cpp

; 591  : 		vertices[3].y = fCenterY + fW;

  0055f	f3 0f 11 4d e8	 movss	 DWORD PTR _vertices$2[ebp+76], xmm1
; File C:\Users\murat\Desktop\Siveps2-1-99-Project\source\client\extern\include\d3dx8math.inl

; 931  :     DWORD dwR = r >= 1.0f ? 0xff : r <= 0.0f ? 0x00 : (DWORD) (r * 255.0f + 0.5f);

  00564	f3 0f 10 4d 94	 movss	 xmm1, DWORD PTR _d3dColor$1$sroa$495$1$[ebp]

; 936  :     return (dwA << 24) | (dwR << 16) | (dwG << 8) | dwB;

  00569	c1 e0 08	 shl	 eax, 8
  0056c	0b c6		 or	 eax, esi
; File C:\Users\murat\Desktop\Siveps2-1-99-Project\source\client\Client\EterLib\LensFlare.cpp

; 588  : 		vertices[3].u = 1.0f;

  0056e	c7 45 f4 00 00
	80 3f		 mov	 DWORD PTR _vertices$2[ebp+88], 1065353216 ; 3f800000H
; File C:\Users\murat\Desktop\Siveps2-1-99-Project\source\client\extern\include\d3dx8math.inl

; 931  :     DWORD dwR = r >= 1.0f ? 0xff : r <= 0.0f ? 0x00 : (DWORD) (r * 255.0f + 0.5f);

  00575	0f 2f 0d 00 00
	00 00		 comiss	 xmm1, DWORD PTR __real@3f800000
; File C:\Users\murat\Desktop\Siveps2-1-99-Project\source\client\Client\EterLib\LensFlare.cpp

; 586  : 		vertices[2].color = d3dColor;

  0057c	89 45 d8	 mov	 DWORD PTR _vertices$2[ebp+60], eax

; 589  : 		vertices[3].v = 1.0f;

  0057f	c7 45 f8 00 00
	80 3f		 mov	 DWORD PTR _vertices$2[ebp+92], 1065353216 ; 3f800000H

; 592  : 		vertices[3].z = 0.0f;

  00586	c7 45 ec 00 00
	00 00		 mov	 DWORD PTR _vertices$2[ebp+80], 0
; File C:\Users\murat\Desktop\Siveps2-1-99-Project\source\client\extern\include\d3dx8math.inl

; 931  :     DWORD dwR = r >= 1.0f ? 0xff : r <= 0.0f ? 0x00 : (DWORD) (r * 255.0f + 0.5f);

  0058d	72 07		 jb	 SHORT $LN84@Draw
  0058f	bb ff 00 00 00	 mov	 ebx, 255		; 000000ffH
  00594	eb 23		 jmp	 SHORT $LN83@Draw
$LN84@Draw:
  00596	0f 2f c1	 comiss	 xmm0, xmm1
  00599	72 04		 jb	 SHORT $LN82@Draw
  0059b	33 db		 xor	 ebx, ebx
  0059d	eb 1a		 jmp	 SHORT $LN83@Draw
$LN82@Draw:
  0059f	f3 0f 59 0d 00
	00 00 00	 mulss	 xmm1, DWORD PTR __real@437f0000
  005a7	f3 0f 58 0d 00
	00 00 00	 addss	 xmm1, DWORD PTR __real@3f000000
  005af	0f 28 c1	 movaps	 xmm0, xmm1
  005b2	e8 00 00 00 00	 call	 __ftoui3
  005b7	8b d8		 mov	 ebx, eax
$LN83@Draw:

; 932  :     DWORD dwG = g >= 1.0f ? 0xff : g <= 0.0f ? 0x00 : (DWORD) (g * 255.0f + 0.5f);

  005b9	f3 0f 10 45 90	 movss	 xmm0, DWORD PTR _d3dColor$1$sroa$493$1$[ebp]
  005be	0f 57 c9	 xorps	 xmm1, xmm1
  005c1	0f 2f 05 00 00
	00 00		 comiss	 xmm0, DWORD PTR __real@3f800000
  005c8	72 07		 jb	 SHORT $LN88@Draw
  005ca	bf ff 00 00 00	 mov	 edi, 255		; 000000ffH
  005cf	eb 23		 jmp	 SHORT $LN87@Draw
$LN88@Draw:
  005d1	0f 2f c8	 comiss	 xmm1, xmm0
  005d4	72 04		 jb	 SHORT $LN86@Draw
  005d6	33 ff		 xor	 edi, edi
  005d8	eb 1a		 jmp	 SHORT $LN87@Draw
$LN86@Draw:
  005da	f3 0f 59 05 00
	00 00 00	 mulss	 xmm0, DWORD PTR __real@437f0000
  005e2	f3 0f 58 05 00
	00 00 00	 addss	 xmm0, DWORD PTR __real@3f000000
  005ea	e8 00 00 00 00	 call	 __ftoui3
  005ef	8b f8		 mov	 edi, eax
  005f1	0f 57 c9	 xorps	 xmm1, xmm1
$LN87@Draw:

; 933  :     DWORD dwB = b >= 1.0f ? 0xff : b <= 0.0f ? 0x00 : (DWORD) (b * 255.0f + 0.5f);

  005f4	f3 0f 10 45 8c	 movss	 xmm0, DWORD PTR _d3dColor$1$sroa$489$1$[ebp]
  005f9	0f 2f 05 00 00
	00 00		 comiss	 xmm0, DWORD PTR __real@3f800000
  00600	72 07		 jb	 SHORT $LN92@Draw
  00602	be ff 00 00 00	 mov	 esi, 255		; 000000ffH
  00607	eb 20		 jmp	 SHORT $LN91@Draw
$LN92@Draw:
  00609	0f 2f c8	 comiss	 xmm1, xmm0
  0060c	72 04		 jb	 SHORT $LN90@Draw
  0060e	33 f6		 xor	 esi, esi
  00610	eb 17		 jmp	 SHORT $LN91@Draw
$LN90@Draw:
  00612	f3 0f 59 05 00
	00 00 00	 mulss	 xmm0, DWORD PTR __real@437f0000
  0061a	f3 0f 58 05 00
	00 00 00	 addss	 xmm0, DWORD PTR __real@3f000000
  00622	e8 00 00 00 00	 call	 __ftoui3
  00627	8b f0		 mov	 esi, eax
$LN91@Draw:

; 934  :     DWORD dwA = a >= 1.0f ? 0xff : a <= 0.0f ? 0x00 : (DWORD) (a * 255.0f + 0.5f);

  00629	f3 0f 10 45 88	 movss	 xmm0, DWORD PTR _d3dColor$1$sroa$486$1$[ebp]
  0062e	0f 2f 05 00 00
	00 00		 comiss	 xmm0, DWORD PTR __real@3f800000
  00635	72 07		 jb	 SHORT $LN96@Draw
  00637	b8 ff 00 00 00	 mov	 eax, 255		; 000000ffH
  0063c	eb 21		 jmp	 SHORT $LN95@Draw
$LN96@Draw:
  0063e	0f 57 c9	 xorps	 xmm1, xmm1
  00641	0f 2f c8	 comiss	 xmm1, xmm0
  00644	72 04		 jb	 SHORT $LN94@Draw
  00646	33 c0		 xor	 eax, eax
  00648	eb 15		 jmp	 SHORT $LN95@Draw
$LN94@Draw:
  0064a	f3 0f 59 05 00
	00 00 00	 mulss	 xmm0, DWORD PTR __real@437f0000
  00652	f3 0f 58 05 00
	00 00 00	 addss	 xmm0, DWORD PTR __real@3f000000
  0065a	e8 00 00 00 00	 call	 __ftoui3
$LN95@Draw:
; File C:\Users\murat\Desktop\Siveps2-1-99-Project\source\client\Client\EterLib\LensFlare.cpp

; 595  : 		STATEMANAGER.DrawPrimitiveUP(D3DPT_TRIANGLESTRIP, 2, vertices, sizeof(TVertex));

  0065f	8b 0d 00 00 00
	00		 mov	 ecx, DWORD PTR ?ms_singleton@?$CSingleton@VCStateManager@@@@0PAVCStateManager@@A ; CSingleton<CStateManager>::ms_singleton
; File C:\Users\murat\Desktop\Siveps2-1-99-Project\source\client\extern\include\d3dx8math.inl

; 936  :     return (dwA << 24) | (dwR << 16) | (dwG << 8) | dwB;

  00665	c1 e0 08	 shl	 eax, 8
  00668	0b c3		 or	 eax, ebx
  0066a	c1 e0 08	 shl	 eax, 8
  0066d	0b c7		 or	 eax, edi
  0066f	c1 e0 08	 shl	 eax, 8
  00672	0b c6		 or	 eax, esi
; File C:\Users\murat\Desktop\Siveps2-1-99-Project\source\client\Client\EterLib\LensFlare.cpp

; 595  : 		STATEMANAGER.DrawPrimitiveUP(D3DPT_TRIANGLESTRIP, 2, vertices, sizeof(TVertex));

  00674	6a 18		 push	 24			; 00000018H
  00676	89 45 f0	 mov	 DWORD PTR _vertices$2[ebp+84], eax
  00679	8d 45 9c	 lea	 eax, DWORD PTR _vertices$2[ebp]
  0067c	50		 push	 eax
  0067d	6a 02		 push	 2
  0067f	6a 05		 push	 5
  00681	e8 00 00 00 00	 call	 ?DrawPrimitiveUP@CStateManager@@QAEJW4_D3DPRIMITIVETYPE@@IPBXI@Z ; CStateManager::DrawPrimitiveUP
; File C:\Program Files (x86)\Microsoft Visual Studio\2019\Professional\VC\Tools\MSVC\14.29.30133\include\vector

; 1549 :         return static_cast<size_type>(_My_data._Mylast - _My_data._Myfirst);

  00686	8b 9d 68 ff ff
	ff		 mov	 ebx, DWORD PTR _this$GSCopy$1$[ebp]
; File C:\Users\murat\Desktop\Siveps2-1-99-Project\source\client\Client\EterLib\LensFlare.cpp

; 552  : 	for (unsigned int i = 0; i < m_vFlares.size(); i++)

  0068c	8b 95 78 ff ff
	ff		 mov	 edx, DWORD PTR _i$1$[ebp]
  00692	f3 0f 10 5d 08	 movss	 xmm3, DWORD PTR _fBrightScale$[ebp]
  00697	42		 inc	 edx
  00698	89 95 78 ff ff
	ff		 mov	 DWORD PTR _i$1$[ebp], edx
; File C:\Program Files (x86)\Microsoft Visual Studio\2019\Professional\VC\Tools\MSVC\14.29.30133\include\vector

; 1549 :         return static_cast<size_type>(_My_data._Mylast - _My_data._Myfirst);

  0069e	8b 43 08	 mov	 eax, DWORD PTR [ebx+8]
  006a1	8b 4b 04	 mov	 ecx, DWORD PTR [ebx+4]
  006a4	2b c1		 sub	 eax, ecx
  006a6	c1 f8 02	 sar	 eax, 2
; File C:\Users\murat\Desktop\Siveps2-1-99-Project\source\client\Client\EterLib\LensFlare.cpp

; 552  : 	for (unsigned int i = 0; i < m_vFlares.size(); i++)

  006a9	3b d0		 cmp	 edx, eax
  006ab	0f 82 6f fa ff
	ff		 jb	 $LL4@Draw
  006b1	5f		 pop	 edi
  006b2	5b		 pop	 ebx
$LN3@Draw:

; 596  : 	}
; 597  : 
; 598  : 	STATEMANAGER.RestoreRenderState(D3DRS_DESTBLEND);

  006b3	8b 0d 00 00 00
	00		 mov	 ecx, DWORD PTR ?ms_singleton@?$CSingleton@VCStateManager@@@@0PAVCStateManager@@A ; CSingleton<CStateManager>::ms_singleton
  006b9	6a 14		 push	 20			; 00000014H
  006bb	e8 00 00 00 00	 call	 ?RestoreRenderState@CStateManager@@QAEXW4_D3DRENDERSTATETYPE@@@Z ; CStateManager::RestoreRenderState

; 599  : }

  006c0	8b 4d fc	 mov	 ecx, DWORD PTR __$ArrayPad$[ebp]
  006c3	33 cd		 xor	 ecx, ebp
  006c5	5e		 pop	 esi
  006c6	e8 00 00 00 00	 call	 @__security_check_cookie@4
  006cb	8b e5		 mov	 esp, ebp
  006cd	5d		 pop	 ebp
  006ce	c2 14 00	 ret	 20			; 00000014H
?Draw@CFlare@@QAEXMHHHH@Z ENDP				; CFlare::Draw
_TEXT	ENDS
; Function compile flags: /Ogtp
; File C:\Program Files (x86)\Microsoft Visual Studio\2019\Professional\VC\Tools\MSVC\14.29.30133\include\xmemory
;	COMDAT ??$_Allocate_manually_vector_aligned@U_Default_allocate_traits@std@@@std@@YAPAXI@Z
_TEXT	SEGMENT
__Bytes$ = 8						; size = 4
??$_Allocate_manually_vector_aligned@U_Default_allocate_traits@std@@@std@@YAPAXI@Z PROC ; std::_Allocate_manually_vector_aligned<std::_Default_allocate_traits>, COMDAT

; 134  : __declspec(allocator) void* _Allocate_manually_vector_aligned(const size_t _Bytes) {

  00000	55		 push	 ebp
  00001	8b ec		 mov	 ebp, esp

; 135  :     // allocate _Bytes manually aligned to at least _Big_allocation_alignment
; 136  :     const size_t _Block_size = _Non_user_size + _Bytes;

  00003	8b 45 08	 mov	 eax, DWORD PTR __Bytes$[ebp]
  00006	8d 48 23	 lea	 ecx, DWORD PTR [eax+35]

; 137  :     if (_Block_size <= _Bytes) {

  00009	3b c8		 cmp	 ecx, eax
  0000b	0f 86 00 00 00
	00		 jbe	 ?_Throw_bad_array_new_length@std@@YAXXZ ; std::_Throw_bad_array_new_length

; 85   :         return ::operator new(_Bytes);

  00011	51		 push	 ecx
  00012	e8 00 00 00 00	 call	 ??2@YAPAXI@Z		; operator new

; 138  :         _Throw_bad_array_new_length(); // add overflow
; 139  :     }
; 140  : 
; 141  :     const uintptr_t _Ptr_container = reinterpret_cast<uintptr_t>(_Traits::_Allocate(_Block_size));

  00017	8b c8		 mov	 ecx, eax

; 85   :         return ::operator new(_Bytes);

  00019	83 c4 04	 add	 esp, 4

; 142  :     _STL_VERIFY(_Ptr_container != 0, "invalid argument"); // validate even in release since we're doing p[-1]

  0001c	85 c9		 test	 ecx, ecx
  0001e	74 0b		 je	 SHORT $LN7@Allocate_m

; 143  :     void* const _Ptr = reinterpret_cast<void*>((_Ptr_container + _Non_user_size) & ~(_Big_allocation_alignment - 1));

  00020	8d 41 23	 lea	 eax, DWORD PTR [ecx+35]
  00023	83 e0 e0	 and	 eax, -32		; ffffffe0H

; 144  :     static_cast<uintptr_t*>(_Ptr)[-1] = _Ptr_container;

  00026	89 48 fc	 mov	 DWORD PTR [eax-4], ecx

; 145  : 
; 146  : #ifdef _DEBUG
; 147  :     static_cast<uintptr_t*>(_Ptr)[-2] = _Big_allocation_sentinel;
; 148  : #endif // _DEBUG
; 149  :     return _Ptr;
; 150  : }

  00029	5d		 pop	 ebp
  0002a	c3		 ret	 0
$LN7@Allocate_m:

; 142  :     _STL_VERIFY(_Ptr_container != 0, "invalid argument"); // validate even in release since we're doing p[-1]

  0002b	e9 00 00 00 00	 jmp	 __invalid_parameter_noinfo_noreturn
??$_Allocate_manually_vector_aligned@U_Default_allocate_traits@std@@@std@@YAPAXI@Z ENDP ; std::_Allocate_manually_vector_aligned<std::_Default_allocate_traits>
_TEXT	ENDS
; Function compile flags: /Ogtp
; File C:\Program Files (x86)\Microsoft Visual Studio\2019\Professional\VC\Tools\MSVC\14.29.30133\include\xstring
; File C:\Program Files (x86)\Microsoft Visual Studio\2019\Professional\VC\Tools\MSVC\14.29.30133\include\xmemory
; File C:\Program Files (x86)\Microsoft Visual Studio\2019\Professional\VC\Tools\MSVC\14.29.30133\include\xstring
; File C:\Program Files (x86)\Microsoft Visual Studio\2019\Professional\VC\Tools\MSVC\14.29.30133\include\xmemory
; File C:\Program Files (x86)\Microsoft Visual Studio\2019\Professional\VC\Tools\MSVC\14.29.30133\include\xstring
; File C:\Program Files (x86)\Microsoft Visual Studio\2019\Professional\VC\Tools\MSVC\14.29.30133\include\xmemory
; File C:\Program Files (x86)\Microsoft Visual Studio\2019\Professional\VC\Tools\MSVC\14.29.30133\include\xstring
;	COMDAT ??1?$basic_string@DU?$char_traits@D@std@@V?$allocator@D@2@@std@@QAE@XZ
_TEXT	SEGMENT
??1?$basic_string@DU?$char_traits@D@std@@V?$allocator@D@2@@std@@QAE@XZ PROC ; std::basic_string<char,std::char_traits<char>,std::allocator<char> >::~basic_string<char,std::char_traits<char>,std::allocator<char> >, COMDAT
; _this$ = ecx

; 3002 :     _CONSTEXPR20_CONTAINER ~basic_string() noexcept {

  00000	56		 push	 esi
  00001	8b f1		 mov	 esi, ecx

; 2319 :         return _BUF_SIZE <= _Myres;

  00003	8b 4e 14	 mov	 ecx, DWORD PTR [esi+20]
  00006	83 f9 10	 cmp	 ecx, 16			; 00000010H

; 4618 :         if (_Mypair._Myval2._Large_string_engaged()) {

  00009	72 27		 jb	 SHORT $LN12@basic_stri
; File C:\Program Files (x86)\Microsoft Visual Studio\2019\Professional\VC\Tools\MSVC\14.29.30133\include\xmemory

; 835  :         _Deallocate<_New_alignof<_Ty>>(_Ptr, sizeof(_Ty) * _Count);

  0000b	8b 06		 mov	 eax, DWORD PTR [esi]
; File C:\Program Files (x86)\Microsoft Visual Studio\2019\Professional\VC\Tools\MSVC\14.29.30133\include\xstring

; 4622 :             _Al.deallocate(_Ptr, _Mypair._Myval2._Myres + 1);

  0000d	41		 inc	 ecx
; File C:\Program Files (x86)\Microsoft Visual Studio\2019\Professional\VC\Tools\MSVC\14.29.30133\include\xmemory

; 260  :         if (_Bytes >= _Big_allocation_threshold) { // boost the alignment of big allocations to help autovectorization

  0000e	81 f9 00 10 00
	00		 cmp	 ecx, 4096		; 00001000H
  00014	72 12		 jb	 SHORT $LN22@basic_stri

; 158  :     const uintptr_t _Ptr_container   = _Ptr_user[-1];

  00016	8b 50 fc	 mov	 edx, DWORD PTR [eax-4]
  00019	83 c1 23	 add	 ecx, 35			; 00000023H

; 159  : 
; 160  :     // If the following asserts, it likely means that we are performing
; 161  :     // an aligned delete on memory coming from an unaligned allocation.
; 162  :     _STL_ASSERT(_Ptr_user[-2] == _Big_allocation_sentinel, "invalid argument");
; 163  : 
; 164  :     // Extra paranoia on aligned allocation/deallocation; ensure _Ptr_container is
; 165  :     // in range [_Min_back_shift, _Non_user_size]
; 166  : #ifdef _DEBUG
; 167  :     constexpr uintptr_t _Min_back_shift = 2 * sizeof(void*);
; 168  : #else // ^^^ _DEBUG ^^^ // vvv !_DEBUG vvv
; 169  :     constexpr uintptr_t _Min_back_shift = sizeof(void*);
; 170  : #endif // _DEBUG
; 171  :     const uintptr_t _Back_shift = reinterpret_cast<uintptr_t>(_Ptr) - _Ptr_container;

  0001c	2b c2		 sub	 eax, edx

; 172  :     _STL_VERIFY(_Back_shift >= _Min_back_shift && _Back_shift <= _Non_user_size, "invalid argument");

  0001e	83 c0 fc	 add	 eax, -4			; fffffffcH
  00021	83 f8 1f	 cmp	 eax, 31			; 0000001fH
  00024	77 1f		 ja	 SHORT $LN19@basic_stri

; 173  :     _Ptr = reinterpret_cast<void*>(_Ptr_container);

  00026	8b c2		 mov	 eax, edx
$LN22@basic_stri:

; 264  :         ::operator delete(_Ptr, _Bytes);

  00028	51		 push	 ecx
  00029	50		 push	 eax
  0002a	e8 00 00 00 00	 call	 ??3@YAXPAXI@Z		; operator delete
  0002f	83 c4 08	 add	 esp, 8
$LN12@basic_stri:
; File C:\Program Files (x86)\Microsoft Visual Studio\2019\Professional\VC\Tools\MSVC\14.29.30133\include\xstring

; 4633 :             _Mypair._Myval2._Mysize = 0;

  00032	c7 46 10 00 00
	00 00		 mov	 DWORD PTR [esi+16], 0

; 4634 :             _Mypair._Myval2._Myres  = _BUF_SIZE - 1;

  00039	c7 46 14 0f 00
	00 00		 mov	 DWORD PTR [esi+20], 15	; 0000000fH

; 4635 :             // the _Traits::assign is last so the codegen doesn't think the char write can alias this
; 4636 :             _Traits::assign(_Mypair._Myval2._Bx._Buf[0], _Elem());

  00040	c6 06 00	 mov	 BYTE PTR [esi], 0
  00043	5e		 pop	 esi

; 3010 :     }

  00044	c3		 ret	 0
$LN19@basic_stri:
; File C:\Program Files (x86)\Microsoft Visual Studio\2019\Professional\VC\Tools\MSVC\14.29.30133\include\xmemory

; 172  :     _STL_VERIFY(_Back_shift >= _Min_back_shift && _Back_shift <= _Non_user_size, "invalid argument");

  00045	e8 00 00 00 00	 call	 __invalid_parameter_noinfo_noreturn
$LN27@basic_stri:
  0004a	cc		 int	 3
??1?$basic_string@DU?$char_traits@D@std@@V?$allocator@D@2@@std@@QAE@XZ ENDP ; std::basic_string<char,std::char_traits<char>,std::allocator<char> >::~basic_string<char,std::char_traits<char>,std::allocator<char> >
_TEXT	ENDS
; Function compile flags: /Ogtp
; File C:\Program Files (x86)\Microsoft Visual Studio\2019\Professional\VC\Tools\MSVC\14.29.30133\include\xstring
; File C:\Program Files (x86)\Microsoft Visual Studio\2019\Professional\VC\Tools\MSVC\14.29.30133\include\utility
; File C:\Program Files (x86)\Microsoft Visual Studio\2019\Professional\VC\Tools\MSVC\14.29.30133\include\xstring
; File C:\Program Files (x86)\Microsoft Visual Studio\2019\Professional\VC\Tools\MSVC\14.29.30133\include\xmemory
; File C:\Program Files (x86)\Microsoft Visual Studio\2019\Professional\VC\Tools\MSVC\14.29.30133\include\xstring
;	COMDAT ??0?$basic_string@DU?$char_traits@D@std@@V?$allocator@D@2@@std@@QAE@U_String_constructor_concat_tag@1@AAV01@1@Z
_TEXT	SEGMENT
__Right_size$1$ = -16					; size = 4
$T1 = -12						; size = 4
__New_capacity$1$ = -8					; size = 4
__Left_size$1$ = -4					; size = 4
___formal$ = 8						; size = 1
__New_size$1$ = 12					; size = 4
__Left$ = 12						; size = 4
__Right$ = 16						; size = 4
??0?$basic_string@DU?$char_traits@D@std@@V?$allocator@D@2@@std@@QAE@U_String_constructor_concat_tag@1@AAV01@1@Z PROC ; std::basic_string<char,std::char_traits<char>,std::allocator<char> >::basic_string<char,std::char_traits<char>,std::allocator<char> >, COMDAT
; _this$ = ecx

; 2672 :         : _Mypair(_One_then_variadic_args_t{}, _Left._Getal()) {

  00000	55		 push	 ebp
  00001	8b ec		 mov	 ebp, esp
  00003	83 ec 10	 sub	 esp, 16			; 00000010H
  00006	53		 push	 ebx
  00007	56		 push	 esi

; 2673 :         auto& _My_data    = _Mypair._Myval2;
; 2674 :         auto& _Left_data  = _Left._Mypair._Myval2;
; 2675 :         auto& _Right_data = _Right._Mypair._Myval2;
; 2676 :         _Left_data._Orphan_all();
; 2677 :         _Right_data._Orphan_all();
; 2678 :         const auto _Left_size  = _Left_data._Mysize;

  00008	8b 75 0c	 mov	 esi, DWORD PTR __Left$[ebp]
  0000b	8b d9		 mov	 ebx, ecx
  0000d	57		 push	 edi

; 2679 :         const auto _Right_size = _Right_data._Mysize;

  0000e	8b 7d 10	 mov	 edi, DWORD PTR __Right$[ebp]

; 2346 :         _CONSTEXPR20_CONTAINER _Bxty() noexcept : _Ptr() {} // user-provided, for fancy pointers

  00011	c7 03 00 00 00
	00		 mov	 DWORD PTR [ebx], 0

; 2355 :     size_type _Mysize = 0; // current length of string

  00017	c7 43 10 00 00
	00 00		 mov	 DWORD PTR [ebx+16], 0

; 2356 :     size_type _Myres  = 0; // current storage reserved for string

  0001e	c7 43 14 00 00
	00 00		 mov	 DWORD PTR [ebx+20], 0

; 2673 :         auto& _My_data    = _Mypair._Myval2;
; 2674 :         auto& _Left_data  = _Left._Mypair._Myval2;
; 2675 :         auto& _Right_data = _Right._Mypair._Myval2;
; 2676 :         _Left_data._Orphan_all();
; 2677 :         _Right_data._Orphan_all();
; 2678 :         const auto _Left_size  = _Left_data._Mysize;

  00025	8b 4e 10	 mov	 ecx, DWORD PTR [esi+16]

; 2679 :         const auto _Right_size = _Right_data._Mysize;

  00028	8b 57 10	 mov	 edx, DWORD PTR [edi+16]
  0002b	89 4d fc	 mov	 DWORD PTR __Left_size$1$[ebp], ecx
  0002e	89 55 f0	 mov	 DWORD PTR __Right_size$1$[ebp], edx

; 2680 : 
; 2681 :         const auto _Left_capacity  = _Left_data._Myres;
; 2682 :         const auto _Right_capacity = _Right_data._Myres;
; 2683 :         // overflow is OK due to max_size() checks:
; 2684 :         const auto _New_size     = static_cast<size_type>(_Left_size + _Right_size);

  00031	8d 04 0a	 lea	 eax, DWORD PTR [edx+ecx]
  00034	89 45 0c	 mov	 DWORD PTR __New_size$1$[ebp], eax

; 2685 :         const bool _Fits_in_left = _Right_size <= _Left_capacity - _Left_size;

  00037	8b 46 14	 mov	 eax, DWORD PTR [esi+20]
  0003a	2b c1		 sub	 eax, ecx
  0003c	3b d0		 cmp	 edx, eax

; 2686 :         if (_Fits_in_left && _Right_capacity <= _Left_capacity) {

  0003e	8b 47 14	 mov	 eax, DWORD PTR [edi+20]
  00041	77 5a		 ja	 SHORT $LN93@basic_stri
  00043	3b 46 14	 cmp	 eax, DWORD PTR [esi+20]
  00046	77 55		 ja	 SHORT $LN93@basic_stri

; 2869 :         _CSTD memcpy(_My_data_mem, _Right_data_mem, _Memcpy_val_size);

  00048	0f 10 06	 movups	 xmm0, XMMWORD PTR [esi]
  0004b	0f 11 03	 movups	 XMMWORD PTR [ebx], xmm0
  0004e	f3 0f 7e 46 10	 movq	 xmm0, QWORD PTR [esi+16]
  00053	66 0f d6 43 10	 movq	 QWORD PTR [ebx+16], xmm0

; 4596 :         _My_data._Mysize = 0;

  00058	c7 46 10 00 00
	00 00		 mov	 DWORD PTR [esi+16], 0

; 4597 : 
; 4598 : #ifdef __cpp_lib_constexpr_string
; 4599 :         if (_STD is_constant_evaluated()) {
; 4600 :             _My_data._Myres        = _BUF_SIZE; // SSO disabled in constexpr context
; 4601 :             auto& _Al              = _Getal();
; 4602 :             const pointer _New_ptr = _Al.allocate(_BUF_SIZE + 1); // throws
; 4603 :             _My_data._Bx._Ptr      = _New_ptr;
; 4604 : 
; 4605 :             _Elem* const _Raw_new = _Unfancy(_New_ptr);
; 4606 :             _Traits::assign(_Raw_new, _BUF_SIZE + 1, _Elem());
; 4607 :         } else
; 4608 : #endif // __cpp_lib_constexpr_string
; 4609 :         {
; 4610 :             _My_data._Myres = _BUF_SIZE - 1;

  0005f	c7 46 14 0f 00
	00 00		 mov	 DWORD PTR [esi+20], 15	; 0000000fH

; 4611 :             // the _Traits::assign is last so the codegen doesn't think the char write can alias this
; 4612 :             _Traits::assign(_My_data._Bx._Buf[0], _Elem());

  00066	c6 06 00	 mov	 BYTE PTR [esi], 0

; 2296 :         value_type* _Result = _Bx._Buf;

  00069	8b f3		 mov	 esi, ebx

; 2319 :         return _BUF_SIZE <= _Myres;

  0006b	83 7b 14 10	 cmp	 DWORD PTR [ebx+20], 16	; 00000010H

; 2297 :         if (_Large_string_engaged()) {

  0006f	72 02		 jb	 SHORT $LN29@basic_stri

; 2298 :             _Result = _Unfancy(_Bx._Ptr);

  00071	8b 33		 mov	 esi, DWORD PTR [ebx]
$LN29@basic_stri:

; 2319 :         return _BUF_SIZE <= _Myres;

  00073	83 7f 14 10	 cmp	 DWORD PTR [edi+20], 16	; 00000010H

; 2297 :         if (_Large_string_engaged()) {

  00077	72 02		 jb	 SHORT $LN34@basic_stri

; 2298 :             _Result = _Unfancy(_Bx._Ptr);

  00079	8b 3f		 mov	 edi, DWORD PTR [edi]
$LN34@basic_stri:

; 2687 :             // take _Left's buffer, max_size() is OK because _Fits_in_left
; 2688 :             _My_data._Alloc_proxy(_GET_PROXY_ALLOCATOR(_Alty, _Getal())); // throws, hereafter nothrow in this block
; 2689 :             _Take_contents(_Left);
; 2690 :             const auto _Ptr = _My_data._Myptr();
; 2691 :             _Traits::copy(_Ptr + _Left_size, _Right_data._Myptr(), _Right_size + 1);

  0007b	8d 42 01	 lea	 eax, DWORD PTR [edx+1]

; 65   :         _CSTD memcpy(_First1, _First2, _Count * sizeof(_Elem));

  0007e	50		 push	 eax

; 2687 :             // take _Left's buffer, max_size() is OK because _Fits_in_left
; 2688 :             _My_data._Alloc_proxy(_GET_PROXY_ALLOCATOR(_Alty, _Getal())); // throws, hereafter nothrow in this block
; 2689 :             _Take_contents(_Left);
; 2690 :             const auto _Ptr = _My_data._Myptr();
; 2691 :             _Traits::copy(_Ptr + _Left_size, _Right_data._Myptr(), _Right_size + 1);

  0007f	8d 04 0e	 lea	 eax, DWORD PTR [esi+ecx]

; 65   :         _CSTD memcpy(_First1, _First2, _Count * sizeof(_Elem));

  00082	57		 push	 edi
  00083	50		 push	 eax
  00084	e8 00 00 00 00	 call	 _memcpy

; 2692 :             _My_data._Mysize = _New_size;

  00089	8b 45 0c	 mov	 eax, DWORD PTR __New_size$1$[ebp]

; 2739 :         _Proxy._Release();
; 2740 :     }

  0008c	83 c4 0c	 add	 esp, 12			; 0000000cH
  0008f	89 43 10	 mov	 DWORD PTR [ebx+16], eax
  00092	8b c3		 mov	 eax, ebx
  00094	5f		 pop	 edi
  00095	5e		 pop	 esi
  00096	5b		 pop	 ebx
  00097	8b e5		 mov	 esp, ebp
  00099	5d		 pop	 ebp
  0009a	c2 0c 00	 ret	 12			; 0000000cH
$LN93@basic_stri:

; 2693 :             return;
; 2694 :         }
; 2695 : 
; 2696 :         const bool _Fits_in_right = _Left_size <= _Right_capacity - _Right_size;

  0009d	2b c2		 sub	 eax, edx
  0009f	3b c8		 cmp	 ecx, eax

; 2697 :         if (_Allocators_equal(_Getal(), _Right._Getal()) && _Fits_in_right) {

  000a1	77 5b		 ja	 SHORT $LN92@basic_stri

; 2869 :         _CSTD memcpy(_My_data_mem, _Right_data_mem, _Memcpy_val_size);

  000a3	0f 10 07	 movups	 xmm0, XMMWORD PTR [edi]

; 2711 :             _Traits::move(_Ptr + _Left_size, _Ptr, _Right_size + 1);

  000a6	8d 42 01	 lea	 eax, DWORD PTR [edx+1]

; 122  :         _CSTD memmove(_First1, _First2, _Count * sizeof(_Elem));

  000a9	50		 push	 eax

; 2869 :         _CSTD memcpy(_My_data_mem, _Right_data_mem, _Memcpy_val_size);

  000aa	0f 11 03	 movups	 XMMWORD PTR [ebx], xmm0
  000ad	f3 0f 7e 47 10	 movq	 xmm0, QWORD PTR [edi+16]
  000b2	66 0f d6 43 10	 movq	 QWORD PTR [ebx+16], xmm0

; 4596 :         _My_data._Mysize = 0;

  000b7	c7 47 10 00 00
	00 00		 mov	 DWORD PTR [edi+16], 0

; 4597 : 
; 4598 : #ifdef __cpp_lib_constexpr_string
; 4599 :         if (_STD is_constant_evaluated()) {
; 4600 :             _My_data._Myres        = _BUF_SIZE; // SSO disabled in constexpr context
; 4601 :             auto& _Al              = _Getal();
; 4602 :             const pointer _New_ptr = _Al.allocate(_BUF_SIZE + 1); // throws
; 4603 :             _My_data._Bx._Ptr      = _New_ptr;
; 4604 : 
; 4605 :             _Elem* const _Raw_new = _Unfancy(_New_ptr);
; 4606 :             _Traits::assign(_Raw_new, _BUF_SIZE + 1, _Elem());
; 4607 :         } else
; 4608 : #endif // __cpp_lib_constexpr_string
; 4609 :         {
; 4610 :             _My_data._Myres = _BUF_SIZE - 1;

  000be	c7 47 14 0f 00
	00 00		 mov	 DWORD PTR [edi+20], 15	; 0000000fH

; 4611 :             // the _Traits::assign is last so the codegen doesn't think the char write can alias this
; 4612 :             _Traits::assign(_My_data._Bx._Buf[0], _Elem());

  000c5	c6 07 00	 mov	 BYTE PTR [edi], 0

; 2698 :             // take _Right's buffer, max_size() is OK because _Fits_in_right
; 2699 :             // At this point, we have tested:
; 2700 :             // !(_Fits_in_left && _Right_capacity <= _Left_capacity) && _Fits_in_right
; 2701 :             // therefore: (by De Morgan's Laws)
; 2702 :             // (!_Fits_in_left || _Right_capacity > _Left_capacity) && _Fits_in_right
; 2703 :             // therefore: (by the distributive property)
; 2704 :             // (!_Fits_in_left && _Fits_in_right)  // implying _Right has more capacity
; 2705 :             //     || (_Right_capacity > _Left_capacity && _Fits_in_right)  // tests that _Right has more capacity
; 2706 :             // therefore: _Right must have more than the minimum capacity, so it must be _Large_string_engaged()
; 2707 :             _STL_INTERNAL_CHECK(_Right_data._Large_string_engaged());
; 2708 :             _My_data._Alloc_proxy(_GET_PROXY_ALLOCATOR(_Alty, _Getal())); // throws, hereafter nothrow in this block
; 2709 :             _Take_contents(_Right);
; 2710 :             const auto _Ptr = _Unfancy(_My_data._Bx._Ptr);

  000c8	8b 3b		 mov	 edi, DWORD PTR [ebx]

; 122  :         _CSTD memmove(_First1, _First2, _Count * sizeof(_Elem));

  000ca	57		 push	 edi

; 2711 :             _Traits::move(_Ptr + _Left_size, _Ptr, _Right_size + 1);

  000cb	8d 04 0f	 lea	 eax, DWORD PTR [edi+ecx]

; 122  :         _CSTD memmove(_First1, _First2, _Count * sizeof(_Elem));

  000ce	50		 push	 eax
  000cf	e8 00 00 00 00	 call	 _memmove
  000d4	83 c4 0c	 add	 esp, 12			; 0000000cH

; 2319 :         return _BUF_SIZE <= _Myres;

  000d7	83 7e 14 10	 cmp	 DWORD PTR [esi+20], 16	; 00000010H

; 2297 :         if (_Large_string_engaged()) {

  000db	72 02		 jb	 SHORT $LN57@basic_stri

; 2298 :             _Result = _Unfancy(_Bx._Ptr);

  000dd	8b 36		 mov	 esi, DWORD PTR [esi]
$LN57@basic_stri:

; 65   :         _CSTD memcpy(_First1, _First2, _Count * sizeof(_Elem));

  000df	8b 45 fc	 mov	 eax, DWORD PTR __Left_size$1$[ebp]
  000e2	50		 push	 eax
  000e3	56		 push	 esi
  000e4	57		 push	 edi
  000e5	e8 00 00 00 00	 call	 _memcpy

; 2712 :             _Traits::copy(_Ptr, _Left_data._Myptr(), _Left_size);
; 2713 :             _My_data._Mysize = _New_size;

  000ea	8b 45 0c	 mov	 eax, DWORD PTR __New_size$1$[ebp]

; 2739 :         _Proxy._Release();
; 2740 :     }

  000ed	83 c4 0c	 add	 esp, 12			; 0000000cH
  000f0	89 43 10	 mov	 DWORD PTR [ebx+16], eax
  000f3	8b c3		 mov	 eax, ebx
  000f5	5f		 pop	 edi
  000f6	5e		 pop	 esi
  000f7	5b		 pop	 ebx
  000f8	8b e5		 mov	 esp, ebp
  000fa	5d		 pop	 ebp
  000fb	c2 0c 00	 ret	 12			; 0000000cH
$LN92@basic_stri:

; 2714 :             return;
; 2715 :         }
; 2716 : 
; 2717 :         // can't use either buffer, reallocate
; 2718 :         const auto _Max = max_size();
; 2719 :         if (_Max - _Left_size < _Right_size) { // check if max_size() is OK

  000fe	b8 ff ff ff 7f	 mov	 eax, 2147483647		; 7fffffffH
  00103	2b c1		 sub	 eax, ecx
  00105	3b c2		 cmp	 eax, edx
  00107	0f 82 ae 00 00
	00		 jb	 $LN100@basic_stri

; 4488 :         const size_type _Masked = _Requested | _ALLOC_MASK;

  0010d	8b 45 0c	 mov	 eax, DWORD PTR __New_size$1$[ebp]
  00110	83 c8 0f	 or	 eax, 15			; 0000000fH
  00113	3d ff ff ff 7f	 cmp	 eax, 2147483647		; 7fffffffH

; 4489 :         if (_Masked > _Max) { // the mask overflows, settle for max_size()

  00118	76 0e		 jbe	 SHORT $LN64@basic_stri

; 4490 :             return _Max;

  0011a	c7 45 f8 ff ff
	ff 7f		 mov	 DWORD PTR __New_capacity$1$[ebp], 2147483647 ; 7fffffffH
  00121	ba 00 00 00 80	 mov	 edx, -2147483648	; 80000000H
  00126	eb 18		 jmp	 SHORT $LN94@basic_stri
$LN64@basic_stri:
; File C:\Program Files (x86)\Microsoft Visual Studio\2019\Professional\VC\Tools\MSVC\14.29.30133\include\utility

; 44   :     return _Left < _Right ? _Right : _Left;

  00128	ba 16 00 00 00	 mov	 edx, 22			; 00000016H
  0012d	3b c2		 cmp	 eax, edx
  0012f	0f 42 c2	 cmovb	 eax, edx
  00132	89 45 f8	 mov	 DWORD PTR __New_capacity$1$[ebp], eax
; File C:\Program Files (x86)\Microsoft Visual Studio\2019\Professional\VC\Tools\MSVC\14.29.30133\include\xstring

; 2726 :         const pointer _Fancyptr = _Getal().allocate(_New_capacity + 1); // throws

  00135	8d 50 01	 lea	 edx, DWORD PTR [eax+1]
; File C:\Program Files (x86)\Microsoft Visual Studio\2019\Professional\VC\Tools\MSVC\14.29.30133\include\xmemory

; 237  :         if (_Bytes >= _Big_allocation_threshold) { // boost the alignment of big allocations to help autovectorization

  00138	81 fa 00 10 00
	00		 cmp	 edx, 4096		; 00001000H
  0013e	72 13		 jb	 SHORT $LN72@basic_stri
$LN94@basic_stri:

; 238  :             return _Allocate_manually_vector_aligned<_Traits>(_Bytes);

  00140	52		 push	 edx
  00141	e8 00 00 00 00	 call	 ??$_Allocate_manually_vector_aligned@U_Default_allocate_traits@std@@@std@@YAPAXI@Z ; std::_Allocate_manually_vector_aligned<std::_Default_allocate_traits>
  00146	8b 4d fc	 mov	 ecx, DWORD PTR __Left_size$1$[ebp]
  00149	8b d0		 mov	 edx, eax
  0014b	8b 45 f8	 mov	 eax, DWORD PTR __New_capacity$1$[ebp]
  0014e	83 c4 04	 add	 esp, 4
  00151	eb 1c		 jmp	 SHORT $LN98@basic_stri
$LN72@basic_stri:

; 239  :         }
; 240  :     }
; 241  : #endif // defined(_M_IX86) || defined(_M_X64)
; 242  : 
; 243  :     if (_Bytes != 0) {

  00153	85 d2		 test	 edx, edx
  00155	74 16		 je	 SHORT $LN73@basic_stri

; 85   :         return ::operator new(_Bytes);

  00157	52		 push	 edx
  00158	e8 00 00 00 00	 call	 ??2@YAPAXI@Z		; operator new

; 244  :         return _Traits::_Allocate(_Bytes);

  0015d	8b 4d fc	 mov	 ecx, DWORD PTR __Left_size$1$[ebp]
  00160	8b d0		 mov	 edx, eax
  00162	89 45 f4	 mov	 DWORD PTR $T1[ebp], eax

; 85   :         return ::operator new(_Bytes);

  00165	83 c4 04	 add	 esp, 4

; 244  :         return _Traits::_Allocate(_Bytes);

  00168	8b 45 f8	 mov	 eax, DWORD PTR __New_capacity$1$[ebp]
  0016b	eb 05		 jmp	 SHORT $LN71@basic_stri
$LN73@basic_stri:

; 245  :     }
; 246  : 
; 247  :     return nullptr;

  0016d	33 d2		 xor	 edx, edx
$LN98@basic_stri:
; File C:\Program Files (x86)\Microsoft Visual Studio\2019\Professional\VC\Tools\MSVC\14.29.30133\include\xstring

; 2733 :         _Construct_in_place(_My_data._Bx._Ptr, _Fancyptr);

  0016f	89 55 f4	 mov	 DWORD PTR $T1[ebp], edx
$LN71@basic_stri:

; 2734 :         _My_data._Mysize = _New_size;

  00172	8b 7d 0c	 mov	 edi, DWORD PTR __New_size$1$[ebp]
  00175	89 7b 10	 mov	 DWORD PTR [ebx+16], edi

; 2297 :         if (_Large_string_engaged()) {

  00178	8b 7d 10	 mov	 edi, DWORD PTR __Right$[ebp]

; 2733 :         _Construct_in_place(_My_data._Bx._Ptr, _Fancyptr);

  0017b	89 13		 mov	 DWORD PTR [ebx], edx

; 2735 :         _My_data._Myres  = _New_capacity;

  0017d	89 43 14	 mov	 DWORD PTR [ebx+20], eax

; 2319 :         return _BUF_SIZE <= _Myres;

  00180	83 7e 14 10	 cmp	 DWORD PTR [esi+20], 16	; 00000010H

; 2297 :         if (_Large_string_engaged()) {

  00184	72 02		 jb	 SHORT $LN78@basic_stri

; 2298 :             _Result = _Unfancy(_Bx._Ptr);

  00186	8b 36		 mov	 esi, DWORD PTR [esi]
$LN78@basic_stri:

; 65   :         _CSTD memcpy(_First1, _First2, _Count * sizeof(_Elem));

  00188	51		 push	 ecx
  00189	56		 push	 esi
  0018a	52		 push	 edx
  0018b	e8 00 00 00 00	 call	 _memcpy
  00190	83 c4 0c	 add	 esp, 12			; 0000000cH

; 2319 :         return _BUF_SIZE <= _Myres;

  00193	83 7f 14 10	 cmp	 DWORD PTR [edi+20], 16	; 00000010H

; 2297 :         if (_Large_string_engaged()) {

  00197	72 02		 jb	 SHORT $LN85@basic_stri

; 2298 :             _Result = _Unfancy(_Bx._Ptr);

  00199	8b 3f		 mov	 edi, DWORD PTR [edi]
$LN85@basic_stri:

; 2736 :         const auto _Ptr  = _Unfancy(_Fancyptr);
; 2737 :         _Traits::copy(_Ptr, _Left_data._Myptr(), _Left_size);
; 2738 :         _Traits::copy(_Ptr + _Left_size, _Right_data._Myptr(), _Right_size + 1);

  0019b	8b 45 f0	 mov	 eax, DWORD PTR __Right_size$1$[ebp]
  0019e	40		 inc	 eax

; 65   :         _CSTD memcpy(_First1, _First2, _Count * sizeof(_Elem));

  0019f	50		 push	 eax

; 2736 :         const auto _Ptr  = _Unfancy(_Fancyptr);
; 2737 :         _Traits::copy(_Ptr, _Left_data._Myptr(), _Left_size);
; 2738 :         _Traits::copy(_Ptr + _Left_size, _Right_data._Myptr(), _Right_size + 1);

  001a0	8b 45 fc	 mov	 eax, DWORD PTR __Left_size$1$[ebp]
  001a3	03 45 f4	 add	 eax, DWORD PTR $T1[ebp]

; 65   :         _CSTD memcpy(_First1, _First2, _Count * sizeof(_Elem));

  001a6	57		 push	 edi
  001a7	50		 push	 eax
  001a8	e8 00 00 00 00	 call	 _memcpy

; 2739 :         _Proxy._Release();
; 2740 :     }

  001ad	83 c4 0c	 add	 esp, 12			; 0000000cH
  001b0	8b c3		 mov	 eax, ebx
  001b2	5f		 pop	 edi
  001b3	5e		 pop	 esi
  001b4	5b		 pop	 ebx
  001b5	8b e5		 mov	 esp, ebp
  001b7	5d		 pop	 ebp
  001b8	c2 0c 00	 ret	 12			; 0000000cH
$LN100@basic_stri:

; 2720 :             _Xlen_string();

  001bb	e8 00 00 00 00	 call	 ?_Xlen_string@std@@YAXXZ ; std::_Xlen_string
$LN96@basic_stri:
  001c0	cc		 int	 3
??0?$basic_string@DU?$char_traits@D@std@@V?$allocator@D@2@@std@@QAE@U_String_constructor_concat_tag@1@AAV01@1@Z ENDP ; std::basic_string<char,std::char_traits<char>,std::allocator<char> >::basic_string<char,std::char_traits<char>,std::allocator<char> >
_TEXT	ENDS
; Function compile flags: /Ogtp
; File C:\Program Files (x86)\Microsoft Visual Studio\2019\Professional\VC\Tools\MSVC\14.29.30133\include\xstring
; File C:\Program Files (x86)\Microsoft Visual Studio\2019\Professional\VC\Tools\MSVC\14.29.30133\include\xmemory
; File C:\Program Files (x86)\Microsoft Visual Studio\2019\Professional\VC\Tools\MSVC\14.29.30133\include\utility
; File C:\Program Files (x86)\Microsoft Visual Studio\2019\Professional\VC\Tools\MSVC\14.29.30133\include\xstring
; File C:\Program Files (x86)\Microsoft Visual Studio\2019\Professional\VC\Tools\MSVC\14.29.30133\include\xmemory
; File C:\Program Files (x86)\Microsoft Visual Studio\2019\Professional\VC\Tools\MSVC\14.29.30133\include\xstring
;	COMDAT ??0?$basic_string@DU?$char_traits@D@std@@V?$allocator@D@2@@std@@QAE@QBD@Z
_TEXT	SEGMENT
$T1 = -4						; size = 4
__Ptr$ = 8						; size = 4
??0?$basic_string@DU?$char_traits@D@std@@V?$allocator@D@2@@std@@QAE@QBD@Z PROC ; std::basic_string<char,std::char_traits<char>,std::allocator<char> >::basic_string<char,std::char_traits<char>,std::allocator<char> >, COMDAT
; _this$ = ecx

; 2517 :     _CONSTEXPR20_CONTAINER basic_string(_In_z_ const _Elem* const _Ptr) : _Mypair(_Zero_then_variadic_args_t{}) {

  00000	55		 push	 ebp
  00001	8b ec		 mov	 ebp, esp
  00003	51		 push	 ecx
  00004	53		 push	 ebx
  00005	56		 push	 esi
  00006	8b d9		 mov	 ebx, ecx
  00008	57		 push	 edi

; 412  :         return _CSTD strlen(reinterpret_cast<const char*>(_First));

  00009	8b 7d 08	 mov	 edi, DWORD PTR __Ptr$[ebp]
  0000c	8b f7		 mov	 esi, edi

; 2346 :         _CONSTEXPR20_CONTAINER _Bxty() noexcept : _Ptr() {} // user-provided, for fancy pointers

  0000e	c7 03 00 00 00
	00		 mov	 DWORD PTR [ebx], 0

; 4596 :         _My_data._Mysize = 0;

  00014	c7 43 10 00 00
	00 00		 mov	 DWORD PTR [ebx+16], 0

; 4597 : 
; 4598 : #ifdef __cpp_lib_constexpr_string
; 4599 :         if (_STD is_constant_evaluated()) {
; 4600 :             _My_data._Myres        = _BUF_SIZE; // SSO disabled in constexpr context
; 4601 :             auto& _Al              = _Getal();
; 4602 :             const pointer _New_ptr = _Al.allocate(_BUF_SIZE + 1); // throws
; 4603 :             _My_data._Bx._Ptr      = _New_ptr;
; 4604 : 
; 4605 :             _Elem* const _Raw_new = _Unfancy(_New_ptr);
; 4606 :             _Traits::assign(_Raw_new, _BUF_SIZE + 1, _Elem());
; 4607 :         } else
; 4608 : #endif // __cpp_lib_constexpr_string
; 4609 :         {
; 4610 :             _My_data._Myres = _BUF_SIZE - 1;

  0001b	c7 43 14 0f 00
	00 00		 mov	 DWORD PTR [ebx+20], 15	; 0000000fH

; 412  :         return _CSTD strlen(reinterpret_cast<const char*>(_First));

  00022	8d 4e 01	 lea	 ecx, DWORD PTR [esi+1]
$LL74@basic_stri:
  00025	8a 06		 mov	 al, BYTE PTR [esi]
  00027	46		 inc	 esi
  00028	84 c0		 test	 al, al
  0002a	75 f9		 jne	 SHORT $LL74@basic_stri
  0002c	2b f1		 sub	 esi, ecx

; 3246 :         if (_Count <= _Mypair._Myval2._Myres) {

  0002e	83 fe 0f	 cmp	 esi, 15			; 0000000fH
  00031	77 1d		 ja	 SHORT $LN18@basic_stri

; 122  :         _CSTD memmove(_First1, _First2, _Count * sizeof(_Elem));

  00033	56		 push	 esi
  00034	57		 push	 edi
  00035	53		 push	 ebx

; 3248 :             _Mypair._Myval2._Mysize = _Count;

  00036	89 73 10	 mov	 DWORD PTR [ebx+16], esi

; 122  :         _CSTD memmove(_First1, _First2, _Count * sizeof(_Elem));

  00039	e8 00 00 00 00	 call	 _memmove

; 2518 :         auto&& _Alproxy = _GET_PROXY_ALLOCATOR(_Alty, _Getal());
; 2519 :         _Container_proxy_ptr<_Alty> _Proxy(_Alproxy, _Mypair._Myval2);
; 2520 :         _Tidy_init();
; 2521 :         assign(_Ptr);
; 2522 :         _Proxy._Release();
; 2523 :     }

  0003e	83 c4 0c	 add	 esp, 12			; 0000000cH

; 3250 :             _Traits::assign(_Old_ptr[_Count], _Elem());

  00041	c6 04 1e 00	 mov	 BYTE PTR [esi+ebx], 0

; 2518 :         auto&& _Alproxy = _GET_PROXY_ALLOCATOR(_Alty, _Getal());
; 2519 :         _Container_proxy_ptr<_Alty> _Proxy(_Alproxy, _Mypair._Myval2);
; 2520 :         _Tidy_init();
; 2521 :         assign(_Ptr);
; 2522 :         _Proxy._Release();
; 2523 :     }

  00045	8b c3		 mov	 eax, ebx
  00047	5f		 pop	 edi
  00048	5e		 pop	 esi
  00049	5b		 pop	 ebx
  0004a	8b e5		 mov	 esp, ebp
  0004c	5d		 pop	 ebp
  0004d	c2 04 00	 ret	 4
$LN18@basic_stri:

; 4508 :         if (_New_size > max_size()) {

  00050	81 fe ff ff ff
	7f		 cmp	 esi, 2147483647		; 7fffffffH
  00056	77 7c		 ja	 SHORT $LN79@basic_stri

; 4488 :         const size_type _Masked = _Requested | _ALLOC_MASK;

  00058	8b fe		 mov	 edi, esi
  0005a	83 cf 0f	 or	 edi, 15			; 0000000fH
  0005d	81 ff ff ff ff
	7f		 cmp	 edi, 2147483647		; 7fffffffH

; 4489 :         if (_Masked > _Max) { // the mask overflows, settle for max_size()

  00063	76 15		 jbe	 SHORT $LN35@basic_stri

; 4490 :             return _Max;

  00065	b8 00 00 00 80	 mov	 eax, -2147483648	; 80000000H
  0006a	bf ff ff ff 7f	 mov	 edi, 2147483647		; 7fffffffH
; File C:\Program Files (x86)\Microsoft Visual Studio\2019\Professional\VC\Tools\MSVC\14.29.30133\include\xmemory

; 238  :             return _Allocate_manually_vector_aligned<_Traits>(_Bytes);

  0006f	50		 push	 eax
  00070	e8 00 00 00 00	 call	 ??$_Allocate_manually_vector_aligned@U_Default_allocate_traits@std@@@std@@YAPAXI@Z ; std::_Allocate_manually_vector_aligned<std::_Default_allocate_traits>
  00075	83 c4 04	 add	 esp, 4
  00078	eb 30		 jmp	 SHORT $LN77@basic_stri
$LN35@basic_stri:
; File C:\Program Files (x86)\Microsoft Visual Studio\2019\Professional\VC\Tools\MSVC\14.29.30133\include\utility

; 44   :     return _Left < _Right ? _Right : _Left;

  0007a	b8 16 00 00 00	 mov	 eax, 22			; 00000016H
  0007f	3b f8		 cmp	 edi, eax
  00081	0f 42 f8	 cmovb	 edi, eax
; File C:\Program Files (x86)\Microsoft Visual Studio\2019\Professional\VC\Tools\MSVC\14.29.30133\include\xstring

; 4515 :         const pointer _New_ptr        = _Al.allocate(_New_capacity + 1); // throws

  00084	8d 47 01	 lea	 eax, DWORD PTR [edi+1]
; File C:\Program Files (x86)\Microsoft Visual Studio\2019\Professional\VC\Tools\MSVC\14.29.30133\include\xmemory

; 237  :         if (_Bytes >= _Big_allocation_threshold) { // boost the alignment of big allocations to help autovectorization

  00087	3d 00 10 00 00	 cmp	 eax, 4096		; 00001000H
  0008c	72 0b		 jb	 SHORT $LN43@basic_stri

; 238  :             return _Allocate_manually_vector_aligned<_Traits>(_Bytes);

  0008e	50		 push	 eax
  0008f	e8 00 00 00 00	 call	 ??$_Allocate_manually_vector_aligned@U_Default_allocate_traits@std@@@std@@YAPAXI@Z ; std::_Allocate_manually_vector_aligned<std::_Default_allocate_traits>
  00094	83 c4 04	 add	 esp, 4
  00097	eb 11		 jmp	 SHORT $LN77@basic_stri
$LN43@basic_stri:

; 239  :         }
; 240  :     }
; 241  : #endif // defined(_M_IX86) || defined(_M_X64)
; 242  : 
; 243  :     if (_Bytes != 0) {

  00099	85 c0		 test	 eax, eax
  0009b	74 0b		 je	 SHORT $LN44@basic_stri

; 85   :         return ::operator new(_Bytes);

  0009d	50		 push	 eax
  0009e	e8 00 00 00 00	 call	 ??2@YAPAXI@Z		; operator new
  000a3	83 c4 04	 add	 esp, 4

; 244  :         return _Traits::_Allocate(_Bytes);

  000a6	eb 02		 jmp	 SHORT $LN77@basic_stri
$LN44@basic_stri:

; 245  :     }
; 246  : 
; 247  :     return nullptr;

  000a8	33 c0		 xor	 eax, eax
$LN77@basic_stri:
; File C:\Program Files (x86)\Microsoft Visual Studio\2019\Professional\VC\Tools\MSVC\14.29.30133\include\xstring

; 65   :         _CSTD memcpy(_First1, _First2, _Count * sizeof(_Elem));

  000aa	56		 push	 esi
  000ab	ff 75 08	 push	 DWORD PTR __Ptr$[ebp]

; 4523 :         _Mypair._Myval2._Mysize = _New_size;

  000ae	89 45 fc	 mov	 DWORD PTR $T1[ebp], eax

; 65   :         _CSTD memcpy(_First1, _First2, _Count * sizeof(_Elem));

  000b1	50		 push	 eax

; 4523 :         _Mypair._Myval2._Mysize = _New_size;

  000b2	89 73 10	 mov	 DWORD PTR [ebx+16], esi

; 4524 :         _Mypair._Myval2._Myres  = _New_capacity;

  000b5	89 7b 14	 mov	 DWORD PTR [ebx+20], edi

; 65   :         _CSTD memcpy(_First1, _First2, _Count * sizeof(_Elem));

  000b8	e8 00 00 00 00	 call	 _memcpy

; 3258 :                 _Traits::assign(_New_ptr[_Count], _Elem());

  000bd	8b 45 fc	 mov	 eax, DWORD PTR $T1[ebp]

; 2518 :         auto&& _Alproxy = _GET_PROXY_ALLOCATOR(_Alty, _Getal());
; 2519 :         _Container_proxy_ptr<_Alty> _Proxy(_Alproxy, _Mypair._Myval2);
; 2520 :         _Tidy_init();
; 2521 :         assign(_Ptr);
; 2522 :         _Proxy._Release();
; 2523 :     }

  000c0	83 c4 0c	 add	 esp, 12			; 0000000cH

; 3258 :                 _Traits::assign(_New_ptr[_Count], _Elem());

  000c3	c6 04 30 00	 mov	 BYTE PTR [eax+esi], 0

; 2518 :         auto&& _Alproxy = _GET_PROXY_ALLOCATOR(_Alty, _Getal());
; 2519 :         _Container_proxy_ptr<_Alty> _Proxy(_Alproxy, _Mypair._Myval2);
; 2520 :         _Tidy_init();
; 2521 :         assign(_Ptr);
; 2522 :         _Proxy._Release();
; 2523 :     }

  000c7	5f		 pop	 edi

; 4530 :             _Construct_in_place(_Mypair._Myval2._Bx._Ptr, _New_ptr);

  000c8	89 03		 mov	 DWORD PTR [ebx], eax

; 2518 :         auto&& _Alproxy = _GET_PROXY_ALLOCATOR(_Alty, _Getal());
; 2519 :         _Container_proxy_ptr<_Alty> _Proxy(_Alproxy, _Mypair._Myval2);
; 2520 :         _Tidy_init();
; 2521 :         assign(_Ptr);
; 2522 :         _Proxy._Release();
; 2523 :     }

  000ca	8b c3		 mov	 eax, ebx
  000cc	5e		 pop	 esi
  000cd	5b		 pop	 ebx
  000ce	8b e5		 mov	 esp, ebp
  000d0	5d		 pop	 ebp
  000d1	c2 04 00	 ret	 4
$LN79@basic_stri:

; 4509 :             _Xlen_string(); // result too long

  000d4	e8 00 00 00 00	 call	 ?_Xlen_string@std@@YAXXZ ; std::_Xlen_string
$LN75@basic_stri:
  000d9	cc		 int	 3
??0?$basic_string@DU?$char_traits@D@std@@V?$allocator@D@2@@std@@QAE@QBD@Z ENDP ; std::basic_string<char,std::char_traits<char>,std::allocator<char> >::basic_string<char,std::char_traits<char>,std::allocator<char> >
_TEXT	ENDS
; Function compile flags: /Ogtp
; File C:\Program Files (x86)\Microsoft Visual Studio\2019\Professional\VC\Tools\MSVC\14.29.30133\include\xstring
; File C:\Program Files (x86)\Microsoft Visual Studio\2019\Professional\VC\Tools\MSVC\14.29.30133\include\utility
; File C:\Program Files (x86)\Microsoft Visual Studio\2019\Professional\VC\Tools\MSVC\14.29.30133\include\xstring
; File C:\Program Files (x86)\Microsoft Visual Studio\2019\Professional\VC\Tools\MSVC\14.29.30133\include\utility
; File C:\Program Files (x86)\Microsoft Visual Studio\2019\Professional\VC\Tools\MSVC\14.29.30133\include\xstring
; File C:\Program Files (x86)\Microsoft Visual Studio\2019\Professional\VC\Tools\MSVC\14.29.30133\include\xmemory
; File C:\Program Files (x86)\Microsoft Visual Studio\2019\Professional\VC\Tools\MSVC\14.29.30133\include\xstring
;	COMDAT ??0?$basic_string@DU?$char_traits@D@std@@V?$allocator@D@2@@std@@QAE@ABV01@@Z
_TEXT	SEGMENT
__Right_size$1$ = 8					; size = 4
__Right$ = 8						; size = 4
??0?$basic_string@DU?$char_traits@D@std@@V?$allocator@D@2@@std@@QAE@ABV01@@Z PROC ; std::basic_string<char,std::char_traits<char>,std::allocator<char> >::basic_string<char,std::char_traits<char>,std::allocator<char> >, COMDAT
; _this$ = ecx

; 2451 :         : _Mypair(_One_then_variadic_args_t{}, _Alty_traits::select_on_container_copy_construction(_Right._Getal())) {

  00000	55		 push	 ebp
  00001	8b ec		 mov	 ebp, esp
  00003	53		 push	 ebx
  00004	56		 push	 esi
  00005	8b f1		 mov	 esi, ecx
  00007	57		 push	 edi

; 2921 :         const size_type _Right_size   = _Right_data._Mysize;

  00008	8b 7d 08	 mov	 edi, DWORD PTR __Right$[ebp]

; 2346 :         _CONSTEXPR20_CONTAINER _Bxty() noexcept : _Ptr() {} // user-provided, for fancy pointers

  0000b	c7 06 00 00 00
	00		 mov	 DWORD PTR [esi], 0

; 2355 :     size_type _Mysize = 0; // current length of string

  00011	c7 46 10 00 00
	00 00		 mov	 DWORD PTR [esi+16], 0

; 2356 :     size_type _Myres  = 0; // current storage reserved for string

  00018	c7 46 14 00 00
	00 00		 mov	 DWORD PTR [esi+20], 0

; 2319 :         return _BUF_SIZE <= _Myres;

  0001f	83 7f 14 10	 cmp	 DWORD PTR [edi+20], 16	; 00000010H

; 2921 :         const size_type _Right_size   = _Right_data._Mysize;

  00023	8b 4f 10	 mov	 ecx, DWORD PTR [edi+16]
  00026	89 4d 08	 mov	 DWORD PTR __Right_size$1$[ebp], ecx

; 2306 :         if (_Large_string_engaged()) {

  00029	72 02		 jb	 SHORT $LN15@basic_stri

; 2307 :             _Result = _Unfancy(_Bx._Ptr);

  0002b	8b 3f		 mov	 edi, DWORD PTR [edi]
$LN15@basic_stri:

; 2928 :         const bool _Stay_small = _Right_size < _BUF_SIZE;

  0002d	83 f9 10	 cmp	 ecx, 16			; 00000010H

; 2929 : #endif // __cpp_lib_constexpr_string
; 2930 : 
; 2931 :         // NOTE: even if _Right is in large mode, we only go into large mode ourselves if the actual size of _Right
; 2932 :         // requires it
; 2933 :         if (_Stay_small) { // stay small, don't allocate

  00030	73 1a		 jae	 SHORT $LN12@basic_stri

; 65   :         _CSTD memcpy(_First1, _First2, _Count * sizeof(_Elem));

  00032	0f 10 07	 movups	 xmm0, XMMWORD PTR [edi]

; 2936 :             _My_data._Myres  = _BUF_SIZE - 1;

  00035	bb 0f 00 00 00	 mov	 ebx, 15			; 0000000fH

; 2452 :         auto&& _Alproxy = _GET_PROXY_ALLOCATOR(_Alty, _Getal());
; 2453 :         _Container_proxy_ptr<_Alty> _Proxy(_Alproxy, _Mypair._Myval2);
; 2454 :         _Construct_lv_contents(_Right);
; 2455 :         _Proxy._Release();
; 2456 :     }

  0003a	8b c6		 mov	 eax, esi
  0003c	5f		 pop	 edi

; 65   :         _CSTD memcpy(_First1, _First2, _Count * sizeof(_Elem));

  0003d	0f 11 06	 movups	 XMMWORD PTR [esi], xmm0

; 2452 :         auto&& _Alproxy = _GET_PROXY_ALLOCATOR(_Alty, _Getal());
; 2453 :         _Container_proxy_ptr<_Alty> _Proxy(_Alproxy, _Mypair._Myval2);
; 2454 :         _Construct_lv_contents(_Right);
; 2455 :         _Proxy._Release();
; 2456 :     }

  00040	89 4e 10	 mov	 DWORD PTR [esi+16], ecx
  00043	89 5e 14	 mov	 DWORD PTR [esi+20], ebx
  00046	5e		 pop	 esi
  00047	5b		 pop	 ebx
  00048	5d		 pop	 ebp
  00049	c2 04 00	 ret	 4
$LN12@basic_stri:

; 2941 :         const size_type _New_capacity = (_STD min)(_Right_size | _ALLOC_MASK, max_size());

  0004c	8b d9		 mov	 ebx, ecx
; File C:\Program Files (x86)\Microsoft Visual Studio\2019\Professional\VC\Tools\MSVC\14.29.30133\include\utility

; 68   :     return _Right < _Left ? _Right : _Left;

  0004e	b8 ff ff ff 7f	 mov	 eax, 2147483647		; 7fffffffH
; File C:\Program Files (x86)\Microsoft Visual Studio\2019\Professional\VC\Tools\MSVC\14.29.30133\include\xstring

; 2941 :         const size_type _New_capacity = (_STD min)(_Right_size | _ALLOC_MASK, max_size());

  00053	83 cb 0f	 or	 ebx, 15			; 0000000fH
; File C:\Program Files (x86)\Microsoft Visual Studio\2019\Professional\VC\Tools\MSVC\14.29.30133\include\utility

; 68   :     return _Right < _Left ? _Right : _Left;

  00056	3b d8		 cmp	 ebx, eax
  00058	0f 47 d8	 cmova	 ebx, eax
; File C:\Program Files (x86)\Microsoft Visual Studio\2019\Professional\VC\Tools\MSVC\14.29.30133\include\xstring

; 2942 :         const pointer _New_array      = _Al.allocate(_New_capacity + 1); // throws

  0005b	8d 43 01	 lea	 eax, DWORD PTR [ebx+1]
; File C:\Program Files (x86)\Microsoft Visual Studio\2019\Professional\VC\Tools\MSVC\14.29.30133\include\xmemory

; 237  :         if (_Bytes >= _Big_allocation_threshold) { // boost the alignment of big allocations to help autovectorization

  0005e	3d 00 10 00 00	 cmp	 eax, 4096		; 00001000H
  00063	72 0d		 jb	 SHORT $LN26@basic_stri

; 238  :             return _Allocate_manually_vector_aligned<_Traits>(_Bytes);

  00065	50		 push	 eax
  00066	e8 00 00 00 00	 call	 ??$_Allocate_manually_vector_aligned@U_Default_allocate_traits@std@@@std@@YAPAXI@Z ; std::_Allocate_manually_vector_aligned<std::_Default_allocate_traits>
  0006b	83 c4 04	 add	 esp, 4
  0006e	8b c8		 mov	 ecx, eax
  00070	eb 13		 jmp	 SHORT $LN25@basic_stri
$LN26@basic_stri:

; 239  :         }
; 240  :     }
; 241  : #endif // defined(_M_IX86) || defined(_M_X64)
; 242  : 
; 243  :     if (_Bytes != 0) {

  00072	85 c0		 test	 eax, eax
  00074	74 0d		 je	 SHORT $LN27@basic_stri

; 85   :         return ::operator new(_Bytes);

  00076	50		 push	 eax
  00077	e8 00 00 00 00	 call	 ??2@YAPAXI@Z		; operator new
  0007c	83 c4 04	 add	 esp, 4

; 244  :         return _Traits::_Allocate(_Bytes);

  0007f	8b c8		 mov	 ecx, eax
  00081	eb 02		 jmp	 SHORT $LN25@basic_stri
$LN27@basic_stri:

; 245  :     }
; 246  : 
; 247  :     return nullptr;

  00083	33 c9		 xor	 ecx, ecx
$LN25@basic_stri:
; File C:\Program Files (x86)\Microsoft Visual Studio\2019\Professional\VC\Tools\MSVC\14.29.30133\include\xstring

; 2950 :         _Traits::copy(_Unfancy(_New_array), _Right_ptr, _Right_size + 1);

  00085	8b 45 08	 mov	 eax, DWORD PTR __Right_size$1$[ebp]
  00088	40		 inc	 eax
  00089	89 0e		 mov	 DWORD PTR [esi], ecx

; 65   :         _CSTD memcpy(_First1, _First2, _Count * sizeof(_Elem));

  0008b	50		 push	 eax
  0008c	57		 push	 edi
  0008d	51		 push	 ecx
  0008e	e8 00 00 00 00	 call	 _memcpy
  00093	8b 4d 08	 mov	 ecx, DWORD PTR __Right_size$1$[ebp]
  00096	83 c4 0c	 add	 esp, 12			; 0000000cH

; 2452 :         auto&& _Alproxy = _GET_PROXY_ALLOCATOR(_Alty, _Getal());
; 2453 :         _Container_proxy_ptr<_Alty> _Proxy(_Alproxy, _Mypair._Myval2);
; 2454 :         _Construct_lv_contents(_Right);
; 2455 :         _Proxy._Release();
; 2456 :     }

  00099	89 4e 10	 mov	 DWORD PTR [esi+16], ecx
  0009c	8b c6		 mov	 eax, esi
  0009e	89 5e 14	 mov	 DWORD PTR [esi+20], ebx
  000a1	5f		 pop	 edi
  000a2	5e		 pop	 esi
  000a3	5b		 pop	 ebx
  000a4	5d		 pop	 ebp
  000a5	c2 04 00	 ret	 4
??0?$basic_string@DU?$char_traits@D@std@@V?$allocator@D@2@@std@@QAE@ABV01@@Z ENDP ; std::basic_string<char,std::char_traits<char>,std::allocator<char> >::basic_string<char,std::char_traits<char>,std::allocator<char> >
_TEXT	ENDS
; Function compile flags: /Ogtp
; File C:\Program Files (x86)\Microsoft Visual Studio\2019\Professional\VC\Tools\MSVC\14.29.30133\include\xstring
;	COMDAT ?_Xlen_string@std@@YAXXZ
_TEXT	SEGMENT
?_Xlen_string@std@@YAXXZ PROC				; std::_Xlen_string, COMDAT

; 2374 :     _Xlength_error("string too long");

  00000	68 00 00 00 00	 push	 OFFSET ??_C@_0BA@JFNIOLAK@string?5too?5long@
  00005	e8 00 00 00 00	 call	 ?_Xlength_error@std@@YAXPBD@Z ; std::_Xlength_error
$LN3@Xlen_strin:
  0000a	cc		 int	 3
?_Xlen_string@std@@YAXXZ ENDP				; std::_Xlen_string
_TEXT	ENDS
; Function compile flags: /Ogtp
; File C:\Program Files (x86)\Microsoft Visual Studio\2019\Professional\VC\Tools\MSVC\14.29.30133\include\exception
;	COMDAT ?_Throw_bad_array_new_length@std@@YAXXZ
_TEXT	SEGMENT
$T1 = -12						; size = 12
?_Throw_bad_array_new_length@std@@YAXXZ PROC		; std::_Throw_bad_array_new_length, COMDAT

; 320  : [[noreturn]] inline void _Throw_bad_array_new_length() {

  00000	55		 push	 ebp
  00001	8b ec		 mov	 ebp, esp
  00003	83 ec 0c	 sub	 esp, 12			; 0000000cH

; 321  :     _THROW(bad_array_new_length{});

  00006	8d 4d f4	 lea	 ecx, DWORD PTR $T1[ebp]
  00009	e8 00 00 00 00	 call	 ??0bad_array_new_length@std@@QAE@XZ ; std::bad_array_new_length::bad_array_new_length
  0000e	68 00 00 00 00	 push	 OFFSET __TI3?AVbad_array_new_length@std@@
  00013	8d 45 f4	 lea	 eax, DWORD PTR $T1[ebp]
  00016	50		 push	 eax
  00017	e8 00 00 00 00	 call	 __CxxThrowException@8
$LN3@Throw_bad_:
  0001c	cc		 int	 3
?_Throw_bad_array_new_length@std@@YAXXZ ENDP		; std::_Throw_bad_array_new_length
_TEXT	ENDS
; Function compile flags: /Ogtp
; File C:\Program Files (x86)\Microsoft Visual Studio\2019\Professional\VC\Tools\MSVC\14.29.30133\include\vcruntime_exception.h
;	COMDAT ??_Gbad_array_new_length@std@@UAEPAXI@Z
_TEXT	SEGMENT
___flags$ = 8						; size = 4
??_Gbad_array_new_length@std@@UAEPAXI@Z PROC		; std::bad_array_new_length::`scalar deleting destructor', COMDAT
; _this$ = ecx
  00000	55		 push	 ebp
  00001	8b ec		 mov	 ebp, esp

; 89   :     {

  00003	56		 push	 esi
  00004	8b f1		 mov	 esi, ecx

; 90   :         __std_exception_destroy(&_Data);

  00006	8d 46 04	 lea	 eax, DWORD PTR [esi+4]
  00009	c7 06 00 00 00
	00		 mov	 DWORD PTR [esi], OFFSET ??_7exception@std@@6B@
  0000f	50		 push	 eax
  00010	e8 00 00 00 00	 call	 ___std_exception_destroy
  00015	83 c4 04	 add	 esp, 4
  00018	f6 45 08 01	 test	 BYTE PTR ___flags$[ebp], 1
  0001c	74 0b		 je	 SHORT $LN12@scalar
  0001e	6a 0c		 push	 12			; 0000000cH
  00020	56		 push	 esi
  00021	e8 00 00 00 00	 call	 ??3@YAXPAXI@Z		; operator delete
  00026	83 c4 08	 add	 esp, 8
$LN12@scalar:
  00029	8b c6		 mov	 eax, esi
  0002b	5e		 pop	 esi
  0002c	5d		 pop	 ebp
  0002d	c2 04 00	 ret	 4
??_Gbad_array_new_length@std@@UAEPAXI@Z ENDP		; std::bad_array_new_length::`scalar deleting destructor'
_TEXT	ENDS
; Function compile flags: /Ogtp
; File C:\Program Files (x86)\Microsoft Visual Studio\2019\Professional\VC\Tools\MSVC\14.29.30133\include\vcruntime_exception.h
;	COMDAT ??0bad_array_new_length@std@@QAE@ABV01@@Z
_TEXT	SEGMENT
___that$ = 8						; size = 4
??0bad_array_new_length@std@@QAE@ABV01@@Z PROC		; std::bad_array_new_length::bad_array_new_length, COMDAT
; _this$ = ecx
  00000	55		 push	 ebp
  00001	8b ec		 mov	 ebp, esp

; 72   :     {

  00003	56		 push	 esi
  00004	8b f1		 mov	 esi, ecx
  00006	0f 57 c0	 xorps	 xmm0, xmm0

; 71   :         : _Data()

  00009	8d 46 04	 lea	 eax, DWORD PTR [esi+4]

; 73   :         __std_exception_copy(&_Other._Data, &_Data);

  0000c	50		 push	 eax
  0000d	c7 06 00 00 00
	00		 mov	 DWORD PTR [esi], OFFSET ??_7exception@std@@6B@
  00013	66 0f d6 00	 movq	 QWORD PTR [eax], xmm0
  00017	8b 45 08	 mov	 eax, DWORD PTR ___that$[ebp]
  0001a	83 c0 04	 add	 eax, 4
  0001d	50		 push	 eax
  0001e	e8 00 00 00 00	 call	 ___std_exception_copy
  00023	83 c4 08	 add	 esp, 8
  00026	c7 06 00 00 00
	00		 mov	 DWORD PTR [esi], OFFSET ??_7bad_array_new_length@std@@6B@
  0002c	8b c6		 mov	 eax, esi
  0002e	5e		 pop	 esi
  0002f	5d		 pop	 ebp
  00030	c2 04 00	 ret	 4
??0bad_array_new_length@std@@QAE@ABV01@@Z ENDP		; std::bad_array_new_length::bad_array_new_length
_TEXT	ENDS
; Function compile flags: /Ogtp
; File C:\Program Files (x86)\Microsoft Visual Studio\2019\Professional\VC\Tools\MSVC\14.29.30133\include\vcruntime_exception.h
;	COMDAT ??1bad_array_new_length@std@@UAE@XZ
_TEXT	SEGMENT
??1bad_array_new_length@std@@UAE@XZ PROC		; std::bad_array_new_length::~bad_array_new_length, COMDAT
; _this$ = ecx

; 90   :         __std_exception_destroy(&_Data);

  00000	8d 41 04	 lea	 eax, DWORD PTR [ecx+4]
  00003	c7 01 00 00 00
	00		 mov	 DWORD PTR [ecx], OFFSET ??_7exception@std@@6B@
  00009	50		 push	 eax
  0000a	e8 00 00 00 00	 call	 ___std_exception_destroy
  0000f	59		 pop	 ecx
  00010	c3		 ret	 0
??1bad_array_new_length@std@@UAE@XZ ENDP		; std::bad_array_new_length::~bad_array_new_length
_TEXT	ENDS
; Function compile flags: /Ogtp
; File C:\Program Files (x86)\Microsoft Visual Studio\2019\Professional\VC\Tools\MSVC\14.29.30133\include\vcruntime_exception.h
;	COMDAT ??0bad_array_new_length@std@@QAE@XZ
_TEXT	SEGMENT
??0bad_array_new_length@std@@QAE@XZ PROC		; std::bad_array_new_length::bad_array_new_length, COMDAT
; _this$ = ecx

; 141  :     {

  00000	0f 57 c0	 xorps	 xmm0, xmm0

; 142  :     }

  00003	8b c1		 mov	 eax, ecx

; 65   :         : _Data()

  00005	66 0f d6 41 04	 movq	 QWORD PTR [ecx+4], xmm0

; 66   :     {
; 67   :         _Data._What = _Message;

  0000a	c7 41 04 00 00
	00 00		 mov	 DWORD PTR [ecx+4], OFFSET ??_C@_0BF@KINCDENJ@bad?5array?5new?5length@

; 141  :     {

  00011	c7 01 00 00 00
	00		 mov	 DWORD PTR [ecx], OFFSET ??_7bad_array_new_length@std@@6B@

; 142  :     }

  00017	c3		 ret	 0
??0bad_array_new_length@std@@QAE@XZ ENDP		; std::bad_array_new_length::bad_array_new_length
_TEXT	ENDS
; Function compile flags: /Ogtp
; File C:\Program Files (x86)\Microsoft Visual Studio\2019\Professional\VC\Tools\MSVC\14.29.30133\include\vcruntime_exception.h
;	COMDAT ??_Gbad_alloc@std@@UAEPAXI@Z
_TEXT	SEGMENT
___flags$ = 8						; size = 4
??_Gbad_alloc@std@@UAEPAXI@Z PROC			; std::bad_alloc::`scalar deleting destructor', COMDAT
; _this$ = ecx
  00000	55		 push	 ebp
  00001	8b ec		 mov	 ebp, esp

; 89   :     {

  00003	56		 push	 esi
  00004	8b f1		 mov	 esi, ecx

; 90   :         __std_exception_destroy(&_Data);

  00006	8d 46 04	 lea	 eax, DWORD PTR [esi+4]
  00009	c7 06 00 00 00
	00		 mov	 DWORD PTR [esi], OFFSET ??_7exception@std@@6B@
  0000f	50		 push	 eax
  00010	e8 00 00 00 00	 call	 ___std_exception_destroy
  00015	83 c4 04	 add	 esp, 4
  00018	f6 45 08 01	 test	 BYTE PTR ___flags$[ebp], 1
  0001c	74 0b		 je	 SHORT $LN9@scalar
  0001e	6a 0c		 push	 12			; 0000000cH
  00020	56		 push	 esi
  00021	e8 00 00 00 00	 call	 ??3@YAXPAXI@Z		; operator delete
  00026	83 c4 08	 add	 esp, 8
$LN9@scalar:
  00029	8b c6		 mov	 eax, esi
  0002b	5e		 pop	 esi
  0002c	5d		 pop	 ebp
  0002d	c2 04 00	 ret	 4
??_Gbad_alloc@std@@UAEPAXI@Z ENDP			; std::bad_alloc::`scalar deleting destructor'
_TEXT	ENDS
; Function compile flags: /Ogtp
; File C:\Program Files (x86)\Microsoft Visual Studio\2019\Professional\VC\Tools\MSVC\14.29.30133\include\vcruntime_exception.h
;	COMDAT ??0bad_alloc@std@@QAE@ABV01@@Z
_TEXT	SEGMENT
___that$ = 8						; size = 4
??0bad_alloc@std@@QAE@ABV01@@Z PROC			; std::bad_alloc::bad_alloc, COMDAT
; _this$ = ecx
  00000	55		 push	 ebp
  00001	8b ec		 mov	 ebp, esp

; 72   :     {

  00003	56		 push	 esi
  00004	8b f1		 mov	 esi, ecx
  00006	0f 57 c0	 xorps	 xmm0, xmm0

; 71   :         : _Data()

  00009	8d 46 04	 lea	 eax, DWORD PTR [esi+4]

; 73   :         __std_exception_copy(&_Other._Data, &_Data);

  0000c	50		 push	 eax
  0000d	c7 06 00 00 00
	00		 mov	 DWORD PTR [esi], OFFSET ??_7exception@std@@6B@
  00013	66 0f d6 00	 movq	 QWORD PTR [eax], xmm0
  00017	8b 45 08	 mov	 eax, DWORD PTR ___that$[ebp]
  0001a	83 c0 04	 add	 eax, 4
  0001d	50		 push	 eax
  0001e	e8 00 00 00 00	 call	 ___std_exception_copy
  00023	83 c4 08	 add	 esp, 8
  00026	c7 06 00 00 00
	00		 mov	 DWORD PTR [esi], OFFSET ??_7bad_alloc@std@@6B@
  0002c	8b c6		 mov	 eax, esi
  0002e	5e		 pop	 esi
  0002f	5d		 pop	 ebp
  00030	c2 04 00	 ret	 4
??0bad_alloc@std@@QAE@ABV01@@Z ENDP			; std::bad_alloc::bad_alloc
_TEXT	ENDS
; Function compile flags: /Ogtp
; File C:\Program Files (x86)\Microsoft Visual Studio\2019\Professional\VC\Tools\MSVC\14.29.30133\include\vcruntime_exception.h
;	COMDAT ??_Gexception@std@@UAEPAXI@Z
_TEXT	SEGMENT
___flags$ = 8						; size = 4
??_Gexception@std@@UAEPAXI@Z PROC			; std::exception::`scalar deleting destructor', COMDAT
; _this$ = ecx
  00000	55		 push	 ebp
  00001	8b ec		 mov	 ebp, esp

; 89   :     {

  00003	56		 push	 esi
  00004	8b f1		 mov	 esi, ecx

; 90   :         __std_exception_destroy(&_Data);

  00006	8d 46 04	 lea	 eax, DWORD PTR [esi+4]
  00009	c7 06 00 00 00
	00		 mov	 DWORD PTR [esi], OFFSET ??_7exception@std@@6B@
  0000f	50		 push	 eax
  00010	e8 00 00 00 00	 call	 ___std_exception_destroy
  00015	83 c4 04	 add	 esp, 4
  00018	f6 45 08 01	 test	 BYTE PTR ___flags$[ebp], 1
  0001c	74 0b		 je	 SHORT $LN6@scalar
  0001e	6a 0c		 push	 12			; 0000000cH
  00020	56		 push	 esi
  00021	e8 00 00 00 00	 call	 ??3@YAXPAXI@Z		; operator delete
  00026	83 c4 08	 add	 esp, 8
$LN6@scalar:
  00029	8b c6		 mov	 eax, esi
  0002b	5e		 pop	 esi
  0002c	5d		 pop	 ebp
  0002d	c2 04 00	 ret	 4
??_Gexception@std@@UAEPAXI@Z ENDP			; std::exception::`scalar deleting destructor'
_TEXT	ENDS
; Function compile flags: /Ogtp
; File C:\Program Files (x86)\Microsoft Visual Studio\2019\Professional\VC\Tools\MSVC\14.29.30133\include\vcruntime_exception.h
;	COMDAT ?what@exception@std@@UBEPBDXZ
_TEXT	SEGMENT
?what@exception@std@@UBEPBDXZ PROC			; std::exception::what, COMDAT
; _this$ = ecx

; 95   :         return _Data._What ? _Data._What : "Unknown exception";

  00000	8b 49 04	 mov	 ecx, DWORD PTR [ecx+4]
  00003	b8 00 00 00 00	 mov	 eax, OFFSET ??_C@_0BC@EOODALEL@Unknown?5exception@
  00008	85 c9		 test	 ecx, ecx
  0000a	0f 45 c1	 cmovne	 eax, ecx

; 96   :     }

  0000d	c3		 ret	 0
?what@exception@std@@UBEPBDXZ ENDP			; std::exception::what
_TEXT	ENDS
; Function compile flags: /Ogtp
; File C:\Program Files (x86)\Microsoft Visual Studio\2019\Professional\VC\Tools\MSVC\14.29.30133\include\vcruntime_exception.h
;	COMDAT ??1exception@std@@UAE@XZ
_TEXT	SEGMENT
??1exception@std@@UAE@XZ PROC				; std::exception::~exception, COMDAT
; _this$ = ecx

; 90   :         __std_exception_destroy(&_Data);

  00000	8d 41 04	 lea	 eax, DWORD PTR [ecx+4]
  00003	c7 01 00 00 00
	00		 mov	 DWORD PTR [ecx], OFFSET ??_7exception@std@@6B@
  00009	50		 push	 eax
  0000a	e8 00 00 00 00	 call	 ___std_exception_destroy
  0000f	59		 pop	 ecx

; 91   :     }

  00010	c3		 ret	 0
??1exception@std@@UAE@XZ ENDP				; std::exception::~exception
_TEXT	ENDS
; Function compile flags: /Ogtp
; File C:\Program Files (x86)\Microsoft Visual Studio\2019\Professional\VC\Tools\MSVC\14.29.30133\include\vcruntime_exception.h
;	COMDAT ??0exception@std@@QAE@ABV01@@Z
_TEXT	SEGMENT
__Other$ = 8						; size = 4
??0exception@std@@QAE@ABV01@@Z PROC			; std::exception::exception, COMDAT
; _this$ = ecx

; 72   :     {

  00000	55		 push	 ebp
  00001	8b ec		 mov	 ebp, esp
  00003	56		 push	 esi
  00004	8b f1		 mov	 esi, ecx
  00006	0f 57 c0	 xorps	 xmm0, xmm0
  00009	8d 46 04	 lea	 eax, DWORD PTR [esi+4]

; 73   :         __std_exception_copy(&_Other._Data, &_Data);

  0000c	50		 push	 eax
  0000d	c7 06 00 00 00
	00		 mov	 DWORD PTR [esi], OFFSET ??_7exception@std@@6B@
  00013	66 0f d6 00	 movq	 QWORD PTR [eax], xmm0
  00017	8b 45 08	 mov	 eax, DWORD PTR __Other$[ebp]
  0001a	83 c0 04	 add	 eax, 4
  0001d	50		 push	 eax
  0001e	e8 00 00 00 00	 call	 ___std_exception_copy
  00023	83 c4 08	 add	 esp, 8

; 74   :     }

  00026	8b c6		 mov	 eax, esi
  00028	5e		 pop	 esi
  00029	5d		 pop	 ebp
  0002a	c2 04 00	 ret	 4
??0exception@std@@QAE@ABV01@@Z ENDP			; std::exception::exception
_TEXT	ENDS
; Function compile flags: /Ogtp
; File C:\Users\murat\Desktop\Siveps2-1-99-Project\source\client\extern\include\d3dx8math.h
;	COMDAT ??0D3DXMATRIX@@QAE@XZ
_TEXT	SEGMENT
??0D3DXMATRIX@@QAE@XZ PROC				; D3DXMATRIX::D3DXMATRIX, COMDAT
; _this$ = ecx

; 177  :     D3DXMATRIX() {};

  00000	8b c1		 mov	 eax, ecx
  00002	c3		 ret	 0
??0D3DXMATRIX@@QAE@XZ ENDP				; D3DXMATRIX::D3DXMATRIX
_TEXT	ENDS
; Function compile flags: /Ogtp
;	COMDAT ??_H@YGXPAXIIP6EPAX0@Z@Z
_TEXT	SEGMENT
___t$ = 8						; size = 4
___s$ = 12						; size = 4
___n$ = 16						; size = 4
___f$ = 20						; size = 4
??_H@YGXPAXIIP6EPAX0@Z@Z PROC				; `vector constructor iterator', COMDAT
  00000	55		 push	 ebp
  00001	8b ec		 mov	 ebp, esp
  00003	56		 push	 esi
  00004	8b 75 10	 mov	 esi, DWORD PTR ___n$[ebp]
  00007	85 f6		 test	 esi, esi
  00009	74 16		 je	 SHORT $LN6@vector
  0000b	53		 push	 ebx
  0000c	8b 5d 14	 mov	 ebx, DWORD PTR ___f$[ebp]
  0000f	57		 push	 edi
  00010	8b 7d 08	 mov	 edi, DWORD PTR ___t$[ebp]
$LL2@vector:
  00013	8b cf		 mov	 ecx, edi
  00015	ff d3		 call	 ebx
  00017	03 7d 0c	 add	 edi, DWORD PTR ___s$[ebp]
  0001a	83 ee 01	 sub	 esi, 1
  0001d	75 f4		 jne	 SHORT $LL2@vector
  0001f	5f		 pop	 edi
  00020	5b		 pop	 ebx
$LN6@vector:
  00021	5e		 pop	 esi
  00022	5d		 pop	 ebp
  00023	c2 10 00	 ret	 16			; 00000010H
??_H@YGXPAXIIP6EPAX0@Z@Z ENDP				; `vector constructor iterator'
_TEXT	ENDS
END
