; Listing generated by Microsoft (R) Optimizing Compiler Version 19.29.30137.0 

	TITLE	C:\Users\murat\Desktop\Siveps2-1-99-Project\source\client\Client\EterLib\Distribute\parser.obj
	.686P
	.XMM
	include listing.inc
	.model	flat

INCLUDELIB LIBCMT
INCLUDELIB OLDNAMES

CONST	SEGMENT
?_Fake_alloc@std@@3U_Fake_allocator@1@B	ORG $+1		; std::_Fake_alloc
CONST	ENDS
PUBLIC	??0exception@std@@QAE@ABV01@@Z			; std::exception::exception
PUBLIC	??1exception@std@@UAE@XZ			; std::exception::~exception
PUBLIC	?what@exception@std@@UBEPBDXZ			; std::exception::what
PUBLIC	??_Gexception@std@@UAEPAXI@Z			; std::exception::`scalar deleting destructor'
PUBLIC	??0bad_alloc@std@@QAE@ABV01@@Z			; std::bad_alloc::bad_alloc
PUBLIC	??_Gbad_alloc@std@@UAEPAXI@Z			; std::bad_alloc::`scalar deleting destructor'
PUBLIC	??0bad_array_new_length@std@@QAE@XZ		; std::bad_array_new_length::bad_array_new_length
PUBLIC	??1bad_array_new_length@std@@UAE@XZ		; std::bad_array_new_length::~bad_array_new_length
PUBLIC	??0bad_array_new_length@std@@QAE@ABV01@@Z	; std::bad_array_new_length::bad_array_new_length
PUBLIC	??_Gbad_array_new_length@std@@UAEPAXI@Z		; std::bad_array_new_length::`scalar deleting destructor'
PUBLIC	?_Throw_bad_array_new_length@std@@YAXXZ		; std::_Throw_bad_array_new_length
PUBLIC	?_Xlen_string@std@@YAXXZ			; std::_Xlen_string
PUBLIC	??1?$basic_string@DU?$char_traits@D@std@@V?$allocator@D@2@@std@@QAE@XZ ; std::basic_string<char,std::char_traits<char>,std::allocator<char> >::~basic_string<char,std::char_traits<char>,std::allocator<char> >
PUBLIC	?assign@?$basic_string@DU?$char_traits@D@std@@V?$allocator@D@2@@std@@QAEAAV12@QBDI@Z ; std::basic_string<char,std::char_traits<char>,std::allocator<char> >::assign
PUBLIC	??$_Allocate_manually_vector_aligned@U_Default_allocate_traits@std@@@std@@YAPAXI@Z ; std::_Allocate_manually_vector_aligned<std::_Default_allocate_traits>
PUBLIC	??0SArgumet@script@@QAE@ABV?$basic_string@DU?$char_traits@D@std@@V?$allocator@D@2@@std@@0@Z ; script::SArgumet::SArgumet
PUBLIC	??0SArgumet@script@@QAE@ABU01@@Z		; script::SArgumet::SArgumet
PUBLIC	??1SArgumet@script@@QAE@XZ			; script::SArgumet::~SArgumet
PUBLIC	?push_back@?$list@USArgumet@script@@V?$allocator@USArgumet@script@@@std@@@std@@QAEX$$QAUSArgumet@script@@@Z ; std::list<script::SArgumet,std::allocator<script::SArgumet> >::push_back
PUBLIC	??1?$list@USArgumet@script@@V?$allocator@USArgumet@script@@@std@@@std@@QAE@XZ ; std::list<script::SArgumet,std::allocator<script::SArgumet> >::~list<script::SArgumet,std::allocator<script::SArgumet> >
PUBLIC	??1SCmd@script@@QAE@XZ				; script::SCmd::~SCmd
PUBLIC	??0Group@script@@QAE@XZ				; script::Group::Group
PUBLIC	??1Group@script@@QAE@XZ				; script::Group::~Group
PUBLIC	?Create@Group@script@@QAE_NABV?$basic_string@DU?$char_traits@D@std@@V?$allocator@D@2@@std@@@Z ; script::Group::Create
PUBLIC	?GetCmd@Group@script@@QAE_NAAUSCmd@2@@Z		; script::Group::GetCmd
PUBLIC	?ReadCmd@Group@script@@QAE_NAAUSCmd@2@@Z	; script::Group::ReadCmd
PUBLIC	?GetError@Group@script@@QAEAAV?$basic_string@DU?$char_traits@D@std@@V?$allocator@D@2@@std@@XZ ; script::Group::GetError
PUBLIC	?SetError@Group@script@@AAEXPBD@Z		; script::Group::SetError
PUBLIC	?GetArg@Group@script@@AAE_NPBDHAAV?$list@USArgumet@script@@V?$allocator@USArgumet@script@@@std@@@std@@@Z ; script::Group::GetArg
PUBLIC	?push_back@?$list@USCmd@script@@V?$allocator@USCmd@script@@@std@@@std@@QAEXABUSCmd@script@@@Z ; std::list<script::SCmd,std::allocator<script::SCmd> >::push_back
PUBLIC	?LocaleString_FindChar@@YAPBDPBDHD@Z		; LocaleString_FindChar
PUBLIC	?LocaleString_RightTrim@@YAHPADH@Z		; LocaleString_RightTrim
PUBLIC	?LocaleString_RightTrim@@YAXPAD@Z		; LocaleString_RightTrim
PUBLIC	?OLD_rtrim@@YAXPAD@Z				; OLD_rtrim
PUBLIC	?LocaleString_Skip@@YAPBDKPBD@Z			; LocaleString_Skip
PUBLIC	??$_Free_non_head@V?$allocator@U?$_List_node@USCmd@script@@PAX@std@@@std@@@?$_List_node@USCmd@script@@PAX@std@@SAXAAV?$allocator@U?$_List_node@USCmd@script@@PAX@std@@@1@PAU01@@Z ; std::_List_node<script::SCmd,void *>::_Free_non_head<std::allocator<std::_List_node<script::SCmd,void *> > >
PUBLIC	??$_Free_non_head@V?$allocator@U?$_List_node@USArgumet@script@@PAX@std@@@std@@@?$_List_node@USArgumet@script@@PAX@std@@SAXAAV?$allocator@U?$_List_node@USArgumet@script@@PAX@std@@@1@PAU01@@Z ; std::_List_node<script::SArgumet,void *>::_Free_non_head<std::allocator<std::_List_node<script::SArgumet,void *> > >
PUBLIC	??1?$_Alloc_construct_ptr@V?$allocator@U?$_List_node@USCmd@script@@PAX@std@@@std@@@std@@QAE@XZ ; std::_Alloc_construct_ptr<std::allocator<std::_List_node<script::SCmd,void *> > >::~_Alloc_construct_ptr<std::allocator<std::_List_node<script::SCmd,void *> > >
PUBLIC	??1?$_Alloc_construct_ptr@V?$allocator@U?$_List_node@USArgumet@script@@PAX@std@@@std@@@std@@QAE@XZ ; std::_Alloc_construct_ptr<std::allocator<std::_List_node<script::SArgumet,void *> > >::~_Alloc_construct_ptr<std::allocator<std::_List_node<script::SArgumet,void *> > >
PUBLIC	??$_Assign_cast@AAUSArgumet@script@@V?$_List_unchecked_const_iterator@V?$_List_val@U?$_List_simple_types@USArgumet@script@@@std@@@std@@U_Iterator_base0@2@@std@@@?$list@USArgumet@script@@V?$allocator@USArgumet@script@@@std@@@std@@AAEXV?$_List_unchecked_const_iterator@V?$_List_val@U?$_List_simple_types@USArgumet@script@@@std@@@std@@U_Iterator_base0@2@@1@V21@@Z ; std::list<script::SArgumet,std::allocator<script::SArgumet> >::_Assign_cast<script::SArgumet &,std::_List_unchecked_const_iterator<std::_List_val<std::_List_simple_types<script::SArgumet> >,std::_Iterator_base0> >
PUBLIC	??1?$_List_node_insert_op2@V?$allocator@U?$_List_node@USArgumet@script@@PAX@std@@@std@@@std@@QAE@XZ ; std::_List_node_insert_op2<std::allocator<std::_List_node<script::SArgumet,void *> > >::~_List_node_insert_op2<std::allocator<std::_List_node<script::SArgumet,void *> > >
PUBLIC	??_7exception@std@@6B@				; std::exception::`vftable'
PUBLIC	??_C@_0BC@EOODALEL@Unknown?5exception@		; `string'
PUBLIC	??_7bad_alloc@std@@6B@				; std::bad_alloc::`vftable'
PUBLIC	??_7bad_array_new_length@std@@6B@		; std::bad_array_new_length::`vftable'
PUBLIC	??_C@_0BF@KINCDENJ@bad?5array?5new?5length@	; `string'
PUBLIC	__TI3?AVbad_array_new_length@std@@
PUBLIC	__CTA3?AVbad_array_new_length@std@@
PUBLIC	??_R0?AVbad_array_new_length@std@@@8		; std::bad_array_new_length `RTTI Type Descriptor'
PUBLIC	__CT??_R0?AVbad_array_new_length@std@@@8??0bad_array_new_length@std@@QAE@ABV01@@Z12
PUBLIC	??_R0?AVbad_alloc@std@@@8			; std::bad_alloc `RTTI Type Descriptor'
PUBLIC	__CT??_R0?AVbad_alloc@std@@@8??0bad_alloc@std@@QAE@ABV01@@Z12
PUBLIC	??_R0?AVexception@std@@@8			; std::exception `RTTI Type Descriptor'
PUBLIC	__CT??_R0?AVexception@std@@@8??0exception@std@@QAE@ABV01@@Z12
PUBLIC	??_C@_0BA@JFNIOLAK@string?5too?5long@		; `string'
PUBLIC	??_R4exception@std@@6B@				; std::exception::`RTTI Complete Object Locator'
PUBLIC	??_R3exception@std@@8				; std::exception::`RTTI Class Hierarchy Descriptor'
PUBLIC	??_R2exception@std@@8				; std::exception::`RTTI Base Class Array'
PUBLIC	??_R1A@?0A@EA@exception@std@@8			; std::exception::`RTTI Base Class Descriptor at (0,-1,0,64)'
PUBLIC	??_R4bad_alloc@std@@6B@				; std::bad_alloc::`RTTI Complete Object Locator'
PUBLIC	??_R3bad_alloc@std@@8				; std::bad_alloc::`RTTI Class Hierarchy Descriptor'
PUBLIC	??_R2bad_alloc@std@@8				; std::bad_alloc::`RTTI Base Class Array'
PUBLIC	??_R1A@?0A@EA@bad_alloc@std@@8			; std::bad_alloc::`RTTI Base Class Descriptor at (0,-1,0,64)'
PUBLIC	??_R4bad_array_new_length@std@@6B@		; std::bad_array_new_length::`RTTI Complete Object Locator'
PUBLIC	??_R3bad_array_new_length@std@@8		; std::bad_array_new_length::`RTTI Class Hierarchy Descriptor'
PUBLIC	??_R2bad_array_new_length@std@@8		; std::bad_array_new_length::`RTTI Base Class Array'
PUBLIC	??_R1A@?0A@EA@bad_array_new_length@std@@8	; std::bad_array_new_length::`RTTI Base Class Descriptor at (0,-1,0,64)'
PUBLIC	??_C@_0CI@BGFMKJOI@Infinite?5loop?5in?5LocaleString_S@ ; `string'
PUBLIC	??_C@_0DJ@OGJKDJPN@argument?5value?5overflow?3?5must?5b@ ; `string'
PUBLIC	??_C@_0DI@HBCKLDEP@argument?5name?5overflow?3?5must?5be@ ; `string'
PUBLIC	??_C@_0BB@DGGADPCI@no?5argument?5name@		; `string'
PUBLIC	??_C@_0BL@LOKOGIPA@Source?5file?5has?5no?5content@ ; `string'
PUBLIC	??_C@_06MJINCFFA@LETTER@			; `string'
PUBLIC	??_C@_05MFEJDJP@value@				; `string'
PUBLIC	??_C@_0CH@IJJEPPJM@?5?$CB?$CB?5PARSING?5ERROR?5?9?5Syntax?5Erro@ ; `string'
PUBLIC	??_C@_0CO@FGKIOAND@?5?$CB?$CB?5PARSING?5ERROR?5?9?5Buffer?5Over@ ; `string'
PUBLIC	??_C@_0DA@GPNGJHKH@?5?$CB?$CB?5PARSING?5ERROR?5?9?5Unknown?5Arg@ ; `string'
PUBLIC	??_C@_0O@NKNMEGII@list?5too?5long@		; `string'
EXTRN	??2@YAPAXI@Z:PROC				; operator new
EXTRN	??3@YAXPAXI@Z:PROC				; operator delete
EXTRN	_atexit:PROC
EXTRN	___report_rangecheckfailure:PROC
EXTRN	__Init_thread_header:PROC
EXTRN	__Init_thread_footer:PROC
EXTRN	__invalid_parameter_noinfo_noreturn:PROC
EXTRN	_isspace:PROC
EXTRN	__imp__CharNextExA@12:PROC
EXTRN	__imp__CharPrevExA@16:PROC
EXTRN	___std_exception_copy:PROC
EXTRN	___std_exception_destroy:PROC
EXTRN	??_Eexception@std@@UAEPAXI@Z:PROC		; std::exception::`vector deleting destructor'
EXTRN	??_Ebad_alloc@std@@UAEPAXI@Z:PROC		; std::bad_alloc::`vector deleting destructor'
EXTRN	??_Ebad_array_new_length@std@@UAEPAXI@Z:PROC	; std::bad_array_new_length::`vector deleting destructor'
EXTRN	?_Xlength_error@std@@YAXPBD@Z:PROC		; std::_Xlength_error
EXTRN	?TraceError@@YAXPBDZZ:PROC			; TraceError
EXTRN	?GetDefaultCodePage@@YAKXZ:PROC			; GetDefaultCodePage
EXTRN	@__security_check_cookie@4:PROC
EXTRN	__CxxThrowException@8:PROC
EXTRN	___CxxFrameHandler3:PROC
EXTRN	_memcpy:PROC
EXTRN	_memmove:PROC
EXTRN	_memset:PROC
EXTRN	__Init_thread_epoch:DWORD
EXTRN	??_7type_info@@6B@:QWORD			; type_info::`vftable'
EXTRN	___security_cookie:DWORD
EXTRN	__tls_array:DWORD
EXTRN	__tls_index:DWORD
;	COMDAT ?$TSS0@?1??Create@Group@script@@QAE_NABV?$basic_string@DU?$char_traits@D@std@@V?$allocator@D@2@@std@@@Z@4HA
_BSS	SEGMENT
?$TSS0@?1??Create@Group@script@@QAE_NABV?$basic_string@DU?$char_traits@D@std@@V?$allocator@D@2@@std@@@Z@4HA DD 01H DUP (?) ; `script::Group::Create'::`2'::$TSS0
_BSS	ENDS
;	COMDAT ??_C@_0O@NKNMEGII@list?5too?5long@
CONST	SEGMENT
??_C@_0O@NKNMEGII@list?5too?5long@ DB 'list too long', 00H ; `string'
CONST	ENDS
;	COMDAT ??_C@_0DA@GPNGJHKH@?5?$CB?$CB?5PARSING?5ERROR?5?9?5Unknown?5Arg@
CONST	SEGMENT
??_C@_0DA@GPNGJHKH@?5?$CB?$CB?5PARSING?5ERROR?5?9?5Unknown?5Arg@ DB ' !! '
	DB	'PARSING ERROR - Unknown Arguments : %d, %s', 0aH, 00H ; `string'
CONST	ENDS
;	COMDAT ??_C@_0CO@FGKIOAND@?5?$CB?$CB?5PARSING?5ERROR?5?9?5Buffer?5Over@
CONST	SEGMENT
??_C@_0CO@FGKIOAND@?5?$CB?$CB?5PARSING?5ERROR?5?9?5Buffer?5Over@ DB ' !! '
	DB	'PARSING ERROR - Buffer Overflow : %d, %s', 0aH, 00H ; `string'
CONST	ENDS
;	COMDAT ??_C@_0CH@IJJEPPJM@?5?$CB?$CB?5PARSING?5ERROR?5?9?5Syntax?5Erro@
CONST	SEGMENT
??_C@_0CH@IJJEPPJM@?5?$CB?$CB?5PARSING?5ERROR?5?9?5Syntax?5Erro@ DB ' !! '
	DB	'PARSING ERROR - Syntax Error : %s', 0aH, 00H ; `string'
CONST	ENDS
;	COMDAT ??_C@_05MFEJDJP@value@
CONST	SEGMENT
??_C@_05MFEJDJP@value@ DB 'value', 00H			; `string'
CONST	ENDS
;	COMDAT ??_C@_06MJINCFFA@LETTER@
CONST	SEGMENT
??_C@_06MJINCFFA@LETTER@ DB 'LETTER', 00H		; `string'
CONST	ENDS
;	COMDAT ??_C@_0BL@LOKOGIPA@Source?5file?5has?5no?5content@
CONST	SEGMENT
??_C@_0BL@LOKOGIPA@Source?5file?5has?5no?5content@ DB 'Source file has no'
	DB	' content', 00H				; `string'
CONST	ENDS
;	COMDAT ?stLetter@?1??Create@Group@script@@QAE_NABV?$basic_string@DU?$char_traits@D@std@@V?$allocator@D@2@@std@@@Z@4V45@A
_DATA	SEGMENT
?stLetter@?1??Create@Group@script@@QAE_NABV?$basic_string@DU?$char_traits@D@std@@V?$allocator@D@2@@std@@@Z@4V45@A DB 014H DUP (?)
	DD	0fH					; `script::Group::Create'::`2'::stLetter
_DATA	ENDS
;	COMDAT ??_C@_0BB@DGGADPCI@no?5argument?5name@
CONST	SEGMENT
??_C@_0BB@DGGADPCI@no?5argument?5name@ DB 'no argument name', 00H ; `string'
CONST	ENDS
;	COMDAT ??_C@_0DI@HBCKLDEP@argument?5name?5overflow?3?5must?5be@
CONST	SEGMENT
??_C@_0DI@HBCKLDEP@argument?5name?5overflow?3?5must?5be@ DB 'argument nam'
	DB	'e overflow: must be shorter than 32 letters', 00H ; `string'
CONST	ENDS
;	COMDAT ??_C@_0DJ@OGJKDJPN@argument?5value?5overflow?3?5must?5b@
CONST	SEGMENT
??_C@_0DJ@OGJKDJPN@argument?5value?5overflow?3?5must?5b@ DB 'argument val'
	DB	'ue overflow: must be shorter than 64 letters', 00H ; `string'
CONST	ENDS
;	COMDAT ??_C@_0CI@BGFMKJOI@Infinite?5loop?5in?5LocaleString_S@
CONST	SEGMENT
??_C@_0CI@BGFMKJOI@Infinite?5loop?5in?5LocaleString_S@ DB 'Infinite loop '
	DB	'in LocaleString_Skip [%s]', 00H		; `string'
CONST	ENDS
;	COMDAT ??_R1A@?0A@EA@bad_array_new_length@std@@8
rdata$r	SEGMENT
??_R1A@?0A@EA@bad_array_new_length@std@@8 DD FLAT:??_R0?AVbad_array_new_length@std@@@8 ; std::bad_array_new_length::`RTTI Base Class Descriptor at (0,-1,0,64)'
	DD	02H
	DD	00H
	DD	0ffffffffH
	DD	00H
	DD	040H
	DD	FLAT:??_R3bad_array_new_length@std@@8
rdata$r	ENDS
;	COMDAT ??_R2bad_array_new_length@std@@8
rdata$r	SEGMENT
??_R2bad_array_new_length@std@@8 DD FLAT:??_R1A@?0A@EA@bad_array_new_length@std@@8 ; std::bad_array_new_length::`RTTI Base Class Array'
	DD	FLAT:??_R1A@?0A@EA@bad_alloc@std@@8
	DD	FLAT:??_R1A@?0A@EA@exception@std@@8
rdata$r	ENDS
;	COMDAT ??_R3bad_array_new_length@std@@8
rdata$r	SEGMENT
??_R3bad_array_new_length@std@@8 DD 00H			; std::bad_array_new_length::`RTTI Class Hierarchy Descriptor'
	DD	00H
	DD	03H
	DD	FLAT:??_R2bad_array_new_length@std@@8
rdata$r	ENDS
;	COMDAT ??_R4bad_array_new_length@std@@6B@
rdata$r	SEGMENT
??_R4bad_array_new_length@std@@6B@ DD 00H		; std::bad_array_new_length::`RTTI Complete Object Locator'
	DD	00H
	DD	00H
	DD	FLAT:??_R0?AVbad_array_new_length@std@@@8
	DD	FLAT:??_R3bad_array_new_length@std@@8
rdata$r	ENDS
;	COMDAT ??_R1A@?0A@EA@bad_alloc@std@@8
rdata$r	SEGMENT
??_R1A@?0A@EA@bad_alloc@std@@8 DD FLAT:??_R0?AVbad_alloc@std@@@8 ; std::bad_alloc::`RTTI Base Class Descriptor at (0,-1,0,64)'
	DD	01H
	DD	00H
	DD	0ffffffffH
	DD	00H
	DD	040H
	DD	FLAT:??_R3bad_alloc@std@@8
rdata$r	ENDS
;	COMDAT ??_R2bad_alloc@std@@8
rdata$r	SEGMENT
??_R2bad_alloc@std@@8 DD FLAT:??_R1A@?0A@EA@bad_alloc@std@@8 ; std::bad_alloc::`RTTI Base Class Array'
	DD	FLAT:??_R1A@?0A@EA@exception@std@@8
rdata$r	ENDS
;	COMDAT ??_R3bad_alloc@std@@8
rdata$r	SEGMENT
??_R3bad_alloc@std@@8 DD 00H				; std::bad_alloc::`RTTI Class Hierarchy Descriptor'
	DD	00H
	DD	02H
	DD	FLAT:??_R2bad_alloc@std@@8
rdata$r	ENDS
;	COMDAT ??_R4bad_alloc@std@@6B@
rdata$r	SEGMENT
??_R4bad_alloc@std@@6B@ DD 00H				; std::bad_alloc::`RTTI Complete Object Locator'
	DD	00H
	DD	00H
	DD	FLAT:??_R0?AVbad_alloc@std@@@8
	DD	FLAT:??_R3bad_alloc@std@@8
rdata$r	ENDS
;	COMDAT ??_R1A@?0A@EA@exception@std@@8
rdata$r	SEGMENT
??_R1A@?0A@EA@exception@std@@8 DD FLAT:??_R0?AVexception@std@@@8 ; std::exception::`RTTI Base Class Descriptor at (0,-1,0,64)'
	DD	00H
	DD	00H
	DD	0ffffffffH
	DD	00H
	DD	040H
	DD	FLAT:??_R3exception@std@@8
rdata$r	ENDS
;	COMDAT ??_R2exception@std@@8
rdata$r	SEGMENT
??_R2exception@std@@8 DD FLAT:??_R1A@?0A@EA@exception@std@@8 ; std::exception::`RTTI Base Class Array'
rdata$r	ENDS
;	COMDAT ??_R3exception@std@@8
rdata$r	SEGMENT
??_R3exception@std@@8 DD 00H				; std::exception::`RTTI Class Hierarchy Descriptor'
	DD	00H
	DD	01H
	DD	FLAT:??_R2exception@std@@8
rdata$r	ENDS
;	COMDAT ??_R4exception@std@@6B@
rdata$r	SEGMENT
??_R4exception@std@@6B@ DD 00H				; std::exception::`RTTI Complete Object Locator'
	DD	00H
	DD	00H
	DD	FLAT:??_R0?AVexception@std@@@8
	DD	FLAT:??_R3exception@std@@8
rdata$r	ENDS
;	COMDAT ??_C@_0BA@JFNIOLAK@string?5too?5long@
CONST	SEGMENT
??_C@_0BA@JFNIOLAK@string?5too?5long@ DB 'string too long', 00H ; `string'
CONST	ENDS
;	COMDAT __CT??_R0?AVexception@std@@@8??0exception@std@@QAE@ABV01@@Z12
xdata$x	SEGMENT
__CT??_R0?AVexception@std@@@8??0exception@std@@QAE@ABV01@@Z12 DD 00H
	DD	FLAT:??_R0?AVexception@std@@@8
	DD	00H
	DD	0ffffffffH
	ORG $+4
	DD	0cH
	DD	FLAT:??0exception@std@@QAE@ABV01@@Z
xdata$x	ENDS
;	COMDAT ??_R0?AVexception@std@@@8
data$r	SEGMENT
??_R0?AVexception@std@@@8 DD FLAT:??_7type_info@@6B@	; std::exception `RTTI Type Descriptor'
	DD	00H
	DB	'.?AVexception@std@@', 00H
data$r	ENDS
;	COMDAT __CT??_R0?AVbad_alloc@std@@@8??0bad_alloc@std@@QAE@ABV01@@Z12
xdata$x	SEGMENT
__CT??_R0?AVbad_alloc@std@@@8??0bad_alloc@std@@QAE@ABV01@@Z12 DD 010H
	DD	FLAT:??_R0?AVbad_alloc@std@@@8
	DD	00H
	DD	0ffffffffH
	ORG $+4
	DD	0cH
	DD	FLAT:??0bad_alloc@std@@QAE@ABV01@@Z
xdata$x	ENDS
;	COMDAT ??_R0?AVbad_alloc@std@@@8
data$r	SEGMENT
??_R0?AVbad_alloc@std@@@8 DD FLAT:??_7type_info@@6B@	; std::bad_alloc `RTTI Type Descriptor'
	DD	00H
	DB	'.?AVbad_alloc@std@@', 00H
data$r	ENDS
;	COMDAT __CT??_R0?AVbad_array_new_length@std@@@8??0bad_array_new_length@std@@QAE@ABV01@@Z12
xdata$x	SEGMENT
__CT??_R0?AVbad_array_new_length@std@@@8??0bad_array_new_length@std@@QAE@ABV01@@Z12 DD 00H
	DD	FLAT:??_R0?AVbad_array_new_length@std@@@8
	DD	00H
	DD	0ffffffffH
	ORG $+4
	DD	0cH
	DD	FLAT:??0bad_array_new_length@std@@QAE@ABV01@@Z
xdata$x	ENDS
;	COMDAT ??_R0?AVbad_array_new_length@std@@@8
data$r	SEGMENT
??_R0?AVbad_array_new_length@std@@@8 DD FLAT:??_7type_info@@6B@ ; std::bad_array_new_length `RTTI Type Descriptor'
	DD	00H
	DB	'.?AVbad_array_new_length@std@@', 00H
data$r	ENDS
;	COMDAT __CTA3?AVbad_array_new_length@std@@
xdata$x	SEGMENT
__CTA3?AVbad_array_new_length@std@@ DD 03H
	DD	FLAT:__CT??_R0?AVbad_array_new_length@std@@@8??0bad_array_new_length@std@@QAE@ABV01@@Z12
	DD	FLAT:__CT??_R0?AVbad_alloc@std@@@8??0bad_alloc@std@@QAE@ABV01@@Z12
	DD	FLAT:__CT??_R0?AVexception@std@@@8??0exception@std@@QAE@ABV01@@Z12
xdata$x	ENDS
;	COMDAT __TI3?AVbad_array_new_length@std@@
xdata$x	SEGMENT
__TI3?AVbad_array_new_length@std@@ DD 00H
	DD	FLAT:??1bad_array_new_length@std@@UAE@XZ
	DD	00H
	DD	FLAT:__CTA3?AVbad_array_new_length@std@@
xdata$x	ENDS
;	COMDAT ??_C@_0BF@KINCDENJ@bad?5array?5new?5length@
CONST	SEGMENT
??_C@_0BF@KINCDENJ@bad?5array?5new?5length@ DB 'bad array new length', 00H ; `string'
CONST	ENDS
;	COMDAT ??_7bad_array_new_length@std@@6B@
CONST	SEGMENT
??_7bad_array_new_length@std@@6B@ DD FLAT:??_R4bad_array_new_length@std@@6B@ ; std::bad_array_new_length::`vftable'
	DD	FLAT:??_Ebad_array_new_length@std@@UAEPAXI@Z
	DD	FLAT:?what@exception@std@@UBEPBDXZ
CONST	ENDS
;	COMDAT ??_7bad_alloc@std@@6B@
CONST	SEGMENT
??_7bad_alloc@std@@6B@ DD FLAT:??_R4bad_alloc@std@@6B@	; std::bad_alloc::`vftable'
	DD	FLAT:??_Ebad_alloc@std@@UAEPAXI@Z
	DD	FLAT:?what@exception@std@@UBEPBDXZ
CONST	ENDS
;	COMDAT ??_C@_0BC@EOODALEL@Unknown?5exception@
CONST	SEGMENT
??_C@_0BC@EOODALEL@Unknown?5exception@ DB 'Unknown exception', 00H ; `string'
CONST	ENDS
;	COMDAT ??_7exception@std@@6B@
CONST	SEGMENT
??_7exception@std@@6B@ DD FLAT:??_R4exception@std@@6B@	; std::exception::`vftable'
	DD	FLAT:??_Eexception@std@@UAEPAXI@Z
	DD	FLAT:?what@exception@std@@UBEPBDXZ
CONST	ENDS
;	COMDAT xdata$x
xdata$x	SEGMENT
__unwindtable$??$_Append_range_unchecked@V?$_List_unchecked_const_iterator@V?$_List_val@U?$_List_simple_types@USArgumet@script@@@std@@@std@@U_Iterator_base0@2@@std@@V12@@?$_List_node_insert_op2@V?$allocator@U?$_List_node@USArgumet@script@@PAX@std@@@std@@@std@@QAEXV?$_List_unchecked_const_iterator@V?$_List_val@U?$_List_simple_types@USArgumet@script@@@std@@@std@@U_Iterator_base0@2@@1@V21@@Z DD 0ffffffffH
	DD	FLAT:__unwindfunclet$??$_Append_range_unchecked@V?$_List_unchecked_const_iterator@V?$_List_val@U?$_List_simple_types@USArgumet@script@@@std@@@std@@U_Iterator_base0@2@@std@@V12@@?$_List_node_insert_op2@V?$allocator@U?$_List_node@USArgumet@script@@PAX@std@@@std@@@std@@QAEXV?$_List_unchecked_const_iterator@V?$_List_val@U?$_List_simple_types@USArgumet@script@@@std@@@std@@U_Iterator_base0@2@@1@V21@@Z$0
__ehfuncinfo$??$_Append_range_unchecked@V?$_List_unchecked_const_iterator@V?$_List_val@U?$_List_simple_types@USArgumet@script@@@std@@@std@@U_Iterator_base0@2@@std@@V12@@?$_List_node_insert_op2@V?$allocator@U?$_List_node@USArgumet@script@@PAX@std@@@std@@@std@@QAEXV?$_List_unchecked_const_iterator@V?$_List_val@U?$_List_simple_types@USArgumet@script@@@std@@@std@@U_Iterator_base0@2@@1@V21@@Z DD 019930522H
	DD	01H
	DD	FLAT:__unwindtable$??$_Append_range_unchecked@V?$_List_unchecked_const_iterator@V?$_List_val@U?$_List_simple_types@USArgumet@script@@@std@@@std@@U_Iterator_base0@2@@std@@V12@@?$_List_node_insert_op2@V?$allocator@U?$_List_node@USArgumet@script@@PAX@std@@@std@@@std@@QAEXV?$_List_unchecked_const_iterator@V?$_List_val@U?$_List_simple_types@USArgumet@script@@@std@@@std@@U_Iterator_base0@2@@1@V21@@Z
	DD	2 DUP(00H)
	DD	2 DUP(00H)
	DD	00H
	DD	01H
xdata$x	ENDS
;	COMDAT xdata$x
xdata$x	SEGMENT
__unwindtable$??$construct@USCmd@script@@ABU12@@?$_Default_allocator_traits@V?$allocator@U?$_List_node@USCmd@script@@PAX@std@@@std@@@std@@SAXAAV?$allocator@U?$_List_node@USCmd@script@@PAX@std@@@1@QAUSCmd@script@@ABU34@@Z DD 0ffffffffH
	DD	FLAT:__unwindfunclet$??$construct@USCmd@script@@ABU12@@?$_Default_allocator_traits@V?$allocator@U?$_List_node@USCmd@script@@PAX@std@@@std@@@std@@SAXAAV?$allocator@U?$_List_node@USCmd@script@@PAX@std@@@1@QAUSCmd@script@@ABU34@@Z$0
	DD	00H
	DD	FLAT:__unwindfunclet$??$construct@USCmd@script@@ABU12@@?$_Default_allocator_traits@V?$allocator@U?$_List_node@USCmd@script@@PAX@std@@@std@@@std@@SAXAAV?$allocator@U?$_List_node@USCmd@script@@PAX@std@@@1@QAUSCmd@script@@ABU34@@Z$1
__ehfuncinfo$??$construct@USCmd@script@@ABU12@@?$_Default_allocator_traits@V?$allocator@U?$_List_node@USCmd@script@@PAX@std@@@std@@@std@@SAXAAV?$allocator@U?$_List_node@USCmd@script@@PAX@std@@@1@QAUSCmd@script@@ABU34@@Z DD 019930522H
	DD	02H
	DD	FLAT:__unwindtable$??$construct@USCmd@script@@ABU12@@?$_Default_allocator_traits@V?$allocator@U?$_List_node@USCmd@script@@PAX@std@@@std@@@std@@SAXAAV?$allocator@U?$_List_node@USCmd@script@@PAX@std@@@1@QAUSCmd@script@@ABU34@@Z
	DD	2 DUP(00H)
	DD	2 DUP(00H)
	DD	00H
	DD	01H
xdata$x	ENDS
;	COMDAT xdata$x
xdata$x	SEGMENT
__unwindtable$??$_Assign_cast@AAUSArgumet@script@@V?$_List_unchecked_const_iterator@V?$_List_val@U?$_List_simple_types@USArgumet@script@@@std@@@std@@U_Iterator_base0@2@@std@@@?$list@USArgumet@script@@V?$allocator@USArgumet@script@@@std@@@std@@AAEXV?$_List_unchecked_const_iterator@V?$_List_val@U?$_List_simple_types@USArgumet@script@@@std@@@std@@U_Iterator_base0@2@@1@V21@@Z DD 0ffffffffH
	DD	FLAT:__unwindfunclet$??$_Assign_cast@AAUSArgumet@script@@V?$_List_unchecked_const_iterator@V?$_List_val@U?$_List_simple_types@USArgumet@script@@@std@@@std@@U_Iterator_base0@2@@std@@@?$list@USArgumet@script@@V?$allocator@USArgumet@script@@@std@@@std@@AAEXV?$_List_unchecked_const_iterator@V?$_List_val@U?$_List_simple_types@USArgumet@script@@@std@@@std@@U_Iterator_base0@2@@1@V21@@Z$0
	DD	00H
	DD	FLAT:__unwindfunclet$??$_Assign_cast@AAUSArgumet@script@@V?$_List_unchecked_const_iterator@V?$_List_val@U?$_List_simple_types@USArgumet@script@@@std@@@std@@U_Iterator_base0@2@@std@@@?$list@USArgumet@script@@V?$allocator@USArgumet@script@@@std@@@std@@AAEXV?$_List_unchecked_const_iterator@V?$_List_val@U?$_List_simple_types@USArgumet@script@@@std@@@std@@U_Iterator_base0@2@@1@V21@@Z$1
__ehfuncinfo$??$_Assign_cast@AAUSArgumet@script@@V?$_List_unchecked_const_iterator@V?$_List_val@U?$_List_simple_types@USArgumet@script@@@std@@@std@@U_Iterator_base0@2@@std@@@?$list@USArgumet@script@@V?$allocator@USArgumet@script@@@std@@@std@@AAEXV?$_List_unchecked_const_iterator@V?$_List_val@U?$_List_simple_types@USArgumet@script@@@std@@@std@@U_Iterator_base0@2@@1@V21@@Z DD 019930522H
	DD	02H
	DD	FLAT:__unwindtable$??$_Assign_cast@AAUSArgumet@script@@V?$_List_unchecked_const_iterator@V?$_List_val@U?$_List_simple_types@USArgumet@script@@@std@@@std@@U_Iterator_base0@2@@std@@@?$list@USArgumet@script@@V?$allocator@USArgumet@script@@@std@@@std@@AAEXV?$_List_unchecked_const_iterator@V?$_List_val@U?$_List_simple_types@USArgumet@script@@@std@@@std@@U_Iterator_base0@2@@1@V21@@Z
	DD	2 DUP(00H)
	DD	2 DUP(00H)
	DD	00H
	DD	01H
xdata$x	ENDS
;	COMDAT xdata$x
xdata$x	SEGMENT
__unwindtable$??$?0USArgumet@script@@@?$_List_node_emplace_op2@V?$allocator@U?$_List_node@USArgumet@script@@PAX@std@@@std@@@std@@QAE@AAV?$allocator@U?$_List_node@USArgumet@script@@PAX@std@@@1@$$QAUSArgumet@script@@@Z DD 0ffffffffH
	DD	FLAT:__unwindfunclet$??$?0USArgumet@script@@@?$_List_node_emplace_op2@V?$allocator@U?$_List_node@USArgumet@script@@PAX@std@@@std@@@std@@QAE@AAV?$allocator@U?$_List_node@USArgumet@script@@PAX@std@@@1@$$QAUSArgumet@script@@@Z$0
__ehfuncinfo$??$?0USArgumet@script@@@?$_List_node_emplace_op2@V?$allocator@U?$_List_node@USArgumet@script@@PAX@std@@@std@@@std@@QAE@AAV?$allocator@U?$_List_node@USArgumet@script@@PAX@std@@@1@$$QAUSArgumet@script@@@Z DD 019930522H
	DD	01H
	DD	FLAT:__unwindtable$??$?0USArgumet@script@@@?$_List_node_emplace_op2@V?$allocator@U?$_List_node@USArgumet@script@@PAX@std@@@std@@@std@@QAE@AAV?$allocator@U?$_List_node@USArgumet@script@@PAX@std@@@1@$$QAUSArgumet@script@@@Z
	DD	2 DUP(00H)
	DD	2 DUP(00H)
	DD	00H
	DD	01H
xdata$x	ENDS
;	COMDAT xdata$x
xdata$x	SEGMENT
__unwindtable$??$?0ABUSCmd@script@@@?$_List_node_emplace_op2@V?$allocator@U?$_List_node@USCmd@script@@PAX@std@@@std@@@std@@QAE@AAV?$allocator@U?$_List_node@USCmd@script@@PAX@std@@@1@ABUSCmd@script@@@Z DD 0ffffffffH
	DD	FLAT:__unwindfunclet$??$?0ABUSCmd@script@@@?$_List_node_emplace_op2@V?$allocator@U?$_List_node@USCmd@script@@PAX@std@@@std@@@std@@QAE@AAV?$allocator@U?$_List_node@USCmd@script@@PAX@std@@@1@ABUSCmd@script@@@Z$0
	DD	00H
	DD	FLAT:__unwindfunclet$??$?0ABUSCmd@script@@@?$_List_node_emplace_op2@V?$allocator@U?$_List_node@USCmd@script@@PAX@std@@@std@@@std@@QAE@AAV?$allocator@U?$_List_node@USCmd@script@@PAX@std@@@1@ABUSCmd@script@@@Z$1
	DD	01H
	DD	FLAT:__unwindfunclet$??$?0ABUSCmd@script@@@?$_List_node_emplace_op2@V?$allocator@U?$_List_node@USCmd@script@@PAX@std@@@std@@@std@@QAE@AAV?$allocator@U?$_List_node@USCmd@script@@PAX@std@@@1@ABUSCmd@script@@@Z$2
__ehfuncinfo$??$?0ABUSCmd@script@@@?$_List_node_emplace_op2@V?$allocator@U?$_List_node@USCmd@script@@PAX@std@@@std@@@std@@QAE@AAV?$allocator@U?$_List_node@USCmd@script@@PAX@std@@@1@ABUSCmd@script@@@Z DD 019930522H
	DD	03H
	DD	FLAT:__unwindtable$??$?0ABUSCmd@script@@@?$_List_node_emplace_op2@V?$allocator@U?$_List_node@USCmd@script@@PAX@std@@@std@@@std@@QAE@AAV?$allocator@U?$_List_node@USCmd@script@@PAX@std@@@1@ABUSCmd@script@@@Z
	DD	2 DUP(00H)
	DD	2 DUP(00H)
	DD	00H
	DD	01H
xdata$x	ENDS
;	COMDAT xdata$x
xdata$x	SEGMENT
__unwindtable$??$_Emplace@USArgumet@script@@@?$list@USArgumet@script@@V?$allocator@USArgumet@script@@@std@@@std@@QAEPAU?$_List_node@USArgumet@script@@PAX@1@QAU21@$$QAUSArgumet@script@@@Z DD 0ffffffffH
	DD	FLAT:__unwindfunclet$??$_Emplace@USArgumet@script@@@?$list@USArgumet@script@@V?$allocator@USArgumet@script@@@std@@@std@@QAEPAU?$_List_node@USArgumet@script@@PAX@1@QAU21@$$QAUSArgumet@script@@@Z$1
__ehfuncinfo$??$_Emplace@USArgumet@script@@@?$list@USArgumet@script@@V?$allocator@USArgumet@script@@@std@@@std@@QAEPAU?$_List_node@USArgumet@script@@PAX@1@QAU21@$$QAUSArgumet@script@@@Z DD 019930522H
	DD	01H
	DD	FLAT:__unwindtable$??$_Emplace@USArgumet@script@@@?$list@USArgumet@script@@V?$allocator@USArgumet@script@@@std@@@std@@QAEPAU?$_List_node@USArgumet@script@@PAX@1@QAU21@$$QAUSArgumet@script@@@Z
	DD	2 DUP(00H)
	DD	2 DUP(00H)
	DD	00H
	DD	01H
xdata$x	ENDS
;	COMDAT xdata$x
xdata$x	SEGMENT
__unwindtable$??$_Emplace@ABUSCmd@script@@@?$list@USCmd@script@@V?$allocator@USCmd@script@@@std@@@std@@QAEPAU?$_List_node@USCmd@script@@PAX@1@QAU21@ABUSCmd@script@@@Z DD 0ffffffffH
	DD	FLAT:__unwindfunclet$??$_Emplace@ABUSCmd@script@@@?$list@USCmd@script@@V?$allocator@USCmd@script@@@std@@@std@@QAEPAU?$_List_node@USCmd@script@@PAX@1@QAU21@ABUSCmd@script@@@Z$1
	DD	00H
	DD	FLAT:__unwindfunclet$??$_Emplace@ABUSCmd@script@@@?$list@USCmd@script@@V?$allocator@USCmd@script@@@std@@@std@@QAEPAU?$_List_node@USCmd@script@@PAX@1@QAU21@ABUSCmd@script@@@Z$2
	DD	01H
	DD	FLAT:__unwindfunclet$??$_Emplace@ABUSCmd@script@@@?$list@USCmd@script@@V?$allocator@USCmd@script@@@std@@@std@@QAEPAU?$_List_node@USCmd@script@@PAX@1@QAU21@ABUSCmd@script@@@Z$3
__ehfuncinfo$??$_Emplace@ABUSCmd@script@@@?$list@USCmd@script@@V?$allocator@USCmd@script@@@std@@@std@@QAEPAU?$_List_node@USCmd@script@@PAX@1@QAU21@ABUSCmd@script@@@Z DD 019930522H
	DD	03H
	DD	FLAT:__unwindtable$??$_Emplace@ABUSCmd@script@@@?$list@USCmd@script@@V?$allocator@USCmd@script@@@std@@@std@@QAEPAU?$_List_node@USCmd@script@@PAX@1@QAU21@ABUSCmd@script@@@Z
	DD	2 DUP(00H)
	DD	2 DUP(00H)
	DD	00H
	DD	01H
xdata$x	ENDS
;	COMDAT xdata$x
xdata$x	SEGMENT
__unwindtable$?push_back@?$list@USCmd@script@@V?$allocator@USCmd@script@@@std@@@std@@QAEXABUSCmd@script@@@Z DD 0ffffffffH
	DD	FLAT:__unwindfunclet$?push_back@?$list@USCmd@script@@V?$allocator@USCmd@script@@@std@@@std@@QAEXABUSCmd@script@@@Z$1
	DD	00H
	DD	FLAT:__unwindfunclet$?push_back@?$list@USCmd@script@@V?$allocator@USCmd@script@@@std@@@std@@QAEXABUSCmd@script@@@Z$2
	DD	01H
	DD	FLAT:__unwindfunclet$?push_back@?$list@USCmd@script@@V?$allocator@USCmd@script@@@std@@@std@@QAEXABUSCmd@script@@@Z$3
__ehfuncinfo$?push_back@?$list@USCmd@script@@V?$allocator@USCmd@script@@@std@@@std@@QAEXABUSCmd@script@@@Z DD 019930522H
	DD	03H
	DD	FLAT:__unwindtable$?push_back@?$list@USCmd@script@@V?$allocator@USCmd@script@@@std@@@std@@QAEXABUSCmd@script@@@Z
	DD	2 DUP(00H)
	DD	2 DUP(00H)
	DD	00H
	DD	01H
xdata$x	ENDS
;	COMDAT xdata$x
xdata$x	SEGMENT
__ehfuncinfo$?GetArg@Group@script@@AAE_NPBDHAAV?$list@USArgumet@script@@V?$allocator@USArgumet@script@@@std@@@std@@@Z DD 019930522H
	DD	09H
	DD	FLAT:__unwindtable$?GetArg@Group@script@@AAE_NPBDHAAV?$list@USArgumet@script@@V?$allocator@USArgumet@script@@@std@@@std@@@Z
	DD	2 DUP(00H)
	DD	2 DUP(00H)
	DD	00H
	DD	01H
__unwindtable$?GetArg@Group@script@@AAE_NPBDHAAV?$list@USArgumet@script@@V?$allocator@USArgumet@script@@@std@@@std@@@Z DD 0ffffffffH
	DD	FLAT:__unwindfunclet$?GetArg@Group@script@@AAE_NPBDHAAV?$list@USArgumet@script@@V?$allocator@USArgumet@script@@@std@@@std@@@Z$0
	DD	00H
	DD	FLAT:__unwindfunclet$?GetArg@Group@script@@AAE_NPBDHAAV?$list@USArgumet@script@@V?$allocator@USArgumet@script@@@std@@@std@@@Z$1
	DD	01H
	DD	FLAT:__unwindfunclet$?GetArg@Group@script@@AAE_NPBDHAAV?$list@USArgumet@script@@V?$allocator@USArgumet@script@@@std@@@std@@@Z$10
	DD	02H
	DD	FLAT:__unwindfunclet$?GetArg@Group@script@@AAE_NPBDHAAV?$list@USArgumet@script@@V?$allocator@USArgumet@script@@@std@@@std@@@Z$11
	DD	01H
	DD	FLAT:__unwindfunclet$?GetArg@Group@script@@AAE_NPBDHAAV?$list@USArgumet@script@@V?$allocator@USArgumet@script@@@std@@@std@@@Z$2
	DD	04H
	DD	FLAT:__unwindfunclet$?GetArg@Group@script@@AAE_NPBDHAAV?$list@USArgumet@script@@V?$allocator@USArgumet@script@@@std@@@std@@@Z$19
	DD	0ffffffffH
	DD	FLAT:__unwindfunclet$?GetArg@Group@script@@AAE_NPBDHAAV?$list@USArgumet@script@@V?$allocator@USArgumet@script@@@std@@@std@@@Z$3
	DD	06H
	DD	FLAT:__unwindfunclet$?GetArg@Group@script@@AAE_NPBDHAAV?$list@USArgumet@script@@V?$allocator@USArgumet@script@@@std@@@std@@@Z$4
	DD	07H
	DD	FLAT:__unwindfunclet$?GetArg@Group@script@@AAE_NPBDHAAV?$list@USArgumet@script@@V?$allocator@USArgumet@script@@@std@@@std@@@Z$5
xdata$x	ENDS
;	COMDAT xdata$x
xdata$x	SEGMENT
__ehfuncinfo$?Create@Group@script@@QAE_NABV?$basic_string@DU?$char_traits@D@std@@V?$allocator@D@2@@std@@@Z DD 019930522H
	DD	09H
	DD	FLAT:__unwindtable$?Create@Group@script@@QAE_NABV?$basic_string@DU?$char_traits@D@std@@V?$allocator@D@2@@std@@@Z
	DD	2 DUP(00H)
	DD	2 DUP(00H)
	DD	00H
	DD	01H
__unwindtable$?Create@Group@script@@QAE_NABV?$basic_string@DU?$char_traits@D@std@@V?$allocator@D@2@@std@@@Z DD 0ffffffffH
	DD	FLAT:__unwindfunclet$?Create@Group@script@@QAE_NABV?$basic_string@DU?$char_traits@D@std@@V?$allocator@D@2@@std@@@Z$8
	DD	0ffffffffH
	DD	FLAT:__unwindfunclet$?Create@Group@script@@QAE_NABV?$basic_string@DU?$char_traits@D@std@@V?$allocator@D@2@@std@@@Z$0
	DD	01H
	DD	FLAT:__unwindfunclet$?Create@Group@script@@QAE_NABV?$basic_string@DU?$char_traits@D@std@@V?$allocator@D@2@@std@@@Z$1
	DD	02H
	DD	FLAT:__unwindfunclet$?Create@Group@script@@QAE_NABV?$basic_string@DU?$char_traits@D@std@@V?$allocator@D@2@@std@@@Z$15
	DD	03H
	DD	FLAT:__unwindfunclet$?Create@Group@script@@QAE_NABV?$basic_string@DU?$char_traits@D@std@@V?$allocator@D@2@@std@@@Z$16
	DD	02H
	DD	FLAT:__unwindfunclet$?Create@Group@script@@QAE_NABV?$basic_string@DU?$char_traits@D@std@@V?$allocator@D@2@@std@@@Z$2
	DD	05H
	DD	FLAT:__unwindfunclet$?Create@Group@script@@QAE_NABV?$basic_string@DU?$char_traits@D@std@@V?$allocator@D@2@@std@@@Z$24
	DD	01H
	DD	FLAT:__unwindfunclet$?Create@Group@script@@QAE_NABV?$basic_string@DU?$char_traits@D@std@@V?$allocator@D@2@@std@@@Z$3
	DD	07H
	DD	FLAT:__unwindfunclet$?Create@Group@script@@QAE_NABV?$basic_string@DU?$char_traits@D@std@@V?$allocator@D@2@@std@@@Z$4
xdata$x	ENDS
;	COMDAT xdata$x
xdata$x	SEGMENT
__unwindtable$??0Group@script@@QAE@XZ DD 0ffffffffH
	DD	FLAT:__unwindfunclet$??0Group@script@@QAE@XZ$0
__ehfuncinfo$??0Group@script@@QAE@XZ DD 019930522H
	DD	01H
	DD	FLAT:__unwindtable$??0Group@script@@QAE@XZ
	DD	2 DUP(00H)
	DD	2 DUP(00H)
	DD	00H
	DD	01H
xdata$x	ENDS
;	COMDAT xdata$x
xdata$x	SEGMENT
__unwindtable$??0SCmd@script@@QAE@ABU01@@Z DD 0ffffffffH
	DD	FLAT:__unwindfunclet$??0SCmd@script@@QAE@ABU01@@Z$0
	DD	00H
	DD	FLAT:__unwindfunclet$??0SCmd@script@@QAE@ABU01@@Z$1
__ehfuncinfo$??0SCmd@script@@QAE@ABU01@@Z DD 019930522H
	DD	02H
	DD	FLAT:__unwindtable$??0SCmd@script@@QAE@ABU01@@Z
	DD	2 DUP(00H)
	DD	2 DUP(00H)
	DD	00H
	DD	01H
xdata$x	ENDS
;	COMDAT xdata$x
xdata$x	SEGMENT
__unwindtable$??0SCmd@script@@QAE@XZ DD 0ffffffffH
	DD	FLAT:__unwindfunclet$??0SCmd@script@@QAE@XZ$0
__ehfuncinfo$??0SCmd@script@@QAE@XZ DD 019930522H
	DD	01H
	DD	FLAT:__unwindtable$??0SCmd@script@@QAE@XZ
	DD	2 DUP(00H)
	DD	2 DUP(00H)
	DD	00H
	DD	01H
xdata$x	ENDS
;	COMDAT xdata$x
xdata$x	SEGMENT
__unwindtable$?push_back@?$list@USArgumet@script@@V?$allocator@USArgumet@script@@@std@@@std@@QAEX$$QAUSArgumet@script@@@Z DD 0ffffffffH
	DD	FLAT:__unwindfunclet$?push_back@?$list@USArgumet@script@@V?$allocator@USArgumet@script@@@std@@@std@@QAEX$$QAUSArgumet@script@@@Z$1
__ehfuncinfo$?push_back@?$list@USArgumet@script@@V?$allocator@USArgumet@script@@@std@@@std@@QAEX$$QAUSArgumet@script@@@Z DD 019930522H
	DD	01H
	DD	FLAT:__unwindtable$?push_back@?$list@USArgumet@script@@V?$allocator@USArgumet@script@@@std@@@std@@QAEX$$QAUSArgumet@script@@@Z
	DD	2 DUP(00H)
	DD	2 DUP(00H)
	DD	00H
	DD	01H
xdata$x	ENDS
;	COMDAT xdata$x
xdata$x	SEGMENT
__unwindtable$??0SArgumet@script@@QAE@ABU01@@Z DD 0ffffffffH
	DD	FLAT:__unwindfunclet$??0SArgumet@script@@QAE@ABU01@@Z$0
	DD	00H
	DD	FLAT:__unwindfunclet$??0SArgumet@script@@QAE@ABU01@@Z$1
__ehfuncinfo$??0SArgumet@script@@QAE@ABU01@@Z DD 019930522H
	DD	02H
	DD	FLAT:__unwindtable$??0SArgumet@script@@QAE@ABU01@@Z
	DD	2 DUP(00H)
	DD	2 DUP(00H)
	DD	00H
	DD	01H
xdata$x	ENDS
;	COMDAT xdata$x
xdata$x	SEGMENT
__unwindtable$??0SArgumet@script@@QAE@ABV?$basic_string@DU?$char_traits@D@std@@V?$allocator@D@2@@std@@0@Z DD 0ffffffffH
	DD	FLAT:__unwindfunclet$??0SArgumet@script@@QAE@ABV?$basic_string@DU?$char_traits@D@std@@V?$allocator@D@2@@std@@0@Z$0
	DD	00H
	DD	FLAT:__unwindfunclet$??0SArgumet@script@@QAE@ABV?$basic_string@DU?$char_traits@D@std@@V?$allocator@D@2@@std@@0@Z$1
__ehfuncinfo$??0SArgumet@script@@QAE@ABV?$basic_string@DU?$char_traits@D@std@@V?$allocator@D@2@@std@@0@Z DD 019930522H
	DD	02H
	DD	FLAT:__unwindtable$??0SArgumet@script@@QAE@ABV?$basic_string@DU?$char_traits@D@std@@V?$allocator@D@2@@std@@0@Z
	DD	2 DUP(00H)
	DD	2 DUP(00H)
	DD	00H
	DD	01H
xdata$x	ENDS
; Function compile flags: /Ogtp
; File C:\Program Files (x86)\Microsoft Visual Studio\2019\Professional\VC\Tools\MSVC\14.29.30133\include\list
; File C:\Program Files (x86)\Microsoft Visual Studio\2019\Professional\VC\Tools\MSVC\14.29.30133\include\utility
; File C:\Program Files (x86)\Microsoft Visual Studio\2019\Professional\VC\Tools\MSVC\14.29.30133\include\list
; File C:\Program Files (x86)\Microsoft Visual Studio\2019\Professional\VC\Tools\MSVC\14.29.30133\include\xmemory
; File C:\Program Files (x86)\Microsoft Visual Studio\2019\Professional\VC\Tools\MSVC\14.29.30133\include\list
;	COMDAT ??1?$_List_node_insert_op2@V?$allocator@U?$_List_node@USArgumet@script@@PAX@std@@@std@@@std@@QAE@XZ
_TEXT	SEGMENT
??1?$_List_node_insert_op2@V?$allocator@U?$_List_node@USArgumet@script@@PAX@std@@@std@@@std@@QAE@XZ PROC ; std::_List_node_insert_op2<std::allocator<std::_List_node<script::SArgumet,void *> > >::~_List_node_insert_op2<std::allocator<std::_List_node<script::SArgumet,void *> > >, COMDAT
; _this$ = ecx

; 739  :         if (_Added == 0) {

  00000	83 79 04 00	 cmp	 DWORD PTR [ecx+4], 0
  00004	74 39		 je	 SHORT $LN3@List_node_

; 740  :             return;
; 741  :         }
; 742  : 
; 743  :         _Construct_in_place(_Head->_Prev, pointer{});

  00006	8b 41 0c	 mov	 eax, DWORD PTR [ecx+12]
  00009	57		 push	 edi
  0000a	c7 40 04 00 00
	00 00		 mov	 DWORD PTR [eax+4], 0

; 744  :         _Construct_in_place(_Tail->_Next, pointer{});

  00011	8b 41 08	 mov	 eax, DWORD PTR [ecx+8]
  00014	c7 00 00 00 00
	00		 mov	 DWORD PTR [eax], 0

; 745  :         pointer _Subject = _Head;

  0001a	8b 79 0c	 mov	 edi, DWORD PTR [ecx+12]

; 746  :         while (_Subject) {

  0001d	85 ff		 test	 edi, edi
  0001f	74 1d		 je	 SHORT $LN41@List_node_
  00021	56		 push	 esi
$LL2@List_node_:
; File C:\Program Files (x86)\Microsoft Visual Studio\2019\Professional\VC\Tools\MSVC\14.29.30133\include\utility

; 616  :     _Ty _Old_val = static_cast<_Ty&&>(_Val);

  00022	8b f7		 mov	 esi, edi

; 617  :     _Val         = static_cast<_Other&&>(_New_val);

  00024	8b 3f		 mov	 edi, DWORD PTR [edi]
; File C:\Program Files (x86)\Microsoft Visual Studio\2019\Professional\VC\Tools\MSVC\14.29.30133\include\list

; 321  :         allocator_traits<_Alnode>::destroy(_Al, _STD addressof(_Ptr->_Myval));

  00026	8d 4e 08	 lea	 ecx, DWORD PTR [esi+8]
  00029	e8 00 00 00 00	 call	 ??1SArgumet@script@@QAE@XZ
; File C:\Program Files (x86)\Microsoft Visual Studio\2019\Professional\VC\Tools\MSVC\14.29.30133\include\xmemory

; 264  :         ::operator delete(_Ptr, _Bytes);

  0002e	6a 38		 push	 56			; 00000038H
  00030	56		 push	 esi
  00031	e8 00 00 00 00	 call	 ??3@YAXPAXI@Z		; operator delete
  00036	83 c4 08	 add	 esp, 8
; File C:\Program Files (x86)\Microsoft Visual Studio\2019\Professional\VC\Tools\MSVC\14.29.30133\include\list

; 746  :         while (_Subject) {

  00039	85 ff		 test	 edi, edi
  0003b	75 e5		 jne	 SHORT $LL2@List_node_
  0003d	5e		 pop	 esi
$LN41@List_node_:
  0003e	5f		 pop	 edi
$LN3@List_node_:

; 747  :             value_type::_Freenode(_Al, _STD exchange(_Subject, _Subject->_Next));
; 748  :         }
; 749  :     }

  0003f	c3		 ret	 0
??1?$_List_node_insert_op2@V?$allocator@U?$_List_node@USArgumet@script@@PAX@std@@@std@@@std@@QAE@XZ ENDP ; std::_List_node_insert_op2<std::allocator<std::_List_node<script::SArgumet,void *> > >::~_List_node_insert_op2<std::allocator<std::_List_node<script::SArgumet,void *> > >
_TEXT	ENDS
; Function compile flags: /Ogtp
; File C:\Program Files (x86)\Microsoft Visual Studio\2019\Professional\VC\Tools\MSVC\14.29.30133\include\list
; File C:\Program Files (x86)\Microsoft Visual Studio\2019\Professional\VC\Tools\MSVC\14.29.30133\include\xstring
; File C:\Users\murat\Desktop\Siveps2-1-99-Project\source\client\Client\EterLib\parser.h
; File C:\Program Files (x86)\Microsoft Visual Studio\2019\Professional\VC\Tools\MSVC\14.29.30133\include\xstring
; File C:\Program Files (x86)\Microsoft Visual Studio\2019\Professional\VC\Tools\MSVC\14.29.30133\include\list
; File C:\Program Files (x86)\Microsoft Visual Studio\2019\Professional\VC\Tools\MSVC\14.29.30133\include\xmemory
; File C:\Program Files (x86)\Microsoft Visual Studio\2019\Professional\VC\Tools\MSVC\14.29.30133\include\list
; File C:\Program Files (x86)\Microsoft Visual Studio\2019\Professional\VC\Tools\MSVC\14.29.30133\include\xmemory
; File C:\Program Files (x86)\Microsoft Visual Studio\2019\Professional\VC\Tools\MSVC\14.29.30133\include\list
; File C:\Program Files (x86)\Microsoft Visual Studio\2019\Professional\VC\Tools\MSVC\14.29.30133\include\xmemory
; File C:\Program Files (x86)\Microsoft Visual Studio\2019\Professional\VC\Tools\MSVC\14.29.30133\include\list
; File C:\Program Files (x86)\Microsoft Visual Studio\2019\Professional\VC\Tools\MSVC\14.29.30133\include\utility
; File C:\Program Files (x86)\Microsoft Visual Studio\2019\Professional\VC\Tools\MSVC\14.29.30133\include\list
; File C:\Program Files (x86)\Microsoft Visual Studio\2019\Professional\VC\Tools\MSVC\14.29.30133\include\xmemory
; File C:\Program Files (x86)\Microsoft Visual Studio\2019\Professional\VC\Tools\MSVC\14.29.30133\include\list
; File C:\Program Files (x86)\Microsoft Visual Studio\2019\Professional\VC\Tools\MSVC\14.29.30133\include\xmemory
; File C:\Program Files (x86)\Microsoft Visual Studio\2019\Professional\VC\Tools\MSVC\14.29.30133\include\list
; File C:\Program Files (x86)\Microsoft Visual Studio\2019\Professional\VC\Tools\MSVC\14.29.30133\include\utility
; File C:\Program Files (x86)\Microsoft Visual Studio\2019\Professional\VC\Tools\MSVC\14.29.30133\include\list
; File C:\Program Files (x86)\Microsoft Visual Studio\2019\Professional\VC\Tools\MSVC\14.29.30133\include\xmemory
; File C:\Program Files (x86)\Microsoft Visual Studio\2019\Professional\VC\Tools\MSVC\14.29.30133\include\list
; File C:\Program Files (x86)\Microsoft Visual Studio\2019\Professional\VC\Tools\MSVC\14.29.30133\include\xmemory
; File C:\Program Files (x86)\Microsoft Visual Studio\2019\Professional\VC\Tools\MSVC\14.29.30133\include\list
;	COMDAT ??$_Assign_cast@AAUSArgumet@script@@V?$_List_unchecked_const_iterator@V?$_List_val@U?$_List_simple_types@USArgumet@script@@@std@@@std@@U_Iterator_base0@2@@std@@@?$list@USArgumet@script@@V?$allocator@USArgumet@script@@@std@@@std@@AAEXV?$_List_unchecked_const_iterator@V?$_List_val@U?$_List_simple_types@USArgumet@script@@@std@@@std@@U_Iterator_base0@2@@1@V21@@Z
_TEXT	SEGMENT
__Op$2 = -44						; size = 16
__Op$2$ = -28						; size = 4
tv1000 = -28						; size = 4
__Newnode$3 = -24					; size = 8
__Erasures$1$ = -20					; size = 4
__Myend$1$ = -20					; size = 4
_this$1$ = -16						; size = 4
__$EHRec$ = -12						; size = 12
__UFirst$ = 8						; size = 4
__ULast$ = 12						; size = 4
??$_Assign_cast@AAUSArgumet@script@@V?$_List_unchecked_const_iterator@V?$_List_val@U?$_List_simple_types@USArgumet@script@@@std@@@std@@U_Iterator_base0@2@@std@@@?$list@USArgumet@script@@V?$allocator@USArgumet@script@@@std@@@std@@AAEXV?$_List_unchecked_const_iterator@V?$_List_val@U?$_List_simple_types@USArgumet@script@@@std@@@std@@U_Iterator_base0@2@@1@V21@@Z PROC ; std::list<script::SArgumet,std::allocator<script::SArgumet> >::_Assign_cast<script::SArgumet &,std::_List_unchecked_const_iterator<std::_List_val<std::_List_simple_types<script::SArgumet> >,std::_Iterator_base0> >, COMDAT
; _this$ = ecx

; 1265 :     void _Assign_cast(_UIter _UFirst, const _UIter _ULast) {

  00000	55		 push	 ebp
  00001	8b ec		 mov	 ebp, esp
  00003	6a ff		 push	 -1
  00005	68 00 00 00 00	 push	 __ehhandler$??$_Assign_cast@AAUSArgumet@script@@V?$_List_unchecked_const_iterator@V?$_List_val@U?$_List_simple_types@USArgumet@script@@@std@@@std@@U_Iterator_base0@2@@std@@@?$list@USArgumet@script@@V?$allocator@USArgumet@script@@@std@@@std@@AAEXV?$_List_unchecked_const_iterator@V?$_List_val@U?$_List_simple_types@USArgumet@script@@@std@@@std@@U_Iterator_base0@2@@1@V21@@Z
  0000a	64 a1 00 00 00
	00		 mov	 eax, DWORD PTR fs:0
  00010	50		 push	 eax
  00011	83 ec 20	 sub	 esp, 32			; 00000020H
  00014	53		 push	 ebx
  00015	56		 push	 esi
  00016	57		 push	 edi
  00017	a1 00 00 00 00	 mov	 eax, DWORD PTR ___security_cookie
  0001c	33 c5		 xor	 eax, ebp
  0001e	50		 push	 eax
  0001f	8d 45 f4	 lea	 eax, DWORD PTR __$EHRec$[ebp]
  00022	64 a3 00 00 00
	00		 mov	 DWORD PTR fs:0, eax
  00028	89 4d f0	 mov	 DWORD PTR _this$1$[ebp], ecx

; 1266 :         // assign [_UFirst, _ULast), casting existing nodes to _Target_ref
; 1267 :         const auto _Myend = _Mypair._Myval2._Myhead;

  0002b	8b 01		 mov	 eax, DWORD PTR [ecx]
  0002d	8b 7d 0c	 mov	 edi, DWORD PTR __ULast$[ebp]
  00030	8b d7		 mov	 edx, edi

; 1268 :         auto _Old         = _Myend->_Next;
; 1269 :         for (;;) { // attempt to reuse a node
; 1270 :             if (_Old == _Myend) { // no more nodes to reuse, append the rest

  00032	8b 75 08	 mov	 esi, DWORD PTR __UFirst$[ebp]
  00035	89 55 e4	 mov	 DWORD PTR tv1000[ebp], edx
  00038	8b 18		 mov	 ebx, DWORD PTR [eax]
  0003a	89 45 ec	 mov	 DWORD PTR __Myend$1$[ebp], eax
  0003d	3b d8		 cmp	 ebx, eax
  0003f	74 64		 je	 SHORT $LN204@Assign_cas
  00041	8b f8		 mov	 edi, eax
$LL2@Assign_cas:

; 1272 :                 _Op._Append_range_unchecked(_UFirst, _ULast);
; 1273 :                 _Op._Attach_at_end(_Mypair._Myval2);
; 1274 :                 return;
; 1275 :             }
; 1276 : 
; 1277 :             if (_UFirst == _ULast) {

  00043	3b f2		 cmp	 esi, edx
  00045	0f 84 ff 00 00
	00		 je	 $LN205@Assign_cas

; 44   :         return _Ptr->_Myval;

  0004b	8d 7e 08	 lea	 edi, DWORD PTR [esi+8]

; 1278 :                 // input sequence was shorter than existing list, destroy and deallocate what's left
; 1279 :                 _Unchecked_erase(_Old, _Myend);
; 1280 :                 return;
; 1281 :             }
; 1282 : 
; 1283 :             // reuse the node
; 1284 :             reinterpret_cast<_Target_ref>(_Old->_Myval) = *_UFirst;

  0004e	8d 4b 08	 lea	 ecx, DWORD PTR [ebx+8]
; File C:\Program Files (x86)\Microsoft Visual Studio\2019\Professional\VC\Tools\MSVC\14.29.30133\include\xstring

; 3077 :         if (this != _STD addressof(_Right)) {

  00051	3b cf		 cmp	 ecx, edi
  00053	74 19		 je	 SHORT $LN178@Assign_cas

; 2306 :         if (_Large_string_engaged()) {

  00055	83 7f 14 10	 cmp	 DWORD PTR [edi+20], 16	; 00000010H
  00059	8b c7		 mov	 eax, edi
  0005b	72 02		 jb	 SHORT $LN183@Assign_cas

; 2307 :             _Result = _Unfancy(_Bx._Ptr);

  0005d	8b 07		 mov	 eax, DWORD PTR [edi]
$LN183@Assign_cas:

; 3035 :         assign(_Right._Mypair._Myval2._Myptr(), _Right._Mypair._Myval2._Mysize);

  0005f	ff 77 10	 push	 DWORD PTR [edi+16]
  00062	50		 push	 eax
  00063	e8 00 00 00 00	 call	 ?assign@?$basic_string@DU?$char_traits@D@std@@V?$allocator@D@2@@std@@QAEAAV12@QBDI@Z ; std::basic_string<char,std::char_traits<char>,std::allocator<char> >::assign
  00068	8b 75 08	 mov	 esi, DWORD PTR __UFirst$[ebp]
  0006b	8d 4b 08	 lea	 ecx, DWORD PTR [ebx+8]
$LN178@Assign_cas:
; File C:\Users\murat\Desktop\Siveps2-1-99-Project\source\client\Client\EterLib\parser.h

; 24   : 			strValue = c_arg.strValue;

  0006e	83 c7 18	 add	 edi, 24			; 00000018H
  00071	83 c1 18	 add	 ecx, 24			; 00000018H
; File C:\Program Files (x86)\Microsoft Visual Studio\2019\Professional\VC\Tools\MSVC\14.29.30133\include\xstring

; 3077 :         if (this != _STD addressof(_Right)) {

  00074	3b cf		 cmp	 ecx, edi
  00076	74 16		 je	 SHORT $LN188@Assign_cas

; 2306 :         if (_Large_string_engaged()) {

  00078	83 7f 14 10	 cmp	 DWORD PTR [edi+20], 16	; 00000010H
  0007c	8b c7		 mov	 eax, edi
  0007e	72 02		 jb	 SHORT $LN193@Assign_cas

; 2307 :             _Result = _Unfancy(_Bx._Ptr);

  00080	8b 07		 mov	 eax, DWORD PTR [edi]
$LN193@Assign_cas:

; 3035 :         assign(_Right._Mypair._Myval2._Myptr(), _Right._Mypair._Myval2._Mysize);

  00082	ff 77 10	 push	 DWORD PTR [edi+16]
  00085	50		 push	 eax
  00086	e8 00 00 00 00	 call	 ?assign@?$basic_string@DU?$char_traits@D@std@@V?$allocator@D@2@@std@@QAEAAV12@QBDI@Z ; std::basic_string<char,std::char_traits<char>,std::allocator<char> >::assign
  0008b	8b 75 08	 mov	 esi, DWORD PTR __UFirst$[ebp]
$LN188@Assign_cas:
; File C:\Program Files (x86)\Microsoft Visual Studio\2019\Professional\VC\Tools\MSVC\14.29.30133\include\list

; 1285 :             _Old                                        = _Old->_Next;

  0008e	8b 1b		 mov	 ebx, DWORD PTR [ebx]
  00090	8b 7d ec	 mov	 edi, DWORD PTR __Myend$1$[ebp]

; 52   :         _Ptr = _Ptr->_Next;

  00093	8b 36		 mov	 esi, DWORD PTR [esi]

; 1268 :         auto _Old         = _Myend->_Next;
; 1269 :         for (;;) { // attempt to reuse a node
; 1270 :             if (_Old == _Myend) { // no more nodes to reuse, append the rest

  00095	8b 55 e4	 mov	 edx, DWORD PTR tv1000[ebp]

; 52   :         _Ptr = _Ptr->_Next;

  00098	89 75 08	 mov	 DWORD PTR __UFirst$[ebp], esi

; 1268 :         auto _Old         = _Myend->_Next;
; 1269 :         for (;;) { // attempt to reuse a node
; 1270 :             if (_Old == _Myend) { // no more nodes to reuse, append the rest

  0009b	3b df		 cmp	 ebx, edi
  0009d	75 a4		 jne	 SHORT $LL2@Assign_cas
  0009f	8b 7d 0c	 mov	 edi, DWORD PTR __ULast$[ebp]
  000a2	8b 4d f0	 mov	 ecx, DWORD PTR _this$1$[ebp]
$LN204@Assign_cas:

; 624  :     explicit _List_node_insert_op2(_Alnode& _Al_) : _Al(_Al_), _Added(0) {}

  000a5	33 d2		 xor	 edx, edx
  000a7	89 4d d4	 mov	 DWORD PTR __Op$2[ebp], ecx
  000aa	89 55 d8	 mov	 DWORD PTR __Op$2[ebp+4], edx

; 1271 :                 _List_node_insert_op2<_Alnode> _Op(_Getal());

  000ad	89 55 fc	 mov	 DWORD PTR __$EHRec$[ebp+8], edx

; 661  :         if (_First == _Last) { // throws

  000b0	3b 75 e4	 cmp	 esi, DWORD PTR tv1000[ebp]
  000b3	0f 84 e3 00 00
	00		 je	 $LN221@Assign_cas
; File C:\Program Files (x86)\Microsoft Visual Studio\2019\Professional\VC\Tools\MSVC\14.29.30133\include\xmemory

; 1012 :     _CONSTEXPR20_DYNALLOC explicit _Alloc_construct_ptr(_Alloc& _Al_) : _Al(_Al_), _Ptr(nullptr) {}

  000b9	89 4d e8	 mov	 DWORD PTR __Newnode$3[ebp], ecx

; 85   :         return ::operator new(_Bytes);

  000bc	6a 38		 push	 56			; 00000038H
; File C:\Program Files (x86)\Microsoft Visual Studio\2019\Professional\VC\Tools\MSVC\14.29.30133\include\list

; 665  :         _Alloc_construct_ptr<_Alnode> _Newnode(_Al);

  000be	c6 45 fc 01	 mov	 BYTE PTR __$EHRec$[ebp+8], 1
; File C:\Program Files (x86)\Microsoft Visual Studio\2019\Professional\VC\Tools\MSVC\14.29.30133\include\xmemory

; 1019 :         _Ptr = nullptr; // if allocate throws, prevents double-free

  000c2	89 55 ec	 mov	 DWORD PTR __Newnode$3[ebp+4], edx

; 85   :         return ::operator new(_Bytes);

  000c5	e8 00 00 00 00	 call	 ??2@YAPAXI@Z		; operator new

; 244  :         return _Traits::_Allocate(_Bytes);

  000ca	8b d8		 mov	 ebx, eax
; File C:\Program Files (x86)\Microsoft Visual Studio\2019\Professional\VC\Tools\MSVC\14.29.30133\include\list

; 44   :         return _Ptr->_Myval;

  000cc	8d 4e 08	 lea	 ecx, DWORD PTR [esi+8]
; File C:\Program Files (x86)\Microsoft Visual Studio\2019\Professional\VC\Tools\MSVC\14.29.30133\include\xmemory

; 85   :         return ::operator new(_Bytes);

  000cf	83 c4 04	 add	 esp, 4

; 244  :         return _Traits::_Allocate(_Bytes);

  000d2	89 5d e4	 mov	 DWORD PTR __Op$2$[ebp], ebx

; 1020 :         _Ptr = _Al.allocate(1);

  000d5	89 5d ec	 mov	 DWORD PTR __Newnode$3[ebp+4], ebx

; 714  :             ::new (_Voidify_iter(_Ptr)) _Objty(_STD forward<_Types>(_Args)...);

  000d8	51		 push	 ecx
  000d9	8d 4b 08	 lea	 ecx, DWORD PTR [ebx+8]
  000dc	e8 00 00 00 00	 call	 ??0SArgumet@script@@QAE@ABU01@@Z ; script::SArgumet::SArgumet
; File C:\Program Files (x86)\Microsoft Visual Studio\2019\Professional\VC\Tools\MSVC\14.29.30133\include\list

; 52   :         _Ptr = _Ptr->_Next;

  000e1	8b 36		 mov	 esi, DWORD PTR [esi]

; 671  :             _Tail               = _Newhead;

  000e3	8b cb		 mov	 ecx, ebx
; File C:\Program Files (x86)\Microsoft Visual Studio\2019\Professional\VC\Tools\MSVC\14.29.30133\include\utility

; 617  :     _Val         = static_cast<_Other&&>(_New_val);

  000e5	c7 45 ec 00 00
	00 00		 mov	 DWORD PTR __Newnode$3[ebp+4], 0
; File C:\Program Files (x86)\Microsoft Visual Studio\2019\Professional\VC\Tools\MSVC\14.29.30133\include\list

; 672  :             ++_Added;

  000ec	ba 01 00 00 00	 mov	 edx, 1
  000f1	89 5d e0	 mov	 DWORD PTR __Op$2[ebp+12], ebx
  000f4	89 4d dc	 mov	 DWORD PTR __Op$2[ebp+8], ecx
  000f7	89 55 d8	 mov	 DWORD PTR __Op$2[ebp+4], edx

; 74   :         return _Ptr == _Right._Ptr;

  000fa	3b f7		 cmp	 esi, edi

; 676  :         while (_First != _Last) { // throws

  000fc	0f 84 a0 00 00
	00		 je	 $LN80@Assign_cas
$LL12@Assign_cas:
; File C:\Program Files (x86)\Microsoft Visual Studio\2019\Professional\VC\Tools\MSVC\14.29.30133\include\xmemory

; 85   :         return ::operator new(_Bytes);

  00102	6a 38		 push	 56			; 00000038H

; 1019 :         _Ptr = nullptr; // if allocate throws, prevents double-free

  00104	c7 45 ec 00 00
	00 00		 mov	 DWORD PTR __Newnode$3[ebp+4], 0

; 85   :         return ::operator new(_Bytes);

  0010b	e8 00 00 00 00	 call	 ??2@YAPAXI@Z		; operator new
  00110	83 c4 04	 add	 esp, 4
; File C:\Program Files (x86)\Microsoft Visual Studio\2019\Professional\VC\Tools\MSVC\14.29.30133\include\list

; 44   :         return _Ptr->_Myval;

  00113	8d 4e 08	 lea	 ecx, DWORD PTR [esi+8]
; File C:\Program Files (x86)\Microsoft Visual Studio\2019\Professional\VC\Tools\MSVC\14.29.30133\include\xmemory

; 244  :         return _Traits::_Allocate(_Bytes);

  00116	8b d8		 mov	 ebx, eax

; 1020 :         _Ptr = _Al.allocate(1);

  00118	89 5d ec	 mov	 DWORD PTR __Newnode$3[ebp+4], ebx

; 714  :             ::new (_Voidify_iter(_Ptr)) _Objty(_STD forward<_Types>(_Args)...);

  0011b	51		 push	 ecx
  0011c	8d 4b 08	 lea	 ecx, DWORD PTR [ebx+8]
  0011f	e8 00 00 00 00	 call	 ??0SArgumet@script@@QAE@ABU01@@Z ; script::SArgumet::SArgumet
; File C:\Program Files (x86)\Microsoft Visual Studio\2019\Professional\VC\Tools\MSVC\14.29.30133\include\list

; 679  :             _Construct_in_place(_Tail->_Next, _Newnode._Ptr);

  00124	8b 45 dc	 mov	 eax, DWORD PTR __Op$2[ebp+8]

; 681  :             _Tail = _STD exchange(_Newnode._Ptr, pointer{});

  00127	8b cb		 mov	 ecx, ebx

; 682  :             ++_Added;

  00129	8b 55 d8	 mov	 edx, DWORD PTR __Op$2[ebp+4]
  0012c	42		 inc	 edx
; File C:\Program Files (x86)\Microsoft Visual Studio\2019\Professional\VC\Tools\MSVC\14.29.30133\include\utility

; 617  :     _Val         = static_cast<_Other&&>(_New_val);

  0012d	c7 45 ec 00 00
	00 00		 mov	 DWORD PTR __Newnode$3[ebp+4], 0
; File C:\Program Files (x86)\Microsoft Visual Studio\2019\Professional\VC\Tools\MSVC\14.29.30133\include\list

; 681  :             _Tail = _STD exchange(_Newnode._Ptr, pointer{});

  00134	89 4d dc	 mov	 DWORD PTR __Op$2[ebp+8], ecx
  00137	89 18		 mov	 DWORD PTR [eax], ebx
  00139	89 43 04	 mov	 DWORD PTR [ebx+4], eax

; 52   :         _Ptr = _Ptr->_Next;

  0013c	8b 36		 mov	 esi, DWORD PTR [esi]

; 682  :             ++_Added;

  0013e	89 55 d8	 mov	 DWORD PTR __Op$2[ebp+4], edx

; 74   :         return _Ptr == _Right._Ptr;

  00141	3b f7		 cmp	 esi, edi

; 676  :         while (_First != _Last) { // throws

  00143	75 bd		 jne	 SHORT $LL12@Assign_cas

; 625  : 
; 626  :     _List_node_insert_op2(const _List_node_insert_op2&) = delete;
; 627  :     _List_node_insert_op2& operator=(const _List_node_insert_op2&) = delete;
; 628  : 
; 629  :     template <class... _CArgT>
; 630  :     void _Append_n(size_type _Count, const _CArgT&... _Carg) {
; 631  :         // Append _Count elements constructed from _Carg
; 632  :         if (_Count <= 0) {
; 633  :             return;
; 634  :         }
; 635  : 
; 636  :         _Alloc_construct_ptr<_Alnode> _Newnode(_Al);
; 637  :         if (_Added == 0) {
; 638  :             _Newnode._Allocate(); // throws
; 639  :             _Alnode_traits::construct(_Al, _STD addressof(_Newnode._Ptr->_Myval), _Carg...); // throws
; 640  :             _Head = _Newnode._Ptr;
; 641  :             _Tail = _Newnode._Ptr;
; 642  :             ++_Added;
; 643  :             --_Count;
; 644  :         }
; 645  : 
; 646  :         for (; 0 < _Count; --_Count) {
; 647  :             _Newnode._Allocate(); // throws
; 648  :             _Alnode_traits::construct(_Al, _STD addressof(_Newnode._Ptr->_Myval), _Carg...); // throws
; 649  :             _Construct_in_place(_Tail->_Next, _Newnode._Ptr);
; 650  :             _Construct_in_place(_Newnode._Ptr->_Prev, _Tail);
; 651  :             _Tail = _Newnode._Ptr;
; 652  :             ++_Added;
; 653  :         }
; 654  : 
; 655  :         _Newnode._Ptr = pointer{};
; 656  :     }
; 657  : 
; 658  :     template <class _InIt, class _Sentinel>
; 659  :     void _Append_range_unchecked(_InIt _First, const _Sentinel _Last) {
; 660  :         // Append the values in [_First, _Last)
; 661  :         if (_First == _Last) { // throws

  00145	8b 5d e4	 mov	 ebx, DWORD PTR __Op$2$[ebp]
  00148	eb 58		 jmp	 SHORT $LN80@Assign_cas
$LN205@Assign_cas:

; 1377 :         if (_First == _Last) {

  0014a	3b df		 cmp	 ebx, edi
  0014c	74 72		 je	 SHORT $LL138@Assign_cas

; 1378 :             return _Last;
; 1379 :         }
; 1380 : 
; 1381 :         const auto _Predecessor = _First->_Prev;

  0014e	8b 43 04	 mov	 eax, DWORD PTR [ebx+4]

; 1382 : #if _ITERATOR_DEBUG_LEVEL == 2
; 1383 :         const auto _Head = _Mypair._Myval2._Myhead;
; 1384 :         if (_First == _Head->_Next && _Last == _Head) { // orphan all non-end iterators
; 1385 :             _Mypair._Myval2._Orphan_non_end();
; 1386 :         } else { // orphan erased iterators
; 1387 :             _Lockit _Lock(_LOCK_DEBUG);
; 1388 :             for (auto _Marked = _First; _Marked != _Last; _Marked = _Marked->_Next) { // mark erased nodes
; 1389 :                 _Marked->_Prev = nullptr;
; 1390 :             }
; 1391 : 
; 1392 :             _Iterator_base12** _Pnext = &_Mypair._Myval2._Myproxy->_Myfirstiter;
; 1393 :             while (*_Pnext) {
; 1394 :                 _Iterator_base12** _Pnextnext = &(*_Pnext)->_Mynextiter;
; 1395 :                 if (static_cast<const_iterator&>(**_Pnext)._Ptr->_Prev) { // node still has a _Prev, skip
; 1396 :                     _Pnext = _Pnextnext;
; 1397 :                 } else { // orphan the iterator
; 1398 :                     (*_Pnext)->_Myproxy = nullptr;
; 1399 :                     *_Pnext             = *_Pnextnext;
; 1400 :                 }
; 1401 :             }
; 1402 : 
; 1403 :             // _Prev pointers not restored because we're about to delete the nodes of which they are a member anyway
; 1404 :         }
; 1405 : #endif // _ITERATOR_DEBUG_LEVEL == 2
; 1406 : 
; 1407 :         // snip out the removed range
; 1408 :         _Predecessor->_Next = _Last;
; 1409 :         _Last->_Prev        = _Predecessor;
; 1410 : 
; 1411 :         // count and deallocate the removed nodes
; 1412 :         auto& _Al           = _Getal();
; 1413 :         size_type _Erasures = 0;

  00151	c7 45 ec 00 00
	00 00		 mov	 DWORD PTR __Erasures$1$[ebp], 0
  00158	89 38		 mov	 DWORD PTR [eax], edi
  0015a	89 47 04	 mov	 DWORD PTR [edi+4], eax
  0015d	0f 1f 00	 npad	 3
$LL141@Assign_cas:

; 1414 :         do {
; 1415 :             const auto _Next = _First->_Next;

  00160	8b 33		 mov	 esi, DWORD PTR [ebx]

; 321  :         allocator_traits<_Alnode>::destroy(_Al, _STD addressof(_Ptr->_Myval));

  00162	8d 4b 08	 lea	 ecx, DWORD PTR [ebx+8]
  00165	e8 00 00 00 00	 call	 ??1SArgumet@script@@QAE@XZ
; File C:\Program Files (x86)\Microsoft Visual Studio\2019\Professional\VC\Tools\MSVC\14.29.30133\include\xmemory

; 264  :         ::operator delete(_Ptr, _Bytes);

  0016a	6a 38		 push	 56			; 00000038H
  0016c	53		 push	 ebx
  0016d	e8 00 00 00 00	 call	 ??3@YAXPAXI@Z		; operator delete
; File C:\Program Files (x86)\Microsoft Visual Studio\2019\Professional\VC\Tools\MSVC\14.29.30133\include\list

; 1418 :             ++_Erasures;

  00172	8b 45 ec	 mov	 eax, DWORD PTR __Erasures$1$[ebp]
; File C:\Program Files (x86)\Microsoft Visual Studio\2019\Professional\VC\Tools\MSVC\14.29.30133\include\xmemory

; 264  :         ::operator delete(_Ptr, _Bytes);

  00175	83 c4 08	 add	 esp, 8
; File C:\Program Files (x86)\Microsoft Visual Studio\2019\Professional\VC\Tools\MSVC\14.29.30133\include\list

; 1418 :             ++_Erasures;

  00178	40		 inc	 eax
  00179	8b de		 mov	 ebx, esi
  0017b	89 45 ec	 mov	 DWORD PTR __Erasures$1$[ebp], eax

; 1419 :         } while (_First != _Last);

  0017e	3b f7		 cmp	 esi, edi
  00180	75 de		 jne	 SHORT $LL141@Assign_cas

; 1420 : 
; 1421 :         _Mypair._Myval2._Mysize -= _Erasures;

  00182	8b 7d f0	 mov	 edi, DWORD PTR _this$1$[ebp]
  00185	29 47 04	 sub	 DWORD PTR [edi+4], eax

; 1286 :             ++_UFirst;
; 1287 :         }
; 1288 :     }

  00188	8b 4d f4	 mov	 ecx, DWORD PTR __$EHRec$[ebp]
  0018b	64 89 0d 00 00
	00 00		 mov	 DWORD PTR fs:0, ecx
  00192	59		 pop	 ecx
  00193	5f		 pop	 edi
  00194	5e		 pop	 esi
  00195	5b		 pop	 ebx
  00196	8b e5		 mov	 esp, ebp
  00198	5d		 pop	 ebp
  00199	c2 08 00	 ret	 8
$LN221@Assign_cas:

; 661  :         if (_First == _Last) { // throws

  0019c	8b 5d e0	 mov	 ebx, DWORD PTR __Op$2[ebp+12]
  0019f	8b 4d dc	 mov	 ecx, DWORD PTR __Op$2[ebp+8]
$LN80@Assign_cas:

; 714  :         _Attach_before(_List_data, _List_data._Myhead);

  001a2	8b 7d f0	 mov	 edi, DWORD PTR _this$1$[ebp]
  001a5	8b 37		 mov	 esi, DWORD PTR [edi]

; 694  :         if (_Local_added == 0) {

  001a7	85 d2		 test	 edx, edx
  001a9	74 15		 je	 SHORT $LL138@Assign_cas

; 695  :             return _Insert_before;
; 696  :         }
; 697  : 
; 698  :         const auto _Local_head   = _Head;
; 699  :         const auto _Local_tail   = _Tail;
; 700  :         const auto _Insert_after = _Insert_before->_Prev;

  001ab	8b 46 04	 mov	 eax, DWORD PTR [esi+4]

; 701  : 
; 702  :         _Construct_in_place(_Local_head->_Prev, _Insert_after);

  001ae	89 43 04	 mov	 DWORD PTR [ebx+4], eax

; 703  :         _Insert_after->_Next = _Local_head;

  001b1	89 18		 mov	 DWORD PTR [eax], ebx

; 704  :         _Construct_in_place(_Local_tail->_Next, _Insert_before);

  001b3	89 31		 mov	 DWORD PTR [ecx], esi

; 705  :         _Insert_before->_Prev = _Local_tail;

  001b5	89 4e 04	 mov	 DWORD PTR [esi+4], ecx

; 706  : 
; 707  :         _List_data._Mysize += _Local_added;

  001b8	01 57 04	 add	 DWORD PTR [edi+4], edx
  001bb	0f 1f 44 00 00	 npad	 5
$LL138@Assign_cas:

; 1286 :             ++_UFirst;
; 1287 :         }
; 1288 :     }

  001c0	8b 4d f4	 mov	 ecx, DWORD PTR __$EHRec$[ebp]
  001c3	64 89 0d 00 00
	00 00		 mov	 DWORD PTR fs:0, ecx
  001ca	59		 pop	 ecx
  001cb	5f		 pop	 edi
  001cc	5e		 pop	 esi
  001cd	5b		 pop	 ebx
  001ce	8b e5		 mov	 esp, ebp
  001d0	5d		 pop	 ebp
  001d1	c2 08 00	 ret	 8
_TEXT	ENDS
;	COMDAT text$x
text$x	SEGMENT
__unwindfunclet$??$_Assign_cast@AAUSArgumet@script@@V?$_List_unchecked_const_iterator@V?$_List_val@U?$_List_simple_types@USArgumet@script@@@std@@@std@@U_Iterator_base0@2@@std@@@?$list@USArgumet@script@@V?$allocator@USArgumet@script@@@std@@@std@@AAEXV?$_List_unchecked_const_iterator@V?$_List_val@U?$_List_simple_types@USArgumet@script@@@std@@@std@@U_Iterator_base0@2@@1@V21@@Z$0:
  00000	8d 4d d4	 lea	 ecx, DWORD PTR __Op$2[ebp]
  00003	e9 00 00 00 00	 jmp	 ??1?$_List_node_insert_op2@V?$allocator@U?$_List_node@USArgumet@script@@PAX@std@@@std@@@std@@QAE@XZ ; std::_List_node_insert_op2<std::allocator<std::_List_node<script::SArgumet,void *> > >::~_List_node_insert_op2<std::allocator<std::_List_node<script::SArgumet,void *> > >
__unwindfunclet$??$_Assign_cast@AAUSArgumet@script@@V?$_List_unchecked_const_iterator@V?$_List_val@U?$_List_simple_types@USArgumet@script@@@std@@@std@@U_Iterator_base0@2@@std@@@?$list@USArgumet@script@@V?$allocator@USArgumet@script@@@std@@@std@@AAEXV?$_List_unchecked_const_iterator@V?$_List_val@U?$_List_simple_types@USArgumet@script@@@std@@@std@@U_Iterator_base0@2@@1@V21@@Z$1:
  00008	8d 4d e8	 lea	 ecx, DWORD PTR __Newnode$3[ebp]
  0000b	e9 00 00 00 00	 jmp	 ??1?$_Alloc_construct_ptr@V?$allocator@U?$_List_node@USArgumet@script@@PAX@std@@@std@@@std@@QAE@XZ ; std::_Alloc_construct_ptr<std::allocator<std::_List_node<script::SArgumet,void *> > >::~_Alloc_construct_ptr<std::allocator<std::_List_node<script::SArgumet,void *> > >
  00010	cc		 int	 3
  00011	cc		 int	 3
  00012	cc		 int	 3
  00013	cc		 int	 3
  00014	cc		 int	 3
__ehhandler$??$_Assign_cast@AAUSArgumet@script@@V?$_List_unchecked_const_iterator@V?$_List_val@U?$_List_simple_types@USArgumet@script@@@std@@@std@@U_Iterator_base0@2@@std@@@?$list@USArgumet@script@@V?$allocator@USArgumet@script@@@std@@@std@@AAEXV?$_List_unchecked_const_iterator@V?$_List_val@U?$_List_simple_types@USArgumet@script@@@std@@@std@@U_Iterator_base0@2@@1@V21@@Z:
  00015	90		 npad	 1
  00016	90		 npad	 1
  00017	8b 54 24 08	 mov	 edx, DWORD PTR [esp+8]
  0001b	8d 42 0c	 lea	 eax, DWORD PTR [edx+12]
  0001e	8b 4a d0	 mov	 ecx, DWORD PTR [edx-48]
  00021	33 c8		 xor	 ecx, eax
  00023	e8 00 00 00 00	 call	 @__security_check_cookie@4
  00028	b8 00 00 00 00	 mov	 eax, OFFSET __ehfuncinfo$??$_Assign_cast@AAUSArgumet@script@@V?$_List_unchecked_const_iterator@V?$_List_val@U?$_List_simple_types@USArgumet@script@@@std@@@std@@U_Iterator_base0@2@@std@@@?$list@USArgumet@script@@V?$allocator@USArgumet@script@@@std@@@std@@AAEXV?$_List_unchecked_const_iterator@V?$_List_val@U?$_List_simple_types@USArgumet@script@@@std@@@std@@U_Iterator_base0@2@@1@V21@@Z
  0002d	e9 00 00 00 00	 jmp	 ___CxxFrameHandler3
text$x	ENDS
??$_Assign_cast@AAUSArgumet@script@@V?$_List_unchecked_const_iterator@V?$_List_val@U?$_List_simple_types@USArgumet@script@@@std@@@std@@U_Iterator_base0@2@@std@@@?$list@USArgumet@script@@V?$allocator@USArgumet@script@@@std@@@std@@AAEXV?$_List_unchecked_const_iterator@V?$_List_val@U?$_List_simple_types@USArgumet@script@@@std@@@std@@U_Iterator_base0@2@@1@V21@@Z ENDP ; std::list<script::SArgumet,std::allocator<script::SArgumet> >::_Assign_cast<script::SArgumet &,std::_List_unchecked_const_iterator<std::_List_val<std::_List_simple_types<script::SArgumet> >,std::_Iterator_base0> >
; Function compile flags: /Ogtp
; File C:\Program Files (x86)\Microsoft Visual Studio\2019\Professional\VC\Tools\MSVC\14.29.30133\include\xmemory
;	COMDAT ??1?$_Alloc_construct_ptr@V?$allocator@U?$_List_node@USArgumet@script@@PAX@std@@@std@@@std@@QAE@XZ
_TEXT	SEGMENT
??1?$_Alloc_construct_ptr@V?$allocator@U?$_List_node@USArgumet@script@@PAX@std@@@std@@@std@@QAE@XZ PROC ; std::_Alloc_construct_ptr<std::allocator<std::_List_node<script::SArgumet,void *> > >::~_Alloc_construct_ptr<std::allocator<std::_List_node<script::SArgumet,void *> > >, COMDAT
; _this$ = ecx

; 1024 :         if (_Ptr) {

  00000	8b 41 04	 mov	 eax, DWORD PTR [ecx+4]
  00003	85 c0		 test	 eax, eax
  00005	74 0b		 je	 SHORT $LN8@Alloc_cons

; 264  :         ::operator delete(_Ptr, _Bytes);

  00007	6a 38		 push	 56			; 00000038H
  00009	50		 push	 eax
  0000a	e8 00 00 00 00	 call	 ??3@YAXPAXI@Z		; operator delete
  0000f	83 c4 08	 add	 esp, 8
$LN8@Alloc_cons:

; 1025 :             _Al.deallocate(_Ptr, 1);
; 1026 :         }
; 1027 :     }

  00012	c3		 ret	 0
??1?$_Alloc_construct_ptr@V?$allocator@U?$_List_node@USArgumet@script@@PAX@std@@@std@@@std@@QAE@XZ ENDP ; std::_Alloc_construct_ptr<std::allocator<std::_List_node<script::SArgumet,void *> > >::~_Alloc_construct_ptr<std::allocator<std::_List_node<script::SArgumet,void *> > >
_TEXT	ENDS
; Function compile flags: /Ogtp
; File C:\Program Files (x86)\Microsoft Visual Studio\2019\Professional\VC\Tools\MSVC\14.29.30133\include\xmemory
;	COMDAT ??1?$_Alloc_construct_ptr@V?$allocator@U?$_List_node@USCmd@script@@PAX@std@@@std@@@std@@QAE@XZ
_TEXT	SEGMENT
??1?$_Alloc_construct_ptr@V?$allocator@U?$_List_node@USCmd@script@@PAX@std@@@std@@@std@@QAE@XZ PROC ; std::_Alloc_construct_ptr<std::allocator<std::_List_node<script::SCmd,void *> > >::~_Alloc_construct_ptr<std::allocator<std::_List_node<script::SCmd,void *> > >, COMDAT
; _this$ = ecx

; 1024 :         if (_Ptr) {

  00000	8b 41 04	 mov	 eax, DWORD PTR [ecx+4]
  00003	85 c0		 test	 eax, eax
  00005	74 0b		 je	 SHORT $LN8@Alloc_cons

; 264  :         ::operator delete(_Ptr, _Bytes);

  00007	6a 28		 push	 40			; 00000028H
  00009	50		 push	 eax
  0000a	e8 00 00 00 00	 call	 ??3@YAXPAXI@Z		; operator delete
  0000f	83 c4 08	 add	 esp, 8
$LN8@Alloc_cons:

; 1025 :             _Al.deallocate(_Ptr, 1);
; 1026 :         }
; 1027 :     }

  00012	c3		 ret	 0
??1?$_Alloc_construct_ptr@V?$allocator@U?$_List_node@USCmd@script@@PAX@std@@@std@@@std@@QAE@XZ ENDP ; std::_Alloc_construct_ptr<std::allocator<std::_List_node<script::SCmd,void *> > >::~_Alloc_construct_ptr<std::allocator<std::_List_node<script::SCmd,void *> > >
_TEXT	ENDS
; Function compile flags: /Ogtp
; File C:\Program Files (x86)\Microsoft Visual Studio\2019\Professional\VC\Tools\MSVC\14.29.30133\include\list
; File C:\Program Files (x86)\Microsoft Visual Studio\2019\Professional\VC\Tools\MSVC\14.29.30133\include\xmemory
; File C:\Program Files (x86)\Microsoft Visual Studio\2019\Professional\VC\Tools\MSVC\14.29.30133\include\list
;	COMDAT ??$_Free_non_head@V?$allocator@U?$_List_node@USArgumet@script@@PAX@std@@@std@@@?$_List_node@USArgumet@script@@PAX@std@@SAXAAV?$allocator@U?$_List_node@USArgumet@script@@PAX@std@@@1@PAU01@@Z
_TEXT	SEGMENT
__Al$ = 8						; size = 4
__Head$ = 12						; size = 4
??$_Free_non_head@V?$allocator@U?$_List_node@USArgumet@script@@PAX@std@@@std@@@?$_List_node@USArgumet@script@@PAX@std@@SAXAAV?$allocator@U?$_List_node@USArgumet@script@@PAX@std@@@1@PAU01@@Z PROC ; std::_List_node<script::SArgumet,void *>::_Free_non_head<std::allocator<std::_List_node<script::SArgumet,void *> > >, COMDAT

; 327  :         _Alnode& _Al, _Nodeptr _Head) noexcept { // free a list starting at _First and terminated at nullptr

  00000	55		 push	 ebp
  00001	8b ec		 mov	 ebp, esp
  00003	56		 push	 esi

; 328  :         _Head->_Prev->_Next = nullptr;

  00004	8b 75 0c	 mov	 esi, DWORD PTR __Head$[ebp]
  00007	8b 46 04	 mov	 eax, DWORD PTR [esi+4]
  0000a	c7 00 00 00 00
	00		 mov	 DWORD PTR [eax], 0

; 329  : 
; 330  :         auto _Pnode = _Head->_Next;

  00010	8b 36		 mov	 esi, DWORD PTR [esi]

; 331  :         for (_Nodeptr _Pnext; _Pnode; _Pnode = _Pnext) {

  00012	85 f6		 test	 esi, esi
  00014	74 26		 je	 SHORT $LN3@Free_non_h
  00016	57		 push	 edi
  00017	66 0f 1f 84 00
	00 00 00 00	 npad	 9
$LL4@Free_non_h:

; 332  :             _Pnext = _Pnode->_Next;

  00020	8b 3e		 mov	 edi, DWORD PTR [esi]

; 321  :         allocator_traits<_Alnode>::destroy(_Al, _STD addressof(_Ptr->_Myval));

  00022	8d 4e 08	 lea	 ecx, DWORD PTR [esi+8]
  00025	e8 00 00 00 00	 call	 ??1SArgumet@script@@QAE@XZ
; File C:\Program Files (x86)\Microsoft Visual Studio\2019\Professional\VC\Tools\MSVC\14.29.30133\include\xmemory

; 264  :         ::operator delete(_Ptr, _Bytes);

  0002a	6a 38		 push	 56			; 00000038H
  0002c	56		 push	 esi
  0002d	e8 00 00 00 00	 call	 ??3@YAXPAXI@Z		; operator delete
  00032	83 c4 08	 add	 esp, 8
; File C:\Program Files (x86)\Microsoft Visual Studio\2019\Professional\VC\Tools\MSVC\14.29.30133\include\list

; 331  :         for (_Nodeptr _Pnext; _Pnode; _Pnode = _Pnext) {

  00035	8b f7		 mov	 esi, edi
  00037	85 ff		 test	 edi, edi
  00039	75 e5		 jne	 SHORT $LL4@Free_non_h
  0003b	5f		 pop	 edi
$LN3@Free_non_h:
  0003c	5e		 pop	 esi

; 333  :             _Freenode(_Al, _Pnode);
; 334  :         }
; 335  :     }

  0003d	5d		 pop	 ebp
  0003e	c3		 ret	 0
??$_Free_non_head@V?$allocator@U?$_List_node@USArgumet@script@@PAX@std@@@std@@@?$_List_node@USArgumet@script@@PAX@std@@SAXAAV?$allocator@U?$_List_node@USArgumet@script@@PAX@std@@@1@PAU01@@Z ENDP ; std::_List_node<script::SArgumet,void *>::_Free_non_head<std::allocator<std::_List_node<script::SArgumet,void *> > >
_TEXT	ENDS
; Function compile flags: /Ogtp
; File C:\Program Files (x86)\Microsoft Visual Studio\2019\Professional\VC\Tools\MSVC\14.29.30133\include\list
; File C:\Program Files (x86)\Microsoft Visual Studio\2019\Professional\VC\Tools\MSVC\14.29.30133\include\xmemory
; File C:\Program Files (x86)\Microsoft Visual Studio\2019\Professional\VC\Tools\MSVC\14.29.30133\include\list
;	COMDAT ??$_Free_non_head@V?$allocator@U?$_List_node@USCmd@script@@PAX@std@@@std@@@?$_List_node@USCmd@script@@PAX@std@@SAXAAV?$allocator@U?$_List_node@USCmd@script@@PAX@std@@@1@PAU01@@Z
_TEXT	SEGMENT
__Al$ = 8						; size = 4
__Head$ = 12						; size = 4
??$_Free_non_head@V?$allocator@U?$_List_node@USCmd@script@@PAX@std@@@std@@@?$_List_node@USCmd@script@@PAX@std@@SAXAAV?$allocator@U?$_List_node@USCmd@script@@PAX@std@@@1@PAU01@@Z PROC ; std::_List_node<script::SCmd,void *>::_Free_non_head<std::allocator<std::_List_node<script::SCmd,void *> > >, COMDAT

; 327  :         _Alnode& _Al, _Nodeptr _Head) noexcept { // free a list starting at _First and terminated at nullptr

  00000	55		 push	 ebp
  00001	8b ec		 mov	 ebp, esp
  00003	56		 push	 esi

; 328  :         _Head->_Prev->_Next = nullptr;

  00004	8b 75 0c	 mov	 esi, DWORD PTR __Head$[ebp]
  00007	8b 46 04	 mov	 eax, DWORD PTR [esi+4]
  0000a	c7 00 00 00 00
	00		 mov	 DWORD PTR [eax], 0

; 329  : 
; 330  :         auto _Pnode = _Head->_Next;

  00010	8b 36		 mov	 esi, DWORD PTR [esi]

; 331  :         for (_Nodeptr _Pnext; _Pnode; _Pnode = _Pnext) {

  00012	85 f6		 test	 esi, esi
  00014	74 26		 je	 SHORT $LN3@Free_non_h
  00016	57		 push	 edi
  00017	66 0f 1f 84 00
	00 00 00 00	 npad	 9
$LL4@Free_non_h:

; 332  :             _Pnext = _Pnode->_Next;

  00020	8b 3e		 mov	 edi, DWORD PTR [esi]

; 321  :         allocator_traits<_Alnode>::destroy(_Al, _STD addressof(_Ptr->_Myval));

  00022	8d 4e 08	 lea	 ecx, DWORD PTR [esi+8]
  00025	e8 00 00 00 00	 call	 ??1SCmd@script@@QAE@XZ
; File C:\Program Files (x86)\Microsoft Visual Studio\2019\Professional\VC\Tools\MSVC\14.29.30133\include\xmemory

; 264  :         ::operator delete(_Ptr, _Bytes);

  0002a	6a 28		 push	 40			; 00000028H
  0002c	56		 push	 esi
  0002d	e8 00 00 00 00	 call	 ??3@YAXPAXI@Z		; operator delete
  00032	83 c4 08	 add	 esp, 8
; File C:\Program Files (x86)\Microsoft Visual Studio\2019\Professional\VC\Tools\MSVC\14.29.30133\include\list

; 331  :         for (_Nodeptr _Pnext; _Pnode; _Pnode = _Pnext) {

  00035	8b f7		 mov	 esi, edi
  00037	85 ff		 test	 edi, edi
  00039	75 e5		 jne	 SHORT $LL4@Free_non_h
  0003b	5f		 pop	 edi
$LN3@Free_non_h:
  0003c	5e		 pop	 esi

; 333  :             _Freenode(_Al, _Pnode);
; 334  :         }
; 335  :     }

  0003d	5d		 pop	 ebp
  0003e	c3		 ret	 0
??$_Free_non_head@V?$allocator@U?$_List_node@USCmd@script@@PAX@std@@@std@@@?$_List_node@USCmd@script@@PAX@std@@SAXAAV?$allocator@U?$_List_node@USCmd@script@@PAX@std@@@1@PAU01@@Z ENDP ; std::_List_node<script::SCmd,void *>::_Free_non_head<std::allocator<std::_List_node<script::SCmd,void *> > >
_TEXT	ENDS
; Function compile flags: /Ogtp
; File C:\Program Files (x86)\Microsoft Visual Studio\2019\Professional\VC\Tools\MSVC\14.29.30133\include\xstring
; File C:\Program Files (x86)\Microsoft Visual Studio\2019\Professional\VC\Tools\MSVC\14.29.30133\include\xmemory
; File C:\Program Files (x86)\Microsoft Visual Studio\2019\Professional\VC\Tools\MSVC\14.29.30133\include\xstring
; File C:\Program Files (x86)\Microsoft Visual Studio\2019\Professional\VC\Tools\MSVC\14.29.30133\include\xmemory
; File C:\Program Files (x86)\Microsoft Visual Studio\2019\Professional\VC\Tools\MSVC\14.29.30133\include\xstring
;	COMDAT ??__FstLetter@?1??Create@Group@script@@QAE_NABV?$basic_string@DU?$char_traits@D@std@@V?$allocator@D@2@@std@@@Z@YAXXZ
text$yd	SEGMENT
??__FstLetter@?1??Create@Group@script@@QAE_NABV?$basic_string@DU?$char_traits@D@std@@V?$allocator@D@2@@std@@@Z@YAXXZ PROC ; `script::Group::Create'::`2'::`dynamic atexit destructor for 'stLetter'', COMDAT

; 2319 :         return _BUF_SIZE <= _Myres;

  00000	8b 15 14 00 00
	00		 mov	 edx, DWORD PTR ?stLetter@?1??Create@Group@script@@QAE_NABV?$basic_string@DU?$char_traits@D@std@@V?$allocator@D@2@@std@@@Z@4V45@A+20
  00006	83 fa 10	 cmp	 edx, 16			; 00000010H

; 4618 :         if (_Mypair._Myval2._Large_string_engaged()) {

  00009	72 2f		 jb	 SHORT $LN15@dynamic
; File C:\Program Files (x86)\Microsoft Visual Studio\2019\Professional\VC\Tools\MSVC\14.29.30133\include\xmemory

; 835  :         _Deallocate<_New_alignof<_Ty>>(_Ptr, sizeof(_Ty) * _Count);

  0000b	8b 0d 00 00 00
	00		 mov	 ecx, DWORD PTR ?stLetter@?1??Create@Group@script@@QAE_NABV?$basic_string@DU?$char_traits@D@std@@V?$allocator@D@2@@std@@@Z@4V45@A
; File C:\Program Files (x86)\Microsoft Visual Studio\2019\Professional\VC\Tools\MSVC\14.29.30133\include\xstring

; 4622 :             _Al.deallocate(_Ptr, _Mypair._Myval2._Myres + 1);

  00011	42		 inc	 edx
; File C:\Program Files (x86)\Microsoft Visual Studio\2019\Professional\VC\Tools\MSVC\14.29.30133\include\xmemory

; 835  :         _Deallocate<_New_alignof<_Ty>>(_Ptr, sizeof(_Ty) * _Count);

  00012	8b c1		 mov	 eax, ecx

; 260  :         if (_Bytes >= _Big_allocation_threshold) { // boost the alignment of big allocations to help autovectorization

  00014	81 fa 00 10 00
	00		 cmp	 edx, 4096		; 00001000H
  0001a	72 14		 jb	 SHORT $LN25@dynamic

; 158  :     const uintptr_t _Ptr_container   = _Ptr_user[-1];

  0001c	8b 49 fc	 mov	 ecx, DWORD PTR [ecx-4]
  0001f	83 c2 23	 add	 edx, 35			; 00000023H
  00022	2b c1		 sub	 eax, ecx

; 159  : 
; 160  :     // If the following asserts, it likely means that we are performing
; 161  :     // an aligned delete on memory coming from an unaligned allocation.
; 162  :     _STL_ASSERT(_Ptr_user[-2] == _Big_allocation_sentinel, "invalid argument");
; 163  : 
; 164  :     // Extra paranoia on aligned allocation/deallocation; ensure _Ptr_container is
; 165  :     // in range [_Min_back_shift, _Non_user_size]
; 166  : #ifdef _DEBUG
; 167  :     constexpr uintptr_t _Min_back_shift = 2 * sizeof(void*);
; 168  : #else // ^^^ _DEBUG ^^^ // vvv !_DEBUG vvv
; 169  :     constexpr uintptr_t _Min_back_shift = sizeof(void*);
; 170  : #endif // _DEBUG
; 171  :     const uintptr_t _Back_shift = reinterpret_cast<uintptr_t>(_Ptr) - _Ptr_container;
; 172  :     _STL_VERIFY(_Back_shift >= _Min_back_shift && _Back_shift <= _Non_user_size, "invalid argument");

  00024	83 c0 fc	 add	 eax, -4			; fffffffcH
  00027	83 f8 1f	 cmp	 eax, 31			; 0000001fH
  0002a	0f 87 00 00 00
	00		 ja	 __invalid_parameter_noinfo_noreturn
$LN25@dynamic:

; 264  :         ::operator delete(_Ptr, _Bytes);

  00030	52		 push	 edx
  00031	51		 push	 ecx
  00032	e8 00 00 00 00	 call	 ??3@YAXPAXI@Z		; operator delete
  00037	83 c4 08	 add	 esp, 8
$LN15@dynamic:
; File C:\Program Files (x86)\Microsoft Visual Studio\2019\Professional\VC\Tools\MSVC\14.29.30133\include\xstring

; 4633 :             _Mypair._Myval2._Mysize = 0;

  0003a	c7 05 10 00 00
	00 00 00 00 00	 mov	 DWORD PTR ?stLetter@?1??Create@Group@script@@QAE_NABV?$basic_string@DU?$char_traits@D@std@@V?$allocator@D@2@@std@@@Z@4V45@A+16, 0

; 4634 :             _Mypair._Myval2._Myres  = _BUF_SIZE - 1;

  00044	c7 05 14 00 00
	00 0f 00 00 00	 mov	 DWORD PTR ?stLetter@?1??Create@Group@script@@QAE_NABV?$basic_string@DU?$char_traits@D@std@@V?$allocator@D@2@@std@@@Z@4V45@A+20, 15 ; 0000000fH

; 4635 :             // the _Traits::assign is last so the codegen doesn't think the char write can alias this
; 4636 :             _Traits::assign(_Mypair._Myval2._Bx._Buf[0], _Elem());

  0004e	c6 05 00 00 00
	00 00		 mov	 BYTE PTR ?stLetter@?1??Create@Group@script@@QAE_NABV?$basic_string@DU?$char_traits@D@std@@V?$allocator@D@2@@std@@@Z@4V45@A, 0
  00055	c3		 ret	 0
??__FstLetter@?1??Create@Group@script@@QAE_NABV?$basic_string@DU?$char_traits@D@std@@V?$allocator@D@2@@std@@@Z@YAXXZ ENDP ; `script::Group::Create'::`2'::`dynamic atexit destructor for 'stLetter''
text$yd	ENDS
; Function compile flags: /Ogtp
; File C:\Users\murat\Desktop\Siveps2-1-99-Project\source\client\Client\EterLib\parser.cpp
;	COMDAT ?LocaleString_Skip@@YAPBDKPBD@Z
_TEXT	SEGMENT
_codePage$ = 8						; size = 4
_cur$ = 12						; size = 4
?LocaleString_Skip@@YAPBDKPBD@Z PROC			; LocaleString_Skip, COMDAT

; 122  : {

  00000	55		 push	 ebp
  00001	8b ec		 mov	 ebp, esp
  00003	53		 push	 ebx
  00004	56		 push	 esi

; 123  : 	int loopCount = 0;
; 124  : 
; 125  : 	while (*cur)

  00005	8b 75 0c	 mov	 esi, DWORD PTR _cur$[ebp]
  00008	57		 push	 edi
  00009	33 ff		 xor	 edi, edi
  0000b	80 3e 00	 cmp	 BYTE PTR [esi], 0
  0000e	74 59		 je	 SHORT $LN7@LocaleStri
  00010	8b 5d 08	 mov	 ebx, DWORD PTR _codePage$[ebp]
$LL2@LocaleStri:

; 126  : 	{
; 127  : 		if (++loopCount > 9216)

  00013	47		 inc	 edi
  00014	81 ff 00 24 00
	00		 cmp	 edi, 9216		; 00002400H
  0001a	7f 3f		 jg	 SHORT $LN12@LocaleStri

; 130  : 			break;
; 131  : 		}
; 132  : 
; 133  : 		const char* next = CharNextExA(codePage, cur, 0);

  0001c	6a 00		 push	 0
  0001e	56		 push	 esi
  0001f	53		 push	 ebx
  00020	ff 15 00 00 00
	00		 call	 DWORD PTR __imp__CharNextExA@12
  00026	8b c8		 mov	 ecx, eax

; 134  : 		int cur_len = next - cur;

  00028	2b c6		 sub	 eax, esi

; 135  : 		if (cur_len > 1)

  0002a	83 f8 01	 cmp	 eax, 1
  0002d	7e 04		 jle	 SHORT $LN5@LocaleStri

; 136  : 		{
; 137  : 			cur = next;

  0002f	8b f1		 mov	 esi, ecx

; 138  : 		}

  00031	eb 1c		 jmp	 SHORT $LN9@LocaleStri
$LN5@LocaleStri:

; 139  : 		else if (1 == cur_len)

  00033	75 34		 jne	 SHORT $LN7@LocaleStri

; 140  : 		{
; 141  : 			if (!isspace((unsigned char) *cur) && *cur != '\n' && *cur != '\r')

  00035	0f b6 06	 movzx	 eax, BYTE PTR [esi]
  00038	50		 push	 eax
  00039	e8 00 00 00 00	 call	 _isspace
  0003e	83 c4 04	 add	 esp, 4
  00041	85 c0		 test	 eax, eax
  00043	75 0a		 jne	 SHORT $LN9@LocaleStri
  00045	8a 06		 mov	 al, BYTE PTR [esi]
  00047	3c 0a		 cmp	 al, 10			; 0000000aH
  00049	74 04		 je	 SHORT $LN9@LocaleStri
  0004b	3c 0d		 cmp	 al, 13			; 0000000dH
  0004d	75 1a		 jne	 SHORT $LN7@LocaleStri
$LN9@LocaleStri:

; 123  : 	int loopCount = 0;
; 124  : 
; 125  : 	while (*cur)

  0004f	80 3e 00	 cmp	 BYTE PTR [esi], 0
  00052	75 bf		 jne	 SHORT $LL2@LocaleStri

; 142  : 				return cur;
; 143  : 		}
; 144  : 		else
; 145  : 		{
; 146  : 			break;
; 147  : 		}
; 148  : 	}
; 149  : 	return cur;
; 150  : }

  00054	5f		 pop	 edi
  00055	8b c6		 mov	 eax, esi
  00057	5e		 pop	 esi
  00058	5b		 pop	 ebx
  00059	5d		 pop	 ebp
  0005a	c3		 ret	 0
$LN12@LocaleStri:

; 128  : 		{
; 129  : 			TraceError("Infinite loop in LocaleString_Skip [%s]", cur);

  0005b	56		 push	 esi
  0005c	68 00 00 00 00	 push	 OFFSET ??_C@_0CI@BGFMKJOI@Infinite?5loop?5in?5LocaleString_S@
  00061	e8 00 00 00 00	 call	 ?TraceError@@YAXPBDZZ	; TraceError
  00066	83 c4 08	 add	 esp, 8
$LN7@LocaleStri:

; 142  : 				return cur;
; 143  : 		}
; 144  : 		else
; 145  : 		{
; 146  : 			break;
; 147  : 		}
; 148  : 	}
; 149  : 	return cur;
; 150  : }

  00069	5f		 pop	 edi
  0006a	8b c6		 mov	 eax, esi
  0006c	5e		 pop	 esi
  0006d	5b		 pop	 ebx
  0006e	5d		 pop	 ebp
  0006f	c3		 ret	 0
?LocaleString_Skip@@YAPBDKPBD@Z ENDP			; LocaleString_Skip
_TEXT	ENDS
; Function compile flags: /Ogtp
; File C:\Users\murat\Desktop\Siveps2-1-99-Project\source\client\Client\EterLib\parser.cpp
;	COMDAT ?OLD_rtrim@@YAXPAD@Z
_TEXT	SEGMENT
_codePage$1$ = 8					; size = 4
_base$ = 8						; size = 4
?OLD_rtrim@@YAXPAD@Z PROC				; OLD_rtrim, COMDAT

; 79   : {

  00000	55		 push	 ebp
  00001	8b ec		 mov	 ebp, esp
  00003	57		 push	 edi

; 80   : 	if (!base)

  00004	8b 7d 08	 mov	 edi, DWORD PTR _base$[ebp]
  00007	85 ff		 test	 edi, edi
  00009	0f 84 da 00 00
	00		 je	 $LN30@OLD_rtrim

; 81   : 		return;
; 82   : 
; 83   : 	DWORD codePage = GetDefaultCodePage();

  0000f	53		 push	 ebx
  00010	56		 push	 esi
  00011	e8 00 00 00 00	 call	 ?GetDefaultCodePage@@YAKXZ ; GetDefaultCodePage
  00016	8b d0		 mov	 edx, eax
  00018	89 55 08	 mov	 DWORD PTR _codePage$1$[ebp], edx

; 84   : 
; 85   : 	if (949 == codePage || 936 == codePage)

  0001b	81 fa b5 03 00
	00		 cmp	 edx, 949		; 000003b5H
  00021	74 64		 je	 SHORT $LN9@OLD_rtrim
  00023	81 fa a8 03 00
	00		 cmp	 edx, 936		; 000003a8H
  00029	74 5c		 je	 SHORT $LN9@OLD_rtrim

; 97   : 		}
; 98   : 	}
; 99   : 	else
; 100  : 	{
; 101  : 		char* end = base + strlen(base);

  0002b	8b cf		 mov	 ecx, edi
  0002d	8d 71 01	 lea	 esi, DWORD PTR [ecx+1]
$LL28@OLD_rtrim:
  00030	8a 01		 mov	 al, BYTE PTR [ecx]
  00032	41		 inc	 ecx
  00033	84 c0		 test	 al, al
  00035	75 f9		 jne	 SHORT $LL28@OLD_rtrim
  00037	2b ce		 sub	 ecx, esi
  00039	8d 1c 39	 lea	 ebx, DWORD PTR [ecx+edi]

; 102  : 
; 103  : 		while (end != base)

  0003c	3b df		 cmp	 ebx, edi
  0003e	0f 84 a3 00 00
	00		 je	 $LN31@OLD_rtrim
$LL4@OLD_rtrim:

; 104  : 		{
; 105  : 			char* prev = CharPrevExA(codePage, base, end, 0);

  00044	6a 00		 push	 0
  00046	53		 push	 ebx
  00047	57		 push	 edi
  00048	52		 push	 edx
  00049	ff 15 00 00 00
	00		 call	 DWORD PTR __imp__CharPrevExA@16
  0004f	8b f0		 mov	 esi, eax

; 106  : 
; 107  : 			int prev_len = end - prev;

  00051	2b de		 sub	 ebx, esi

; 108  : 			if (prev_len != 1)

  00053	83 fb 01	 cmp	 ebx, 1
  00056	0f 85 8b 00 00
	00		 jne	 $LN31@OLD_rtrim

; 109  : 				break;
; 110  : 
; 111  : 			if (!isspace((unsigned char) *prev) && *prev != '\n' && *prev != '\r')

  0005c	0f b6 0e	 movzx	 ecx, BYTE PTR [esi]
  0005f	51		 push	 ecx
  00060	e8 00 00 00 00	 call	 _isspace
  00065	83 c4 04	 add	 esp, 4
  00068	85 c0		 test	 eax, eax
  0006a	75 0a		 jne	 SHORT $LN15@OLD_rtrim
  0006c	8a 06		 mov	 al, BYTE PTR [esi]
  0006e	3c 0a		 cmp	 al, 10			; 0000000aH
  00070	74 04		 je	 SHORT $LN15@OLD_rtrim
  00072	3c 0d		 cmp	 al, 13			; 0000000dH
  00074	75 71		 jne	 SHORT $LN31@OLD_rtrim
$LN15@OLD_rtrim:

; 102  : 
; 103  : 		while (end != base)

  00076	8b 55 08	 mov	 edx, DWORD PTR _codePage$1$[ebp]

; 112  : 				break;
; 113  : 
; 114  : 			*prev = '\0';
; 115  : 
; 116  : 			end = prev;

  00079	8b de		 mov	 ebx, esi
  0007b	c6 06 00	 mov	 BYTE PTR [esi], 0
  0007e	3b f7		 cmp	 esi, edi
  00080	75 c2		 jne	 SHORT $LL4@OLD_rtrim
  00082	5e		 pop	 esi
  00083	5b		 pop	 ebx
  00084	5f		 pop	 edi

; 117  : 		}
; 118  : 	}
; 119  : }

  00085	5d		 pop	 ebp
  00086	c3		 ret	 0
$LN9@OLD_rtrim:

; 86   : 	{
; 87   : 		char* end = base + strlen(base) - 1;

  00087	8b cf		 mov	 ecx, edi
  00089	8d 51 01	 lea	 edx, DWORD PTR [ecx+1]
  0008c	0f 1f 40 00	 npad	 4
$LL29@OLD_rtrim:
  00090	8a 01		 mov	 al, BYTE PTR [ecx]
  00092	41		 inc	 ecx
  00093	84 c0		 test	 al, al
  00095	75 f9		 jne	 SHORT $LL29@OLD_rtrim
  00097	2b ca		 sub	 ecx, edx
  00099	8d 77 ff	 lea	 esi, DWORD PTR [edi-1]
  0009c	03 f1		 add	 esi, ecx

; 88   : 
; 89   : 		while (end != base)

  0009e	3b f7		 cmp	 esi, edi
  000a0	74 45		 je	 SHORT $LN31@OLD_rtrim
  000a2	8b 5d 08	 mov	 ebx, DWORD PTR _codePage$1$[ebp]
$LL2@OLD_rtrim:

; 90   : 		{
; 91   : 			if (!isnhspace((unsigned char) *end) && *end != '\n' && *end != '\r' || (end!=base && *((unsigned char*)end-1)>0xa0))

  000a5	8a 0e		 mov	 cl, BYTE PTR [esi]
  000a7	8a c1		 mov	 al, cl
  000a9	24 e0		 and	 al, 224			; 000000e0H
  000ab	3c 90		 cmp	 al, 144			; 00000090H
  000ad	77 10		 ja	 SHORT $LN13@OLD_rtrim
  000af	0f b6 c1	 movzx	 eax, cl
  000b2	50		 push	 eax
  000b3	e8 00 00 00 00	 call	 _isspace
  000b8	83 c4 04	 add	 esp, 4
  000bb	85 c0		 test	 eax, eax
  000bd	75 0e		 jne	 SHORT $LN27@OLD_rtrim
$LN13@OLD_rtrim:
  000bf	8a 06		 mov	 al, BYTE PTR [esi]
  000c1	3c 0a		 cmp	 al, 10			; 0000000aH
  000c3	74 04		 je	 SHORT $LN12@OLD_rtrim
  000c5	3c 0d		 cmp	 al, 13			; 0000000dH
  000c7	75 1e		 jne	 SHORT $LN31@OLD_rtrim
$LN12@OLD_rtrim:
  000c9	3b f7		 cmp	 esi, edi
  000cb	74 06		 je	 SHORT $LN10@OLD_rtrim
$LN27@OLD_rtrim:
  000cd	80 7e ff a0	 cmp	 BYTE PTR [esi-1], 160	; 000000a0H
  000d1	77 14		 ja	 SHORT $LN31@OLD_rtrim
$LN10@OLD_rtrim:

; 92   : 				break;
; 93   : 
; 94   : 			*end = '\0';
; 95   : 
; 96   : 			end = CharPrevExA(codePage, base, end, 0);

  000d3	6a 00		 push	 0
  000d5	56		 push	 esi
  000d6	57		 push	 edi
  000d7	53		 push	 ebx
  000d8	c6 06 00	 mov	 BYTE PTR [esi], 0
  000db	ff 15 00 00 00
	00		 call	 DWORD PTR __imp__CharPrevExA@16
  000e1	8b f0		 mov	 esi, eax
  000e3	3b f7		 cmp	 esi, edi
  000e5	75 be		 jne	 SHORT $LL2@OLD_rtrim
$LN31@OLD_rtrim:
  000e7	5e		 pop	 esi
  000e8	5b		 pop	 ebx
$LN30@OLD_rtrim:
  000e9	5f		 pop	 edi

; 117  : 		}
; 118  : 	}
; 119  : }

  000ea	5d		 pop	 ebp
  000eb	c3		 ret	 0
?OLD_rtrim@@YAXPAD@Z ENDP				; OLD_rtrim
_TEXT	ENDS
; Function compile flags: /Ogtp
; File C:\Users\murat\Desktop\Siveps2-1-99-Project\source\client\Client\EterLib\parser.cpp
;	COMDAT ?LocaleString_RightTrim@@YAXPAD@Z
_TEXT	SEGMENT
_base$ = 8						; size = 4
?LocaleString_RightTrim@@YAXPAD@Z PROC			; LocaleString_RightTrim, COMDAT

; 74   : {

  00000	55		 push	 ebp
  00001	8b ec		 mov	 ebp, esp

; 75   : 	LocaleString_RightTrim(base, strlen(base));

  00003	8b 55 08	 mov	 edx, DWORD PTR _base$[ebp]
  00006	8b c2		 mov	 eax, edx
  00008	56		 push	 esi
  00009	8d 70 01	 lea	 esi, DWORD PTR [eax+1]
  0000c	0f 1f 40 00	 npad	 4
$LL3@LocaleStri:
  00010	8a 08		 mov	 cl, BYTE PTR [eax]
  00012	40		 inc	 eax
  00013	84 c9		 test	 cl, cl
  00015	75 f9		 jne	 SHORT $LL3@LocaleStri
  00017	2b c6		 sub	 eax, esi
  00019	50		 push	 eax
  0001a	52		 push	 edx
  0001b	e8 00 00 00 00	 call	 ?LocaleString_RightTrim@@YAHPADH@Z ; LocaleString_RightTrim
  00020	83 c4 08	 add	 esp, 8
  00023	5e		 pop	 esi

; 76   : }

  00024	5d		 pop	 ebp
  00025	c3		 ret	 0
?LocaleString_RightTrim@@YAXPAD@Z ENDP			; LocaleString_RightTrim
_TEXT	ENDS
; Function compile flags: /Ogtp
; File C:\Users\murat\Desktop\Siveps2-1-99-Project\source\client\Client\EterLib\parser.cpp
;	COMDAT ?LocaleString_RightTrim@@YAHPADH@Z
_TEXT	SEGMENT
_codePage$1$ = -4					; size = 4
_base$ = 8						; size = 4
_len$ = 12						; size = 4
?LocaleString_RightTrim@@YAHPADH@Z PROC			; LocaleString_RightTrim, COMDAT

; 45   : {

  00000	55		 push	 ebp
  00001	8b ec		 mov	 ebp, esp
  00003	51		 push	 ecx
  00004	53		 push	 ebx
  00005	56		 push	 esi
  00006	57		 push	 edi

; 46   : 	DWORD codePage = GetDefaultCodePage();

  00007	e8 00 00 00 00	 call	 ?GetDefaultCodePage@@YAKXZ ; GetDefaultCodePage

; 47   : 
; 48   : 	int pos = len;

  0000c	8b 75 0c	 mov	 esi, DWORD PTR _len$[ebp]
  0000f	8b c8		 mov	 ecx, eax
  00011	89 4d fc	 mov	 DWORD PTR _codePage$1$[ebp], ecx

; 49   : 
; 50   : 	while (pos > 0)

  00014	85 f6		 test	 esi, esi
  00016	7e 56		 jle	 SHORT $LN6@LocaleStri

; 46   : 	DWORD codePage = GetDefaultCodePage();

  00018	8b 45 08	 mov	 eax, DWORD PTR _base$[ebp]
  0001b	8d 1c 30	 lea	 ebx, DWORD PTR [eax+esi]
  0001e	66 90		 npad	 2
$LL2@LocaleStri:

; 51   : 	{
; 52   : 		char* cur = base + pos;
; 53   : 		char* prev = CharPrevExA(codePage, base, cur , 0);

  00020	6a 00		 push	 0
  00022	53		 push	 ebx
  00023	50		 push	 eax
  00024	51		 push	 ecx
  00025	ff 15 00 00 00
	00		 call	 DWORD PTR __imp__CharPrevExA@16
  0002b	8b f8		 mov	 edi, eax

; 54   : 
; 55   : 		int prev_len = cur - prev;

  0002d	8b cb		 mov	 ecx, ebx
  0002f	2b cf		 sub	 ecx, edi

; 56   : 		if (prev_len != 1)

  00031	83 f9 01	 cmp	 ecx, 1
  00034	75 2f		 jne	 SHORT $LN14@LocaleStri

; 57   : 			break;
; 58   : 
; 59   : 		if (!isspace((unsigned char) *prev) && *prev != '\n' && *prev != '\r')

  00036	0f b6 0f	 movzx	 ecx, BYTE PTR [edi]
  00039	51		 push	 ecx
  0003a	e8 00 00 00 00	 call	 _isspace
  0003f	83 c4 04	 add	 esp, 4
  00042	85 c0		 test	 eax, eax
  00044	75 0a		 jne	 SHORT $LN5@LocaleStri
  00046	8a 07		 mov	 al, BYTE PTR [edi]
  00048	3c 0a		 cmp	 al, 10			; 0000000aH
  0004a	74 04		 je	 SHORT $LN5@LocaleStri
  0004c	3c 0d		 cmp	 al, 13			; 0000000dH
  0004e	75 11		 jne	 SHORT $LN9@LocaleStri
$LN5@LocaleStri:

; 60   : 			break;
; 61   : 
; 62   : 		*prev = '\0';
; 63   : 
; 64   : 		pos -= prev_len;

  00050	4e		 dec	 esi
  00051	c6 07 00	 mov	 BYTE PTR [edi], 0
  00054	4b		 dec	 ebx
  00055	85 f6		 test	 esi, esi
  00057	7e 15		 jle	 SHORT $LN6@LocaleStri

; 49   : 
; 50   : 	while (pos > 0)

  00059	8b 45 08	 mov	 eax, DWORD PTR _base$[ebp]
  0005c	8b 4d fc	 mov	 ecx, DWORD PTR _codePage$1$[ebp]
  0005f	eb bf		 jmp	 SHORT $LL2@LocaleStri
$LN9@LocaleStri:

; 65   : 	}
; 66   : 
; 67   : 	if (pos > 0)

  00061	85 f6		 test	 esi, esi
  00063	74 09		 je	 SHORT $LN6@LocaleStri
$LN14@LocaleStri:
  00065	5f		 pop	 edi

; 68   : 		return pos;

  00066	8b c6		 mov	 eax, esi

; 69   : 
; 70   : 	return 0;
; 71   : }

  00068	5e		 pop	 esi
  00069	5b		 pop	 ebx
  0006a	8b e5		 mov	 esp, ebp
  0006c	5d		 pop	 ebp
  0006d	c3		 ret	 0
$LN6@LocaleStri:
  0006e	5f		 pop	 edi
  0006f	5e		 pop	 esi
  00070	33 c0		 xor	 eax, eax
  00072	5b		 pop	 ebx
  00073	8b e5		 mov	 esp, ebp
  00075	5d		 pop	 ebp
  00076	c3		 ret	 0
?LocaleString_RightTrim@@YAHPADH@Z ENDP			; LocaleString_RightTrim
_TEXT	ENDS
; Function compile flags: /Ogtp
; File C:\Users\murat\Desktop\Siveps2-1-99-Project\source\client\Client\EterLib\parser.cpp
;	COMDAT ?LocaleString_FindChar@@YAPBDPBDHD@Z
_TEXT	SEGMENT
_codePage$1$ = -4					; size = 4
_base$ = 8						; size = 4
_len$ = 12						; size = 4
_test$ = 16						; size = 1
?LocaleString_FindChar@@YAPBDPBDHD@Z PROC		; LocaleString_FindChar, COMDAT

; 13   : {

  00000	55		 push	 ebp
  00001	8b ec		 mov	 ebp, esp
  00003	51		 push	 ecx
  00004	53		 push	 ebx
  00005	56		 push	 esi
  00006	57		 push	 edi

; 14   : 	if (!base)

  00007	8b 7d 08	 mov	 edi, DWORD PTR _base$[ebp]
  0000a	85 ff		 test	 edi, edi
  0000c	74 3f		 je	 SHORT $LN7@LocaleStri

; 15   : 		return NULL;
; 16   : 
; 17   : 	DWORD codePage = GetDefaultCodePage();

  0000e	e8 00 00 00 00	 call	 ?GetDefaultCodePage@@YAKXZ ; GetDefaultCodePage

; 18   : 
; 19   : 	int pos = 0;
; 20   : 	while (pos < len)

  00013	8b 5d 0c	 mov	 ebx, DWORD PTR _len$[ebp]
  00016	33 f6		 xor	 esi, esi
  00018	89 45 fc	 mov	 DWORD PTR _codePage$1$[ebp], eax
  0001b	85 db		 test	 ebx, ebx
  0001d	7e 2e		 jle	 SHORT $LN7@LocaleStri
  0001f	90		 npad	 1
$LL2@LocaleStri:

; 21   : 	{
; 22   : 		const char* cur = base + pos;
; 23   : 		const char* next = CharNextExA(codePage, cur, 0);

  00020	6a 00		 push	 0
  00022	03 fe		 add	 edi, esi
  00024	57		 push	 edi
  00025	50		 push	 eax
  00026	ff 15 00 00 00
	00		 call	 DWORD PTR __imp__CharNextExA@12

; 24   : 		int cur_len = next - cur;

  0002c	2b c7		 sub	 eax, edi

; 25   : 		if (cur_len > 1)

  0002e	83 f8 01	 cmp	 eax, 1
  00031	7f 0e		 jg	 SHORT $LN8@LocaleStri

; 26   : 		{
; 27   : 			pos += cur_len;
; 28   : 		}
; 29   : 		else if (1 == cur_len)

  00033	75 18		 jne	 SHORT $LN7@LocaleStri

; 30   : 		{
; 31   : 			if (*cur == test)

  00035	8a 45 10	 mov	 al, BYTE PTR _test$[ebp]
  00038	38 07		 cmp	 BYTE PTR [edi], al
  0003a	74 1a		 je	 SHORT $LN12@LocaleStri

; 33   : 
; 34   : 			++pos;

  0003c	b8 01 00 00 00	 mov	 eax, 1
$LN8@LocaleStri:

; 18   : 
; 19   : 	int pos = 0;
; 20   : 	while (pos < len)

  00041	8b 7d 08	 mov	 edi, DWORD PTR _base$[ebp]
  00044	03 f0		 add	 esi, eax
  00046	8b 45 fc	 mov	 eax, DWORD PTR _codePage$1$[ebp]
  00049	3b f3		 cmp	 esi, ebx
  0004b	7c d3		 jl	 SHORT $LL2@LocaleStri
$LN7@LocaleStri:
  0004d	5f		 pop	 edi

; 35   : 		}
; 36   : 		else
; 37   : 		{
; 38   : 			break;
; 39   : 		}
; 40   : 	}
; 41   : 	return NULL;
; 42   : }

  0004e	5e		 pop	 esi
  0004f	33 c0		 xor	 eax, eax
  00051	5b		 pop	 ebx
  00052	8b e5		 mov	 esp, ebp
  00054	5d		 pop	 ebp
  00055	c3		 ret	 0
$LN12@LocaleStri:

; 32   : 				return cur;

  00056	8b c7		 mov	 eax, edi
  00058	5f		 pop	 edi

; 35   : 		}
; 36   : 		else
; 37   : 		{
; 38   : 			break;
; 39   : 		}
; 40   : 	}
; 41   : 	return NULL;
; 42   : }

  00059	5e		 pop	 esi
  0005a	5b		 pop	 ebx
  0005b	8b e5		 mov	 esp, ebp
  0005d	5d		 pop	 ebp
  0005e	c3		 ret	 0
?LocaleString_FindChar@@YAPBDPBDHD@Z ENDP		; LocaleString_FindChar
_TEXT	ENDS
; Function compile flags: /Ogtp
; File C:\Program Files (x86)\Microsoft Visual Studio\2019\Professional\VC\Tools\MSVC\14.29.30133\include\list
; File C:\Program Files (x86)\Microsoft Visual Studio\2019\Professional\VC\Tools\MSVC\14.29.30133\include\xmemory
; File C:\Program Files (x86)\Microsoft Visual Studio\2019\Professional\VC\Tools\MSVC\14.29.30133\include\list
; File C:\Program Files (x86)\Microsoft Visual Studio\2019\Professional\VC\Tools\MSVC\14.29.30133\include\xmemory
; File C:\Program Files (x86)\Microsoft Visual Studio\2019\Professional\VC\Tools\MSVC\14.29.30133\include\list
; File C:\Program Files (x86)\Microsoft Visual Studio\2019\Professional\VC\Tools\MSVC\14.29.30133\include\xmemory
; File C:\Program Files (x86)\Microsoft Visual Studio\2019\Professional\VC\Tools\MSVC\14.29.30133\include\xstring
; File C:\Users\murat\Desktop\Siveps2-1-99-Project\source\client\Client\EterLib\parser.h
; File C:\Program Files (x86)\Microsoft Visual Studio\2019\Professional\VC\Tools\MSVC\14.29.30133\include\xmemory
; File C:\Users\murat\Desktop\Siveps2-1-99-Project\source\client\Client\EterLib\parser.h
; File C:\Program Files (x86)\Microsoft Visual Studio\2019\Professional\VC\Tools\MSVC\14.29.30133\include\list
; File C:\Program Files (x86)\Microsoft Visual Studio\2019\Professional\VC\Tools\MSVC\14.29.30133\include\xmemory
; File C:\Program Files (x86)\Microsoft Visual Studio\2019\Professional\VC\Tools\MSVC\14.29.30133\include\list
; File C:\Program Files (x86)\Microsoft Visual Studio\2019\Professional\VC\Tools\MSVC\14.29.30133\include\xstring
; File C:\Users\murat\Desktop\Siveps2-1-99-Project\source\client\Client\EterLib\parser.h
; File C:\Program Files (x86)\Microsoft Visual Studio\2019\Professional\VC\Tools\MSVC\14.29.30133\include\xstring
; File C:\Program Files (x86)\Microsoft Visual Studio\2019\Professional\VC\Tools\MSVC\14.29.30133\include\list
; File C:\Users\murat\Desktop\Siveps2-1-99-Project\source\client\Client\EterLib\parser.h
; File C:\Program Files (x86)\Microsoft Visual Studio\2019\Professional\VC\Tools\MSVC\14.29.30133\include\list
;	COMDAT ?push_back@?$list@USCmd@script@@V?$allocator@USCmd@script@@@std@@@std@@QAEXABUSCmd@script@@@Z
_TEXT	SEGMENT
__Op$2 = -32						; size = 8
$T3 = -24						; size = 4
__Where$1$ = -20					; size = 4
_this$1$ = -16						; size = 4
__$EHRec$ = -12						; size = 12
__Val$ = 8						; size = 4
?push_back@?$list@USCmd@script@@V?$allocator@USCmd@script@@@std@@@std@@QAEXABUSCmd@script@@@Z PROC ; std::list<script::SCmd,std::allocator<script::SCmd> >::push_back, COMDAT
; _this$ = ecx

; 1251 :     void push_back(const _Ty& _Val) {

  00000	55		 push	 ebp
  00001	8b ec		 mov	 ebp, esp
  00003	6a ff		 push	 -1
  00005	68 00 00 00 00	 push	 __ehhandler$?push_back@?$list@USCmd@script@@V?$allocator@USCmd@script@@@std@@@std@@QAEXABUSCmd@script@@@Z
  0000a	64 a1 00 00 00
	00		 mov	 eax, DWORD PTR fs:0
  00010	50		 push	 eax
  00011	83 ec 14	 sub	 esp, 20			; 00000014H
  00014	53		 push	 ebx
  00015	56		 push	 esi
  00016	57		 push	 edi
  00017	a1 00 00 00 00	 mov	 eax, DWORD PTR ___security_cookie
  0001c	33 c5		 xor	 eax, ebp
  0001e	50		 push	 eax
  0001f	8d 45 f4	 lea	 eax, DWORD PTR __$EHRec$[ebp]
  00022	64 a3 00 00 00
	00		 mov	 DWORD PTR fs:0, eax
  00028	8b f1		 mov	 esi, ecx

; 1014 :         if (_Mysize == max_size()) {

  0002a	81 7e 04 66 66
	66 06		 cmp	 DWORD PTR [esi+4], 107374182 ; 06666666H

; 1252 :         _Emplace(_Mypair._Myval2._Myhead, _Val);

  00031	8b 06		 mov	 eax, DWORD PTR [esi]
  00033	89 45 ec	 mov	 DWORD PTR __Where$1$[ebp], eax

; 1014 :         if (_Mysize == max_size()) {

  00036	0f 84 bb 00 00
	00		 je	 $LN136@push_back
; File C:\Program Files (x86)\Microsoft Visual Studio\2019\Professional\VC\Tools\MSVC\14.29.30133\include\xmemory

; 1012 :     _CONSTEXPR20_DYNALLOC explicit _Alloc_construct_ptr(_Alloc& _Al_) : _Al(_Al_), _Ptr(nullptr) {}

  0003c	89 75 e0	 mov	 DWORD PTR __Op$2[ebp], esi

; 85   :         return ::operator new(_Bytes);

  0003f	6a 28		 push	 40			; 00000028H
; File C:\Program Files (x86)\Microsoft Visual Studio\2019\Professional\VC\Tools\MSVC\14.29.30133\include\list

; 589  :     explicit _List_node_emplace_op2(_Alnode& _Al_, _Valtys&&... _Vals) : _Alloc_construct_ptr<_Alnode>(_Al_) {

  00041	c7 45 fc 00 00
	00 00		 mov	 DWORD PTR __$EHRec$[ebp+8], 0
; File C:\Program Files (x86)\Microsoft Visual Studio\2019\Professional\VC\Tools\MSVC\14.29.30133\include\xmemory

; 1019 :         _Ptr = nullptr; // if allocate throws, prevents double-free

  00048	c7 45 e4 00 00
	00 00		 mov	 DWORD PTR __Op$2[ebp+4], 0

; 85   :         return ::operator new(_Bytes);

  0004f	e8 00 00 00 00	 call	 ??2@YAPAXI@Z		; operator new

; 244  :         return _Traits::_Allocate(_Bytes);

  00054	8b f8		 mov	 edi, eax
; File C:\Program Files (x86)\Microsoft Visual Studio\2019\Professional\VC\Tools\MSVC\14.29.30133\include\list

; 591  :         _Alnode_traits::construct(this->_Al, _STD addressof(this->_Ptr->_Myval), _STD forward<_Valtys>(_Vals)...);

  00056	8d 47 08	 lea	 eax, DWORD PTR [edi+8]
; File C:\Program Files (x86)\Microsoft Visual Studio\2019\Professional\VC\Tools\MSVC\14.29.30133\include\xmemory

; 1020 :         _Ptr = _Al.allocate(1);

  00059	89 7d e4	 mov	 DWORD PTR __Op$2[ebp+4], edi

; 714  :             ::new (_Voidify_iter(_Ptr)) _Objty(_STD forward<_Types>(_Args)...);

  0005c	89 45 e8	 mov	 DWORD PTR $T3[ebp], eax
; File C:\Program Files (x86)\Microsoft Visual Studio\2019\Professional\VC\Tools\MSVC\14.29.30133\include\xstring

; 2346 :         _CONSTEXPR20_CONTAINER _Bxty() noexcept : _Ptr() {} // user-provided, for fancy pointers

  0005f	c7 00 00 00 00
	00		 mov	 DWORD PTR [eax], 0

; 4596 :         _My_data._Mysize = 0;

  00065	c7 40 10 00 00
	00 00		 mov	 DWORD PTR [eax+16], 0

; 4597 : 
; 4598 : #ifdef __cpp_lib_constexpr_string
; 4599 :         if (_STD is_constant_evaluated()) {
; 4600 :             _My_data._Myres        = _BUF_SIZE; // SSO disabled in constexpr context
; 4601 :             auto& _Al              = _Getal();
; 4602 :             const pointer _New_ptr = _Al.allocate(_BUF_SIZE + 1); // throws
; 4603 :             _My_data._Bx._Ptr      = _New_ptr;
; 4604 : 
; 4605 :             _Elem* const _Raw_new = _Unfancy(_New_ptr);
; 4606 :             _Traits::assign(_Raw_new, _BUF_SIZE + 1, _Elem());
; 4607 :         } else
; 4608 : #endif // __cpp_lib_constexpr_string
; 4609 :         {
; 4610 :             _My_data._Myres = _BUF_SIZE - 1;

  0006c	c7 40 14 0f 00
	00 00		 mov	 DWORD PTR [eax+20], 15	; 0000000fH
; File C:\Users\murat\Desktop\Siveps2-1-99-Project\source\client\Client\EterLib\parser.h

; 39   : 		SCmd(const SCmd& c_cmd)

  00073	8d 58 18	 lea	 ebx, DWORD PTR [eax+24]
  00076	c6 45 fc 01	 mov	 BYTE PTR __$EHRec$[ebp+8], 1
; File C:\Program Files (x86)\Microsoft Visual Studio\2019\Professional\VC\Tools\MSVC\14.29.30133\include\xmemory

; 85   :         return ::operator new(_Bytes);

  0007a	6a 38		 push	 56			; 00000038H
; File C:\Users\murat\Desktop\Siveps2-1-99-Project\source\client\Client\EterLib\parser.h

; 39   : 		SCmd(const SCmd& c_cmd)

  0007c	89 5d f0	 mov	 DWORD PTR _this$1$[ebp], ebx
; File C:\Program Files (x86)\Microsoft Visual Studio\2019\Professional\VC\Tools\MSVC\14.29.30133\include\list

; 358  :     _List_val() noexcept : _Myhead(), _Mysize(0) {} // initialize data

  0007f	c7 03 00 00 00
	00		 mov	 DWORD PTR [ebx], 0
  00085	c7 43 04 00 00
	00 00		 mov	 DWORD PTR [ebx+4], 0
; File C:\Program Files (x86)\Microsoft Visual Studio\2019\Professional\VC\Tools\MSVC\14.29.30133\include\xmemory

; 85   :         return ::operator new(_Bytes);

  0008c	e8 00 00 00 00	 call	 ??2@YAPAXI@Z		; operator new
  00091	83 c4 08	 add	 esp, 8
; File C:\Program Files (x86)\Microsoft Visual Studio\2019\Professional\VC\Tools\MSVC\14.29.30133\include\list

; 1776 :         _Construct_in_place(_Newhead->_Next, _Newhead);

  00094	89 00		 mov	 DWORD PTR [eax], eax

; 1777 :         _Construct_in_place(_Newhead->_Prev, _Newhead);

  00096	89 40 04	 mov	 DWORD PTR [eax+4], eax

; 1778 :         _Mypair._Myval2._Myhead = _Newhead;

  00099	89 03		 mov	 DWORD PTR [ebx], eax
; File C:\Program Files (x86)\Microsoft Visual Studio\2019\Professional\VC\Tools\MSVC\14.29.30133\include\xstring

; 3077 :         if (this != _STD addressof(_Right)) {

  0009b	8b 5d 08	 mov	 ebx, DWORD PTR __Val$[ebp]
  0009e	8d 4f 08	 lea	 ecx, DWORD PTR [edi+8]
; File C:\Users\murat\Desktop\Siveps2-1-99-Project\source\client\Client\EterLib\parser.h

; 39   : 		SCmd(const SCmd& c_cmd)

  000a1	c6 45 fc 02	 mov	 BYTE PTR __$EHRec$[ebp+8], 2
; File C:\Program Files (x86)\Microsoft Visual Studio\2019\Professional\VC\Tools\MSVC\14.29.30133\include\xstring

; 3077 :         if (this != _STD addressof(_Right)) {

  000a5	3b cb		 cmp	 ecx, ebx
  000a7	74 13		 je	 SHORT $LN71@push_back

; 2319 :         return _BUF_SIZE <= _Myres;

  000a9	83 7b 14 10	 cmp	 DWORD PTR [ebx+20], 16	; 00000010H

; 2305 :         const value_type* _Result = _Bx._Buf;

  000ad	8b c3		 mov	 eax, ebx

; 2306 :         if (_Large_string_engaged()) {

  000af	72 02		 jb	 SHORT $LN76@push_back

; 2307 :             _Result = _Unfancy(_Bx._Ptr);

  000b1	8b 03		 mov	 eax, DWORD PTR [ebx]
$LN76@push_back:

; 3035 :         assign(_Right._Mypair._Myval2._Myptr(), _Right._Mypair._Myval2._Mysize);

  000b3	ff 73 10	 push	 DWORD PTR [ebx+16]
  000b6	50		 push	 eax
  000b7	e8 00 00 00 00	 call	 ?assign@?$basic_string@DU?$char_traits@D@std@@V?$allocator@D@2@@std@@QAEAAV12@QBDI@Z ; std::basic_string<char,std::char_traits<char>,std::allocator<char> >::assign
$LN71@push_back:
; File C:\Program Files (x86)\Microsoft Visual Studio\2019\Professional\VC\Tools\MSVC\14.29.30133\include\list

; 1084 :         if (this != _STD addressof(_Right)) {

  000bc	8b 4d f0	 mov	 ecx, DWORD PTR _this$1$[ebp]
; File C:\Users\murat\Desktop\Siveps2-1-99-Project\source\client\Client\EterLib\parser.h

; 42   : 			argList = c_cmd.argList;

  000bf	8d 43 18	 lea	 eax, DWORD PTR [ebx+24]
; File C:\Program Files (x86)\Microsoft Visual Studio\2019\Professional\VC\Tools\MSVC\14.29.30133\include\list

; 1084 :         if (this != _STD addressof(_Right)) {

  000c2	3b c8		 cmp	 ecx, eax
  000c4	74 0a		 je	 SHORT $LN81@push_back

; 39   :     _List_unchecked_const_iterator(_Nodeptr _Pnode, const _Mylist* _Plist) noexcept : _Ptr(_Pnode) {

  000c6	8b 00		 mov	 eax, DWORD PTR [eax]

; 1293 :         _Assign_cast<reference>(_Get_unwrapped(_First), _Get_unwrapped(_Last));

  000c8	50		 push	 eax
  000c9	ff 30		 push	 DWORD PTR [eax]
  000cb	e8 00 00 00 00	 call	 ??$_Assign_cast@AAUSArgumet@script@@V?$_List_unchecked_const_iterator@V?$_List_val@U?$_List_simple_types@USArgumet@script@@@std@@@std@@U_Iterator_base0@2@@std@@@?$list@USArgumet@script@@V?$allocator@USArgumet@script@@@std@@@std@@AAEXV?$_List_unchecked_const_iterator@V?$_List_val@U?$_List_simple_types@USArgumet@script@@@std@@@std@@U_Iterator_base0@2@@1@V21@@Z ; std::list<script::SArgumet,std::allocator<script::SArgumet> >::_Assign_cast<script::SArgumet &,std::_List_unchecked_const_iterator<std::_List_val<std::_List_simple_types<script::SArgumet> >,std::_Iterator_base0> >
$LN81@push_back:

; 604  :         const pointer _Insert_after = _Insert_before->_Prev;

  000d0	8b 4d ec	 mov	 ecx, DWORD PTR __Where$1$[ebp]

; 1019 :         ++_Mysize;

  000d3	ff 46 04	 inc	 DWORD PTR [esi+4]

; 604  :         const pointer _Insert_after = _Insert_before->_Prev;

  000d6	8b 41 04	 mov	 eax, DWORD PTR [ecx+4]

; 605  :         _Construct_in_place(this->_Ptr->_Next, _Insert_before);

  000d9	89 0f		 mov	 DWORD PTR [edi], ecx

; 606  :         _Construct_in_place(this->_Ptr->_Prev, _Insert_after);

  000db	89 47 04	 mov	 DWORD PTR [edi+4], eax

; 607  :         const auto _Result    = this->_Ptr;
; 608  :         this->_Ptr            = pointer{};
; 609  :         _Insert_before->_Prev = _Result;

  000de	89 79 04	 mov	 DWORD PTR [ecx+4], edi

; 610  :         _Insert_after->_Next  = _Result;

  000e1	89 38		 mov	 DWORD PTR [eax], edi

; 1253 :     }

  000e3	8b 4d f4	 mov	 ecx, DWORD PTR __$EHRec$[ebp]
  000e6	64 89 0d 00 00
	00 00		 mov	 DWORD PTR fs:0, ecx
  000ed	59		 pop	 ecx
  000ee	5f		 pop	 edi
  000ef	5e		 pop	 esi
  000f0	5b		 pop	 ebx
  000f1	8b e5		 mov	 esp, ebp
  000f3	5d		 pop	 ebp
  000f4	c2 04 00	 ret	 4
$LN136@push_back:

; 1015 :             _Xlength_error("list too long");

  000f7	68 00 00 00 00	 push	 OFFSET ??_C@_0O@NKNMEGII@list?5too?5long@
  000fc	e8 00 00 00 00	 call	 ?_Xlength_error@std@@YAXPBD@Z ; std::_Xlength_error
$LN134@push_back:
  00101	cc		 int	 3
_TEXT	ENDS
;	COMDAT text$x
text$x	SEGMENT
__unwindfunclet$?push_back@?$list@USCmd@script@@V?$allocator@USCmd@script@@@std@@@std@@QAEXABUSCmd@script@@@Z$1:
  00000	8d 4d e0	 lea	 ecx, DWORD PTR __Op$2[ebp]
  00003	e9 00 00 00 00	 jmp	 ??1?$_Alloc_construct_ptr@V?$allocator@U?$_List_node@USCmd@script@@PAX@std@@@std@@@std@@QAE@XZ ; std::_Alloc_construct_ptr<std::allocator<std::_List_node<script::SCmd,void *> > >::~_Alloc_construct_ptr<std::allocator<std::_List_node<script::SCmd,void *> > >
__unwindfunclet$?push_back@?$list@USCmd@script@@V?$allocator@USCmd@script@@@std@@@std@@QAEXABUSCmd@script@@@Z$2:
  00008	8b 4d e8	 mov	 ecx, DWORD PTR $T3[ebp]
  0000b	e9 00 00 00 00	 jmp	 ??1?$basic_string@DU?$char_traits@D@std@@V?$allocator@D@2@@std@@QAE@XZ ; std::basic_string<char,std::char_traits<char>,std::allocator<char> >::~basic_string<char,std::char_traits<char>,std::allocator<char> >
__unwindfunclet$?push_back@?$list@USCmd@script@@V?$allocator@USCmd@script@@@std@@@std@@QAEXABUSCmd@script@@@Z$3:
  00010	8b 4d e8	 mov	 ecx, DWORD PTR $T3[ebp]
  00013	83 c1 18	 add	 ecx, 24			; 00000018H
  00016	e9 00 00 00 00	 jmp	 ??1?$list@USArgumet@script@@V?$allocator@USArgumet@script@@@std@@@std@@QAE@XZ ; std::list<script::SArgumet,std::allocator<script::SArgumet> >::~list<script::SArgumet,std::allocator<script::SArgumet> >
  0001b	cc		 int	 3
  0001c	cc		 int	 3
  0001d	cc		 int	 3
  0001e	cc		 int	 3
  0001f	cc		 int	 3
__ehhandler$?push_back@?$list@USCmd@script@@V?$allocator@USCmd@script@@@std@@@std@@QAEXABUSCmd@script@@@Z:
  00020	90		 npad	 1
  00021	90		 npad	 1
  00022	8b 54 24 08	 mov	 edx, DWORD PTR [esp+8]
  00026	8d 42 0c	 lea	 eax, DWORD PTR [edx+12]
  00029	8b 4a dc	 mov	 ecx, DWORD PTR [edx-36]
  0002c	33 c8		 xor	 ecx, eax
  0002e	e8 00 00 00 00	 call	 @__security_check_cookie@4
  00033	b8 00 00 00 00	 mov	 eax, OFFSET __ehfuncinfo$?push_back@?$list@USCmd@script@@V?$allocator@USCmd@script@@@std@@@std@@QAEXABUSCmd@script@@@Z
  00038	e9 00 00 00 00	 jmp	 ___CxxFrameHandler3
text$x	ENDS
?push_back@?$list@USCmd@script@@V?$allocator@USCmd@script@@@std@@@std@@QAEXABUSCmd@script@@@Z ENDP ; std::list<script::SCmd,std::allocator<script::SCmd> >::push_back
; Function compile flags: /Ogtp
; File C:\Users\murat\Desktop\Siveps2-1-99-Project\source\client\Client\EterLib\parser.cpp
; File C:\Program Files (x86)\Microsoft Visual Studio\2019\Professional\VC\Tools\MSVC\14.29.30133\include\xstring
; File C:\Users\murat\Desktop\Siveps2-1-99-Project\source\client\Client\EterLib\parser.cpp
; File C:\Program Files (x86)\Microsoft Visual Studio\2019\Professional\VC\Tools\MSVC\14.29.30133\include\xstring
; File C:\Users\murat\Desktop\Siveps2-1-99-Project\source\client\Client\EterLib\parser.cpp
; File C:\Program Files (x86)\Microsoft Visual Studio\2019\Professional\VC\Tools\MSVC\14.29.30133\include\xstring
; File C:\Users\murat\Desktop\Siveps2-1-99-Project\source\client\Client\EterLib\parser.h
; File C:\Program Files (x86)\Microsoft Visual Studio\2019\Professional\VC\Tools\MSVC\14.29.30133\include\xstring
; File C:\Program Files (x86)\Microsoft Visual Studio\2019\Professional\VC\Tools\MSVC\14.29.30133\include\xmemory
; File C:\Program Files (x86)\Microsoft Visual Studio\2019\Professional\VC\Tools\MSVC\14.29.30133\include\xstring
; File C:\Program Files (x86)\Microsoft Visual Studio\2019\Professional\VC\Tools\MSVC\14.29.30133\include\xmemory
; File C:\Program Files (x86)\Microsoft Visual Studio\2019\Professional\VC\Tools\MSVC\14.29.30133\include\xstring
; File C:\Program Files (x86)\Microsoft Visual Studio\2019\Professional\VC\Tools\MSVC\14.29.30133\include\xmemory
; File C:\Program Files (x86)\Microsoft Visual Studio\2019\Professional\VC\Tools\MSVC\14.29.30133\include\xstring
; File C:\Program Files (x86)\Microsoft Visual Studio\2019\Professional\VC\Tools\MSVC\14.29.30133\include\xmemory
; File C:\Program Files (x86)\Microsoft Visual Studio\2019\Professional\VC\Tools\MSVC\14.29.30133\include\xstring
; File C:\Program Files (x86)\Microsoft Visual Studio\2019\Professional\VC\Tools\MSVC\14.29.30133\include\xmemory
; File C:\Program Files (x86)\Microsoft Visual Studio\2019\Professional\VC\Tools\MSVC\14.29.30133\include\xstring
; File C:\Program Files (x86)\Microsoft Visual Studio\2019\Professional\VC\Tools\MSVC\14.29.30133\include\xmemory
; File C:\Program Files (x86)\Microsoft Visual Studio\2019\Professional\VC\Tools\MSVC\14.29.30133\include\xstring
; File C:\Program Files (x86)\Microsoft Visual Studio\2019\Professional\VC\Tools\MSVC\14.29.30133\include\xmemory
; File C:\Users\murat\Desktop\Siveps2-1-99-Project\source\client\Client\EterLib\parser.cpp
; File C:\Program Files (x86)\Microsoft Visual Studio\2019\Professional\VC\Tools\MSVC\14.29.30133\include\list
; File C:\Users\murat\Desktop\Siveps2-1-99-Project\source\client\Client\EterLib\parser.cpp
; File C:\Program Files (x86)\Microsoft Visual Studio\2019\Professional\VC\Tools\MSVC\14.29.30133\include\list
; File C:\Program Files (x86)\Microsoft Visual Studio\2019\Professional\VC\Tools\MSVC\14.29.30133\include\xmemory
; File C:\Program Files (x86)\Microsoft Visual Studio\2019\Professional\VC\Tools\MSVC\14.29.30133\include\list
; File C:\Program Files (x86)\Microsoft Visual Studio\2019\Professional\VC\Tools\MSVC\14.29.30133\include\xmemory
; File C:\Program Files (x86)\Microsoft Visual Studio\2019\Professional\VC\Tools\MSVC\14.29.30133\include\list
; File C:\Program Files (x86)\Microsoft Visual Studio\2019\Professional\VC\Tools\MSVC\14.29.30133\include\xstring
; File C:\Program Files (x86)\Microsoft Visual Studio\2019\Professional\VC\Tools\MSVC\14.29.30133\include\list
; File C:\Users\murat\Desktop\Siveps2-1-99-Project\source\client\Client\EterLib\parser.cpp
; File C:\Program Files (x86)\Microsoft Visual Studio\2019\Professional\VC\Tools\MSVC\14.29.30133\include\list
; File C:\Program Files (x86)\Microsoft Visual Studio\2019\Professional\VC\Tools\MSVC\14.29.30133\include\xstring
; File C:\Program Files (x86)\Microsoft Visual Studio\2019\Professional\VC\Tools\MSVC\14.29.30133\include\xmemory
; File C:\Program Files (x86)\Microsoft Visual Studio\2019\Professional\VC\Tools\MSVC\14.29.30133\include\xstring
; File C:\Program Files (x86)\Microsoft Visual Studio\2019\Professional\VC\Tools\MSVC\14.29.30133\include\xmemory
; File C:\Program Files (x86)\Microsoft Visual Studio\2019\Professional\VC\Tools\MSVC\14.29.30133\include\xstring
; File C:\Program Files (x86)\Microsoft Visual Studio\2019\Professional\VC\Tools\MSVC\14.29.30133\include\xmemory
; File C:\Program Files (x86)\Microsoft Visual Studio\2019\Professional\VC\Tools\MSVC\14.29.30133\include\xstring
; File C:\Program Files (x86)\Microsoft Visual Studio\2019\Professional\VC\Tools\MSVC\14.29.30133\include\xmemory
; File C:\Program Files (x86)\Microsoft Visual Studio\2019\Professional\VC\Tools\MSVC\14.29.30133\include\xstring
; File C:\Users\murat\Desktop\Siveps2-1-99-Project\source\client\Client\EterLib\parser.cpp
; File C:\Program Files (x86)\Microsoft Visual Studio\2019\Professional\VC\Tools\MSVC\14.29.30133\include\xstring
; File C:\Program Files (x86)\Microsoft Visual Studio\2019\Professional\VC\Tools\MSVC\14.29.30133\include\xmemory
; File C:\Program Files (x86)\Microsoft Visual Studio\2019\Professional\VC\Tools\MSVC\14.29.30133\include\xstring
; File C:\Program Files (x86)\Microsoft Visual Studio\2019\Professional\VC\Tools\MSVC\14.29.30133\include\xmemory
; File C:\Program Files (x86)\Microsoft Visual Studio\2019\Professional\VC\Tools\MSVC\14.29.30133\include\xstring
; File C:\Users\murat\Desktop\Siveps2-1-99-Project\source\client\Client\EterLib\parser.cpp
; File C:\Program Files (x86)\Microsoft Visual Studio\2019\Professional\VC\Tools\MSVC\14.29.30133\include\xstring
; File C:\Program Files (x86)\Microsoft Visual Studio\2019\Professional\VC\Tools\MSVC\14.29.30133\include\xmemory
; File C:\Users\murat\Desktop\Siveps2-1-99-Project\source\client\Client\EterLib\parser.cpp
; File C:\Program Files (x86)\Microsoft Visual Studio\2019\Professional\VC\Tools\MSVC\14.29.30133\include\xstring
; File C:\Users\murat\Desktop\Siveps2-1-99-Project\source\client\Client\EterLib\parser.cpp
; File C:\Program Files (x86)\Microsoft Visual Studio\2019\Professional\VC\Tools\MSVC\14.29.30133\include\xstring
; File C:\Users\murat\Desktop\Siveps2-1-99-Project\source\client\Client\EterLib\parser.cpp
; File C:\Program Files (x86)\Microsoft Visual Studio\2019\Professional\VC\Tools\MSVC\14.29.30133\include\xstring
; File C:\Users\murat\Desktop\Siveps2-1-99-Project\source\client\Client\EterLib\parser.cpp
; File C:\Program Files (x86)\Microsoft Visual Studio\2019\Professional\VC\Tools\MSVC\14.29.30133\include\xstring
; File C:\Program Files (x86)\Microsoft Visual Studio\2019\Professional\VC\Tools\MSVC\14.29.30133\include\xmemory
; File C:\Program Files (x86)\Microsoft Visual Studio\2019\Professional\VC\Tools\MSVC\14.29.30133\include\xstring
; File C:\Program Files (x86)\Microsoft Visual Studio\2019\Professional\VC\Tools\MSVC\14.29.30133\include\xmemory
; File C:\Program Files (x86)\Microsoft Visual Studio\2019\Professional\VC\Tools\MSVC\14.29.30133\include\xstring
; File C:\Program Files (x86)\Microsoft Visual Studio\2019\Professional\VC\Tools\MSVC\14.29.30133\include\xmemory
; File C:\Program Files (x86)\Microsoft Visual Studio\2019\Professional\VC\Tools\MSVC\14.29.30133\include\xstring
; File C:\Program Files (x86)\Microsoft Visual Studio\2019\Professional\VC\Tools\MSVC\14.29.30133\include\xmemory
; File C:\Users\murat\Desktop\Siveps2-1-99-Project\source\client\Client\EterLib\parser.cpp
; File C:\Program Files (x86)\Microsoft Visual Studio\2019\Professional\VC\Tools\MSVC\14.29.30133\include\list
; File C:\Program Files (x86)\Microsoft Visual Studio\2019\Professional\VC\Tools\MSVC\14.29.30133\include\xstring
; File C:\Users\murat\Desktop\Siveps2-1-99-Project\source\client\Client\EterLib\parser.cpp
;	COMDAT ?GetArg@Group@script@@AAE_NPBDHAAV?$list@USArgumet@script@@V?$allocator@USArgumet@script@@@std@@@std@@@Z
_TEXT	SEGMENT
__Op$2 = -268						; size = 8
_codePage$1$ = -260					; size = 4
__Ptr$1$ = -256						; size = 4
__Result$2$ = -252					; size = 4
_c_arg_base$GSCopy$1$ = -248				; size = 4
_pos$1$ = -244						; size = 4
_argList$GSCopy$1$ = -240				; size = 4
__Old_capacity$1$ = -236				; size = 4
__Ptr$1$ = -232						; size = 4
__Result$2$ = -232					; size = 4
_c$1$ = -225						; size = 1
_iCharLen$1$ = -224					; size = 4
_isValue$1$ = -217					; size = 1
$T3 = -216						; size = 48
$T4 = -216						; size = 48
$T5 = -168						; size = 24
$T6 = -168						; size = 24
$T7 = -144						; size = 24
$T8 = -144						; size = 24
_szValue$ = -120					; size = 65
_szName$ = -52						; size = 33
__$ArrayPad$ = -16					; size = 4
__$EHRec$ = -12						; size = 12
_c_arg_base$ = 8					; size = 4
_arg_len$ = 12						; size = 4
_argList$ = 16						; size = 4
?GetArg@Group@script@@AAE_NPBDHAAV?$list@USArgumet@script@@V?$allocator@USArgumet@script@@@std@@@std@@@Z PROC ; script::Group::GetArg, COMDAT
; _this$ = ecx

; 153  : {

  00000	55		 push	 ebp
  00001	8b ec		 mov	 ebp, esp
  00003	6a ff		 push	 -1
  00005	68 00 00 00 00	 push	 __ehhandler$?GetArg@Group@script@@AAE_NPBDHAAV?$list@USArgumet@script@@V?$allocator@USArgumet@script@@@std@@@std@@@Z
  0000a	64 a1 00 00 00
	00		 mov	 eax, DWORD PTR fs:0
  00010	50		 push	 eax
  00011	81 ec 00 01 00
	00		 sub	 esp, 256		; 00000100H
  00017	a1 00 00 00 00	 mov	 eax, DWORD PTR ___security_cookie
  0001c	33 c5		 xor	 eax, ebp
  0001e	89 45 f0	 mov	 DWORD PTR __$ArrayPad$[ebp], eax
  00021	53		 push	 ebx
  00022	56		 push	 esi
  00023	57		 push	 edi
  00024	50		 push	 eax
  00025	8d 45 f4	 lea	 eax, DWORD PTR __$EHRec$[ebp]
  00028	64 a3 00 00 00
	00		 mov	 DWORD PTR fs:0, eax
  0002e	8b 45 08	 mov	 eax, DWORD PTR _c_arg_base$[ebp]

; 154  :     char szName[32 + 1];
; 155  :     char szValue[64 + 1];
; 156  : 
; 157  :     int iNameLen = 0;
; 158  :     int iValueLen = 0;
; 159  : 	int iCharLen = 0;
; 160  : 
; 161  : 	int pos = 0;

  00031	33 db		 xor	 ebx, ebx
  00033	8b 4d 10	 mov	 ecx, DWORD PTR _argList$[ebp]
  00036	33 f6		 xor	 esi, esi
  00038	89 85 08 ff ff
	ff		 mov	 DWORD PTR _c_arg_base$GSCopy$1$[ebp], eax
  0003e	33 ff		 xor	 edi, edi
  00040	89 8d 10 ff ff
	ff		 mov	 DWORD PTR _argList$GSCopy$1$[ebp], ecx
  00046	89 9d 0c ff ff
	ff		 mov	 DWORD PTR _pos$1$[ebp], ebx

; 162  : 
; 163  :     bool isValue = false;

  0004c	88 9d 27 ff ff
	ff		 mov	 BYTE PTR _isValue$1$[ebp], bl

; 164  : 
; 165  : 	DWORD codePage = GetDefaultCodePage();

  00052	e8 00 00 00 00	 call	 ?GetDefaultCodePage@@YAKXZ ; GetDefaultCodePage
  00057	8b c8		 mov	 ecx, eax
  00059	89 8d fc fe ff
	ff		 mov	 DWORD PTR _codePage$1$[ebp], ecx

; 166  : 
; 167  :     while (pos < arg_len)

  0005f	39 5d 0c	 cmp	 DWORD PTR _arg_len$[ebp], ebx
  00062	0f 8e 72 07 00
	00		 jle	 $LN485@GetArg
  00068	0f 1f 84 00 00
	00 00 00	 npad	 8
$LL2@GetArg:

; 168  :     {
; 169  : 		const char* cur = c_arg_base + pos;

  00070	03 9d 08 ff ff
	ff		 add	 ebx, DWORD PTR _c_arg_base$GSCopy$1$[ebp]

; 170  : 		const char* next = CharNextExA(codePage, cur, 0);

  00076	6a 00		 push	 0
  00078	53		 push	 ebx
  00079	51		 push	 ecx
  0007a	ff 15 00 00 00
	00		 call	 DWORD PTR __imp__CharNextExA@12

; 171  : 		iCharLen = next - cur;

  00080	2b c3		 sub	 eax, ebx
  00082	89 85 20 ff ff
	ff		 mov	 DWORD PTR _iCharLen$1$[ebp], eax

; 172  : 
; 173  : 		if (iCharLen > 1)

  00088	83 f8 01	 cmp	 eax, 1
  0008b	7e 71		 jle	 SHORT $LN4@GetArg

; 174  : 		{
; 175  : 			if (isValue)

  0008d	80 bd 27 ff ff
	ff 00		 cmp	 BYTE PTR _isValue$1$[ebp], 0
  00094	74 34		 je	 SHORT $LN6@GetArg

; 176  : 			{
; 177  : 				if (iValueLen >= 64)

  00096	83 ff 40	 cmp	 edi, 64			; 00000040H
  00099	0f 8d c1 05 00
	00		 jge	 $LN507@GetArg

; 178  : 				{
; 179  : 					TraceError("argument value overflow: must be shorter than 64 letters");
; 180  : 					return false;
; 181  : 				}
; 182  : 
; 183  : 				memcpy(szValue+iValueLen, cur, iCharLen);

  0009f	50		 push	 eax
  000a0	8d 45 88	 lea	 eax, DWORD PTR _szValue$[ebp]
  000a3	03 c7		 add	 eax, edi
  000a5	53		 push	 ebx
  000a6	50		 push	 eax
  000a7	e8 00 00 00 00	 call	 _memcpy

; 184  : 				iValueLen += iCharLen;

  000ac	8b 85 20 ff ff
	ff		 mov	 eax, DWORD PTR _iCharLen$1$[ebp]
  000b2	83 c4 0c	 add	 esp, 12			; 0000000cH
  000b5	03 f8		 add	 edi, eax

; 185  : 				szValue[iValueLen] = '\0';

  000b7	83 ff 41	 cmp	 edi, 65			; 00000041H
  000ba	0f 83 49 07 00
	00		 jae	 $LN34@GetArg
  000c0	c6 44 3d 88 00	 mov	 BYTE PTR _szValue$[ebp+edi], 0

; 186  : 			}

  000c5	e9 64 05 00 00	 jmp	 $LN21@GetArg
$LN6@GetArg:

; 187  : 			else
; 188  : 			{
; 189  : 				if (iNameLen >= 32)

  000ca	83 fe 20	 cmp	 esi, 32			; 00000020H
  000cd	0f 8d a1 05 00
	00		 jge	 $LN508@GetArg

; 190  : 				{
; 191  : 					TraceError("argument name overflow: must be shorter than 32 letters");
; 192  : 					return false;
; 193  : 				}
; 194  : 				memcpy(szName+iNameLen, cur, iCharLen);

  000d3	50		 push	 eax
  000d4	8d 45 cc	 lea	 eax, DWORD PTR _szName$[ebp]
  000d7	03 c6		 add	 eax, esi
  000d9	53		 push	 ebx
  000da	50		 push	 eax
  000db	e8 00 00 00 00	 call	 _memcpy

; 195  : 				iNameLen += iCharLen;

  000e0	8b 85 20 ff ff
	ff		 mov	 eax, DWORD PTR _iCharLen$1$[ebp]
  000e6	83 c4 0c	 add	 esp, 12			; 0000000cH
  000e9	03 f0		 add	 esi, eax

; 196  : 				szName[iNameLen] = '\0';

  000eb	83 fe 21	 cmp	 esi, 33			; 00000021H
  000ee	0f 83 15 07 00
	00		 jae	 $LN34@GetArg
  000f4	c6 44 35 cc 00	 mov	 BYTE PTR _szName$[ebp+esi], 0

; 197  : 			}
; 198  : 		}

  000f9	e9 30 05 00 00	 jmp	 $LN21@GetArg
$LN4@GetArg:

; 199  : 		else if (iCharLen == 1)

  000fe	0f 85 84 05 00
	00		 jne	 $LN515@GetArg

; 200  : 		{
; 201  : 			const char c = *cur;

  00104	8a 03		 mov	 al, BYTE PTR [ebx]
  00106	88 85 1f ff ff
	ff		 mov	 BYTE PTR _c$1$[ebp], al

; 202  : 			if (c == '|')

  0010c	3c 7c		 cmp	 al, 124			; 0000007cH
  0010e	0f 85 9b 04 00
	00		 jne	 $LN12@GetArg

; 203  : 			{
; 204  : 				if (iNameLen == 0)

  00114	85 f6		 test	 esi, esi
  00116	0f 84 30 05 00
	00		 je	 $LN503@GetArg

; 208  : 				}
; 209  : 
; 210  : 				isValue = false;
; 211  : 
; 212  : 				iNameLen = LocaleString_RightTrim(szName, iNameLen);

  0011c	8d 45 cc	 lea	 eax, DWORD PTR _szName$[ebp]
  0011f	c6 85 27 ff ff
	ff 00		 mov	 BYTE PTR _isValue$1$[ebp], 0
  00126	56		 push	 esi
  00127	50		 push	 eax
  00128	e8 00 00 00 00	 call	 ?LocaleString_RightTrim@@YAHPADH@Z ; LocaleString_RightTrim

; 213  : 				iValueLen = LocaleString_RightTrim(szValue, iValueLen);

  0012d	8d 45 88	 lea	 eax, DWORD PTR _szValue$[ebp]
  00130	57		 push	 edi
  00131	50		 push	 eax
  00132	e8 00 00 00 00	 call	 ?LocaleString_RightTrim@@YAHPADH@Z ; LocaleString_RightTrim
; File C:\Program Files (x86)\Microsoft Visual Studio\2019\Professional\VC\Tools\MSVC\14.29.30133\include\xstring

; 412  :         return _CSTD strlen(reinterpret_cast<const char*>(_First));

  00137	8d 4d 88	 lea	 ecx, DWORD PTR _szValue$[ebp]

; 2346 :         _CONSTEXPR20_CONTAINER _Bxty() noexcept : _Ptr() {} // user-provided, for fancy pointers

  0013a	c7 85 58 ff ff
	ff 00 00 00 00	 mov	 DWORD PTR $T6[ebp], 0
; File C:\Users\murat\Desktop\Siveps2-1-99-Project\source\client\Client\EterLib\parser.cpp

; 213  : 				iValueLen = LocaleString_RightTrim(szValue, iValueLen);

  00144	83 c4 10	 add	 esp, 16			; 00000010H
; File C:\Program Files (x86)\Microsoft Visual Studio\2019\Professional\VC\Tools\MSVC\14.29.30133\include\xstring

; 4596 :         _My_data._Mysize = 0;

  00147	c7 85 68 ff ff
	ff 00 00 00 00	 mov	 DWORD PTR $T6[ebp+16], 0

; 4597 : 
; 4598 : #ifdef __cpp_lib_constexpr_string
; 4599 :         if (_STD is_constant_evaluated()) {
; 4600 :             _My_data._Myres        = _BUF_SIZE; // SSO disabled in constexpr context
; 4601 :             auto& _Al              = _Getal();
; 4602 :             const pointer _New_ptr = _Al.allocate(_BUF_SIZE + 1); // throws
; 4603 :             _My_data._Bx._Ptr      = _New_ptr;
; 4604 : 
; 4605 :             _Elem* const _Raw_new = _Unfancy(_New_ptr);
; 4606 :             _Traits::assign(_Raw_new, _BUF_SIZE + 1, _Elem());
; 4607 :         } else
; 4608 : #endif // __cpp_lib_constexpr_string
; 4609 :         {
; 4610 :             _My_data._Myres = _BUF_SIZE - 1;

  00151	c7 85 6c ff ff
	ff 0f 00 00 00	 mov	 DWORD PTR $T6[ebp+20], 15 ; 0000000fH

; 412  :         return _CSTD strlen(reinterpret_cast<const char*>(_First));

  0015b	8d 51 01	 lea	 edx, DWORD PTR [ecx+1]

; 4612 :             _Traits::assign(_My_data._Bx._Buf[0], _Elem());

  0015e	c6 85 58 ff ff
	ff 00		 mov	 BYTE PTR $T6[ebp], 0
$LL516@GetArg:

; 412  :         return _CSTD strlen(reinterpret_cast<const char*>(_First));

  00165	8a 01		 mov	 al, BYTE PTR [ecx]
  00167	41		 inc	 ecx
  00168	84 c0		 test	 al, al
  0016a	75 f9		 jne	 SHORT $LL516@GetArg
  0016c	2b ca		 sub	 ecx, edx

; 3264 :         return assign(_Ptr, _Convert_size<size_type>(_Traits::length(_Ptr)));

  0016e	8d 45 88	 lea	 eax, DWORD PTR _szValue$[ebp]
  00171	51		 push	 ecx
  00172	50		 push	 eax
  00173	8d 8d 58 ff ff
	ff		 lea	 ecx, DWORD PTR $T6[ebp]
  00179	e8 00 00 00 00	 call	 ?assign@?$basic_string@DU?$char_traits@D@std@@V?$allocator@D@2@@std@@QAEAAV12@QBDI@Z ; std::basic_string<char,std::char_traits<char>,std::allocator<char> >::assign

; 412  :         return _CSTD strlen(reinterpret_cast<const char*>(_First));

  0017e	8d 4d cc	 lea	 ecx, DWORD PTR _szName$[ebp]

; 2346 :         _CONSTEXPR20_CONTAINER _Bxty() noexcept : _Ptr() {} // user-provided, for fancy pointers

  00181	c7 85 70 ff ff
	ff 00 00 00 00	 mov	 DWORD PTR $T8[ebp], 0
; File C:\Users\murat\Desktop\Siveps2-1-99-Project\source\client\Client\EterLib\parser.cpp

; 214  : 				argList.push_back(TArg(szName, szValue));

  0018b	c7 45 fc 00 00
	00 00		 mov	 DWORD PTR __$EHRec$[ebp+8], 0
; File C:\Program Files (x86)\Microsoft Visual Studio\2019\Professional\VC\Tools\MSVC\14.29.30133\include\xstring

; 412  :         return _CSTD strlen(reinterpret_cast<const char*>(_First));

  00192	8d 51 01	 lea	 edx, DWORD PTR [ecx+1]

; 4596 :         _My_data._Mysize = 0;

  00195	c7 45 80 00 00
	00 00		 mov	 DWORD PTR $T8[ebp+16], 0

; 4597 : 
; 4598 : #ifdef __cpp_lib_constexpr_string
; 4599 :         if (_STD is_constant_evaluated()) {
; 4600 :             _My_data._Myres        = _BUF_SIZE; // SSO disabled in constexpr context
; 4601 :             auto& _Al              = _Getal();
; 4602 :             const pointer _New_ptr = _Al.allocate(_BUF_SIZE + 1); // throws
; 4603 :             _My_data._Bx._Ptr      = _New_ptr;
; 4604 : 
; 4605 :             _Elem* const _Raw_new = _Unfancy(_New_ptr);
; 4606 :             _Traits::assign(_Raw_new, _BUF_SIZE + 1, _Elem());
; 4607 :         } else
; 4608 : #endif // __cpp_lib_constexpr_string
; 4609 :         {
; 4610 :             _My_data._Myres = _BUF_SIZE - 1;

  0019c	c7 45 84 0f 00
	00 00		 mov	 DWORD PTR $T8[ebp+20], 15 ; 0000000fH

; 4611 :             // the _Traits::assign is last so the codegen doesn't think the char write can alias this
; 4612 :             _Traits::assign(_My_data._Bx._Buf[0], _Elem());

  001a3	c6 85 70 ff ff
	ff 00		 mov	 BYTE PTR $T8[ebp], 0
  001aa	66 0f 1f 44 00
	00		 npad	 6
$LL517@GetArg:

; 412  :         return _CSTD strlen(reinterpret_cast<const char*>(_First));

  001b0	8a 01		 mov	 al, BYTE PTR [ecx]
  001b2	41		 inc	 ecx
  001b3	84 c0		 test	 al, al
  001b5	75 f9		 jne	 SHORT $LL517@GetArg
  001b7	2b ca		 sub	 ecx, edx

; 3264 :         return assign(_Ptr, _Convert_size<size_type>(_Traits::length(_Ptr)));

  001b9	8d 45 cc	 lea	 eax, DWORD PTR _szName$[ebp]
  001bc	51		 push	 ecx
  001bd	50		 push	 eax
  001be	8d 8d 70 ff ff
	ff		 lea	 ecx, DWORD PTR $T8[ebp]
  001c4	e8 00 00 00 00	 call	 ?assign@?$basic_string@DU?$char_traits@D@std@@V?$allocator@D@2@@std@@QAEAAV12@QBDI@Z ; std::basic_string<char,std::char_traits<char>,std::allocator<char> >::assign

; 2346 :         _CONSTEXPR20_CONTAINER _Bxty() noexcept : _Ptr() {} // user-provided, for fancy pointers

  001c9	c7 85 28 ff ff
	ff 00 00 00 00	 mov	 DWORD PTR $T4[ebp], 0

; 4596 :         _My_data._Mysize = 0;

  001d3	c7 85 38 ff ff
	ff 00 00 00 00	 mov	 DWORD PTR $T4[ebp+16], 0

; 4597 : 
; 4598 : #ifdef __cpp_lib_constexpr_string
; 4599 :         if (_STD is_constant_evaluated()) {
; 4600 :             _My_data._Myres        = _BUF_SIZE; // SSO disabled in constexpr context
; 4601 :             auto& _Al              = _Getal();
; 4602 :             const pointer _New_ptr = _Al.allocate(_BUF_SIZE + 1); // throws
; 4603 :             _My_data._Bx._Ptr      = _New_ptr;
; 4604 : 
; 4605 :             _Elem* const _Raw_new = _Unfancy(_New_ptr);
; 4606 :             _Traits::assign(_Raw_new, _BUF_SIZE + 1, _Elem());
; 4607 :         } else
; 4608 : #endif // __cpp_lib_constexpr_string
; 4609 :         {
; 4610 :             _My_data._Myres = _BUF_SIZE - 1;

  001dd	c7 85 3c ff ff
	ff 0f 00 00 00	 mov	 DWORD PTR $T4[ebp+20], 15 ; 0000000fH

; 4611 :             // the _Traits::assign is last so the codegen doesn't think the char write can alias this
; 4612 :             _Traits::assign(_My_data._Bx._Buf[0], _Elem());

  001e7	c6 85 28 ff ff
	ff 00		 mov	 BYTE PTR $T4[ebp], 0

; 4610 :             _My_data._Myres = _BUF_SIZE - 1;

  001ee	b8 0f 00 00 00	 mov	 eax, 15			; 0000000fH

; 2346 :         _CONSTEXPR20_CONTAINER _Bxty() noexcept : _Ptr() {} // user-provided, for fancy pointers

  001f3	c7 85 40 ff ff
	ff 00 00 00 00	 mov	 DWORD PTR $T4[ebp+24], 0

; 4596 :         _My_data._Mysize = 0;

  001fd	c7 85 50 ff ff
	ff 00 00 00 00	 mov	 DWORD PTR $T4[ebp+40], 0

; 4597 : 
; 4598 : #ifdef __cpp_lib_constexpr_string
; 4599 :         if (_STD is_constant_evaluated()) {
; 4600 :             _My_data._Myres        = _BUF_SIZE; // SSO disabled in constexpr context
; 4601 :             auto& _Al              = _Getal();
; 4602 :             const pointer _New_ptr = _Al.allocate(_BUF_SIZE + 1); // throws
; 4603 :             _My_data._Bx._Ptr      = _New_ptr;
; 4604 : 
; 4605 :             _Elem* const _Raw_new = _Unfancy(_New_ptr);
; 4606 :             _Traits::assign(_Raw_new, _BUF_SIZE + 1, _Elem());
; 4607 :         } else
; 4608 : #endif // __cpp_lib_constexpr_string
; 4609 :         {
; 4610 :             _My_data._Myres = _BUF_SIZE - 1;

  00207	89 85 14 ff ff
	ff		 mov	 DWORD PTR __Old_capacity$1$[ebp], eax
  0020d	89 85 54 ff ff
	ff		 mov	 DWORD PTR $T4[ebp+44], eax

; 4611 :             // the _Traits::assign is last so the codegen doesn't think the char write can alias this
; 4612 :             _Traits::assign(_My_data._Bx._Buf[0], _Elem());

  00213	c6 85 40 ff ff
	ff 00		 mov	 BYTE PTR $T4[ebp+24], 0

; 2306 :         if (_Large_string_engaged()) {

  0021a	83 7d 84 10	 cmp	 DWORD PTR $T8[ebp+20], 16 ; 00000010H
  0021e	8d 85 70 ff ff
	ff		 lea	 eax, DWORD PTR $T8[ebp]
  00224	8b 8d 70 ff ff
	ff		 mov	 ecx, DWORD PTR $T8[ebp]

; 3035 :         assign(_Right._Mypair._Myval2._Myptr(), _Right._Mypair._Myval2._Mysize);

  0022a	8b 7d 80	 mov	 edi, DWORD PTR $T8[ebp+16]

; 2306 :         if (_Large_string_engaged()) {

  0022d	0f 43 c1	 cmovae	 eax, ecx
; File C:\Users\murat\Desktop\Siveps2-1-99-Project\source\client\Client\EterLib\parser.h

; 11   :         SArgumet(const std::string& c_stName, const std::string& c_stValue)

  00230	c6 45 fc 03	 mov	 BYTE PTR __$EHRec$[ebp+8], 3
; File C:\Program Files (x86)\Microsoft Visual Studio\2019\Professional\VC\Tools\MSVC\14.29.30133\include\xstring

; 2306 :         if (_Large_string_engaged()) {

  00234	89 8d 00 ff ff
	ff		 mov	 DWORD PTR __Ptr$1$[ebp], ecx
  0023a	89 85 18 ff ff
	ff		 mov	 DWORD PTR __Result$2$[ebp], eax

; 3035 :         assign(_Right._Mypair._Myval2._Myptr(), _Right._Mypair._Myval2._Mysize);

  00240	83 ff 0f	 cmp	 edi, 15			; 0000000fH

; 3246 :         if (_Count <= _Mypair._Myval2._Myres) {

  00243	77 2d		 ja	 SHORT $LN115@GetArg

; 122  :         _CSTD memmove(_First1, _First2, _Count * sizeof(_Elem));

  00245	57		 push	 edi
  00246	50		 push	 eax
  00247	8d 85 28 ff ff
	ff		 lea	 eax, DWORD PTR $T4[ebp]

; 3248 :             _Mypair._Myval2._Mysize = _Count;

  0024d	89 bd 38 ff ff
	ff		 mov	 DWORD PTR $T4[ebp+16], edi

; 122  :         _CSTD memmove(_First1, _First2, _Count * sizeof(_Elem));

  00253	50		 push	 eax
  00254	e8 00 00 00 00	 call	 _memmove

; 3250 :             _Traits::assign(_Old_ptr[_Count], _Elem());

  00259	c6 84 3d 28 ff
	ff ff 00	 mov	 BYTE PTR $T4[ebp+edi], 0

; 3251 :             return *this;

  00261	8b 8d 54 ff ff
	ff		 mov	 ecx, DWORD PTR $T4[ebp+44]
  00267	89 8d 14 ff ff
	ff		 mov	 DWORD PTR __Old_capacity$1$[ebp], ecx
  0026d	e9 8e 00 00 00	 jmp	 $LN525@GetArg
$LN115@GetArg:

; 4508 :         if (_New_size > max_size()) {

  00272	81 ff ff ff ff
	7f		 cmp	 edi, 2147483647		; 7fffffffH
  00278	0f 87 86 05 00
	00		 ja	 $LN505@GetArg

; 4488 :         const size_type _Masked = _Requested | _ALLOC_MASK;

  0027e	8b f7		 mov	 esi, edi
  00280	83 ce 0f	 or	 esi, 15			; 0000000fH
  00283	81 fe ff ff ff
	7f		 cmp	 esi, 2147483647		; 7fffffffH

; 4489 :         if (_Masked > _Max) { // the mask overflows, settle for max_size()

  00289	76 17		 jbe	 SHORT $LN132@GetArg

; 4490 :             return _Max;

  0028b	b8 00 00 00 80	 mov	 eax, -2147483648	; 80000000H
  00290	be ff ff ff 7f	 mov	 esi, 2147483647		; 7fffffffH
; File C:\Program Files (x86)\Microsoft Visual Studio\2019\Professional\VC\Tools\MSVC\14.29.30133\include\xmemory

; 238  :             return _Allocate_manually_vector_aligned<_Traits>(_Bytes);

  00295	50		 push	 eax
  00296	e8 00 00 00 00	 call	 ??$_Allocate_manually_vector_aligned@U_Default_allocate_traits@std@@@std@@YAPAXI@Z ; std::_Allocate_manually_vector_aligned<std::_Default_allocate_traits>
  0029b	83 c4 04	 add	 esp, 4
  0029e	8b d8		 mov	 ebx, eax
  002a0	eb 35		 jmp	 SHORT $LN139@GetArg
$LN132@GetArg:
; File C:\Program Files (x86)\Microsoft Visual Studio\2019\Professional\VC\Tools\MSVC\14.29.30133\include\xstring

; 4497 :         return (_STD max)(_Masked, _Old + _Old / 2);

  002a2	83 fe 16	 cmp	 esi, 22			; 00000016H
  002a5	b8 16 00 00 00	 mov	 eax, 22			; 00000016H
  002aa	0f 42 f0	 cmovb	 esi, eax

; 4515 :         const pointer _New_ptr        = _Al.allocate(_New_capacity + 1); // throws

  002ad	8d 46 01	 lea	 eax, DWORD PTR [esi+1]
; File C:\Program Files (x86)\Microsoft Visual Studio\2019\Professional\VC\Tools\MSVC\14.29.30133\include\xmemory

; 237  :         if (_Bytes >= _Big_allocation_threshold) { // boost the alignment of big allocations to help autovectorization

  002b0	3d 00 10 00 00	 cmp	 eax, 4096		; 00001000H
  002b5	72 0d		 jb	 SHORT $LN140@GetArg

; 238  :             return _Allocate_manually_vector_aligned<_Traits>(_Bytes);

  002b7	50		 push	 eax
  002b8	e8 00 00 00 00	 call	 ??$_Allocate_manually_vector_aligned@U_Default_allocate_traits@std@@@std@@YAPAXI@Z ; std::_Allocate_manually_vector_aligned<std::_Default_allocate_traits>
  002bd	83 c4 04	 add	 esp, 4
  002c0	8b d8		 mov	 ebx, eax
  002c2	eb 13		 jmp	 SHORT $LN139@GetArg
$LN140@GetArg:

; 239  :         }
; 240  :     }
; 241  : #endif // defined(_M_IX86) || defined(_M_X64)
; 242  : 
; 243  :     if (_Bytes != 0) {

  002c4	85 c0		 test	 eax, eax
  002c6	74 0d		 je	 SHORT $LN141@GetArg

; 85   :         return ::operator new(_Bytes);

  002c8	50		 push	 eax
  002c9	e8 00 00 00 00	 call	 ??2@YAPAXI@Z		; operator new
  002ce	83 c4 04	 add	 esp, 4

; 244  :         return _Traits::_Allocate(_Bytes);

  002d1	8b d8		 mov	 ebx, eax
  002d3	eb 02		 jmp	 SHORT $LN139@GetArg
$LN141@GetArg:

; 245  :     }
; 246  : 
; 247  :     return nullptr;

  002d5	33 db		 xor	 ebx, ebx
$LN139@GetArg:
; File C:\Program Files (x86)\Microsoft Visual Studio\2019\Professional\VC\Tools\MSVC\14.29.30133\include\xstring

; 65   :         _CSTD memcpy(_First1, _First2, _Count * sizeof(_Elem));

  002d7	57		 push	 edi
  002d8	ff b5 18 ff ff
	ff		 push	 DWORD PTR __Result$2$[ebp]

; 4523 :         _Mypair._Myval2._Mysize = _New_size;

  002de	89 bd 38 ff ff
	ff		 mov	 DWORD PTR $T4[ebp+16], edi

; 65   :         _CSTD memcpy(_First1, _First2, _Count * sizeof(_Elem));

  002e4	53		 push	 ebx

; 4524 :         _Mypair._Myval2._Myres  = _New_capacity;

  002e5	89 b5 3c ff ff
	ff		 mov	 DWORD PTR $T4[ebp+20], esi

; 65   :         _CSTD memcpy(_First1, _First2, _Count * sizeof(_Elem));

  002eb	e8 00 00 00 00	 call	 _memcpy
  002f0	8b 8d 14 ff ff
	ff		 mov	 ecx, DWORD PTR __Old_capacity$1$[ebp]

; 3258 :                 _Traits::assign(_New_ptr[_Count], _Elem());

  002f6	c6 04 1f 00	 mov	 BYTE PTR [edi+ebx], 0

; 4530 :             _Construct_in_place(_Mypair._Myval2._Bx._Ptr, _New_ptr);

  002fa	89 9d 28 ff ff
	ff		 mov	 DWORD PTR $T4[ebp], ebx
$LN525@GetArg:

; 2306 :         if (_Large_string_engaged()) {

  00300	8b 9d 58 ff ff
	ff		 mov	 ebx, DWORD PTR $T6[ebp]
  00306	8d 85 58 ff ff
	ff		 lea	 eax, DWORD PTR $T6[ebp]

; 3246 :         if (_Count <= _Mypair._Myval2._Myres) {

  0030c	8b bd 68 ff ff
	ff		 mov	 edi, DWORD PTR $T6[ebp+16]

; 2305 :         const value_type* _Result = _Bx._Buf;

  00312	83 c4 0c	 add	 esp, 12			; 0000000cH

; 2306 :         if (_Large_string_engaged()) {

  00315	83 bd 6c ff ff
	ff 10		 cmp	 DWORD PTR $T6[ebp+20], 16 ; 00000010H
  0031c	89 9d 18 ff ff
	ff		 mov	 DWORD PTR __Ptr$1$[ebp], ebx
  00322	0f 43 c3	 cmovae	 eax, ebx
  00325	89 85 04 ff ff
	ff		 mov	 DWORD PTR __Result$2$[ebp], eax

; 3246 :         if (_Count <= _Mypair._Myval2._Myres) {

  0032b	3b f9		 cmp	 edi, ecx
  0032d	77 2a		 ja	 SHORT $LN182@GetArg

; 2297 :         if (_Large_string_engaged()) {

  0032f	83 f9 10	 cmp	 ecx, 16			; 00000010H

; 3248 :             _Mypair._Myval2._Mysize = _Count;

  00332	89 bd 50 ff ff
	ff		 mov	 DWORD PTR $T4[ebp+40], edi

; 122  :         _CSTD memmove(_First1, _First2, _Count * sizeof(_Elem));

  00338	57		 push	 edi

; 2296 :         value_type* _Result = _Bx._Buf;

  00339	8d b5 40 ff ff
	ff		 lea	 esi, DWORD PTR $T4[ebp+24]

; 2297 :         if (_Large_string_engaged()) {

  0033f	0f 43 b5 40 ff
	ff ff		 cmovae	 esi, DWORD PTR $T4[ebp+24]

; 122  :         _CSTD memmove(_First1, _First2, _Count * sizeof(_Elem));

  00346	50		 push	 eax
  00347	56		 push	 esi
  00348	e8 00 00 00 00	 call	 _memmove
  0034d	83 c4 0c	 add	 esp, 12			; 0000000cH

; 3250 :             _Traits::assign(_Old_ptr[_Count], _Elem());

  00350	c6 04 37 00	 mov	 BYTE PTR [edi+esi], 0

; 3251 :             return *this;

  00354	e9 f0 00 00 00	 jmp	 $LN194@GetArg
$LN182@GetArg:

; 4508 :         if (_New_size > max_size()) {

  00359	81 ff ff ff ff
	7f		 cmp	 edi, 2147483647		; 7fffffffH
  0035f	0f 87 9f 04 00
	00		 ja	 $LN505@GetArg

; 4488 :         const size_type _Masked = _Requested | _ALLOC_MASK;

  00365	8b f7		 mov	 esi, edi
  00367	83 ce 0f	 or	 esi, 15			; 0000000fH
  0036a	81 fe ff ff ff
	7f		 cmp	 esi, 2147483647		; 7fffffffH

; 4489 :         if (_Masked > _Max) { // the mask overflows, settle for max_size()

  00370	76 17		 jbe	 SHORT $LN199@GetArg

; 4490 :             return _Max;

  00372	b8 00 00 00 80	 mov	 eax, -2147483648	; 80000000H
  00377	be ff ff ff 7f	 mov	 esi, 2147483647		; 7fffffffH
; File C:\Program Files (x86)\Microsoft Visual Studio\2019\Professional\VC\Tools\MSVC\14.29.30133\include\xmemory

; 238  :             return _Allocate_manually_vector_aligned<_Traits>(_Bytes);

  0037c	50		 push	 eax
  0037d	e8 00 00 00 00	 call	 ??$_Allocate_manually_vector_aligned@U_Default_allocate_traits@std@@@std@@YAPAXI@Z ; std::_Allocate_manually_vector_aligned<std::_Default_allocate_traits>
  00382	83 c4 04	 add	 esp, 4
  00385	8b d8		 mov	 ebx, eax
  00387	eb 58		 jmp	 SHORT $LN206@GetArg
$LN199@GetArg:
; File C:\Program Files (x86)\Microsoft Visual Studio\2019\Professional\VC\Tools\MSVC\14.29.30133\include\xstring

; 4493 :         if (_Old > _Max - _Old / 2) { // similarly, geometric overflows

  00389	8b d1		 mov	 edx, ecx
  0038b	b8 ff ff ff 7f	 mov	 eax, 2147483647		; 7fffffffH
  00390	d1 ea		 shr	 edx, 1
  00392	2b c2		 sub	 eax, edx
  00394	3b c8		 cmp	 ecx, eax
  00396	76 17		 jbe	 SHORT $LN200@GetArg

; 4494 :             return _Max;

  00398	b8 00 00 00 80	 mov	 eax, -2147483648	; 80000000H
  0039d	be ff ff ff 7f	 mov	 esi, 2147483647		; 7fffffffH
; File C:\Program Files (x86)\Microsoft Visual Studio\2019\Professional\VC\Tools\MSVC\14.29.30133\include\xmemory

; 238  :             return _Allocate_manually_vector_aligned<_Traits>(_Bytes);

  003a2	50		 push	 eax
  003a3	e8 00 00 00 00	 call	 ??$_Allocate_manually_vector_aligned@U_Default_allocate_traits@std@@@std@@YAPAXI@Z ; std::_Allocate_manually_vector_aligned<std::_Default_allocate_traits>
  003a8	83 c4 04	 add	 esp, 4
  003ab	8b d8		 mov	 ebx, eax
  003ad	eb 32		 jmp	 SHORT $LN206@GetArg
$LN200@GetArg:
; File C:\Program Files (x86)\Microsoft Visual Studio\2019\Professional\VC\Tools\MSVC\14.29.30133\include\xstring

; 4497 :         return (_STD max)(_Masked, _Old + _Old / 2);

  003af	8d 04 11	 lea	 eax, DWORD PTR [ecx+edx]
  003b2	3b f0		 cmp	 esi, eax
  003b4	0f 42 f0	 cmovb	 esi, eax

; 4515 :         const pointer _New_ptr        = _Al.allocate(_New_capacity + 1); // throws

  003b7	8d 46 01	 lea	 eax, DWORD PTR [esi+1]
; File C:\Program Files (x86)\Microsoft Visual Studio\2019\Professional\VC\Tools\MSVC\14.29.30133\include\xmemory

; 237  :         if (_Bytes >= _Big_allocation_threshold) { // boost the alignment of big allocations to help autovectorization

  003ba	3d 00 10 00 00	 cmp	 eax, 4096		; 00001000H
  003bf	72 0d		 jb	 SHORT $LN207@GetArg

; 238  :             return _Allocate_manually_vector_aligned<_Traits>(_Bytes);

  003c1	50		 push	 eax
  003c2	e8 00 00 00 00	 call	 ??$_Allocate_manually_vector_aligned@U_Default_allocate_traits@std@@@std@@YAPAXI@Z ; std::_Allocate_manually_vector_aligned<std::_Default_allocate_traits>
  003c7	83 c4 04	 add	 esp, 4
  003ca	8b d8		 mov	 ebx, eax
  003cc	eb 13		 jmp	 SHORT $LN206@GetArg
$LN207@GetArg:

; 239  :         }
; 240  :     }
; 241  : #endif // defined(_M_IX86) || defined(_M_X64)
; 242  : 
; 243  :     if (_Bytes != 0) {

  003ce	85 c0		 test	 eax, eax
  003d0	74 0d		 je	 SHORT $LN208@GetArg

; 85   :         return ::operator new(_Bytes);

  003d2	50		 push	 eax
  003d3	e8 00 00 00 00	 call	 ??2@YAPAXI@Z		; operator new
  003d8	83 c4 04	 add	 esp, 4

; 244  :         return _Traits::_Allocate(_Bytes);

  003db	8b d8		 mov	 ebx, eax
  003dd	eb 02		 jmp	 SHORT $LN206@GetArg
$LN208@GetArg:

; 245  :     }
; 246  : 
; 247  :     return nullptr;

  003df	33 db		 xor	 ebx, ebx
$LN206@GetArg:
; File C:\Program Files (x86)\Microsoft Visual Studio\2019\Professional\VC\Tools\MSVC\14.29.30133\include\xstring

; 65   :         _CSTD memcpy(_First1, _First2, _Count * sizeof(_Elem));

  003e1	57		 push	 edi
  003e2	ff b5 04 ff ff
	ff		 push	 DWORD PTR __Result$2$[ebp]

; 4523 :         _Mypair._Myval2._Mysize = _New_size;

  003e8	89 bd 50 ff ff
	ff		 mov	 DWORD PTR $T4[ebp+40], edi

; 65   :         _CSTD memcpy(_First1, _First2, _Count * sizeof(_Elem));

  003ee	53		 push	 ebx

; 4524 :         _Mypair._Myval2._Myres  = _New_capacity;

  003ef	89 b5 54 ff ff
	ff		 mov	 DWORD PTR $T4[ebp+44], esi

; 65   :         _CSTD memcpy(_First1, _First2, _Count * sizeof(_Elem));

  003f5	e8 00 00 00 00	 call	 _memcpy

; 4526 :         if (_BUF_SIZE <= _Old_capacity) {

  003fa	8b 85 14 ff ff
	ff		 mov	 eax, DWORD PTR __Old_capacity$1$[ebp]

; 65   :         _CSTD memcpy(_First1, _First2, _Count * sizeof(_Elem));

  00400	83 c4 0c	 add	 esp, 12			; 0000000cH

; 3258 :                 _Traits::assign(_New_ptr[_Count], _Elem());

  00403	c6 04 1f 00	 mov	 BYTE PTR [edi+ebx], 0

; 4526 :         if (_BUF_SIZE <= _Old_capacity) {

  00407	83 f8 10	 cmp	 eax, 16			; 00000010H
  0040a	72 31		 jb	 SHORT $LN193@GetArg
; File C:\Program Files (x86)\Microsoft Visual Studio\2019\Professional\VC\Tools\MSVC\14.29.30133\include\xmemory

; 835  :         _Deallocate<_New_alignof<_Ty>>(_Ptr, sizeof(_Ty) * _Count);

  0040c	8b 8d 40 ff ff
	ff		 mov	 ecx, DWORD PTR $T4[ebp+24]
; File C:\Program Files (x86)\Microsoft Visual Studio\2019\Professional\VC\Tools\MSVC\14.29.30133\include\xstring

; 4527 :             _Al.deallocate(_Mypair._Myval2._Bx._Ptr, _Old_capacity + 1);

  00412	8d 50 01	 lea	 edx, DWORD PTR [eax+1]
; File C:\Program Files (x86)\Microsoft Visual Studio\2019\Professional\VC\Tools\MSVC\14.29.30133\include\xmemory

; 835  :         _Deallocate<_New_alignof<_Ty>>(_Ptr, sizeof(_Ty) * _Count);

  00415	8b c1		 mov	 eax, ecx

; 260  :         if (_Bytes >= _Big_allocation_threshold) { // boost the alignment of big allocations to help autovectorization

  00417	81 fa 00 10 00
	00		 cmp	 edx, 4096		; 00001000H
  0041d	72 14		 jb	 SHORT $LN230@GetArg

; 158  :     const uintptr_t _Ptr_container   = _Ptr_user[-1];

  0041f	8b 49 fc	 mov	 ecx, DWORD PTR [ecx-4]
  00422	83 c2 23	 add	 edx, 35			; 00000023H
  00425	2b c1		 sub	 eax, ecx

; 159  : 
; 160  :     // If the following asserts, it likely means that we are performing
; 161  :     // an aligned delete on memory coming from an unaligned allocation.
; 162  :     _STL_ASSERT(_Ptr_user[-2] == _Big_allocation_sentinel, "invalid argument");
; 163  : 
; 164  :     // Extra paranoia on aligned allocation/deallocation; ensure _Ptr_container is
; 165  :     // in range [_Min_back_shift, _Non_user_size]
; 166  : #ifdef _DEBUG
; 167  :     constexpr uintptr_t _Min_back_shift = 2 * sizeof(void*);
; 168  : #else // ^^^ _DEBUG ^^^ // vvv !_DEBUG vvv
; 169  :     constexpr uintptr_t _Min_back_shift = sizeof(void*);
; 170  : #endif // _DEBUG
; 171  :     const uintptr_t _Back_shift = reinterpret_cast<uintptr_t>(_Ptr) - _Ptr_container;
; 172  :     _STL_VERIFY(_Back_shift >= _Min_back_shift && _Back_shift <= _Non_user_size, "invalid argument");

  00427	83 c0 fc	 add	 eax, -4			; fffffffcH
  0042a	83 f8 1f	 cmp	 eax, 31			; 0000001fH
  0042d	0f 87 db 03 00
	00		 ja	 $LN492@GetArg
$LN230@GetArg:

; 264  :         ::operator delete(_Ptr, _Bytes);

  00433	52		 push	 edx
  00434	51		 push	 ecx
  00435	e8 00 00 00 00	 call	 ??3@YAXPAXI@Z		; operator delete
  0043a	83 c4 08	 add	 esp, 8
$LN193@GetArg:
; File C:\Users\murat\Desktop\Siveps2-1-99-Project\source\client\Client\EterLib\parser.cpp

; 214  : 				argList.push_back(TArg(szName, szValue));

  0043d	89 9d 40 ff ff
	ff		 mov	 DWORD PTR $T4[ebp+24], ebx
  00443	8b 9d 18 ff ff
	ff		 mov	 ebx, DWORD PTR __Ptr$1$[ebp]
$LN194@GetArg:
; File C:\Program Files (x86)\Microsoft Visual Studio\2019\Professional\VC\Tools\MSVC\14.29.30133\include\list

; 973  :         _Emplace(_Mypair._Myval2._Myhead, _STD move(_Val));

  00449	8b 85 10 ff ff
	ff		 mov	 eax, DWORD PTR _argList$GSCopy$1$[ebp]
; File C:\Users\murat\Desktop\Siveps2-1-99-Project\source\client\Client\EterLib\parser.cpp

; 214  : 				argList.push_back(TArg(szName, szValue));

  0044f	c6 45 fc 04	 mov	 BYTE PTR __$EHRec$[ebp+8], 4
; File C:\Program Files (x86)\Microsoft Visual Studio\2019\Professional\VC\Tools\MSVC\14.29.30133\include\list

; 1014 :         if (_Mysize == max_size()) {

  00453	81 78 04 24 49
	92 04		 cmp	 DWORD PTR [eax+4], 76695844 ; 04924924H

; 973  :         _Emplace(_Mypair._Myval2._Myhead, _STD move(_Val));

  0045a	8b 38		 mov	 edi, DWORD PTR [eax]

; 1014 :         if (_Mysize == max_size()) {

  0045c	0f 84 98 03 00
	00		 je	 $LN506@GetArg
; File C:\Program Files (x86)\Microsoft Visual Studio\2019\Professional\VC\Tools\MSVC\14.29.30133\include\xmemory

; 1012 :     _CONSTEXPR20_DYNALLOC explicit _Alloc_construct_ptr(_Alloc& _Al_) : _Al(_Al_), _Ptr(nullptr) {}

  00462	89 85 f4 fe ff
	ff		 mov	 DWORD PTR __Op$2[ebp], eax

; 85   :         return ::operator new(_Bytes);

  00468	6a 38		 push	 56			; 00000038H
; File C:\Program Files (x86)\Microsoft Visual Studio\2019\Professional\VC\Tools\MSVC\14.29.30133\include\list

; 589  :     explicit _List_node_emplace_op2(_Alnode& _Al_, _Valtys&&... _Vals) : _Alloc_construct_ptr<_Alnode>(_Al_) {

  0046a	c6 45 fc 05	 mov	 BYTE PTR __$EHRec$[ebp+8], 5
; File C:\Program Files (x86)\Microsoft Visual Studio\2019\Professional\VC\Tools\MSVC\14.29.30133\include\xmemory

; 1019 :         _Ptr = nullptr; // if allocate throws, prevents double-free

  0046e	c7 85 f8 fe ff
	ff 00 00 00 00	 mov	 DWORD PTR __Op$2[ebp+4], 0

; 85   :         return ::operator new(_Bytes);

  00478	e8 00 00 00 00	 call	 ??2@YAPAXI@Z		; operator new

; 244  :         return _Traits::_Allocate(_Bytes);

  0047d	8b f0		 mov	 esi, eax

; 85   :         return ::operator new(_Bytes);

  0047f	83 c4 04	 add	 esp, 4

; 714  :             ::new (_Voidify_iter(_Ptr)) _Objty(_STD forward<_Types>(_Args)...);

  00482	8d 85 28 ff ff
	ff		 lea	 eax, DWORD PTR $T4[ebp]

; 1020 :         _Ptr = _Al.allocate(1);

  00488	89 b5 f8 fe ff
	ff		 mov	 DWORD PTR __Op$2[ebp+4], esi
  0048e	8d 4e 08	 lea	 ecx, DWORD PTR [esi+8]

; 714  :             ::new (_Voidify_iter(_Ptr)) _Objty(_STD forward<_Types>(_Args)...);

  00491	50		 push	 eax
  00492	e8 00 00 00 00	 call	 ??0SArgumet@script@@QAE@ABU01@@Z ; script::SArgumet::SArgumet
; File C:\Program Files (x86)\Microsoft Visual Studio\2019\Professional\VC\Tools\MSVC\14.29.30133\include\list

; 1019 :         ++_Mysize;

  00497	8b 85 10 ff ff
	ff		 mov	 eax, DWORD PTR _argList$GSCopy$1$[ebp]
; File C:\Program Files (x86)\Microsoft Visual Studio\2019\Professional\VC\Tools\MSVC\14.29.30133\include\xstring

; 4618 :         if (_Mypair._Myval2._Large_string_engaged()) {

  0049d	8b 95 54 ff ff
	ff		 mov	 edx, DWORD PTR $T4[ebp+44]
; File C:\Program Files (x86)\Microsoft Visual Studio\2019\Professional\VC\Tools\MSVC\14.29.30133\include\list

; 608  :         this->_Ptr            = pointer{};

  004a3	c7 85 f8 fe ff
	ff 00 00 00 00	 mov	 DWORD PTR __Op$2[ebp+4], 0
; File C:\Users\murat\Desktop\Siveps2-1-99-Project\source\client\Client\EterLib\parser.cpp

; 214  : 				argList.push_back(TArg(szName, szValue));

  004ad	c6 45 fc 01	 mov	 BYTE PTR __$EHRec$[ebp+8], 1
; File C:\Program Files (x86)\Microsoft Visual Studio\2019\Professional\VC\Tools\MSVC\14.29.30133\include\list

; 1019 :         ++_Mysize;

  004b1	ff 40 04	 inc	 DWORD PTR [eax+4]

; 604  :         const pointer _Insert_after = _Insert_before->_Prev;

  004b4	8b 47 04	 mov	 eax, DWORD PTR [edi+4]

; 605  :         _Construct_in_place(this->_Ptr->_Next, _Insert_before);

  004b7	89 3e		 mov	 DWORD PTR [esi], edi

; 606  :         _Construct_in_place(this->_Ptr->_Prev, _Insert_after);

  004b9	89 46 04	 mov	 DWORD PTR [esi+4], eax

; 609  :         _Insert_before->_Prev = _Result;

  004bc	89 77 04	 mov	 DWORD PTR [edi+4], esi

; 610  :         _Insert_after->_Next  = _Result;

  004bf	89 30		 mov	 DWORD PTR [eax], esi
; File C:\Program Files (x86)\Microsoft Visual Studio\2019\Professional\VC\Tools\MSVC\14.29.30133\include\xstring

; 4618 :         if (_Mypair._Myval2._Large_string_engaged()) {

  004c1	83 fa 10	 cmp	 edx, 16			; 00000010H
  004c4	72 2f		 jb	 SHORT $LN317@GetArg
; File C:\Program Files (x86)\Microsoft Visual Studio\2019\Professional\VC\Tools\MSVC\14.29.30133\include\xmemory

; 835  :         _Deallocate<_New_alignof<_Ty>>(_Ptr, sizeof(_Ty) * _Count);

  004c6	8b 8d 40 ff ff
	ff		 mov	 ecx, DWORD PTR $T4[ebp+24]
; File C:\Program Files (x86)\Microsoft Visual Studio\2019\Professional\VC\Tools\MSVC\14.29.30133\include\xstring

; 4622 :             _Al.deallocate(_Ptr, _Mypair._Myval2._Myres + 1);

  004cc	42		 inc	 edx
; File C:\Program Files (x86)\Microsoft Visual Studio\2019\Professional\VC\Tools\MSVC\14.29.30133\include\xmemory

; 835  :         _Deallocate<_New_alignof<_Ty>>(_Ptr, sizeof(_Ty) * _Count);

  004cd	8b c1		 mov	 eax, ecx

; 260  :         if (_Bytes >= _Big_allocation_threshold) { // boost the alignment of big allocations to help autovectorization

  004cf	81 fa 00 10 00
	00		 cmp	 edx, 4096		; 00001000H
  004d5	72 14		 jb	 SHORT $LN327@GetArg

; 158  :     const uintptr_t _Ptr_container   = _Ptr_user[-1];

  004d7	8b 49 fc	 mov	 ecx, DWORD PTR [ecx-4]
  004da	83 c2 23	 add	 edx, 35			; 00000023H
  004dd	2b c1		 sub	 eax, ecx

; 159  : 
; 160  :     // If the following asserts, it likely means that we are performing
; 161  :     // an aligned delete on memory coming from an unaligned allocation.
; 162  :     _STL_ASSERT(_Ptr_user[-2] == _Big_allocation_sentinel, "invalid argument");
; 163  : 
; 164  :     // Extra paranoia on aligned allocation/deallocation; ensure _Ptr_container is
; 165  :     // in range [_Min_back_shift, _Non_user_size]
; 166  : #ifdef _DEBUG
; 167  :     constexpr uintptr_t _Min_back_shift = 2 * sizeof(void*);
; 168  : #else // ^^^ _DEBUG ^^^ // vvv !_DEBUG vvv
; 169  :     constexpr uintptr_t _Min_back_shift = sizeof(void*);
; 170  : #endif // _DEBUG
; 171  :     const uintptr_t _Back_shift = reinterpret_cast<uintptr_t>(_Ptr) - _Ptr_container;
; 172  :     _STL_VERIFY(_Back_shift >= _Min_back_shift && _Back_shift <= _Non_user_size, "invalid argument");

  004df	83 c0 fc	 add	 eax, -4			; fffffffcH
  004e2	83 f8 1f	 cmp	 eax, 31			; 0000001fH
  004e5	0f 87 23 03 00
	00		 ja	 $LN492@GetArg
$LN327@GetArg:

; 264  :         ::operator delete(_Ptr, _Bytes);

  004eb	52		 push	 edx
  004ec	51		 push	 ecx
  004ed	e8 00 00 00 00	 call	 ??3@YAXPAXI@Z		; operator delete
  004f2	83 c4 08	 add	 esp, 8
$LN317@GetArg:
; File C:\Program Files (x86)\Microsoft Visual Studio\2019\Professional\VC\Tools\MSVC\14.29.30133\include\xstring

; 4618 :         if (_Mypair._Myval2._Large_string_engaged()) {

  004f5	8b 95 3c ff ff
	ff		 mov	 edx, DWORD PTR $T4[ebp+20]
  004fb	83 fa 10	 cmp	 edx, 16			; 00000010H
  004fe	72 2f		 jb	 SHORT $LN345@GetArg
; File C:\Program Files (x86)\Microsoft Visual Studio\2019\Professional\VC\Tools\MSVC\14.29.30133\include\xmemory

; 835  :         _Deallocate<_New_alignof<_Ty>>(_Ptr, sizeof(_Ty) * _Count);

  00500	8b 8d 28 ff ff
	ff		 mov	 ecx, DWORD PTR $T4[ebp]
; File C:\Program Files (x86)\Microsoft Visual Studio\2019\Professional\VC\Tools\MSVC\14.29.30133\include\xstring

; 4622 :             _Al.deallocate(_Ptr, _Mypair._Myval2._Myres + 1);

  00506	42		 inc	 edx
; File C:\Program Files (x86)\Microsoft Visual Studio\2019\Professional\VC\Tools\MSVC\14.29.30133\include\xmemory

; 835  :         _Deallocate<_New_alignof<_Ty>>(_Ptr, sizeof(_Ty) * _Count);

  00507	8b c1		 mov	 eax, ecx

; 260  :         if (_Bytes >= _Big_allocation_threshold) { // boost the alignment of big allocations to help autovectorization

  00509	81 fa 00 10 00
	00		 cmp	 edx, 4096		; 00001000H
  0050f	72 14		 jb	 SHORT $LN355@GetArg

; 158  :     const uintptr_t _Ptr_container   = _Ptr_user[-1];

  00511	8b 49 fc	 mov	 ecx, DWORD PTR [ecx-4]
  00514	83 c2 23	 add	 edx, 35			; 00000023H
  00517	2b c1		 sub	 eax, ecx

; 159  : 
; 160  :     // If the following asserts, it likely means that we are performing
; 161  :     // an aligned delete on memory coming from an unaligned allocation.
; 162  :     _STL_ASSERT(_Ptr_user[-2] == _Big_allocation_sentinel, "invalid argument");
; 163  : 
; 164  :     // Extra paranoia on aligned allocation/deallocation; ensure _Ptr_container is
; 165  :     // in range [_Min_back_shift, _Non_user_size]
; 166  : #ifdef _DEBUG
; 167  :     constexpr uintptr_t _Min_back_shift = 2 * sizeof(void*);
; 168  : #else // ^^^ _DEBUG ^^^ // vvv !_DEBUG vvv
; 169  :     constexpr uintptr_t _Min_back_shift = sizeof(void*);
; 170  : #endif // _DEBUG
; 171  :     const uintptr_t _Back_shift = reinterpret_cast<uintptr_t>(_Ptr) - _Ptr_container;
; 172  :     _STL_VERIFY(_Back_shift >= _Min_back_shift && _Back_shift <= _Non_user_size, "invalid argument");

  00519	83 c0 fc	 add	 eax, -4			; fffffffcH
  0051c	83 f8 1f	 cmp	 eax, 31			; 0000001fH
  0051f	0f 87 e9 02 00
	00		 ja	 $LN492@GetArg
$LN355@GetArg:

; 264  :         ::operator delete(_Ptr, _Bytes);

  00525	52		 push	 edx
  00526	51		 push	 ecx
  00527	e8 00 00 00 00	 call	 ??3@YAXPAXI@Z		; operator delete
  0052c	83 c4 08	 add	 esp, 8
$LN345@GetArg:
; File C:\Program Files (x86)\Microsoft Visual Studio\2019\Professional\VC\Tools\MSVC\14.29.30133\include\xstring

; 4618 :         if (_Mypair._Myval2._Large_string_engaged()) {

  0052f	8b 45 84	 mov	 eax, DWORD PTR $T8[ebp+20]
; File C:\Users\murat\Desktop\Siveps2-1-99-Project\source\client\Client\EterLib\parser.cpp

; 214  : 				argList.push_back(TArg(szName, szValue));

  00532	c6 45 fc 00	 mov	 BYTE PTR __$EHRec$[ebp+8], 0
; File C:\Program Files (x86)\Microsoft Visual Studio\2019\Professional\VC\Tools\MSVC\14.29.30133\include\xstring

; 4618 :         if (_Mypair._Myval2._Large_string_engaged()) {

  00536	83 f8 10	 cmp	 eax, 16			; 00000010H
  00539	72 31		 jb	 SHORT $LN372@GetArg
; File C:\Program Files (x86)\Microsoft Visual Studio\2019\Professional\VC\Tools\MSVC\14.29.30133\include\xmemory

; 835  :         _Deallocate<_New_alignof<_Ty>>(_Ptr, sizeof(_Ty) * _Count);

  0053b	8b 95 00 ff ff
	ff		 mov	 edx, DWORD PTR __Ptr$1$[ebp]
; File C:\Program Files (x86)\Microsoft Visual Studio\2019\Professional\VC\Tools\MSVC\14.29.30133\include\xstring

; 4622 :             _Al.deallocate(_Ptr, _Mypair._Myval2._Myres + 1);

  00541	8d 48 01	 lea	 ecx, DWORD PTR [eax+1]
; File C:\Program Files (x86)\Microsoft Visual Studio\2019\Professional\VC\Tools\MSVC\14.29.30133\include\xmemory

; 835  :         _Deallocate<_New_alignof<_Ty>>(_Ptr, sizeof(_Ty) * _Count);

  00544	8b c2		 mov	 eax, edx

; 260  :         if (_Bytes >= _Big_allocation_threshold) { // boost the alignment of big allocations to help autovectorization

  00546	81 f9 00 10 00
	00		 cmp	 ecx, 4096		; 00001000H
  0054c	72 14		 jb	 SHORT $LN382@GetArg

; 158  :     const uintptr_t _Ptr_container   = _Ptr_user[-1];

  0054e	8b 52 fc	 mov	 edx, DWORD PTR [edx-4]
  00551	83 c1 23	 add	 ecx, 35			; 00000023H
  00554	2b c2		 sub	 eax, edx

; 159  : 
; 160  :     // If the following asserts, it likely means that we are performing
; 161  :     // an aligned delete on memory coming from an unaligned allocation.
; 162  :     _STL_ASSERT(_Ptr_user[-2] == _Big_allocation_sentinel, "invalid argument");
; 163  : 
; 164  :     // Extra paranoia on aligned allocation/deallocation; ensure _Ptr_container is
; 165  :     // in range [_Min_back_shift, _Non_user_size]
; 166  : #ifdef _DEBUG
; 167  :     constexpr uintptr_t _Min_back_shift = 2 * sizeof(void*);
; 168  : #else // ^^^ _DEBUG ^^^ // vvv !_DEBUG vvv
; 169  :     constexpr uintptr_t _Min_back_shift = sizeof(void*);
; 170  : #endif // _DEBUG
; 171  :     const uintptr_t _Back_shift = reinterpret_cast<uintptr_t>(_Ptr) - _Ptr_container;
; 172  :     _STL_VERIFY(_Back_shift >= _Min_back_shift && _Back_shift <= _Non_user_size, "invalid argument");

  00556	83 c0 fc	 add	 eax, -4			; fffffffcH
  00559	83 f8 1f	 cmp	 eax, 31			; 0000001fH
  0055c	0f 87 ac 02 00
	00		 ja	 $LN492@GetArg
$LN382@GetArg:

; 264  :         ::operator delete(_Ptr, _Bytes);

  00562	51		 push	 ecx
  00563	52		 push	 edx
  00564	e8 00 00 00 00	 call	 ??3@YAXPAXI@Z		; operator delete
  00569	83 c4 08	 add	 esp, 8
$LN372@GetArg:
; File C:\Program Files (x86)\Microsoft Visual Studio\2019\Professional\VC\Tools\MSVC\14.29.30133\include\xstring

; 4618 :         if (_Mypair._Myval2._Large_string_engaged()) {

  0056c	8b 85 6c ff ff
	ff		 mov	 eax, DWORD PTR $T6[ebp+20]
; File C:\Users\murat\Desktop\Siveps2-1-99-Project\source\client\Client\EterLib\parser.cpp

; 214  : 				argList.push_back(TArg(szName, szValue));

  00572	c7 45 fc ff ff
	ff ff		 mov	 DWORD PTR __$EHRec$[ebp+8], -1
; File C:\Program Files (x86)\Microsoft Visual Studio\2019\Professional\VC\Tools\MSVC\14.29.30133\include\xstring

; 4618 :         if (_Mypair._Myval2._Large_string_engaged()) {

  00579	83 f8 10	 cmp	 eax, 16			; 00000010H
  0057c	72 2b		 jb	 SHORT $LN399@GetArg

; 4622 :             _Al.deallocate(_Ptr, _Mypair._Myval2._Myres + 1);

  0057e	8d 48 01	 lea	 ecx, DWORD PTR [eax+1]
; File C:\Program Files (x86)\Microsoft Visual Studio\2019\Professional\VC\Tools\MSVC\14.29.30133\include\xmemory

; 835  :         _Deallocate<_New_alignof<_Ty>>(_Ptr, sizeof(_Ty) * _Count);

  00581	8b c3		 mov	 eax, ebx

; 260  :         if (_Bytes >= _Big_allocation_threshold) { // boost the alignment of big allocations to help autovectorization

  00583	81 f9 00 10 00
	00		 cmp	 ecx, 4096		; 00001000H
  00589	72 14		 jb	 SHORT $LN409@GetArg

; 158  :     const uintptr_t _Ptr_container   = _Ptr_user[-1];

  0058b	8b 5b fc	 mov	 ebx, DWORD PTR [ebx-4]
  0058e	83 c1 23	 add	 ecx, 35			; 00000023H
  00591	2b c3		 sub	 eax, ebx

; 159  : 
; 160  :     // If the following asserts, it likely means that we are performing
; 161  :     // an aligned delete on memory coming from an unaligned allocation.
; 162  :     _STL_ASSERT(_Ptr_user[-2] == _Big_allocation_sentinel, "invalid argument");
; 163  : 
; 164  :     // Extra paranoia on aligned allocation/deallocation; ensure _Ptr_container is
; 165  :     // in range [_Min_back_shift, _Non_user_size]
; 166  : #ifdef _DEBUG
; 167  :     constexpr uintptr_t _Min_back_shift = 2 * sizeof(void*);
; 168  : #else // ^^^ _DEBUG ^^^ // vvv !_DEBUG vvv
; 169  :     constexpr uintptr_t _Min_back_shift = sizeof(void*);
; 170  : #endif // _DEBUG
; 171  :     const uintptr_t _Back_shift = reinterpret_cast<uintptr_t>(_Ptr) - _Ptr_container;
; 172  :     _STL_VERIFY(_Back_shift >= _Min_back_shift && _Back_shift <= _Non_user_size, "invalid argument");

  00593	83 c0 fc	 add	 eax, -4			; fffffffcH
  00596	83 f8 1f	 cmp	 eax, 31			; 0000001fH
  00599	0f 87 6f 02 00
	00		 ja	 $LN492@GetArg
$LN409@GetArg:

; 264  :         ::operator delete(_Ptr, _Bytes);

  0059f	51		 push	 ecx
  005a0	53		 push	 ebx
  005a1	e8 00 00 00 00	 call	 ??3@YAXPAXI@Z		; operator delete
  005a6	83 c4 08	 add	 esp, 8
$LN399@GetArg:
; File C:\Users\murat\Desktop\Siveps2-1-99-Project\source\client\Client\EterLib\parser.cpp

; 216  : 				iNameLen = 0;

  005a9	33 f6		 xor	 esi, esi

; 217  : 				iValueLen = 0;

  005ab	33 ff		 xor	 edi, edi

; 218  : 			}

  005ad	eb 79		 jmp	 SHORT $LN522@GetArg
$LN12@GetArg:

; 219  : 			else if (c == ';')

  005af	3c 3b		 cmp	 al, 59			; 0000003bH
  005b1	75 09		 jne	 SHORT $LN15@GetArg

; 220  : 			{
; 221  : 				isValue = true;

  005b3	c6 85 27 ff ff
	ff 01		 mov	 BYTE PTR _isValue$1$[ebp], 1

; 222  : 			}

  005ba	eb 6c		 jmp	 SHORT $LN522@GetArg
$LN15@GetArg:

; 223  : 			//  ,       .
; 224  : 			else if (!isValue && iNameLen == 0 && isspace((unsigned char) c))

  005bc	8a 8d 27 ff ff
	ff		 mov	 cl, BYTE PTR _isValue$1$[ebp]
  005c2	84 c9		 test	 cl, cl
  005c4	75 20		 jne	 SHORT $LN17@GetArg
  005c6	85 f6		 test	 esi, esi
  005c8	75 1c		 jne	 SHORT $LN17@GetArg
  005ca	0f b6 c0	 movzx	 eax, al
  005cd	50		 push	 eax
  005ce	e8 00 00 00 00	 call	 _isspace
  005d3	83 c4 04	 add	 esp, 4
  005d6	85 c0		 test	 eax, eax
  005d8	75 4e		 jne	 SHORT $LN522@GetArg
  005da	8a 85 1f ff ff
	ff		 mov	 al, BYTE PTR _c$1$[ebp]
  005e0	8a 8d 27 ff ff
	ff		 mov	 cl, BYTE PTR _isValue$1$[ebp]
$LN17@GetArg:

; 225  : 			{
; 226  : 			}
; 227  : 			//   
; 228  : 			else if (c == '\r' || c == '\n')

  005e6	3c 0d		 cmp	 al, 13			; 0000000dH
  005e8	74 3e		 je	 SHORT $LN522@GetArg
  005ea	3c 0a		 cmp	 al, 10			; 0000000aH
  005ec	74 3a		 je	 SHORT $LN522@GetArg

; 229  : 			{
; 230  : 			}
; 231  : 			else
; 232  : 			{
; 233  : 				if (isValue)

  005ee	84 c9		 test	 cl, cl
  005f0	74 1c		 je	 SHORT $LN22@GetArg

; 234  : 				{
; 235  : 					if (iValueLen >= 64)

  005f2	83 ff 40	 cmp	 edi, 64			; 00000040H
  005f5	7d 69		 jge	 SHORT $LN507@GetArg

; 239  : 					}
; 240  : 
; 241  : 					memcpy(szValue+iValueLen, cur, iCharLen);

  005f7	8a 03		 mov	 al, BYTE PTR [ebx]
  005f9	88 44 3d 88	 mov	 BYTE PTR _szValue$[ebp+edi], al

; 242  : 					iValueLen += iCharLen;

  005fd	47		 inc	 edi

; 243  : 					szValue[iValueLen]        = '\0';

  005fe	83 ff 41	 cmp	 edi, 65			; 00000041H
  00601	0f 83 02 02 00
	00		 jae	 $LN34@GetArg
  00607	c6 44 3d 88 00	 mov	 BYTE PTR _szValue$[ebp+edi], 0

; 244  : 				}

  0060c	eb 1a		 jmp	 SHORT $LN522@GetArg
$LN22@GetArg:

; 245  : 				else
; 246  : 				{
; 247  : 					if (iNameLen >= 32)

  0060e	83 fe 20	 cmp	 esi, 32			; 00000020H
  00611	7d 61		 jge	 SHORT $LN508@GetArg

; 251  : 					}
; 252  : 					memcpy(szName+iNameLen, cur, iCharLen);

  00613	8a 03		 mov	 al, BYTE PTR [ebx]
  00615	88 44 35 cc	 mov	 BYTE PTR _szName$[ebp+esi], al

; 253  : 					iNameLen += iCharLen;

  00619	46		 inc	 esi

; 254  : 					szName[iNameLen]        = '\0';

  0061a	83 fe 21	 cmp	 esi, 33			; 00000021H
  0061d	0f 83 e6 01 00
	00		 jae	 $LN34@GetArg
  00623	c6 44 35 cc 00	 mov	 BYTE PTR _szName$[ebp+esi], 0
$LN522@GetArg:

; 255  : 				}
; 256  : 			}
; 257  : 		}
; 258  : 		else
; 259  : 		{
; 260  : 			break;
; 261  : 		}
; 262  : 
; 263  : 		pos += iCharLen;

  00628	8b 85 20 ff ff
	ff		 mov	 eax, DWORD PTR _iCharLen$1$[ebp]
$LN21@GetArg:
  0062e	8b 9d 0c ff ff
	ff		 mov	 ebx, DWORD PTR _pos$1$[ebp]
  00634	03 d8		 add	 ebx, eax
  00636	89 9d 0c ff ff
	ff		 mov	 DWORD PTR _pos$1$[ebp], ebx
  0063c	3b 5d 0c	 cmp	 ebx, DWORD PTR _arg_len$[ebp]
  0063f	7d 47		 jge	 SHORT $LN515@GetArg

; 166  : 
; 167  :     while (pos < arg_len)

  00641	8b 8d fc fe ff
	ff		 mov	 ecx, DWORD PTR _codePage$1$[ebp]
  00647	e9 24 fa ff ff	 jmp	 $LL2@GetArg
$LN503@GetArg:

; 205  : 				{
; 206  : 					TraceError("no argument name");

  0064c	68 00 00 00 00	 push	 OFFSET ??_C@_0BB@DGGADPCI@no?5argument?5name@
  00651	e8 00 00 00 00	 call	 ?TraceError@@YAXPBDZZ	; TraceError
  00656	83 c4 04	 add	 esp, 4

; 207  : 					return false;

  00659	32 c0		 xor	 al, al
  0065b	e9 7c 01 00 00	 jmp	 $LN1@GetArg
$LN507@GetArg:

; 236  : 					{
; 237  : 						TraceError("argument value overflow: must be shorter than 64 letters");

  00660	68 00 00 00 00	 push	 OFFSET ??_C@_0DJ@OGJKDJPN@argument?5value?5overflow?3?5must?5b@
  00665	e8 00 00 00 00	 call	 ?TraceError@@YAXPBDZZ	; TraceError
  0066a	83 c4 04	 add	 esp, 4

; 238  : 						return false;

  0066d	32 c0		 xor	 al, al
  0066f	e9 68 01 00 00	 jmp	 $LN1@GetArg
$LN508@GetArg:

; 248  : 					{
; 249  : 						TraceError("argument name overflow: must be shorter than 32 letters");

  00674	68 00 00 00 00	 push	 OFFSET ??_C@_0DI@HBCKLDEP@argument?5name?5overflow?3?5must?5be@
  00679	e8 00 00 00 00	 call	 ?TraceError@@YAXPBDZZ	; TraceError
  0067e	83 c4 04	 add	 esp, 4

; 250  : 						return false;

  00681	32 c0		 xor	 al, al
  00683	e9 54 01 00 00	 jmp	 $LN1@GetArg
$LN515@GetArg:

; 264  :     }
; 265  : 
; 266  :     if (iNameLen != 0 && iValueLen != 0)

  00688	85 f6		 test	 esi, esi
  0068a	0f 84 4a 01 00
	00		 je	 $LN485@GetArg
  00690	85 ff		 test	 edi, edi
  00692	0f 84 42 01 00
	00		 je	 $LN485@GetArg

; 267  :     {
; 268  : 		iNameLen = LocaleString_RightTrim(szName, iNameLen);

  00698	8d 45 cc	 lea	 eax, DWORD PTR _szName$[ebp]
  0069b	56		 push	 esi
  0069c	50		 push	 eax
  0069d	e8 00 00 00 00	 call	 ?LocaleString_RightTrim@@YAHPADH@Z ; LocaleString_RightTrim

; 269  : 		iValueLen = LocaleString_RightTrim(szValue, iValueLen);

  006a2	8d 45 88	 lea	 eax, DWORD PTR _szValue$[ebp]
  006a5	57		 push	 edi
  006a6	50		 push	 eax
  006a7	e8 00 00 00 00	 call	 ?LocaleString_RightTrim@@YAHPADH@Z ; LocaleString_RightTrim
; File C:\Program Files (x86)\Microsoft Visual Studio\2019\Professional\VC\Tools\MSVC\14.29.30133\include\xstring

; 412  :         return _CSTD strlen(reinterpret_cast<const char*>(_First));

  006ac	8d 4d 88	 lea	 ecx, DWORD PTR _szValue$[ebp]

; 2346 :         _CONSTEXPR20_CONTAINER _Bxty() noexcept : _Ptr() {} // user-provided, for fancy pointers

  006af	c7 85 70 ff ff
	ff 00 00 00 00	 mov	 DWORD PTR $T7[ebp], 0
; File C:\Users\murat\Desktop\Siveps2-1-99-Project\source\client\Client\EterLib\parser.cpp

; 269  : 		iValueLen = LocaleString_RightTrim(szValue, iValueLen);

  006b9	83 c4 10	 add	 esp, 16			; 00000010H
; File C:\Program Files (x86)\Microsoft Visual Studio\2019\Professional\VC\Tools\MSVC\14.29.30133\include\xstring

; 4596 :         _My_data._Mysize = 0;

  006bc	c7 45 80 00 00
	00 00		 mov	 DWORD PTR $T7[ebp+16], 0

; 4597 : 
; 4598 : #ifdef __cpp_lib_constexpr_string
; 4599 :         if (_STD is_constant_evaluated()) {
; 4600 :             _My_data._Myres        = _BUF_SIZE; // SSO disabled in constexpr context
; 4601 :             auto& _Al              = _Getal();
; 4602 :             const pointer _New_ptr = _Al.allocate(_BUF_SIZE + 1); // throws
; 4603 :             _My_data._Bx._Ptr      = _New_ptr;
; 4604 : 
; 4605 :             _Elem* const _Raw_new = _Unfancy(_New_ptr);
; 4606 :             _Traits::assign(_Raw_new, _BUF_SIZE + 1, _Elem());
; 4607 :         } else
; 4608 : #endif // __cpp_lib_constexpr_string
; 4609 :         {
; 4610 :             _My_data._Myres = _BUF_SIZE - 1;

  006c3	c7 45 84 0f 00
	00 00		 mov	 DWORD PTR $T7[ebp+20], 15 ; 0000000fH

; 412  :         return _CSTD strlen(reinterpret_cast<const char*>(_First));

  006ca	8d 51 01	 lea	 edx, DWORD PTR [ecx+1]

; 4612 :             _Traits::assign(_My_data._Bx._Buf[0], _Elem());

  006cd	c6 85 70 ff ff
	ff 00		 mov	 BYTE PTR $T7[ebp], 0
$LL518@GetArg:

; 412  :         return _CSTD strlen(reinterpret_cast<const char*>(_First));

  006d4	8a 01		 mov	 al, BYTE PTR [ecx]
  006d6	41		 inc	 ecx
  006d7	84 c0		 test	 al, al
  006d9	75 f9		 jne	 SHORT $LL518@GetArg
  006db	2b ca		 sub	 ecx, edx

; 3264 :         return assign(_Ptr, _Convert_size<size_type>(_Traits::length(_Ptr)));

  006dd	8d 45 88	 lea	 eax, DWORD PTR _szValue$[ebp]
  006e0	51		 push	 ecx
  006e1	50		 push	 eax
  006e2	8d 8d 70 ff ff
	ff		 lea	 ecx, DWORD PTR $T7[ebp]
  006e8	e8 00 00 00 00	 call	 ?assign@?$basic_string@DU?$char_traits@D@std@@V?$allocator@D@2@@std@@QAEAAV12@QBDI@Z ; std::basic_string<char,std::char_traits<char>,std::allocator<char> >::assign

; 412  :         return _CSTD strlen(reinterpret_cast<const char*>(_First));

  006ed	8d 4d cc	 lea	 ecx, DWORD PTR _szName$[ebp]

; 2346 :         _CONSTEXPR20_CONTAINER _Bxty() noexcept : _Ptr() {} // user-provided, for fancy pointers

  006f0	c7 85 58 ff ff
	ff 00 00 00 00	 mov	 DWORD PTR $T5[ebp], 0
; File C:\Users\murat\Desktop\Siveps2-1-99-Project\source\client\Client\EterLib\parser.cpp

; 270  :         argList.push_back(TArg(szName, szValue));

  006fa	c7 45 fc 06 00
	00 00		 mov	 DWORD PTR __$EHRec$[ebp+8], 6
; File C:\Program Files (x86)\Microsoft Visual Studio\2019\Professional\VC\Tools\MSVC\14.29.30133\include\xstring

; 412  :         return _CSTD strlen(reinterpret_cast<const char*>(_First));

  00701	8d 51 01	 lea	 edx, DWORD PTR [ecx+1]

; 4596 :         _My_data._Mysize = 0;

  00704	c7 85 68 ff ff
	ff 00 00 00 00	 mov	 DWORD PTR $T5[ebp+16], 0

; 4597 : 
; 4598 : #ifdef __cpp_lib_constexpr_string
; 4599 :         if (_STD is_constant_evaluated()) {
; 4600 :             _My_data._Myres        = _BUF_SIZE; // SSO disabled in constexpr context
; 4601 :             auto& _Al              = _Getal();
; 4602 :             const pointer _New_ptr = _Al.allocate(_BUF_SIZE + 1); // throws
; 4603 :             _My_data._Bx._Ptr      = _New_ptr;
; 4604 : 
; 4605 :             _Elem* const _Raw_new = _Unfancy(_New_ptr);
; 4606 :             _Traits::assign(_Raw_new, _BUF_SIZE + 1, _Elem());
; 4607 :         } else
; 4608 : #endif // __cpp_lib_constexpr_string
; 4609 :         {
; 4610 :             _My_data._Myres = _BUF_SIZE - 1;

  0070e	c7 85 6c ff ff
	ff 0f 00 00 00	 mov	 DWORD PTR $T5[ebp+20], 15 ; 0000000fH

; 4611 :             // the _Traits::assign is last so the codegen doesn't think the char write can alias this
; 4612 :             _Traits::assign(_My_data._Bx._Buf[0], _Elem());

  00718	c6 85 58 ff ff
	ff 00		 mov	 BYTE PTR $T5[ebp], 0
  0071f	90		 npad	 1
$LL519@GetArg:

; 412  :         return _CSTD strlen(reinterpret_cast<const char*>(_First));

  00720	8a 01		 mov	 al, BYTE PTR [ecx]
  00722	41		 inc	 ecx
  00723	84 c0		 test	 al, al
  00725	75 f9		 jne	 SHORT $LL519@GetArg
  00727	2b ca		 sub	 ecx, edx

; 3264 :         return assign(_Ptr, _Convert_size<size_type>(_Traits::length(_Ptr)));

  00729	8d 45 cc	 lea	 eax, DWORD PTR _szName$[ebp]
  0072c	51		 push	 ecx
  0072d	50		 push	 eax
  0072e	8d 8d 58 ff ff
	ff		 lea	 ecx, DWORD PTR $T5[ebp]
  00734	e8 00 00 00 00	 call	 ?assign@?$basic_string@DU?$char_traits@D@std@@V?$allocator@D@2@@std@@QAEAAV12@QBDI@Z ; std::basic_string<char,std::char_traits<char>,std::allocator<char> >::assign
; File C:\Users\murat\Desktop\Siveps2-1-99-Project\source\client\Client\EterLib\parser.cpp

; 270  :         argList.push_back(TArg(szName, szValue));

  00739	8d 85 70 ff ff
	ff		 lea	 eax, DWORD PTR $T7[ebp]
  0073f	c6 45 fc 07	 mov	 BYTE PTR __$EHRec$[ebp+8], 7
  00743	50		 push	 eax
  00744	8d 85 58 ff ff
	ff		 lea	 eax, DWORD PTR $T5[ebp]
  0074a	50		 push	 eax
  0074b	8d 8d 28 ff ff
	ff		 lea	 ecx, DWORD PTR $T3[ebp]
  00751	e8 00 00 00 00	 call	 ??0SArgumet@script@@QAE@ABV?$basic_string@DU?$char_traits@D@std@@V?$allocator@D@2@@std@@0@Z ; script::SArgumet::SArgumet
  00756	8b 8d 10 ff ff
	ff		 mov	 ecx, DWORD PTR _argList$GSCopy$1$[ebp]
  0075c	50		 push	 eax
  0075d	c6 45 fc 08	 mov	 BYTE PTR __$EHRec$[ebp+8], 8
  00761	e8 00 00 00 00	 call	 ?push_back@?$list@USArgumet@script@@V?$allocator@USArgumet@script@@@std@@@std@@QAEX$$QAUSArgumet@script@@@Z ; std::list<script::SArgumet,std::allocator<script::SArgumet> >::push_back
  00766	8d 8d 28 ff ff
	ff		 lea	 ecx, DWORD PTR $T3[ebp]
  0076c	e8 00 00 00 00	 call	 ??1SArgumet@script@@QAE@XZ
; File C:\Program Files (x86)\Microsoft Visual Studio\2019\Professional\VC\Tools\MSVC\14.29.30133\include\xstring

; 2319 :         return _BUF_SIZE <= _Myres;

  00771	8b 95 6c ff ff
	ff		 mov	 edx, DWORD PTR $T5[ebp+20]
  00777	83 fa 10	 cmp	 edx, 16			; 00000010H

; 4618 :         if (_Mypair._Myval2._Large_string_engaged()) {

  0077a	72 2b		 jb	 SHORT $LN458@GetArg
; File C:\Program Files (x86)\Microsoft Visual Studio\2019\Professional\VC\Tools\MSVC\14.29.30133\include\xmemory

; 835  :         _Deallocate<_New_alignof<_Ty>>(_Ptr, sizeof(_Ty) * _Count);

  0077c	8b 8d 58 ff ff
	ff		 mov	 ecx, DWORD PTR $T5[ebp]
; File C:\Program Files (x86)\Microsoft Visual Studio\2019\Professional\VC\Tools\MSVC\14.29.30133\include\xstring

; 4622 :             _Al.deallocate(_Ptr, _Mypair._Myval2._Myres + 1);

  00782	42		 inc	 edx
; File C:\Program Files (x86)\Microsoft Visual Studio\2019\Professional\VC\Tools\MSVC\14.29.30133\include\xmemory

; 835  :         _Deallocate<_New_alignof<_Ty>>(_Ptr, sizeof(_Ty) * _Count);

  00783	8b c1		 mov	 eax, ecx

; 260  :         if (_Bytes >= _Big_allocation_threshold) { // boost the alignment of big allocations to help autovectorization

  00785	81 fa 00 10 00
	00		 cmp	 edx, 4096		; 00001000H
  0078b	72 10		 jb	 SHORT $LN468@GetArg

; 158  :     const uintptr_t _Ptr_container   = _Ptr_user[-1];

  0078d	8b 49 fc	 mov	 ecx, DWORD PTR [ecx-4]
  00790	83 c2 23	 add	 edx, 35			; 00000023H
  00793	2b c1		 sub	 eax, ecx

; 159  : 
; 160  :     // If the following asserts, it likely means that we are performing
; 161  :     // an aligned delete on memory coming from an unaligned allocation.
; 162  :     _STL_ASSERT(_Ptr_user[-2] == _Big_allocation_sentinel, "invalid argument");
; 163  : 
; 164  :     // Extra paranoia on aligned allocation/deallocation; ensure _Ptr_container is
; 165  :     // in range [_Min_back_shift, _Non_user_size]
; 166  : #ifdef _DEBUG
; 167  :     constexpr uintptr_t _Min_back_shift = 2 * sizeof(void*);
; 168  : #else // ^^^ _DEBUG ^^^ // vvv !_DEBUG vvv
; 169  :     constexpr uintptr_t _Min_back_shift = sizeof(void*);
; 170  : #endif // _DEBUG
; 171  :     const uintptr_t _Back_shift = reinterpret_cast<uintptr_t>(_Ptr) - _Ptr_container;
; 172  :     _STL_VERIFY(_Back_shift >= _Min_back_shift && _Back_shift <= _Non_user_size, "invalid argument");

  00795	83 c0 fc	 add	 eax, -4			; fffffffcH
  00798	83 f8 1f	 cmp	 eax, 31			; 0000001fH
  0079b	77 71		 ja	 SHORT $LN492@GetArg
$LN468@GetArg:

; 264  :         ::operator delete(_Ptr, _Bytes);

  0079d	52		 push	 edx
  0079e	51		 push	 ecx
  0079f	e8 00 00 00 00	 call	 ??3@YAXPAXI@Z		; operator delete
  007a4	83 c4 08	 add	 esp, 8
$LN458@GetArg:
; File C:\Program Files (x86)\Microsoft Visual Studio\2019\Professional\VC\Tools\MSVC\14.29.30133\include\xstring

; 2319 :         return _BUF_SIZE <= _Myres;

  007a7	8b 55 84	 mov	 edx, DWORD PTR $T7[ebp+20]
  007aa	83 fa 10	 cmp	 edx, 16			; 00000010H

; 4618 :         if (_Mypair._Myval2._Large_string_engaged()) {

  007ad	72 2b		 jb	 SHORT $LN485@GetArg
; File C:\Program Files (x86)\Microsoft Visual Studio\2019\Professional\VC\Tools\MSVC\14.29.30133\include\xmemory

; 835  :         _Deallocate<_New_alignof<_Ty>>(_Ptr, sizeof(_Ty) * _Count);

  007af	8b 8d 70 ff ff
	ff		 mov	 ecx, DWORD PTR $T7[ebp]
; File C:\Program Files (x86)\Microsoft Visual Studio\2019\Professional\VC\Tools\MSVC\14.29.30133\include\xstring

; 4622 :             _Al.deallocate(_Ptr, _Mypair._Myval2._Myres + 1);

  007b5	42		 inc	 edx
; File C:\Program Files (x86)\Microsoft Visual Studio\2019\Professional\VC\Tools\MSVC\14.29.30133\include\xmemory

; 835  :         _Deallocate<_New_alignof<_Ty>>(_Ptr, sizeof(_Ty) * _Count);

  007b6	8b c1		 mov	 eax, ecx

; 260  :         if (_Bytes >= _Big_allocation_threshold) { // boost the alignment of big allocations to help autovectorization

  007b8	81 fa 00 10 00
	00		 cmp	 edx, 4096		; 00001000H
  007be	72 10		 jb	 SHORT $LN495@GetArg

; 158  :     const uintptr_t _Ptr_container   = _Ptr_user[-1];

  007c0	8b 49 fc	 mov	 ecx, DWORD PTR [ecx-4]
  007c3	83 c2 23	 add	 edx, 35			; 00000023H
  007c6	2b c1		 sub	 eax, ecx

; 159  : 
; 160  :     // If the following asserts, it likely means that we are performing
; 161  :     // an aligned delete on memory coming from an unaligned allocation.
; 162  :     _STL_ASSERT(_Ptr_user[-2] == _Big_allocation_sentinel, "invalid argument");
; 163  : 
; 164  :     // Extra paranoia on aligned allocation/deallocation; ensure _Ptr_container is
; 165  :     // in range [_Min_back_shift, _Non_user_size]
; 166  : #ifdef _DEBUG
; 167  :     constexpr uintptr_t _Min_back_shift = 2 * sizeof(void*);
; 168  : #else // ^^^ _DEBUG ^^^ // vvv !_DEBUG vvv
; 169  :     constexpr uintptr_t _Min_back_shift = sizeof(void*);
; 170  : #endif // _DEBUG
; 171  :     const uintptr_t _Back_shift = reinterpret_cast<uintptr_t>(_Ptr) - _Ptr_container;
; 172  :     _STL_VERIFY(_Back_shift >= _Min_back_shift && _Back_shift <= _Non_user_size, "invalid argument");

  007c8	83 c0 fc	 add	 eax, -4			; fffffffcH
  007cb	83 f8 1f	 cmp	 eax, 31			; 0000001fH
  007ce	77 3e		 ja	 SHORT $LN492@GetArg
$LN495@GetArg:

; 264  :         ::operator delete(_Ptr, _Bytes);

  007d0	52		 push	 edx
  007d1	51		 push	 ecx
  007d2	e8 00 00 00 00	 call	 ??3@YAXPAXI@Z		; operator delete
  007d7	83 c4 08	 add	 esp, 8
$LN485@GetArg:
; File C:\Users\murat\Desktop\Siveps2-1-99-Project\source\client\Client\EterLib\parser.cpp

; 273  :     return true;

  007da	b0 01		 mov	 al, 1
$LN1@GetArg:

; 274  : }

  007dc	8b 4d f4	 mov	 ecx, DWORD PTR __$EHRec$[ebp]
  007df	64 89 0d 00 00
	00 00		 mov	 DWORD PTR fs:0, ecx
  007e6	59		 pop	 ecx
  007e7	5f		 pop	 edi
  007e8	5e		 pop	 esi
  007e9	5b		 pop	 ebx
  007ea	8b 4d f0	 mov	 ecx, DWORD PTR __$ArrayPad$[ebp]
  007ed	33 cd		 xor	 ecx, ebp
  007ef	e8 00 00 00 00	 call	 @__security_check_cookie@4
  007f4	8b e5		 mov	 esp, ebp
  007f6	5d		 pop	 ebp
  007f7	c2 0c 00	 ret	 12			; 0000000cH
$LN506@GetArg:
; File C:\Program Files (x86)\Microsoft Visual Studio\2019\Professional\VC\Tools\MSVC\14.29.30133\include\list

; 1015 :             _Xlength_error("list too long");

  007fa	68 00 00 00 00	 push	 OFFSET ??_C@_0O@NKNMEGII@list?5too?5long@
  007ff	e8 00 00 00 00	 call	 ?_Xlength_error@std@@YAXPBD@Z ; std::_Xlength_error
$LN505@GetArg:
; File C:\Program Files (x86)\Microsoft Visual Studio\2019\Professional\VC\Tools\MSVC\14.29.30133\include\xstring

; 4509 :             _Xlen_string(); // result too long

  00804	e8 00 00 00 00	 call	 ?_Xlen_string@std@@YAXXZ ; std::_Xlen_string
$LN34@GetArg:
; File C:\Users\murat\Desktop\Siveps2-1-99-Project\source\client\Client\EterLib\parser.cpp

; 254  : 					szName[iNameLen]        = '\0';

  00809	e8 00 00 00 00	 call	 ___report_rangecheckfailure
$LN492@GetArg:

; 274  : }

  0080e	e8 00 00 00 00	 call	 __invalid_parameter_noinfo_noreturn
$LN524@GetArg:
  00813	cc		 int	 3
_TEXT	ENDS
;	COMDAT text$x
text$x	SEGMENT
__unwindfunclet$?GetArg@Group@script@@AAE_NPBDHAAV?$list@USArgumet@script@@V?$allocator@USArgumet@script@@@std@@@std@@@Z$0:
  00000	8d 8d 58 ff ff
	ff		 lea	 ecx, DWORD PTR $T6[ebp]
  00006	e9 00 00 00 00	 jmp	 ??1?$basic_string@DU?$char_traits@D@std@@V?$allocator@D@2@@std@@QAE@XZ ; std::basic_string<char,std::char_traits<char>,std::allocator<char> >::~basic_string<char,std::char_traits<char>,std::allocator<char> >
__unwindfunclet$?GetArg@Group@script@@AAE_NPBDHAAV?$list@USArgumet@script@@V?$allocator@USArgumet@script@@@std@@@std@@@Z$1:
  0000b	8d 8d 70 ff ff
	ff		 lea	 ecx, DWORD PTR $T8[ebp]
  00011	e9 00 00 00 00	 jmp	 ??1?$basic_string@DU?$char_traits@D@std@@V?$allocator@D@2@@std@@QAE@XZ ; std::basic_string<char,std::char_traits<char>,std::allocator<char> >::~basic_string<char,std::char_traits<char>,std::allocator<char> >
__unwindfunclet$?GetArg@Group@script@@AAE_NPBDHAAV?$list@USArgumet@script@@V?$allocator@USArgumet@script@@@std@@@std@@@Z$10:
  00016	8d 8d 28 ff ff
	ff		 lea	 ecx, DWORD PTR $T4[ebp]
  0001c	e9 00 00 00 00	 jmp	 ??1?$basic_string@DU?$char_traits@D@std@@V?$allocator@D@2@@std@@QAE@XZ ; std::basic_string<char,std::char_traits<char>,std::allocator<char> >::~basic_string<char,std::char_traits<char>,std::allocator<char> >
__unwindfunclet$?GetArg@Group@script@@AAE_NPBDHAAV?$list@USArgumet@script@@V?$allocator@USArgumet@script@@@std@@@std@@@Z$11:
  00021	8d 8d 40 ff ff
	ff		 lea	 ecx, DWORD PTR $T4[ebp+24]
  00027	e9 00 00 00 00	 jmp	 ??1?$basic_string@DU?$char_traits@D@std@@V?$allocator@D@2@@std@@QAE@XZ ; std::basic_string<char,std::char_traits<char>,std::allocator<char> >::~basic_string<char,std::char_traits<char>,std::allocator<char> >
__unwindfunclet$?GetArg@Group@script@@AAE_NPBDHAAV?$list@USArgumet@script@@V?$allocator@USArgumet@script@@@std@@@std@@@Z$2:
  0002c	8d 8d 28 ff ff
	ff		 lea	 ecx, DWORD PTR $T4[ebp]
  00032	e9 00 00 00 00	 jmp	 ??1SArgumet@script@@QAE@XZ
__unwindfunclet$?GetArg@Group@script@@AAE_NPBDHAAV?$list@USArgumet@script@@V?$allocator@USArgumet@script@@@std@@@std@@@Z$19:
  00037	8d 8d f4 fe ff
	ff		 lea	 ecx, DWORD PTR __Op$2[ebp]
  0003d	e9 00 00 00 00	 jmp	 ??1?$_Alloc_construct_ptr@V?$allocator@U?$_List_node@USArgumet@script@@PAX@std@@@std@@@std@@QAE@XZ ; std::_Alloc_construct_ptr<std::allocator<std::_List_node<script::SArgumet,void *> > >::~_Alloc_construct_ptr<std::allocator<std::_List_node<script::SArgumet,void *> > >
__unwindfunclet$?GetArg@Group@script@@AAE_NPBDHAAV?$list@USArgumet@script@@V?$allocator@USArgumet@script@@@std@@@std@@@Z$3:
  00042	8d 8d 70 ff ff
	ff		 lea	 ecx, DWORD PTR $T7[ebp]
  00048	e9 00 00 00 00	 jmp	 ??1?$basic_string@DU?$char_traits@D@std@@V?$allocator@D@2@@std@@QAE@XZ ; std::basic_string<char,std::char_traits<char>,std::allocator<char> >::~basic_string<char,std::char_traits<char>,std::allocator<char> >
__unwindfunclet$?GetArg@Group@script@@AAE_NPBDHAAV?$list@USArgumet@script@@V?$allocator@USArgumet@script@@@std@@@std@@@Z$4:
  0004d	8d 8d 58 ff ff
	ff		 lea	 ecx, DWORD PTR $T5[ebp]
  00053	e9 00 00 00 00	 jmp	 ??1?$basic_string@DU?$char_traits@D@std@@V?$allocator@D@2@@std@@QAE@XZ ; std::basic_string<char,std::char_traits<char>,std::allocator<char> >::~basic_string<char,std::char_traits<char>,std::allocator<char> >
__unwindfunclet$?GetArg@Group@script@@AAE_NPBDHAAV?$list@USArgumet@script@@V?$allocator@USArgumet@script@@@std@@@std@@@Z$5:
  00058	8d 8d 28 ff ff
	ff		 lea	 ecx, DWORD PTR $T3[ebp]
  0005e	e9 00 00 00 00	 jmp	 ??1SArgumet@script@@QAE@XZ
  00063	cc		 int	 3
  00064	cc		 int	 3
  00065	cc		 int	 3
  00066	cc		 int	 3
  00067	cc		 int	 3
__ehhandler$?GetArg@Group@script@@AAE_NPBDHAAV?$list@USArgumet@script@@V?$allocator@USArgumet@script@@@std@@@std@@@Z:
  00068	90		 npad	 1
  00069	90		 npad	 1
  0006a	8b 54 24 08	 mov	 edx, DWORD PTR [esp+8]
  0006e	8d 42 0c	 lea	 eax, DWORD PTR [edx+12]
  00071	8b 8a f0 fe ff
	ff		 mov	 ecx, DWORD PTR [edx-272]
  00077	33 c8		 xor	 ecx, eax
  00079	e8 00 00 00 00	 call	 @__security_check_cookie@4
  0007e	8b 4a fc	 mov	 ecx, DWORD PTR [edx-4]
  00081	33 c8		 xor	 ecx, eax
  00083	e8 00 00 00 00	 call	 @__security_check_cookie@4
  00088	b8 00 00 00 00	 mov	 eax, OFFSET __ehfuncinfo$?GetArg@Group@script@@AAE_NPBDHAAV?$list@USArgumet@script@@V?$allocator@USArgumet@script@@@std@@@std@@@Z
  0008d	e9 00 00 00 00	 jmp	 ___CxxFrameHandler3
text$x	ENDS
?GetArg@Group@script@@AAE_NPBDHAAV?$list@USArgumet@script@@V?$allocator@USArgumet@script@@@std@@@std@@@Z ENDP ; script::Group::GetArg
; Function compile flags: /Ogtp
; File C:\Users\murat\Desktop\Siveps2-1-99-Project\source\client\Client\EterLib\parser.cpp
; File C:\Program Files (x86)\Microsoft Visual Studio\2019\Professional\VC\Tools\MSVC\14.29.30133\include\xstring
; File C:\Users\murat\Desktop\Siveps2-1-99-Project\source\client\Client\EterLib\parser.cpp
; File C:\Program Files (x86)\Microsoft Visual Studio\2019\Professional\VC\Tools\MSVC\14.29.30133\include\xstring
; File C:\Users\murat\Desktop\Siveps2-1-99-Project\source\client\Client\EterLib\parser.cpp
;	COMDAT ?SetError@Group@script@@AAEXPBD@Z
_TEXT	SEGMENT
_c_pszError$ = 8					; size = 4
?SetError@Group@script@@AAEXPBD@Z PROC			; script::Group::SetError, COMDAT
; _this$ = ecx

; 433  : {

  00000	55		 push	 ebp
  00001	8b ec		 mov	 ebp, esp
; File C:\Program Files (x86)\Microsoft Visual Studio\2019\Professional\VC\Tools\MSVC\14.29.30133\include\xstring

; 412  :         return _CSTD strlen(reinterpret_cast<const char*>(_First));

  00003	8b 55 08	 mov	 edx, DWORD PTR _c_pszError$[ebp]
  00006	8b c2		 mov	 eax, edx
; File C:\Users\murat\Desktop\Siveps2-1-99-Project\source\client\Client\EterLib\parser.cpp

; 433  : {

  00008	56		 push	 esi
  00009	57		 push	 edi
  0000a	8b f1		 mov	 esi, ecx
; File C:\Program Files (x86)\Microsoft Visual Studio\2019\Professional\VC\Tools\MSVC\14.29.30133\include\xstring

; 412  :         return _CSTD strlen(reinterpret_cast<const char*>(_First));

  0000c	8d 78 01	 lea	 edi, DWORD PTR [eax+1]
  0000f	90		 npad	 1
$LL7@SetError:
  00010	8a 08		 mov	 cl, BYTE PTR [eax]
  00012	40		 inc	 eax
  00013	84 c9		 test	 cl, cl
  00015	75 f9		 jne	 SHORT $LL7@SetError
  00017	2b c7		 sub	 eax, edi

; 3264 :         return assign(_Ptr, _Convert_size<size_type>(_Traits::length(_Ptr)));

  00019	8b ce		 mov	 ecx, esi
  0001b	50		 push	 eax
  0001c	52		 push	 edx
  0001d	e8 00 00 00 00	 call	 ?assign@?$basic_string@DU?$char_traits@D@std@@V?$allocator@D@2@@std@@QAEAAV12@QBDI@Z ; std::basic_string<char,std::char_traits<char>,std::allocator<char> >::assign
  00022	5f		 pop	 edi
  00023	5e		 pop	 esi
; File C:\Users\murat\Desktop\Siveps2-1-99-Project\source\client\Client\EterLib\parser.cpp

; 435  : }

  00024	5d		 pop	 ebp
  00025	c2 04 00	 ret	 4
?SetError@Group@script@@AAEXPBD@Z ENDP			; script::Group::SetError
_TEXT	ENDS
; Function compile flags: /Ogtp
; File C:\Users\murat\Desktop\Siveps2-1-99-Project\source\client\Client\EterLib\parser.cpp
;	COMDAT ?GetError@Group@script@@QAEAAV?$basic_string@DU?$char_traits@D@std@@V?$allocator@D@2@@std@@XZ
_TEXT	SEGMENT
?GetError@Group@script@@QAEAAV?$basic_string@DU?$char_traits@D@std@@V?$allocator@D@2@@std@@XZ PROC ; script::Group::GetError, COMDAT
; _this$ = ecx

; 429  :     return m_stError;

  00000	8b c1		 mov	 eax, ecx

; 430  : }

  00002	c3		 ret	 0
?GetError@Group@script@@QAEAAV?$basic_string@DU?$char_traits@D@std@@V?$allocator@D@2@@std@@XZ ENDP ; script::Group::GetError
_TEXT	ENDS
; Function compile flags: /Ogtp
; File C:\Users\murat\Desktop\Siveps2-1-99-Project\source\client\Client\EterLib\parser.cpp
; File C:\Program Files (x86)\Microsoft Visual Studio\2019\Professional\VC\Tools\MSVC\14.29.30133\include\list
; File C:\Users\murat\Desktop\Siveps2-1-99-Project\source\client\Client\EterLib\parser.cpp
; File C:\Program Files (x86)\Microsoft Visual Studio\2019\Professional\VC\Tools\MSVC\14.29.30133\include\list
; File C:\Program Files (x86)\Microsoft Visual Studio\2019\Professional\VC\Tools\MSVC\14.29.30133\include\xstring
; File C:\Program Files (x86)\Microsoft Visual Studio\2019\Professional\VC\Tools\MSVC\14.29.30133\include\list
; File C:\Program Files (x86)\Microsoft Visual Studio\2019\Professional\VC\Tools\MSVC\14.29.30133\include\xstring
; File C:\Users\murat\Desktop\Siveps2-1-99-Project\source\client\Client\EterLib\parser.h
; File C:\Program Files (x86)\Microsoft Visual Studio\2019\Professional\VC\Tools\MSVC\14.29.30133\include\list
; File C:\Users\murat\Desktop\Siveps2-1-99-Project\source\client\Client\EterLib\parser.cpp
;	COMDAT ?ReadCmd@Group@script@@QAE_NAAUSCmd@2@@Z
_TEXT	SEGMENT
_cmd$ = 8						; size = 4
?ReadCmd@Group@script@@QAE_NAAUSCmd@2@@Z PROC		; script::Group::ReadCmd, COMDAT
; _this$ = ecx

; 419  : {

  00000	55		 push	 ebp
  00001	8b ec		 mov	 ebp, esp
; File C:\Program Files (x86)\Microsoft Visual Studio\2019\Professional\VC\Tools\MSVC\14.29.30133\include\list

; 1200 :         return _Mypair._Myval2._Mysize == 0;

  00003	83 79 1c 00	 cmp	 DWORD PTR [ecx+28], 0
; File C:\Users\murat\Desktop\Siveps2-1-99-Project\source\client\Client\EterLib\parser.cpp

; 420  :     if (m_cmdList.empty())

  00007	75 06		 jne	 SHORT $LN2@ReadCmd

; 421  :         return false;

  00009	32 c0		 xor	 al, al

; 425  : }

  0000b	5d		 pop	 ebp
  0000c	c2 04 00	 ret	 4
$LN2@ReadCmd:
; File C:\Program Files (x86)\Microsoft Visual Studio\2019\Professional\VC\Tools\MSVC\14.29.30133\include\list

; 1212 :         return _Mypair._Myval2._Myhead->_Next->_Myval;

  0000f	8b 41 18	 mov	 eax, DWORD PTR [ecx+24]
  00012	56		 push	 esi
  00013	57		 push	 edi
; File C:\Program Files (x86)\Microsoft Visual Studio\2019\Professional\VC\Tools\MSVC\14.29.30133\include\xstring

; 3077 :         if (this != _STD addressof(_Right)) {

  00014	8b 7d 08	 mov	 edi, DWORD PTR _cmd$[ebp]
; File C:\Program Files (x86)\Microsoft Visual Studio\2019\Professional\VC\Tools\MSVC\14.29.30133\include\list

; 1212 :         return _Mypair._Myval2._Myhead->_Next->_Myval;

  00017	8b 30		 mov	 esi, DWORD PTR [eax]
  00019	83 c6 08	 add	 esi, 8
; File C:\Program Files (x86)\Microsoft Visual Studio\2019\Professional\VC\Tools\MSVC\14.29.30133\include\xstring

; 3077 :         if (this != _STD addressof(_Right)) {

  0001c	3b fe		 cmp	 edi, esi
  0001e	74 15		 je	 SHORT $LN11@ReadCmd

; 2319 :         return _BUF_SIZE <= _Myres;

  00020	83 7e 14 10	 cmp	 DWORD PTR [esi+20], 16	; 00000010H

; 2305 :         const value_type* _Result = _Bx._Buf;

  00024	8b c6		 mov	 eax, esi

; 2306 :         if (_Large_string_engaged()) {

  00026	72 02		 jb	 SHORT $LN16@ReadCmd

; 2307 :             _Result = _Unfancy(_Bx._Ptr);

  00028	8b 06		 mov	 eax, DWORD PTR [esi]
$LN16@ReadCmd:

; 3035 :         assign(_Right._Mypair._Myval2._Myptr(), _Right._Mypair._Myval2._Mysize);

  0002a	ff 76 10	 push	 DWORD PTR [esi+16]
  0002d	8b cf		 mov	 ecx, edi
  0002f	50		 push	 eax
  00030	e8 00 00 00 00	 call	 ?assign@?$basic_string@DU?$char_traits@D@std@@V?$allocator@D@2@@std@@QAEAAV12@QBDI@Z ; std::basic_string<char,std::char_traits<char>,std::allocator<char> >::assign
$LN11@ReadCmd:
; File C:\Users\murat\Desktop\Siveps2-1-99-Project\source\client\Client\EterLib\parser.h

; 47   : 			argList = c_cmd.argList;

  00035	8d 46 18	 lea	 eax, DWORD PTR [esi+24]
  00038	8d 4f 18	 lea	 ecx, DWORD PTR [edi+24]
  0003b	5f		 pop	 edi
  0003c	5e		 pop	 esi
; File C:\Program Files (x86)\Microsoft Visual Studio\2019\Professional\VC\Tools\MSVC\14.29.30133\include\list

; 1084 :         if (this != _STD addressof(_Right)) {

  0003d	3b c8		 cmp	 ecx, eax
  0003f	74 0a		 je	 SHORT $LN21@ReadCmd

; 39   :     _List_unchecked_const_iterator(_Nodeptr _Pnode, const _Mylist* _Plist) noexcept : _Ptr(_Pnode) {

  00041	8b 00		 mov	 eax, DWORD PTR [eax]

; 1293 :         _Assign_cast<reference>(_Get_unwrapped(_First), _Get_unwrapped(_Last));

  00043	50		 push	 eax
  00044	ff 30		 push	 DWORD PTR [eax]
  00046	e8 00 00 00 00	 call	 ??$_Assign_cast@AAUSArgumet@script@@V?$_List_unchecked_const_iterator@V?$_List_val@U?$_List_simple_types@USArgumet@script@@@std@@@std@@U_Iterator_base0@2@@std@@@?$list@USArgumet@script@@V?$allocator@USArgumet@script@@@std@@@std@@AAEXV?$_List_unchecked_const_iterator@V?$_List_val@U?$_List_simple_types@USArgumet@script@@@std@@@std@@U_Iterator_base0@2@@1@V21@@Z ; std::list<script::SArgumet,std::allocator<script::SArgumet> >::_Assign_cast<script::SArgumet &,std::_List_unchecked_const_iterator<std::_List_val<std::_List_simple_types<script::SArgumet> >,std::_Iterator_base0> >
$LN21@ReadCmd:
; File C:\Users\murat\Desktop\Siveps2-1-99-Project\source\client\Client\EterLib\parser.cpp

; 424  :     return true;

  0004b	b0 01		 mov	 al, 1

; 425  : }

  0004d	5d		 pop	 ebp
  0004e	c2 04 00	 ret	 4
?ReadCmd@Group@script@@QAE_NAAUSCmd@2@@Z ENDP		; script::Group::ReadCmd
_TEXT	ENDS
; Function compile flags: /Ogtp
; File C:\Users\murat\Desktop\Siveps2-1-99-Project\source\client\Client\EterLib\parser.cpp
; File C:\Program Files (x86)\Microsoft Visual Studio\2019\Professional\VC\Tools\MSVC\14.29.30133\include\list
; File C:\Users\murat\Desktop\Siveps2-1-99-Project\source\client\Client\EterLib\parser.cpp
; File C:\Program Files (x86)\Microsoft Visual Studio\2019\Professional\VC\Tools\MSVC\14.29.30133\include\list
; File C:\Program Files (x86)\Microsoft Visual Studio\2019\Professional\VC\Tools\MSVC\14.29.30133\include\xstring
; File C:\Program Files (x86)\Microsoft Visual Studio\2019\Professional\VC\Tools\MSVC\14.29.30133\include\list
; File C:\Program Files (x86)\Microsoft Visual Studio\2019\Professional\VC\Tools\MSVC\14.29.30133\include\xstring
; File C:\Users\murat\Desktop\Siveps2-1-99-Project\source\client\Client\EterLib\parser.h
; File C:\Program Files (x86)\Microsoft Visual Studio\2019\Professional\VC\Tools\MSVC\14.29.30133\include\list
; File C:\Program Files (x86)\Microsoft Visual Studio\2019\Professional\VC\Tools\MSVC\14.29.30133\include\xmemory
; File C:\Users\murat\Desktop\Siveps2-1-99-Project\source\client\Client\EterLib\parser.cpp
;	COMDAT ?GetCmd@Group@script@@QAE_NAAUSCmd@2@@Z
_TEXT	SEGMENT
_cmd$ = 8						; size = 4
?GetCmd@Group@script@@QAE_NAAUSCmd@2@@Z PROC		; script::Group::GetCmd, COMDAT
; _this$ = ecx

; 409  : {

  00000	55		 push	 ebp
  00001	8b ec		 mov	 ebp, esp
  00003	57		 push	 edi
  00004	8b f9		 mov	 edi, ecx
; File C:\Program Files (x86)\Microsoft Visual Studio\2019\Professional\VC\Tools\MSVC\14.29.30133\include\list

; 1200 :         return _Mypair._Myval2._Mysize == 0;

  00006	83 7f 1c 00	 cmp	 DWORD PTR [edi+28], 0
; File C:\Users\murat\Desktop\Siveps2-1-99-Project\source\client\Client\EterLib\parser.cpp

; 410  :     if (m_cmdList.empty())

  0000a	75 07		 jne	 SHORT $LN2@GetCmd

; 411  :         return false;

  0000c	32 c0		 xor	 al, al
  0000e	5f		 pop	 edi

; 416  : }

  0000f	5d		 pop	 ebp
  00010	c2 04 00	 ret	 4
$LN2@GetCmd:
; File C:\Program Files (x86)\Microsoft Visual Studio\2019\Professional\VC\Tools\MSVC\14.29.30133\include\list

; 1212 :         return _Mypair._Myval2._Myhead->_Next->_Myval;

  00013	8b 47 18	 mov	 eax, DWORD PTR [edi+24]
  00016	53		 push	 ebx
; File C:\Program Files (x86)\Microsoft Visual Studio\2019\Professional\VC\Tools\MSVC\14.29.30133\include\xstring

; 3077 :         if (this != _STD addressof(_Right)) {

  00017	8b 5d 08	 mov	 ebx, DWORD PTR _cmd$[ebp]
  0001a	56		 push	 esi
; File C:\Program Files (x86)\Microsoft Visual Studio\2019\Professional\VC\Tools\MSVC\14.29.30133\include\list

; 1212 :         return _Mypair._Myval2._Myhead->_Next->_Myval;

  0001b	8b 30		 mov	 esi, DWORD PTR [eax]
  0001d	83 c6 08	 add	 esi, 8
; File C:\Program Files (x86)\Microsoft Visual Studio\2019\Professional\VC\Tools\MSVC\14.29.30133\include\xstring

; 3077 :         if (this != _STD addressof(_Right)) {

  00020	3b de		 cmp	 ebx, esi
  00022	74 15		 je	 SHORT $LN11@GetCmd

; 2319 :         return _BUF_SIZE <= _Myres;

  00024	83 7e 14 10	 cmp	 DWORD PTR [esi+20], 16	; 00000010H

; 2305 :         const value_type* _Result = _Bx._Buf;

  00028	8b c6		 mov	 eax, esi

; 2306 :         if (_Large_string_engaged()) {

  0002a	72 02		 jb	 SHORT $LN16@GetCmd

; 2307 :             _Result = _Unfancy(_Bx._Ptr);

  0002c	8b 06		 mov	 eax, DWORD PTR [esi]
$LN16@GetCmd:

; 3035 :         assign(_Right._Mypair._Myval2._Myptr(), _Right._Mypair._Myval2._Mysize);

  0002e	ff 76 10	 push	 DWORD PTR [esi+16]
  00031	8b cb		 mov	 ecx, ebx
  00033	50		 push	 eax
  00034	e8 00 00 00 00	 call	 ?assign@?$basic_string@DU?$char_traits@D@std@@V?$allocator@D@2@@std@@QAEAAV12@QBDI@Z ; std::basic_string<char,std::char_traits<char>,std::allocator<char> >::assign
$LN11@GetCmd:
; File C:\Users\murat\Desktop\Siveps2-1-99-Project\source\client\Client\EterLib\parser.h

; 47   : 			argList = c_cmd.argList;

  00039	8d 46 18	 lea	 eax, DWORD PTR [esi+24]
  0003c	8d 4b 18	 lea	 ecx, DWORD PTR [ebx+24]
; File C:\Program Files (x86)\Microsoft Visual Studio\2019\Professional\VC\Tools\MSVC\14.29.30133\include\list

; 1084 :         if (this != _STD addressof(_Right)) {

  0003f	3b c8		 cmp	 ecx, eax
  00041	74 0a		 je	 SHORT $LN21@GetCmd

; 39   :     _List_unchecked_const_iterator(_Nodeptr _Pnode, const _Mylist* _Plist) noexcept : _Ptr(_Pnode) {

  00043	8b 00		 mov	 eax, DWORD PTR [eax]

; 1293 :         _Assign_cast<reference>(_Get_unwrapped(_First), _Get_unwrapped(_Last));

  00045	50		 push	 eax
  00046	ff 30		 push	 DWORD PTR [eax]
  00048	e8 00 00 00 00	 call	 ??$_Assign_cast@AAUSArgumet@script@@V?$_List_unchecked_const_iterator@V?$_List_val@U?$_List_simple_types@USArgumet@script@@@std@@@std@@U_Iterator_base0@2@@std@@@?$list@USArgumet@script@@V?$allocator@USArgumet@script@@@std@@@std@@AAEXV?$_List_unchecked_const_iterator@V?$_List_val@U?$_List_simple_types@USArgumet@script@@@std@@@std@@U_Iterator_base0@2@@1@V21@@Z ; std::list<script::SArgumet,std::allocator<script::SArgumet> >::_Assign_cast<script::SArgumet &,std::_List_unchecked_const_iterator<std::_List_val<std::_List_simple_types<script::SArgumet> >,std::_Iterator_base0> >
$LN21@GetCmd:

; 1248 :         _Unchecked_erase(_Mypair._Myval2._Myhead->_Next);

  0004d	8b 47 18	 mov	 eax, DWORD PTR [edi+24]
  00050	8b 30		 mov	 esi, DWORD PTR [eax]

; 1360 :         const auto _Result = _Pnode->_Next;

  00052	8b 0e		 mov	 ecx, DWORD PTR [esi]

; 1361 :         _Mypair._Myval2._Orphan_ptr2(_Pnode);
; 1362 :         --_Mypair._Myval2._Mysize;

  00054	ff 4f 1c	 dec	 DWORD PTR [edi+28]

; 1363 :         _Pnode->_Prev->_Next = _Result;

  00057	8b 46 04	 mov	 eax, DWORD PTR [esi+4]
  0005a	89 08		 mov	 DWORD PTR [eax], ecx

; 1364 :         _Result->_Prev       = _Pnode->_Prev;

  0005c	8b 46 04	 mov	 eax, DWORD PTR [esi+4]
  0005f	89 41 04	 mov	 DWORD PTR [ecx+4], eax

; 321  :         allocator_traits<_Alnode>::destroy(_Al, _STD addressof(_Ptr->_Myval));

  00062	8d 4e 08	 lea	 ecx, DWORD PTR [esi+8]
  00065	e8 00 00 00 00	 call	 ??1SCmd@script@@QAE@XZ
; File C:\Program Files (x86)\Microsoft Visual Studio\2019\Professional\VC\Tools\MSVC\14.29.30133\include\xmemory

; 264  :         ::operator delete(_Ptr, _Bytes);

  0006a	6a 28		 push	 40			; 00000028H
  0006c	56		 push	 esi
  0006d	e8 00 00 00 00	 call	 ??3@YAXPAXI@Z		; operator delete
  00072	83 c4 08	 add	 esp, 8
; File C:\Users\murat\Desktop\Siveps2-1-99-Project\source\client\Client\EterLib\parser.cpp

; 415  :     return true;

  00075	b0 01		 mov	 al, 1
  00077	5e		 pop	 esi
  00078	5b		 pop	 ebx
  00079	5f		 pop	 edi

; 416  : }

  0007a	5d		 pop	 ebp
  0007b	c2 04 00	 ret	 4
?GetCmd@Group@script@@QAE_NAAUSCmd@2@@Z ENDP		; script::Group::GetCmd
_TEXT	ENDS
; Function compile flags: /Ogtp
; File C:\Users\murat\Desktop\Siveps2-1-99-Project\source\client\Client\EterLib\parser.cpp
; File C:\Program Files (x86)\Microsoft Visual Studio\2019\Professional\VC\Tools\MSVC\14.29.30133\include\list
; File C:\Users\murat\Desktop\Siveps2-1-99-Project\source\client\Client\EterLib\parser.cpp
; File C:\Program Files (x86)\Microsoft Visual Studio\2019\Professional\VC\Tools\MSVC\14.29.30133\include\list
; File C:\Users\murat\Desktop\Siveps2-1-99-Project\source\client\Client\EterLib\parser.cpp
; File C:\Program Files (x86)\Microsoft Visual Studio\2019\Professional\VC\Tools\MSVC\14.29.30133\include\list
; File C:\Program Files (x86)\Microsoft Visual Studio\2019\Professional\VC\Tools\MSVC\14.29.30133\include\xstring
; File C:\Users\murat\Desktop\Siveps2-1-99-Project\source\client\Client\EterLib\parser.cpp
; File C:\Program Files (x86)\Microsoft Visual Studio\2019\Professional\VC\Tools\MSVC\14.29.30133\include\xstring
; File C:\Users\murat\Desktop\Siveps2-1-99-Project\source\client\Client\EterLib\parser.cpp
; File C:\Program Files (x86)\Microsoft Visual Studio\2019\Professional\VC\Tools\MSVC\14.29.30133\include\xstring
; File C:\Program Files (x86)\Microsoft Visual Studio\2019\Professional\VC\Tools\MSVC\14.29.30133\include\xmemory
; File C:\Users\murat\Desktop\Siveps2-1-99-Project\source\client\Client\EterLib\parser.h
; File C:\Program Files (x86)\Microsoft Visual Studio\2019\Professional\VC\Tools\MSVC\14.29.30133\include\list
; File C:\Program Files (x86)\Microsoft Visual Studio\2019\Professional\VC\Tools\MSVC\14.29.30133\include\xmemory
; File C:\Program Files (x86)\Microsoft Visual Studio\2019\Professional\VC\Tools\MSVC\14.29.30133\include\list
; File C:\Users\murat\Desktop\Siveps2-1-99-Project\source\client\Client\EterLib\parser.cpp
; File C:\Program Files (x86)\Microsoft Visual Studio\2019\Professional\VC\Tools\MSVC\14.29.30133\include\xstring
; File C:\Users\murat\Desktop\Siveps2-1-99-Project\source\client\Client\EterLib\parser.cpp
; File C:\Program Files (x86)\Microsoft Visual Studio\2019\Professional\VC\Tools\MSVC\14.29.30133\include\xstring
; File C:\Users\murat\Desktop\Siveps2-1-99-Project\source\client\Client\EterLib\parser.cpp
; File C:\Program Files (x86)\Microsoft Visual Studio\2019\Professional\VC\Tools\MSVC\14.29.30133\include\xstring
; File C:\Program Files (x86)\Microsoft Visual Studio\2019\Professional\VC\Tools\MSVC\14.29.30133\include\xmemory
; File C:\Program Files (x86)\Microsoft Visual Studio\2019\Professional\VC\Tools\MSVC\14.29.30133\include\xstring
; File C:\Program Files (x86)\Microsoft Visual Studio\2019\Professional\VC\Tools\MSVC\14.29.30133\include\xmemory
; File C:\Program Files (x86)\Microsoft Visual Studio\2019\Professional\VC\Tools\MSVC\14.29.30133\include\xstring
; File C:\Program Files (x86)\Microsoft Visual Studio\2019\Professional\VC\Tools\MSVC\14.29.30133\include\xmemory
; File C:\Program Files (x86)\Microsoft Visual Studio\2019\Professional\VC\Tools\MSVC\14.29.30133\include\xstring
; File C:\Program Files (x86)\Microsoft Visual Studio\2019\Professional\VC\Tools\MSVC\14.29.30133\include\xmemory
; File C:\Program Files (x86)\Microsoft Visual Studio\2019\Professional\VC\Tools\MSVC\14.29.30133\include\xstring
; File C:\Users\murat\Desktop\Siveps2-1-99-Project\source\client\Client\EterLib\parser.h
; File C:\Program Files (x86)\Microsoft Visual Studio\2019\Professional\VC\Tools\MSVC\14.29.30133\include\xstring
; File C:\Program Files (x86)\Microsoft Visual Studio\2019\Professional\VC\Tools\MSVC\14.29.30133\include\xmemory
; File C:\Program Files (x86)\Microsoft Visual Studio\2019\Professional\VC\Tools\MSVC\14.29.30133\include\xstring
; File C:\Program Files (x86)\Microsoft Visual Studio\2019\Professional\VC\Tools\MSVC\14.29.30133\include\xmemory
; File C:\Program Files (x86)\Microsoft Visual Studio\2019\Professional\VC\Tools\MSVC\14.29.30133\include\xstring
; File C:\Program Files (x86)\Microsoft Visual Studio\2019\Professional\VC\Tools\MSVC\14.29.30133\include\xmemory
; File C:\Program Files (x86)\Microsoft Visual Studio\2019\Professional\VC\Tools\MSVC\14.29.30133\include\xstring
; File C:\Program Files (x86)\Microsoft Visual Studio\2019\Professional\VC\Tools\MSVC\14.29.30133\include\xmemory
; File C:\Program Files (x86)\Microsoft Visual Studio\2019\Professional\VC\Tools\MSVC\14.29.30133\include\xstring
; File C:\Program Files (x86)\Microsoft Visual Studio\2019\Professional\VC\Tools\MSVC\14.29.30133\include\xmemory
; File C:\Users\murat\Desktop\Siveps2-1-99-Project\source\client\Client\EterLib\parser.cpp
; File C:\Program Files (x86)\Microsoft Visual Studio\2019\Professional\VC\Tools\MSVC\14.29.30133\include\list
; File C:\Users\murat\Desktop\Siveps2-1-99-Project\source\client\Client\EterLib\parser.cpp
; File C:\Program Files (x86)\Microsoft Visual Studio\2019\Professional\VC\Tools\MSVC\14.29.30133\include\list
; File C:\Program Files (x86)\Microsoft Visual Studio\2019\Professional\VC\Tools\MSVC\14.29.30133\include\xmemory
; File C:\Program Files (x86)\Microsoft Visual Studio\2019\Professional\VC\Tools\MSVC\14.29.30133\include\list
; File C:\Program Files (x86)\Microsoft Visual Studio\2019\Professional\VC\Tools\MSVC\14.29.30133\include\xmemory
; File C:\Program Files (x86)\Microsoft Visual Studio\2019\Professional\VC\Tools\MSVC\14.29.30133\include\list
; File C:\Program Files (x86)\Microsoft Visual Studio\2019\Professional\VC\Tools\MSVC\14.29.30133\include\xstring
; File C:\Program Files (x86)\Microsoft Visual Studio\2019\Professional\VC\Tools\MSVC\14.29.30133\include\list
; File C:\Users\murat\Desktop\Siveps2-1-99-Project\source\client\Client\EterLib\parser.cpp
; File C:\Program Files (x86)\Microsoft Visual Studio\2019\Professional\VC\Tools\MSVC\14.29.30133\include\xstring
; File C:\Program Files (x86)\Microsoft Visual Studio\2019\Professional\VC\Tools\MSVC\14.29.30133\include\xmemory
; File C:\Program Files (x86)\Microsoft Visual Studio\2019\Professional\VC\Tools\MSVC\14.29.30133\include\xstring
; File C:\Program Files (x86)\Microsoft Visual Studio\2019\Professional\VC\Tools\MSVC\14.29.30133\include\xmemory
; File C:\Program Files (x86)\Microsoft Visual Studio\2019\Professional\VC\Tools\MSVC\14.29.30133\include\xstring
; File C:\Program Files (x86)\Microsoft Visual Studio\2019\Professional\VC\Tools\MSVC\14.29.30133\include\xmemory
; File C:\Program Files (x86)\Microsoft Visual Studio\2019\Professional\VC\Tools\MSVC\14.29.30133\include\xstring
; File C:\Program Files (x86)\Microsoft Visual Studio\2019\Professional\VC\Tools\MSVC\14.29.30133\include\xmemory
; File C:\Users\murat\Desktop\Siveps2-1-99-Project\source\client\Client\EterLib\parser.cpp
; File C:\Program Files (x86)\Microsoft Visual Studio\2019\Professional\VC\Tools\MSVC\14.29.30133\include\list
; File C:\Program Files (x86)\Microsoft Visual Studio\2019\Professional\VC\Tools\MSVC\14.29.30133\include\xmemory
; File C:\Program Files (x86)\Microsoft Visual Studio\2019\Professional\VC\Tools\MSVC\14.29.30133\include\xstring
; File C:\Program Files (x86)\Microsoft Visual Studio\2019\Professional\VC\Tools\MSVC\14.29.30133\include\xmemory
; File C:\Program Files (x86)\Microsoft Visual Studio\2019\Professional\VC\Tools\MSVC\14.29.30133\include\xstring
; File C:\Program Files (x86)\Microsoft Visual Studio\2019\Professional\VC\Tools\MSVC\14.29.30133\include\xmemory
; File C:\Program Files (x86)\Microsoft Visual Studio\2019\Professional\VC\Tools\MSVC\14.29.30133\include\xstring
; File C:\Program Files (x86)\Microsoft Visual Studio\2019\Professional\VC\Tools\MSVC\14.29.30133\include\xmemory
; File C:\Program Files (x86)\Microsoft Visual Studio\2019\Professional\VC\Tools\MSVC\14.29.30133\include\xstring
; File C:\Program Files (x86)\Microsoft Visual Studio\2019\Professional\VC\Tools\MSVC\14.29.30133\include\list
; File C:\Users\murat\Desktop\Siveps2-1-99-Project\source\client\Client\EterLib\parser.cpp
; File C:\Program Files (x86)\Microsoft Visual Studio\2019\Professional\VC\Tools\MSVC\14.29.30133\include\xstring
; File C:\Users\murat\Desktop\Siveps2-1-99-Project\source\client\Client\EterLib\parser.cpp
; File C:\Program Files (x86)\Microsoft Visual Studio\2019\Professional\VC\Tools\MSVC\14.29.30133\include\xstring
; File C:\Program Files (x86)\Microsoft Visual Studio\2019\Professional\VC\Tools\MSVC\14.29.30133\include\xmemory
; File C:\Program Files (x86)\Microsoft Visual Studio\2019\Professional\VC\Tools\MSVC\14.29.30133\include\xstring
; File C:\Program Files (x86)\Microsoft Visual Studio\2019\Professional\VC\Tools\MSVC\14.29.30133\include\xmemory
; File C:\Program Files (x86)\Microsoft Visual Studio\2019\Professional\VC\Tools\MSVC\14.29.30133\include\xstring
; File C:\Program Files (x86)\Microsoft Visual Studio\2019\Professional\VC\Tools\MSVC\14.29.30133\include\xmemory
; File C:\Program Files (x86)\Microsoft Visual Studio\2019\Professional\VC\Tools\MSVC\14.29.30133\include\xstring
; File C:\Program Files (x86)\Microsoft Visual Studio\2019\Professional\VC\Tools\MSVC\14.29.30133\include\xmemory
; File C:\Program Files (x86)\Microsoft Visual Studio\2019\Professional\VC\Tools\MSVC\14.29.30133\include\xstring
; File C:\Program Files (x86)\Microsoft Visual Studio\2019\Professional\VC\Tools\MSVC\14.29.30133\include\xmemory
; File C:\Program Files (x86)\Microsoft Visual Studio\2019\Professional\VC\Tools\MSVC\14.29.30133\include\xstring
; File C:\Program Files (x86)\Microsoft Visual Studio\2019\Professional\VC\Tools\MSVC\14.29.30133\include\xmemory
; File C:\Program Files (x86)\Microsoft Visual Studio\2019\Professional\VC\Tools\MSVC\14.29.30133\include\xstring
; File C:\Program Files (x86)\Microsoft Visual Studio\2019\Professional\VC\Tools\MSVC\14.29.30133\include\xmemory
; File C:\Program Files (x86)\Microsoft Visual Studio\2019\Professional\VC\Tools\MSVC\14.29.30133\include\xstring
; File C:\Program Files (x86)\Microsoft Visual Studio\2019\Professional\VC\Tools\MSVC\14.29.30133\include\xmemory
; File C:\Program Files (x86)\Microsoft Visual Studio\2019\Professional\VC\Tools\MSVC\14.29.30133\include\xstring
; File C:\Users\murat\Desktop\Siveps2-1-99-Project\source\client\Client\EterLib\parser.cpp
; File C:\Program Files (x86)\Microsoft Visual Studio\2019\Professional\VC\Tools\MSVC\14.29.30133\include\xstring
; File C:\Users\murat\Desktop\Siveps2-1-99-Project\source\client\Client\EterLib\parser.cpp
; File C:\Program Files (x86)\Microsoft Visual Studio\2019\Professional\VC\Tools\MSVC\14.29.30133\include\xstring
; File C:\Program Files (x86)\Microsoft Visual Studio\2019\Professional\VC\Tools\MSVC\14.29.30133\include\xmemory
; File C:\Program Files (x86)\Microsoft Visual Studio\2019\Professional\VC\Tools\MSVC\14.29.30133\include\xstring
; File C:\Program Files (x86)\Microsoft Visual Studio\2019\Professional\VC\Tools\MSVC\14.29.30133\include\xmemory
; File C:\Users\murat\Desktop\Siveps2-1-99-Project\source\client\Client\EterLib\parser.cpp
; File C:\Program Files (x86)\Microsoft Visual Studio\2019\Professional\VC\Tools\MSVC\14.29.30133\include\list
; File C:\Users\murat\Desktop\Siveps2-1-99-Project\source\client\Client\EterLib\parser.cpp
; File C:\Program Files (x86)\Microsoft Visual Studio\2019\Professional\VC\Tools\MSVC\14.29.30133\include\list
; File C:\Program Files (x86)\Microsoft Visual Studio\2019\Professional\VC\Tools\MSVC\14.29.30133\include\xmemory
; File C:\Program Files (x86)\Microsoft Visual Studio\2019\Professional\VC\Tools\MSVC\14.29.30133\include\xstring
; File C:\Program Files (x86)\Microsoft Visual Studio\2019\Professional\VC\Tools\MSVC\14.29.30133\include\xmemory
; File C:\Program Files (x86)\Microsoft Visual Studio\2019\Professional\VC\Tools\MSVC\14.29.30133\include\xstring
; File C:\Program Files (x86)\Microsoft Visual Studio\2019\Professional\VC\Tools\MSVC\14.29.30133\include\xmemory
; File C:\Program Files (x86)\Microsoft Visual Studio\2019\Professional\VC\Tools\MSVC\14.29.30133\include\xstring
; File C:\Program Files (x86)\Microsoft Visual Studio\2019\Professional\VC\Tools\MSVC\14.29.30133\include\xmemory
; File C:\Users\murat\Desktop\Siveps2-1-99-Project\source\client\Client\EterLib\parser.cpp
; File C:\Program Files (x86)\Microsoft Visual Studio\2019\Professional\VC\Tools\MSVC\14.29.30133\include\list
; File C:\Program Files (x86)\Microsoft Visual Studio\2019\Professional\VC\Tools\MSVC\14.29.30133\include\xmemory
; File C:\Program Files (x86)\Microsoft Visual Studio\2019\Professional\VC\Tools\MSVC\14.29.30133\include\xstring
; File C:\Program Files (x86)\Microsoft Visual Studio\2019\Professional\VC\Tools\MSVC\14.29.30133\include\xmemory
; File C:\Program Files (x86)\Microsoft Visual Studio\2019\Professional\VC\Tools\MSVC\14.29.30133\include\xstring
; File C:\Program Files (x86)\Microsoft Visual Studio\2019\Professional\VC\Tools\MSVC\14.29.30133\include\xmemory
; File C:\Program Files (x86)\Microsoft Visual Studio\2019\Professional\VC\Tools\MSVC\14.29.30133\include\xstring
; File C:\Program Files (x86)\Microsoft Visual Studio\2019\Professional\VC\Tools\MSVC\14.29.30133\include\xmemory
; File C:\Users\murat\Desktop\Siveps2-1-99-Project\source\client\Client\EterLib\parser.cpp
; File C:\Program Files (x86)\Microsoft Visual Studio\2019\Professional\VC\Tools\MSVC\14.29.30133\include\list
; File C:\Program Files (x86)\Microsoft Visual Studio\2019\Professional\VC\Tools\MSVC\14.29.30133\include\xmemory
; File C:\Program Files (x86)\Microsoft Visual Studio\2019\Professional\VC\Tools\MSVC\14.29.30133\include\xstring
; File C:\Program Files (x86)\Microsoft Visual Studio\2019\Professional\VC\Tools\MSVC\14.29.30133\include\xmemory
; File C:\Program Files (x86)\Microsoft Visual Studio\2019\Professional\VC\Tools\MSVC\14.29.30133\include\xstring
; File C:\Program Files (x86)\Microsoft Visual Studio\2019\Professional\VC\Tools\MSVC\14.29.30133\include\xmemory
; File C:\Program Files (x86)\Microsoft Visual Studio\2019\Professional\VC\Tools\MSVC\14.29.30133\include\xstring
; File C:\Program Files (x86)\Microsoft Visual Studio\2019\Professional\VC\Tools\MSVC\14.29.30133\include\xmemory
; File C:\Users\murat\Desktop\Siveps2-1-99-Project\source\client\Client\EterLib\parser.cpp
; File C:\Program Files (x86)\Microsoft Visual Studio\2019\Professional\VC\Tools\MSVC\14.29.30133\include\list
; File C:\Program Files (x86)\Microsoft Visual Studio\2019\Professional\VC\Tools\MSVC\14.29.30133\include\xstring
; File C:\Users\murat\Desktop\Siveps2-1-99-Project\source\client\Client\EterLib\parser.cpp
;	COMDAT ?Create@Group@script@@QAE_NABV?$basic_string@DU?$char_traits@D@std@@V?$allocator@D@2@@std@@@Z
_TEXT	SEGMENT
__Op$2 = -1196						; size = 8
_str_len$1$ = -1184					; size = 4
tv4376 = -1180						; size = 4
__Old_capacity$1$ = -1176				; size = 4
__Result$2$ = -1172					; size = 4
_str_pos$1$ = -1168					; size = 4
_this$GSCopy$1$ = -1164					; size = 4
_codePage$1$ = -1160					; size = 4
__Result$1$ = -1156					; size = 4
_cur$1$ = -1149						; size = 1
$T3 = -1148						; size = 24
$T4 = -1148						; size = 24
$T5 = -1124						; size = 48
$T6 = -1124						; size = 48
_cmd$7 = -1076						; size = 32
_box_data$ = -1044					; size = 1025
__$ArrayPad$ = -16					; size = 4
__$EHRec$ = -12						; size = 12
_stSource$ = 8						; size = 4
?Create@Group@script@@QAE_NABV?$basic_string@DU?$char_traits@D@std@@V?$allocator@D@2@@std@@@Z PROC ; script::Group::Create, COMDAT
; _this$ = ecx

; 278  : {

  00000	55		 push	 ebp
  00001	8b ec		 mov	 ebp, esp
  00003	6a ff		 push	 -1
  00005	68 00 00 00 00	 push	 __ehhandler$?Create@Group@script@@QAE_NABV?$basic_string@DU?$char_traits@D@std@@V?$allocator@D@2@@std@@@Z
  0000a	64 a1 00 00 00
	00		 mov	 eax, DWORD PTR fs:0
  00010	50		 push	 eax
  00011	81 ec a0 04 00
	00		 sub	 esp, 1184		; 000004a0H
  00017	a1 00 00 00 00	 mov	 eax, DWORD PTR ___security_cookie
  0001c	33 c5		 xor	 eax, ebp
  0001e	89 45 f0	 mov	 DWORD PTR __$ArrayPad$[ebp], eax
  00021	53		 push	 ebx
  00022	56		 push	 esi
  00023	57		 push	 edi
  00024	50		 push	 eax
  00025	8d 45 f4	 lea	 eax, DWORD PTR __$EHRec$[ebp]
  00028	64 a3 00 00 00
	00		 mov	 DWORD PTR fs:0, eax
  0002e	8b c1		 mov	 eax, ecx
  00030	89 85 74 fb ff
	ff		 mov	 DWORD PTR _this$GSCopy$1$[ebp], eax
; File C:\Program Files (x86)\Microsoft Visual Studio\2019\Professional\VC\Tools\MSVC\14.29.30133\include\list

; 1429 :         _Node::_Free_non_head(_Getal(), _My_data._Myhead);

  00036	ff 70 18	 push	 DWORD PTR [eax+24]
; File C:\Users\murat\Desktop\Siveps2-1-99-Project\source\client\Client\EterLib\parser.cpp

; 278  : {

  00039	8b 7d 08	 mov	 edi, DWORD PTR _stSource$[ebp]

; 279  : 	m_cmdList.clear();

  0003c	8d 58 18	 lea	 ebx, DWORD PTR [eax+24]
; File C:\Program Files (x86)\Microsoft Visual Studio\2019\Professional\VC\Tools\MSVC\14.29.30133\include\list

; 1429 :         _Node::_Free_non_head(_Getal(), _My_data._Myhead);

  0003f	53		 push	 ebx
; File C:\Users\murat\Desktop\Siveps2-1-99-Project\source\client\Client\EterLib\parser.cpp

; 278  : {

  00040	89 bd 7c fb ff
	ff		 mov	 DWORD PTR __Result$1$[ebp], edi
; File C:\Program Files (x86)\Microsoft Visual Studio\2019\Professional\VC\Tools\MSVC\14.29.30133\include\list

; 1429 :         _Node::_Free_non_head(_Getal(), _My_data._Myhead);

  00046	e8 00 00 00 00	 call	 ??$_Free_non_head@V?$allocator@U?$_List_node@USCmd@script@@PAX@std@@@std@@@?$_List_node@USCmd@script@@PAX@std@@SAXAAV?$allocator@U?$_List_node@USCmd@script@@PAX@std@@@1@PAU01@@Z ; std::_List_node<script::SCmd,void *>::_Free_non_head<std::allocator<std::_List_node<script::SCmd,void *> > >

; 1430 :         _My_data._Myhead->_Next = _My_data._Myhead;

  0004b	8b 03		 mov	 eax, DWORD PTR [ebx]
  0004d	83 c4 08	 add	 esp, 8
  00050	89 00		 mov	 DWORD PTR [eax], eax

; 1431 :         _My_data._Myhead->_Prev = _My_data._Myhead;

  00052	8b 03		 mov	 eax, DWORD PTR [ebx]
  00054	89 40 04	 mov	 DWORD PTR [eax+4], eax

; 1432 :         _My_data._Mysize        = 0;

  00057	c7 43 04 00 00
	00 00		 mov	 DWORD PTR [ebx+4], 0
; File C:\Program Files (x86)\Microsoft Visual Studio\2019\Professional\VC\Tools\MSVC\14.29.30133\include\xstring

; 4019 :         return size() == 0;

  0005e	8b 77 10	 mov	 esi, DWORD PTR [edi+16]
  00061	89 b5 60 fb ff
	ff		 mov	 DWORD PTR _str_len$1$[ebp], esi
; File C:\Users\murat\Desktop\Siveps2-1-99-Project\source\client\Client\EterLib\parser.cpp

; 281  : 	if (stSource.empty())

  00067	85 f6		 test	 esi, esi
  00069	0f 84 f7 0a 00
	00		 je	 $LN696@Create
; File C:\Program Files (x86)\Microsoft Visual Studio\2019\Professional\VC\Tools\MSVC\14.29.30133\include\xstring

; 2306 :         if (_Large_string_engaged()) {

  0006f	83 7f 14 10	 cmp	 DWORD PTR [edi+20], 16	; 00000010H
  00073	72 08		 jb	 SHORT $LN37@Create

; 2307 :             _Result = _Unfancy(_Bx._Ptr);

  00075	8b 3f		 mov	 edi, DWORD PTR [edi]
  00077	89 bd 7c fb ff
	ff		 mov	 DWORD PTR __Result$1$[ebp], edi
$LN37@Create:
; File C:\Users\murat\Desktop\Siveps2-1-99-Project\source\client\Client\EterLib\parser.cpp

; 285  :     if (!str_base || !*str_base)

  0007d	85 ff		 test	 edi, edi
  0007f	0f 84 d4 0a 00
	00		 je	 $LN7@Create
  00085	80 3f 00	 cmp	 BYTE PTR [edi], 0
  00088	0f 84 cb 0a 00
	00		 je	 $LN7@Create

; 288  :         return false;//return true;//return false;
; 289  :     }
; 290  : 	int str_len = stSource.length();
; 291  : 	int str_pos = 0;

  0008e	33 db		 xor	 ebx, ebx

; 292  : 
; 293  : 	DWORD codePage = GetDefaultCodePage();

  00090	e8 00 00 00 00	 call	 ?GetDefaultCodePage@@YAKXZ ; GetDefaultCodePage

; 294  : 
; 295  :     char box_data[1024 + 1];
; 296  : 
; 297  : 	static std::string stLetter;

  00095	64 8b 0d 00 00
	00 00		 mov	 ecx, DWORD PTR fs:__tls_array
  0009c	8b 15 00 00 00
	00		 mov	 edx, DWORD PTR __tls_index
  000a2	89 85 78 fb ff
	ff		 mov	 DWORD PTR _codePage$1$[ebp], eax
  000a8	8b 14 91	 mov	 edx, DWORD PTR [ecx+edx*4]
  000ab	8b 0d 00 00 00
	00		 mov	 ecx, DWORD PTR ?$TSS0@?1??Create@Group@script@@QAE_NABV?$basic_string@DU?$char_traits@D@std@@V?$allocator@D@2@@std@@@Z@4HA
  000b1	3b 8a 00 00 00
	00		 cmp	 ecx, DWORD PTR __Init_thread_epoch[edx]
  000b7	0f 8f c9 0a 00
	00		 jg	 $LN1015@Create
  000bd	eb 06		 jmp	 SHORT $LN2@Create
$LN1011@Create:

; 299  :     while (str_pos < str_len)

  000bf	8b 85 78 fb ff
	ff		 mov	 eax, DWORD PTR _codePage$1$[ebp]
$LN2@Create:
  000c5	85 f6		 test	 esi, esi
  000c7	0f 8e 88 0a 00
	00		 jle	 $LN4@Create
  000cd	0f b7 c0	 movzx	 eax, ax
  000d0	89 85 64 fb ff
	ff		 mov	 DWORD PTR tv4376[ebp], eax
$LL3@Create:
; File C:\Program Files (x86)\Microsoft Visual Studio\2019\Professional\VC\Tools\MSVC\14.29.30133\include\xstring

; 2346 :         _CONSTEXPR20_CONTAINER _Bxty() noexcept : _Ptr() {} // user-provided, for fancy pointers

  000d6	c7 85 cc fb ff
	ff 00 00 00 00	 mov	 DWORD PTR _cmd$7[ebp], 0

; 4596 :         _My_data._Mysize = 0;

  000e0	c7 85 dc fb ff
	ff 00 00 00 00	 mov	 DWORD PTR _cmd$7[ebp+16], 0

; 4610 :             _My_data._Myres = _BUF_SIZE - 1;

  000ea	c7 85 e0 fb ff
	ff 0f 00 00 00	 mov	 DWORD PTR _cmd$7[ebp+20], 15 ; 0000000fH

; 4611 :             // the _Traits::assign is last so the codegen doesn't think the char write can alias this
; 4612 :             _Traits::assign(_My_data._Bx._Buf[0], _Elem());

  000f4	c6 85 cc fb ff
	ff 00		 mov	 BYTE PTR _cmd$7[ebp], 0
; File C:\Program Files (x86)\Microsoft Visual Studio\2019\Professional\VC\Tools\MSVC\14.29.30133\include\xmemory

; 85   :         return ::operator new(_Bytes);

  000fb	6a 38		 push	 56			; 00000038H
; File C:\Users\murat\Desktop\Siveps2-1-99-Project\source\client\Client\EterLib\parser.h

; 37   : 		SCmd()

  000fd	c7 45 fc 00 00
	00 00		 mov	 DWORD PTR __$EHRec$[ebp+8], 0
; File C:\Program Files (x86)\Microsoft Visual Studio\2019\Professional\VC\Tools\MSVC\14.29.30133\include\list

; 358  :     _List_val() noexcept : _Myhead(), _Mysize(0) {} // initialize data

  00104	c7 85 e4 fb ff
	ff 00 00 00 00	 mov	 DWORD PTR _cmd$7[ebp+24], 0
  0010e	c7 85 e8 fb ff
	ff 00 00 00 00	 mov	 DWORD PTR _cmd$7[ebp+28], 0
; File C:\Program Files (x86)\Microsoft Visual Studio\2019\Professional\VC\Tools\MSVC\14.29.30133\include\xmemory

; 85   :         return ::operator new(_Bytes);

  00118	e8 00 00 00 00	 call	 ??2@YAPAXI@Z		; operator new
  0011d	83 c4 04	 add	 esp, 4
; File C:\Program Files (x86)\Microsoft Visual Studio\2019\Professional\VC\Tools\MSVC\14.29.30133\include\list

; 1776 :         _Construct_in_place(_Newhead->_Next, _Newhead);

  00120	89 00		 mov	 DWORD PTR [eax], eax

; 1777 :         _Construct_in_place(_Newhead->_Prev, _Newhead);

  00122	89 40 04	 mov	 DWORD PTR [eax+4], eax

; 1778 :         _Mypair._Myval2._Myhead = _Newhead;

  00125	89 85 e4 fb ff
	ff		 mov	 DWORD PTR _cmd$7[ebp+24], eax
; File C:\Users\murat\Desktop\Siveps2-1-99-Project\source\client\Client\EterLib\parser.cpp

; 304  : 		const char* word_next = CharNextExA(codePage, word, 0);

  0012b	6a 00		 push	 0
  0012d	8d 34 1f	 lea	 esi, DWORD PTR [edi+ebx]
  00130	c7 45 fc 01 00
	00 00		 mov	 DWORD PTR __$EHRec$[ebp+8], 1
  00137	56		 push	 esi
  00138	ff b5 64 fb ff
	ff		 push	 DWORD PTR tv4376[ebp]
  0013e	ff 15 00 00 00
	00		 call	 DWORD PTR __imp__CharNextExA@12

; 305  : 
; 306  : 		int word_len = word_next - word;

  00144	2b c6		 sub	 eax, esi

; 307  : 
; 308  : 		if (word_len > 1)

  00146	83 f8 01	 cmp	 eax, 1
  00149	0f 8e e5 03 00
	00		 jle	 $LN8@Create
; File C:\Program Files (x86)\Microsoft Visual Studio\2019\Professional\VC\Tools\MSVC\14.29.30133\include\xstring

; 3292 :             return assign(_UFirst, _Convert_size<size_type>(static_cast<size_t>(_ULast - _UFirst)));

  0014f	50		 push	 eax
; File C:\Users\murat\Desktop\Siveps2-1-99-Project\source\client\Client\EterLib\parser.cpp

; 310  : 			str_pos += word_len;

  00150	03 d8		 add	 ebx, eax
; File C:\Program Files (x86)\Microsoft Visual Studio\2019\Professional\VC\Tools\MSVC\14.29.30133\include\xstring

; 3292 :             return assign(_UFirst, _Convert_size<size_type>(static_cast<size_t>(_ULast - _UFirst)));

  00152	b9 00 00 00 00	 mov	 ecx, OFFSET ?stLetter@?1??Create@Group@script@@QAE_NABV?$basic_string@DU?$char_traits@D@std@@V?$allocator@D@2@@std@@@Z@4V45@A
  00157	56		 push	 esi
; File C:\Users\murat\Desktop\Siveps2-1-99-Project\source\client\Client\EterLib\parser.cpp

; 310  : 			str_pos += word_len;

  00158	89 9d 70 fb ff
	ff		 mov	 DWORD PTR _str_pos$1$[ebp], ebx
; File C:\Program Files (x86)\Microsoft Visual Studio\2019\Professional\VC\Tools\MSVC\14.29.30133\include\xstring

; 3292 :             return assign(_UFirst, _Convert_size<size_type>(static_cast<size_t>(_ULast - _UFirst)));

  0015e	e8 00 00 00 00	 call	 ?assign@?$basic_string@DU?$char_traits@D@std@@V?$allocator@D@2@@std@@QAEAAV12@QBDI@Z ; std::basic_string<char,std::char_traits<char>,std::allocator<char> >::assign

; 3246 :         if (_Count <= _Mypair._Myval2._Myres) {

  00163	8b 9d e0 fb ff
	ff		 mov	 ebx, DWORD PTR _cmd$7[ebp+20]
  00169	83 fb 06	 cmp	 ebx, 6
  0016c	72 33		 jb	 SHORT $LN1001@Create

; 2297 :         if (_Large_string_engaged()) {

  0016e	83 fb 10	 cmp	 ebx, 16			; 00000010H

; 3248 :             _Mypair._Myval2._Mysize = _Count;

  00171	c7 85 dc fb ff
	ff 06 00 00 00	 mov	 DWORD PTR _cmd$7[ebp+16], 6

; 122  :         _CSTD memmove(_First1, _First2, _Count * sizeof(_Elem));

  0017b	6a 06		 push	 6

; 2296 :         value_type* _Result = _Bx._Buf;

  0017d	8d b5 cc fb ff
	ff		 lea	 esi, DWORD PTR _cmd$7[ebp]

; 2297 :         if (_Large_string_engaged()) {

  00183	0f 43 b5 cc fb
	ff ff		 cmovae	 esi, DWORD PTR _cmd$7[ebp]

; 122  :         _CSTD memmove(_First1, _First2, _Count * sizeof(_Elem));

  0018a	68 00 00 00 00	 push	 OFFSET ??_C@_06MJINCFFA@LETTER@
  0018f	56		 push	 esi
  00190	e8 00 00 00 00	 call	 _memmove
  00195	83 c4 0c	 add	 esp, 12			; 0000000cH

; 3250 :             _Traits::assign(_Old_ptr[_Count], _Elem());

  00198	c6 46 06 00	 mov	 BYTE PTR [esi+6], 0

; 3251 :             return *this;

  0019c	e9 bc 00 00 00	 jmp	 $LN114@Create
$LN1001@Create:

; 4512 :         const size_type _Old_capacity = _Mypair._Myval2._Myres;

  001a1	8b cb		 mov	 ecx, ebx

; 4493 :         if (_Old > _Max - _Old / 2) { // similarly, geometric overflows

  001a3	b8 ff ff ff 7f	 mov	 eax, 2147483647		; 7fffffffH

; 4512 :         const size_type _Old_capacity = _Mypair._Myval2._Myres;

  001a8	d1 e9		 shr	 ecx, 1

; 4493 :         if (_Old > _Max - _Old / 2) { // similarly, geometric overflows

  001aa	2b c1		 sub	 eax, ecx
  001ac	3b d8		 cmp	 ebx, eax
  001ae	76 17		 jbe	 SHORT $LN120@Create

; 4494 :             return _Max;

  001b0	b8 00 00 00 80	 mov	 eax, -2147483648	; 80000000H
  001b5	be ff ff ff 7f	 mov	 esi, 2147483647		; 7fffffffH
; File C:\Program Files (x86)\Microsoft Visual Studio\2019\Professional\VC\Tools\MSVC\14.29.30133\include\xmemory

; 238  :             return _Allocate_manually_vector_aligned<_Traits>(_Bytes);

  001ba	50		 push	 eax
  001bb	e8 00 00 00 00	 call	 ??$_Allocate_manually_vector_aligned@U_Default_allocate_traits@std@@@std@@YAPAXI@Z ; std::_Allocate_manually_vector_aligned<std::_Default_allocate_traits>
  001c0	83 c4 04	 add	 esp, 4
  001c3	8b f8		 mov	 edi, eax
  001c5	eb 37		 jmp	 SHORT $LN126@Create
$LN120@Create:
; File C:\Program Files (x86)\Microsoft Visual Studio\2019\Professional\VC\Tools\MSVC\14.29.30133\include\xstring

; 4497 :         return (_STD max)(_Masked, _Old + _Old / 2);

  001c7	8d 04 0b	 lea	 eax, DWORD PTR [ebx+ecx]
  001ca	be 0f 00 00 00	 mov	 esi, 15			; 0000000fH
  001cf	3b c6		 cmp	 eax, esi
  001d1	0f 47 f0	 cmova	 esi, eax

; 4515 :         const pointer _New_ptr        = _Al.allocate(_New_capacity + 1); // throws

  001d4	8d 46 01	 lea	 eax, DWORD PTR [esi+1]
; File C:\Program Files (x86)\Microsoft Visual Studio\2019\Professional\VC\Tools\MSVC\14.29.30133\include\xmemory

; 237  :         if (_Bytes >= _Big_allocation_threshold) { // boost the alignment of big allocations to help autovectorization

  001d7	3d 00 10 00 00	 cmp	 eax, 4096		; 00001000H
  001dc	72 0d		 jb	 SHORT $LN127@Create

; 238  :             return _Allocate_manually_vector_aligned<_Traits>(_Bytes);

  001de	50		 push	 eax
  001df	e8 00 00 00 00	 call	 ??$_Allocate_manually_vector_aligned@U_Default_allocate_traits@std@@@std@@YAPAXI@Z ; std::_Allocate_manually_vector_aligned<std::_Default_allocate_traits>
  001e4	83 c4 04	 add	 esp, 4
  001e7	8b f8		 mov	 edi, eax
  001e9	eb 13		 jmp	 SHORT $LN126@Create
$LN127@Create:

; 239  :         }
; 240  :     }
; 241  : #endif // defined(_M_IX86) || defined(_M_X64)
; 242  : 
; 243  :     if (_Bytes != 0) {

  001eb	85 c0		 test	 eax, eax
  001ed	74 0d		 je	 SHORT $LN128@Create

; 85   :         return ::operator new(_Bytes);

  001ef	50		 push	 eax
  001f0	e8 00 00 00 00	 call	 ??2@YAPAXI@Z		; operator new
  001f5	83 c4 04	 add	 esp, 4

; 244  :         return _Traits::_Allocate(_Bytes);

  001f8	8b f8		 mov	 edi, eax
  001fa	eb 02		 jmp	 SHORT $LN126@Create
$LN128@Create:

; 245  :     }
; 246  : 
; 247  :     return nullptr;

  001fc	33 ff		 xor	 edi, edi
$LN126@Create:
; File C:\Program Files (x86)\Microsoft Visual Studio\2019\Professional\VC\Tools\MSVC\14.29.30133\include\xstring

; 65   :         _CSTD memcpy(_First1, _First2, _Count * sizeof(_Elem));

  001fe	a1 00 00 00 00	 mov	 eax, DWORD PTR ??_C@_06MJINCFFA@LETTER@

; 4523 :         _Mypair._Myval2._Mysize = _New_size;

  00203	c7 85 dc fb ff
	ff 06 00 00 00	 mov	 DWORD PTR _cmd$7[ebp+16], 6

; 4524 :         _Mypair._Myval2._Myres  = _New_capacity;

  0020d	89 b5 e0 fb ff
	ff		 mov	 DWORD PTR _cmd$7[ebp+20], esi

; 65   :         _CSTD memcpy(_First1, _First2, _Count * sizeof(_Elem));

  00213	89 07		 mov	 DWORD PTR [edi], eax
  00215	66 a1 04 00 00
	00		 mov	 ax, WORD PTR ??_C@_06MJINCFFA@LETTER@+4
  0021b	66 89 47 04	 mov	 WORD PTR [edi+4], ax

; 3258 :                 _Traits::assign(_New_ptr[_Count], _Elem());

  0021f	c6 47 06 00	 mov	 BYTE PTR [edi+6], 0

; 4526 :         if (_BUF_SIZE <= _Old_capacity) {

  00223	83 fb 10	 cmp	 ebx, 16			; 00000010H
  00226	72 2f		 jb	 SHORT $LN113@Create
; File C:\Program Files (x86)\Microsoft Visual Studio\2019\Professional\VC\Tools\MSVC\14.29.30133\include\xmemory

; 835  :         _Deallocate<_New_alignof<_Ty>>(_Ptr, sizeof(_Ty) * _Count);

  00228	8b 8d cc fb ff
	ff		 mov	 ecx, DWORD PTR _cmd$7[ebp]
; File C:\Program Files (x86)\Microsoft Visual Studio\2019\Professional\VC\Tools\MSVC\14.29.30133\include\xstring

; 4527 :             _Al.deallocate(_Mypair._Myval2._Bx._Ptr, _Old_capacity + 1);

  0022e	43		 inc	 ebx
; File C:\Program Files (x86)\Microsoft Visual Studio\2019\Professional\VC\Tools\MSVC\14.29.30133\include\xmemory

; 835  :         _Deallocate<_New_alignof<_Ty>>(_Ptr, sizeof(_Ty) * _Count);

  0022f	8b c1		 mov	 eax, ecx

; 260  :         if (_Bytes >= _Big_allocation_threshold) { // boost the alignment of big allocations to help autovectorization

  00231	81 fb 00 10 00
	00		 cmp	 ebx, 4096		; 00001000H
  00237	72 14		 jb	 SHORT $LN150@Create

; 158  :     const uintptr_t _Ptr_container   = _Ptr_user[-1];

  00239	8b 49 fc	 mov	 ecx, DWORD PTR [ecx-4]
  0023c	83 c3 23	 add	 ebx, 35			; 00000023H
  0023f	2b c1		 sub	 eax, ecx

; 159  : 
; 160  :     // If the following asserts, it likely means that we are performing
; 161  :     // an aligned delete on memory coming from an unaligned allocation.
; 162  :     _STL_ASSERT(_Ptr_user[-2] == _Big_allocation_sentinel, "invalid argument");
; 163  : 
; 164  :     // Extra paranoia on aligned allocation/deallocation; ensure _Ptr_container is
; 165  :     // in range [_Min_back_shift, _Non_user_size]
; 166  : #ifdef _DEBUG
; 167  :     constexpr uintptr_t _Min_back_shift = 2 * sizeof(void*);
; 168  : #else // ^^^ _DEBUG ^^^ // vvv !_DEBUG vvv
; 169  :     constexpr uintptr_t _Min_back_shift = sizeof(void*);
; 170  : #endif // _DEBUG
; 171  :     const uintptr_t _Back_shift = reinterpret_cast<uintptr_t>(_Ptr) - _Ptr_container;
; 172  :     _STL_VERIFY(_Back_shift >= _Min_back_shift && _Back_shift <= _Non_user_size, "invalid argument");

  00241	83 c0 fc	 add	 eax, -4			; fffffffcH
  00244	83 f8 1f	 cmp	 eax, 31			; 0000001fH
  00247	0f 87 83 09 00
	00		 ja	 $LN921@Create
$LN150@Create:

; 264  :         ::operator delete(_Ptr, _Bytes);

  0024d	53		 push	 ebx
  0024e	51		 push	 ecx
  0024f	e8 00 00 00 00	 call	 ??3@YAXPAXI@Z		; operator delete
  00254	83 c4 08	 add	 esp, 8
$LN113@Create:
; File C:\Program Files (x86)\Microsoft Visual Studio\2019\Professional\VC\Tools\MSVC\14.29.30133\include\xstring

; 4610 :             _My_data._Myres = _BUF_SIZE - 1;

  00257	89 bd cc fb ff
	ff		 mov	 DWORD PTR _cmd$7[ebp], edi
$LN114@Create:

; 122  :         _CSTD memmove(_First1, _First2, _Count * sizeof(_Elem));

  0025d	a0 04 00 00 00	 mov	 al, BYTE PTR ??_C@_05MFEJDJP@value@+4

; 4610 :             _My_data._Myres = _BUF_SIZE - 1;

  00262	ba 0f 00 00 00	 mov	 edx, 15			; 0000000fH

; 122  :         _CSTD memmove(_First1, _First2, _Count * sizeof(_Elem));

  00267	8b 0d 00 00 00
	00		 mov	 ecx, DWORD PTR ??_C@_05MFEJDJP@value@

; 3248 :             _Mypair._Myval2._Mysize = _Count;

  0026d	be 05 00 00 00	 mov	 esi, 5

; 4610 :             _My_data._Myres = _BUF_SIZE - 1;

  00272	89 95 98 fb ff
	ff		 mov	 DWORD PTR $T4[ebp+20], edx

; 3248 :             _Mypair._Myval2._Mysize = _Count;

  00278	89 b5 94 fb ff
	ff		 mov	 DWORD PTR $T4[ebp+16], esi

; 122  :         _CSTD memmove(_First1, _First2, _Count * sizeof(_Elem));

  0027e	89 8d 84 fb ff
	ff		 mov	 DWORD PTR $T4[ebp], ecx
  00284	88 85 88 fb ff
	ff		 mov	 BYTE PTR $T4[ebp+4], al

; 3250 :             _Traits::assign(_Old_ptr[_Count], _Elem());

  0028a	c6 85 89 fb ff
	ff 00		 mov	 BYTE PTR $T4[ebp+5], 0

; 2346 :         _CONSTEXPR20_CONTAINER _Bxty() noexcept : _Ptr() {} // user-provided, for fancy pointers

  00291	c7 85 9c fb ff
	ff 00 00 00 00	 mov	 DWORD PTR $T6[ebp], 0

; 4596 :         _My_data._Mysize = 0;

  0029b	c7 85 ac fb ff
	ff 00 00 00 00	 mov	 DWORD PTR $T6[ebp+16], 0

; 4610 :             _My_data._Myres = _BUF_SIZE - 1;

  002a5	89 95 b0 fb ff
	ff		 mov	 DWORD PTR $T6[ebp+20], edx

; 4611 :             // the _Traits::assign is last so the codegen doesn't think the char write can alias this
; 4612 :             _Traits::assign(_My_data._Bx._Buf[0], _Elem());

  002ab	c6 85 9c fb ff
	ff 00		 mov	 BYTE PTR $T6[ebp], 0

; 4610 :             _My_data._Myres = _BUF_SIZE - 1;

  002b2	8b da		 mov	 ebx, edx

; 2346 :         _CONSTEXPR20_CONTAINER _Bxty() noexcept : _Ptr() {} // user-provided, for fancy pointers

  002b4	c7 85 b4 fb ff
	ff 00 00 00 00	 mov	 DWORD PTR $T6[ebp+24], 0

; 4596 :         _My_data._Mysize = 0;

  002be	c7 85 c4 fb ff
	ff 00 00 00 00	 mov	 DWORD PTR $T6[ebp+40], 0

; 4610 :             _My_data._Myres = _BUF_SIZE - 1;

  002c8	89 9d c8 fb ff
	ff		 mov	 DWORD PTR $T6[ebp+44], ebx

; 4611 :             // the _Traits::assign is last so the codegen doesn't think the char write can alias this
; 4612 :             _Traits::assign(_My_data._Bx._Buf[0], _Elem());

  002ce	c6 85 b4 fb ff
	ff 00		 mov	 BYTE PTR $T6[ebp+24], 0

; 2305 :         const value_type* _Result = _Bx._Buf;

  002d5	8d 85 84 fb ff
	ff		 lea	 eax, DWORD PTR $T4[ebp]
; File C:\Users\murat\Desktop\Siveps2-1-99-Project\source\client\Client\EterLib\parser.h

; 11   :         SArgumet(const std::string& c_stName, const std::string& c_stValue)

  002db	c6 45 fc 04	 mov	 BYTE PTR __$EHRec$[ebp+8], 4
; File C:\Program Files (x86)\Microsoft Visual Studio\2019\Professional\VC\Tools\MSVC\14.29.30133\include\xstring

; 122  :         _CSTD memmove(_First1, _First2, _Count * sizeof(_Elem));

  002df	56		 push	 esi
  002e0	50		 push	 eax
  002e1	8d 85 9c fb ff
	ff		 lea	 eax, DWORD PTR $T6[ebp]

; 3248 :             _Mypair._Myval2._Mysize = _Count;

  002e7	89 b5 ac fb ff
	ff		 mov	 DWORD PTR $T6[ebp+16], esi

; 122  :         _CSTD memmove(_First1, _First2, _Count * sizeof(_Elem));

  002ed	50		 push	 eax
  002ee	e8 00 00 00 00	 call	 _memmove

; 3250 :             _Traits::assign(_Old_ptr[_Count], _Elem());

  002f3	c6 84 35 9c fb
	ff ff 00	 mov	 BYTE PTR $T6[ebp+esi], 0

; 122  :         _CSTD memmove(_First1, _First2, _Count * sizeof(_Elem));

  002fb	83 c4 0c	 add	 esp, 12			; 0000000cH

; 2306 :         if (_Large_string_engaged()) {

  002fe	83 3d 14 00 00
	00 10		 cmp	 DWORD PTR ?stLetter@?1??Create@Group@script@@QAE_NABV?$basic_string@DU?$char_traits@D@std@@V?$allocator@D@2@@std@@@Z@4V45@A+20, 16 ; 00000010H
  00305	b8 00 00 00 00	 mov	 eax, OFFSET ?stLetter@?1??Create@Group@script@@QAE_NABV?$basic_string@DU?$char_traits@D@std@@V?$allocator@D@2@@std@@@Z@4V45@A

; 3251 :             return *this;

  0030a	8b 9d c8 fb ff
	ff		 mov	 ebx, DWORD PTR $T6[ebp+44]

; 2306 :         if (_Large_string_engaged()) {

  00310	0f 43 05 00 00
	00 00		 cmovae	 eax, DWORD PTR ?stLetter@?1??Create@Group@script@@QAE_NABV?$basic_string@DU?$char_traits@D@std@@V?$allocator@D@2@@std@@@Z@4V45@A

; 3035 :         assign(_Right._Mypair._Myval2._Myptr(), _Right._Mypair._Myval2._Mysize);

  00317	8b 3d 10 00 00
	00		 mov	 edi, DWORD PTR ?stLetter@?1??Create@Group@script@@QAE_NABV?$basic_string@DU?$char_traits@D@std@@V?$allocator@D@2@@std@@@Z@4V45@A+16

; 3251 :             return *this;

  0031d	89 9d 68 fb ff
	ff		 mov	 DWORD PTR __Old_capacity$1$[ebp], ebx

; 2306 :         if (_Large_string_engaged()) {

  00323	89 85 6c fb ff
	ff		 mov	 DWORD PTR __Result$2$[ebp], eax

; 3035 :         assign(_Right._Mypair._Myval2._Myptr(), _Right._Mypair._Myval2._Mysize);

  00329	3b fb		 cmp	 edi, ebx

; 3246 :         if (_Count <= _Mypair._Myval2._Myres) {

  0032b	77 2a		 ja	 SHORT $LN336@Create

; 2297 :         if (_Large_string_engaged()) {

  0032d	83 fb 10	 cmp	 ebx, 16			; 00000010H

; 3248 :             _Mypair._Myval2._Mysize = _Count;

  00330	89 bd c4 fb ff
	ff		 mov	 DWORD PTR $T6[ebp+40], edi
  00336	57		 push	 edi

; 2296 :         value_type* _Result = _Bx._Buf;

  00337	8d b5 b4 fb ff
	ff		 lea	 esi, DWORD PTR $T6[ebp+24]

; 2297 :         if (_Large_string_engaged()) {

  0033d	0f 43 b5 b4 fb
	ff ff		 cmovae	 esi, DWORD PTR $T6[ebp+24]

; 122  :         _CSTD memmove(_First1, _First2, _Count * sizeof(_Elem));

  00344	50		 push	 eax
  00345	56		 push	 esi
  00346	e8 00 00 00 00	 call	 _memmove
  0034b	83 c4 0c	 add	 esp, 12			; 0000000cH

; 3250 :             _Traits::assign(_Old_ptr[_Count], _Elem());

  0034e	c6 04 3e 00	 mov	 BYTE PTR [esi+edi], 0

; 3251 :             return *this;

  00352	e9 ea 00 00 00	 jmp	 $LN348@Create
$LN336@Create:

; 4508 :         if (_New_size > max_size()) {

  00357	81 ff ff ff ff
	7f		 cmp	 edi, 2147483647		; 7fffffffH
  0035d	0f 87 63 08 00
	00		 ja	 $LN990@Create

; 4510 :         }
; 4511 : 
; 4512 :         const size_type _Old_capacity = _Mypair._Myval2._Myres;

  00363	8b f7		 mov	 esi, edi
  00365	83 ce 0f	 or	 esi, 15			; 0000000fH

; 4488 :         const size_type _Masked = _Requested | _ALLOC_MASK;

  00368	81 fe ff ff ff
	7f		 cmp	 esi, 2147483647		; 7fffffffH

; 4489 :         if (_Masked > _Max) { // the mask overflows, settle for max_size()

  0036e	76 17		 jbe	 SHORT $LN353@Create

; 4490 :             return _Max;

  00370	b8 00 00 00 80	 mov	 eax, -2147483648	; 80000000H
  00375	be ff ff ff 7f	 mov	 esi, 2147483647		; 7fffffffH
; File C:\Program Files (x86)\Microsoft Visual Studio\2019\Professional\VC\Tools\MSVC\14.29.30133\include\xmemory

; 238  :             return _Allocate_manually_vector_aligned<_Traits>(_Bytes);

  0037a	50		 push	 eax
  0037b	e8 00 00 00 00	 call	 ??$_Allocate_manually_vector_aligned@U_Default_allocate_traits@std@@@std@@YAPAXI@Z ; std::_Allocate_manually_vector_aligned<std::_Default_allocate_traits>
  00380	83 c4 04	 add	 esp, 4
  00383	8b d8		 mov	 ebx, eax
  00385	eb 58		 jmp	 SHORT $LN360@Create
$LN353@Create:
; File C:\Program Files (x86)\Microsoft Visual Studio\2019\Professional\VC\Tools\MSVC\14.29.30133\include\xstring

; 4493 :         if (_Old > _Max - _Old / 2) { // similarly, geometric overflows

  00387	8b cb		 mov	 ecx, ebx
  00389	b8 ff ff ff 7f	 mov	 eax, 2147483647		; 7fffffffH
  0038e	d1 e9		 shr	 ecx, 1
  00390	2b c1		 sub	 eax, ecx
  00392	3b d8		 cmp	 ebx, eax
  00394	76 17		 jbe	 SHORT $LN354@Create

; 4494 :             return _Max;

  00396	b8 00 00 00 80	 mov	 eax, -2147483648	; 80000000H
  0039b	be ff ff ff 7f	 mov	 esi, 2147483647		; 7fffffffH
; File C:\Program Files (x86)\Microsoft Visual Studio\2019\Professional\VC\Tools\MSVC\14.29.30133\include\xmemory

; 238  :             return _Allocate_manually_vector_aligned<_Traits>(_Bytes);

  003a0	50		 push	 eax
  003a1	e8 00 00 00 00	 call	 ??$_Allocate_manually_vector_aligned@U_Default_allocate_traits@std@@@std@@YAPAXI@Z ; std::_Allocate_manually_vector_aligned<std::_Default_allocate_traits>
  003a6	83 c4 04	 add	 esp, 4
  003a9	8b d8		 mov	 ebx, eax
  003ab	eb 32		 jmp	 SHORT $LN360@Create
$LN354@Create:
; File C:\Program Files (x86)\Microsoft Visual Studio\2019\Professional\VC\Tools\MSVC\14.29.30133\include\xstring

; 4497 :         return (_STD max)(_Masked, _Old + _Old / 2);

  003ad	8d 04 0b	 lea	 eax, DWORD PTR [ebx+ecx]
  003b0	3b f0		 cmp	 esi, eax
  003b2	0f 42 f0	 cmovb	 esi, eax

; 4515 :         const pointer _New_ptr        = _Al.allocate(_New_capacity + 1); // throws

  003b5	8d 46 01	 lea	 eax, DWORD PTR [esi+1]
; File C:\Program Files (x86)\Microsoft Visual Studio\2019\Professional\VC\Tools\MSVC\14.29.30133\include\xmemory

; 237  :         if (_Bytes >= _Big_allocation_threshold) { // boost the alignment of big allocations to help autovectorization

  003b8	3d 00 10 00 00	 cmp	 eax, 4096		; 00001000H
  003bd	72 0d		 jb	 SHORT $LN361@Create

; 238  :             return _Allocate_manually_vector_aligned<_Traits>(_Bytes);

  003bf	50		 push	 eax
  003c0	e8 00 00 00 00	 call	 ??$_Allocate_manually_vector_aligned@U_Default_allocate_traits@std@@@std@@YAPAXI@Z ; std::_Allocate_manually_vector_aligned<std::_Default_allocate_traits>
  003c5	83 c4 04	 add	 esp, 4
  003c8	8b d8		 mov	 ebx, eax
  003ca	eb 13		 jmp	 SHORT $LN360@Create
$LN361@Create:

; 239  :         }
; 240  :     }
; 241  : #endif // defined(_M_IX86) || defined(_M_X64)
; 242  : 
; 243  :     if (_Bytes != 0) {

  003cc	85 c0		 test	 eax, eax
  003ce	74 0d		 je	 SHORT $LN362@Create

; 85   :         return ::operator new(_Bytes);

  003d0	50		 push	 eax
  003d1	e8 00 00 00 00	 call	 ??2@YAPAXI@Z		; operator new
  003d6	83 c4 04	 add	 esp, 4

; 244  :         return _Traits::_Allocate(_Bytes);

  003d9	8b d8		 mov	 ebx, eax
  003db	eb 02		 jmp	 SHORT $LN360@Create
$LN362@Create:

; 245  :     }
; 246  : 
; 247  :     return nullptr;

  003dd	33 db		 xor	 ebx, ebx
$LN360@Create:
; File C:\Program Files (x86)\Microsoft Visual Studio\2019\Professional\VC\Tools\MSVC\14.29.30133\include\xstring

; 65   :         _CSTD memcpy(_First1, _First2, _Count * sizeof(_Elem));

  003df	57		 push	 edi
  003e0	ff b5 6c fb ff
	ff		 push	 DWORD PTR __Result$2$[ebp]

; 4523 :         _Mypair._Myval2._Mysize = _New_size;

  003e6	89 bd c4 fb ff
	ff		 mov	 DWORD PTR $T6[ebp+40], edi

; 65   :         _CSTD memcpy(_First1, _First2, _Count * sizeof(_Elem));

  003ec	53		 push	 ebx

; 4524 :         _Mypair._Myval2._Myres  = _New_capacity;

  003ed	89 b5 c8 fb ff
	ff		 mov	 DWORD PTR $T6[ebp+44], esi

; 65   :         _CSTD memcpy(_First1, _First2, _Count * sizeof(_Elem));

  003f3	e8 00 00 00 00	 call	 _memcpy

; 4526 :         if (_BUF_SIZE <= _Old_capacity) {

  003f8	8b 85 68 fb ff
	ff		 mov	 eax, DWORD PTR __Old_capacity$1$[ebp]

; 65   :         _CSTD memcpy(_First1, _First2, _Count * sizeof(_Elem));

  003fe	83 c4 0c	 add	 esp, 12			; 0000000cH

; 3258 :                 _Traits::assign(_New_ptr[_Count], _Elem());

  00401	c6 04 3b 00	 mov	 BYTE PTR [ebx+edi], 0

; 4526 :         if (_BUF_SIZE <= _Old_capacity) {

  00405	83 f8 10	 cmp	 eax, 16			; 00000010H
  00408	72 31		 jb	 SHORT $LN347@Create
; File C:\Program Files (x86)\Microsoft Visual Studio\2019\Professional\VC\Tools\MSVC\14.29.30133\include\xmemory

; 835  :         _Deallocate<_New_alignof<_Ty>>(_Ptr, sizeof(_Ty) * _Count);

  0040a	8b 8d b4 fb ff
	ff		 mov	 ecx, DWORD PTR $T6[ebp+24]
; File C:\Program Files (x86)\Microsoft Visual Studio\2019\Professional\VC\Tools\MSVC\14.29.30133\include\xstring

; 4527 :             _Al.deallocate(_Mypair._Myval2._Bx._Ptr, _Old_capacity + 1);

  00410	8d 50 01	 lea	 edx, DWORD PTR [eax+1]
; File C:\Program Files (x86)\Microsoft Visual Studio\2019\Professional\VC\Tools\MSVC\14.29.30133\include\xmemory

; 835  :         _Deallocate<_New_alignof<_Ty>>(_Ptr, sizeof(_Ty) * _Count);

  00413	8b c1		 mov	 eax, ecx

; 260  :         if (_Bytes >= _Big_allocation_threshold) { // boost the alignment of big allocations to help autovectorization

  00415	81 fa 00 10 00
	00		 cmp	 edx, 4096		; 00001000H
  0041b	72 14		 jb	 SHORT $LN384@Create

; 158  :     const uintptr_t _Ptr_container   = _Ptr_user[-1];

  0041d	8b 49 fc	 mov	 ecx, DWORD PTR [ecx-4]
  00420	83 c2 23	 add	 edx, 35			; 00000023H
  00423	2b c1		 sub	 eax, ecx

; 159  : 
; 160  :     // If the following asserts, it likely means that we are performing
; 161  :     // an aligned delete on memory coming from an unaligned allocation.
; 162  :     _STL_ASSERT(_Ptr_user[-2] == _Big_allocation_sentinel, "invalid argument");
; 163  : 
; 164  :     // Extra paranoia on aligned allocation/deallocation; ensure _Ptr_container is
; 165  :     // in range [_Min_back_shift, _Non_user_size]
; 166  : #ifdef _DEBUG
; 167  :     constexpr uintptr_t _Min_back_shift = 2 * sizeof(void*);
; 168  : #else // ^^^ _DEBUG ^^^ // vvv !_DEBUG vvv
; 169  :     constexpr uintptr_t _Min_back_shift = sizeof(void*);
; 170  : #endif // _DEBUG
; 171  :     const uintptr_t _Back_shift = reinterpret_cast<uintptr_t>(_Ptr) - _Ptr_container;
; 172  :     _STL_VERIFY(_Back_shift >= _Min_back_shift && _Back_shift <= _Non_user_size, "invalid argument");

  00425	83 c0 fc	 add	 eax, -4			; fffffffcH
  00428	83 f8 1f	 cmp	 eax, 31			; 0000001fH
  0042b	0f 87 9f 07 00
	00		 ja	 $LN921@Create
$LN384@Create:

; 264  :         ::operator delete(_Ptr, _Bytes);

  00431	52		 push	 edx
  00432	51		 push	 ecx
  00433	e8 00 00 00 00	 call	 ??3@YAXPAXI@Z		; operator delete
  00438	83 c4 08	 add	 esp, 8
$LN347@Create:
; File C:\Users\murat\Desktop\Siveps2-1-99-Project\source\client\Client\EterLib\parser.cpp

; 316  : 				cmd.argList.push_back(TArg("value", stLetter));

  0043b	89 9d b4 fb ff
	ff		 mov	 DWORD PTR $T6[ebp+24], ebx
$LN348@Create:
; File C:\Program Files (x86)\Microsoft Visual Studio\2019\Professional\VC\Tools\MSVC\14.29.30133\include\list

; 1014 :         if (_Mysize == max_size()) {

  00441	81 bd e8 fb ff
	ff 24 49 92 04	 cmp	 DWORD PTR _cmd$7[ebp+28], 76695844 ; 04924924H

; 973  :         _Emplace(_Mypair._Myval2._Myhead, _STD move(_Val));

  0044b	8b bd e4 fb ff
	ff		 mov	 edi, DWORD PTR _cmd$7[ebp+24]
; File C:\Users\murat\Desktop\Siveps2-1-99-Project\source\client\Client\EterLib\parser.cpp

; 316  : 				cmd.argList.push_back(TArg("value", stLetter));

  00451	c6 45 fc 05	 mov	 BYTE PTR __$EHRec$[ebp+8], 5
; File C:\Program Files (x86)\Microsoft Visual Studio\2019\Professional\VC\Tools\MSVC\14.29.30133\include\list

; 1014 :         if (_Mysize == max_size()) {

  00455	0f 84 61 07 00
	00		 je	 $LN991@Create
; File C:\Program Files (x86)\Microsoft Visual Studio\2019\Professional\VC\Tools\MSVC\14.29.30133\include\xmemory

; 1012 :     _CONSTEXPR20_DYNALLOC explicit _Alloc_construct_ptr(_Alloc& _Al_) : _Al(_Al_), _Ptr(nullptr) {}

  0045b	8d 85 e4 fb ff
	ff		 lea	 eax, DWORD PTR _cmd$7[ebp+24]
  00461	89 85 54 fb ff
	ff		 mov	 DWORD PTR __Op$2[ebp], eax

; 85   :         return ::operator new(_Bytes);

  00467	6a 38		 push	 56			; 00000038H
; File C:\Program Files (x86)\Microsoft Visual Studio\2019\Professional\VC\Tools\MSVC\14.29.30133\include\list

; 589  :     explicit _List_node_emplace_op2(_Alnode& _Al_, _Valtys&&... _Vals) : _Alloc_construct_ptr<_Alnode>(_Al_) {

  00469	c6 45 fc 06	 mov	 BYTE PTR __$EHRec$[ebp+8], 6
; File C:\Program Files (x86)\Microsoft Visual Studio\2019\Professional\VC\Tools\MSVC\14.29.30133\include\xmemory

; 1019 :         _Ptr = nullptr; // if allocate throws, prevents double-free

  0046d	c7 85 58 fb ff
	ff 00 00 00 00	 mov	 DWORD PTR __Op$2[ebp+4], 0

; 85   :         return ::operator new(_Bytes);

  00477	e8 00 00 00 00	 call	 ??2@YAPAXI@Z		; operator new

; 244  :         return _Traits::_Allocate(_Bytes);

  0047c	8b f0		 mov	 esi, eax

; 85   :         return ::operator new(_Bytes);

  0047e	83 c4 04	 add	 esp, 4

; 714  :             ::new (_Voidify_iter(_Ptr)) _Objty(_STD forward<_Types>(_Args)...);

  00481	8d 85 9c fb ff
	ff		 lea	 eax, DWORD PTR $T6[ebp]

; 1020 :         _Ptr = _Al.allocate(1);

  00487	89 b5 58 fb ff
	ff		 mov	 DWORD PTR __Op$2[ebp+4], esi
  0048d	8d 4e 08	 lea	 ecx, DWORD PTR [esi+8]

; 714  :             ::new (_Voidify_iter(_Ptr)) _Objty(_STD forward<_Types>(_Args)...);

  00490	50		 push	 eax
  00491	e8 00 00 00 00	 call	 ??0SArgumet@script@@QAE@ABU01@@Z ; script::SArgumet::SArgumet
