; Listing generated by Microsoft (R) Optimizing Compiler Version 19.29.30137.0 

	TITLE	C:\Users\murat\Desktop\Siveps2-1-99-Project\source\client\Client\EterLib\Distribute\ResourceManager.obj
	.686P
	.XMM
	include listing.inc
	.model	flat

INCLUDELIB LIBCMT
INCLUDELIB OLDNAMES

PUBLIC	?m_totalKB@FDumpPrint@@2MA			; FDumpPrint::m_totalKB
PUBLIC	?g_iLoadingDelayTime@@3HA			; g_iLoadingDelayTime
_BSS	SEGMENT
?m_totalKB@FDumpPrint@@2MA DD 01H DUP (?)		; FDumpPrint::m_totalKB
_BSS	ENDS
_DATA	SEGMENT
?g_iLoadingDelayTime@@3HA DD 014H			; g_iLoadingDelayTime
_DATA	ENDS
CONST	SEGMENT
?piecewise_construct@std@@3Upiecewise_construct_t@1@B	ORG $+1 ; std::piecewise_construct
?_Fake_alloc@std@@3U_Fake_allocator@1@B	ORG $+1		; std::_Fake_alloc
CONST	ENDS
PUBLIC	___local_stdio_printf_options
PUBLIC	_fprintf
PUBLIC	??0exception@std@@QAE@ABV01@@Z			; std::exception::exception
PUBLIC	??1exception@std@@UAE@XZ			; std::exception::~exception
PUBLIC	?what@exception@std@@UBEPBDXZ			; std::exception::what
PUBLIC	??_Gexception@std@@UAEPAXI@Z			; std::exception::`scalar deleting destructor'
PUBLIC	??0bad_alloc@std@@QAE@ABV01@@Z			; std::bad_alloc::bad_alloc
PUBLIC	??_Gbad_alloc@std@@UAEPAXI@Z			; std::bad_alloc::`scalar deleting destructor'
PUBLIC	??0bad_array_new_length@std@@QAE@XZ		; std::bad_array_new_length::bad_array_new_length
PUBLIC	??1bad_array_new_length@std@@UAE@XZ		; std::bad_array_new_length::~bad_array_new_length
PUBLIC	??0bad_array_new_length@std@@QAE@ABV01@@Z	; std::bad_array_new_length::bad_array_new_length
PUBLIC	??_Gbad_array_new_length@std@@UAEPAXI@Z		; std::bad_array_new_length::`scalar deleting destructor'
PUBLIC	?_Throw_bad_array_new_length@std@@YAXXZ		; std::_Throw_bad_array_new_length
PUBLIC	?_Xlen_string@std@@YAXXZ			; std::_Xlen_string
PUBLIC	??0?$basic_string@DU?$char_traits@D@std@@V?$allocator@D@2@@std@@QAE@ABV01@@Z ; std::basic_string<char,std::char_traits<char>,std::allocator<char> >::basic_string<char,std::char_traits<char>,std::allocator<char> >
PUBLIC	??1?$basic_string@DU?$char_traits@D@std@@V?$allocator@D@2@@std@@QAE@XZ ; std::basic_string<char,std::char_traits<char>,std::allocator<char> >::~basic_string<char,std::char_traits<char>,std::allocator<char> >
PUBLIC	?assign@?$basic_string@DU?$char_traits@D@std@@V?$allocator@D@2@@std@@QAEAAV12@QBDI@Z ; std::basic_string<char,std::char_traits<char>,std::allocator<char> >::assign
PUBLIC	?_Throw_tree_length_error@std@@YAXXZ		; std::_Throw_tree_length_error
PUBLIC	??$_Traits_compare@U?$char_traits@D@std@@@std@@YAHQBDI0I@Z ; std::_Traits_compare<std::char_traits<char> >
PUBLIC	??$_Allocate_manually_vector_aligned@U_Default_allocate_traits@std@@@std@@YAPAXI@Z ; std::_Allocate_manually_vector_aligned<std::_Default_allocate_traits>
PUBLIC	??1?$CSingleton@VCResourceManager@@@@UAE@XZ	; CSingleton<CResourceManager>::~CSingleton<CResourceManager>
PUBLIC	??_G?$CSingleton@VCResourceManager@@@@UAEPAXI@Z	; CSingleton<CResourceManager>::`scalar deleting destructor'
PUBLIC	??0CResourceManager@@QAE@XZ			; CResourceManager::CResourceManager
PUBLIC	??1CResourceManager@@UAE@XZ			; CResourceManager::~CResourceManager
PUBLIC	?LoadStaticCache@CResourceManager@@QAEXPBD@Z	; CResourceManager::LoadStaticCache
PUBLIC	?DestroyDeletingList@CResourceManager@@QAEXXZ	; CResourceManager::DestroyDeletingList
PUBLIC	?Destroy@CResourceManager@@QAEXXZ		; CResourceManager::Destroy
PUBLIC	?InsertResourcePointer@CResourceManager@@QAEPAVCResource@@KPAV2@@Z ; CResourceManager::InsertResourcePointer
PUBLIC	?FindResourcePointer@CResourceManager@@QAEPAVCResource@@K@Z ; CResourceManager::FindResourcePointer
PUBLIC	?GetResourcePointer@CResourceManager@@QAEPAVCResource@@PBD@Z ; CResourceManager::GetResourcePointer
PUBLIC	?GetTypeResourcePointer@CResourceManager@@QAEPAVCResource@@PBDH@Z ; CResourceManager::GetTypeResourcePointer
PUBLIC	?isResourcePointerData@CResourceManager@@QAE_NK@Z ; CResourceManager::isResourcePointerData
PUBLIC	?RegisterResourceNewFunctionPointer@CResourceManager@@QAEXPBDP6APAVCResource@@0@Z@Z ; CResourceManager::RegisterResourceNewFunctionPointer
PUBLIC	?RegisterResourceNewFunctionByTypePointer@CResourceManager@@QAEXHP6APAVCResource@@PBD@Z@Z ; CResourceManager::RegisterResourceNewFunctionByTypePointer
PUBLIC	?DumpFileListToTextFile@CResourceManager@@QAEXPBD@Z ; CResourceManager::DumpFileListToTextFile
PUBLIC	?IsFileExist@CResourceManager@@QAE_NPBD@Z	; CResourceManager::IsFileExist
PUBLIC	?Update@CResourceManager@@QAEXXZ		; CResourceManager::Update
PUBLIC	?ReserveDeletingResource@CResourceManager@@QAEXPAVCResource@@@Z ; CResourceManager::ReserveDeletingResource
PUBLIC	?ProcessBackgroundLoading@CResourceManager@@QAEXXZ ; CResourceManager::ProcessBackgroundLoading
PUBLIC	?PushBackgroundLoadingSet@CResourceManager@@QAEXAAV?$set@V?$basic_string@DU?$char_traits@D@std@@V?$allocator@D@2@@std@@U?$less@V?$basic_string@DU?$char_traits@D@std@@V?$allocator@D@2@@std@@@2@V?$allocator@V?$basic_string@DU?$char_traits@D@std@@V?$allocator@D@2@@std@@@2@@std@@@Z ; CResourceManager::PushBackgroundLoadingSet
PUBLIC	?__DestroyDeletingResourceMap@CResourceManager@@IAEXXZ ; CResourceManager::__DestroyDeletingResourceMap
PUBLIC	?__DestroyResourceMap@CResourceManager@@IAEXXZ	; CResourceManager::__DestroyResourceMap
PUBLIC	?__DestroyCacheMap@CResourceManager@@IAEXXZ	; CResourceManager::__DestroyCacheMap
PUBLIC	?__GetFileCRC@CResourceManager@@IAEKPBDPAPBD@Z	; CResourceManager::__GetFileCRC
PUBLIC	??1?$_Tree@V?$_Tmap_traits@KPAVCResource@@U?$less@K@std@@V?$allocator@U?$pair@$$CBKPAVCResource@@@std@@@3@$0A@@std@@@std@@QAE@XZ ; std::_Tree<std::_Tmap_traits<unsigned long,CResource *,std::less<unsigned long>,std::allocator<std::pair<unsigned long const ,CResource *> >,0> >::~_Tree<std::_Tmap_traits<unsigned long,CResource *,std::less<unsigned long>,std::allocator<std::pair<unsigned long const ,CResource *> >,0> >
PUBLIC	?clear@?$_Tree@V?$_Tmap_traits@KPAVCResource@@U?$less@K@std@@V?$allocator@U?$pair@$$CBKPAVCResource@@@std@@@3@$0A@@std@@@std@@QAEXXZ ; std::_Tree<std::_Tmap_traits<unsigned long,CResource *,std::less<unsigned long>,std::allocator<std::pair<unsigned long const ,CResource *> >,0> >::clear
PUBLIC	?_Insert_node@?$_Tree_val@U?$_Tree_simple_types@U?$pair@$$CBKPAVCResource@@@std@@@std@@@std@@QAEPAU?$_Tree_node@U?$pair@$$CBKPAVCResource@@@std@@PAX@2@U?$_Tree_id@PAU?$_Tree_node@U?$pair@$$CBKPAVCResource@@@std@@PAX@std@@@2@QAU32@@Z ; std::_Tree_val<std::_Tree_simple_types<std::pair<unsigned long const ,CResource *> > >::_Insert_node
PUBLIC	??1?$map@KPAVCResource@@U?$less@K@std@@V?$allocator@U?$pair@$$CBKPAVCResource@@@std@@@3@@std@@QAE@XZ ; std::map<unsigned long,CResource *,std::less<unsigned long>,std::allocator<std::pair<unsigned long const ,CResource *> > >::~map<unsigned long,CResource *,std::less<unsigned long>,std::allocator<std::pair<unsigned long const ,CResource *> > >
PUBLIC	?find@?$_Tree@V?$_Tmap_traits@V?$basic_string@DU?$char_traits@D@std@@V?$allocator@D@2@@std@@P6APAVCResource@@PBD@ZU?$less@V?$basic_string@DU?$char_traits@D@std@@V?$allocator@D@2@@std@@@2@V?$allocator@U?$pair@$$CBV?$basic_string@DU?$char_traits@D@std@@V?$allocator@D@2@@std@@P6APAVCResource@@PBD@Z@std@@@2@$0A@@std@@@std@@QAE?AV?$_Tree_iterator@V?$_Tree_val@U?$_Tree_simple_types@U?$pair@$$CBV?$basic_string@DU?$char_traits@D@std@@V?$allocator@D@2@@std@@P6APAVCResource@@PBD@Z@std@@@std@@@std@@@2@ABV?$basic_string@DU?$char_traits@D@std@@V?$allocator@D@2@@2@@Z ; std::_Tree<std::_Tmap_traits<std::basic_string<char,std::char_traits<char>,std::allocator<char> >,CResource * (__cdecl*)(char const *),std::less<std::basic_string<char,std::char_traits<char>,std::allocator<char> > >,std::allocator<std::pair<std::basic_string<char,std::char_traits<char>,std::allocator<char> > const ,CResource * (__cdecl*)(char const *)> >,0> >::find
PUBLIC	?_Insert_node@?$_Tree_val@U?$_Tree_simple_types@U?$pair@$$CBV?$basic_string@DU?$char_traits@D@std@@V?$allocator@D@2@@std@@P6APAVCResource@@PBD@Z@std@@@std@@@std@@QAEPAU?$_Tree_node@U?$pair@$$CBV?$basic_string@DU?$char_traits@D@std@@V?$allocator@D@2@@std@@P6APAVCResource@@PBD@Z@std@@PAX@2@U?$_Tree_id@PAU?$_Tree_node@U?$pair@$$CBV?$basic_string@DU?$char_traits@D@std@@V?$allocator@D@2@@std@@P6APAVCResource@@PBD@Z@std@@PAX@std@@@2@QAU32@@Z ; std::_Tree_val<std::_Tree_simple_types<std::pair<std::basic_string<char,std::char_traits<char>,std::allocator<char> > const ,CResource * (__cdecl*)(char const *)> > >::_Insert_node
PUBLIC	??1?$map@V?$basic_string@DU?$char_traits@D@std@@V?$allocator@D@2@@std@@P6APAVCResource@@PBD@ZU?$less@V?$basic_string@DU?$char_traits@D@std@@V?$allocator@D@2@@std@@@2@V?$allocator@U?$pair@$$CBV?$basic_string@DU?$char_traits@D@std@@V?$allocator@D@2@@std@@P6APAVCResource@@PBD@Z@std@@@2@@std@@QAE@XZ ; std::map<std::basic_string<char,std::char_traits<char>,std::allocator<char> >,CResource * (__cdecl*)(char const *),std::less<std::basic_string<char,std::char_traits<char>,std::allocator<char> > >,std::allocator<std::pair<std::basic_string<char,std::char_traits<char>,std::allocator<char> > const ,CResource * (__cdecl*)(char const *)> > >::~map<std::basic_string<char,std::char_traits<char>,std::allocator<char> >,CResource * (__cdecl*)(char const *),std::less<std::basic_string<char,std::char_traits<char>,std::allocator<char> > >,std::allocator<std::pair<std::basic_string<char,std::char_traits<char>,std::allocator<char> > const ,CResource * (__cdecl*)(char const *)> > >
PUBLIC	??1?$_Tree@V?$_Tmap_traits@HP6APAVCResource@@PBD@ZU?$less@H@std@@V?$allocator@U?$pair@$$CBHP6APAVCResource@@PBD@Z@std@@@3@$0A@@std@@@std@@QAE@XZ ; std::_Tree<std::_Tmap_traits<int,CResource * (__cdecl*)(char const *),std::less<int>,std::allocator<std::pair<int const ,CResource * (__cdecl*)(char const *)> >,0> >::~_Tree<std::_Tmap_traits<int,CResource * (__cdecl*)(char const *),std::less<int>,std::allocator<std::pair<int const ,CResource * (__cdecl*)(char const *)> >,0> >
PUBLIC	?_Insert_node@?$_Tree_val@U?$_Tree_simple_types@U?$pair@$$CBHP6APAVCResource@@PBD@Z@std@@@std@@@std@@QAEPAU?$_Tree_node@U?$pair@$$CBHP6APAVCResource@@PBD@Z@std@@PAX@2@U?$_Tree_id@PAU?$_Tree_node@U?$pair@$$CBHP6APAVCResource@@PBD@Z@std@@PAX@std@@@2@QAU32@@Z ; std::_Tree_val<std::_Tree_simple_types<std::pair<int const ,CResource * (__cdecl*)(char const *)> > >::_Insert_node
PUBLIC	??1?$map@HP6APAVCResource@@PBD@ZU?$less@H@std@@V?$allocator@U?$pair@$$CBHP6APAVCResource@@PBD@Z@std@@@3@@std@@QAE@XZ ; std::map<int,CResource * (__cdecl*)(char const *),std::less<int>,std::allocator<std::pair<int const ,CResource * (__cdecl*)(char const *)> > >::~map<int,CResource * (__cdecl*)(char const *),std::less<int>,std::allocator<std::pair<int const ,CResource * (__cdecl*)(char const *)> > >
PUBLIC	??1?$_Tree@V?$_Tmap_traits@PAVCResource@@KU?$less@PAVCResource@@@std@@V?$allocator@U?$pair@QAVCResource@@K@std@@@3@$0A@@std@@@std@@QAE@XZ ; std::_Tree<std::_Tmap_traits<CResource *,unsigned long,std::less<CResource *>,std::allocator<std::pair<CResource * const,unsigned long> >,0> >::~_Tree<std::_Tmap_traits<CResource *,unsigned long,std::less<CResource *>,std::allocator<std::pair<CResource * const,unsigned long> >,0> >
PUBLIC	?_Lrotate@?$_Tree_val@U?$_Tree_simple_types@U?$pair@QAVCResource@@K@std@@@std@@@std@@QAEXPAU?$_Tree_node@U?$pair@QAVCResource@@K@std@@PAX@2@@Z ; std::_Tree_val<std::_Tree_simple_types<std::pair<CResource * const,unsigned long> > >::_Lrotate
PUBLIC	?_Rrotate@?$_Tree_val@U?$_Tree_simple_types@U?$pair@QAVCResource@@K@std@@@std@@@std@@QAEXPAU?$_Tree_node@U?$pair@QAVCResource@@K@std@@PAX@2@@Z ; std::_Tree_val<std::_Tree_simple_types<std::pair<CResource * const,unsigned long> > >::_Rrotate
PUBLIC	?_Extract@?$_Tree_val@U?$_Tree_simple_types@U?$pair@QAVCResource@@K@std@@@std@@@std@@QAEPAU?$_Tree_node@U?$pair@QAVCResource@@K@std@@PAX@2@V?$_Tree_unchecked_const_iterator@V?$_Tree_val@U?$_Tree_simple_types@U?$pair@QAVCResource@@K@std@@@std@@@std@@U_Iterator_base0@2@@2@@Z ; std::_Tree_val<std::_Tree_simple_types<std::pair<CResource * const,unsigned long> > >::_Extract
PUBLIC	?_Insert_node@?$_Tree_val@U?$_Tree_simple_types@U?$pair@QAVCResource@@K@std@@@std@@@std@@QAEPAU?$_Tree_node@U?$pair@QAVCResource@@K@std@@PAX@2@U?$_Tree_id@PAU?$_Tree_node@U?$pair@QAVCResource@@K@std@@PAX@std@@@2@QAU32@@Z ; std::_Tree_val<std::_Tree_simple_types<std::pair<CResource * const,unsigned long> > >::_Insert_node
PUBLIC	??1?$map@PAVCResource@@KU?$less@PAVCResource@@@std@@V?$allocator@U?$pair@QAVCResource@@K@std@@@3@@std@@QAE@XZ ; std::map<CResource *,unsigned long,std::less<CResource *>,std::allocator<std::pair<CResource * const,unsigned long> > >::~map<CResource *,unsigned long,std::less<CResource *>,std::allocator<std::pair<CResource * const,unsigned long> > >
PUBLIC	?_Lrotate@?$_Tree_val@U?$_Tree_simple_types@U?$pair@$$CBKV?$basic_string@DU?$char_traits@D@std@@V?$allocator@D@2@@std@@@std@@@std@@@std@@QAEXPAU?$_Tree_node@U?$pair@$$CBKV?$basic_string@DU?$char_traits@D@std@@V?$allocator@D@2@@std@@@std@@PAX@2@@Z ; std::_Tree_val<std::_Tree_simple_types<std::pair<unsigned long const ,std::basic_string<char,std::char_traits<char>,std::allocator<char> > > > >::_Lrotate
PUBLIC	?_Rrotate@?$_Tree_val@U?$_Tree_simple_types@U?$pair@$$CBKV?$basic_string@DU?$char_traits@D@std@@V?$allocator@D@2@@std@@@std@@@std@@@std@@QAEXPAU?$_Tree_node@U?$pair@$$CBKV?$basic_string@DU?$char_traits@D@std@@V?$allocator@D@2@@std@@@std@@PAX@2@@Z ; std::_Tree_val<std::_Tree_simple_types<std::pair<unsigned long const ,std::basic_string<char,std::char_traits<char>,std::allocator<char> > > > >::_Rrotate
PUBLIC	?_Extract@?$_Tree_val@U?$_Tree_simple_types@U?$pair@$$CBKV?$basic_string@DU?$char_traits@D@std@@V?$allocator@D@2@@std@@@std@@@std@@@std@@QAEPAU?$_Tree_node@U?$pair@$$CBKV?$basic_string@DU?$char_traits@D@std@@V?$allocator@D@2@@std@@@std@@PAX@2@V?$_Tree_unchecked_const_iterator@V?$_Tree_val@U?$_Tree_simple_types@U?$pair@$$CBKV?$basic_string@DU?$char_traits@D@std@@V?$allocator@D@2@@std@@@std@@@std@@@std@@U_Iterator_base0@2@@2@@Z ; std::_Tree_val<std::_Tree_simple_types<std::pair<unsigned long const ,std::basic_string<char,std::char_traits<char>,std::allocator<char> > > > >::_Extract
PUBLIC	?_Insert_node@?$_Tree_val@U?$_Tree_simple_types@U?$pair@$$CBKV?$basic_string@DU?$char_traits@D@std@@V?$allocator@D@2@@std@@@std@@@std@@@std@@QAEPAU?$_Tree_node@U?$pair@$$CBKV?$basic_string@DU?$char_traits@D@std@@V?$allocator@D@2@@std@@@std@@PAX@2@U?$_Tree_id@PAU?$_Tree_node@U?$pair@$$CBKV?$basic_string@DU?$char_traits@D@std@@V?$allocator@D@2@@std@@@std@@PAX@std@@@2@QAU32@@Z ; std::_Tree_val<std::_Tree_simple_types<std::pair<unsigned long const ,std::basic_string<char,std::char_traits<char>,std::allocator<char> > > > >::_Insert_node
PUBLIC	??1?$map@KV?$basic_string@DU?$char_traits@D@std@@V?$allocator@D@2@@std@@U?$less@K@2@V?$allocator@U?$pair@$$CBKV?$basic_string@DU?$char_traits@D@std@@V?$allocator@D@2@@std@@@std@@@2@@std@@QAE@XZ ; std::map<unsigned long,std::basic_string<char,std::char_traits<char>,std::allocator<char> >,std::less<unsigned long>,std::allocator<std::pair<unsigned long const ,std::basic_string<char,std::char_traits<char>,std::allocator<char> > > > >::~map<unsigned long,std::basic_string<char,std::char_traits<char>,std::allocator<char> >,std::less<unsigned long>,std::allocator<std::pair<unsigned long const ,std::basic_string<char,std::char_traits<char>,std::allocator<char> > > > >
PUBLIC	??1?$_Tree@V?$_Tmap_traits@JPAVCResource@@U?$less@J@std@@V?$allocator@U?$pair@$$CBJPAVCResource@@@std@@@3@$0A@@std@@@std@@QAE@XZ ; std::_Tree<std::_Tmap_traits<long,CResource *,std::less<long>,std::allocator<std::pair<long const ,CResource *> >,0> >::~_Tree<std::_Tmap_traits<long,CResource *,std::less<long>,std::allocator<std::pair<long const ,CResource *> >,0> >
PUBLIC	?_Lrotate@?$_Tree_val@U?$_Tree_simple_types@U?$pair@$$CBJPAVCResource@@@std@@@std@@@std@@QAEXPAU?$_Tree_node@U?$pair@$$CBJPAVCResource@@@std@@PAX@2@@Z ; std::_Tree_val<std::_Tree_simple_types<std::pair<long const ,CResource *> > >::_Lrotate
PUBLIC	?_Rrotate@?$_Tree_val@U?$_Tree_simple_types@U?$pair@$$CBJPAVCResource@@@std@@@std@@@std@@QAEXPAU?$_Tree_node@U?$pair@$$CBJPAVCResource@@@std@@PAX@2@@Z ; std::_Tree_val<std::_Tree_simple_types<std::pair<long const ,CResource *> > >::_Rrotate
PUBLIC	?_Extract@?$_Tree_val@U?$_Tree_simple_types@U?$pair@$$CBJPAVCResource@@@std@@@std@@@std@@QAEPAU?$_Tree_node@U?$pair@$$CBJPAVCResource@@@std@@PAX@2@V?$_Tree_unchecked_const_iterator@V?$_Tree_val@U?$_Tree_simple_types@U?$pair@$$CBJPAVCResource@@@std@@@std@@@std@@U_Iterator_base0@2@@2@@Z ; std::_Tree_val<std::_Tree_simple_types<std::pair<long const ,CResource *> > >::_Extract
PUBLIC	?_Insert_node@?$_Tree_val@U?$_Tree_simple_types@U?$pair@$$CBJPAVCResource@@@std@@@std@@@std@@QAEPAU?$_Tree_node@U?$pair@$$CBJPAVCResource@@@std@@PAX@2@U?$_Tree_id@PAU?$_Tree_node@U?$pair@$$CBJPAVCResource@@@std@@PAX@std@@@2@QAU32@@Z ; std::_Tree_val<std::_Tree_simple_types<std::pair<long const ,CResource *> > >::_Insert_node
PUBLIC	??_GCResourceManager@@UAEPAXI@Z			; CResourceManager::`scalar deleting destructor'
PUBLIC	??$insert@$0A@$0A@@?$_Tree@V?$_Tmap_traits@KPAVCResource@@U?$less@K@std@@V?$allocator@U?$pair@$$CBKPAVCResource@@@std@@@3@$0A@@std@@@std@@QAE?AU?$pair@V?$_Tree_iterator@V?$_Tree_val@U?$_Tree_simple_types@U?$pair@$$CBKPAVCResource@@@std@@@std@@@std@@@std@@_N@1@$$QAU?$pair@$$CBKPAVCResource@@@1@@Z ; std::_Tree<std::_Tmap_traits<unsigned long,CResource *,std::less<unsigned long>,std::allocator<std::pair<unsigned long const ,CResource *> >,0> >::insert<0,0>
PUBLIC	??E?$_Tree_unchecked_const_iterator@V?$_Tree_val@U?$_Tree_simple_types@U?$pair@$$CBKV?$basic_string@DU?$char_traits@D@std@@V?$allocator@D@2@@std@@@std@@@std@@@std@@U_Iterator_base0@2@@std@@QAEAAV01@XZ ; std::_Tree_unchecked_const_iterator<std::_Tree_val<std::_Tree_simple_types<std::pair<unsigned long const ,std::basic_string<char,std::char_traits<char>,std::allocator<char> > > > >,std::_Iterator_base0>::operator++
PUBLIC	??1?$pair@$$CBKV?$basic_string@DU?$char_traits@D@std@@V?$allocator@D@2@@std@@@std@@QAE@XZ ; std::pair<unsigned long const ,std::basic_string<char,std::char_traits<char>,std::allocator<char> > >::~pair<unsigned long const ,std::basic_string<char,std::char_traits<char>,std::allocator<char> > >
PUBLIC	??E?$_Tree_unchecked_const_iterator@V?$_Tree_val@U?$_Tree_simple_types@U?$pair@$$CBJPAVCResource@@@std@@@std@@@std@@U_Iterator_base0@2@@std@@QAEAAV01@XZ ; std::_Tree_unchecked_const_iterator<std::_Tree_val<std::_Tree_simple_types<std::pair<long const ,CResource *> > >,std::_Iterator_base0>::operator++
PUBLIC	??E?$_Tree_unchecked_const_iterator@V?$_Tree_val@U?$_Tree_simple_types@U?$pair@QAVCResource@@K@std@@@std@@@std@@U_Iterator_base0@2@@std@@QAEAAV01@XZ ; std::_Tree_unchecked_const_iterator<std::_Tree_val<std::_Tree_simple_types<std::pair<CResource * const,unsigned long> > >,std::_Iterator_base0>::operator++
PUBLIC	?__ConvertPathName@@YAHPBDPADH@Z		; __ConvertPathName
PUBLIC	?DumpKBCompare@@YA_NABUSDumpData@@0@Z		; DumpKBCompare
PUBLIC	?DumpCostCompare@@YA_NABUSDumpData@@0@Z		; DumpCostCompare
PUBLIC	??1?$vector@USDumpData@@V?$allocator@USDumpData@@@std@@@std@@QAE@XZ ; std::vector<SDumpData,std::allocator<SDumpData> >::~vector<SDumpData,std::allocator<SDumpData> >
PUBLIC	?_Xlength@?$vector@USDumpData@@V?$allocator@USDumpData@@@std@@@std@@CAXXZ ; std::vector<SDumpData,std::allocator<SDumpData> >::_Xlength
PUBLIC	??$_Emplace_reallocate@ABUSDumpData@@@?$vector@USDumpData@@V?$allocator@USDumpData@@@std@@@std@@QAEPAUSDumpData@@QAU2@ABU2@@Z ; std::vector<SDumpData,std::allocator<SDumpData> >::_Emplace_reallocate<SDumpData const &>
PUBLIC	??$_Erase_tree@V?$allocator@U?$_Tree_node@U?$pair@QAVCResource@@K@std@@PAX@std@@@std@@@?$_Tree_val@U?$_Tree_simple_types@U?$pair@QAVCResource@@K@std@@@std@@@std@@QAEXAAV?$allocator@U?$_Tree_node@U?$pair@QAVCResource@@K@std@@PAX@std@@@1@PAU?$_Tree_node@U?$pair@QAVCResource@@K@std@@PAX@1@@Z ; std::_Tree_val<std::_Tree_simple_types<std::pair<CResource * const,unsigned long> > >::_Erase_tree<std::allocator<std::_Tree_node<std::pair<CResource * const,unsigned long>,void *> > >
PUBLIC	??$_Erase_tree@V?$allocator@U?$_Tree_node@U?$pair@$$CBKPAVCResource@@@std@@PAX@std@@@std@@@?$_Tree_val@U?$_Tree_simple_types@U?$pair@$$CBKPAVCResource@@@std@@@std@@@std@@QAEXAAV?$allocator@U?$_Tree_node@U?$pair@$$CBKPAVCResource@@@std@@PAX@std@@@1@PAU?$_Tree_node@U?$pair@$$CBKPAVCResource@@@std@@PAX@1@@Z ; std::_Tree_val<std::_Tree_simple_types<std::pair<unsigned long const ,CResource *> > >::_Erase_tree<std::allocator<std::_Tree_node<std::pair<unsigned long const ,CResource *>,void *> > >
PUBLIC	??$_Erase_tree@V?$allocator@U?$_Tree_node@U?$pair@$$CBKV?$basic_string@DU?$char_traits@D@std@@V?$allocator@D@2@@std@@@std@@PAX@std@@@std@@@?$_Tree_val@U?$_Tree_simple_types@U?$pair@$$CBKV?$basic_string@DU?$char_traits@D@std@@V?$allocator@D@2@@std@@@std@@@std@@@std@@QAEXAAV?$allocator@U?$_Tree_node@U?$pair@$$CBKV?$basic_string@DU?$char_traits@D@std@@V?$allocator@D@2@@std@@@std@@PAX@std@@@1@PAU?$_Tree_node@U?$pair@$$CBKV?$basic_string@DU?$char_traits@D@std@@V?$allocator@D@2@@std@@@std@@PAX@1@@Z ; std::_Tree_val<std::_Tree_simple_types<std::pair<unsigned long const ,std::basic_string<char,std::char_traits<char>,std::allocator<char> > > > >::_Erase_tree<std::allocator<std::_Tree_node<std::pair<unsigned long const ,std::basic_string<char,std::char_traits<char>,std::allocator<char> > >,void *> > >
PUBLIC	??$_Freenode@V?$allocator@U?$_Tree_node@U?$pair@$$CBKV?$basic_string@DU?$char_traits@D@std@@V?$allocator@D@2@@std@@@std@@PAX@std@@@std@@@?$_Tree_node@U?$pair@$$CBKV?$basic_string@DU?$char_traits@D@std@@V?$allocator@D@2@@std@@@std@@PAX@std@@SAXAAV?$allocator@U?$_Tree_node@U?$pair@$$CBKV?$basic_string@DU?$char_traits@D@std@@V?$allocator@D@2@@std@@@std@@PAX@std@@@1@PAU01@@Z ; std::_Tree_node<std::pair<unsigned long const ,std::basic_string<char,std::char_traits<char>,std::allocator<char> > >,void *>::_Freenode<std::allocator<std::_Tree_node<std::pair<unsigned long const ,std::basic_string<char,std::char_traits<char>,std::allocator<char> > >,void *> > >
PUBLIC	??$_Sort_unchecked@PAUSDumpData@@P6A_NABU1@0@Z@std@@YAXPAUSDumpData@@0HP6A_NABU1@1@Z@Z ; std::_Sort_unchecked<SDumpData *,bool (__cdecl*)(SDumpData const &,SDumpData const &)>
PUBLIC	??$_Erase_tree@V?$allocator@U?$_Tree_node@U?$pair@$$CBJPAVCResource@@@std@@PAX@std@@@std@@@?$_Tree_val@U?$_Tree_simple_types@U?$pair@$$CBJPAVCResource@@@std@@@std@@@std@@QAEXAAV?$allocator@U?$_Tree_node@U?$pair@$$CBJPAVCResource@@@std@@PAX@std@@@1@PAU?$_Tree_node@U?$pair@$$CBJPAVCResource@@@std@@PAX@1@@Z ; std::_Tree_val<std::_Tree_simple_types<std::pair<long const ,CResource *> > >::_Erase_tree<std::allocator<std::_Tree_node<std::pair<long const ,CResource *>,void *> > >
PUBLIC	??$_Find_lower_bound@K@?$_Tree@V?$_Tmap_traits@KV?$basic_string@DU?$char_traits@D@std@@V?$allocator@D@2@@std@@U?$less@K@2@V?$allocator@U?$pair@$$CBKV?$basic_string@DU?$char_traits@D@std@@V?$allocator@D@2@@std@@@std@@@2@$0A@@std@@@std@@IBE?AU?$_Tree_find_result@PAU?$_Tree_node@U?$pair@$$CBKV?$basic_string@DU?$char_traits@D@std@@V?$allocator@D@2@@std@@@std@@PAX@std@@@1@ABK@Z ; std::_Tree<std::_Tmap_traits<unsigned long,std::basic_string<char,std::char_traits<char>,std::allocator<char> >,std::less<unsigned long>,std::allocator<std::pair<unsigned long const ,std::basic_string<char,std::char_traits<char>,std::allocator<char> > > >,0> >::_Find_lower_bound<unsigned long>
PUBLIC	??$_Find_lower_bound@H@?$_Tree@V?$_Tmap_traits@HP6APAVCResource@@PBD@ZU?$less@H@std@@V?$allocator@U?$pair@$$CBHP6APAVCResource@@PBD@Z@std@@@3@$0A@@std@@@std@@IBE?AU?$_Tree_find_result@PAU?$_Tree_node@U?$pair@$$CBHP6APAVCResource@@PBD@Z@std@@PAX@std@@@1@ABH@Z ; std::_Tree<std::_Tmap_traits<int,CResource * (__cdecl*)(char const *),std::less<int>,std::allocator<std::pair<int const ,CResource * (__cdecl*)(char const *)> >,0> >::_Find_lower_bound<int>
PUBLIC	??1?$_Alloc_construct_ptr@V?$allocator@U?$_Tree_node@U?$pair@$$CBHP6APAVCResource@@PBD@Z@std@@PAX@std@@@std@@@std@@QAE@XZ ; std::_Alloc_construct_ptr<std::allocator<std::_Tree_node<std::pair<int const ,CResource * (__cdecl*)(char const *)>,void *> > >::~_Alloc_construct_ptr<std::allocator<std::_Tree_node<std::pair<int const ,CResource * (__cdecl*)(char const *)>,void *> > >
PUBLIC	??$_Erase_tree@V?$allocator@U?$_Tree_node@U?$pair@$$CBHP6APAVCResource@@PBD@Z@std@@PAX@std@@@std@@@?$_Tree_val@U?$_Tree_simple_types@U?$pair@$$CBHP6APAVCResource@@PBD@Z@std@@@std@@@std@@QAEXAAV?$allocator@U?$_Tree_node@U?$pair@$$CBHP6APAVCResource@@PBD@Z@std@@PAX@std@@@1@PAU?$_Tree_node@U?$pair@$$CBHP6APAVCResource@@PBD@Z@std@@PAX@1@@Z ; std::_Tree_val<std::_Tree_simple_types<std::pair<int const ,CResource * (__cdecl*)(char const *)> > >::_Erase_tree<std::allocator<std::_Tree_node<std::pair<int const ,CResource * (__cdecl*)(char const *)>,void *> > >
PUBLIC	??$_Find_lower_bound@V?$basic_string@DU?$char_traits@D@std@@V?$allocator@D@2@@std@@@?$_Tree@V?$_Tmap_traits@V?$basic_string@DU?$char_traits@D@std@@V?$allocator@D@2@@std@@P6APAVCResource@@PBD@ZU?$less@V?$basic_string@DU?$char_traits@D@std@@V?$allocator@D@2@@std@@@2@V?$allocator@U?$pair@$$CBV?$basic_string@DU?$char_traits@D@std@@V?$allocator@D@2@@std@@P6APAVCResource@@PBD@Z@std@@@2@$0A@@std@@@std@@IBE?AU?$_Tree_find_result@PAU?$_Tree_node@U?$pair@$$CBV?$basic_string@DU?$char_traits@D@std@@V?$allocator@D@2@@std@@P6APAVCResource@@PBD@Z@std@@PAX@std@@@1@ABV?$basic_string@DU?$char_traits@D@std@@V?$allocator@D@2@@1@@Z ; std::_Tree<std::_Tmap_traits<std::basic_string<char,std::char_traits<char>,std::allocator<char> >,CResource * (__cdecl*)(char const *),std::less<std::basic_string<char,std::char_traits<char>,std::allocator<char> > >,std::allocator<std::pair<std::basic_string<char,std::char_traits<char>,std::allocator<char> > const ,CResource * (__cdecl*)(char const *)> >,0> >::_Find_lower_bound<std::basic_string<char,std::char_traits<char>,std::allocator<char> > >
PUBLIC	??1?$_Alloc_construct_ptr@V?$allocator@U?$_Tree_node@U?$pair@$$CBV?$basic_string@DU?$char_traits@D@std@@V?$allocator@D@2@@std@@P6APAVCResource@@PBD@Z@std@@PAX@std@@@std@@@std@@QAE@XZ ; std::_Alloc_construct_ptr<std::allocator<std::_Tree_node<std::pair<std::basic_string<char,std::char_traits<char>,std::allocator<char> > const ,CResource * (__cdecl*)(char const *)>,void *> > >::~_Alloc_construct_ptr<std::allocator<std::_Tree_node<std::pair<std::basic_string<char,std::char_traits<char>,std::allocator<char> > const ,CResource * (__cdecl*)(char const *)>,void *> > >
PUBLIC	??$_Erase_tree@V?$allocator@U?$_Tree_node@U?$pair@$$CBV?$basic_string@DU?$char_traits@D@std@@V?$allocator@D@2@@std@@P6APAVCResource@@PBD@Z@std@@PAX@std@@@std@@@?$_Tree_val@U?$_Tree_simple_types@U?$pair@$$CBV?$basic_string@DU?$char_traits@D@std@@V?$allocator@D@2@@std@@P6APAVCResource@@PBD@Z@std@@@std@@@std@@QAEXAAV?$allocator@U?$_Tree_node@U?$pair@$$CBV?$basic_string@DU?$char_traits@D@std@@V?$allocator@D@2@@std@@P6APAVCResource@@PBD@Z@std@@PAX@std@@@1@PAU?$_Tree_node@U?$pair@$$CBV?$basic_string@DU?$char_traits@D@std@@V?$allocator@D@2@@std@@P6APAVCResource@@PBD@Z@std@@PAX@1@@Z ; std::_Tree_val<std::_Tree_simple_types<std::pair<std::basic_string<char,std::char_traits<char>,std::allocator<char> > const ,CResource * (__cdecl*)(char const *)> > >::_Erase_tree<std::allocator<std::_Tree_node<std::pair<std::basic_string<char,std::char_traits<char>,std::allocator<char> > const ,CResource * (__cdecl*)(char const *)>,void *> > >
PUBLIC	??$_Find_lower_bound@K@?$_Tree@V?$_Tmap_traits@KPAVCResource@@U?$less@K@std@@V?$allocator@U?$pair@$$CBKPAVCResource@@@std@@@3@$0A@@std@@@std@@IBE?AU?$_Tree_find_result@PAU?$_Tree_node@U?$pair@$$CBKPAVCResource@@@std@@PAX@std@@@1@ABK@Z ; std::_Tree<std::_Tmap_traits<unsigned long,CResource *,std::less<unsigned long>,std::allocator<std::pair<unsigned long const ,CResource *> >,0> >::_Find_lower_bound<unsigned long>
PUBLIC	??1?$_Alloc_construct_ptr@V?$allocator@U?$_Tree_node@U?$pair@$$CBKPAVCResource@@@std@@PAX@std@@@std@@@std@@QAE@XZ ; std::_Alloc_construct_ptr<std::allocator<std::_Tree_node<std::pair<unsigned long const ,CResource *>,void *> > >::~_Alloc_construct_ptr<std::allocator<std::_Tree_node<std::pair<unsigned long const ,CResource *>,void *> > >
PUBLIC	??1?$_Alloc_construct_ptr@V?$allocator@U?$_Tree_node@U?$pair@$$CBKV?$basic_string@DU?$char_traits@D@std@@V?$allocator@D@2@@std@@@std@@PAX@std@@@std@@@std@@QAE@XZ ; std::_Alloc_construct_ptr<std::allocator<std::_Tree_node<std::pair<unsigned long const ,std::basic_string<char,std::char_traits<char>,std::allocator<char> > >,void *> > >::~_Alloc_construct_ptr<std::allocator<std::_Tree_node<std::pair<unsigned long const ,std::basic_string<char,std::char_traits<char>,std::allocator<char> > >,void *> > >
PUBLIC	??1?$_Alloc_construct_ptr@V?$allocator@U?$_Tree_node@U?$pair@$$CBJPAVCResource@@@std@@PAX@std@@@std@@@std@@QAE@XZ ; std::_Alloc_construct_ptr<std::allocator<std::_Tree_node<std::pair<long const ,CResource *>,void *> > >::~_Alloc_construct_ptr<std::allocator<std::_Tree_node<std::pair<long const ,CResource *>,void *> > >
PUBLIC	??$_Make_heap_unchecked@PAUSDumpData@@P6A_NABU1@0@Z@std@@YAXPAUSDumpData@@0P6A_NABU1@1@Z@Z ; std::_Make_heap_unchecked<SDumpData *,bool (__cdecl*)(SDumpData const &,SDumpData const &)>
PUBLIC	??$_Partition_by_median_guess_unchecked@PAUSDumpData@@P6A_NABU1@0@Z@std@@YA?AU?$pair@PAUSDumpData@@PAU1@@0@PAUSDumpData@@0P6A_NABU2@1@Z@Z ; std::_Partition_by_median_guess_unchecked<SDumpData *,bool (__cdecl*)(SDumpData const &,SDumpData const &)>
PUBLIC	??1?$_Alloc_construct_ptr@V?$allocator@U?$_Tree_node@U?$pair@QAVCResource@@K@std@@PAX@std@@@std@@@std@@QAE@XZ ; std::_Alloc_construct_ptr<std::allocator<std::_Tree_node<std::pair<CResource * const,unsigned long>,void *> > >::~_Alloc_construct_ptr<std::allocator<std::_Tree_node<std::pair<CResource * const,unsigned long>,void *> > >
PUBLIC	??$_Copy_memmove@PAUSDumpData@@PAU1@@std@@YAPAUSDumpData@@PAU1@00@Z ; std::_Copy_memmove<SDumpData *,SDumpData *>
PUBLIC	??$?MDU?$char_traits@D@std@@V?$allocator@D@1@@std@@YA_NABV?$basic_string@DU?$char_traits@D@std@@V?$allocator@D@2@@0@0@Z ; std::operator<<char,std::char_traits<char>,std::allocator<char> >
PUBLIC	??$_Pop_heap_hole_by_index@PAUSDumpData@@U1@P6A_NABU1@0@Z@std@@YAXPAUSDumpData@@HH$$QAU1@P6A_NABU1@2@Z@Z ; std::_Pop_heap_hole_by_index<SDumpData *,SDumpData,bool (__cdecl*)(SDumpData const &,SDumpData const &)>
PUBLIC	??$_Copy_backward_memmove@PAUSDumpData@@PAU1@@std@@YAPAUSDumpData@@PAU1@00@Z ; std::_Copy_backward_memmove<SDumpData *,SDumpData *>
PUBLIC	??$_Med3_unchecked@PAUSDumpData@@P6A_NABU1@0@Z@std@@YAXPAUSDumpData@@00P6A_NABU1@1@Z@Z ; std::_Med3_unchecked<SDumpData *,bool (__cdecl*)(SDumpData const &,SDumpData const &)>
PUBLIC	?_OptionsStorage@?1??__local_stdio_printf_options@@9@4_KA ; `__local_stdio_printf_options'::`2'::_OptionsStorage
PUBLIC	??_7exception@std@@6B@				; std::exception::`vftable'
PUBLIC	??_C@_0BC@EOODALEL@Unknown?5exception@		; `string'
PUBLIC	??_7bad_alloc@std@@6B@				; std::bad_alloc::`vftable'
PUBLIC	??_7bad_array_new_length@std@@6B@		; std::bad_array_new_length::`vftable'
PUBLIC	??_C@_0BF@KINCDENJ@bad?5array?5new?5length@	; `string'
PUBLIC	__TI3?AVbad_array_new_length@std@@
PUBLIC	__CTA3?AVbad_array_new_length@std@@
PUBLIC	??_R0?AVbad_array_new_length@std@@@8		; std::bad_array_new_length `RTTI Type Descriptor'
PUBLIC	__CT??_R0?AVbad_array_new_length@std@@@8??0bad_array_new_length@std@@QAE@ABV01@@Z12
PUBLIC	??_R0?AVbad_alloc@std@@@8			; std::bad_alloc `RTTI Type Descriptor'
PUBLIC	__CT??_R0?AVbad_alloc@std@@@8??0bad_alloc@std@@QAE@ABV01@@Z12
PUBLIC	??_R0?AVexception@std@@@8			; std::exception `RTTI Type Descriptor'
PUBLIC	__CT??_R0?AVexception@std@@@8??0exception@std@@QAE@ABV01@@Z12
PUBLIC	??_C@_0BA@JFNIOLAK@string?5too?5long@		; `string'
PUBLIC	??_C@_0BB@GCADKGJO@map?1set?5too?5long@		; `string'
PUBLIC	??_R4exception@std@@6B@				; std::exception::`RTTI Complete Object Locator'
PUBLIC	??_R3exception@std@@8				; std::exception::`RTTI Class Hierarchy Descriptor'
PUBLIC	??_R2exception@std@@8				; std::exception::`RTTI Base Class Array'
PUBLIC	??_R1A@?0A@EA@exception@std@@8			; std::exception::`RTTI Base Class Descriptor at (0,-1,0,64)'
PUBLIC	??_R4bad_alloc@std@@6B@				; std::bad_alloc::`RTTI Complete Object Locator'
PUBLIC	??_R3bad_alloc@std@@8				; std::bad_alloc::`RTTI Class Hierarchy Descriptor'
PUBLIC	??_R2bad_alloc@std@@8				; std::bad_alloc::`RTTI Base Class Array'
PUBLIC	??_R1A@?0A@EA@bad_alloc@std@@8			; std::bad_alloc::`RTTI Base Class Descriptor at (0,-1,0,64)'
PUBLIC	??_R4bad_array_new_length@std@@6B@		; std::bad_array_new_length::`RTTI Complete Object Locator'
PUBLIC	??_R3bad_array_new_length@std@@8		; std::bad_array_new_length::`RTTI Class Hierarchy Descriptor'
PUBLIC	??_R2bad_array_new_length@std@@8		; std::bad_array_new_length::`RTTI Base Class Array'
PUBLIC	??_R1A@?0A@EA@bad_array_new_length@std@@8	; std::bad_array_new_length::`RTTI Base Class Descriptor at (0,-1,0,64)'
PUBLIC	?ms_singleton@?$CSingleton@VCEterPackManager@@@@0PAVCEterPackManager@@A ; CSingleton<CEterPackManager>::ms_singleton
PUBLIC	?ms_singleton@?$CSingleton@VCResourceManager@@@@0PAVCResourceManager@@A ; CSingleton<CResourceManager>::ms_singleton
PUBLIC	??_7?$CSingleton@VCResourceManager@@@@6B@	; CSingleton<CResourceManager>::`vftable'
PUBLIC	?ms_loadingThread@CResourceManager@@1VCFileLoaderThread@@A ; CResourceManager::ms_loadingThread
PUBLIC	??_7CResourceManager@@6B@			; CResourceManager::`vftable'
PUBLIC	??_C@_0CO@DICKOBGD@CResourceManager?3?3LoadStaticCac@ ; `string'
PUBLIC	??_C@_0DC@JIBACBGM@CResourceManager?3?3__DestroyDele@ ; `string'
PUBLIC	??_C@_0CK@GGPMOLNJ@CResourceManager?3?3__DestroyReso@ ; `string'
PUBLIC	??_C@_0DM@HFOFINBK@CResource?3?3InsertResourcePointe@ ; `string'
PUBLIC	??_C@_0DJ@NILLFGHO@ResourceManager?3?3GetResourcePoi@ ; `string'
PUBLIC	??_C@_0DG@LGINPHCP@CResourceManager?3?3GetResourcePo@ ; `string'
PUBLIC	??_C@_09COBKJKAL@?$CF6?41f?5?$CFs?6@		; `string'
PUBLIC	??_C@_08IGNPNJLM@?$CF?94d?5?$CFs?6@		; `string'
PUBLIC	??_C@_04DLFHDFGL@?4sub@				; `string'
PUBLIC	??_C@_02JDPG@rb@				; `string'
PUBLIC	??_C@_01NOFIACDB@w@				; `string'
PUBLIC	??_C@_0O@LJOLOKII@total?3?5?$CF?42fmb@		; `string'
PUBLIC	??_C@_0BA@FOIKENOD@vector?5too?5long@		; `string'
PUBLIC	??_R4CResourceManager@@6B@			; CResourceManager::`RTTI Complete Object Locator'
PUBLIC	??_R0?AVCResourceManager@@@8			; CResourceManager `RTTI Type Descriptor'
PUBLIC	??_R3CResourceManager@@8			; CResourceManager::`RTTI Class Hierarchy Descriptor'
PUBLIC	??_R2CResourceManager@@8			; CResourceManager::`RTTI Base Class Array'
PUBLIC	??_R1A@?0A@EA@CResourceManager@@8		; CResourceManager::`RTTI Base Class Descriptor at (0,-1,0,64)'
PUBLIC	??_R1A@?0A@EA@?$CSingleton@VCResourceManager@@@@8 ; CSingleton<CResourceManager>::`RTTI Base Class Descriptor at (0,-1,0,64)'
PUBLIC	??_R0?AV?$CSingleton@VCResourceManager@@@@@8	; CSingleton<CResourceManager> `RTTI Type Descriptor'
PUBLIC	??_R3?$CSingleton@VCResourceManager@@@@8	; CSingleton<CResourceManager>::`RTTI Class Hierarchy Descriptor'
PUBLIC	??_R2?$CSingleton@VCResourceManager@@@@8	; CSingleton<CResourceManager>::`RTTI Base Class Array'
PUBLIC	??_R4?$CSingleton@VCResourceManager@@@@6B@	; CSingleton<CResourceManager>::`RTTI Complete Object Locator'
PUBLIC	__real@3a800000
EXTRN	??2@YAPAXI@Z:PROC				; operator new
EXTRN	??3@YAXPAXI@Z:PROC				; operator delete
EXTRN	??_V@YAXPAX@Z:PROC				; operator delete[]
EXTRN	_atexit:PROC
EXTRN	__invalid_parameter_noinfo_noreturn:PROC
EXTRN	_strrchr:PROC
EXTRN	__strnicmp:PROC
EXTRN	_strncpy:PROC
EXTRN	_fclose:PROC
EXTRN	_fopen:PROC
EXTRN	_fseek:PROC
EXTRN	_ftell:PROC
EXTRN	___stdio_common_vfprintf:PROC
EXTRN	___std_exception_copy:PROC
EXTRN	___std_exception_destroy:PROC
EXTRN	??_Eexception@std@@UAEPAXI@Z:PROC		; std::exception::`vector deleting destructor'
EXTRN	??_Ebad_alloc@std@@UAEPAXI@Z:PROC		; std::bad_alloc::`vector deleting destructor'
EXTRN	??_Ebad_array_new_length@std@@UAEPAXI@Z:PROC	; std::bad_array_new_length::`vector deleting destructor'
EXTRN	?_Xlength_error@std@@YAXPBD@Z:PROC		; std::_Xlength_error
EXTRN	?Lognf@@YAXIPBDZZ:PROC				; Lognf
EXTRN	?Tracenf@@YAXPBDZZ:PROC				; Tracenf
EXTRN	?TraceError@@YAXPBDZZ:PROC			; TraceError
EXTRN	?GetCRC32@@YAKPBDI@Z:PROC			; GetCRC32
EXTRN	?ELTimer_GetMSec@@YAKXZ:PROC			; ELTimer_GetMSec
EXTRN	?korean_tolower@@YADD@Z:PROC			; korean_tolower
EXTRN	??1CMappedFile@@UAE@XZ:PROC			; CMappedFile::~CMappedFile
EXTRN	?isExist@CEterPackManager@@QAE_NPBD@Z:PROC	; CEterPackManager::isExist
EXTRN	?AddReference@CReferenceObject@@QAEXXZ:PROC	; CReferenceObject::AddReference
EXTRN	?AddReferenceOnly@CReferenceObject@@QAEXXZ:PROC	; CReferenceObject::AddReferenceOnly
EXTRN	?Release@CReferenceObject@@QAEXXZ:PROC		; CReferenceObject::Release
EXTRN	?canDestroy@CReferenceObject@@QAE_NXZ:PROC	; CReferenceObject::canDestroy
EXTRN	?Clear@CResource@@QAEXXZ:PROC			; CResource::Clear
EXTRN	?SetDeleteImmediately@CResource@@SAX_N@Z:PROC	; CResource::SetDeleteImmediately
EXTRN	?IsData@CResource@@QBE_NXZ:PROC			; CResource::IsData
EXTRN	?IsEmpty@CResource@@QBE_NXZ:PROC		; CResource::IsEmpty
EXTRN	?IsType@CResource@@QAE_NK@Z:PROC		; CResource::IsType
EXTRN	??0CFileLoaderThread@@QAE@XZ:PROC		; CFileLoaderThread::CFileLoaderThread
EXTRN	??1CFileLoaderThread@@QAE@XZ:PROC		; CFileLoaderThread::~CFileLoaderThread
EXTRN	?Request@CFileLoaderThread@@QAEXAAV?$basic_string@DU?$char_traits@D@std@@V?$allocator@D@2@@std@@@Z:PROC ; CFileLoaderThread::Request
EXTRN	?Fetch@CFileLoaderThread@@QAE_NPAPAUSData@1@@Z:PROC ; CFileLoaderThread::Fetch
EXTRN	??_E?$CSingleton@VCResourceManager@@@@UAEPAXI@Z:PROC ; CSingleton<CResourceManager>::`vector deleting destructor'
EXTRN	??_ECResourceManager@@UAEPAXI@Z:PROC		; CResourceManager::`vector deleting destructor'
EXTRN	?Type@CGraphicImage@@SAKXZ:PROC			; CGraphicImage::Type
EXTRN	?GetWidth@CGraphicImage@@QBEHXZ:PROC		; CGraphicImage::GetWidth
EXTRN	?GetHeight@CGraphicImage@@QBEHXZ:PROC		; CGraphicImage::GetHeight
EXTRN	@__security_check_cookie@4:PROC
EXTRN	__CxxThrowException@8:PROC
EXTRN	___CxxFrameHandler3:PROC
EXTRN	_memcpy:PROC
EXTRN	_memmove:PROC
EXTRN	??_7type_info@@6B@:QWORD			; type_info::`vftable'
EXTRN	___security_cookie:DWORD
EXTRN	__fltused:DWORD
;	COMDAT ?_OptionsStorage@?1??__local_stdio_printf_options@@9@4_KA
_BSS	SEGMENT
?_OptionsStorage@?1??__local_stdio_printf_options@@9@4_KA DQ 01H DUP (?) ; `__local_stdio_printf_options'::`2'::_OptionsStorage
_BSS	ENDS
;	COMDAT ?ms_singleton@?$CSingleton@VCEterPackManager@@@@0PAVCEterPackManager@@A
_BSS	SEGMENT
?ms_singleton@?$CSingleton@VCEterPackManager@@@@0PAVCEterPackManager@@A DD 01H DUP (?) ; CSingleton<CEterPackManager>::ms_singleton
_BSS	ENDS
;	COMDAT ?ms_singleton@?$CSingleton@VCResourceManager@@@@0PAVCResourceManager@@A
_BSS	SEGMENT
?ms_singleton@?$CSingleton@VCResourceManager@@@@0PAVCResourceManager@@A DD 01H DUP (?) ; CSingleton<CResourceManager>::ms_singleton
_BSS	ENDS
_BSS	SEGMENT
?ms_loadingThread@CResourceManager@@1VCFileLoaderThread@@A DB 070H DUP (?) ; CResourceManager::ms_loadingThread
_BSS	ENDS
;	COMDAT ?s_szFileExt@?BB@??GetTypeResourcePointer@CResourceManager@@QAEPAVCResource@@PBDH@Z@4PADA
_BSS	SEGMENT
?s_szFileExt@?BB@??GetTypeResourcePointer@CResourceManager@@QAEPAVCResource@@PBDH@Z@4PADA DB 09H DUP (?) ; `CResourceManager::GetTypeResourcePointer'::`17'::s_szFileExt
_BSS	ENDS
;	COMDAT ?s_szFileExt@?9??GetResourcePointer@CResourceManager@@QAEPAVCResource@@PBD@Z@4PADA
_BSS	SEGMENT
?s_szFileExt@?9??GetResourcePointer@CResourceManager@@QAEPAVCResource@@PBD@Z@4PADA DB 09H DUP (?) ; `CResourceManager::GetResourcePointer'::`10'::s_szFileExt
_BSS	ENDS
;	COMDAT ?s_szFullPathFileName@?1??__GetFileCRC@CResourceManager@@IAEKPBDPAPBD@Z@4PADA
_BSS	SEGMENT
?s_szFullPathFileName@?1??__GetFileCRC@CResourceManager@@IAEKPBDPAPBD@Z@4PADA DB 0104H DUP (?) ; `CResourceManager::__GetFileCRC'::`2'::s_szFullPathFileName
_BSS	ENDS
CRT$XCU	SEGMENT
??ms_loadingThread$initializer$@CResourceManager@@1P6AXXZA@@3P6AXXZA DD FLAT:??__E?ms_loadingThread@CResourceManager@@1VCFileLoaderThread@@A@@YAXXZ ; ??ms_loadingThread$initializer$@CResourceManager@@1P6AXXZA@@3P6AXXZA
CRT$XCU	ENDS
;	COMDAT __real@3a800000
CONST	SEGMENT
__real@3a800000 DD 03a800000r			; 0.000976562
CONST	ENDS
;	COMDAT ??_R4?$CSingleton@VCResourceManager@@@@6B@
rdata$r	SEGMENT
??_R4?$CSingleton@VCResourceManager@@@@6B@ DD 00H	; CSingleton<CResourceManager>::`RTTI Complete Object Locator'
	DD	00H
	DD	00H
	DD	FLAT:??_R0?AV?$CSingleton@VCResourceManager@@@@@8
	DD	FLAT:??_R3?$CSingleton@VCResourceManager@@@@8
rdata$r	ENDS
;	COMDAT ??_R2?$CSingleton@VCResourceManager@@@@8
rdata$r	SEGMENT
??_R2?$CSingleton@VCResourceManager@@@@8 DD FLAT:??_R1A@?0A@EA@?$CSingleton@VCResourceManager@@@@8 ; CSingleton<CResourceManager>::`RTTI Base Class Array'
rdata$r	ENDS
;	COMDAT ??_R3?$CSingleton@VCResourceManager@@@@8
rdata$r	SEGMENT
??_R3?$CSingleton@VCResourceManager@@@@8 DD 00H		; CSingleton<CResourceManager>::`RTTI Class Hierarchy Descriptor'
	DD	00H
	DD	01H
	DD	FLAT:??_R2?$CSingleton@VCResourceManager@@@@8
rdata$r	ENDS
;	COMDAT ??_R0?AV?$CSingleton@VCResourceManager@@@@@8
data$rs	SEGMENT
??_R0?AV?$CSingleton@VCResourceManager@@@@@8 DD FLAT:??_7type_info@@6B@ ; CSingleton<CResourceManager> `RTTI Type Descriptor'
	DD	00H
	DB	'.?AV?$CSingleton@VCResourceManager@@@@', 00H
data$rs	ENDS
;	COMDAT ??_R1A@?0A@EA@?$CSingleton@VCResourceManager@@@@8
rdata$r	SEGMENT
??_R1A@?0A@EA@?$CSingleton@VCResourceManager@@@@8 DD FLAT:??_R0?AV?$CSingleton@VCResourceManager@@@@@8 ; CSingleton<CResourceManager>::`RTTI Base Class Descriptor at (0,-1,0,64)'
	DD	00H
	DD	00H
	DD	0ffffffffH
	DD	00H
	DD	040H
	DD	FLAT:??_R3?$CSingleton@VCResourceManager@@@@8
rdata$r	ENDS
;	COMDAT ??_R1A@?0A@EA@CResourceManager@@8
rdata$r	SEGMENT
??_R1A@?0A@EA@CResourceManager@@8 DD FLAT:??_R0?AVCResourceManager@@@8 ; CResourceManager::`RTTI Base Class Descriptor at (0,-1,0,64)'
	DD	01H
	DD	00H
	DD	0ffffffffH
	DD	00H
	DD	040H
	DD	FLAT:??_R3CResourceManager@@8
rdata$r	ENDS
;	COMDAT ??_R2CResourceManager@@8
rdata$r	SEGMENT
??_R2CResourceManager@@8 DD FLAT:??_R1A@?0A@EA@CResourceManager@@8 ; CResourceManager::`RTTI Base Class Array'
	DD	FLAT:??_R1A@?0A@EA@?$CSingleton@VCResourceManager@@@@8
rdata$r	ENDS
;	COMDAT ??_R3CResourceManager@@8
rdata$r	SEGMENT
??_R3CResourceManager@@8 DD 00H				; CResourceManager::`RTTI Class Hierarchy Descriptor'
	DD	00H
	DD	02H
	DD	FLAT:??_R2CResourceManager@@8
rdata$r	ENDS
;	COMDAT ??_R0?AVCResourceManager@@@8
data$rs	SEGMENT
??_R0?AVCResourceManager@@@8 DD FLAT:??_7type_info@@6B@	; CResourceManager `RTTI Type Descriptor'
	DD	00H
	DB	'.?AVCResourceManager@@', 00H
data$rs	ENDS
;	COMDAT ??_R4CResourceManager@@6B@
rdata$r	SEGMENT
??_R4CResourceManager@@6B@ DD 00H			; CResourceManager::`RTTI Complete Object Locator'
	DD	00H
	DD	00H
	DD	FLAT:??_R0?AVCResourceManager@@@8
	DD	FLAT:??_R3CResourceManager@@8
rdata$r	ENDS
;	COMDAT ??_C@_0BA@FOIKENOD@vector?5too?5long@
CONST	SEGMENT
??_C@_0BA@FOIKENOD@vector?5too?5long@ DB 'vector too long', 00H ; `string'
CONST	ENDS
;	COMDAT ??_C@_0O@LJOLOKII@total?3?5?$CF?42fmb@
CONST	SEGMENT
??_C@_0O@LJOLOKII@total?3?5?$CF?42fmb@ DB 'total: %.2fmb', 00H ; `string'
CONST	ENDS
;	COMDAT ??_C@_01NOFIACDB@w@
CONST	SEGMENT
??_C@_01NOFIACDB@w@ DB 'w', 00H				; `string'
CONST	ENDS
;	COMDAT ??_C@_02JDPG@rb@
CONST	SEGMENT
??_C@_02JDPG@rb@ DB 'rb', 00H				; `string'
CONST	ENDS
;	COMDAT ??_C@_04DLFHDFGL@?4sub@
CONST	SEGMENT
??_C@_04DLFHDFGL@?4sub@ DB '.sub', 00H			; `string'
CONST	ENDS
;	COMDAT ??_C@_08IGNPNJLM@?$CF?94d?5?$CFs?6@
CONST	SEGMENT
??_C@_08IGNPNJLM@?$CF?94d?5?$CFs?6@ DB '%-4d %s', 0aH, 00H ; `string'
CONST	ENDS
;	COMDAT ??_C@_09COBKJKAL@?$CF6?41f?5?$CFs?6@
CONST	SEGMENT
??_C@_09COBKJKAL@?$CF6?41f?5?$CFs?6@ DB '%6.1f %s', 0aH, 00H ; `string'
CONST	ENDS
;	COMDAT ??_C@_0DG@LGINPHCP@CResourceManager?3?3GetResourcePo@
CONST	SEGMENT
??_C@_0DG@LGINPHCP@CResourceManager?3?3GetResourcePo@ DB 'CResourceManage'
	DB	'r::GetResourcePointer: filename error!', 00H ; `string'
CONST	ENDS
;	COMDAT ??_C@_0DJ@NILLFGHO@ResourceManager?3?3GetResourcePoi@
CONST	SEGMENT
??_C@_0DJ@NILLFGHO@ResourceManager?3?3GetResourcePoi@ DB 'ResourceManager'
	DB	'::GetResourcePointer: NOT SUPPORT FILE %s', 00H ; `string'
CONST	ENDS
;	COMDAT ??_C@_0DM@HFOFINBK@CResource?3?3InsertResourcePointe@
CONST	SEGMENT
??_C@_0DM@HFOFINBK@CResource?3?3InsertResourcePointe@ DB 'CResource::Inse'
	DB	'rtResourcePointer: %s is already registered', 0aH, 00H ; `string'
CONST	ENDS
;	COMDAT ??_C@_0CK@GGPMOLNJ@CResourceManager?3?3__DestroyReso@
CONST	SEGMENT
??_C@_0CK@GGPMOLNJ@CResourceManager?3?3__DestroyReso@ DB 'CResourceManage'
	DB	'r::__DestroyResourceMap %d', 00H		; `string'
CONST	ENDS
;	COMDAT ??_C@_0DC@JIBACBGM@CResourceManager?3?3__DestroyDele@
CONST	SEGMENT
??_C@_0DC@JIBACBGM@CResourceManager?3?3__DestroyDele@ DB 'CResourceManage'
	DB	'r::__DestroyDeletingResourceMap %d', 00H	; `string'
CONST	ENDS
;	COMDAT ??_C@_0CO@DICKOBGD@CResourceManager?3?3LoadStaticCac@
CONST	SEGMENT
??_C@_0CO@DICKOBGD@CResourceManager?3?3LoadStaticCac@ DB 'CResourceManage'
	DB	'r::LoadStaticCache %s - FAILED', 00H	; `string'
CONST	ENDS
;	COMDAT ??_7CResourceManager@@6B@
CONST	SEGMENT
??_7CResourceManager@@6B@ DD FLAT:??_R4CResourceManager@@6B@ ; CResourceManager::`vftable'
	DD	FLAT:??_ECResourceManager@@UAEPAXI@Z
CONST	ENDS
;	COMDAT ??_7?$CSingleton@VCResourceManager@@@@6B@
CONST	SEGMENT
??_7?$CSingleton@VCResourceManager@@@@6B@ DD FLAT:??_R4?$CSingleton@VCResourceManager@@@@6B@ ; CSingleton<CResourceManager>::`vftable'
	DD	FLAT:??_E?$CSingleton@VCResourceManager@@@@UAEPAXI@Z
CONST	ENDS
;	COMDAT ??_R1A@?0A@EA@bad_array_new_length@std@@8
rdata$r	SEGMENT
??_R1A@?0A@EA@bad_array_new_length@std@@8 DD FLAT:??_R0?AVbad_array_new_length@std@@@8 ; std::bad_array_new_length::`RTTI Base Class Descriptor at (0,-1,0,64)'
	DD	02H
	DD	00H
	DD	0ffffffffH
	DD	00H
	DD	040H
	DD	FLAT:??_R3bad_array_new_length@std@@8
rdata$r	ENDS
;	COMDAT ??_R2bad_array_new_length@std@@8
rdata$r	SEGMENT
??_R2bad_array_new_length@std@@8 DD FLAT:??_R1A@?0A@EA@bad_array_new_length@std@@8 ; std::bad_array_new_length::`RTTI Base Class Array'
	DD	FLAT:??_R1A@?0A@EA@bad_alloc@std@@8
	DD	FLAT:??_R1A@?0A@EA@exception@std@@8
rdata$r	ENDS
;	COMDAT ??_R3bad_array_new_length@std@@8
rdata$r	SEGMENT
??_R3bad_array_new_length@std@@8 DD 00H			; std::bad_array_new_length::`RTTI Class Hierarchy Descriptor'
	DD	00H
	DD	03H
	DD	FLAT:??_R2bad_array_new_length@std@@8
rdata$r	ENDS
;	COMDAT ??_R4bad_array_new_length@std@@6B@
rdata$r	SEGMENT
??_R4bad_array_new_length@std@@6B@ DD 00H		; std::bad_array_new_length::`RTTI Complete Object Locator'
	DD	00H
	DD	00H
	DD	FLAT:??_R0?AVbad_array_new_length@std@@@8
	DD	FLAT:??_R3bad_array_new_length@std@@8
rdata$r	ENDS
;	COMDAT ??_R1A@?0A@EA@bad_alloc@std@@8
rdata$r	SEGMENT
??_R1A@?0A@EA@bad_alloc@std@@8 DD FLAT:??_R0?AVbad_alloc@std@@@8 ; std::bad_alloc::`RTTI Base Class Descriptor at (0,-1,0,64)'
	DD	01H
	DD	00H
	DD	0ffffffffH
	DD	00H
	DD	040H
	DD	FLAT:??_R3bad_alloc@std@@8
rdata$r	ENDS
;	COMDAT ??_R2bad_alloc@std@@8
rdata$r	SEGMENT
??_R2bad_alloc@std@@8 DD FLAT:??_R1A@?0A@EA@bad_alloc@std@@8 ; std::bad_alloc::`RTTI Base Class Array'
	DD	FLAT:??_R1A@?0A@EA@exception@std@@8
rdata$r	ENDS
;	COMDAT ??_R3bad_alloc@std@@8
rdata$r	SEGMENT
??_R3bad_alloc@std@@8 DD 00H				; std::bad_alloc::`RTTI Class Hierarchy Descriptor'
	DD	00H
	DD	02H
	DD	FLAT:??_R2bad_alloc@std@@8
rdata$r	ENDS
;	COMDAT ??_R4bad_alloc@std@@6B@
rdata$r	SEGMENT
??_R4bad_alloc@std@@6B@ DD 00H				; std::bad_alloc::`RTTI Complete Object Locator'
	DD	00H
	DD	00H
	DD	FLAT:??_R0?AVbad_alloc@std@@@8
	DD	FLAT:??_R3bad_alloc@std@@8
rdata$r	ENDS
;	COMDAT ??_R1A@?0A@EA@exception@std@@8
rdata$r	SEGMENT
??_R1A@?0A@EA@exception@std@@8 DD FLAT:??_R0?AVexception@std@@@8 ; std::exception::`RTTI Base Class Descriptor at (0,-1,0,64)'
	DD	00H
	DD	00H
	DD	0ffffffffH
	DD	00H
	DD	040H
	DD	FLAT:??_R3exception@std@@8
rdata$r	ENDS
;	COMDAT ??_R2exception@std@@8
rdata$r	SEGMENT
??_R2exception@std@@8 DD FLAT:??_R1A@?0A@EA@exception@std@@8 ; std::exception::`RTTI Base Class Array'
rdata$r	ENDS
;	COMDAT ??_R3exception@std@@8
rdata$r	SEGMENT
??_R3exception@std@@8 DD 00H				; std::exception::`RTTI Class Hierarchy Descriptor'
	DD	00H
	DD	01H
	DD	FLAT:??_R2exception@std@@8
rdata$r	ENDS
;	COMDAT ??_R4exception@std@@6B@
rdata$r	SEGMENT
??_R4exception@std@@6B@ DD 00H				; std::exception::`RTTI Complete Object Locator'
	DD	00H
	DD	00H
	DD	FLAT:??_R0?AVexception@std@@@8
	DD	FLAT:??_R3exception@std@@8
rdata$r	ENDS
;	COMDAT ??_C@_0BB@GCADKGJO@map?1set?5too?5long@
CONST	SEGMENT
??_C@_0BB@GCADKGJO@map?1set?5too?5long@ DB 'map/set too long', 00H ; `string'
CONST	ENDS
;	COMDAT ??_C@_0BA@JFNIOLAK@string?5too?5long@
CONST	SEGMENT
??_C@_0BA@JFNIOLAK@string?5too?5long@ DB 'string too long', 00H ; `string'
CONST	ENDS
;	COMDAT __CT??_R0?AVexception@std@@@8??0exception@std@@QAE@ABV01@@Z12
xdata$x	SEGMENT
__CT??_R0?AVexception@std@@@8??0exception@std@@QAE@ABV01@@Z12 DD 00H
	DD	FLAT:??_R0?AVexception@std@@@8
	DD	00H
	DD	0ffffffffH
	ORG $+4
	DD	0cH
	DD	FLAT:??0exception@std@@QAE@ABV01@@Z
xdata$x	ENDS
;	COMDAT ??_R0?AVexception@std@@@8
data$r	SEGMENT
??_R0?AVexception@std@@@8 DD FLAT:??_7type_info@@6B@	; std::exception `RTTI Type Descriptor'
	DD	00H
	DB	'.?AVexception@std@@', 00H
data$r	ENDS
;	COMDAT __CT??_R0?AVbad_alloc@std@@@8??0bad_alloc@std@@QAE@ABV01@@Z12
xdata$x	SEGMENT
__CT??_R0?AVbad_alloc@std@@@8??0bad_alloc@std@@QAE@ABV01@@Z12 DD 010H
	DD	FLAT:??_R0?AVbad_alloc@std@@@8
	DD	00H
	DD	0ffffffffH
	ORG $+4
	DD	0cH
	DD	FLAT:??0bad_alloc@std@@QAE@ABV01@@Z
xdata$x	ENDS
;	COMDAT ??_R0?AVbad_alloc@std@@@8
data$r	SEGMENT
??_R0?AVbad_alloc@std@@@8 DD FLAT:??_7type_info@@6B@	; std::bad_alloc `RTTI Type Descriptor'
	DD	00H
	DB	'.?AVbad_alloc@std@@', 00H
data$r	ENDS
;	COMDAT __CT??_R0?AVbad_array_new_length@std@@@8??0bad_array_new_length@std@@QAE@ABV01@@Z12
xdata$x	SEGMENT
__CT??_R0?AVbad_array_new_length@std@@@8??0bad_array_new_length@std@@QAE@ABV01@@Z12 DD 00H
	DD	FLAT:??_R0?AVbad_array_new_length@std@@@8
	DD	00H
	DD	0ffffffffH
	ORG $+4
	DD	0cH
	DD	FLAT:??0bad_array_new_length@std@@QAE@ABV01@@Z
xdata$x	ENDS
;	COMDAT ??_R0?AVbad_array_new_length@std@@@8
data$r	SEGMENT
??_R0?AVbad_array_new_length@std@@@8 DD FLAT:??_7type_info@@6B@ ; std::bad_array_new_length `RTTI Type Descriptor'
	DD	00H
	DB	'.?AVbad_array_new_length@std@@', 00H
data$r	ENDS
;	COMDAT __CTA3?AVbad_array_new_length@std@@
xdata$x	SEGMENT
__CTA3?AVbad_array_new_length@std@@ DD 03H
	DD	FLAT:__CT??_R0?AVbad_array_new_length@std@@@8??0bad_array_new_length@std@@QAE@ABV01@@Z12
	DD	FLAT:__CT??_R0?AVbad_alloc@std@@@8??0bad_alloc@std@@QAE@ABV01@@Z12
	DD	FLAT:__CT??_R0?AVexception@std@@@8??0exception@std@@QAE@ABV01@@Z12
xdata$x	ENDS
;	COMDAT __TI3?AVbad_array_new_length@std@@
xdata$x	SEGMENT
__TI3?AVbad_array_new_length@std@@ DD 00H
	DD	FLAT:??1bad_array_new_length@std@@UAE@XZ
	DD	00H
	DD	FLAT:__CTA3?AVbad_array_new_length@std@@
xdata$x	ENDS
;	COMDAT ??_C@_0BF@KINCDENJ@bad?5array?5new?5length@
CONST	SEGMENT
??_C@_0BF@KINCDENJ@bad?5array?5new?5length@ DB 'bad array new length', 00H ; `string'
CONST	ENDS
;	COMDAT ??_7bad_array_new_length@std@@6B@
CONST	SEGMENT
??_7bad_array_new_length@std@@6B@ DD FLAT:??_R4bad_array_new_length@std@@6B@ ; std::bad_array_new_length::`vftable'
	DD	FLAT:??_Ebad_array_new_length@std@@UAEPAXI@Z
	DD	FLAT:?what@exception@std@@UBEPBDXZ
CONST	ENDS
;	COMDAT ??_7bad_alloc@std@@6B@
CONST	SEGMENT
??_7bad_alloc@std@@6B@ DD FLAT:??_R4bad_alloc@std@@6B@	; std::bad_alloc::`vftable'
	DD	FLAT:??_Ebad_alloc@std@@UAEPAXI@Z
	DD	FLAT:?what@exception@std@@UBEPBDXZ
CONST	ENDS
;	COMDAT ??_C@_0BC@EOODALEL@Unknown?5exception@
CONST	SEGMENT
??_C@_0BC@EOODALEL@Unknown?5exception@ DB 'Unknown exception', 00H ; `string'
CONST	ENDS
;	COMDAT ??_7exception@std@@6B@
CONST	SEGMENT
??_7exception@std@@6B@ DD FLAT:??_R4exception@std@@6B@	; std::exception::`vftable'
	DD	FLAT:??_Eexception@std@@UAEPAXI@Z
	DD	FLAT:?what@exception@std@@UBEPBDXZ
CONST	ENDS
;	COMDAT xdata$x
xdata$x	SEGMENT
__unwindtable$??$?0U?$pair@QAVCResource@@K@std@@@?$_Tree_temp_node@V?$allocator@U?$_Tree_node@U?$pair@QAVCResource@@K@std@@PAX@std@@@std@@@std@@QAE@AAV?$allocator@U?$_Tree_node@U?$pair@QAVCResource@@K@std@@PAX@std@@@1@PAU?$_Tree_node@U?$pair@QAVCResource@@K@std@@PAX@1@$$QAU?$pair@QAVCResource@@K@1@@Z DD 0ffffffffH
	DD	FLAT:__unwindfunclet$??$?0U?$pair@QAVCResource@@K@std@@@?$_Tree_temp_node@V?$allocator@U?$_Tree_node@U?$pair@QAVCResource@@K@std@@PAX@std@@@std@@@std@@QAE@AAV?$allocator@U?$_Tree_node@U?$pair@QAVCResource@@K@std@@PAX@std@@@1@PAU?$_Tree_node@U?$pair@QAVCResource@@K@std@@PAX@1@$$QAU?$pair@QAVCResource@@K@1@@Z$1
__ehfuncinfo$??$?0U?$pair@QAVCResource@@K@std@@@?$_Tree_temp_node@V?$allocator@U?$_Tree_node@U?$pair@QAVCResource@@K@std@@PAX@std@@@std@@@std@@QAE@AAV?$allocator@U?$_Tree_node@U?$pair@QAVCResource@@K@std@@PAX@std@@@1@PAU?$_Tree_node@U?$pair@QAVCResource@@K@std@@PAX@1@$$QAU?$pair@QAVCResource@@K@1@@Z DD 019930522H
	DD	01H
	DD	FLAT:__unwindtable$??$?0U?$pair@QAVCResource@@K@std@@@?$_Tree_temp_node@V?$allocator@U?$_Tree_node@U?$pair@QAVCResource@@K@std@@PAX@std@@@std@@@std@@QAE@AAV?$allocator@U?$_Tree_node@U?$pair@QAVCResource@@K@std@@PAX@std@@@1@PAU?$_Tree_node@U?$pair@QAVCResource@@K@std@@PAX@1@$$QAU?$pair@QAVCResource@@K@1@@Z
	DD	2 DUP(00H)
	DD	2 DUP(00H)
	DD	00H
	DD	01H
xdata$x	ENDS
;	COMDAT xdata$x
xdata$x	SEGMENT
__unwindtable$??0?$_Tree_temp_node_alloc@V?$allocator@U?$_Tree_node@U?$pair@QAVCResource@@K@std@@PAX@std@@@std@@@std@@QAE@AAV?$allocator@U?$_Tree_node@U?$pair@QAVCResource@@K@std@@PAX@std@@@1@@Z DD 0ffffffffH
	DD	FLAT:__unwindfunclet$??0?$_Tree_temp_node_alloc@V?$allocator@U?$_Tree_node@U?$pair@QAVCResource@@K@std@@PAX@std@@@std@@@std@@QAE@AAV?$allocator@U?$_Tree_node@U?$pair@QAVCResource@@K@std@@PAX@std@@@1@@Z$0
__ehfuncinfo$??0?$_Tree_temp_node_alloc@V?$allocator@U?$_Tree_node@U?$pair@QAVCResource@@K@std@@PAX@std@@@std@@@std@@QAE@AAV?$allocator@U?$_Tree_node@U?$pair@QAVCResource@@K@std@@PAX@std@@@1@@Z DD 019930522H
	DD	01H
	DD	FLAT:__unwindtable$??0?$_Tree_temp_node_alloc@V?$allocator@U?$_Tree_node@U?$pair@QAVCResource@@K@std@@PAX@std@@@std@@@std@@QAE@AAV?$allocator@U?$_Tree_node@U?$pair@QAVCResource@@K@std@@PAX@std@@@1@@Z
	DD	2 DUP(00H)
	DD	2 DUP(00H)
	DD	00H
	DD	01H
xdata$x	ENDS
;	COMDAT xdata$x
xdata$x	SEGMENT
__unwindtable$??$?0U?$pair@$$CBJPAVCResource@@@std@@@?$_Tree_temp_node@V?$allocator@U?$_Tree_node@U?$pair@$$CBJPAVCResource@@@std@@PAX@std@@@std@@@std@@QAE@AAV?$allocator@U?$_Tree_node@U?$pair@$$CBJPAVCResource@@@std@@PAX@std@@@1@PAU?$_Tree_node@U?$pair@$$CBJPAVCResource@@@std@@PAX@1@$$QAU?$pair@$$CBJPAVCResource@@@1@@Z DD 0ffffffffH
	DD	FLAT:__unwindfunclet$??$?0U?$pair@$$CBJPAVCResource@@@std@@@?$_Tree_temp_node@V?$allocator@U?$_Tree_node@U?$pair@$$CBJPAVCResource@@@std@@PAX@std@@@std@@@std@@QAE@AAV?$allocator@U?$_Tree_node@U?$pair@$$CBJPAVCResource@@@std@@PAX@std@@@1@PAU?$_Tree_node@U?$pair@$$CBJPAVCResource@@@std@@PAX@1@$$QAU?$pair@$$CBJPAVCResource@@@1@@Z$1
__ehfuncinfo$??$?0U?$pair@$$CBJPAVCResource@@@std@@@?$_Tree_temp_node@V?$allocator@U?$_Tree_node@U?$pair@$$CBJPAVCResource@@@std@@PAX@std@@@std@@@std@@QAE@AAV?$allocator@U?$_Tree_node@U?$pair@$$CBJPAVCResource@@@std@@PAX@std@@@1@PAU?$_Tree_node@U?$pair@$$CBJPAVCResource@@@std@@PAX@1@$$QAU?$pair@$$CBJPAVCResource@@@1@@Z DD 019930522H
	DD	01H
	DD	FLAT:__unwindtable$??$?0U?$pair@$$CBJPAVCResource@@@std@@@?$_Tree_temp_node@V?$allocator@U?$_Tree_node@U?$pair@$$CBJPAVCResource@@@std@@PAX@std@@@std@@@std@@QAE@AAV?$allocator@U?$_Tree_node@U?$pair@$$CBJPAVCResource@@@std@@PAX@std@@@1@PAU?$_Tree_node@U?$pair@$$CBJPAVCResource@@@std@@PAX@1@$$QAU?$pair@$$CBJPAVCResource@@@1@@Z
	DD	2 DUP(00H)
	DD	2 DUP(00H)
	DD	00H
	DD	01H
xdata$x	ENDS
;	COMDAT xdata$x
xdata$x	SEGMENT
__unwindtable$??0?$_Tree_temp_node_alloc@V?$allocator@U?$_Tree_node@U?$pair@$$CBJPAVCResource@@@std@@PAX@std@@@std@@@std@@QAE@AAV?$allocator@U?$_Tree_node@U?$pair@$$CBJPAVCResource@@@std@@PAX@std@@@1@@Z DD 0ffffffffH
	DD	FLAT:__unwindfunclet$??0?$_Tree_temp_node_alloc@V?$allocator@U?$_Tree_node@U?$pair@$$CBJPAVCResource@@@std@@PAX@std@@@std@@@std@@QAE@AAV?$allocator@U?$_Tree_node@U?$pair@$$CBJPAVCResource@@@std@@PAX@std@@@1@@Z$0
__ehfuncinfo$??0?$_Tree_temp_node_alloc@V?$allocator@U?$_Tree_node@U?$pair@$$CBJPAVCResource@@@std@@PAX@std@@@std@@@std@@QAE@AAV?$allocator@U?$_Tree_node@U?$pair@$$CBJPAVCResource@@@std@@PAX@std@@@1@@Z DD 019930522H
	DD	01H
	DD	FLAT:__unwindtable$??0?$_Tree_temp_node_alloc@V?$allocator@U?$_Tree_node@U?$pair@$$CBJPAVCResource@@@std@@PAX@std@@@std@@@std@@QAE@AAV?$allocator@U?$_Tree_node@U?$pair@$$CBJPAVCResource@@@std@@PAX@std@@@1@@Z
	DD	2 DUP(00H)
	DD	2 DUP(00H)
	DD	00H
	DD	01H
xdata$x	ENDS
;	COMDAT xdata$x
xdata$x	SEGMENT
__unwindtable$??$?0U?$pair@$$CBKV?$basic_string@DU?$char_traits@D@std@@V?$allocator@D@2@@std@@@std@@@?$_Tree_temp_node@V?$allocator@U?$_Tree_node@U?$pair@$$CBKV?$basic_string@DU?$char_traits@D@std@@V?$allocator@D@2@@std@@@std@@PAX@std@@@std@@@std@@QAE@AAV?$allocator@U?$_Tree_node@U?$pair@$$CBKV?$basic_string@DU?$char_traits@D@std@@V?$allocator@D@2@@std@@@std@@PAX@std@@@1@PAU?$_Tree_node@U?$pair@$$CBKV?$basic_string@DU?$char_traits@D@std@@V?$allocator@D@2@@std@@@std@@PAX@1@$$QAU?$pair@$$CBKV?$basic_string@DU?$char_traits@D@std@@V?$allocator@D@2@@std@@@1@@Z DD 0ffffffffH
	DD	FLAT:__unwindfunclet$??$?0U?$pair@$$CBKV?$basic_string@DU?$char_traits@D@std@@V?$allocator@D@2@@std@@@std@@@?$_Tree_temp_node@V?$allocator@U?$_Tree_node@U?$pair@$$CBKV?$basic_string@DU?$char_traits@D@std@@V?$allocator@D@2@@std@@@std@@PAX@std@@@std@@@std@@QAE@AAV?$allocator@U?$_Tree_node@U?$pair@$$CBKV?$basic_string@DU?$char_traits@D@std@@V?$allocator@D@2@@std@@@std@@PAX@std@@@1@PAU?$_Tree_node@U?$pair@$$CBKV?$basic_string@DU?$char_traits@D@std@@V?$allocator@D@2@@std@@@std@@PAX@1@$$QAU?$pair@$$CBKV?$basic_string@DU?$char_traits@D@std@@V?$allocator@D@2@@std@@@1@@Z$1
__ehfuncinfo$??$?0U?$pair@$$CBKV?$basic_string@DU?$char_traits@D@std@@V?$allocator@D@2@@std@@@std@@@?$_Tree_temp_node@V?$allocator@U?$_Tree_node@U?$pair@$$CBKV?$basic_string@DU?$char_traits@D@std@@V?$allocator@D@2@@std@@@std@@PAX@std@@@std@@@std@@QAE@AAV?$allocator@U?$_Tree_node@U?$pair@$$CBKV?$basic_string@DU?$char_traits@D@std@@V?$allocator@D@2@@std@@@std@@PAX@std@@@1@PAU?$_Tree_node@U?$pair@$$CBKV?$basic_string@DU?$char_traits@D@std@@V?$allocator@D@2@@std@@@std@@PAX@1@$$QAU?$pair@$$CBKV?$basic_string@DU?$char_traits@D@std@@V?$allocator@D@2@@std@@@1@@Z DD 019930522H
	DD	01H
	DD	FLAT:__unwindtable$??$?0U?$pair@$$CBKV?$basic_string@DU?$char_traits@D@std@@V?$allocator@D@2@@std@@@std@@@?$_Tree_temp_node@V?$allocator@U?$_Tree_node@U?$pair@$$CBKV?$basic_string@DU?$char_traits@D@std@@V?$allocator@D@2@@std@@@std@@PAX@std@@@std@@@std@@QAE@AAV?$allocator@U?$_Tree_node@U?$pair@$$CBKV?$basic_string@DU?$char_traits@D@std@@V?$allocator@D@2@@std@@@std@@PAX@std@@@1@PAU?$_Tree_node@U?$pair@$$CBKV?$basic_string@DU?$char_traits@D@std@@V?$allocator@D@2@@std@@@std@@PAX@1@$$QAU?$pair@$$CBKV?$basic_string@DU?$char_traits@D@std@@V?$allocator@D@2@@std@@@1@@Z
	DD	2 DUP(00H)
	DD	2 DUP(00H)
	DD	00H
	DD	01H
xdata$x	ENDS
;	COMDAT xdata$x
xdata$x	SEGMENT
__unwindtable$??0?$_Tree_temp_node_alloc@V?$allocator@U?$_Tree_node@U?$pair@$$CBKV?$basic_string@DU?$char_traits@D@std@@V?$allocator@D@2@@std@@@std@@PAX@std@@@std@@@std@@QAE@AAV?$allocator@U?$_Tree_node@U?$pair@$$CBKV?$basic_string@DU?$char_traits@D@std@@V?$allocator@D@2@@std@@@std@@PAX@std@@@1@@Z DD 0ffffffffH
	DD	FLAT:__unwindfunclet$??0?$_Tree_temp_node_alloc@V?$allocator@U?$_Tree_node@U?$pair@$$CBKV?$basic_string@DU?$char_traits@D@std@@V?$allocator@D@2@@std@@@std@@PAX@std@@@std@@@std@@QAE@AAV?$allocator@U?$_Tree_node@U?$pair@$$CBKV?$basic_string@DU?$char_traits@D@std@@V?$allocator@D@2@@std@@@std@@PAX@std@@@1@@Z$0
__ehfuncinfo$??0?$_Tree_temp_node_alloc@V?$allocator@U?$_Tree_node@U?$pair@$$CBKV?$basic_string@DU?$char_traits@D@std@@V?$allocator@D@2@@std@@@std@@PAX@std@@@std@@@std@@QAE@AAV?$allocator@U?$_Tree_node@U?$pair@$$CBKV?$basic_string@DU?$char_traits@D@std@@V?$allocator@D@2@@std@@@std@@PAX@std@@@1@@Z DD 019930522H
	DD	01H
	DD	FLAT:__unwindtable$??0?$_Tree_temp_node_alloc@V?$allocator@U?$_Tree_node@U?$pair@$$CBKV?$basic_string@DU?$char_traits@D@std@@V?$allocator@D@2@@std@@@std@@PAX@std@@@std@@@std@@QAE@AAV?$allocator@U?$_Tree_node@U?$pair@$$CBKV?$basic_string@DU?$char_traits@D@std@@V?$allocator@D@2@@std@@@std@@PAX@std@@@1@@Z
	DD	2 DUP(00H)
	DD	2 DUP(00H)
	DD	00H
	DD	01H
xdata$x	ENDS
;	COMDAT xdata$x
xdata$x	SEGMENT
__unwindtable$??$?0U?$pair@$$CBKPAVCResource@@@std@@@?$_Tree_temp_node@V?$allocator@U?$_Tree_node@U?$pair@$$CBKPAVCResource@@@std@@PAX@std@@@std@@@std@@QAE@AAV?$allocator@U?$_Tree_node@U?$pair@$$CBKPAVCResource@@@std@@PAX@std@@@1@PAU?$_Tree_node@U?$pair@$$CBKPAVCResource@@@std@@PAX@1@$$QAU?$pair@$$CBKPAVCResource@@@1@@Z DD 0ffffffffH
	DD	FLAT:__unwindfunclet$??$?0U?$pair@$$CBKPAVCResource@@@std@@@?$_Tree_temp_node@V?$allocator@U?$_Tree_node@U?$pair@$$CBKPAVCResource@@@std@@PAX@std@@@std@@@std@@QAE@AAV?$allocator@U?$_Tree_node@U?$pair@$$CBKPAVCResource@@@std@@PAX@std@@@1@PAU?$_Tree_node@U?$pair@$$CBKPAVCResource@@@std@@PAX@1@$$QAU?$pair@$$CBKPAVCResource@@@1@@Z$1
__ehfuncinfo$??$?0U?$pair@$$CBKPAVCResource@@@std@@@?$_Tree_temp_node@V?$allocator@U?$_Tree_node@U?$pair@$$CBKPAVCResource@@@std@@PAX@std@@@std@@@std@@QAE@AAV?$allocator@U?$_Tree_node@U?$pair@$$CBKPAVCResource@@@std@@PAX@std@@@1@PAU?$_Tree_node@U?$pair@$$CBKPAVCResource@@@std@@PAX@1@$$QAU?$pair@$$CBKPAVCResource@@@1@@Z DD 019930522H
	DD	01H
	DD	FLAT:__unwindtable$??$?0U?$pair@$$CBKPAVCResource@@@std@@@?$_Tree_temp_node@V?$allocator@U?$_Tree_node@U?$pair@$$CBKPAVCResource@@@std@@PAX@std@@@std@@@std@@QAE@AAV?$allocator@U?$_Tree_node@U?$pair@$$CBKPAVCResource@@@std@@PAX@std@@@1@PAU?$_Tree_node@U?$pair@$$CBKPAVCResource@@@std@@PAX@1@$$QAU?$pair@$$CBKPAVCResource@@@1@@Z
	DD	2 DUP(00H)
	DD	2 DUP(00H)
	DD	00H
	DD	01H
xdata$x	ENDS
;	COMDAT xdata$x
xdata$x	SEGMENT
__unwindtable$??0?$_Tree_temp_node_alloc@V?$allocator@U?$_Tree_node@U?$pair@$$CBKPAVCResource@@@std@@PAX@std@@@std@@@std@@QAE@AAV?$allocator@U?$_Tree_node@U?$pair@$$CBKPAVCResource@@@std@@PAX@std@@@1@@Z DD 0ffffffffH
	DD	FLAT:__unwindfunclet$??0?$_Tree_temp_node_alloc@V?$allocator@U?$_Tree_node@U?$pair@$$CBKPAVCResource@@@std@@PAX@std@@@std@@@std@@QAE@AAV?$allocator@U?$_Tree_node@U?$pair@$$CBKPAVCResource@@@std@@PAX@std@@@1@@Z$0
__ehfuncinfo$??0?$_Tree_temp_node_alloc@V?$allocator@U?$_Tree_node@U?$pair@$$CBKPAVCResource@@@std@@PAX@std@@@std@@@std@@QAE@AAV?$allocator@U?$_Tree_node@U?$pair@$$CBKPAVCResource@@@std@@PAX@std@@@1@@Z DD 019930522H
	DD	01H
	DD	FLAT:__unwindtable$??0?$_Tree_temp_node_alloc@V?$allocator@U?$_Tree_node@U?$pair@$$CBKPAVCResource@@@std@@PAX@std@@@std@@@std@@QAE@AAV?$allocator@U?$_Tree_node@U?$pair@$$CBKPAVCResource@@@std@@PAX@std@@@1@@Z
	DD	2 DUP(00H)
	DD	2 DUP(00H)
	DD	00H
	DD	01H
xdata$x	ENDS
;	COMDAT xdata$x
xdata$x	SEGMENT
__unwindtable$??$?0ABUpiecewise_construct_t@std@@V?$tuple@$$QAV?$basic_string@DU?$char_traits@D@std@@V?$allocator@D@2@@std@@@1@V?$tuple@$$V@1@@?$_Tree_temp_node@V?$allocator@U?$_Tree_node@U?$pair@$$CBV?$basic_string@DU?$char_traits@D@std@@V?$allocator@D@2@@std@@P6APAVCResource@@PBD@Z@std@@PAX@std@@@std@@@std@@QAE@AAV?$allocator@U?$_Tree_node@U?$pair@$$CBV?$basic_string@DU?$char_traits@D@std@@V?$allocator@D@2@@std@@P6APAVCResource@@PBD@Z@std@@PAX@std@@@1@PAU?$_Tree_node@U?$pair@$$CBV?$basic_string@DU?$char_traits@D@std@@V?$allocator@D@2@@std@@P6APAVCResource@@PBD@Z@std@@PAX@1@ABUpiecewise_construct_t@1@$$QAV?$tuple@$$QAV?$basic_string@DU?$char_traits@D@std@@V?$allocator@D@2@@std@@@1@$$QAV?$tuple@$$V@1@@Z DD 0ffffffffH
	DD	FLAT:__unwindfunclet$??$?0ABUpiecewise_construct_t@std@@V?$tuple@$$QAV?$basic_string@DU?$char_traits@D@std@@V?$allocator@D@2@@std@@@1@V?$tuple@$$V@1@@?$_Tree_temp_node@V?$allocator@U?$_Tree_node@U?$pair@$$CBV?$basic_string@DU?$char_traits@D@std@@V?$allocator@D@2@@std@@P6APAVCResource@@PBD@Z@std@@PAX@std@@@std@@@std@@QAE@AAV?$allocator@U?$_Tree_node@U?$pair@$$CBV?$basic_string@DU?$char_traits@D@std@@V?$allocator@D@2@@std@@P6APAVCResource@@PBD@Z@std@@PAX@std@@@1@PAU?$_Tree_node@U?$pair@$$CBV?$basic_string@DU?$char_traits@D@std@@V?$allocator@D@2@@std@@P6APAVCResource@@PBD@Z@std@@PAX@1@ABUpiecewise_construct_t@1@$$QAV?$tuple@$$QAV?$basic_string@DU?$char_traits@D@std@@V?$allocator@D@2@@std@@@1@$$QAV?$tuple@$$V@1@@Z$1
__ehfuncinfo$??$?0ABUpiecewise_construct_t@std@@V?$tuple@$$QAV?$basic_string@DU?$char_traits@D@std@@V?$allocator@D@2@@std@@@1@V?$tuple@$$V@1@@?$_Tree_temp_node@V?$allocator@U?$_Tree_node@U?$pair@$$CBV?$basic_string@DU?$char_traits@D@std@@V?$allocator@D@2@@std@@P6APAVCResource@@PBD@Z@std@@PAX@std@@@std@@@std@@QAE@AAV?$allocator@U?$_Tree_node@U?$pair@$$CBV?$basic_string@DU?$char_traits@D@std@@V?$allocator@D@2@@std@@P6APAVCResource@@PBD@Z@std@@PAX@std@@@1@PAU?$_Tree_node@U?$pair@$$CBV?$basic_string@DU?$char_traits@D@std@@V?$allocator@D@2@@std@@P6APAVCResource@@PBD@Z@std@@PAX@1@ABUpiecewise_construct_t@1@$$QAV?$tuple@$$QAV?$basic_string@DU?$char_traits@D@std@@V?$allocator@D@2@@std@@@1@$$QAV?$tuple@$$V@1@@Z DD 019930522H
	DD	01H
	DD	FLAT:__unwindtable$??$?0ABUpiecewise_construct_t@std@@V?$tuple@$$QAV?$basic_string@DU?$char_traits@D@std@@V?$allocator@D@2@@std@@@1@V?$tuple@$$V@1@@?$_Tree_temp_node@V?$allocator@U?$_Tree_node@U?$pair@$$CBV?$basic_string@DU?$char_traits@D@std@@V?$allocator@D@2@@std@@P6APAVCResource@@PBD@Z@std@@PAX@std@@@std@@@std@@QAE@AAV?$allocator@U?$_Tree_node@U?$pair@$$CBV?$basic_string@DU?$char_traits@D@std@@V?$allocator@D@2@@std@@P6APAVCResource@@PBD@Z@std@@PAX@std@@@1@PAU?$_Tree_node@U?$pair@$$CBV?$basic_string@DU?$char_traits@D@std@@V?$allocator@D@2@@std@@P6APAVCResource@@PBD@Z@std@@PAX@1@ABUpiecewise_construct_t@1@$$QAV?$tuple@$$QAV?$basic_string@DU?$char_traits@D@std@@V?$allocator@D@2@@std@@@1@$$QAV?$tuple@$$V@1@@Z
	DD	2 DUP(00H)
	DD	2 DUP(00H)
	DD	00H
	DD	01H
xdata$x	ENDS
;	COMDAT xdata$x
xdata$x	SEGMENT
__unwindtable$??0?$_Tree_temp_node_alloc@V?$allocator@U?$_Tree_node@U?$pair@$$CBV?$basic_string@DU?$char_traits@D@std@@V?$allocator@D@2@@std@@P6APAVCResource@@PBD@Z@std@@PAX@std@@@std@@@std@@QAE@AAV?$allocator@U?$_Tree_node@U?$pair@$$CBV?$basic_string@DU?$char_traits@D@std@@V?$allocator@D@2@@std@@P6APAVCResource@@PBD@Z@std@@PAX@std@@@1@@Z DD 0ffffffffH
	DD	FLAT:__unwindfunclet$??0?$_Tree_temp_node_alloc@V?$allocator@U?$_Tree_node@U?$pair@$$CBV?$basic_string@DU?$char_traits@D@std@@V?$allocator@D@2@@std@@P6APAVCResource@@PBD@Z@std@@PAX@std@@@std@@@std@@QAE@AAV?$allocator@U?$_Tree_node@U?$pair@$$CBV?$basic_string@DU?$char_traits@D@std@@V?$allocator@D@2@@std@@P6APAVCResource@@PBD@Z@std@@PAX@std@@@1@@Z$0
__ehfuncinfo$??0?$_Tree_temp_node_alloc@V?$allocator@U?$_Tree_node@U?$pair@$$CBV?$basic_string@DU?$char_traits@D@std@@V?$allocator@D@2@@std@@P6APAVCResource@@PBD@Z@std@@PAX@std@@@std@@@std@@QAE@AAV?$allocator@U?$_Tree_node@U?$pair@$$CBV?$basic_string@DU?$char_traits@D@std@@V?$allocator@D@2@@std@@P6APAVCResource@@PBD@Z@std@@PAX@std@@@1@@Z DD 019930522H
	DD	01H
	DD	FLAT:__unwindtable$??0?$_Tree_temp_node_alloc@V?$allocator@U?$_Tree_node@U?$pair@$$CBV?$basic_string@DU?$char_traits@D@std@@V?$allocator@D@2@@std@@P6APAVCResource@@PBD@Z@std@@PAX@std@@@std@@@std@@QAE@AAV?$allocator@U?$_Tree_node@U?$pair@$$CBV?$basic_string@DU?$char_traits@D@std@@V?$allocator@D@2@@std@@P6APAVCResource@@PBD@Z@std@@PAX@std@@@1@@Z
	DD	2 DUP(00H)
	DD	2 DUP(00H)
	DD	00H
	DD	01H
xdata$x	ENDS
;	COMDAT xdata$x
xdata$x	SEGMENT
__unwindtable$??$?0ABUpiecewise_construct_t@std@@V?$tuple@ABH@1@V?$tuple@$$V@1@@?$_Tree_temp_node@V?$allocator@U?$_Tree_node@U?$pair@$$CBHP6APAVCResource@@PBD@Z@std@@PAX@std@@@std@@@std@@QAE@AAV?$allocator@U?$_Tree_node@U?$pair@$$CBHP6APAVCResource@@PBD@Z@std@@PAX@std@@@1@PAU?$_Tree_node@U?$pair@$$CBHP6APAVCResource@@PBD@Z@std@@PAX@1@ABUpiecewise_construct_t@1@$$QAV?$tuple@ABH@1@$$QAV?$tuple@$$V@1@@Z DD 0ffffffffH
	DD	FLAT:__unwindfunclet$??$?0ABUpiecewise_construct_t@std@@V?$tuple@ABH@1@V?$tuple@$$V@1@@?$_Tree_temp_node@V?$allocator@U?$_Tree_node@U?$pair@$$CBHP6APAVCResource@@PBD@Z@std@@PAX@std@@@std@@@std@@QAE@AAV?$allocator@U?$_Tree_node@U?$pair@$$CBHP6APAVCResource@@PBD@Z@std@@PAX@std@@@1@PAU?$_Tree_node@U?$pair@$$CBHP6APAVCResource@@PBD@Z@std@@PAX@1@ABUpiecewise_construct_t@1@$$QAV?$tuple@ABH@1@$$QAV?$tuple@$$V@1@@Z$1
__ehfuncinfo$??$?0ABUpiecewise_construct_t@std@@V?$tuple@ABH@1@V?$tuple@$$V@1@@?$_Tree_temp_node@V?$allocator@U?$_Tree_node@U?$pair@$$CBHP6APAVCResource@@PBD@Z@std@@PAX@std@@@std@@@std@@QAE@AAV?$allocator@U?$_Tree_node@U?$pair@$$CBHP6APAVCResource@@PBD@Z@std@@PAX@std@@@1@PAU?$_Tree_node@U?$pair@$$CBHP6APAVCResource@@PBD@Z@std@@PAX@1@ABUpiecewise_construct_t@1@$$QAV?$tuple@ABH@1@$$QAV?$tuple@$$V@1@@Z DD 019930522H
	DD	01H
	DD	FLAT:__unwindtable$??$?0ABUpiecewise_construct_t@std@@V?$tuple@ABH@1@V?$tuple@$$V@1@@?$_Tree_temp_node@V?$allocator@U?$_Tree_node@U?$pair@$$CBHP6APAVCResource@@PBD@Z@std@@PAX@std@@@std@@@std@@QAE@AAV?$allocator@U?$_Tree_node@U?$pair@$$CBHP6APAVCResource@@PBD@Z@std@@PAX@std@@@1@PAU?$_Tree_node@U?$pair@$$CBHP6APAVCResource@@PBD@Z@std@@PAX@1@ABUpiecewise_construct_t@1@$$QAV?$tuple@ABH@1@$$QAV?$tuple@$$V@1@@Z
	DD	2 DUP(00H)
	DD	2 DUP(00H)
	DD	00H
	DD	01H
xdata$x	ENDS
;	COMDAT xdata$x
xdata$x	SEGMENT
__unwindtable$??0?$_Tree_temp_node_alloc@V?$allocator@U?$_Tree_node@U?$pair@$$CBHP6APAVCResource@@PBD@Z@std@@PAX@std@@@std@@@std@@QAE@AAV?$allocator@U?$_Tree_node@U?$pair@$$CBHP6APAVCResource@@PBD@Z@std@@PAX@std@@@1@@Z DD 0ffffffffH
	DD	FLAT:__unwindfunclet$??0?$_Tree_temp_node_alloc@V?$allocator@U?$_Tree_node@U?$pair@$$CBHP6APAVCResource@@PBD@Z@std@@PAX@std@@@std@@@std@@QAE@AAV?$allocator@U?$_Tree_node@U?$pair@$$CBHP6APAVCResource@@PBD@Z@std@@PAX@std@@@1@@Z$0
__ehfuncinfo$??0?$_Tree_temp_node_alloc@V?$allocator@U?$_Tree_node@U?$pair@$$CBHP6APAVCResource@@PBD@Z@std@@PAX@std@@@std@@@std@@QAE@AAV?$allocator@U?$_Tree_node@U?$pair@$$CBHP6APAVCResource@@PBD@Z@std@@PAX@std@@@1@@Z DD 019930522H
	DD	01H
	DD	FLAT:__unwindtable$??0?$_Tree_temp_node_alloc@V?$allocator@U?$_Tree_node@U?$pair@$$CBHP6APAVCResource@@PBD@Z@std@@PAX@std@@@std@@@std@@QAE@AAV?$allocator@U?$_Tree_node@U?$pair@$$CBHP6APAVCResource@@PBD@Z@std@@PAX@std@@@1@@Z
	DD	2 DUP(00H)
	DD	2 DUP(00H)
	DD	00H
	DD	01H
xdata$x	ENDS
;	COMDAT xdata$x
xdata$x	SEGMENT
__unwindtable$??$_Emplace@U?$pair@QAVCResource@@K@std@@@?$_Tree@V?$_Tmap_traits@PAVCResource@@KU?$less@PAVCResource@@@std@@V?$allocator@U?$pair@QAVCResource@@K@std@@@3@$0A@@std@@@std@@IAE?AU?$pair@PAU?$_Tree_node@U?$pair@QAVCResource@@K@std@@PAX@std@@_N@1@$$QAU?$pair@QAVCResource@@K@1@@Z DD 0ffffffffH
	DD	FLAT:__unwindfunclet$??$_Emplace@U?$pair@QAVCResource@@K@std@@@?$_Tree@V?$_Tmap_traits@PAVCResource@@KU?$less@PAVCResource@@@std@@V?$allocator@U?$pair@QAVCResource@@K@std@@@3@$0A@@std@@@std@@IAE?AU?$pair@PAU?$_Tree_node@U?$pair@QAVCResource@@K@std@@PAX@std@@_N@1@$$QAU?$pair@QAVCResource@@K@1@@Z$2
__ehfuncinfo$??$_Emplace@U?$pair@QAVCResource@@K@std@@@?$_Tree@V?$_Tmap_traits@PAVCResource@@KU?$less@PAVCResource@@@std@@V?$allocator@U?$pair@QAVCResource@@K@std@@@3@$0A@@std@@@std@@IAE?AU?$pair@PAU?$_Tree_node@U?$pair@QAVCResource@@K@std@@PAX@std@@_N@1@$$QAU?$pair@QAVCResource@@K@1@@Z DD 019930522H
	DD	01H
	DD	FLAT:__unwindtable$??$_Emplace@U?$pair@QAVCResource@@K@std@@@?$_Tree@V?$_Tmap_traits@PAVCResource@@KU?$less@PAVCResource@@@std@@V?$allocator@U?$pair@QAVCResource@@K@std@@@3@$0A@@std@@@std@@IAE?AU?$pair@PAU?$_Tree_node@U?$pair@QAVCResource@@K@std@@PAX@std@@_N@1@$$QAU?$pair@QAVCResource@@K@1@@Z
	DD	2 DUP(00H)
	DD	2 DUP(00H)
	DD	00H
	DD	01H
xdata$x	ENDS
;	COMDAT xdata$x
xdata$x	SEGMENT
__unwindtable$??$_Emplace@U?$pair@$$CBJPAVCResource@@@std@@@?$_Tree@V?$_Tmap_traits@JPAVCResource@@U?$less@J@std@@V?$allocator@U?$pair@$$CBJPAVCResource@@@std@@@3@$0A@@std@@@std@@IAE?AU?$pair@PAU?$_Tree_node@U?$pair@$$CBJPAVCResource@@@std@@PAX@std@@_N@1@$$QAU?$pair@$$CBJPAVCResource@@@1@@Z DD 0ffffffffH
	DD	FLAT:__unwindfunclet$??$_Emplace@U?$pair@$$CBJPAVCResource@@@std@@@?$_Tree@V?$_Tmap_traits@JPAVCResource@@U?$less@J@std@@V?$allocator@U?$pair@$$CBJPAVCResource@@@std@@@3@$0A@@std@@@std@@IAE?AU?$pair@PAU?$_Tree_node@U?$pair@$$CBJPAVCResource@@@std@@PAX@std@@_N@1@$$QAU?$pair@$$CBJPAVCResource@@@1@@Z$2
__ehfuncinfo$??$_Emplace@U?$pair@$$CBJPAVCResource@@@std@@@?$_Tree@V?$_Tmap_traits@JPAVCResource@@U?$less@J@std@@V?$allocator@U?$pair@$$CBJPAVCResource@@@std@@@3@$0A@@std@@@std@@IAE?AU?$pair@PAU?$_Tree_node@U?$pair@$$CBJPAVCResource@@@std@@PAX@std@@_N@1@$$QAU?$pair@$$CBJPAVCResource@@@1@@Z DD 019930522H
	DD	01H
	DD	FLAT:__unwindtable$??$_Emplace@U?$pair@$$CBJPAVCResource@@@std@@@?$_Tree@V?$_Tmap_traits@JPAVCResource@@U?$less@J@std@@V?$allocator@U?$pair@$$CBJPAVCResource@@@std@@@3@$0A@@std@@@std@@IAE?AU?$pair@PAU?$_Tree_node@U?$pair@$$CBJPAVCResource@@@std@@PAX@std@@_N@1@$$QAU?$pair@$$CBJPAVCResource@@@1@@Z
	DD	2 DUP(00H)
	DD	2 DUP(00H)
	DD	00H
	DD	01H
xdata$x	ENDS
;	COMDAT xdata$x
xdata$x	SEGMENT
__unwindtable$??$_Emplace@U?$pair@$$CBKV?$basic_string@DU?$char_traits@D@std@@V?$allocator@D@2@@std@@@std@@@?$_Tree@V?$_Tmap_traits@KV?$basic_string@DU?$char_traits@D@std@@V?$allocator@D@2@@std@@U?$less@K@2@V?$allocator@U?$pair@$$CBKV?$basic_string@DU?$char_traits@D@std@@V?$allocator@D@2@@std@@@std@@@2@$0A@@std@@@std@@IAE?AU?$pair@PAU?$_Tree_node@U?$pair@$$CBKV?$basic_string@DU?$char_traits@D@std@@V?$allocator@D@2@@std@@@std@@PAX@std@@_N@1@$$QAU?$pair@$$CBKV?$basic_string@DU?$char_traits@D@std@@V?$allocator@D@2@@std@@@1@@Z DD 0ffffffffH
	DD	FLAT:__unwindfunclet$??$_Emplace@U?$pair@$$CBKV?$basic_string@DU?$char_traits@D@std@@V?$allocator@D@2@@std@@@std@@@?$_Tree@V?$_Tmap_traits@KV?$basic_string@DU?$char_traits@D@std@@V?$allocator@D@2@@std@@U?$less@K@2@V?$allocator@U?$pair@$$CBKV?$basic_string@DU?$char_traits@D@std@@V?$allocator@D@2@@std@@@std@@@2@$0A@@std@@@std@@IAE?AU?$pair@PAU?$_Tree_node@U?$pair@$$CBKV?$basic_string@DU?$char_traits@D@std@@V?$allocator@D@2@@std@@@std@@PAX@std@@_N@1@$$QAU?$pair@$$CBKV?$basic_string@DU?$char_traits@D@std@@V?$allocator@D@2@@std@@@1@@Z$2
__ehfuncinfo$??$_Emplace@U?$pair@$$CBKV?$basic_string@DU?$char_traits@D@std@@V?$allocator@D@2@@std@@@std@@@?$_Tree@V?$_Tmap_traits@KV?$basic_string@DU?$char_traits@D@std@@V?$allocator@D@2@@std@@U?$less@K@2@V?$allocator@U?$pair@$$CBKV?$basic_string@DU?$char_traits@D@std@@V?$allocator@D@2@@std@@@std@@@2@$0A@@std@@@std@@IAE?AU?$pair@PAU?$_Tree_node@U?$pair@$$CBKV?$basic_string@DU?$char_traits@D@std@@V?$allocator@D@2@@std@@@std@@PAX@std@@_N@1@$$QAU?$pair@$$CBKV?$basic_string@DU?$char_traits@D@std@@V?$allocator@D@2@@std@@@1@@Z DD 019930522H
	DD	01H
	DD	FLAT:__unwindtable$??$_Emplace@U?$pair@$$CBKV?$basic_string@DU?$char_traits@D@std@@V?$allocator@D@2@@std@@@std@@@?$_Tree@V?$_Tmap_traits@KV?$basic_string@DU?$char_traits@D@std@@V?$allocator@D@2@@std@@U?$less@K@2@V?$allocator@U?$pair@$$CBKV?$basic_string@DU?$char_traits@D@std@@V?$allocator@D@2@@std@@@std@@@2@$0A@@std@@@std@@IAE?AU?$pair@PAU?$_Tree_node@U?$pair@$$CBKV?$basic_string@DU?$char_traits@D@std@@V?$allocator@D@2@@std@@@std@@PAX@std@@_N@1@$$QAU?$pair@$$CBKV?$basic_string@DU?$char_traits@D@std@@V?$allocator@D@2@@std@@@1@@Z
	DD	2 DUP(00H)
	DD	2 DUP(00H)
	DD	00H
	DD	01H
xdata$x	ENDS
;	COMDAT xdata$x
xdata$x	SEGMENT
__unwindtable$??$_Emplace@U?$pair@$$CBKPAVCResource@@@std@@@?$_Tree@V?$_Tmap_traits@KPAVCResource@@U?$less@K@std@@V?$allocator@U?$pair@$$CBKPAVCResource@@@std@@@3@$0A@@std@@@std@@IAE?AU?$pair@PAU?$_Tree_node@U?$pair@$$CBKPAVCResource@@@std@@PAX@std@@_N@1@$$QAU?$pair@$$CBKPAVCResource@@@1@@Z DD 0ffffffffH
	DD	FLAT:__unwindfunclet$??$_Emplace@U?$pair@$$CBKPAVCResource@@@std@@@?$_Tree@V?$_Tmap_traits@KPAVCResource@@U?$less@K@std@@V?$allocator@U?$pair@$$CBKPAVCResource@@@std@@@3@$0A@@std@@@std@@IAE?AU?$pair@PAU?$_Tree_node@U?$pair@$$CBKPAVCResource@@@std@@PAX@std@@_N@1@$$QAU?$pair@$$CBKPAVCResource@@@1@@Z$2
__ehfuncinfo$??$_Emplace@U?$pair@$$CBKPAVCResource@@@std@@@?$_Tree@V?$_Tmap_traits@KPAVCResource@@U?$less@K@std@@V?$allocator@U?$pair@$$CBKPAVCResource@@@std@@@3@$0A@@std@@@std@@IAE?AU?$pair@PAU?$_Tree_node@U?$pair@$$CBKPAVCResource@@@std@@PAX@std@@_N@1@$$QAU?$pair@$$CBKPAVCResource@@@1@@Z DD 019930522H
	DD	01H
	DD	FLAT:__unwindtable$??$_Emplace@U?$pair@$$CBKPAVCResource@@@std@@@?$_Tree@V?$_Tmap_traits@KPAVCResource@@U?$less@K@std@@V?$allocator@U?$pair@$$CBKPAVCResource@@@std@@@3@$0A@@std@@@std@@IAE?AU?$pair@PAU?$_Tree_node@U?$pair@$$CBKPAVCResource@@@std@@PAX@std@@_N@1@$$QAU?$pair@$$CBKPAVCResource@@@1@@Z
	DD	2 DUP(00H)
	DD	2 DUP(00H)
	DD	00H
	DD	01H
xdata$x	ENDS
;	COMDAT xdata$x
xdata$x	SEGMENT
__unwindtable$??$_Try_emplace@V?$basic_string@DU?$char_traits@D@std@@V?$allocator@D@2@@std@@$$V@?$map@V?$basic_string@DU?$char_traits@D@std@@V?$allocator@D@2@@std@@P6APAVCResource@@PBD@ZU?$less@V?$basic_string@DU?$char_traits@D@std@@V?$allocator@D@2@@std@@@2@V?$allocator@U?$pair@$$CBV?$basic_string@DU?$char_traits@D@std@@V?$allocator@D@2@@std@@P6APAVCResource@@PBD@Z@std@@@2@@std@@AAE?AU?$pair@PAU?$_Tree_node@U?$pair@$$CBV?$basic_string@DU?$char_traits@D@std@@V?$allocator@D@2@@std@@P6APAVCResource@@PBD@Z@std@@PAX@std@@_N@1@$$QAV?$basic_string@DU?$char_traits@D@std@@V?$allocator@D@2@@1@@Z DD 0ffffffffH
	DD	FLAT:__unwindfunclet$??$_Try_emplace@V?$basic_string@DU?$char_traits@D@std@@V?$allocator@D@2@@std@@$$V@?$map@V?$basic_string@DU?$char_traits@D@std@@V?$allocator@D@2@@std@@P6APAVCResource@@PBD@ZU?$less@V?$basic_string@DU?$char_traits@D@std@@V?$allocator@D@2@@std@@@2@V?$allocator@U?$pair@$$CBV?$basic_string@DU?$char_traits@D@std@@V?$allocator@D@2@@std@@P6APAVCResource@@PBD@Z@std@@@2@@std@@AAE?AU?$pair@PAU?$_Tree_node@U?$pair@$$CBV?$basic_string@DU?$char_traits@D@std@@V?$allocator@D@2@@std@@P6APAVCResource@@PBD@Z@std@@PAX@std@@_N@1@$$QAV?$basic_string@DU?$char_traits@D@std@@V?$allocator@D@2@@1@@Z$2
__ehfuncinfo$??$_Try_emplace@V?$basic_string@DU?$char_traits@D@std@@V?$allocator@D@2@@std@@$$V@?$map@V?$basic_string@DU?$char_traits@D@std@@V?$allocator@D@2@@std@@P6APAVCResource@@PBD@ZU?$less@V?$basic_string@DU?$char_traits@D@std@@V?$allocator@D@2@@std@@@2@V?$allocator@U?$pair@$$CBV?$basic_string@DU?$char_traits@D@std@@V?$allocator@D@2@@std@@P6APAVCResource@@PBD@Z@std@@@2@@std@@AAE?AU?$pair@PAU?$_Tree_node@U?$pair@$$CBV?$basic_string@DU?$char_traits@D@std@@V?$allocator@D@2@@std@@P6APAVCResource@@PBD@Z@std@@PAX@std@@_N@1@$$QAV?$basic_string@DU?$char_traits@D@std@@V?$allocator@D@2@@1@@Z DD 019930522H
	DD	01H
	DD	FLAT:__unwindtable$??$_Try_emplace@V?$basic_string@DU?$char_traits@D@std@@V?$allocator@D@2@@std@@$$V@?$map@V?$basic_string@DU?$char_traits@D@std@@V?$allocator@D@2@@std@@P6APAVCResource@@PBD@ZU?$less@V?$basic_string@DU?$char_traits@D@std@@V?$allocator@D@2@@std@@@2@V?$allocator@U?$pair@$$CBV?$basic_string@DU?$char_traits@D@std@@V?$allocator@D@2@@std@@P6APAVCResource@@PBD@Z@std@@@2@@std@@AAE?AU?$pair@PAU?$_Tree_node@U?$pair@$$CBV?$basic_string@DU?$char_traits@D@std@@V?$allocator@D@2@@std@@P6APAVCResource@@PBD@Z@std@@PAX@std@@_N@1@$$QAV?$basic_string@DU?$char_traits@D@std@@V?$allocator@D@2@@1@@Z
	DD	2 DUP(00H)
	DD	2 DUP(00H)
	DD	00H
	DD	01H
xdata$x	ENDS
;	COMDAT xdata$x
xdata$x	SEGMENT
__unwindtable$??$_Try_emplace@ABH$$V@?$map@HP6APAVCResource@@PBD@ZU?$less@H@std@@V?$allocator@U?$pair@$$CBHP6APAVCResource@@PBD@Z@std@@@3@@std@@AAE?AU?$pair@PAU?$_Tree_node@U?$pair@$$CBHP6APAVCResource@@PBD@Z@std@@PAX@std@@_N@1@ABH@Z DD 0ffffffffH
	DD	FLAT:__unwindfunclet$??$_Try_emplace@ABH$$V@?$map@HP6APAVCResource@@PBD@ZU?$less@H@std@@V?$allocator@U?$pair@$$CBHP6APAVCResource@@PBD@Z@std@@@3@@std@@AAE?AU?$pair@PAU?$_Tree_node@U?$pair@$$CBHP6APAVCResource@@PBD@Z@std@@PAX@std@@_N@1@ABH@Z$2
__ehfuncinfo$??$_Try_emplace@ABH$$V@?$map@HP6APAVCResource@@PBD@ZU?$less@H@std@@V?$allocator@U?$pair@$$CBHP6APAVCResource@@PBD@Z@std@@@3@@std@@AAE?AU?$pair@PAU?$_Tree_node@U?$pair@$$CBHP6APAVCResource@@PBD@Z@std@@PAX@std@@_N@1@ABH@Z DD 019930522H
	DD	01H
	DD	FLAT:__unwindtable$??$_Try_emplace@ABH$$V@?$map@HP6APAVCResource@@PBD@ZU?$less@H@std@@V?$allocator@U?$pair@$$CBHP6APAVCResource@@PBD@Z@std@@@3@@std@@AAE?AU?$pair@PAU?$_Tree_node@U?$pair@$$CBHP6APAVCResource@@PBD@Z@std@@PAX@std@@_N@1@ABH@Z
	DD	2 DUP(00H)
	DD	2 DUP(00H)
	DD	00H
	DD	01H
xdata$x	ENDS
;	COMDAT xdata$x
xdata$x	SEGMENT
__unwindtable$??$insert@$0A@$0A@@?$_Tree@V?$_Tmap_traits@PAVCResource@@KU?$less@PAVCResource@@@std@@V?$allocator@U?$pair@QAVCResource@@K@std@@@3@$0A@@std@@@std@@QAE?AU?$pair@V?$_Tree_iterator@V?$_Tree_val@U?$_Tree_simple_types@U?$pair@QAVCResource@@K@std@@@std@@@std@@@std@@_N@1@$$QAU?$pair@QAVCResource@@K@1@@Z DD 0ffffffffH
	DD	FLAT:__unwindfunclet$??$insert@$0A@$0A@@?$_Tree@V?$_Tmap_traits@PAVCResource@@KU?$less@PAVCResource@@@std@@V?$allocator@U?$pair@QAVCResource@@K@std@@@3@$0A@@std@@@std@@QAE?AU?$pair@V?$_Tree_iterator@V?$_Tree_val@U?$_Tree_simple_types@U?$pair@QAVCResource@@K@std@@@std@@@std@@@std@@_N@1@$$QAU?$pair@QAVCResource@@K@1@@Z$2
__ehfuncinfo$??$insert@$0A@$0A@@?$_Tree@V?$_Tmap_traits@PAVCResource@@KU?$less@PAVCResource@@@std@@V?$allocator@U?$pair@QAVCResource@@K@std@@@3@$0A@@std@@@std@@QAE?AU?$pair@V?$_Tree_iterator@V?$_Tree_val@U?$_Tree_simple_types@U?$pair@QAVCResource@@K@std@@@std@@@std@@@std@@_N@1@$$QAU?$pair@QAVCResource@@K@1@@Z DD 019930522H
	DD	01H
	DD	FLAT:__unwindtable$??$insert@$0A@$0A@@?$_Tree@V?$_Tmap_traits@PAVCResource@@KU?$less@PAVCResource@@@std@@V?$allocator@U?$pair@QAVCResource@@K@std@@@3@$0A@@std@@@std@@QAE?AU?$pair@V?$_Tree_iterator@V?$_Tree_val@U?$_Tree_simple_types@U?$pair@QAVCResource@@K@std@@@std@@@std@@@std@@_N@1@$$QAU?$pair@QAVCResource@@K@1@@Z
	DD	2 DUP(00H)
	DD	2 DUP(00H)
	DD	00H
	DD	01H
xdata$x	ENDS
;	COMDAT xdata$x
xdata$x	SEGMENT
__unwindtable$??$insert@$0A@$0A@@?$_Tree@V?$_Tmap_traits@JPAVCResource@@U?$less@J@std@@V?$allocator@U?$pair@$$CBJPAVCResource@@@std@@@3@$0A@@std@@@std@@QAE?AU?$pair@V?$_Tree_iterator@V?$_Tree_val@U?$_Tree_simple_types@U?$pair@$$CBJPAVCResource@@@std@@@std@@@std@@@std@@_N@1@$$QAU?$pair@$$CBJPAVCResource@@@1@@Z DD 0ffffffffH
	DD	FLAT:__unwindfunclet$??$insert@$0A@$0A@@?$_Tree@V?$_Tmap_traits@JPAVCResource@@U?$less@J@std@@V?$allocator@U?$pair@$$CBJPAVCResource@@@std@@@3@$0A@@std@@@std@@QAE?AU?$pair@V?$_Tree_iterator@V?$_Tree_val@U?$_Tree_simple_types@U?$pair@$$CBJPAVCResource@@@std@@@std@@@std@@@std@@_N@1@$$QAU?$pair@$$CBJPAVCResource@@@1@@Z$2
__ehfuncinfo$??$insert@$0A@$0A@@?$_Tree@V?$_Tmap_traits@JPAVCResource@@U?$less@J@std@@V?$allocator@U?$pair@$$CBJPAVCResource@@@std@@@3@$0A@@std@@@std@@QAE?AU?$pair@V?$_Tree_iterator@V?$_Tree_val@U?$_Tree_simple_types@U?$pair@$$CBJPAVCResource@@@std@@@std@@@std@@@std@@_N@1@$$QAU?$pair@$$CBJPAVCResource@@@1@@Z DD 019930522H
	DD	01H
	DD	FLAT:__unwindtable$??$insert@$0A@$0A@@?$_Tree@V?$_Tmap_traits@JPAVCResource@@U?$less@J@std@@V?$allocator@U?$pair@$$CBJPAVCResource@@@std@@@3@$0A@@std@@@std@@QAE?AU?$pair@V?$_Tree_iterator@V?$_Tree_val@U?$_Tree_simple_types@U?$pair@$$CBJPAVCResource@@@std@@@std@@@std@@@std@@_N@1@$$QAU?$pair@$$CBJPAVCResource@@@1@@Z
	DD	2 DUP(00H)
	DD	2 DUP(00H)
	DD	00H
	DD	01H
xdata$x	ENDS
;	COMDAT xdata$x
xdata$x	SEGMENT
__unwindtable$??$insert@$0A@$0A@@?$_Tree@V?$_Tmap_traits@KV?$basic_string@DU?$char_traits@D@std@@V?$allocator@D@2@@std@@U?$less@K@2@V?$allocator@U?$pair@$$CBKV?$basic_string@DU?$char_traits@D@std@@V?$allocator@D@2@@std@@@std@@@2@$0A@@std@@@std@@QAE?AU?$pair@V?$_Tree_iterator@V?$_Tree_val@U?$_Tree_simple_types@U?$pair@$$CBKV?$basic_string@DU?$char_traits@D@std@@V?$allocator@D@2@@std@@@std@@@std@@@std@@@std@@_N@1@$$QAU?$pair@$$CBKV?$basic_string@DU?$char_traits@D@std@@V?$allocator@D@2@@std@@@1@@Z DD 0ffffffffH
	DD	FLAT:__unwindfunclet$??$insert@$0A@$0A@@?$_Tree@V?$_Tmap_traits@KV?$basic_string@DU?$char_traits@D@std@@V?$allocator@D@2@@std@@U?$less@K@2@V?$allocator@U?$pair@$$CBKV?$basic_string@DU?$char_traits@D@std@@V?$allocator@D@2@@std@@@std@@@2@$0A@@std@@@std@@QAE?AU?$pair@V?$_Tree_iterator@V?$_Tree_val@U?$_Tree_simple_types@U?$pair@$$CBKV?$basic_string@DU?$char_traits@D@std@@V?$allocator@D@2@@std@@@std@@@std@@@std@@@std@@_N@1@$$QAU?$pair@$$CBKV?$basic_string@DU?$char_traits@D@std@@V?$allocator@D@2@@std@@@1@@Z$2
__ehfuncinfo$??$insert@$0A@$0A@@?$_Tree@V?$_Tmap_traits@KV?$basic_string@DU?$char_traits@D@std@@V?$allocator@D@2@@std@@U?$less@K@2@V?$allocator@U?$pair@$$CBKV?$basic_string@DU?$char_traits@D@std@@V?$allocator@D@2@@std@@@std@@@2@$0A@@std@@@std@@QAE?AU?$pair@V?$_Tree_iterator@V?$_Tree_val@U?$_Tree_simple_types@U?$pair@$$CBKV?$basic_string@DU?$char_traits@D@std@@V?$allocator@D@2@@std@@@std@@@std@@@std@@@std@@_N@1@$$QAU?$pair@$$CBKV?$basic_string@DU?$char_traits@D@std@@V?$allocator@D@2@@std@@@1@@Z DD 019930522H
	DD	01H
	DD	FLAT:__unwindtable$??$insert@$0A@$0A@@?$_Tree@V?$_Tmap_traits@KV?$basic_string@DU?$char_traits@D@std@@V?$allocator@D@2@@std@@U?$less@K@2@V?$allocator@U?$pair@$$CBKV?$basic_string@DU?$char_traits@D@std@@V?$allocator@D@2@@std@@@std@@@2@$0A@@std@@@std@@QAE?AU?$pair@V?$_Tree_iterator@V?$_Tree_val@U?$_Tree_simple_types@U?$pair@$$CBKV?$basic_string@DU?$char_traits@D@std@@V?$allocator@D@2@@std@@@std@@@std@@@std@@@std@@_N@1@$$QAU?$pair@$$CBKV?$basic_string@DU?$char_traits@D@std@@V?$allocator@D@2@@std@@@1@@Z
	DD	2 DUP(00H)
	DD	2 DUP(00H)
	DD	00H
	DD	01H
xdata$x	ENDS
;	COMDAT xdata$x
xdata$x	SEGMENT
__unwindtable$??$insert@$0A@$0A@@?$_Tree@V?$_Tmap_traits@KPAVCResource@@U?$less@K@std@@V?$allocator@U?$pair@$$CBKPAVCResource@@@std@@@3@$0A@@std@@@std@@QAE?AU?$pair@V?$_Tree_iterator@V?$_Tree_val@U?$_Tree_simple_types@U?$pair@$$CBKPAVCResource@@@std@@@std@@@std@@@std@@_N@1@$$QAU?$pair@$$CBKPAVCResource@@@1@@Z DD 0ffffffffH
	DD	FLAT:__unwindfunclet$??$insert@$0A@$0A@@?$_Tree@V?$_Tmap_traits@KPAVCResource@@U?$less@K@std@@V?$allocator@U?$pair@$$CBKPAVCResource@@@std@@@3@$0A@@std@@@std@@QAE?AU?$pair@V?$_Tree_iterator@V?$_Tree_val@U?$_Tree_simple_types@U?$pair@$$CBKPAVCResource@@@std@@@std@@@std@@@std@@_N@1@$$QAU?$pair@$$CBKPAVCResource@@@1@@Z$2
__ehfuncinfo$??$insert@$0A@$0A@@?$_Tree@V?$_Tmap_traits@KPAVCResource@@U?$less@K@std@@V?$allocator@U?$pair@$$CBKPAVCResource@@@std@@@3@$0A@@std@@@std@@QAE?AU?$pair@V?$_Tree_iterator@V?$_Tree_val@U?$_Tree_simple_types@U?$pair@$$CBKPAVCResource@@@std@@@std@@@std@@@std@@_N@1@$$QAU?$pair@$$CBKPAVCResource@@@1@@Z DD 019930522H
	DD	01H
	DD	FLAT:__unwindtable$??$insert@$0A@$0A@@?$_Tree@V?$_Tmap_traits@KPAVCResource@@U?$less@K@std@@V?$allocator@U?$pair@$$CBKPAVCResource@@@std@@@3@$0A@@std@@@std@@QAE?AU?$pair@V?$_Tree_iterator@V?$_Tree_val@U?$_Tree_simple_types@U?$pair@$$CBKPAVCResource@@@std@@@std@@@std@@@std@@_N@1@$$QAU?$pair@$$CBKPAVCResource@@@1@@Z
	DD	2 DUP(00H)
	DD	2 DUP(00H)
	DD	00H
	DD	01H
xdata$x	ENDS
;	COMDAT xdata$x
xdata$x	SEGMENT
__unwindtable$??A?$map@HP6APAVCResource@@PBD@ZU?$less@H@std@@V?$allocator@U?$pair@$$CBHP6APAVCResource@@PBD@Z@std@@@3@@std@@QAEAAP6APAVCResource@@PBD@ZABH@Z DD 0ffffffffH
	DD	FLAT:__unwindfunclet$??A?$map@HP6APAVCResource@@PBD@ZU?$less@H@std@@V?$allocator@U?$pair@$$CBHP6APAVCResource@@PBD@Z@std@@@3@@std@@QAEAAP6APAVCResource@@PBD@ZABH@Z$2
__ehfuncinfo$??A?$map@HP6APAVCResource@@PBD@ZU?$less@H@std@@V?$allocator@U?$pair@$$CBHP6APAVCResource@@PBD@Z@std@@@3@@std@@QAEAAP6APAVCResource@@PBD@ZABH@Z DD 019930522H
	DD	01H
	DD	FLAT:__unwindtable$??A?$map@HP6APAVCResource@@PBD@ZU?$less@H@std@@V?$allocator@U?$pair@$$CBHP6APAVCResource@@PBD@Z@std@@@3@@std@@QAEAAP6APAVCResource@@PBD@ZABH@Z
	DD	2 DUP(00H)
	DD	2 DUP(00H)
	DD	00H
	DD	01H
xdata$x	ENDS
;	COMDAT xdata$x
xdata$x	SEGMENT
__unwindtable$??A?$map@V?$basic_string@DU?$char_traits@D@std@@V?$allocator@D@2@@std@@P6APAVCResource@@PBD@ZU?$less@V?$basic_string@DU?$char_traits@D@std@@V?$allocator@D@2@@std@@@2@V?$allocator@U?$pair@$$CBV?$basic_string@DU?$char_traits@D@std@@V?$allocator@D@2@@std@@P6APAVCResource@@PBD@Z@std@@@2@@std@@QAEAAP6APAVCResource@@PBD@Z$$QAV?$basic_string@DU?$char_traits@D@std@@V?$allocator@D@2@@1@@Z DD 0ffffffffH
	DD	FLAT:__unwindfunclet$??A?$map@V?$basic_string@DU?$char_traits@D@std@@V?$allocator@D@2@@std@@P6APAVCResource@@PBD@ZU?$less@V?$basic_string@DU?$char_traits@D@std@@V?$allocator@D@2@@std@@@2@V?$allocator@U?$pair@$$CBV?$basic_string@DU?$char_traits@D@std@@V?$allocator@D@2@@std@@P6APAVCResource@@PBD@Z@std@@@2@@std@@QAEAAP6APAVCResource@@PBD@Z$$QAV?$basic_string@DU?$char_traits@D@std@@V?$allocator@D@2@@1@@Z$2
__ehfuncinfo$??A?$map@V?$basic_string@DU?$char_traits@D@std@@V?$allocator@D@2@@std@@P6APAVCResource@@PBD@ZU?$less@V?$basic_string@DU?$char_traits@D@std@@V?$allocator@D@2@@std@@@2@V?$allocator@U?$pair@$$CBV?$basic_string@DU?$char_traits@D@std@@V?$allocator@D@2@@std@@P6APAVCResource@@PBD@Z@std@@@2@@std@@QAEAAP6APAVCResource@@PBD@Z$$QAV?$basic_string@DU?$char_traits@D@std@@V?$allocator@D@2@@1@@Z DD 019930522H
	DD	01H
	DD	FLAT:__unwindtable$??A?$map@V?$basic_string@DU?$char_traits@D@std@@V?$allocator@D@2@@std@@P6APAVCResource@@PBD@ZU?$less@V?$basic_string@DU?$char_traits@D@std@@V?$allocator@D@2@@std@@@2@V?$allocator@U?$pair@$$CBV?$basic_string@DU?$char_traits@D@std@@V?$allocator@D@2@@std@@P6APAVCResource@@PBD@Z@std@@@2@@std@@QAEAAP6APAVCResource@@PBD@Z$$QAV?$basic_string@DU?$char_traits@D@std@@V?$allocator@D@2@@1@@Z
	DD	2 DUP(00H)
	DD	2 DUP(00H)
	DD	00H
	DD	01H
xdata$x	ENDS
;	COMDAT xdata$x
xdata$x	SEGMENT
__unwindtable$?PushBackgroundLoadingSet@CResourceManager@@QAEXAAV?$set@V?$basic_string@DU?$char_traits@D@std@@V?$allocator@D@2@@std@@U?$less@V?$basic_string@DU?$char_traits@D@std@@V?$allocator@D@2@@std@@@2@V?$allocator@V?$basic_string@DU?$char_traits@D@std@@V?$allocator@D@2@@std@@@2@@std@@@Z DD 0ffffffffH
	DD	FLAT:__unwindfunclet$?PushBackgroundLoadingSet@CResourceManager@@QAEXAAV?$set@V?$basic_string@DU?$char_traits@D@std@@V?$allocator@D@2@@std@@U?$less@V?$basic_string@DU?$char_traits@D@std@@V?$allocator@D@2@@std@@@2@V?$allocator@V?$basic_string@DU?$char_traits@D@std@@V?$allocator@D@2@@std@@@2@@std@@@Z$0
	DD	00H
	DD	FLAT:__unwindfunclet$?PushBackgroundLoadingSet@CResourceManager@@QAEXAAV?$set@V?$basic_string@DU?$char_traits@D@std@@V?$allocator@D@2@@std@@U?$less@V?$basic_string@DU?$char_traits@D@std@@V?$allocator@D@2@@std@@@2@V?$allocator@V?$basic_string@DU?$char_traits@D@std@@V?$allocator@D@2@@std@@@2@@std@@@Z$6
__ehfuncinfo$?PushBackgroundLoadingSet@CResourceManager@@QAEXAAV?$set@V?$basic_string@DU?$char_traits@D@std@@V?$allocator@D@2@@std@@U?$less@V?$basic_string@DU?$char_traits@D@std@@V?$allocator@D@2@@std@@@2@V?$allocator@V?$basic_string@DU?$char_traits@D@std@@V?$allocator@D@2@@std@@@2@@std@@@Z DD 019930522H
	DD	02H
	DD	FLAT:__unwindtable$?PushBackgroundLoadingSet@CResourceManager@@QAEXAAV?$set@V?$basic_string@DU?$char_traits@D@std@@V?$allocator@D@2@@std@@U?$less@V?$basic_string@DU?$char_traits@D@std@@V?$allocator@D@2@@std@@@2@V?$allocator@V?$basic_string@DU?$char_traits@D@std@@V?$allocator@D@2@@std@@@2@@std@@@Z
	DD	2 DUP(00H)
	DD	2 DUP(00H)
	DD	00H
	DD	01H
xdata$x	ENDS
;	COMDAT xdata$x
xdata$x	SEGMENT
__unwindtable$?ProcessBackgroundLoading@CResourceManager@@QAEXXZ DD 0ffffffffH
	DD	FLAT:__unwindfunclet$?ProcessBackgroundLoading@CResourceManager@@QAEXXZ$0
	DD	00H
	DD	FLAT:__unwindfunclet$?ProcessBackgroundLoading@CResourceManager@@QAEXXZ$4
	DD	0ffffffffH
	DD	FLAT:__unwindfunclet$?ProcessBackgroundLoading@CResourceManager@@QAEXXZ$15
__ehfuncinfo$?ProcessBackgroundLoading@CResourceManager@@QAEXXZ DD 019930522H
	DD	03H
	DD	FLAT:__unwindtable$?ProcessBackgroundLoading@CResourceManager@@QAEXXZ
	DD	2 DUP(00H)
	DD	2 DUP(00H)
	DD	00H
	DD	01H
xdata$x	ENDS
;	COMDAT xdata$x
xdata$x	SEGMENT
__unwindtable$?ReserveDeletingResource@CResourceManager@@QAEXPAVCResource@@@Z DD 0ffffffffH
	DD	FLAT:__unwindfunclet$?ReserveDeletingResource@CResourceManager@@QAEXPAVCResource@@@Z$2
__ehfuncinfo$?ReserveDeletingResource@CResourceManager@@QAEXPAVCResource@@@Z DD 019930522H
	DD	01H
	DD	FLAT:__unwindtable$?ReserveDeletingResource@CResourceManager@@QAEXPAVCResource@@@Z
	DD	2 DUP(00H)
	DD	2 DUP(00H)
	DD	00H
	DD	01H
xdata$x	ENDS
;	COMDAT xdata$x
xdata$x	SEGMENT
__unwindtable$?DumpFileListToTextFile@CResourceManager@@QAEXPBD@Z DD 0ffffffffH
	DD	FLAT:__unwindfunclet$?DumpFileListToTextFile@CResourceManager@@QAEXPBD@Z$0
__ehfuncinfo$?DumpFileListToTextFile@CResourceManager@@QAEXPBD@Z DD 019930522H
	DD	01H
	DD	FLAT:__unwindtable$?DumpFileListToTextFile@CResourceManager@@QAEXPBD@Z
	DD	2 DUP(00H)
	DD	2 DUP(00H)
	DD	00H
	DD	01H
xdata$x	ENDS
;	COMDAT xdata$x
xdata$x	SEGMENT
__unwindtable$?RegisterResourceNewFunctionByTypePointer@CResourceManager@@QAEXHP6APAVCResource@@PBD@Z@Z DD 0ffffffffH
	DD	FLAT:__unwindfunclet$?RegisterResourceNewFunctionByTypePointer@CResourceManager@@QAEXHP6APAVCResource@@PBD@Z@Z$2
__ehfuncinfo$?RegisterResourceNewFunctionByTypePointer@CResourceManager@@QAEXHP6APAVCResource@@PBD@Z@Z DD 019930522H
	DD	01H
	DD	FLAT:__unwindtable$?RegisterResourceNewFunctionByTypePointer@CResourceManager@@QAEXHP6APAVCResource@@PBD@Z@Z
	DD	2 DUP(00H)
	DD	2 DUP(00H)
	DD	00H
	DD	01H
xdata$x	ENDS
;	COMDAT xdata$x
xdata$x	SEGMENT
__unwindtable$?RegisterResourceNewFunctionPointer@CResourceManager@@QAEXPBDP6APAVCResource@@0@Z@Z DD 0ffffffffH
	DD	FLAT:__unwindfunclet$?RegisterResourceNewFunctionPointer@CResourceManager@@QAEXPBDP6APAVCResource@@0@Z@Z$0
	DD	00H
	DD	FLAT:__unwindfunclet$?RegisterResourceNewFunctionPointer@CResourceManager@@QAEXPBDP6APAVCResource@@0@Z@Z$5
__ehfuncinfo$?RegisterResourceNewFunctionPointer@CResourceManager@@QAEXPBDP6APAVCResource@@0@Z@Z DD 019930522H
	DD	02H
	DD	FLAT:__unwindtable$?RegisterResourceNewFunctionPointer@CResourceManager@@QAEXPBDP6APAVCResource@@0@Z@Z
	DD	2 DUP(00H)
	DD	2 DUP(00H)
	DD	00H
	DD	01H
xdata$x	ENDS
;	COMDAT xdata$x
xdata$x	SEGMENT
__ehfuncinfo$??1CResourceManager@@UAE@XZ DD 019930522H
	DD	00H
	DD	00H
	DD	2 DUP(00H)
	DD	2 DUP(00H)
	DD	00H
	DD	05H
xdata$x	ENDS
;	COMDAT xdata$x
xdata$x	SEGMENT
__ehfuncinfo$??0CResourceManager@@QAE@XZ DD 019930522H
	DD	08H
	DD	FLAT:__unwindtable$??0CResourceManager@@QAE@XZ
	DD	2 DUP(00H)
	DD	2 DUP(00H)
	DD	00H
	DD	01H
__unwindtable$??0CResourceManager@@QAE@XZ DD 0ffffffffH
	DD	FLAT:__unwindfunclet$??0CResourceManager@@QAE@XZ$0
	DD	00H
	DD	FLAT:__unwindfunclet$??0CResourceManager@@QAE@XZ$1
	DD	01H
	DD	FLAT:__unwindfunclet$??0CResourceManager@@QAE@XZ$2
	DD	02H
	DD	FLAT:__unwindfunclet$??0CResourceManager@@QAE@XZ$3
	DD	03H
	DD	FLAT:__unwindfunclet$??0CResourceManager@@QAE@XZ$4
	DD	04H
	DD	FLAT:__unwindfunclet$??0CResourceManager@@QAE@XZ$5
	DD	05H
	DD	FLAT:__unwindfunclet$??0CResourceManager@@QAE@XZ$6
	DD	06H
	DD	FLAT:__unwindfunclet$??0CResourceManager@@QAE@XZ$7
xdata$x	ENDS
; Function compile flags: /Ogtp
; File C:\Program Files (x86)\Microsoft Visual Studio\2019\Professional\VC\Tools\MSVC\14.29.30133\include\algorithm
; File C:\Program Files (x86)\Microsoft Visual Studio\2019\Professional\VC\Tools\MSVC\14.29.30133\include\utility
; File C:\Program Files (x86)\Microsoft Visual Studio\2019\Professional\VC\Tools\MSVC\14.29.30133\include\algorithm
; File C:\Program Files (x86)\Microsoft Visual Studio\2019\Professional\VC\Tools\MSVC\14.29.30133\include\utility
; File C:\Program Files (x86)\Microsoft Visual Studio\2019\Professional\VC\Tools\MSVC\14.29.30133\include\algorithm
; File C:\Program Files (x86)\Microsoft Visual Studio\2019\Professional\VC\Tools\MSVC\14.29.30133\include\utility
; File C:\Program Files (x86)\Microsoft Visual Studio\2019\Professional\VC\Tools\MSVC\14.29.30133\include\algorithm
; File C:\Program Files (x86)\Microsoft Visual Studio\2019\Professional\VC\Tools\MSVC\14.29.30133\include\utility
; File C:\Program Files (x86)\Microsoft Visual Studio\2019\Professional\VC\Tools\MSVC\14.29.30133\include\algorithm
;	COMDAT ??$_Med3_unchecked@PAUSDumpData@@P6A_NABU1@0@Z@std@@YAXPAUSDumpData@@00P6A_NABU1@1@Z@Z
_TEXT	SEGMENT
__First$ = 8						; size = 4
__Mid$ = 12						; size = 4
__Last$ = 16						; size = 4
__Pred$ = 20						; size = 4
??$_Med3_unchecked@PAUSDumpData@@P6A_NABU1@0@Z@std@@YAXPAUSDumpData@@00P6A_NABU1@1@Z@Z PROC ; std::_Med3_unchecked<SDumpData *,bool (__cdecl*)(SDumpData const &,SDumpData const &)>, COMDAT

; 7262 : _CONSTEXPR20 void _Med3_unchecked(_RanIt _First, _RanIt _Mid, _RanIt _Last, _Pr _Pred) {

  00000	55		 push	 ebp
  00001	8b ec		 mov	 ebp, esp
  00003	53		 push	 ebx

; 7263 :     // sort median of three elements to middle
; 7264 :     if (_DEBUG_LT_PRED(_Pred, *_Mid, *_First)) {

  00004	8b 5d 14	 mov	 ebx, DWORD PTR __Pred$[ebp]
  00007	56		 push	 esi
  00008	8b 75 0c	 mov	 esi, DWORD PTR __Mid$[ebp]
  0000b	57		 push	 edi
  0000c	8b 7d 08	 mov	 edi, DWORD PTR __First$[ebp]
  0000f	57		 push	 edi
  00010	56		 push	 esi
  00011	ff d3		 call	 ebx
  00013	83 c4 08	 add	 esp, 8
  00016	84 c0		 test	 al, al
  00018	74 1c		 je	 SHORT $LN9@Med3_unche
; File C:\Program Files (x86)\Microsoft Visual Studio\2019\Professional\VC\Tools\MSVC\14.29.30133\include\utility

; 105  :     _Left    = _STD move(_Right);

  0001a	f3 0f 7e 07	 movq	 xmm0, QWORD PTR [edi]
  0001e	f3 0f 7e 0e	 movq	 xmm1, QWORD PTR [esi]
  00022	8b 4e 08	 mov	 ecx, DWORD PTR [esi+8]
  00025	66 0f d6 06	 movq	 QWORD PTR [esi], xmm0
  00029	8b 47 08	 mov	 eax, DWORD PTR [edi+8]
  0002c	89 46 08	 mov	 DWORD PTR [esi+8], eax

; 106  :     _Right   = _STD move(_Tmp);

  0002f	66 0f d6 0f	 movq	 QWORD PTR [edi], xmm1
  00033	89 4f 08	 mov	 DWORD PTR [edi+8], ecx
$LN9@Med3_unche:
; File C:\Program Files (x86)\Microsoft Visual Studio\2019\Professional\VC\Tools\MSVC\14.29.30133\include\algorithm

; 7268 :     if (_DEBUG_LT_PRED(_Pred, *_Last, *_Mid)) { // swap middle and last, then test first again

  00036	56		 push	 esi
  00037	ff 75 10	 push	 DWORD PTR __Last$[ebp]
  0003a	ff d3		 call	 ebx
  0003c	83 c4 08	 add	 esp, 8
  0003f	84 c0		 test	 al, al
  00041	74 46		 je	 SHORT $LN17@Med3_unche
; File C:\Program Files (x86)\Microsoft Visual Studio\2019\Professional\VC\Tools\MSVC\14.29.30133\include\utility

; 104  :     _Ty _Tmp = _STD move(_Left);

  00043	8b 55 10	 mov	 edx, DWORD PTR __Last$[ebp]

; 105  :     _Left    = _STD move(_Right);

  00046	f3 0f 7e 06	 movq	 xmm0, QWORD PTR [esi]
; File C:\Program Files (x86)\Microsoft Visual Studio\2019\Professional\VC\Tools\MSVC\14.29.30133\include\algorithm

; 7271 :         if (_DEBUG_LT_PRED(_Pred, *_Mid, *_First)) {

  0004a	57		 push	 edi
  0004b	56		 push	 esi
; File C:\Program Files (x86)\Microsoft Visual Studio\2019\Professional\VC\Tools\MSVC\14.29.30133\include\utility

; 104  :     _Ty _Tmp = _STD move(_Left);

  0004c	f3 0f 7e 0a	 movq	 xmm1, QWORD PTR [edx]
  00050	8b 4a 08	 mov	 ecx, DWORD PTR [edx+8]

; 105  :     _Left    = _STD move(_Right);

  00053	66 0f d6 02	 movq	 QWORD PTR [edx], xmm0
  00057	8b 46 08	 mov	 eax, DWORD PTR [esi+8]
  0005a	89 42 08	 mov	 DWORD PTR [edx+8], eax

; 106  :     _Right   = _STD move(_Tmp);

  0005d	66 0f d6 0e	 movq	 QWORD PTR [esi], xmm1
  00061	89 4e 08	 mov	 DWORD PTR [esi+8], ecx
; File C:\Program Files (x86)\Microsoft Visual Studio\2019\Professional\VC\Tools\MSVC\14.29.30133\include\algorithm

; 7271 :         if (_DEBUG_LT_PRED(_Pred, *_Mid, *_First)) {

  00064	ff d3		 call	 ebx
  00066	83 c4 08	 add	 esp, 8
  00069	84 c0		 test	 al, al
  0006b	74 1c		 je	 SHORT $LN17@Med3_unche
; File C:\Program Files (x86)\Microsoft Visual Studio\2019\Professional\VC\Tools\MSVC\14.29.30133\include\utility

; 105  :     _Left    = _STD move(_Right);

  0006d	f3 0f 7e 07	 movq	 xmm0, QWORD PTR [edi]
  00071	f3 0f 7e 0e	 movq	 xmm1, QWORD PTR [esi]
  00075	8b 4e 08	 mov	 ecx, DWORD PTR [esi+8]
  00078	66 0f d6 06	 movq	 QWORD PTR [esi], xmm0
  0007c	8b 47 08	 mov	 eax, DWORD PTR [edi+8]
  0007f	89 46 08	 mov	 DWORD PTR [esi+8], eax

; 106  :     _Right   = _STD move(_Tmp);

  00082	66 0f d6 0f	 movq	 QWORD PTR [edi], xmm1
  00086	89 4f 08	 mov	 DWORD PTR [edi+8], ecx
$LN17@Med3_unche:
  00089	5f		 pop	 edi
; File C:\Program Files (x86)\Microsoft Visual Studio\2019\Professional\VC\Tools\MSVC\14.29.30133\include\algorithm

; 7275 : }

  0008a	5e		 pop	 esi
  0008b	5b		 pop	 ebx
  0008c	5d		 pop	 ebp
  0008d	c3		 ret	 0
??$_Med3_unchecked@PAUSDumpData@@P6A_NABU1@0@Z@std@@YAXPAUSDumpData@@00P6A_NABU1@1@Z@Z ENDP ; std::_Med3_unchecked<SDumpData *,bool (__cdecl*)(SDumpData const &,SDumpData const &)>
_TEXT	ENDS
; Function compile flags: /Ogtp
; File C:\Program Files (x86)\Microsoft Visual Studio\2019\Professional\VC\Tools\MSVC\14.29.30133\include\xutility
;	COMDAT ??$_Copy_backward_memmove@PAUSDumpData@@PAU1@@std@@YAPAUSDumpData@@PAU1@00@Z
_TEXT	SEGMENT
__First$ = 8						; size = 4
__Last$ = 12						; size = 4
__Dest$ = 16						; size = 4
??$_Copy_backward_memmove@PAUSDumpData@@PAU1@@std@@YAPAUSDumpData@@PAU1@00@Z PROC ; std::_Copy_backward_memmove<SDumpData *,SDumpData *>, COMDAT

; 4354 : _CtgIt2 _Copy_backward_memmove(_CtgIt1 _First, _CtgIt1 _Last, _CtgIt2 _Dest) {

  00000	55		 push	 ebp
  00001	8b ec		 mov	 ebp, esp

; 4355 :     // implement copy_backward-like function as memmove
; 4356 :     auto _FirstPtr              = _To_address(_First);
; 4357 :     auto _LastPtr               = _To_address(_Last);
; 4358 :     auto _DestPtr               = _To_address(_Dest);
; 4359 :     const char* const _First_ch = const_cast<const char*>(reinterpret_cast<const volatile char*>(_FirstPtr));
; 4360 :     const char* const _Last_ch  = const_cast<const char*>(reinterpret_cast<const volatile char*>(_LastPtr));
; 4361 :     char* const _Dest_ch        = const_cast<char*>(reinterpret_cast<const volatile char*>(_DestPtr));
; 4362 :     const auto _Count           = static_cast<size_t>(_Last_ch - _First_ch);

  00003	8b 45 08	 mov	 eax, DWORD PTR __First$[ebp]
  00006	8b 4d 0c	 mov	 ecx, DWORD PTR __Last$[ebp]
  00009	2b c8		 sub	 ecx, eax

; 4363 :     auto _Result                = _CSTD memmove(_Dest_ch - _Count, _First_ch, _Count);

  0000b	51		 push	 ecx
  0000c	50		 push	 eax
  0000d	8b 45 10	 mov	 eax, DWORD PTR __Dest$[ebp]
  00010	2b c1		 sub	 eax, ecx
  00012	50		 push	 eax
  00013	e8 00 00 00 00	 call	 _memmove
  00018	83 c4 0c	 add	 esp, 12			; 0000000cH

; 4364 :     if constexpr (is_pointer_v<_CtgIt2>) {
; 4365 :         return static_cast<_CtgIt2>(_Result);
; 4366 :     } else {
; 4367 :         return _Dest - (_LastPtr - _FirstPtr);
; 4368 :     }
; 4369 : }

  0001b	5d		 pop	 ebp
  0001c	c3		 ret	 0
??$_Copy_backward_memmove@PAUSDumpData@@PAU1@@std@@YAPAUSDumpData@@PAU1@00@Z ENDP ; std::_Copy_backward_memmove<SDumpData *,SDumpData *>
_TEXT	ENDS
; Function compile flags: /Ogtp
; File C:\Program Files (x86)\Microsoft Visual Studio\2019\Professional\VC\Tools\MSVC\14.29.30133\include\algorithm
;	COMDAT ??$_Pop_heap_hole_by_index@PAUSDumpData@@U1@P6A_NABU1@0@Z@std@@YAXPAUSDumpData@@HH$$QAU1@P6A_NABU1@2@Z@Z
_TEXT	SEGMENT
tv164 = -8						; size = 4
__Max_sequence_non_leaf$1$ = -4				; size = 4
__First$ = 8						; size = 4
__Top$1$ = 12						; size = 4
__Hole$ = 12						; size = 4
tv152 = 16						; size = 4
__Bottom$ = 16						; size = 4
__Val$ = 20						; size = 4
__Pred$ = 24						; size = 4
??$_Pop_heap_hole_by_index@PAUSDumpData@@U1@P6A_NABU1@0@Z@std@@YAXPAUSDumpData@@HH$$QAU1@P6A_NABU1@2@Z@Z PROC ; std::_Pop_heap_hole_by_index<SDumpData *,SDumpData,bool (__cdecl*)(SDumpData const &,SDumpData const &)>, COMDAT

; 5672 :     _RanIt _First, _Iter_diff_t<_RanIt> _Hole, _Iter_diff_t<_RanIt> _Bottom, _Ty&& _Val, _Pr _Pred) {

  00000	55		 push	 ebp
  00001	8b ec		 mov	 ebp, esp
  00003	83 ec 08	 sub	 esp, 8

; 5673 :     // percolate _Hole to _Bottom, then push _Val
; 5674 :     _STL_INTERNAL_CHECK(_Bottom > 0);
; 5675 : 
; 5676 :     using _Diff      = _Iter_diff_t<_RanIt>;
; 5677 :     const _Diff _Top = _Hole;
; 5678 :     _Diff _Idx       = _Hole;
; 5679 : 
; 5680 :     // Check whether _Idx can have a child before calculating that child's index, since
; 5681 :     // calculating the child's index can trigger integer overflows
; 5682 :     const _Diff _Max_sequence_non_leaf = (_Bottom - 1) >> 1; // shift for codegen

  00006	8b 4d 10	 mov	 ecx, DWORD PTR __Bottom$[ebp]
  00009	53		 push	 ebx

; 5683 :     while (_Idx < _Max_sequence_non_leaf) { // move _Hole down to larger child

  0000a	8b 5d 08	 mov	 ebx, DWORD PTR __First$[ebp]
  0000d	56		 push	 esi
  0000e	8d 41 ff	 lea	 eax, DWORD PTR [ecx-1]
  00011	89 45 f8	 mov	 DWORD PTR tv164[ebp], eax
  00014	d1 f8		 sar	 eax, 1
  00016	57		 push	 edi
  00017	8b 7d 0c	 mov	 edi, DWORD PTR __Hole$[ebp]
  0001a	8b f7		 mov	 esi, edi
  0001c	89 7d 0c	 mov	 DWORD PTR __Top$1$[ebp], edi
  0001f	89 45 fc	 mov	 DWORD PTR __Max_sequence_non_leaf$1$[ebp], eax
  00022	3b f8		 cmp	 edi, eax
  00024	7d 4e		 jge	 SHORT $LN3@Pop_heap_h
  00026	66 66 0f 1f 84
	00 00 00 00 00	 npad	 10
$LL2@Pop_heap_h:

; 5684 :         _Idx = 2 * _Idx + 2;

  00030	8d 34 75 02 00
	00 00		 lea	 esi, DWORD PTR [esi*2+2]

; 5685 :         if (_DEBUG_LT_PRED(_Pred, *(_First + _Idx), *(_First + (_Idx - 1)))) {

  00037	8d 04 76	 lea	 eax, DWORD PTR [esi+esi*2]
  0003a	8d 0c 83	 lea	 ecx, DWORD PTR [ebx+eax*4]
  0003d	8d 41 f4	 lea	 eax, DWORD PTR [ecx-12]
  00040	50		 push	 eax
  00041	51		 push	 ecx
  00042	ff 55 18	 call	 DWORD PTR __Pred$[ebp]
  00045	83 c4 08	 add	 esp, 8
  00048	84 c0		 test	 al, al
  0004a	74 01		 je	 SHORT $LN4@Pop_heap_h

; 5686 :             --_Idx;

  0004c	4e		 dec	 esi
$LN4@Pop_heap_h:

; 5687 :         }
; 5688 :         *(_First + _Hole) = _STD move(*(_First + _Idx));

  0004d	8d 04 76	 lea	 eax, DWORD PTR [esi+esi*2]
  00050	f3 0f 7e 04 83	 movq	 xmm0, QWORD PTR [ebx+eax*4]
  00055	8d 14 83	 lea	 edx, DWORD PTR [ebx+eax*4]
  00058	8d 04 7f	 lea	 eax, DWORD PTR [edi+edi*2]

; 5689 :         _Hole             = _Idx;

  0005b	8b fe		 mov	 edi, esi
  0005d	8d 0c 83	 lea	 ecx, DWORD PTR [ebx+eax*4]
  00060	66 0f d6 01	 movq	 QWORD PTR [ecx], xmm0
  00064	8b 42 08	 mov	 eax, DWORD PTR [edx+8]
  00067	89 41 08	 mov	 DWORD PTR [ecx+8], eax
  0006a	8b 45 fc	 mov	 eax, DWORD PTR __Max_sequence_non_leaf$1$[ebp]
  0006d	3b f0		 cmp	 esi, eax
  0006f	7c bf		 jl	 SHORT $LL2@Pop_heap_h
  00071	8b 4d 10	 mov	 ecx, DWORD PTR __Bottom$[ebp]
$LN3@Pop_heap_h:

; 5690 :     }
; 5691 : 
; 5692 :     if (_Idx == _Max_sequence_non_leaf && _Bottom % 2 == 0) { // only child at bottom, move _Hole down to it

  00074	3b f0		 cmp	 esi, eax
  00076	75 24		 jne	 SHORT $LN5@Pop_heap_h
  00078	f6 c1 01	 test	 cl, 1
  0007b	75 1f		 jne	 SHORT $LN5@Pop_heap_h

; 5693 :         *(_First + _Hole) = _STD move(*(_First + (_Bottom - 1)));

  0007d	8d 04 49	 lea	 eax, DWORD PTR [ecx+ecx*2]
  00080	f3 0f 7e 44 83
	f4		 movq	 xmm0, QWORD PTR [ebx+eax*4-12]
  00086	8d 14 83	 lea	 edx, DWORD PTR [ebx+eax*4]
  00089	8d 04 7f	 lea	 eax, DWORD PTR [edi+edi*2]

; 5694 :         _Hole             = _Bottom - 1;

  0008c	8b 7d f8	 mov	 edi, DWORD PTR tv164[ebp]
  0008f	8d 0c 83	 lea	 ecx, DWORD PTR [ebx+eax*4]
  00092	66 0f d6 01	 movq	 QWORD PTR [ecx], xmm0
  00096	8b 42 fc	 mov	 eax, DWORD PTR [edx-4]
  00099	89 41 08	 mov	 DWORD PTR [ecx+8], eax
$LN5@Pop_heap_h:

; 5563 :          _Top < _Hole && _DEBUG_LT_PRED(_Pred, *(_First + _Idx), _Val); //

  0009c	39 7d 0c	 cmp	 DWORD PTR __Top$1$[ebp], edi
  0009f	7d 3a		 jge	 SHORT $LN20@Pop_heap_h
$LL10@Pop_heap_h:
  000a1	ff 75 14	 push	 DWORD PTR __Val$[ebp]
  000a4	8d 77 ff	 lea	 esi, DWORD PTR [edi-1]
  000a7	d1 fe		 sar	 esi, 1
  000a9	8d 04 76	 lea	 eax, DWORD PTR [esi+esi*2]
  000ac	8d 04 83	 lea	 eax, DWORD PTR [ebx+eax*4]
  000af	50		 push	 eax
  000b0	89 45 10	 mov	 DWORD PTR tv152[ebp], eax
  000b3	ff 55 18	 call	 DWORD PTR __Pred$[ebp]
  000b6	83 c4 08	 add	 esp, 8
  000b9	84 c0		 test	 al, al
  000bb	74 1e		 je	 SHORT $LN20@Pop_heap_h

; 5564 :          _Idx = (_Hole - 1) >> 1) { // shift for codegen
; 5565 :         // move _Hole up to parent
; 5566 :         *(_First + _Hole) = _STD move(*(_First + _Idx));

  000bd	8d 04 7f	 lea	 eax, DWORD PTR [edi+edi*2]

; 5567 :         _Hole             = _Idx;

  000c0	8b fe		 mov	 edi, esi
  000c2	8d 0c 83	 lea	 ecx, DWORD PTR [ebx+eax*4]
  000c5	8b 45 10	 mov	 eax, DWORD PTR tv152[ebp]
  000c8	f3 0f 7e 00	 movq	 xmm0, QWORD PTR [eax]
  000cc	66 0f d6 01	 movq	 QWORD PTR [ecx], xmm0
  000d0	8b 40 08	 mov	 eax, DWORD PTR [eax+8]
  000d3	89 41 08	 mov	 DWORD PTR [ecx+8], eax
  000d6	39 75 0c	 cmp	 DWORD PTR __Top$1$[ebp], esi
  000d9	7c c6		 jl	 SHORT $LL10@Pop_heap_h
$LN20@Pop_heap_h:

; 5568 :     }
; 5569 : 
; 5570 :     *(_First + _Hole) = _STD forward<_Ty>(_Val); // drop _Val into final hole

  000db	8d 04 7f	 lea	 eax, DWORD PTR [edi+edi*2]
  000de	8d 0c 83	 lea	 ecx, DWORD PTR [ebx+eax*4]
  000e1	8b 45 14	 mov	 eax, DWORD PTR __Val$[ebp]
  000e4	5f		 pop	 edi
  000e5	5e		 pop	 esi
  000e6	5b		 pop	 ebx
  000e7	f3 0f 7e 00	 movq	 xmm0, QWORD PTR [eax]
  000eb	66 0f d6 01	 movq	 QWORD PTR [ecx], xmm0
  000ef	8b 40 08	 mov	 eax, DWORD PTR [eax+8]
  000f2	89 41 08	 mov	 DWORD PTR [ecx+8], eax

; 5695 :     }
; 5696 : 
; 5697 :     _Push_heap_by_index(_First, _Hole, _Top, _STD forward<_Ty>(_Val), _Pred);
; 5698 : }

  000f5	8b e5		 mov	 esp, ebp
  000f7	5d		 pop	 ebp
  000f8	c3		 ret	 0
??$_Pop_heap_hole_by_index@PAUSDumpData@@U1@P6A_NABU1@0@Z@std@@YAXPAUSDumpData@@HH$$QAU1@P6A_NABU1@2@Z@Z ENDP ; std::_Pop_heap_hole_by_index<SDumpData *,SDumpData,bool (__cdecl*)(SDumpData const &,SDumpData const &)>
_TEXT	ENDS
; Function compile flags: /Ogtp
; File C:\Program Files (x86)\Microsoft Visual Studio\2019\Professional\VC\Tools\MSVC\14.29.30133\include\xstring
;	COMDAT ??$?MDU?$char_traits@D@std@@V?$allocator@D@1@@std@@YA_NABV?$basic_string@DU?$char_traits@D@std@@V?$allocator@D@2@@0@0@Z
_TEXT	SEGMENT
__Left$ = 8						; size = 4
__Right$ = 12						; size = 4
??$?MDU?$char_traits@D@std@@V?$allocator@D@1@@std@@YA_NABV?$basic_string@DU?$char_traits@D@std@@V?$allocator@D@2@@0@0@Z PROC ; std::operator<<char,std::char_traits<char>,std::allocator<char> >, COMDAT

; 4842 :     const basic_string<_Elem, _Traits, _Alloc>& _Left, const basic_string<_Elem, _Traits, _Alloc>& _Right) noexcept {

  00000	55		 push	 ebp
  00001	8b ec		 mov	 ebp, esp

; 2305 :         const value_type* _Result = _Bx._Buf;

  00003	8b 45 0c	 mov	 eax, DWORD PTR __Right$[ebp]
  00006	8b d0		 mov	 edx, eax

; 2319 :         return _BUF_SIZE <= _Myres;

  00008	83 78 14 10	 cmp	 DWORD PTR [eax+20], 16	; 00000010H

; 2306 :         if (_Large_string_engaged()) {

  0000c	72 02		 jb	 SHORT $LN6@operator

; 2307 :             _Result = _Unfancy(_Bx._Ptr);

  0000e	8b 10		 mov	 edx, DWORD PTR [eax]
$LN6@operator:

; 2305 :         const value_type* _Result = _Bx._Buf;

  00010	8b 4d 08	 mov	 ecx, DWORD PTR __Left$[ebp]
  00013	56		 push	 esi
  00014	8b f1		 mov	 esi, ecx

; 2319 :         return _BUF_SIZE <= _Myres;

  00016	83 79 14 10	 cmp	 DWORD PTR [ecx+20], 16	; 00000010H

; 2306 :         if (_Large_string_engaged()) {

  0001a	72 02		 jb	 SHORT $LN11@operator

; 2307 :             _Result = _Unfancy(_Bx._Ptr);

  0001c	8b 31		 mov	 esi, DWORD PTR [ecx]
$LN11@operator:

; 4414 :         return _Traits_compare<_Traits>(_Mypair._Myval2._Myptr(), _Mypair._Myval2._Mysize,

  0001e	ff 70 10	 push	 DWORD PTR [eax+16]
  00021	52		 push	 edx
  00022	ff 71 10	 push	 DWORD PTR [ecx+16]
  00025	56		 push	 esi
  00026	e8 00 00 00 00	 call	 ??$_Traits_compare@U?$char_traits@D@std@@@std@@YAHQBDI0I@Z ; std::_Traits_compare<std::char_traits<char> >
  0002b	83 c4 10	 add	 esp, 16			; 00000010H

; 4843 :     return _Left.compare(_Right) < 0;

  0002e	c1 e8 1f	 shr	 eax, 31			; 0000001fH
  00031	5e		 pop	 esi

; 4844 : }

  00032	5d		 pop	 ebp
  00033	c3		 ret	 0
??$?MDU?$char_traits@D@std@@V?$allocator@D@1@@std@@YA_NABV?$basic_string@DU?$char_traits@D@std@@V?$allocator@D@2@@0@0@Z ENDP ; std::operator<<char,std::char_traits<char>,std::allocator<char> >
_TEXT	ENDS
; Function compile flags: /Ogtp
; File C:\Program Files (x86)\Microsoft Visual Studio\2019\Professional\VC\Tools\MSVC\14.29.30133\include\xutility
;	COMDAT ??$_Copy_memmove@PAUSDumpData@@PAU1@@std@@YAPAUSDumpData@@PAU1@00@Z
_TEXT	SEGMENT
__First$ = 8						; size = 4
__Last$ = 12						; size = 4
__Dest$ = 16						; size = 4
??$_Copy_memmove@PAUSDumpData@@PAU1@@std@@YAPAUSDumpData@@PAU1@00@Z PROC ; std::_Copy_memmove<SDumpData *,SDumpData *>, COMDAT

; 4159 : _OutCtgIt _Copy_memmove(_CtgIt _First, _CtgIt _Last, _OutCtgIt _Dest) {

  00000	55		 push	 ebp
  00001	8b ec		 mov	 ebp, esp

; 4160 :     auto _FirstPtr              = _To_address(_First);
; 4161 :     auto _LastPtr               = _To_address(_Last);
; 4162 :     auto _DestPtr               = _To_address(_Dest);
; 4163 :     const char* const _First_ch = const_cast<const char*>(reinterpret_cast<const volatile char*>(_FirstPtr));
; 4164 :     const char* const _Last_ch  = const_cast<const char*>(reinterpret_cast<const volatile char*>(_LastPtr));
; 4165 :     char* const _Dest_ch        = const_cast<char*>(reinterpret_cast<const volatile char*>(_DestPtr));
; 4166 :     const auto _Count           = static_cast<size_t>(_Last_ch - _First_ch);

  00003	8b 45 08	 mov	 eax, DWORD PTR __First$[ebp]
  00006	56		 push	 esi

; 4167 :     _CSTD memmove(_Dest_ch, _First_ch, _Count);

  00007	8b 75 10	 mov	 esi, DWORD PTR __Dest$[ebp]
  0000a	57		 push	 edi
  0000b	8b 7d 0c	 mov	 edi, DWORD PTR __Last$[ebp]
  0000e	2b f8		 sub	 edi, eax
  00010	57		 push	 edi
  00011	50		 push	 eax
  00012	56		 push	 esi
  00013	e8 00 00 00 00	 call	 _memmove
  00018	83 c4 0c	 add	 esp, 12			; 0000000cH

; 4168 :     if constexpr (is_pointer_v<_OutCtgIt>) {
; 4169 :         return reinterpret_cast<_OutCtgIt>(_Dest_ch + _Count);

  0001b	8d 04 37	 lea	 eax, DWORD PTR [edi+esi]
  0001e	5f		 pop	 edi
  0001f	5e		 pop	 esi

; 4170 :     } else {
; 4171 :         return _Dest + (_LastPtr - _FirstPtr);
; 4172 :     }
; 4173 : }

  00020	5d		 pop	 ebp
  00021	c3		 ret	 0
??$_Copy_memmove@PAUSDumpData@@PAU1@@std@@YAPAUSDumpData@@PAU1@00@Z ENDP ; std::_Copy_memmove<SDumpData *,SDumpData *>
_TEXT	ENDS
; Function compile flags: /Ogtp
; File C:\Program Files (x86)\Microsoft Visual Studio\2019\Professional\VC\Tools\MSVC\14.29.30133\include\xmemory
;	COMDAT ??1?$_Alloc_construct_ptr@V?$allocator@U?$_Tree_node@U?$pair@QAVCResource@@K@std@@PAX@std@@@std@@@std@@QAE@XZ
_TEXT	SEGMENT
??1?$_Alloc_construct_ptr@V?$allocator@U?$_Tree_node@U?$pair@QAVCResource@@K@std@@PAX@std@@@std@@@std@@QAE@XZ PROC ; std::_Alloc_construct_ptr<std::allocator<std::_Tree_node<std::pair<CResource * const,unsigned long>,void *> > >::~_Alloc_construct_ptr<std::allocator<std::_Tree_node<std::pair<CResource * const,unsigned long>,void *> > >, COMDAT
; _this$ = ecx

; 1024 :         if (_Ptr) {

  00000	8b 41 04	 mov	 eax, DWORD PTR [ecx+4]
  00003	85 c0		 test	 eax, eax
  00005	74 0b		 je	 SHORT $LN8@Alloc_cons

; 264  :         ::operator delete(_Ptr, _Bytes);

  00007	6a 18		 push	 24			; 00000018H
  00009	50		 push	 eax
  0000a	e8 00 00 00 00	 call	 ??3@YAXPAXI@Z		; operator delete
  0000f	83 c4 08	 add	 esp, 8
$LN8@Alloc_cons:

; 1025 :             _Al.deallocate(_Ptr, 1);
; 1026 :         }
; 1027 :     }

  00012	c3		 ret	 0
??1?$_Alloc_construct_ptr@V?$allocator@U?$_Tree_node@U?$pair@QAVCResource@@K@std@@PAX@std@@@std@@@std@@QAE@XZ ENDP ; std::_Alloc_construct_ptr<std::allocator<std::_Tree_node<std::pair<CResource * const,unsigned long>,void *> > >::~_Alloc_construct_ptr<std::allocator<std::_Tree_node<std::pair<CResource * const,unsigned long>,void *> > >
_TEXT	ENDS
; Function compile flags: /Ogtp
; File C:\Program Files (x86)\Microsoft Visual Studio\2019\Professional\VC\Tools\MSVC\14.29.30133\include\algorithm
; File C:\Program Files (x86)\Microsoft Visual Studio\2019\Professional\VC\Tools\MSVC\14.29.30133\include\utility
; File C:\Program Files (x86)\Microsoft Visual Studio\2019\Professional\VC\Tools\MSVC\14.29.30133\include\algorithm
; File C:\Program Files (x86)\Microsoft Visual Studio\2019\Professional\VC\Tools\MSVC\14.29.30133\include\utility
; File C:\Program Files (x86)\Microsoft Visual Studio\2019\Professional\VC\Tools\MSVC\14.29.30133\include\algorithm
; File C:\Program Files (x86)\Microsoft Visual Studio\2019\Professional\VC\Tools\MSVC\14.29.30133\include\utility
; File C:\Program Files (x86)\Microsoft Visual Studio\2019\Professional\VC\Tools\MSVC\14.29.30133\include\algorithm
; File C:\Program Files (x86)\Microsoft Visual Studio\2019\Professional\VC\Tools\MSVC\14.29.30133\include\utility
; File C:\Program Files (x86)\Microsoft Visual Studio\2019\Professional\VC\Tools\MSVC\14.29.30133\include\algorithm
; File C:\Program Files (x86)\Microsoft Visual Studio\2019\Professional\VC\Tools\MSVC\14.29.30133\include\utility
; File C:\Program Files (x86)\Microsoft Visual Studio\2019\Professional\VC\Tools\MSVC\14.29.30133\include\algorithm
; File C:\Program Files (x86)\Microsoft Visual Studio\2019\Professional\VC\Tools\MSVC\14.29.30133\include\utility
; File C:\Program Files (x86)\Microsoft Visual Studio\2019\Professional\VC\Tools\MSVC\14.29.30133\include\algorithm
; File C:\Program Files (x86)\Microsoft Visual Studio\2019\Professional\VC\Tools\MSVC\14.29.30133\include\utility
; File C:\Program Files (x86)\Microsoft Visual Studio\2019\Professional\VC\Tools\MSVC\14.29.30133\include\algorithm
; File C:\Program Files (x86)\Microsoft Visual Studio\2019\Professional\VC\Tools\MSVC\14.29.30133\include\utility
; File C:\Program Files (x86)\Microsoft Visual Studio\2019\Professional\VC\Tools\MSVC\14.29.30133\include\algorithm
; File C:\Program Files (x86)\Microsoft Visual Studio\2019\Professional\VC\Tools\MSVC\14.29.30133\include\utility
; File C:\Program Files (x86)\Microsoft Visual Studio\2019\Professional\VC\Tools\MSVC\14.29.30133\include\algorithm
; File C:\Program Files (x86)\Microsoft Visual Studio\2019\Professional\VC\Tools\MSVC\14.29.30133\include\utility
; File C:\Program Files (x86)\Microsoft Visual Studio\2019\Professional\VC\Tools\MSVC\14.29.30133\include\algorithm
; File C:\Program Files (x86)\Microsoft Visual Studio\2019\Professional\VC\Tools\MSVC\14.29.30133\include\utility
; File C:\Program Files (x86)\Microsoft Visual Studio\2019\Professional\VC\Tools\MSVC\14.29.30133\include\algorithm
; File C:\Program Files (x86)\Microsoft Visual Studio\2019\Professional\VC\Tools\MSVC\14.29.30133\include\utility
; File C:\Program Files (x86)\Microsoft Visual Studio\2019\Professional\VC\Tools\MSVC\14.29.30133\include\algorithm
; File C:\Program Files (x86)\Microsoft Visual Studio\2019\Professional\VC\Tools\MSVC\14.29.30133\include\utility
; File C:\Program Files (x86)\Microsoft Visual Studio\2019\Professional\VC\Tools\MSVC\14.29.30133\include\algorithm
; File C:\Program Files (x86)\Microsoft Visual Studio\2019\Professional\VC\Tools\MSVC\14.29.30133\include\utility
; File C:\Program Files (x86)\Microsoft Visual Studio\2019\Professional\VC\Tools\MSVC\14.29.30133\include\algorithm
;	COMDAT ??$_Partition_by_median_guess_unchecked@PAUSDumpData@@P6A_NABU1@0@Z@std@@YA?AU?$pair@PAUSDumpData@@PAU1@@0@PAUSDumpData@@0P6A_NABU2@1@Z@Z
_TEXT	SEGMENT
tv460 = -12						; size = 4
$T1 = -12						; size = 4
__Last$1$ = -12						; size = 4
__Gfirst$1$ = -12					; size = 4
$T2 = -8						; size = 4
__Glast$1$ = -8						; size = 4
__Plast$1$ = -4						; size = 4
___$ReturnUdt$ = 8					; size = 4
__First$ = 12						; size = 4
__Last$ = 16						; size = 4
__Pred$ = 20						; size = 4
??$_Partition_by_median_guess_unchecked@PAUSDumpData@@P6A_NABU1@0@Z@std@@YA?AU?$pair@PAUSDumpData@@PAU1@@0@PAUSDumpData@@0P6A_NABU2@1@Z@Z PROC ; std::_Partition_by_median_guess_unchecked<SDumpData *,bool (__cdecl*)(SDumpData const &,SDumpData const &)>, COMDAT

; 7295 : _CONSTEXPR20 pair<_RanIt, _RanIt> _Partition_by_median_guess_unchecked(_RanIt _First, _RanIt _Last, _Pr _Pred) {

  00000	55		 push	 ebp
  00001	8b ec		 mov	 ebp, esp
  00003	83 ec 0c	 sub	 esp, 12			; 0000000cH
  00006	53		 push	 ebx

; 7296 :     // partition [_First, _Last)
; 7297 :     _RanIt _Mid = _First + ((_Last - _First) >> 1); // shift for codegen

  00007	8b 5d 10	 mov	 ebx, DWORD PTR __Last$[ebp]
  0000a	b8 ab aa aa 2a	 mov	 eax, 715827883		; 2aaaaaabH
  0000f	56		 push	 esi
  00010	57		 push	 edi
  00011	8b 7d 0c	 mov	 edi, DWORD PTR __First$[ebp]
  00014	8b cb		 mov	 ecx, ebx
  00016	2b cf		 sub	 ecx, edi

; 7298 :     _Guess_median_unchecked(_First, _Mid, _Prev_iter(_Last), _Pred);

  00018	83 c3 f4	 add	 ebx, -12		; fffffff4H
  0001b	f7 e9		 imul	 ecx

; 7281 :     const _Diff _Count = _Last - _First;

  0001d	b8 ab aa aa 2a	 mov	 eax, 715827883		; 2aaaaaabH

; 7298 :     _Guess_median_unchecked(_First, _Mid, _Prev_iter(_Last), _Pred);

  00022	89 5d f4	 mov	 DWORD PTR __Last$1$[ebp], ebx
  00025	d1 fa		 sar	 edx, 1
  00027	8b ca		 mov	 ecx, edx
  00029	c1 e9 1f	 shr	 ecx, 31			; 0000001fH
  0002c	03 ca		 add	 ecx, edx
  0002e	d1 f9		 sar	 ecx, 1
  00030	8d 0c 49	 lea	 ecx, DWORD PTR [ecx+ecx*2]
  00033	8d 34 8f	 lea	 esi, DWORD PTR [edi+ecx*4]

; 7281 :     const _Diff _Count = _Last - _First;

  00036	8b cb		 mov	 ecx, ebx
  00038	2b cf		 sub	 ecx, edi

; 7282 :     if (40 < _Count) { // Tukey's ninther

  0003a	8b 7d 14	 mov	 edi, DWORD PTR __Pred$[ebp]
  0003d	f7 e9		 imul	 ecx
  0003f	8b 4d 0c	 mov	 ecx, DWORD PTR __First$[ebp]
  00042	d1 fa		 sar	 edx, 1
  00044	8b c2		 mov	 eax, edx
  00046	c1 e8 1f	 shr	 eax, 31			; 0000001fH
  00049	03 c2		 add	 eax, edx
  0004b	83 f8 28	 cmp	 eax, 40			; 00000028H
  0004e	7e 59		 jle	 SHORT $LN35@Partition_

; 7283 :         const _Diff _Step     = (_Count + 1) >> 3; // +1 can't overflow because range was made inclusive in caller
; 7284 :         const _Diff _Two_step = _Step << 1; // note: intentionally discards low-order bit
; 7285 :         _Med3_unchecked(_First, _First + _Step, _First + _Two_step, _Pred);

  00050	ff 75 14	 push	 DWORD PTR __Pred$[ebp]
  00053	40		 inc	 eax
  00054	c1 f8 03	 sar	 eax, 3
  00057	8d 1c 40	 lea	 ebx, DWORD PTR [eax+eax*2]
  0005a	8d 3c 40	 lea	 edi, DWORD PTR [eax+eax*2]
  0005d	c1 e3 03	 shl	 ebx, 3
  00060	c1 e7 02	 shl	 edi, 2
  00063	8d 04 0b	 lea	 eax, DWORD PTR [ebx+ecx]
  00066	8d 14 0f	 lea	 edx, DWORD PTR [edi+ecx]
  00069	50		 push	 eax
  0006a	52		 push	 edx
  0006b	51		 push	 ecx
  0006c	89 55 f8	 mov	 DWORD PTR $T2[ebp], edx
  0006f	e8 00 00 00 00	 call	 ??$_Med3_unchecked@PAUSDumpData@@P6A_NABU1@0@Z@std@@YAXPAUSDumpData@@00P6A_NABU1@1@Z@Z ; std::_Med3_unchecked<SDumpData *,bool (__cdecl*)(SDumpData const &,SDumpData const &)>

; 7286 :         _Med3_unchecked(_Mid - _Step, _Mid, _Mid + _Step, _Pred);

  00074	ff 75 14	 push	 DWORD PTR __Pred$[ebp]
  00077	8d 04 37	 lea	 eax, DWORD PTR [edi+esi]
  0007a	50		 push	 eax
  0007b	8b c6		 mov	 eax, esi
  0007d	2b c7		 sub	 eax, edi
  0007f	56		 push	 esi
  00080	50		 push	 eax
  00081	e8 00 00 00 00	 call	 ??$_Med3_unchecked@PAUSDumpData@@P6A_NABU1@0@Z@std@@YAXPAUSDumpData@@00P6A_NABU1@1@Z@Z ; std::_Med3_unchecked<SDumpData *,bool (__cdecl*)(SDumpData const &,SDumpData const &)>

; 7287 :         _Med3_unchecked(_Last - _Two_step, _Last - _Step, _Last, _Pred);

  00086	8b 4d f4	 mov	 ecx, DWORD PTR __Last$1$[ebp]
  00089	8b c1		 mov	 eax, ecx
  0008b	2b c7		 sub	 eax, edi
  0008d	8b 7d 14	 mov	 edi, DWORD PTR __Pred$[ebp]
  00090	57		 push	 edi
  00091	51		 push	 ecx
  00092	50		 push	 eax
  00093	2b cb		 sub	 ecx, ebx
  00095	89 45 f4	 mov	 DWORD PTR $T1[ebp], eax
  00098	51		 push	 ecx
  00099	e8 00 00 00 00	 call	 ??$_Med3_unchecked@PAUSDumpData@@P6A_NABU1@0@Z@std@@YAXPAUSDumpData@@00P6A_NABU1@1@Z@Z ; std::_Med3_unchecked<SDumpData *,bool (__cdecl*)(SDumpData const &,SDumpData const &)>

; 7288 :         _Med3_unchecked(_First + _Step, _Mid, _Last - _Step, _Pred);
; 7289 :     } else {

  0009e	8b 45 f4	 mov	 eax, DWORD PTR $T1[ebp]
  000a1	83 c4 30	 add	 esp, 48			; 00000030H
  000a4	8b 4d f8	 mov	 ecx, DWORD PTR $T2[ebp]
  000a7	eb 02		 jmp	 SHORT $LN36@Partition_
$LN35@Partition_:

; 7290 :         _Med3_unchecked(_First, _Mid, _Last, _Pred);

  000a9	8b c3		 mov	 eax, ebx
$LN36@Partition_:

; 7299 :     _RanIt _Pfirst = _Mid;

  000ab	57		 push	 edi
  000ac	50		 push	 eax
  000ad	56		 push	 esi
  000ae	51		 push	 ecx
  000af	e8 00 00 00 00	 call	 ??$_Med3_unchecked@PAUSDumpData@@P6A_NABU1@0@Z@std@@YAXPAUSDumpData@@00P6A_NABU1@1@Z@Z ; std::_Med3_unchecked<SDumpData *,bool (__cdecl*)(SDumpData const &,SDumpData const &)>
  000b4	83 c4 10	 add	 esp, 16			; 00000010H

; 7300 :     _RanIt _Plast  = _Next_iter(_Pfirst);

  000b7	8d 5e 0c	 lea	 ebx, DWORD PTR [esi+12]
  000ba	89 5d fc	 mov	 DWORD PTR __Plast$1$[ebp], ebx

; 7301 : 
; 7302 :     while (_First < _Pfirst && !_DEBUG_LT_PRED(_Pred, *_Prev_iter(_Pfirst), *_Pfirst)
; 7303 :            && !_Pred(*_Pfirst, *_Prev_iter(_Pfirst))) {

  000bd	39 75 0c	 cmp	 DWORD PTR __First$[ebp], esi
  000c0	73 2b		 jae	 SHORT $LN70@Partition_
  000c2	8b 5d 0c	 mov	 ebx, DWORD PTR __First$[ebp]
$LL2@Partition_:
  000c5	8d 46 f4	 lea	 eax, DWORD PTR [esi-12]
  000c8	56		 push	 esi
  000c9	50		 push	 eax
  000ca	89 45 f4	 mov	 DWORD PTR tv460[ebp], eax
  000cd	ff d7		 call	 edi
  000cf	83 c4 08	 add	 esp, 8
  000d2	84 c0		 test	 al, al
  000d4	75 14		 jne	 SHORT $LN94@Partition_
  000d6	ff 75 f4	 push	 DWORD PTR tv460[ebp]
  000d9	56		 push	 esi
  000da	ff d7		 call	 edi
  000dc	83 c4 08	 add	 esp, 8
  000df	84 c0		 test	 al, al
  000e1	75 07		 jne	 SHORT $LN94@Partition_

; 7304 :         --_Pfirst;

  000e3	8b 75 f4	 mov	 esi, DWORD PTR tv460[ebp]
  000e6	3b de		 cmp	 ebx, esi
  000e8	72 db		 jb	 SHORT $LL2@Partition_
$LN94@Partition_:
  000ea	8b 5d fc	 mov	 ebx, DWORD PTR __Plast$1$[ebp]
$LN70@Partition_:

; 7305 :     }
; 7306 : 
; 7307 :     while (_Plast < _Last && !_DEBUG_LT_PRED(_Pred, *_Plast, *_Pfirst) && !_Pred(*_Pfirst, *_Plast)) {

  000ed	8b 45 10	 mov	 eax, DWORD PTR __Last$[ebp]
  000f0	3b d8		 cmp	 ebx, eax
  000f2	73 28		 jae	 SHORT $LN5@Partition_
$LL4@Partition_:
  000f4	56		 push	 esi
  000f5	53		 push	 ebx
  000f6	ff d7		 call	 edi
  000f8	83 c4 08	 add	 esp, 8
  000fb	84 c0		 test	 al, al
  000fd	75 17		 jne	 SHORT $LN99@Partition_
  000ff	53		 push	 ebx
  00100	56		 push	 esi
  00101	ff d7		 call	 edi
  00103	83 c4 08	 add	 esp, 8
  00106	84 c0		 test	 al, al
  00108	8b 45 10	 mov	 eax, DWORD PTR __Last$[ebp]
  0010b	75 0c		 jne	 SHORT $LN95@Partition_

; 7308 :         ++_Plast;

  0010d	83 c3 0c	 add	 ebx, 12			; 0000000cH
  00110	3b d8		 cmp	 ebx, eax
  00112	72 e0		 jb	 SHORT $LL4@Partition_

; 7305 :     }
; 7306 : 
; 7307 :     while (_Plast < _Last && !_DEBUG_LT_PRED(_Pred, *_Plast, *_Pfirst) && !_Pred(*_Pfirst, *_Plast)) {

  00114	eb 03		 jmp	 SHORT $LN95@Partition_
$LN99@Partition_:
  00116	8b 45 10	 mov	 eax, DWORD PTR __Last$[ebp]
$LN95@Partition_:
  00119	89 5d fc	 mov	 DWORD PTR __Plast$1$[ebp], ebx
$LN5@Partition_:

; 7309 :     }
; 7310 : 
; 7311 :     _RanIt _Gfirst = _Plast;

  0011c	8b fb		 mov	 edi, ebx

; 7312 :     _RanIt _Glast  = _Pfirst;

  0011e	8b d6		 mov	 edx, esi
$LN103@Partition_:

; 7315 :         for (; _Gfirst < _Last; ++_Gfirst) {

  00120	89 55 f8	 mov	 DWORD PTR __Glast$1$[ebp], edx
$LN102@Partition_:
  00123	89 7d f4	 mov	 DWORD PTR __Gfirst$1$[ebp], edi
$LL6@Partition_:
  00126	3b f8		 cmp	 edi, eax
  00128	73 52		 jae	 SHORT $LN74@Partition_
  0012a	66 0f 1f 44 00
	00		 npad	 6
$LL11@Partition_:

; 7316 :             if (_DEBUG_LT_PRED(_Pred, *_Pfirst, *_Gfirst)) {

  00130	57		 push	 edi
  00131	56		 push	 esi
  00132	ff 55 14	 call	 DWORD PTR __Pred$[ebp]
  00135	83 c4 08	 add	 esp, 8
  00138	84 c0		 test	 al, al
  0013a	75 2f		 jne	 SHORT $LN9@Partition_

; 7317 :                 continue;
; 7318 :             } else if (_Pred(*_Gfirst, *_Pfirst)) {

  0013c	56		 push	 esi
  0013d	57		 push	 edi
  0013e	ff 55 14	 call	 DWORD PTR __Pred$[ebp]
  00141	83 c4 08	 add	 esp, 8
  00144	84 c0		 test	 al, al
  00146	75 2b		 jne	 SHORT $LN96@Partition_

; 7319 :                 break;
; 7320 :             } else if (_Plast != _Gfirst) {

  00148	3b df		 cmp	 ebx, edi
  0014a	74 1c		 je	 SHORT $LN19@Partition_
; File C:\Program Files (x86)\Microsoft Visual Studio\2019\Professional\VC\Tools\MSVC\14.29.30133\include\utility

; 105  :     _Left    = _STD move(_Right);

  0014c	f3 0f 7e 07	 movq	 xmm0, QWORD PTR [edi]
  00150	f3 0f 7e 0b	 movq	 xmm1, QWORD PTR [ebx]
  00154	8b 4b 08	 mov	 ecx, DWORD PTR [ebx+8]
  00157	66 0f d6 03	 movq	 QWORD PTR [ebx], xmm0
  0015b	8b 47 08	 mov	 eax, DWORD PTR [edi+8]
  0015e	89 43 08	 mov	 DWORD PTR [ebx+8], eax

; 106  :     _Right   = _STD move(_Tmp);

  00161	66 0f d6 0f	 movq	 QWORD PTR [edi], xmm1
  00165	89 4f 08	 mov	 DWORD PTR [edi+8], ecx
$LN19@Partition_:
; File C:\Program Files (x86)\Microsoft Visual Studio\2019\Professional\VC\Tools\MSVC\14.29.30133\include\algorithm

; 7315 :         for (; _Gfirst < _Last; ++_Gfirst) {

  00168	83 c3 0c	 add	 ebx, 12			; 0000000cH
$LN9@Partition_:
  0016b	83 c7 0c	 add	 edi, 12			; 0000000cH
  0016e	3b 7d 10	 cmp	 edi, DWORD PTR __Last$[ebp]
  00171	72 bd		 jb	 SHORT $LL11@Partition_
$LN96@Partition_:
  00173	8b 55 f8	 mov	 edx, DWORD PTR __Glast$1$[ebp]
  00176	89 5d fc	 mov	 DWORD PTR __Plast$1$[ebp], ebx
  00179	89 7d f4	 mov	 DWORD PTR __Gfirst$1$[ebp], edi
$LN74@Partition_:

; 7328 :         for (; _First < _Glast; --_Glast) {

  0017c	8b 45 0c	 mov	 eax, DWORD PTR __First$[ebp]
  0017f	3b d0		 cmp	 edx, eax
  00181	76 68		 jbe	 SHORT $LN101@Partition_
  00183	8b 5d f8	 mov	 ebx, DWORD PTR __Glast$1$[ebp]
  00186	8d 7b f4	 lea	 edi, DWORD PTR [ebx-12]
  00189	0f 1f 80 00 00
	00 00		 npad	 7
$LL14@Partition_:

; 7329 :             if (_DEBUG_LT_PRED(_Pred, *_Prev_iter(_Glast), *_Pfirst)) {

  00190	56		 push	 esi
  00191	57		 push	 edi
  00192	ff 55 14	 call	 DWORD PTR __Pred$[ebp]
  00195	83 c4 08	 add	 esp, 8
  00198	84 c0		 test	 al, al
  0019a	75 2f		 jne	 SHORT $LN12@Partition_

; 7330 :                 continue;
; 7331 :             } else if (_Pred(*_Pfirst, *_Prev_iter(_Glast))) {

  0019c	57		 push	 edi
  0019d	56		 push	 esi
  0019e	ff 55 14	 call	 DWORD PTR __Pred$[ebp]
  001a1	83 c4 08	 add	 esp, 8
  001a4	84 c0		 test	 al, al
  001a6	75 32		 jne	 SHORT $LN100@Partition_

; 7332 :                 break;
; 7333 :             } else if (--_Pfirst != _Prev_iter(_Glast)) {

  001a8	83 ee 0c	 sub	 esi, 12			; 0000000cH
  001ab	3b f7		 cmp	 esi, edi
  001ad	74 1c		 je	 SHORT $LN12@Partition_
; File C:\Program Files (x86)\Microsoft Visual Studio\2019\Professional\VC\Tools\MSVC\14.29.30133\include\utility

; 105  :     _Left    = _STD move(_Right);

  001af	f3 0f 7e 07	 movq	 xmm0, QWORD PTR [edi]
  001b3	f3 0f 7e 0e	 movq	 xmm1, QWORD PTR [esi]
  001b7	8b 4e 08	 mov	 ecx, DWORD PTR [esi+8]
  001ba	66 0f d6 06	 movq	 QWORD PTR [esi], xmm0
  001be	8b 47 08	 mov	 eax, DWORD PTR [edi+8]
  001c1	89 46 08	 mov	 DWORD PTR [esi+8], eax

; 106  :     _Right   = _STD move(_Tmp);

  001c4	66 0f d6 0f	 movq	 QWORD PTR [edi], xmm1
  001c8	89 4f 08	 mov	 DWORD PTR [edi+8], ecx
$LN12@Partition_:
; File C:\Program Files (x86)\Microsoft Visual Studio\2019\Professional\VC\Tools\MSVC\14.29.30133\include\algorithm

; 7328 :         for (; _First < _Glast; --_Glast) {

  001cb	8b 45 0c	 mov	 eax, DWORD PTR __First$[ebp]
  001ce	83 eb 0c	 sub	 ebx, 12			; 0000000cH
  001d1	83 ef 0c	 sub	 edi, 12			; 0000000cH
  001d4	3b c3		 cmp	 eax, ebx
  001d6	72 b8		 jb	 SHORT $LL14@Partition_

; 7330 :                 continue;
; 7331 :             } else if (_Pred(*_Pfirst, *_Prev_iter(_Glast))) {

  001d8	eb 03		 jmp	 SHORT $LN97@Partition_
$LN100@Partition_:
  001da	8b 45 0c	 mov	 eax, DWORD PTR __First$[ebp]
$LN97@Partition_:
  001dd	8b 7d f4	 mov	 edi, DWORD PTR __Gfirst$1$[ebp]
  001e0	89 5d f8	 mov	 DWORD PTR __Glast$1$[ebp], ebx
  001e3	8b 55 f8	 mov	 edx, DWORD PTR __Glast$1$[ebp]

; 7334 :                 _STD iter_swap(_Pfirst, _Prev_iter(_Glast));
; 7335 :             }
; 7336 :         }
; 7337 : 
; 7338 :         if (_Glast == _First && _Gfirst == _Last) {

  001e6	3b d0		 cmp	 edx, eax
  001e8	8b 5d fc	 mov	 ebx, DWORD PTR __Plast$1$[ebp]
$LN101@Partition_:
  001eb	75 59		 jne	 SHORT $LN27@Partition_
  001ed	3b 7d 10	 cmp	 edi, DWORD PTR __Last$[ebp]
  001f0	0f 84 d0 00 00
	00		 je	 $LN76@Partition_

; 7340 :         }
; 7341 : 
; 7342 :         if (_Glast == _First) { // no room at bottom, rotate pivot upward
; 7343 :             if (_Plast != _Gfirst) {

  001f6	3b df		 cmp	 ebx, edi
  001f8	74 1c		 je	 SHORT $LN51@Partition_
; File C:\Program Files (x86)\Microsoft Visual Studio\2019\Professional\VC\Tools\MSVC\14.29.30133\include\utility

; 105  :     _Left    = _STD move(_Right);

  001fa	f3 0f 7e 03	 movq	 xmm0, QWORD PTR [ebx]
  001fe	f3 0f 7e 0e	 movq	 xmm1, QWORD PTR [esi]
  00202	8b 4e 08	 mov	 ecx, DWORD PTR [esi+8]
  00205	66 0f d6 06	 movq	 QWORD PTR [esi], xmm0
  00209	8b 43 08	 mov	 eax, DWORD PTR [ebx+8]
  0020c	89 46 08	 mov	 DWORD PTR [esi+8], eax

; 106  :     _Right   = _STD move(_Tmp);

  0020f	66 0f d6 0b	 movq	 QWORD PTR [ebx], xmm1
  00213	89 4b 08	 mov	 DWORD PTR [ebx+8], ecx
$LN51@Partition_:

; 105  :     _Left    = _STD move(_Right);

  00216	f3 0f 7e 07	 movq	 xmm0, QWORD PTR [edi]
; File C:\Program Files (x86)\Microsoft Visual Studio\2019\Professional\VC\Tools\MSVC\14.29.30133\include\algorithm

; 7347 :             ++_Plast;

  0021a	83 c3 0c	 add	 ebx, 12			; 0000000cH
; File C:\Program Files (x86)\Microsoft Visual Studio\2019\Professional\VC\Tools\MSVC\14.29.30133\include\utility

; 104  :     _Ty _Tmp = _STD move(_Left);

  0021d	f3 0f 7e 0e	 movq	 xmm1, QWORD PTR [esi]
  00221	8b 4e 08	 mov	 ecx, DWORD PTR [esi+8]

; 105  :     _Left    = _STD move(_Right);

  00224	66 0f d6 06	 movq	 QWORD PTR [esi], xmm0
  00228	8b 47 08	 mov	 eax, DWORD PTR [edi+8]
  0022b	89 46 08	 mov	 DWORD PTR [esi+8], eax
; File C:\Program Files (x86)\Microsoft Visual Studio\2019\Professional\VC\Tools\MSVC\14.29.30133\include\algorithm

; 7349 :             ++_Pfirst;

  0022e	83 c6 0c	 add	 esi, 12			; 0000000cH

; 7350 :             ++_Gfirst;

  00231	8b 45 10	 mov	 eax, DWORD PTR __Last$[ebp]
; File C:\Program Files (x86)\Microsoft Visual Studio\2019\Professional\VC\Tools\MSVC\14.29.30133\include\utility

; 106  :     _Right   = _STD move(_Tmp);

  00234	66 0f d6 0f	 movq	 QWORD PTR [edi], xmm1
  00238	89 4f 08	 mov	 DWORD PTR [edi+8], ecx
; File C:\Program Files (x86)\Microsoft Visual Studio\2019\Professional\VC\Tools\MSVC\14.29.30133\include\algorithm

; 7350 :             ++_Gfirst;

  0023b	83 c7 0c	 add	 edi, 12			; 0000000cH
  0023e	89 5d fc	 mov	 DWORD PTR __Plast$1$[ebp], ebx
  00241	e9 dd fe ff ff	 jmp	 $LN102@Partition_
$LN27@Partition_:

; 7351 :         } else if (_Gfirst == _Last) { // no room at top, rotate pivot downward

  00246	83 c2 f4	 add	 edx, -12		; fffffff4H
  00249	89 55 f8	 mov	 DWORD PTR __Glast$1$[ebp], edx
  0024c	3b 7d 10	 cmp	 edi, DWORD PTR __Last$[ebp]
  0024f	75 4e		 jne	 SHORT $LN30@Partition_

; 7352 :             if (--_Glast != --_Pfirst) {

  00251	83 ee 0c	 sub	 esi, 12			; 0000000cH
  00254	3b d6		 cmp	 edx, esi
  00256	74 1c		 je	 SHORT $LN59@Partition_
; File C:\Program Files (x86)\Microsoft Visual Studio\2019\Professional\VC\Tools\MSVC\14.29.30133\include\utility

; 105  :     _Left    = _STD move(_Right);

  00258	f3 0f 7e 06	 movq	 xmm0, QWORD PTR [esi]
  0025c	f3 0f 7e 0a	 movq	 xmm1, QWORD PTR [edx]
  00260	8b 4a 08	 mov	 ecx, DWORD PTR [edx+8]
  00263	66 0f d6 02	 movq	 QWORD PTR [edx], xmm0
  00267	8b 46 08	 mov	 eax, DWORD PTR [esi+8]
  0026a	89 42 08	 mov	 DWORD PTR [edx+8], eax

; 106  :     _Right   = _STD move(_Tmp);

  0026d	66 0f d6 0e	 movq	 QWORD PTR [esi], xmm1
  00271	89 4e 08	 mov	 DWORD PTR [esi+8], ecx
$LN59@Partition_:

; 105  :     _Left    = _STD move(_Right);

  00274	f3 0f 7e 43 f4	 movq	 xmm0, QWORD PTR [ebx-12]
; File C:\Program Files (x86)\Microsoft Visual Studio\2019\Professional\VC\Tools\MSVC\14.29.30133\include\algorithm

; 7356 :             _STD iter_swap(_Pfirst, --_Plast);

  00279	83 eb 0c	 sub	 ebx, 12			; 0000000cH
; File C:\Program Files (x86)\Microsoft Visual Studio\2019\Professional\VC\Tools\MSVC\14.29.30133\include\utility

; 104  :     _Ty _Tmp = _STD move(_Left);

  0027c	f3 0f 7e 0e	 movq	 xmm1, QWORD PTR [esi]
  00280	8b 4e 08	 mov	 ecx, DWORD PTR [esi+8]

; 105  :     _Left    = _STD move(_Right);

  00283	66 0f d6 06	 movq	 QWORD PTR [esi], xmm0
  00287	8b 43 08	 mov	 eax, DWORD PTR [ebx+8]
  0028a	89 46 08	 mov	 DWORD PTR [esi+8], eax
; File C:\Program Files (x86)\Microsoft Visual Studio\2019\Professional\VC\Tools\MSVC\14.29.30133\include\algorithm

; 7357 :         } else {

  0028d	8b 45 10	 mov	 eax, DWORD PTR __Last$[ebp]
; File C:\Program Files (x86)\Microsoft Visual Studio\2019\Professional\VC\Tools\MSVC\14.29.30133\include\utility

; 106  :     _Right   = _STD move(_Tmp);

  00290	66 0f d6 0b	 movq	 QWORD PTR [ebx], xmm1
; File C:\Program Files (x86)\Microsoft Visual Studio\2019\Professional\VC\Tools\MSVC\14.29.30133\include\algorithm

; 7356 :             _STD iter_swap(_Pfirst, --_Plast);

  00294	89 5d fc	 mov	 DWORD PTR __Plast$1$[ebp], ebx
; File C:\Program Files (x86)\Microsoft Visual Studio\2019\Professional\VC\Tools\MSVC\14.29.30133\include\utility

; 106  :     _Right   = _STD move(_Tmp);

  00297	89 4b 08	 mov	 DWORD PTR [ebx+8], ecx
; File C:\Program Files (x86)\Microsoft Visual Studio\2019\Professional\VC\Tools\MSVC\14.29.30133\include\algorithm

; 7357 :         } else {

  0029a	e9 87 fe ff ff	 jmp	 $LL6@Partition_
$LN30@Partition_:
; File C:\Program Files (x86)\Microsoft Visual Studio\2019\Professional\VC\Tools\MSVC\14.29.30133\include\utility

; 104  :     _Ty _Tmp = _STD move(_Left);

  0029f	f3 0f 7e 0f	 movq	 xmm1, QWORD PTR [edi]
  002a3	8b 4f 08	 mov	 ecx, DWORD PTR [edi+8]

; 105  :     _Left    = _STD move(_Right);

  002a6	f3 0f 7e 02	 movq	 xmm0, QWORD PTR [edx]
  002aa	66 0f d6 07	 movq	 QWORD PTR [edi], xmm0
  002ae	8b 42 08	 mov	 eax, DWORD PTR [edx+8]
  002b1	89 47 08	 mov	 DWORD PTR [edi+8], eax
; File C:\Program Files (x86)\Microsoft Visual Studio\2019\Professional\VC\Tools\MSVC\14.29.30133\include\algorithm

; 7359 :             ++_Gfirst;

  002b4	83 c7 0c	 add	 edi, 12			; 0000000cH

; 7361 :     }

  002b7	8b 45 10	 mov	 eax, DWORD PTR __Last$[ebp]
; File C:\Program Files (x86)\Microsoft Visual Studio\2019\Professional\VC\Tools\MSVC\14.29.30133\include\utility

; 106  :     _Right   = _STD move(_Tmp);

  002ba	66 0f d6 0a	 movq	 QWORD PTR [edx], xmm1
  002be	89 4a 08	 mov	 DWORD PTR [edx+8], ecx
; File C:\Program Files (x86)\Microsoft Visual Studio\2019\Professional\VC\Tools\MSVC\14.29.30133\include\algorithm

; 7361 :     }

  002c1	e9 5a fe ff ff	 jmp	 $LN103@Partition_
$LN76@Partition_:
; File C:\Program Files (x86)\Microsoft Visual Studio\2019\Professional\VC\Tools\MSVC\14.29.30133\include\utility

; 193  :         : first(_STD forward<_Other1>(_Val1)), second(_STD forward<_Other2>(_Val2)) {}

  002c6	8b 45 08	 mov	 eax, DWORD PTR ___$ReturnUdt$[ebp]
; File C:\Program Files (x86)\Microsoft Visual Studio\2019\Professional\VC\Tools\MSVC\14.29.30133\include\algorithm

; 7339 :             return pair<_RanIt, _RanIt>(_Pfirst, _Plast);

  002c9	5f		 pop	 edi
; File C:\Program Files (x86)\Microsoft Visual Studio\2019\Professional\VC\Tools\MSVC\14.29.30133\include\utility

; 193  :         : first(_STD forward<_Other1>(_Val1)), second(_STD forward<_Other2>(_Val2)) {}

  002ca	89 30		 mov	 DWORD PTR [eax], esi
; File C:\Program Files (x86)\Microsoft Visual Studio\2019\Professional\VC\Tools\MSVC\14.29.30133\include\algorithm

; 7339 :             return pair<_RanIt, _RanIt>(_Pfirst, _Plast);

  002cc	5e		 pop	 esi
; File C:\Program Files (x86)\Microsoft Visual Studio\2019\Professional\VC\Tools\MSVC\14.29.30133\include\utility

; 193  :         : first(_STD forward<_Other1>(_Val1)), second(_STD forward<_Other2>(_Val2)) {}

  002cd	89 58 04	 mov	 DWORD PTR [eax+4], ebx
; File C:\Program Files (x86)\Microsoft Visual Studio\2019\Professional\VC\Tools\MSVC\14.29.30133\include\algorithm

; 7339 :             return pair<_RanIt, _RanIt>(_Pfirst, _Plast);

  002d0	5b		 pop	 ebx

; 7362 : }

  002d1	8b e5		 mov	 esp, ebp
  002d3	5d		 pop	 ebp
  002d4	c3		 ret	 0
??$_Partition_by_median_guess_unchecked@PAUSDumpData@@P6A_NABU1@0@Z@std@@YA?AU?$pair@PAUSDumpData@@PAU1@@0@PAUSDumpData@@0P6A_NABU2@1@Z@Z ENDP ; std::_Partition_by_median_guess_unchecked<SDumpData *,bool (__cdecl*)(SDumpData const &,SDumpData const &)>
_TEXT	ENDS
; Function compile flags: /Ogtp
; File C:\Program Files (x86)\Microsoft Visual Studio\2019\Professional\VC\Tools\MSVC\14.29.30133\include\algorithm
;	COMDAT ??$_Make_heap_unchecked@PAUSDumpData@@P6A_NABU1@0@Z@std@@YAXPAUSDumpData@@0P6A_NABU1@1@Z@Z
_TEXT	SEGMENT
__Val$1 = -28						; size = 12
tv163 = -16						; size = 4
tv176 = -12						; size = 4
tv193 = -8						; size = 4
__Bottom$1$ = -4					; size = 4
__Max_sequence_non_leaf$1$ = 8				; size = 4
__First$ = 8						; size = 4
__Hole$1$ = 12						; size = 4
__Last$ = 12						; size = 4
__Pred$ = 16						; size = 4
??$_Make_heap_unchecked@PAUSDumpData@@P6A_NABU1@0@Z@std@@YAXPAUSDumpData@@0P6A_NABU1@1@Z@Z PROC ; std::_Make_heap_unchecked<SDumpData *,bool (__cdecl*)(SDumpData const &,SDumpData const &)>, COMDAT

; 5843 : _CONSTEXPR20 void _Make_heap_unchecked(_RanIt _First, _RanIt _Last, _Pr _Pred) {

  00000	55		 push	 ebp
  00001	8b ec		 mov	 ebp, esp
  00003	83 ec 1c	 sub	 esp, 28			; 0000001cH

; 5844 :     // make [_First, _Last) into a heap
; 5845 :     using _Diff   = _Iter_diff_t<_RanIt>;
; 5846 :     _Diff _Bottom = _Last - _First;

  00006	8b 4d 0c	 mov	 ecx, DWORD PTR __Last$[ebp]
  00009	b8 ab aa aa 2a	 mov	 eax, 715827883		; 2aaaaaabH
  0000e	53		 push	 ebx
  0000f	8b 5d 08	 mov	 ebx, DWORD PTR __First$[ebp]
  00012	2b cb		 sub	 ecx, ebx
  00014	f7 e9		 imul	 ecx
  00016	d1 fa		 sar	 edx, 1
  00018	8b c2		 mov	 eax, edx
  0001a	c1 e8 1f	 shr	 eax, 31			; 0000001fH
  0001d	03 c2		 add	 eax, edx

; 5847 :     for (_Diff _Hole = _Bottom >> 1; _Hole > 0;) { // shift for codegen

  0001f	8b c8		 mov	 ecx, eax
  00021	89 45 fc	 mov	 DWORD PTR __Bottom$1$[ebp], eax
  00024	d1 f9		 sar	 ecx, 1
  00026	85 c9		 test	 ecx, ecx
  00028	0f 8e 08 01 00
	00		 jle	 $LN3@Make_heap_

; 5844 :     // make [_First, _Last) into a heap
; 5845 :     using _Diff   = _Iter_diff_t<_RanIt>;
; 5846 :     _Diff _Bottom = _Last - _First;

  0002e	48		 dec	 eax
  0002f	8b d0		 mov	 edx, eax
  00031	89 45 f8	 mov	 DWORD PTR tv193[ebp], eax
  00034	d1 fa		 sar	 edx, 1
  00036	8d 04 49	 lea	 eax, DWORD PTR [ecx+ecx*2]
  00039	56		 push	 esi
  0003a	89 55 08	 mov	 DWORD PTR __Max_sequence_non_leaf$1$[ebp], edx
  0003d	8d 04 83	 lea	 eax, DWORD PTR [ebx+eax*4]
  00040	57		 push	 edi
$LL2@Make_heap_:

; 5848 :         // reheap top half, bottom to top
; 5849 :         --_Hole;
; 5850 :         _Iter_value_t<_RanIt> _Val = _STD move(*(_First + _Hole));

  00041	f3 0f 7e 40 f4	 movq	 xmm0, QWORD PTR [eax-12]
  00046	83 e8 0c	 sub	 eax, 12			; 0000000cH
  00049	49		 dec	 ecx
  0004a	89 45 f0	 mov	 DWORD PTR tv163[ebp], eax
  0004d	89 4d 0c	 mov	 DWORD PTR __Hole$1$[ebp], ecx

; 5851 :         _Pop_heap_hole_by_index(_First, _Hole, _Bottom, _STD move(_Val), _Pred);

  00050	8b f9		 mov	 edi, ecx
  00052	66 0f d6 45 e4	 movq	 QWORD PTR __Val$1[ebp], xmm0

; 5678 :     _Diff _Idx       = _Hole;

  00057	8b f1		 mov	 esi, ecx

; 5848 :         // reheap top half, bottom to top
; 5849 :         --_Hole;
; 5850 :         _Iter_value_t<_RanIt> _Val = _STD move(*(_First + _Hole));

  00059	8b 40 08	 mov	 eax, DWORD PTR [eax+8]
  0005c	89 45 ec	 mov	 DWORD PTR __Val$1[ebp+8], eax

; 5683 :     while (_Idx < _Max_sequence_non_leaf) { // move _Hole down to larger child

  0005f	3b ca		 cmp	 ecx, edx
  00061	7d 41		 jge	 SHORT $LN8@Make_heap_
$LL7@Make_heap_:

; 5684 :         _Idx = 2 * _Idx + 2;

  00063	8d 34 75 02 00
	00 00		 lea	 esi, DWORD PTR [esi*2+2]

; 5685 :         if (_DEBUG_LT_PRED(_Pred, *(_First + _Idx), *(_First + (_Idx - 1)))) {

  0006a	8d 04 76	 lea	 eax, DWORD PTR [esi+esi*2]
  0006d	8d 0c 83	 lea	 ecx, DWORD PTR [ebx+eax*4]
  00070	8d 41 f4	 lea	 eax, DWORD PTR [ecx-12]
  00073	50		 push	 eax
  00074	51		 push	 ecx
  00075	ff 55 10	 call	 DWORD PTR __Pred$[ebp]
  00078	83 c4 08	 add	 esp, 8
  0007b	84 c0		 test	 al, al
  0007d	74 01		 je	 SHORT $LN9@Make_heap_

; 5686 :             --_Idx;

  0007f	4e		 dec	 esi
$LN9@Make_heap_:

; 5687 :         }
; 5688 :         *(_First + _Hole) = _STD move(*(_First + _Idx));

  00080	8d 04 76	 lea	 eax, DWORD PTR [esi+esi*2]
  00083	f3 0f 7e 04 83	 movq	 xmm0, QWORD PTR [ebx+eax*4]
  00088	8d 14 83	 lea	 edx, DWORD PTR [ebx+eax*4]
  0008b	8d 04 7f	 lea	 eax, DWORD PTR [edi+edi*2]

; 5689 :         _Hole             = _Idx;

  0008e	8b fe		 mov	 edi, esi
  00090	8d 0c 83	 lea	 ecx, DWORD PTR [ebx+eax*4]
  00093	66 0f d6 01	 movq	 QWORD PTR [ecx], xmm0
  00097	8b 42 08	 mov	 eax, DWORD PTR [edx+8]
  0009a	8b 55 08	 mov	 edx, DWORD PTR __Max_sequence_non_leaf$1$[ebp]
  0009d	89 41 08	 mov	 DWORD PTR [ecx+8], eax
  000a0	3b f2		 cmp	 esi, edx
  000a2	7c bf		 jl	 SHORT $LL7@Make_heap_
$LN8@Make_heap_:

; 5690 :     }
; 5691 : 
; 5692 :     if (_Idx == _Max_sequence_non_leaf && _Bottom % 2 == 0) { // only child at bottom, move _Hole down to it

  000a4	3b f2		 cmp	 esi, edx
  000a6	75 26		 jne	 SHORT $LN10@Make_heap_
  000a8	8b 45 fc	 mov	 eax, DWORD PTR __Bottom$1$[ebp]
  000ab	a8 01		 test	 al, 1
  000ad	75 1f		 jne	 SHORT $LN10@Make_heap_

; 5693 :         *(_First + _Hole) = _STD move(*(_First + (_Bottom - 1)));

  000af	8d 04 40	 lea	 eax, DWORD PTR [eax+eax*2]
  000b2	f3 0f 7e 44 83
	f4		 movq	 xmm0, QWORD PTR [ebx+eax*4-12]
  000b8	8d 14 83	 lea	 edx, DWORD PTR [ebx+eax*4]
  000bb	8d 04 7f	 lea	 eax, DWORD PTR [edi+edi*2]

; 5694 :         _Hole             = _Bottom - 1;

  000be	8b 7d f8	 mov	 edi, DWORD PTR tv193[ebp]
  000c1	8d 0c 83	 lea	 ecx, DWORD PTR [ebx+eax*4]
  000c4	66 0f d6 01	 movq	 QWORD PTR [ecx], xmm0
  000c8	8b 42 fc	 mov	 eax, DWORD PTR [edx-4]
  000cb	89 41 08	 mov	 DWORD PTR [ecx+8], eax
$LN10@Make_heap_:

; 5563 :          _Top < _Hole && _DEBUG_LT_PRED(_Pred, *(_First + _Idx), _Val); //

  000ce	39 7d 0c	 cmp	 DWORD PTR __Hole$1$[ebp], edi
  000d1	7d 3b		 jge	 SHORT $LN30@Make_heap_
$LL15@Make_heap_:

; 5562 :     for (_Diff _Idx = (_Hole - 1) >> 1; // shift for codegen

  000d3	8d 77 ff	 lea	 esi, DWORD PTR [edi-1]
  000d6	d1 fe		 sar	 esi, 1

; 5563 :          _Top < _Hole && _DEBUG_LT_PRED(_Pred, *(_First + _Idx), _Val); //

  000d8	8d 4d e4	 lea	 ecx, DWORD PTR __Val$1[ebp]
  000db	51		 push	 ecx
  000dc	8d 04 76	 lea	 eax, DWORD PTR [esi+esi*2]
  000df	8d 04 83	 lea	 eax, DWORD PTR [ebx+eax*4]
  000e2	50		 push	 eax
  000e3	89 45 f4	 mov	 DWORD PTR tv176[ebp], eax
  000e6	ff 55 10	 call	 DWORD PTR __Pred$[ebp]
  000e9	83 c4 08	 add	 esp, 8
  000ec	84 c0		 test	 al, al
  000ee	74 1e		 je	 SHORT $LN30@Make_heap_

; 5564 :          _Idx = (_Hole - 1) >> 1) { // shift for codegen
; 5565 :         // move _Hole up to parent
; 5566 :         *(_First + _Hole) = _STD move(*(_First + _Idx));

  000f0	8d 04 7f	 lea	 eax, DWORD PTR [edi+edi*2]

; 5567 :         _Hole             = _Idx;

  000f3	8b fe		 mov	 edi, esi
  000f5	8d 0c 83	 lea	 ecx, DWORD PTR [ebx+eax*4]
  000f8	8b 45 f4	 mov	 eax, DWORD PTR tv176[ebp]
  000fb	f3 0f 7e 00	 movq	 xmm0, QWORD PTR [eax]
  000ff	66 0f d6 01	 movq	 QWORD PTR [ecx], xmm0
  00103	8b 40 08	 mov	 eax, DWORD PTR [eax+8]
  00106	89 41 08	 mov	 DWORD PTR [ecx+8], eax
  00109	39 75 0c	 cmp	 DWORD PTR __Hole$1$[ebp], esi
  0010c	7c c5		 jl	 SHORT $LL15@Make_heap_
$LN30@Make_heap_:

; 5568 :     }
; 5569 : 
; 5570 :     *(_First + _Hole) = _STD forward<_Ty>(_Val); // drop _Val into final hole

  0010e	f3 0f 7e 45 e4	 movq	 xmm0, QWORD PTR __Val$1[ebp]
  00113	8d 04 7f	 lea	 eax, DWORD PTR [edi+edi*2]

; 5847 :     for (_Diff _Hole = _Bottom >> 1; _Hole > 0;) { // shift for codegen

  00116	8b 55 08	 mov	 edx, DWORD PTR __Max_sequence_non_leaf$1$[ebp]

; 5570 :     *(_First + _Hole) = _STD forward<_Ty>(_Val); // drop _Val into final hole

  00119	8d 0c 83	 lea	 ecx, DWORD PTR [ebx+eax*4]
  0011c	8b 45 ec	 mov	 eax, DWORD PTR __Val$1[ebp+8]
  0011f	66 0f d6 01	 movq	 QWORD PTR [ecx], xmm0
  00123	89 41 08	 mov	 DWORD PTR [ecx+8], eax

; 5847 :     for (_Diff _Hole = _Bottom >> 1; _Hole > 0;) { // shift for codegen

  00126	8b 4d 0c	 mov	 ecx, DWORD PTR __Hole$1$[ebp]
  00129	8b 45 f0	 mov	 eax, DWORD PTR tv163[ebp]
  0012c	85 c9		 test	 ecx, ecx
  0012e	0f 8f 0d ff ff
	ff		 jg	 $LL2@Make_heap_
  00134	5f		 pop	 edi
  00135	5e		 pop	 esi
$LN3@Make_heap_:
  00136	5b		 pop	 ebx

; 5852 :     }
; 5853 : }

  00137	8b e5		 mov	 esp, ebp
  00139	5d		 pop	 ebp
  0013a	c3		 ret	 0
??$_Make_heap_unchecked@PAUSDumpData@@P6A_NABU1@0@Z@std@@YAXPAUSDumpData@@0P6A_NABU1@1@Z@Z ENDP ; std::_Make_heap_unchecked<SDumpData *,bool (__cdecl*)(SDumpData const &,SDumpData const &)>
_TEXT	ENDS
; Function compile flags: /Ogtp
; File C:\Program Files (x86)\Microsoft Visual Studio\2019\Professional\VC\Tools\MSVC\14.29.30133\include\xmemory
;	COMDAT ??1?$_Alloc_construct_ptr@V?$allocator@U?$_Tree_node@U?$pair@$$CBJPAVCResource@@@std@@PAX@std@@@std@@@std@@QAE@XZ
_TEXT	SEGMENT
??1?$_Alloc_construct_ptr@V?$allocator@U?$_Tree_node@U?$pair@$$CBJPAVCResource@@@std@@PAX@std@@@std@@@std@@QAE@XZ PROC ; std::_Alloc_construct_ptr<std::allocator<std::_Tree_node<std::pair<long const ,CResource *>,void *> > >::~_Alloc_construct_ptr<std::allocator<std::_Tree_node<std::pair<long const ,CResource *>,void *> > >, COMDAT
; _this$ = ecx

; 1024 :         if (_Ptr) {

  00000	8b 41 04	 mov	 eax, DWORD PTR [ecx+4]
  00003	85 c0		 test	 eax, eax
  00005	74 0b		 je	 SHORT $LN8@Alloc_cons

; 264  :         ::operator delete(_Ptr, _Bytes);

  00007	6a 18		 push	 24			; 00000018H
  00009	50		 push	 eax
  0000a	e8 00 00 00 00	 call	 ??3@YAXPAXI@Z		; operator delete
  0000f	83 c4 08	 add	 esp, 8
$LN8@Alloc_cons:

; 1025 :             _Al.deallocate(_Ptr, 1);
; 1026 :         }
; 1027 :     }

  00012	c3		 ret	 0
??1?$_Alloc_construct_ptr@V?$allocator@U?$_Tree_node@U?$pair@$$CBJPAVCResource@@@std@@PAX@std@@@std@@@std@@QAE@XZ ENDP ; std::_Alloc_construct_ptr<std::allocator<std::_Tree_node<std::pair<long const ,CResource *>,void *> > >::~_Alloc_construct_ptr<std::allocator<std::_Tree_node<std::pair<long const ,CResource *>,void *> > >
_TEXT	ENDS
; Function compile flags: /Ogtp
; File C:\Program Files (x86)\Microsoft Visual Studio\2019\Professional\VC\Tools\MSVC\14.29.30133\include\xmemory
;	COMDAT ??1?$_Alloc_construct_ptr@V?$allocator@U?$_Tree_node@U?$pair@$$CBKV?$basic_string@DU?$char_traits@D@std@@V?$allocator@D@2@@std@@@std@@PAX@std@@@std@@@std@@QAE@XZ
_TEXT	SEGMENT
??1?$_Alloc_construct_ptr@V?$allocator@U?$_Tree_node@U?$pair@$$CBKV?$basic_string@DU?$char_traits@D@std@@V?$allocator@D@2@@std@@@std@@PAX@std@@@std@@@std@@QAE@XZ PROC ; std::_Alloc_construct_ptr<std::allocator<std::_Tree_node<std::pair<unsigned long const ,std::basic_string<char,std::char_traits<char>,std::allocator<char> > >,void *> > >::~_Alloc_construct_ptr<std::allocator<std::_Tree_node<std::pair<unsigned long const ,std::basic_string<char,std::char_traits<char>,std::allocator<char> > >,void *> > >, COMDAT
; _this$ = ecx

; 1024 :         if (_Ptr) {

  00000	8b 41 04	 mov	 eax, DWORD PTR [ecx+4]
  00003	85 c0		 test	 eax, eax
  00005	74 0b		 je	 SHORT $LN8@Alloc_cons

; 264  :         ::operator delete(_Ptr, _Bytes);

  00007	6a 2c		 push	 44			; 0000002cH
  00009	50		 push	 eax
  0000a	e8 00 00 00 00	 call	 ??3@YAXPAXI@Z		; operator delete
  0000f	83 c4 08	 add	 esp, 8
$LN8@Alloc_cons:

; 1025 :             _Al.deallocate(_Ptr, 1);
; 1026 :         }
; 1027 :     }

  00012	c3		 ret	 0
??1?$_Alloc_construct_ptr@V?$allocator@U?$_Tree_node@U?$pair@$$CBKV?$basic_string@DU?$char_traits@D@std@@V?$allocator@D@2@@std@@@std@@PAX@std@@@std@@@std@@QAE@XZ ENDP ; std::_Alloc_construct_ptr<std::allocator<std::_Tree_node<std::pair<unsigned long const ,std::basic_string<char,std::char_traits<char>,std::allocator<char> > >,void *> > >::~_Alloc_construct_ptr<std::allocator<std::_Tree_node<std::pair<unsigned long const ,std::basic_string<char,std::char_traits<char>,std::allocator<char> > >,void *> > >
_TEXT	ENDS
; Function compile flags: /Ogtp
; File C:\Program Files (x86)\Microsoft Visual Studio\2019\Professional\VC\Tools\MSVC\14.29.30133\include\xmemory
;	COMDAT ??1?$_Alloc_construct_ptr@V?$allocator@U?$_Tree_node@U?$pair@$$CBKPAVCResource@@@std@@PAX@std@@@std@@@std@@QAE@XZ
_TEXT	SEGMENT
??1?$_Alloc_construct_ptr@V?$allocator@U?$_Tree_node@U?$pair@$$CBKPAVCResource@@@std@@PAX@std@@@std@@@std@@QAE@XZ PROC ; std::_Alloc_construct_ptr<std::allocator<std::_Tree_node<std::pair<unsigned long const ,CResource *>,void *> > >::~_Alloc_construct_ptr<std::allocator<std::_Tree_node<std::pair<unsigned long const ,CResource *>,void *> > >, COMDAT
; _this$ = ecx

; 1024 :         if (_Ptr) {

  00000	8b 41 04	 mov	 eax, DWORD PTR [ecx+4]
  00003	85 c0		 test	 eax, eax
  00005	74 0b		 je	 SHORT $LN8@Alloc_cons

; 264  :         ::operator delete(_Ptr, _Bytes);

  00007	6a 18		 push	 24			; 00000018H
  00009	50		 push	 eax
  0000a	e8 00 00 00 00	 call	 ??3@YAXPAXI@Z		; operator delete
  0000f	83 c4 08	 add	 esp, 8
$LN8@Alloc_cons:

; 1025 :             _Al.deallocate(_Ptr, 1);
; 1026 :         }
; 1027 :     }

  00012	c3		 ret	 0
??1?$_Alloc_construct_ptr@V?$allocator@U?$_Tree_node@U?$pair@$$CBKPAVCResource@@@std@@PAX@std@@@std@@@std@@QAE@XZ ENDP ; std::_Alloc_construct_ptr<std::allocator<std::_Tree_node<std::pair<unsigned long const ,CResource *>,void *> > >::~_Alloc_construct_ptr<std::allocator<std::_Tree_node<std::pair<unsigned long const ,CResource *>,void *> > >
_TEXT	ENDS
; Function compile flags: /Ogtp
; File C:\Program Files (x86)\Microsoft Visual Studio\2019\Professional\VC\Tools\MSVC\14.29.30133\include\xtree
; File C:\Program Files (x86)\Microsoft Visual Studio\2019\Professional\VC\Tools\MSVC\14.29.30133\include\xstddef
; File C:\Program Files (x86)\Microsoft Visual Studio\2019\Professional\VC\Tools\MSVC\14.29.30133\include\xtree
; File C:\Program Files (x86)\Microsoft Visual Studio\2019\Professional\VC\Tools\MSVC\14.29.30133\include\xstddef
; File C:\Program Files (x86)\Microsoft Visual Studio\2019\Professional\VC\Tools\MSVC\14.29.30133\include\xtree
;	COMDAT ??$_Find_lower_bound@K@?$_Tree@V?$_Tmap_traits@KPAVCResource@@U?$less@K@std@@V?$allocator@U?$pair@$$CBKPAVCResource@@@std@@@3@$0A@@std@@@std@@IBE?AU?$_Tree_find_result@PAU?$_Tree_node@U?$pair@$$CBKPAVCResource@@@std@@PAX@std@@@1@ABK@Z
_TEXT	SEGMENT
___$ReturnUdt$ = 8					; size = 4
__Keyval$ = 12						; size = 4
??$_Find_lower_bound@K@?$_Tree@V?$_Tmap_traits@KPAVCResource@@U?$less@K@std@@V?$allocator@U?$pair@$$CBKPAVCResource@@@std@@@3@$0A@@std@@@std@@IBE?AU?$_Tree_find_result@PAU?$_Tree_node@U?$pair@$$CBKPAVCResource@@@std@@PAX@std@@@1@ABK@Z PROC ; std::_Tree<std::_Tmap_traits<unsigned long,CResource *,std::less<unsigned long>,std::allocator<std::pair<unsigned long const ,CResource *> >,0> >::_Find_lower_bound<unsigned long>, COMDAT
; _this$ = ecx

; 1603 :     _Tree_find_result<_Nodeptr> _Find_lower_bound(const _Keyty& _Keyval) const {

  00000	55		 push	 ebp
  00001	8b ec		 mov	 ebp, esp

; 1604 :         const auto _Scary = _Get_scary();
; 1605 :         _Tree_find_result<_Nodeptr> _Result{{_Scary->_Myhead->_Parent, _Tree_child::_Right}, _Scary->_Myhead};

  00003	8b 09		 mov	 ecx, DWORD PTR [ecx]
  00005	8b 55 08	 mov	 edx, DWORD PTR ___$ReturnUdt$[ebp]
  00008	8b 41 04	 mov	 eax, DWORD PTR [ecx+4]
  0000b	89 02		 mov	 DWORD PTR [edx], eax
  0000d	c7 42 04 00 00
	00 00		 mov	 DWORD PTR [edx+4], 0
  00014	89 4a 08	 mov	 DWORD PTR [edx+8], ecx

; 1606 :         _Nodeptr _Trynode = _Result._Location._Parent;
; 1607 :         while (!_Trynode->_Isnil) {

  00017	80 78 0d 00	 cmp	 BYTE PTR [eax+13], 0
  0001b	75 28		 jne	 SHORT $LN12@Find_lower
; File C:\Program Files (x86)\Microsoft Visual Studio\2019\Professional\VC\Tools\MSVC\14.29.30133\include\xstddef

; 127  :         return _Left < _Right;

  0001d	8b 4d 0c	 mov	 ecx, DWORD PTR __Keyval$[ebp]
  00020	56		 push	 esi
  00021	8b 31		 mov	 esi, DWORD PTR [ecx]
$LL2@Find_lower:
; File C:\Program Files (x86)\Microsoft Visual Studio\2019\Professional\VC\Tools\MSVC\14.29.30133\include\xtree

; 1608 :             _Result._Location._Parent = _Trynode;

  00023	89 02		 mov	 DWORD PTR [edx], eax
; File C:\Program Files (x86)\Microsoft Visual Studio\2019\Professional\VC\Tools\MSVC\14.29.30133\include\xstddef

; 127  :         return _Left < _Right;

  00025	39 70 10	 cmp	 DWORD PTR [eax+16], esi
; File C:\Program Files (x86)\Microsoft Visual Studio\2019\Professional\VC\Tools\MSVC\14.29.30133\include\xtree

; 1609 :             if (_DEBUG_LT_PRED(_Getcomp(), _Traits::_Kfn(_Trynode->_Myval), _Keyval)) {

  00028	73 07		 jae	 SHORT $LN4@Find_lower

; 1610 :                 _Result._Location._Child = _Tree_child::_Right;
; 1611 :                 _Trynode                 = _Trynode->_Right;

  0002a	8b 40 08	 mov	 eax, DWORD PTR [eax+8]
  0002d	33 c9		 xor	 ecx, ecx

; 1612 :             } else {

  0002f	eb 0a		 jmp	 SHORT $LN5@Find_lower
$LN4@Find_lower:

; 1613 :                 _Result._Location._Child = _Tree_child::_Left;
; 1614 :                 _Result._Bound           = _Trynode;

  00031	89 42 08	 mov	 DWORD PTR [edx+8], eax

; 1615 :                 _Trynode                 = _Trynode->_Left;

  00034	b9 01 00 00 00	 mov	 ecx, 1
  00039	8b 00		 mov	 eax, DWORD PTR [eax]
$LN5@Find_lower:

; 1606 :         _Nodeptr _Trynode = _Result._Location._Parent;
; 1607 :         while (!_Trynode->_Isnil) {

  0003b	89 4a 04	 mov	 DWORD PTR [edx+4], ecx
  0003e	80 78 0d 00	 cmp	 BYTE PTR [eax+13], 0
  00042	74 df		 je	 SHORT $LL2@Find_lower

; 1616 :             }
; 1617 :         }
; 1618 : 
; 1619 :         return _Result;

  00044	5e		 pop	 esi
$LN12@Find_lower:

; 1620 :     }

  00045	8b c2		 mov	 eax, edx
  00047	5d		 pop	 ebp
  00048	c2 08 00	 ret	 8
??$_Find_lower_bound@K@?$_Tree@V?$_Tmap_traits@KPAVCResource@@U?$less@K@std@@V?$allocator@U?$pair@$$CBKPAVCResource@@@std@@@3@$0A@@std@@@std@@IBE?AU?$_Tree_find_result@PAU?$_Tree_node@U?$pair@$$CBKPAVCResource@@@std@@PAX@std@@@1@ABK@Z ENDP ; std::_Tree<std::_Tmap_traits<unsigned long,CResource *,std::less<unsigned long>,std::allocator<std::pair<unsigned long const ,CResource *> >,0> >::_Find_lower_bound<unsigned long>
_TEXT	ENDS
; Function compile flags: /Ogtp
; File C:\Program Files (x86)\Microsoft Visual Studio\2019\Professional\VC\Tools\MSVC\14.29.30133\include\xtree
; File C:\Program Files (x86)\Microsoft Visual Studio\2019\Professional\VC\Tools\MSVC\14.29.30133\include\utility
; File C:\Program Files (x86)\Microsoft Visual Studio\2019\Professional\VC\Tools\MSVC\14.29.30133\include\xstring
; File C:\Program Files (x86)\Microsoft Visual Studio\2019\Professional\VC\Tools\MSVC\14.29.30133\include\xmemory
; File C:\Program Files (x86)\Microsoft Visual Studio\2019\Professional\VC\Tools\MSVC\14.29.30133\include\xstring
; File C:\Program Files (x86)\Microsoft Visual Studio\2019\Professional\VC\Tools\MSVC\14.29.30133\include\xmemory
; File C:\Program Files (x86)\Microsoft Visual Studio\2019\Professional\VC\Tools\MSVC\14.29.30133\include\xstring
; File C:\Program Files (x86)\Microsoft Visual Studio\2019\Professional\VC\Tools\MSVC\14.29.30133\include\xmemory
; File C:\Program Files (x86)\Microsoft Visual Studio\2019\Professional\VC\Tools\MSVC\14.29.30133\include\xtree
; File C:\Program Files (x86)\Microsoft Visual Studio\2019\Professional\VC\Tools\MSVC\14.29.30133\include\xmemory
; File C:\Program Files (x86)\Microsoft Visual Studio\2019\Professional\VC\Tools\MSVC\14.29.30133\include\xtree
;	COMDAT ??$_Erase_tree@V?$allocator@U?$_Tree_node@U?$pair@$$CBV?$basic_string@DU?$char_traits@D@std@@V?$allocator@D@2@@std@@P6APAVCResource@@PBD@Z@std@@PAX@std@@@std@@@?$_Tree_val@U?$_Tree_simple_types@U?$pair@$$CBV?$basic_string@DU?$char_traits@D@std@@V?$allocator@D@2@@std@@P6APAVCResource@@PBD@Z@std@@@std@@@std@@QAEXAAV?$allocator@U?$_Tree_node@U?$pair@$$CBV?$basic_string@DU?$char_traits@D@std@@V?$allocator@D@2@@std@@P6APAVCResource@@PBD@Z@std@@PAX@std@@@1@PAU?$_Tree_node@U?$pair@$$CBV?$basic_string@DU?$char_traits@D@std@@V?$allocator@D@2@@std@@P6APAVCResource@@PBD@Z@std@@PAX@1@@Z
_TEXT	SEGMENT
_this$1$ = -4						; size = 4
__Al$ = 8						; size = 4
__Rootnode$ = 12					; size = 4
??$_Erase_tree@V?$allocator@U?$_Tree_node@U?$pair@$$CBV?$basic_string@DU?$char_traits@D@std@@V?$allocator@D@2@@std@@P6APAVCResource@@PBD@Z@std@@PAX@std@@@std@@@?$_Tree_val@U?$_Tree_simple_types@U?$pair@$$CBV?$basic_string@DU?$char_traits@D@std@@V?$allocator@D@2@@std@@P6APAVCResource@@PBD@Z@std@@@std@@@std@@QAEXAAV?$allocator@U?$_Tree_node@U?$pair@$$CBV?$basic_string@DU?$char_traits@D@std@@V?$allocator@D@2@@std@@P6APAVCResource@@PBD@Z@std@@PAX@std@@@1@PAU?$_Tree_node@U?$pair@$$CBV?$basic_string@DU?$char_traits@D@std@@V?$allocator@D@2@@std@@P6APAVCResource@@PBD@Z@std@@PAX@1@@Z PROC ; std::_Tree_val<std::_Tree_simple_types<std::pair<std::basic_string<char,std::char_traits<char>,std::allocator<char> > const ,CResource * (__cdecl*)(char const *)> > >::_Erase_tree<std::allocator<std::_Tree_node<std::pair<std::basic_string<char,std::char_traits<char>,std::allocator<char> > const ,CResource * (__cdecl*)(char const *)>,void *> > >, COMDAT
; _this$ = ecx

; 748  :     void _Erase_tree(_Alnode& _Al, _Nodeptr _Rootnode) noexcept {

  00000	55		 push	 ebp
  00001	8b ec		 mov	 ebp, esp
  00003	51		 push	 ecx
  00004	57		 push	 edi

; 749  :         while (!_Rootnode->_Isnil) { // free subtrees, then node

  00005	8b 7d 0c	 mov	 edi, DWORD PTR __Rootnode$[ebp]
  00008	8b c1		 mov	 eax, ecx
  0000a	89 45 fc	 mov	 DWORD PTR _this$1$[ebp], eax
  0000d	80 7f 0d 00	 cmp	 BYTE PTR [edi+13], 0
  00011	75 6e		 jne	 SHORT $LN73@Erase_tree
  00013	53		 push	 ebx
  00014	8b 5d 08	 mov	 ebx, DWORD PTR __Al$[ebp]
  00017	56		 push	 esi
$LL2@Erase_tree:

; 750  :             _Erase_tree(_Al, _Rootnode->_Right);

  00018	ff 77 08	 push	 DWORD PTR [edi+8]
  0001b	8b c8		 mov	 ecx, eax
  0001d	53		 push	 ebx
  0001e	e8 00 00 00 00	 call	 ??$_Erase_tree@V?$allocator@U?$_Tree_node@U?$pair@$$CBV?$basic_string@DU?$char_traits@D@std@@V?$allocator@D@2@@std@@P6APAVCResource@@PBD@Z@std@@PAX@std@@@std@@@?$_Tree_val@U?$_Tree_simple_types@U?$pair@$$CBV?$basic_string@DU?$char_traits@D@std@@V?$allocator@D@2@@std@@P6APAVCResource@@PBD@Z@std@@@std@@@std@@QAEXAAV?$allocator@U?$_Tree_node@U?$pair@$$CBV?$basic_string@DU?$char_traits@D@std@@V?$allocator@D@2@@std@@P6APAVCResource@@PBD@Z@std@@PAX@std@@@1@PAU?$_Tree_node@U?$pair@$$CBV?$basic_string@DU?$char_traits@D@std@@V?$allocator@D@2@@std@@P6APAVCResource@@PBD@Z@std@@PAX@1@@Z ; std::_Tree_val<std::_Tree_simple_types<std::pair<std::basic_string<char,std::char_traits<char>,std::allocator<char> > const ,CResource * (__cdecl*)(char const *)> > >::_Erase_tree<std::allocator<std::_Tree_node<std::pair<std::basic_string<char,std::char_traits<char>,std::allocator<char> > const ,CResource * (__cdecl*)(char const *)>,void *> > >
; File C:\Program Files (x86)\Microsoft Visual Studio\2019\Professional\VC\Tools\MSVC\14.29.30133\include\utility

; 616  :     _Ty _Old_val = static_cast<_Ty&&>(_Val);

  00023	8b f7		 mov	 esi, edi

; 617  :     _Val         = static_cast<_Other&&>(_New_val);

  00025	8b 3f		 mov	 edi, DWORD PTR [edi]
; File C:\Program Files (x86)\Microsoft Visual Studio\2019\Professional\VC\Tools\MSVC\14.29.30133\include\xstring

; 2319 :         return _BUF_SIZE <= _Myres;

  00027	8b 4e 24	 mov	 ecx, DWORD PTR [esi+36]
  0002a	83 f9 10	 cmp	 ecx, 16			; 00000010H

; 4618 :         if (_Mypair._Myval2._Large_string_engaged()) {

  0002d	72 28		 jb	 SHORT $LN29@Erase_tree
; File C:\Program Files (x86)\Microsoft Visual Studio\2019\Professional\VC\Tools\MSVC\14.29.30133\include\xmemory

; 835  :         _Deallocate<_New_alignof<_Ty>>(_Ptr, sizeof(_Ty) * _Count);

  0002f	8b 46 10	 mov	 eax, DWORD PTR [esi+16]
; File C:\Program Files (x86)\Microsoft Visual Studio\2019\Professional\VC\Tools\MSVC\14.29.30133\include\xstring

; 4622 :             _Al.deallocate(_Ptr, _Mypair._Myval2._Myres + 1);

  00032	41		 inc	 ecx
; File C:\Program Files (x86)\Microsoft Visual Studio\2019\Professional\VC\Tools\MSVC\14.29.30133\include\xmemory

; 260  :         if (_Bytes >= _Big_allocation_threshold) { // boost the alignment of big allocations to help autovectorization

  00033	81 f9 00 10 00
	00		 cmp	 ecx, 4096		; 00001000H
  00039	72 12		 jb	 SHORT $LN39@Erase_tree

; 158  :     const uintptr_t _Ptr_container   = _Ptr_user[-1];

  0003b	8b 50 fc	 mov	 edx, DWORD PTR [eax-4]
  0003e	83 c1 23	 add	 ecx, 35			; 00000023H

; 159  : 
; 160  :     // If the following asserts, it likely means that we are performing
; 161  :     // an aligned delete on memory coming from an unaligned allocation.
; 162  :     _STL_ASSERT(_Ptr_user[-2] == _Big_allocation_sentinel, "invalid argument");
; 163  : 
; 164  :     // Extra paranoia on aligned allocation/deallocation; ensure _Ptr_container is
; 165  :     // in range [_Min_back_shift, _Non_user_size]
; 166  : #ifdef _DEBUG
; 167  :     constexpr uintptr_t _Min_back_shift = 2 * sizeof(void*);
; 168  : #else // ^^^ _DEBUG ^^^ // vvv !_DEBUG vvv
; 169  :     constexpr uintptr_t _Min_back_shift = sizeof(void*);
; 170  : #endif // _DEBUG
; 171  :     const uintptr_t _Back_shift = reinterpret_cast<uintptr_t>(_Ptr) - _Ptr_container;

  00041	2b c2		 sub	 eax, edx

; 172  :     _STL_VERIFY(_Back_shift >= _Min_back_shift && _Back_shift <= _Non_user_size, "invalid argument");

  00043	83 c0 fc	 add	 eax, -4			; fffffffcH
  00046	83 f8 1f	 cmp	 eax, 31			; 0000001fH
  00049	77 3d		 ja	 SHORT $LN36@Erase_tree

; 173  :     _Ptr = reinterpret_cast<void*>(_Ptr_container);

  0004b	8b c2		 mov	 eax, edx
$LN39@Erase_tree:

; 264  :         ::operator delete(_Ptr, _Bytes);

  0004d	51		 push	 ecx
  0004e	50		 push	 eax
  0004f	e8 00 00 00 00	 call	 ??3@YAXPAXI@Z		; operator delete
  00054	83 c4 08	 add	 esp, 8
$LN29@Erase_tree:
  00057	6a 2c		 push	 44			; 0000002cH
  00059	56		 push	 esi
; File C:\Program Files (x86)\Microsoft Visual Studio\2019\Professional\VC\Tools\MSVC\14.29.30133\include\xstring

; 4633 :             _Mypair._Myval2._Mysize = 0;

  0005a	c7 46 20 00 00
	00 00		 mov	 DWORD PTR [esi+32], 0

; 4634 :             _Mypair._Myval2._Myres  = _BUF_SIZE - 1;

  00061	c7 46 24 0f 00
	00 00		 mov	 DWORD PTR [esi+36], 15	; 0000000fH

; 4635 :             // the _Traits::assign is last so the codegen doesn't think the char write can alias this
; 4636 :             _Traits::assign(_Mypair._Myval2._Bx._Buf[0], _Elem());

  00068	c6 46 10 00	 mov	 BYTE PTR [esi+16], 0
; File C:\Program Files (x86)\Microsoft Visual Studio\2019\Professional\VC\Tools\MSVC\14.29.30133\include\xmemory

; 264  :         ::operator delete(_Ptr, _Bytes);

  0006c	e8 00 00 00 00	 call	 ??3@YAXPAXI@Z		; operator delete
  00071	83 c4 08	 add	 esp, 8
; File C:\Program Files (x86)\Microsoft Visual Studio\2019\Professional\VC\Tools\MSVC\14.29.30133\include\xtree

; 749  :         while (!_Rootnode->_Isnil) { // free subtrees, then node

  00074	80 7f 0d 00	 cmp	 BYTE PTR [edi+13], 0
  00078	75 05		 jne	 SHORT $LN75@Erase_tree
  0007a	8b 45 fc	 mov	 eax, DWORD PTR _this$1$[ebp]
  0007d	eb 99		 jmp	 SHORT $LL2@Erase_tree
$LN75@Erase_tree:
  0007f	5e		 pop	 esi
  00080	5b		 pop	 ebx
$LN73@Erase_tree:
  00081	5f		 pop	 edi

; 753  :     }

  00082	8b e5		 mov	 esp, ebp
  00084	5d		 pop	 ebp
  00085	c2 08 00	 ret	 8
$LN36@Erase_tree:
; File C:\Program Files (x86)\Microsoft Visual Studio\2019\Professional\VC\Tools\MSVC\14.29.30133\include\xmemory

; 172  :     _STL_VERIFY(_Back_shift >= _Min_back_shift && _Back_shift <= _Non_user_size, "invalid argument");

  00088	e8 00 00 00 00	 call	 __invalid_parameter_noinfo_noreturn
$LN76@Erase_tree:
  0008d	cc		 int	 3
??$_Erase_tree@V?$allocator@U?$_Tree_node@U?$pair@$$CBV?$basic_string@DU?$char_traits@D@std@@V?$allocator@D@2@@std@@P6APAVCResource@@PBD@Z@std@@PAX@std@@@std@@@?$_Tree_val@U?$_Tree_simple_types@U?$pair@$$CBV?$basic_string@DU?$char_traits@D@std@@V?$allocator@D@2@@std@@P6APAVCResource@@PBD@Z@std@@@std@@@std@@QAEXAAV?$allocator@U?$_Tree_node@U?$pair@$$CBV?$basic_string@DU?$char_traits@D@std@@V?$allocator@D@2@@std@@P6APAVCResource@@PBD@Z@std@@PAX@std@@@1@PAU?$_Tree_node@U?$pair@$$CBV?$basic_string@DU?$char_traits@D@std@@V?$allocator@D@2@@std@@P6APAVCResource@@PBD@Z@std@@PAX@1@@Z ENDP ; std::_Tree_val<std::_Tree_simple_types<std::pair<std::basic_string<char,std::char_traits<char>,std::allocator<char> > const ,CResource * (__cdecl*)(char const *)> > >::_Erase_tree<std::allocator<std::_Tree_node<std::pair<std::basic_string<char,std::char_traits<char>,std::allocator<char> > const ,CResource * (__cdecl*)(char const *)>,void *> > >
_TEXT	ENDS
; Function compile flags: /Ogtp
; File C:\Program Files (x86)\Microsoft Visual Studio\2019\Professional\VC\Tools\MSVC\14.29.30133\include\xmemory
;	COMDAT ??1?$_Alloc_construct_ptr@V?$allocator@U?$_Tree_node@U?$pair@$$CBV?$basic_string@DU?$char_traits@D@std@@V?$allocator@D@2@@std@@P6APAVCResource@@PBD@Z@std@@PAX@std@@@std@@@std@@QAE@XZ
_TEXT	SEGMENT
??1?$_Alloc_construct_ptr@V?$allocator@U?$_Tree_node@U?$pair@$$CBV?$basic_string@DU?$char_traits@D@std@@V?$allocator@D@2@@std@@P6APAVCResource@@PBD@Z@std@@PAX@std@@@std@@@std@@QAE@XZ PROC ; std::_Alloc_construct_ptr<std::allocator<std::_Tree_node<std::pair<std::basic_string<char,std::char_traits<char>,std::allocator<char> > const ,CResource * (__cdecl*)(char const *)>,void *> > >::~_Alloc_construct_ptr<std::allocator<std::_Tree_node<std::pair<std::basic_string<char,std::char_traits<char>,std::allocator<char> > const ,CResource * (__cdecl*)(char const *)>,void *> > >, COMDAT
; _this$ = ecx

; 1024 :         if (_Ptr) {

  00000	8b 41 04	 mov	 eax, DWORD PTR [ecx+4]
  00003	85 c0		 test	 eax, eax
  00005	74 0b		 je	 SHORT $LN8@Alloc_cons

; 264  :         ::operator delete(_Ptr, _Bytes);

  00007	6a 2c		 push	 44			; 0000002cH
  00009	50		 push	 eax
  0000a	e8 00 00 00 00	 call	 ??3@YAXPAXI@Z		; operator delete
  0000f	83 c4 08	 add	 esp, 8
$LN8@Alloc_cons:

; 1025 :             _Al.deallocate(_Ptr, 1);
; 1026 :         }
; 1027 :     }

  00012	c3		 ret	 0
??1?$_Alloc_construct_ptr@V?$allocator@U?$_Tree_node@U?$pair@$$CBV?$basic_string@DU?$char_traits@D@std@@V?$allocator@D@2@@std@@P6APAVCResource@@PBD@Z@std@@PAX@std@@@std@@@std@@QAE@XZ ENDP ; std::_Alloc_construct_ptr<std::allocator<std::_Tree_node<std::pair<std::basic_string<char,std::char_traits<char>,std::allocator<char> > const ,CResource * (__cdecl*)(char const *)>,void *> > >::~_Alloc_construct_ptr<std::allocator<std::_Tree_node<std::pair<std::basic_string<char,std::char_traits<char>,std::allocator<char> > const ,CResource * (__cdecl*)(char const *)>,void *> > >
_TEXT	ENDS
; Function compile flags: /Ogtp
; File C:\Program Files (x86)\Microsoft Visual Studio\2019\Professional\VC\Tools\MSVC\14.29.30133\include\xtree
; File C:\Program Files (x86)\Microsoft Visual Studio\2019\Professional\VC\Tools\MSVC\14.29.30133\include\xstddef
; File C:\Program Files (x86)\Microsoft Visual Studio\2019\Professional\VC\Tools\MSVC\14.29.30133\include\xtree
;	COMDAT ??$_Find_lower_bound@V?$basic_string@DU?$char_traits@D@std@@V?$allocator@D@2@@std@@@?$_Tree@V?$_Tmap_traits@V?$basic_string@DU?$char_traits@D@std@@V?$allocator@D@2@@std@@P6APAVCResource@@PBD@ZU?$less@V?$basic_string@DU?$char_traits@D@std@@V?$allocator@D@2@@std@@@2@V?$allocator@U?$pair@$$CBV?$basic_string@DU?$char_traits@D@std@@V?$allocator@D@2@@std@@P6APAVCResource@@PBD@Z@std@@@2@$0A@@std@@@std@@IBE?AU?$_Tree_find_result@PAU?$_Tree_node@U?$pair@$$CBV?$basic_string@DU?$char_traits@D@std@@V?$allocator@D@2@@std@@P6APAVCResource@@PBD@Z@std@@PAX@std@@@1@ABV?$basic_string@DU?$char_traits@D@std@@V?$allocator@D@2@@1@@Z
_TEXT	SEGMENT
___$ReturnUdt$ = 8					; size = 4
__Keyval$ = 12						; size = 4
??$_Find_lower_bound@V?$basic_string@DU?$char_traits@D@std@@V?$allocator@D@2@@std@@@?$_Tree@V?$_Tmap_traits@V?$basic_string@DU?$char_traits@D@std@@V?$allocator@D@2@@std@@P6APAVCResource@@PBD@ZU?$less@V?$basic_string@DU?$char_traits@D@std@@V?$allocator@D@2@@std@@@2@V?$allocator@U?$pair@$$CBV?$basic_string@DU?$char_traits@D@std@@V?$allocator@D@2@@std@@P6APAVCResource@@PBD@Z@std@@@2@$0A@@std@@@std@@IBE?AU?$_Tree_find_result@PAU?$_Tree_node@U?$pair@$$CBV?$basic_string@DU?$char_traits@D@std@@V?$allocator@D@2@@std@@P6APAVCResource@@PBD@Z@std@@PAX@std@@@1@ABV?$basic_string@DU?$char_traits@D@std@@V?$allocator@D@2@@1@@Z PROC ; std::_Tree<std::_Tmap_traits<std::basic_string<char,std::char_traits<char>,std::allocator<char> >,CResource * (__cdecl*)(char const *),std::less<std::basic_string<char,std::char_traits<char>,std::allocator<char> > >,std::allocator<std::pair<std::basic_string<char,std::char_traits<char>,std::allocator<char> > const ,CResource * (__cdecl*)(char const *)> >,0> >::_Find_lower_bound<std::basic_string<char,std::char_traits<char>,std::allocator<char> > >, COMDAT
; _this$ = ecx

; 1603 :     _Tree_find_result<_Nodeptr> _Find_lower_bound(const _Keyty& _Keyval) const {

  00000	55		 push	 ebp
  00001	8b ec		 mov	 ebp, esp

; 1604 :         const auto _Scary = _Get_scary();
; 1605 :         _Tree_find_result<_Nodeptr> _Result{{_Scary->_Myhead->_Parent, _Tree_child::_Right}, _Scary->_Myhead};

  00003	8b 01		 mov	 eax, DWORD PTR [ecx]
  00005	56		 push	 esi
  00006	57		 push	 edi
  00007	8b 7d 08	 mov	 edi, DWORD PTR ___$ReturnUdt$[ebp]
  0000a	8b 70 04	 mov	 esi, DWORD PTR [eax+4]
  0000d	89 37		 mov	 DWORD PTR [edi], esi

; 1606 :         _Nodeptr _Trynode = _Result._Location._Parent;
; 1607 :         while (!_Trynode->_Isnil) {

  0000f	80 7e 0d 00	 cmp	 BYTE PTR [esi+13], 0
  00013	c7 47 04 00 00
	00 00		 mov	 DWORD PTR [edi+4], 0
  0001a	89 47 08	 mov	 DWORD PTR [edi+8], eax
  0001d	75 32		 jne	 SHORT $LN12@Find_lower
  0001f	53		 push	 ebx
  00020	8b 5d 0c	 mov	 ebx, DWORD PTR __Keyval$[ebp]
$LL2@Find_lower:

; 1609 :             if (_DEBUG_LT_PRED(_Getcomp(), _Traits::_Kfn(_Trynode->_Myval), _Keyval)) {

  00023	8d 46 10	 lea	 eax, DWORD PTR [esi+16]
  00026	89 37		 mov	 DWORD PTR [edi], esi
; File C:\Program Files (x86)\Microsoft Visual Studio\2019\Professional\VC\Tools\MSVC\14.29.30133\include\xstddef

; 127  :         return _Left < _Right;

  00028	53		 push	 ebx
  00029	50		 push	 eax
  0002a	e8 00 00 00 00	 call	 ??$?MDU?$char_traits@D@std@@V?$allocator@D@1@@std@@YA_NABV?$basic_string@DU?$char_traits@D@std@@V?$allocator@D@2@@0@0@Z ; std::operator<<char,std::char_traits<char>,std::allocator<char> >
  0002f	83 c4 08	 add	 esp, 8
; File C:\Program Files (x86)\Microsoft Visual Studio\2019\Professional\VC\Tools\MSVC\14.29.30133\include\xtree

; 1609 :             if (_DEBUG_LT_PRED(_Getcomp(), _Traits::_Kfn(_Trynode->_Myval), _Keyval)) {

  00032	84 c0		 test	 al, al
  00034	74 07		 je	 SHORT $LN4@Find_lower

; 1610 :                 _Result._Location._Child = _Tree_child::_Right;
; 1611 :                 _Trynode                 = _Trynode->_Right;

  00036	8b 76 08	 mov	 esi, DWORD PTR [esi+8]
  00039	33 c0		 xor	 eax, eax

; 1612 :             } else {

  0003b	eb 0a		 jmp	 SHORT $LN5@Find_lower
$LN4@Find_lower:

; 1613 :                 _Result._Location._Child = _Tree_child::_Left;
; 1614 :                 _Result._Bound           = _Trynode;

  0003d	89 77 08	 mov	 DWORD PTR [edi+8], esi

; 1615 :                 _Trynode                 = _Trynode->_Left;

  00040	b8 01 00 00 00	 mov	 eax, 1
  00045	8b 36		 mov	 esi, DWORD PTR [esi]
$LN5@Find_lower:

; 1606 :         _Nodeptr _Trynode = _Result._Location._Parent;
; 1607 :         while (!_Trynode->_Isnil) {

  00047	89 47 04	 mov	 DWORD PTR [edi+4], eax
  0004a	80 7e 0d 00	 cmp	 BYTE PTR [esi+13], 0
  0004e	74 d3		 je	 SHORT $LL2@Find_lower

; 1616 :             }
; 1617 :         }
; 1618 : 
; 1619 :         return _Result;

  00050	5b		 pop	 ebx
$LN12@Find_lower:

; 1620 :     }

  00051	8b c7		 mov	 eax, edi
  00053	5f		 pop	 edi
  00054	5e		 pop	 esi
  00055	5d		 pop	 ebp
  00056	c2 08 00	 ret	 8
??$_Find_lower_bound@V?$basic_string@DU?$char_traits@D@std@@V?$allocator@D@2@@std@@@?$_Tree@V?$_Tmap_traits@V?$basic_string@DU?$char_traits@D@std@@V?$allocator@D@2@@std@@P6APAVCResource@@PBD@ZU?$less@V?$basic_string@DU?$char_traits@D@std@@V?$allocator@D@2@@std@@@2@V?$allocator@U?$pair@$$CBV?$basic_string@DU?$char_traits@D@std@@V?$allocator@D@2@@std@@P6APAVCResource@@PBD@Z@std@@@2@$0A@@std@@@std@@IBE?AU?$_Tree_find_result@PAU?$_Tree_node@U?$pair@$$CBV?$basic_string@DU?$char_traits@D@std@@V?$allocator@D@2@@std@@P6APAVCResource@@PBD@Z@std@@PAX@std@@@1@ABV?$basic_string@DU?$char_traits@D@std@@V?$allocator@D@2@@1@@Z ENDP ; std::_Tree<std::_Tmap_traits<std::basic_string<char,std::char_traits<char>,std::allocator<char> >,CResource * (__cdecl*)(char const *),std::less<std::basic_string<char,std::char_traits<char>,std::allocator<char> > >,std::allocator<std::pair<std::basic_string<char,std::char_traits<char>,std::allocator<char> > const ,CResource * (__cdecl*)(char const *)> >,0> >::_Find_lower_bound<std::basic_string<char,std::char_traits<char>,std::allocator<char> > >
_TEXT	ENDS
; Function compile flags: /Ogtp
; File C:\Program Files (x86)\Microsoft Visual Studio\2019\Professional\VC\Tools\MSVC\14.29.30133\include\xtree
; File C:\Program Files (x86)\Microsoft Visual Studio\2019\Professional\VC\Tools\MSVC\14.29.30133\include\utility
; File C:\Program Files (x86)\Microsoft Visual Studio\2019\Professional\VC\Tools\MSVC\14.29.30133\include\xmemory
; File C:\Program Files (x86)\Microsoft Visual Studio\2019\Professional\VC\Tools\MSVC\14.29.30133\include\xtree
;	COMDAT ??$_Erase_tree@V?$allocator@U?$_Tree_node@U?$pair@$$CBHP6APAVCResource@@PBD@Z@std@@PAX@std@@@std@@@?$_Tree_val@U?$_Tree_simple_types@U?$pair@$$CBHP6APAVCResource@@PBD@Z@std@@@std@@@std@@QAEXAAV?$allocator@U?$_Tree_node@U?$pair@$$CBHP6APAVCResource@@PBD@Z@std@@PAX@std@@@1@PAU?$_Tree_node@U?$pair@$$CBHP6APAVCResource@@PBD@Z@std@@PAX@1@@Z
_TEXT	SEGMENT
__Al$ = 8						; size = 4
__Rootnode$ = 12					; size = 4
??$_Erase_tree@V?$allocator@U?$_Tree_node@U?$pair@$$CBHP6APAVCResource@@PBD@Z@std@@PAX@std@@@std@@@?$_Tree_val@U?$_Tree_simple_types@U?$pair@$$CBHP6APAVCResource@@PBD@Z@std@@@std@@@std@@QAEXAAV?$allocator@U?$_Tree_node@U?$pair@$$CBHP6APAVCResource@@PBD@Z@std@@PAX@std@@@1@PAU?$_Tree_node@U?$pair@$$CBHP6APAVCResource@@PBD@Z@std@@PAX@1@@Z PROC ; std::_Tree_val<std::_Tree_simple_types<std::pair<int const ,CResource * (__cdecl*)(char const *)> > >::_Erase_tree<std::allocator<std::_Tree_node<std::pair<int const ,CResource * (__cdecl*)(char const *)>,void *> > >, COMDAT
; _this$ = ecx

; 748  :     void _Erase_tree(_Alnode& _Al, _Nodeptr _Rootnode) noexcept {

  00000	55		 push	 ebp
  00001	8b ec		 mov	 ebp, esp
  00003	53		 push	 ebx
  00004	56		 push	 esi

; 749  :         while (!_Rootnode->_Isnil) { // free subtrees, then node

  00005	8b 75 0c	 mov	 esi, DWORD PTR __Rootnode$[ebp]
  00008	8b d9		 mov	 ebx, ecx
  0000a	80 7e 0d 00	 cmp	 BYTE PTR [esi+13], 0
  0000e	75 25		 jne	 SHORT $LN3@Erase_tree
  00010	57		 push	 edi
  00011	8b 7d 08	 mov	 edi, DWORD PTR __Al$[ebp]
$LL2@Erase_tree:

; 750  :             _Erase_tree(_Al, _Rootnode->_Right);

  00014	ff 76 08	 push	 DWORD PTR [esi+8]
  00017	8b cb		 mov	 ecx, ebx
  00019	57		 push	 edi
  0001a	e8 00 00 00 00	 call	 ??$_Erase_tree@V?$allocator@U?$_Tree_node@U?$pair@$$CBHP6APAVCResource@@PBD@Z@std@@PAX@std@@@std@@@?$_Tree_val@U?$_Tree_simple_types@U?$pair@$$CBHP6APAVCResource@@PBD@Z@std@@@std@@@std@@QAEXAAV?$allocator@U?$_Tree_node@U?$pair@$$CBHP6APAVCResource@@PBD@Z@std@@PAX@std@@@1@PAU?$_Tree_node@U?$pair@$$CBHP6APAVCResource@@PBD@Z@std@@PAX@1@@Z ; std::_Tree_val<std::_Tree_simple_types<std::pair<int const ,CResource * (__cdecl*)(char const *)> > >::_Erase_tree<std::allocator<std::_Tree_node<std::pair<int const ,CResource * (__cdecl*)(char const *)>,void *> > >
; File C:\Program Files (x86)\Microsoft Visual Studio\2019\Professional\VC\Tools\MSVC\14.29.30133\include\utility

; 616  :     _Ty _Old_val = static_cast<_Ty&&>(_Val);

  0001f	8b c6		 mov	 eax, esi

; 617  :     _Val         = static_cast<_Other&&>(_New_val);

  00021	8b 36		 mov	 esi, DWORD PTR [esi]
; File C:\Program Files (x86)\Microsoft Visual Studio\2019\Professional\VC\Tools\MSVC\14.29.30133\include\xmemory

; 264  :         ::operator delete(_Ptr, _Bytes);

  00023	6a 18		 push	 24			; 00000018H
  00025	50		 push	 eax
  00026	e8 00 00 00 00	 call	 ??3@YAXPAXI@Z		; operator delete
  0002b	83 c4 08	 add	 esp, 8
; File C:\Program Files (x86)\Microsoft Visual Studio\2019\Professional\VC\Tools\MSVC\14.29.30133\include\xtree

; 749  :         while (!_Rootnode->_Isnil) { // free subtrees, then node

  0002e	80 7e 0d 00	 cmp	 BYTE PTR [esi+13], 0
  00032	74 e0		 je	 SHORT $LL2@Erase_tree
  00034	5f		 pop	 edi
$LN3@Erase_tree:
  00035	5e		 pop	 esi

; 751  :             _Alnode::value_type::_Freenode(_Al, _STD exchange(_Rootnode, _Rootnode->_Left));
; 752  :         }
; 753  :     }

  00036	5b		 pop	 ebx
  00037	5d		 pop	 ebp
  00038	c2 08 00	 ret	 8
??$_Erase_tree@V?$allocator@U?$_Tree_node@U?$pair@$$CBHP6APAVCResource@@PBD@Z@std@@PAX@std@@@std@@@?$_Tree_val@U?$_Tree_simple_types@U?$pair@$$CBHP6APAVCResource@@PBD@Z@std@@@std@@@std@@QAEXAAV?$allocator@U?$_Tree_node@U?$pair@$$CBHP6APAVCResource@@PBD@Z@std@@PAX@std@@@1@PAU?$_Tree_node@U?$pair@$$CBHP6APAVCResource@@PBD@Z@std@@PAX@1@@Z ENDP ; std::_Tree_val<std::_Tree_simple_types<std::pair<int const ,CResource * (__cdecl*)(char const *)> > >::_Erase_tree<std::allocator<std::_Tree_node<std::pair<int const ,CResource * (__cdecl*)(char const *)>,void *> > >
_TEXT	ENDS
; Function compile flags: /Ogtp
; File C:\Program Files (x86)\Microsoft Visual Studio\2019\Professional\VC\Tools\MSVC\14.29.30133\include\xmemory
;	COMDAT ??1?$_Alloc_construct_ptr@V?$allocator@U?$_Tree_node@U?$pair@$$CBHP6APAVCResource@@PBD@Z@std@@PAX@std@@@std@@@std@@QAE@XZ
_TEXT	SEGMENT
??1?$_Alloc_construct_ptr@V?$allocator@U?$_Tree_node@U?$pair@$$CBHP6APAVCResource@@PBD@Z@std@@PAX@std@@@std@@@std@@QAE@XZ PROC ; std::_Alloc_construct_ptr<std::allocator<std::_Tree_node<std::pair<int const ,CResource * (__cdecl*)(char const *)>,void *> > >::~_Alloc_construct_ptr<std::allocator<std::_Tree_node<std::pair<int const ,CResource * (__cdecl*)(char const *)>,void *> > >, COMDAT
; _this$ = ecx

; 1024 :         if (_Ptr) {

  00000	8b 41 04	 mov	 eax, DWORD PTR [ecx+4]
  00003	85 c0		 test	 eax, eax
  00005	74 0b		 je	 SHORT $LN8@Alloc_cons

; 264  :         ::operator delete(_Ptr, _Bytes);

  00007	6a 18		 push	 24			; 00000018H
  00009	50		 push	 eax
  0000a	e8 00 00 00 00	 call	 ??3@YAXPAXI@Z		; operator delete
  0000f	83 c4 08	 add	 esp, 8
$LN8@Alloc_cons:

; 1025 :             _Al.deallocate(_Ptr, 1);
; 1026 :         }
; 1027 :     }

  00012	c3		 ret	 0
??1?$_Alloc_construct_ptr@V?$allocator@U?$_Tree_node@U?$pair@$$CBHP6APAVCResource@@PBD@Z@std@@PAX@std@@@std@@@std@@QAE@XZ ENDP ; std::_Alloc_construct_ptr<std::allocator<std::_Tree_node<std::pair<int const ,CResource * (__cdecl*)(char const *)>,void *> > >::~_Alloc_construct_ptr<std::allocator<std::_Tree_node<std::pair<int const ,CResource * (__cdecl*)(char const *)>,void *> > >
_TEXT	ENDS
; Function compile flags: /Ogtp
; File C:\Program Files (x86)\Microsoft Visual Studio\2019\Professional\VC\Tools\MSVC\14.29.30133\include\xtree
; File C:\Program Files (x86)\Microsoft Visual Studio\2019\Professional\VC\Tools\MSVC\14.29.30133\include\xstddef
; File C:\Program Files (x86)\Microsoft Visual Studio\2019\Professional\VC\Tools\MSVC\14.29.30133\include\xtree
; File C:\Program Files (x86)\Microsoft Visual Studio\2019\Professional\VC\Tools\MSVC\14.29.30133\include\xstddef
; File C:\Program Files (x86)\Microsoft Visual Studio\2019\Professional\VC\Tools\MSVC\14.29.30133\include\xtree
;	COMDAT ??$_Find_lower_bound@H@?$_Tree@V?$_Tmap_traits@HP6APAVCResource@@PBD@ZU?$less@H@std@@V?$allocator@U?$pair@$$CBHP6APAVCResource@@PBD@Z@std@@@3@$0A@@std@@@std@@IBE?AU?$_Tree_find_result@PAU?$_Tree_node@U?$pair@$$CBHP6APAVCResource@@PBD@Z@std@@PAX@std@@@1@ABH@Z
_TEXT	SEGMENT
___$ReturnUdt$ = 8					; size = 4
__Keyval$ = 12						; size = 4
??$_Find_lower_bound@H@?$_Tree@V?$_Tmap_traits@HP6APAVCResource@@PBD@ZU?$less@H@std@@V?$allocator@U?$pair@$$CBHP6APAVCResource@@PBD@Z@std@@@3@$0A@@std@@@std@@IBE?AU?$_Tree_find_result@PAU?$_Tree_node@U?$pair@$$CBHP6APAVCResource@@PBD@Z@std@@PAX@std@@@1@ABH@Z PROC ; std::_Tree<std::_Tmap_traits<int,CResource * (__cdecl*)(char const *),std::less<int>,std::allocator<std::pair<int const ,CResource * (__cdecl*)(char const *)> >,0> >::_Find_lower_bound<int>, COMDAT
; _this$ = ecx

; 1603 :     _Tree_find_result<_Nodeptr> _Find_lower_bound(const _Keyty& _Keyval) const {

  00000	55		 push	 ebp
  00001	8b ec		 mov	 ebp, esp

; 1604 :         const auto _Scary = _Get_scary();
; 1605 :         _Tree_find_result<_Nodeptr> _Result{{_Scary->_Myhead->_Parent, _Tree_child::_Right}, _Scary->_Myhead};

  00003	8b 09		 mov	 ecx, DWORD PTR [ecx]
  00005	8b 55 08	 mov	 edx, DWORD PTR ___$ReturnUdt$[ebp]
  00008	8b 41 04	 mov	 eax, DWORD PTR [ecx+4]
  0000b	89 02		 mov	 DWORD PTR [edx], eax
  0000d	c7 42 04 00 00
	00 00		 mov	 DWORD PTR [edx+4], 0
  00014	89 4a 08	 mov	 DWORD PTR [edx+8], ecx

; 1606 :         _Nodeptr _Trynode = _Result._Location._Parent;
; 1607 :         while (!_Trynode->_Isnil) {

  00017	80 78 0d 00	 cmp	 BYTE PTR [eax+13], 0
  0001b	75 28		 jne	 SHORT $LN12@Find_lower
; File C:\Program Files (x86)\Microsoft Visual Studio\2019\Professional\VC\Tools\MSVC\14.29.30133\include\xstddef

; 127  :         return _Left < _Right;

  0001d	8b 4d 0c	 mov	 ecx, DWORD PTR __Keyval$[ebp]
  00020	56		 push	 esi
  00021	8b 31		 mov	 esi, DWORD PTR [ecx]
$LL2@Find_lower:
; File C:\Program Files (x86)\Microsoft Visual Studio\2019\Professional\VC\Tools\MSVC\14.29.30133\include\xtree

; 1608 :             _Result._Location._Parent = _Trynode;

  00023	89 02		 mov	 DWORD PTR [edx], eax
; File C:\Program Files (x86)\Microsoft Visual Studio\2019\Professional\VC\Tools\MSVC\14.29.30133\include\xstddef

; 127  :         return _Left < _Right;

  00025	39 70 10	 cmp	 DWORD PTR [eax+16], esi
; File C:\Program Files (x86)\Microsoft Visual Studio\2019\Professional\VC\Tools\MSVC\14.29.30133\include\xtree

; 1609 :             if (_DEBUG_LT_PRED(_Getcomp(), _Traits::_Kfn(_Trynode->_Myval), _Keyval)) {

  00028	7d 07		 jge	 SHORT $LN4@Find_lower

; 1610 :                 _Result._Location._Child = _Tree_child::_Right;
; 1611 :                 _Trynode                 = _Trynode->_Right;

  0002a	8b 40 08	 mov	 eax, DWORD PTR [eax+8]
  0002d	33 c9		 xor	 ecx, ecx

; 1612 :             } else {

  0002f	eb 0a		 jmp	 SHORT $LN5@Find_lower
$LN4@Find_lower:

; 1613 :                 _Result._Location._Child = _Tree_child::_Left;
; 1614 :                 _Result._Bound           = _Trynode;

  00031	89 42 08	 mov	 DWORD PTR [edx+8], eax

; 1615 :                 _Trynode                 = _Trynode->_Left;

  00034	b9 01 00 00 00	 mov	 ecx, 1
  00039	8b 00		 mov	 eax, DWORD PTR [eax]
$LN5@Find_lower:

; 1606 :         _Nodeptr _Trynode = _Result._Location._Parent;
; 1607 :         while (!_Trynode->_Isnil) {

  0003b	89 4a 04	 mov	 DWORD PTR [edx+4], ecx
  0003e	80 78 0d 00	 cmp	 BYTE PTR [eax+13], 0
  00042	74 df		 je	 SHORT $LL2@Find_lower

; 1616 :             }
; 1617 :         }
; 1618 : 
; 1619 :         return _Result;

  00044	5e		 pop	 esi
$LN12@Find_lower:

; 1620 :     }

  00045	8b c2		 mov	 eax, edx
  00047	5d		 pop	 ebp
  00048	c2 08 00	 ret	 8
??$_Find_lower_bound@H@?$_Tree@V?$_Tmap_traits@HP6APAVCResource@@PBD@ZU?$less@H@std@@V?$allocator@U?$pair@$$CBHP6APAVCResource@@PBD@Z@std@@@3@$0A@@std@@@std@@IBE?AU?$_Tree_find_result@PAU?$_Tree_node@U?$pair@$$CBHP6APAVCResource@@PBD@Z@std@@PAX@std@@@1@ABH@Z ENDP ; std::_Tree<std::_Tmap_traits<int,CResource * (__cdecl*)(char const *),std::less<int>,std::allocator<std::pair<int const ,CResource * (__cdecl*)(char const *)> >,0> >::_Find_lower_bound<int>
_TEXT	ENDS
; Function compile flags: /Ogtp
; File C:\Program Files (x86)\Microsoft Visual Studio\2019\Professional\VC\Tools\MSVC\14.29.30133\include\xtree
; File C:\Program Files (x86)\Microsoft Visual Studio\2019\Professional\VC\Tools\MSVC\14.29.30133\include\xstddef
; File C:\Program Files (x86)\Microsoft Visual Studio\2019\Professional\VC\Tools\MSVC\14.29.30133\include\xtree
; File C:\Program Files (x86)\Microsoft Visual Studio\2019\Professional\VC\Tools\MSVC\14.29.30133\include\xstddef
; File C:\Program Files (x86)\Microsoft Visual Studio\2019\Professional\VC\Tools\MSVC\14.29.30133\include\xtree
;	COMDAT ??$_Find_lower_bound@K@?$_Tree@V?$_Tmap_traits@KV?$basic_string@DU?$char_traits@D@std@@V?$allocator@D@2@@std@@U?$less@K@2@V?$allocator@U?$pair@$$CBKV?$basic_string@DU?$char_traits@D@std@@V?$allocator@D@2@@std@@@std@@@2@$0A@@std@@@std@@IBE?AU?$_Tree_find_result@PAU?$_Tree_node@U?$pair@$$CBKV?$basic_string@DU?$char_traits@D@std@@V?$allocator@D@2@@std@@@std@@PAX@std@@@1@ABK@Z
_TEXT	SEGMENT
___$ReturnUdt$ = 8					; size = 4
__Keyval$ = 12						; size = 4
??$_Find_lower_bound@K@?$_Tree@V?$_Tmap_traits@KV?$basic_string@DU?$char_traits@D@std@@V?$allocator@D@2@@std@@U?$less@K@2@V?$allocator@U?$pair@$$CBKV?$basic_string@DU?$char_traits@D@std@@V?$allocator@D@2@@std@@@std@@@2@$0A@@std@@@std@@IBE?AU?$_Tree_find_result@PAU?$_Tree_node@U?$pair@$$CBKV?$basic_string@DU?$char_traits@D@std@@V?$allocator@D@2@@std@@@std@@PAX@std@@@1@ABK@Z PROC ; std::_Tree<std::_Tmap_traits<unsigned long,std::basic_string<char,std::char_traits<char>,std::allocator<char> >,std::less<unsigned long>,std::allocator<std::pair<unsigned long const ,std::basic_string<char,std::char_traits<char>,std::allocator<char> > > >,0> >::_Find_lower_bound<unsigned long>, COMDAT
; _this$ = ecx

; 1603 :     _Tree_find_result<_Nodeptr> _Find_lower_bound(const _Keyty& _Keyval) const {

  00000	55		 push	 ebp
  00001	8b ec		 mov	 ebp, esp

; 1604 :         const auto _Scary = _Get_scary();
; 1605 :         _Tree_find_result<_Nodeptr> _Result{{_Scary->_Myhead->_Parent, _Tree_child::_Right}, _Scary->_Myhead};

  00003	8b 09		 mov	 ecx, DWORD PTR [ecx]
  00005	8b 55 08	 mov	 edx, DWORD PTR ___$ReturnUdt$[ebp]
  00008	8b 41 04	 mov	 eax, DWORD PTR [ecx+4]
  0000b	89 02		 mov	 DWORD PTR [edx], eax
  0000d	c7 42 04 00 00
	00 00		 mov	 DWORD PTR [edx+4], 0
  00014	89 4a 08	 mov	 DWORD PTR [edx+8], ecx

; 1606 :         _Nodeptr _Trynode = _Result._Location._Parent;
; 1607 :         while (!_Trynode->_Isnil) {

  00017	80 78 0d 00	 cmp	 BYTE PTR [eax+13], 0
  0001b	75 28		 jne	 SHORT $LN12@Find_lower
; File C:\Program Files (x86)\Microsoft Visual Studio\2019\Professional\VC\Tools\MSVC\14.29.30133\include\xstddef

; 127  :         return _Left < _Right;

  0001d	8b 4d 0c	 mov	 ecx, DWORD PTR __Keyval$[ebp]
  00020	56		 push	 esi
  00021	8b 31		 mov	 esi, DWORD PTR [ecx]
$LL2@Find_lower:
; File C:\Program Files (x86)\Microsoft Visual Studio\2019\Professional\VC\Tools\MSVC\14.29.30133\include\xtree

; 1608 :             _Result._Location._Parent = _Trynode;

  00023	89 02		 mov	 DWORD PTR [edx], eax
; File C:\Program Files (x86)\Microsoft Visual Studio\2019\Professional\VC\Tools\MSVC\14.29.30133\include\xstddef

; 127  :         return _Left < _Right;

  00025	39 70 10	 cmp	 DWORD PTR [eax+16], esi
; File C:\Program Files (x86)\Microsoft Visual Studio\2019\Professional\VC\Tools\MSVC\14.29.30133\include\xtree

; 1609 :             if (_DEBUG_LT_PRED(_Getcomp(), _Traits::_Kfn(_Trynode->_Myval), _Keyval)) {

  00028	73 07		 jae	 SHORT $LN4@Find_lower

; 1610 :                 _Result._Location._Child = _Tree_child::_Right;
; 1611 :                 _Trynode                 = _Trynode->_Right;

  0002a	8b 40 08	 mov	 eax, DWORD PTR [eax+8]
  0002d	33 c9		 xor	 ecx, ecx

; 1612 :             } else {

  0002f	eb 0a		 jmp	 SHORT $LN5@Find_lower
$LN4@Find_lower:

; 1613 :                 _Result._Location._Child = _Tree_child::_Left;
; 1614 :                 _Result._Bound           = _Trynode;

  00031	89 42 08	 mov	 DWORD PTR [edx+8], eax

; 1615 :                 _Trynode                 = _Trynode->_Left;

  00034	b9 01 00 00 00	 mov	 ecx, 1
  00039	8b 00		 mov	 eax, DWORD PTR [eax]
$LN5@Find_lower:

; 1606 :         _Nodeptr _Trynode = _Result._Location._Parent;
; 1607 :         while (!_Trynode->_Isnil) {

  0003b	89 4a 04	 mov	 DWORD PTR [edx+4], ecx
  0003e	80 78 0d 00	 cmp	 BYTE PTR [eax+13], 0
  00042	74 df		 je	 SHORT $LL2@Find_lower

; 1616 :             }
; 1617 :         }
; 1618 : 
; 1619 :         return _Result;

  00044	5e		 pop	 esi
$LN12@Find_lower:

; 1620 :     }

  00045	8b c2		 mov	 eax, edx
  00047	5d		 pop	 ebp
  00048	c2 08 00	 ret	 8
??$_Find_lower_bound@K@?$_Tree@V?$_Tmap_traits@KV?$basic_string@DU?$char_traits@D@std@@V?$allocator@D@2@@std@@U?$less@K@2@V?$allocator@U?$pair@$$CBKV?$basic_string@DU?$char_traits@D@std@@V?$allocator@D@2@@std@@@std@@@2@$0A@@std@@@std@@IBE?AU?$_Tree_find_result@PAU?$_Tree_node@U?$pair@$$CBKV?$basic_string@DU?$char_traits@D@std@@V?$allocator@D@2@@std@@@std@@PAX@std@@@1@ABK@Z ENDP ; std::_Tree<std::_Tmap_traits<unsigned long,std::basic_string<char,std::char_traits<char>,std::allocator<char> >,std::less<unsigned long>,std::allocator<std::pair<unsigned long const ,std::basic_string<char,std::char_traits<char>,std::allocator<char> > > >,0> >::_Find_lower_bound<unsigned long>
_TEXT	ENDS
; Function compile flags: /Ogtp
; File C:\Program Files (x86)\Microsoft Visual Studio\2019\Professional\VC\Tools\MSVC\14.29.30133\include\xtree
; File C:\Program Files (x86)\Microsoft Visual Studio\2019\Professional\VC\Tools\MSVC\14.29.30133\include\utility
; File C:\Program Files (x86)\Microsoft Visual Studio\2019\Professional\VC\Tools\MSVC\14.29.30133\include\xmemory
; File C:\Program Files (x86)\Microsoft Visual Studio\2019\Professional\VC\Tools\MSVC\14.29.30133\include\xtree
;	COMDAT ??$_Erase_tree@V?$allocator@U?$_Tree_node@U?$pair@$$CBJPAVCResource@@@std@@PAX@std@@@std@@@?$_Tree_val@U?$_Tree_simple_types@U?$pair@$$CBJPAVCResource@@@std@@@std@@@std@@QAEXAAV?$allocator@U?$_Tree_node@U?$pair@$$CBJPAVCResource@@@std@@PAX@std@@@1@PAU?$_Tree_node@U?$pair@$$CBJPAVCResource@@@std@@PAX@1@@Z
_TEXT	SEGMENT
__Al$ = 8						; size = 4
__Rootnode$ = 12					; size = 4
??$_Erase_tree@V?$allocator@U?$_Tree_node@U?$pair@$$CBJPAVCResource@@@std@@PAX@std@@@std@@@?$_Tree_val@U?$_Tree_simple_types@U?$pair@$$CBJPAVCResource@@@std@@@std@@@std@@QAEXAAV?$allocator@U?$_Tree_node@U?$pair@$$CBJPAVCResource@@@std@@PAX@std@@@1@PAU?$_Tree_node@U?$pair@$$CBJPAVCResource@@@std@@PAX@1@@Z PROC ; std::_Tree_val<std::_Tree_simple_types<std::pair<long const ,CResource *> > >::_Erase_tree<std::allocator<std::_Tree_node<std::pair<long const ,CResource *>,void *> > >, COMDAT
; _this$ = ecx

; 748  :     void _Erase_tree(_Alnode& _Al, _Nodeptr _Rootnode) noexcept {

  00000	55		 push	 ebp
  00001	8b ec		 mov	 ebp, esp
  00003	53		 push	 ebx
  00004	56		 push	 esi

; 749  :         while (!_Rootnode->_Isnil) { // free subtrees, then node

  00005	8b 75 0c	 mov	 esi, DWORD PTR __Rootnode$[ebp]
  00008	8b d9		 mov	 ebx, ecx
  0000a	80 7e 0d 00	 cmp	 BYTE PTR [esi+13], 0
  0000e	75 25		 jne	 SHORT $LN3@Erase_tree
  00010	57		 push	 edi
  00011	8b 7d 08	 mov	 edi, DWORD PTR __Al$[ebp]
$LL2@Erase_tree:

; 750  :             _Erase_tree(_Al, _Rootnode->_Right);

  00014	ff 76 08	 push	 DWORD PTR [esi+8]
  00017	8b cb		 mov	 ecx, ebx
  00019	57		 push	 edi
  0001a	e8 00 00 00 00	 call	 ??$_Erase_tree@V?$allocator@U?$_Tree_node@U?$pair@$$CBJPAVCResource@@@std@@PAX@std@@@std@@@?$_Tree_val@U?$_Tree_simple_types@U?$pair@$$CBJPAVCResource@@@std@@@std@@@std@@QAEXAAV?$allocator@U?$_Tree_node@U?$pair@$$CBJPAVCResource@@@std@@PAX@std@@@1@PAU?$_Tree_node@U?$pair@$$CBJPAVCResource@@@std@@PAX@1@@Z ; std::_Tree_val<std::_Tree_simple_types<std::pair<long const ,CResource *> > >::_Erase_tree<std::allocator<std::_Tree_node<std::pair<long const ,CResource *>,void *> > >
; File C:\Program Files (x86)\Microsoft Visual Studio\2019\Professional\VC\Tools\MSVC\14.29.30133\include\utility

; 616  :     _Ty _Old_val = static_cast<_Ty&&>(_Val);

  0001f	8b c6		 mov	 eax, esi

; 617  :     _Val         = static_cast<_Other&&>(_New_val);

  00021	8b 36		 mov	 esi, DWORD PTR [esi]
; File C:\Program Files (x86)\Microsoft Visual Studio\2019\Professional\VC\Tools\MSVC\14.29.30133\include\xmemory

; 264  :         ::operator delete(_Ptr, _Bytes);

  00023	6a 18		 push	 24			; 00000018H
  00025	50		 push	 eax
  00026	e8 00 00 00 00	 call	 ??3@YAXPAXI@Z		; operator delete
  0002b	83 c4 08	 add	 esp, 8
; File C:\Program Files (x86)\Microsoft Visual Studio\2019\Professional\VC\Tools\MSVC\14.29.30133\include\xtree

; 749  :         while (!_Rootnode->_Isnil) { // free subtrees, then node

  0002e	80 7e 0d 00	 cmp	 BYTE PTR [esi+13], 0
  00032	74 e0		 je	 SHORT $LL2@Erase_tree
  00034	5f		 pop	 edi
$LN3@Erase_tree:
  00035	5e		 pop	 esi

; 751  :             _Alnode::value_type::_Freenode(_Al, _STD exchange(_Rootnode, _Rootnode->_Left));
; 752  :         }
; 753  :     }

  00036	5b		 pop	 ebx
  00037	5d		 pop	 ebp
  00038	c2 08 00	 ret	 8
??$_Erase_tree@V?$allocator@U?$_Tree_node@U?$pair@$$CBJPAVCResource@@@std@@PAX@std@@@std@@@?$_Tree_val@U?$_Tree_simple_types@U?$pair@$$CBJPAVCResource@@@std@@@std@@@std@@QAEXAAV?$allocator@U?$_Tree_node@U?$pair@$$CBJPAVCResource@@@std@@PAX@std@@@1@PAU?$_Tree_node@U?$pair@$$CBJPAVCResource@@@std@@PAX@1@@Z ENDP ; std::_Tree_val<std::_Tree_simple_types<std::pair<long const ,CResource *> > >::_Erase_tree<std::allocator<std::_Tree_node<std::pair<long const ,CResource *>,void *> > >
_TEXT	ENDS
; Function compile flags: /Ogtp
; File C:\Program Files (x86)\Microsoft Visual Studio\2019\Professional\VC\Tools\MSVC\14.29.30133\include\algorithm
; File C:\Program Files (x86)\Microsoft Visual Studio\2019\Professional\VC\Tools\MSVC\14.29.30133\include\xutility
; File C:\Program Files (x86)\Microsoft Visual Studio\2019\Professional\VC\Tools\MSVC\14.29.30133\include\algorithm
; File C:\Program Files (x86)\Microsoft Visual Studio\2019\Professional\VC\Tools\MSVC\14.29.30133\include\xutility
; File C:\Program Files (x86)\Microsoft Visual Studio\2019\Professional\VC\Tools\MSVC\14.29.30133\include\algorithm
;	COMDAT ??$_Sort_unchecked@PAUSDumpData@@P6A_NABU1@0@Z@std@@YAXPAUSDumpData@@0HP6A_NABU1@1@Z@Z
_TEXT	SEGMENT
__Val$1 = -20						; size = 12
__Val$2 = -20						; size = 12
__Mid$3 = -8						; size = 8
__Mid$1$ = -4						; size = 4
tv269 = 8						; size = 4
__First$ = 8						; size = 4
tv259 = 12						; size = 4
__Last$ = 12						; size = 4
__Ideal$ = 16						; size = 4
__Pred$ = 20						; size = 4
??$_Sort_unchecked@PAUSDumpData@@P6A_NABU1@0@Z@std@@YAXPAUSDumpData@@0HP6A_NABU1@1@Z@Z PROC ; std::_Sort_unchecked<SDumpData *,bool (__cdecl*)(SDumpData const &,SDumpData const &)>, COMDAT

; 7365 : _CONSTEXPR20 void _Sort_unchecked(_RanIt _First, _RanIt _Last, _Iter_diff_t<_RanIt> _Ideal, _Pr _Pred) {

  00000	55		 push	 ebp
  00001	8b ec		 mov	 ebp, esp
  00003	83 ec 14	 sub	 esp, 20			; 00000014H
  00006	53		 push	 ebx

; 7366 :     // order [_First, _Last)
; 7367 :     for (;;) {
; 7368 :         if (_Last - _First <= _ISORT_MAX) { // small

  00007	8b 5d 08	 mov	 ebx, DWORD PTR __First$[ebp]
  0000a	56		 push	 esi
  0000b	8b 75 0c	 mov	 esi, DWORD PTR __Last$[ebp]
  0000e	8b c6		 mov	 eax, esi
  00010	2b c3		 sub	 eax, ebx
  00012	57		 push	 edi
  00013	8b 7d 14	 mov	 edi, DWORD PTR __Pred$[ebp]
  00016	3d 8c 01 00 00	 cmp	 eax, 396		; 0000018cH
  0001b	0f 8c 91 00 00
	00		 jl	 $LN40@Sort_unche
$LL2@Sort_unche:

; 7369 :             _Insertion_sort_unchecked(_First, _Last, _Pred);
; 7370 :             return;
; 7371 :         }
; 7372 : 
; 7373 :         if (_Ideal <= 0) { // heap sort if too many divisions

  00021	83 7d 10 00	 cmp	 DWORD PTR __Ideal$[ebp], 0
  00025	57		 push	 edi
  00026	56		 push	 esi
  00027	53		 push	 ebx
  00028	0f 8e eb 00 00
	00		 jle	 $LN41@Sort_unche

; 7375 :             _Sort_heap_unchecked(_First, _Last, _Pred);
; 7376 :             return;
; 7377 :         }
; 7378 : 
; 7379 :         // divide and conquer by quicksort
; 7380 :         auto _Mid = _Partition_by_median_guess_unchecked(_First, _Last, _Pred);

  0002e	8d 45 f8	 lea	 eax, DWORD PTR __Mid$3[ebp]
  00031	50		 push	 eax
  00032	e8 00 00 00 00	 call	 ??$_Partition_by_median_guess_unchecked@PAUSDumpData@@P6A_NABU1@0@Z@std@@YA?AU?$pair@PAUSDumpData@@PAU1@@0@PAUSDumpData@@0P6A_NABU2@1@Z@Z ; std::_Partition_by_median_guess_unchecked<SDumpData *,bool (__cdecl*)(SDumpData const &,SDumpData const &)>

; 7381 : 
; 7382 :         _Ideal = (_Ideal >> 1) + (_Ideal >> 2); // allow 1.5 log2(N) divisions

  00037	8b 4d 10	 mov	 ecx, DWORD PTR __Ideal$[ebp]
  0003a	83 c4 10	 add	 esp, 16			; 00000010H
  0003d	8b c1		 mov	 eax, ecx
  0003f	d1 f9		 sar	 ecx, 1
  00041	c1 f8 02	 sar	 eax, 2
  00044	03 c8		 add	 ecx, eax

; 7383 : 
; 7384 :         if (_Mid.first - _First < _Last - _Mid.second) { // loop on second half

  00046	b8 ab aa aa 2a	 mov	 eax, 715827883		; 2aaaaaabH
  0004b	89 4d 10	 mov	 DWORD PTR __Ideal$[ebp], ecx
  0004e	8b ce		 mov	 ecx, esi
  00050	2b 4d fc	 sub	 ecx, DWORD PTR __Mid$3[ebp+4]
  00053	f7 e9		 imul	 ecx
  00055	8b 4d f8	 mov	 ecx, DWORD PTR __Mid$3[ebp]
  00058	b8 ab aa aa 2a	 mov	 eax, 715827883		; 2aaaaaabH
  0005d	d1 fa		 sar	 edx, 1
  0005f	2b cb		 sub	 ecx, ebx
  00061	8b f2		 mov	 esi, edx
  00063	c1 ee 1f	 shr	 esi, 31			; 0000001fH
  00066	03 f2		 add	 esi, edx
  00068	f7 e9		 imul	 ecx
  0006a	57		 push	 edi
  0006b	ff 75 10	 push	 DWORD PTR __Ideal$[ebp]
  0006e	d1 fa		 sar	 edx, 1
  00070	8b c2		 mov	 eax, edx
  00072	c1 e8 1f	 shr	 eax, 31			; 0000001fH
  00075	03 c2		 add	 eax, edx
  00077	3b c6		 cmp	 eax, esi
  00079	7d 12		 jge	 SHORT $LN7@Sort_unche

; 7385 :             _Sort_unchecked(_First, _Mid.first, _Ideal, _Pred);

  0007b	8b 75 f8	 mov	 esi, DWORD PTR __Mid$3[ebp]
  0007e	56		 push	 esi
  0007f	53		 push	 ebx
  00080	e8 00 00 00 00	 call	 ??$_Sort_unchecked@PAUSDumpData@@P6A_NABU1@0@Z@std@@YAXPAUSDumpData@@0HP6A_NABU1@1@Z@Z ; std::_Sort_unchecked<SDumpData *,bool (__cdecl*)(SDumpData const &,SDumpData const &)>

; 7386 :             _First = _Mid.second;

  00085	8b 5d fc	 mov	 ebx, DWORD PTR __Mid$3[ebp+4]

; 7387 :         } else { // loop on first half

  00088	8b 75 0c	 mov	 esi, DWORD PTR __Last$[ebp]
  0008b	eb 13		 jmp	 SHORT $LN54@Sort_unche
$LN7@Sort_unche:

; 7388 :             _Sort_unchecked(_Mid.second, _Last, _Ideal, _Pred);

  0008d	8b 45 0c	 mov	 eax, DWORD PTR __Last$[ebp]
  00090	50		 push	 eax
  00091	8b 45 fc	 mov	 eax, DWORD PTR __Mid$3[ebp+4]
  00094	50		 push	 eax
  00095	e8 00 00 00 00	 call	 ??$_Sort_unchecked@PAUSDumpData@@P6A_NABU1@0@Z@std@@YAXPAUSDumpData@@0HP6A_NABU1@1@Z@Z ; std::_Sort_unchecked<SDumpData *,bool (__cdecl*)(SDumpData const &,SDumpData const &)>

; 7389 :             _Last = _Mid.first;

  0009a	8b 75 f8	 mov	 esi, DWORD PTR __Mid$3[ebp]
  0009d	89 75 0c	 mov	 DWORD PTR __Last$[ebp], esi
$LN54@Sort_unche:

; 7366 :     // order [_First, _Last)
; 7367 :     for (;;) {
; 7368 :         if (_Last - _First <= _ISORT_MAX) { // small

  000a0	8b c6		 mov	 eax, esi
  000a2	83 c4 10	 add	 esp, 16			; 00000010H
  000a5	2b c3		 sub	 eax, ebx
  000a7	3d 8c 01 00 00	 cmp	 eax, 396		; 0000018cH
  000ac	0f 8d 6f ff ff
	ff		 jge	 $LL2@Sort_unche
$LN40@Sort_unche:

; 7240 :     if (_First != _Last) {

  000b2	3b de		 cmp	 ebx, esi
  000b4	0f 84 3d 01 00
	00		 je	 $LN27@Sort_unche

; 7241 :         for (_BidIt _Mid = _First; ++_Mid != _Last;) { // order next element

  000ba	8d 73 0c	 lea	 esi, DWORD PTR [ebx+12]
  000bd	89 75 fc	 mov	 DWORD PTR __Mid$1$[ebp], esi
  000c0	3b 75 0c	 cmp	 esi, DWORD PTR __Last$[ebp]
  000c3	0f 84 2e 01 00
	00		 je	 $LN27@Sort_unche
  000c9	89 5d 08	 mov	 DWORD PTR tv269[ebp], ebx
  000cc	0f 1f 40 00	 npad	 4
$LL11@Sort_unche:

; 7242 :             _BidIt _Hole               = _Mid;
; 7243 :             _Iter_value_t<_BidIt> _Val = _STD move(*_Mid);

  000d0	8b 46 08	 mov	 eax, DWORD PTR [esi+8]
  000d3	8b fe		 mov	 edi, esi
  000d5	f3 0f 7e 06	 movq	 xmm0, QWORD PTR [esi]
  000d9	89 45 f4	 mov	 DWORD PTR __Val$2[ebp+8], eax

; 7244 : 
; 7245 :             if (_DEBUG_LT_PRED(_Pred, _Val, *_First)) { // found new earliest element, move to front

  000dc	8d 45 ec	 lea	 eax, DWORD PTR __Val$2[ebp]
  000df	53		 push	 ebx
  000e0	50		 push	 eax
  000e1	66 0f d6 45 ec	 movq	 QWORD PTR __Val$2[ebp], xmm0
  000e6	ff 55 14	 call	 DWORD PTR __Pred$[ebp]
  000e9	83 c4 08	 add	 esp, 8
  000ec	84 c0		 test	 al, al
  000ee	8b 45 08	 mov	 eax, DWORD PTR tv269[ebp]
  000f1	0f 84 a4 00 00
	00		 je	 $LN18@Sort_unche
; File C:\Program Files (x86)\Microsoft Visual Studio\2019\Professional\VC\Tools\MSVC\14.29.30133\include\xutility

; 4468 :             return _Copy_backward_memmove(_First, _Last, _Dest);

  000f7	83 c0 18	 add	 eax, 24			; 00000018H
  000fa	50		 push	 eax
  000fb	56		 push	 esi
  000fc	53		 push	 ebx
  000fd	e8 00 00 00 00	 call	 ??$_Copy_backward_memmove@PAUSDumpData@@PAU1@@std@@YAPAUSDumpData@@PAU1@00@Z ; std::_Copy_backward_memmove<SDumpData *,SDumpData *>
; File C:\Program Files (x86)\Microsoft Visual Studio\2019\Professional\VC\Tools\MSVC\14.29.30133\include\algorithm

; 7247 :                 *_First = _STD move(_Val);

  00102	f3 0f 7e 45 ec	 movq	 xmm0, QWORD PTR __Val$2[ebp]
; File C:\Program Files (x86)\Microsoft Visual Studio\2019\Professional\VC\Tools\MSVC\14.29.30133\include\xutility

; 4468 :             return _Copy_backward_memmove(_First, _Last, _Dest);

  00107	83 c4 0c	 add	 esp, 12			; 0000000cH
; File C:\Program Files (x86)\Microsoft Visual Studio\2019\Professional\VC\Tools\MSVC\14.29.30133\include\algorithm

; 7247 :                 *_First = _STD move(_Val);

  0010a	8b 45 f4	 mov	 eax, DWORD PTR __Val$2[ebp+8]
  0010d	66 0f d6 03	 movq	 QWORD PTR [ebx], xmm0
  00111	89 43 08	 mov	 DWORD PTR [ebx+8], eax

; 7248 :             } else { // look for insertion point after first

  00114	e9 cb 00 00 00	 jmp	 $LN19@Sort_unche
$LN41@Sort_unche:

; 7374 :             _Make_heap_unchecked(_First, _Last, _Pred);

  00119	e8 00 00 00 00	 call	 ??$_Make_heap_unchecked@PAUSDumpData@@P6A_NABU1@0@Z@std@@YAXPAUSDumpData@@0P6A_NABU1@1@Z@Z ; std::_Make_heap_unchecked<SDumpData *,bool (__cdecl*)(SDumpData const &,SDumpData const &)>

; 6078 :     for (; _Last - _First >= 2; --_Last) {

  0011e	2b f3		 sub	 esi, ebx

; 7374 :             _Make_heap_unchecked(_First, _Last, _Pred);

  00120	83 c4 0c	 add	 esp, 12			; 0000000cH

; 6078 :     for (; _Last - _First >= 2; --_Last) {

  00123	83 fe 18	 cmp	 esi, 24			; 00000018H
  00126	0f 8c cb 00 00
	00		 jl	 $LN27@Sort_unche

; 7374 :             _Make_heap_unchecked(_First, _Last, _Pred);

  0012c	8b 4d 0c	 mov	 ecx, DWORD PTR __Last$[ebp]
  0012f	83 c1 f4	 add	 ecx, -12		; fffffff4H
  00132	89 4d 0c	 mov	 DWORD PTR tv259[ebp], ecx
$LL28@Sort_unche:

; 5714 :     if (2 <= _Last - _First) {

  00135	b8 ab aa aa aa	 mov	 eax, -1431655765	; aaaaaaabH
  0013a	f7 e6		 mul	 esi
  0013c	8b f1		 mov	 esi, ecx
  0013e	c1 ea 03	 shr	 edx, 3
  00141	2b f3		 sub	 esi, ebx
  00143	83 fa 02	 cmp	 edx, 2
  00146	7c 41		 jl	 SHORT $LN26@Sort_unche

; 5715 :         --_Last;
; 5716 :         _Iter_value_t<_RanIt> _Val = _STD move(*_Last);

  00148	f3 0f 7e 01	 movq	 xmm0, QWORD PTR [ecx]
  0014c	8b 41 08	 mov	 eax, DWORD PTR [ecx+8]
  0014f	89 45 f4	 mov	 DWORD PTR __Val$1[ebp+8], eax
  00152	66 0f d6 45 ec	 movq	 QWORD PTR __Val$1[ebp], xmm0

; 5705 :     *_Dest      = _STD move(*_First);

  00157	f3 0f 7e 03	 movq	 xmm0, QWORD PTR [ebx]
  0015b	66 0f d6 01	 movq	 QWORD PTR [ecx], xmm0
  0015f	8b 43 08	 mov	 eax, DWORD PTR [ebx+8]
  00162	89 41 08	 mov	 DWORD PTR [ecx+8], eax

; 5706 :     using _Diff = _Iter_diff_t<_RanIt>;
; 5707 :     _Pop_heap_hole_by_index(

  00165	8d 45 ec	 lea	 eax, DWORD PTR __Val$1[ebp]
  00168	57		 push	 edi
  00169	50		 push	 eax
  0016a	b8 ab aa aa 2a	 mov	 eax, 715827883		; 2aaaaaabH
  0016f	f7 ee		 imul	 esi
  00171	d1 fa		 sar	 edx, 1
  00173	8b c2		 mov	 eax, edx
  00175	c1 e8 1f	 shr	 eax, 31			; 0000001fH
  00178	03 c2		 add	 eax, edx
  0017a	50		 push	 eax
  0017b	6a 00		 push	 0
  0017d	53		 push	 ebx
  0017e	e8 00 00 00 00	 call	 ??$_Pop_heap_hole_by_index@PAUSDumpData@@U1@P6A_NABU1@0@Z@std@@YAXPAUSDumpData@@HH$$QAU1@P6A_NABU1@2@Z@Z ; std::_Pop_heap_hole_by_index<SDumpData *,SDumpData,bool (__cdecl*)(SDumpData const &,SDumpData const &)>
  00183	8b 4d 0c	 mov	 ecx, DWORD PTR tv259[ebp]
  00186	83 c4 14	 add	 esp, 20			; 00000014H
$LN26@Sort_unche:

; 6078 :     for (; _Last - _First >= 2; --_Last) {

  00189	83 e9 0c	 sub	 ecx, 12			; 0000000cH
  0018c	89 4d 0c	 mov	 DWORD PTR tv259[ebp], ecx
  0018f	83 fe 18	 cmp	 esi, 24			; 00000018H
  00192	7d a1		 jge	 SHORT $LL28@Sort_unche

; 7390 :         }
; 7391 :     }
; 7392 : }

  00194	5f		 pop	 edi
  00195	5e		 pop	 esi
  00196	5b		 pop	 ebx
  00197	8b e5		 mov	 esp, ebp
  00199	5d		 pop	 ebp
  0019a	c3		 ret	 0
$LN18@Sort_unche:

; 7249 :                 for (_BidIt _Prev = _Hole; _DEBUG_LT_PRED(_Pred, _Val, *--_Prev); _Hole = _Prev) {

  0019b	50		 push	 eax
  0019c	8b f0		 mov	 esi, eax
  0019e	8d 45 ec	 lea	 eax, DWORD PTR __Val$2[ebp]
  001a1	50		 push	 eax
  001a2	ff 55 14	 call	 DWORD PTR __Pred$[ebp]
  001a5	83 c4 08	 add	 esp, 8
  001a8	84 c0		 test	 al, al
  001aa	74 26		 je	 SHORT $LN15@Sort_unche
  001ac	0f 1f 40 00	 npad	 4
$LL16@Sort_unche:

; 7250 :                     *_Hole = _STD move(*_Prev); // move hole down

  001b0	f3 0f 7e 06	 movq	 xmm0, QWORD PTR [esi]
  001b4	66 0f d6 07	 movq	 QWORD PTR [edi], xmm0
  001b8	8b 46 08	 mov	 eax, DWORD PTR [esi+8]
  001bb	89 47 08	 mov	 DWORD PTR [edi+8], eax
  001be	8b fe		 mov	 edi, esi
  001c0	83 ee 0c	 sub	 esi, 12			; 0000000cH
  001c3	8d 45 ec	 lea	 eax, DWORD PTR __Val$2[ebp]
  001c6	56		 push	 esi
  001c7	50		 push	 eax
  001c8	ff 55 14	 call	 DWORD PTR __Pred$[ebp]
  001cb	83 c4 08	 add	 esp, 8
  001ce	84 c0		 test	 al, al
  001d0	75 de		 jne	 SHORT $LL16@Sort_unche
$LN15@Sort_unche:

; 7251 :                 }
; 7252 : 
; 7253 :                 *_Hole = _STD move(_Val); // insert element in hole

  001d2	f3 0f 7e 45 ec	 movq	 xmm0, QWORD PTR __Val$2[ebp]
  001d7	8b 45 f4	 mov	 eax, DWORD PTR __Val$2[ebp+8]
  001da	8b 75 fc	 mov	 esi, DWORD PTR __Mid$1$[ebp]
  001dd	66 0f d6 07	 movq	 QWORD PTR [edi], xmm0
  001e1	89 47 08	 mov	 DWORD PTR [edi+8], eax
$LN19@Sort_unche:

; 7241 :         for (_BidIt _Mid = _First; ++_Mid != _Last;) { // order next element

  001e4	83 45 08 0c	 add	 DWORD PTR tv269[ebp], 12 ; 0000000cH
  001e8	83 c6 0c	 add	 esi, 12			; 0000000cH
  001eb	89 75 fc	 mov	 DWORD PTR __Mid$1$[ebp], esi
  001ee	3b 75 0c	 cmp	 esi, DWORD PTR __Last$[ebp]
  001f1	0f 85 d9 fe ff
	ff		 jne	 $LL11@Sort_unche
$LN27@Sort_unche:
  001f7	5f		 pop	 edi

; 7390 :         }
; 7391 :     }
; 7392 : }

  001f8	5e		 pop	 esi
  001f9	5b		 pop	 ebx
  001fa	8b e5		 mov	 esp, ebp
  001fc	5d		 pop	 ebp
  001fd	c3		 ret	 0
??$_Sort_unchecked@PAUSDumpData@@P6A_NABU1@0@Z@std@@YAXPAUSDumpData@@0HP6A_NABU1@1@Z@Z ENDP ; std::_Sort_unchecked<SDumpData *,bool (__cdecl*)(SDumpData const &,SDumpData const &)>
_TEXT	ENDS
; Function compile flags: /Ogtp
; File C:\Program Files (x86)\Microsoft Visual Studio\2019\Professional\VC\Tools\MSVC\14.29.30133\include\xtree
; File C:\Program Files (x86)\Microsoft Visual Studio\2019\Professional\VC\Tools\MSVC\14.29.30133\include\xstring
; File C:\Program Files (x86)\Microsoft Visual Studio\2019\Professional\VC\Tools\MSVC\14.29.30133\include\xmemory
; File C:\Program Files (x86)\Microsoft Visual Studio\2019\Professional\VC\Tools\MSVC\14.29.30133\include\xstring
; File C:\Program Files (x86)\Microsoft Visual Studio\2019\Professional\VC\Tools\MSVC\14.29.30133\include\xmemory
; File C:\Program Files (x86)\Microsoft Visual Studio\2019\Professional\VC\Tools\MSVC\14.29.30133\include\xstring
; File C:\Program Files (x86)\Microsoft Visual Studio\2019\Professional\VC\Tools\MSVC\14.29.30133\include\xmemory
; File C:\Program Files (x86)\Microsoft Visual Studio\2019\Professional\VC\Tools\MSVC\14.29.30133\include\xtree
; File C:\Program Files (x86)\Microsoft Visual Studio\2019\Professional\VC\Tools\MSVC\14.29.30133\include\xmemory
; File C:\Program Files (x86)\Microsoft Visual Studio\2019\Professional\VC\Tools\MSVC\14.29.30133\include\xtree
;	COMDAT ??$_Freenode@V?$allocator@U?$_Tree_node@U?$pair@$$CBKV?$basic_string@DU?$char_traits@D@std@@V?$allocator@D@2@@std@@@std@@PAX@std@@@std@@@?$_Tree_node@U?$pair@$$CBKV?$basic_string@DU?$char_traits@D@std@@V?$allocator@D@2@@std@@@std@@PAX@std@@SAXAAV?$allocator@U?$_Tree_node@U?$pair@$$CBKV?$basic_string@DU?$char_traits@D@std@@V?$allocator@D@2@@std@@@std@@PAX@std@@@1@PAU01@@Z
_TEXT	SEGMENT
__Al$ = 8						; size = 4
__Ptr$ = 12						; size = 4
??$_Freenode@V?$allocator@U?$_Tree_node@U?$pair@$$CBKV?$basic_string@DU?$char_traits@D@std@@V?$allocator@D@2@@std@@@std@@PAX@std@@@std@@@?$_Tree_node@U?$pair@$$CBKV?$basic_string@DU?$char_traits@D@std@@V?$allocator@D@2@@std@@@std@@PAX@std@@SAXAAV?$allocator@U?$_Tree_node@U?$pair@$$CBKV?$basic_string@DU?$char_traits@D@std@@V?$allocator@D@2@@std@@@std@@PAX@std@@@1@PAU01@@Z PROC ; std::_Tree_node<std::pair<unsigned long const ,std::basic_string<char,std::char_traits<char>,std::allocator<char> > >,void *>::_Freenode<std::allocator<std::_Tree_node<std::pair<unsigned long const ,std::basic_string<char,std::char_traits<char>,std::allocator<char> > >,void *> > >, COMDAT

; 383  :     static void _Freenode(_Alloc& _Al, _Nodeptr _Ptr) noexcept {

  00000	55		 push	 ebp
  00001	8b ec		 mov	 ebp, esp
  00003	56		 push	 esi

; 384  :         static_assert(is_same_v<typename _Alloc::value_type, _Tree_node>, "Bad _Freenode call");
; 385  :         allocator_traits<_Alloc>::destroy(_Al, _STD addressof(_Ptr->_Myval));

  00004	8b 75 0c	 mov	 esi, DWORD PTR __Ptr$[ebp]
; File C:\Program Files (x86)\Microsoft Visual Studio\2019\Professional\VC\Tools\MSVC\14.29.30133\include\xstring

; 2319 :         return _BUF_SIZE <= _Myres;

  00007	8b 4e 28	 mov	 ecx, DWORD PTR [esi+40]
  0000a	83 f9 10	 cmp	 ecx, 16			; 00000010H

; 4618 :         if (_Mypair._Myval2._Large_string_engaged()) {

  0000d	72 28		 jb	 SHORT $LN23@Freenode
; File C:\Program Files (x86)\Microsoft Visual Studio\2019\Professional\VC\Tools\MSVC\14.29.30133\include\xmemory

; 835  :         _Deallocate<_New_alignof<_Ty>>(_Ptr, sizeof(_Ty) * _Count);

  0000f	8b 46 14	 mov	 eax, DWORD PTR [esi+20]
; File C:\Program Files (x86)\Microsoft Visual Studio\2019\Professional\VC\Tools\MSVC\14.29.30133\include\xstring

; 4622 :             _Al.deallocate(_Ptr, _Mypair._Myval2._Myres + 1);

  00012	41		 inc	 ecx
; File C:\Program Files (x86)\Microsoft Visual Studio\2019\Professional\VC\Tools\MSVC\14.29.30133\include\xmemory

; 260  :         if (_Bytes >= _Big_allocation_threshold) { // boost the alignment of big allocations to help autovectorization

  00013	81 f9 00 10 00
	00		 cmp	 ecx, 4096		; 00001000H
  00019	72 12		 jb	 SHORT $LN33@Freenode

; 158  :     const uintptr_t _Ptr_container   = _Ptr_user[-1];

  0001b	8b 50 fc	 mov	 edx, DWORD PTR [eax-4]
  0001e	83 c1 23	 add	 ecx, 35			; 00000023H

; 159  : 
; 160  :     // If the following asserts, it likely means that we are performing
; 161  :     // an aligned delete on memory coming from an unaligned allocation.
; 162  :     _STL_ASSERT(_Ptr_user[-2] == _Big_allocation_sentinel, "invalid argument");
; 163  : 
; 164  :     // Extra paranoia on aligned allocation/deallocation; ensure _Ptr_container is
; 165  :     // in range [_Min_back_shift, _Non_user_size]
; 166  : #ifdef _DEBUG
; 167  :     constexpr uintptr_t _Min_back_shift = 2 * sizeof(void*);
; 168  : #else // ^^^ _DEBUG ^^^ // vvv !_DEBUG vvv
; 169  :     constexpr uintptr_t _Min_back_shift = sizeof(void*);
; 170  : #endif // _DEBUG
; 171  :     const uintptr_t _Back_shift = reinterpret_cast<uintptr_t>(_Ptr) - _Ptr_container;

  00021	2b c2		 sub	 eax, edx

; 172  :     _STL_VERIFY(_Back_shift >= _Min_back_shift && _Back_shift <= _Non_user_size, "invalid argument");

  00023	83 c0 fc	 add	 eax, -4			; fffffffcH
  00026	83 f8 1f	 cmp	 eax, 31			; 0000001fH
  00029	77 2c		 ja	 SHORT $LN30@Freenode

; 173  :     _Ptr = reinterpret_cast<void*>(_Ptr_container);

  0002b	8b c2		 mov	 eax, edx
$LN33@Freenode:

; 264  :         ::operator delete(_Ptr, _Bytes);

  0002d	51		 push	 ecx
  0002e	50		 push	 eax
  0002f	e8 00 00 00 00	 call	 ??3@YAXPAXI@Z		; operator delete
  00034	83 c4 08	 add	 esp, 8
$LN23@Freenode:
  00037	6a 2c		 push	 44			; 0000002cH
  00039	56		 push	 esi
; File C:\Program Files (x86)\Microsoft Visual Studio\2019\Professional\VC\Tools\MSVC\14.29.30133\include\xstring

; 4633 :             _Mypair._Myval2._Mysize = 0;

  0003a	c7 46 24 00 00
	00 00		 mov	 DWORD PTR [esi+36], 0

; 4634 :             _Mypair._Myval2._Myres  = _BUF_SIZE - 1;

  00041	c7 46 28 0f 00
	00 00		 mov	 DWORD PTR [esi+40], 15	; 0000000fH

; 4635 :             // the _Traits::assign is last so the codegen doesn't think the char write can alias this
; 4636 :             _Traits::assign(_Mypair._Myval2._Bx._Buf[0], _Elem());

  00048	c6 46 14 00	 mov	 BYTE PTR [esi+20], 0
; File C:\Program Files (x86)\Microsoft Visual Studio\2019\Professional\VC\Tools\MSVC\14.29.30133\include\xmemory

; 264  :         ::operator delete(_Ptr, _Bytes);

  0004c	e8 00 00 00 00	 call	 ??3@YAXPAXI@Z		; operator delete
  00051	83 c4 08	 add	 esp, 8
  00054	5e		 pop	 esi
; File C:\Program Files (x86)\Microsoft Visual Studio\2019\Professional\VC\Tools\MSVC\14.29.30133\include\xtree

; 387  :     }

  00055	5d		 pop	 ebp
  00056	c3		 ret	 0
$LN30@Freenode:
; File C:\Program Files (x86)\Microsoft Visual Studio\2019\Professional\VC\Tools\MSVC\14.29.30133\include\xmemory

; 172  :     _STL_VERIFY(_Back_shift >= _Min_back_shift && _Back_shift <= _Non_user_size, "invalid argument");

  00057	e8 00 00 00 00	 call	 __invalid_parameter_noinfo_noreturn
$LN62@Freenode:
  0005c	cc		 int	 3
??$_Freenode@V?$allocator@U?$_Tree_node@U?$pair@$$CBKV?$basic_string@DU?$char_traits@D@std@@V?$allocator@D@2@@std@@@std@@PAX@std@@@std@@@?$_Tree_node@U?$pair@$$CBKV?$basic_string@DU?$char_traits@D@std@@V?$allocator@D@2@@std@@@std@@PAX@std@@SAXAAV?$allocator@U?$_Tree_node@U?$pair@$$CBKV?$basic_string@DU?$char_traits@D@std@@V?$allocator@D@2@@std@@@std@@PAX@std@@@1@PAU01@@Z ENDP ; std::_Tree_node<std::pair<unsigned long const ,std::basic_string<char,std::char_traits<char>,std::allocator<char> > >,void *>::_Freenode<std::allocator<std::_Tree_node<std::pair<unsigned long const ,std::basic_string<char,std::char_traits<char>,std::allocator<char> > >,void *> > >
_TEXT	ENDS
; Function compile flags: /Ogtp
; File C:\Program Files (x86)\Microsoft Visual Studio\2019\Professional\VC\Tools\MSVC\14.29.30133\include\xtree
; File C:\Program Files (x86)\Microsoft Visual Studio\2019\Professional\VC\Tools\MSVC\14.29.30133\include\utility
; File C:\Program Files (x86)\Microsoft Visual Studio\2019\Professional\VC\Tools\MSVC\14.29.30133\include\xstring
; File C:\Program Files (x86)\Microsoft Visual Studio\2019\Professional\VC\Tools\MSVC\14.29.30133\include\xmemory
; File C:\Program Files (x86)\Microsoft Visual Studio\2019\Professional\VC\Tools\MSVC\14.29.30133\include\xstring
; File C:\Program Files (x86)\Microsoft Visual Studio\2019\Professional\VC\Tools\MSVC\14.29.30133\include\xmemory
; File C:\Program Files (x86)\Microsoft Visual Studio\2019\Professional\VC\Tools\MSVC\14.29.30133\include\xstring
; File C:\Program Files (x86)\Microsoft Visual Studio\2019\Professional\VC\Tools\MSVC\14.29.30133\include\xmemory
; File C:\Program Files (x86)\Microsoft Visual Studio\2019\Professional\VC\Tools\MSVC\14.29.30133\include\xtree
; File C:\Program Files (x86)\Microsoft Visual Studio\2019\Professional\VC\Tools\MSVC\14.29.30133\include\xmemory
; File C:\Program Files (x86)\Microsoft Visual Studio\2019\Professional\VC\Tools\MSVC\14.29.30133\include\xtree
;	COMDAT ??$_Erase_tree@V?$allocator@U?$_Tree_node@U?$pair@$$CBKV?$basic_string@DU?$char_traits@D@std@@V?$allocator@D@2@@std@@@std@@PAX@std@@@std@@@?$_Tree_val@U?$_Tree_simple_types@U?$pair@$$CBKV?$basic_string@DU?$char_traits@D@std@@V?$allocator@D@2@@std@@@std@@@std@@@std@@QAEXAAV?$allocator@U?$_Tree_node@U?$pair@$$CBKV?$basic_string@DU?$char_traits@D@std@@V?$allocator@D@2@@std@@@std@@PAX@std@@@1@PAU?$_Tree_node@U?$pair@$$CBKV?$basic_string@DU?$char_traits@D@std@@V?$allocator@D@2@@std@@@std@@PAX@1@@Z
_TEXT	SEGMENT
_this$1$ = -4						; size = 4
__Al$ = 8						; size = 4
__Rootnode$ = 12					; size = 4
??$_Erase_tree@V?$allocator@U?$_Tree_node@U?$pair@$$CBKV?$basic_string@DU?$char_traits@D@std@@V?$allocator@D@2@@std@@@std@@PAX@std@@@std@@@?$_Tree_val@U?$_Tree_simple_types@U?$pair@$$CBKV?$basic_string@DU?$char_traits@D@std@@V?$allocator@D@2@@std@@@std@@@std@@@std@@QAEXAAV?$allocator@U?$_Tree_node@U?$pair@$$CBKV?$basic_string@DU?$char_traits@D@std@@V?$allocator@D@2@@std@@@std@@PAX@std@@@1@PAU?$_Tree_node@U?$pair@$$CBKV?$basic_string@DU?$char_traits@D@std@@V?$allocator@D@2@@std@@@std@@PAX@1@@Z PROC ; std::_Tree_val<std::_Tree_simple_types<std::pair<unsigned long const ,std::basic_string<char,std::char_traits<char>,std::allocator<char> > > > >::_Erase_tree<std::allocator<std::_Tree_node<std::pair<unsigned long const ,std::basic_string<char,std::char_traits<char>,std::allocator<char> > >,void *> > >, COMDAT
; _this$ = ecx

; 748  :     void _Erase_tree(_Alnode& _Al, _Nodeptr _Rootnode) noexcept {

  00000	55		 push	 ebp
  00001	8b ec		 mov	 ebp, esp
  00003	51		 push	 ecx
  00004	57		 push	 edi

; 749  :         while (!_Rootnode->_Isnil) { // free subtrees, then node

  00005	8b 7d 0c	 mov	 edi, DWORD PTR __Rootnode$[ebp]
  00008	8b c1		 mov	 eax, ecx
  0000a	89 45 fc	 mov	 DWORD PTR _this$1$[ebp], eax
  0000d	80 7f 0d 00	 cmp	 BYTE PTR [edi+13], 0
  00011	75 6e		 jne	 SHORT $LN73@Erase_tree
  00013	53		 push	 ebx
  00014	8b 5d 08	 mov	 ebx, DWORD PTR __Al$[ebp]
  00017	56		 push	 esi
$LL2@Erase_tree:

; 750  :             _Erase_tree(_Al, _Rootnode->_Right);

  00018	ff 77 08	 push	 DWORD PTR [edi+8]
  0001b	8b c8		 mov	 ecx, eax
  0001d	53		 push	 ebx
  0001e	e8 00 00 00 00	 call	 ??$_Erase_tree@V?$allocator@U?$_Tree_node@U?$pair@$$CBKV?$basic_string@DU?$char_traits@D@std@@V?$allocator@D@2@@std@@@std@@PAX@std@@@std@@@?$_Tree_val@U?$_Tree_simple_types@U?$pair@$$CBKV?$basic_string@DU?$char_traits@D@std@@V?$allocator@D@2@@std@@@std@@@std@@@std@@QAEXAAV?$allocator@U?$_Tree_node@U?$pair@$$CBKV?$basic_string@DU?$char_traits@D@std@@V?$allocator@D@2@@std@@@std@@PAX@std@@@1@PAU?$_Tree_node@U?$pair@$$CBKV?$basic_string@DU?$char_traits@D@std@@V?$allocator@D@2@@std@@@std@@PAX@1@@Z ; std::_Tree_val<std::_Tree_simple_types<std::pair<unsigned long const ,std::basic_string<char,std::char_traits<char>,std::allocator<char> > > > >::_Erase_tree<std::allocator<std::_Tree_node<std::pair<unsigned long const ,std::basic_string<char,std::char_traits<char>,std::allocator<char> > >,void *> > >
; File C:\Program Files (x86)\Microsoft Visual Studio\2019\Professional\VC\Tools\MSVC\14.29.30133\include\utility

; 616  :     _Ty _Old_val = static_cast<_Ty&&>(_Val);

  00023	8b f7		 mov	 esi, edi

; 617  :     _Val         = static_cast<_Other&&>(_New_val);

  00025	8b 3f		 mov	 edi, DWORD PTR [edi]
; File C:\Program Files (x86)\Microsoft Visual Studio\2019\Professional\VC\Tools\MSVC\14.29.30133\include\xstring

; 2319 :         return _BUF_SIZE <= _Myres;

  00027	8b 4e 28	 mov	 ecx, DWORD PTR [esi+40]
  0002a	83 f9 10	 cmp	 ecx, 16			; 00000010H

; 4618 :         if (_Mypair._Myval2._Large_string_engaged()) {

  0002d	72 28		 jb	 SHORT $LN29@Erase_tree
; File C:\Program Files (x86)\Microsoft Visual Studio\2019\Professional\VC\Tools\MSVC\14.29.30133\include\xmemory

; 835  :         _Deallocate<_New_alignof<_Ty>>(_Ptr, sizeof(_Ty) * _Count);

  0002f	8b 46 14	 mov	 eax, DWORD PTR [esi+20]
; File C:\Program Files (x86)\Microsoft Visual Studio\2019\Professional\VC\Tools\MSVC\14.29.30133\include\xstring

; 4622 :             _Al.deallocate(_Ptr, _Mypair._Myval2._Myres + 1);

  00032	41		 inc	 ecx
; File C:\Program Files (x86)\Microsoft Visual Studio\2019\Professional\VC\Tools\MSVC\14.29.30133\include\xmemory

; 260  :         if (_Bytes >= _Big_allocation_threshold) { // boost the alignment of big allocations to help autovectorization

  00033	81 f9 00 10 00
	00		 cmp	 ecx, 4096		; 00001000H
  00039	72 12		 jb	 SHORT $LN39@Erase_tree

; 158  :     const uintptr_t _Ptr_container   = _Ptr_user[-1];

  0003b	8b 50 fc	 mov	 edx, DWORD PTR [eax-4]
  0003e	83 c1 23	 add	 ecx, 35			; 00000023H

; 159  : 
; 160  :     // If the following asserts, it likely means that we are performing
; 161  :     // an aligned delete on memory coming from an unaligned allocation.
; 162  :     _STL_ASSERT(_Ptr_user[-2] == _Big_allocation_sentinel, "invalid argument");
; 163  : 
; 164  :     // Extra paranoia on aligned allocation/deallocation; ensure _Ptr_container is
; 165  :     // in range [_Min_back_shift, _Non_user_size]
; 166  : #ifdef _DEBUG
; 167  :     constexpr uintptr_t _Min_back_shift = 2 * sizeof(void*);
; 168  : #else // ^^^ _DEBUG ^^^ // vvv !_DEBUG vvv
; 169  :     constexpr uintptr_t _Min_back_shift = sizeof(void*);
; 170  : #endif // _DEBUG
; 171  :     const uintptr_t _Back_shift = reinterpret_cast<uintptr_t>(_Ptr) - _Ptr_container;

  00041	2b c2		 sub	 eax, edx

; 172  :     _STL_VERIFY(_Back_shift >= _Min_back_shift && _Back_shift <= _Non_user_size, "invalid argument");

  00043	83 c0 fc	 add	 eax, -4			; fffffffcH
  00046	83 f8 1f	 cmp	 eax, 31			; 0000001fH
  00049	77 3d		 ja	 SHORT $LN36@Erase_tree

; 173  :     _Ptr = reinterpret_cast<void*>(_Ptr_container);

  0004b	8b c2		 mov	 eax, edx
$LN39@Erase_tree:

; 264  :         ::operator delete(_Ptr, _Bytes);

  0004d	51		 push	 ecx
  0004e	50		 push	 eax
  0004f	e8 00 00 00 00	 call	 ??3@YAXPAXI@Z		; operator delete
  00054	83 c4 08	 add	 esp, 8
$LN29@Erase_tree:
  00057	6a 2c		 push	 44			; 0000002cH
  00059	56		 push	 esi
; File C:\Program Files (x86)\Microsoft Visual Studio\2019\Professional\VC\Tools\MSVC\14.29.30133\include\xstring

; 4633 :             _Mypair._Myval2._Mysize = 0;

  0005a	c7 46 24 00 00
	00 00		 mov	 DWORD PTR [esi+36], 0

; 4634 :             _Mypair._Myval2._Myres  = _BUF_SIZE - 1;

  00061	c7 46 28 0f 00
	00 00		 mov	 DWORD PTR [esi+40], 15	; 0000000fH

; 4635 :             // the _Traits::assign is last so the codegen doesn't think the char write can alias this
; 4636 :             _Traits::assign(_Mypair._Myval2._Bx._Buf[0], _Elem());

  00068	c6 46 14 00	 mov	 BYTE PTR [esi+20], 0
; File C:\Program Files (x86)\Microsoft Visual Studio\2019\Professional\VC\Tools\MSVC\14.29.30133\include\xmemory

; 264  :         ::operator delete(_Ptr, _Bytes);

  0006c	e8 00 00 00 00	 call	 ??3@YAXPAXI@Z		; operator delete
  00071	83 c4 08	 add	 esp, 8
; File C:\Program Files (x86)\Microsoft Visual Studio\2019\Professional\VC\Tools\MSVC\14.29.30133\include\xtree

; 749  :         while (!_Rootnode->_Isnil) { // free subtrees, then node

  00074	80 7f 0d 00	 cmp	 BYTE PTR [edi+13], 0
  00078	75 05		 jne	 SHORT $LN75@Erase_tree
  0007a	8b 45 fc	 mov	 eax, DWORD PTR _this$1$[ebp]
  0007d	eb 99		 jmp	 SHORT $LL2@Erase_tree
$LN75@Erase_tree:
  0007f	5e		 pop	 esi
  00080	5b		 pop	 ebx
$LN73@Erase_tree:
  00081	5f		 pop	 edi

; 753  :     }

  00082	8b e5		 mov	 esp, ebp
  00084	5d		 pop	 ebp
  00085	c2 08 00	 ret	 8
$LN36@Erase_tree:
; File C:\Program Files (x86)\Microsoft Visual Studio\2019\Professional\VC\Tools\MSVC\14.29.30133\include\xmemory

; 172  :     _STL_VERIFY(_Back_shift >= _Min_back_shift && _Back_shift <= _Non_user_size, "invalid argument");

  00088	e8 00 00 00 00	 call	 __invalid_parameter_noinfo_noreturn
$LN76@Erase_tree:
  0008d	cc		 int	 3
??$_Erase_tree@V?$allocator@U?$_Tree_node@U?$pair@$$CBKV?$basic_string@DU?$char_traits@D@std@@V?$allocator@D@2@@std@@@std@@PAX@std@@@std@@@?$_Tree_val@U?$_Tree_simple_types@U?$pair@$$CBKV?$basic_string@DU?$char_traits@D@std@@V?$allocator@D@2@@std@@@std@@@std@@@std@@QAEXAAV?$allocator@U?$_Tree_node@U?$pair@$$CBKV?$basic_string@DU?$char_traits@D@std@@V?$allocator@D@2@@std@@@std@@PAX@std@@@1@PAU?$_Tree_node@U?$pair@$$CBKV?$basic_string@DU?$char_traits@D@std@@V?$allocator@D@2@@std@@@std@@PAX@1@@Z ENDP ; std::_Tree_val<std::_Tree_simple_types<std::pair<unsigned long const ,std::basic_string<char,std::char_traits<char>,std::allocator<char> > > > >::_Erase_tree<std::allocator<std::_Tree_node<std::pair<unsigned long const ,std::basic_string<char,std::char_traits<char>,std::allocator<char> > >,void *> > >
_TEXT	ENDS
; Function compile flags: /Ogtp
; File C:\Program Files (x86)\Microsoft Visual Studio\2019\Professional\VC\Tools\MSVC\14.29.30133\include\xtree
; File C:\Program Files (x86)\Microsoft Visual Studio\2019\Professional\VC\Tools\MSVC\14.29.30133\include\utility
; File C:\Program Files (x86)\Microsoft Visual Studio\2019\Professional\VC\Tools\MSVC\14.29.30133\include\xmemory
; File C:\Program Files (x86)\Microsoft Visual Studio\2019\Professional\VC\Tools\MSVC\14.29.30133\include\xtree
;	COMDAT ??$_Erase_tree@V?$allocator@U?$_Tree_node@U?$pair@$$CBKPAVCResource@@@std@@PAX@std@@@std@@@?$_Tree_val@U?$_Tree_simple_types@U?$pair@$$CBKPAVCResource@@@std@@@std@@@std@@QAEXAAV?$allocator@U?$_Tree_node@U?$pair@$$CBKPAVCResource@@@std@@PAX@std@@@1@PAU?$_Tree_node@U?$pair@$$CBKPAVCResource@@@std@@PAX@1@@Z
_TEXT	SEGMENT
__Al$ = 8						; size = 4
__Rootnode$ = 12					; size = 4
??$_Erase_tree@V?$allocator@U?$_Tree_node@U?$pair@$$CBKPAVCResource@@@std@@PAX@std@@@std@@@?$_Tree_val@U?$_Tree_simple_types@U?$pair@$$CBKPAVCResource@@@std@@@std@@@std@@QAEXAAV?$allocator@U?$_Tree_node@U?$pair@$$CBKPAVCResource@@@std@@PAX@std@@@1@PAU?$_Tree_node@U?$pair@$$CBKPAVCResource@@@std@@PAX@1@@Z PROC ; std::_Tree_val<std::_Tree_simple_types<std::pair<unsigned long const ,CResource *> > >::_Erase_tree<std::allocator<std::_Tree_node<std::pair<unsigned long const ,CResource *>,void *> > >, COMDAT
; _this$ = ecx

; 748  :     void _Erase_tree(_Alnode& _Al, _Nodeptr _Rootnode) noexcept {

  00000	55		 push	 ebp
  00001	8b ec		 mov	 ebp, esp
  00003	53		 push	 ebx
  00004	56		 push	 esi

; 749  :         while (!_Rootnode->_Isnil) { // free subtrees, then node

  00005	8b 75 0c	 mov	 esi, DWORD PTR __Rootnode$[ebp]
  00008	8b d9		 mov	 ebx, ecx
  0000a	80 7e 0d 00	 cmp	 BYTE PTR [esi+13], 0
  0000e	75 25		 jne	 SHORT $LN3@Erase_tree
  00010	57		 push	 edi
  00011	8b 7d 08	 mov	 edi, DWORD PTR __Al$[ebp]
$LL2@Erase_tree:

; 750  :             _Erase_tree(_Al, _Rootnode->_Right);

  00014	ff 76 08	 push	 DWORD PTR [esi+8]
  00017	8b cb		 mov	 ecx, ebx
  00019	57		 push	 edi
  0001a	e8 00 00 00 00	 call	 ??$_Erase_tree@V?$allocator@U?$_Tree_node@U?$pair@$$CBKPAVCResource@@@std@@PAX@std@@@std@@@?$_Tree_val@U?$_Tree_simple_types@U?$pair@$$CBKPAVCResource@@@std@@@std@@@std@@QAEXAAV?$allocator@U?$_Tree_node@U?$pair@$$CBKPAVCResource@@@std@@PAX@std@@@1@PAU?$_Tree_node@U?$pair@$$CBKPAVCResource@@@std@@PAX@1@@Z ; std::_Tree_val<std::_Tree_simple_types<std::pair<unsigned long const ,CResource *> > >::_Erase_tree<std::allocator<std::_Tree_node<std::pair<unsigned long const ,CResource *>,void *> > >
; File C:\Program Files (x86)\Microsoft Visual Studio\2019\Professional\VC\Tools\MSVC\14.29.30133\include\utility

; 616  :     _Ty _Old_val = static_cast<_Ty&&>(_Val);

  0001f	8b c6		 mov	 eax, esi

; 617  :     _Val         = static_cast<_Other&&>(_New_val);

  00021	8b 36		 mov	 esi, DWORD PTR [esi]
; File C:\Program Files (x86)\Microsoft Visual Studio\2019\Professional\VC\Tools\MSVC\14.29.30133\include\xmemory

; 264  :         ::operator delete(_Ptr, _Bytes);

  00023	6a 18		 push	 24			; 00000018H
  00025	50		 push	 eax
  00026	e8 00 00 00 00	 call	 ??3@YAXPAXI@Z		; operator delete
  0002b	83 c4 08	 add	 esp, 8
; File C:\Program Files (x86)\Microsoft Visual Studio\2019\Professional\VC\Tools\MSVC\14.29.30133\include\xtree

; 749  :         while (!_Rootnode->_Isnil) { // free subtrees, then node

  0002e	80 7e 0d 00	 cmp	 BYTE PTR [esi+13], 0
  00032	74 e0		 je	 SHORT $LL2@Erase_tree
  00034	5f		 pop	 edi
$LN3@Erase_tree:
  00035	5e		 pop	 esi

; 751  :             _Alnode::value_type::_Freenode(_Al, _STD exchange(_Rootnode, _Rootnode->_Left));
; 752  :         }
; 753  :     }

  00036	5b		 pop	 ebx
  00037	5d		 pop	 ebp
  00038	c2 08 00	 ret	 8
??$_Erase_tree@V?$allocator@U?$_Tree_node@U?$pair@$$CBKPAVCResource@@@std@@PAX@std@@@std@@@?$_Tree_val@U?$_Tree_simple_types@U?$pair@$$CBKPAVCResource@@@std@@@std@@@std@@QAEXAAV?$allocator@U?$_Tree_node@U?$pair@$$CBKPAVCResource@@@std@@PAX@std@@@1@PAU?$_Tree_node@U?$pair@$$CBKPAVCResource@@@std@@PAX@1@@Z ENDP ; std::_Tree_val<std::_Tree_simple_types<std::pair<unsigned long const ,CResource *> > >::_Erase_tree<std::allocator<std::_Tree_node<std::pair<unsigned long const ,CResource *>,void *> > >
_TEXT	ENDS
; Function compile flags: /Ogtp
; File C:\Program Files (x86)\Microsoft Visual Studio\2019\Professional\VC\Tools\MSVC\14.29.30133\include\xtree
; File C:\Program Files (x86)\Microsoft Visual Studio\2019\Professional\VC\Tools\MSVC\14.29.30133\include\utility
; File C:\Program Files (x86)\Microsoft Visual Studio\2019\Professional\VC\Tools\MSVC\14.29.30133\include\xmemory
; File C:\Program Files (x86)\Microsoft Visual Studio\2019\Professional\VC\Tools\MSVC\14.29.30133\include\xtree
;	COMDAT ??$_Erase_tree@V?$allocator@U?$_Tree_node@U?$pair@QAVCResource@@K@std@@PAX@std@@@std@@@?$_Tree_val@U?$_Tree_simple_types@U?$pair@QAVCResource@@K@std@@@std@@@std@@QAEXAAV?$allocator@U?$_Tree_node@U?$pair@QAVCResource@@K@std@@PAX@std@@@1@PAU?$_Tree_node@U?$pair@QAVCResource@@K@std@@PAX@1@@Z
_TEXT	SEGMENT
__Al$ = 8						; size = 4
__Rootnode$ = 12					; size = 4
??$_Erase_tree@V?$allocator@U?$_Tree_node@U?$pair@QAVCResource@@K@std@@PAX@std@@@std@@@?$_Tree_val@U?$_Tree_simple_types@U?$pair@QAVCResource@@K@std@@@std@@@std@@QAEXAAV?$allocator@U?$_Tree_node@U?$pair@QAVCResource@@K@std@@PAX@std@@@1@PAU?$_Tree_node@U?$pair@QAVCResource@@K@std@@PAX@1@@Z PROC ; std::_Tree_val<std::_Tree_simple_types<std::pair<CResource * const,unsigned long> > >::_Erase_tree<std::allocator<std::_Tree_node<std::pair<CResource * const,unsigned long>,void *> > >, COMDAT
; _this$ = ecx

; 748  :     void _Erase_tree(_Alnode& _Al, _Nodeptr _Rootnode) noexcept {

  00000	55		 push	 ebp
  00001	8b ec		 mov	 ebp, esp
  00003	53		 push	 ebx
  00004	56		 push	 esi

; 749  :         while (!_Rootnode->_Isnil) { // free subtrees, then node

  00005	8b 75 0c	 mov	 esi, DWORD PTR __Rootnode$[ebp]
  00008	8b d9		 mov	 ebx, ecx
  0000a	80 7e 0d 00	 cmp	 BYTE PTR [esi+13], 0
  0000e	75 25		 jne	 SHORT $LN3@Erase_tree
  00010	57		 push	 edi
  00011	8b 7d 08	 mov	 edi, DWORD PTR __Al$[ebp]
$LL2@Erase_tree:

; 750  :             _Erase_tree(_Al, _Rootnode->_Right);

  00014	ff 76 08	 push	 DWORD PTR [esi+8]
  00017	8b cb		 mov	 ecx, ebx
  00019	57		 push	 edi
  0001a	e8 00 00 00 00	 call	 ??$_Erase_tree@V?$allocator@U?$_Tree_node@U?$pair@QAVCResource@@K@std@@PAX@std@@@std@@@?$_Tree_val@U?$_Tree_simple_types@U?$pair@QAVCResource@@K@std@@@std@@@std@@QAEXAAV?$allocator@U?$_Tree_node@U?$pair@QAVCResource@@K@std@@PAX@std@@@1@PAU?$_Tree_node@U?$pair@QAVCResource@@K@std@@PAX@1@@Z ; std::_Tree_val<std::_Tree_simple_types<std::pair<CResource * const,unsigned long> > >::_Erase_tree<std::allocator<std::_Tree_node<std::pair<CResource * const,unsigned long>,void *> > >
; File C:\Program Files (x86)\Microsoft Visual Studio\2019\Professional\VC\Tools\MSVC\14.29.30133\include\utility

; 616  :     _Ty _Old_val = static_cast<_Ty&&>(_Val);

  0001f	8b c6		 mov	 eax, esi

; 617  :     _Val         = static_cast<_Other&&>(_New_val);

  00021	8b 36		 mov	 esi, DWORD PTR [esi]
; File C:\Program Files (x86)\Microsoft Visual Studio\2019\Professional\VC\Tools\MSVC\14.29.30133\include\xmemory

; 264  :         ::operator delete(_Ptr, _Bytes);

  00023	6a 18		 push	 24			; 00000018H
  00025	50		 push	 eax
  00026	e8 00 00 00 00	 call	 ??3@YAXPAXI@Z		; operator delete
  0002b	83 c4 08	 add	 esp, 8
; File C:\Program Files (x86)\Microsoft Visual Studio\2019\Professional\VC\Tools\MSVC\14.29.30133\include\xtree

; 749  :         while (!_Rootnode->_Isnil) { // free subtrees, then node

  0002e	80 7e 0d 00	 cmp	 BYTE PTR [esi+13], 0
  00032	74 e0		 je	 SHORT $LL2@Erase_tree
  00034	5f		 pop	 edi
$LN3@Erase_tree:
  00035	5e		 pop	 esi

; 751  :             _Alnode::value_type::_Freenode(_Al, _STD exchange(_Rootnode, _Rootnode->_Left));
; 752  :         }
; 753  :     }

  00036	5b		 pop	 ebx
  00037	5d		 pop	 ebp
  00038	c2 08 00	 ret	 8
??$_Erase_tree@V?$allocator@U?$_Tree_node@U?$pair@QAVCResource@@K@std@@PAX@std@@@std@@@?$_Tree_val@U?$_Tree_simple_types@U?$pair@QAVCResource@@K@std@@@std@@@std@@QAEXAAV?$allocator@U?$_Tree_node@U?$pair@QAVCResource@@K@std@@PAX@std@@@1@PAU?$_Tree_node@U?$pair@QAVCResource@@K@std@@PAX@1@@Z ENDP ; std::_Tree_val<std::_Tree_simple_types<std::pair<CResource * const,unsigned long> > >::_Erase_tree<std::allocator<std::_Tree_node<std::pair<CResource * const,unsigned long>,void *> > >
_TEXT	ENDS
; Function compile flags: /Ogtp
; File C:\Program Files (x86)\Microsoft Visual Studio\2019\Professional\VC\Tools\MSVC\14.29.30133\include\vector
; File C:\Program Files (x86)\Microsoft Visual Studio\2019\Professional\VC\Tools\MSVC\14.29.30133\include\xmemory
; File C:\Program Files (x86)\Microsoft Visual Studio\2019\Professional\VC\Tools\MSVC\14.29.30133\include\vector
; File C:\Program Files (x86)\Microsoft Visual Studio\2019\Professional\VC\Tools\MSVC\14.29.30133\include\xmemory
; File C:\Program Files (x86)\Microsoft Visual Studio\2019\Professional\VC\Tools\MSVC\14.29.30133\include\vector
; File C:\Program Files (x86)\Microsoft Visual Studio\2019\Professional\VC\Tools\MSVC\14.29.30133\include\xmemory
; File C:\Program Files (x86)\Microsoft Visual Studio\2019\Professional\VC\Tools\MSVC\14.29.30133\include\vector
; File C:\Program Files (x86)\Microsoft Visual Studio\2019\Professional\VC\Tools\MSVC\14.29.30133\include\xmemory
; File C:\Program Files (x86)\Microsoft Visual Studio\2019\Professional\VC\Tools\MSVC\14.29.30133\include\vector
; File C:\Program Files (x86)\Microsoft Visual Studio\2019\Professional\VC\Tools\MSVC\14.29.30133\include\xmemory
; File C:\Program Files (x86)\Microsoft Visual Studio\2019\Professional\VC\Tools\MSVC\14.29.30133\include\vector
; File C:\Program Files (x86)\Microsoft Visual Studio\2019\Professional\VC\Tools\MSVC\14.29.30133\include\xmemory
; File C:\Program Files (x86)\Microsoft Visual Studio\2019\Professional\VC\Tools\MSVC\14.29.30133\include\vector
; File C:\Program Files (x86)\Microsoft Visual Studio\2019\Professional\VC\Tools\MSVC\14.29.30133\include\xmemory
; File C:\Program Files (x86)\Microsoft Visual Studio\2019\Professional\VC\Tools\MSVC\14.29.30133\include\vector
; File C:\Program Files (x86)\Microsoft Visual Studio\2019\Professional\VC\Tools\MSVC\14.29.30133\include\xmemory
; File C:\Program Files (x86)\Microsoft Visual Studio\2019\Professional\VC\Tools\MSVC\14.29.30133\include\vector
; File C:\Program Files (x86)\Microsoft Visual Studio\2019\Professional\VC\Tools\MSVC\14.29.30133\include\xmemory
; File C:\Program Files (x86)\Microsoft Visual Studio\2019\Professional\VC\Tools\MSVC\14.29.30133\include\vector
; File C:\Program Files (x86)\Microsoft Visual Studio\2019\Professional\VC\Tools\MSVC\14.29.30133\include\xmemory
; File C:\Program Files (x86)\Microsoft Visual Studio\2019\Professional\VC\Tools\MSVC\14.29.30133\include\vector
; File C:\Program Files (x86)\Microsoft Visual Studio\2019\Professional\VC\Tools\MSVC\14.29.30133\include\xmemory
; File C:\Program Files (x86)\Microsoft Visual Studio\2019\Professional\VC\Tools\MSVC\14.29.30133\include\vector
;	COMDAT ??$_Emplace_reallocate@ABUSDumpData@@@?$vector@USDumpData@@V?$allocator@USDumpData@@@std@@@std@@QAEPAUSDumpData@@QAU2@ABU2@@Z
_TEXT	SEGMENT
__Oldsize$1$ = -12					; size = 4
tv615 = -8						; size = 4
__Whereoff$1$ = -8					; size = 4
_this$1$ = -4						; size = 4
__Whereptr$ = 8						; size = 4
_<_Val_0>$ = 12						; size = 4
??$_Emplace_reallocate@ABUSDumpData@@@?$vector@USDumpData@@V?$allocator@USDumpData@@@std@@@std@@QAEPAUSDumpData@@QAU2@ABU2@@Z PROC ; std::vector<SDumpData,std::allocator<SDumpData> >::_Emplace_reallocate<SDumpData const &>, COMDAT
; _this$ = ecx

; 765  :     _CONSTEXPR20_CONTAINER pointer _Emplace_reallocate(const pointer _Whereptr, _Valty&&... _Val) {

  00000	55		 push	 ebp
  00001	8b ec		 mov	 ebp, esp
  00003	83 ec 0c	 sub	 esp, 12			; 0000000cH

; 766  :         // reallocate and insert by perfectly forwarding _Val at _Whereptr
; 767  :         _Alty& _Al        = _Getal();
; 768  :         auto& _My_data    = _Mypair._Myval2;
; 769  :         pointer& _Myfirst = _My_data._Myfirst;
; 770  :         pointer& _Mylast  = _My_data._Mylast;
; 771  : 
; 772  :         _STL_INTERNAL_CHECK(_Mylast == _My_data._Myend); // check that we have no unused capacity
; 773  : 
; 774  :         const auto _Whereoff = static_cast<size_type>(_Whereptr - _Myfirst);

  00006	8b 55 08	 mov	 edx, DWORD PTR __Whereptr$[ebp]
  00009	b8 ab aa aa 2a	 mov	 eax, 715827883		; 2aaaaaabH
  0000e	53		 push	 ebx
  0000f	56		 push	 esi
  00010	8b f1		 mov	 esi, ecx
  00012	57		 push	 edi
  00013	89 75 fc	 mov	 DWORD PTR _this$1$[ebp], esi
  00016	8b 3e		 mov	 edi, DWORD PTR [esi]
  00018	2b d7		 sub	 edx, edi

; 775  :         const auto _Oldsize  = static_cast<size_type>(_Mylast - _Myfirst);

  0001a	8b 4e 04	 mov	 ecx, DWORD PTR [esi+4]
  0001d	f7 ea		 imul	 edx
  0001f	2b cf		 sub	 ecx, edi
  00021	d1 fa		 sar	 edx, 1
  00023	8b c2		 mov	 eax, edx
  00025	c1 e8 1f	 shr	 eax, 31			; 0000001fH
  00028	03 c2		 add	 eax, edx
  0002a	89 45 f8	 mov	 DWORD PTR __Whereoff$1$[ebp], eax
  0002d	b8 ab aa aa 2a	 mov	 eax, 715827883		; 2aaaaaabH
  00032	f7 e9		 imul	 ecx
  00034	d1 fa		 sar	 edx, 1
  00036	8b c2		 mov	 eax, edx
  00038	c1 e8 1f	 shr	 eax, 31			; 0000001fH
  0003b	03 c2		 add	 eax, edx
  0003d	89 45 f4	 mov	 DWORD PTR __Oldsize$1$[ebp], eax

; 776  : 
; 777  :         if (_Oldsize == max_size()) {

  00040	3d 55 55 55 15	 cmp	 eax, 357913941		; 15555555H
  00045	0f 84 3f 01 00
	00		 je	 $LN104@Emplace_re

; 1559 :         return static_cast<size_type>(_My_data._Myend - _My_data._Myfirst);

  0004b	8b 4e 08	 mov	 ecx, DWORD PTR [esi+8]

; 779  :         }
; 780  : 
; 781  :         const size_type _Newsize     = _Oldsize + 1;

  0004e	8d 58 01	 lea	 ebx, DWORD PTR [eax+1]

; 1559 :         return static_cast<size_type>(_My_data._Myend - _My_data._Myfirst);

  00051	2b cf		 sub	 ecx, edi
  00053	b8 ab aa aa 2a	 mov	 eax, 715827883		; 2aaaaaabH
  00058	f7 e9		 imul	 ecx

; 1688 :         if (_Oldcapacity > _Max - _Oldcapacity / 2) {

  0005a	b8 55 55 55 15	 mov	 eax, 357913941		; 15555555H

; 1559 :         return static_cast<size_type>(_My_data._Myend - _My_data._Myfirst);

  0005f	d1 fa		 sar	 edx, 1
  00061	8b ca		 mov	 ecx, edx
  00063	c1 e9 1f	 shr	 ecx, 31			; 0000001fH
  00066	03 ca		 add	 ecx, edx

; 1688 :         if (_Oldcapacity > _Max - _Oldcapacity / 2) {

  00068	8b d1		 mov	 edx, ecx
  0006a	d1 ea		 shr	 edx, 1
  0006c	2b c2		 sub	 eax, edx
  0006e	3b c8		 cmp	 ecx, eax
  00070	76 12		 jbe	 SHORT $LN12@Emplace_re

; 1689 :             return _Max; // geometric growth would overflow

  00072	bf fc ff ff ff	 mov	 edi, -4			; fffffffcH
; File C:\Program Files (x86)\Microsoft Visual Studio\2019\Professional\VC\Tools\MSVC\14.29.30133\include\xmemory

; 238  :             return _Allocate_manually_vector_aligned<_Traits>(_Bytes);

  00077	57		 push	 edi
  00078	e8 00 00 00 00	 call	 ??$_Allocate_manually_vector_aligned@U_Default_allocate_traits@std@@@std@@YAPAXI@Z ; std::_Allocate_manually_vector_aligned<std::_Default_allocate_traits>
  0007d	83 c4 04	 add	 esp, 4
  00080	8b d8		 mov	 ebx, eax
  00082	eb 44		 jmp	 SHORT $LN23@Emplace_re
$LN12@Emplace_re:
; File C:\Program Files (x86)\Microsoft Visual Studio\2019\Professional\VC\Tools\MSVC\14.29.30133\include\vector

; 1692 :         const size_type _Geometric = _Oldcapacity + _Oldcapacity / 2;

  00084	8d 04 0a	 lea	 eax, DWORD PTR [edx+ecx]
; File C:\Program Files (x86)\Microsoft Visual Studio\2019\Professional\VC\Tools\MSVC\14.29.30133\include\xmemory

; 64   :         if (_Count > _Max_possible) {

  00087	8b cb		 mov	 ecx, ebx
  00089	3b c3		 cmp	 eax, ebx
  0008b	0f 43 c8	 cmovae	 ecx, eax
  0008e	81 f9 55 55 55
	15		 cmp	 ecx, 357913941		; 15555555H
  00094	0f 87 f5 00 00
	00		 ja	 $LN105@Emplace_re

; 66   :         }
; 67   :     }
; 68   : 
; 69   :     return _Count * _Ty_size;

  0009a	8d 3c 49	 lea	 edi, DWORD PTR [ecx+ecx*2]
  0009d	c1 e7 02	 shl	 edi, 2

; 237  :         if (_Bytes >= _Big_allocation_threshold) { // boost the alignment of big allocations to help autovectorization

  000a0	81 ff 00 10 00
	00		 cmp	 edi, 4096		; 00001000H
  000a6	72 0d		 jb	 SHORT $LN24@Emplace_re

; 238  :             return _Allocate_manually_vector_aligned<_Traits>(_Bytes);

  000a8	57		 push	 edi
  000a9	e8 00 00 00 00	 call	 ??$_Allocate_manually_vector_aligned@U_Default_allocate_traits@std@@@std@@YAPAXI@Z ; std::_Allocate_manually_vector_aligned<std::_Default_allocate_traits>
  000ae	83 c4 04	 add	 esp, 4
  000b1	8b d8		 mov	 ebx, eax
  000b3	eb 13		 jmp	 SHORT $LN23@Emplace_re
$LN24@Emplace_re:

; 239  :         }
; 240  :     }
; 241  : #endif // defined(_M_IX86) || defined(_M_X64)
; 242  : 
; 243  :     if (_Bytes != 0) {

  000b5	85 ff		 test	 edi, edi
  000b7	74 0d		 je	 SHORT $LN25@Emplace_re

; 85   :         return ::operator new(_Bytes);

  000b9	57		 push	 edi
  000ba	e8 00 00 00 00	 call	 ??2@YAPAXI@Z		; operator new
  000bf	83 c4 04	 add	 esp, 4

; 244  :         return _Traits::_Allocate(_Bytes);

  000c2	8b d8		 mov	 ebx, eax
  000c4	eb 02		 jmp	 SHORT $LN23@Emplace_re
$LN25@Emplace_re:

; 245  :     }
; 246  : 
; 247  :     return nullptr;

  000c6	33 db		 xor	 ebx, ebx
$LN23@Emplace_re:
; File C:\Program Files (x86)\Microsoft Visual Studio\2019\Professional\VC\Tools\MSVC\14.29.30133\include\vector

; 789  :         _Alty_traits::construct(_Al, _Unfancy(_Newvec + _Whereoff), _STD forward<_Valty>(_Val)...);

  000c8	8b 45 f8	 mov	 eax, DWORD PTR __Whereoff$1$[ebp]
  000cb	8d 04 40	 lea	 eax, DWORD PTR [eax+eax*2]
  000ce	8d 0c 83	 lea	 ecx, DWORD PTR [ebx+eax*4]
; File C:\Program Files (x86)\Microsoft Visual Studio\2019\Professional\VC\Tools\MSVC\14.29.30133\include\xmemory

; 714  :             ::new (_Voidify_iter(_Ptr)) _Objty(_STD forward<_Types>(_Args)...);

  000d1	8b 45 0c	 mov	 eax, DWORD PTR _<_Val_0>$[ebp]
; File C:\Program Files (x86)\Microsoft Visual Studio\2019\Professional\VC\Tools\MSVC\14.29.30133\include\vector

; 789  :         _Alty_traits::construct(_Al, _Unfancy(_Newvec + _Whereoff), _STD forward<_Valty>(_Val)...);

  000d4	89 4d f8	 mov	 DWORD PTR tv615[ebp], ecx
; File C:\Program Files (x86)\Microsoft Visual Studio\2019\Professional\VC\Tools\MSVC\14.29.30133\include\xmemory

; 714  :             ::new (_Voidify_iter(_Ptr)) _Objty(_STD forward<_Types>(_Args)...);

  000d7	f3 0f 7e 00	 movq	 xmm0, QWORD PTR [eax]
  000db	66 0f d6 01	 movq	 QWORD PTR [ecx], xmm0
  000df	8b 40 08	 mov	 eax, DWORD PTR [eax+8]
  000e2	89 41 08	 mov	 DWORD PTR [ecx+8], eax
; File C:\Program Files (x86)\Microsoft Visual Studio\2019\Professional\VC\Tools\MSVC\14.29.30133\include\vector

; 792  :         if (_Whereptr == _Mylast) { // at back, provide strong guarantee

  000e5	8b 56 04	 mov	 edx, DWORD PTR [esi+4]
  000e8	8b 45 08	 mov	 eax, DWORD PTR __Whereptr$[ebp]
  000eb	8b 0e		 mov	 ecx, DWORD PTR [esi]
  000ed	3b c2		 cmp	 eax, edx
  000ef	75 04		 jne	 SHORT $LN4@Emplace_re
; File C:\Program Files (x86)\Microsoft Visual Studio\2019\Professional\VC\Tools\MSVC\14.29.30133\include\xmemory

; 1725 :             _Copy_memmove(_UFirst, _ULast, _Unfancy(_Dest));

  000f1	8b c3		 mov	 eax, ebx
; File C:\Program Files (x86)\Microsoft Visual Studio\2019\Professional\VC\Tools\MSVC\14.29.30133\include\vector

; 794  :         } else { // provide basic guarantee

  000f3	eb 17		 jmp	 SHORT $LN66@Emplace_re
$LN4@Emplace_re:
; File C:\Program Files (x86)\Microsoft Visual Studio\2019\Professional\VC\Tools\MSVC\14.29.30133\include\xmemory

; 1725 :             _Copy_memmove(_UFirst, _ULast, _Unfancy(_Dest));

  000f5	53		 push	 ebx
  000f6	50		 push	 eax
  000f7	51		 push	 ecx
  000f8	e8 00 00 00 00	 call	 ??$_Copy_memmove@PAUSDumpData@@PAU1@@std@@YAPAUSDumpData@@PAU1@00@Z ; std::_Copy_memmove<SDumpData *,SDumpData *>
; File C:\Program Files (x86)\Microsoft Visual Studio\2019\Professional\VC\Tools\MSVC\14.29.30133\include\vector

; 797  :             _Umove(_Whereptr, _Mylast, _Newvec + _Whereoff + 1);

  000fd	8b 45 f8	 mov	 eax, DWORD PTR tv615[ebp]
; File C:\Program Files (x86)\Microsoft Visual Studio\2019\Professional\VC\Tools\MSVC\14.29.30133\include\xmemory

; 1725 :             _Copy_memmove(_UFirst, _ULast, _Unfancy(_Dest));

  00100	83 c4 0c	 add	 esp, 12			; 0000000cH
  00103	8b 4d 08	 mov	 ecx, DWORD PTR __Whereptr$[ebp]
; File C:\Program Files (x86)\Microsoft Visual Studio\2019\Professional\VC\Tools\MSVC\14.29.30133\include\vector

; 797  :             _Umove(_Whereptr, _Mylast, _Newvec + _Whereoff + 1);

  00106	83 c0 0c	 add	 eax, 12			; 0000000cH
; File C:\Program Files (x86)\Microsoft Visual Studio\2019\Professional\VC\Tools\MSVC\14.29.30133\include\xmemory

; 1725 :             _Copy_memmove(_UFirst, _ULast, _Unfancy(_Dest));

  00109	8b 56 04	 mov	 edx, DWORD PTR [esi+4]
$LN66@Emplace_re:
; File C:\Program Files (x86)\Microsoft Visual Studio\2019\Professional\VC\Tools\MSVC\14.29.30133\include\vector

; 797  :             _Umove(_Whereptr, _Mylast, _Newvec + _Whereoff + 1);

  0010c	50		 push	 eax
  0010d	52		 push	 edx
  0010e	51		 push	 ecx
  0010f	e8 00 00 00 00	 call	 ??$_Copy_memmove@PAUSDumpData@@PAU1@@std@@YAPAUSDumpData@@PAU1@00@Z ; std::_Copy_memmove<SDumpData *,SDumpData *>

; 1745 :         if (_Myfirst) { // destroy and deallocate old array

  00114	8b 36		 mov	 esi, DWORD PTR [esi]

; 797  :             _Umove(_Whereptr, _Mylast, _Newvec + _Whereoff + 1);

  00116	83 c4 0c	 add	 esp, 12			; 0000000cH

; 1745 :         if (_Myfirst) { // destroy and deallocate old array

  00119	85 f6		 test	 esi, esi
  0011b	74 42		 je	 SHORT $LN86@Emplace_re

; 1746 :             _Destroy(_Myfirst, _Mylast);
; 1747 :             _Getal().deallocate(_Myfirst, static_cast<size_type>(_Myend - _Myfirst));

  0011d	8b 4d fc	 mov	 ecx, DWORD PTR _this$1$[ebp]
  00120	b8 ab aa aa 2a	 mov	 eax, 715827883		; 2aaaaaabH
  00125	8b 49 08	 mov	 ecx, DWORD PTR [ecx+8]
  00128	2b ce		 sub	 ecx, esi
  0012a	f7 e9		 imul	 ecx
  0012c	d1 fa		 sar	 edx, 1
  0012e	8b c2		 mov	 eax, edx
  00130	c1 e8 1f	 shr	 eax, 31			; 0000001fH
  00133	03 c2		 add	 eax, edx
; File C:\Program Files (x86)\Microsoft Visual Studio\2019\Professional\VC\Tools\MSVC\14.29.30133\include\xmemory

; 835  :         _Deallocate<_New_alignof<_Ty>>(_Ptr, sizeof(_Ty) * _Count);

  00135	8d 0c 40	 lea	 ecx, DWORD PTR [eax+eax*2]
  00138	c1 e1 02	 shl	 ecx, 2

; 260  :         if (_Bytes >= _Big_allocation_threshold) { // boost the alignment of big allocations to help autovectorization

  0013b	81 f9 00 10 00
	00		 cmp	 ecx, 4096		; 00001000H
  00141	72 12		 jb	 SHORT $LN96@Emplace_re

; 158  :     const uintptr_t _Ptr_container   = _Ptr_user[-1];

  00143	8b 56 fc	 mov	 edx, DWORD PTR [esi-4]
  00146	83 c1 23	 add	 ecx, 35			; 00000023H

; 159  : 
; 160  :     // If the following asserts, it likely means that we are performing
; 161  :     // an aligned delete on memory coming from an unaligned allocation.
; 162  :     _STL_ASSERT(_Ptr_user[-2] == _Big_allocation_sentinel, "invalid argument");
; 163  : 
; 164  :     // Extra paranoia on aligned allocation/deallocation; ensure _Ptr_container is
; 165  :     // in range [_Min_back_shift, _Non_user_size]
; 166  : #ifdef _DEBUG
; 167  :     constexpr uintptr_t _Min_back_shift = 2 * sizeof(void*);
; 168  : #else // ^^^ _DEBUG ^^^ // vvv !_DEBUG vvv
; 169  :     constexpr uintptr_t _Min_back_shift = sizeof(void*);
; 170  : #endif // _DEBUG
; 171  :     const uintptr_t _Back_shift = reinterpret_cast<uintptr_t>(_Ptr) - _Ptr_container;

  00149	2b f2		 sub	 esi, edx

; 172  :     _STL_VERIFY(_Back_shift >= _Min_back_shift && _Back_shift <= _Non_user_size, "invalid argument");

  0014b	8d 46 fc	 lea	 eax, DWORD PTR [esi-4]
  0014e	83 f8 1f	 cmp	 eax, 31			; 0000001fH
  00151	77 32		 ja	 SHORT $LN93@Emplace_re

; 173  :     _Ptr = reinterpret_cast<void*>(_Ptr_container);

  00153	8b f2		 mov	 esi, edx
$LN96@Emplace_re:

; 264  :         ::operator delete(_Ptr, _Bytes);

  00155	51		 push	 ecx
  00156	56		 push	 esi
  00157	e8 00 00 00 00	 call	 ??3@YAXPAXI@Z		; operator delete
  0015c	83 c4 08	 add	 esp, 8
$LN86@Emplace_re:
; File C:\Program Files (x86)\Microsoft Visual Studio\2019\Professional\VC\Tools\MSVC\14.29.30133\include\vector

; 1751 :         _Mylast  = _Newvec + _Newsize;

  0015f	8b 4d f4	 mov	 ecx, DWORD PTR __Oldsize$1$[ebp]
  00162	8b 45 fc	 mov	 eax, DWORD PTR _this$1$[ebp]
  00165	8d 0c 49	 lea	 ecx, DWORD PTR [ecx+ecx*2]
  00168	8d 49 03	 lea	 ecx, DWORD PTR [ecx+3]
  0016b	89 18		 mov	 DWORD PTR [eax], ebx
  0016d	8d 0c 8b	 lea	 ecx, DWORD PTR [ebx+ecx*4]
  00170	89 48 04	 mov	 DWORD PTR [eax+4], ecx

; 1752 :         _Myend   = _Newvec + _Newcapacity;

  00173	8d 0c 1f	 lea	 ecx, DWORD PTR [edi+ebx]

; 798  :         }
; 799  :         _CATCH_ALL
; 800  :         _Destroy(_Constructed_first, _Constructed_last);
; 801  :         _Al.deallocate(_Newvec, _Newcapacity);
; 802  :         _RERAISE;
; 803  :         _CATCH_END
; 804  : 
; 805  :         _Change_array(_Newvec, _Newsize, _Newcapacity);
; 806  :         return _Newvec + _Whereoff;

  00176	5f		 pop	 edi
  00177	5e		 pop	 esi

; 1752 :         _Myend   = _Newvec + _Newcapacity;

  00178	89 48 08	 mov	 DWORD PTR [eax+8], ecx

; 798  :         }
; 799  :         _CATCH_ALL
; 800  :         _Destroy(_Constructed_first, _Constructed_last);
; 801  :         _Al.deallocate(_Newvec, _Newcapacity);
; 802  :         _RERAISE;
; 803  :         _CATCH_END
; 804  : 
; 805  :         _Change_array(_Newvec, _Newsize, _Newcapacity);
; 806  :         return _Newvec + _Whereoff;

  0017b	8b 45 f8	 mov	 eax, DWORD PTR tv615[ebp]
  0017e	5b		 pop	 ebx

; 807  :     }

  0017f	8b e5		 mov	 esp, ebp
  00181	5d		 pop	 ebp
  00182	c2 08 00	 ret	 8
$LN93@Emplace_re:
; File C:\Program Files (x86)\Microsoft Visual Studio\2019\Professional\VC\Tools\MSVC\14.29.30133\include\xmemory

; 172  :     _STL_VERIFY(_Back_shift >= _Min_back_shift && _Back_shift <= _Non_user_size, "invalid argument");

  00185	e8 00 00 00 00	 call	 __invalid_parameter_noinfo_noreturn
$LN104@Emplace_re:
; File C:\Program Files (x86)\Microsoft Visual Studio\2019\Professional\VC\Tools\MSVC\14.29.30133\include\vector

; 778  :             _Xlength();

  0018a	e8 00 00 00 00	 call	 ?_Xlength@?$vector@USDumpData@@V?$allocator@USDumpData@@@std@@@std@@CAXXZ ; std::vector<SDumpData,std::allocator<SDumpData> >::_Xlength
$LN105@Emplace_re:
; File C:\Program Files (x86)\Microsoft Visual Studio\2019\Professional\VC\Tools\MSVC\14.29.30133\include\xmemory

; 65   :             _Throw_bad_array_new_length(); // multiply overflow

  0018f	e8 00 00 00 00	 call	 ?_Throw_bad_array_new_length@std@@YAXXZ ; std::_Throw_bad_array_new_length
$LN102@Emplace_re:
  00194	cc		 int	 3
??$_Emplace_reallocate@ABUSDumpData@@@?$vector@USDumpData@@V?$allocator@USDumpData@@@std@@@std@@QAEPAUSDumpData@@QAU2@ABU2@@Z ENDP ; std::vector<SDumpData,std::allocator<SDumpData> >::_Emplace_reallocate<SDumpData const &>
_TEXT	ENDS
; Function compile flags: /Ogtp
; File C:\Program Files (x86)\Microsoft Visual Studio\2019\Professional\VC\Tools\MSVC\14.29.30133\include\vector
;	COMDAT ?_Xlength@?$vector@USDumpData@@V?$allocator@USDumpData@@@std@@@std@@CAXXZ
_TEXT	SEGMENT
?_Xlength@?$vector@USDumpData@@V?$allocator@USDumpData@@@std@@@std@@CAXXZ PROC ; std::vector<SDumpData,std::allocator<SDumpData> >::_Xlength, COMDAT

; 1774 :         _Xlength_error("vector too long");

  00000	68 00 00 00 00	 push	 OFFSET ??_C@_0BA@FOIKENOD@vector?5too?5long@
  00005	e8 00 00 00 00	 call	 ?_Xlength_error@std@@YAXPBD@Z ; std::_Xlength_error
$LN3@Xlength:
  0000a	cc		 int	 3
?_Xlength@?$vector@USDumpData@@V?$allocator@USDumpData@@@std@@@std@@CAXXZ ENDP ; std::vector<SDumpData,std::allocator<SDumpData> >::_Xlength
_TEXT	ENDS
; Function compile flags: /Ogtp
; File C:\Program Files (x86)\Microsoft Visual Studio\2019\Professional\VC\Tools\MSVC\14.29.30133\include\vector
; File C:\Program Files (x86)\Microsoft Visual Studio\2019\Professional\VC\Tools\MSVC\14.29.30133\include\xmemory
; File C:\Program Files (x86)\Microsoft Visual Studio\2019\Professional\VC\Tools\MSVC\14.29.30133\include\vector
; File C:\Program Files (x86)\Microsoft Visual Studio\2019\Professional\VC\Tools\MSVC\14.29.30133\include\xmemory
; File C:\Program Files (x86)\Microsoft Visual Studio\2019\Professional\VC\Tools\MSVC\14.29.30133\include\vector
; File C:\Program Files (x86)\Microsoft Visual Studio\2019\Professional\VC\Tools\MSVC\14.29.30133\include\xmemory
; File C:\Program Files (x86)\Microsoft Visual Studio\2019\Professional\VC\Tools\MSVC\14.29.30133\include\vector
;	COMDAT ??1?$vector@USDumpData@@V?$allocator@USDumpData@@@std@@@std@@QAE@XZ
_TEXT	SEGMENT
??1?$vector@USDumpData@@V?$allocator@USDumpData@@@std@@@std@@QAE@XZ PROC ; std::vector<SDumpData,std::allocator<SDumpData> >::~vector<SDumpData,std::allocator<SDumpData> >, COMDAT
; _this$ = ecx

; 711  :     _CONSTEXPR20_CONTAINER ~vector() noexcept {

  00000	56		 push	 esi
  00001	57		 push	 edi
  00002	8b f9		 mov	 edi, ecx

; 1763 :         if (_Myfirst) { // destroy and deallocate old array

  00004	8b 37		 mov	 esi, DWORD PTR [edi]
  00006	85 f6		 test	 esi, esi
  00008	74 53		 je	 SHORT $LN4@vector

; 1764 :             _Destroy(_Myfirst, _Mylast);
; 1765 :             _Getal().deallocate(_Myfirst, static_cast<size_type>(_Myend - _Myfirst));

  0000a	8b 4f 08	 mov	 ecx, DWORD PTR [edi+8]
  0000d	b8 ab aa aa 2a	 mov	 eax, 715827883		; 2aaaaaabH
  00012	2b ce		 sub	 ecx, esi
  00014	f7 e9		 imul	 ecx
  00016	d1 fa		 sar	 edx, 1
  00018	8b c2		 mov	 eax, edx
  0001a	c1 e8 1f	 shr	 eax, 31			; 0000001fH
  0001d	03 c2		 add	 eax, edx
; File C:\Program Files (x86)\Microsoft Visual Studio\2019\Professional\VC\Tools\MSVC\14.29.30133\include\xmemory

; 835  :         _Deallocate<_New_alignof<_Ty>>(_Ptr, sizeof(_Ty) * _Count);

  0001f	8d 0c 40	 lea	 ecx, DWORD PTR [eax+eax*2]
  00022	c1 e1 02	 shl	 ecx, 2

; 260  :         if (_Bytes >= _Big_allocation_threshold) { // boost the alignment of big allocations to help autovectorization

  00025	81 f9 00 10 00
	00		 cmp	 ecx, 4096		; 00001000H
  0002b	72 12		 jb	 SHORT $LN20@vector

; 158  :     const uintptr_t _Ptr_container   = _Ptr_user[-1];

  0002d	8b 56 fc	 mov	 edx, DWORD PTR [esi-4]
  00030	83 c1 23	 add	 ecx, 35			; 00000023H

; 159  : 
; 160  :     // If the following asserts, it likely means that we are performing
; 161  :     // an aligned delete on memory coming from an unaligned allocation.
; 162  :     _STL_ASSERT(_Ptr_user[-2] == _Big_allocation_sentinel, "invalid argument");
; 163  : 
; 164  :     // Extra paranoia on aligned allocation/deallocation; ensure _Ptr_container is
; 165  :     // in range [_Min_back_shift, _Non_user_size]
; 166  : #ifdef _DEBUG
; 167  :     constexpr uintptr_t _Min_back_shift = 2 * sizeof(void*);
; 168  : #else // ^^^ _DEBUG ^^^ // vvv !_DEBUG vvv
; 169  :     constexpr uintptr_t _Min_back_shift = sizeof(void*);
; 170  : #endif // _DEBUG
; 171  :     const uintptr_t _Back_shift = reinterpret_cast<uintptr_t>(_Ptr) - _Ptr_container;

  00033	2b f2		 sub	 esi, edx

; 172  :     _STL_VERIFY(_Back_shift >= _Min_back_shift && _Back_shift <= _Non_user_size, "invalid argument");

  00035	8d 46 fc	 lea	 eax, DWORD PTR [esi-4]
  00038	83 f8 1f	 cmp	 eax, 31			; 0000001fH
  0003b	77 23		 ja	 SHORT $LN17@vector

; 173  :     _Ptr = reinterpret_cast<void*>(_Ptr_container);

  0003d	8b f2		 mov	 esi, edx
$LN20@vector:

; 264  :         ::operator delete(_Ptr, _Bytes);

  0003f	51		 push	 ecx
  00040	56		 push	 esi
  00041	e8 00 00 00 00	 call	 ??3@YAXPAXI@Z		; operator delete
; File C:\Program Files (x86)\Microsoft Visual Studio\2019\Professional\VC\Tools\MSVC\14.29.30133\include\vector

; 1767 :             _Myfirst = nullptr;

  00046	c7 07 00 00 00
	00		 mov	 DWORD PTR [edi], 0
; File C:\Program Files (x86)\Microsoft Visual Studio\2019\Professional\VC\Tools\MSVC\14.29.30133\include\xmemory

; 264  :         ::operator delete(_Ptr, _Bytes);

  0004c	83 c4 08	 add	 esp, 8
; File C:\Program Files (x86)\Microsoft Visual Studio\2019\Professional\VC\Tools\MSVC\14.29.30133\include\vector

; 1768 :             _Mylast  = nullptr;

  0004f	c7 47 04 00 00
	00 00		 mov	 DWORD PTR [edi+4], 0

; 1769 :             _Myend   = nullptr;

  00056	c7 47 08 00 00
	00 00		 mov	 DWORD PTR [edi+8], 0
$LN4@vector:
  0005d	5f		 pop	 edi

; 717  :     }

  0005e	5e		 pop	 esi
  0005f	c3		 ret	 0
$LN17@vector:
; File C:\Program Files (x86)\Microsoft Visual Studio\2019\Professional\VC\Tools\MSVC\14.29.30133\include\xmemory

; 172  :     _STL_VERIFY(_Back_shift >= _Min_back_shift && _Back_shift <= _Non_user_size, "invalid argument");

  00060	e8 00 00 00 00	 call	 __invalid_parameter_noinfo_noreturn
$LN25@vector:
  00065	cc		 int	 3
??1?$vector@USDumpData@@V?$allocator@USDumpData@@@std@@@std@@QAE@XZ ENDP ; std::vector<SDumpData,std::allocator<SDumpData> >::~vector<SDumpData,std::allocator<SDumpData> >
_TEXT	ENDS
; Function compile flags: /Ogtp
; File C:\Users\murat\Desktop\Siveps2-1-99-Project\source\client\Client\EterLib\ResourceManager.cpp
;	COMDAT ?DumpCostCompare@@YA_NABUSDumpData@@0@Z
_TEXT	SEGMENT
_lhs$ = 8						; size = 4
_rhs$ = 12						; size = 4
?DumpCostCompare@@YA_NABUSDumpData@@0@Z PROC		; DumpCostCompare, COMDAT

; 381  : {

  00000	55		 push	 ebp
  00001	8b ec		 mov	 ebp, esp

; 382  : 	return (lhs.cost > rhs.cost) ? true : false;

  00003	8b 45 08	 mov	 eax, DWORD PTR _lhs$[ebp]
  00006	8b 48 08	 mov	 ecx, DWORD PTR [eax+8]
  00009	8b 45 0c	 mov	 eax, DWORD PTR _rhs$[ebp]
  0000c	3b 48 08	 cmp	 ecx, DWORD PTR [eax+8]
  0000f	0f 97 c0	 seta	 al

; 383  : }

  00012	5d		 pop	 ebp
  00013	c3		 ret	 0
?DumpCostCompare@@YA_NABUSDumpData@@0@Z ENDP		; DumpCostCompare
_TEXT	ENDS
; Function compile flags: /Ogtp
; File C:\Users\murat\Desktop\Siveps2-1-99-Project\source\client\Client\EterLib\ResourceManager.cpp
;	COMDAT ?DumpKBCompare@@YA_NABUSDumpData@@0@Z
_TEXT	SEGMENT
_lhs$ = 8						; size = 4
_rhs$ = 12						; size = 4
?DumpKBCompare@@YA_NABUSDumpData@@0@Z PROC		; DumpKBCompare, COMDAT

; 376  : {

  00000	55		 push	 ebp
  00001	8b ec		 mov	 ebp, esp

; 377  : 	return (lhs.KB > rhs.KB) ? true : false;

  00003	8b 45 08	 mov	 eax, DWORD PTR _lhs$[ebp]
  00006	f3 0f 10 40 04	 movss	 xmm0, DWORD PTR [eax+4]
  0000b	8b 45 0c	 mov	 eax, DWORD PTR _rhs$[ebp]
  0000e	0f 2f 40 04	 comiss	 xmm0, DWORD PTR [eax+4]
  00012	0f 97 c0	 seta	 al

; 378  : }

  00015	5d		 pop	 ebp
  00016	c3		 ret	 0
?DumpKBCompare@@YA_NABUSDumpData@@0@Z ENDP		; DumpKBCompare
_TEXT	ENDS
; Function compile flags: /Ogtp
; File C:\Users\murat\Desktop\Siveps2-1-99-Project\source\client\Client\EterLib\ResourceManager.cpp
;	COMDAT ?__ConvertPathName@@YAHPBDPADH@Z
_TEXT	SEGMENT
_c_szPathName$ = 8					; size = 4
tv175 = 12						; size = 4
_pszRetPathName$ = 12					; size = 4
_retLen$ = 16						; size = 4
?__ConvertPathName@@YAHPBDPADH@Z PROC			; __ConvertPathName, COMDAT

; 208  : {

  00000	55		 push	 ebp
  00001	8b ec		 mov	 ebp, esp
  00003	56		 push	 esi
  00004	57		 push	 edi

; 209  : 	const char * pc;
; 210  : 	int len = 0;
; 211  : 
; 212  : 	for (pc = c_szPathName; *pc && len < retLen; ++pc, ++len)

  00005	8b 7d 08	 mov	 edi, DWORD PTR _c_szPathName$[ebp]
  00008	33 f6		 xor	 esi, esi
  0000a	80 3f 00	 cmp	 BYTE PTR [edi], 0
  0000d	74 3f		 je	 SHORT $LN12@ConvertPat
  0000f	8b 45 10	 mov	 eax, DWORD PTR _retLen$[ebp]
  00012	53		 push	 ebx
  00013	8b 5d 0c	 mov	 ebx, DWORD PTR _pszRetPathName$[ebp]
$LL4@ConvertPat:
  00016	3b f0		 cmp	 esi, eax
  00018	7d 2a		 jge	 SHORT $LN13@ConvertPat

; 213  : 	{
; 214  : 		if (*pc == '/')

  0001a	8a 07		 mov	 al, BYTE PTR [edi]
  0001c	8d 4b 01	 lea	 ecx, DWORD PTR [ebx+1]
  0001f	89 4d 0c	 mov	 DWORD PTR tv175[ebp], ecx
  00022	3c 2f		 cmp	 al, 47			; 0000002fH
  00024	75 04		 jne	 SHORT $LN5@ConvertPat

; 215  : 			*(pszRetPathName++) = '\\';

  00026	b0 5c		 mov	 al, 92			; 0000005cH
  00028	eb 0c		 jmp	 SHORT $LN2@ConvertPat
$LN5@ConvertPat:

; 216  : 		else
; 217  : 			*(pszRetPathName++) = (char) korean_tolower(*pc);

  0002a	50		 push	 eax
  0002b	e8 00 00 00 00	 call	 ?korean_tolower@@YADD@Z	; korean_tolower
  00030	8b 4d 0c	 mov	 ecx, DWORD PTR tv175[ebp]
  00033	83 c4 04	 add	 esp, 4
$LN2@ConvertPat:

; 209  : 	const char * pc;
; 210  : 	int len = 0;
; 211  : 
; 212  : 	for (pc = c_szPathName; *pc && len < retLen; ++pc, ++len)

  00036	47		 inc	 edi
  00037	88 03		 mov	 BYTE PTR [ebx], al
  00039	8b 45 10	 mov	 eax, DWORD PTR _retLen$[ebp]
  0003c	46		 inc	 esi
  0003d	8b d9		 mov	 ebx, ecx
  0003f	80 3f 00	 cmp	 BYTE PTR [edi], 0
  00042	75 d2		 jne	 SHORT $LL4@ConvertPat
$LN13@ConvertPat:

; 218  : 	}
; 219  : 
; 220  : 	*pszRetPathName = '\0';

  00044	c6 03 00	 mov	 BYTE PTR [ebx], 0

; 221  : 	return len;

  00047	8b c6		 mov	 eax, esi
  00049	5b		 pop	 ebx
  0004a	5f		 pop	 edi

; 222  : }

  0004b	5e		 pop	 esi
  0004c	5d		 pop	 ebp
  0004d	c3		 ret	 0
$LN12@ConvertPat:

; 218  : 	}
; 219  : 
; 220  : 	*pszRetPathName = '\0';

  0004e	8b 45 0c	 mov	 eax, DWORD PTR _pszRetPathName$[ebp]
  00051	5f		 pop	 edi
  00052	c6 00 00	 mov	 BYTE PTR [eax], 0

; 221  : 	return len;

  00055	8b c6		 mov	 eax, esi

; 222  : }

  00057	5e		 pop	 esi
  00058	5d		 pop	 ebp
  00059	c3		 ret	 0
?__ConvertPathName@@YAHPBDPADH@Z ENDP			; __ConvertPathName
_TEXT	ENDS
; Function compile flags: /Ogtp
; File C:\Program Files (x86)\Microsoft Visual Studio\2019\Professional\VC\Tools\MSVC\14.29.30133\include\xtree
;	COMDAT ??E?$_Tree_unchecked_const_iterator@V?$_Tree_val@U?$_Tree_simple_types@U?$pair@QAVCResource@@K@std@@@std@@@std@@U_Iterator_base0@2@@std@@QAEAAV01@XZ
_TEXT	SEGMENT
??E?$_Tree_unchecked_const_iterator@V?$_Tree_val@U?$_Tree_simple_types@U?$pair@QAVCResource@@K@std@@@std@@@std@@U_Iterator_base0@2@@std@@QAEAAV01@XZ PROC ; std::_Tree_unchecked_const_iterator<std::_Tree_val<std::_Tree_simple_types<std::pair<CResource * const,unsigned long> > >,std::_Iterator_base0>::operator++, COMDAT
; _this$ = ecx

; 51   :     _Tree_unchecked_const_iterator& operator++() noexcept {

  00000	56		 push	 esi
  00001	8b f1		 mov	 esi, ecx
  00003	57		 push	 edi

; 52   :         if (_Ptr->_Right->_Isnil) { // climb looking for right subtree

  00004	8b 16		 mov	 edx, DWORD PTR [esi]
  00006	8b 7a 08	 mov	 edi, DWORD PTR [edx+8]
  00009	80 7f 0d 00	 cmp	 BYTE PTR [edi+13], 0
  0000d	74 22		 je	 SHORT $LN4@operator

; 53   :             _Nodeptr _Pnode;
; 54   :             while (!(_Pnode = _Ptr->_Parent)->_Isnil && _Ptr == _Pnode->_Right) {

  0000f	8b 42 04	 mov	 eax, DWORD PTR [edx+4]
  00012	80 78 0d 00	 cmp	 BYTE PTR [eax+13], 0
  00016	75 12		 jne	 SHORT $LN19@operator
$LL2@operator:
  00018	3b 50 08	 cmp	 edx, DWORD PTR [eax+8]
  0001b	75 0d		 jne	 SHORT $LN19@operator

; 55   :                 _Ptr = _Pnode; // ==> parent while right subtree

  0001d	89 06		 mov	 DWORD PTR [esi], eax
  0001f	8b d0		 mov	 edx, eax
  00021	8b 40 04	 mov	 eax, DWORD PTR [eax+4]
  00024	80 78 0d 00	 cmp	 BYTE PTR [eax+13], 0
  00028	74 ee		 je	 SHORT $LL2@operator
$LN19@operator:

; 56   :             }
; 57   : 
; 58   :             _Ptr = _Pnode; // ==> parent (head if end())
; 59   :         } else {
; 60   :             _Ptr = _Mytree::_Min(_Ptr->_Right); // ==> smallest of right subtree
; 61   :         }
; 62   : 
; 63   :         return *this;

  0002a	89 06		 mov	 DWORD PTR [esi], eax

; 64   :     }

  0002c	8b c6		 mov	 eax, esi
  0002e	5f		 pop	 edi
  0002f	5e		 pop	 esi
  00030	c3		 ret	 0
$LN4@operator:

; 457  :         while (!_Pnode->_Left->_Isnil) {

  00031	8b 0f		 mov	 ecx, DWORD PTR [edi]
  00033	80 79 0d 00	 cmp	 BYTE PTR [ecx+13], 0
  00037	75 13		 jne	 SHORT $LN9@operator
  00039	0f 1f 80 00 00
	00 00		 npad	 7
$LL8@operator:
  00040	8b 01		 mov	 eax, DWORD PTR [ecx]

; 458  :             _Pnode = _Pnode->_Left;

  00042	8b f9		 mov	 edi, ecx
  00044	8b c8		 mov	 ecx, eax
  00046	80 78 0d 00	 cmp	 BYTE PTR [eax+13], 0
  0004a	74 f4		 je	 SHORT $LL8@operator
$LN9@operator:

; 56   :             }
; 57   : 
; 58   :             _Ptr = _Pnode; // ==> parent (head if end())
; 59   :         } else {
; 60   :             _Ptr = _Mytree::_Min(_Ptr->_Right); // ==> smallest of right subtree
; 61   :         }
; 62   : 
; 63   :         return *this;

  0004c	89 3e		 mov	 DWORD PTR [esi], edi

; 64   :     }

  0004e	8b c6		 mov	 eax, esi
  00050	5f		 pop	 edi
  00051	5e		 pop	 esi
  00052	c3		 ret	 0
??E?$_Tree_unchecked_const_iterator@V?$_Tree_val@U?$_Tree_simple_types@U?$pair@QAVCResource@@K@std@@@std@@@std@@U_Iterator_base0@2@@std@@QAEAAV01@XZ ENDP ; std::_Tree_unchecked_const_iterator<std::_Tree_val<std::_Tree_simple_types<std::pair<CResource * const,unsigned long> > >,std::_Iterator_base0>::operator++
_TEXT	ENDS
; Function compile flags: /Ogtp
; File C:\Program Files (x86)\Microsoft Visual Studio\2019\Professional\VC\Tools\MSVC\14.29.30133\include\xtree
;	COMDAT ??E?$_Tree_unchecked_const_iterator@V?$_Tree_val@U?$_Tree_simple_types@U?$pair@$$CBJPAVCResource@@@std@@@std@@@std@@U_Iterator_base0@2@@std@@QAEAAV01@XZ
_TEXT	SEGMENT
??E?$_Tree_unchecked_const_iterator@V?$_Tree_val@U?$_Tree_simple_types@U?$pair@$$CBJPAVCResource@@@std@@@std@@@std@@U_Iterator_base0@2@@std@@QAEAAV01@XZ PROC ; std::_Tree_unchecked_const_iterator<std::_Tree_val<std::_Tree_simple_types<std::pair<long const ,CResource *> > >,std::_Iterator_base0>::operator++, COMDAT
; _this$ = ecx

; 51   :     _Tree_unchecked_const_iterator& operator++() noexcept {

  00000	56		 push	 esi
  00001	8b f1		 mov	 esi, ecx
  00003	57		 push	 edi

; 52   :         if (_Ptr->_Right->_Isnil) { // climb looking for right subtree

  00004	8b 16		 mov	 edx, DWORD PTR [esi]
  00006	8b 7a 08	 mov	 edi, DWORD PTR [edx+8]
  00009	80 7f 0d 00	 cmp	 BYTE PTR [edi+13], 0
  0000d	74 22		 je	 SHORT $LN4@operator

; 53   :             _Nodeptr _Pnode;
; 54   :             while (!(_Pnode = _Ptr->_Parent)->_Isnil && _Ptr == _Pnode->_Right) {

  0000f	8b 42 04	 mov	 eax, DWORD PTR [edx+4]
  00012	80 78 0d 00	 cmp	 BYTE PTR [eax+13], 0
  00016	75 12		 jne	 SHORT $LN19@operator
$LL2@operator:
  00018	3b 50 08	 cmp	 edx, DWORD PTR [eax+8]
  0001b	75 0d		 jne	 SHORT $LN19@operator

; 55   :                 _Ptr = _Pnode; // ==> parent while right subtree

  0001d	89 06		 mov	 DWORD PTR [esi], eax
  0001f	8b d0		 mov	 edx, eax
  00021	8b 40 04	 mov	 eax, DWORD PTR [eax+4]
  00024	80 78 0d 00	 cmp	 BYTE PTR [eax+13], 0
  00028	74 ee		 je	 SHORT $LL2@operator
$LN19@operator:

; 56   :             }
; 57   : 
; 58   :             _Ptr = _Pnode; // ==> parent (head if end())
; 59   :         } else {
; 60   :             _Ptr = _Mytree::_Min(_Ptr->_Right); // ==> smallest of right subtree
; 61   :         }
; 62   : 
; 63   :         return *this;

  0002a	89 06		 mov	 DWORD PTR [esi], eax

; 64   :     }

  0002c	8b c6		 mov	 eax, esi
  0002e	5f		 pop	 edi
  0002f	5e		 pop	 esi
  00030	c3		 ret	 0
$LN4@operator:

; 457  :         while (!_Pnode->_Left->_Isnil) {

  00031	8b 0f		 mov	 ecx, DWORD PTR [edi]
  00033	80 79 0d 00	 cmp	 BYTE PTR [ecx+13], 0
  00037	75 13		 jne	 SHORT $LN9@operator
  00039	0f 1f 80 00 00
	00 00		 npad	 7
$LL8@operator:
  00040	8b 01		 mov	 eax, DWORD PTR [ecx]

; 458  :             _Pnode = _Pnode->_Left;

  00042	8b f9		 mov	 edi, ecx
  00044	8b c8		 mov	 ecx, eax
  00046	80 78 0d 00	 cmp	 BYTE PTR [eax+13], 0
  0004a	74 f4		 je	 SHORT $LL8@operator
$LN9@operator:

; 56   :             }
; 57   : 
; 58   :             _Ptr = _Pnode; // ==> parent (head if end())
; 59   :         } else {
; 60   :             _Ptr = _Mytree::_Min(_Ptr->_Right); // ==> smallest of right subtree
; 61   :         }
; 62   : 
; 63   :         return *this;

  0004c	89 3e		 mov	 DWORD PTR [esi], edi

; 64   :     }

  0004e	8b c6		 mov	 eax, esi
  00050	5f		 pop	 edi
  00051	5e		 pop	 esi
  00052	c3		 ret	 0
??E?$_Tree_unchecked_const_iterator@V?$_Tree_val@U?$_Tree_simple_types@U?$pair@$$CBJPAVCResource@@@std@@@std@@@std@@U_Iterator_base0@2@@std@@QAEAAV01@XZ ENDP ; std::_Tree_unchecked_const_iterator<std::_Tree_val<std::_Tree_simple_types<std::pair<long const ,CResource *> > >,std::_Iterator_base0>::operator++
_TEXT	ENDS
; Function compile flags: /Ogtp
; File C:\Program Files (x86)\Microsoft Visual Studio\2019\Professional\VC\Tools\MSVC\14.29.30133\include\xstring
; File C:\Program Files (x86)\Microsoft Visual Studio\2019\Professional\VC\Tools\MSVC\14.29.30133\include\xmemory
; File C:\Program Files (x86)\Microsoft Visual Studio\2019\Professional\VC\Tools\MSVC\14.29.30133\include\xstring
; File C:\Program Files (x86)\Microsoft Visual Studio\2019\Professional\VC\Tools\MSVC\14.29.30133\include\xmemory
; File C:\Program Files (x86)\Microsoft Visual Studio\2019\Professional\VC\Tools\MSVC\14.29.30133\include\xstring
; File C:\Program Files (x86)\Microsoft Visual Studio\2019\Professional\VC\Tools\MSVC\14.29.30133\include\xmemory
;	COMDAT ??1?$pair@$$CBKV?$basic_string@DU?$char_traits@D@std@@V?$allocator@D@2@@std@@@std@@QAE@XZ
_TEXT	SEGMENT
??1?$pair@$$CBKV?$basic_string@DU?$char_traits@D@std@@V?$allocator@D@2@@std@@@std@@QAE@XZ PROC ; std::pair<unsigned long const ,std::basic_string<char,std::char_traits<char>,std::allocator<char> > >::~pair<unsigned long const ,std::basic_string<char,std::char_traits<char>,std::allocator<char> > >, COMDAT
; _this$ = ecx
; File C:\Program Files (x86)\Microsoft Visual Studio\2019\Professional\VC\Tools\MSVC\14.29.30133\include\xstring

; 2319 :         return _BUF_SIZE <= _Myres;

  00000	56		 push	 esi
  00001	8b f1		 mov	 esi, ecx
  00003	8b 4e 18	 mov	 ecx, DWORD PTR [esi+24]
  00006	83 f9 10	 cmp	 ecx, 16			; 00000010H

; 4618 :         if (_Mypair._Myval2._Large_string_engaged()) {

  00009	72 28		 jb	 SHORT $LN15@pair
; File C:\Program Files (x86)\Microsoft Visual Studio\2019\Professional\VC\Tools\MSVC\14.29.30133\include\xmemory

; 835  :         _Deallocate<_New_alignof<_Ty>>(_Ptr, sizeof(_Ty) * _Count);

  0000b	8b 46 04	 mov	 eax, DWORD PTR [esi+4]
; File C:\Program Files (x86)\Microsoft Visual Studio\2019\Professional\VC\Tools\MSVC\14.29.30133\include\xstring

; 4622 :             _Al.deallocate(_Ptr, _Mypair._Myval2._Myres + 1);

  0000e	41		 inc	 ecx
; File C:\Program Files (x86)\Microsoft Visual Studio\2019\Professional\VC\Tools\MSVC\14.29.30133\include\xmemory

; 260  :         if (_Bytes >= _Big_allocation_threshold) { // boost the alignment of big allocations to help autovectorization

  0000f	81 f9 00 10 00
	00		 cmp	 ecx, 4096		; 00001000H
  00015	72 12		 jb	 SHORT $LN25@pair

; 158  :     const uintptr_t _Ptr_container   = _Ptr_user[-1];

  00017	8b 50 fc	 mov	 edx, DWORD PTR [eax-4]
  0001a	83 c1 23	 add	 ecx, 35			; 00000023H

; 159  : 
; 160  :     // If the following asserts, it likely means that we are performing
; 161  :     // an aligned delete on memory coming from an unaligned allocation.
; 162  :     _STL_ASSERT(_Ptr_user[-2] == _Big_allocation_sentinel, "invalid argument");
; 163  : 
; 164  :     // Extra paranoia on aligned allocation/deallocation; ensure _Ptr_container is
; 165  :     // in range [_Min_back_shift, _Non_user_size]
; 166  : #ifdef _DEBUG
; 167  :     constexpr uintptr_t _Min_back_shift = 2 * sizeof(void*);
; 168  : #else // ^^^ _DEBUG ^^^ // vvv !_DEBUG vvv
; 169  :     constexpr uintptr_t _Min_back_shift = sizeof(void*);
; 170  : #endif // _DEBUG
; 171  :     const uintptr_t _Back_shift = reinterpret_cast<uintptr_t>(_Ptr) - _Ptr_container;

  0001d	2b c2		 sub	 eax, edx

; 172  :     _STL_VERIFY(_Back_shift >= _Min_back_shift && _Back_shift <= _Non_user_size, "invalid argument");

  0001f	83 c0 fc	 add	 eax, -4			; fffffffcH
  00022	83 f8 1f	 cmp	 eax, 31			; 0000001fH
  00025	77 20		 ja	 SHORT $LN22@pair

; 173  :     _Ptr = reinterpret_cast<void*>(_Ptr_container);

  00027	8b c2		 mov	 eax, edx
$LN25@pair:

; 264  :         ::operator delete(_Ptr, _Bytes);

  00029	51		 push	 ecx
  0002a	50		 push	 eax
  0002b	e8 00 00 00 00	 call	 ??3@YAXPAXI@Z		; operator delete
  00030	83 c4 08	 add	 esp, 8
$LN15@pair:
; File C:\Program Files (x86)\Microsoft Visual Studio\2019\Professional\VC\Tools\MSVC\14.29.30133\include\xstring

; 4633 :             _Mypair._Myval2._Mysize = 0;

  00033	c7 46 14 00 00
	00 00		 mov	 DWORD PTR [esi+20], 0

; 4634 :             _Mypair._Myval2._Myres  = _BUF_SIZE - 1;

  0003a	c7 46 18 0f 00
	00 00		 mov	 DWORD PTR [esi+24], 15	; 0000000fH

; 4635 :             // the _Traits::assign is last so the codegen doesn't think the char write can alias this
; 4636 :             _Traits::assign(_Mypair._Myval2._Bx._Buf[0], _Elem());

  00041	c6 46 04 00	 mov	 BYTE PTR [esi+4], 0
  00045	5e		 pop	 esi
  00046	c3		 ret	 0
$LN22@pair:
; File C:\Program Files (x86)\Microsoft Visual Studio\2019\Professional\VC\Tools\MSVC\14.29.30133\include\xmemory

; 172  :     _STL_VERIFY(_Back_shift >= _Min_back_shift && _Back_shift <= _Non_user_size, "invalid argument");

  00047	e8 00 00 00 00	 call	 __invalid_parameter_noinfo_noreturn
$LN31@pair:
  0004c	cc		 int	 3
??1?$pair@$$CBKV?$basic_string@DU?$char_traits@D@std@@V?$allocator@D@2@@std@@@std@@QAE@XZ ENDP ; std::pair<unsigned long const ,std::basic_string<char,std::char_traits<char>,std::allocator<char> > >::~pair<unsigned long const ,std::basic_string<char,std::char_traits<char>,std::allocator<char> > >
_TEXT	ENDS
; Function compile flags: /Ogtp
; File C:\Program Files (x86)\Microsoft Visual Studio\2019\Professional\VC\Tools\MSVC\14.29.30133\include\xtree
;	COMDAT ??E?$_Tree_unchecked_const_iterator@V?$_Tree_val@U?$_Tree_simple_types@U?$pair@$$CBKV?$basic_string@DU?$char_traits@D@std@@V?$allocator@D@2@@std@@@std@@@std@@@std@@U_Iterator_base0@2@@std@@QAEAAV01@XZ
_TEXT	SEGMENT
??E?$_Tree_unchecked_const_iterator@V?$_Tree_val@U?$_Tree_simple_types@U?$pair@$$CBKV?$basic_string@DU?$char_traits@D@std@@V?$allocator@D@2@@std@@@std@@@std@@@std@@U_Iterator_base0@2@@std@@QAEAAV01@XZ PROC ; std::_Tree_unchecked_const_iterator<std::_Tree_val<std::_Tree_simple_types<std::pair<unsigned long const ,std::basic_string<char,std::char_traits<char>,std::allocator<char> > > > >,std::_Iterator_base0>::operator++, COMDAT
; _this$ = ecx

; 51   :     _Tree_unchecked_const_iterator& operator++() noexcept {

  00000	56		 push	 esi
  00001	8b f1		 mov	 esi, ecx
  00003	57		 push	 edi

; 52   :         if (_Ptr->_Right->_Isnil) { // climb looking for right subtree

  00004	8b 16		 mov	 edx, DWORD PTR [esi]
  00006	8b 7a 08	 mov	 edi, DWORD PTR [edx+8]
  00009	80 7f 0d 00	 cmp	 BYTE PTR [edi+13], 0
  0000d	74 22		 je	 SHORT $LN4@operator

; 53   :             _Nodeptr _Pnode;
; 54   :             while (!(_Pnode = _Ptr->_Parent)->_Isnil && _Ptr == _Pnode->_Right) {

  0000f	8b 42 04	 mov	 eax, DWORD PTR [edx+4]
  00012	80 78 0d 00	 cmp	 BYTE PTR [eax+13], 0
  00016	75 12		 jne	 SHORT $LN19@operator
$LL2@operator:
  00018	3b 50 08	 cmp	 edx, DWORD PTR [eax+8]
  0001b	75 0d		 jne	 SHORT $LN19@operator

; 55   :                 _Ptr = _Pnode; // ==> parent while right subtree

  0001d	89 06		 mov	 DWORD PTR [esi], eax
  0001f	8b d0		 mov	 edx, eax
  00021	8b 40 04	 mov	 eax, DWORD PTR [eax+4]
  00024	80 78 0d 00	 cmp	 BYTE PTR [eax+13], 0
  00028	74 ee		 je	 SHORT $LL2@operator
$LN19@operator:

; 56   :             }
; 57   : 
; 58   :             _Ptr = _Pnode; // ==> parent (head if end())
; 59   :         } else {
; 60   :             _Ptr = _Mytree::_Min(_Ptr->_Right); // ==> smallest of right subtree
; 61   :         }
; 62   : 
; 63   :         return *this;

  0002a	89 06		 mov	 DWORD PTR [esi], eax

; 64   :     }

  0002c	8b c6		 mov	 eax, esi
  0002e	5f		 pop	 edi
  0002f	5e		 pop	 esi
  00030	c3		 ret	 0
$LN4@operator:

; 457  :         while (!_Pnode->_Left->_Isnil) {

  00031	8b 0f		 mov	 ecx, DWORD PTR [edi]
  00033	80 79 0d 00	 cmp	 BYTE PTR [ecx+13], 0
  00037	75 13		 jne	 SHORT $LN9@operator
  00039	0f 1f 80 00 00
	00 00		 npad	 7
$LL8@operator:
  00040	8b 01		 mov	 eax, DWORD PTR [ecx]

; 458  :             _Pnode = _Pnode->_Left;

  00042	8b f9		 mov	 edi, ecx
  00044	8b c8		 mov	 ecx, eax
  00046	80 78 0d 00	 cmp	 BYTE PTR [eax+13], 0
  0004a	74 f4		 je	 SHORT $LL8@operator
$LN9@operator:

; 56   :             }
; 57   : 
; 58   :             _Ptr = _Pnode; // ==> parent (head if end())
; 59   :         } else {
; 60   :             _Ptr = _Mytree::_Min(_Ptr->_Right); // ==> smallest of right subtree
; 61   :         }
; 62   : 
; 63   :         return *this;

  0004c	89 3e		 mov	 DWORD PTR [esi], edi

; 64   :     }

  0004e	8b c6		 mov	 eax, esi
  00050	5f		 pop	 edi
  00051	5e		 pop	 esi
  00052	c3		 ret	 0
??E?$_Tree_unchecked_const_iterator@V?$_Tree_val@U?$_Tree_simple_types@U?$pair@$$CBKV?$basic_string@DU?$char_traits@D@std@@V?$allocator@D@2@@std@@@std@@@std@@@std@@U_Iterator_base0@2@@std@@QAEAAV01@XZ ENDP ; std::_Tree_unchecked_const_iterator<std::_Tree_val<std::_Tree_simple_types<std::pair<unsigned long const ,std::basic_string<char,std::char_traits<char>,std::allocator<char> > > > >,std::_Iterator_base0>::operator++
_TEXT	ENDS
; Function compile flags: /Ogtp
; File C:\Program Files (x86)\Microsoft Visual Studio\2019\Professional\VC\Tools\MSVC\14.29.30133\include\xtree
; File C:\Program Files (x86)\Microsoft Visual Studio\2019\Professional\VC\Tools\MSVC\14.29.30133\include\xstddef
; File C:\Program Files (x86)\Microsoft Visual Studio\2019\Professional\VC\Tools\MSVC\14.29.30133\include\xtree
; File C:\Program Files (x86)\Microsoft Visual Studio\2019\Professional\VC\Tools\MSVC\14.29.30133\include\utility
; File C:\Program Files (x86)\Microsoft Visual Studio\2019\Professional\VC\Tools\MSVC\14.29.30133\include\xtree
; File C:\Program Files (x86)\Microsoft Visual Studio\2019\Professional\VC\Tools\MSVC\14.29.30133\include\xmemory
; File C:\Program Files (x86)\Microsoft Visual Studio\2019\Professional\VC\Tools\MSVC\14.29.30133\include\xtree
; File C:\Program Files (x86)\Microsoft Visual Studio\2019\Professional\VC\Tools\MSVC\14.29.30133\include\xmemory
; File C:\Program Files (x86)\Microsoft Visual Studio\2019\Professional\VC\Tools\MSVC\14.29.30133\include\xtree
; File C:\Program Files (x86)\Microsoft Visual Studio\2019\Professional\VC\Tools\MSVC\14.29.30133\include\xmemory
; File C:\Program Files (x86)\Microsoft Visual Studio\2019\Professional\VC\Tools\MSVC\14.29.30133\include\xtree
; File C:\Program Files (x86)\Microsoft Visual Studio\2019\Professional\VC\Tools\MSVC\14.29.30133\include\utility
; File C:\Program Files (x86)\Microsoft Visual Studio\2019\Professional\VC\Tools\MSVC\14.29.30133\include\xtree
;	COMDAT ??$insert@$0A@$0A@@?$_Tree@V?$_Tmap_traits@KPAVCResource@@U?$less@K@std@@V?$allocator@U?$pair@$$CBKPAVCResource@@@std@@@3@$0A@@std@@@std@@QAE?AU?$pair@V?$_Tree_iterator@V?$_Tree_val@U?$_Tree_simple_types@U?$pair@$$CBKPAVCResource@@@std@@@std@@@std@@@std@@_N@1@$$QAU?$pair@$$CBKPAVCResource@@@1@@Z
_TEXT	SEGMENT
__Loc$2 = -36						; size = 12
$T3 = -24						; size = 12
$T4 = -20						; size = 8
__$EHRec$ = -12						; size = 12
___$ReturnUdt$ = 8					; size = 4
__Val$ = 12						; size = 4
??$insert@$0A@$0A@@?$_Tree@V?$_Tmap_traits@KPAVCResource@@U?$less@K@std@@V?$allocator@U?$pair@$$CBKPAVCResource@@@std@@@3@$0A@@std@@@std@@QAE?AU?$pair@V?$_Tree_iterator@V?$_Tree_val@U?$_Tree_simple_types@U?$pair@$$CBKPAVCResource@@@std@@@std@@@std@@@std@@_N@1@$$QAU?$pair@$$CBKPAVCResource@@@1@@Z PROC ; std::_Tree<std::_Tmap_traits<unsigned long,CResource *,std::less<unsigned long>,std::allocator<std::pair<unsigned long const ,CResource *> >,0> >::insert<0,0>, COMDAT
; _this$ = ecx

; 1246 :     pair<iterator, bool> insert(value_type&& _Val) {

  00000	55		 push	 ebp
  00001	8b ec		 mov	 ebp, esp
  00003	6a ff		 push	 -1
  00005	68 00 00 00 00	 push	 __ehhandler$??$insert@$0A@$0A@@?$_Tree@V?$_Tmap_traits@KPAVCResource@@U?$less@K@std@@V?$allocator@U?$pair@$$CBKPAVCResource@@@std@@@3@$0A@@std@@@std@@QAE?AU?$pair@V?$_Tree_iterator@V?$_Tree_val@U?$_Tree_simple_types@U?$pair@$$CBKPAVCResource@@@std@@@std@@@std@@@std@@_N@1@$$QAU?$pair@$$CBKPAVCResource@@@1@@Z
  0000a	64 a1 00 00 00
	00		 mov	 eax, DWORD PTR fs:0
  00010	50		 push	 eax
  00011	83 ec 18	 sub	 esp, 24			; 00000018H
  00014	53		 push	 ebx
  00015	56		 push	 esi
  00016	57		 push	 edi
  00017	a1 00 00 00 00	 mov	 eax, DWORD PTR ___security_cookie
  0001c	33 c5		 xor	 eax, ebp
  0001e	50		 push	 eax
  0001f	8d 45 f4	 lea	 eax, DWORD PTR __$EHRec$[ebp]
  00022	64 a3 00 00 00
	00		 mov	 DWORD PTR fs:0, eax
  00028	8b f9		 mov	 edi, ecx

; 1014 :             _Loc                = _Find_lower_bound(_Keyval);

  0002a	8b 5d 0c	 mov	 ebx, DWORD PTR __Val$[ebp]
  0002d	8d 45 e8	 lea	 eax, DWORD PTR $T3[ebp]
  00030	53		 push	 ebx
  00031	50		 push	 eax
  00032	e8 00 00 00 00	 call	 ??$_Find_lower_bound@K@?$_Tree@V?$_Tmap_traits@KPAVCResource@@U?$less@K@std@@V?$allocator@U?$pair@$$CBKPAVCResource@@@std@@@3@$0A@@std@@@std@@IBE?AU?$_Tree_find_result@PAU?$_Tree_node@U?$pair@$$CBKPAVCResource@@@std@@PAX@std@@@1@ABK@Z ; std::_Tree<std::_Tmap_traits<unsigned long,CResource *,std::less<unsigned long>,std::allocator<std::pair<unsigned long const ,CResource *> >,0> >::_Find_lower_bound<unsigned long>
  00037	8b 48 08	 mov	 ecx, DWORD PTR [eax+8]
  0003a	f3 0f 7e 00	 movq	 xmm0, QWORD PTR [eax]
  0003e	66 0f d6 45 dc	 movq	 QWORD PTR __Loc$2[ebp], xmm0

; 1599 :         return !_Bound->_Isnil && !_DEBUG_LT_PRED(_Getcomp(), _Keyval, _Traits::_Kfn(_Bound->_Myval));

  00043	80 79 0d 00	 cmp	 BYTE PTR [ecx+13], 0
  00047	75 0b		 jne	 SHORT $LN4@insert
; File C:\Program Files (x86)\Microsoft Visual Studio\2019\Professional\VC\Tools\MSVC\14.29.30133\include\xstddef

; 127  :         return _Left < _Right;

  00049	8b 03		 mov	 eax, DWORD PTR [ebx]
  0004b	3b 41 10	 cmp	 eax, DWORD PTR [ecx+16]
; File C:\Program Files (x86)\Microsoft Visual Studio\2019\Professional\VC\Tools\MSVC\14.29.30133\include\xtree

; 1599 :         return !_Bound->_Isnil && !_DEBUG_LT_PRED(_Getcomp(), _Keyval, _Traits::_Kfn(_Bound->_Myval));

  0004e	72 04		 jb	 SHORT $LN4@insert
; File C:\Program Files (x86)\Microsoft Visual Studio\2019\Professional\VC\Tools\MSVC\14.29.30133\include\utility

; 193  :         : first(_STD forward<_Other1>(_Val1)), second(_STD forward<_Other2>(_Val2)) {}

  00050	32 d2		 xor	 dl, dl
; File C:\Program Files (x86)\Microsoft Visual Studio\2019\Professional\VC\Tools\MSVC\14.29.30133\include\xtree

; 1016 :                 return {_Loc._Bound, false};

  00052	eb 51		 jmp	 SHORT $LN79@insert
$LN4@insert:

; 1623 :         if (max_size() == _Get_scary()->_Mysize) {

  00054	81 7f 04 aa aa
	aa 0a		 cmp	 DWORD PTR [edi+4], 178956970 ; 0aaaaaaaH
  0005b	74 64		 je	 SHORT $LN94@insert

; 1020 :             _Inserted = _Tree_temp_node<_Alnode>(_Getal(), _Scary->_Myhead, _STD forward<_Valtys>(_Vals)...)._Release();

  0005d	8b 37		 mov	 esi, DWORD PTR [edi]
; File C:\Program Files (x86)\Microsoft Visual Studio\2019\Professional\VC\Tools\MSVC\14.29.30133\include\xmemory

; 1012 :     _CONSTEXPR20_DYNALLOC explicit _Alloc_construct_ptr(_Alloc& _Al_) : _Al(_Al_), _Ptr(nullptr) {}

  0005f	89 7d ec	 mov	 DWORD PTR $T4[ebp], edi

; 85   :         return ::operator new(_Bytes);

  00062	6a 18		 push	 24			; 00000018H
; File C:\Program Files (x86)\Microsoft Visual Studio\2019\Professional\VC\Tools\MSVC\14.29.30133\include\xtree

; 790  :     explicit _Tree_temp_node_alloc(_Alnode& _Al_) : _Alloc_construct_ptr<_Alnode>(_Al_) {

  00064	c7 45 fc 00 00
	00 00		 mov	 DWORD PTR __$EHRec$[ebp+8], 0
; File C:\Program Files (x86)\Microsoft Visual Studio\2019\Professional\VC\Tools\MSVC\14.29.30133\include\xmemory

; 1019 :         _Ptr = nullptr; // if allocate throws, prevents double-free

  0006b	c7 45 f0 00 00
	00 00		 mov	 DWORD PTR $T4[ebp+4], 0

; 85   :         return ::operator new(_Bytes);

  00072	e8 00 00 00 00	 call	 ??2@YAPAXI@Z		; operator new
; File C:\Program Files (x86)\Microsoft Visual Studio\2019\Professional\VC\Tools\MSVC\14.29.30133\include\xtree

; 812  :         _Alnode_traits::construct(this->_Al, _STD addressof(this->_Ptr->_Myval), _STD forward<_Valtys>(_Vals)...);

  00077	8b 0b		 mov	 ecx, DWORD PTR [ebx]
; File C:\Program Files (x86)\Microsoft Visual Studio\2019\Professional\VC\Tools\MSVC\14.29.30133\include\xmemory

; 85   :         return ::operator new(_Bytes);

  00079	83 c4 04	 add	 esp, 4
; File C:\Program Files (x86)\Microsoft Visual Studio\2019\Professional\VC\Tools\MSVC\14.29.30133\include\xtree

; 812  :         _Alnode_traits::construct(this->_Al, _STD addressof(this->_Ptr->_Myval), _STD forward<_Valtys>(_Vals)...);

  0007c	8b 53 04	 mov	 edx, DWORD PTR [ebx+4]
  0007f	89 48 10	 mov	 DWORD PTR [eax+16], ecx

; 1039 :         return {_Scary->_Insert_node(_Loc._Location, _Inserted), true};

  00082	8b cf		 mov	 ecx, edi
  00084	50		 push	 eax
  00085	ff 75 e0	 push	 DWORD PTR __Loc$2[ebp+4]

; 812  :         _Alnode_traits::construct(this->_Al, _STD addressof(this->_Ptr->_Myval), _STD forward<_Valtys>(_Vals)...);

  00088	89 50 14	 mov	 DWORD PTR [eax+20], edx

; 1039 :         return {_Scary->_Insert_node(_Loc._Location, _Inserted), true};

  0008b	ff 75 dc	 push	 DWORD PTR __Loc$2[ebp]

; 813  :         _Construct_in_place(this->_Ptr->_Left, _Myhead);

  0008e	89 30		 mov	 DWORD PTR [eax], esi

; 814  :         _Construct_in_place(this->_Ptr->_Parent, _Myhead);

  00090	89 70 04	 mov	 DWORD PTR [eax+4], esi

; 815  :         _Construct_in_place(this->_Ptr->_Right, _Myhead);

  00093	89 70 08	 mov	 DWORD PTR [eax+8], esi

; 816  :         this->_Ptr->_Color = _Red;

  00096	66 c7 40 0c 00
	00		 mov	 WORD PTR [eax+12], 0

; 1039 :         return {_Scary->_Insert_node(_Loc._Location, _Inserted), true};

  0009c	e8 00 00 00 00	 call	 ?_Insert_node@?$_Tree_val@U?$_Tree_simple_types@U?$pair@$$CBKPAVCResource@@@std@@@std@@@std@@QAEPAU?$_Tree_node@U?$pair@$$CBKPAVCResource@@@std@@PAX@2@U?$_Tree_id@PAU?$_Tree_node@U?$pair@$$CBKPAVCResource@@@std@@PAX@std@@@2@QAU32@@Z ; std::_Tree_val<std::_Tree_simple_types<std::pair<unsigned long const ,CResource *> > >::_Insert_node
; File C:\Program Files (x86)\Microsoft Visual Studio\2019\Professional\VC\Tools\MSVC\14.29.30133\include\utility

; 193  :         : first(_STD forward<_Other1>(_Val1)), second(_STD forward<_Other2>(_Val2)) {}

  000a1	8b c8		 mov	 ecx, eax
  000a3	b2 01		 mov	 dl, 1
$LN79@insert:
  000a5	8b 45 08	 mov	 eax, DWORD PTR ___$ReturnUdt$[ebp]
  000a8	89 08		 mov	 DWORD PTR [eax], ecx
  000aa	88 50 04	 mov	 BYTE PTR [eax+4], dl
; File C:\Program Files (x86)\Microsoft Visual Studio\2019\Professional\VC\Tools\MSVC\14.29.30133\include\xtree

; 1249 :     }

  000ad	8b 4d f4	 mov	 ecx, DWORD PTR __$EHRec$[ebp]
  000b0	64 89 0d 00 00
	00 00		 mov	 DWORD PTR fs:0, ecx
  000b7	59		 pop	 ecx
  000b8	5f		 pop	 edi
  000b9	5e		 pop	 esi
  000ba	5b		 pop	 ebx
  000bb	8b e5		 mov	 esp, ebp
  000bd	5d		 pop	 ebp
  000be	c2 08 00	 ret	 8
$LN94@insert:

; 1624 :             _Throw_tree_length_error();

  000c1	e8 00 00 00 00	 call	 ?_Throw_tree_length_error@std@@YAXXZ ; std::_Throw_tree_length_error
$LN92@insert:
  000c6	cc		 int	 3
_TEXT	ENDS
;	COMDAT text$x
text$x	SEGMENT
__unwindfunclet$??$insert@$0A@$0A@@?$_Tree@V?$_Tmap_traits@KPAVCResource@@U?$less@K@std@@V?$allocator@U?$pair@$$CBKPAVCResource@@@std@@@3@$0A@@std@@@std@@QAE?AU?$pair@V?$_Tree_iterator@V?$_Tree_val@U?$_Tree_simple_types@U?$pair@$$CBKPAVCResource@@@std@@@std@@@std@@@std@@_N@1@$$QAU?$pair@$$CBKPAVCResource@@@1@@Z$2:
  00000	8d 4d ec	 lea	 ecx, DWORD PTR $T4[ebp]
  00003	e9 00 00 00 00	 jmp	 ??1?$_Alloc_construct_ptr@V?$allocator@U?$_Tree_node@U?$pair@$$CBKPAVCResource@@@std@@PAX@std@@@std@@@std@@QAE@XZ ; std::_Alloc_construct_ptr<std::allocator<std::_Tree_node<std::pair<unsigned long const ,CResource *>,void *> > >::~_Alloc_construct_ptr<std::allocator<std::_Tree_node<std::pair<unsigned long const ,CResource *>,void *> > >
  00008	cc		 int	 3
  00009	cc		 int	 3
  0000a	cc		 int	 3
  0000b	cc		 int	 3
  0000c	cc		 int	 3
__ehhandler$??$insert@$0A@$0A@@?$_Tree@V?$_Tmap_traits@KPAVCResource@@U?$less@K@std@@V?$allocator@U?$pair@$$CBKPAVCResource@@@std@@@3@$0A@@std@@@std@@QAE?AU?$pair@V?$_Tree_iterator@V?$_Tree_val@U?$_Tree_simple_types@U?$pair@$$CBKPAVCResource@@@std@@@std@@@std@@@std@@_N@1@$$QAU?$pair@$$CBKPAVCResource@@@1@@Z:
  0000d	90		 npad	 1
  0000e	90		 npad	 1
  0000f	8b 54 24 08	 mov	 edx, DWORD PTR [esp+8]
  00013	8d 42 0c	 lea	 eax, DWORD PTR [edx+12]
  00016	8b 4a d8	 mov	 ecx, DWORD PTR [edx-40]
  00019	33 c8		 xor	 ecx, eax
  0001b	e8 00 00 00 00	 call	 @__security_check_cookie@4
  00020	b8 00 00 00 00	 mov	 eax, OFFSET __ehfuncinfo$??$insert@$0A@$0A@@?$_Tree@V?$_Tmap_traits@KPAVCResource@@U?$less@K@std@@V?$allocator@U?$pair@$$CBKPAVCResource@@@std@@@3@$0A@@std@@@std@@QAE?AU?$pair@V?$_Tree_iterator@V?$_Tree_val@U?$_Tree_simple_types@U?$pair@$$CBKPAVCResource@@@std@@@std@@@std@@@std@@_N@1@$$QAU?$pair@$$CBKPAVCResource@@@1@@Z
  00025	e9 00 00 00 00	 jmp	 ___CxxFrameHandler3
text$x	ENDS
??$insert@$0A@$0A@@?$_Tree@V?$_Tmap_traits@KPAVCResource@@U?$less@K@std@@V?$allocator@U?$pair@$$CBKPAVCResource@@@std@@@3@$0A@@std@@@std@@QAE?AU?$pair@V?$_Tree_iterator@V?$_Tree_val@U?$_Tree_simple_types@U?$pair@$$CBKPAVCResource@@@std@@@std@@@std@@@std@@_N@1@$$QAU?$pair@$$CBKPAVCResource@@@1@@Z ENDP ; std::_Tree<std::_Tmap_traits<unsigned long,CResource *,std::less<unsigned long>,std::allocator<std::pair<unsigned long const ,CResource *> >,0> >::insert<0,0>
; Function compile flags: /Ogtp
;	COMDAT ??__F?ms_loadingThread@CResourceManager@@1VCFileLoaderThread@@A@@YAXXZ
text$yd	SEGMENT
??__F?ms_loadingThread@CResourceManager@@1VCFileLoaderThread@@A@@YAXXZ PROC ; `dynamic atexit destructor for 'CResourceManager::ms_loadingThread'', COMDAT
  00000	b9 00 00 00 00	 mov	 ecx, OFFSET ?ms_loadingThread@CResourceManager@@1VCFileLoaderThread@@A ; CResourceManager::ms_loadingThread
  00005	e9 00 00 00 00	 jmp	 ??1CFileLoaderThread@@QAE@XZ ; CFileLoaderThread::~CFileLoaderThread
??__F?ms_loadingThread@CResourceManager@@1VCFileLoaderThread@@A@@YAXXZ ENDP ; `dynamic atexit destructor for 'CResourceManager::ms_loadingThread''
text$yd	ENDS
; Function compile flags: /Ogtp
; File C:\Users\murat\Desktop\Siveps2-1-99-Project\source\client\Client\EterLib\ResourceManager.cpp
;	COMDAT ??__E?ms_loadingThread@CResourceManager@@1VCFileLoaderThread@@A@@YAXXZ
text$di	SEGMENT
??__E?ms_loadingThread@CResourceManager@@1VCFileLoaderThread@@A@@YAXXZ PROC ; `dynamic initializer for 'CResourceManager::ms_loadingThread'', COMDAT

; 17   : CFileLoaderThread CResourceManager::ms_loadingThread;

  00000	b9 00 00 00 00	 mov	 ecx, OFFSET ?ms_loadingThread@CResourceManager@@1VCFileLoaderThread@@A ; CResourceManager::ms_loadingThread
  00005	e8 00 00 00 00	 call	 ??0CFileLoaderThread@@QAE@XZ ; CFileLoaderThread::CFileLoaderThread
  0000a	68 00 00 00 00	 push	 OFFSET ??__F?ms_loadingThread@CResourceManager@@1VCFileLoaderThread@@A@@YAXXZ ; `dynamic atexit destructor for 'CResourceManager::ms_loadingThread''
  0000f	e8 00 00 00 00	 call	 _atexit
  00014	59		 pop	 ecx
  00015	c3		 ret	 0
??__E?ms_loadingThread@CResourceManager@@1VCFileLoaderThread@@A@@YAXXZ ENDP ; `dynamic initializer for 'CResourceManager::ms_loadingThread''
text$di	ENDS
; Function compile flags: /Ogtp
;	COMDAT ??_GCResourceManager@@UAEPAXI@Z
_TEXT	SEGMENT
___flags$ = 8						; size = 4
??_GCResourceManager@@UAEPAXI@Z PROC			; CResourceManager::`scalar deleting destructor', COMDAT
; _this$ = ecx
  00000	55		 push	 ebp
  00001	8b ec		 mov	 ebp, esp
  00003	56		 push	 esi
  00004	8b f1		 mov	 esi, ecx
  00006	e8 00 00 00 00	 call	 ??1CResourceManager@@UAE@XZ ; CResourceManager::~CResourceManager
  0000b	f6 45 08 01	 test	 BYTE PTR ___flags$[ebp], 1
  0000f	74 0b		 je	 SHORT $LN4@scalar
  00011	6a 44		 push	 68			; 00000044H
  00013	56		 push	 esi
  00014	e8 00 00 00 00	 call	 ??3@YAXPAXI@Z		; operator delete
  00019	83 c4 08	 add	 esp, 8
$LN4@scalar:
  0001c	8b c6		 mov	 eax, esi
  0001e	5e		 pop	 esi
  0001f	5d		 pop	 ebp
  00020	c2 04 00	 ret	 4
??_GCResourceManager@@UAEPAXI@Z ENDP			; CResourceManager::`scalar deleting destructor'
_TEXT	ENDS
; Function compile flags: /Ogtp
; File C:\Program Files (x86)\Microsoft Visual Studio\2019\Professional\VC\Tools\MSVC\14.29.30133\include\xtree
;	COMDAT ?_Insert_node@?$_Tree_val@U?$_Tree_simple_types@U?$pair@$$CBJPAVCResource@@@std@@@std@@@std@@QAEPAU?$_Tree_node@U?$pair@$$CBJPAVCResource@@@std@@PAX@2@U?$_Tree_id@PAU?$_Tree_node@U?$pair@$$CBJPAVCResource@@@std@@PAX@std@@@2@QAU32@@Z
_TEXT	SEGMENT
__Head$1$ = -8						; size = 4
_this$1$ = -4						; size = 4
__Loc$ = 8						; size = 8
__Newnode$ = 16						; size = 4
?_Insert_node@?$_Tree_val@U?$_Tree_simple_types@U?$pair@$$CBJPAVCResource@@@std@@@std@@@std@@QAEPAU?$_Tree_node@U?$pair@$$CBJPAVCResource@@@std@@PAX@2@U?$_Tree_id@PAU?$_Tree_node@U?$pair@$$CBJPAVCResource@@@std@@PAX@std@@@2@QAU32@@Z PROC ; std::_Tree_val<std::_Tree_simple_types<std::pair<long const ,CResource *> > >::_Insert_node, COMDAT
; _this$ = ecx

; 650  :     _Nodeptr _Insert_node(const _Tree_id<_Nodeptr> _Loc, const _Nodeptr _Newnode) noexcept {

  00000	55		 push	 ebp
  00001	8b ec		 mov	 ebp, esp
  00003	83 ec 08	 sub	 esp, 8

; 651  :         ++_Mysize;
; 652  :         const auto _Head  = _Myhead;
; 653  :         _Newnode->_Parent = _Loc._Parent;

  00006	8b 55 08	 mov	 edx, DWORD PTR __Loc$[ebp]
  00009	8b c1		 mov	 eax, ecx
  0000b	89 45 fc	 mov	 DWORD PTR _this$1$[ebp], eax
  0000e	8b 08		 mov	 ecx, DWORD PTR [eax]
  00010	ff 40 04	 inc	 DWORD PTR [eax+4]
  00013	8b 45 10	 mov	 eax, DWORD PTR __Newnode$[ebp]
  00016	89 4d f8	 mov	 DWORD PTR __Head$1$[ebp], ecx
  00019	89 50 04	 mov	 DWORD PTR [eax+4], edx

; 654  :         if (_Loc._Parent == _Head) { // first node in tree, just set head values

  0001c	3b d1		 cmp	 edx, ecx
  0001e	75 12		 jne	 SHORT $LN5@Insert_nod

; 655  :             _Head->_Left     = _Newnode;

  00020	89 01		 mov	 DWORD PTR [ecx], eax

; 656  :             _Head->_Parent   = _Newnode;

  00022	89 41 04	 mov	 DWORD PTR [ecx+4], eax

; 657  :             _Head->_Right    = _Newnode;

  00025	89 41 08	 mov	 DWORD PTR [ecx+8], eax

; 658  :             _Newnode->_Color = _Black; // the root is black

  00028	c6 40 0c 01	 mov	 BYTE PTR [eax+12], 1

; 717  :     }

  0002c	8b e5		 mov	 esp, ebp
  0002e	5d		 pop	 ebp
  0002f	c2 0c 00	 ret	 12			; 0000000cH
$LN5@Insert_nod:

; 659  :             return _Newnode;
; 660  :         }
; 661  : 
; 662  :         _STL_INTERNAL_CHECK(_Loc._Child != _Tree_child::_Unused);
; 663  :         if (_Loc._Child == _Tree_child::_Right) { // add to right of _Loc._Parent

  00032	83 7d 0c 00	 cmp	 DWORD PTR __Loc$[ebp+4], 0
  00036	75 0d		 jne	 SHORT $LN6@Insert_nod

; 664  :             _STL_INTERNAL_CHECK(_Loc._Parent->_Right->_Isnil);
; 665  :             _Loc._Parent->_Right = _Newnode;

  00038	89 42 08	 mov	 DWORD PTR [edx+8], eax

; 666  :             if (_Loc._Parent == _Head->_Right) { // remember rightmost node

  0003b	3b 51 08	 cmp	 edx, DWORD PTR [ecx+8]
  0003e	75 0d		 jne	 SHORT $LN9@Insert_nod

; 667  :                 _Head->_Right = _Newnode;

  00040	89 41 08	 mov	 DWORD PTR [ecx+8], eax

; 668  :             }
; 669  :         } else { // add to left of _Loc._Parent

  00043	eb 08		 jmp	 SHORT $LN9@Insert_nod
$LN6@Insert_nod:

; 670  :             _STL_INTERNAL_CHECK(_Loc._Parent->_Left->_Isnil);
; 671  :             _Loc._Parent->_Left = _Newnode;

  00045	89 02		 mov	 DWORD PTR [edx], eax

; 672  :             if (_Loc._Parent == _Head->_Left) { // remember leftmost node

  00047	3b 11		 cmp	 edx, DWORD PTR [ecx]
  00049	75 02		 jne	 SHORT $LN9@Insert_nod

; 673  :                 _Head->_Left = _Newnode;

  0004b	89 01		 mov	 DWORD PTR [ecx], eax
$LN9@Insert_nod:

; 674  :             }
; 675  :         }
; 676  : 
; 677  :         for (_Nodeptr _Pnode = _Newnode; _Pnode->_Parent->_Color == _Red;) {

  0004d	8b d0		 mov	 edx, eax
  0004f	8b 40 04	 mov	 eax, DWORD PTR [eax+4]
  00052	80 78 0c 00	 cmp	 BYTE PTR [eax+12], 0
  00056	0f 85 99 01 00
	00		 jne	 $LN3@Insert_nod
  0005c	53		 push	 ebx
  0005d	56		 push	 esi
  0005e	57		 push	 edi
  0005f	90		 npad	 1
$LL2@Insert_nod:

; 678  :             if (_Pnode->_Parent == _Pnode->_Parent->_Parent->_Left) { // fixup red-red in left subtree

  00060	8b 4a 04	 mov	 ecx, DWORD PTR [edx+4]
  00063	8d 7a 04	 lea	 edi, DWORD PTR [edx+4]
  00066	8b 71 04	 mov	 esi, DWORD PTR [ecx+4]
  00069	8d 59 04	 lea	 ebx, DWORD PTR [ecx+4]
  0006c	8b 06		 mov	 eax, DWORD PTR [esi]
  0006e	3b c8		 cmp	 ecx, eax
  00070	0f 85 ba 00 00
	00		 jne	 $LN10@Insert_nod

; 679  :                 const auto _Parent_sibling = _Pnode->_Parent->_Parent->_Right;

  00076	8b 46 08	 mov	 eax, DWORD PTR [esi+8]

; 680  :                 if (_Parent_sibling->_Color == _Red) { // parent's sibling has two red children, blacken both

  00079	80 78 0c 00	 cmp	 BYTE PTR [eax+12], 0
  0007d	0f 84 b3 00 00
	00		 je	 $LN53@Insert_nod

; 681  :                     _Pnode->_Parent->_Color          = _Black;
; 682  :                     _Parent_sibling->_Color          = _Black;
; 683  :                     _Pnode->_Parent->_Parent->_Color = _Red;
; 684  :                     _Pnode                           = _Pnode->_Parent->_Parent;
; 685  :                 } else { // parent's sibling has red and black children
; 686  :                     if (_Pnode == _Pnode->_Parent->_Right) { // rotate right child to left

  00083	8b 71 08	 mov	 esi, DWORD PTR [ecx+8]
  00086	3b d6		 cmp	 edx, esi
  00088	75 47		 jne	 SHORT $LN51@Insert_nod

; 466  :         _Wherenode->_Right = _Pnode->_Left;

  0008a	8b 06		 mov	 eax, DWORD PTR [esi]

; 687  :                         _Pnode = _Pnode->_Parent;

  0008c	8b d1		 mov	 edx, ecx

; 466  :         _Wherenode->_Right = _Pnode->_Left;

  0008e	89 42 08	 mov	 DWORD PTR [edx+8], eax

; 467  : 
; 468  :         if (!_Pnode->_Left->_Isnil) {

  00091	8b 06		 mov	 eax, DWORD PTR [esi]
  00093	80 78 0d 00	 cmp	 BYTE PTR [eax+13], 0
  00097	75 03		 jne	 SHORT $LN20@Insert_nod

; 469  :             _Pnode->_Left->_Parent = _Wherenode;

  00099	89 50 04	 mov	 DWORD PTR [eax+4], edx
$LN20@Insert_nod:

; 470  :         }
; 471  : 
; 472  :         _Pnode->_Parent = _Wherenode->_Parent;

  0009c	8b 03		 mov	 eax, DWORD PTR [ebx]
  0009e	89 46 04	 mov	 DWORD PTR [esi+4], eax

; 473  : 
; 474  :         if (_Wherenode == _Myhead->_Parent) {

  000a1	8b 45 fc	 mov	 eax, DWORD PTR _this$1$[ebp]
  000a4	8b 00		 mov	 eax, DWORD PTR [eax]
  000a6	3b 50 04	 cmp	 edx, DWORD PTR [eax+4]
  000a9	75 0b		 jne	 SHORT $LN21@Insert_nod

; 475  :             _Myhead->_Parent = _Pnode;

  000ab	89 70 04	 mov	 DWORD PTR [eax+4], esi

; 483  :         _Wherenode->_Parent = _Pnode;

  000ae	8b fb		 mov	 edi, ebx
  000b0	89 16		 mov	 DWORD PTR [esi], edx
  000b2	89 33		 mov	 DWORD PTR [ebx], esi
  000b4	eb 1d		 jmp	 SHORT $LN49@Insert_nod
$LN21@Insert_nod:

; 476  :         } else if (_Wherenode == _Wherenode->_Parent->_Left) {

  000b6	8b 03		 mov	 eax, DWORD PTR [ebx]
  000b8	3b 10		 cmp	 edx, DWORD PTR [eax]
  000ba	75 0a		 jne	 SHORT $LN23@Insert_nod

; 477  :             _Wherenode->_Parent->_Left = _Pnode;

  000bc	89 30		 mov	 DWORD PTR [eax], esi

; 483  :         _Wherenode->_Parent = _Pnode;

  000be	8b fb		 mov	 edi, ebx
  000c0	89 16		 mov	 DWORD PTR [esi], edx
  000c2	89 33		 mov	 DWORD PTR [ebx], esi
  000c4	eb 0d		 jmp	 SHORT $LN49@Insert_nod
$LN23@Insert_nod:

; 479  :             _Wherenode->_Parent->_Right = _Pnode;

  000c6	89 70 08	 mov	 DWORD PTR [eax+8], esi

; 483  :         _Wherenode->_Parent = _Pnode;

  000c9	8b fb		 mov	 edi, ebx
  000cb	89 16		 mov	 DWORD PTR [esi], edx
  000cd	89 33		 mov	 DWORD PTR [ebx], esi
  000cf	eb 02		 jmp	 SHORT $LN49@Insert_nod
$LN51@Insert_nod:
  000d1	8b f1		 mov	 esi, ecx
$LN49@Insert_nod:

; 688  :                         _Lrotate(_Pnode);
; 689  :                     }
; 690  : 
; 691  :                     _Pnode->_Parent->_Color          = _Black; // propagate red up

  000d3	c6 46 0c 01	 mov	 BYTE PTR [esi+12], 1

; 692  :                     _Pnode->_Parent->_Parent->_Color = _Red;

  000d7	8b 07		 mov	 eax, DWORD PTR [edi]
  000d9	8b 40 04	 mov	 eax, DWORD PTR [eax+4]
  000dc	c6 40 0c 00	 mov	 BYTE PTR [eax+12], 0

; 693  :                     _Rrotate(_Pnode->_Parent->_Parent);

  000e0	8b 07		 mov	 eax, DWORD PTR [edi]
  000e2	8b 48 04	 mov	 ecx, DWORD PTR [eax+4]

; 487  :         _Nodeptr _Pnode   = _Wherenode->_Left;

  000e5	8b 31		 mov	 esi, DWORD PTR [ecx]

; 488  :         _Wherenode->_Left = _Pnode->_Right;

  000e7	8b 46 08	 mov	 eax, DWORD PTR [esi+8]
  000ea	89 01		 mov	 DWORD PTR [ecx], eax

; 489  : 
; 490  :         if (!_Pnode->_Right->_Isnil) {

  000ec	8b 46 08	 mov	 eax, DWORD PTR [esi+8]
  000ef	80 78 0d 00	 cmp	 BYTE PTR [eax+13], 0
  000f3	75 03		 jne	 SHORT $LN27@Insert_nod

; 491  :             _Pnode->_Right->_Parent = _Wherenode;

  000f5	89 48 04	 mov	 DWORD PTR [eax+4], ecx
$LN27@Insert_nod:

; 492  :         }
; 493  : 
; 494  :         _Pnode->_Parent = _Wherenode->_Parent;

  000f8	8b 41 04	 mov	 eax, DWORD PTR [ecx+4]
  000fb	89 46 04	 mov	 DWORD PTR [esi+4], eax

; 495  : 
; 496  :         if (_Wherenode == _Myhead->_Parent) {

  000fe	8b 45 fc	 mov	 eax, DWORD PTR _this$1$[ebp]
  00101	8b 00		 mov	 eax, DWORD PTR [eax]
  00103	3b 48 04	 cmp	 ecx, DWORD PTR [eax+4]
  00106	75 0b		 jne	 SHORT $LN28@Insert_nod

; 497  :             _Myhead->_Parent = _Pnode;

  00108	89 70 04	 mov	 DWORD PTR [eax+4], esi

; 502  :         }
; 503  : 
; 504  :         _Pnode->_Right      = _Wherenode;

  0010b	89 4e 08	 mov	 DWORD PTR [esi+8], ecx

; 694  :                 }
; 695  :             } else { // fixup red-red in right subtree

  0010e	e9 cc 00 00 00	 jmp	 $LN52@Insert_nod
$LN28@Insert_nod:

; 498  :         } else if (_Wherenode == _Wherenode->_Parent->_Right) {

  00113	8b 41 04	 mov	 eax, DWORD PTR [ecx+4]
  00116	3b 48 08	 cmp	 ecx, DWORD PTR [eax+8]
  00119	75 0b		 jne	 SHORT $LN30@Insert_nod

; 499  :             _Wherenode->_Parent->_Right = _Pnode;

  0011b	89 70 08	 mov	 DWORD PTR [eax+8], esi

; 502  :         }
; 503  : 
; 504  :         _Pnode->_Right      = _Wherenode;

  0011e	89 4e 08	 mov	 DWORD PTR [esi+8], ecx

; 694  :                 }
; 695  :             } else { // fixup red-red in right subtree

  00121	e9 b9 00 00 00	 jmp	 $LN52@Insert_nod
$LN30@Insert_nod:

; 501  :             _Wherenode->_Parent->_Left = _Pnode;

  00126	89 30		 mov	 DWORD PTR [eax], esi

; 502  :         }
; 503  : 
; 504  :         _Pnode->_Right      = _Wherenode;

  00128	89 4e 08	 mov	 DWORD PTR [esi+8], ecx

; 694  :                 }
; 695  :             } else { // fixup red-red in right subtree

  0012b	e9 af 00 00 00	 jmp	 $LN52@Insert_nod
$LN10@Insert_nod:

; 696  :                 const auto _Parent_sibling = _Pnode->_Parent->_Parent->_Left;
; 697  :                 if (_Parent_sibling->_Color == _Red) { // parent's sibling has two red children, blacken both

  00130	80 78 0c 00	 cmp	 BYTE PTR [eax+12], 0
  00134	75 1b		 jne	 SHORT $LN15@Insert_nod
$LN53@Insert_nod:

; 674  :             }
; 675  :         }
; 676  : 
; 677  :         for (_Nodeptr _Pnode = _Newnode; _Pnode->_Parent->_Color == _Red;) {

  00136	c6 41 0c 01	 mov	 BYTE PTR [ecx+12], 1
  0013a	c6 40 0c 01	 mov	 BYTE PTR [eax+12], 1
  0013e	8b 07		 mov	 eax, DWORD PTR [edi]
  00140	8b 40 04	 mov	 eax, DWORD PTR [eax+4]
  00143	c6 40 0c 00	 mov	 BYTE PTR [eax+12], 0
  00147	8b 07		 mov	 eax, DWORD PTR [edi]
  00149	8b 50 04	 mov	 edx, DWORD PTR [eax+4]
  0014c	e9 91 00 00 00	 jmp	 $LN46@Insert_nod
$LN15@Insert_nod:

; 698  :                     _Pnode->_Parent->_Color          = _Black;
; 699  :                     _Parent_sibling->_Color          = _Black;
; 700  :                     _Pnode->_Parent->_Parent->_Color = _Red;
; 701  :                     _Pnode                           = _Pnode->_Parent->_Parent;
; 702  :                 } else { // parent's sibling has red and black children
; 703  :                     if (_Pnode == _Pnode->_Parent->_Left) { // rotate left child to right

  00151	8b 01		 mov	 eax, DWORD PTR [ecx]
  00153	3b d0		 cmp	 edx, eax
  00155	75 3e		 jne	 SHORT $LN39@Insert_nod

; 704  :                         _Pnode = _Pnode->_Parent;

  00157	8b d1		 mov	 edx, ecx

; 487  :         _Nodeptr _Pnode   = _Wherenode->_Left;

  00159	8b c8		 mov	 ecx, eax

; 488  :         _Wherenode->_Left = _Pnode->_Right;

  0015b	8b 41 08	 mov	 eax, DWORD PTR [ecx+8]
  0015e	89 02		 mov	 DWORD PTR [edx], eax

; 489  : 
; 490  :         if (!_Pnode->_Right->_Isnil) {

  00160	8b 41 08	 mov	 eax, DWORD PTR [ecx+8]
  00163	80 78 0d 00	 cmp	 BYTE PTR [eax+13], 0
  00167	75 03		 jne	 SHORT $LN34@Insert_nod

; 491  :             _Pnode->_Right->_Parent = _Wherenode;

  00169	89 50 04	 mov	 DWORD PTR [eax+4], edx
$LN34@Insert_nod:

; 492  :         }
; 493  : 
; 494  :         _Pnode->_Parent = _Wherenode->_Parent;

  0016c	8b 03		 mov	 eax, DWORD PTR [ebx]
  0016e	89 41 04	 mov	 DWORD PTR [ecx+4], eax

; 495  : 
; 496  :         if (_Wherenode == _Myhead->_Parent) {

  00171	8b 45 fc	 mov	 eax, DWORD PTR _this$1$[ebp]
  00174	8b 00		 mov	 eax, DWORD PTR [eax]
  00176	3b 50 04	 cmp	 edx, DWORD PTR [eax+4]
  00179	75 05		 jne	 SHORT $LN35@Insert_nod

; 497  :             _Myhead->_Parent = _Pnode;

  0017b	89 48 04	 mov	 DWORD PTR [eax+4], ecx
  0017e	eb 0e		 jmp	 SHORT $LN38@Insert_nod
$LN35@Insert_nod:

; 498  :         } else if (_Wherenode == _Wherenode->_Parent->_Right) {

  00180	8b 03		 mov	 eax, DWORD PTR [ebx]
  00182	3b 50 08	 cmp	 edx, DWORD PTR [eax+8]
  00185	75 05		 jne	 SHORT $LN37@Insert_nod

; 499  :             _Wherenode->_Parent->_Right = _Pnode;

  00187	89 48 08	 mov	 DWORD PTR [eax+8], ecx

; 500  :         } else {

  0018a	eb 02		 jmp	 SHORT $LN38@Insert_nod
$LN37@Insert_nod:

; 501  :             _Wherenode->_Parent->_Left = _Pnode;

  0018c	89 08		 mov	 DWORD PTR [eax], ecx
$LN38@Insert_nod:

; 502  :         }
; 503  : 
; 504  :         _Pnode->_Right      = _Wherenode;

  0018e	89 51 08	 mov	 DWORD PTR [ecx+8], edx

; 505  :         _Wherenode->_Parent = _Pnode;

  00191	8b fb		 mov	 edi, ebx
  00193	89 0b		 mov	 DWORD PTR [ebx], ecx
$LN39@Insert_nod:

; 705  :                         _Rrotate(_Pnode);
; 706  :                     }
; 707  : 
; 708  :                     _Pnode->_Parent->_Color          = _Black; // propagate red up

  00195	c6 41 0c 01	 mov	 BYTE PTR [ecx+12], 1

; 709  :                     _Pnode->_Parent->_Parent->_Color = _Red;

  00199	8b 07		 mov	 eax, DWORD PTR [edi]
  0019b	8b 40 04	 mov	 eax, DWORD PTR [eax+4]
  0019e	c6 40 0c 00	 mov	 BYTE PTR [eax+12], 0

; 710  :                     _Lrotate(_Pnode->_Parent->_Parent);

  001a2	8b 07		 mov	 eax, DWORD PTR [edi]
  001a4	8b 48 04	 mov	 ecx, DWORD PTR [eax+4]

; 465  :         _Nodeptr _Pnode    = _Wherenode->_Right;

  001a7	8b 71 08	 mov	 esi, DWORD PTR [ecx+8]

; 466  :         _Wherenode->_Right = _Pnode->_Left;

  001aa	8b 06		 mov	 eax, DWORD PTR [esi]
  001ac	89 41 08	 mov	 DWORD PTR [ecx+8], eax

; 467  : 
; 468  :         if (!_Pnode->_Left->_Isnil) {

  001af	8b 06		 mov	 eax, DWORD PTR [esi]
  001b1	80 78 0d 00	 cmp	 BYTE PTR [eax+13], 0
  001b5	75 03		 jne	 SHORT $LN41@Insert_nod

; 469  :             _Pnode->_Left->_Parent = _Wherenode;

  001b7	89 48 04	 mov	 DWORD PTR [eax+4], ecx
$LN41@Insert_nod:

; 470  :         }
; 471  : 
; 472  :         _Pnode->_Parent = _Wherenode->_Parent;

  001ba	8b 41 04	 mov	 eax, DWORD PTR [ecx+4]
  001bd	89 46 04	 mov	 DWORD PTR [esi+4], eax

; 473  : 
; 474  :         if (_Wherenode == _Myhead->_Parent) {

  001c0	8b 45 fc	 mov	 eax, DWORD PTR _this$1$[ebp]
  001c3	8b 00		 mov	 eax, DWORD PTR [eax]
  001c5	3b 48 04	 cmp	 ecx, DWORD PTR [eax+4]
  001c8	75 05		 jne	 SHORT $LN42@Insert_nod

; 475  :             _Myhead->_Parent = _Pnode;

  001ca	89 70 04	 mov	 DWORD PTR [eax+4], esi
  001cd	eb 0e		 jmp	 SHORT $LN45@Insert_nod
$LN42@Insert_nod:

; 476  :         } else if (_Wherenode == _Wherenode->_Parent->_Left) {

  001cf	8b 41 04	 mov	 eax, DWORD PTR [ecx+4]
  001d2	3b 08		 cmp	 ecx, DWORD PTR [eax]
  001d4	75 04		 jne	 SHORT $LN44@Insert_nod

; 477  :             _Wherenode->_Parent->_Left = _Pnode;

  001d6	89 30		 mov	 DWORD PTR [eax], esi

; 478  :         } else {

  001d8	eb 03		 jmp	 SHORT $LN45@Insert_nod
$LN44@Insert_nod:

; 479  :             _Wherenode->_Parent->_Right = _Pnode;

  001da	89 70 08	 mov	 DWORD PTR [eax+8], esi
$LN45@Insert_nod:

; 480  :         }
; 481  : 
; 482  :         _Pnode->_Left       = _Wherenode;

  001dd	89 0e		 mov	 DWORD PTR [esi], ecx
$LN52@Insert_nod:

; 674  :             }
; 675  :         }
; 676  : 
; 677  :         for (_Nodeptr _Pnode = _Newnode; _Pnode->_Parent->_Color == _Red;) {

  001df	89 71 04	 mov	 DWORD PTR [ecx+4], esi
$LN46@Insert_nod:
  001e2	8b 42 04	 mov	 eax, DWORD PTR [edx+4]
  001e5	80 78 0c 00	 cmp	 BYTE PTR [eax+12], 0
  001e9	0f 84 71 fe ff
	ff		 je	 $LL2@Insert_nod
  001ef	8b 4d f8	 mov	 ecx, DWORD PTR __Head$1$[ebp]
  001f2	5f		 pop	 edi
  001f3	5e		 pop	 esi
  001f4	5b		 pop	 ebx
$LN3@Insert_nod:

; 711  :                 }
; 712  :             }
; 713  :         }
; 714  : 
; 715  :         _Head->_Parent->_Color = _Black; // root is always black

  001f5	8b 41 04	 mov	 eax, DWORD PTR [ecx+4]
  001f8	c6 40 0c 01	 mov	 BYTE PTR [eax+12], 1

; 716  :         return _Newnode;

  001fc	8b 45 10	 mov	 eax, DWORD PTR __Newnode$[ebp]

; 717  :     }

  001ff	8b e5		 mov	 esp, ebp
  00201	5d		 pop	 ebp
  00202	c2 0c 00	 ret	 12			; 0000000cH
?_Insert_node@?$_Tree_val@U?$_Tree_simple_types@U?$pair@$$CBJPAVCResource@@@std@@@std@@@std@@QAEPAU?$_Tree_node@U?$pair@$$CBJPAVCResource@@@std@@PAX@2@U?$_Tree_id@PAU?$_Tree_node@U?$pair@$$CBJPAVCResource@@@std@@PAX@std@@@2@QAU32@@Z ENDP ; std::_Tree_val<std::_Tree_simple_types<std::pair<long const ,CResource *> > >::_Insert_node
_TEXT	ENDS
; Function compile flags: /Ogtp
; File C:\Program Files (x86)\Microsoft Visual Studio\2019\Professional\VC\Tools\MSVC\14.29.30133\include\xtree
; File C:\Program Files (x86)\Microsoft Visual Studio\2019\Professional\VC\Tools\MSVC\14.29.30133\include\utility
; File C:\Program Files (x86)\Microsoft Visual Studio\2019\Professional\VC\Tools\MSVC\14.29.30133\include\xtree
; File C:\Program Files (x86)\Microsoft Visual Studio\2019\Professional\VC\Tools\MSVC\14.29.30133\include\utility
; File C:\Program Files (x86)\Microsoft Visual Studio\2019\Professional\VC\Tools\MSVC\14.29.30133\include\xtree
;	COMDAT ?_Extract@?$_Tree_val@U?$_Tree_simple_types@U?$pair@$$CBJPAVCResource@@@std@@@std@@@std@@QAEPAU?$_Tree_node@U?$pair@$$CBJPAVCResource@@@std@@PAX@2@V?$_Tree_unchecked_const_iterator@V?$_Tree_val@U?$_Tree_simple_types@U?$pair@$$CBJPAVCResource@@@std@@@std@@@std@@U_Iterator_base0@2@@2@@Z
_TEXT	SEGMENT
tv1186 = -8						; size = 4
tv1182 = -8						; size = 4
tv1149 = -8						; size = 4
__Erasednode$1$ = -4					; size = 4
__Where$ = 8						; size = 4
?_Extract@?$_Tree_val@U?$_Tree_simple_types@U?$pair@$$CBJPAVCResource@@@std@@@std@@@std@@QAEPAU?$_Tree_node@U?$pair@$$CBJPAVCResource@@@std@@PAX@2@V?$_Tree_unchecked_const_iterator@V?$_Tree_val@U?$_Tree_simple_types@U?$pair@$$CBJPAVCResource@@@std@@@std@@@std@@U_Iterator_base0@2@@2@@Z PROC ; std::_Tree_val<std::_Tree_simple_types<std::pair<long const ,CResource *> > >::_Extract, COMDAT
; _this$ = ecx

; 508  :     _Nodeptr _Extract(_Unchecked_const_iterator _Where) noexcept {

  00000	55		 push	 ebp
  00001	8b ec		 mov	 ebp, esp
  00003	83 ec 08	 sub	 esp, 8

; 509  :         _Nodeptr _Erasednode = _Where._Ptr; // node to erase

  00006	8b 45 08	 mov	 eax, DWORD PTR __Where$[ebp]
  00009	53		 push	 ebx
  0000a	56		 push	 esi
  0000b	8b d9		 mov	 ebx, ecx
  0000d	89 45 fc	 mov	 DWORD PTR __Erasednode$1$[ebp], eax
  00010	57		 push	 edi

; 510  :         ++_Where; // save successor iterator for return

  00011	8d 4d 08	 lea	 ecx, DWORD PTR __Where$[ebp]
  00014	e8 00 00 00 00	 call	 ??E?$_Tree_unchecked_const_iterator@V?$_Tree_val@U?$_Tree_simple_types@U?$pair@$$CBJPAVCResource@@@std@@@std@@@std@@U_Iterator_base0@2@@std@@QAEAAV01@XZ ; std::_Tree_unchecked_const_iterator<std::_Tree_val<std::_Tree_simple_types<std::pair<long const ,CResource *> > >,std::_Iterator_base0>::operator++

; 511  : 
; 512  :         _Nodeptr _Fixnode; // the node to recolor as needed
; 513  :         _Nodeptr _Fixnodeparent; // parent of _Fixnode (which may be nil)
; 514  :         _Nodeptr _Pnode = _Erasednode;
; 515  : 
; 516  :         if (_Pnode->_Left->_Isnil) {

  00019	8b 55 fc	 mov	 edx, DWORD PTR __Erasednode$1$[ebp]
  0001c	8b 02		 mov	 eax, DWORD PTR [edx]
  0001e	8b 7a 08	 mov	 edi, DWORD PTR [edx+8]
  00021	80 78 0d 00	 cmp	 BYTE PTR [eax+13], 0
  00025	75 18		 jne	 SHORT $LN86@Extract

; 517  :             _Fixnode = _Pnode->_Right; // stitch up right subtree
; 518  :         } else if (_Pnode->_Right->_Isnil) {

  00027	80 7f 0d 00	 cmp	 BYTE PTR [edi+13], 0
  0002b	74 04		 je	 SHORT $LN7@Extract

; 519  :             _Fixnode = _Pnode->_Left; // stitch up left subtree

  0002d	8b f8		 mov	 edi, eax

; 520  :         } else { // two subtrees, must lift successor node to replace erased

  0002f	eb 0e		 jmp	 SHORT $LN86@Extract
$LN7@Extract:

; 521  :             _Pnode   = _Where._Ptr; // _Pnode is successor node

  00031	8b 4d 08	 mov	 ecx, DWORD PTR __Where$[ebp]

; 522  :             _Fixnode = _Pnode->_Right; // _Fixnode is only subtree

  00034	8b 79 08	 mov	 edi, DWORD PTR [ecx+8]
  00037	3b ca		 cmp	 ecx, edx

; 523  :         }
; 524  : 
; 525  :         if (_Pnode == _Erasednode) { // at most one subtree, relink it

  00039	0f 85 8b 00 00
	00		 jne	 $LN9@Extract
$LN86@Extract:

; 526  :             _Fixnodeparent = _Erasednode->_Parent;
; 527  :             if (!_Fixnode->_Isnil) {

  0003f	80 7f 0d 00	 cmp	 BYTE PTR [edi+13], 0
  00043	8b 72 04	 mov	 esi, DWORD PTR [edx+4]
  00046	75 03		 jne	 SHORT $LN11@Extract

; 528  :                 _Fixnode->_Parent = _Fixnodeparent; // link up

  00048	89 77 04	 mov	 DWORD PTR [edi+4], esi
$LN11@Extract:

; 529  :             }
; 530  : 
; 531  :             if (_Myhead->_Parent == _Erasednode) {

  0004b	8b 03		 mov	 eax, DWORD PTR [ebx]
  0004d	39 50 04	 cmp	 DWORD PTR [eax+4], edx
  00050	75 05		 jne	 SHORT $LN12@Extract

; 532  :                 _Myhead->_Parent = _Fixnode; // link down from root

  00052	89 78 04	 mov	 DWORD PTR [eax+4], edi
  00055	eb 0b		 jmp	 SHORT $LN15@Extract
$LN12@Extract:

; 533  :             } else if (_Fixnodeparent->_Left == _Erasednode) {

  00057	39 16		 cmp	 DWORD PTR [esi], edx
  00059	75 04		 jne	 SHORT $LN14@Extract

; 534  :                 _Fixnodeparent->_Left = _Fixnode; // link down to left

  0005b	89 3e		 mov	 DWORD PTR [esi], edi

; 535  :             } else {

  0005d	eb 03		 jmp	 SHORT $LN15@Extract
$LN14@Extract:

; 536  :                 _Fixnodeparent->_Right = _Fixnode; // link down to right

  0005f	89 7e 08	 mov	 DWORD PTR [esi+8], edi
$LN15@Extract:

; 537  :             }
; 538  : 
; 539  :             if (_Myhead->_Left == _Erasednode) {

  00062	8b 03		 mov	 eax, DWORD PTR [ebx]
  00064	39 10		 cmp	 DWORD PTR [eax], edx
  00066	75 2b		 jne	 SHORT $LN16@Extract

; 540  :                 _Myhead->_Left = _Fixnode->_Isnil ? _Fixnodeparent // smallest is parent of erased node

  00068	80 7f 0d 00	 cmp	 BYTE PTR [edi+13], 0
  0006c	74 04		 je	 SHORT $LN42@Extract
  0006e	8b d6		 mov	 edx, esi
  00070	eb 1c		 jmp	 SHORT $LN48@Extract
$LN42@Extract:

; 457  :         while (!_Pnode->_Left->_Isnil) {

  00072	8b 0f		 mov	 ecx, DWORD PTR [edi]

; 540  :                 _Myhead->_Left = _Fixnode->_Isnil ? _Fixnodeparent // smallest is parent of erased node

  00074	8b d7		 mov	 edx, edi

; 457  :         while (!_Pnode->_Left->_Isnil) {

  00076	80 79 0d 00	 cmp	 BYTE PTR [ecx+13], 0
  0007a	75 12		 jne	 SHORT $LN48@Extract
  0007c	0f 1f 40 00	 npad	 4
$LL47@Extract:
  00080	8b 01		 mov	 eax, DWORD PTR [ecx]

; 458  :             _Pnode = _Pnode->_Left;

  00082	8b d1		 mov	 edx, ecx
  00084	8b c8		 mov	 ecx, eax
  00086	80 78 0d 00	 cmp	 BYTE PTR [eax+13], 0
  0008a	74 f4		 je	 SHORT $LL47@Extract
  0008c	8b 03		 mov	 eax, DWORD PTR [ebx]
$LN48@Extract:

; 540  :                 _Myhead->_Left = _Fixnode->_Isnil ? _Fixnodeparent // smallest is parent of erased node

  0008e	89 10		 mov	 DWORD PTR [eax], edx
  00090	8b 55 fc	 mov	 edx, DWORD PTR __Erasednode$1$[ebp]
$LN16@Extract:

; 541  :                                                   : _Min(_Fixnode); // smallest in relinked subtree
; 542  :             }
; 543  : 
; 544  :             if (_Myhead->_Right == _Erasednode) {

  00093	8b 03		 mov	 eax, DWORD PTR [ebx]
  00095	39 50 08	 cmp	 DWORD PTR [eax+8], edx
  00098	75 2b		 jne	 SHORT $LN17@Extract

; 545  :                 _Myhead->_Right = _Fixnode->_Isnil ? _Fixnodeparent // largest is parent of erased node

  0009a	80 7f 0d 00	 cmp	 BYTE PTR [edi+13], 0
  0009e	74 0a		 je	 SHORT $LN44@Extract
  000a0	8b ce		 mov	 ecx, esi
  000a2	89 48 08	 mov	 DWORD PTR [eax+8], ecx

; 546  :                                                    : _Max(_Fixnode); // largest in relinked subtree
; 547  :             }
; 548  :         } else { // erased has two subtrees, _Pnode is successor to erased

  000a5	8a 52 0c	 mov	 dl, BYTE PTR [edx+12]
  000a8	eb 7c		 jmp	 SHORT $LN55@Extract
$LN44@Extract:

; 449  :         while (!_Pnode->_Right->_Isnil) {

  000aa	8b 47 08	 mov	 eax, DWORD PTR [edi+8]

; 545  :                 _Myhead->_Right = _Fixnode->_Isnil ? _Fixnodeparent // largest is parent of erased node

  000ad	8b cf		 mov	 ecx, edi

; 449  :         while (!_Pnode->_Right->_Isnil) {

  000af	80 78 0d 00	 cmp	 BYTE PTR [eax+13], 0
  000b3	75 0b		 jne	 SHORT $LN52@Extract
$LL51@Extract:

; 450  :             _Pnode = _Pnode->_Right;

  000b5	8b c8		 mov	 ecx, eax
  000b7	8b 41 08	 mov	 eax, DWORD PTR [ecx+8]
  000ba	80 78 0d 00	 cmp	 BYTE PTR [eax+13], 0
  000be	74 f5		 je	 SHORT $LL51@Extract
$LN52@Extract:
  000c0	8b 03		 mov	 eax, DWORD PTR [ebx]

; 545  :                 _Myhead->_Right = _Fixnode->_Isnil ? _Fixnodeparent // largest is parent of erased node

  000c2	89 48 08	 mov	 DWORD PTR [eax+8], ecx
$LN17@Extract:

; 546  :                                                    : _Max(_Fixnode); // largest in relinked subtree
; 547  :             }
; 548  :         } else { // erased has two subtrees, _Pnode is successor to erased

  000c5	8a 52 0c	 mov	 dl, BYTE PTR [edx+12]
  000c8	eb 5c		 jmp	 SHORT $LN55@Extract
$LN9@Extract:

; 549  :             _Erasednode->_Left->_Parent = _Pnode; // link left up

  000ca	89 48 04	 mov	 DWORD PTR [eax+4], ecx

; 550  :             _Pnode->_Left               = _Erasednode->_Left; // link successor down

  000cd	8b 02		 mov	 eax, DWORD PTR [edx]
  000cf	89 01		 mov	 DWORD PTR [ecx], eax

; 551  : 
; 552  :             if (_Pnode == _Erasednode->_Right) {

  000d1	3b 4a 08	 cmp	 ecx, DWORD PTR [edx+8]
  000d4	75 04		 jne	 SHORT $LN18@Extract

; 553  :                 _Fixnodeparent = _Pnode; // successor is next to erased

  000d6	8b f1		 mov	 esi, ecx

; 554  :             } else { // successor further down, link in place of erased

  000d8	eb 1a		 jmp	 SHORT $LN19@Extract
$LN18@Extract:

; 555  :                 _Fixnodeparent = _Pnode->_Parent; // parent is successor's
; 556  :                 if (!_Fixnode->_Isnil) {

  000da	80 7f 0d 00	 cmp	 BYTE PTR [edi+13], 0
  000de	8b 71 04	 mov	 esi, DWORD PTR [ecx+4]
  000e1	75 03		 jne	 SHORT $LN20@Extract

; 557  :                     _Fixnode->_Parent = _Fixnodeparent; // link fix up

  000e3	89 77 04	 mov	 DWORD PTR [edi+4], esi
$LN20@Extract:

; 558  :                 }
; 559  : 
; 560  :                 _Fixnodeparent->_Left        = _Fixnode; // link fix down

  000e6	89 3e		 mov	 DWORD PTR [esi], edi

; 561  :                 _Pnode->_Right               = _Erasednode->_Right; // link next down

  000e8	8b 42 08	 mov	 eax, DWORD PTR [edx+8]
  000eb	89 41 08	 mov	 DWORD PTR [ecx+8], eax

; 562  :                 _Erasednode->_Right->_Parent = _Pnode; // right up

  000ee	8b 42 08	 mov	 eax, DWORD PTR [edx+8]
  000f1	89 48 04	 mov	 DWORD PTR [eax+4], ecx
$LN19@Extract:

; 563  :             }
; 564  : 
; 565  :             if (_Myhead->_Parent == _Erasednode) {

  000f4	8b 03		 mov	 eax, DWORD PTR [ebx]
  000f6	39 50 04	 cmp	 DWORD PTR [eax+4], edx
  000f9	75 05		 jne	 SHORT $LN21@Extract

; 566  :                 _Myhead->_Parent = _Pnode; // link down from root

  000fb	89 48 04	 mov	 DWORD PTR [eax+4], ecx
  000fe	eb 0e		 jmp	 SHORT $LN24@Extract
$LN21@Extract:

; 567  :             } else if (_Erasednode->_Parent->_Left == _Erasednode) {

  00100	8b 42 04	 mov	 eax, DWORD PTR [edx+4]
  00103	39 10		 cmp	 DWORD PTR [eax], edx
  00105	75 04		 jne	 SHORT $LN23@Extract

; 568  :                 _Erasednode->_Parent->_Left = _Pnode; // link down to left

  00107	89 08		 mov	 DWORD PTR [eax], ecx

; 569  :             } else {

  00109	eb 03		 jmp	 SHORT $LN24@Extract
$LN23@Extract:

; 570  :                 _Erasednode->_Parent->_Right = _Pnode; // link down to right

  0010b	89 48 08	 mov	 DWORD PTR [eax+8], ecx
$LN24@Extract:

; 573  :             _Pnode->_Parent = _Erasednode->_Parent; // link successor up

  0010e	8b 42 04	 mov	 eax, DWORD PTR [edx+4]
; File C:\Program Files (x86)\Microsoft Visual Studio\2019\Professional\VC\Tools\MSVC\14.29.30133\include\utility

; 104  :     _Ty _Tmp = _STD move(_Left);

  00111	8a 51 0c	 mov	 dl, BYTE PTR [ecx+12]
; File C:\Program Files (x86)\Microsoft Visual Studio\2019\Professional\VC\Tools\MSVC\14.29.30133\include\xtree

; 573  :             _Pnode->_Parent = _Erasednode->_Parent; // link successor up

  00114	89 41 04	 mov	 DWORD PTR [ecx+4], eax
; File C:\Program Files (x86)\Microsoft Visual Studio\2019\Professional\VC\Tools\MSVC\14.29.30133\include\utility

; 105  :     _Left    = _STD move(_Right);

  00117	8b 45 fc	 mov	 eax, DWORD PTR __Erasednode$1$[ebp]
  0011a	8a 40 0c	 mov	 al, BYTE PTR [eax+12]
  0011d	88 41 0c	 mov	 BYTE PTR [ecx+12], al

; 106  :     _Right   = _STD move(_Tmp);

  00120	8b 45 fc	 mov	 eax, DWORD PTR __Erasednode$1$[ebp]
  00123	88 50 0c	 mov	 BYTE PTR [eax+12], dl
$LN55@Extract:
; File C:\Program Files (x86)\Microsoft Visual Studio\2019\Professional\VC\Tools\MSVC\14.29.30133\include\xtree

; 577  :         if (_Erasednode->_Color == _Black) { // erasing black link, must recolor/rebalance tree

  00126	80 fa 01	 cmp	 dl, 1
  00129	0f 85 46 01 00
	00		 jne	 $LN25@Extract

; 578  :             for (; _Fixnode != _Myhead->_Parent && _Fixnode->_Color == _Black; _Fixnodeparent = _Fixnode->_Parent) {

  0012f	8b 03		 mov	 eax, DWORD PTR [ebx]
  00131	3b 78 04	 cmp	 edi, DWORD PTR [eax+4]
  00134	0f 84 37 01 00
	00		 je	 $LN3@Extract
  0013a	66 0f 1f 44 00
	00		 npad	 6
$LL4@Extract:
  00140	80 7f 0c 01	 cmp	 BYTE PTR [edi+12], 1
  00144	89 75 f8	 mov	 DWORD PTR tv1186[ebp], esi
  00147	0f 85 24 01 00
	00		 jne	 $LN3@Extract

; 579  :                 if (_Fixnode == _Fixnodeparent->_Left) { // fixup left subtree

  0014d	8b 0e		 mov	 ecx, DWORD PTR [esi]
  0014f	3b f9		 cmp	 edi, ecx
  00151	0f 85 a2 00 00
	00		 jne	 $LN26@Extract

; 580  :                     _Pnode = _Fixnodeparent->_Right;

  00157	8b 4e 08	 mov	 ecx, DWORD PTR [esi+8]

; 581  :                     if (_Pnode->_Color == _Red) { // rotate red up from right subtree

  0015a	80 79 0c 00	 cmp	 BYTE PTR [ecx+12], 0
  0015e	75 43		 jne	 SHORT $LN87@Extract

; 582  :                         _Pnode->_Color         = _Black;

  00160	c6 41 0c 01	 mov	 BYTE PTR [ecx+12], 1

; 465  :         _Nodeptr _Pnode    = _Wherenode->_Right;

  00164	8b 4e 08	 mov	 ecx, DWORD PTR [esi+8]

; 583  :                         _Fixnodeparent->_Color = _Red;

  00167	c6 46 0c 00	 mov	 BYTE PTR [esi+12], 0

; 466  :         _Wherenode->_Right = _Pnode->_Left;

  0016b	8b 01		 mov	 eax, DWORD PTR [ecx]
  0016d	89 46 08	 mov	 DWORD PTR [esi+8], eax

; 467  : 
; 468  :         if (!_Pnode->_Left->_Isnil) {

  00170	8b 01		 mov	 eax, DWORD PTR [ecx]
  00172	80 78 0d 00	 cmp	 BYTE PTR [eax+13], 0
  00176	75 03		 jne	 SHORT $LN57@Extract

; 469  :             _Pnode->_Left->_Parent = _Wherenode;

  00178	89 70 04	 mov	 DWORD PTR [eax+4], esi
$LN57@Extract:

; 470  :         }
; 471  : 
; 472  :         _Pnode->_Parent = _Wherenode->_Parent;

  0017b	8b 46 04	 mov	 eax, DWORD PTR [esi+4]
  0017e	89 41 04	 mov	 DWORD PTR [ecx+4], eax

; 473  : 
; 474  :         if (_Wherenode == _Myhead->_Parent) {

  00181	8b 03		 mov	 eax, DWORD PTR [ebx]
  00183	3b 70 04	 cmp	 esi, DWORD PTR [eax+4]
  00186	75 05		 jne	 SHORT $LN58@Extract

; 475  :             _Myhead->_Parent = _Pnode;

  00188	89 48 04	 mov	 DWORD PTR [eax+4], ecx
  0018b	eb 0e		 jmp	 SHORT $LN61@Extract
$LN58@Extract:

; 476  :         } else if (_Wherenode == _Wherenode->_Parent->_Left) {

  0018d	8b 46 04	 mov	 eax, DWORD PTR [esi+4]
  00190	3b 30		 cmp	 esi, DWORD PTR [eax]
  00192	75 04		 jne	 SHORT $LN60@Extract

; 477  :             _Wherenode->_Parent->_Left = _Pnode;

  00194	89 08		 mov	 DWORD PTR [eax], ecx

; 478  :         } else {

  00196	eb 03		 jmp	 SHORT $LN61@Extract
$LN60@Extract:

; 479  :             _Wherenode->_Parent->_Right = _Pnode;

  00198	89 48 08	 mov	 DWORD PTR [eax+8], ecx
$LN61@Extract:

; 480  :         }
; 481  : 
; 482  :         _Pnode->_Left       = _Wherenode;

  0019b	89 31		 mov	 DWORD PTR [ecx], esi

; 483  :         _Wherenode->_Parent = _Pnode;

  0019d	89 4e 04	 mov	 DWORD PTR [esi+4], ecx

; 584  :                         _Lrotate(_Fixnodeparent);
; 585  :                         _Pnode = _Fixnodeparent->_Right;

  001a0	8b 4e 08	 mov	 ecx, DWORD PTR [esi+8]
$LN87@Extract:

; 586  :                     }
; 587  : 
; 588  :                     if (_Pnode->_Isnil) {

  001a3	80 79 0d 00	 cmp	 BYTE PTR [ecx+13], 0
  001a7	0f 85 b1 00 00
	00		 jne	 $LN2@Extract

; 589  :                         _Fixnode = _Fixnodeparent; // shouldn't happen
; 590  :                     } else if (_Pnode->_Left->_Color == _Black
; 591  :                                && _Pnode->_Right->_Color == _Black) { // redden right subtree with black children

  001ad	8b 11		 mov	 edx, DWORD PTR [ecx]
  001af	80 7a 0c 01	 cmp	 BYTE PTR [edx+12], 1
  001b3	75 0d		 jne	 SHORT $LN89@Extract
  001b5	8b 41 08	 mov	 eax, DWORD PTR [ecx+8]
  001b8	80 78 0c 01	 cmp	 BYTE PTR [eax+12], 1
  001bc	0f 84 98 00 00
	00		 je	 $LN93@Extract
$LN89@Extract:

; 592  :                         _Pnode->_Color = _Red;
; 593  :                         _Fixnode       = _Fixnodeparent;
; 594  :                     } else { // must rearrange right subtree
; 595  :                         if (_Pnode->_Right->_Color == _Black) { // rotate red up from left sub-subtree

  001c2	8b 41 08	 mov	 eax, DWORD PTR [ecx+8]
  001c5	80 78 0c 01	 cmp	 BYTE PTR [eax+12], 1
  001c9	75 13		 jne	 SHORT $LN33@Extract

; 596  :                             _Pnode->_Left->_Color = _Black;

  001cb	c6 42 0c 01	 mov	 BYTE PTR [edx+12], 1

; 597  :                             _Pnode->_Color        = _Red;

  001cf	c6 41 0c 00	 mov	 BYTE PTR [ecx+12], 0

; 598  :                             _Rrotate(_Pnode);

  001d3	51		 push	 ecx
  001d4	8b cb		 mov	 ecx, ebx
  001d6	e8 00 00 00 00	 call	 ?_Rrotate@?$_Tree_val@U?$_Tree_simple_types@U?$pair@$$CBJPAVCResource@@@std@@@std@@@std@@QAEXPAU?$_Tree_node@U?$pair@$$CBJPAVCResource@@@std@@PAX@2@@Z ; std::_Tree_val<std::_Tree_simple_types<std::pair<long const ,CResource *> > >::_Rrotate

; 599  :                             _Pnode = _Fixnodeparent->_Right;

  001db	8b 4e 08	 mov	 ecx, DWORD PTR [esi+8]
$LN33@Extract:

; 600  :                         }
; 601  : 
; 602  :                         _Pnode->_Color         = _Fixnodeparent->_Color;

  001de	8a 46 0c	 mov	 al, BYTE PTR [esi+12]
  001e1	88 41 0c	 mov	 BYTE PTR [ecx+12], al

; 603  :                         _Fixnodeparent->_Color = _Black;

  001e4	c6 46 0c 01	 mov	 BYTE PTR [esi+12], 1

; 604  :                         _Pnode->_Right->_Color = _Black;

  001e8	8b 41 08	 mov	 eax, DWORD PTR [ecx+8]

; 605  :                         _Lrotate(_Fixnodeparent);

  001eb	8b cb		 mov	 ecx, ebx
  001ed	56		 push	 esi
  001ee	c6 40 0c 01	 mov	 BYTE PTR [eax+12], 1
  001f2	e8 00 00 00 00	 call	 ?_Lrotate@?$_Tree_val@U?$_Tree_simple_types@U?$pair@$$CBJPAVCResource@@@std@@@std@@@std@@QAEXPAU?$_Tree_node@U?$pair@$$CBJPAVCResource@@@std@@PAX@2@@Z ; std::_Tree_val<std::_Tree_simple_types<std::pair<long const ,CResource *> > >::_Lrotate

; 606  :                         break; // tree now recolored/rebalanced

  001f7	eb 78		 jmp	 SHORT $LN3@Extract
$LN26@Extract:

; 607  :                     }
; 608  :                 } else { // fixup right subtree
; 609  :                     _Pnode = _Fixnodeparent->_Left;
; 610  :                     if (_Pnode->_Color == _Red) { // rotate red up from left subtree

  001f9	80 79 0c 00	 cmp	 BYTE PTR [ecx+12], 0
  001fd	75 44		 jne	 SHORT $LN88@Extract

; 611  :                         _Pnode->_Color         = _Black;

  001ff	c6 41 0c 01	 mov	 BYTE PTR [ecx+12], 1

; 487  :         _Nodeptr _Pnode   = _Wherenode->_Left;

  00203	8b 0e		 mov	 ecx, DWORD PTR [esi]

; 612  :                         _Fixnodeparent->_Color = _Red;

  00205	c6 46 0c 00	 mov	 BYTE PTR [esi+12], 0

; 488  :         _Wherenode->_Left = _Pnode->_Right;

  00209	8b 41 08	 mov	 eax, DWORD PTR [ecx+8]
  0020c	89 06		 mov	 DWORD PTR [esi], eax

; 489  : 
; 490  :         if (!_Pnode->_Right->_Isnil) {

  0020e	8b 41 08	 mov	 eax, DWORD PTR [ecx+8]
  00211	80 78 0d 00	 cmp	 BYTE PTR [eax+13], 0
  00215	75 03		 jne	 SHORT $LN64@Extract

; 491  :             _Pnode->_Right->_Parent = _Wherenode;

  00217	89 70 04	 mov	 DWORD PTR [eax+4], esi
$LN64@Extract:

; 492  :         }
; 493  : 
; 494  :         _Pnode->_Parent = _Wherenode->_Parent;

  0021a	8b 46 04	 mov	 eax, DWORD PTR [esi+4]
  0021d	89 41 04	 mov	 DWORD PTR [ecx+4], eax

; 495  : 
; 496  :         if (_Wherenode == _Myhead->_Parent) {

  00220	8b 03		 mov	 eax, DWORD PTR [ebx]
  00222	3b 70 04	 cmp	 esi, DWORD PTR [eax+4]
  00225	75 05		 jne	 SHORT $LN65@Extract

; 497  :             _Myhead->_Parent = _Pnode;

  00227	89 48 04	 mov	 DWORD PTR [eax+4], ecx
  0022a	eb 0f		 jmp	 SHORT $LN68@Extract
$LN65@Extract:

; 498  :         } else if (_Wherenode == _Wherenode->_Parent->_Right) {

  0022c	8b 46 04	 mov	 eax, DWORD PTR [esi+4]
  0022f	3b 70 08	 cmp	 esi, DWORD PTR [eax+8]
  00232	75 05		 jne	 SHORT $LN67@Extract

; 499  :             _Wherenode->_Parent->_Right = _Pnode;

  00234	89 48 08	 mov	 DWORD PTR [eax+8], ecx

; 500  :         } else {

  00237	eb 02		 jmp	 SHORT $LN68@Extract
$LN67@Extract:

; 501  :             _Wherenode->_Parent->_Left = _Pnode;

  00239	89 08		 mov	 DWORD PTR [eax], ecx
$LN68@Extract:

; 502  :         }
; 503  : 
; 504  :         _Pnode->_Right      = _Wherenode;

  0023b	89 71 08	 mov	 DWORD PTR [ecx+8], esi

; 505  :         _Wherenode->_Parent = _Pnode;

  0023e	89 4e 04	 mov	 DWORD PTR [esi+4], ecx

; 613  :                         _Rrotate(_Fixnodeparent);
; 614  :                         _Pnode = _Fixnodeparent->_Left;

  00241	8b 0e		 mov	 ecx, DWORD PTR [esi]
$LN88@Extract:

; 615  :                     }
; 616  : 
; 617  :                     if (_Pnode->_Isnil) {

  00243	80 79 0d 00	 cmp	 BYTE PTR [ecx+13], 0
  00247	75 15		 jne	 SHORT $LN2@Extract

; 618  :                         _Fixnode = _Fixnodeparent; // shouldn't happen
; 619  :                     } else if (_Pnode->_Right->_Color == _Black
; 620  :                                && _Pnode->_Left->_Color == _Black) { // redden left subtree with black children

  00249	8b 51 08	 mov	 edx, DWORD PTR [ecx+8]
  0024c	80 7a 0c 01	 cmp	 BYTE PTR [edx+12], 1
  00250	75 3a		 jne	 SHORT $LN90@Extract
  00252	8b 01		 mov	 eax, DWORD PTR [ecx]
  00254	80 78 0c 01	 cmp	 BYTE PTR [eax+12], 1
  00258	75 32		 jne	 SHORT $LN90@Extract
$LN93@Extract:

; 578  :             for (; _Fixnode != _Myhead->_Parent && _Fixnode->_Color == _Black; _Fixnodeparent = _Fixnode->_Parent) {

  0025a	c6 41 0c 00	 mov	 BYTE PTR [ecx+12], 0
$LN2@Extract:
  0025e	8b 03		 mov	 eax, DWORD PTR [ebx]
  00260	8b 4d f8	 mov	 ecx, DWORD PTR tv1186[ebp]
  00263	8b f9		 mov	 edi, ecx
  00265	8b 76 04	 mov	 esi, DWORD PTR [esi+4]
  00268	3b 48 04	 cmp	 ecx, DWORD PTR [eax+4]
  0026b	0f 85 cf fe ff
	ff		 jne	 $LL4@Extract
$LN3@Extract:

; 635  :                         break; // tree now recolored/rebalanced
; 636  :                     }
; 637  :                 }
; 638  :             }
; 639  : 
; 640  :             _Fixnode->_Color = _Black; // stopping node is black

  00271	c6 47 0c 01	 mov	 BYTE PTR [edi+12], 1
$LN25@Extract:

; 641  :         }
; 642  : 
; 643  :         if (0 < _Mysize) {

  00275	8b 4b 04	 mov	 ecx, DWORD PTR [ebx+4]
  00278	8b 45 fc	 mov	 eax, DWORD PTR __Erasednode$1$[ebp]
  0027b	85 c9		 test	 ecx, ecx
  0027d	74 04		 je	 SHORT $LN40@Extract

; 644  :             --_Mysize;

  0027f	49		 dec	 ecx
  00280	89 4b 04	 mov	 DWORD PTR [ebx+4], ecx
$LN40@Extract:

; 645  :         }
; 646  : 
; 647  :         return _Erasednode;
; 648  :     }

  00283	5f		 pop	 edi
  00284	5e		 pop	 esi
  00285	5b		 pop	 ebx
  00286	8b e5		 mov	 esp, ebp
  00288	5d		 pop	 ebp
  00289	c2 04 00	 ret	 4
$LN90@Extract:

; 621  :                         _Pnode->_Color = _Red;
; 622  :                         _Fixnode       = _Fixnodeparent;
; 623  :                     } else { // must rearrange left subtree
; 624  :                         if (_Pnode->_Left->_Color == _Black) { // rotate red up from right sub-subtree

  0028c	8b 01		 mov	 eax, DWORD PTR [ecx]
  0028e	80 78 0c 01	 cmp	 BYTE PTR [eax+12], 1
  00292	75 12		 jne	 SHORT $LN39@Extract

; 625  :                             _Pnode->_Right->_Color = _Black;

  00294	c6 42 0c 01	 mov	 BYTE PTR [edx+12], 1

; 626  :                             _Pnode->_Color         = _Red;

  00298	c6 41 0c 00	 mov	 BYTE PTR [ecx+12], 0

; 627  :                             _Lrotate(_Pnode);

  0029c	51		 push	 ecx
  0029d	8b cb		 mov	 ecx, ebx
  0029f	e8 00 00 00 00	 call	 ?_Lrotate@?$_Tree_val@U?$_Tree_simple_types@U?$pair@$$CBJPAVCResource@@@std@@@std@@@std@@QAEXPAU?$_Tree_node@U?$pair@$$CBJPAVCResource@@@std@@PAX@2@@Z ; std::_Tree_val<std::_Tree_simple_types<std::pair<long const ,CResource *> > >::_Lrotate

; 628  :                             _Pnode = _Fixnodeparent->_Left;

  002a4	8b 0e		 mov	 ecx, DWORD PTR [esi]
$LN39@Extract:

; 629  :                         }
; 630  : 
; 631  :                         _Pnode->_Color         = _Fixnodeparent->_Color;

  002a6	8a 46 0c	 mov	 al, BYTE PTR [esi+12]
  002a9	88 41 0c	 mov	 BYTE PTR [ecx+12], al

; 632  :                         _Fixnodeparent->_Color = _Black;

  002ac	c6 46 0c 01	 mov	 BYTE PTR [esi+12], 1

; 633  :                         _Pnode->_Left->_Color  = _Black;

  002b0	8b 01		 mov	 eax, DWORD PTR [ecx]

; 634  :                         _Rrotate(_Fixnodeparent);

  002b2	8b cb		 mov	 ecx, ebx
  002b4	56		 push	 esi
  002b5	c6 40 0c 01	 mov	 BYTE PTR [eax+12], 1
  002b9	e8 00 00 00 00	 call	 ?_Rrotate@?$_Tree_val@U?$_Tree_simple_types@U?$pair@$$CBJPAVCResource@@@std@@@std@@@std@@QAEXPAU?$_Tree_node@U?$pair@$$CBJPAVCResource@@@std@@PAX@2@@Z ; std::_Tree_val<std::_Tree_simple_types<std::pair<long const ,CResource *> > >::_Rrotate
  002be	eb b1		 jmp	 SHORT $LN3@Extract
?_Extract@?$_Tree_val@U?$_Tree_simple_types@U?$pair@$$CBJPAVCResource@@@std@@@std@@@std@@QAEPAU?$_Tree_node@U?$pair@$$CBJPAVCResource@@@std@@PAX@2@V?$_Tree_unchecked_const_iterator@V?$_Tree_val@U?$_Tree_simple_types@U?$pair@$$CBJPAVCResource@@@std@@@std@@@std@@U_Iterator_base0@2@@2@@Z ENDP ; std::_Tree_val<std::_Tree_simple_types<std::pair<long const ,CResource *> > >::_Extract
_TEXT	ENDS
; Function compile flags: /Ogtp
; File C:\Program Files (x86)\Microsoft Visual Studio\2019\Professional\VC\Tools\MSVC\14.29.30133\include\xtree
;	COMDAT ?_Rrotate@?$_Tree_val@U?$_Tree_simple_types@U?$pair@$$CBJPAVCResource@@@std@@@std@@@std@@QAEXPAU?$_Tree_node@U?$pair@$$CBJPAVCResource@@@std@@PAX@2@@Z
_TEXT	SEGMENT
__Wherenode$ = 8					; size = 4
?_Rrotate@?$_Tree_val@U?$_Tree_simple_types@U?$pair@$$CBJPAVCResource@@@std@@@std@@@std@@QAEXPAU?$_Tree_node@U?$pair@$$CBJPAVCResource@@@std@@PAX@2@@Z PROC ; std::_Tree_val<std::_Tree_simple_types<std::pair<long const ,CResource *> > >::_Rrotate, COMDAT
; _this$ = ecx

; 486  :     void _Rrotate(_Nodeptr _Wherenode) noexcept { // promote left node to root of subtree

  00000	55		 push	 ebp
  00001	8b ec		 mov	 ebp, esp

; 487  :         _Nodeptr _Pnode   = _Wherenode->_Left;

  00003	8b 55 08	 mov	 edx, DWORD PTR __Wherenode$[ebp]
  00006	56		 push	 esi
  00007	8b 32		 mov	 esi, DWORD PTR [edx]

; 488  :         _Wherenode->_Left = _Pnode->_Right;

  00009	8b 46 08	 mov	 eax, DWORD PTR [esi+8]
  0000c	89 02		 mov	 DWORD PTR [edx], eax

; 489  : 
; 490  :         if (!_Pnode->_Right->_Isnil) {

  0000e	8b 46 08	 mov	 eax, DWORD PTR [esi+8]
  00011	80 78 0d 00	 cmp	 BYTE PTR [eax+13], 0
  00015	75 03		 jne	 SHORT $LN2@Rrotate

; 491  :             _Pnode->_Right->_Parent = _Wherenode;

  00017	89 50 04	 mov	 DWORD PTR [eax+4], edx
$LN2@Rrotate:

; 492  :         }
; 493  : 
; 494  :         _Pnode->_Parent = _Wherenode->_Parent;

  0001a	8b 42 04	 mov	 eax, DWORD PTR [edx+4]
  0001d	89 46 04	 mov	 DWORD PTR [esi+4], eax

; 495  : 
; 496  :         if (_Wherenode == _Myhead->_Parent) {

  00020	8b 01		 mov	 eax, DWORD PTR [ecx]
  00022	3b 50 04	 cmp	 edx, DWORD PTR [eax+4]
  00025	75 0e		 jne	 SHORT $LN3@Rrotate

; 497  :             _Myhead->_Parent = _Pnode;

  00027	89 70 04	 mov	 DWORD PTR [eax+4], esi

; 502  :         }
; 503  : 
; 504  :         _Pnode->_Right      = _Wherenode;
; 505  :         _Wherenode->_Parent = _Pnode;
; 506  :     }

  0002a	89 56 08	 mov	 DWORD PTR [esi+8], edx
  0002d	89 72 04	 mov	 DWORD PTR [edx+4], esi
  00030	5e		 pop	 esi
  00031	5d		 pop	 ebp
  00032	c2 04 00	 ret	 4
$LN3@Rrotate:

; 498  :         } else if (_Wherenode == _Wherenode->_Parent->_Right) {

  00035	8b 42 04	 mov	 eax, DWORD PTR [edx+4]
  00038	3b 50 08	 cmp	 edx, DWORD PTR [eax+8]
  0003b	75 0e		 jne	 SHORT $LN5@Rrotate

; 499  :             _Wherenode->_Parent->_Right = _Pnode;

  0003d	89 70 08	 mov	 DWORD PTR [eax+8], esi

; 502  :         }
; 503  : 
; 504  :         _Pnode->_Right      = _Wherenode;
; 505  :         _Wherenode->_Parent = _Pnode;
; 506  :     }

  00040	89 56 08	 mov	 DWORD PTR [esi+8], edx
  00043	89 72 04	 mov	 DWORD PTR [edx+4], esi
  00046	5e		 pop	 esi
  00047	5d		 pop	 ebp
  00048	c2 04 00	 ret	 4
$LN5@Rrotate:

; 500  :         } else {
; 501  :             _Wherenode->_Parent->_Left = _Pnode;

  0004b	89 30		 mov	 DWORD PTR [eax], esi

; 502  :         }
; 503  : 
; 504  :         _Pnode->_Right      = _Wherenode;
; 505  :         _Wherenode->_Parent = _Pnode;
; 506  :     }

  0004d	89 56 08	 mov	 DWORD PTR [esi+8], edx
  00050	89 72 04	 mov	 DWORD PTR [edx+4], esi
  00053	5e		 pop	 esi
  00054	5d		 pop	 ebp
  00055	c2 04 00	 ret	 4
?_Rrotate@?$_Tree_val@U?$_Tree_simple_types@U?$pair@$$CBJPAVCResource@@@std@@@std@@@std@@QAEXPAU?$_Tree_node@U?$pair@$$CBJPAVCResource@@@std@@PAX@2@@Z ENDP ; std::_Tree_val<std::_Tree_simple_types<std::pair<long const ,CResource *> > >::_Rrotate
_TEXT	ENDS
; Function compile flags: /Ogtp
; File C:\Program Files (x86)\Microsoft Visual Studio\2019\Professional\VC\Tools\MSVC\14.29.30133\include\xtree
;	COMDAT ?_Lrotate@?$_Tree_val@U?$_Tree_simple_types@U?$pair@$$CBJPAVCResource@@@std@@@std@@@std@@QAEXPAU?$_Tree_node@U?$pair@$$CBJPAVCResource@@@std@@PAX@2@@Z
_TEXT	SEGMENT
__Wherenode$ = 8					; size = 4
?_Lrotate@?$_Tree_val@U?$_Tree_simple_types@U?$pair@$$CBJPAVCResource@@@std@@@std@@@std@@QAEXPAU?$_Tree_node@U?$pair@$$CBJPAVCResource@@@std@@PAX@2@@Z PROC ; std::_Tree_val<std::_Tree_simple_types<std::pair<long const ,CResource *> > >::_Lrotate, COMDAT
; _this$ = ecx

; 464  :     void _Lrotate(_Nodeptr _Wherenode) noexcept { // promote right node to root of subtree

  00000	55		 push	 ebp
  00001	8b ec		 mov	 ebp, esp

; 465  :         _Nodeptr _Pnode    = _Wherenode->_Right;

  00003	8b 55 08	 mov	 edx, DWORD PTR __Wherenode$[ebp]
  00006	56		 push	 esi
  00007	8b 72 08	 mov	 esi, DWORD PTR [edx+8]

; 466  :         _Wherenode->_Right = _Pnode->_Left;

  0000a	8b 06		 mov	 eax, DWORD PTR [esi]
  0000c	89 42 08	 mov	 DWORD PTR [edx+8], eax

; 467  : 
; 468  :         if (!_Pnode->_Left->_Isnil) {

  0000f	8b 06		 mov	 eax, DWORD PTR [esi]
  00011	80 78 0d 00	 cmp	 BYTE PTR [eax+13], 0
  00015	75 03		 jne	 SHORT $LN2@Lrotate

; 469  :             _Pnode->_Left->_Parent = _Wherenode;

  00017	89 50 04	 mov	 DWORD PTR [eax+4], edx
$LN2@Lrotate:

; 470  :         }
; 471  : 
; 472  :         _Pnode->_Parent = _Wherenode->_Parent;

  0001a	8b 42 04	 mov	 eax, DWORD PTR [edx+4]
  0001d	89 46 04	 mov	 DWORD PTR [esi+4], eax

; 473  : 
; 474  :         if (_Wherenode == _Myhead->_Parent) {

  00020	8b 01		 mov	 eax, DWORD PTR [ecx]
  00022	3b 50 04	 cmp	 edx, DWORD PTR [eax+4]
  00025	75 0d		 jne	 SHORT $LN3@Lrotate

; 475  :             _Myhead->_Parent = _Pnode;

  00027	89 70 04	 mov	 DWORD PTR [eax+4], esi

; 480  :         }
; 481  : 
; 482  :         _Pnode->_Left       = _Wherenode;
; 483  :         _Wherenode->_Parent = _Pnode;
; 484  :     }

  0002a	89 16		 mov	 DWORD PTR [esi], edx
  0002c	89 72 04	 mov	 DWORD PTR [edx+4], esi
  0002f	5e		 pop	 esi
  00030	5d		 pop	 ebp
  00031	c2 04 00	 ret	 4
$LN3@Lrotate:

; 476  :         } else if (_Wherenode == _Wherenode->_Parent->_Left) {

  00034	8b 42 04	 mov	 eax, DWORD PTR [edx+4]
  00037	3b 10		 cmp	 edx, DWORD PTR [eax]
  00039	75 0c		 jne	 SHORT $LN5@Lrotate

; 477  :             _Wherenode->_Parent->_Left = _Pnode;

  0003b	89 30		 mov	 DWORD PTR [eax], esi

; 480  :         }
; 481  : 
; 482  :         _Pnode->_Left       = _Wherenode;
; 483  :         _Wherenode->_Parent = _Pnode;
; 484  :     }

  0003d	89 16		 mov	 DWORD PTR [esi], edx
  0003f	89 72 04	 mov	 DWORD PTR [edx+4], esi
  00042	5e		 pop	 esi
  00043	5d		 pop	 ebp
  00044	c2 04 00	 ret	 4
$LN5@Lrotate:

; 478  :         } else {
; 479  :             _Wherenode->_Parent->_Right = _Pnode;

  00047	89 70 08	 mov	 DWORD PTR [eax+8], esi

; 480  :         }
; 481  : 
; 482  :         _Pnode->_Left       = _Wherenode;
; 483  :         _Wherenode->_Parent = _Pnode;
; 484  :     }

  0004a	89 16		 mov	 DWORD PTR [esi], edx
  0004c	89 72 04	 mov	 DWORD PTR [edx+4], esi
  0004f	5e		 pop	 esi
  00050	5d		 pop	 ebp
  00051	c2 04 00	 ret	 4
?_Lrotate@?$_Tree_val@U?$_Tree_simple_types@U?$pair@$$CBJPAVCResource@@@std@@@std@@@std@@QAEXPAU?$_Tree_node@U?$pair@$$CBJPAVCResource@@@std@@PAX@2@@Z ENDP ; std::_Tree_val<std::_Tree_simple_types<std::pair<long const ,CResource *> > >::_Lrotate
_TEXT	ENDS
; Function compile flags: /Ogtp
; File C:\Program Files (x86)\Microsoft Visual Studio\2019\Professional\VC\Tools\MSVC\14.29.30133\include\xtree
; File C:\Program Files (x86)\Microsoft Visual Studio\2019\Professional\VC\Tools\MSVC\14.29.30133\include\utility
; File C:\Program Files (x86)\Microsoft Visual Studio\2019\Professional\VC\Tools\MSVC\14.29.30133\include\xmemory
; File C:\Program Files (x86)\Microsoft Visual Studio\2019\Professional\VC\Tools\MSVC\14.29.30133\include\xtree
; File C:\Program Files (x86)\Microsoft Visual Studio\2019\Professional\VC\Tools\MSVC\14.29.30133\include\xmemory
; File C:\Program Files (x86)\Microsoft Visual Studio\2019\Professional\VC\Tools\MSVC\14.29.30133\include\xtree
;	COMDAT ??1?$_Tree@V?$_Tmap_traits@JPAVCResource@@U?$less@J@std@@V?$allocator@U?$pair@$$CBJPAVCResource@@@std@@@3@$0A@@std@@@std@@QAE@XZ
_TEXT	SEGMENT
??1?$_Tree@V?$_Tmap_traits@JPAVCResource@@U?$less@J@std@@V?$allocator@U?$pair@$$CBJPAVCResource@@@std@@@3@$0A@@std@@@std@@QAE@XZ PROC ; std::_Tree<std::_Tmap_traits<long,CResource *,std::less<long>,std::allocator<std::pair<long const ,CResource *> >,0> >::~_Tree<std::_Tmap_traits<long,CResource *,std::less<long>,std::allocator<std::pair<long const ,CResource *> >,0> >, COMDAT
; _this$ = ecx

; 1092 :     ~_Tree() noexcept {

  00000	56		 push	 esi
  00001	57		 push	 edi
  00002	8b f9		 mov	 edi, ecx

; 758  :         _Erase_tree(_Al, _Myhead->_Parent);

  00004	8b 07		 mov	 eax, DWORD PTR [edi]
  00006	8b 70 04	 mov	 esi, DWORD PTR [eax+4]

; 749  :         while (!_Rootnode->_Isnil) { // free subtrees, then node

  00009	80 7e 0d 00	 cmp	 BYTE PTR [esi+13], 0
  0000d	75 23		 jne	 SHORT $LN7@Tree
  0000f	90		 npad	 1
$LL6@Tree:

; 750  :             _Erase_tree(_Al, _Rootnode->_Right);

  00010	ff 76 08	 push	 DWORD PTR [esi+8]
  00013	8b cf		 mov	 ecx, edi
  00015	57		 push	 edi
  00016	e8 00 00 00 00	 call	 ??$_Erase_tree@V?$allocator@U?$_Tree_node@U?$pair@$$CBJPAVCResource@@@std@@PAX@std@@@std@@@?$_Tree_val@U?$_Tree_simple_types@U?$pair@$$CBJPAVCResource@@@std@@@std@@@std@@QAEXAAV?$allocator@U?$_Tree_node@U?$pair@$$CBJPAVCResource@@@std@@PAX@std@@@1@PAU?$_Tree_node@U?$pair@$$CBJPAVCResource@@@std@@PAX@1@@Z ; std::_Tree_val<std::_Tree_simple_types<std::pair<long const ,CResource *> > >::_Erase_tree<std::allocator<std::_Tree_node<std::pair<long const ,CResource *>,void *> > >
; File C:\Program Files (x86)\Microsoft Visual Studio\2019\Professional\VC\Tools\MSVC\14.29.30133\include\utility

; 616  :     _Ty _Old_val = static_cast<_Ty&&>(_Val);

  0001b	8b c6		 mov	 eax, esi

; 617  :     _Val         = static_cast<_Other&&>(_New_val);

  0001d	8b 36		 mov	 esi, DWORD PTR [esi]
; File C:\Program Files (x86)\Microsoft Visual Studio\2019\Professional\VC\Tools\MSVC\14.29.30133\include\xmemory

; 264  :         ::operator delete(_Ptr, _Bytes);

  0001f	6a 18		 push	 24			; 00000018H
  00021	50		 push	 eax
  00022	e8 00 00 00 00	 call	 ??3@YAXPAXI@Z		; operator delete
  00027	83 c4 08	 add	 esp, 8
; File C:\Program Files (x86)\Microsoft Visual Studio\2019\Professional\VC\Tools\MSVC\14.29.30133\include\xtree

; 749  :         while (!_Rootnode->_Isnil) { // free subtrees, then node

  0002a	80 7e 0d 00	 cmp	 BYTE PTR [esi+13], 0
  0002e	74 e0		 je	 SHORT $LL6@Tree
; File C:\Program Files (x86)\Microsoft Visual Studio\2019\Professional\VC\Tools\MSVC\14.29.30133\include\xmemory

; 173  :     _Ptr = reinterpret_cast<void*>(_Ptr_container);

  00030	8b 07		 mov	 eax, DWORD PTR [edi]
$LN7@Tree:

; 264  :         ::operator delete(_Ptr, _Bytes);

  00032	6a 18		 push	 24			; 00000018H
  00034	50		 push	 eax
  00035	e8 00 00 00 00	 call	 ??3@YAXPAXI@Z		; operator delete
  0003a	83 c4 08	 add	 esp, 8
  0003d	5f		 pop	 edi
  0003e	5e		 pop	 esi
; File C:\Program Files (x86)\Microsoft Visual Studio\2019\Professional\VC\Tools\MSVC\14.29.30133\include\xtree

; 1099 :     }

  0003f	c3		 ret	 0
??1?$_Tree@V?$_Tmap_traits@JPAVCResource@@U?$less@J@std@@V?$allocator@U?$pair@$$CBJPAVCResource@@@std@@@3@$0A@@std@@@std@@QAE@XZ ENDP ; std::_Tree<std::_Tmap_traits<long,CResource *,std::less<long>,std::allocator<std::pair<long const ,CResource *> >,0> >::~_Tree<std::_Tmap_traits<long,CResource *,std::less<long>,std::allocator<std::pair<long const ,CResource *> >,0> >
_TEXT	ENDS
; Function compile flags: /Ogtp
; File C:\Program Files (x86)\Microsoft Visual Studio\2019\Professional\VC\Tools\MSVC\14.29.30133\include\xtree
; File C:\Program Files (x86)\Microsoft Visual Studio\2019\Professional\VC\Tools\MSVC\14.29.30133\include\xmemory
;	COMDAT ??1?$map@KV?$basic_string@DU?$char_traits@D@std@@V?$allocator@D@2@@std@@U?$less@K@2@V?$allocator@U?$pair@$$CBKV?$basic_string@DU?$char_traits@D@std@@V?$allocator@D@2@@std@@@std@@@2@@std@@QAE@XZ
_TEXT	SEGMENT
??1?$map@KV?$basic_string@DU?$char_traits@D@std@@V?$allocator@D@2@@std@@U?$less@K@2@V?$allocator@U?$pair@$$CBKV?$basic_string@DU?$char_traits@D@std@@V?$allocator@D@2@@std@@@std@@@2@@std@@QAE@XZ PROC ; std::map<unsigned long,std::basic_string<char,std::char_traits<char>,std::allocator<char> >,std::less<unsigned long>,std::allocator<std::pair<unsigned long const ,std::basic_string<char,std::char_traits<char>,std::allocator<char> > > > >::~map<unsigned long,std::basic_string<char,std::char_traits<char>,std::allocator<char> >,std::less<unsigned long>,std::allocator<std::pair<unsigned long const ,std::basic_string<char,std::char_traits<char>,std::allocator<char> > > > >, COMDAT
; _this$ = ecx
; File C:\Program Files (x86)\Microsoft Visual Studio\2019\Professional\VC\Tools\MSVC\14.29.30133\include\xtree

; 758  :         _Erase_tree(_Al, _Myhead->_Parent);

  00000	56		 push	 esi
  00001	8b f1		 mov	 esi, ecx
  00003	8b 06		 mov	 eax, DWORD PTR [esi]
  00005	ff 70 04	 push	 DWORD PTR [eax+4]
  00008	56		 push	 esi
  00009	e8 00 00 00 00	 call	 ??$_Erase_tree@V?$allocator@U?$_Tree_node@U?$pair@$$CBKV?$basic_string@DU?$char_traits@D@std@@V?$allocator@D@2@@std@@@std@@PAX@std@@@std@@@?$_Tree_val@U?$_Tree_simple_types@U?$pair@$$CBKV?$basic_string@DU?$char_traits@D@std@@V?$allocator@D@2@@std@@@std@@@std@@@std@@QAEXAAV?$allocator@U?$_Tree_node@U?$pair@$$CBKV?$basic_string@DU?$char_traits@D@std@@V?$allocator@D@2@@std@@@std@@PAX@std@@@1@PAU?$_Tree_node@U?$pair@$$CBKV?$basic_string@DU?$char_traits@D@std@@V?$allocator@D@2@@std@@@std@@PAX@1@@Z ; std::_Tree_val<std::_Tree_simple_types<std::pair<unsigned long const ,std::basic_string<char,std::char_traits<char>,std::allocator<char> > > > >::_Erase_tree<std::allocator<std::_Tree_node<std::pair<unsigned long const ,std::basic_string<char,std::char_traits<char>,std::allocator<char> > >,void *> > >
; File C:\Program Files (x86)\Microsoft Visual Studio\2019\Professional\VC\Tools\MSVC\14.29.30133\include\xmemory

; 264  :         ::operator delete(_Ptr, _Bytes);

  0000e	6a 2c		 push	 44			; 0000002cH
  00010	ff 36		 push	 DWORD PTR [esi]
  00012	e8 00 00 00 00	 call	 ??3@YAXPAXI@Z		; operator delete
  00017	83 c4 08	 add	 esp, 8
  0001a	5e		 pop	 esi
  0001b	c3		 ret	 0
??1?$map@KV?$basic_string@DU?$char_traits@D@std@@V?$allocator@D@2@@std@@U?$less@K@2@V?$allocator@U?$pair@$$CBKV?$basic_string@DU?$char_traits@D@std@@V?$allocator@D@2@@std@@@std@@@2@@std@@QAE@XZ ENDP ; std::map<unsigned long,std::basic_string<char,std::char_traits<char>,std::allocator<char> >,std::less<unsigned long>,std::allocator<std::pair<unsigned long const ,std::basic_string<char,std::char_traits<char>,std::allocator<char> > > > >::~map<unsigned long,std::basic_string<char,std::char_traits<char>,std::allocator<char> >,std::less<unsigned long>,std::allocator<std::pair<unsigned long const ,std::basic_string<char,std::char_traits<char>,std::allocator<char> > > > >
_TEXT	ENDS
; Function compile flags: /Ogtp
; File C:\Program Files (x86)\Microsoft Visual Studio\2019\Professional\VC\Tools\MSVC\14.29.30133\include\xtree
;	COMDAT ?_Insert_node@?$_Tree_val@U?$_Tree_simple_types@U?$pair@$$CBKV?$basic_string@DU?$char_traits@D@std@@V?$allocator@D@2@@std@@@std@@@std@@@std@@QAEPAU?$_Tree_node@U?$pair@$$CBKV?$basic_string@DU?$char_traits@D@std@@V?$allocator@D@2@@std@@@std@@PAX@2@U?$_Tree_id@PAU?$_Tree_node@U?$pair@$$CBKV?$basic_string@DU?$char_traits@D@std@@V?$allocator@D@2@@std@@@std@@PAX@std@@@2@QAU32@@Z
_TEXT	SEGMENT
__Head$1$ = -8						; size = 4
_this$1$ = -4						; size = 4
__Loc$ = 8						; size = 8
__Newnode$ = 16						; size = 4
?_Insert_node@?$_Tree_val@U?$_Tree_simple_types@U?$pair@$$CBKV?$basic_string@DU?$char_traits@D@std@@V?$allocator@D@2@@std@@@std@@@std@@@std@@QAEPAU?$_Tree_node@U?$pair@$$CBKV?$basic_string@DU?$char_traits@D@std@@V?$allocator@D@2@@std@@@std@@PAX@2@U?$_Tree_id@PAU?$_Tree_node@U?$pair@$$CBKV?$basic_string@DU?$char_traits@D@std@@V?$allocator@D@2@@std@@@std@@PAX@std@@@2@QAU32@@Z PROC ; std::_Tree_val<std::_Tree_simple_types<std::pair<unsigned long const ,std::basic_string<char,std::char_traits<char>,std::allocator<char> > > > >::_Insert_node, COMDAT
; _this$ = ecx

; 650  :     _Nodeptr _Insert_node(const _Tree_id<_Nodeptr> _Loc, const _Nodeptr _Newnode) noexcept {

  00000	55		 push	 ebp
  00001	8b ec		 mov	 ebp, esp
  00003	83 ec 08	 sub	 esp, 8

; 651  :         ++_Mysize;
; 652  :         const auto _Head  = _Myhead;
; 653  :         _Newnode->_Parent = _Loc._Parent;

  00006	8b 55 08	 mov	 edx, DWORD PTR __Loc$[ebp]
  00009	8b c1		 mov	 eax, ecx
  0000b	89 45 fc	 mov	 DWORD PTR _this$1$[ebp], eax
  0000e	8b 08		 mov	 ecx, DWORD PTR [eax]
  00010	ff 40 04	 inc	 DWORD PTR [eax+4]
  00013	8b 45 10	 mov	 eax, DWORD PTR __Newnode$[ebp]
  00016	89 4d f8	 mov	 DWORD PTR __Head$1$[ebp], ecx
  00019	89 50 04	 mov	 DWORD PTR [eax+4], edx

; 654  :         if (_Loc._Parent == _Head) { // first node in tree, just set head values

  0001c	3b d1		 cmp	 edx, ecx
  0001e	75 12		 jne	 SHORT $LN5@Insert_nod

; 655  :             _Head->_Left     = _Newnode;

  00020	89 01		 mov	 DWORD PTR [ecx], eax

; 656  :             _Head->_Parent   = _Newnode;

  00022	89 41 04	 mov	 DWORD PTR [ecx+4], eax

; 657  :             _Head->_Right    = _Newnode;

  00025	89 41 08	 mov	 DWORD PTR [ecx+8], eax

; 658  :             _Newnode->_Color = _Black; // the root is black

  00028	c6 40 0c 01	 mov	 BYTE PTR [eax+12], 1

; 717  :     }

  0002c	8b e5		 mov	 esp, ebp
  0002e	5d		 pop	 ebp
  0002f	c2 0c 00	 ret	 12			; 0000000cH
$LN5@Insert_nod:

; 659  :             return _Newnode;
; 660  :         }
; 661  : 
; 662  :         _STL_INTERNAL_CHECK(_Loc._Child != _Tree_child::_Unused);
; 663  :         if (_Loc._Child == _Tree_child::_Right) { // add to right of _Loc._Parent

  00032	83 7d 0c 00	 cmp	 DWORD PTR __Loc$[ebp+4], 0
  00036	75 0d		 jne	 SHORT $LN6@Insert_nod

; 664  :             _STL_INTERNAL_CHECK(_Loc._Parent->_Right->_Isnil);
; 665  :             _Loc._Parent->_Right = _Newnode;

  00038	89 42 08	 mov	 DWORD PTR [edx+8], eax

; 666  :             if (_Loc._Parent == _Head->_Right) { // remember rightmost node

  0003b	3b 51 08	 cmp	 edx, DWORD PTR [ecx+8]
  0003e	75 0d		 jne	 SHORT $LN9@Insert_nod

; 667  :                 _Head->_Right = _Newnode;

  00040	89 41 08	 mov	 DWORD PTR [ecx+8], eax

; 668  :             }
; 669  :         } else { // add to left of _Loc._Parent

  00043	eb 08		 jmp	 SHORT $LN9@Insert_nod
$LN6@Insert_nod:

; 670  :             _STL_INTERNAL_CHECK(_Loc._Parent->_Left->_Isnil);
; 671  :             _Loc._Parent->_Left = _Newnode;

  00045	89 02		 mov	 DWORD PTR [edx], eax

; 672  :             if (_Loc._Parent == _Head->_Left) { // remember leftmost node

  00047	3b 11		 cmp	 edx, DWORD PTR [ecx]
  00049	75 02		 jne	 SHORT $LN9@Insert_nod

; 673  :                 _Head->_Left = _Newnode;

  0004b	89 01		 mov	 DWORD PTR [ecx], eax
$LN9@Insert_nod:

; 674  :             }
; 675  :         }
; 676  : 
; 677  :         for (_Nodeptr _Pnode = _Newnode; _Pnode->_Parent->_Color == _Red;) {

  0004d	8b d0		 mov	 edx, eax
  0004f	8b 40 04	 mov	 eax, DWORD PTR [eax+4]
  00052	80 78 0c 00	 cmp	 BYTE PTR [eax+12], 0
  00056	0f 85 99 01 00
	00		 jne	 $LN3@Insert_nod
  0005c	53		 push	 ebx
  0005d	56		 push	 esi
  0005e	57		 push	 edi
  0005f	90		 npad	 1
$LL2@Insert_nod:

; 678  :             if (_Pnode->_Parent == _Pnode->_Parent->_Parent->_Left) { // fixup red-red in left subtree

  00060	8b 4a 04	 mov	 ecx, DWORD PTR [edx+4]
  00063	8d 7a 04	 lea	 edi, DWORD PTR [edx+4]
  00066	8b 71 04	 mov	 esi, DWORD PTR [ecx+4]
  00069	8d 59 04	 lea	 ebx, DWORD PTR [ecx+4]
  0006c	8b 06		 mov	 eax, DWORD PTR [esi]
  0006e	3b c8		 cmp	 ecx, eax
  00070	0f 85 ba 00 00
	00		 jne	 $LN10@Insert_nod

; 679  :                 const auto _Parent_sibling = _Pnode->_Parent->_Parent->_Right;

  00076	8b 46 08	 mov	 eax, DWORD PTR [esi+8]

; 680  :                 if (_Parent_sibling->_Color == _Red) { // parent's sibling has two red children, blacken both

  00079	80 78 0c 00	 cmp	 BYTE PTR [eax+12], 0
  0007d	0f 84 b3 00 00
	00		 je	 $LN53@Insert_nod

; 681  :                     _Pnode->_Parent->_Color          = _Black;
; 682  :                     _Parent_sibling->_Color          = _Black;
; 683  :                     _Pnode->_Parent->_Parent->_Color = _Red;
; 684  :                     _Pnode                           = _Pnode->_Parent->_Parent;
; 685  :                 } else { // parent's sibling has red and black children
; 686  :                     if (_Pnode == _Pnode->_Parent->_Right) { // rotate right child to left

  00083	8b 71 08	 mov	 esi, DWORD PTR [ecx+8]
  00086	3b d6		 cmp	 edx, esi
  00088	75 47		 jne	 SHORT $LN51@Insert_nod

; 466  :         _Wherenode->_Right = _Pnode->_Left;

  0008a	8b 06		 mov	 eax, DWORD PTR [esi]

; 687  :                         _Pnode = _Pnode->_Parent;

  0008c	8b d1		 mov	 edx, ecx

; 466  :         _Wherenode->_Right = _Pnode->_Left;

  0008e	89 42 08	 mov	 DWORD PTR [edx+8], eax

; 467  : 
; 468  :         if (!_Pnode->_Left->_Isnil) {

  00091	8b 06		 mov	 eax, DWORD PTR [esi]
  00093	80 78 0d 00	 cmp	 BYTE PTR [eax+13], 0
  00097	75 03		 jne	 SHORT $LN20@Insert_nod

; 469  :             _Pnode->_Left->_Parent = _Wherenode;

  00099	89 50 04	 mov	 DWORD PTR [eax+4], edx
$LN20@Insert_nod:

; 470  :         }
; 471  : 
; 472  :         _Pnode->_Parent = _Wherenode->_Parent;

  0009c	8b 03		 mov	 eax, DWORD PTR [ebx]
  0009e	89 46 04	 mov	 DWORD PTR [esi+4], eax

; 473  : 
; 474  :         if (_Wherenode == _Myhead->_Parent) {

  000a1	8b 45 fc	 mov	 eax, DWORD PTR _this$1$[ebp]
  000a4	8b 00		 mov	 eax, DWORD PTR [eax]
  000a6	3b 50 04	 cmp	 edx, DWORD PTR [eax+4]
  000a9	75 0b		 jne	 SHORT $LN21@Insert_nod

; 475  :             _Myhead->_Parent = _Pnode;

  000ab	89 70 04	 mov	 DWORD PTR [eax+4], esi

; 483  :         _Wherenode->_Parent = _Pnode;

  000ae	8b fb		 mov	 edi, ebx
  000b0	89 16		 mov	 DWORD PTR [esi], edx
  000b2	89 33		 mov	 DWORD PTR [ebx], esi
  000b4	eb 1d		 jmp	 SHORT $LN49@Insert_nod
$LN21@Insert_nod:

; 476  :         } else if (_Wherenode == _Wherenode->_Parent->_Left) {

  000b6	8b 03		 mov	 eax, DWORD PTR [ebx]
  000b8	3b 10		 cmp	 edx, DWORD PTR [eax]
  000ba	75 0a		 jne	 SHORT $LN23@Insert_nod

; 477  :             _Wherenode->_Parent->_Left = _Pnode;

  000bc	89 30		 mov	 DWORD PTR [eax], esi

; 483  :         _Wherenode->_Parent = _Pnode;

  000be	8b fb		 mov	 edi, ebx
  000c0	89 16		 mov	 DWORD PTR [esi], edx
  000c2	89 33		 mov	 DWORD PTR [ebx], esi
  000c4	eb 0d		 jmp	 SHORT $LN49@Insert_nod
$LN23@Insert_nod:

; 479  :             _Wherenode->_Parent->_Right = _Pnode;

  000c6	89 70 08	 mov	 DWORD PTR [eax+8], esi

; 483  :         _Wherenode->_Parent = _Pnode;

  000c9	8b fb		 mov	 edi, ebx
  000cb	89 16		 mov	 DWORD PTR [esi], edx
  000cd	89 33		 mov	 DWORD PTR [ebx], esi
  000cf	eb 02		 jmp	 SHORT $LN49@Insert_nod
$LN51@Insert_nod:
  000d1	8b f1		 mov	 esi, ecx
$LN49@Insert_nod:

; 688  :                         _Lrotate(_Pnode);
; 689  :                     }
; 690  : 
; 691  :                     _Pnode->_Parent->_Color          = _Black; // propagate red up

  000d3	c6 46 0c 01	 mov	 BYTE PTR [esi+12], 1

; 692  :                     _Pnode->_Parent->_Parent->_Color = _Red;

  000d7	8b 07		 mov	 eax, DWORD PTR [edi]
  000d9	8b 40 04	 mov	 eax, DWORD PTR [eax+4]
  000dc	c6 40 0c 00	 mov	 BYTE PTR [eax+12], 0

; 693  :                     _Rrotate(_Pnode->_Parent->_Parent);

  000e0	8b 07		 mov	 eax, DWORD PTR [edi]
  000e2	8b 48 04	 mov	 ecx, DWORD PTR [eax+4]

; 487  :         _Nodeptr _Pnode   = _Wherenode->_Left;

  000e5	8b 31		 mov	 esi, DWORD PTR [ecx]

; 488  :         _Wherenode->_Left = _Pnode->_Right;

  000e7	8b 46 08	 mov	 eax, DWORD PTR [esi+8]
  000ea	89 01		 mov	 DWORD PTR [ecx], eax

; 489  : 
; 490  :         if (!_Pnode->_Right->_Isnil) {

  000ec	8b 46 08	 mov	 eax, DWORD PTR [esi+8]
  000ef	80 78 0d 00	 cmp	 BYTE PTR [eax+13], 0
  000f3	75 03		 jne	 SHORT $LN27@Insert_nod

; 491  :             _Pnode->_Right->_Parent = _Wherenode;

  000f5	89 48 04	 mov	 DWORD PTR [eax+4], ecx
$LN27@Insert_nod:

; 492  :         }
; 493  : 
; 494  :         _Pnode->_Parent = _Wherenode->_Parent;

  000f8	8b 41 04	 mov	 eax, DWORD PTR [ecx+4]
  000fb	89 46 04	 mov	 DWORD PTR [esi+4], eax

; 495  : 
; 496  :         if (_Wherenode == _Myhead->_Parent) {

  000fe	8b 45 fc	 mov	 eax, DWORD PTR _this$1$[ebp]
  00101	8b 00		 mov	 eax, DWORD PTR [eax]
  00103	3b 48 04	 cmp	 ecx, DWORD PTR [eax+4]
  00106	75 0b		 jne	 SHORT $LN28@Insert_nod

; 497  :             _Myhead->_Parent = _Pnode;

  00108	89 70 04	 mov	 DWORD PTR [eax+4], esi

; 502  :         }
; 503  : 
; 504  :         _Pnode->_Right      = _Wherenode;

  0010b	89 4e 08	 mov	 DWORD PTR [esi+8], ecx

; 694  :                 }
; 695  :             } else { // fixup red-red in right subtree

  0010e	e9 cc 00 00 00	 jmp	 $LN52@Insert_nod
$LN28@Insert_nod:

; 498  :         } else if (_Wherenode == _Wherenode->_Parent->_Right) {

  00113	8b 41 04	 mov	 eax, DWORD PTR [ecx+4]
  00116	3b 48 08	 cmp	 ecx, DWORD PTR [eax+8]
  00119	75 0b		 jne	 SHORT $LN30@Insert_nod

; 499  :             _Wherenode->_Parent->_Right = _Pnode;

  0011b	89 70 08	 mov	 DWORD PTR [eax+8], esi

; 502  :         }
; 503  : 
; 504  :         _Pnode->_Right      = _Wherenode;

  0011e	89 4e 08	 mov	 DWORD PTR [esi+8], ecx

; 694  :                 }
; 695  :             } else { // fixup red-red in right subtree

  00121	e9 b9 00 00 00	 jmp	 $LN52@Insert_nod
$LN30@Insert_nod:

; 501  :             _Wherenode->_Parent->_Left = _Pnode;

  00126	89 30		 mov	 DWORD PTR [eax], esi

; 502  :         }
; 503  : 
; 504  :         _Pnode->_Right      = _Wherenode;

  00128	89 4e 08	 mov	 DWORD PTR [esi+8], ecx

; 694  :                 }
; 695  :             } else { // fixup red-red in right subtree

  0012b	e9 af 00 00 00	 jmp	 $LN52@Insert_nod
$LN10@Insert_nod:

; 696  :                 const auto _Parent_sibling = _Pnode->_Parent->_Parent->_Left;
; 697  :                 if (_Parent_sibling->_Color == _Red) { // parent's sibling has two red children, blacken both

  00130	80 78 0c 00	 cmp	 BYTE PTR [eax+12], 0
  00134	75 1b		 jne	 SHORT $LN15@Insert_nod
$LN53@Insert_nod:

; 674  :             }
; 675  :         }
; 676  : 
; 677  :         for (_Nodeptr _Pnode = _Newnode; _Pnode->_Parent->_Color == _Red;) {

  00136	c6 41 0c 01	 mov	 BYTE PTR [ecx+12], 1
  0013a	c6 40 0c 01	 mov	 BYTE PTR [eax+12], 1
  0013e	8b 07		 mov	 eax, DWORD PTR [edi]
  00140	8b 40 04	 mov	 eax, DWORD PTR [eax+4]
  00143	c6 40 0c 00	 mov	 BYTE PTR [eax+12], 0
  00147	8b 07		 mov	 eax, DWORD PTR [edi]
  00149	8b 50 04	 mov	 edx, DWORD PTR [eax+4]
  0014c	e9 91 00 00 00	 jmp	 $LN46@Insert_nod
$LN15@Insert_nod:

; 698  :                     _Pnode->_Parent->_Color          = _Black;
; 699  :                     _Parent_sibling->_Color          = _Black;
; 700  :                     _Pnode->_Parent->_Parent->_Color = _Red;
; 701  :                     _Pnode                           = _Pnode->_Parent->_Parent;
; 702  :                 } else { // parent's sibling has red and black children
; 703  :                     if (_Pnode == _Pnode->_Parent->_Left) { // rotate left child to right

  00151	8b 01		 mov	 eax, DWORD PTR [ecx]
  00153	3b d0		 cmp	 edx, eax
  00155	75 3e		 jne	 SHORT $LN39@Insert_nod

; 704  :                         _Pnode = _Pnode->_Parent;

  00157	8b d1		 mov	 edx, ecx

; 487  :         _Nodeptr _Pnode   = _Wherenode->_Left;

  00159	8b c8		 mov	 ecx, eax

; 488  :         _Wherenode->_Left = _Pnode->_Right;

  0015b	8b 41 08	 mov	 eax, DWORD PTR [ecx+8]
  0015e	89 02		 mov	 DWORD PTR [edx], eax

; 489  : 
; 490  :         if (!_Pnode->_Right->_Isnil) {

  00160	8b 41 08	 mov	 eax, DWORD PTR [ecx+8]
  00163	80 78 0d 00	 cmp	 BYTE PTR [eax+13], 0
  00167	75 03		 jne	 SHORT $LN34@Insert_nod

; 491  :             _Pnode->_Right->_Parent = _Wherenode;

  00169	89 50 04	 mov	 DWORD PTR [eax+4], edx
$LN34@Insert_nod:

; 492  :         }
; 493  : 
; 494  :         _Pnode->_Parent = _Wherenode->_Parent;

  0016c	8b 03		 mov	 eax, DWORD PTR [ebx]
  0016e	89 41 04	 mov	 DWORD PTR [ecx+4], eax

; 495  : 
; 496  :         if (_Wherenode == _Myhead->_Parent) {

  00171	8b 45 fc	 mov	 eax, DWORD PTR _this$1$[ebp]
  00174	8b 00		 mov	 eax, DWORD PTR [eax]
  00176	3b 50 04	 cmp	 edx, DWORD PTR [eax+4]
  00179	75 05		 jne	 SHORT $LN35@Insert_nod

; 497  :             _Myhead->_Parent = _Pnode;

  0017b	89 48 04	 mov	 DWORD PTR [eax+4], ecx
  0017e	eb 0e		 jmp	 SHORT $LN38@Insert_nod
$LN35@Insert_nod:

; 498  :         } else if (_Wherenode == _Wherenode->_Parent->_Right) {

  00180	8b 03		 mov	 eax, DWORD PTR [ebx]
  00182	3b 50 08	 cmp	 edx, DWORD PTR [eax+8]
  00185	75 05		 jne	 SHORT $LN37@Insert_nod

; 499  :             _Wherenode->_Parent->_Right = _Pnode;

  00187	89 48 08	 mov	 DWORD PTR [eax+8], ecx

; 500  :         } else {

  0018a	eb 02		 jmp	 SHORT $LN38@Insert_nod
$LN37@Insert_nod:

; 501  :             _Wherenode->_Parent->_Left = _Pnode;

  0018c	89 08		 mov	 DWORD PTR [eax], ecx
$LN38@Insert_nod:

; 502  :         }
; 503  : 
; 504  :         _Pnode->_Right      = _Wherenode;

  0018e	89 51 08	 mov	 DWORD PTR [ecx+8], edx

; 505  :         _Wherenode->_Parent = _Pnode;

  00191	8b fb		 mov	 edi, ebx
  00193	89 0b		 mov	 DWORD PTR [ebx], ecx
$LN39@Insert_nod:

; 705  :                         _Rrotate(_Pnode);
; 706  :                     }
; 707  : 
; 708  :                     _Pnode->_Parent->_Color          = _Black; // propagate red up

  00195	c6 41 0c 01	 mov	 BYTE PTR [ecx+12], 1

; 709  :                     _Pnode->_Parent->_Parent->_Color = _Red;

  00199	8b 07		 mov	 eax, DWORD PTR [edi]
  0019b	8b 40 04	 mov	 eax, DWORD PTR [eax+4]
  0019e	c6 40 0c 00	 mov	 BYTE PTR [eax+12], 0

; 710  :                     _Lrotate(_Pnode->_Parent->_Parent);

  001a2	8b 07		 mov	 eax, DWORD PTR [edi]
  001a4	8b 48 04	 mov	 ecx, DWORD PTR [eax+4]

; 465  :         _Nodeptr _Pnode    = _Wherenode->_Right;

  001a7	8b 71 08	 mov	 esi, DWORD PTR [ecx+8]

; 466  :         _Wherenode->_Right = _Pnode->_Left;

  001aa	8b 06		 mov	 eax, DWORD PTR [esi]
  001ac	89 41 08	 mov	 DWORD PTR [ecx+8], eax

; 467  : 
; 468  :         if (!_Pnode->_Left->_Isnil) {

  001af	8b 06		 mov	 eax, DWORD PTR [esi]
  001b1	80 78 0d 00	 cmp	 BYTE PTR [eax+13], 0
  001b5	75 03		 jne	 SHORT $LN41@Insert_nod

; 469  :             _Pnode->_Left->_Parent = _Wherenode;

  001b7	89 48 04	 mov	 DWORD PTR [eax+4], ecx
$LN41@Insert_nod:

; 470  :         }
; 471  : 
; 472  :         _Pnode->_Parent = _Wherenode->_Parent;

  001ba	8b 41 04	 mov	 eax, DWORD PTR [ecx+4]
  001bd	89 46 04	 mov	 DWORD PTR [esi+4], eax

; 473  : 
; 474  :         if (_Wherenode == _Myhead->_Parent) {

  001c0	8b 45 fc	 mov	 eax, DWORD PTR _this$1$[ebp]
  001c3	8b 00		 mov	 eax, DWORD PTR [eax]
  001c5	3b 48 04	 cmp	 ecx, DWORD PTR [eax+4]
  001c8	75 05		 jne	 SHORT $LN42@Insert_nod

; 475  :             _Myhead->_Parent = _Pnode;

  001ca	89 70 04	 mov	 DWORD PTR [eax+4], esi
  001cd	eb 0e		 jmp	 SHORT $LN45@Insert_nod
$LN42@Insert_nod:

; 476  :         } else if (_Wherenode == _Wherenode->_Parent->_Left) {

  001cf	8b 41 04	 mov	 eax, DWORD PTR [ecx+4]
  001d2	3b 08		 cmp	 ecx, DWORD PTR [eax]
  001d4	75 04		 jne	 SHORT $LN44@Insert_nod

; 477  :             _Wherenode->_Parent->_Left = _Pnode;

  001d6	89 30		 mov	 DWORD PTR [eax], esi

; 478  :         } else {

  001d8	eb 03		 jmp	 SHORT $LN45@Insert_nod
$LN44@Insert_nod:

; 479  :             _Wherenode->_Parent->_Right = _Pnode;

  001da	89 70 08	 mov	 DWORD PTR [eax+8], esi
$LN45@Insert_nod:

; 480  :         }
; 481  : 
; 482  :         _Pnode->_Left       = _Wherenode;

  001dd	89 0e		 mov	 DWORD PTR [esi], ecx
$LN52@Insert_nod:

; 674  :             }
; 675  :         }
; 676  : 
; 677  :         for (_Nodeptr _Pnode = _Newnode; _Pnode->_Parent->_Color == _Red;) {

  001df	89 71 04	 mov	 DWORD PTR [ecx+4], esi
$LN46@Insert_nod:
  001e2	8b 42 04	 mov	 eax, DWORD PTR [edx+4]
  001e5	80 78 0c 00	 cmp	 BYTE PTR [eax+12], 0
  001e9	0f 84 71 fe ff
	ff		 je	 $LL2@Insert_nod
  001ef	8b 4d f8	 mov	 ecx, DWORD PTR __Head$1$[ebp]
  001f2	5f		 pop	 edi
  001f3	5e		 pop	 esi
  001f4	5b		 pop	 ebx
$LN3@Insert_nod:

; 711  :                 }
; 712  :             }
; 713  :         }
; 714  : 
; 715  :         _Head->_Parent->_Color = _Black; // root is always black

  001f5	8b 41 04	 mov	 eax, DWORD PTR [ecx+4]
  001f8	c6 40 0c 01	 mov	 BYTE PTR [eax+12], 1

; 716  :         return _Newnode;

  001fc	8b 45 10	 mov	 eax, DWORD PTR __Newnode$[ebp]

; 717  :     }

  001ff	8b e5		 mov	 esp, ebp
  00201	5d		 pop	 ebp
  00202	c2 0c 00	 ret	 12			; 0000000cH
?_Insert_node@?$_Tree_val@U?$_Tree_simple_types@U?$pair@$$CBKV?$basic_string@DU?$char_traits@D@std@@V?$allocator@D@2@@std@@@std@@@std@@@std@@QAEPAU?$_Tree_node@U?$pair@$$CBKV?$basic_string@DU?$char_traits@D@std@@V?$allocator@D@2@@std@@@std@@PAX@2@U?$_Tree_id@PAU?$_Tree_node@U?$pair@$$CBKV?$basic_string@DU?$char_traits@D@std@@V?$allocator@D@2@@std@@@std@@PAX@std@@@2@QAU32@@Z ENDP ; std::_Tree_val<std::_Tree_simple_types<std::pair<unsigned long const ,std::basic_string<char,std::char_traits<char>,std::allocator<char> > > > >::_Insert_node
_TEXT	ENDS
; Function compile flags: /Ogtp
; File C:\Program Files (x86)\Microsoft Visual Studio\2019\Professional\VC\Tools\MSVC\14.29.30133\include\xtree
; File C:\Program Files (x86)\Microsoft Visual Studio\2019\Professional\VC\Tools\MSVC\14.29.30133\include\utility
; File C:\Program Files (x86)\Microsoft Visual Studio\2019\Professional\VC\Tools\MSVC\14.29.30133\include\xtree
; File C:\Program Files (x86)\Microsoft Visual Studio\2019\Professional\VC\Tools\MSVC\14.29.30133\include\utility
; File C:\Program Files (x86)\Microsoft Visual Studio\2019\Professional\VC\Tools\MSVC\14.29.30133\include\xtree
;	COMDAT ?_Extract@?$_Tree_val@U?$_Tree_simple_types@U?$pair@$$CBKV?$basic_string@DU?$char_traits@D@std@@V?$allocator@D@2@@std@@@std@@@std@@@std@@QAEPAU?$_Tree_node@U?$pair@$$CBKV?$basic_string@DU?$char_traits@D@std@@V?$allocator@D@2@@std@@@std@@PAX@2@V?$_Tree_unchecked_const_iterator@V?$_Tree_val@U?$_Tree_simple_types@U?$pair@$$CBKV?$basic_string@DU?$char_traits@D@std@@V?$allocator@D@2@@std@@@std@@@std@@@std@@U_Iterator_base0@2@@2@@Z
_TEXT	SEGMENT
tv1186 = -8						; size = 4
tv1182 = -8						; size = 4
tv1149 = -8						; size = 4
__Erasednode$1$ = -4					; size = 4
__Where$ = 8						; size = 4
?_Extract@?$_Tree_val@U?$_Tree_simple_types@U?$pair@$$CBKV?$basic_string@DU?$char_traits@D@std@@V?$allocator@D@2@@std@@@std@@@std@@@std@@QAEPAU?$_Tree_node@U?$pair@$$CBKV?$basic_string@DU?$char_traits@D@std@@V?$allocator@D@2@@std@@@std@@PAX@2@V?$_Tree_unchecked_const_iterator@V?$_Tree_val@U?$_Tree_simple_types@U?$pair@$$CBKV?$basic_string@DU?$char_traits@D@std@@V?$allocator@D@2@@std@@@std@@@std@@@std@@U_Iterator_base0@2@@2@@Z PROC ; std::_Tree_val<std::_Tree_simple_types<std::pair<unsigned long const ,std::basic_string<char,std::char_traits<char>,std::allocator<char> > > > >::_Extract, COMDAT
; _this$ = ecx

; 508  :     _Nodeptr _Extract(_Unchecked_const_iterator _Where) noexcept {

  00000	55		 push	 ebp
  00001	8b ec		 mov	 ebp, esp
  00003	83 ec 08	 sub	 esp, 8

; 509  :         _Nodeptr _Erasednode = _Where._Ptr; // node to erase

  00006	8b 45 08	 mov	 eax, DWORD PTR __Where$[ebp]
  00009	53		 push	 ebx
  0000a	56		 push	 esi
  0000b	8b d9		 mov	 ebx, ecx
  0000d	89 45 fc	 mov	 DWORD PTR __Erasednode$1$[ebp], eax
  00010	57		 push	 edi

; 510  :         ++_Where; // save successor iterator for return

  00011	8d 4d 08	 lea	 ecx, DWORD PTR __Where$[ebp]
  00014	e8 00 00 00 00	 call	 ??E?$_Tree_unchecked_const_iterator@V?$_Tree_val@U?$_Tree_simple_types@U?$pair@$$CBKV?$basic_string@DU?$char_traits@D@std@@V?$allocator@D@2@@std@@@std@@@std@@@std@@U_Iterator_base0@2@@std@@QAEAAV01@XZ ; std::_Tree_unchecked_const_iterator<std::_Tree_val<std::_Tree_simple_types<std::pair<unsigned long const ,std::basic_string<char,std::char_traits<char>,std::allocator<char> > > > >,std::_Iterator_base0>::operator++

; 511  : 
; 512  :         _Nodeptr _Fixnode; // the node to recolor as needed
; 513  :         _Nodeptr _Fixnodeparent; // parent of _Fixnode (which may be nil)
; 514  :         _Nodeptr _Pnode = _Erasednode;
; 515  : 
; 516  :         if (_Pnode->_Left->_Isnil) {

  00019	8b 55 fc	 mov	 edx, DWORD PTR __Erasednode$1$[ebp]
  0001c	8b 02		 mov	 eax, DWORD PTR [edx]
  0001e	8b 7a 08	 mov	 edi, DWORD PTR [edx+8]
  00021	80 78 0d 00	 cmp	 BYTE PTR [eax+13], 0
  00025	75 18		 jne	 SHORT $LN86@Extract

; 517  :             _Fixnode = _Pnode->_Right; // stitch up right subtree
; 518  :         } else if (_Pnode->_Right->_Isnil) {

  00027	80 7f 0d 00	 cmp	 BYTE PTR [edi+13], 0
  0002b	74 04		 je	 SHORT $LN7@Extract

; 519  :             _Fixnode = _Pnode->_Left; // stitch up left subtree

  0002d	8b f8		 mov	 edi, eax

; 520  :         } else { // two subtrees, must lift successor node to replace erased

  0002f	eb 0e		 jmp	 SHORT $LN86@Extract
$LN7@Extract:

; 521  :             _Pnode   = _Where._Ptr; // _Pnode is successor node

  00031	8b 4d 08	 mov	 ecx, DWORD PTR __Where$[ebp]

; 522  :             _Fixnode = _Pnode->_Right; // _Fixnode is only subtree

  00034	8b 79 08	 mov	 edi, DWORD PTR [ecx+8]
  00037	3b ca		 cmp	 ecx, edx

; 523  :         }
; 524  : 
; 525  :         if (_Pnode == _Erasednode) { // at most one subtree, relink it

  00039	0f 85 8b 00 00
	00		 jne	 $LN9@Extract
$LN86@Extract:

; 526  :             _Fixnodeparent = _Erasednode->_Parent;
; 527  :             if (!_Fixnode->_Isnil) {

  0003f	80 7f 0d 00	 cmp	 BYTE PTR [edi+13], 0
  00043	8b 72 04	 mov	 esi, DWORD PTR [edx+4]
  00046	75 03		 jne	 SHORT $LN11@Extract

; 528  :                 _Fixnode->_Parent = _Fixnodeparent; // link up

  00048	89 77 04	 mov	 DWORD PTR [edi+4], esi
$LN11@Extract:

; 529  :             }
; 530  : 
; 531  :             if (_Myhead->_Parent == _Erasednode) {

  0004b	8b 03		 mov	 eax, DWORD PTR [ebx]
  0004d	39 50 04	 cmp	 DWORD PTR [eax+4], edx
  00050	75 05		 jne	 SHORT $LN12@Extract

; 532  :                 _Myhead->_Parent = _Fixnode; // link down from root

  00052	89 78 04	 mov	 DWORD PTR [eax+4], edi
  00055	eb 0b		 jmp	 SHORT $LN15@Extract
$LN12@Extract:

; 533  :             } else if (_Fixnodeparent->_Left == _Erasednode) {

  00057	39 16		 cmp	 DWORD PTR [esi], edx
  00059	75 04		 jne	 SHORT $LN14@Extract

; 534  :                 _Fixnodeparent->_Left = _Fixnode; // link down to left

  0005b	89 3e		 mov	 DWORD PTR [esi], edi

; 535  :             } else {

  0005d	eb 03		 jmp	 SHORT $LN15@Extract
$LN14@Extract:

; 536  :                 _Fixnodeparent->_Right = _Fixnode; // link down to right

  0005f	89 7e 08	 mov	 DWORD PTR [esi+8], edi
$LN15@Extract:

; 537  :             }
; 538  : 
; 539  :             if (_Myhead->_Left == _Erasednode) {

  00062	8b 03		 mov	 eax, DWORD PTR [ebx]
  00064	39 10		 cmp	 DWORD PTR [eax], edx
  00066	75 2b		 jne	 SHORT $LN16@Extract

; 540  :                 _Myhead->_Left = _Fixnode->_Isnil ? _Fixnodeparent // smallest is parent of erased node

  00068	80 7f 0d 00	 cmp	 BYTE PTR [edi+13], 0
  0006c	74 04		 je	 SHORT $LN42@Extract
  0006e	8b d6		 mov	 edx, esi
  00070	eb 1c		 jmp	 SHORT $LN48@Extract
$LN42@Extract:

; 457  :         while (!_Pnode->_Left->_Isnil) {

  00072	8b 0f		 mov	 ecx, DWORD PTR [edi]

; 540  :                 _Myhead->_Left = _Fixnode->_Isnil ? _Fixnodeparent // smallest is parent of erased node

  00074	8b d7		 mov	 edx, edi

; 457  :         while (!_Pnode->_Left->_Isnil) {

  00076	80 79 0d 00	 cmp	 BYTE PTR [ecx+13], 0
  0007a	75 12		 jne	 SHORT $LN48@Extract
  0007c	0f 1f 40 00	 npad	 4
$LL47@Extract:
  00080	8b 01		 mov	 eax, DWORD PTR [ecx]

; 458  :             _Pnode = _Pnode->_Left;

  00082	8b d1		 mov	 edx, ecx
  00084	8b c8		 mov	 ecx, eax
  00086	80 78 0d 00	 cmp	 BYTE PTR [eax+13], 0
  0008a	74 f4		 je	 SHORT $LL47@Extract
  0008c	8b 03		 mov	 eax, DWORD PTR [ebx]
$LN48@Extract:

; 540  :                 _Myhead->_Left = _Fixnode->_Isnil ? _Fixnodeparent // smallest is parent of erased node

  0008e	89 10		 mov	 DWORD PTR [eax], edx
  00090	8b 55 fc	 mov	 edx, DWORD PTR __Erasednode$1$[ebp]
$LN16@Extract:

; 541  :                                                   : _Min(_Fixnode); // smallest in relinked subtree
; 542  :             }
; 543  : 
; 544  :             if (_Myhead->_Right == _Erasednode) {

  00093	8b 03		 mov	 eax, DWORD PTR [ebx]
  00095	39 50 08	 cmp	 DWORD PTR [eax+8], edx
  00098	75 2b		 jne	 SHORT $LN17@Extract

; 545  :                 _Myhead->_Right = _Fixnode->_Isnil ? _Fixnodeparent // largest is parent of erased node

  0009a	80 7f 0d 00	 cmp	 BYTE PTR [edi+13], 0
  0009e	74 0a		 je	 SHORT $LN44@Extract
  000a0	8b ce		 mov	 ecx, esi
  000a2	89 48 08	 mov	 DWORD PTR [eax+8], ecx

; 546  :                                                    : _Max(_Fixnode); // largest in relinked subtree
; 547  :             }
; 548  :         } else { // erased has two subtrees, _Pnode is successor to erased

  000a5	8a 52 0c	 mov	 dl, BYTE PTR [edx+12]
  000a8	eb 7c		 jmp	 SHORT $LN55@Extract
$LN44@Extract:

; 449  :         while (!_Pnode->_Right->_Isnil) {

  000aa	8b 47 08	 mov	 eax, DWORD PTR [edi+8]

; 545  :                 _Myhead->_Right = _Fixnode->_Isnil ? _Fixnodeparent // largest is parent of erased node

  000ad	8b cf		 mov	 ecx, edi

; 449  :         while (!_Pnode->_Right->_Isnil) {

  000af	80 78 0d 00	 cmp	 BYTE PTR [eax+13], 0
  000b3	75 0b		 jne	 SHORT $LN52@Extract
$LL51@Extract:

; 450  :             _Pnode = _Pnode->_Right;

  000b5	8b c8		 mov	 ecx, eax
  000b7	8b 41 08	 mov	 eax, DWORD PTR [ecx+8]
  000ba	80 78 0d 00	 cmp	 BYTE PTR [eax+13], 0
  000be	74 f5		 je	 SHORT $LL51@Extract
$LN52@Extract:
  000c0	8b 03		 mov	 eax, DWORD PTR [ebx]

; 545  :                 _Myhead->_Right = _Fixnode->_Isnil ? _Fixnodeparent // largest is parent of erased node

  000c2	89 48 08	 mov	 DWORD PTR [eax+8], ecx
$LN17@Extract:

; 546  :                                                    : _Max(_Fixnode); // largest in relinked subtree
; 547  :             }
; 548  :         } else { // erased has two subtrees, _Pnode is successor to erased

  000c5	8a 52 0c	 mov	 dl, BYTE PTR [edx+12]
  000c8	eb 5c		 jmp	 SHORT $LN55@Extract
$LN9@Extract:

; 549  :             _Erasednode->_Left->_Parent = _Pnode; // link left up

  000ca	89 48 04	 mov	 DWORD PTR [eax+4], ecx

; 550  :             _Pnode->_Left               = _Erasednode->_Left; // link successor down

  000cd	8b 02		 mov	 eax, DWORD PTR [edx]
  000cf	89 01		 mov	 DWORD PTR [ecx], eax

; 551  : 
; 552  :             if (_Pnode == _Erasednode->_Right) {

  000d1	3b 4a 08	 cmp	 ecx, DWORD PTR [edx+8]
  000d4	75 04		 jne	 SHORT $LN18@Extract

; 553  :                 _Fixnodeparent = _Pnode; // successor is next to erased

  000d6	8b f1		 mov	 esi, ecx

; 554  :             } else { // successor further down, link in place of erased

  000d8	eb 1a		 jmp	 SHORT $LN19@Extract
$LN18@Extract:

; 555  :                 _Fixnodeparent = _Pnode->_Parent; // parent is successor's
; 556  :                 if (!_Fixnode->_Isnil) {

  000da	80 7f 0d 00	 cmp	 BYTE PTR [edi+13], 0
  000de	8b 71 04	 mov	 esi, DWORD PTR [ecx+4]
  000e1	75 03		 jne	 SHORT $LN20@Extract

; 557  :                     _Fixnode->_Parent = _Fixnodeparent; // link fix up

  000e3	89 77 04	 mov	 DWORD PTR [edi+4], esi
$LN20@Extract:

; 558  :                 }
; 559  : 
; 560  :                 _Fixnodeparent->_Left        = _Fixnode; // link fix down

  000e6	89 3e		 mov	 DWORD PTR [esi], edi

; 561  :                 _Pnode->_Right               = _Erasednode->_Right; // link next down

  000e8	8b 42 08	 mov	 eax, DWORD PTR [edx+8]
  000eb	89 41 08	 mov	 DWORD PTR [ecx+8], eax

; 562  :                 _Erasednode->_Right->_Parent = _Pnode; // right up

  000ee	8b 42 08	 mov	 eax, DWORD PTR [edx+8]
  000f1	89 48 04	 mov	 DWORD PTR [eax+4], ecx
$LN19@Extract:

; 563  :             }
; 564  : 
; 565  :             if (_Myhead->_Parent == _Erasednode) {

  000f4	8b 03		 mov	 eax, DWORD PTR [ebx]
  000f6	39 50 04	 cmp	 DWORD PTR [eax+4], edx
  000f9	75 05		 jne	 SHORT $LN21@Extract

; 566  :                 _Myhead->_Parent = _Pnode; // link down from root

  000fb	89 48 04	 mov	 DWORD PTR [eax+4], ecx
  000fe	eb 0e		 jmp	 SHORT $LN24@Extract
$LN21@Extract:

; 567  :             } else if (_Erasednode->_Parent->_Left == _Erasednode) {

  00100	8b 42 04	 mov	 eax, DWORD PTR [edx+4]
  00103	39 10		 cmp	 DWORD PTR [eax], edx
  00105	75 04		 jne	 SHORT $LN23@Extract

; 568  :                 _Erasednode->_Parent->_Left = _Pnode; // link down to left

  00107	89 08		 mov	 DWORD PTR [eax], ecx

; 569  :             } else {

  00109	eb 03		 jmp	 SHORT $LN24@Extract
$LN23@Extract:

; 570  :                 _Erasednode->_Parent->_Right = _Pnode; // link down to right

  0010b	89 48 08	 mov	 DWORD PTR [eax+8], ecx
$LN24@Extract:

; 573  :             _Pnode->_Parent = _Erasednode->_Parent; // link successor up

  0010e	8b 42 04	 mov	 eax, DWORD PTR [edx+4]
; File C:\Program Files (x86)\Microsoft Visual Studio\2019\Professional\VC\Tools\MSVC\14.29.30133\include\utility

; 104  :     _Ty _Tmp = _STD move(_Left);

  00111	8a 51 0c	 mov	 dl, BYTE PTR [ecx+12]
; File C:\Program Files (x86)\Microsoft Visual Studio\2019\Professional\VC\Tools\MSVC\14.29.30133\include\xtree

; 573  :             _Pnode->_Parent = _Erasednode->_Parent; // link successor up

  00114	89 41 04	 mov	 DWORD PTR [ecx+4], eax
; File C:\Program Files (x86)\Microsoft Visual Studio\2019\Professional\VC\Tools\MSVC\14.29.30133\include\utility

; 105  :     _Left    = _STD move(_Right);

  00117	8b 45 fc	 mov	 eax, DWORD PTR __Erasednode$1$[ebp]
  0011a	8a 40 0c	 mov	 al, BYTE PTR [eax+12]
  0011d	88 41 0c	 mov	 BYTE PTR [ecx+12], al

; 106  :     _Right   = _STD move(_Tmp);

  00120	8b 45 fc	 mov	 eax, DWORD PTR __Erasednode$1$[ebp]
  00123	88 50 0c	 mov	 BYTE PTR [eax+12], dl
$LN55@Extract:
; File C:\Program Files (x86)\Microsoft Visual Studio\2019\Professional\VC\Tools\MSVC\14.29.30133\include\xtree

; 577  :         if (_Erasednode->_Color == _Black) { // erasing black link, must recolor/rebalance tree

  00126	80 fa 01	 cmp	 dl, 1
  00129	0f 85 46 01 00
	00		 jne	 $LN25@Extract

; 578  :             for (; _Fixnode != _Myhead->_Parent && _Fixnode->_Color == _Black; _Fixnodeparent = _Fixnode->_Parent) {

  0012f	8b 03		 mov	 eax, DWORD PTR [ebx]
  00131	3b 78 04	 cmp	 edi, DWORD PTR [eax+4]
  00134	0f 84 37 01 00
	00		 je	 $LN3@Extract
  0013a	66 0f 1f 44 00
	00		 npad	 6
$LL4@Extract:
  00140	80 7f 0c 01	 cmp	 BYTE PTR [edi+12], 1
  00144	89 75 f8	 mov	 DWORD PTR tv1186[ebp], esi
  00147	0f 85 24 01 00
	00		 jne	 $LN3@Extract

; 579  :                 if (_Fixnode == _Fixnodeparent->_Left) { // fixup left subtree

  0014d	8b 0e		 mov	 ecx, DWORD PTR [esi]
  0014f	3b f9		 cmp	 edi, ecx
  00151	0f 85 a2 00 00
	00		 jne	 $LN26@Extract

; 580  :                     _Pnode = _Fixnodeparent->_Right;

  00157	8b 4e 08	 mov	 ecx, DWORD PTR [esi+8]

; 581  :                     if (_Pnode->_Color == _Red) { // rotate red up from right subtree

  0015a	80 79 0c 00	 cmp	 BYTE PTR [ecx+12], 0
  0015e	75 43		 jne	 SHORT $LN87@Extract

; 582  :                         _Pnode->_Color         = _Black;

  00160	c6 41 0c 01	 mov	 BYTE PTR [ecx+12], 1

; 465  :         _Nodeptr _Pnode    = _Wherenode->_Right;

  00164	8b 4e 08	 mov	 ecx, DWORD PTR [esi+8]

; 583  :                         _Fixnodeparent->_Color = _Red;

  00167	c6 46 0c 00	 mov	 BYTE PTR [esi+12], 0

; 466  :         _Wherenode->_Right = _Pnode->_Left;

  0016b	8b 01		 mov	 eax, DWORD PTR [ecx]
  0016d	89 46 08	 mov	 DWORD PTR [esi+8], eax

; 467  : 
; 468  :         if (!_Pnode->_Left->_Isnil) {

  00170	8b 01		 mov	 eax, DWORD PTR [ecx]
  00172	80 78 0d 00	 cmp	 BYTE PTR [eax+13], 0
  00176	75 03		 jne	 SHORT $LN57@Extract

; 469  :             _Pnode->_Left->_Parent = _Wherenode;

  00178	89 70 04	 mov	 DWORD PTR [eax+4], esi
$LN57@Extract:

; 470  :         }
; 471  : 
; 472  :         _Pnode->_Parent = _Wherenode->_Parent;

  0017b	8b 46 04	 mov	 eax, DWORD PTR [esi+4]
  0017e	89 41 04	 mov	 DWORD PTR [ecx+4], eax

; 473  : 
; 474  :         if (_Wherenode == _Myhead->_Parent) {

  00181	8b 03		 mov	 eax, DWORD PTR [ebx]
  00183	3b 70 04	 cmp	 esi, DWORD PTR [eax+4]
  00186	75 05		 jne	 SHORT $LN58@Extract

; 475  :             _Myhead->_Parent = _Pnode;

  00188	89 48 04	 mov	 DWORD PTR [eax+4], ecx
  0018b	eb 0e		 jmp	 SHORT $LN61@Extract
$LN58@Extract:

; 476  :         } else if (_Wherenode == _Wherenode->_Parent->_Left) {

  0018d	8b 46 04	 mov	 eax, DWORD PTR [esi+4]
  00190	3b 30		 cmp	 esi, DWORD PTR [eax]
  00192	75 04		 jne	 SHORT $LN60@Extract

; 477  :             _Wherenode->_Parent->_Left = _Pnode;

  00194	89 08		 mov	 DWORD PTR [eax], ecx

; 478  :         } else {

  00196	eb 03		 jmp	 SHORT $LN61@Extract
$LN60@Extract:

; 479  :             _Wherenode->_Parent->_Right = _Pnode;

  00198	89 48 08	 mov	 DWORD PTR [eax+8], ecx
$LN61@Extract:

; 480  :         }
; 481  : 
; 482  :         _Pnode->_Left       = _Wherenode;

  0019b	89 31		 mov	 DWORD PTR [ecx], esi

; 483  :         _Wherenode->_Parent = _Pnode;

  0019d	89 4e 04	 mov	 DWORD PTR [esi+4], ecx

; 584  :                         _Lrotate(_Fixnodeparent);
; 585  :                         _Pnode = _Fixnodeparent->_Right;

  001a0	8b 4e 08	 mov	 ecx, DWORD PTR [esi+8]
$LN87@Extract:

; 586  :                     }
; 587  : 
; 588  :                     if (_Pnode->_Isnil) {

  001a3	80 79 0d 00	 cmp	 BYTE PTR [ecx+13], 0
  001a7	0f 85 b1 00 00
	00		 jne	 $LN2@Extract

; 589  :                         _Fixnode = _Fixnodeparent; // shouldn't happen
; 590  :                     } else if (_Pnode->_Left->_Color == _Black
; 591  :                                && _Pnode->_Right->_Color == _Black) { // redden right subtree with black children

  001ad	8b 11		 mov	 edx, DWORD PTR [ecx]
  001af	80 7a 0c 01	 cmp	 BYTE PTR [edx+12], 1
  001b3	75 0d		 jne	 SHORT $LN89@Extract
  001b5	8b 41 08	 mov	 eax, DWORD PTR [ecx+8]
  001b8	80 78 0c 01	 cmp	 BYTE PTR [eax+12], 1
  001bc	0f 84 98 00 00
	00		 je	 $LN93@Extract
$LN89@Extract:

; 592  :                         _Pnode->_Color = _Red;
; 593  :                         _Fixnode       = _Fixnodeparent;
; 594  :                     } else { // must rearrange right subtree
; 595  :                         if (_Pnode->_Right->_Color == _Black) { // rotate red up from left sub-subtree

  001c2	8b 41 08	 mov	 eax, DWORD PTR [ecx+8]
  001c5	80 78 0c 01	 cmp	 BYTE PTR [eax+12], 1
  001c9	75 13		 jne	 SHORT $LN33@Extract

; 596  :                             _Pnode->_Left->_Color = _Black;

  001cb	c6 42 0c 01	 mov	 BYTE PTR [edx+12], 1

; 597  :                             _Pnode->_Color        = _Red;

  001cf	c6 41 0c 00	 mov	 BYTE PTR [ecx+12], 0

; 598  :                             _Rrotate(_Pnode);

  001d3	51		 push	 ecx
  001d4	8b cb		 mov	 ecx, ebx
  001d6	e8 00 00 00 00	 call	 ?_Rrotate@?$_Tree_val@U?$_Tree_simple_types@U?$pair@$$CBKV?$basic_string@DU?$char_traits@D@std@@V?$allocator@D@2@@std@@@std@@@std@@@std@@QAEXPAU?$_Tree_node@U?$pair@$$CBKV?$basic_string@DU?$char_traits@D@std@@V?$allocator@D@2@@std@@@std@@PAX@2@@Z ; std::_Tree_val<std::_Tree_simple_types<std::pair<unsigned long const ,std::basic_string<char,std::char_traits<char>,std::allocator<char> > > > >::_Rrotate

; 599  :                             _Pnode = _Fixnodeparent->_Right;

  001db	8b 4e 08	 mov	 ecx, DWORD PTR [esi+8]
$LN33@Extract:

; 600  :                         }
; 601  : 
; 602  :                         _Pnode->_Color         = _Fixnodeparent->_Color;

  001de	8a 46 0c	 mov	 al, BYTE PTR [esi+12]
  001e1	88 41 0c	 mov	 BYTE PTR [ecx+12], al

; 603  :                         _Fixnodeparent->_Color = _Black;

  001e4	c6 46 0c 01	 mov	 BYTE PTR [esi+12], 1

; 604  :                         _Pnode->_Right->_Color = _Black;

  001e8	8b 41 08	 mov	 eax, DWORD PTR [ecx+8]

; 605  :                         _Lrotate(_Fixnodeparent);

  001eb	8b cb		 mov	 ecx, ebx
  001ed	56		 push	 esi
  001ee	c6 40 0c 01	 mov	 BYTE PTR [eax+12], 1
  001f2	e8 00 00 00 00	 call	 ?_Lrotate@?$_Tree_val@U?$_Tree_simple_types@U?$pair@$$CBKV?$basic_string@DU?$char_traits@D@std@@V?$allocator@D@2@@std@@@std@@@std@@@std@@QAEXPAU?$_Tree_node@U?$pair@$$CBKV?$basic_string@DU?$char_traits@D@std@@V?$allocator@D@2@@std@@@std@@PAX@2@@Z ; std::_Tree_val<std::_Tree_simple_types<std::pair<unsigned long const ,std::basic_string<char,std::char_traits<char>,std::allocator<char> > > > >::_Lrotate

; 606  :                         break; // tree now recolored/rebalanced

  001f7	eb 78		 jmp	 SHORT $LN3@Extract
$LN26@Extract:

; 607  :                     }
; 608  :                 } else { // fixup right subtree
; 609  :                     _Pnode = _Fixnodeparent->_Left;
; 610  :                     if (_Pnode->_Color == _Red) { // rotate red up from left subtree

  001f9	80 79 0c 00	 cmp	 BYTE PTR [ecx+12], 0
  001fd	75 44		 jne	 SHORT $LN88@Extract

; 611  :                         _Pnode->_Color         = _Black;

  001ff	c6 41 0c 01	 mov	 BYTE PTR [ecx+12], 1

; 487  :         _Nodeptr _Pnode   = _Wherenode->_Left;

  00203	8b 0e		 mov	 ecx, DWORD PTR [esi]

; 612  :                         _Fixnodeparent->_Color = _Red;

  00205	c6 46 0c 00	 mov	 BYTE PTR [esi+12], 0

; 488  :         _Wherenode->_Left = _Pnode->_Right;

  00209	8b 41 08	 mov	 eax, DWORD PTR [ecx+8]
  0020c	89 06		 mov	 DWORD PTR [esi], eax

; 489  : 
; 490  :         if (!_Pnode->_Right->_Isnil) {

  0020e	8b 41 08	 mov	 eax, DWORD PTR [ecx+8]
  00211	80 78 0d 00	 cmp	 BYTE PTR [eax+13], 0
  00215	75 03		 jne	 SHORT $LN64@Extract

; 491  :             _Pnode->_Right->_Parent = _Wherenode;

  00217	89 70 04	 mov	 DWORD PTR [eax+4], esi
$LN64@Extract:

; 492  :         }
; 493  : 
; 494  :         _Pnode->_Parent = _Wherenode->_Parent;

  0021a	8b 46 04	 mov	 eax, DWORD PTR [esi+4]
  0021d	89 41 04	 mov	 DWORD PTR [ecx+4], eax

; 495  : 
; 496  :         if (_Wherenode == _Myhead->_Parent) {

  00220	8b 03		 mov	 eax, DWORD PTR [ebx]
  00222	3b 70 04	 cmp	 esi, DWORD PTR [eax+4]
  00225	75 05		 jne	 SHORT $LN65@Extract

; 497  :             _Myhead->_Parent = _Pnode;

  00227	89 48 04	 mov	 DWORD PTR [eax+4], ecx
  0022a	eb 0f		 jmp	 SHORT $LN68@Extract
$LN65@Extract:

; 498  :         } else if (_Wherenode == _Wherenode->_Parent->_Right) {

  0022c	8b 46 04	 mov	 eax, DWORD PTR [esi+4]
  0022f	3b 70 08	 cmp	 esi, DWORD PTR [eax+8]
  00232	75 05		 jne	 SHORT $LN67@Extract

; 499  :             _Wherenode->_Parent->_Right = _Pnode;

  00234	89 48 08	 mov	 DWORD PTR [eax+8], ecx

; 500  :         } else {

  00237	eb 02		 jmp	 SHORT $LN68@Extract
$LN67@Extract:

; 501  :             _Wherenode->_Parent->_Left = _Pnode;

  00239	89 08		 mov	 DWORD PTR [eax], ecx
$LN68@Extract:

; 502  :         }
; 503  : 
; 504  :         _Pnode->_Right      = _Wherenode;

  0023b	89 71 08	 mov	 DWORD PTR [ecx+8], esi

; 505  :         _Wherenode->_Parent = _Pnode;

  0023e	89 4e 04	 mov	 DWORD PTR [esi+4], ecx

; 613  :                         _Rrotate(_Fixnodeparent);
; 614  :                         _Pnode = _Fixnodeparent->_Left;

  00241	8b 0e		 mov	 ecx, DWORD PTR [esi]
$LN88@Extract:

; 615  :                     }
; 616  : 
; 617  :                     if (_Pnode->_Isnil) {

  00243	80 79 0d 00	 cmp	 BYTE PTR [ecx+13], 0
  00247	75 15		 jne	 SHORT $LN2@Extract

; 618  :                         _Fixnode = _Fixnodeparent; // shouldn't happen
; 619  :                     } else if (_Pnode->_Right->_Color == _Black
; 620  :                                && _Pnode->_Left->_Color == _Black) { // redden left subtree with black children

  00249	8b 51 08	 mov	 edx, DWORD PTR [ecx+8]
  0024c	80 7a 0c 01	 cmp	 BYTE PTR [edx+12], 1
  00250	75 3a		 jne	 SHORT $LN90@Extract
  00252	8b 01		 mov	 eax, DWORD PTR [ecx]
  00254	80 78 0c 01	 cmp	 BYTE PTR [eax+12], 1
  00258	75 32		 jne	 SHORT $LN90@Extract
$LN93@Extract:

; 578  :             for (; _Fixnode != _Myhead->_Parent && _Fixnode->_Color == _Black; _Fixnodeparent = _Fixnode->_Parent) {

  0025a	c6 41 0c 00	 mov	 BYTE PTR [ecx+12], 0
$LN2@Extract:
  0025e	8b 03		 mov	 eax, DWORD PTR [ebx]
  00260	8b 4d f8	 mov	 ecx, DWORD PTR tv1186[ebp]
  00263	8b f9		 mov	 edi, ecx
  00265	8b 76 04	 mov	 esi, DWORD PTR [esi+4]
  00268	3b 48 04	 cmp	 ecx, DWORD PTR [eax+4]
  0026b	0f 85 cf fe ff
	ff		 jne	 $LL4@Extract
$LN3@Extract:

; 635  :                         break; // tree now recolored/rebalanced
; 636  :                     }
; 637  :                 }
; 638  :             }
; 639  : 
; 640  :             _Fixnode->_Color = _Black; // stopping node is black

  00271	c6 47 0c 01	 mov	 BYTE PTR [edi+12], 1
$LN25@Extract:

; 641  :         }
; 642  : 
; 643  :         if (0 < _Mysize) {

  00275	8b 4b 04	 mov	 ecx, DWORD PTR [ebx+4]
  00278	8b 45 fc	 mov	 eax, DWORD PTR __Erasednode$1$[ebp]
  0027b	85 c9		 test	 ecx, ecx
  0027d	74 04		 je	 SHORT $LN40@Extract

; 644  :             --_Mysize;

  0027f	49		 dec	 ecx
  00280	89 4b 04	 mov	 DWORD PTR [ebx+4], ecx
$LN40@Extract:

; 645  :         }
; 646  : 
; 647  :         return _Erasednode;
; 648  :     }

  00283	5f		 pop	 edi
  00284	5e		 pop	 esi
  00285	5b		 pop	 ebx
  00286	8b e5		 mov	 esp, ebp
  00288	5d		 pop	 ebp
  00289	c2 04 00	 ret	 4
$LN90@Extract:

; 621  :                         _Pnode->_Color = _Red;
; 622  :                         _Fixnode       = _Fixnodeparent;
; 623  :                     } else { // must rearrange left subtree
; 624  :                         if (_Pnode->_Left->_Color == _Black) { // rotate red up from right sub-subtree

  0028c	8b 01		 mov	 eax, DWORD PTR [ecx]
  0028e	80 78 0c 01	 cmp	 BYTE PTR [eax+12], 1
  00292	75 12		 jne	 SHORT $LN39@Extract

; 625  :                             _Pnode->_Right->_Color = _Black;

  00294	c6 42 0c 01	 mov	 BYTE PTR [edx+12], 1

; 626  :                             _Pnode->_Color         = _Red;

  00298	c6 41 0c 00	 mov	 BYTE PTR [ecx+12], 0

; 627  :                             _Lrotate(_Pnode);

  0029c	51		 push	 ecx
  0029d	8b cb		 mov	 ecx, ebx
  0029f	e8 00 00 00 00	 call	 ?_Lrotate@?$_Tree_val@U?$_Tree_simple_types@U?$pair@$$CBKV?$basic_string@DU?$char_traits@D@std@@V?$allocator@D@2@@std@@@std@@@std@@@std@@QAEXPAU?$_Tree_node@U?$pair@$$CBKV?$basic_string@DU?$char_traits@D@std@@V?$allocator@D@2@@std@@@std@@PAX@2@@Z ; std::_Tree_val<std::_Tree_simple_types<std::pair<unsigned long const ,std::basic_string<char,std::char_traits<char>,std::allocator<char> > > > >::_Lrotate

; 628  :                             _Pnode = _Fixnodeparent->_Left;

  002a4	8b 0e		 mov	 ecx, DWORD PTR [esi]
$LN39@Extract:

; 629  :                         }
; 630  : 
; 631  :                         _Pnode->_Color         = _Fixnodeparent->_Color;

  002a6	8a 46 0c	 mov	 al, BYTE PTR [esi+12]
  002a9	88 41 0c	 mov	 BYTE PTR [ecx+12], al

; 632  :                         _Fixnodeparent->_Color = _Black;

  002ac	c6 46 0c 01	 mov	 BYTE PTR [esi+12], 1

; 633  :                         _Pnode->_Left->_Color  = _Black;

  002b0	8b 01		 mov	 eax, DWORD PTR [ecx]

; 634  :                         _Rrotate(_Fixnodeparent);

  002b2	8b cb		 mov	 ecx, ebx
  002b4	56		 push	 esi
  002b5	c6 40 0c 01	 mov	 BYTE PTR [eax+12], 1
  002b9	e8 00 00 00 00	 call	 ?_Rrotate@?$_Tree_val@U?$_Tree_simple_types@U?$pair@$$CBKV?$basic_string@DU?$char_traits@D@std@@V?$allocator@D@2@@std@@@std@@@std@@@std@@QAEXPAU?$_Tree_node@U?$pair@$$CBKV?$basic_string@DU?$char_traits@D@std@@V?$allocator@D@2@@std@@@std@@PAX@2@@Z ; std::_Tree_val<std::_Tree_simple_types<std::pair<unsigned long const ,std::basic_string<char,std::char_traits<char>,std::allocator<char> > > > >::_Rrotate
  002be	eb b1		 jmp	 SHORT $LN3@Extract
?_Extract@?$_Tree_val@U?$_Tree_simple_types@U?$pair@$$CBKV?$basic_string@DU?$char_traits@D@std@@V?$allocator@D@2@@std@@@std@@@std@@@std@@QAEPAU?$_Tree_node@U?$pair@$$CBKV?$basic_string@DU?$char_traits@D@std@@V?$allocator@D@2@@std@@@std@@PAX@2@V?$_Tree_unchecked_const_iterator@V?$_Tree_val@U?$_Tree_simple_types@U?$pair@$$CBKV?$basic_string@DU?$char_traits@D@std@@V?$allocator@D@2@@std@@@std@@@std@@@std@@U_Iterator_base0@2@@2@@Z ENDP ; std::_Tree_val<std::_Tree_simple_types<std::pair<unsigned long const ,std::basic_string<char,std::char_traits<char>,std::allocator<char> > > > >::_Extract
_TEXT	ENDS
; Function compile flags: /Ogtp
; File C:\Program Files (x86)\Microsoft Visual Studio\2019\Professional\VC\Tools\MSVC\14.29.30133\include\xtree
;	COMDAT ?_Rrotate@?$_Tree_val@U?$_Tree_simple_types@U?$pair@$$CBKV?$basic_string@DU?$char_traits@D@std@@V?$allocator@D@2@@std@@@std@@@std@@@std@@QAEXPAU?$_Tree_node@U?$pair@$$CBKV?$basic_string@DU?$char_traits@D@std@@V?$allocator@D@2@@std@@@std@@PAX@2@@Z
_TEXT	SEGMENT
__Wherenode$ = 8					; size = 4
?_Rrotate@?$_Tree_val@U?$_Tree_simple_types@U?$pair@$$CBKV?$basic_string@DU?$char_traits@D@std@@V?$allocator@D@2@@std@@@std@@@std@@@std@@QAEXPAU?$_Tree_node@U?$pair@$$CBKV?$basic_string@DU?$char_traits@D@std@@V?$allocator@D@2@@std@@@std@@PAX@2@@Z PROC ; std::_Tree_val<std::_Tree_simple_types<std::pair<unsigned long const ,std::basic_string<char,std::char_traits<char>,std::allocator<char> > > > >::_Rrotate, COMDAT
; _this$ = ecx

; 486  :     void _Rrotate(_Nodeptr _Wherenode) noexcept { // promote left node to root of subtree

  00000	55		 push	 ebp
  00001	8b ec		 mov	 ebp, esp

; 487  :         _Nodeptr _Pnode   = _Wherenode->_Left;

  00003	8b 55 08	 mov	 edx, DWORD PTR __Wherenode$[ebp]
  00006	56		 push	 esi
  00007	8b 32		 mov	 esi, DWORD PTR [edx]

; 488  :         _Wherenode->_Left = _Pnode->_Right;

  00009	8b 46 08	 mov	 eax, DWORD PTR [esi+8]
  0000c	89 02		 mov	 DWORD PTR [edx], eax

; 489  : 
; 490  :         if (!_Pnode->_Right->_Isnil) {

  0000e	8b 46 08	 mov	 eax, DWORD PTR [esi+8]
  00011	80 78 0d 00	 cmp	 BYTE PTR [eax+13], 0
  00015	75 03		 jne	 SHORT $LN2@Rrotate

; 491  :             _Pnode->_Right->_Parent = _Wherenode;

  00017	89 50 04	 mov	 DWORD PTR [eax+4], edx
$LN2@Rrotate:

; 492  :         }
; 493  : 
; 494  :         _Pnode->_Parent = _Wherenode->_Parent;

  0001a	8b 42 04	 mov	 eax, DWORD PTR [edx+4]
  0001d	89 46 04	 mov	 DWORD PTR [esi+4], eax

; 495  : 
; 496  :         if (_Wherenode == _Myhead->_Parent) {

  00020	8b 01		 mov	 eax, DWORD PTR [ecx]
  00022	3b 50 04	 cmp	 edx, DWORD PTR [eax+4]
  00025	75 0e		 jne	 SHORT $LN3@Rrotate

; 497  :             _Myhead->_Parent = _Pnode;

  00027	89 70 04	 mov	 DWORD PTR [eax+4], esi

; 502  :         }
; 503  : 
; 504  :         _Pnode->_Right      = _Wherenode;
; 505  :         _Wherenode->_Parent = _Pnode;
; 506  :     }

  0002a	89 56 08	 mov	 DWORD PTR [esi+8], edx
  0002d	89 72 04	 mov	 DWORD PTR [edx+4], esi
  00030	5e		 pop	 esi
  00031	5d		 pop	 ebp
  00032	c2 04 00	 ret	 4
$LN3@Rrotate:

; 498  :         } else if (_Wherenode == _Wherenode->_Parent->_Right) {

  00035	8b 42 04	 mov	 eax, DWORD PTR [edx+4]
  00038	3b 50 08	 cmp	 edx, DWORD PTR [eax+8]
  0003b	75 0e		 jne	 SHORT $LN5@Rrotate

; 499  :             _Wherenode->_Parent->_Right = _Pnode;

  0003d	89 70 08	 mov	 DWORD PTR [eax+8], esi

; 502  :         }
; 503  : 
; 504  :         _Pnode->_Right      = _Wherenode;
; 505  :         _Wherenode->_Parent = _Pnode;
; 506  :     }

  00040	89 56 08	 mov	 DWORD PTR [esi+8], edx
  00043	89 72 04	 mov	 DWORD PTR [edx+4], esi
  00046	5e		 pop	 esi
  00047	5d		 pop	 ebp
  00048	c2 04 00	 ret	 4
$LN5@Rrotate:

; 500  :         } else {
; 501  :             _Wherenode->_Parent->_Left = _Pnode;

  0004b	89 30		 mov	 DWORD PTR [eax], esi

; 502  :         }
; 503  : 
; 504  :         _Pnode->_Right      = _Wherenode;
; 505  :         _Wherenode->_Parent = _Pnode;
; 506  :     }

  0004d	89 56 08	 mov	 DWORD PTR [esi+8], edx
  00050	89 72 04	 mov	 DWORD PTR [edx+4], esi
  00053	5e		 pop	 esi
  00054	5d		 pop	 ebp
  00055	c2 04 00	 ret	 4
?_Rrotate@?$_Tree_val@U?$_Tree_simple_types@U?$pair@$$CBKV?$basic_string@DU?$char_traits@D@std@@V?$allocator@D@2@@std@@@std@@@std@@@std@@QAEXPAU?$_Tree_node@U?$pair@$$CBKV?$basic_string@DU?$char_traits@D@std@@V?$allocator@D@2@@std@@@std@@PAX@2@@Z ENDP ; std::_Tree_val<std::_Tree_simple_types<std::pair<unsigned long const ,std::basic_string<char,std::char_traits<char>,std::allocator<char> > > > >::_Rrotate
_TEXT	ENDS
; Function compile flags: /Ogtp
; File C:\Program Files (x86)\Microsoft Visual Studio\2019\Professional\VC\Tools\MSVC\14.29.30133\include\xtree
;	COMDAT ?_Lrotate@?$_Tree_val@U?$_Tree_simple_types@U?$pair@$$CBKV?$basic_string@DU?$char_traits@D@std@@V?$allocator@D@2@@std@@@std@@@std@@@std@@QAEXPAU?$_Tree_node@U?$pair@$$CBKV?$basic_string@DU?$char_traits@D@std@@V?$allocator@D@2@@std@@@std@@PAX@2@@Z
_TEXT	SEGMENT
__Wherenode$ = 8					; size = 4
?_Lrotate@?$_Tree_val@U?$_Tree_simple_types@U?$pair@$$CBKV?$basic_string@DU?$char_traits@D@std@@V?$allocator@D@2@@std@@@std@@@std@@@std@@QAEXPAU?$_Tree_node@U?$pair@$$CBKV?$basic_string@DU?$char_traits@D@std@@V?$allocator@D@2@@std@@@std@@PAX@2@@Z PROC ; std::_Tree_val<std::_Tree_simple_types<std::pair<unsigned long const ,std::basic_string<char,std::char_traits<char>,std::allocator<char> > > > >::_Lrotate, COMDAT
; _this$ = ecx

; 464  :     void _Lrotate(_Nodeptr _Wherenode) noexcept { // promote right node to root of subtree

  00000	55		 push	 ebp
  00001	8b ec		 mov	 ebp, esp

; 465  :         _Nodeptr _Pnode    = _Wherenode->_Right;

  00003	8b 55 08	 mov	 edx, DWORD PTR __Wherenode$[ebp]
  00006	56		 push	 esi
  00007	8b 72 08	 mov	 esi, DWORD PTR [edx+8]

; 466  :         _Wherenode->_Right = _Pnode->_Left;

  0000a	8b 06		 mov	 eax, DWORD PTR [esi]
  0000c	89 42 08	 mov	 DWORD PTR [edx+8], eax

; 467  : 
; 468  :         if (!_Pnode->_Left->_Isnil) {

  0000f	8b 06		 mov	 eax, DWORD PTR [esi]
  00011	80 78 0d 00	 cmp	 BYTE PTR [eax+13], 0
  00015	75 03		 jne	 SHORT $LN2@Lrotate

; 469  :             _Pnode->_Left->_Parent = _Wherenode;

  00017	89 50 04	 mov	 DWORD PTR [eax+4], edx
$LN2@Lrotate:

; 470  :         }
; 471  : 
; 472  :         _Pnode->_Parent = _Wherenode->_Parent;

  0001a	8b 42 04	 mov	 eax, DWORD PTR [edx+4]
  0001d	89 46 04	 mov	 DWORD PTR [esi+4], eax

; 473  : 
; 474  :         if (_Wherenode == _Myhead->_Parent) {

  00020	8b 01		 mov	 eax, DWORD PTR [ecx]
  00022	3b 50 04	 cmp	 edx, DWORD PTR [eax+4]
  00025	75 0d		 jne	 SHORT $LN3@Lrotate

; 475  :             _Myhead->_Parent = _Pnode;

  00027	89 70 04	 mov	 DWORD PTR [eax+4], esi

; 480  :         }
; 481  : 
; 482  :         _Pnode->_Left       = _Wherenode;
; 483  :         _Wherenode->_Parent = _Pnode;
; 484  :     }

  0002a	89 16		 mov	 DWORD PTR [esi], edx
  0002c	89 72 04	 mov	 DWORD PTR [edx+4], esi
  0002f	5e		 pop	 esi
  00030	5d		 pop	 ebp
  00031	c2 04 00	 ret	 4
$LN3@Lrotate:

; 476  :         } else if (_Wherenode == _Wherenode->_Parent->_Left) {

  00034	8b 42 04	 mov	 eax, DWORD PTR [edx+4]
  00037	3b 10		 cmp	 edx, DWORD PTR [eax]
  00039	75 0c		 jne	 SHORT $LN5@Lrotate

; 477  :             _Wherenode->_Parent->_Left = _Pnode;

  0003b	89 30		 mov	 DWORD PTR [eax], esi

; 480  :         }
; 481  : 
; 482  :         _Pnode->_Left       = _Wherenode;
; 483  :         _Wherenode->_Parent = _Pnode;
; 484  :     }

  0003d	89 16		 mov	 DWORD PTR [esi], edx
  0003f	89 72 04	 mov	 DWORD PTR [edx+4], esi
  00042	5e		 pop	 esi
  00043	5d		 pop	 ebp
  00044	c2 04 00	 ret	 4
$LN5@Lrotate:

; 478  :         } else {
; 479  :             _Wherenode->_Parent->_Right = _Pnode;

  00047	89 70 08	 mov	 DWORD PTR [eax+8], esi

; 480  :         }
; 481  : 
; 482  :         _Pnode->_Left       = _Wherenode;
; 483  :         _Wherenode->_Parent = _Pnode;
; 484  :     }

  0004a	89 16		 mov	 DWORD PTR [esi], edx
  0004c	89 72 04	 mov	 DWORD PTR [edx+4], esi
  0004f	5e		 pop	 esi
  00050	5d		 pop	 ebp
  00051	c2 04 00	 ret	 4
?_Lrotate@?$_Tree_val@U?$_Tree_simple_types@U?$pair@$$CBKV?$basic_string@DU?$char_traits@D@std@@V?$allocator@D@2@@std@@@std@@@std@@@std@@QAEXPAU?$_Tree_node@U?$pair@$$CBKV?$basic_string@DU?$char_traits@D@std@@V?$allocator@D@2@@std@@@std@@PAX@2@@Z ENDP ; std::_Tree_val<std::_Tree_simple_types<std::pair<unsigned long const ,std::basic_string<char,std::char_traits<char>,std::allocator<char> > > > >::_Lrotate
_TEXT	ENDS
; Function compile flags: /Ogtp
;	COMDAT ??1?$map@PAVCResource@@KU?$less@PAVCResource@@@std@@V?$allocator@U?$pair@QAVCResource@@K@std@@@3@@std@@QAE@XZ
_TEXT	SEGMENT
??1?$map@PAVCResource@@KU?$less@PAVCResource@@@std@@V?$allocator@U?$pair@QAVCResource@@K@std@@@3@@std@@QAE@XZ PROC ; std::map<CResource *,unsigned long,std::less<CResource *>,std::allocator<std::pair<CResource * const,unsigned long> > >::~map<CResource *,unsigned long,std::less<CResource *>,std::allocator<std::pair<CResource * const,unsigned long> > >, COMDAT
; _this$ = ecx
  00000	e9 00 00 00 00	 jmp	 ??1?$_Tree@V?$_Tmap_traits@PAVCResource@@KU?$less@PAVCResource@@@std@@V?$allocator@U?$pair@QAVCResource@@K@std@@@3@$0A@@std@@@std@@QAE@XZ ; std::_Tree<std::_Tmap_traits<CResource *,unsigned long,std::less<CResource *>,std::allocator<std::pair<CResource * const,unsigned long> >,0> >::~_Tree<std::_Tmap_traits<CResource *,unsigned long,std::less<CResource *>,std::allocator<std::pair<CResource * const,unsigned long> >,0> >
??1?$map@PAVCResource@@KU?$less@PAVCResource@@@std@@V?$allocator@U?$pair@QAVCResource@@K@std@@@3@@std@@QAE@XZ ENDP ; std::map<CResource *,unsigned long,std::less<CResource *>,std::allocator<std::pair<CResource * const,unsigned long> > >::~map<CResource *,unsigned long,std::less<CResource *>,std::allocator<std::pair<CResource * const,unsigned long> > >
_TEXT	ENDS
; Function compile flags: /Ogtp
; File C:\Program Files (x86)\Microsoft Visual Studio\2019\Professional\VC\Tools\MSVC\14.29.30133\include\xtree
;	COMDAT ?_Insert_node@?$_Tree_val@U?$_Tree_simple_types@U?$pair@QAVCResource@@K@std@@@std@@@std@@QAEPAU?$_Tree_node@U?$pair@QAVCResource@@K@std@@PAX@2@U?$_Tree_id@PAU?$_Tree_node@U?$pair@QAVCResource@@K@std@@PAX@std@@@2@QAU32@@Z
_TEXT	SEGMENT
__Head$1$ = -8						; size = 4
_this$1$ = -4						; size = 4
__Loc$ = 8						; size = 8
__Newnode$ = 16						; size = 4
?_Insert_node@?$_Tree_val@U?$_Tree_simple_types@U?$pair@QAVCResource@@K@std@@@std@@@std@@QAEPAU?$_Tree_node@U?$pair@QAVCResource@@K@std@@PAX@2@U?$_Tree_id@PAU?$_Tree_node@U?$pair@QAVCResource@@K@std@@PAX@std@@@2@QAU32@@Z PROC ; std::_Tree_val<std::_Tree_simple_types<std::pair<CResource * const,unsigned long> > >::_Insert_node, COMDAT
; _this$ = ecx

; 650  :     _Nodeptr _Insert_node(const _Tree_id<_Nodeptr> _Loc, const _Nodeptr _Newnode) noexcept {

  00000	55		 push	 ebp
  00001	8b ec		 mov	 ebp, esp
  00003	83 ec 08	 sub	 esp, 8

; 651  :         ++_Mysize;
; 652  :         const auto _Head  = _Myhead;
; 653  :         _Newnode->_Parent = _Loc._Parent;

  00006	8b 55 08	 mov	 edx, DWORD PTR __Loc$[ebp]
  00009	8b c1		 mov	 eax, ecx
  0000b	89 45 fc	 mov	 DWORD PTR _this$1$[ebp], eax
  0000e	8b 08		 mov	 ecx, DWORD PTR [eax]
  00010	ff 40 04	 inc	 DWORD PTR [eax+4]
  00013	8b 45 10	 mov	 eax, DWORD PTR __Newnode$[ebp]
  00016	89 4d f8	 mov	 DWORD PTR __Head$1$[ebp], ecx
  00019	89 50 04	 mov	 DWORD PTR [eax+4], edx

; 654  :         if (_Loc._Parent == _Head) { // first node in tree, just set head values

  0001c	3b d1		 cmp	 edx, ecx
  0001e	75 12		 jne	 SHORT $LN5@Insert_nod

; 655  :             _Head->_Left     = _Newnode;

  00020	89 01		 mov	 DWORD PTR [ecx], eax

; 656  :             _Head->_Parent   = _Newnode;

  00022	89 41 04	 mov	 DWORD PTR [ecx+4], eax

; 657  :             _Head->_Right    = _Newnode;

  00025	89 41 08	 mov	 DWORD PTR [ecx+8], eax

; 658  :             _Newnode->_Color = _Black; // the root is black

  00028	c6 40 0c 01	 mov	 BYTE PTR [eax+12], 1

; 717  :     }

  0002c	8b e5		 mov	 esp, ebp
  0002e	5d		 pop	 ebp
  0002f	c2 0c 00	 ret	 12			; 0000000cH
$LN5@Insert_nod:

; 659  :             return _Newnode;
; 660  :         }
; 661  : 
; 662  :         _STL_INTERNAL_CHECK(_Loc._Child != _Tree_child::_Unused);
; 663  :         if (_Loc._Child == _Tree_child::_Right) { // add to right of _Loc._Parent

  00032	83 7d 0c 00	 cmp	 DWORD PTR __Loc$[ebp+4], 0
  00036	75 0d		 jne	 SHORT $LN6@Insert_nod

; 664  :             _STL_INTERNAL_CHECK(_Loc._Parent->_Right->_Isnil);
; 665  :             _Loc._Parent->_Right = _Newnode;

  00038	89 42 08	 mov	 DWORD PTR [edx+8], eax

; 666  :             if (_Loc._Parent == _Head->_Right) { // remember rightmost node

  0003b	3b 51 08	 cmp	 edx, DWORD PTR [ecx+8]
  0003e	75 0d		 jne	 SHORT $LN9@Insert_nod

; 667  :                 _Head->_Right = _Newnode;

  00040	89 41 08	 mov	 DWORD PTR [ecx+8], eax

; 668  :             }
; 669  :         } else { // add to left of _Loc._Parent

  00043	eb 08		 jmp	 SHORT $LN9@Insert_nod
$LN6@Insert_nod:

; 670  :             _STL_INTERNAL_CHECK(_Loc._Parent->_Left->_Isnil);
; 671  :             _Loc._Parent->_Left = _Newnode;

  00045	89 02		 mov	 DWORD PTR [edx], eax

; 672  :             if (_Loc._Parent == _Head->_Left) { // remember leftmost node

  00047	3b 11		 cmp	 edx, DWORD PTR [ecx]
  00049	75 02		 jne	 SHORT $LN9@Insert_nod

; 673  :                 _Head->_Left = _Newnode;

  0004b	89 01		 mov	 DWORD PTR [ecx], eax
$LN9@Insert_nod:

; 674  :             }
; 675  :         }
; 676  : 
; 677  :         for (_Nodeptr _Pnode = _Newnode; _Pnode->_Parent->_Color == _Red;) {

  0004d	8b d0		 mov	 edx, eax
  0004f	8b 40 04	 mov	 eax, DWORD PTR [eax+4]
  00052	80 78 0c 00	 cmp	 BYTE PTR [eax+12], 0
  00056	0f 85 99 01 00
	00		 jne	 $LN3@Insert_nod
  0005c	53		 push	 ebx
  0005d	56		 push	 esi
  0005e	57		 push	 edi
  0005f	90		 npad	 1
$LL2@Insert_nod:

; 678  :             if (_Pnode->_Parent == _Pnode->_Parent->_Parent->_Left) { // fixup red-red in left subtree

  00060	8b 4a 04	 mov	 ecx, DWORD PTR [edx+4]
  00063	8d 7a 04	 lea	 edi, DWORD PTR [edx+4]
  00066	8b 71 04	 mov	 esi, DWORD PTR [ecx+4]
  00069	8d 59 04	 lea	 ebx, DWORD PTR [ecx+4]
  0006c	8b 06		 mov	 eax, DWORD PTR [esi]
  0006e	3b c8		 cmp	 ecx, eax
  00070	0f 85 ba 00 00
	00		 jne	 $LN10@Insert_nod

; 679  :                 const auto _Parent_sibling = _Pnode->_Parent->_Parent->_Right;

  00076	8b 46 08	 mov	 eax, DWORD PTR [esi+8]

; 680  :                 if (_Parent_sibling->_Color == _Red) { // parent's sibling has two red children, blacken both

  00079	80 78 0c 00	 cmp	 BYTE PTR [eax+12], 0
  0007d	0f 84 b3 00 00
	00		 je	 $LN53@Insert_nod

; 681  :                     _Pnode->_Parent->_Color          = _Black;
; 682  :                     _Parent_sibling->_Color          = _Black;
; 683  :                     _Pnode->_Parent->_Parent->_Color = _Red;
; 684  :                     _Pnode                           = _Pnode->_Parent->_Parent;
; 685  :                 } else { // parent's sibling has red and black children
; 686  :                     if (_Pnode == _Pnode->_Parent->_Right) { // rotate right child to left

  00083	8b 71 08	 mov	 esi, DWORD PTR [ecx+8]
  00086	3b d6		 cmp	 edx, esi
  00088	75 47		 jne	 SHORT $LN51@Insert_nod

; 466  :         _Wherenode->_Right = _Pnode->_Left;

  0008a	8b 06		 mov	 eax, DWORD PTR [esi]

; 687  :                         _Pnode = _Pnode->_Parent;

  0008c	8b d1		 mov	 edx, ecx

; 466  :         _Wherenode->_Right = _Pnode->_Left;

  0008e	89 42 08	 mov	 DWORD PTR [edx+8], eax

; 467  : 
; 468  :         if (!_Pnode->_Left->_Isnil) {

  00091	8b 06		 mov	 eax, DWORD PTR [esi]
  00093	80 78 0d 00	 cmp	 BYTE PTR [eax+13], 0
  00097	75 03		 jne	 SHORT $LN20@Insert_nod

; 469  :             _Pnode->_Left->_Parent = _Wherenode;

  00099	89 50 04	 mov	 DWORD PTR [eax+4], edx
$LN20@Insert_nod:

; 470  :         }
; 471  : 
; 472  :         _Pnode->_Parent = _Wherenode->_Parent;

  0009c	8b 03		 mov	 eax, DWORD PTR [ebx]
  0009e	89 46 04	 mov	 DWORD PTR [esi+4], eax

; 473  : 
; 474  :         if (_Wherenode == _Myhead->_Parent) {

  000a1	8b 45 fc	 mov	 eax, DWORD PTR _this$1$[ebp]
  000a4	8b 00		 mov	 eax, DWORD PTR [eax]
  000a6	3b 50 04	 cmp	 edx, DWORD PTR [eax+4]
  000a9	75 0b		 jne	 SHORT $LN21@Insert_nod

; 475  :             _Myhead->_Parent = _Pnode;

  000ab	89 70 04	 mov	 DWORD PTR [eax+4], esi

; 483  :         _Wherenode->_Parent = _Pnode;

  000ae	8b fb		 mov	 edi, ebx
  000b0	89 16		 mov	 DWORD PTR [esi], edx
  000b2	89 33		 mov	 DWORD PTR [ebx], esi
  000b4	eb 1d		 jmp	 SHORT $LN49@Insert_nod
$LN21@Insert_nod:

; 476  :         } else if (_Wherenode == _Wherenode->_Parent->_Left) {

  000b6	8b 03		 mov	 eax, DWORD PTR [ebx]
  000b8	3b 10		 cmp	 edx, DWORD PTR [eax]
  000ba	75 0a		 jne	 SHORT $LN23@Insert_nod

; 477  :             _Wherenode->_Parent->_Left = _Pnode;

  000bc	89 30		 mov	 DWORD PTR [eax], esi

; 483  :         _Wherenode->_Parent = _Pnode;

  000be	8b fb		 mov	 edi, ebx
  000c0	89 16		 mov	 DWORD PTR [esi], edx
  000c2	89 33		 mov	 DWORD PTR [ebx], esi
  000c4	eb 0d		 jmp	 SHORT $LN49@Insert_nod
$LN23@Insert_nod:

; 479  :             _Wherenode->_Parent->_Right = _Pnode;

  000c6	89 70 08	 mov	 DWORD PTR [eax+8], esi

; 483  :         _Wherenode->_Parent = _Pnode;

  000c9	8b fb		 mov	 edi, ebx
  000cb	89 16		 mov	 DWORD PTR [esi], edx
  000cd	89 33		 mov	 DWORD PTR [ebx], esi
  000cf	eb 02		 jmp	 SHORT $LN49@Insert_nod
$LN51@Insert_nod:
  000d1	8b f1		 mov	 esi, ecx
$LN49@Insert_nod:

; 688  :                         _Lrotate(_Pnode);
; 689  :                     }
; 690  : 
; 691  :                     _Pnode->_Parent->_Color          = _Black; // propagate red up

  000d3	c6 46 0c 01	 mov	 BYTE PTR [esi+12], 1

; 692  :                     _Pnode->_Parent->_Parent->_Color = _Red;

  000d7	8b 07		 mov	 eax, DWORD PTR [edi]
  000d9	8b 40 04	 mov	 eax, DWORD PTR [eax+4]
  000dc	c6 40 0c 00	 mov	 BYTE PTR [eax+12], 0

; 693  :                     _Rrotate(_Pnode->_Parent->_Parent);

  000e0	8b 07		 mov	 eax, DWORD PTR [edi]
  000e2	8b 48 04	 mov	 ecx, DWORD PTR [eax+4]

; 487  :         _Nodeptr _Pnode   = _Wherenode->_Left;

  000e5	8b 31		 mov	 esi, DWORD PTR [ecx]

; 488  :         _Wherenode->_Left = _Pnode->_Right;

  000e7	8b 46 08	 mov	 eax, DWORD PTR [esi+8]
  000ea	89 01		 mov	 DWORD PTR [ecx], eax

; 489  : 
; 490  :         if (!_Pnode->_Right->_Isnil) {

  000ec	8b 46 08	 mov	 eax, DWORD PTR [esi+8]
  000ef	80 78 0d 00	 cmp	 BYTE PTR [eax+13], 0
  000f3	75 03		 jne	 SHORT $LN27@Insert_nod

; 491  :             _Pnode->_Right->_Parent = _Wherenode;

  000f5	89 48 04	 mov	 DWORD PTR [eax+4], ecx
$LN27@Insert_nod:

; 492  :         }
; 493  : 
; 494  :         _Pnode->_Parent = _Wherenode->_Parent;

  000f8	8b 41 04	 mov	 eax, DWORD PTR [ecx+4]
  000fb	89 46 04	 mov	 DWORD PTR [esi+4], eax

; 495  : 
; 496  :         if (_Wherenode == _Myhead->_Parent) {

  000fe	8b 45 fc	 mov	 eax, DWORD PTR _this$1$[ebp]
  00101	8b 00		 mov	 eax, DWORD PTR [eax]
  00103	3b 48 04	 cmp	 ecx, DWORD PTR [eax+4]
  00106	75 0b		 jne	 SHORT $LN28@Insert_nod

; 497  :             _Myhead->_Parent = _Pnode;

  00108	89 70 04	 mov	 DWORD PTR [eax+4], esi

; 502  :         }
; 503  : 
; 504  :         _Pnode->_Right      = _Wherenode;

  0010b	89 4e 08	 mov	 DWORD PTR [esi+8], ecx

; 694  :                 }
; 695  :             } else { // fixup red-red in right subtree

  0010e	e9 cc 00 00 00	 jmp	 $LN52@Insert_nod
$LN28@Insert_nod:

; 498  :         } else if (_Wherenode == _Wherenode->_Parent->_Right) {

  00113	8b 41 04	 mov	 eax, DWORD PTR [ecx+4]
  00116	3b 48 08	 cmp	 ecx, DWORD PTR [eax+8]
  00119	75 0b		 jne	 SHORT $LN30@Insert_nod

; 499  :             _Wherenode->_Parent->_Right = _Pnode;

  0011b	89 70 08	 mov	 DWORD PTR [eax+8], esi

; 502  :         }
; 503  : 
; 504  :         _Pnode->_Right      = _Wherenode;

  0011e	89 4e 08	 mov	 DWORD PTR [esi+8], ecx

; 694  :                 }
; 695  :             } else { // fixup red-red in right subtree

  00121	e9 b9 00 00 00	 jmp	 $LN52@Insert_nod
$LN30@Insert_nod:

; 501  :             _Wherenode->_Parent->_Left = _Pnode;

  00126	89 30		 mov	 DWORD PTR [eax], esi

; 502  :         }
; 503  : 
; 504  :         _Pnode->_Right      = _Wherenode;

  00128	89 4e 08	 mov	 DWORD PTR [esi+8], ecx

; 694  :                 }
; 695  :             } else { // fixup red-red in right subtree

  0012b	e9 af 00 00 00	 jmp	 $LN52@Insert_nod
$LN10@Insert_nod:

; 696  :                 const auto _Parent_sibling = _Pnode->_Parent->_Parent->_Left;
; 697  :                 if (_Parent_sibling->_Color == _Red) { // parent's sibling has two red children, blacken both

  00130	80 78 0c 00	 cmp	 BYTE PTR [eax+12], 0
  00134	75 1b		 jne	 SHORT $LN15@Insert_nod
$LN53@Insert_nod:

; 674  :             }
; 675  :         }
; 676  : 
; 677  :         for (_Nodeptr _Pnode = _Newnode; _Pnode->_Parent->_Color == _Red;) {

  00136	c6 41 0c 01	 mov	 BYTE PTR [ecx+12], 1
  0013a	c6 40 0c 01	 mov	 BYTE PTR [eax+12], 1
  0013e	8b 07		 mov	 eax, DWORD PTR [edi]
  00140	8b 40 04	 mov	 eax, DWORD PTR [eax+4]
  00143	c6 40 0c 00	 mov	 BYTE PTR [eax+12], 0
  00147	8b 07		 mov	 eax, DWORD PTR [edi]
  00149	8b 50 04	 mov	 edx, DWORD PTR [eax+4]
  0014c	e9 91 00 00 00	 jmp	 $LN46@Insert_nod
$LN15@Insert_nod:

; 698  :                     _Pnode->_Parent->_Color          = _Black;
; 699  :                     _Parent_sibling->_Color          = _Black;
; 700  :                     _Pnode->_Parent->_Parent->_Color = _Red;
; 701  :                     _Pnode                           = _Pnode->_Parent->_Parent;
; 702  :                 } else { // parent's sibling has red and black children
; 703  :                     if (_Pnode == _Pnode->_Parent->_Left) { // rotate left child to right

  00151	8b 01		 mov	 eax, DWORD PTR [ecx]
  00153	3b d0		 cmp	 edx, eax
  00155	75 3e		 jne	 SHORT $LN39@Insert_nod

; 704  :                         _Pnode = _Pnode->_Parent;

  00157	8b d1		 mov	 edx, ecx

; 487  :         _Nodeptr _Pnode   = _Wherenode->_Left;

  00159	8b c8		 mov	 ecx, eax

; 488  :         _Wherenode->_Left = _Pnode->_Right;

  0015b	8b 41 08	 mov	 eax, DWORD PTR [ecx+8]
  0015e	89 02		 mov	 DWORD PTR [edx], eax

; 489  : 
; 490  :         if (!_Pnode->_Right->_Isnil) {

  00160	8b 41 08	 mov	 eax, DWORD PTR [ecx+8]
  00163	80 78 0d 00	 cmp	 BYTE PTR [eax+13], 0
  00167	75 03		 jne	 SHORT $LN34@Insert_nod

; 491  :             _Pnode->_Right->_Parent = _Wherenode;

  00169	89 50 04	 mov	 DWORD PTR [eax+4], edx
$LN34@Insert_nod:

; 492  :         }
; 493  : 
; 494  :         _Pnode->_Parent = _Wherenode->_Parent;

  0016c	8b 03		 mov	 eax, DWORD PTR [ebx]
  0016e	89 41 04	 mov	 DWORD PTR [ecx+4], eax

; 495  : 
; 496  :         if (_Wherenode == _Myhead->_Parent) {

  00171	8b 45 fc	 mov	 eax, DWORD PTR _this$1$[ebp]
  00174	8b 00		 mov	 eax, DWORD PTR [eax]
  00176	3b 50 04	 cmp	 edx, DWORD PTR [eax+4]
  00179	75 05		 jne	 SHORT $LN35@Insert_nod

; 497  :             _Myhead->_Parent = _Pnode;

  0017b	89 48 04	 mov	 DWORD PTR [eax+4], ecx
  0017e	eb 0e		 jmp	 SHORT $LN38@Insert_nod
$LN35@Insert_nod:

; 498  :         } else if (_Wherenode == _Wherenode->_Parent->_Right) {

  00180	8b 03		 mov	 eax, DWORD PTR [ebx]
  00182	3b 50 08	 cmp	 edx, DWORD PTR [eax+8]
  00185	75 05		 jne	 SHORT $LN37@Insert_nod

; 499  :             _Wherenode->_Parent->_Right = _Pnode;

  00187	89 48 08	 mov	 DWORD PTR [eax+8], ecx

; 500  :         } else {

  0018a	eb 02		 jmp	 SHORT $LN38@Insert_nod
$LN37@Insert_nod:

; 501  :             _Wherenode->_Parent->_Left = _Pnode;

  0018c	89 08		 mov	 DWORD PTR [eax], ecx
$LN38@Insert_nod:

; 502  :         }
; 503  : 
; 504  :         _Pnode->_Right      = _Wherenode;

  0018e	89 51 08	 mov	 DWORD PTR [ecx+8], edx

; 505  :         _Wherenode->_Parent = _Pnode;

  00191	8b fb		 mov	 edi, ebx
  00193	89 0b		 mov	 DWORD PTR [ebx], ecx
$LN39@Insert_nod:

; 705  :                         _Rrotate(_Pnode);
; 706  :                     }
; 707  : 
; 708  :                     _Pnode->_Parent->_Color          = _Black; // propagate red up

  00195	c6 41 0c 01	 mov	 BYTE PTR [ecx+12], 1

; 709  :                     _Pnode->_Parent->_Parent->_Color = _Red;

  00199	8b 07		 mov	 eax, DWORD PTR [edi]
  0019b	8b 40 04	 mov	 eax, DWORD PTR [eax+4]
  0019e	c6 40 0c 00	 mov	 BYTE PTR [eax+12], 0

; 710  :                     _Lrotate(_Pnode->_Parent->_Parent);

  001a2	8b 07		 mov	 eax, DWORD PTR [edi]
  001a4	8b 48 04	 mov	 ecx, DWORD PTR [eax+4]

; 465  :         _Nodeptr _Pnode    = _Wherenode->_Right;

  001a7	8b 71 08	 mov	 esi, DWORD PTR [ecx+8]

; 466  :         _Wherenode->_Right = _Pnode->_Left;

  001aa	8b 06		 mov	 eax, DWORD PTR [esi]
  001ac	89 41 08	 mov	 DWORD PTR [ecx+8], eax

; 467  : 
; 468  :         if (!_Pnode->_Left->_Isnil) {

  001af	8b 06		 mov	 eax, DWORD PTR [esi]
  001b1	80 78 0d 00	 cmp	 BYTE PTR [eax+13], 0
  001b5	75 03		 jne	 SHORT $LN41@Insert_nod

; 469  :             _Pnode->_Left->_Parent = _Wherenode;

  001b7	89 48 04	 mov	 DWORD PTR [eax+4], ecx
$LN41@Insert_nod:

; 470  :         }
; 471  : 
; 472  :         _Pnode->_Parent = _Wherenode->_Parent;

  001ba	8b 41 04	 mov	 eax, DWORD PTR [ecx+4]
  001bd	89 46 04	 mov	 DWORD PTR [esi+4], eax

; 473  : 
; 474  :         if (_Wherenode == _Myhead->_Parent) {

  001c0	8b 45 fc	 mov	 eax, DWORD PTR _this$1$[ebp]
  001c3	8b 00		 mov	 eax, DWORD PTR [eax]
  001c5	3b 48 04	 cmp	 ecx, DWORD PTR [eax+4]
  001c8	75 05		 jne	 SHORT $LN42@Insert_nod

; 475  :             _Myhead->_Parent = _Pnode;

  001ca	89 70 04	 mov	 DWORD PTR [eax+4], esi
  001cd	eb 0e		 jmp	 SHORT $LN45@Insert_nod
$LN42@Insert_nod:

; 476  :         } else if (_Wherenode == _Wherenode->_Parent->_Left) {

  001cf	8b 41 04	 mov	 eax, DWORD PTR [ecx+4]
  001d2	3b 08		 cmp	 ecx, DWORD PTR [eax]
  001d4	75 04		 jne	 SHORT $LN44@Insert_nod

; 477  :             _Wherenode->_Parent->_Left = _Pnode;

  001d6	89 30		 mov	 DWORD PTR [eax], esi

; 478  :         } else {

  001d8	eb 03		 jmp	 SHORT $LN45@Insert_nod
$LN44@Insert_nod:

; 479  :             _Wherenode->_Parent->_Right = _Pnode;

  001da	89 70 08	 mov	 DWORD PTR [eax+8], esi
$LN45@Insert_nod:

; 480  :         }
; 481  : 
; 482  :         _Pnode->_Left       = _Wherenode;

  001dd	89 0e		 mov	 DWORD PTR [esi], ecx
$LN52@Insert_nod:

; 674  :             }
; 675  :         }
; 676  : 
; 677  :         for (_Nodeptr _Pnode = _Newnode; _Pnode->_Parent->_Color == _Red;) {

  001df	89 71 04	 mov	 DWORD PTR [ecx+4], esi
$LN46@Insert_nod:
  001e2	8b 42 04	 mov	 eax, DWORD PTR [edx+4]
  001e5	80 78 0c 00	 cmp	 BYTE PTR [eax+12], 0
  001e9	0f 84 71 fe ff
	ff		 je	 $LL2@Insert_nod
  001ef	8b 4d f8	 mov	 ecx, DWORD PTR __Head$1$[ebp]
  001f2	5f		 pop	 edi
  001f3	5e		 pop	 esi
  001f4	5b		 pop	 ebx
$LN3@Insert_nod:

; 711  :                 }
; 712  :             }
; 713  :         }
; 714  : 
; 715  :         _Head->_Parent->_Color = _Black; // root is always black

  001f5	8b 41 04	 mov	 eax, DWORD PTR [ecx+4]
  001f8	c6 40 0c 01	 mov	 BYTE PTR [eax+12], 1

; 716  :         return _Newnode;

  001fc	8b 45 10	 mov	 eax, DWORD PTR __Newnode$[ebp]

; 717  :     }

  001ff	8b e5		 mov	 esp, ebp
  00201	5d		 pop	 ebp
  00202	c2 0c 00	 ret	 12			; 0000000cH
?_Insert_node@?$_Tree_val@U?$_Tree_simple_types@U?$pair@QAVCResource@@K@std@@@std@@@std@@QAEPAU?$_Tree_node@U?$pair@QAVCResource@@K@std@@PAX@2@U?$_Tree_id@PAU?$_Tree_node@U?$pair@QAVCResource@@K@std@@PAX@std@@@2@QAU32@@Z ENDP ; std::_Tree_val<std::_Tree_simple_types<std::pair<CResource * const,unsigned long> > >::_Insert_node
_TEXT	ENDS
; Function compile flags: /Ogtp
; File C:\Program Files (x86)\Microsoft Visual Studio\2019\Professional\VC\Tools\MSVC\14.29.30133\include\xtree
; File C:\Program Files (x86)\Microsoft Visual Studio\2019\Professional\VC\Tools\MSVC\14.29.30133\include\utility
; File C:\Program Files (x86)\Microsoft Visual Studio\2019\Professional\VC\Tools\MSVC\14.29.30133\include\xtree
; File C:\Program Files (x86)\Microsoft Visual Studio\2019\Professional\VC\Tools\MSVC\14.29.30133\include\utility
; File C:\Program Files (x86)\Microsoft Visual Studio\2019\Professional\VC\Tools\MSVC\14.29.30133\include\xtree
;	COMDAT ?_Extract@?$_Tree_val@U?$_Tree_simple_types@U?$pair@QAVCResource@@K@std@@@std@@@std@@QAEPAU?$_Tree_node@U?$pair@QAVCResource@@K@std@@PAX@2@V?$_Tree_unchecked_const_iterator@V?$_Tree_val@U?$_Tree_simple_types@U?$pair@QAVCResource@@K@std@@@std@@@std@@U_Iterator_base0@2@@2@@Z
_TEXT	SEGMENT
tv1186 = -8						; size = 4
tv1182 = -8						; size = 4
tv1149 = -8						; size = 4
__Erasednode$1$ = -4					; size = 4
__Where$ = 8						; size = 4
?_Extract@?$_Tree_val@U?$_Tree_simple_types@U?$pair@QAVCResource@@K@std@@@std@@@std@@QAEPAU?$_Tree_node@U?$pair@QAVCResource@@K@std@@PAX@2@V?$_Tree_unchecked_const_iterator@V?$_Tree_val@U?$_Tree_simple_types@U?$pair@QAVCResource@@K@std@@@std@@@std@@U_Iterator_base0@2@@2@@Z PROC ; std::_Tree_val<std::_Tree_simple_types<std::pair<CResource * const,unsigned long> > >::_Extract, COMDAT
; _this$ = ecx

; 508  :     _Nodeptr _Extract(_Unchecked_const_iterator _Where) noexcept {

  00000	55		 push	 ebp
  00001	8b ec		 mov	 ebp, esp
  00003	83 ec 08	 sub	 esp, 8

; 509  :         _Nodeptr _Erasednode = _Where._Ptr; // node to erase

  00006	8b 45 08	 mov	 eax, DWORD PTR __Where$[ebp]
  00009	53		 push	 ebx
  0000a	56		 push	 esi
  0000b	8b d9		 mov	 ebx, ecx
  0000d	89 45 fc	 mov	 DWORD PTR __Erasednode$1$[ebp], eax
  00010	57		 push	 edi

; 510  :         ++_Where; // save successor iterator for return

  00011	8d 4d 08	 lea	 ecx, DWORD PTR __Where$[ebp]
  00014	e8 00 00 00 00	 call	 ??E?$_Tree_unchecked_const_iterator@V?$_Tree_val@U?$_Tree_simple_types@U?$pair@QAVCResource@@K@std@@@std@@@std@@U_Iterator_base0@2@@std@@QAEAAV01@XZ ; std::_Tree_unchecked_const_iterator<std::_Tree_val<std::_Tree_simple_types<std::pair<CResource * const,unsigned long> > >,std::_Iterator_base0>::operator++

; 511  : 
; 512  :         _Nodeptr _Fixnode; // the node to recolor as needed
; 513  :         _Nodeptr _Fixnodeparent; // parent of _Fixnode (which may be nil)
; 514  :         _Nodeptr _Pnode = _Erasednode;
; 515  : 
; 516  :         if (_Pnode->_Left->_Isnil) {

  00019	8b 55 fc	 mov	 edx, DWORD PTR __Erasednode$1$[ebp]
  0001c	8b 02		 mov	 eax, DWORD PTR [edx]
  0001e	8b 7a 08	 mov	 edi, DWORD PTR [edx+8]
  00021	80 78 0d 00	 cmp	 BYTE PTR [eax+13], 0
  00025	75 18		 jne	 SHORT $LN86@Extract

; 517  :             _Fixnode = _Pnode->_Right; // stitch up right subtree
; 518  :         } else if (_Pnode->_Right->_Isnil) {

  00027	80 7f 0d 00	 cmp	 BYTE PTR [edi+13], 0
  0002b	74 04		 je	 SHORT $LN7@Extract

; 519  :             _Fixnode = _Pnode->_Left; // stitch up left subtree

  0002d	8b f8		 mov	 edi, eax

; 520  :         } else { // two subtrees, must lift successor node to replace erased

  0002f	eb 0e		 jmp	 SHORT $LN86@Extract
$LN7@Extract:

; 521  :             _Pnode   = _Where._Ptr; // _Pnode is successor node

  00031	8b 4d 08	 mov	 ecx, DWORD PTR __Where$[ebp]

; 522  :             _Fixnode = _Pnode->_Right; // _Fixnode is only subtree

  00034	8b 79 08	 mov	 edi, DWORD PTR [ecx+8]
  00037	3b ca		 cmp	 ecx, edx

; 523  :         }
; 524  : 
; 525  :         if (_Pnode == _Erasednode) { // at most one subtree, relink it

  00039	0f 85 8b 00 00
	00		 jne	 $LN9@Extract
$LN86@Extract:

; 526  :             _Fixnodeparent = _Erasednode->_Parent;
; 527  :             if (!_Fixnode->_Isnil) {

  0003f	80 7f 0d 00	 cmp	 BYTE PTR [edi+13], 0
  00043	8b 72 04	 mov	 esi, DWORD PTR [edx+4]
  00046	75 03		 jne	 SHORT $LN11@Extract

; 528  :                 _Fixnode->_Parent = _Fixnodeparent; // link up

  00048	89 77 04	 mov	 DWORD PTR [edi+4], esi
$LN11@Extract:

; 529  :             }
; 530  : 
; 531  :             if (_Myhead->_Parent == _Erasednode) {

  0004b	8b 03		 mov	 eax, DWORD PTR [ebx]
  0004d	39 50 04	 cmp	 DWORD PTR [eax+4], edx
  00050	75 05		 jne	 SHORT $LN12@Extract

; 532  :                 _Myhead->_Parent = _Fixnode; // link down from root

  00052	89 78 04	 mov	 DWORD PTR [eax+4], edi
  00055	eb 0b		 jmp	 SHORT $LN15@Extract
$LN12@Extract:

; 533  :             } else if (_Fixnodeparent->_Left == _Erasednode) {

  00057	39 16		 cmp	 DWORD PTR [esi], edx
  00059	75 04		 jne	 SHORT $LN14@Extract

; 534  :                 _Fixnodeparent->_Left = _Fixnode; // link down to left

  0005b	89 3e		 mov	 DWORD PTR [esi], edi

; 535  :             } else {

  0005d	eb 03		 jmp	 SHORT $LN15@Extract
$LN14@Extract:

; 536  :                 _Fixnodeparent->_Right = _Fixnode; // link down to right

  0005f	89 7e 08	 mov	 DWORD PTR [esi+8], edi
$LN15@Extract:

; 537  :             }
; 538  : 
; 539  :             if (_Myhead->_Left == _Erasednode) {

  00062	8b 03		 mov	 eax, DWORD PTR [ebx]
  00064	39 10		 cmp	 DWORD PTR [eax], edx
  00066	75 2b		 jne	 SHORT $LN16@Extract

; 540  :                 _Myhead->_Left = _Fixnode->_Isnil ? _Fixnodeparent // smallest is parent of erased node

  00068	80 7f 0d 00	 cmp	 BYTE PTR [edi+13], 0
  0006c	74 04		 je	 SHORT $LN42@Extract
  0006e	8b d6		 mov	 edx, esi
  00070	eb 1c		 jmp	 SHORT $LN48@Extract
$LN42@Extract:

; 457  :         while (!_Pnode->_Left->_Isnil) {

  00072	8b 0f		 mov	 ecx, DWORD PTR [edi]

; 540  :                 _Myhead->_Left = _Fixnode->_Isnil ? _Fixnodeparent // smallest is parent of erased node

  00074	8b d7		 mov	 edx, edi

; 457  :         while (!_Pnode->_Left->_Isnil) {

  00076	80 79 0d 00	 cmp	 BYTE PTR [ecx+13], 0
  0007a	75 12		 jne	 SHORT $LN48@Extract
  0007c	0f 1f 40 00	 npad	 4
$LL47@Extract:
  00080	8b 01		 mov	 eax, DWORD PTR [ecx]

; 458  :             _Pnode = _Pnode->_Left;

  00082	8b d1		 mov	 edx, ecx
  00084	8b c8		 mov	 ecx, eax
  00086	80 78 0d 00	 cmp	 BYTE PTR [eax+13], 0
  0008a	74 f4		 je	 SHORT $LL47@Extract
  0008c	8b 03		 mov	 eax, DWORD PTR [ebx]
$LN48@Extract:

; 540  :                 _Myhead->_Left = _Fixnode->_Isnil ? _Fixnodeparent // smallest is parent of erased node

  0008e	89 10		 mov	 DWORD PTR [eax], edx
  00090	8b 55 fc	 mov	 edx, DWORD PTR __Erasednode$1$[ebp]
$LN16@Extract:

; 541  :                                                   : _Min(_Fixnode); // smallest in relinked subtree
; 542  :             }
; 543  : 
; 544  :             if (_Myhead->_Right == _Erasednode) {

  00093	8b 03		 mov	 eax, DWORD PTR [ebx]
  00095	39 50 08	 cmp	 DWORD PTR [eax+8], edx
  00098	75 2b		 jne	 SHORT $LN17@Extract

; 545  :                 _Myhead->_Right = _Fixnode->_Isnil ? _Fixnodeparent // largest is parent of erased node

  0009a	80 7f 0d 00	 cmp	 BYTE PTR [edi+13], 0
  0009e	74 0a		 je	 SHORT $LN44@Extract
  000a0	8b ce		 mov	 ecx, esi
  000a2	89 48 08	 mov	 DWORD PTR [eax+8], ecx

; 546  :                                                    : _Max(_Fixnode); // largest in relinked subtree
; 547  :             }
; 548  :         } else { // erased has two subtrees, _Pnode is successor to erased

  000a5	8a 52 0c	 mov	 dl, BYTE PTR [edx+12]
  000a8	eb 7c		 jmp	 SHORT $LN55@Extract
$LN44@Extract:

; 449  :         while (!_Pnode->_Right->_Isnil) {

  000aa	8b 47 08	 mov	 eax, DWORD PTR [edi+8]

; 545  :                 _Myhead->_Right = _Fixnode->_Isnil ? _Fixnodeparent // largest is parent of erased node

  000ad	8b cf		 mov	 ecx, edi

; 449  :         while (!_Pnode->_Right->_Isnil) {

  000af	80 78 0d 00	 cmp	 BYTE PTR [eax+13], 0
  000b3	75 0b		 jne	 SHORT $LN52@Extract
$LL51@Extract:

; 450  :             _Pnode = _Pnode->_Right;

  000b5	8b c8		 mov	 ecx, eax
  000b7	8b 41 08	 mov	 eax, DWORD PTR [ecx+8]
  000ba	80 78 0d 00	 cmp	 BYTE PTR [eax+13], 0
  000be	74 f5		 je	 SHORT $LL51@Extract
$LN52@Extract:
  000c0	8b 03		 mov	 eax, DWORD PTR [ebx]

; 545  :                 _Myhead->_Right = _Fixnode->_Isnil ? _Fixnodeparent // largest is parent of erased node

  000c2	89 48 08	 mov	 DWORD PTR [eax+8], ecx
$LN17@Extract:

; 546  :                                                    : _Max(_Fixnode); // largest in relinked subtree
; 547  :             }
; 548  :         } else { // erased has two subtrees, _Pnode is successor to erased

  000c5	8a 52 0c	 mov	 dl, BYTE PTR [edx+12]
  000c8	eb 5c		 jmp	 SHORT $LN55@Extract
$LN9@Extract:

; 549  :             _Erasednode->_Left->_Parent = _Pnode; // link left up

  000ca	89 48 04	 mov	 DWORD PTR [eax+4], ecx

; 550  :             _Pnode->_Left               = _Erasednode->_Left; // link successor down

  000cd	8b 02		 mov	 eax, DWORD PTR [edx]
  000cf	89 01		 mov	 DWORD PTR [ecx], eax

; 551  : 
; 552  :             if (_Pnode == _Erasednode->_Right) {

  000d1	3b 4a 08	 cmp	 ecx, DWORD PTR [edx+8]
  000d4	75 04		 jne	 SHORT $LN18@Extract

; 553  :                 _Fixnodeparent = _Pnode; // successor is next to erased

  000d6	8b f1		 mov	 esi, ecx

; 554  :             } else { // successor further down, link in place of erased

  000d8	eb 1a		 jmp	 SHORT $LN19@Extract
$LN18@Extract:

; 555  :                 _Fixnodeparent = _Pnode->_Parent; // parent is successor's
; 556  :                 if (!_Fixnode->_Isnil) {

  000da	80 7f 0d 00	 cmp	 BYTE PTR [edi+13], 0
  000de	8b 71 04	 mov	 esi, DWORD PTR [ecx+4]
  000e1	75 03		 jne	 SHORT $LN20@Extract

; 557  :                     _Fixnode->_Parent = _Fixnodeparent; // link fix up

  000e3	89 77 04	 mov	 DWORD PTR [edi+4], esi
$LN20@Extract:

; 558  :                 }
; 559  : 
; 560  :                 _Fixnodeparent->_Left        = _Fixnode; // link fix down

  000e6	89 3e		 mov	 DWORD PTR [esi], edi

; 561  :                 _Pnode->_Right               = _Erasednode->_Right; // link next down

  000e8	8b 42 08	 mov	 eax, DWORD PTR [edx+8]
  000eb	89 41 08	 mov	 DWORD PTR [ecx+8], eax

; 562  :                 _Erasednode->_Right->_Parent = _Pnode; // right up

  000ee	8b 42 08	 mov	 eax, DWORD PTR [edx+8]
  000f1	89 48 04	 mov	 DWORD PTR [eax+4], ecx
$LN19@Extract:

; 563  :             }
; 564  : 
; 565  :             if (_Myhead->_Parent == _Erasednode) {

  000f4	8b 03		 mov	 eax, DWORD PTR [ebx]
  000f6	39 50 04	 cmp	 DWORD PTR [eax+4], edx
  000f9	75 05		 jne	 SHORT $LN21@Extract

; 566  :                 _Myhead->_Parent = _Pnode; // link down from root

  000fb	89 48 04	 mov	 DWORD PTR [eax+4], ecx
  000fe	eb 0e		 jmp	 SHORT $LN24@Extract
$LN21@Extract:

; 567  :             } else if (_Erasednode->_Parent->_Left == _Erasednode) {

  00100	8b 42 04	 mov	 eax, DWORD PTR [edx+4]
  00103	39 10		 cmp	 DWORD PTR [eax], edx
  00105	75 04		 jne	 SHORT $LN23@Extract

; 568  :                 _Erasednode->_Parent->_Left = _Pnode; // link down to left

  00107	89 08		 mov	 DWORD PTR [eax], ecx

; 569  :             } else {

  00109	eb 03		 jmp	 SHORT $LN24@Extract
$LN23@Extract:

; 570  :                 _Erasednode->_Parent->_Right = _Pnode; // link down to right

  0010b	89 48 08	 mov	 DWORD PTR [eax+8], ecx
$LN24@Extract:

; 573  :             _Pnode->_Parent = _Erasednode->_Parent; // link successor up

  0010e	8b 42 04	 mov	 eax, DWORD PTR [edx+4]
; File C:\Program Files (x86)\Microsoft Visual Studio\2019\Professional\VC\Tools\MSVC\14.29.30133\include\utility

; 104  :     _Ty _Tmp = _STD move(_Left);

  00111	8a 51 0c	 mov	 dl, BYTE PTR [ecx+12]
; File C:\Program Files (x86)\Microsoft Visual Studio\2019\Professional\VC\Tools\MSVC\14.29.30133\include\xtree

; 573  :             _Pnode->_Parent = _Erasednode->_Parent; // link successor up

  00114	89 41 04	 mov	 DWORD PTR [ecx+4], eax
; File C:\Program Files (x86)\Microsoft Visual Studio\2019\Professional\VC\Tools\MSVC\14.29.30133\include\utility

; 105  :     _Left    = _STD move(_Right);

  00117	8b 45 fc	 mov	 eax, DWORD PTR __Erasednode$1$[ebp]
  0011a	8a 40 0c	 mov	 al, BYTE PTR [eax+12]
  0011d	88 41 0c	 mov	 BYTE PTR [ecx+12], al

; 106  :     _Right   = _STD move(_Tmp);

  00120	8b 45 fc	 mov	 eax, DWORD PTR __Erasednode$1$[ebp]
  00123	88 50 0c	 mov	 BYTE PTR [eax+12], dl
$LN55@Extract:
; File C:\Program Files (x86)\Microsoft Visual Studio\2019\Professional\VC\Tools\MSVC\14.29.30133\include\xtree

; 577  :         if (_Erasednode->_Color == _Black) { // erasing black link, must recolor/rebalance tree

  00126	80 fa 01	 cmp	 dl, 1
  00129	0f 85 46 01 00
	00		 jne	 $LN25@Extract

; 578  :             for (; _Fixnode != _Myhead->_Parent && _Fixnode->_Color == _Black; _Fixnodeparent = _Fixnode->_Parent) {

  0012f	8b 03		 mov	 eax, DWORD PTR [ebx]
  00131	3b 78 04	 cmp	 edi, DWORD PTR [eax+4]
  00134	0f 84 37 01 00
	00		 je	 $LN3@Extract
  0013a	66 0f 1f 44 00
	00		 npad	 6
$LL4@Extract:
  00140	80 7f 0c 01	 cmp	 BYTE PTR [edi+12], 1
  00144	89 75 f8	 mov	 DWORD PTR tv1186[ebp], esi
  00147	0f 85 24 01 00
	00		 jne	 $LN3@Extract

; 579  :                 if (_Fixnode == _Fixnodeparent->_Left) { // fixup left subtree

  0014d	8b 0e		 mov	 ecx, DWORD PTR [esi]
  0014f	3b f9		 cmp	 edi, ecx
  00151	0f 85 a2 00 00
	00		 jne	 $LN26@Extract

; 580  :                     _Pnode = _Fixnodeparent->_Right;

  00157	8b 4e 08	 mov	 ecx, DWORD PTR [esi+8]

; 581  :                     if (_Pnode->_Color == _Red) { // rotate red up from right subtree

  0015a	80 79 0c 00	 cmp	 BYTE PTR [ecx+12], 0
  0015e	75 43		 jne	 SHORT $LN87@Extract

; 582  :                         _Pnode->_Color         = _Black;

  00160	c6 41 0c 01	 mov	 BYTE PTR [ecx+12], 1

; 465  :         _Nodeptr _Pnode    = _Wherenode->_Right;

  00164	8b 4e 08	 mov	 ecx, DWORD PTR [esi+8]

; 583  :                         _Fixnodeparent->_Color = _Red;

  00167	c6 46 0c 00	 mov	 BYTE PTR [esi+12], 0

; 466  :         _Wherenode->_Right = _Pnode->_Left;

  0016b	8b 01		 mov	 eax, DWORD PTR [ecx]
  0016d	89 46 08	 mov	 DWORD PTR [esi+8], eax

; 467  : 
; 468  :         if (!_Pnode->_Left->_Isnil) {

  00170	8b 01		 mov	 eax, DWORD PTR [ecx]
  00172	80 78 0d 00	 cmp	 BYTE PTR [eax+13], 0
  00176	75 03		 jne	 SHORT $LN57@Extract

; 469  :             _Pnode->_Left->_Parent = _Wherenode;

  00178	89 70 04	 mov	 DWORD PTR [eax+4], esi
$LN57@Extract:

; 470  :         }
; 471  : 
; 472  :         _Pnode->_Parent = _Wherenode->_Parent;

  0017b	8b 46 04	 mov	 eax, DWORD PTR [esi+4]
  0017e	89 41 04	 mov	 DWORD PTR [ecx+4], eax

; 473  : 
; 474  :         if (_Wherenode == _Myhead->_Parent) {

  00181	8b 03		 mov	 eax, DWORD PTR [ebx]
  00183	3b 70 04	 cmp	 esi, DWORD PTR [eax+4]
  00186	75 05		 jne	 SHORT $LN58@Extract

; 475  :             _Myhead->_Parent = _Pnode;

  00188	89 48 04	 mov	 DWORD PTR [eax+4], ecx
  0018b	eb 0e		 jmp	 SHORT $LN61@Extract
$LN58@Extract:

; 476  :         } else if (_Wherenode == _Wherenode->_Parent->_Left) {

  0018d	8b 46 04	 mov	 eax, DWORD PTR [esi+4]
  00190	3b 30		 cmp	 esi, DWORD PTR [eax]
  00192	75 04		 jne	 SHORT $LN60@Extract

; 477  :             _Wherenode->_Parent->_Left = _Pnode;

  00194	89 08		 mov	 DWORD PTR [eax], ecx

; 478  :         } else {

  00196	eb 03		 jmp	 SHORT $LN61@Extract
$LN60@Extract:

; 479  :             _Wherenode->_Parent->_Right = _Pnode;

  00198	89 48 08	 mov	 DWORD PTR [eax+8], ecx
$LN61@Extract:

; 480  :         }
; 481  : 
; 482  :         _Pnode->_Left       = _Wherenode;

  0019b	89 31		 mov	 DWORD PTR [ecx], esi

; 483  :         _Wherenode->_Parent = _Pnode;

  0019d	89 4e 04	 mov	 DWORD PTR [esi+4], ecx

; 584  :                         _Lrotate(_Fixnodeparent);
; 585  :                         _Pnode = _Fixnodeparent->_Right;

  001a0	8b 4e 08	 mov	 ecx, DWORD PTR [esi+8]
$LN87@Extract:

; 586  :                     }
; 587  : 
; 588  :                     if (_Pnode->_Isnil) {

  001a3	80 79 0d 00	 cmp	 BYTE PTR [ecx+13], 0
  001a7	0f 85 b1 00 00
	00		 jne	 $LN2@Extract

; 589  :                         _Fixnode = _Fixnodeparent; // shouldn't happen
; 590  :                     } else if (_Pnode->_Left->_Color == _Black
; 591  :                                && _Pnode->_Right->_Color == _Black) { // redden right subtree with black children

  001ad	8b 11		 mov	 edx, DWORD PTR [ecx]
  001af	80 7a 0c 01	 cmp	 BYTE PTR [edx+12], 1
  001b3	75 0d		 jne	 SHORT $LN89@Extract
  001b5	8b 41 08	 mov	 eax, DWORD PTR [ecx+8]
  001b8	80 78 0c 01	 cmp	 BYTE PTR [eax+12], 1
  001bc	0f 84 98 00 00
	00		 je	 $LN93@Extract
$LN89@Extract:

; 592  :                         _Pnode->_Color = _Red;
; 593  :                         _Fixnode       = _Fixnodeparent;
; 594  :                     } else { // must rearrange right subtree
; 595  :                         if (_Pnode->_Right->_Color == _Black) { // rotate red up from left sub-subtree

  001c2	8b 41 08	 mov	 eax, DWORD PTR [ecx+8]
  001c5	80 78 0c 01	 cmp	 BYTE PTR [eax+12], 1
  001c9	75 13		 jne	 SHORT $LN33@Extract

; 596  :                             _Pnode->_Left->_Color = _Black;

  001cb	c6 42 0c 01	 mov	 BYTE PTR [edx+12], 1

; 597  :                             _Pnode->_Color        = _Red;

  001cf	c6 41 0c 00	 mov	 BYTE PTR [ecx+12], 0

; 598  :                             _Rrotate(_Pnode);

  001d3	51		 push	 ecx
  001d4	8b cb		 mov	 ecx, ebx
  001d6	e8 00 00 00 00	 call	 ?_Rrotate@?$_Tree_val@U?$_Tree_simple_types@U?$pair@QAVCResource@@K@std@@@std@@@std@@QAEXPAU?$_Tree_node@U?$pair@QAVCResource@@K@std@@PAX@2@@Z ; std::_Tree_val<std::_Tree_simple_types<std::pair<CResource * const,unsigned long> > >::_Rrotate

; 599  :                             _Pnode = _Fixnodeparent->_Right;

  001db	8b 4e 08	 mov	 ecx, DWORD PTR [esi+8]
$LN33@Extract:

; 600  :                         }
; 601  : 
; 602  :                         _Pnode->_Color         = _Fixnodeparent->_Color;

  001de	8a 46 0c	 mov	 al, BYTE PTR [esi+12]
  001e1	88 41 0c	 mov	 BYTE PTR [ecx+12], al

; 603  :                         _Fixnodeparent->_Color = _Black;

  001e4	c6 46 0c 01	 mov	 BYTE PTR [esi+12], 1

; 604  :                         _Pnode->_Right->_Color = _Black;

  001e8	8b 41 08	 mov	 eax, DWORD PTR [ecx+8]

; 605  :                         _Lrotate(_Fixnodeparent);

  001eb	8b cb		 mov	 ecx, ebx
  001ed	56		 push	 esi
  001ee	c6 40 0c 01	 mov	 BYTE PTR [eax+12], 1
  001f2	e8 00 00 00 00	 call	 ?_Lrotate@?$_Tree_val@U?$_Tree_simple_types@U?$pair@QAVCResource@@K@std@@@std@@@std@@QAEXPAU?$_Tree_node@U?$pair@QAVCResource@@K@std@@PAX@2@@Z ; std::_Tree_val<std::_Tree_simple_types<std::pair<CResource * const,unsigned long> > >::_Lrotate

; 606  :                         break; // tree now recolored/rebalanced

  001f7	eb 78		 jmp	 SHORT $LN3@Extract
$LN26@Extract:

; 607  :                     }
; 608  :                 } else { // fixup right subtree
; 609  :                     _Pnode = _Fixnodeparent->_Left;
; 610  :                     if (_Pnode->_Color == _Red) { // rotate red up from left subtree

  001f9	80 79 0c 00	 cmp	 BYTE PTR [ecx+12], 0
  001fd	75 44		 jne	 SHORT $LN88@Extract

; 611  :                         _Pnode->_Color         = _Black;

  001ff	c6 41 0c 01	 mov	 BYTE PTR [ecx+12], 1

; 487  :         _Nodeptr _Pnode   = _Wherenode->_Left;

  00203	8b 0e		 mov	 ecx, DWORD PTR [esi]

; 612  :                         _Fixnodeparent->_Color = _Red;

  00205	c6 46 0c 00	 mov	 BYTE PTR [esi+12], 0

; 488  :         _Wherenode->_Left = _Pnode->_Right;

  00209	8b 41 08	 mov	 eax, DWORD PTR [ecx+8]
  0020c	89 06		 mov	 DWORD PTR [esi], eax

; 489  : 
; 490  :         if (!_Pnode->_Right->_Isnil) {

  0020e	8b 41 08	 mov	 eax, DWORD PTR [ecx+8]
  00211	80 78 0d 00	 cmp	 BYTE PTR [eax+13], 0
  00215	75 03		 jne	 SHORT $LN64@Extract

; 491  :             _Pnode->_Right->_Parent = _Wherenode;

  00217	89 70 04	 mov	 DWORD PTR [eax+4], esi
$LN64@Extract:

; 492  :         }
; 493  : 
; 494  :         _Pnode->_Parent = _Wherenode->_Parent;

  0021a	8b 46 04	 mov	 eax, DWORD PTR [esi+4]
  0021d	89 41 04	 mov	 DWORD PTR [ecx+4], eax

; 495  : 
; 496  :         if (_Wherenode == _Myhead->_Parent) {

  00220	8b 03		 mov	 eax, DWORD PTR [ebx]
  00222	3b 70 04	 cmp	 esi, DWORD PTR [eax+4]
  00225	75 05		 jne	 SHORT $LN65@Extract

; 497  :             _Myhead->_Parent = _Pnode;

  00227	89 48 04	 mov	 DWORD PTR [eax+4], ecx
  0022a	eb 0f		 jmp	 SHORT $LN68@Extract
$LN65@Extract:

; 498  :         } else if (_Wherenode == _Wherenode->_Parent->_Right) {

  0022c	8b 46 04	 mov	 eax, DWORD PTR [esi+4]
  0022f	3b 70 08	 cmp	 esi, DWORD PTR [eax+8]
  00232	75 05		 jne	 SHORT $LN67@Extract

; 499  :             _Wherenode->_Parent->_Right = _Pnode;

  00234	89 48 08	 mov	 DWORD PTR [eax+8], ecx

; 500  :         } else {

  00237	eb 02		 jmp	 SHORT $LN68@Extract
$LN67@Extract:

; 501  :             _Wherenode->_Parent->_Left = _Pnode;

  00239	89 08		 mov	 DWORD PTR [eax], ecx
$LN68@Extract:

; 502  :         }
; 503  : 
; 504  :         _Pnode->_Right      = _Wherenode;

  0023b	89 71 08	 mov	 DWORD PTR [ecx+8], esi

; 505  :         _Wherenode->_Parent = _Pnode;

  0023e	89 4e 04	 mov	 DWORD PTR [esi+4], ecx

; 613  :                         _Rrotate(_Fixnodeparent);
; 614  :                         _Pnode = _Fixnodeparent->_Left;

  00241	8b 0e		 mov	 ecx, DWORD PTR [esi]
$LN88@Extract:

; 615  :                     }
; 616  : 
; 617  :                     if (_Pnode->_Isnil) {

  00243	80 79 0d 00	 cmp	 BYTE PTR [ecx+13], 0
  00247	75 15		 jne	 SHORT $LN2@Extract

; 618  :                         _Fixnode = _Fixnodeparent; // shouldn't happen
; 619  :                     } else if (_Pnode->_Right->_Color == _Black
; 620  :                                && _Pnode->_Left->_Color == _Black) { // redden left subtree with black children

  00249	8b 51 08	 mov	 edx, DWORD PTR [ecx+8]
  0024c	80 7a 0c 01	 cmp	 BYTE PTR [edx+12], 1
  00250	75 3a		 jne	 SHORT $LN90@Extract
  00252	8b 01		 mov	 eax, DWORD PTR [ecx]
  00254	80 78 0c 01	 cmp	 BYTE PTR [eax+12], 1
  00258	75 32		 jne	 SHORT $LN90@Extract
$LN93@Extract:

; 578  :             for (; _Fixnode != _Myhead->_Parent && _Fixnode->_Color == _Black; _Fixnodeparent = _Fixnode->_Parent) {

  0025a	c6 41 0c 00	 mov	 BYTE PTR [ecx+12], 0
$LN2@Extract:
  0025e	8b 03		 mov	 eax, DWORD PTR [ebx]
  00260	8b 4d f8	 mov	 ecx, DWORD PTR tv1186[ebp]
  00263	8b f9		 mov	 edi, ecx
  00265	8b 76 04	 mov	 esi, DWORD PTR [esi+4]
  00268	3b 48 04	 cmp	 ecx, DWORD PTR [eax+4]
  0026b	0f 85 cf fe ff
	ff		 jne	 $LL4@Extract
$LN3@Extract:

; 635  :                         break; // tree now recolored/rebalanced
; 636  :                     }
; 637  :                 }
; 638  :             }
; 639  : 
; 640  :             _Fixnode->_Color = _Black; // stopping node is black

  00271	c6 47 0c 01	 mov	 BYTE PTR [edi+12], 1
$LN25@Extract:

; 641  :         }
; 642  : 
; 643  :         if (0 < _Mysize) {

  00275	8b 4b 04	 mov	 ecx, DWORD PTR [ebx+4]
  00278	8b 45 fc	 mov	 eax, DWORD PTR __Erasednode$1$[ebp]
  0027b	85 c9		 test	 ecx, ecx
  0027d	74 04		 je	 SHORT $LN40@Extract

; 644  :             --_Mysize;

  0027f	49		 dec	 ecx
  00280	89 4b 04	 mov	 DWORD PTR [ebx+4], ecx
$LN40@Extract:

; 645  :         }
; 646  : 
; 647  :         return _Erasednode;
; 648  :     }

  00283	5f		 pop	 edi
  00284	5e		 pop	 esi
  00285	5b		 pop	 ebx
  00286	8b e5		 mov	 esp, ebp
  00288	5d		 pop	 ebp
  00289	c2 04 00	 ret	 4
$LN90@Extract:

; 621  :                         _Pnode->_Color = _Red;
; 622  :                         _Fixnode       = _Fixnodeparent;
; 623  :                     } else { // must rearrange left subtree
; 624  :                         if (_Pnode->_Left->_Color == _Black) { // rotate red up from right sub-subtree

  0028c	8b 01		 mov	 eax, DWORD PTR [ecx]
  0028e	80 78 0c 01	 cmp	 BYTE PTR [eax+12], 1
  00292	75 12		 jne	 SHORT $LN39@Extract

; 625  :                             _Pnode->_Right->_Color = _Black;

  00294	c6 42 0c 01	 mov	 BYTE PTR [edx+12], 1

; 626  :                             _Pnode->_Color         = _Red;

  00298	c6 41 0c 00	 mov	 BYTE PTR [ecx+12], 0

; 627  :                             _Lrotate(_Pnode);

  0029c	51		 push	 ecx
  0029d	8b cb		 mov	 ecx, ebx
  0029f	e8 00 00 00 00	 call	 ?_Lrotate@?$_Tree_val@U?$_Tree_simple_types@U?$pair@QAVCResource@@K@std@@@std@@@std@@QAEXPAU?$_Tree_node@U?$pair@QAVCResource@@K@std@@PAX@2@@Z ; std::_Tree_val<std::_Tree_simple_types<std::pair<CResource * const,unsigned long> > >::_Lrotate

; 628  :                             _Pnode = _Fixnodeparent->_Left;

  002a4	8b 0e		 mov	 ecx, DWORD PTR [esi]
$LN39@Extract:

; 629  :                         }
; 630  : 
; 631  :                         _Pnode->_Color         = _Fixnodeparent->_Color;

  002a6	8a 46 0c	 mov	 al, BYTE PTR [esi+12]
  002a9	88 41 0c	 mov	 BYTE PTR [ecx+12], al

; 632  :                         _Fixnodeparent->_Color = _Black;

  002ac	c6 46 0c 01	 mov	 BYTE PTR [esi+12], 1

; 633  :                         _Pnode->_Left->_Color  = _Black;

  002b0	8b 01		 mov	 eax, DWORD PTR [ecx]

; 634  :                         _Rrotate(_Fixnodeparent);

  002b2	8b cb		 mov	 ecx, ebx
  002b4	56		 push	 esi
  002b5	c6 40 0c 01	 mov	 BYTE PTR [eax+12], 1
  002b9	e8 00 00 00 00	 call	 ?_Rrotate@?$_Tree_val@U?$_Tree_simple_types@U?$pair@QAVCResource@@K@std@@@std@@@std@@QAEXPAU?$_Tree_node@U?$pair@QAVCResource@@K@std@@PAX@2@@Z ; std::_Tree_val<std::_Tree_simple_types<std::pair<CResource * const,unsigned long> > >::_Rrotate
  002be	eb b1		 jmp	 SHORT $LN3@Extract
?_Extract@?$_Tree_val@U?$_Tree_simple_types@U?$pair@QAVCResource@@K@std@@@std@@@std@@QAEPAU?$_Tree_node@U?$pair@QAVCResource@@K@std@@PAX@2@V?$_Tree_unchecked_const_iterator@V?$_Tree_val@U?$_Tree_simple_types@U?$pair@QAVCResource@@K@std@@@std@@@std@@U_Iterator_base0@2@@2@@Z ENDP ; std::_Tree_val<std::_Tree_simple_types<std::pair<CResource * const,unsigned long> > >::_Extract
_TEXT	ENDS
; Function compile flags: /Ogtp
; File C:\Program Files (x86)\Microsoft Visual Studio\2019\Professional\VC\Tools\MSVC\14.29.30133\include\xtree
;	COMDAT ?_Rrotate@?$_Tree_val@U?$_Tree_simple_types@U?$pair@QAVCResource@@K@std@@@std@@@std@@QAEXPAU?$_Tree_node@U?$pair@QAVCResource@@K@std@@PAX@2@@Z
_TEXT	SEGMENT
__Wherenode$ = 8					; size = 4
?_Rrotate@?$_Tree_val@U?$_Tree_simple_types@U?$pair@QAVCResource@@K@std@@@std@@@std@@QAEXPAU?$_Tree_node@U?$pair@QAVCResource@@K@std@@PAX@2@@Z PROC ; std::_Tree_val<std::_Tree_simple_types<std::pair<CResource * const,unsigned long> > >::_Rrotate, COMDAT
; _this$ = ecx

; 486  :     void _Rrotate(_Nodeptr _Wherenode) noexcept { // promote left node to root of subtree

  00000	55		 push	 ebp
  00001	8b ec		 mov	 ebp, esp

; 487  :         _Nodeptr _Pnode   = _Wherenode->_Left;

  00003	8b 55 08	 mov	 edx, DWORD PTR __Wherenode$[ebp]
  00006	56		 push	 esi
  00007	8b 32		 mov	 esi, DWORD PTR [edx]

; 488  :         _Wherenode->_Left = _Pnode->_Right;

  00009	8b 46 08	 mov	 eax, DWORD PTR [esi+8]
  0000c	89 02		 mov	 DWORD PTR [edx], eax

; 489  : 
; 490  :         if (!_Pnode->_Right->_Isnil) {

  0000e	8b 46 08	 mov	 eax, DWORD PTR [esi+8]
  00011	80 78 0d 00	 cmp	 BYTE PTR [eax+13], 0
  00015	75 03		 jne	 SHORT $LN2@Rrotate

; 491  :             _Pnode->_Right->_Parent = _Wherenode;

  00017	89 50 04	 mov	 DWORD PTR [eax+4], edx
$LN2@Rrotate:

; 492  :         }
; 493  : 
; 494  :         _Pnode->_Parent = _Wherenode->_Parent;

  0001a	8b 42 04	 mov	 eax, DWORD PTR [edx+4]
  0001d	89 46 04	 mov	 DWORD PTR [esi+4], eax

; 495  : 
; 496  :         if (_Wherenode == _Myhead->_Parent) {

  00020	8b 01		 mov	 eax, DWORD PTR [ecx]
  00022	3b 50 04	 cmp	 edx, DWORD PTR [eax+4]
  00025	75 0e		 jne	 SHORT $LN3@Rrotate

; 497  :             _Myhead->_Parent = _Pnode;

  00027	89 70 04	 mov	 DWORD PTR [eax+4], esi

; 502  :         }
; 503  : 
; 504  :         _Pnode->_Right      = _Wherenode;
; 505  :         _Wherenode->_Parent = _Pnode;
; 506  :     }

  0002a	89 56 08	 mov	 DWORD PTR [esi+8], edx
  0002d	89 72 04	 mov	 DWORD PTR [edx+4], esi
  00030	5e		 pop	 esi
  00031	5d		 pop	 ebp
  00032	c2 04 00	 ret	 4
$LN3@Rrotate:

; 498  :         } else if (_Wherenode == _Wherenode->_Parent->_Right) {

  00035	8b 42 04	 mov	 eax, DWORD PTR [edx+4]
  00038	3b 50 08	 cmp	 edx, DWORD PTR [eax+8]
  0003b	75 0e		 jne	 SHORT $LN5@Rrotate

; 499  :             _Wherenode->_Parent->_Right = _Pnode;

  0003d	89 70 08	 mov	 DWORD PTR [eax+8], esi

; 502  :         }
; 503  : 
; 504  :         _Pnode->_Right      = _Wherenode;
; 505  :         _Wherenode->_Parent = _Pnode;
; 506  :     }

  00040	89 56 08	 mov	 DWORD PTR [esi+8], edx
  00043	89 72 04	 mov	 DWORD PTR [edx+4], esi
  00046	5e		 pop	 esi
  00047	5d		 pop	 ebp
  00048	c2 04 00	 ret	 4
$LN5@Rrotate:

; 500  :         } else {
; 501  :             _Wherenode->_Parent->_Left = _Pnode;

  0004b	89 30		 mov	 DWORD PTR [eax], esi

; 502  :         }
; 503  : 
; 504  :         _Pnode->_Right      = _Wherenode;
; 505  :         _Wherenode->_Parent = _Pnode;
; 506  :     }

  0004d	89 56 08	 mov	 DWORD PTR [esi+8], edx
  00050	89 72 04	 mov	 DWORD PTR [edx+4], esi
  00053	5e		 pop	 esi
  00054	5d		 pop	 ebp
  00055	c2 04 00	 ret	 4
?_Rrotate@?$_Tree_val@U?$_Tree_simple_types@U?$pair@QAVCResource@@K@std@@@std@@@std@@QAEXPAU?$_Tree_node@U?$pair@QAVCResource@@K@std@@PAX@2@@Z ENDP ; std::_Tree_val<std::_Tree_simple_types<std::pair<CResource * const,unsigned long> > >::_Rrotate
_TEXT	ENDS
; Function compile flags: /Ogtp
; File C:\Program Files (x86)\Microsoft Visual Studio\2019\Professional\VC\Tools\MSVC\14.29.30133\include\xtree
;	COMDAT ?_Lrotate@?$_Tree_val@U?$_Tree_simple_types@U?$pair@QAVCResource@@K@std@@@std@@@std@@QAEXPAU?$_Tree_node@U?$pair@QAVCResource@@K@std@@PAX@2@@Z
_TEXT	SEGMENT
__Wherenode$ = 8					; size = 4
?_Lrotate@?$_Tree_val@U?$_Tree_simple_types@U?$pair@QAVCResource@@K@std@@@std@@@std@@QAEXPAU?$_Tree_node@U?$pair@QAVCResource@@K@std@@PAX@2@@Z PROC ; std::_Tree_val<std::_Tree_simple_types<std::pair<CResource * const,unsigned long> > >::_Lrotate, COMDAT
; _this$ = ecx

; 464  :     void _Lrotate(_Nodeptr _Wherenode) noexcept { // promote right node to root of subtree

  00000	55		 push	 ebp
  00001	8b ec		 mov	 ebp, esp

; 465  :         _Nodeptr _Pnode    = _Wherenode->_Right;

  00003	8b 55 08	 mov	 edx, DWORD PTR __Wherenode$[ebp]
  00006	56		 push	 esi
  00007	8b 72 08	 mov	 esi, DWORD PTR [edx+8]

; 466  :         _Wherenode->_Right = _Pnode->_Left;

  0000a	8b 06		 mov	 eax, DWORD PTR [esi]
  0000c	89 42 08	 mov	 DWORD PTR [edx+8], eax

; 467  : 
; 468  :         if (!_Pnode->_Left->_Isnil) {

  0000f	8b 06		 mov	 eax, DWORD PTR [esi]
  00011	80 78 0d 00	 cmp	 BYTE PTR [eax+13], 0
  00015	75 03		 jne	 SHORT $LN2@Lrotate

; 469  :             _Pnode->_Left->_Parent = _Wherenode;

  00017	89 50 04	 mov	 DWORD PTR [eax+4], edx
$LN2@Lrotate:

; 470  :         }
; 471  : 
; 472  :         _Pnode->_Parent = _Wherenode->_Parent;

  0001a	8b 42 04	 mov	 eax, DWORD PTR [edx+4]
  0001d	89 46 04	 mov	 DWORD PTR [esi+4], eax

; 473  : 
; 474  :         if (_Wherenode == _Myhead->_Parent) {

  00020	8b 01		 mov	 eax, DWORD PTR [ecx]
  00022	3b 50 04	 cmp	 edx, DWORD PTR [eax+4]
  00025	75 0d		 jne	 SHORT $LN3@Lrotate

; 475  :             _Myhead->_Parent = _Pnode;

  00027	89 70 04	 mov	 DWORD PTR [eax+4], esi

; 480  :         }
; 481  : 
; 482  :         _Pnode->_Left       = _Wherenode;
; 483  :         _Wherenode->_Parent = _Pnode;
; 484  :     }

  0002a	89 16		 mov	 DWORD PTR [esi], edx
  0002c	89 72 04	 mov	 DWORD PTR [edx+4], esi
  0002f	5e		 pop	 esi
  00030	5d		 pop	 ebp
  00031	c2 04 00	 ret	 4
$LN3@Lrotate:

; 476  :         } else if (_Wherenode == _Wherenode->_Parent->_Left) {

  00034	8b 42 04	 mov	 eax, DWORD PTR [edx+4]
  00037	3b 10		 cmp	 edx, DWORD PTR [eax]
  00039	75 0c		 jne	 SHORT $LN5@Lrotate

; 477  :             _Wherenode->_Parent->_Left = _Pnode;

  0003b	89 30		 mov	 DWORD PTR [eax], esi

; 480  :         }
; 481  : 
; 482  :         _Pnode->_Left       = _Wherenode;
; 483  :         _Wherenode->_Parent = _Pnode;
; 484  :     }

  0003d	89 16		 mov	 DWORD PTR [esi], edx
  0003f	89 72 04	 mov	 DWORD PTR [edx+4], esi
  00042	5e		 pop	 esi
  00043	5d		 pop	 ebp
  00044	c2 04 00	 ret	 4
$LN5@Lrotate:

; 478  :         } else {
; 479  :             _Wherenode->_Parent->_Right = _Pnode;

  00047	89 70 08	 mov	 DWORD PTR [eax+8], esi

; 480  :         }
; 481  : 
; 482  :         _Pnode->_Left       = _Wherenode;
; 483  :         _Wherenode->_Parent = _Pnode;
; 484  :     }

  0004a	89 16		 mov	 DWORD PTR [esi], edx
  0004c	89 72 04	 mov	 DWORD PTR [edx+4], esi
  0004f	5e		 pop	 esi
  00050	5d		 pop	 ebp
  00051	c2 04 00	 ret	 4
?_Lrotate@?$_Tree_val@U?$_Tree_simple_types@U?$pair@QAVCResource@@K@std@@@std@@@std@@QAEXPAU?$_Tree_node@U?$pair@QAVCResource@@K@std@@PAX@2@@Z ENDP ; std::_Tree_val<std::_Tree_simple_types<std::pair<CResource * const,unsigned long> > >::_Lrotate
_TEXT	ENDS
; Function compile flags: /Ogtp
; File C:\Program Files (x86)\Microsoft Visual Studio\2019\Professional\VC\Tools\MSVC\14.29.30133\include\xtree
; File C:\Program Files (x86)\Microsoft Visual Studio\2019\Professional\VC\Tools\MSVC\14.29.30133\include\utility
; File C:\Program Files (x86)\Microsoft Visual Studio\2019\Professional\VC\Tools\MSVC\14.29.30133\include\xmemory
; File C:\Program Files (x86)\Microsoft Visual Studio\2019\Professional\VC\Tools\MSVC\14.29.30133\include\xtree
; File C:\Program Files (x86)\Microsoft Visual Studio\2019\Professional\VC\Tools\MSVC\14.29.30133\include\xmemory
; File C:\Program Files (x86)\Microsoft Visual Studio\2019\Professional\VC\Tools\MSVC\14.29.30133\include\xtree
;	COMDAT ??1?$_Tree@V?$_Tmap_traits@PAVCResource@@KU?$less@PAVCResource@@@std@@V?$allocator@U?$pair@QAVCResource@@K@std@@@3@$0A@@std@@@std@@QAE@XZ
_TEXT	SEGMENT
??1?$_Tree@V?$_Tmap_traits@PAVCResource@@KU?$less@PAVCResource@@@std@@V?$allocator@U?$pair@QAVCResource@@K@std@@@3@$0A@@std@@@std@@QAE@XZ PROC ; std::_Tree<std::_Tmap_traits<CResource *,unsigned long,std::less<CResource *>,std::allocator<std::pair<CResource * const,unsigned long> >,0> >::~_Tree<std::_Tmap_traits<CResource *,unsigned long,std::less<CResource *>,std::allocator<std::pair<CResource * const,unsigned long> >,0> >, COMDAT
; _this$ = ecx

; 1092 :     ~_Tree() noexcept {

  00000	56		 push	 esi
  00001	57		 push	 edi
  00002	8b f9		 mov	 edi, ecx

; 758  :         _Erase_tree(_Al, _Myhead->_Parent);

  00004	8b 07		 mov	 eax, DWORD PTR [edi]
  00006	8b 70 04	 mov	 esi, DWORD PTR [eax+4]

; 749  :         while (!_Rootnode->_Isnil) { // free subtrees, then node

  00009	80 7e 0d 00	 cmp	 BYTE PTR [esi+13], 0
  0000d	75 23		 jne	 SHORT $LN7@Tree
  0000f	90		 npad	 1
$LL6@Tree:

; 750  :             _Erase_tree(_Al, _Rootnode->_Right);

  00010	ff 76 08	 push	 DWORD PTR [esi+8]
  00013	8b cf		 mov	 ecx, edi
  00015	57		 push	 edi
  00016	e8 00 00 00 00	 call	 ??$_Erase_tree@V?$allocator@U?$_Tree_node@U?$pair@QAVCResource@@K@std@@PAX@std@@@std@@@?$_Tree_val@U?$_Tree_simple_types@U?$pair@QAVCResource@@K@std@@@std@@@std@@QAEXAAV?$allocator@U?$_Tree_node@U?$pair@QAVCResource@@K@std@@PAX@std@@@1@PAU?$_Tree_node@U?$pair@QAVCResource@@K@std@@PAX@1@@Z ; std::_Tree_val<std::_Tree_simple_types<std::pair<CResource * const,unsigned long> > >::_Erase_tree<std::allocator<std::_Tree_node<std::pair<CResource * const,unsigned long>,void *> > >
; File C:\Program Files (x86)\Microsoft Visual Studio\2019\Professional\VC\Tools\MSVC\14.29.30133\include\utility

; 616  :     _Ty _Old_val = static_cast<_Ty&&>(_Val);

  0001b	8b c6		 mov	 eax, esi

; 617  :     _Val         = static_cast<_Other&&>(_New_val);

  0001d	8b 36		 mov	 esi, DWORD PTR [esi]
; File C:\Program Files (x86)\Microsoft Visual Studio\2019\Professional\VC\Tools\MSVC\14.29.30133\include\xmemory

; 264  :         ::operator delete(_Ptr, _Bytes);

  0001f	6a 18		 push	 24			; 00000018H
  00021	50		 push	 eax
  00022	e8 00 00 00 00	 call	 ??3@YAXPAXI@Z		; operator delete
  00027	83 c4 08	 add	 esp, 8
; File C:\Program Files (x86)\Microsoft Visual Studio\2019\Professional\VC\Tools\MSVC\14.29.30133\include\xtree

; 749  :         while (!_Rootnode->_Isnil) { // free subtrees, then node

  0002a	80 7e 0d 00	 cmp	 BYTE PTR [esi+13], 0
  0002e	74 e0		 je	 SHORT $LL6@Tree
; File C:\Program Files (x86)\Microsoft Visual Studio\2019\Professional\VC\Tools\MSVC\14.29.30133\include\xmemory

; 173  :     _Ptr = reinterpret_cast<void*>(_Ptr_container);

  00030	8b 07		 mov	 eax, DWORD PTR [edi]
$LN7@Tree:

; 264  :         ::operator delete(_Ptr, _Bytes);

  00032	6a 18		 push	 24			; 00000018H
  00034	50		 push	 eax
  00035	e8 00 00 00 00	 call	 ??3@YAXPAXI@Z		; operator delete
  0003a	83 c4 08	 add	 esp, 8
  0003d	5f		 pop	 edi
  0003e	5e		 pop	 esi
; File C:\Program Files (x86)\Microsoft Visual Studio\2019\Professional\VC\Tools\MSVC\14.29.30133\include\xtree

; 1099 :     }

  0003f	c3		 ret	 0
??1?$_Tree@V?$_Tmap_traits@PAVCResource@@KU?$less@PAVCResource@@@std@@V?$allocator@U?$pair@QAVCResource@@K@std@@@3@$0A@@std@@@std@@QAE@XZ ENDP ; std::_Tree<std::_Tmap_traits<CResource *,unsigned long,std::less<CResource *>,std::allocator<std::pair<CResource * const,unsigned long> >,0> >::~_Tree<std::_Tmap_traits<CResource *,unsigned long,std::less<CResource *>,std::allocator<std::pair<CResource * const,unsigned long> >,0> >
_TEXT	ENDS
; Function compile flags: /Ogtp
;	COMDAT ??1?$map@HP6APAVCResource@@PBD@ZU?$less@H@std@@V?$allocator@U?$pair@$$CBHP6APAVCResource@@PBD@Z@std@@@3@@std@@QAE@XZ
_TEXT	SEGMENT
??1?$map@HP6APAVCResource@@PBD@ZU?$less@H@std@@V?$allocator@U?$pair@$$CBHP6APAVCResource@@PBD@Z@std@@@3@@std@@QAE@XZ PROC ; std::map<int,CResource * (__cdecl*)(char const *),std::less<int>,std::allocator<std::pair<int const ,CResource * (__cdecl*)(char const *)> > >::~map<int,CResource * (__cdecl*)(char const *),std::less<int>,std::allocator<std::pair<int const ,CResource * (__cdecl*)(char const *)> > >, COMDAT
; _this$ = ecx
  00000	e9 00 00 00 00	 jmp	 ??1?$_Tree@V?$_Tmap_traits@HP6APAVCResource@@PBD@ZU?$less@H@std@@V?$allocator@U?$pair@$$CBHP6APAVCResource@@PBD@Z@std@@@3@$0A@@std@@@std@@QAE@XZ ; std::_Tree<std::_Tmap_traits<int,CResource * (__cdecl*)(char const *),std::less<int>,std::allocator<std::pair<int const ,CResource * (__cdecl*)(char const *)> >,0> >::~_Tree<std::_Tmap_traits<int,CResource * (__cdecl*)(char const *),std::less<int>,std::allocator<std::pair<int const ,CResource * (__cdecl*)(char const *)> >,0> >
??1?$map@HP6APAVCResource@@PBD@ZU?$less@H@std@@V?$allocator@U?$pair@$$CBHP6APAVCResource@@PBD@Z@std@@@3@@std@@QAE@XZ ENDP ; std::map<int,CResource * (__cdecl*)(char const *),std::less<int>,std::allocator<std::pair<int const ,CResource * (__cdecl*)(char const *)> > >::~map<int,CResource * (__cdecl*)(char const *),std::less<int>,std::allocator<std::pair<int const ,CResource * (__cdecl*)(char const *)> > >
_TEXT	ENDS
; Function compile flags: /Ogtp
; File C:\Program Files (x86)\Microsoft Visual Studio\2019\Professional\VC\Tools\MSVC\14.29.30133\include\xtree
;	COMDAT ?_Insert_node@?$_Tree_val@U?$_Tree_simple_types@U?$pair@$$CBHP6APAVCResource@@PBD@Z@std@@@std@@@std@@QAEPAU?$_Tree_node@U?$pair@$$CBHP6APAVCResource@@PBD@Z@std@@PAX@2@U?$_Tree_id@PAU?$_Tree_node@U?$pair@$$CBHP6APAVCResource@@PBD@Z@std@@PAX@std@@@2@QAU32@@Z
_TEXT	SEGMENT
__Head$1$ = -8						; size = 4
_this$1$ = -4						; size = 4
__Loc$ = 8						; size = 8
__Newnode$ = 16						; size = 4
?_Insert_node@?$_Tree_val@U?$_Tree_simple_types@U?$pair@$$CBHP6APAVCResource@@PBD@Z@std@@@std@@@std@@QAEPAU?$_Tree_node@U?$pair@$$CBHP6APAVCResource@@PBD@Z@std@@PAX@2@U?$_Tree_id@PAU?$_Tree_node@U?$pair@$$CBHP6APAVCResource@@PBD@Z@std@@PAX@std@@@2@QAU32@@Z PROC ; std::_Tree_val<std::_Tree_simple_types<std::pair<int const ,CResource * (__cdecl*)(char const *)> > >::_Insert_node, COMDAT
; _this$ = ecx

; 650  :     _Nodeptr _Insert_node(const _Tree_id<_Nodeptr> _Loc, const _Nodeptr _Newnode) noexcept {

  00000	55		 push	 ebp
  00001	8b ec		 mov	 ebp, esp
  00003	83 ec 08	 sub	 esp, 8

; 651  :         ++_Mysize;
; 652  :         const auto _Head  = _Myhead;
; 653  :         _Newnode->_Parent = _Loc._Parent;

  00006	8b 55 08	 mov	 edx, DWORD PTR __Loc$[ebp]
  00009	8b c1		 mov	 eax, ecx
  0000b	89 45 fc	 mov	 DWORD PTR _this$1$[ebp], eax
  0000e	8b 08		 mov	 ecx, DWORD PTR [eax]
  00010	ff 40 04	 inc	 DWORD PTR [eax+4]
  00013	8b 45 10	 mov	 eax, DWORD PTR __Newnode$[ebp]
  00016	89 4d f8	 mov	 DWORD PTR __Head$1$[ebp], ecx
  00019	89 50 04	 mov	 DWORD PTR [eax+4], edx

; 654  :         if (_Loc._Parent == _Head) { // first node in tree, just set head values

  0001c	3b d1		 cmp	 edx, ecx
  0001e	75 12		 jne	 SHORT $LN5@Insert_nod

; 655  :             _Head->_Left     = _Newnode;

  00020	89 01		 mov	 DWORD PTR [ecx], eax

; 656  :             _Head->_Parent   = _Newnode;

  00022	89 41 04	 mov	 DWORD PTR [ecx+4], eax

; 657  :             _Head->_Right    = _Newnode;

  00025	89 41 08	 mov	 DWORD PTR [ecx+8], eax

; 658  :             _Newnode->_Color = _Black; // the root is black

  00028	c6 40 0c 01	 mov	 BYTE PTR [eax+12], 1

; 717  :     }

  0002c	8b e5		 mov	 esp, ebp
  0002e	5d		 pop	 ebp
  0002f	c2 0c 00	 ret	 12			; 0000000cH
$LN5@Insert_nod:

; 659  :             return _Newnode;
; 660  :         }
; 661  : 
; 662  :         _STL_INTERNAL_CHECK(_Loc._Child != _Tree_child::_Unused);
; 663  :         if (_Loc._Child == _Tree_child::_Right) { // add to right of _Loc._Parent

  00032	83 7d 0c 00	 cmp	 DWORD PTR __Loc$[ebp+4], 0
  00036	75 0d		 jne	 SHORT $LN6@Insert_nod

; 664  :             _STL_INTERNAL_CHECK(_Loc._Parent->_Right->_Isnil);
; 665  :             _Loc._Parent->_Right = _Newnode;

  00038	89 42 08	 mov	 DWORD PTR [edx+8], eax

; 666  :             if (_Loc._Parent == _Head->_Right) { // remember rightmost node

  0003b	3b 51 08	 cmp	 edx, DWORD PTR [ecx+8]
  0003e	75 0d		 jne	 SHORT $LN9@Insert_nod

; 667  :                 _Head->_Right = _Newnode;

  00040	89 41 08	 mov	 DWORD PTR [ecx+8], eax

; 668  :             }
; 669  :         } else { // add to left of _Loc._Parent

  00043	eb 08		 jmp	 SHORT $LN9@Insert_nod
$LN6@Insert_nod:

; 670  :             _STL_INTERNAL_CHECK(_Loc._Parent->_Left->_Isnil);
; 671  :             _Loc._Parent->_Left = _Newnode;

  00045	89 02		 mov	 DWORD PTR [edx], eax

; 672  :             if (_Loc._Parent == _Head->_Left) { // remember leftmost node

  00047	3b 11		 cmp	 edx, DWORD PTR [ecx]
  00049	75 02		 jne	 SHORT $LN9@Insert_nod

; 673  :                 _Head->_Left = _Newnode;

  0004b	89 01		 mov	 DWORD PTR [ecx], eax
$LN9@Insert_nod:

; 674  :             }
; 675  :         }
; 676  : 
; 677  :         for (_Nodeptr _Pnode = _Newnode; _Pnode->_Parent->_Color == _Red;) {

  0004d	8b d0		 mov	 edx, eax
  0004f	8b 40 04	 mov	 eax, DWORD PTR [eax+4]
  00052	80 78 0c 00	 cmp	 BYTE PTR [eax+12], 0
  00056	0f 85 99 01 00
	00		 jne	 $LN3@Insert_nod
  0005c	53		 push	 ebx
  0005d	56		 push	 esi
  0005e	57		 push	 edi
  0005f	90		 npad	 1
$LL2@Insert_nod:

; 678  :             if (_Pnode->_Parent == _Pnode->_Parent->_Parent->_Left) { // fixup red-red in left subtree

  00060	8b 4a 04	 mov	 ecx, DWORD PTR [edx+4]
  00063	8d 7a 04	 lea	 edi, DWORD PTR [edx+4]
  00066	8b 71 04	 mov	 esi, DWORD PTR [ecx+4]
  00069	8d 59 04	 lea	 ebx, DWORD PTR [ecx+4]
  0006c	8b 06		 mov	 eax, DWORD PTR [esi]
  0006e	3b c8		 cmp	 ecx, eax
  00070	0f 85 ba 00 00
	00		 jne	 $LN10@Insert_nod

; 679  :                 const auto _Parent_sibling = _Pnode->_Parent->_Parent->_Right;

  00076	8b 46 08	 mov	 eax, DWORD PTR [esi+8]

; 680  :                 if (_Parent_sibling->_Color == _Red) { // parent's sibling has two red children, blacken both

  00079	80 78 0c 00	 cmp	 BYTE PTR [eax+12], 0
  0007d	0f 84 b3 00 00
	00		 je	 $LN53@Insert_nod

; 681  :                     _Pnode->_Parent->_Color          = _Black;
; 682  :                     _Parent_sibling->_Color          = _Black;
; 683  :                     _Pnode->_Parent->_Parent->_Color = _Red;
; 684  :                     _Pnode                           = _Pnode->_Parent->_Parent;
; 685  :                 } else { // parent's sibling has red and black children
; 686  :                     if (_Pnode == _Pnode->_Parent->_Right) { // rotate right child to left

  00083	8b 71 08	 mov	 esi, DWORD PTR [ecx+8]
  00086	3b d6		 cmp	 edx, esi
  00088	75 47		 jne	 SHORT $LN51@Insert_nod

; 466  :         _Wherenode->_Right = _Pnode->_Left;

  0008a	8b 06		 mov	 eax, DWORD PTR [esi]

; 687  :                         _Pnode = _Pnode->_Parent;

  0008c	8b d1		 mov	 edx, ecx

; 466  :         _Wherenode->_Right = _Pnode->_Left;

  0008e	89 42 08	 mov	 DWORD PTR [edx+8], eax

; 467  : 
; 468  :         if (!_Pnode->_Left->_Isnil) {

  00091	8b 06		 mov	 eax, DWORD PTR [esi]
  00093	80 78 0d 00	 cmp	 BYTE PTR [eax+13], 0
  00097	75 03		 jne	 SHORT $LN20@Insert_nod

; 469  :             _Pnode->_Left->_Parent = _Wherenode;

  00099	89 50 04	 mov	 DWORD PTR [eax+4], edx
$LN20@Insert_nod:

; 470  :         }
; 471  : 
; 472  :         _Pnode->_Parent = _Wherenode->_Parent;

  0009c	8b 03		 mov	 eax, DWORD PTR [ebx]
  0009e	89 46 04	 mov	 DWORD PTR [esi+4], eax

; 473  : 
; 474  :         if (_Wherenode == _Myhead->_Parent) {

  000a1	8b 45 fc	 mov	 eax, DWORD PTR _this$1$[ebp]
  000a4	8b 00		 mov	 eax, DWORD PTR [eax]
  000a6	3b 50 04	 cmp	 edx, DWORD PTR [eax+4]
  000a9	75 0b		 jne	 SHORT $LN21@Insert_nod

; 475  :             _Myhead->_Parent = _Pnode;

  000ab	89 70 04	 mov	 DWORD PTR [eax+4], esi

; 483  :         _Wherenode->_Parent = _Pnode;

  000ae	8b fb		 mov	 edi, ebx
  000b0	89 16		 mov	 DWORD PTR [esi], edx
  000b2	89 33		 mov	 DWORD PTR [ebx], esi
  000b4	eb 1d		 jmp	 SHORT $LN49@Insert_nod
$LN21@Insert_nod:

; 476  :         } else if (_Wherenode == _Wherenode->_Parent->_Left) {

  000b6	8b 03		 mov	 eax, DWORD PTR [ebx]
  000b8	3b 10		 cmp	 edx, DWORD PTR [eax]
  000ba	75 0a		 jne	 SHORT $LN23@Insert_nod

; 477  :             _Wherenode->_Parent->_Left = _Pnode;

  000bc	89 30		 mov	 DWORD PTR [eax], esi

; 483  :         _Wherenode->_Parent = _Pnode;

  000be	8b fb		 mov	 edi, ebx
  000c0	89 16		 mov	 DWORD PTR [esi], edx
  000c2	89 33		 mov	 DWORD PTR [ebx], esi
  000c4	eb 0d		 jmp	 SHORT $LN49@Insert_nod
$LN23@Insert_nod:

; 479  :             _Wherenode->_Parent->_Right = _Pnode;

  000c6	89 70 08	 mov	 DWORD PTR [eax+8], esi

; 483  :         _Wherenode->_Parent = _Pnode;

  000c9	8b fb		 mov	 edi, ebx
  000cb	89 16		 mov	 DWORD PTR [esi], edx
  000cd	89 33		 mov	 DWORD PTR [ebx], esi
  000cf	eb 02		 jmp	 SHORT $LN49@Insert_nod
$LN51@Insert_nod:
  000d1	8b f1		 mov	 esi, ecx
$LN49@Insert_nod:

; 688  :                         _Lrotate(_Pnode);
; 689  :                     }
; 690  : 
; 691  :                     _Pnode->_Parent->_Color          = _Black; // propagate red up

  000d3	c6 46 0c 01	 mov	 BYTE PTR [esi+12], 1

; 692  :                     _Pnode->_Parent->_Parent->_Color = _Red;

  000d7	8b 07		 mov	 eax, DWORD PTR [edi]
  000d9	8b 40 04	 mov	 eax, DWORD PTR [eax+4]
  000dc	c6 40 0c 00	 mov	 BYTE PTR [eax+12], 0

; 693  :                     _Rrotate(_Pnode->_Parent->_Parent);

  000e0	8b 07		 mov	 eax, DWORD PTR [edi]
  000e2	8b 48 04	 mov	 ecx, DWORD PTR [eax+4]

; 487  :         _Nodeptr _Pnode   = _Wherenode->_Left;

  000e5	8b 31		 mov	 esi, DWORD PTR [ecx]

; 488  :         _Wherenode->_Left = _Pnode->_Right;

  000e7	8b 46 08	 mov	 eax, DWORD PTR [esi+8]
  000ea	89 01		 mov	 DWORD PTR [ecx], eax

; 489  : 
; 490  :         if (!_Pnode->_Right->_Isnil) {

  000ec	8b 46 08	 mov	 eax, DWORD PTR [esi+8]
  000ef	80 78 0d 00	 cmp	 BYTE PTR [eax+13], 0
  000f3	75 03		 jne	 SHORT $LN27@Insert_nod

; 491  :             _Pnode->_Right->_Parent = _Wherenode;

  000f5	89 48 04	 mov	 DWORD PTR [eax+4], ecx
$LN27@Insert_nod:

; 492  :         }
; 493  : 
; 494  :         _Pnode->_Parent = _Wherenode->_Parent;

  000f8	8b 41 04	 mov	 eax, DWORD PTR [ecx+4]
  000fb	89 46 04	 mov	 DWORD PTR [esi+4], eax

; 495  : 
; 496  :         if (_Wherenode == _Myhead->_Parent) {

  000fe	8b 45 fc	 mov	 eax, DWORD PTR _this$1$[ebp]
  00101	8b 00		 mov	 eax, DWORD PTR [eax]
  00103	3b 48 04	 cmp	 ecx, DWORD PTR [eax+4]
  00106	75 0b		 jne	 SHORT $LN28@Insert_nod

; 497  :             _Myhead->_Parent = _Pnode;

  00108	89 70 04	 mov	 DWORD PTR [eax+4], esi

; 502  :         }
; 503  : 
; 504  :         _Pnode->_Right      = _Wherenode;

  0010b	89 4e 08	 mov	 DWORD PTR [esi+8], ecx

; 694  :                 }
; 695  :             } else { // fixup red-red in right subtree

  0010e	e9 cc 00 00 00	 jmp	 $LN52@Insert_nod
$LN28@Insert_nod:

; 498  :         } else if (_Wherenode == _Wherenode->_Parent->_Right) {

  00113	8b 41 04	 mov	 eax, DWORD PTR [ecx+4]
  00116	3b 48 08	 cmp	 ecx, DWORD PTR [eax+8]
  00119	75 0b		 jne	 SHORT $LN30@Insert_nod

; 499  :             _Wherenode->_Parent->_Right = _Pnode;

  0011b	89 70 08	 mov	 DWORD PTR [eax+8], esi

; 502  :         }
; 503  : 
; 504  :         _Pnode->_Right      = _Wherenode;

  0011e	89 4e 08	 mov	 DWORD PTR [esi+8], ecx

; 694  :                 }
; 695  :             } else { // fixup red-red in right subtree

  00121	e9 b9 00 00 00	 jmp	 $LN52@Insert_nod
$LN30@Insert_nod:

; 501  :             _Wherenode->_Parent->_Left = _Pnode;

  00126	89 30		 mov	 DWORD PTR [eax], esi

; 502  :         }
; 503  : 
; 504  :         _Pnode->_Right      = _Wherenode;

  00128	89 4e 08	 mov	 DWORD PTR [esi+8], ecx

; 694  :                 }
; 695  :             } else { // fixup red-red in right subtree

  0012b	e9 af 00 00 00	 jmp	 $LN52@Insert_nod
$LN10@Insert_nod:

; 696  :                 const auto _Parent_sibling = _Pnode->_Parent->_Parent->_Left;
; 697  :                 if (_Parent_sibling->_Color == _Red) { // parent's sibling has two red children, blacken both

  00130	80 78 0c 00	 cmp	 BYTE PTR [eax+12], 0
  00134	75 1b		 jne	 SHORT $LN15@Insert_nod
$LN53@Insert_nod:

; 674  :             }
; 675  :         }
; 676  : 
; 677  :         for (_Nodeptr _Pnode = _Newnode; _Pnode->_Parent->_Color == _Red;) {

  00136	c6 41 0c 01	 mov	 BYTE PTR [ecx+12], 1
  0013a	c6 40 0c 01	 mov	 BYTE PTR [eax+12], 1
  0013e	8b 07		 mov	 eax, DWORD PTR [edi]
  00140	8b 40 04	 mov	 eax, DWORD PTR [eax+4]
  00143	c6 40 0c 00	 mov	 BYTE PTR [eax+12], 0
  00147	8b 07		 mov	 eax, DWORD PTR [edi]
  00149	8b 50 04	 mov	 edx, DWORD PTR [eax+4]
  0014c	e9 91 00 00 00	 jmp	 $LN46@Insert_nod
$LN15@Insert_nod:

; 698  :                     _Pnode->_Parent->_Color          = _Black;
; 699  :                     _Parent_sibling->_Color          = _Black;
; 700  :                     _Pnode->_Parent->_Parent->_Color = _Red;
; 701  :                     _Pnode                           = _Pnode->_Parent->_Parent;
; 702  :                 } else { // parent's sibling has red and black children
; 703  :                     if (_Pnode == _Pnode->_Parent->_Left) { // rotate left child to right

  00151	8b 01		 mov	 eax, DWORD PTR [ecx]
  00153	3b d0		 cmp	 edx, eax
  00155	75 3e		 jne	 SHORT $LN39@Insert_nod

; 704  :                         _Pnode = _Pnode->_Parent;

  00157	8b d1		 mov	 edx, ecx

; 487  :         _Nodeptr _Pnode   = _Wherenode->_Left;

  00159	8b c8		 mov	 ecx, eax

; 488  :         _Wherenode->_Left = _Pnode->_Right;

  0015b	8b 41 08	 mov	 eax, DWORD PTR [ecx+8]
  0015e	89 02		 mov	 DWORD PTR [edx], eax

; 489  : 
; 490  :         if (!_Pnode->_Right->_Isnil) {

  00160	8b 41 08	 mov	 eax, DWORD PTR [ecx+8]
  00163	80 78 0d 00	 cmp	 BYTE PTR [eax+13], 0
  00167	75 03		 jne	 SHORT $LN34@Insert_nod

; 491  :             _Pnode->_Right->_Parent = _Wherenode;

  00169	89 50 04	 mov	 DWORD PTR [eax+4], edx
$LN34@Insert_nod:

; 492  :         }
; 493  : 
; 494  :         _Pnode->_Parent = _Wherenode->_Parent;

  0016c	8b 03		 mov	 eax, DWORD PTR [ebx]
  0016e	89 41 04	 mov	 DWORD PTR [ecx+4], eax

; 495  : 
; 496  :         if (_Wherenode == _Myhead->_Parent) {

  00171	8b 45 fc	 mov	 eax, DWORD PTR _this$1$[ebp]
  00174	8b 00		 mov	 eax, DWORD PTR [eax]
  00176	3b 50 04	 cmp	 edx, DWORD PTR [eax+4]
  00179	75 05		 jne	 SHORT $LN35@Insert_nod

; 497  :             _Myhead->_Parent = _Pnode;

  0017b	89 48 04	 mov	 DWORD PTR [eax+4], ecx
  0017e	eb 0e		 jmp	 SHORT $LN38@Insert_nod
$LN35@Insert_nod:

; 498  :         } else if (_Wherenode == _Wherenode->_Parent->_Right) {

  00180	8b 03		 mov	 eax, DWORD PTR [ebx]
  00182	3b 50 08	 cmp	 edx, DWORD PTR [eax+8]
  00185	75 05		 jne	 SHORT $LN37@Insert_nod

; 499  :             _Wherenode->_Parent->_Right = _Pnode;

  00187	89 48 08	 mov	 DWORD PTR [eax+8], ecx

; 500  :         } else {

  0018a	eb 02		 jmp	 SHORT $LN38@Insert_nod
$LN37@Insert_nod:

; 501  :             _Wherenode->_Parent->_Left = _Pnode;

  0018c	89 08		 mov	 DWORD PTR [eax], ecx
$LN38@Insert_nod:

; 502  :         }
; 503  : 
; 504  :         _Pnode->_Right      = _Wherenode;

  0018e	89 51 08	 mov	 DWORD PTR [ecx+8], edx

; 505  :         _Wherenode->_Parent = _Pnode;

  00191	8b fb		 mov	 edi, ebx
  00193	89 0b		 mov	 DWORD PTR [ebx], ecx
$LN39@Insert_nod:

; 705  :                         _Rrotate(_Pnode);
; 706  :                     }
; 707  : 
; 708  :                     _Pnode->_Parent->_Color          = _Black; // propagate red up

  00195	c6 41 0c 01	 mov	 BYTE PTR [ecx+12], 1

; 709  :                     _Pnode->_Parent->_Parent->_Color = _Red;

  00199	8b 07		 mov	 eax, DWORD PTR [edi]
  0019b	8b 40 04	 mov	 eax, DWORD PTR [eax+4]
  0019e	c6 40 0c 00	 mov	 BYTE PTR [eax+12], 0

; 710  :                     _Lrotate(_Pnode->_Parent->_Parent);

  001a2	8b 07		 mov	 eax, DWORD PTR [edi]
  001a4	8b 48 04	 mov	 ecx, DWORD PTR [eax+4]

; 465  :         _Nodeptr _Pnode    = _Wherenode->_Right;

  001a7	8b 71 08	 mov	 esi, DWORD PTR [ecx+8]

; 466  :         _Wherenode->_Right = _Pnode->_Left;

  001aa	8b 06		 mov	 eax, DWORD PTR [esi]
  001ac	89 41 08	 mov	 DWORD PTR [ecx+8], eax

; 467  : 
; 468  :         if (!_Pnode->_Left->_Isnil) {

  001af	8b 06		 mov	 eax, DWORD PTR [esi]
  001b1	80 78 0d 00	 cmp	 BYTE PTR [eax+13], 0
  001b5	75 03		 jne	 SHORT $LN41@Insert_nod

; 469  :             _Pnode->_Left->_Parent = _Wherenode;

  001b7	89 48 04	 mov	 DWORD PTR [eax+4], ecx
$LN41@Insert_nod:

; 470  :         }
; 471  : 
; 472  :         _Pnode->_Parent = _Wherenode->_Parent;

  001ba	8b 41 04	 mov	 eax, DWORD PTR [ecx+4]
  001bd	89 46 04	 mov	 DWORD PTR [esi+4], eax

; 473  : 
; 474  :         if (_Wherenode == _Myhead->_Parent) {

  001c0	8b 45 fc	 mov	 eax, DWORD PTR _this$1$[ebp]
  001c3	8b 00		 mov	 eax, DWORD PTR [eax]
  001c5	3b 48 04	 cmp	 ecx, DWORD PTR [eax+4]
  001c8	75 05		 jne	 SHORT $LN42@Insert_nod

; 475  :             _Myhead->_Parent = _Pnode;

  001ca	89 70 04	 mov	 DWORD PTR [eax+4], esi
  001cd	eb 0e		 jmp	 SHORT $LN45@Insert_nod
$LN42@Insert_nod:

; 476  :         } else if (_Wherenode == _Wherenode->_Parent->_Left) {

  001cf	8b 41 04	 mov	 eax, DWORD PTR [ecx+4]
  001d2	3b 08		 cmp	 ecx, DWORD PTR [eax]
  001d4	75 04		 jne	 SHORT $LN44@Insert_nod

; 477  :             _Wherenode->_Parent->_Left = _Pnode;

  001d6	89 30		 mov	 DWORD PTR [eax], esi

; 478  :         } else {

  001d8	eb 03		 jmp	 SHORT $LN45@Insert_nod
$LN44@Insert_nod:

; 479  :             _Wherenode->_Parent->_Right = _Pnode;

  001da	89 70 08	 mov	 DWORD PTR [eax+8], esi
$LN45@Insert_nod:

; 480  :         }
; 481  : 
; 482  :         _Pnode->_Left       = _Wherenode;

  001dd	89 0e		 mov	 DWORD PTR [esi], ecx
$LN52@Insert_nod:

; 674  :             }
; 675  :         }
; 676  : 
; 677  :         for (_Nodeptr _Pnode = _Newnode; _Pnode->_Parent->_Color == _Red;) {

  001df	89 71 04	 mov	 DWORD PTR [ecx+4], esi
$LN46@Insert_nod:
  001e2	8b 42 04	 mov	 eax, DWORD PTR [edx+4]
  001e5	80 78 0c 00	 cmp	 BYTE PTR [eax+12], 0
  001e9	0f 84 71 fe ff
	ff		 je	 $LL2@Insert_nod
  001ef	8b 4d f8	 mov	 ecx, DWORD PTR __Head$1$[ebp]
  001f2	5f		 pop	 edi
  001f3	5e		 pop	 esi
  001f4	5b		 pop	 ebx
$LN3@Insert_nod:

; 711  :                 }
; 712  :             }
; 713  :         }
; 714  : 
; 715  :         _Head->_Parent->_Color = _Black; // root is always black

  001f5	8b 41 04	 mov	 eax, DWORD PTR [ecx+4]
  001f8	c6 40 0c 01	 mov	 BYTE PTR [eax+12], 1

; 716  :         return _Newnode;

  001fc	8b 45 10	 mov	 eax, DWORD PTR __Newnode$[ebp]

; 717  :     }

  001ff	8b e5		 mov	 esp, ebp
  00201	5d		 pop	 ebp
  00202	c2 0c 00	 ret	 12			; 0000000cH
?_Insert_node@?$_Tree_val@U?$_Tree_simple_types@U?$pair@$$CBHP6APAVCResource@@PBD@Z@std@@@std@@@std@@QAEPAU?$_Tree_node@U?$pair@$$CBHP6APAVCResource@@PBD@Z@std@@PAX@2@U?$_Tree_id@PAU?$_Tree_node@U?$pair@$$CBHP6APAVCResource@@PBD@Z@std@@PAX@std@@@2@QAU32@@Z ENDP ; std::_Tree_val<std::_Tree_simple_types<std::pair<int const ,CResource * (__cdecl*)(char const *)> > >::_Insert_node
_TEXT	ENDS
; Function compile flags: /Ogtp
; File C:\Program Files (x86)\Microsoft Visual Studio\2019\Professional\VC\Tools\MSVC\14.29.30133\include\xtree
; File C:\Program Files (x86)\Microsoft Visual Studio\2019\Professional\VC\Tools\MSVC\14.29.30133\include\utility
; File C:\Program Files (x86)\Microsoft Visual Studio\2019\Professional\VC\Tools\MSVC\14.29.30133\include\xmemory
; File C:\Program Files (x86)\Microsoft Visual Studio\2019\Professional\VC\Tools\MSVC\14.29.30133\include\xtree
; File C:\Program Files (x86)\Microsoft Visual Studio\2019\Professional\VC\Tools\MSVC\14.29.30133\include\xmemory
; File C:\Program Files (x86)\Microsoft Visual Studio\2019\Professional\VC\Tools\MSVC\14.29.30133\include\xtree
;	COMDAT ??1?$_Tree@V?$_Tmap_traits@HP6APAVCResource@@PBD@ZU?$less@H@std@@V?$allocator@U?$pair@$$CBHP6APAVCResource@@PBD@Z@std@@@3@$0A@@std@@@std@@QAE@XZ
_TEXT	SEGMENT
??1?$_Tree@V?$_Tmap_traits@HP6APAVCResource@@PBD@ZU?$less@H@std@@V?$allocator@U?$pair@$$CBHP6APAVCResource@@PBD@Z@std@@@3@$0A@@std@@@std@@QAE@XZ PROC ; std::_Tree<std::_Tmap_traits<int,CResource * (__cdecl*)(char const *),std::less<int>,std::allocator<std::pair<int const ,CResource * (__cdecl*)(char const *)> >,0> >::~_Tree<std::_Tmap_traits<int,CResource * (__cdecl*)(char const *),std::less<int>,std::allocator<std::pair<int const ,CResource * (__cdecl*)(char const *)> >,0> >, COMDAT
; _this$ = ecx

; 1092 :     ~_Tree() noexcept {

  00000	56		 push	 esi
  00001	57		 push	 edi
  00002	8b f9		 mov	 edi, ecx

; 758  :         _Erase_tree(_Al, _Myhead->_Parent);

  00004	8b 07		 mov	 eax, DWORD PTR [edi]
  00006	8b 70 04	 mov	 esi, DWORD PTR [eax+4]

; 749  :         while (!_Rootnode->_Isnil) { // free subtrees, then node

  00009	80 7e 0d 00	 cmp	 BYTE PTR [esi+13], 0
  0000d	75 23		 jne	 SHORT $LN7@Tree
  0000f	90		 npad	 1
$LL6@Tree:

; 750  :             _Erase_tree(_Al, _Rootnode->_Right);

  00010	ff 76 08	 push	 DWORD PTR [esi+8]
  00013	8b cf		 mov	 ecx, edi
  00015	57		 push	 edi
  00016	e8 00 00 00 00	 call	 ??$_Erase_tree@V?$allocator@U?$_Tree_node@U?$pair@$$CBHP6APAVCResource@@PBD@Z@std@@PAX@std@@@std@@@?$_Tree_val@U?$_Tree_simple_types@U?$pair@$$CBHP6APAVCResource@@PBD@Z@std@@@std@@@std@@QAEXAAV?$allocator@U?$_Tree_node@U?$pair@$$CBHP6APAVCResource@@PBD@Z@std@@PAX@std@@@1@PAU?$_Tree_node@U?$pair@$$CBHP6APAVCResource@@PBD@Z@std@@PAX@1@@Z ; std::_Tree_val<std::_Tree_simple_types<std::pair<int const ,CResource * (__cdecl*)(char const *)> > >::_Erase_tree<std::allocator<std::_Tree_node<std::pair<int const ,CResource * (__cdecl*)(char const *)>,void *> > >
; File C:\Program Files (x86)\Microsoft Visual Studio\2019\Professional\VC\Tools\MSVC\14.29.30133\include\utility

; 616  :     _Ty _Old_val = static_cast<_Ty&&>(_Val);

  0001b	8b c6		 mov	 eax, esi

; 617  :     _Val         = static_cast<_Other&&>(_New_val);

  0001d	8b 36		 mov	 esi, DWORD PTR [esi]
; File C:\Program Files (x86)\Microsoft Visual Studio\2019\Professional\VC\Tools\MSVC\14.29.30133\include\xmemory

; 264  :         ::operator delete(_Ptr, _Bytes);

  0001f	6a 18		 push	 24			; 00000018H
  00021	50		 push	 eax
  00022	e8 00 00 00 00	 call	 ??3@YAXPAXI@Z		; operator delete
  00027	83 c4 08	 add	 esp, 8
; File C:\Program Files (x86)\Microsoft Visual Studio\2019\Professional\VC\Tools\MSVC\14.29.30133\include\xtree

; 749  :         while (!_Rootnode->_Isnil) { // free subtrees, then node

  0002a	80 7e 0d 00	 cmp	 BYTE PTR [esi+13], 0
  0002e	74 e0		 je	 SHORT $LL6@Tree
; File C:\Program Files (x86)\Microsoft Visual Studio\2019\Professional\VC\Tools\MSVC\14.29.30133\include\xmemory

; 173  :     _Ptr = reinterpret_cast<void*>(_Ptr_container);

  00030	8b 07		 mov	 eax, DWORD PTR [edi]
$LN7@Tree:

; 264  :         ::operator delete(_Ptr, _Bytes);

  00032	6a 18		 push	 24			; 00000018H
  00034	50		 push	 eax
  00035	e8 00 00 00 00	 call	 ??3@YAXPAXI@Z		; operator delete
  0003a	83 c4 08	 add	 esp, 8
  0003d	5f		 pop	 edi
  0003e	5e		 pop	 esi
; File C:\Program Files (x86)\Microsoft Visual Studio\2019\Professional\VC\Tools\MSVC\14.29.30133\include\xtree

; 1099 :     }

  0003f	c3		 ret	 0
??1?$_Tree@V?$_Tmap_traits@HP6APAVCResource@@PBD@ZU?$less@H@std@@V?$allocator@U?$pair@$$CBHP6APAVCResource@@PBD@Z@std@@@3@$0A@@std@@@std@@QAE@XZ ENDP ; std::_Tree<std::_Tmap_traits<int,CResource * (__cdecl*)(char const *),std::less<int>,std::allocator<std::pair<int const ,CResource * (__cdecl*)(char const *)> >,0> >::~_Tree<std::_Tmap_traits<int,CResource * (__cdecl*)(char const *),std::less<int>,std::allocator<std::pair<int const ,CResource * (__cdecl*)(char const *)> >,0> >
_TEXT	ENDS
; Function compile flags: /Ogtp
; File C:\Program Files (x86)\Microsoft Visual Studio\2019\Professional\VC\Tools\MSVC\14.29.30133\include\xtree
; File C:\Program Files (x86)\Microsoft Visual Studio\2019\Professional\VC\Tools\MSVC\14.29.30133\include\xmemory
;	COMDAT ??1?$map@V?$basic_string@DU?$char_traits@D@std@@V?$allocator@D@2@@std@@P6APAVCResource@@PBD@ZU?$less@V?$basic_string@DU?$char_traits@D@std@@V?$allocator@D@2@@std@@@2@V?$allocator@U?$pair@$$CBV?$basic_string@DU?$char_traits@D@std@@V?$allocator@D@2@@std@@P6APAVCResource@@PBD@Z@std@@@2@@std@@QAE@XZ
_TEXT	SEGMENT
??1?$map@V?$basic_string@DU?$char_traits@D@std@@V?$allocator@D@2@@std@@P6APAVCResource@@PBD@ZU?$less@V?$basic_string@DU?$char_traits@D@std@@V?$allocator@D@2@@std@@@2@V?$allocator@U?$pair@$$CBV?$basic_string@DU?$char_traits@D@std@@V?$allocator@D@2@@std@@P6APAVCResource@@PBD@Z@std@@@2@@std@@QAE@XZ PROC ; std::map<std::basic_string<char,std::char_traits<char>,std::allocator<char> >,CResource * (__cdecl*)(char const *),std::less<std::basic_string<char,std::char_traits<char>,std::allocator<char> > >,std::allocator<std::pair<std::basic_string<char,std::char_traits<char>,std::allocator<char> > const ,CResource * (__cdecl*)(char const *)> > >::~map<std::basic_string<char,std::char_traits<char>,std::allocator<char> >,CResource * (__cdecl*)(char const *),std::less<std::basic_string<char,std::char_traits<char>,std::allocator<char> > >,std::allocator<std::pair<std::basic_string<char,std::char_traits<char>,std::allocator<char> > const ,CResource * (__cdecl*)(char const *)> > >, COMDAT
; _this$ = ecx
; File C:\Program Files (x86)\Microsoft Visual Studio\2019\Professional\VC\Tools\MSVC\14.29.30133\include\xtree

; 758  :         _Erase_tree(_Al, _Myhead->_Parent);

  00000	56		 push	 esi
  00001	8b f1		 mov	 esi, ecx
  00003	8b 06		 mov	 eax, DWORD PTR [esi]
  00005	ff 70 04	 push	 DWORD PTR [eax+4]
  00008	56		 push	 esi
  00009	e8 00 00 00 00	 call	 ??$_Erase_tree@V?$allocator@U?$_Tree_node@U?$pair@$$CBV?$basic_string@DU?$char_traits@D@std@@V?$allocator@D@2@@std@@P6APAVCResource@@PBD@Z@std@@PAX@std@@@std@@@?$_Tree_val@U?$_Tree_simple_types@U?$pair@$$CBV?$basic_string@DU?$char_traits@D@std@@V?$allocator@D@2@@std@@P6APAVCResource@@PBD@Z@std@@@std@@@std@@QAEXAAV?$allocator@U?$_Tree_node@U?$pair@$$CBV?$basic_string@DU?$char_traits@D@std@@V?$allocator@D@2@@std@@P6APAVCResource@@PBD@Z@std@@PAX@std@@@1@PAU?$_Tree_node@U?$pair@$$CBV?$basic_string@DU?$char_traits@D@std@@V?$allocator@D@2@@std@@P6APAVCResource@@PBD@Z@std@@PAX@1@@Z ; std::_Tree_val<std::_Tree_simple_types<std::pair<std::basic_string<char,std::char_traits<char>,std::allocator<char> > const ,CResource * (__cdecl*)(char const *)> > >::_Erase_tree<std::allocator<std::_Tree_node<std::pair<std::basic_string<char,std::char_traits<char>,std::allocator<char> > const ,CResource * (__cdecl*)(char const *)>,void *> > >
; File C:\Program Files (x86)\Microsoft Visual Studio\2019\Professional\VC\Tools\MSVC\14.29.30133\include\xmemory

; 264  :         ::operator delete(_Ptr, _Bytes);

  0000e	6a 2c		 push	 44			; 0000002cH
  00010	ff 36		 push	 DWORD PTR [esi]
  00012	e8 00 00 00 00	 call	 ??3@YAXPAXI@Z		; operator delete
  00017	83 c4 08	 add	 esp, 8
  0001a	5e		 pop	 esi
  0001b	c3		 ret	 0
??1?$map@V?$basic_string@DU?$char_traits@D@std@@V?$allocator@D@2@@std@@P6APAVCResource@@PBD@ZU?$less@V?$basic_string@DU?$char_traits@D@std@@V?$allocator@D@2@@std@@@2@V?$allocator@U?$pair@$$CBV?$basic_string@DU?$char_traits@D@std@@V?$allocator@D@2@@std@@P6APAVCResource@@PBD@Z@std@@@2@@std@@QAE@XZ ENDP ; std::map<std::basic_string<char,std::char_traits<char>,std::allocator<char> >,CResource * (__cdecl*)(char const *),std::less<std::basic_string<char,std::char_traits<char>,std::allocator<char> > >,std::allocator<std::pair<std::basic_string<char,std::char_traits<char>,std::allocator<char> > const ,CResource * (__cdecl*)(char const *)> > >::~map<std::basic_string<char,std::char_traits<char>,std::allocator<char> >,CResource * (__cdecl*)(char const *),std::less<std::basic_string<char,std::char_traits<char>,std::allocator<char> > >,std::allocator<std::pair<std::basic_string<char,std::char_traits<char>,std::allocator<char> > const ,CResource * (__cdecl*)(char const *)> > >
_TEXT	ENDS
; Function compile flags: /Ogtp
; File C:\Program Files (x86)\Microsoft Visual Studio\2019\Professional\VC\Tools\MSVC\14.29.30133\include\xtree
;	COMDAT ?_Insert_node@?$_Tree_val@U?$_Tree_simple_types@U?$pair@$$CBV?$basic_string@DU?$char_traits@D@std@@V?$allocator@D@2@@std@@P6APAVCResource@@PBD@Z@std@@@std@@@std@@QAEPAU?$_Tree_node@U?$pair@$$CBV?$basic_string@DU?$char_traits@D@std@@V?$allocator@D@2@@std@@P6APAVCResource@@PBD@Z@std@@PAX@2@U?$_Tree_id@PAU?$_Tree_node@U?$pair@$$CBV?$basic_string@DU?$char_traits@D@std@@V?$allocator@D@2@@std@@P6APAVCResource@@PBD@Z@std@@PAX@std@@@2@QAU32@@Z
_TEXT	SEGMENT
__Head$1$ = -8						; size = 4
_this$1$ = -4						; size = 4
__Loc$ = 8						; size = 8
__Newnode$ = 16						; size = 4
?_Insert_node@?$_Tree_val@U?$_Tree_simple_types@U?$pair@$$CBV?$basic_string@DU?$char_traits@D@std@@V?$allocator@D@2@@std@@P6APAVCResource@@PBD@Z@std@@@std@@@std@@QAEPAU?$_Tree_node@U?$pair@$$CBV?$basic_string@DU?$char_traits@D@std@@V?$allocator@D@2@@std@@P6APAVCResource@@PBD@Z@std@@PAX@2@U?$_Tree_id@PAU?$_Tree_node@U?$pair@$$CBV?$basic_string@DU?$char_traits@D@std@@V?$allocator@D@2@@std@@P6APAVCResource@@PBD@Z@std@@PAX@std@@@2@QAU32@@Z PROC ; std::_Tree_val<std::_Tree_simple_types<std::pair<std::basic_string<char,std::char_traits<char>,std::allocator<char> > const ,CResource * (__cdecl*)(char const *)> > >::_Insert_node, COMDAT
; _this$ = ecx

; 650  :     _Nodeptr _Insert_node(const _Tree_id<_Nodeptr> _Loc, const _Nodeptr _Newnode) noexcept {

  00000	55		 push	 ebp
  00001	8b ec		 mov	 ebp, esp
  00003	83 ec 08	 sub	 esp, 8

; 651  :         ++_Mysize;
; 652  :         const auto _Head  = _Myhead;
; 653  :         _Newnode->_Parent = _Loc._Parent;

  00006	8b 55 08	 mov	 edx, DWORD PTR __Loc$[ebp]
  00009	8b c1		 mov	 eax, ecx
  0000b	89 45 fc	 mov	 DWORD PTR _this$1$[ebp], eax
  0000e	8b 08		 mov	 ecx, DWORD PTR [eax]
  00010	ff 40 04	 inc	 DWORD PTR [eax+4]
  00013	8b 45 10	 mov	 eax, DWORD PTR __Newnode$[ebp]
  00016	89 4d f8	 mov	 DWORD PTR __Head$1$[ebp], ecx
  00019	89 50 04	 mov	 DWORD PTR [eax+4], edx

; 654  :         if (_Loc._Parent == _Head) { // first node in tree, just set head values

  0001c	3b d1		 cmp	 edx, ecx
  0001e	75 12		 jne	 SHORT $LN5@Insert_nod

; 655  :             _Head->_Left     = _Newnode;

  00020	89 01		 mov	 DWORD PTR [ecx], eax

; 656  :             _Head->_Parent   = _Newnode;

  00022	89 41 04	 mov	 DWORD PTR [ecx+4], eax

; 657  :             _Head->_Right    = _Newnode;

  00025	89 41 08	 mov	 DWORD PTR [ecx+8], eax

; 658  :             _Newnode->_Color = _Black; // the root is black

  00028	c6 40 0c 01	 mov	 BYTE PTR [eax+12], 1

; 717  :     }

  0002c	8b e5		 mov	 esp, ebp
  0002e	5d		 pop	 ebp
  0002f	c2 0c 00	 ret	 12			; 0000000cH
$LN5@Insert_nod:

; 659  :             return _Newnode;
; 660  :         }
; 661  : 
; 662  :         _STL_INTERNAL_CHECK(_Loc._Child != _Tree_child::_Unused);
; 663  :         if (_Loc._Child == _Tree_child::_Right) { // add to right of _Loc._Parent

  00032	83 7d 0c 00	 cmp	 DWORD PTR __Loc$[ebp+4], 0
  00036	75 0d		 jne	 SHORT $LN6@Insert_nod

; 664  :             _STL_INTERNAL_CHECK(_Loc._Parent->_Right->_Isnil);
; 665  :             _Loc._Parent->_Right = _Newnode;

  00038	89 42 08	 mov	 DWORD PTR [edx+8], eax

; 666  :             if (_Loc._Parent == _Head->_Right) { // remember rightmost node

  0003b	3b 51 08	 cmp	 edx, DWORD PTR [ecx+8]
  0003e	75 0d		 jne	 SHORT $LN9@Insert_nod

; 667  :                 _Head->_Right = _Newnode;

  00040	89 41 08	 mov	 DWORD PTR [ecx+8], eax

; 668  :             }
; 669  :         } else { // add to left of _Loc._Parent

  00043	eb 08		 jmp	 SHORT $LN9@Insert_nod
$LN6@Insert_nod:

; 670  :             _STL_INTERNAL_CHECK(_Loc._Parent->_Left->_Isnil);
; 671  :             _Loc._Parent->_Left = _Newnode;

  00045	89 02		 mov	 DWORD PTR [edx], eax

; 672  :             if (_Loc._Parent == _Head->_Left) { // remember leftmost node

  00047	3b 11		 cmp	 edx, DWORD PTR [ecx]
  00049	75 02		 jne	 SHORT $LN9@Insert_nod

; 673  :                 _Head->_Left = _Newnode;

  0004b	89 01		 mov	 DWORD PTR [ecx], eax
$LN9@Insert_nod:

; 674  :             }
; 675  :         }
; 676  : 
; 677  :         for (_Nodeptr _Pnode = _Newnode; _Pnode->_Parent->_Color == _Red;) {

  0004d	8b d0		 mov	 edx, eax
  0004f	8b 40 04	 mov	 eax, DWORD PTR [eax+4]
  00052	80 78 0c 00	 cmp	 BYTE PTR [eax+12], 0
  00056	0f 85 99 01 00
	00		 jne	 $LN3@Insert_nod
  0005c	53		 push	 ebx
  0005d	56		 push	 esi
  0005e	57		 push	 edi
  0005f	90		 npad	 1
$LL2@Insert_nod:

; 678  :             if (_Pnode->_Parent == _Pnode->_Parent->_Parent->_Left) { // fixup red-red in left subtree

  00060	8b 4a 04	 mov	 ecx, DWORD PTR [edx+4]
  00063	8d 7a 04	 lea	 edi, DWORD PTR [edx+4]
  00066	8b 71 04	 mov	 esi, DWORD PTR [ecx+4]
  00069	8d 59 04	 lea	 ebx, DWORD PTR [ecx+4]
  0006c	8b 06		 mov	 eax, DWORD PTR [esi]
  0006e	3b c8		 cmp	 ecx, eax
  00070	0f 85 ba 00 00
	00		 jne	 $LN10@Insert_nod

; 679  :                 const auto _Parent_sibling = _Pnode->_Parent->_Parent->_Right;

  00076	8b 46 08	 mov	 eax, DWORD PTR [esi+8]

; 680  :                 if (_Parent_sibling->_Color == _Red) { // parent's sibling has two red children, blacken both

  00079	80 78 0c 00	 cmp	 BYTE PTR [eax+12], 0
  0007d	0f 84 b3 00 00
	00		 je	 $LN53@Insert_nod

; 681  :                     _Pnode->_Parent->_Color          = _Black;
; 682  :                     _Parent_sibling->_Color          = _Black;
; 683  :                     _Pnode->_Parent->_Parent->_Color = _Red;
; 684  :                     _Pnode                           = _Pnode->_Parent->_Parent;
; 685  :                 } else { // parent's sibling has red and black children
; 686  :                     if (_Pnode == _Pnode->_Parent->_Right) { // rotate right child to left

  00083	8b 71 08	 mov	 esi, DWORD PTR [ecx+8]
  00086	3b d6		 cmp	 edx, esi
  00088	75 47		 jne	 SHORT $LN51@Insert_nod

; 466  :         _Wherenode->_Right = _Pnode->_Left;

  0008a	8b 06		 mov	 eax, DWORD PTR [esi]

; 687  :                         _Pnode = _Pnode->_Parent;

  0008c	8b d1		 mov	 edx, ecx

; 466  :         _Wherenode->_Right = _Pnode->_Left;

  0008e	89 42 08	 mov	 DWORD PTR [edx+8], eax

; 467  : 
; 468  :         if (!_Pnode->_Left->_Isnil) {

  00091	8b 06		 mov	 eax, DWORD PTR [esi]
  00093	80 78 0d 00	 cmp	 BYTE PTR [eax+13], 0
  00097	75 03		 jne	 SHORT $LN20@Insert_nod

; 469  :             _Pnode->_Left->_Parent = _Wherenode;

  00099	89 50 04	 mov	 DWORD PTR [eax+4], edx
$LN20@Insert_nod:

; 470  :         }
; 471  : 
; 472  :         _Pnode->_Parent = _Wherenode->_Parent;

  0009c	8b 03		 mov	 eax, DWORD PTR [ebx]
  0009e	89 46 04	 mov	 DWORD PTR [esi+4], eax

; 473  : 
; 474  :         if (_Wherenode == _Myhead->_Parent) {

  000a1	8b 45 fc	 mov	 eax, DWORD PTR _this$1$[ebp]
  000a4	8b 00		 mov	 eax, DWORD PTR [eax]
  000a6	3b 50 04	 cmp	 edx, DWORD PTR [eax+4]
  000a9	75 0b		 jne	 SHORT $LN21@Insert_nod

; 475  :             _Myhead->_Parent = _Pnode;

  000ab	89 70 04	 mov	 DWORD PTR [eax+4], esi

; 483  :         _Wherenode->_Parent = _Pnode;

  000ae	8b fb		 mov	 edi, ebx
  000b0	89 16		 mov	 DWORD PTR [esi], edx
  000b2	89 33		 mov	 DWORD PTR [ebx], esi
  000b4	eb 1d		 jmp	 SHORT $LN49@Insert_nod
$LN21@Insert_nod:

; 476  :         } else if (_Wherenode == _Wherenode->_Parent->_Left) {

  000b6	8b 03		 mov	 eax, DWORD PTR [ebx]
  000b8	3b 10		 cmp	 edx, DWORD PTR [eax]
  000ba	75 0a		 jne	 SHORT $LN23@Insert_nod

; 477  :             _Wherenode->_Parent->_Left = _Pnode;

  000bc	89 30		 mov	 DWORD PTR [eax], esi

; 483  :         _Wherenode->_Parent = _Pnode;

  000be	8b fb		 mov	 edi, ebx
  000c0	89 16		 mov	 DWORD PTR [esi], edx
  000c2	89 33		 mov	 DWORD PTR [ebx], esi
  000c4	eb 0d		 jmp	 SHORT $LN49@Insert_nod
$LN23@Insert_nod:

; 479  :             _Wherenode->_Parent->_Right = _Pnode;

  000c6	89 70 08	 mov	 DWORD PTR [eax+8], esi

; 483  :         _Wherenode->_Parent = _Pnode;

  000c9	8b fb		 mov	 edi, ebx
  000cb	89 16		 mov	 DWORD PTR [esi], edx
  000cd	89 33		 mov	 DWORD PTR [ebx], esi
  000cf	eb 02		 jmp	 SHORT $LN49@Insert_nod
$LN51@Insert_nod:
  000d1	8b f1		 mov	 esi, ecx
$LN49@Insert_nod:

; 688  :                         _Lrotate(_Pnode);
; 689  :                     }
; 690  : 
; 691  :                     _Pnode->_Parent->_Color          = _Black; // propagate red up

  000d3	c6 46 0c 01	 mov	 BYTE PTR [esi+12], 1

; 692  :                     _Pnode->_Parent->_Parent->_Color = _Red;

  000d7	8b 07		 mov	 eax, DWORD PTR [edi]
  000d9	8b 40 04	 mov	 eax, DWORD PTR [eax+4]
  000dc	c6 40 0c 00	 mov	 BYTE PTR [eax+12], 0

; 693  :                     _Rrotate(_Pnode->_Parent->_Parent);

  000e0	8b 07		 mov	 eax, DWORD PTR [edi]
  000e2	8b 48 04	 mov	 ecx, DWORD PTR [eax+4]

; 487  :         _Nodeptr _Pnode   = _Wherenode->_Left;

  000e5	8b 31		 mov	 esi, DWORD PTR [ecx]

; 488  :         _Wherenode->_Left = _Pnode->_Right;

  000e7	8b 46 08	 mov	 eax, DWORD PTR [esi+8]
  000ea	89 01		 mov	 DWORD PTR [ecx], eax

; 489  : 
; 490  :         if (!_Pnode->_Right->_Isnil) {

  000ec	8b 46 08	 mov	 eax, DWORD PTR [esi+8]
  000ef	80 78 0d 00	 cmp	 BYTE PTR [eax+13], 0
  000f3	75 03		 jne	 SHORT $LN27@Insert_nod

; 491  :             _Pnode->_Right->_Parent = _Wherenode;

  000f5	89 48 04	 mov	 DWORD PTR [eax+4], ecx
$LN27@Insert_nod:

; 492  :         }
; 493  : 
; 494  :         _Pnode->_Parent = _Wherenode->_Parent;

  000f8	8b 41 04	 mov	 eax, DWORD PTR [ecx+4]
  000fb	89 46 04	 mov	 DWORD PTR [esi+4], eax

; 495  : 
; 496  :         if (_Wherenode == _Myhead->_Parent) {

  000fe	8b 45 fc	 mov	 eax, DWORD PTR _this$1$[ebp]
  00101	8b 00		 mov	 eax, DWORD PTR [eax]
  00103	3b 48 04	 cmp	 ecx, DWORD PTR [eax+4]
  00106	75 0b		 jne	 SHORT $LN28@Insert_nod

; 497  :             _Myhead->_Parent = _Pnode;

  00108	89 70 04	 mov	 DWORD PTR [eax+4], esi

; 502  :         }
; 503  : 
; 504  :         _Pnode->_Right      = _Wherenode;

  0010b	89 4e 08	 mov	 DWORD PTR [esi+8], ecx

; 694  :                 }
; 695  :             } else { // fixup red-red in right subtree

  0010e	e9 cc 00 00 00	 jmp	 $LN52@Insert_nod
$LN28@Insert_nod:

; 498  :         } else if (_Wherenode == _Wherenode->_Parent->_Right) {

  00113	8b 41 04	 mov	 eax, DWORD PTR [ecx+4]
  00116	3b 48 08	 cmp	 ecx, DWORD PTR [eax+8]
  00119	75 0b		 jne	 SHORT $LN30@Insert_nod

; 499  :             _Wherenode->_Parent->_Right = _Pnode;

  0011b	89 70 08	 mov	 DWORD PTR [eax+8], esi

; 502  :         }
; 503  : 
; 504  :         _Pnode->_Right      = _Wherenode;

  0011e	89 4e 08	 mov	 DWORD PTR [esi+8], ecx

; 694  :                 }
; 695  :             } else { // fixup red-red in right subtree

  00121	e9 b9 00 00 00	 jmp	 $LN52@Insert_nod
$LN30@Insert_nod:

; 501  :             _Wherenode->_Parent->_Left = _Pnode;

  00126	89 30		 mov	 DWORD PTR [eax], esi

; 502  :         }
; 503  : 
; 504  :         _Pnode->_Right      = _Wherenode;

  00128	89 4e 08	 mov	 DWORD PTR [esi+8], ecx

; 694  :                 }
; 695  :             } else { // fixup red-red in right subtree

  0012b	e9 af 00 00 00	 jmp	 $LN52@Insert_nod
$LN10@Insert_nod:

; 696  :                 const auto _Parent_sibling = _Pnode->_Parent->_Parent->_Left;
; 697  :                 if (_Parent_sibling->_Color == _Red) { // parent's sibling has two red children, blacken both

  00130	80 78 0c 00	 cmp	 BYTE PTR [eax+12], 0
  00134	75 1b		 jne	 SHORT $LN15@Insert_nod
$LN53@Insert_nod:

; 674  :             }
; 675  :         }
; 676  : 
; 677  :         for (_Nodeptr _Pnode = _Newnode; _Pnode->_Parent->_Color == _Red;) {

  00136	c6 41 0c 01	 mov	 BYTE PTR [ecx+12], 1
  0013a	c6 40 0c 01	 mov	 BYTE PTR [eax+12], 1
  0013e	8b 07		 mov	 eax, DWORD PTR [edi]
  00140	8b 40 04	 mov	 eax, DWORD PTR [eax+4]
  00143	c6 40 0c 00	 mov	 BYTE PTR [eax+12], 0
  00147	8b 07		 mov	 eax, DWORD PTR [edi]
  00149	8b 50 04	 mov	 edx, DWORD PTR [eax+4]
  0014c	e9 91 00 00 00	 jmp	 $LN46@Insert_nod
$LN15@Insert_nod:

; 698  :                     _Pnode->_Parent->_Color          = _Black;
; 699  :                     _Parent_sibling->_Color          = _Black;
; 700  :                     _Pnode->_Parent->_Parent->_Color = _Red;
; 701  :                     _Pnode                           = _Pnode->_Parent->_Parent;
; 702  :                 } else { // parent's sibling has red and black children
; 703  :                     if (_Pnode == _Pnode->_Parent->_Left) { // rotate left child to right

  00151	8b 01		 mov	 eax, DWORD PTR [ecx]
  00153	3b d0		 cmp	 edx, eax
  00155	75 3e		 jne	 SHORT $LN39@Insert_nod

; 704  :                         _Pnode = _Pnode->_Parent;

  00157	8b d1		 mov	 edx, ecx

; 487  :         _Nodeptr _Pnode   = _Wherenode->_Left;

  00159	8b c8		 mov	 ecx, eax

; 488  :         _Wherenode->_Left = _Pnode->_Right;

  0015b	8b 41 08	 mov	 eax, DWORD PTR [ecx+8]
  0015e	89 02		 mov	 DWORD PTR [edx], eax

; 489  : 
; 490  :         if (!_Pnode->_Right->_Isnil) {

  00160	8b 41 08	 mov	 eax, DWORD PTR [ecx+8]
  00163	80 78 0d 00	 cmp	 BYTE PTR [eax+13], 0
  00167	75 03		 jne	 SHORT $LN34@Insert_nod

; 491  :             _Pnode->_Right->_Parent = _Wherenode;

  00169	89 50 04	 mov	 DWORD PTR [eax+4], edx
$LN34@Insert_nod:

; 492  :         }
; 493  : 
; 494  :         _Pnode->_Parent = _Wherenode->_Parent;

  0016c	8b 03		 mov	 eax, DWORD PTR [ebx]
  0016e	89 41 04	 mov	 DWORD PTR [ecx+4], eax

; 495  : 
; 496  :         if (_Wherenode == _Myhead->_Parent) {

  00171	8b 45 fc	 mov	 eax, DWORD PTR _this$1$[ebp]
  00174	8b 00		 mov	 eax, DWORD PTR [eax]
  00176	3b 50 04	 cmp	 edx, DWORD PTR [eax+4]
  00179	75 05		 jne	 SHORT $LN35@Insert_nod

; 497  :             _Myhead->_Parent = _Pnode;

  0017b	89 48 04	 mov	 DWORD PTR [eax+4], ecx
  0017e	eb 0e		 jmp	 SHORT $LN38@Insert_nod
$LN35@Insert_nod:

; 498  :         } else if (_Wherenode == _Wherenode->_Parent->_Right) {

  00180	8b 03		 mov	 eax, DWORD PTR [ebx]
  00182	3b 50 08	 cmp	 edx, DWORD PTR [eax+8]
  00185	75 05		 jne	 SHORT $LN37@Insert_nod

; 499  :             _Wherenode->_Parent->_Right = _Pnode;

  00187	89 48 08	 mov	 DWORD PTR [eax+8], ecx

; 500  :         } else {

  0018a	eb 02		 jmp	 SHORT $LN38@Insert_nod
$LN37@Insert_nod:

; 501  :             _Wherenode->_Parent->_Left = _Pnode;

  0018c	89 08		 mov	 DWORD PTR [eax], ecx
$LN38@Insert_nod:

; 502  :         }
; 503  : 
; 504  :         _Pnode->_Right      = _Wherenode;

  0018e	89 51 08	 mov	 DWORD PTR [ecx+8], edx

; 505  :         _Wherenode->_Parent = _Pnode;

  00191	8b fb		 mov	 edi, ebx
  00193	89 0b		 mov	 DWORD PTR [ebx], ecx
$LN39@Insert_nod:

; 705  :                         _Rrotate(_Pnode);
; 706  :                     }
; 707  : 
; 708  :                     _Pnode->_Parent->_Color          = _Black; // propagate red up

  00195	c6 41 0c 01	 mov	 BYTE PTR [ecx+12], 1

; 709  :                     _Pnode->_Parent->_Parent->_Color = _Red;

  00199	8b 07		 mov	 eax, DWORD PTR [edi]
  0019b	8b 40 04	 mov	 eax, DWORD PTR [eax+4]
  0019e	c6 40 0c 00	 mov	 BYTE PTR [eax+12], 0

; 710  :                     _Lrotate(_Pnode->_Parent->_Parent);

  001a2	8b 07		 mov	 eax, DWORD PTR [edi]
  001a4	8b 48 04	 mov	 ecx, DWORD PTR [eax+4]

; 465  :         _Nodeptr _Pnode    = _Wherenode->_Right;

  001a7	8b 71 08	 mov	 esi, DWORD PTR [ecx+8]

; 466  :         _Wherenode->_Right = _Pnode->_Left;

  001aa	8b 06		 mov	 eax, DWORD PTR [esi]
  001ac	89 41 08	 mov	 DWORD PTR [ecx+8], eax

; 467  : 
; 468  :         if (!_Pnode->_Left->_Isnil) {

  001af	8b 06		 mov	 eax, DWORD PTR [esi]
  001b1	80 78 0d 00	 cmp	 BYTE PTR [eax+13], 0
  001b5	75 03		 jne	 SHORT $LN41@Insert_nod

; 469  :             _Pnode->_Left->_Parent = _Wherenode;

  001b7	89 48 04	 mov	 DWORD PTR [eax+4], ecx
$LN41@Insert_nod:

; 470  :         }
; 471  : 
; 472  :         _Pnode->_Parent = _Wherenode->_Parent;

  001ba	8b 41 04	 mov	 eax, DWORD PTR [ecx+4]
  001bd	89 46 04	 mov	 DWORD PTR [esi+4], eax

; 473  : 
; 474  :         if (_Wherenode == _Myhead->_Parent) {

  001c0	8b 45 fc	 mov	 eax, DWORD PTR _this$1$[ebp]
  001c3	8b 00		 mov	 eax, DWORD PTR [eax]
  001c5	3b 48 04	 cmp	 ecx, DWORD PTR [eax+4]
  001c8	75 05		 jne	 SHORT $LN42@Insert_nod

; 475  :             _Myhead->_Parent = _Pnode;

  001ca	89 70 04	 mov	 DWORD PTR [eax+4], esi
  001cd	eb 0e		 jmp	 SHORT $LN45@Insert_nod
$LN42@Insert_nod:

; 476  :         } else if (_Wherenode == _Wherenode->_Parent->_Left) {

  001cf	8b 41 04	 mov	 eax, DWORD PTR [ecx+4]
  001d2	3b 08		 cmp	 ecx, DWORD PTR [eax]
  001d4	75 04		 jne	 SHORT $LN44@Insert_nod

; 477  :             _Wherenode->_Parent->_Left = _Pnode;

  001d6	89 30		 mov	 DWORD PTR [eax], esi

; 478  :         } else {

  001d8	eb 03		 jmp	 SHORT $LN45@Insert_nod
$LN44@Insert_nod:

; 479  :             _Wherenode->_Parent->_Right = _Pnode;

  001da	89 70 08	 mov	 DWORD PTR [eax+8], esi
$LN45@Insert_nod:

; 480  :         }
; 481  : 
; 482  :         _Pnode->_Left       = _Wherenode;

  001dd	89 0e		 mov	 DWORD PTR [esi], ecx
$LN52@Insert_nod:

; 674  :             }
; 675  :         }
; 676  : 
; 677  :         for (_Nodeptr _Pnode = _Newnode; _Pnode->_Parent->_Color == _Red;) {

  001df	89 71 04	 mov	 DWORD PTR [ecx+4], esi
$LN46@Insert_nod:
  001e2	8b 42 04	 mov	 eax, DWORD PTR [edx+4]
  001e5	80 78 0c 00	 cmp	 BYTE PTR [eax+12], 0
  001e9	0f 84 71 fe ff
	ff		 je	 $LL2@Insert_nod
  001ef	8b 4d f8	 mov	 ecx, DWORD PTR __Head$1$[ebp]
  001f2	5f		 pop	 edi
  001f3	5e		 pop	 esi
  001f4	5b		 pop	 ebx
$LN3@Insert_nod:

; 711  :                 }
; 712  :             }
; 713  :         }
; 714  : 
; 715  :         _Head->_Parent->_Color = _Black; // root is always black

  001f5	8b 41 04	 mov	 eax, DWORD PTR [ecx+4]
  001f8	c6 40 0c 01	 mov	 BYTE PTR [eax+12], 1

; 716  :         return _Newnode;

  001fc	8b 45 10	 mov	 eax, DWORD PTR __Newnode$[ebp]

; 717  :     }

  001ff	8b e5		 mov	 esp, ebp
  00201	5d		 pop	 ebp
  00202	c2 0c 00	 ret	 12			; 0000000cH
?_Insert_node@?$_Tree_val@U?$_Tree_simple_types@U?$pair@$$CBV?$basic_string@DU?$char_traits@D@std@@V?$allocator@D@2@@std@@P6APAVCResource@@PBD@Z@std@@@std@@@std@@QAEPAU?$_Tree_node@U?$pair@$$CBV?$basic_string@DU?$char_traits@D@std@@V?$allocator@D@2@@std@@P6APAVCResource@@PBD@Z@std@@PAX@2@U?$_Tree_id@PAU?$_Tree_node@U?$pair@$$CBV?$basic_string@DU?$char_traits@D@std@@V?$allocator@D@2@@std@@P6APAVCResource@@PBD@Z@std@@PAX@std@@@2@QAU32@@Z ENDP ; std::_Tree_val<std::_Tree_simple_types<std::pair<std::basic_string<char,std::char_traits<char>,std::allocator<char> > const ,CResource * (__cdecl*)(char const *)> > >::_Insert_node
_TEXT	ENDS
; Function compile flags: /Ogtp
; File C:\Program Files (x86)\Microsoft Visual Studio\2019\Professional\VC\Tools\MSVC\14.29.30133\include\xtree
; File C:\Program Files (x86)\Microsoft Visual Studio\2019\Professional\VC\Tools\MSVC\14.29.30133\include\xstddef
; File C:\Program Files (x86)\Microsoft Visual Studio\2019\Professional\VC\Tools\MSVC\14.29.30133\include\xtree
;	COMDAT ?find@?$_Tree@V?$_Tmap_traits@V?$basic_string@DU?$char_traits@D@std@@V?$allocator@D@2@@std@@P6APAVCResource@@PBD@ZU?$less@V?$basic_string@DU?$char_traits@D@std@@V?$allocator@D@2@@std@@@2@V?$allocator@U?$pair@$$CBV?$basic_string@DU?$char_traits@D@std@@V?$allocator@D@2@@std@@P6APAVCResource@@PBD@Z@std@@@2@$0A@@std@@@std@@QAE?AV?$_Tree_iterator@V?$_Tree_val@U?$_Tree_simple_types@U?$pair@$$CBV?$basic_string@DU?$char_traits@D@std@@V?$allocator@D@2@@std@@P6APAVCResource@@PBD@Z@std@@@std@@@std@@@2@ABV?$basic_string@DU?$char_traits@D@std@@V?$allocator@D@2@@2@@Z
_TEXT	SEGMENT
__Loc$1 = -12						; size = 12
___$ReturnUdt$ = 8					; size = 4
__Keyval$ = 12						; size = 4
?find@?$_Tree@V?$_Tmap_traits@V?$basic_string@DU?$char_traits@D@std@@V?$allocator@D@2@@std@@P6APAVCResource@@PBD@ZU?$less@V?$basic_string@DU?$char_traits@D@std@@V?$allocator@D@2@@std@@@2@V?$allocator@U?$pair@$$CBV?$basic_string@DU?$char_traits@D@std@@V?$allocator@D@2@@std@@P6APAVCResource@@PBD@Z@std@@@2@$0A@@std@@@std@@QAE?AV?$_Tree_iterator@V?$_Tree_val@U?$_Tree_simple_types@U?$pair@$$CBV?$basic_string@DU?$char_traits@D@std@@V?$allocator@D@2@@std@@P6APAVCResource@@PBD@Z@std@@@std@@@std@@@2@ABV?$basic_string@DU?$char_traits@D@std@@V?$allocator@D@2@@2@@Z PROC ; std::_Tree<std::_Tmap_traits<std::basic_string<char,std::char_traits<char>,std::allocator<char> >,CResource * (__cdecl*)(char const *),std::less<std::basic_string<char,std::char_traits<char>,std::allocator<char> > >,std::allocator<std::pair<std::basic_string<char,std::char_traits<char>,std::allocator<char> > const ,CResource * (__cdecl*)(char const *)> >,0> >::find, COMDAT
; _this$ = ecx

; 1370 :     _NODISCARD iterator find(const key_type& _Keyval) {

  00000	55		 push	 ebp
  00001	8b ec		 mov	 ebp, esp
  00003	83 ec 0c	 sub	 esp, 12			; 0000000cH
  00006	56		 push	 esi
  00007	57		 push	 edi

; 1361 :         const _Tree_find_result<_Nodeptr> _Loc = _Find_lower_bound(_Keyval);

  00008	ff 75 0c	 push	 DWORD PTR __Keyval$[ebp]
  0000b	8d 45 f4	 lea	 eax, DWORD PTR __Loc$1[ebp]

; 1370 :     _NODISCARD iterator find(const key_type& _Keyval) {

  0000e	8b f9		 mov	 edi, ecx

; 1361 :         const _Tree_find_result<_Nodeptr> _Loc = _Find_lower_bound(_Keyval);

  00010	50		 push	 eax
  00011	e8 00 00 00 00	 call	 ??$_Find_lower_bound@V?$basic_string@DU?$char_traits@D@std@@V?$allocator@D@2@@std@@@?$_Tree@V?$_Tmap_traits@V?$basic_string@DU?$char_traits@D@std@@V?$allocator@D@2@@std@@P6APAVCResource@@PBD@ZU?$less@V?$basic_string@DU?$char_traits@D@std@@V?$allocator@D@2@@std@@@2@V?$allocator@U?$pair@$$CBV?$basic_string@DU?$char_traits@D@std@@V?$allocator@D@2@@std@@P6APAVCResource@@PBD@Z@std@@@2@$0A@@std@@@std@@IBE?AU?$_Tree_find_result@PAU?$_Tree_node@U?$pair@$$CBV?$basic_string@DU?$char_traits@D@std@@V?$allocator@D@2@@std@@P6APAVCResource@@PBD@Z@std@@PAX@std@@@1@ABV?$basic_string@DU?$char_traits@D@std@@V?$allocator@D@2@@1@@Z ; std::_Tree<std::_Tmap_traits<std::basic_string<char,std::char_traits<char>,std::allocator<char> >,CResource * (__cdecl*)(char const *),std::less<std::basic_string<char,std::char_traits<char>,std::allocator<char> > >,std::allocator<std::pair<std::basic_string<char,std::char_traits<char>,std::allocator<char> > const ,CResource * (__cdecl*)(char const *)> >,0> >::_Find_lower_bound<std::basic_string<char,std::char_traits<char>,std::allocator<char> > >

; 1599 :         return !_Bound->_Isnil && !_DEBUG_LT_PRED(_Getcomp(), _Keyval, _Traits::_Kfn(_Bound->_Myval));

  00016	8b 75 fc	 mov	 esi, DWORD PTR __Loc$1[ebp+8]
  00019	80 7e 0d 00	 cmp	 BYTE PTR [esi+13], 0
  0001d	75 20		 jne	 SHORT $LN4@find
  0001f	8d 46 10	 lea	 eax, DWORD PTR [esi+16]
; File C:\Program Files (x86)\Microsoft Visual Studio\2019\Professional\VC\Tools\MSVC\14.29.30133\include\xstddef

; 127  :         return _Left < _Right;

  00022	50		 push	 eax
  00023	ff 75 0c	 push	 DWORD PTR __Keyval$[ebp]
  00026	e8 00 00 00 00	 call	 ??$?MDU?$char_traits@D@std@@V?$allocator@D@1@@std@@YA_NABV?$basic_string@DU?$char_traits@D@std@@V?$allocator@D@2@@0@0@Z ; std::operator<<char,std::char_traits<char>,std::allocator<char> >
  0002b	83 c4 08	 add	 esp, 8
; File C:\Program Files (x86)\Microsoft Visual Studio\2019\Professional\VC\Tools\MSVC\14.29.30133\include\xtree

; 1599 :         return !_Bound->_Isnil && !_DEBUG_LT_PRED(_Getcomp(), _Keyval, _Traits::_Kfn(_Bound->_Myval));

  0002e	84 c0		 test	 al, al
  00030	75 0d		 jne	 SHORT $LN4@find

; 39   :     _Tree_unchecked_const_iterator(_Nodeptr _Pnode, const _Mytree* _Plist) noexcept : _Ptr(_Pnode) {

  00032	8b 45 08	 mov	 eax, DWORD PTR ___$ReturnUdt$[ebp]
  00035	5f		 pop	 edi
  00036	89 30		 mov	 DWORD PTR [eax], esi

; 1371 :         return iterator(_Find(_Keyval), _Get_scary());
; 1372 :     }

  00038	5e		 pop	 esi
  00039	8b e5		 mov	 esp, ebp
  0003b	5d		 pop	 ebp
  0003c	c2 08 00	 ret	 8
$LN4@find:

; 39   :     _Tree_unchecked_const_iterator(_Nodeptr _Pnode, const _Mytree* _Plist) noexcept : _Ptr(_Pnode) {

  0003f	8b 45 08	 mov	 eax, DWORD PTR ___$ReturnUdt$[ebp]

; 1366 :         return _Get_scary()->_Myhead;

  00042	8b 0f		 mov	 ecx, DWORD PTR [edi]
  00044	5f		 pop	 edi

; 1371 :         return iterator(_Find(_Keyval), _Get_scary());
; 1372 :     }

  00045	5e		 pop	 esi

; 39   :     _Tree_unchecked_const_iterator(_Nodeptr _Pnode, const _Mytree* _Plist) noexcept : _Ptr(_Pnode) {

  00046	89 08		 mov	 DWORD PTR [eax], ecx

; 1371 :         return iterator(_Find(_Keyval), _Get_scary());
; 1372 :     }

  00048	8b e5		 mov	 esp, ebp
  0004a	5d		 pop	 ebp
  0004b	c2 08 00	 ret	 8
?find@?$_Tree@V?$_Tmap_traits@V?$basic_string@DU?$char_traits@D@std@@V?$allocator@D@2@@std@@P6APAVCResource@@PBD@ZU?$less@V?$basic_string@DU?$char_traits@D@std@@V?$allocator@D@2@@std@@@2@V?$allocator@U?$pair@$$CBV?$basic_string@DU?$char_traits@D@std@@V?$allocator@D@2@@std@@P6APAVCResource@@PBD@Z@std@@@2@$0A@@std@@@std@@QAE?AV?$_Tree_iterator@V?$_Tree_val@U?$_Tree_simple_types@U?$pair@$$CBV?$basic_string@DU?$char_traits@D@std@@V?$allocator@D@2@@std@@P6APAVCResource@@PBD@Z@std@@@std@@@std@@@2@ABV?$basic_string@DU?$char_traits@D@std@@V?$allocator@D@2@@2@@Z ENDP ; std::_Tree<std::_Tmap_traits<std::basic_string<char,std::char_traits<char>,std::allocator<char> >,CResource * (__cdecl*)(char const *),std::less<std::basic_string<char,std::char_traits<char>,std::allocator<char> > >,std::allocator<std::pair<std::basic_string<char,std::char_traits<char>,std::allocator<char> > const ,CResource * (__cdecl*)(char const *)> >,0> >::find
_TEXT	ENDS
; Function compile flags: /Ogtp
;	COMDAT ??1?$map@KPAVCResource@@U?$less@K@std@@V?$allocator@U?$pair@$$CBKPAVCResource@@@std@@@3@@std@@QAE@XZ
_TEXT	SEGMENT
??1?$map@KPAVCResource@@U?$less@K@std@@V?$allocator@U?$pair@$$CBKPAVCResource@@@std@@@3@@std@@QAE@XZ PROC ; std::map<unsigned long,CResource *,std::less<unsigned long>,std::allocator<std::pair<unsigned long const ,CResource *> > >::~map<unsigned long,CResource *,std::less<unsigned long>,std::allocator<std::pair<unsigned long const ,CResource *> > >, COMDAT
; _this$ = ecx
  00000	e9 00 00 00 00	 jmp	 ??1?$_Tree@V?$_Tmap_traits@KPAVCResource@@U?$less@K@std@@V?$allocator@U?$pair@$$CBKPAVCResource@@@std@@@3@$0A@@std@@@std@@QAE@XZ ; std::_Tree<std::_Tmap_traits<unsigned long,CResource *,std::less<unsigned long>,std::allocator<std::pair<unsigned long const ,CResource *> >,0> >::~_Tree<std::_Tmap_traits<unsigned long,CResource *,std::less<unsigned long>,std::allocator<std::pair<unsigned long const ,CResource *> >,0> >
??1?$map@KPAVCResource@@U?$less@K@std@@V?$allocator@U?$pair@$$CBKPAVCResource@@@std@@@3@@std@@QAE@XZ ENDP ; std::map<unsigned long,CResource *,std::less<unsigned long>,std::allocator<std::pair<unsigned long const ,CResource *> > >::~map<unsigned long,CResource *,std::less<unsigned long>,std::allocator<std::pair<unsigned long const ,CResource *> > >
_TEXT	ENDS
; Function compile flags: /Ogtp
; File C:\Program Files (x86)\Microsoft Visual Studio\2019\Professional\VC\Tools\MSVC\14.29.30133\include\xtree
;	COMDAT ?_Insert_node@?$_Tree_val@U?$_Tree_simple_types@U?$pair@$$CBKPAVCResource@@@std@@@std@@@std@@QAEPAU?$_Tree_node@U?$pair@$$CBKPAVCResource@@@std@@PAX@2@U?$_Tree_id@PAU?$_Tree_node@U?$pair@$$CBKPAVCResource@@@std@@PAX@std@@@2@QAU32@@Z
_TEXT	SEGMENT
__Head$1$ = -8						; size = 4
_this$1$ = -4						; size = 4
__Loc$ = 8						; size = 8
__Newnode$ = 16						; size = 4
?_Insert_node@?$_Tree_val@U?$_Tree_simple_types@U?$pair@$$CBKPAVCResource@@@std@@@std@@@std@@QAEPAU?$_Tree_node@U?$pair@$$CBKPAVCResource@@@std@@PAX@2@U?$_Tree_id@PAU?$_Tree_node@U?$pair@$$CBKPAVCResource@@@std@@PAX@std@@@2@QAU32@@Z PROC ; std::_Tree_val<std::_Tree_simple_types<std::pair<unsigned long const ,CResource *> > >::_Insert_node, COMDAT
; _this$ = ecx

; 650  :     _Nodeptr _Insert_node(const _Tree_id<_Nodeptr> _Loc, const _Nodeptr _Newnode) noexcept {

  00000	55		 push	 ebp
  00001	8b ec		 mov	 ebp, esp
  00003	83 ec 08	 sub	 esp, 8

; 651  :         ++_Mysize;
; 652  :         const auto _Head  = _Myhead;
; 653  :         _Newnode->_Parent = _Loc._Parent;

  00006	8b 55 08	 mov	 edx, DWORD PTR __Loc$[ebp]
  00009	8b c1		 mov	 eax, ecx
  0000b	89 45 fc	 mov	 DWORD PTR _this$1$[ebp], eax
  0000e	8b 08		 mov	 ecx, DWORD PTR [eax]
  00010	ff 40 04	 inc	 DWORD PTR [eax+4]
  00013	8b 45 10	 mov	 eax, DWORD PTR __Newnode$[ebp]
  00016	89 4d f8	 mov	 DWORD PTR __Head$1$[ebp], ecx
  00019	89 50 04	 mov	 DWORD PTR [eax+4], edx

; 654  :         if (_Loc._Parent == _Head) { // first node in tree, just set head values

  0001c	3b d1		 cmp	 edx, ecx
  0001e	75 12		 jne	 SHORT $LN5@Insert_nod

; 655  :             _Head->_Left     = _Newnode;

  00020	89 01		 mov	 DWORD PTR [ecx], eax

; 656  :             _Head->_Parent   = _Newnode;

  00022	89 41 04	 mov	 DWORD PTR [ecx+4], eax

; 657  :             _Head->_Right    = _Newnode;

  00025	89 41 08	 mov	 DWORD PTR [ecx+8], eax

; 658  :             _Newnode->_Color = _Black; // the root is black

  00028	c6 40 0c 01	 mov	 BYTE PTR [eax+12], 1

; 717  :     }

  0002c	8b e5		 mov	 esp, ebp
  0002e	5d		 pop	 ebp
  0002f	c2 0c 00	 ret	 12			; 0000000cH
$LN5@Insert_nod:

; 659  :             return _Newnode;
; 660  :         }
; 661  : 
; 662  :         _STL_INTERNAL_CHECK(_Loc._Child != _Tree_child::_Unused);
; 663  :         if (_Loc._Child == _Tree_child::_Right) { // add to right of _Loc._Parent

  00032	83 7d 0c 00	 cmp	 DWORD PTR __Loc$[ebp+4], 0
  00036	75 0d		 jne	 SHORT $LN6@Insert_nod

; 664  :             _STL_INTERNAL_CHECK(_Loc._Parent->_Right->_Isnil);
; 665  :             _Loc._Parent->_Right = _Newnode;

  00038	89 42 08	 mov	 DWORD PTR [edx+8], eax

; 666  :             if (_Loc._Parent == _Head->_Right) { // remember rightmost node

  0003b	3b 51 08	 cmp	 edx, DWORD PTR [ecx+8]
  0003e	75 0d		 jne	 SHORT $LN9@Insert_nod

; 667  :                 _Head->_Right = _Newnode;

  00040	89 41 08	 mov	 DWORD PTR [ecx+8], eax

; 668  :             }
; 669  :         } else { // add to left of _Loc._Parent

  00043	eb 08		 jmp	 SHORT $LN9@Insert_nod
$LN6@Insert_nod:

; 670  :             _STL_INTERNAL_CHECK(_Loc._Parent->_Left->_Isnil);
; 671  :             _Loc._Parent->_Left = _Newnode;

  00045	89 02		 mov	 DWORD PTR [edx], eax

; 672  :             if (_Loc._Parent == _Head->_Left) { // remember leftmost node

  00047	3b 11		 cmp	 edx, DWORD PTR [ecx]
  00049	75 02		 jne	 SHORT $LN9@Insert_nod

; 673  :                 _Head->_Left = _Newnode;

  0004b	89 01		 mov	 DWORD PTR [ecx], eax
$LN9@Insert_nod:

; 674  :             }
; 675  :         }
; 676  : 
; 677  :         for (_Nodeptr _Pnode = _Newnode; _Pnode->_Parent->_Color == _Red;) {

  0004d	8b d0		 mov	 edx, eax
  0004f	8b 40 04	 mov	 eax, DWORD PTR [eax+4]
  00052	80 78 0c 00	 cmp	 BYTE PTR [eax+12], 0
  00056	0f 85 99 01 00
	00		 jne	 $LN3@Insert_nod
  0005c	53		 push	 ebx
  0005d	56		 push	 esi
  0005e	57		 push	 edi
  0005f	90		 npad	 1
$LL2@Insert_nod:

; 678  :             if (_Pnode->_Parent == _Pnode->_Parent->_Parent->_Left) { // fixup red-red in left subtree

  00060	8b 4a 04	 mov	 ecx, DWORD PTR [edx+4]
  00063	8d 7a 04	 lea	 edi, DWORD PTR [edx+4]
  00066	8b 71 04	 mov	 esi, DWORD PTR [ecx+4]
  00069	8d 59 04	 lea	 ebx, DWORD PTR [ecx+4]
  0006c	8b 06		 mov	 eax, DWORD PTR [esi]
  0006e	3b c8		 cmp	 ecx, eax
  00070	0f 85 ba 00 00
	00		 jne	 $LN10@Insert_nod

; 679  :                 const auto _Parent_sibling = _Pnode->_Parent->_Parent->_Right;

  00076	8b 46 08	 mov	 eax, DWORD PTR [esi+8]

; 680  :                 if (_Parent_sibling->_Color == _Red) { // parent's sibling has two red children, blacken both

  00079	80 78 0c 00	 cmp	 BYTE PTR [eax+12], 0
  0007d	0f 84 b3 00 00
	00		 je	 $LN53@Insert_nod

; 681  :                     _Pnode->_Parent->_Color          = _Black;
; 682  :                     _Parent_sibling->_Color          = _Black;
; 683  :                     _Pnode->_Parent->_Parent->_Color = _Red;
; 684  :                     _Pnode                           = _Pnode->_Parent->_Parent;
; 685  :                 } else { // parent's sibling has red and black children
; 686  :                     if (_Pnode == _Pnode->_Parent->_Right) { // rotate right child to left

  00083	8b 71 08	 mov	 esi, DWORD PTR [ecx+8]
  00086	3b d6		 cmp	 edx, esi
  00088	75 47		 jne	 SHORT $LN51@Insert_nod

; 466  :         _Wherenode->_Right = _Pnode->_Left;

  0008a	8b 06		 mov	 eax, DWORD PTR [esi]

; 687  :                         _Pnode = _Pnode->_Parent;

  0008c	8b d1		 mov	 edx, ecx

; 466  :         _Wherenode->_Right = _Pnode->_Left;

  0008e	89 42 08	 mov	 DWORD PTR [edx+8], eax

; 467  : 
; 468  :         if (!_Pnode->_Left->_Isnil) {

  00091	8b 06		 mov	 eax, DWORD PTR [esi]
  00093	80 78 0d 00	 cmp	 BYTE PTR [eax+13], 0
  00097	75 03		 jne	 SHORT $LN20@Insert_nod

; 469  :             _Pnode->_Left->_Parent = _Wherenode;

  00099	89 50 04	 mov	 DWORD PTR [eax+4], edx
$LN20@Insert_nod:

; 470  :         }
; 471  : 
; 472  :         _Pnode->_Parent = _Wherenode->_Parent;

  0009c	8b 03		 mov	 eax, DWORD PTR [ebx]
  0009e	89 46 04	 mov	 DWORD PTR [esi+4], eax

; 473  : 
; 474  :         if (_Wherenode == _Myhead->_Parent) {

  000a1	8b 45 fc	 mov	 eax, DWORD PTR _this$1$[ebp]
  000a4	8b 00		 mov	 eax, DWORD PTR [eax]
  000a6	3b 50 04	 cmp	 edx, DWORD PTR [eax+4]
  000a9	75 0b		 jne	 SHORT $LN21@Insert_nod

; 475  :             _Myhead->_Parent = _Pnode;

  000ab	89 70 04	 mov	 DWORD PTR [eax+4], esi

; 483  :         _Wherenode->_Parent = _Pnode;

  000ae	8b fb		 mov	 edi, ebx
  000b0	89 16		 mov	 DWORD PTR [esi], edx
  000b2	89 33		 mov	 DWORD PTR [ebx], esi
  000b4	eb 1d		 jmp	 SHORT $LN49@Insert_nod
$LN21@Insert_nod:

; 476  :         } else if (_Wherenode == _Wherenode->_Parent->_Left) {

  000b6	8b 03		 mov	 eax, DWORD PTR [ebx]
  000b8	3b 10		 cmp	 edx, DWORD PTR [eax]
  000ba	75 0a		 jne	 SHORT $LN23@Insert_nod

; 477  :             _Wherenode->_Parent->_Left = _Pnode;

  000bc	89 30		 mov	 DWORD PTR [eax], esi

; 483  :         _Wherenode->_Parent = _Pnode;

  000be	8b fb		 mov	 edi, ebx
  000c0	89 16		 mov	 DWORD PTR [esi], edx
  000c2	89 33		 mov	 DWORD PTR [ebx], esi
  000c4	eb 0d		 jmp	 SHORT $LN49@Insert_nod
$LN23@Insert_nod:

; 479  :             _Wherenode->_Parent->_Right = _Pnode;

  000c6	89 70 08	 mov	 DWORD PTR [eax+8], esi

; 483  :         _Wherenode->_Parent = _Pnode;

  000c9	8b fb		 mov	 edi, ebx
  000cb	89 16		 mov	 DWORD PTR [esi], edx
  000cd	89 33		 mov	 DWORD PTR [ebx], esi
  000cf	eb 02		 jmp	 SHORT $LN49@Insert_nod
$LN51@Insert_nod:
  000d1	8b f1		 mov	 esi, ecx
$LN49@Insert_nod:

; 688  :                         _Lrotate(_Pnode);
; 689  :                     }
; 690  : 
; 691  :                     _Pnode->_Parent->_Color          = _Black; // propagate red up

  000d3	c6 46 0c 01	 mov	 BYTE PTR [esi+12], 1

; 692  :                     _Pnode->_Parent->_Parent->_Color = _Red;

  000d7	8b 07		 mov	 eax, DWORD PTR [edi]
  000d9	8b 40 04	 mov	 eax, DWORD PTR [eax+4]
  000dc	c6 40 0c 00	 mov	 BYTE PTR [eax+12], 0

; 693  :                     _Rrotate(_Pnode->_Parent->_Parent);

  000e0	8b 07		 mov	 eax, DWORD PTR [edi]
  000e2	8b 48 04	 mov	 ecx, DWORD PTR [eax+4]

; 487  :         _Nodeptr _Pnode   = _Wherenode->_Left;

  000e5	8b 31		 mov	 esi, DWORD PTR [ecx]

; 488  :         _Wherenode->_Left = _Pnode->_Right;

  000e7	8b 46 08	 mov	 eax, DWORD PTR [esi+8]
  000ea	89 01		 mov	 DWORD PTR [ecx], eax

; 489  : 
; 490  :         if (!_Pnode->_Right->_Isnil) {

  000ec	8b 46 08	 mov	 eax, DWORD PTR [esi+8]
  000ef	80 78 0d 00	 cmp	 BYTE PTR [eax+13], 0
  000f3	75 03		 jne	 SHORT $LN27@Insert_nod

; 491  :             _Pnode->_Right->_Parent = _Wherenode;

  000f5	89 48 04	 mov	 DWORD PTR [eax+4], ecx
$LN27@Insert_nod:

; 492  :         }
; 493  : 
; 494  :         _Pnode->_Parent = _Wherenode->_Parent;

  000f8	8b 41 04	 mov	 eax, DWORD PTR [ecx+4]
  000fb	89 46 04	 mov	 DWORD PTR [esi+4], eax

; 495  : 
; 496  :         if (_Wherenode == _Myhead->_Parent) {

  000fe	8b 45 fc	 mov	 eax, DWORD PTR _this$1$[ebp]
  00101	8b 00		 mov	 eax, DWORD PTR [eax]
  00103	3b 48 04	 cmp	 ecx, DWORD PTR [eax+4]
  00106	75 0b		 jne	 SHORT $LN28@Insert_nod

; 497  :             _Myhead->_Parent = _Pnode;

  00108	89 70 04	 mov	 DWORD PTR [eax+4], esi

; 502  :         }
; 503  : 
; 504  :         _Pnode->_Right      = _Wherenode;

  0010b	89 4e 08	 mov	 DWORD PTR [esi+8], ecx

; 694  :                 }
; 695  :             } else { // fixup red-red in right subtree

  0010e	e9 cc 00 00 00	 jmp	 $LN52@Insert_nod
$LN28@Insert_nod:

; 498  :         } else if (_Wherenode == _Wherenode->_Parent->_Right) {

  00113	8b 41 04	 mov	 eax, DWORD PTR [ecx+4]
  00116	3b 48 08	 cmp	 ecx, DWORD PTR [eax+8]
  00119	75 0b		 jne	 SHORT $LN30@Insert_nod

; 499  :             _Wherenode->_Parent->_Right = _Pnode;

  0011b	89 70 08	 mov	 DWORD PTR [eax+8], esi

; 502  :         }
; 503  : 
; 504  :         _Pnode->_Right      = _Wherenode;

  0011e	89 4e 08	 mov	 DWORD PTR [esi+8], ecx

; 694  :                 }
; 695  :             } else { // fixup red-red in right subtree

  00121	e9 b9 00 00 00	 jmp	 $LN52@Insert_nod
$LN30@Insert_nod:

; 501  :             _Wherenode->_Parent->_Left = _Pnode;

  00126	89 30		 mov	 DWORD PTR [eax], esi

; 502  :         }
; 503  : 
; 504  :         _Pnode->_Right      = _Wherenode;

  00128	89 4e 08	 mov	 DWORD PTR [esi+8], ecx

; 694  :                 }
; 695  :             } else { // fixup red-red in right subtree

  0012b	e9 af 00 00 00	 jmp	 $LN52@Insert_nod
$LN10@Insert_nod:

; 696  :                 const auto _Parent_sibling = _Pnode->_Parent->_Parent->_Left;
; 697  :                 if (_Parent_sibling->_Color == _Red) { // parent's sibling has two red children, blacken both

  00130	80 78 0c 00	 cmp	 BYTE PTR [eax+12], 0
  00134	75 1b		 jne	 SHORT $LN15@Insert_nod
$LN53@Insert_nod:

; 674  :             }
; 675  :         }
; 676  : 
; 677  :         for (_Nodeptr _Pnode = _Newnode; _Pnode->_Parent->_Color == _Red;) {

  00136	c6 41 0c 01	 mov	 BYTE PTR [ecx+12], 1
  0013a	c6 40 0c 01	 mov	 BYTE PTR [eax+12], 1
  0013e	8b 07		 mov	 eax, DWORD PTR [edi]
  00140	8b 40 04	 mov	 eax, DWORD PTR [eax+4]
  00143	c6 40 0c 00	 mov	 BYTE PTR [eax+12], 0
  00147	8b 07		 mov	 eax, DWORD PTR [edi]
  00149	8b 50 04	 mov	 edx, DWORD PTR [eax+4]
  0014c	e9 91 00 00 00	 jmp	 $LN46@Insert_nod
$LN15@Insert_nod:

; 698  :                     _Pnode->_Parent->_Color          = _Black;
; 699  :                     _Parent_sibling->_Color          = _Black;
; 700  :                     _Pnode->_Parent->_Parent->_Color = _Red;
; 701  :                     _Pnode                           = _Pnode->_Parent->_Parent;
; 702  :                 } else { // parent's sibling has red and black children
; 703  :                     if (_Pnode == _Pnode->_Parent->_Left) { // rotate left child to right

  00151	8b 01		 mov	 eax, DWORD PTR [ecx]
  00153	3b d0		 cmp	 edx, eax
  00155	75 3e		 jne	 SHORT $LN39@Insert_nod

; 704  :                         _Pnode = _Pnode->_Parent;

  00157	8b d1		 mov	 edx, ecx

; 487  :         _Nodeptr _Pnode   = _Wherenode->_Left;

  00159	8b c8		 mov	 ecx, eax

; 488  :         _Wherenode->_Left = _Pnode->_Right;

  0015b	8b 41 08	 mov	 eax, DWORD PTR [ecx+8]
  0015e	89 02		 mov	 DWORD PTR [edx], eax

; 489  : 
; 490  :         if (!_Pnode->_Right->_Isnil) {

  00160	8b 41 08	 mov	 eax, DWORD PTR [ecx+8]
  00163	80 78 0d 00	 cmp	 BYTE PTR [eax+13], 0
  00167	75 03		 jne	 SHORT $LN34@Insert_nod

; 491  :             _Pnode->_Right->_Parent = _Wherenode;

  00169	89 50 04	 mov	 DWORD PTR [eax+4], edx
$LN34@Insert_nod:

; 492  :         }
; 493  : 
; 494  :         _Pnode->_Parent = _Wherenode->_Parent;

  0016c	8b 03		 mov	 eax, DWORD PTR [ebx]
  0016e	89 41 04	 mov	 DWORD PTR [ecx+4], eax

; 495  : 
; 496  :         if (_Wherenode == _Myhead->_Parent) {

  00171	8b 45 fc	 mov	 eax, DWORD PTR _this$1$[ebp]
  00174	8b 00		 mov	 eax, DWORD PTR [eax]
  00176	3b 50 04	 cmp	 edx, DWORD PTR [eax+4]
  00179	75 05		 jne	 SHORT $LN35@Insert_nod

; 497  :             _Myhead->_Parent = _Pnode;

  0017b	89 48 04	 mov	 DWORD PTR [eax+4], ecx
  0017e	eb 0e		 jmp	 SHORT $LN38@Insert_nod
$LN35@Insert_nod:

; 498  :         } else if (_Wherenode == _Wherenode->_Parent->_Right) {

  00180	8b 03		 mov	 eax, DWORD PTR [ebx]
  00182	3b 50 08	 cmp	 edx, DWORD PTR [eax+8]
  00185	75 05		 jne	 SHORT $LN37@Insert_nod

; 499  :             _Wherenode->_Parent->_Right = _Pnode;

  00187	89 48 08	 mov	 DWORD PTR [eax+8], ecx

; 500  :         } else {

  0018a	eb 02		 jmp	 SHORT $LN38@Insert_nod
$LN37@Insert_nod:

; 501  :             _Wherenode->_Parent->_Left = _Pnode;

  0018c	89 08		 mov	 DWORD PTR [eax], ecx
$LN38@Insert_nod:

; 502  :         }
; 503  : 
; 504  :         _Pnode->_Right      = _Wherenode;

  0018e	89 51 08	 mov	 DWORD PTR [ecx+8], edx

; 505  :         _Wherenode->_Parent = _Pnode;

  00191	8b fb		 mov	 edi, ebx
  00193	89 0b		 mov	 DWORD PTR [ebx], ecx
$LN39@Insert_nod:

; 705  :                         _Rrotate(_Pnode);
; 706  :                     }
; 707  : 
; 708  :                     _Pnode->_Parent->_Color          = _Black; // propagate red up

  00195	c6 41 0c 01	 mov	 BYTE PTR [ecx+12], 1

; 709  :                     _Pnode->_Parent->_Parent->_Color = _Red;

  00199	8b 07		 mov	 eax, DWORD PTR [edi]
  0019b	8b 40 04	 mov	 eax, DWORD PTR [eax+4]
  0019e	c6 40 0c 00	 mov	 BYTE PTR [eax+12], 0

; 710  :                     _Lrotate(_Pnode->_Parent->_Parent);

  001a2	8b 07		 mov	 eax, DWORD PTR [edi]
  001a4	8b 48 04	 mov	 ecx, DWORD PTR [eax+4]

; 465  :         _Nodeptr _Pnode    = _Wherenode->_Right;

  001a7	8b 71 08	 mov	 esi, DWORD PTR [ecx+8]

; 466  :         _Wherenode->_Right = _Pnode->_Left;

  001aa	8b 06		 mov	 eax, DWORD PTR [esi]
  001ac	89 41 08	 mov	 DWORD PTR [ecx+8], eax

; 467  : 
; 468  :         if (!_Pnode->_Left->_Isnil) {

  001af	8b 06		 mov	 eax, DWORD PTR [esi]
  001b1	80 78 0d 00	 cmp	 BYTE PTR [eax+13], 0
  001b5	75 03		 jne	 SHORT $LN41@Insert_nod

; 469  :             _Pnode->_Left->_Parent = _Wherenode;

  001b7	89 48 04	 mov	 DWORD PTR [eax+4], ecx
$LN41@Insert_nod:

; 470  :         }
; 471  : 
; 472  :         _Pnode->_Parent = _Wherenode->_Parent;

  001ba	8b 41 04	 mov	 eax, DWORD PTR [ecx+4]
  001bd	89 46 04	 mov	 DWORD PTR [esi+4], eax

; 473  : 
; 474  :         if (_Wherenode == _Myhead->_Parent) {

  001c0	8b 45 fc	 mov	 eax, DWORD PTR _this$1$[ebp]
  001c3	8b 00		 mov	 eax, DWORD PTR [eax]
  001c5	3b 48 04	 cmp	 ecx, DWORD PTR [eax+4]
  001c8	75 05		 jne	 SHORT $LN42@Insert_nod

; 475  :             _Myhead->_Parent = _Pnode;

  001ca	89 70 04	 mov	 DWORD PTR [eax+4], esi
  001cd	eb 0e		 jmp	 SHORT $LN45@Insert_nod
$LN42@Insert_nod:

; 476  :         } else if (_Wherenode == _Wherenode->_Parent->_Left) {

  001cf	8b 41 04	 mov	 eax, DWORD PTR [ecx+4]
  001d2	3b 08		 cmp	 ecx, DWORD PTR [eax]
  001d4	75 04		 jne	 SHORT $LN44@Insert_nod

; 477  :             _Wherenode->_Parent->_Left = _Pnode;

  001d6	89 30		 mov	 DWORD PTR [eax], esi

; 478  :         } else {

  001d8	eb 03		 jmp	 SHORT $LN45@Insert_nod
$LN44@Insert_nod:

; 479  :             _Wherenode->_Parent->_Right = _Pnode;

  001da	89 70 08	 mov	 DWORD PTR [eax+8], esi
$LN45@Insert_nod:

; 480  :         }
; 481  : 
; 482  :         _Pnode->_Left       = _Wherenode;

  001dd	89 0e		 mov	 DWORD PTR [esi], ecx
$LN52@Insert_nod:

; 674  :             }
; 675  :         }
; 676  : 
; 677  :         for (_Nodeptr _Pnode = _Newnode; _Pnode->_Parent->_Color == _Red;) {

  001df	89 71 04	 mov	 DWORD PTR [ecx+4], esi
$LN46@Insert_nod:
  001e2	8b 42 04	 mov	 eax, DWORD PTR [edx+4]
  001e5	80 78 0c 00	 cmp	 BYTE PTR [eax+12], 0
  001e9	0f 84 71 fe ff
	ff		 je	 $LL2@Insert_nod
  001ef	8b 4d f8	 mov	 ecx, DWORD PTR __Head$1$[ebp]
  001f2	5f		 pop	 edi
  001f3	5e		 pop	 esi
  001f4	5b		 pop	 ebx
$LN3@Insert_nod:

; 711  :                 }
; 712  :             }
; 713  :         }
; 714  : 
; 715  :         _Head->_Parent->_Color = _Black; // root is always black

  001f5	8b 41 04	 mov	 eax, DWORD PTR [ecx+4]
  001f8	c6 40 0c 01	 mov	 BYTE PTR [eax+12], 1

; 716  :         return _Newnode;

  001fc	8b 45 10	 mov	 eax, DWORD PTR __Newnode$[ebp]

; 717  :     }

  001ff	8b e5		 mov	 esp, ebp
  00201	5d		 pop	 ebp
  00202	c2 0c 00	 ret	 12			; 0000000cH
?_Insert_node@?$_Tree_val@U?$_Tree_simple_types@U?$pair@$$CBKPAVCResource@@@std@@@std@@@std@@QAEPAU?$_Tree_node@U?$pair@$$CBKPAVCResource@@@std@@PAX@2@U?$_Tree_id@PAU?$_Tree_node@U?$pair@$$CBKPAVCResource@@@std@@PAX@std@@@2@QAU32@@Z ENDP ; std::_Tree_val<std::_Tree_simple_types<std::pair<unsigned long const ,CResource *> > >::_Insert_node
_TEXT	ENDS
; Function compile flags: /Ogtp
; File C:\Program Files (x86)\Microsoft Visual Studio\2019\Professional\VC\Tools\MSVC\14.29.30133\include\xtree
; File C:\Program Files (x86)\Microsoft Visual Studio\2019\Professional\VC\Tools\MSVC\14.29.30133\include\utility
; File C:\Program Files (x86)\Microsoft Visual Studio\2019\Professional\VC\Tools\MSVC\14.29.30133\include\xmemory
; File C:\Program Files (x86)\Microsoft Visual Studio\2019\Professional\VC\Tools\MSVC\14.29.30133\include\xtree
;	COMDAT ?clear@?$_Tree@V?$_Tmap_traits@KPAVCResource@@U?$less@K@std@@V?$allocator@U?$pair@$$CBKPAVCResource@@@std@@@3@$0A@@std@@@std@@QAEXXZ
_TEXT	SEGMENT
?clear@?$_Tree@V?$_Tmap_traits@KPAVCResource@@U?$less@K@std@@V?$allocator@U?$pair@$$CBKPAVCResource@@@std@@@3@$0A@@std@@@std@@QAEXXZ PROC ; std::_Tree<std::_Tmap_traits<unsigned long,CResource *,std::less<unsigned long>,std::allocator<std::pair<unsigned long const ,CResource *> >,0> >::clear, COMDAT
; _this$ = ecx

; 1347 :     void clear() noexcept {

  00000	53		 push	 ebx
  00001	8b d9		 mov	 ebx, ecx
  00003	56		 push	 esi
  00004	57		 push	 edi

; 1348 :         const auto _Scary = _Get_scary();
; 1349 :         _Scary->_Orphan_ptr(nullptr);
; 1350 :         auto _Head = _Scary->_Myhead;

  00005	8b 3b		 mov	 edi, DWORD PTR [ebx]

; 1351 :         _Scary->_Erase_tree(_Getal(), _Head->_Parent);

  00007	8b 77 04	 mov	 esi, DWORD PTR [edi+4]

; 749  :         while (!_Rootnode->_Isnil) { // free subtrees, then node

  0000a	80 7e 0d 00	 cmp	 BYTE PTR [esi+13], 0
  0000e	75 20		 jne	 SHORT $LN5@clear
$LL4@clear:

; 750  :             _Erase_tree(_Al, _Rootnode->_Right);

  00010	ff 76 08	 push	 DWORD PTR [esi+8]
  00013	8b cb		 mov	 ecx, ebx
  00015	53		 push	 ebx
  00016	e8 00 00 00 00	 call	 ??$_Erase_tree@V?$allocator@U?$_Tree_node@U?$pair@$$CBKPAVCResource@@@std@@PAX@std@@@std@@@?$_Tree_val@U?$_Tree_simple_types@U?$pair@$$CBKPAVCResource@@@std@@@std@@@std@@QAEXAAV?$allocator@U?$_Tree_node@U?$pair@$$CBKPAVCResource@@@std@@PAX@std@@@1@PAU?$_Tree_node@U?$pair@$$CBKPAVCResource@@@std@@PAX@1@@Z ; std::_Tree_val<std::_Tree_simple_types<std::pair<unsigned long const ,CResource *> > >::_Erase_tree<std::allocator<std::_Tree_node<std::pair<unsigned long const ,CResource *>,void *> > >
; File C:\Program Files (x86)\Microsoft Visual Studio\2019\Professional\VC\Tools\MSVC\14.29.30133\include\utility

; 616  :     _Ty _Old_val = static_cast<_Ty&&>(_Val);

  0001b	8b c6		 mov	 eax, esi

; 617  :     _Val         = static_cast<_Other&&>(_New_val);

  0001d	8b 36		 mov	 esi, DWORD PTR [esi]
; File C:\Program Files (x86)\Microsoft Visual Studio\2019\Professional\VC\Tools\MSVC\14.29.30133\include\xmemory

; 264  :         ::operator delete(_Ptr, _Bytes);

  0001f	6a 18		 push	 24			; 00000018H
  00021	50		 push	 eax
  00022	e8 00 00 00 00	 call	 ??3@YAXPAXI@Z		; operator delete
  00027	83 c4 08	 add	 esp, 8
; File C:\Program Files (x86)\Microsoft Visual Studio\2019\Professional\VC\Tools\MSVC\14.29.30133\include\xtree

; 749  :         while (!_Rootnode->_Isnil) { // free subtrees, then node

  0002a	80 7e 0d 00	 cmp	 BYTE PTR [esi+13], 0
  0002e	74 e0		 je	 SHORT $LL4@clear
$LN5@clear:

; 1352 :         _Head->_Parent  = _Head;

  00030	89 7f 04	 mov	 DWORD PTR [edi+4], edi

; 1353 :         _Head->_Left    = _Head;

  00033	89 3f		 mov	 DWORD PTR [edi], edi

; 1354 :         _Head->_Right   = _Head;

  00035	89 7f 08	 mov	 DWORD PTR [edi+8], edi

; 1355 :         _Scary->_Mysize = 0;

  00038	5f		 pop	 edi
  00039	5e		 pop	 esi
  0003a	c7 43 04 00 00
	00 00		 mov	 DWORD PTR [ebx+4], 0
  00041	5b		 pop	 ebx

; 1356 :     }

  00042	c3		 ret	 0
?clear@?$_Tree@V?$_Tmap_traits@KPAVCResource@@U?$less@K@std@@V?$allocator@U?$pair@$$CBKPAVCResource@@@std@@@3@$0A@@std@@@std@@QAEXXZ ENDP ; std::_Tree<std::_Tmap_traits<unsigned long,CResource *,std::less<unsigned long>,std::allocator<std::pair<unsigned long const ,CResource *> >,0> >::clear
_TEXT	ENDS
; Function compile flags: /Ogtp
; File C:\Program Files (x86)\Microsoft Visual Studio\2019\Professional\VC\Tools\MSVC\14.29.30133\include\xtree
; File C:\Program Files (x86)\Microsoft Visual Studio\2019\Professional\VC\Tools\MSVC\14.29.30133\include\utility
; File C:\Program Files (x86)\Microsoft Visual Studio\2019\Professional\VC\Tools\MSVC\14.29.30133\include\xmemory
; File C:\Program Files (x86)\Microsoft Visual Studio\2019\Professional\VC\Tools\MSVC\14.29.30133\include\xtree
; File C:\Program Files (x86)\Microsoft Visual Studio\2019\Professional\VC\Tools\MSVC\14.29.30133\include\xmemory
; File C:\Program Files (x86)\Microsoft Visual Studio\2019\Professional\VC\Tools\MSVC\14.29.30133\include\xtree
;	COMDAT ??1?$_Tree@V?$_Tmap_traits@KPAVCResource@@U?$less@K@std@@V?$allocator@U?$pair@$$CBKPAVCResource@@@std@@@3@$0A@@std@@@std@@QAE@XZ
_TEXT	SEGMENT
??1?$_Tree@V?$_Tmap_traits@KPAVCResource@@U?$less@K@std@@V?$allocator@U?$pair@$$CBKPAVCResource@@@std@@@3@$0A@@std@@@std@@QAE@XZ PROC ; std::_Tree<std::_Tmap_traits<unsigned long,CResource *,std::less<unsigned long>,std::allocator<std::pair<unsigned long const ,CResource *> >,0> >::~_Tree<std::_Tmap_traits<unsigned long,CResource *,std::less<unsigned long>,std::allocator<std::pair<unsigned long const ,CResource *> >,0> >, COMDAT
; _this$ = ecx

; 1092 :     ~_Tree() noexcept {

  00000	56		 push	 esi
  00001	57		 push	 edi
  00002	8b f9		 mov	 edi, ecx

; 758  :         _Erase_tree(_Al, _Myhead->_Parent);

  00004	8b 07		 mov	 eax, DWORD PTR [edi]
  00006	8b 70 04	 mov	 esi, DWORD PTR [eax+4]

; 749  :         while (!_Rootnode->_Isnil) { // free subtrees, then node

  00009	80 7e 0d 00	 cmp	 BYTE PTR [esi+13], 0
  0000d	75 23		 jne	 SHORT $LN7@Tree
  0000f	90		 npad	 1
$LL6@Tree:

; 750  :             _Erase_tree(_Al, _Rootnode->_Right);

  00010	ff 76 08	 push	 DWORD PTR [esi+8]
  00013	8b cf		 mov	 ecx, edi
  00015	57		 push	 edi
  00016	e8 00 00 00 00	 call	 ??$_Erase_tree@V?$allocator@U?$_Tree_node@U?$pair@$$CBKPAVCResource@@@std@@PAX@std@@@std@@@?$_Tree_val@U?$_Tree_simple_types@U?$pair@$$CBKPAVCResource@@@std@@@std@@@std@@QAEXAAV?$allocator@U?$_Tree_node@U?$pair@$$CBKPAVCResource@@@std@@PAX@std@@@1@PAU?$_Tree_node@U?$pair@$$CBKPAVCResource@@@std@@PAX@1@@Z ; std::_Tree_val<std::_Tree_simple_types<std::pair<unsigned long const ,CResource *> > >::_Erase_tree<std::allocator<std::_Tree_node<std::pair<unsigned long const ,CResource *>,void *> > >
; File C:\Program Files (x86)\Microsoft Visual Studio\2019\Professional\VC\Tools\MSVC\14.29.30133\include\utility

; 616  :     _Ty _Old_val = static_cast<_Ty&&>(_Val);

  0001b	8b c6		 mov	 eax, esi

; 617  :     _Val         = static_cast<_Other&&>(_New_val);

  0001d	8b 36		 mov	 esi, DWORD PTR [esi]
; File C:\Program Files (x86)\Microsoft Visual Studio\2019\Professional\VC\Tools\MSVC\14.29.30133\include\xmemory

; 264  :         ::operator delete(_Ptr, _Bytes);

  0001f	6a 18		 push	 24			; 00000018H
  00021	50		 push	 eax
  00022	e8 00 00 00 00	 call	 ??3@YAXPAXI@Z		; operator delete
  00027	83 c4 08	 add	 esp, 8
; File C:\Program Files (x86)\Microsoft Visual Studio\2019\Professional\VC\Tools\MSVC\14.29.30133\include\xtree

; 749  :         while (!_Rootnode->_Isnil) { // free subtrees, then node

  0002a	80 7e 0d 00	 cmp	 BYTE PTR [esi+13], 0
  0002e	74 e0		 je	 SHORT $LL6@Tree
; File C:\Program Files (x86)\Microsoft Visual Studio\2019\Professional\VC\Tools\MSVC\14.29.30133\include\xmemory

; 173  :     _Ptr = reinterpret_cast<void*>(_Ptr_container);

  00030	8b 07		 mov	 eax, DWORD PTR [edi]
$LN7@Tree:

; 264  :         ::operator delete(_Ptr, _Bytes);

  00032	6a 18		 push	 24			; 00000018H
  00034	50		 push	 eax
  00035	e8 00 00 00 00	 call	 ??3@YAXPAXI@Z		; operator delete
  0003a	83 c4 08	 add	 esp, 8
  0003d	5f		 pop	 edi
  0003e	5e		 pop	 esi
; File C:\Program Files (x86)\Microsoft Visual Studio\2019\Professional\VC\Tools\MSVC\14.29.30133\include\xtree

; 1099 :     }

  0003f	c3		 ret	 0
??1?$_Tree@V?$_Tmap_traits@KPAVCResource@@U?$less@K@std@@V?$allocator@U?$pair@$$CBKPAVCResource@@@std@@@3@$0A@@std@@@std@@QAE@XZ ENDP ; std::_Tree<std::_Tmap_traits<unsigned long,CResource *,std::less<unsigned long>,std::allocator<std::pair<unsigned long const ,CResource *> >,0> >::~_Tree<std::_Tmap_traits<unsigned long,CResource *,std::less<unsigned long>,std::allocator<std::pair<unsigned long const ,CResource *> >,0> >
_TEXT	ENDS
; Function compile flags: /Ogtp
; File C:\Users\murat\Desktop\Siveps2-1-99-Project\source\client\Client\EterLib\ResourceManager.cpp
;	COMDAT ?__GetFileCRC@CResourceManager@@IAEKPBDPAPBD@Z
_TEXT	SEGMENT
_c_szFileName$ = 8					; size = 4
_c_ppszLowerFileName$ = 12				; size = 4
?__GetFileCRC@CResourceManager@@IAEKPBDPAPBD@Z PROC	; CResourceManager::__GetFileCRC, COMDAT
; _this$ = ecx

; 344  : {

  00000	55		 push	 ebp
  00001	8b ec		 mov	 ebp, esp
  00003	56		 push	 esi

; 345  : 	static char s_szFullPathFileName[MAX_PATH];
; 346  : 	const char * src = c_szFileName;
; 347  : 	char * dst = s_szFullPathFileName;
; 348  : 	int	len = 0;
; 349  : 
; 350  : 	while (src[len])

  00004	8b 75 08	 mov	 esi, DWORD PTR _c_szFileName$[ebp]
  00007	57		 push	 edi
  00008	33 ff		 xor	 edi, edi
  0000a	8a 06		 mov	 al, BYTE PTR [esi]
  0000c	84 c0		 test	 al, al
  0000e	74 26		 je	 SHORT $LN3@GetFileCRC
  00010	53		 push	 ebx
  00011	bb 00 00 00 00	 mov	 ebx, OFFSET ?s_szFullPathFileName@?1??__GetFileCRC@CResourceManager@@IAEKPBDPAPBD@Z@4PADA
  00016	2b de		 sub	 ebx, esi
$LL2@GetFileCRC:

; 351  : 	{
; 352  : 		if (src[len]=='/')

  00018	3c 2f		 cmp	 al, 47			; 0000002fH
  0001a	75 04		 jne	 SHORT $LN4@GetFileCRC

; 353  : 			dst[len] = '\\';

  0001c	b0 5c		 mov	 al, 92			; 0000005cH
  0001e	eb 09		 jmp	 SHORT $LN5@GetFileCRC
$LN4@GetFileCRC:

; 354  : 		else
; 355  : 			dst[len] = (char) korean_tolower(src[len]);

  00020	50		 push	 eax
  00021	e8 00 00 00 00	 call	 ?korean_tolower@@YADD@Z	; korean_tolower
  00026	83 c4 04	 add	 esp, 4
$LN5@GetFileCRC:

; 356  : 
; 357  : 		++len;

  00029	88 04 33	 mov	 BYTE PTR [ebx+esi], al
  0002c	47		 inc	 edi
  0002d	8a 46 01	 mov	 al, BYTE PTR [esi+1]
  00030	46		 inc	 esi
  00031	84 c0		 test	 al, al
  00033	75 e3		 jne	 SHORT $LL2@GetFileCRC
  00035	5b		 pop	 ebx
$LN3@GetFileCRC:

; 358  : 	}
; 359  : 
; 360  : 	dst[len] = '\0';
; 361  : 
; 362  : 	if (c_ppszLowerFileName)

  00036	8b 45 0c	 mov	 eax, DWORD PTR _c_ppszLowerFileName$[ebp]
  00039	c6 87 00 00 00
	00 00		 mov	 BYTE PTR ?s_szFullPathFileName@?1??__GetFileCRC@CResourceManager@@IAEKPBDPAPBD@Z@4PADA[edi], 0
  00040	85 c0		 test	 eax, eax
  00042	74 06		 je	 SHORT $LN6@GetFileCRC

; 363  : 		*c_ppszLowerFileName = &s_szFullPathFileName[0];

  00044	c7 00 00 00 00
	00		 mov	 DWORD PTR [eax], OFFSET ?s_szFullPathFileName@?1??__GetFileCRC@CResourceManager@@IAEKPBDPAPBD@Z@4PADA
$LN6@GetFileCRC:

; 364  : 
; 365  : 	return (GetCRC32(s_szFullPathFileName, len));

  0004a	57		 push	 edi
  0004b	68 00 00 00 00	 push	 OFFSET ?s_szFullPathFileName@?1??__GetFileCRC@CResourceManager@@IAEKPBDPAPBD@Z@4PADA
  00050	e8 00 00 00 00	 call	 ?GetCRC32@@YAKPBDI@Z	; GetCRC32
  00055	83 c4 08	 add	 esp, 8
  00058	5f		 pop	 edi
  00059	5e		 pop	 esi

; 366  : }

  0005a	5d		 pop	 ebp
  0005b	c2 08 00	 ret	 8
?__GetFileCRC@CResourceManager@@IAEKPBDPAPBD@Z ENDP	; CResourceManager::__GetFileCRC
_TEXT	ENDS
; Function compile flags: /Ogtp
; File C:\Users\murat\Desktop\Siveps2-1-99-Project\source\client\Client\EterLib\ResourceManager.cpp
; File C:\Program Files (x86)\Microsoft Visual Studio\2019\Professional\VC\Tools\MSVC\14.29.30133\include\xtree
; File C:\Users\murat\Desktop\Siveps2-1-99-Project\source\client\Client\EterLib\ResourceManager.cpp
; File C:\Program Files (x86)\Microsoft Visual Studio\2019\Professional\VC\Tools\MSVC\14.29.30133\include\xtree
; File C:\Users\murat\Desktop\Siveps2-1-99-Project\source\client\Client\EterLib\ResourceManager.cpp
; File C:\Program Files (x86)\Microsoft Visual Studio\2019\Professional\VC\Tools\MSVC\14.29.30133\include\xtree
; File C:\Users\murat\Desktop\Siveps2-1-99-Project\source\client\Client\EterLib\ResourceManager.cpp
;	COMDAT ?__DestroyCacheMap@CResourceManager@@IAEXXZ
_TEXT	SEGMENT
?__DestroyCacheMap@CResourceManager@@IAEXXZ PROC	; CResourceManager::__DestroyCacheMap, COMDAT
; _this$ = ecx
; File C:\Program Files (x86)\Microsoft Visual Studio\2019\Professional\VC\Tools\MSVC\14.29.30133\include\xtree

; 1143 :         return iterator(_Scary->_Myhead->_Left, _Scary);

  00000	8b 41 04	 mov	 eax, DWORD PTR [ecx+4]
; File C:\Users\murat\Desktop\Siveps2-1-99-Project\source\client\Client\EterLib\ResourceManager.cpp

; 131  : {

  00003	56		 push	 esi
  00004	57		 push	 edi
; File C:\Program Files (x86)\Microsoft Visual Studio\2019\Professional\VC\Tools\MSVC\14.29.30133\include\xtree

; 1143 :         return iterator(_Scary->_Myhead->_Left, _Scary);

  00005	8d 79 04	 lea	 edi, DWORD PTR [ecx+4]

; 39   :     _Tree_unchecked_const_iterator(_Nodeptr _Pnode, const _Mytree* _Plist) noexcept : _Ptr(_Pnode) {

  00008	8b 30		 mov	 esi, DWORD PTR [eax]
  0000a	3b f0		 cmp	 esi, eax
; File C:\Users\murat\Desktop\Siveps2-1-99-Project\source\client\Client\EterLib\ResourceManager.cpp

; 133  : 	for (i = m_pCacheMap.begin(); i != m_pCacheMap.end(); ++i)

  0000c	74 52		 je	 SHORT $LN3@DestroyCac
  0000e	66 90		 npad	 2
$LL28@DestroyCac:

; 134  : 	{
; 135  : 		CResource* pResource = i->second;
; 136  : 		pResource->Release();

  00010	8b 4e 14	 mov	 ecx, DWORD PTR [esi+20]
  00013	e8 00 00 00 00	 call	 ?Release@CReferenceObject@@QAEXXZ ; CReferenceObject::Release
; File C:\Program Files (x86)\Microsoft Visual Studio\2019\Professional\VC\Tools\MSVC\14.29.30133\include\xtree

; 52   :         if (_Ptr->_Right->_Isnil) { // climb looking for right subtree

  00018	8b 46 08	 mov	 eax, DWORD PTR [esi+8]
  0001b	80 78 0d 00	 cmp	 BYTE PTR [eax+13], 0
  0001f	74 23		 je	 SHORT $LN27@DestroyCac

; 53   :             _Nodeptr _Pnode;
; 54   :             while (!(_Pnode = _Ptr->_Parent)->_Isnil && _Ptr == _Pnode->_Right) {

  00021	8b 46 04	 mov	 eax, DWORD PTR [esi+4]
  00024	80 78 0d 00	 cmp	 BYTE PTR [eax+13], 0
  00028	75 16		 jne	 SHORT $LN64@DestroyCac
  0002a	66 0f 1f 44 00
	00		 npad	 6
$LL25@DestroyCac:
  00030	3b 70 08	 cmp	 esi, DWORD PTR [eax+8]
  00033	75 0b		 jne	 SHORT $LN64@DestroyCac

; 55   :                 _Ptr = _Pnode; // ==> parent while right subtree

  00035	8b f0		 mov	 esi, eax
  00037	8b 40 04	 mov	 eax, DWORD PTR [eax+4]
  0003a	80 78 0d 00	 cmp	 BYTE PTR [eax+13], 0
  0003e	74 f0		 je	 SHORT $LL25@DestroyCac
$LN64@DestroyCac:

; 56   :             }
; 57   : 
; 58   :             _Ptr = _Pnode; // ==> parent (head if end())

  00040	8b f0		 mov	 esi, eax

; 59   :         } else {

  00042	eb 18		 jmp	 SHORT $LN32@DestroyCac
$LN27@DestroyCac:

; 60   :             _Ptr = _Mytree::_Min(_Ptr->_Right); // ==> smallest of right subtree

  00044	8b f0		 mov	 esi, eax

; 457  :         while (!_Pnode->_Left->_Isnil) {

  00046	8b 0e		 mov	 ecx, DWORD PTR [esi]
  00048	80 79 0d 00	 cmp	 BYTE PTR [ecx+13], 0
  0004c	75 0e		 jne	 SHORT $LN32@DestroyCac
  0004e	66 90		 npad	 2
$LL31@DestroyCac:
  00050	8b 01		 mov	 eax, DWORD PTR [ecx]

; 458  :             _Pnode = _Pnode->_Left;

  00052	8b f1		 mov	 esi, ecx
  00054	8b c8		 mov	 ecx, eax
  00056	80 78 0d 00	 cmp	 BYTE PTR [eax+13], 0
  0005a	74 f4		 je	 SHORT $LL31@DestroyCac
$LN32@DestroyCac:

; 236  :         return this->_Ptr == _Right._Ptr;

  0005c	3b 37		 cmp	 esi, DWORD PTR [edi]
; File C:\Users\murat\Desktop\Siveps2-1-99-Project\source\client\Client\EterLib\ResourceManager.cpp

; 133  : 	for (i = m_pCacheMap.begin(); i != m_pCacheMap.end(); ++i)

  0005e	75 b0		 jne	 SHORT $LL28@DestroyCac
$LN3@DestroyCac:

; 137  : 	}
; 138  : 
; 139  : 	m_pCacheMap.clear();

  00060	8b cf		 mov	 ecx, edi
  00062	5f		 pop	 edi
  00063	5e		 pop	 esi
  00064	e9 00 00 00 00	 jmp	 ?clear@?$_Tree@V?$_Tmap_traits@KPAVCResource@@U?$less@K@std@@V?$allocator@U?$pair@$$CBKPAVCResource@@@std@@@3@$0A@@std@@@std@@QAEXXZ ; std::_Tree<std::_Tmap_traits<unsigned long,CResource *,std::less<unsigned long>,std::allocator<std::pair<unsigned long const ,CResource *> >,0> >::clear
?__DestroyCacheMap@CResourceManager@@IAEXXZ ENDP	; CResourceManager::__DestroyCacheMap
_TEXT	ENDS
; Function compile flags: /Ogtp
; File C:\Users\murat\Desktop\Siveps2-1-99-Project\source\client\Client\EterLib\ResourceManager.cpp
; File C:\Program Files (x86)\Microsoft Visual Studio\2019\Professional\VC\Tools\MSVC\14.29.30133\include\xtree
; File C:\Users\murat\Desktop\Siveps2-1-99-Project\source\client\Client\EterLib\ResourceManager.cpp
; File C:\Program Files (x86)\Microsoft Visual Studio\2019\Professional\VC\Tools\MSVC\14.29.30133\include\xtree
; File C:\Users\murat\Desktop\Siveps2-1-99-Project\source\client\Client\EterLib\ResourceManager.cpp
; File C:\Program Files (x86)\Microsoft Visual Studio\2019\Professional\VC\Tools\MSVC\14.29.30133\include\xtree
; File C:\Users\murat\Desktop\Siveps2-1-99-Project\source\client\Client\EterLib\ResourceManager.cpp
; File C:\Program Files (x86)\Microsoft Visual Studio\2019\Professional\VC\Tools\MSVC\14.29.30133\include\xtree
; File C:\Users\murat\Desktop\Siveps2-1-99-Project\source\client\Client\eterBase\Stl.h
; File C:\Program Files (x86)\Microsoft Visual Studio\2019\Professional\VC\Tools\MSVC\14.29.30133\include\xtree
; File C:\Users\murat\Desktop\Siveps2-1-99-Project\source\client\Client\eterBase\Stl.h
; File C:\Users\murat\Desktop\Siveps2-1-99-Project\source\client\Client\EterLib\ResourceManager.cpp
;	COMDAT ?__DestroyResourceMap@CResourceManager@@IAEXXZ
_TEXT	SEGMENT
?__DestroyResourceMap@CResourceManager@@IAEXXZ PROC	; CResourceManager::__DestroyResourceMap, COMDAT
; _this$ = ecx

; 152  : {

  00000	56		 push	 esi
  00001	8b f1		 mov	 esi, ecx
  00003	57		 push	 edi

; 153  : 	Tracenf("CResourceManager::__DestroyResourceMap %d", m_pResMap.size());

  00004	ff 76 10	 push	 DWORD PTR [esi+16]
  00007	68 00 00 00 00	 push	 OFFSET ??_C@_0CK@GGPMOLNJ@CResourceManager?3?3__DestroyReso@
  0000c	e8 00 00 00 00	 call	 ?Tracenf@@YAXPBDZZ	; Tracenf
; File C:\Program Files (x86)\Microsoft Visual Studio\2019\Professional\VC\Tools\MSVC\14.29.30133\include\xtree

; 1143 :         return iterator(_Scary->_Myhead->_Left, _Scary);

  00011	8b 46 0c	 mov	 eax, DWORD PTR [esi+12]
  00014	8d 7e 0c	 lea	 edi, DWORD PTR [esi+12]
; File C:\Users\murat\Desktop\Siveps2-1-99-Project\source\client\Client\EterLib\ResourceManager.cpp

; 153  : 	Tracenf("CResourceManager::__DestroyResourceMap %d", m_pResMap.size());

  00017	83 c4 08	 add	 esp, 8
; File C:\Program Files (x86)\Microsoft Visual Studio\2019\Professional\VC\Tools\MSVC\14.29.30133\include\xtree

; 39   :     _Tree_unchecked_const_iterator(_Nodeptr _Pnode, const _Mytree* _Plist) noexcept : _Ptr(_Pnode) {

  0001a	8b 30		 mov	 esi, DWORD PTR [eax]
  0001c	3b f0		 cmp	 esi, eax
; File C:\Users\murat\Desktop\Siveps2-1-99-Project\source\client\Client\EterLib\ResourceManager.cpp

; 156  : 	for (i = m_pResMap.begin(); i != m_pResMap.end(); ++i)

  0001e	0f 84 a1 00 00
	00		 je	 $LN54@DestroyRes
$LL28@DestroyRes:

; 157  : 	{
; 158  : 		CResource* pResource = i->second;
; 159  : 		pResource->Clear();

  00024	8b 4e 14	 mov	 ecx, DWORD PTR [esi+20]
  00027	e8 00 00 00 00	 call	 ?Clear@CResource@@QAEXXZ ; CResource::Clear
; File C:\Program Files (x86)\Microsoft Visual Studio\2019\Professional\VC\Tools\MSVC\14.29.30133\include\xtree

; 52   :         if (_Ptr->_Right->_Isnil) { // climb looking for right subtree

  0002c	8b 46 08	 mov	 eax, DWORD PTR [esi+8]
  0002f	80 78 0d 00	 cmp	 BYTE PTR [eax+13], 0
  00033	74 1f		 je	 SHORT $LN27@DestroyRes

; 53   :             _Nodeptr _Pnode;
; 54   :             while (!(_Pnode = _Ptr->_Parent)->_Isnil && _Ptr == _Pnode->_Right) {

  00035	8b 46 04	 mov	 eax, DWORD PTR [esi+4]
  00038	80 78 0d 00	 cmp	 BYTE PTR [eax+13], 0
  0003c	75 12		 jne	 SHORT $LN123@DestroyRes
  0003e	66 90		 npad	 2
$LL25@DestroyRes:
  00040	3b 70 08	 cmp	 esi, DWORD PTR [eax+8]
  00043	75 0b		 jne	 SHORT $LN123@DestroyRes

; 55   :                 _Ptr = _Pnode; // ==> parent while right subtree

  00045	8b f0		 mov	 esi, eax
  00047	8b 40 04	 mov	 eax, DWORD PTR [eax+4]
  0004a	80 78 0d 00	 cmp	 BYTE PTR [eax+13], 0
  0004e	74 f0		 je	 SHORT $LL25@DestroyRes
$LN123@DestroyRes:

; 56   :             }
; 57   : 
; 58   :             _Ptr = _Pnode; // ==> parent (head if end())

  00050	8b f0		 mov	 esi, eax

; 59   :         } else {

  00052	eb 18		 jmp	 SHORT $LN32@DestroyRes
$LN27@DestroyRes:

; 60   :             _Ptr = _Mytree::_Min(_Ptr->_Right); // ==> smallest of right subtree

  00054	8b f0		 mov	 esi, eax

; 457  :         while (!_Pnode->_Left->_Isnil) {

  00056	8b 0e		 mov	 ecx, DWORD PTR [esi]
  00058	80 79 0d 00	 cmp	 BYTE PTR [ecx+13], 0
  0005c	75 0e		 jne	 SHORT $LN32@DestroyRes
  0005e	66 90		 npad	 2
$LL31@DestroyRes:
  00060	8b 01		 mov	 eax, DWORD PTR [ecx]

; 458  :             _Pnode = _Pnode->_Left;

  00062	8b f1		 mov	 esi, ecx
  00064	8b c8		 mov	 ecx, eax
  00066	80 78 0d 00	 cmp	 BYTE PTR [eax+13], 0
  0006a	74 f4		 je	 SHORT $LL31@DestroyRes
$LN32@DestroyRes:

; 39   :     _Tree_unchecked_const_iterator(_Nodeptr _Pnode, const _Mytree* _Plist) noexcept : _Ptr(_Pnode) {

  0006c	8b 07		 mov	 eax, DWORD PTR [edi]

; 236  :         return this->_Ptr == _Right._Ptr;

  0006e	3b f0		 cmp	 esi, eax
; File C:\Users\murat\Desktop\Siveps2-1-99-Project\source\client\Client\EterLib\ResourceManager.cpp

; 156  : 	for (i = m_pResMap.begin(); i != m_pResMap.end(); ++i)

  00070	75 b2		 jne	 SHORT $LL28@DestroyRes
  00072	8b 30		 mov	 esi, DWORD PTR [eax]
; File C:\Program Files (x86)\Microsoft Visual Studio\2019\Professional\VC\Tools\MSVC\14.29.30133\include\xtree

; 39   :     _Tree_unchecked_const_iterator(_Nodeptr _Pnode, const _Mytree* _Plist) noexcept : _Ptr(_Pnode) {

  00074	3b f0		 cmp	 esi, eax
; File C:\Users\murat\Desktop\Siveps2-1-99-Project\source\client\Client\eterBase\Stl.h

; 127  : 	for (TContainer::iterator i = container.begin(); i != container.end(); ++i)

  00076	74 4d		 je	 SHORT $LN54@DestroyRes
$LL75@DestroyRes:

; 128  : 	{
; 129  : 		delete i->second;

  00078	8b 4e 14	 mov	 ecx, DWORD PTR [esi+20]
  0007b	85 c9		 test	 ecx, ecx
  0007d	74 06		 je	 SHORT $LN53@DestroyRes
  0007f	8b 01		 mov	 eax, DWORD PTR [ecx]
  00081	6a 01		 push	 1
  00083	ff 10		 call	 DWORD PTR [eax]
$LN53@DestroyRes:
; File C:\Program Files (x86)\Microsoft Visual Studio\2019\Professional\VC\Tools\MSVC\14.29.30133\include\xtree

; 52   :         if (_Ptr->_Right->_Isnil) { // climb looking for right subtree

  00085	8b 46 08	 mov	 eax, DWORD PTR [esi+8]
  00088	80 78 0d 00	 cmp	 BYTE PTR [eax+13], 0
  0008c	74 1d		 je	 SHORT $LN74@DestroyRes

; 53   :             _Nodeptr _Pnode;
; 54   :             while (!(_Pnode = _Ptr->_Parent)->_Isnil && _Ptr == _Pnode->_Right) {

  0008e	8b 46 04	 mov	 eax, DWORD PTR [esi+4]
  00091	80 78 0d 00	 cmp	 BYTE PTR [eax+13], 0
  00095	75 10		 jne	 SHORT $LN124@DestroyRes
$LL72@DestroyRes:
  00097	3b 70 08	 cmp	 esi, DWORD PTR [eax+8]
  0009a	75 0b		 jne	 SHORT $LN124@DestroyRes

; 55   :                 _Ptr = _Pnode; // ==> parent while right subtree

  0009c	8b f0		 mov	 esi, eax
  0009e	8b 40 04	 mov	 eax, DWORD PTR [eax+4]
  000a1	80 78 0d 00	 cmp	 BYTE PTR [eax+13], 0
  000a5	74 f0		 je	 SHORT $LL72@DestroyRes
$LN124@DestroyRes:

; 56   :             }
; 57   : 
; 58   :             _Ptr = _Pnode; // ==> parent (head if end())

  000a7	8b f0		 mov	 esi, eax

; 59   :         } else {

  000a9	eb 16		 jmp	 SHORT $LN79@DestroyRes
$LN74@DestroyRes:

; 60   :             _Ptr = _Mytree::_Min(_Ptr->_Right); // ==> smallest of right subtree

  000ab	8b f0		 mov	 esi, eax

; 457  :         while (!_Pnode->_Left->_Isnil) {

  000ad	8b 0e		 mov	 ecx, DWORD PTR [esi]
  000af	80 79 0d 00	 cmp	 BYTE PTR [ecx+13], 0
  000b3	75 0c		 jne	 SHORT $LN79@DestroyRes
$LL78@DestroyRes:
  000b5	8b 01		 mov	 eax, DWORD PTR [ecx]

; 458  :             _Pnode = _Pnode->_Left;

  000b7	8b f1		 mov	 esi, ecx
  000b9	8b c8		 mov	 ecx, eax
  000bb	80 78 0d 00	 cmp	 BYTE PTR [eax+13], 0
  000bf	74 f4		 je	 SHORT $LL78@DestroyRes
$LN79@DestroyRes:

; 236  :         return this->_Ptr == _Right._Ptr;

  000c1	3b 37		 cmp	 esi, DWORD PTR [edi]
; File C:\Users\murat\Desktop\Siveps2-1-99-Project\source\client\Client\eterBase\Stl.h

; 127  : 	for (TContainer::iterator i = container.begin(); i != container.end(); ++i)

  000c3	75 b3		 jne	 SHORT $LL75@DestroyRes
$LN54@DestroyRes:

; 130  : 	}
; 131  : 
; 132  : 	container.clear();

  000c5	8b cf		 mov	 ecx, edi
  000c7	5f		 pop	 edi
  000c8	5e		 pop	 esi
  000c9	e9 00 00 00 00	 jmp	 ?clear@?$_Tree@V?$_Tmap_traits@KPAVCResource@@U?$less@K@std@@V?$allocator@U?$pair@$$CBKPAVCResource@@@std@@@3@$0A@@std@@@std@@QAEXXZ ; std::_Tree<std::_Tmap_traits<unsigned long,CResource *,std::less<unsigned long>,std::allocator<std::pair<unsigned long const ,CResource *> >,0> >::clear
?__DestroyResourceMap@CResourceManager@@IAEXXZ ENDP	; CResourceManager::__DestroyResourceMap
_TEXT	ENDS
; Function compile flags: /Ogtp
; File C:\Users\murat\Desktop\Siveps2-1-99-Project\source\client\Client\EterLib\ResourceManager.cpp
; File C:\Program Files (x86)\Microsoft Visual Studio\2019\Professional\VC\Tools\MSVC\14.29.30133\include\xtree
; File C:\Users\murat\Desktop\Siveps2-1-99-Project\source\client\Client\EterLib\ResourceManager.cpp
; File C:\Program Files (x86)\Microsoft Visual Studio\2019\Professional\VC\Tools\MSVC\14.29.30133\include\xtree
; File C:\Users\murat\Desktop\Siveps2-1-99-Project\source\client\Client\EterLib\ResourceManager.cpp
; File C:\Program Files (x86)\Microsoft Visual Studio\2019\Professional\VC\Tools\MSVC\14.29.30133\include\xtree
; File C:\Users\murat\Desktop\Siveps2-1-99-Project\source\client\Client\EterLib\ResourceManager.cpp
; File C:\Program Files (x86)\Microsoft Visual Studio\2019\Professional\VC\Tools\MSVC\14.29.30133\include\xtree
; File C:\Program Files (x86)\Microsoft Visual Studio\2019\Professional\VC\Tools\MSVC\14.29.30133\include\utility
; File C:\Program Files (x86)\Microsoft Visual Studio\2019\Professional\VC\Tools\MSVC\14.29.30133\include\xmemory
; File C:\Program Files (x86)\Microsoft Visual Studio\2019\Professional\VC\Tools\MSVC\14.29.30133\include\xtree
; File C:\Users\murat\Desktop\Siveps2-1-99-Project\source\client\Client\EterLib\ResourceManager.cpp
;	COMDAT ?__DestroyDeletingResourceMap@CResourceManager@@IAEXXZ
_TEXT	SEGMENT
_i$1 = -4						; size = 4
?__DestroyDeletingResourceMap@CResourceManager@@IAEXXZ PROC ; CResourceManager::__DestroyDeletingResourceMap, COMDAT
; _this$ = ecx

; 143  : {

  00000	55		 push	 ebp
  00001	8b ec		 mov	 ebp, esp
  00003	51		 push	 ecx
  00004	53		 push	 ebx
  00005	56		 push	 esi
  00006	8b f1		 mov	 esi, ecx
  00008	57		 push	 edi

; 144  : 	Tracenf("CResourceManager::__DestroyDeletingResourceMap %d", m_ResourceDeletingMap.size());

  00009	ff 76 28	 push	 DWORD PTR [esi+40]
  0000c	68 00 00 00 00	 push	 OFFSET ??_C@_0DC@JIBACBGM@CResourceManager?3?3__DestroyDele@
  00011	e8 00 00 00 00	 call	 ?Tracenf@@YAXPBDZZ	; Tracenf
; File C:\Program Files (x86)\Microsoft Visual Studio\2019\Professional\VC\Tools\MSVC\14.29.30133\include\xtree

; 1143 :         return iterator(_Scary->_Myhead->_Left, _Scary);

  00016	8d 5e 24	 lea	 ebx, DWORD PTR [esi+36]
; File C:\Users\murat\Desktop\Siveps2-1-99-Project\source\client\Client\EterLib\ResourceManager.cpp

; 144  : 	Tracenf("CResourceManager::__DestroyDeletingResourceMap %d", m_ResourceDeletingMap.size());

  00019	83 c4 08	 add	 esp, 8
; File C:\Program Files (x86)\Microsoft Visual Studio\2019\Professional\VC\Tools\MSVC\14.29.30133\include\xtree

; 1143 :         return iterator(_Scary->_Myhead->_Left, _Scary);

  0001c	8b 33		 mov	 esi, DWORD PTR [ebx]

; 39   :     _Tree_unchecked_const_iterator(_Nodeptr _Pnode, const _Mytree* _Plist) noexcept : _Ptr(_Pnode) {

  0001e	8b 06		 mov	 eax, DWORD PTR [esi]
  00020	89 45 fc	 mov	 DWORD PTR _i$1[ebp], eax
  00023	3b c6		 cmp	 eax, esi
; File C:\Users\murat\Desktop\Siveps2-1-99-Project\source\client\Client\EterLib\ResourceManager.cpp

; 145  : 	for (TResourceDeletingMap::iterator i = m_ResourceDeletingMap.begin(); i != m_ResourceDeletingMap.end(); ++i)

  00025	74 19		 je	 SHORT $LN3@DestroyDel
$LL17@DestroyDel:

; 146  : 		(i->first)->Clear();

  00027	8b 48 10	 mov	 ecx, DWORD PTR [eax+16]
  0002a	e8 00 00 00 00	 call	 ?Clear@CResource@@QAEXXZ ; CResource::Clear
; File C:\Program Files (x86)\Microsoft Visual Studio\2019\Professional\VC\Tools\MSVC\14.29.30133\include\xtree

; 202  :         _Mybase::operator++();

  0002f	8d 4d fc	 lea	 ecx, DWORD PTR _i$1[ebp]
  00032	e8 00 00 00 00	 call	 ??E?$_Tree_unchecked_const_iterator@V?$_Tree_val@U?$_Tree_simple_types@U?$pair@QAVCResource@@K@std@@@std@@@std@@U_Iterator_base0@2@@std@@QAEAAV01@XZ ; std::_Tree_unchecked_const_iterator<std::_Tree_val<std::_Tree_simple_types<std::pair<CResource * const,unsigned long> > >,std::_Iterator_base0>::operator++

; 39   :     _Tree_unchecked_const_iterator(_Nodeptr _Pnode, const _Mytree* _Plist) noexcept : _Ptr(_Pnode) {

  00037	8b 33		 mov	 esi, DWORD PTR [ebx]

; 236  :         return this->_Ptr == _Right._Ptr;

  00039	8b 45 fc	 mov	 eax, DWORD PTR _i$1[ebp]
  0003c	3b c6		 cmp	 eax, esi
; File C:\Users\murat\Desktop\Siveps2-1-99-Project\source\client\Client\EterLib\ResourceManager.cpp

; 145  : 	for (TResourceDeletingMap::iterator i = m_ResourceDeletingMap.begin(); i != m_ResourceDeletingMap.end(); ++i)

  0003e	75 e7		 jne	 SHORT $LL17@DestroyDel
$LN3@DestroyDel:
; File C:\Program Files (x86)\Microsoft Visual Studio\2019\Professional\VC\Tools\MSVC\14.29.30133\include\xtree

; 1351 :         _Scary->_Erase_tree(_Getal(), _Head->_Parent);

  00040	8b 7e 04	 mov	 edi, DWORD PTR [esi+4]

; 749  :         while (!_Rootnode->_Isnil) { // free subtrees, then node

  00043	80 7f 0d 00	 cmp	 BYTE PTR [edi+13], 0
  00047	75 27		 jne	 SHORT $LN40@DestroyDel
  00049	0f 1f 80 00 00
	00 00		 npad	 7
$LL39@DestroyDel:

; 750  :             _Erase_tree(_Al, _Rootnode->_Right);

  00050	ff 77 08	 push	 DWORD PTR [edi+8]
  00053	8b cb		 mov	 ecx, ebx
  00055	53		 push	 ebx
  00056	e8 00 00 00 00	 call	 ??$_Erase_tree@V?$allocator@U?$_Tree_node@U?$pair@QAVCResource@@K@std@@PAX@std@@@std@@@?$_Tree_val@U?$_Tree_simple_types@U?$pair@QAVCResource@@K@std@@@std@@@std@@QAEXAAV?$allocator@U?$_Tree_node@U?$pair@QAVCResource@@K@std@@PAX@std@@@1@PAU?$_Tree_node@U?$pair@QAVCResource@@K@std@@PAX@1@@Z ; std::_Tree_val<std::_Tree_simple_types<std::pair<CResource * const,unsigned long> > >::_Erase_tree<std::allocator<std::_Tree_node<std::pair<CResource * const,unsigned long>,void *> > >
; File C:\Program Files (x86)\Microsoft Visual Studio\2019\Professional\VC\Tools\MSVC\14.29.30133\include\utility

; 616  :     _Ty _Old_val = static_cast<_Ty&&>(_Val);

  0005b	8b c7		 mov	 eax, edi

; 617  :     _Val         = static_cast<_Other&&>(_New_val);

  0005d	8b 3f		 mov	 edi, DWORD PTR [edi]
; File C:\Program Files (x86)\Microsoft Visual Studio\2019\Professional\VC\Tools\MSVC\14.29.30133\include\xmemory

; 264  :         ::operator delete(_Ptr, _Bytes);

  0005f	6a 18		 push	 24			; 00000018H
  00061	50		 push	 eax
  00062	e8 00 00 00 00	 call	 ??3@YAXPAXI@Z		; operator delete
  00067	83 c4 08	 add	 esp, 8
; File C:\Program Files (x86)\Microsoft Visual Studio\2019\Professional\VC\Tools\MSVC\14.29.30133\include\xtree

; 749  :         while (!_Rootnode->_Isnil) { // free subtrees, then node

  0006a	80 7f 0d 00	 cmp	 BYTE PTR [edi+13], 0
  0006e	74 e0		 je	 SHORT $LL39@DestroyDel
$LN40@DestroyDel:

; 1355 :         _Scary->_Mysize = 0;

  00070	5f		 pop	 edi
  00071	89 76 04	 mov	 DWORD PTR [esi+4], esi
  00074	89 36		 mov	 DWORD PTR [esi], esi
  00076	89 76 08	 mov	 DWORD PTR [esi+8], esi
  00079	5e		 pop	 esi
  0007a	c7 43 04 00 00
	00 00		 mov	 DWORD PTR [ebx+4], 0
  00081	5b		 pop	 ebx
; File C:\Users\murat\Desktop\Siveps2-1-99-Project\source\client\Client\EterLib\ResourceManager.cpp

; 149  : }

  00082	8b e5		 mov	 esp, ebp
  00084	5d		 pop	 ebp
  00085	c3		 ret	 0
?__DestroyDeletingResourceMap@CResourceManager@@IAEXXZ ENDP ; CResourceManager::__DestroyDeletingResourceMap
_TEXT	ENDS
; Function compile flags: /Ogtp
; File C:\Users\murat\Desktop\Siveps2-1-99-Project\source\client\Client\EterLib\ResourceManager.cpp
; File C:\Program Files (x86)\Microsoft Visual Studio\2019\Professional\VC\Tools\MSVC\14.29.30133\include\xtree
; File C:\Users\murat\Desktop\Siveps2-1-99-Project\source\client\Client\EterLib\ResourceManager.cpp
; File C:\Program Files (x86)\Microsoft Visual Studio\2019\Professional\VC\Tools\MSVC\14.29.30133\include\xstring
; File C:\Program Files (x86)\Microsoft Visual Studio\2019\Professional\VC\Tools\MSVC\14.29.30133\include\xtree
; File C:\Program Files (x86)\Microsoft Visual Studio\2019\Professional\VC\Tools\MSVC\14.29.30133\include\xstring
; File C:\Users\murat\Desktop\Siveps2-1-99-Project\source\client\Client\EterLib\ResourceManager.cpp
; File C:\Program Files (x86)\Microsoft Visual Studio\2019\Professional\VC\Tools\MSVC\14.29.30133\include\xtree
; File C:\Users\murat\Desktop\Siveps2-1-99-Project\source\client\Client\EterLib\ResourceManager.cpp
; File C:\Program Files (x86)\Microsoft Visual Studio\2019\Professional\VC\Tools\MSVC\14.29.30133\include\xstring
; File C:\Program Files (x86)\Microsoft Visual Studio\2019\Professional\VC\Tools\MSVC\14.29.30133\include\utility
; File C:\Program Files (x86)\Microsoft Visual Studio\2019\Professional\VC\Tools\MSVC\14.29.30133\include\xstring
; File C:\Program Files (x86)\Microsoft Visual Studio\2019\Professional\VC\Tools\MSVC\14.29.30133\include\utility
; File C:\Program Files (x86)\Microsoft Visual Studio\2019\Professional\VC\Tools\MSVC\14.29.30133\include\xstring
; File C:\Users\murat\Desktop\Siveps2-1-99-Project\source\client\Client\EterLib\ResourceManager.cpp
; File C:\Program Files (x86)\Microsoft Visual Studio\2019\Professional\VC\Tools\MSVC\14.29.30133\include\xtree
; File C:\Users\murat\Desktop\Siveps2-1-99-Project\source\client\Client\EterLib\ResourceManager.cpp
; File C:\Program Files (x86)\Microsoft Visual Studio\2019\Professional\VC\Tools\MSVC\14.29.30133\include\xtree
; File C:\Program Files (x86)\Microsoft Visual Studio\2019\Professional\VC\Tools\MSVC\14.29.30133\include\xstddef
; File C:\Program Files (x86)\Microsoft Visual Studio\2019\Professional\VC\Tools\MSVC\14.29.30133\include\xtree
; File C:\Program Files (x86)\Microsoft Visual Studio\2019\Professional\VC\Tools\MSVC\14.29.30133\include\xmemory
; File C:\Program Files (x86)\Microsoft Visual Studio\2019\Professional\VC\Tools\MSVC\14.29.30133\include\xtree
; File C:\Program Files (x86)\Microsoft Visual Studio\2019\Professional\VC\Tools\MSVC\14.29.30133\include\xmemory
; File C:\Program Files (x86)\Microsoft Visual Studio\2019\Professional\VC\Tools\MSVC\14.29.30133\include\xtree
; File C:\Program Files (x86)\Microsoft Visual Studio\2019\Professional\VC\Tools\MSVC\14.29.30133\include\xmemory
; File C:\Program Files (x86)\Microsoft Visual Studio\2019\Professional\VC\Tools\MSVC\14.29.30133\include\xstring
; File C:\Program Files (x86)\Microsoft Visual Studio\2019\Professional\VC\Tools\MSVC\14.29.30133\include\utility
; File C:\Program Files (x86)\Microsoft Visual Studio\2019\Professional\VC\Tools\MSVC\14.29.30133\include\xmemory
; File C:\Program Files (x86)\Microsoft Visual Studio\2019\Professional\VC\Tools\MSVC\14.29.30133\include\xstring
; File C:\Program Files (x86)\Microsoft Visual Studio\2019\Professional\VC\Tools\MSVC\14.29.30133\include\utility
; File C:\Program Files (x86)\Microsoft Visual Studio\2019\Professional\VC\Tools\MSVC\14.29.30133\include\xtree
; File C:\Program Files (x86)\Microsoft Visual Studio\2019\Professional\VC\Tools\MSVC\14.29.30133\include\xstring
; File C:\Program Files (x86)\Microsoft Visual Studio\2019\Professional\VC\Tools\MSVC\14.29.30133\include\xtree
; File C:\Program Files (x86)\Microsoft Visual Studio\2019\Professional\VC\Tools\MSVC\14.29.30133\include\utility
; File C:\Program Files (x86)\Microsoft Visual Studio\2019\Professional\VC\Tools\MSVC\14.29.30133\include\xstring
; File C:\Program Files (x86)\Microsoft Visual Studio\2019\Professional\VC\Tools\MSVC\14.29.30133\include\xtree
; File C:\Program Files (x86)\Microsoft Visual Studio\2019\Professional\VC\Tools\MSVC\14.29.30133\include\xstring
; File C:\Program Files (x86)\Microsoft Visual Studio\2019\Professional\VC\Tools\MSVC\14.29.30133\include\xtree
; File C:\Users\murat\Desktop\Siveps2-1-99-Project\source\client\Client\EterLib\ResourceManager.cpp
; File C:\Program Files (x86)\Microsoft Visual Studio\2019\Professional\VC\Tools\MSVC\14.29.30133\include\xstring
; File C:\Program Files (x86)\Microsoft Visual Studio\2019\Professional\VC\Tools\MSVC\14.29.30133\include\xmemory
; File C:\Program Files (x86)\Microsoft Visual Studio\2019\Professional\VC\Tools\MSVC\14.29.30133\include\xstring
; File C:\Program Files (x86)\Microsoft Visual Studio\2019\Professional\VC\Tools\MSVC\14.29.30133\include\xmemory
; File C:\Program Files (x86)\Microsoft Visual Studio\2019\Professional\VC\Tools\MSVC\14.29.30133\include\xtree
; File C:\Users\murat\Desktop\Siveps2-1-99-Project\source\client\Client\EterLib\ResourceManager.cpp
; File C:\Program Files (x86)\Microsoft Visual Studio\2019\Professional\VC\Tools\MSVC\14.29.30133\include\xmemory
; File C:\Program Files (x86)\Microsoft Visual Studio\2019\Professional\VC\Tools\MSVC\14.29.30133\include\xtree
; File C:\Users\murat\Desktop\Siveps2-1-99-Project\source\client\Client\EterLib\ResourceManager.cpp
;	COMDAT ?PushBackgroundLoadingSet@CResourceManager@@QAEXAAV?$set@V?$basic_string@DU?$char_traits@D@std@@V?$allocator@D@2@@std@@U?$less@V?$basic_string@DU?$char_traits@D@std@@V?$allocator@D@2@@std@@@2@V?$allocator@V?$basic_string@DU?$char_traits@D@std@@V?$allocator@D@2@@std@@@2@@std@@@Z
_TEXT	SEGMENT
$T2 = -84						; size = 12
__Loc$3 = -72						; size = 12
$T4 = -60						; size = 8
_dwFileCRC$1$ = -52					; size = 4
_this$GSCopy$1$ = -48					; size = 4
$T5 = -44						; size = 28
__$ArrayPad$ = -16					; size = 4
__$EHRec$ = -12						; size = 12
_LoadingSet$ = 8					; size = 4
?PushBackgroundLoadingSet@CResourceManager@@QAEXAAV?$set@V?$basic_string@DU?$char_traits@D@std@@V?$allocator@D@2@@std@@U?$less@V?$basic_string@DU?$char_traits@D@std@@V?$allocator@D@2@@std@@@2@V?$allocator@V?$basic_string@DU?$char_traits@D@std@@V?$allocator@D@2@@std@@@2@@std@@@Z PROC ; CResourceManager::PushBackgroundLoadingSet, COMDAT
; _this$ = ecx

; 112  : {

  00000	55		 push	 ebp
  00001	8b ec		 mov	 ebp, esp
  00003	6a ff		 push	 -1
  00005	68 00 00 00 00	 push	 __ehhandler$?PushBackgroundLoadingSet@CResourceManager@@QAEXAAV?$set@V?$basic_string@DU?$char_traits@D@std@@V?$allocator@D@2@@std@@U?$less@V?$basic_string@DU?$char_traits@D@std@@V?$allocator@D@2@@std@@@2@V?$allocator@V?$basic_string@DU?$char_traits@D@std@@V?$allocator@D@2@@std@@@2@@std@@@Z
  0000a	64 a1 00 00 00
	00		 mov	 eax, DWORD PTR fs:0
  00010	50		 push	 eax
  00011	83 ec 48	 sub	 esp, 72			; 00000048H
  00014	a1 00 00 00 00	 mov	 eax, DWORD PTR ___security_cookie
  00019	33 c5		 xor	 eax, ebp
  0001b	89 45 f0	 mov	 DWORD PTR __$ArrayPad$[ebp], eax
  0001e	56		 push	 esi
  0001f	57		 push	 edi
  00020	50		 push	 eax
  00021	8d 45 f4	 lea	 eax, DWORD PTR __$EHRec$[ebp]
  00024	64 a3 00 00 00
	00		 mov	 DWORD PTR fs:0, eax
  0002a	89 4d d0	 mov	 DWORD PTR _this$GSCopy$1$[ebp], ecx
; File C:\Program Files (x86)\Microsoft Visual Studio\2019\Professional\VC\Tools\MSVC\14.29.30133\include\xtree

; 1143 :         return iterator(_Scary->_Myhead->_Left, _Scary);

  0002d	8b 45 08	 mov	 eax, DWORD PTR _LoadingSet$[ebp]
  00030	8b 00		 mov	 eax, DWORD PTR [eax]

; 39   :     _Tree_unchecked_const_iterator(_Nodeptr _Pnode, const _Mytree* _Plist) noexcept : _Ptr(_Pnode) {

  00032	8b 30		 mov	 esi, DWORD PTR [eax]
; File C:\Users\murat\Desktop\Siveps2-1-99-Project\source\client\Client\EterLib\ResourceManager.cpp

; 115  : 	while (itor != LoadingSet.end())

  00034	3b f0		 cmp	 esi, eax
  00036	0f 84 0f 02 00
	00		 je	 $LN3@PushBackgr
  0003c	0f 1f 40 00	 npad	 4
$LL2@PushBackgr:
; File C:\Program Files (x86)\Microsoft Visual Studio\2019\Professional\VC\Tools\MSVC\14.29.30133\include\xstring

; 2306 :         if (_Large_string_engaged()) {

  00040	83 7e 24 10	 cmp	 DWORD PTR [esi+36], 16	; 00000010H
; File C:\Program Files (x86)\Microsoft Visual Studio\2019\Professional\VC\Tools\MSVC\14.29.30133\include\xtree

; 189  :         return this->_Ptr->_Myval;

  00044	8d 7e 10	 lea	 edi, DWORD PTR [esi+16]
; File C:\Program Files (x86)\Microsoft Visual Studio\2019\Professional\VC\Tools\MSVC\14.29.30133\include\xstring

; 2305 :         const value_type* _Result = _Bx._Buf;

  00047	8b c7		 mov	 eax, edi

; 2306 :         if (_Large_string_engaged()) {

  00049	72 02		 jb	 SHORT $LN300@PushBackgr

; 2307 :             _Result = _Unfancy(_Bx._Ptr);

  0004b	8b 07		 mov	 eax, DWORD PTR [edi]
$LN300@PushBackgr:
; File C:\Users\murat\Desktop\Siveps2-1-99-Project\source\client\Client\EterLib\ResourceManager.cpp

; 117  : 		DWORD dwFileCRC = __GetFileCRC(itor->c_str());

  0004d	6a 00		 push	 0
  0004f	50		 push	 eax
  00050	e8 00 00 00 00	 call	 ?__GetFileCRC@CResourceManager@@IAEKPBDPAPBD@Z ; CResourceManager::__GetFileCRC

; 118  : 
; 119  : 		if (NULL != isResourcePointerData(dwFileCRC))

  00055	8b 4d d0	 mov	 ecx, DWORD PTR _this$GSCopy$1$[ebp]
  00058	50		 push	 eax
  00059	89 45 cc	 mov	 DWORD PTR _dwFileCRC$1$[ebp], eax
  0005c	e8 00 00 00 00	 call	 ?isResourcePointerData@CResourceManager@@QAE_NK@Z ; CResourceManager::isResourcePointerData
  00061	84 c0		 test	 al, al
  00063	74 5c		 je	 SHORT $LN4@PushBackgr
; File C:\Program Files (x86)\Microsoft Visual Studio\2019\Professional\VC\Tools\MSVC\14.29.30133\include\xtree

; 52   :         if (_Ptr->_Right->_Isnil) { // climb looking for right subtree

  00065	8b 46 08	 mov	 eax, DWORD PTR [esi+8]
  00068	80 78 0d 00	 cmp	 BYTE PTR [eax+13], 0
  0006c	74 2d		 je	 SHORT $LN39@PushBackgr

; 53   :             _Nodeptr _Pnode;
; 54   :             while (!(_Pnode = _Ptr->_Parent)->_Isnil && _Ptr == _Pnode->_Right) {

  0006e	8b 46 04	 mov	 eax, DWORD PTR [esi+4]
  00071	80 78 0d 00	 cmp	 BYTE PTR [eax+13], 0
  00075	0f 85 a5 01 00
	00		 jne	 $LN268@PushBackgr
  0007b	0f 1f 44 00 00	 npad	 5
$LL37@PushBackgr:
  00080	3b 70 08	 cmp	 esi, DWORD PTR [eax+8]
  00083	0f 85 97 01 00
	00		 jne	 $LN268@PushBackgr

; 55   :                 _Ptr = _Pnode; // ==> parent while right subtree

  00089	8b f0		 mov	 esi, eax
  0008b	8b 40 04	 mov	 eax, DWORD PTR [eax+4]
  0008e	80 78 0d 00	 cmp	 BYTE PTR [eax+13], 0
  00092	74 ec		 je	 SHORT $LL37@PushBackgr

; 56   :             }
; 57   : 
; 58   :             _Ptr = _Pnode; // ==> parent (head if end())

  00094	8b f0		 mov	 esi, eax

; 59   :         } else {

  00096	e9 a1 01 00 00	 jmp	 $LN270@PushBackgr
$LN39@PushBackgr:

; 60   :             _Ptr = _Mytree::_Min(_Ptr->_Right); // ==> smallest of right subtree

  0009b	8b f0		 mov	 esi, eax

; 457  :         while (!_Pnode->_Left->_Isnil) {

  0009d	8b 0e		 mov	 ecx, DWORD PTR [esi]
  0009f	80 79 0d 00	 cmp	 BYTE PTR [ecx+13], 0
  000a3	0f 85 93 01 00
	00		 jne	 $LN270@PushBackgr
  000a9	0f 1f 80 00 00
	00 00		 npad	 7
$LL43@PushBackgr:
  000b0	8b 01		 mov	 eax, DWORD PTR [ecx]

; 458  :             _Pnode = _Pnode->_Left;

  000b2	8b f1		 mov	 esi, ecx
  000b4	8b c8		 mov	 ecx, eax
  000b6	80 78 0d 00	 cmp	 BYTE PTR [eax+13], 0
  000ba	74 f4		 je	 SHORT $LL43@PushBackgr
; File C:\Users\murat\Desktop\Siveps2-1-99-Project\source\client\Client\EterLib\ResourceManager.cpp

; 122  : 			continue;

  000bc	e9 7b 01 00 00	 jmp	 $LN270@PushBackgr
$LN4@PushBackgr:
; File C:\Program Files (x86)\Microsoft Visual Studio\2019\Professional\VC\Tools\MSVC\14.29.30133\include\xstring

; 2306 :         if (_Large_string_engaged()) {

  000c1	83 7f 14 10	 cmp	 DWORD PTR [edi+20], 16	; 00000010H
  000c5	72 02		 jb	 SHORT $LN53@PushBackgr

; 2307 :             _Result = _Unfancy(_Bx._Ptr);

  000c7	8b 3f		 mov	 edi, DWORD PTR [edi]
$LN53@PushBackgr:
; File C:\Program Files (x86)\Microsoft Visual Studio\2019\Professional\VC\Tools\MSVC\14.29.30133\include\utility

; 193  :         : first(_STD forward<_Other1>(_Val1)), second(_STD forward<_Other2>(_Val2)) {}

  000c9	8b 45 cc	 mov	 eax, DWORD PTR _dwFileCRC$1$[ebp]
; File C:\Program Files (x86)\Microsoft Visual Studio\2019\Professional\VC\Tools\MSVC\14.29.30133\include\xstring

; 412  :         return _CSTD strlen(reinterpret_cast<const char*>(_First));

  000cc	8b cf		 mov	 ecx, edi

; 2346 :         _CONSTEXPR20_CONTAINER _Bxty() noexcept : _Ptr() {} // user-provided, for fancy pointers

  000ce	c7 45 d8 00 00
	00 00		 mov	 DWORD PTR $T5[ebp+4], 0
; File C:\Program Files (x86)\Microsoft Visual Studio\2019\Professional\VC\Tools\MSVC\14.29.30133\include\utility

; 193  :         : first(_STD forward<_Other1>(_Val1)), second(_STD forward<_Other2>(_Val2)) {}

  000d5	89 45 d4	 mov	 DWORD PTR $T5[ebp], eax
; File C:\Program Files (x86)\Microsoft Visual Studio\2019\Professional\VC\Tools\MSVC\14.29.30133\include\xstring

; 4596 :         _My_data._Mysize = 0;

  000d8	c7 45 e8 00 00
	00 00		 mov	 DWORD PTR $T5[ebp+20], 0

; 4597 : 
; 4598 : #ifdef __cpp_lib_constexpr_string
; 4599 :         if (_STD is_constant_evaluated()) {
; 4600 :             _My_data._Myres        = _BUF_SIZE; // SSO disabled in constexpr context
; 4601 :             auto& _Al              = _Getal();
; 4602 :             const pointer _New_ptr = _Al.allocate(_BUF_SIZE + 1); // throws
; 4603 :             _My_data._Bx._Ptr      = _New_ptr;
; 4604 : 
; 4605 :             _Elem* const _Raw_new = _Unfancy(_New_ptr);
; 4606 :             _Traits::assign(_Raw_new, _BUF_SIZE + 1, _Elem());
; 4607 :         } else
; 4608 : #endif // __cpp_lib_constexpr_string
; 4609 :         {
; 4610 :             _My_data._Myres = _BUF_SIZE - 1;

  000df	c7 45 ec 0f 00
	00 00		 mov	 DWORD PTR $T5[ebp+24], 15 ; 0000000fH

; 412  :         return _CSTD strlen(reinterpret_cast<const char*>(_First));

  000e6	8d 51 01	 lea	 edx, DWORD PTR [ecx+1]

; 4612 :             _Traits::assign(_My_data._Bx._Buf[0], _Elem());

  000e9	c6 45 d8 00	 mov	 BYTE PTR $T5[ebp+4], 0
  000ed	0f 1f 00	 npad	 3
$LL302@PushBackgr:

; 412  :         return _CSTD strlen(reinterpret_cast<const char*>(_First));

  000f0	8a 01		 mov	 al, BYTE PTR [ecx]
  000f2	41		 inc	 ecx
  000f3	84 c0		 test	 al, al
  000f5	75 f9		 jne	 SHORT $LL302@PushBackgr
  000f7	2b ca		 sub	 ecx, edx

; 3264 :         return assign(_Ptr, _Convert_size<size_type>(_Traits::length(_Ptr)));

  000f9	51		 push	 ecx
  000fa	57		 push	 edi
  000fb	8d 4d d8	 lea	 ecx, DWORD PTR $T5[ebp+4]
  000fe	e8 00 00 00 00	 call	 ?assign@?$basic_string@DU?$char_traits@D@std@@V?$allocator@D@2@@std@@QAEAAV12@QBDI@Z ; std::basic_string<char,std::char_traits<char>,std::allocator<char> >::assign
; File C:\Users\murat\Desktop\Siveps2-1-99-Project\source\client\Client\EterLib\ResourceManager.cpp

; 125  : 		m_RequestMap.insert(TResourceRequestMap::value_type(dwFileCRC, itor->c_str()));

  00103	8b 7d d0	 mov	 edi, DWORD PTR _this$GSCopy$1$[ebp]
; File C:\Program Files (x86)\Microsoft Visual Studio\2019\Professional\VC\Tools\MSVC\14.29.30133\include\xtree

; 1014 :             _Loc                = _Find_lower_bound(_Keyval);

  00106	8d 45 d4	 lea	 eax, DWORD PTR $T5[ebp]
  00109	50		 push	 eax
  0010a	8d 45 ac	 lea	 eax, DWORD PTR $T2[ebp]
; File C:\Users\murat\Desktop\Siveps2-1-99-Project\source\client\Client\EterLib\ResourceManager.cpp

; 125  : 		m_RequestMap.insert(TResourceRequestMap::value_type(dwFileCRC, itor->c_str()));

  0010d	c7 45 fc 00 00
	00 00		 mov	 DWORD PTR __$EHRec$[ebp+8], 0
; File C:\Program Files (x86)\Microsoft Visual Studio\2019\Professional\VC\Tools\MSVC\14.29.30133\include\xtree

; 1014 :             _Loc                = _Find_lower_bound(_Keyval);

  00114	50		 push	 eax
  00115	8d 4f 2c	 lea	 ecx, DWORD PTR [edi+44]
  00118	e8 00 00 00 00	 call	 ??$_Find_lower_bound@K@?$_Tree@V?$_Tmap_traits@KV?$basic_string@DU?$char_traits@D@std@@V?$allocator@D@2@@std@@U?$less@K@2@V?$allocator@U?$pair@$$CBKV?$basic_string@DU?$char_traits@D@std@@V?$allocator@D@2@@std@@@std@@@2@$0A@@std@@@std@@IBE?AU?$_Tree_find_result@PAU?$_Tree_node@U?$pair@$$CBKV?$basic_string@DU?$char_traits@D@std@@V?$allocator@D@2@@std@@@std@@PAX@std@@@1@ABK@Z ; std::_Tree<std::_Tmap_traits<unsigned long,std::basic_string<char,std::char_traits<char>,std::allocator<char> >,std::less<unsigned long>,std::allocator<std::pair<unsigned long const ,std::basic_string<char,std::char_traits<char>,std::allocator<char> > > >,0> >::_Find_lower_bound<unsigned long>
  0011d	8b 48 08	 mov	 ecx, DWORD PTR [eax+8]
  00120	f3 0f 7e 00	 movq	 xmm0, QWORD PTR [eax]
  00124	66 0f d6 45 b8	 movq	 QWORD PTR __Loc$3[ebp], xmm0

; 1599 :         return !_Bound->_Isnil && !_DEBUG_LT_PRED(_Getcomp(), _Keyval, _Traits::_Kfn(_Bound->_Myval));

  00129	80 79 0d 00	 cmp	 BYTE PTR [ecx+13], 0
  0012d	75 10		 jne	 SHORT $LN84@PushBackgr
; File C:\Program Files (x86)\Microsoft Visual Studio\2019\Professional\VC\Tools\MSVC\14.29.30133\include\xstddef

; 127  :         return _Left < _Right;

  0012f	8b 45 d4	 mov	 eax, DWORD PTR $T5[ebp]
  00132	3b 41 10	 cmp	 eax, DWORD PTR [ecx+16]
; File C:\Program Files (x86)\Microsoft Visual Studio\2019\Professional\VC\Tools\MSVC\14.29.30133\include\xtree

; 1599 :         return !_Bound->_Isnil && !_DEBUG_LT_PRED(_Getcomp(), _Keyval, _Traits::_Kfn(_Bound->_Myval));

  00135	72 08		 jb	 SHORT $LN84@PushBackgr
  00137	8b 45 ec	 mov	 eax, DWORD PTR $T5[ebp+24]
  0013a	e9 84 00 00 00	 jmp	 $LN222@PushBackgr
$LN84@PushBackgr:

; 1623 :         if (max_size() == _Get_scary()->_Mysize) {

  0013f	81 7f 30 5d 74
	d1 05		 cmp	 DWORD PTR [edi+48], 97612893 ; 05d1745dH
  00146	0f 84 21 01 00
	00		 je	 $LN282@PushBackgr
; File C:\Program Files (x86)\Microsoft Visual Studio\2019\Professional\VC\Tools\MSVC\14.29.30133\include\xmemory

; 1012 :     _CONSTEXPR20_DYNALLOC explicit _Alloc_construct_ptr(_Alloc& _Al_) : _Al(_Al_), _Ptr(nullptr) {}

  0014c	8b 45 d0	 mov	 eax, DWORD PTR _this$GSCopy$1$[ebp]
; File C:\Program Files (x86)\Microsoft Visual Studio\2019\Professional\VC\Tools\MSVC\14.29.30133\include\xtree

; 1020 :             _Inserted = _Tree_temp_node<_Alnode>(_Getal(), _Scary->_Myhead, _STD forward<_Valtys>(_Vals)...)._Release();

  0014f	8b 7f 2c	 mov	 edi, DWORD PTR [edi+44]
; File C:\Program Files (x86)\Microsoft Visual Studio\2019\Professional\VC\Tools\MSVC\14.29.30133\include\xmemory

; 1012 :     _CONSTEXPR20_DYNALLOC explicit _Alloc_construct_ptr(_Alloc& _Al_) : _Al(_Al_), _Ptr(nullptr) {}

  00152	83 c0 2c	 add	 eax, 44			; 0000002cH
  00155	89 45 c4	 mov	 DWORD PTR $T4[ebp], eax

; 85   :         return ::operator new(_Bytes);

  00158	6a 2c		 push	 44			; 0000002cH
; File C:\Program Files (x86)\Microsoft Visual Studio\2019\Professional\VC\Tools\MSVC\14.29.30133\include\xtree

; 790  :     explicit _Tree_temp_node_alloc(_Alnode& _Al_) : _Alloc_construct_ptr<_Alnode>(_Al_) {

  0015a	c6 45 fc 01	 mov	 BYTE PTR __$EHRec$[ebp+8], 1
; File C:\Program Files (x86)\Microsoft Visual Studio\2019\Professional\VC\Tools\MSVC\14.29.30133\include\xmemory

; 1019 :         _Ptr = nullptr; // if allocate throws, prevents double-free

  0015e	c7 45 c8 00 00
	00 00		 mov	 DWORD PTR $T4[ebp+4], 0

; 85   :         return ::operator new(_Bytes);

  00165	e8 00 00 00 00	 call	 ??2@YAPAXI@Z		; operator new
; File C:\Program Files (x86)\Microsoft Visual Studio\2019\Professional\VC\Tools\MSVC\14.29.30133\include\xstring

; 2869 :         _CSTD memcpy(_My_data_mem, _Right_data_mem, _Memcpy_val_size);

  0016a	0f 10 45 d8	 movups	 xmm0, XMMWORD PTR $T5[ebp+4]
; File C:\Program Files (x86)\Microsoft Visual Studio\2019\Professional\VC\Tools\MSVC\14.29.30133\include\utility

; 213  :     pair(pair&&)      = default;

  0016e	8b 4d d4	 mov	 ecx, DWORD PTR $T5[ebp]
; File C:\Program Files (x86)\Microsoft Visual Studio\2019\Professional\VC\Tools\MSVC\14.29.30133\include\xmemory

; 85   :         return ::operator new(_Bytes);

  00171	83 c4 04	 add	 esp, 4
; File C:\Program Files (x86)\Microsoft Visual Studio\2019\Professional\VC\Tools\MSVC\14.29.30133\include\xstring

; 4612 :             _Traits::assign(_My_data._Bx._Buf[0], _Elem());

  00174	c6 45 d8 00	 mov	 BYTE PTR $T5[ebp+4], 0
; File C:\Program Files (x86)\Microsoft Visual Studio\2019\Professional\VC\Tools\MSVC\14.29.30133\include\utility

; 213  :     pair(pair&&)      = default;

  00178	89 48 10	 mov	 DWORD PTR [eax+16], ecx
; File C:\Program Files (x86)\Microsoft Visual Studio\2019\Professional\VC\Tools\MSVC\14.29.30133\include\xtree

; 1039 :         return {_Scary->_Insert_node(_Loc._Location, _Inserted), true};

  0017b	8b 4d d0	 mov	 ecx, DWORD PTR _this$GSCopy$1$[ebp]
; File C:\Program Files (x86)\Microsoft Visual Studio\2019\Professional\VC\Tools\MSVC\14.29.30133\include\xstring

; 2355 :     size_type _Mysize = 0; // current length of string

  0017e	c7 40 24 00 00
	00 00		 mov	 DWORD PTR [eax+36], 0

; 2356 :     size_type _Myres  = 0; // current storage reserved for string

  00185	c7 40 28 00 00
	00 00		 mov	 DWORD PTR [eax+40], 0

; 2869 :         _CSTD memcpy(_My_data_mem, _Right_data_mem, _Memcpy_val_size);

  0018c	0f 11 40 14	 movups	 XMMWORD PTR [eax+20], xmm0
; File C:\Program Files (x86)\Microsoft Visual Studio\2019\Professional\VC\Tools\MSVC\14.29.30133\include\xtree

; 1039 :         return {_Scary->_Insert_node(_Loc._Location, _Inserted), true};

  00190	8d 49 2c	 lea	 ecx, DWORD PTR [ecx+44]
; File C:\Program Files (x86)\Microsoft Visual Studio\2019\Professional\VC\Tools\MSVC\14.29.30133\include\utility

; 617  :     _Val         = static_cast<_Other&&>(_New_val);

  00193	c7 45 c8 00 00
	00 00		 mov	 DWORD PTR $T4[ebp+4], 0
; File C:\Program Files (x86)\Microsoft Visual Studio\2019\Professional\VC\Tools\MSVC\14.29.30133\include\xstring

; 2869 :         _CSTD memcpy(_My_data_mem, _Right_data_mem, _Memcpy_val_size);

  0019a	f3 0f 7e 45 e8	 movq	 xmm0, QWORD PTR $T5[ebp+20]
; File C:\Program Files (x86)\Microsoft Visual Studio\2019\Professional\VC\Tools\MSVC\14.29.30133\include\xtree

; 1039 :         return {_Scary->_Insert_node(_Loc._Location, _Inserted), true};

  0019f	50		 push	 eax
  001a0	ff 75 bc	 push	 DWORD PTR __Loc$3[ebp+4]
; File C:\Program Files (x86)\Microsoft Visual Studio\2019\Professional\VC\Tools\MSVC\14.29.30133\include\xstring

; 2869 :         _CSTD memcpy(_My_data_mem, _Right_data_mem, _Memcpy_val_size);

  001a3	66 0f d6 40 24	 movq	 QWORD PTR [eax+36], xmm0
; File C:\Program Files (x86)\Microsoft Visual Studio\2019\Professional\VC\Tools\MSVC\14.29.30133\include\xtree

; 1039 :         return {_Scary->_Insert_node(_Loc._Location, _Inserted), true};

  001a8	ff 75 b8	 push	 DWORD PTR __Loc$3[ebp]

; 813  :         _Construct_in_place(this->_Ptr->_Left, _Myhead);

  001ab	89 38		 mov	 DWORD PTR [eax], edi

; 814  :         _Construct_in_place(this->_Ptr->_Parent, _Myhead);

  001ad	89 78 04	 mov	 DWORD PTR [eax+4], edi

; 815  :         _Construct_in_place(this->_Ptr->_Right, _Myhead);

  001b0	89 78 08	 mov	 DWORD PTR [eax+8], edi

; 816  :         this->_Ptr->_Color = _Red;

  001b3	66 c7 40 0c 00
	00		 mov	 WORD PTR [eax+12], 0

; 1039 :         return {_Scary->_Insert_node(_Loc._Location, _Inserted), true};

  001b9	e8 00 00 00 00	 call	 ?_Insert_node@?$_Tree_val@U?$_Tree_simple_types@U?$pair@$$CBKV?$basic_string@DU?$char_traits@D@std@@V?$allocator@D@2@@std@@@std@@@std@@@std@@QAEPAU?$_Tree_node@U?$pair@$$CBKV?$basic_string@DU?$char_traits@D@std@@V?$allocator@D@2@@std@@@std@@PAX@2@U?$_Tree_id@PAU?$_Tree_node@U?$pair@$$CBKV?$basic_string@DU?$char_traits@D@std@@V?$allocator@D@2@@std@@@std@@PAX@std@@@2@QAU32@@Z ; std::_Tree_val<std::_Tree_simple_types<std::pair<unsigned long const ,std::basic_string<char,std::char_traits<char>,std::allocator<char> > > > >::_Insert_node
  001be	b8 0f 00 00 00	 mov	 eax, 15			; 0000000fH
$LN222@PushBackgr:
; File C:\Users\murat\Desktop\Siveps2-1-99-Project\source\client\Client\EterLib\ResourceManager.cpp

; 125  : 		m_RequestMap.insert(TResourceRequestMap::value_type(dwFileCRC, itor->c_str()));

  001c3	c7 45 fc ff ff
	ff ff		 mov	 DWORD PTR __$EHRec$[ebp+8], -1
; File C:\Program Files (x86)\Microsoft Visual Studio\2019\Professional\VC\Tools\MSVC\14.29.30133\include\xstring

; 2319 :         return _BUF_SIZE <= _Myres;

  001ca	83 f8 10	 cmp	 eax, 16			; 00000010H

; 4618 :         if (_Mypair._Myval2._Large_string_engaged()) {

  001cd	72 2a		 jb	 SHORT $LN248@PushBackgr
; File C:\Program Files (x86)\Microsoft Visual Studio\2019\Professional\VC\Tools\MSVC\14.29.30133\include\xmemory

; 835  :         _Deallocate<_New_alignof<_Ty>>(_Ptr, sizeof(_Ty) * _Count);

  001cf	8b 4d d8	 mov	 ecx, DWORD PTR $T5[ebp+4]
; File C:\Program Files (x86)\Microsoft Visual Studio\2019\Professional\VC\Tools\MSVC\14.29.30133\include\xstring

; 4622 :             _Al.deallocate(_Ptr, _Mypair._Myval2._Myres + 1);

  001d2	8d 50 01	 lea	 edx, DWORD PTR [eax+1]
; File C:\Program Files (x86)\Microsoft Visual Studio\2019\Professional\VC\Tools\MSVC\14.29.30133\include\xmemory

; 835  :         _Deallocate<_New_alignof<_Ty>>(_Ptr, sizeof(_Ty) * _Count);

  001d5	8b c1		 mov	 eax, ecx

; 260  :         if (_Bytes >= _Big_allocation_threshold) { // boost the alignment of big allocations to help autovectorization

  001d7	81 fa 00 10 00
	00		 cmp	 edx, 4096		; 00001000H
  001dd	72 10		 jb	 SHORT $LN258@PushBackgr

; 158  :     const uintptr_t _Ptr_container   = _Ptr_user[-1];

  001df	8b 49 fc	 mov	 ecx, DWORD PTR [ecx-4]
  001e2	83 c2 23	 add	 edx, 35			; 00000023H
  001e5	2b c1		 sub	 eax, ecx

; 172  :     _STL_VERIFY(_Back_shift >= _Min_back_shift && _Back_shift <= _Non_user_size, "invalid argument");

  001e7	83 c0 fc	 add	 eax, -4			; fffffffcH
  001ea	83 f8 1f	 cmp	 eax, 31			; 0000001fH
  001ed	77 79		 ja	 SHORT $LN255@PushBackgr
$LN258@PushBackgr:

; 264  :         ::operator delete(_Ptr, _Bytes);

  001ef	52		 push	 edx
  001f0	51		 push	 ecx
  001f1	e8 00 00 00 00	 call	 ??3@YAXPAXI@Z		; operator delete
  001f6	83 c4 08	 add	 esp, 8
$LN248@PushBackgr:
; File C:\Program Files (x86)\Microsoft Visual Studio\2019\Professional\VC\Tools\MSVC\14.29.30133\include\xtree

; 52   :         if (_Ptr->_Right->_Isnil) { // climb looking for right subtree

  001f9	8b 46 08	 mov	 eax, DWORD PTR [esi+8]
  001fc	80 78 0d 00	 cmp	 BYTE PTR [eax+13], 0
  00200	74 22		 je	 SHORT $LN269@PushBackgr

; 53   :             _Nodeptr _Pnode;
; 54   :             while (!(_Pnode = _Ptr->_Parent)->_Isnil && _Ptr == _Pnode->_Right) {

  00202	8b 46 04	 mov	 eax, DWORD PTR [esi+4]
  00205	80 78 0d 00	 cmp	 BYTE PTR [eax+13], 0
  00209	75 15		 jne	 SHORT $LN268@PushBackgr
  0020b	0f 1f 44 00 00	 npad	 5
$LL267@PushBackgr:
  00210	3b 70 08	 cmp	 esi, DWORD PTR [eax+8]
  00213	75 0b		 jne	 SHORT $LN268@PushBackgr

; 55   :                 _Ptr = _Pnode; // ==> parent while right subtree

  00215	8b f0		 mov	 esi, eax
  00217	8b 40 04	 mov	 eax, DWORD PTR [eax+4]
  0021a	80 78 0d 00	 cmp	 BYTE PTR [eax+13], 0
  0021e	74 f0		 je	 SHORT $LL267@PushBackgr
$LN268@PushBackgr:

; 56   :             }
; 57   : 
; 58   :             _Ptr = _Pnode; // ==> parent (head if end())

  00220	8b f0		 mov	 esi, eax

; 59   :         } else {

  00222	eb 18		 jmp	 SHORT $LN270@PushBackgr
$LN269@PushBackgr:

; 60   :             _Ptr = _Mytree::_Min(_Ptr->_Right); // ==> smallest of right subtree

  00224	8b f0		 mov	 esi, eax

; 457  :         while (!_Pnode->_Left->_Isnil) {

  00226	8b 0e		 mov	 ecx, DWORD PTR [esi]
  00228	80 79 0d 00	 cmp	 BYTE PTR [ecx+13], 0
  0022c	75 0e		 jne	 SHORT $LN270@PushBackgr
  0022e	66 90		 npad	 2
$LL273@PushBackgr:
  00230	8b 01		 mov	 eax, DWORD PTR [ecx]

; 458  :             _Pnode = _Pnode->_Left;

  00232	8b f1		 mov	 esi, ecx
  00234	8b c8		 mov	 ecx, eax
  00236	80 78 0d 00	 cmp	 BYTE PTR [eax+13], 0
  0023a	74 f4		 je	 SHORT $LL273@PushBackgr
$LN270@PushBackgr:

; 236  :         return this->_Ptr == _Right._Ptr;

  0023c	8b 45 08	 mov	 eax, DWORD PTR _LoadingSet$[ebp]
  0023f	3b 30		 cmp	 esi, DWORD PTR [eax]
; File C:\Users\murat\Desktop\Siveps2-1-99-Project\source\client\Client\EterLib\ResourceManager.cpp

; 115  : 	while (itor != LoadingSet.end())

  00241	74 08		 je	 SHORT $LN3@PushBackgr
  00243	8b 4d d0	 mov	 ecx, DWORD PTR _this$GSCopy$1$[ebp]
  00246	e9 f5 fd ff ff	 jmp	 $LL2@PushBackgr
$LN3@PushBackgr:

; 128  : }

  0024b	8b 4d f4	 mov	 ecx, DWORD PTR __$EHRec$[ebp]
  0024e	64 89 0d 00 00
	00 00		 mov	 DWORD PTR fs:0, ecx
  00255	59		 pop	 ecx
  00256	5f		 pop	 edi
  00257	5e		 pop	 esi
  00258	8b 4d f0	 mov	 ecx, DWORD PTR __$ArrayPad$[ebp]
  0025b	33 cd		 xor	 ecx, ebp
  0025d	e8 00 00 00 00	 call	 @__security_check_cookie@4
  00262	8b e5		 mov	 esp, ebp
  00264	5d		 pop	 ebp
  00265	c2 04 00	 ret	 4
$LN255@PushBackgr:
; File C:\Program Files (x86)\Microsoft Visual Studio\2019\Professional\VC\Tools\MSVC\14.29.30133\include\xmemory

; 172  :     _STL_VERIFY(_Back_shift >= _Min_back_shift && _Back_shift <= _Non_user_size, "invalid argument");

  00268	e8 00 00 00 00	 call	 __invalid_parameter_noinfo_noreturn
$LN282@PushBackgr:
; File C:\Program Files (x86)\Microsoft Visual Studio\2019\Professional\VC\Tools\MSVC\14.29.30133\include\xtree

; 1624 :             _Throw_tree_length_error();

  0026d	e8 00 00 00 00	 call	 ?_Throw_tree_length_error@std@@YAXXZ ; std::_Throw_tree_length_error
$LN307@PushBackgr:
  00272	cc		 int	 3
_TEXT	ENDS
;	COMDAT text$x
text$x	SEGMENT
__unwindfunclet$?PushBackgroundLoadingSet@CResourceManager@@QAEXAAV?$set@V?$basic_string@DU?$char_traits@D@std@@V?$allocator@D@2@@std@@U?$less@V?$basic_string@DU?$char_traits@D@std@@V?$allocator@D@2@@std@@@2@V?$allocator@V?$basic_string@DU?$char_traits@D@std@@V?$allocator@D@2@@std@@@2@@std@@@Z$0:
  00000	8d 4d d4	 lea	 ecx, DWORD PTR $T5[ebp]
  00003	e9 00 00 00 00	 jmp	 ??1?$pair@$$CBKV?$basic_string@DU?$char_traits@D@std@@V?$allocator@D@2@@std@@@std@@QAE@XZ
__unwindfunclet$?PushBackgroundLoadingSet@CResourceManager@@QAEXAAV?$set@V?$basic_string@DU?$char_traits@D@std@@V?$allocator@D@2@@std@@U?$less@V?$basic_string@DU?$char_traits@D@std@@V?$allocator@D@2@@std@@@2@V?$allocator@V?$basic_string@DU?$char_traits@D@std@@V?$allocator@D@2@@std@@@2@@std@@@Z$6:
  00008	8d 4d c4	 lea	 ecx, DWORD PTR $T4[ebp]
  0000b	e9 00 00 00 00	 jmp	 ??1?$_Alloc_construct_ptr@V?$allocator@U?$_Tree_node@U?$pair@$$CBKV?$basic_string@DU?$char_traits@D@std@@V?$allocator@D@2@@std@@@std@@PAX@std@@@std@@@std@@QAE@XZ ; std::_Alloc_construct_ptr<std::allocator<std::_Tree_node<std::pair<unsigned long const ,std::basic_string<char,std::char_traits<char>,std::allocator<char> > >,void *> > >::~_Alloc_construct_ptr<std::allocator<std::_Tree_node<std::pair<unsigned long const ,std::basic_string<char,std::char_traits<char>,std::allocator<char> > >,void *> > >
  00010	cc		 int	 3
  00011	cc		 int	 3
  00012	cc		 int	 3
  00013	cc		 int	 3
  00014	cc		 int	 3
__ehhandler$?PushBackgroundLoadingSet@CResourceManager@@QAEXAAV?$set@V?$basic_string@DU?$char_traits@D@std@@V?$allocator@D@2@@std@@U?$less@V?$basic_string@DU?$char_traits@D@std@@V?$allocator@D@2@@std@@@2@V?$allocator@V?$basic_string@DU?$char_traits@D@std@@V?$allocator@D@2@@std@@@2@@std@@@Z:
  00015	90		 npad	 1
  00016	90		 npad	 1
  00017	8b 54 24 08	 mov	 edx, DWORD PTR [esp+8]
  0001b	8d 42 0c	 lea	 eax, DWORD PTR [edx+12]
  0001e	8b 4a ac	 mov	 ecx, DWORD PTR [edx-84]
  00021	33 c8		 xor	 ecx, eax
  00023	e8 00 00 00 00	 call	 @__security_check_cookie@4
  00028	8b 4a fc	 mov	 ecx, DWORD PTR [edx-4]
  0002b	33 c8		 xor	 ecx, eax
  0002d	e8 00 00 00 00	 call	 @__security_check_cookie@4
  00032	b8 00 00 00 00	 mov	 eax, OFFSET __ehfuncinfo$?PushBackgroundLoadingSet@CResourceManager@@QAEXAAV?$set@V?$basic_string@DU?$char_traits@D@std@@V?$allocator@D@2@@std@@U?$less@V?$basic_string@DU?$char_traits@D@std@@V?$allocator@D@2@@std@@@2@V?$allocator@V?$basic_string@DU?$char_traits@D@std@@V?$allocator@D@2@@std@@@2@@std@@@Z
  00037	e9 00 00 00 00	 jmp	 ___CxxFrameHandler3
text$x	ENDS
?PushBackgroundLoadingSet@CResourceManager@@QAEXAAV?$set@V?$basic_string@DU?$char_traits@D@std@@V?$allocator@D@2@@std@@U?$less@V?$basic_string@DU?$char_traits@D@std@@V?$allocator@D@2@@std@@@2@V?$allocator@V?$basic_string@DU?$char_traits@D@std@@V?$allocator@D@2@@std@@@2@@std@@@Z ENDP ; CResourceManager::PushBackgroundLoadingSet
; Function compile flags: /Ogtp
; File C:\Users\murat\Desktop\Siveps2-1-99-Project\source\client\Client\EterLib\ResourceManager.cpp
; File C:\Program Files (x86)\Microsoft Visual Studio\2019\Professional\VC\Tools\MSVC\14.29.30133\include\xtree
; File C:\Users\murat\Desktop\Siveps2-1-99-Project\source\client\Client\EterLib\ResourceManager.cpp
; File C:\Program Files (x86)\Microsoft Visual Studio\2019\Professional\VC\Tools\MSVC\14.29.30133\include\xtree
; File C:\Users\murat\Desktop\Siveps2-1-99-Project\source\client\Client\EterLib\ResourceManager.cpp
; File C:\Program Files (x86)\Microsoft Visual Studio\2019\Professional\VC\Tools\MSVC\14.29.30133\include\xtree
; File C:\Program Files (x86)\Microsoft Visual Studio\2019\Professional\VC\Tools\MSVC\14.29.30133\include\xstddef
; File C:\Program Files (x86)\Microsoft Visual Studio\2019\Professional\VC\Tools\MSVC\14.29.30133\include\xtree
; File C:\Users\murat\Desktop\Siveps2-1-99-Project\source\client\Client\EterLib\ResourceManager.cpp
; File C:\Program Files (x86)\Microsoft Visual Studio\2019\Professional\VC\Tools\MSVC\14.29.30133\include\utility
; File C:\Program Files (x86)\Microsoft Visual Studio\2019\Professional\VC\Tools\MSVC\14.29.30133\include\xtree
; File C:\Users\murat\Desktop\Siveps2-1-99-Project\source\client\Client\EterLib\ResourceManager.cpp
; File C:\Program Files (x86)\Microsoft Visual Studio\2019\Professional\VC\Tools\MSVC\14.29.30133\include\xtree
; File C:\Program Files (x86)\Microsoft Visual Studio\2019\Professional\VC\Tools\MSVC\14.29.30133\include\xstddef
; File C:\Program Files (x86)\Microsoft Visual Studio\2019\Professional\VC\Tools\MSVC\14.29.30133\include\xtree
; File C:\Program Files (x86)\Microsoft Visual Studio\2019\Professional\VC\Tools\MSVC\14.29.30133\include\xmemory
; File C:\Program Files (x86)\Microsoft Visual Studio\2019\Professional\VC\Tools\MSVC\14.29.30133\include\xtree
; File C:\Program Files (x86)\Microsoft Visual Studio\2019\Professional\VC\Tools\MSVC\14.29.30133\include\xmemory
; File C:\Program Files (x86)\Microsoft Visual Studio\2019\Professional\VC\Tools\MSVC\14.29.30133\include\xtree
; File C:\Program Files (x86)\Microsoft Visual Studio\2019\Professional\VC\Tools\MSVC\14.29.30133\include\xmemory
; File C:\Program Files (x86)\Microsoft Visual Studio\2019\Professional\VC\Tools\MSVC\14.29.30133\include\xstring
; File C:\Program Files (x86)\Microsoft Visual Studio\2019\Professional\VC\Tools\MSVC\14.29.30133\include\utility
; File C:\Program Files (x86)\Microsoft Visual Studio\2019\Professional\VC\Tools\MSVC\14.29.30133\include\xmemory
; File C:\Program Files (x86)\Microsoft Visual Studio\2019\Professional\VC\Tools\MSVC\14.29.30133\include\xstring
; File C:\Program Files (x86)\Microsoft Visual Studio\2019\Professional\VC\Tools\MSVC\14.29.30133\include\utility
; File C:\Program Files (x86)\Microsoft Visual Studio\2019\Professional\VC\Tools\MSVC\14.29.30133\include\xtree
; File C:\Program Files (x86)\Microsoft Visual Studio\2019\Professional\VC\Tools\MSVC\14.29.30133\include\xstring
; File C:\Program Files (x86)\Microsoft Visual Studio\2019\Professional\VC\Tools\MSVC\14.29.30133\include\xtree
; File C:\Program Files (x86)\Microsoft Visual Studio\2019\Professional\VC\Tools\MSVC\14.29.30133\include\utility
; File C:\Program Files (x86)\Microsoft Visual Studio\2019\Professional\VC\Tools\MSVC\14.29.30133\include\xstring
; File C:\Program Files (x86)\Microsoft Visual Studio\2019\Professional\VC\Tools\MSVC\14.29.30133\include\xtree
; File C:\Program Files (x86)\Microsoft Visual Studio\2019\Professional\VC\Tools\MSVC\14.29.30133\include\xstring
; File C:\Program Files (x86)\Microsoft Visual Studio\2019\Professional\VC\Tools\MSVC\14.29.30133\include\xtree
; File C:\Users\murat\Desktop\Siveps2-1-99-Project\source\client\Client\EterLib\ResourceManager.cpp
; File C:\Program Files (x86)\Microsoft Visual Studio\2019\Professional\VC\Tools\MSVC\14.29.30133\include\xstring
; File C:\Program Files (x86)\Microsoft Visual Studio\2019\Professional\VC\Tools\MSVC\14.29.30133\include\xmemory
; File C:\Program Files (x86)\Microsoft Visual Studio\2019\Professional\VC\Tools\MSVC\14.29.30133\include\xstring
; File C:\Program Files (x86)\Microsoft Visual Studio\2019\Professional\VC\Tools\MSVC\14.29.30133\include\xmemory
; File C:\Program Files (x86)\Microsoft Visual Studio\2019\Professional\VC\Tools\MSVC\14.29.30133\include\xtree
; File C:\Users\murat\Desktop\Siveps2-1-99-Project\source\client\Client\EterLib\ResourceManager.cpp
; File C:\Program Files (x86)\Microsoft Visual Studio\2019\Professional\VC\Tools\MSVC\14.29.30133\include\xtree
; File C:\Users\murat\Desktop\Siveps2-1-99-Project\source\client\Client\EterLib\ResourceManager.cpp
; File C:\Program Files (x86)\Microsoft Visual Studio\2019\Professional\VC\Tools\MSVC\14.29.30133\include\xstring
; File C:\Users\murat\Desktop\Siveps2-1-99-Project\source\client\Client\EterLib\ResourceManager.cpp
; File C:\Program Files (x86)\Microsoft Visual Studio\2019\Professional\VC\Tools\MSVC\14.29.30133\include\xtree
; File C:\Users\murat\Desktop\Siveps2-1-99-Project\source\client\Client\EterLib\ResourceManager.cpp
; File C:\Program Files (x86)\Microsoft Visual Studio\2019\Professional\VC\Tools\MSVC\14.29.30133\include\xtree
; File C:\Users\murat\Desktop\Siveps2-1-99-Project\source\client\Client\EterLib\ResourceManager.cpp
; File C:\Program Files (x86)\Microsoft Visual Studio\2019\Professional\VC\Tools\MSVC\14.29.30133\include\xtree
; File C:\Program Files (x86)\Microsoft Visual Studio\2019\Professional\VC\Tools\MSVC\14.29.30133\include\xstddef
; File C:\Program Files (x86)\Microsoft Visual Studio\2019\Professional\VC\Tools\MSVC\14.29.30133\include\xtree
; File C:\Program Files (x86)\Microsoft Visual Studio\2019\Professional\VC\Tools\MSVC\14.29.30133\include\xstddef
; File C:\Program Files (x86)\Microsoft Visual Studio\2019\Professional\VC\Tools\MSVC\14.29.30133\include\xtree
; File C:\Program Files (x86)\Microsoft Visual Studio\2019\Professional\VC\Tools\MSVC\14.29.30133\include\xstddef
; File C:\Program Files (x86)\Microsoft Visual Studio\2019\Professional\VC\Tools\MSVC\14.29.30133\include\xtree
; File C:\Program Files (x86)\Microsoft Visual Studio\2019\Professional\VC\Tools\MSVC\14.29.30133\include\xmemory
; File C:\Program Files (x86)\Microsoft Visual Studio\2019\Professional\VC\Tools\MSVC\14.29.30133\include\xtree
; File C:\Program Files (x86)\Microsoft Visual Studio\2019\Professional\VC\Tools\MSVC\14.29.30133\include\xmemory
; File C:\Program Files (x86)\Microsoft Visual Studio\2019\Professional\VC\Tools\MSVC\14.29.30133\include\xtree
; File C:\Program Files (x86)\Microsoft Visual Studio\2019\Professional\VC\Tools\MSVC\14.29.30133\include\xmemory
; File C:\Program Files (x86)\Microsoft Visual Studio\2019\Professional\VC\Tools\MSVC\14.29.30133\include\xtree
; File C:\Program Files (x86)\Microsoft Visual Studio\2019\Professional\VC\Tools\MSVC\14.29.30133\include\utility
; File C:\Program Files (x86)\Microsoft Visual Studio\2019\Professional\VC\Tools\MSVC\14.29.30133\include\xtree
; File C:\Program Files (x86)\Microsoft Visual Studio\2019\Professional\VC\Tools\MSVC\14.29.30133\include\xstring
; File C:\Users\murat\Desktop\Siveps2-1-99-Project\source\client\Client\EterLib\ResourceManager.cpp
; File C:\Program Files (x86)\Microsoft Visual Studio\2019\Professional\VC\Tools\MSVC\14.29.30133\include\xtree
; File C:\Users\murat\Desktop\Siveps2-1-99-Project\source\client\Client\EterLib\ResourceManager.cpp
; File C:\Program Files (x86)\Microsoft Visual Studio\2019\Professional\VC\Tools\MSVC\14.29.30133\include\xtree
; File C:\Program Files (x86)\Microsoft Visual Studio\2019\Professional\VC\Tools\MSVC\14.29.30133\include\xstddef
; File C:\Program Files (x86)\Microsoft Visual Studio\2019\Professional\VC\Tools\MSVC\14.29.30133\include\xtree
; File C:\Program Files (x86)\Microsoft Visual Studio\2019\Professional\VC\Tools\MSVC\14.29.30133\include\xstddef
; File C:\Program Files (x86)\Microsoft Visual Studio\2019\Professional\VC\Tools\MSVC\14.29.30133\include\xtree
; File C:\Program Files (x86)\Microsoft Visual Studio\2019\Professional\VC\Tools\MSVC\14.29.30133\include\xstddef
; File C:\Program Files (x86)\Microsoft Visual Studio\2019\Professional\VC\Tools\MSVC\14.29.30133\include\xtree
; File C:\Users\murat\Desktop\Siveps2-1-99-Project\source\client\Client\EterLib\ResourceManager.cpp
; File C:\Program Files (x86)\Microsoft Visual Studio\2019\Professional\VC\Tools\MSVC\14.29.30133\include\xstring
; File C:\Program Files (x86)\Microsoft Visual Studio\2019\Professional\VC\Tools\MSVC\14.29.30133\include\xmemory
; File C:\Program Files (x86)\Microsoft Visual Studio\2019\Professional\VC\Tools\MSVC\14.29.30133\include\xstring
; File C:\Program Files (x86)\Microsoft Visual Studio\2019\Professional\VC\Tools\MSVC\14.29.30133\include\xmemory
; File C:\Program Files (x86)\Microsoft Visual Studio\2019\Professional\VC\Tools\MSVC\14.29.30133\include\xstring
; File C:\Users\murat\Desktop\Siveps2-1-99-Project\source\client\Client\EterLib\ResourceManager.cpp
; File C:\Program Files (x86)\Microsoft Visual Studio\2019\Professional\VC\Tools\MSVC\14.29.30133\include\xtree
; File C:\Users\murat\Desktop\Siveps2-1-99-Project\source\client\Client\EterLib\ResourceManager.cpp
; File C:\Program Files (x86)\Microsoft Visual Studio\2019\Professional\VC\Tools\MSVC\14.29.30133\include\xtree
; File C:\Users\murat\Desktop\Siveps2-1-99-Project\source\client\Client\EterLib\ResourceManager.cpp
; File C:\Program Files (x86)\Microsoft Visual Studio\2019\Professional\VC\Tools\MSVC\14.29.30133\include\xtree
; File C:\Program Files (x86)\Microsoft Visual Studio\2019\Professional\VC\Tools\MSVC\14.29.30133\include\xmemory
; File C:\Users\murat\Desktop\Siveps2-1-99-Project\source\client\Client\EterLib\ResourceManager.cpp
; File C:\Program Files (x86)\Microsoft Visual Studio\2019\Professional\VC\Tools\MSVC\14.29.30133\include\xmemory
; File C:\Users\murat\Desktop\Siveps2-1-99-Project\source\client\Client\EterLib\ResourceManager.cpp
; File C:\Program Files (x86)\Microsoft Visual Studio\2019\Professional\VC\Tools\MSVC\14.29.30133\include\xtree
; File C:\Users\murat\Desktop\Siveps2-1-99-Project\source\client\Client\EterLib\ResourceManager.cpp
; File C:\Program Files (x86)\Microsoft Visual Studio\2019\Professional\VC\Tools\MSVC\14.29.30133\include\xtree
; File C:\Users\murat\Desktop\Siveps2-1-99-Project\source\client\Client\EterLib\ResourceManager.cpp
; File C:\Program Files (x86)\Microsoft Visual Studio\2019\Professional\VC\Tools\MSVC\14.29.30133\include\xmemory
; File C:\Users\murat\Desktop\Siveps2-1-99-Project\source\client\Client\EterLib\ResourceManager.cpp
;	COMDAT ?ProcessBackgroundLoading@CResourceManager@@QAEXXZ
_TEXT	SEGMENT
$T4 = -108						; size = 12
__Loc$5 = -96						; size = 12
__Loc$6 = -84						; size = 12
$T7 = -80						; size = 8
$T8 = -72						; size = 8
__Pnode$2$ = -68					; size = 4
__Myhead$1$ = -68					; size = 4
_lCurrentTime$1$ = -68					; size = 4
_pData$ = -64						; size = 4
$T9 = -60						; size = 4
__Head$1$ = -60						; size = 4
__Successor$10 = -60					; size = 4
_dwFileCRC$11 = -60					; size = 4
_this$GSCopy$1$ = -56					; size = 4
_this$1$ = -52						; size = 4
__Scary$1$ = -52					; size = 4
$T12 = -52						; size = 4
__First$ = -52						; size = 4
$T13 = -48						; size = 4
_dwFileCRC$1$ = -48					; size = 4
__Successor$14 = -48					; size = 4
__Successor$15 = -48					; size = 4
_itorRef$ = -48						; size = 4
$T16 = -44						; size = 28
__$ArrayPad$ = -16					; size = 4
__$EHRec$ = -12						; size = 12
?ProcessBackgroundLoading@CResourceManager@@QAEXXZ PROC	; CResourceManager::ProcessBackgroundLoading, COMDAT
; _this$ = ecx

; 39   : {

  00000	55		 push	 ebp
  00001	8b ec		 mov	 ebp, esp
  00003	6a ff		 push	 -1
  00005	68 00 00 00 00	 push	 __ehhandler$?ProcessBackgroundLoading@CResourceManager@@QAEXXZ
  0000a	64 a1 00 00 00
	00		 mov	 eax, DWORD PTR fs:0
  00010	50		 push	 eax
  00011	83 ec 60	 sub	 esp, 96			; 00000060H
  00014	a1 00 00 00 00	 mov	 eax, DWORD PTR ___security_cookie
  00019	33 c5		 xor	 eax, ebp
  0001b	89 45 f0	 mov	 DWORD PTR __$ArrayPad$[ebp], eax
  0001e	56		 push	 esi
  0001f	57		 push	 edi
  00020	50		 push	 eax
  00021	8d 45 f4	 lea	 eax, DWORD PTR __$EHRec$[ebp]
  00024	64 a3 00 00 00
	00		 mov	 DWORD PTR fs:0, eax
  0002a	8b d1		 mov	 edx, ecx
  0002c	89 55 c8	 mov	 DWORD PTR _this$GSCopy$1$[ebp], edx
; File C:\Program Files (x86)\Microsoft Visual Studio\2019\Professional\VC\Tools\MSVC\14.29.30133\include\xtree

; 1143 :         return iterator(_Scary->_Myhead->_Left, _Scary);

  0002f	8b 42 2c	 mov	 eax, DWORD PTR [edx+44]
; File C:\Users\murat\Desktop\Siveps2-1-99-Project\source\client\Client\EterLib\ResourceManager.cpp

; 40   : 	TResourceRequestMap::iterator itor = m_RequestMap.begin();

  00032	8d 7a 2c	 lea	 edi, DWORD PTR [edx+44]
  00035	89 7d cc	 mov	 DWORD PTR __Scary$1$[ebp], edi
; File C:\Program Files (x86)\Microsoft Visual Studio\2019\Professional\VC\Tools\MSVC\14.29.30133\include\xtree

; 39   :     _Tree_unchecked_const_iterator(_Nodeptr _Pnode, const _Mytree* _Plist) noexcept : _Ptr(_Pnode) {

  00038	8b 30		 mov	 esi, DWORD PTR [eax]
; File C:\Users\murat\Desktop\Siveps2-1-99-Project\source\client\Client\EterLib\ResourceManager.cpp

; 42   : 	while (itor != m_RequestMap.end())

  0003a	3b f0		 cmp	 esi, eax
  0003c	0f 84 9f 01 00
	00		 je	 $LN604@ProcessBac
$LL2@ProcessBac:

; 43   : 	{
; 44   : 		DWORD dwFileCRC = itor->first;

  00042	8b 46 10	 mov	 eax, DWORD PTR [esi+16]

; 47   : 		if (isResourcePointerData(dwFileCRC) ||

  00045	8b ca		 mov	 ecx, edx
  00047	50		 push	 eax
  00048	89 45 d0	 mov	 DWORD PTR _dwFileCRC$1$[ebp], eax
  0004b	89 45 c4	 mov	 DWORD PTR _dwFileCRC$11[ebp], eax
  0004e	e8 00 00 00 00	 call	 ?isResourcePointerData@CResourceManager@@QAE_NK@Z ; CResourceManager::isResourcePointerData
  00053	84 c0		 test	 al, al
  00055	0f 85 5a 01 00
	00		 jne	 $LN601@ProcessBac
  0005b	8b 7d c8	 mov	 edi, DWORD PTR _this$GSCopy$1$[ebp]
; File C:\Program Files (x86)\Microsoft Visual Studio\2019\Professional\VC\Tools\MSVC\14.29.30133\include\xtree

; 1361 :         const _Tree_find_result<_Nodeptr> _Loc = _Find_lower_bound(_Keyval);

  0005e	8d 45 c4	 lea	 eax, DWORD PTR _dwFileCRC$11[ebp]
  00061	50		 push	 eax
  00062	8d 45 a0	 lea	 eax, DWORD PTR __Loc$5[ebp]
  00065	50		 push	 eax
  00066	8d 4f 34	 lea	 ecx, DWORD PTR [edi+52]
  00069	e8 00 00 00 00	 call	 ??$_Find_lower_bound@K@?$_Tree@V?$_Tmap_traits@KV?$basic_string@DU?$char_traits@D@std@@V?$allocator@D@2@@std@@U?$less@K@2@V?$allocator@U?$pair@$$CBKV?$basic_string@DU?$char_traits@D@std@@V?$allocator@D@2@@std@@@std@@@2@$0A@@std@@@std@@IBE?AU?$_Tree_find_result@PAU?$_Tree_node@U?$pair@$$CBKV?$basic_string@DU?$char_traits@D@std@@V?$allocator@D@2@@std@@@std@@PAX@std@@@1@ABK@Z ; std::_Tree<std::_Tmap_traits<unsigned long,std::basic_string<char,std::char_traits<char>,std::allocator<char> >,std::less<unsigned long>,std::allocator<std::pair<unsigned long const ,std::basic_string<char,std::char_traits<char>,std::allocator<char> > > >,0> >::_Find_lower_bound<unsigned long>

; 1599 :         return !_Bound->_Isnil && !_DEBUG_LT_PRED(_Getcomp(), _Keyval, _Traits::_Kfn(_Bound->_Myval));

  0006e	8b 45 a8	 mov	 eax, DWORD PTR __Loc$5[ebp+8]
  00071	80 78 0d 00	 cmp	 BYTE PTR [eax+13], 0
  00075	75 08		 jne	 SHORT $LN53@ProcessBac
; File C:\Program Files (x86)\Microsoft Visual Studio\2019\Professional\VC\Tools\MSVC\14.29.30133\include\xstddef

; 127  :         return _Left < _Right;

  00077	8b 4d d0	 mov	 ecx, DWORD PTR _dwFileCRC$1$[ebp]
  0007a	3b 48 10	 cmp	 ecx, DWORD PTR [eax+16]
; File C:\Program Files (x86)\Microsoft Visual Studio\2019\Professional\VC\Tools\MSVC\14.29.30133\include\xtree

; 1599 :         return !_Bound->_Isnil && !_DEBUG_LT_PRED(_Getcomp(), _Keyval, _Traits::_Kfn(_Bound->_Myval));

  0007d	73 03		 jae	 SHORT $LN52@ProcessBac
$LN53@ProcessBac:

; 1366 :         return _Get_scary()->_Myhead;

  0007f	8b 47 34	 mov	 eax, DWORD PTR [edi+52]
$LN52@ProcessBac:
; File C:\Users\murat\Desktop\Siveps2-1-99-Project\source\client\Client\EterLib\ResourceManager.cpp

; 47   : 		if (isResourcePointerData(dwFileCRC) ||

  00082	39 47 34	 cmp	 DWORD PTR [edi+52], eax
  00085	0f 85 27 01 00
	00		 jne	 $LN607@ProcessBac

; 48   : 			(m_WaitingMap.end() != m_WaitingMap.find(dwFileCRC)))
; 49   : 		{
; 50   : 			//printf("SKP %s\n", stFileName.c_str());
; 51   : 			itor = m_RequestMap.erase(itor);
; 52   : 			continue;
; 53   : 		}
; 54   : 
; 55   : 		//printf("REQ %s\n", stFileName.c_str());
; 56   : 		ms_loadingThread.Request(stFileName);

  0008b	8d 46 14	 lea	 eax, DWORD PTR [esi+20]
  0008e	b9 00 00 00 00	 mov	 ecx, OFFSET ?ms_loadingThread@CResourceManager@@1VCFileLoaderThread@@A ; CResourceManager::ms_loadingThread
  00093	50		 push	 eax
  00094	e8 00 00 00 00	 call	 ?Request@CFileLoaderThread@@QAEXAAV?$basic_string@DU?$char_traits@D@std@@V?$allocator@D@2@@std@@@Z ; CFileLoaderThread::Request
; File C:\Program Files (x86)\Microsoft Visual Studio\2019\Professional\VC\Tools\MSVC\14.29.30133\include\utility

; 193  :         : first(_STD forward<_Other1>(_Val1)), second(_STD forward<_Other2>(_Val2)) {}

  00099	8b 45 d0	 mov	 eax, DWORD PTR _dwFileCRC$1$[ebp]
  0009c	8d 4d d8	 lea	 ecx, DWORD PTR $T16[ebp+4]
  0009f	89 45 d4	 mov	 DWORD PTR $T16[ebp], eax
  000a2	8d 46 14	 lea	 eax, DWORD PTR [esi+20]
  000a5	50		 push	 eax
  000a6	e8 00 00 00 00	 call	 ??0?$basic_string@DU?$char_traits@D@std@@V?$allocator@D@2@@std@@QAE@ABV01@@Z ; std::basic_string<char,std::char_traits<char>,std::allocator<char> >::basic_string<char,std::char_traits<char>,std::allocator<char> >
; File C:\Program Files (x86)\Microsoft Visual Studio\2019\Professional\VC\Tools\MSVC\14.29.30133\include\xtree

; 1014 :             _Loc                = _Find_lower_bound(_Keyval);

  000ab	8d 45 d4	 lea	 eax, DWORD PTR $T16[ebp]
; File C:\Users\murat\Desktop\Siveps2-1-99-Project\source\client\Client\EterLib\ResourceManager.cpp

; 57   : 		m_WaitingMap.insert(TResourceRequestMap::value_type(dwFileCRC, stFileName));

  000ae	c7 45 fc 00 00
	00 00		 mov	 DWORD PTR __$EHRec$[ebp+8], 0
; File C:\Program Files (x86)\Microsoft Visual Studio\2019\Professional\VC\Tools\MSVC\14.29.30133\include\xtree

; 1014 :             _Loc                = _Find_lower_bound(_Keyval);

  000b5	50		 push	 eax
  000b6	8d 45 94	 lea	 eax, DWORD PTR $T4[ebp]
  000b9	50		 push	 eax
  000ba	8d 4f 34	 lea	 ecx, DWORD PTR [edi+52]
  000bd	e8 00 00 00 00	 call	 ??$_Find_lower_bound@K@?$_Tree@V?$_Tmap_traits@KV?$basic_string@DU?$char_traits@D@std@@V?$allocator@D@2@@std@@U?$less@K@2@V?$allocator@U?$pair@$$CBKV?$basic_string@DU?$char_traits@D@std@@V?$allocator@D@2@@std@@@std@@@2@$0A@@std@@@std@@IBE?AU?$_Tree_find_result@PAU?$_Tree_node@U?$pair@$$CBKV?$basic_string@DU?$char_traits@D@std@@V?$allocator@D@2@@std@@@std@@PAX@std@@@1@ABK@Z ; std::_Tree<std::_Tmap_traits<unsigned long,std::basic_string<char,std::char_traits<char>,std::allocator<char> >,std::less<unsigned long>,std::allocator<std::pair<unsigned long const ,std::basic_string<char,std::char_traits<char>,std::allocator<char> > > >,0> >::_Find_lower_bound<unsigned long>
  000c2	8b 48 08	 mov	 ecx, DWORD PTR [eax+8]
  000c5	f3 0f 7e 00	 movq	 xmm0, QWORD PTR [eax]
  000c9	66 0f d6 45 ac	 movq	 QWORD PTR __Loc$6[ebp], xmm0

; 1599 :         return !_Bound->_Isnil && !_DEBUG_LT_PRED(_Getcomp(), _Keyval, _Traits::_Kfn(_Bound->_Myval));

  000ce	80 79 0d 00	 cmp	 BYTE PTR [ecx+13], 0
  000d2	75 10		 jne	 SHORT $LN106@ProcessBac
; File C:\Program Files (x86)\Microsoft Visual Studio\2019\Professional\VC\Tools\MSVC\14.29.30133\include\xstddef

; 127  :         return _Left < _Right;

  000d4	8b 45 d4	 mov	 eax, DWORD PTR $T16[ebp]
  000d7	3b 41 10	 cmp	 eax, DWORD PTR [ecx+16]
; File C:\Program Files (x86)\Microsoft Visual Studio\2019\Professional\VC\Tools\MSVC\14.29.30133\include\xtree

; 1599 :         return !_Bound->_Isnil && !_DEBUG_LT_PRED(_Getcomp(), _Keyval, _Traits::_Kfn(_Bound->_Myval));

  000da	72 08		 jb	 SHORT $LN106@ProcessBac
  000dc	8b 45 ec	 mov	 eax, DWORD PTR $T16[ebp+24]
  000df	e9 84 00 00 00	 jmp	 $LN206@ProcessBac
$LN106@ProcessBac:

; 1623 :         if (max_size() == _Get_scary()->_Mysize) {

  000e4	81 7f 38 5d 74
	d1 05		 cmp	 DWORD PTR [edi+56], 97612893 ; 05d1745dH
  000eb	0f 84 f6 03 00
	00		 je	 $LN568@ProcessBac
; File C:\Program Files (x86)\Microsoft Visual Studio\2019\Professional\VC\Tools\MSVC\14.29.30133\include\xmemory

; 1012 :     _CONSTEXPR20_DYNALLOC explicit _Alloc_construct_ptr(_Alloc& _Al_) : _Al(_Al_), _Ptr(nullptr) {}

  000f1	8b 45 c8	 mov	 eax, DWORD PTR _this$GSCopy$1$[ebp]
; File C:\Program Files (x86)\Microsoft Visual Studio\2019\Professional\VC\Tools\MSVC\14.29.30133\include\xtree

; 1020 :             _Inserted = _Tree_temp_node<_Alnode>(_Getal(), _Scary->_Myhead, _STD forward<_Valtys>(_Vals)...)._Release();

  000f4	8b 7f 34	 mov	 edi, DWORD PTR [edi+52]
; File C:\Program Files (x86)\Microsoft Visual Studio\2019\Professional\VC\Tools\MSVC\14.29.30133\include\xmemory

; 1012 :     _CONSTEXPR20_DYNALLOC explicit _Alloc_construct_ptr(_Alloc& _Al_) : _Al(_Al_), _Ptr(nullptr) {}

  000f7	83 c0 34	 add	 eax, 52			; 00000034H
  000fa	89 45 b8	 mov	 DWORD PTR $T8[ebp], eax

; 85   :         return ::operator new(_Bytes);

  000fd	6a 2c		 push	 44			; 0000002cH
; File C:\Program Files (x86)\Microsoft Visual Studio\2019\Professional\VC\Tools\MSVC\14.29.30133\include\xtree

; 790  :     explicit _Tree_temp_node_alloc(_Alnode& _Al_) : _Alloc_construct_ptr<_Alnode>(_Al_) {

  000ff	c6 45 fc 01	 mov	 BYTE PTR __$EHRec$[ebp+8], 1
; File C:\Program Files (x86)\Microsoft Visual Studio\2019\Professional\VC\Tools\MSVC\14.29.30133\include\xmemory

; 1019 :         _Ptr = nullptr; // if allocate throws, prevents double-free

  00103	c7 45 bc 00 00
	00 00		 mov	 DWORD PTR $T8[ebp+4], 0

; 85   :         return ::operator new(_Bytes);

  0010a	e8 00 00 00 00	 call	 ??2@YAPAXI@Z		; operator new
; File C:\Program Files (x86)\Microsoft Visual Studio\2019\Professional\VC\Tools\MSVC\14.29.30133\include\xstring

; 2869 :         _CSTD memcpy(_My_data_mem, _Right_data_mem, _Memcpy_val_size);

  0010f	0f 10 45 d8	 movups	 xmm0, XMMWORD PTR $T16[ebp+4]
; File C:\Program Files (x86)\Microsoft Visual Studio\2019\Professional\VC\Tools\MSVC\14.29.30133\include\utility

; 213  :     pair(pair&&)      = default;

  00113	8b 4d d4	 mov	 ecx, DWORD PTR $T16[ebp]
; File C:\Program Files (x86)\Microsoft Visual Studio\2019\Professional\VC\Tools\MSVC\14.29.30133\include\xmemory

; 85   :         return ::operator new(_Bytes);

  00116	83 c4 04	 add	 esp, 4
; File C:\Program Files (x86)\Microsoft Visual Studio\2019\Professional\VC\Tools\MSVC\14.29.30133\include\xstring

; 4612 :             _Traits::assign(_My_data._Bx._Buf[0], _Elem());

  00119	c6 45 d8 00	 mov	 BYTE PTR $T16[ebp+4], 0
; File C:\Program Files (x86)\Microsoft Visual Studio\2019\Professional\VC\Tools\MSVC\14.29.30133\include\utility

; 213  :     pair(pair&&)      = default;

  0011d	89 48 10	 mov	 DWORD PTR [eax+16], ecx
; File C:\Program Files (x86)\Microsoft Visual Studio\2019\Professional\VC\Tools\MSVC\14.29.30133\include\xtree

; 1039 :         return {_Scary->_Insert_node(_Loc._Location, _Inserted), true};

  00120	8b 4d c8	 mov	 ecx, DWORD PTR _this$GSCopy$1$[ebp]
; File C:\Program Files (x86)\Microsoft Visual Studio\2019\Professional\VC\Tools\MSVC\14.29.30133\include\xstring

; 2355 :     size_type _Mysize = 0; // current length of string

  00123	c7 40 24 00 00
	00 00		 mov	 DWORD PTR [eax+36], 0

; 2356 :     size_type _Myres  = 0; // current storage reserved for string

  0012a	c7 40 28 00 00
	00 00		 mov	 DWORD PTR [eax+40], 0

; 2869 :         _CSTD memcpy(_My_data_mem, _Right_data_mem, _Memcpy_val_size);

  00131	0f 11 40 14	 movups	 XMMWORD PTR [eax+20], xmm0
; File C:\Program Files (x86)\Microsoft Visual Studio\2019\Professional\VC\Tools\MSVC\14.29.30133\include\xtree

; 1039 :         return {_Scary->_Insert_node(_Loc._Location, _Inserted), true};

  00135	8d 49 34	 lea	 ecx, DWORD PTR [ecx+52]
; File C:\Program Files (x86)\Microsoft Visual Studio\2019\Professional\VC\Tools\MSVC\14.29.30133\include\utility

; 617  :     _Val         = static_cast<_Other&&>(_New_val);

  00138	c7 45 bc 00 00
	00 00		 mov	 DWORD PTR $T8[ebp+4], 0
; File C:\Program Files (x86)\Microsoft Visual Studio\2019\Professional\VC\Tools\MSVC\14.29.30133\include\xstring

; 2869 :         _CSTD memcpy(_My_data_mem, _Right_data_mem, _Memcpy_val_size);

  0013f	f3 0f 7e 45 e8	 movq	 xmm0, QWORD PTR $T16[ebp+20]
; File C:\Program Files (x86)\Microsoft Visual Studio\2019\Professional\VC\Tools\MSVC\14.29.30133\include\xtree

; 1039 :         return {_Scary->_Insert_node(_Loc._Location, _Inserted), true};

  00144	50		 push	 eax
  00145	ff 75 b0	 push	 DWORD PTR __Loc$6[ebp+4]
; File C:\Program Files (x86)\Microsoft Visual Studio\2019\Professional\VC\Tools\MSVC\14.29.30133\include\xstring

; 2869 :         _CSTD memcpy(_My_data_mem, _Right_data_mem, _Memcpy_val_size);

  00148	66 0f d6 40 24	 movq	 QWORD PTR [eax+36], xmm0
; File C:\Program Files (x86)\Microsoft Visual Studio\2019\Professional\VC\Tools\MSVC\14.29.30133\include\xtree

; 1039 :         return {_Scary->_Insert_node(_Loc._Location, _Inserted), true};

  0014d	ff 75 ac	 push	 DWORD PTR __Loc$6[ebp]

; 813  :         _Construct_in_place(this->_Ptr->_Left, _Myhead);

  00150	89 38		 mov	 DWORD PTR [eax], edi

; 814  :         _Construct_in_place(this->_Ptr->_Parent, _Myhead);

  00152	89 78 04	 mov	 DWORD PTR [eax+4], edi

; 815  :         _Construct_in_place(this->_Ptr->_Right, _Myhead);

  00155	89 78 08	 mov	 DWORD PTR [eax+8], edi

; 816  :         this->_Ptr->_Color = _Red;

  00158	66 c7 40 0c 00
	00		 mov	 WORD PTR [eax+12], 0

; 1039 :         return {_Scary->_Insert_node(_Loc._Location, _Inserted), true};

  0015e	e8 00 00 00 00	 call	 ?_Insert_node@?$_Tree_val@U?$_Tree_simple_types@U?$pair@$$CBKV?$basic_string@DU?$char_traits@D@std@@V?$allocator@D@2@@std@@@std@@@std@@@std@@QAEPAU?$_Tree_node@U?$pair@$$CBKV?$basic_string@DU?$char_traits@D@std@@V?$allocator@D@2@@std@@@std@@PAX@2@U?$_Tree_id@PAU?$_Tree_node@U?$pair@$$CBKV?$basic_string@DU?$char_traits@D@std@@V?$allocator@D@2@@std@@@std@@PAX@std@@@2@QAU32@@Z ; std::_Tree_val<std::_Tree_simple_types<std::pair<unsigned long const ,std::basic_string<char,std::char_traits<char>,std::allocator<char> > > > >::_Insert_node
  00163	b8 0f 00 00 00	 mov	 eax, 15			; 0000000fH
$LN206@ProcessBac:
; File C:\Users\murat\Desktop\Siveps2-1-99-Project\source\client\Client\EterLib\ResourceManager.cpp

; 57   : 		m_WaitingMap.insert(TResourceRequestMap::value_type(dwFileCRC, stFileName));

  00168	c7 45 fc ff ff
	ff ff		 mov	 DWORD PTR __$EHRec$[ebp+8], -1
; File C:\Program Files (x86)\Microsoft Visual Studio\2019\Professional\VC\Tools\MSVC\14.29.30133\include\xstring

; 4618 :         if (_Mypair._Myval2._Large_string_engaged()) {

  0016f	83 f8 10	 cmp	 eax, 16			; 00000010H
  00172	72 2e		 jb	 SHORT $LN232@ProcessBac
; File C:\Program Files (x86)\Microsoft Visual Studio\2019\Professional\VC\Tools\MSVC\14.29.30133\include\xmemory

; 835  :         _Deallocate<_New_alignof<_Ty>>(_Ptr, sizeof(_Ty) * _Count);

  00174	8b 4d d8	 mov	 ecx, DWORD PTR $T16[ebp+4]
; File C:\Program Files (x86)\Microsoft Visual Studio\2019\Professional\VC\Tools\MSVC\14.29.30133\include\xstring

; 4622 :             _Al.deallocate(_Ptr, _Mypair._Myval2._Myres + 1);

  00177	8d 50 01	 lea	 edx, DWORD PTR [eax+1]
; File C:\Program Files (x86)\Microsoft Visual Studio\2019\Professional\VC\Tools\MSVC\14.29.30133\include\xmemory

; 835  :         _Deallocate<_New_alignof<_Ty>>(_Ptr, sizeof(_Ty) * _Count);

  0017a	8b c1		 mov	 eax, ecx

; 260  :         if (_Bytes >= _Big_allocation_threshold) { // boost the alignment of big allocations to help autovectorization

  0017c	81 fa 00 10 00
	00		 cmp	 edx, 4096		; 00001000H
  00182	72 14		 jb	 SHORT $LN242@ProcessBac

; 158  :     const uintptr_t _Ptr_container   = _Ptr_user[-1];

  00184	8b 49 fc	 mov	 ecx, DWORD PTR [ecx-4]
  00187	83 c2 23	 add	 edx, 35			; 00000023H
  0018a	2b c1		 sub	 eax, ecx

; 172  :     _STL_VERIFY(_Back_shift >= _Min_back_shift && _Back_shift <= _Non_user_size, "invalid argument");

  0018c	83 c0 fc	 add	 eax, -4			; fffffffcH
  0018f	83 f8 1f	 cmp	 eax, 31			; 0000001fH
  00192	0f 87 54 03 00
	00		 ja	 $LN470@ProcessBac
$LN242@ProcessBac:

; 264  :         ::operator delete(_Ptr, _Bytes);

  00198	52		 push	 edx
  00199	51		 push	 ecx
  0019a	e8 00 00 00 00	 call	 ??3@YAXPAXI@Z		; operator delete
  0019f	83 c4 08	 add	 esp, 8
$LN232@ProcessBac:
; File C:\Program Files (x86)\Microsoft Visual Studio\2019\Professional\VC\Tools\MSVC\14.29.30133\include\xtree

; 1291 :         ++_Successor; // save successor iterator for return

  001a2	8d 4d d0	 lea	 ecx, DWORD PTR __Successor$14[ebp]
  001a5	89 75 d0	 mov	 DWORD PTR __Successor$14[ebp], esi
  001a8	e8 00 00 00 00	 call	 ??E?$_Tree_unchecked_const_iterator@V?$_Tree_val@U?$_Tree_simple_types@U?$pair@$$CBKV?$basic_string@DU?$char_traits@D@std@@V?$allocator@D@2@@std@@@std@@@std@@@std@@U_Iterator_base0@2@@std@@QAEAAV01@XZ ; std::_Tree_unchecked_const_iterator<std::_Tree_val<std::_Tree_simple_types<std::pair<unsigned long const ,std::basic_string<char,std::char_traits<char>,std::allocator<char> > > > >,std::_Iterator_base0>::operator++

; 1292 :         _Nodeptr _Erasednode = _Scary->_Extract(_Where); // node to erase

  001ad	8b 7d cc	 mov	 edi, DWORD PTR __Scary$1$[ebp]
; File C:\Users\murat\Desktop\Siveps2-1-99-Project\source\client\Client\EterLib\ResourceManager.cpp

; 60   : 	}

  001b0	eb 0e		 jmp	 SHORT $LN612@ProcessBac
$LN607@ProcessBac:

; 47   : 		if (isResourcePointerData(dwFileCRC) ||

  001b2	8b 7d cc	 mov	 edi, DWORD PTR __Scary$1$[ebp]
$LN601@ProcessBac:
; File C:\Program Files (x86)\Microsoft Visual Studio\2019\Professional\VC\Tools\MSVC\14.29.30133\include\xtree

; 1291 :         ++_Successor; // save successor iterator for return

  001b5	8d 4d d0	 lea	 ecx, DWORD PTR __Successor$15[ebp]
  001b8	89 75 d0	 mov	 DWORD PTR __Successor$15[ebp], esi
  001bb	e8 00 00 00 00	 call	 ??E?$_Tree_unchecked_const_iterator@V?$_Tree_val@U?$_Tree_simple_types@U?$pair@$$CBKV?$basic_string@DU?$char_traits@D@std@@V?$allocator@D@2@@std@@@std@@@std@@@std@@U_Iterator_base0@2@@std@@QAEAAV01@XZ ; std::_Tree_unchecked_const_iterator<std::_Tree_val<std::_Tree_simple_types<std::pair<unsigned long const ,std::basic_string<char,std::char_traits<char>,std::allocator<char> > > > >,std::_Iterator_base0>::operator++
$LN612@ProcessBac:
; File C:\Users\murat\Desktop\Siveps2-1-99-Project\source\client\Client\EterLib\ResourceManager.cpp

; 42   : 	while (itor != m_RequestMap.end())

  001c0	56		 push	 esi
  001c1	8b cf		 mov	 ecx, edi
  001c3	e8 00 00 00 00	 call	 ?_Extract@?$_Tree_val@U?$_Tree_simple_types@U?$pair@$$CBKV?$basic_string@DU?$char_traits@D@std@@V?$allocator@D@2@@std@@@std@@@std@@@std@@QAEPAU?$_Tree_node@U?$pair@$$CBKV?$basic_string@DU?$char_traits@D@std@@V?$allocator@D@2@@std@@@std@@PAX@2@V?$_Tree_unchecked_const_iterator@V?$_Tree_val@U?$_Tree_simple_types@U?$pair@$$CBKV?$basic_string@DU?$char_traits@D@std@@V?$allocator@D@2@@std@@@std@@@std@@@std@@U_Iterator_base0@2@@2@@Z ; std::_Tree_val<std::_Tree_simple_types<std::pair<unsigned long const ,std::basic_string<char,std::char_traits<char>,std::allocator<char> > > > >::_Extract
  001c8	8b 75 d0	 mov	 esi, DWORD PTR __Successor$15[ebp]
  001cb	50		 push	 eax
  001cc	57		 push	 edi
  001cd	e8 00 00 00 00	 call	 ??$_Freenode@V?$allocator@U?$_Tree_node@U?$pair@$$CBKV?$basic_string@DU?$char_traits@D@std@@V?$allocator@D@2@@std@@@std@@PAX@std@@@std@@@?$_Tree_node@U?$pair@$$CBKV?$basic_string@DU?$char_traits@D@std@@V?$allocator@D@2@@std@@@std@@PAX@std@@SAXAAV?$allocator@U?$_Tree_node@U?$pair@$$CBKV?$basic_string@DU?$char_traits@D@std@@V?$allocator@D@2@@std@@@std@@PAX@std@@@1@PAU01@@Z ; std::_Tree_node<std::pair<unsigned long const ,std::basic_string<char,std::char_traits<char>,std::allocator<char> > >,void *>::_Freenode<std::allocator<std::_Tree_node<std::pair<unsigned long const ,std::basic_string<char,std::char_traits<char>,std::allocator<char> > >,void *> > >
  001d2	83 c4 08	 add	 esp, 8
  001d5	3b 37		 cmp	 esi, DWORD PTR [edi]
  001d7	74 08		 je	 SHORT $LN604@ProcessBac
  001d9	8b 55 c8	 mov	 edx, DWORD PTR _this$GSCopy$1$[ebp]
  001dc	e9 61 fe ff ff	 jmp	 $LL2@ProcessBac
$LN604@ProcessBac:

; 61   : 
; 62   : 	DWORD dwCurrentTime = ELTimer_GetMSec();

  001e1	e8 00 00 00 00	 call	 ?ELTimer_GetMSec@@YAKXZ	; ELTimer_GetMSec
  001e6	89 45 d0	 mov	 DWORD PTR $T13[ebp], eax

; 65   : 	while (ms_loadingThread.Fetch(&pData))

  001e9	b9 00 00 00 00	 mov	 ecx, OFFSET ?ms_loadingThread@CResourceManager@@1VCFileLoaderThread@@A ; CResourceManager::ms_loadingThread
  001ee	8d 45 c0	 lea	 eax, DWORD PTR _pData$[ebp]
  001f1	50		 push	 eax
  001f2	e8 00 00 00 00	 call	 ?Fetch@CFileLoaderThread@@QAE_NPAPAUSData@1@@Z ; CFileLoaderThread::Fetch
  001f7	84 c0		 test	 al, al
  001f9	0f 84 61 02 00
	00		 je	 $LN605@ProcessBac
  001ff	90		 npad	 1
$LL4@ProcessBac:
; File C:\Program Files (x86)\Microsoft Visual Studio\2019\Professional\VC\Tools\MSVC\14.29.30133\include\xstring

; 2305 :         const value_type* _Result = _Bx._Buf;

  00200	8b 45 c0	 mov	 eax, DWORD PTR _pData$[ebp]

; 2306 :         if (_Large_string_engaged()) {

  00203	83 78 14 10	 cmp	 DWORD PTR [eax+20], 16	; 00000010H
  00207	72 02		 jb	 SHORT $LN267@ProcessBac

; 2307 :             _Result = _Unfancy(_Bx._Ptr);

  00209	8b 00		 mov	 eax, DWORD PTR [eax]
$LN267@ProcessBac:
; File C:\Users\murat\Desktop\Siveps2-1-99-Project\source\client\Client\EterLib\ResourceManager.cpp

; 68   : 		CResource * pResource = GetResourcePointer(pData->stFileName.c_str());

  0020b	8b 7d c8	 mov	 edi, DWORD PTR _this$GSCopy$1$[ebp]
  0020e	8b cf		 mov	 ecx, edi
  00210	50		 push	 eax
  00211	e8 00 00 00 00	 call	 ?GetResourcePointer@CResourceManager@@QAEPAVCResource@@PBD@Z ; CResourceManager::GetResourcePointer
  00216	8b f0		 mov	 esi, eax
  00218	89 75 c4	 mov	 DWORD PTR $T9[ebp], esi

; 69   : 
; 70   : 		if (pResource)

  0021b	85 f6		 test	 esi, esi
  0021d	0f 84 d9 00 00
	00		 je	 $LN359@ProcessBac

; 71   : 		{
; 72   : 			if (pResource->IsEmpty())

  00223	8b ce		 mov	 ecx, esi
  00225	e8 00 00 00 00	 call	 ?IsEmpty@CResource@@QBE_NXZ ; CResource::IsEmpty
  0022a	84 c0		 test	 al, al
  0022c	0f 84 ca 00 00
	00		 je	 $LN359@ProcessBac

; 73   : 			{
; 74   : 				pResource->OnLoad(pData->dwSize, pData->pvBuf);

  00232	8b 45 c0	 mov	 eax, DWORD PTR _pData$[ebp]
  00235	8b ce		 mov	 ecx, esi
  00237	8b 16		 mov	 edx, DWORD PTR [esi]
  00239	ff b0 5c 01 00
	00		 push	 DWORD PTR [eax+348]
  0023f	ff b0 60 01 00
	00		 push	 DWORD PTR [eax+352]
  00245	ff 52 14	 call	 DWORD PTR [edx+20]

; 75   : 				pResource->AddReferenceOnly();

  00248	8b ce		 mov	 ecx, esi
  0024a	e8 00 00 00 00	 call	 ?AddReferenceOnly@CReferenceObject@@QAEXXZ ; CReferenceObject::AddReferenceOnly
; File C:\Program Files (x86)\Microsoft Visual Studio\2019\Professional\VC\Tools\MSVC\14.29.30133\include\xtree

; 1605 :         _Tree_find_result<_Nodeptr> _Result{{_Scary->_Myhead->_Parent, _Tree_child::_Right}, _Scary->_Myhead};

  0024f	8b 4f 3c	 mov	 ecx, DWORD PTR [edi+60]
; File C:\Users\murat\Desktop\Siveps2-1-99-Project\source\client\Client\EterLib\ResourceManager.cpp

; 78   : 				m_pResRefDecreaseWaitingMap.insert(TResourceRefDecreaseWaitingMap::value_type(dwCurrentTime, pResource));

  00252	8d 47 3c	 lea	 eax, DWORD PTR [edi+60]
; File C:\Program Files (x86)\Microsoft Visual Studio\2019\Professional\VC\Tools\MSVC\14.29.30133\include\xtree

; 1607 :         while (!_Trynode->_Isnil) {

  00255	8b 55 d0	 mov	 edx, DWORD PTR $T13[ebp]
  00258	33 f6		 xor	 esi, esi
; File C:\Users\murat\Desktop\Siveps2-1-99-Project\source\client\Client\EterLib\ResourceManager.cpp

; 78   : 				m_pResRefDecreaseWaitingMap.insert(TResourceRefDecreaseWaitingMap::value_type(dwCurrentTime, pResource));

  0025a	89 45 cc	 mov	 DWORD PTR _this$1$[ebp], eax
; File C:\Program Files (x86)\Microsoft Visual Studio\2019\Professional\VC\Tools\MSVC\14.29.30133\include\xtree

; 1605 :         _Tree_find_result<_Nodeptr> _Result{{_Scary->_Myhead->_Parent, _Tree_child::_Right}, _Scary->_Myhead};

  0025d	89 4d bc	 mov	 DWORD PTR __Myhead$1$[ebp], ecx
  00260	8b 79 04	 mov	 edi, DWORD PTR [ecx+4]

; 1607 :         while (!_Trynode->_Isnil) {

  00263	80 7f 0d 00	 cmp	 BYTE PTR [edi+13], 0
  00267	75 27		 jne	 SHORT $LN281@ProcessBac
; File C:\Program Files (x86)\Microsoft Visual Studio\2019\Professional\VC\Tools\MSVC\14.29.30133\include\xstddef

; 127  :         return _Left < _Right;

  00269	8b c7		 mov	 eax, edi
  0026b	0f 1f 44 00 00	 npad	 5
$LL280@ProcessBac:
; File C:\Program Files (x86)\Microsoft Visual Studio\2019\Professional\VC\Tools\MSVC\14.29.30133\include\xtree

; 1608 :             _Result._Location._Parent = _Trynode;

  00270	8b f8		 mov	 edi, eax
; File C:\Program Files (x86)\Microsoft Visual Studio\2019\Professional\VC\Tools\MSVC\14.29.30133\include\xstddef

; 127  :         return _Left < _Right;

  00272	39 50 10	 cmp	 DWORD PTR [eax+16], edx
; File C:\Program Files (x86)\Microsoft Visual Studio\2019\Professional\VC\Tools\MSVC\14.29.30133\include\xtree

; 1609 :             if (_DEBUG_LT_PRED(_Getcomp(), _Traits::_Kfn(_Trynode->_Myval), _Keyval)) {

  00275	7d 07		 jge	 SHORT $LN282@ProcessBac

; 1610 :                 _Result._Location._Child = _Tree_child::_Right;
; 1611 :                 _Trynode                 = _Trynode->_Right;

  00277	8b 40 08	 mov	 eax, DWORD PTR [eax+8]
  0027a	33 f6		 xor	 esi, esi

; 1612 :             } else {

  0027c	eb 09		 jmp	 SHORT $LN283@ProcessBac
$LN282@ProcessBac:

; 1613 :                 _Result._Location._Child = _Tree_child::_Left;
; 1614 :                 _Result._Bound           = _Trynode;

  0027e	8b c8		 mov	 ecx, eax
  00280	be 01 00 00 00	 mov	 esi, 1

; 1615 :                 _Trynode                 = _Trynode->_Left;

  00285	8b 00		 mov	 eax, DWORD PTR [eax]
$LN283@ProcessBac:

; 1607 :         while (!_Trynode->_Isnil) {

  00287	80 78 0d 00	 cmp	 BYTE PTR [eax+13], 0
  0028b	74 e3		 je	 SHORT $LL280@ProcessBac
  0028d	8b 45 cc	 mov	 eax, DWORD PTR _this$1$[ebp]
$LN281@ProcessBac:

; 1599 :         return !_Bound->_Isnil && !_DEBUG_LT_PRED(_Getcomp(), _Keyval, _Traits::_Kfn(_Bound->_Myval));

  00290	80 79 0d 00	 cmp	 BYTE PTR [ecx+13], 0
  00294	75 05		 jne	 SHORT $LN289@ProcessBac
; File C:\Program Files (x86)\Microsoft Visual Studio\2019\Professional\VC\Tools\MSVC\14.29.30133\include\xstddef

; 127  :         return _Left < _Right;

  00296	3b 51 10	 cmp	 edx, DWORD PTR [ecx+16]
; File C:\Program Files (x86)\Microsoft Visual Studio\2019\Professional\VC\Tools\MSVC\14.29.30133\include\xtree

; 1599 :         return !_Bound->_Isnil && !_DEBUG_LT_PRED(_Getcomp(), _Keyval, _Traits::_Kfn(_Bound->_Myval));

  00299	7d 5e		 jge	 SHORT $LN609@ProcessBac
$LN289@ProcessBac:

; 1623 :         if (max_size() == _Get_scary()->_Mysize) {

  0029b	81 78 04 aa aa
	aa 0a		 cmp	 DWORD PTR [eax+4], 178956970 ; 0aaaaaaaH
  002a2	0f 84 3f 02 00
	00		 je	 $LN568@ProcessBac
; File C:\Program Files (x86)\Microsoft Visual Studio\2019\Professional\VC\Tools\MSVC\14.29.30133\include\xmemory

; 1012 :     _CONSTEXPR20_DYNALLOC explicit _Alloc_construct_ptr(_Alloc& _Al_) : _Al(_Al_), _Ptr(nullptr) {}

  002a8	89 45 b0	 mov	 DWORD PTR $T7[ebp], eax

; 85   :         return ::operator new(_Bytes);

  002ab	6a 18		 push	 24			; 00000018H
; File C:\Program Files (x86)\Microsoft Visual Studio\2019\Professional\VC\Tools\MSVC\14.29.30133\include\xtree

; 790  :     explicit _Tree_temp_node_alloc(_Alnode& _Al_) : _Alloc_construct_ptr<_Alnode>(_Al_) {

  002ad	c7 45 fc 02 00
	00 00		 mov	 DWORD PTR __$EHRec$[ebp+8], 2
; File C:\Program Files (x86)\Microsoft Visual Studio\2019\Professional\VC\Tools\MSVC\14.29.30133\include\xmemory

; 1019 :         _Ptr = nullptr; // if allocate throws, prevents double-free

  002b4	c7 45 b4 00 00
	00 00		 mov	 DWORD PTR $T7[ebp+4], 0

; 85   :         return ::operator new(_Bytes);

  002bb	e8 00 00 00 00	 call	 ??2@YAPAXI@Z		; operator new
; File C:\Program Files (x86)\Microsoft Visual Studio\2019\Professional\VC\Tools\MSVC\14.29.30133\include\xtree

; 812  :         _Alnode_traits::construct(this->_Al, _STD addressof(this->_Ptr->_Myval), _STD forward<_Valtys>(_Vals)...);

  002c0	8b 4d d0	 mov	 ecx, DWORD PTR $T13[ebp]
; File C:\Program Files (x86)\Microsoft Visual Studio\2019\Professional\VC\Tools\MSVC\14.29.30133\include\xmemory

; 85   :         return ::operator new(_Bytes);

  002c3	83 c4 04	 add	 esp, 4
; File C:\Program Files (x86)\Microsoft Visual Studio\2019\Professional\VC\Tools\MSVC\14.29.30133\include\xtree

; 792  :     }

  002c6	c7 45 fc ff ff
	ff ff		 mov	 DWORD PTR __$EHRec$[ebp+8], -1
; File C:\Program Files (x86)\Microsoft Visual Studio\2019\Professional\VC\Tools\MSVC\14.29.30133\include\utility

; 617  :     _Val         = static_cast<_Other&&>(_New_val);

  002cd	c7 45 b4 00 00
	00 00		 mov	 DWORD PTR $T7[ebp+4], 0
; File C:\Program Files (x86)\Microsoft Visual Studio\2019\Professional\VC\Tools\MSVC\14.29.30133\include\xtree

; 812  :         _Alnode_traits::construct(this->_Al, _STD addressof(this->_Ptr->_Myval), _STD forward<_Valtys>(_Vals)...);

  002d4	89 48 10	 mov	 DWORD PTR [eax+16], ecx
  002d7	8b 4d c4	 mov	 ecx, DWORD PTR $T9[ebp]
  002da	89 48 14	 mov	 DWORD PTR [eax+20], ecx

; 813  :         _Construct_in_place(this->_Ptr->_Left, _Myhead);

  002dd	8b 4d bc	 mov	 ecx, DWORD PTR __Myhead$1$[ebp]
  002e0	89 08		 mov	 DWORD PTR [eax], ecx

; 1039 :         return {_Scary->_Insert_node(_Loc._Location, _Inserted), true};

  002e2	50		 push	 eax

; 814  :         _Construct_in_place(this->_Ptr->_Parent, _Myhead);

  002e3	89 48 04	 mov	 DWORD PTR [eax+4], ecx

; 815  :         _Construct_in_place(this->_Ptr->_Right, _Myhead);

  002e6	89 48 08	 mov	 DWORD PTR [eax+8], ecx

; 1039 :         return {_Scary->_Insert_node(_Loc._Location, _Inserted), true};

  002e9	8b 4d cc	 mov	 ecx, DWORD PTR _this$1$[ebp]
  002ec	56		 push	 esi
  002ed	57		 push	 edi

; 816  :         this->_Ptr->_Color = _Red;

  002ee	66 c7 40 0c 00
	00		 mov	 WORD PTR [eax+12], 0

; 1039 :         return {_Scary->_Insert_node(_Loc._Location, _Inserted), true};

  002f4	e8 00 00 00 00	 call	 ?_Insert_node@?$_Tree_val@U?$_Tree_simple_types@U?$pair@$$CBJPAVCResource@@@std@@@std@@@std@@QAEPAU?$_Tree_node@U?$pair@$$CBJPAVCResource@@@std@@PAX@2@U?$_Tree_id@PAU?$_Tree_node@U?$pair@$$CBJPAVCResource@@@std@@PAX@std@@@2@QAU32@@Z ; std::_Tree_val<std::_Tree_simple_types<std::pair<long const ,CResource *> > >::_Insert_node
$LN609@ProcessBac:
; File C:\Program Files (x86)\Microsoft Visual Studio\2019\Professional\VC\Tools\MSVC\14.29.30133\include\xstring

; 2305 :         const value_type* _Result = _Bx._Buf;

  002f9	8b 7d c8	 mov	 edi, DWORD PTR _this$GSCopy$1$[ebp]
$LN359@ProcessBac:
  002fc	8b 45 c0	 mov	 eax, DWORD PTR _pData$[ebp]
  002ff	8b c8		 mov	 ecx, eax

; 2319 :         return _BUF_SIZE <= _Myres;

  00301	83 78 14 10	 cmp	 DWORD PTR [eax+20], 16	; 00000010H

; 2306 :         if (_Large_string_engaged()) {

  00305	72 02		 jb	 SHORT $LN372@ProcessBac

; 2307 :             _Result = _Unfancy(_Bx._Ptr);

  00307	8b 08		 mov	 ecx, DWORD PTR [eax]
$LN372@ProcessBac:
; File C:\Users\murat\Desktop\Siveps2-1-99-Project\source\client\Client\EterLib\ResourceManager.cpp

; 82   : 		m_WaitingMap.erase(GetCRC32(pData->stFileName.c_str(), pData->stFileName.size()));

  00309	ff 70 10	 push	 DWORD PTR [eax+16]
  0030c	51		 push	 ecx
  0030d	e8 00 00 00 00	 call	 ?GetCRC32@@YAKPBDI@Z	; GetCRC32
; File C:\Program Files (x86)\Microsoft Visual Studio\2019\Professional\VC\Tools\MSVC\14.29.30133\include\xtree

; 1691 :         _Nodeptr _Pnode   = _Scary->_Myhead->_Parent;

  00312	8b 7f 34	 mov	 edi, DWORD PTR [edi+52]
; File C:\Users\murat\Desktop\Siveps2-1-99-Project\source\client\Client\EterLib\ResourceManager.cpp

; 82   : 		m_WaitingMap.erase(GetCRC32(pData->stFileName.c_str(), pData->stFileName.size()));

  00315	83 c4 08	 add	 esp, 8
  00318	89 45 cc	 mov	 DWORD PTR $T12[ebp], eax
; File C:\Program Files (x86)\Microsoft Visual Studio\2019\Professional\VC\Tools\MSVC\14.29.30133\include\xtree

; 1692 :         _Nodeptr _Lonode  = _Scary->_Myhead; // end() if search fails

  0031b	8b f7		 mov	 esi, edi
  0031d	89 7d c4	 mov	 DWORD PTR __Head$1$[ebp], edi
  00320	8b 57 04	 mov	 edx, DWORD PTR [edi+4]
  00323	8b ca		 mov	 ecx, edx
  00325	89 55 bc	 mov	 DWORD PTR __Pnode$2$[ebp], edx

; 1693 :         _Nodeptr _Hinode  = _Scary->_Myhead; // end() if search fails
; 1694 : 
; 1695 :         while (!_Pnode->_Isnil) {

  00328	80 79 0d 00	 cmp	 BYTE PTR [ecx+13], 0
  0032c	75 29		 jne	 SHORT $LN380@ProcessBac
  0032e	8b d0		 mov	 edx, eax
$LL379@ProcessBac:
; File C:\Program Files (x86)\Microsoft Visual Studio\2019\Professional\VC\Tools\MSVC\14.29.30133\include\xstddef

; 127  :         return _Left < _Right;

  00330	8b 41 10	 mov	 eax, DWORD PTR [ecx+16]
  00333	3b c2		 cmp	 eax, edx
; File C:\Program Files (x86)\Microsoft Visual Studio\2019\Professional\VC\Tools\MSVC\14.29.30133\include\xtree

; 1697 :             if (_DEBUG_LT_PRED(_Comp, _Nodekey, _Keyval)) {

  00335	73 05		 jae	 SHORT $LN383@ProcessBac

; 1698 :                 _Pnode = _Pnode->_Right; // descend right subtree

  00337	8b 49 08	 mov	 ecx, DWORD PTR [ecx+8]

; 1699 :             } else { // _Pnode not less than _Keyval, remember it

  0033a	eb 0f		 jmp	 SHORT $LN384@ProcessBac
$LN383@ProcessBac:

; 1700 :                 if (_Hinode->_Isnil && _DEBUG_LT_PRED(_Comp, _Keyval, _Nodekey)) {

  0033c	80 7f 0d 00	 cmp	 BYTE PTR [edi+13], 0
  00340	74 05		 je	 SHORT $LN385@ProcessBac
; File C:\Program Files (x86)\Microsoft Visual Studio\2019\Professional\VC\Tools\MSVC\14.29.30133\include\xstddef

; 127  :         return _Left < _Right;

  00342	3b d0		 cmp	 edx, eax
; File C:\Program Files (x86)\Microsoft Visual Studio\2019\Professional\VC\Tools\MSVC\14.29.30133\include\xtree

; 1700 :                 if (_Hinode->_Isnil && _DEBUG_LT_PRED(_Comp, _Keyval, _Nodekey)) {

  00344	0f 42 f9	 cmovb	 edi, ecx
$LN385@ProcessBac:

; 1701 :                     _Hinode = _Pnode; // _Pnode greater, remember it
; 1702 :                 }
; 1703 : 
; 1704 :                 _Lonode = _Pnode;

  00347	8b f1		 mov	 esi, ecx

; 1705 :                 _Pnode  = _Pnode->_Left; // descend left subtree

  00349	8b 09		 mov	 ecx, DWORD PTR [ecx]
$LN384@ProcessBac:

; 1693 :         _Nodeptr _Hinode  = _Scary->_Myhead; // end() if search fails
; 1694 : 
; 1695 :         while (!_Pnode->_Isnil) {

  0034b	80 79 0d 00	 cmp	 BYTE PTR [ecx+13], 0
  0034f	74 df		 je	 SHORT $LL379@ProcessBac
  00351	8b 55 bc	 mov	 edx, DWORD PTR __Pnode$2$[ebp]
  00354	8b 45 cc	 mov	 eax, DWORD PTR $T12[ebp]
$LN380@ProcessBac:

; 1706 :             }
; 1707 :         }
; 1708 : 
; 1709 :         _Pnode = _Hinode->_Isnil ? _Scary->_Myhead->_Parent : _Hinode->_Left; // continue scan for upper bound

  00357	80 7f 0d 00	 cmp	 BYTE PTR [edi+13], 0
  0035b	75 02		 jne	 SHORT $LN390@ProcessBac
  0035d	8b 17		 mov	 edx, DWORD PTR [edi]
$LN390@ProcessBac:

; 1710 :         while (!_Pnode->_Isnil) {

  0035f	80 7a 0d 00	 cmp	 BYTE PTR [edx+13], 0
  00363	75 14		 jne	 SHORT $LN382@ProcessBac
$LL381@ProcessBac:
; File C:\Program Files (x86)\Microsoft Visual Studio\2019\Professional\VC\Tools\MSVC\14.29.30133\include\xstddef

; 127  :         return _Left < _Right;

  00365	3b 42 10	 cmp	 eax, DWORD PTR [edx+16]
; File C:\Program Files (x86)\Microsoft Visual Studio\2019\Professional\VC\Tools\MSVC\14.29.30133\include\xtree

; 1711 :             if (_DEBUG_LT_PRED(_Getcomp(), _Keyval, _Traits::_Kfn(_Pnode->_Myval))) {

  00368	73 06		 jae	 SHORT $LN386@ProcessBac

; 1712 :                 // _Pnode greater than _Keyval, remember it
; 1713 :                 _Hinode = _Pnode;

  0036a	8b fa		 mov	 edi, edx

; 1714 :                 _Pnode  = _Pnode->_Left; // descend left subtree

  0036c	8b 12		 mov	 edx, DWORD PTR [edx]

; 1715 :             } else {

  0036e	eb 03		 jmp	 SHORT $LN387@ProcessBac
$LN386@ProcessBac:

; 1716 :                 _Pnode = _Pnode->_Right; // descend right subtree

  00370	8b 52 08	 mov	 edx, DWORD PTR [edx+8]
$LN387@ProcessBac:

; 1710 :         while (!_Pnode->_Isnil) {

  00373	80 7a 0d 00	 cmp	 BYTE PTR [edx+13], 0
  00377	74 ec		 je	 SHORT $LL381@ProcessBac
$LN382@ProcessBac:

; 98   :         return _Ptr == _Right._Ptr;

  00379	8b 45 c4	 mov	 eax, DWORD PTR __Head$1$[ebp]

; 1343 :         _Erase_unchecked(_First, _Last);

  0037c	89 75 cc	 mov	 DWORD PTR __First$[ebp], esi

; 98   :         return _Ptr == _Right._Ptr;

  0037f	3b 30		 cmp	 esi, DWORD PTR [eax]

; 1300 :         if (_First == _Begin && _Last._Ptr->_Isnil) {

  00381	75 2a		 jne	 SHORT $LN566@ProcessBac
  00383	80 7f 0d 00	 cmp	 BYTE PTR [edi+13], 0
  00387	74 24		 je	 SHORT $LN566@ProcessBac

; 1351 :         _Scary->_Erase_tree(_Getal(), _Head->_Parent);

  00389	8b 7d c8	 mov	 edi, DWORD PTR _this$GSCopy$1$[ebp]
  0038c	8b f0		 mov	 esi, eax
  0038e	83 c7 34	 add	 edi, 52			; 00000034H
  00391	8b cf		 mov	 ecx, edi
  00393	ff 76 04	 push	 DWORD PTR [esi+4]
  00396	57		 push	 edi
  00397	e8 00 00 00 00	 call	 ??$_Erase_tree@V?$allocator@U?$_Tree_node@U?$pair@$$CBKV?$basic_string@DU?$char_traits@D@std@@V?$allocator@D@2@@std@@@std@@PAX@std@@@std@@@?$_Tree_val@U?$_Tree_simple_types@U?$pair@$$CBKV?$basic_string@DU?$char_traits@D@std@@V?$allocator@D@2@@std@@@std@@@std@@@std@@QAEXAAV?$allocator@U?$_Tree_node@U?$pair@$$CBKV?$basic_string@DU?$char_traits@D@std@@V?$allocator@D@2@@std@@@std@@PAX@std@@@1@PAU?$_Tree_node@U?$pair@$$CBKV?$basic_string@DU?$char_traits@D@std@@V?$allocator@D@2@@std@@@std@@PAX@1@@Z ; std::_Tree_val<std::_Tree_simple_types<std::pair<unsigned long const ,std::basic_string<char,std::char_traits<char>,std::allocator<char> > > > >::_Erase_tree<std::allocator<std::_Tree_node<std::pair<unsigned long const ,std::basic_string<char,std::char_traits<char>,std::allocator<char> > >,void *> > >

; 1352 :         _Head->_Parent  = _Head;

  0039c	89 76 04	 mov	 DWORD PTR [esi+4], esi

; 1353 :         _Head->_Left    = _Head;

  0039f	89 36		 mov	 DWORD PTR [esi], esi

; 1354 :         _Head->_Right   = _Head;

  003a1	89 76 08	 mov	 DWORD PTR [esi+8], esi

; 1355 :         _Scary->_Mysize = 0;

  003a4	c7 47 04 00 00
	00 00		 mov	 DWORD PTR [edi+4], 0

; 1303 :             return _Last._Ptr;

  003ab	eb 2b		 jmp	 SHORT $LN424@ProcessBac
$LN566@ProcessBac:

; 98   :         return _Ptr == _Right._Ptr;

  003ad	3b f7		 cmp	 esi, edi

; 1307 :         while (_First != _Last) {

  003af	74 27		 je	 SHORT $LN424@ProcessBac
$LL423@ProcessBac:

; 68   :         ++*this;

  003b1	8d 4d cc	 lea	 ecx, DWORD PTR __First$[ebp]
  003b4	e8 00 00 00 00	 call	 ??E?$_Tree_unchecked_const_iterator@V?$_Tree_val@U?$_Tree_simple_types@U?$pair@$$CBKV?$basic_string@DU?$char_traits@D@std@@V?$allocator@D@2@@std@@@std@@@std@@@std@@U_Iterator_base0@2@@std@@QAEAAV01@XZ ; std::_Tree_unchecked_const_iterator<std::_Tree_val<std::_Tree_simple_types<std::pair<unsigned long const ,std::basic_string<char,std::char_traits<char>,std::allocator<char> > > > >,std::_Iterator_base0>::operator++

; 1292 :         _Nodeptr _Erasednode = _Scary->_Extract(_Where); // node to erase

  003b9	56		 push	 esi
  003ba	8b 75 c8	 mov	 esi, DWORD PTR _this$GSCopy$1$[ebp]
  003bd	83 c6 34	 add	 esi, 52			; 00000034H
  003c0	8b ce		 mov	 ecx, esi
  003c2	e8 00 00 00 00	 call	 ?_Extract@?$_Tree_val@U?$_Tree_simple_types@U?$pair@$$CBKV?$basic_string@DU?$char_traits@D@std@@V?$allocator@D@2@@std@@@std@@@std@@@std@@QAEPAU?$_Tree_node@U?$pair@$$CBKV?$basic_string@DU?$char_traits@D@std@@V?$allocator@D@2@@std@@@std@@PAX@2@V?$_Tree_unchecked_const_iterator@V?$_Tree_val@U?$_Tree_simple_types@U?$pair@$$CBKV?$basic_string@DU?$char_traits@D@std@@V?$allocator@D@2@@std@@@std@@@std@@@std@@U_Iterator_base0@2@@2@@Z ; std::_Tree_val<std::_Tree_simple_types<std::pair<unsigned long const ,std::basic_string<char,std::char_traits<char>,std::allocator<char> > > > >::_Extract

; 1293 :         _Scary->_Orphan_ptr(_Erasednode);
; 1294 :         _Node::_Freenode(_Getal(), _Erasednode); // delete erased node

  003c7	50		 push	 eax
  003c8	56		 push	 esi
  003c9	e8 00 00 00 00	 call	 ??$_Freenode@V?$allocator@U?$_Tree_node@U?$pair@$$CBKV?$basic_string@DU?$char_traits@D@std@@V?$allocator@D@2@@std@@@std@@PAX@std@@@std@@@?$_Tree_node@U?$pair@$$CBKV?$basic_string@DU?$char_traits@D@std@@V?$allocator@D@2@@std@@@std@@PAX@std@@SAXAAV?$allocator@U?$_Tree_node@U?$pair@$$CBKV?$basic_string@DU?$char_traits@D@std@@V?$allocator@D@2@@std@@@std@@PAX@std@@@1@PAU01@@Z ; std::_Tree_node<std::pair<unsigned long const ,std::basic_string<char,std::char_traits<char>,std::allocator<char> > >,void *>::_Freenode<std::allocator<std::_Tree_node<std::pair<unsigned long const ,std::basic_string<char,std::char_traits<char>,std::allocator<char> > >,void *> > >

; 98   :         return _Ptr == _Right._Ptr;

  003ce	8b 75 cc	 mov	 esi, DWORD PTR __First$[ebp]

; 1294 :         _Node::_Freenode(_Getal(), _Erasednode); // delete erased node

  003d1	83 c4 08	 add	 esp, 8

; 98   :         return _Ptr == _Right._Ptr;

  003d4	3b f7		 cmp	 esi, edi

; 1307 :         while (_First != _Last) {

  003d6	75 d9		 jne	 SHORT $LL423@ProcessBac
$LN424@ProcessBac:
; File C:\Users\murat\Desktop\Siveps2-1-99-Project\source\client\Client\EterLib\ResourceManager.cpp

; 84   : 		delete [] ((char *) pData->pvBuf);

  003d8	8b 45 c0	 mov	 eax, DWORD PTR _pData$[ebp]
  003db	ff b0 5c 01 00
	00		 push	 DWORD PTR [eax+348]
  003e1	e8 00 00 00 00	 call	 ??_V@YAXPAX@Z		; operator delete[]

; 85   : 		delete pData;

  003e6	8b 75 c0	 mov	 esi, DWORD PTR _pData$[ebp]
  003e9	83 c4 04	 add	 esp, 4
  003ec	85 f6		 test	 esi, esi
  003ee	74 5a		 je	 SHORT $LN446@ProcessBac
; File C:\Program Files (x86)\Microsoft Visual Studio\2019\Professional\VC\Tools\MSVC\14.29.30133\include\xstring

; 2319 :         return _BUF_SIZE <= _Myres;

  003f0	8d 4e 18	 lea	 ecx, DWORD PTR [esi+24]
  003f3	e8 00 00 00 00	 call	 ??1CMappedFile@@UAE@XZ	; CMappedFile::~CMappedFile
  003f8	8b 4e 14	 mov	 ecx, DWORD PTR [esi+20]
  003fb	83 f9 10	 cmp	 ecx, 16			; 00000010H

; 4618 :         if (_Mypair._Myval2._Large_string_engaged()) {

  003fe	72 2b		 jb	 SHORT $LN463@ProcessBac
; File C:\Program Files (x86)\Microsoft Visual Studio\2019\Professional\VC\Tools\MSVC\14.29.30133\include\xmemory

; 835  :         _Deallocate<_New_alignof<_Ty>>(_Ptr, sizeof(_Ty) * _Count);

  00400	8b 06		 mov	 eax, DWORD PTR [esi]
; File C:\Program Files (x86)\Microsoft Visual Studio\2019\Professional\VC\Tools\MSVC\14.29.30133\include\xstring

; 4622 :             _Al.deallocate(_Ptr, _Mypair._Myval2._Myres + 1);

  00402	41		 inc	 ecx
; File C:\Program Files (x86)\Microsoft Visual Studio\2019\Professional\VC\Tools\MSVC\14.29.30133\include\xmemory

; 260  :         if (_Bytes >= _Big_allocation_threshold) { // boost the alignment of big allocations to help autovectorization

  00403	81 f9 00 10 00
	00		 cmp	 ecx, 4096		; 00001000H
  00409	72 16		 jb	 SHORT $LN473@ProcessBac

; 158  :     const uintptr_t _Ptr_container   = _Ptr_user[-1];

  0040b	8b 50 fc	 mov	 edx, DWORD PTR [eax-4]
  0040e	83 c1 23	 add	 ecx, 35			; 00000023H

; 159  : 
; 160  :     // If the following asserts, it likely means that we are performing
; 161  :     // an aligned delete on memory coming from an unaligned allocation.
; 162  :     _STL_ASSERT(_Ptr_user[-2] == _Big_allocation_sentinel, "invalid argument");
; 163  : 
; 164  :     // Extra paranoia on aligned allocation/deallocation; ensure _Ptr_container is
; 165  :     // in range [_Min_back_shift, _Non_user_size]
; 166  : #ifdef _DEBUG
; 167  :     constexpr uintptr_t _Min_back_shift = 2 * sizeof(void*);
; 168  : #else // ^^^ _DEBUG ^^^ // vvv !_DEBUG vvv
; 169  :     constexpr uintptr_t _Min_back_shift = sizeof(void*);
; 170  : #endif // _DEBUG
; 171  :     const uintptr_t _Back_shift = reinterpret_cast<uintptr_t>(_Ptr) - _Ptr_container;

  00411	2b c2		 sub	 eax, edx

; 172  :     _STL_VERIFY(_Back_shift >= _Min_back_shift && _Back_shift <= _Non_user_size, "invalid argument");

  00413	83 c0 fc	 add	 eax, -4			; fffffffcH
  00416	83 f8 1f	 cmp	 eax, 31			; 0000001fH
  00419	0f 87 cd 00 00
	00		 ja	 $LN470@ProcessBac

; 173  :     _Ptr = reinterpret_cast<void*>(_Ptr_container);

  0041f	8b c2		 mov	 eax, edx
$LN473@ProcessBac:

; 264  :         ::operator delete(_Ptr, _Bytes);

  00421	51		 push	 ecx
  00422	50		 push	 eax
  00423	e8 00 00 00 00	 call	 ??3@YAXPAXI@Z		; operator delete
  00428	83 c4 08	 add	 esp, 8
$LN463@ProcessBac:
  0042b	68 64 01 00 00	 push	 356			; 00000164H
  00430	56		 push	 esi
; File C:\Program Files (x86)\Microsoft Visual Studio\2019\Professional\VC\Tools\MSVC\14.29.30133\include\xstring

; 4633 :             _Mypair._Myval2._Mysize = 0;

  00431	c7 46 10 00 00
	00 00		 mov	 DWORD PTR [esi+16], 0

; 4634 :             _Mypair._Myval2._Myres  = _BUF_SIZE - 1;

  00438	c7 46 14 0f 00
	00 00		 mov	 DWORD PTR [esi+20], 15	; 0000000fH

; 4635 :             // the _Traits::assign is last so the codegen doesn't think the char write can alias this
; 4636 :             _Traits::assign(_Mypair._Myval2._Bx._Buf[0], _Elem());

  0043f	c6 06 00	 mov	 BYTE PTR [esi], 0
  00442	e8 00 00 00 00	 call	 ??3@YAXPAXI@Z		; operator delete
  00447	83 c4 08	 add	 esp, 8
$LN446@ProcessBac:
; File C:\Users\murat\Desktop\Siveps2-1-99-Project\source\client\Client\EterLib\ResourceManager.cpp

; 65   : 	while (ms_loadingThread.Fetch(&pData))

  0044a	8d 45 c0	 lea	 eax, DWORD PTR _pData$[ebp]
  0044d	b9 00 00 00 00	 mov	 ecx, OFFSET ?ms_loadingThread@CResourceManager@@1VCFileLoaderThread@@A ; CResourceManager::ms_loadingThread
  00452	50		 push	 eax
  00453	e8 00 00 00 00	 call	 ?Fetch@CFileLoaderThread@@QAE_NPAPAUSData@1@@Z ; CFileLoaderThread::Fetch
  00458	84 c0		 test	 al, al
  0045a	0f 85 a0 fd ff
	ff		 jne	 $LL4@ProcessBac
$LN605@ProcessBac:

; 89   : 	long lCurrentTime = ELTimer_GetMSec();

  00460	e8 00 00 00 00	 call	 ?ELTimer_GetMSec@@YAKXZ	; ELTimer_GetMSec
; File C:\Program Files (x86)\Microsoft Visual Studio\2019\Professional\VC\Tools\MSVC\14.29.30133\include\xtree

; 1143 :         return iterator(_Scary->_Myhead->_Left, _Scary);

  00465	8b 7d c8	 mov	 edi, DWORD PTR _this$GSCopy$1$[ebp]
; File C:\Users\murat\Desktop\Siveps2-1-99-Project\source\client\Client\EterLib\ResourceManager.cpp

; 89   : 	long lCurrentTime = ELTimer_GetMSec();

  00468	89 45 bc	 mov	 DWORD PTR _lCurrentTime$1$[ebp], eax
; File C:\Program Files (x86)\Microsoft Visual Studio\2019\Professional\VC\Tools\MSVC\14.29.30133\include\xtree

; 1143 :         return iterator(_Scary->_Myhead->_Left, _Scary);

  0046b	8b 4f 3c	 mov	 ecx, DWORD PTR [edi+60]

; 39   :     _Tree_unchecked_const_iterator(_Nodeptr _Pnode, const _Mytree* _Plist) noexcept : _Ptr(_Pnode) {

  0046e	8b 31		 mov	 esi, DWORD PTR [ecx]
  00470	89 75 d0	 mov	 DWORD PTR _itorRef$[ebp], esi
  00473	3b f1		 cmp	 esi, ecx
; File C:\Users\murat\Desktop\Siveps2-1-99-Project\source\client\Client\EterLib\ResourceManager.cpp

; 93   : 	while (itorRef != m_pResRefDecreaseWaitingMap.end())

  00475	74 55		 je	 SHORT $LN7@ProcessBac
  00477	66 0f 1f 84 00
	00 00 00 00	 npad	 9
$LL6@ProcessBac:

; 94   : 	{
; 95   : 		const long & rCreatingTime = itorRef->first;
; 96   : 
; 97   : 		if (lCurrentTime - rCreatingTime > c_Reference_Decrease_Wait_Time)

  00480	2b 46 10	 sub	 eax, DWORD PTR [esi+16]
  00483	3d 30 75 00 00	 cmp	 eax, 30000		; 00007530H
  00488	7e 2f		 jle	 SHORT $LN12@ProcessBac

; 98   : 		{
; 99   : 			CResource * pResource = itorRef->second;
; 100  : 
; 101  : 			// Decrease Reference Count
; 102  : 			pResource->Release();

  0048a	8b 4e 14	 mov	 ecx, DWORD PTR [esi+20]
  0048d	e8 00 00 00 00	 call	 ?Release@CReferenceObject@@QAEXXZ ; CReferenceObject::Release
; File C:\Program Files (x86)\Microsoft Visual Studio\2019\Professional\VC\Tools\MSVC\14.29.30133\include\xtree

; 1291 :         ++_Successor; // save successor iterator for return

  00492	8d 4d c4	 lea	 ecx, DWORD PTR __Successor$10[ebp]
  00495	89 75 c4	 mov	 DWORD PTR __Successor$10[ebp], esi
  00498	e8 00 00 00 00	 call	 ??E?$_Tree_unchecked_const_iterator@V?$_Tree_val@U?$_Tree_simple_types@U?$pair@$$CBJPAVCResource@@@std@@@std@@@std@@U_Iterator_base0@2@@std@@QAEAAV01@XZ ; std::_Tree_unchecked_const_iterator<std::_Tree_val<std::_Tree_simple_types<std::pair<long const ,CResource *> > >,std::_Iterator_base0>::operator++

; 1292 :         _Nodeptr _Erasednode = _Scary->_Extract(_Where); // node to erase

  0049d	56		 push	 esi
  0049e	8d 4f 3c	 lea	 ecx, DWORD PTR [edi+60]
  004a1	e8 00 00 00 00	 call	 ?_Extract@?$_Tree_val@U?$_Tree_simple_types@U?$pair@$$CBJPAVCResource@@@std@@@std@@@std@@QAEPAU?$_Tree_node@U?$pair@$$CBJPAVCResource@@@std@@PAX@2@V?$_Tree_unchecked_const_iterator@V?$_Tree_val@U?$_Tree_simple_types@U?$pair@$$CBJPAVCResource@@@std@@@std@@@std@@U_Iterator_base0@2@@2@@Z ; std::_Tree_val<std::_Tree_simple_types<std::pair<long const ,CResource *> > >::_Extract
; File C:\Program Files (x86)\Microsoft Visual Studio\2019\Professional\VC\Tools\MSVC\14.29.30133\include\xmemory

; 264  :         ::operator delete(_Ptr, _Bytes);

  004a6	6a 18		 push	 24			; 00000018H
  004a8	50		 push	 eax
  004a9	e8 00 00 00 00	 call	 ??3@YAXPAXI@Z		; operator delete
; File C:\Users\murat\Desktop\Siveps2-1-99-Project\source\client\Client\EterLib\ResourceManager.cpp

; 103  : 			itorRef = m_pResRefDecreaseWaitingMap.erase(itorRef);

  004ae	8b 75 c4	 mov	 esi, DWORD PTR __Successor$10[ebp]
; File C:\Program Files (x86)\Microsoft Visual Studio\2019\Professional\VC\Tools\MSVC\14.29.30133\include\xmemory

; 264  :         ::operator delete(_Ptr, _Bytes);

  004b1	83 c4 08	 add	 esp, 8
; File C:\Users\murat\Desktop\Siveps2-1-99-Project\source\client\Client\EterLib\ResourceManager.cpp

; 103  : 			itorRef = m_pResRefDecreaseWaitingMap.erase(itorRef);

  004b4	89 75 d0	 mov	 DWORD PTR _itorRef$[ebp], esi

; 104  : 			//Tracef("Decrease Pre Loading Resource\n", rCreatingTime);
; 105  : 		}

  004b7	eb 0b		 jmp	 SHORT $LN556@ProcessBac
$LN12@ProcessBac:
; File C:\Program Files (x86)\Microsoft Visual Studio\2019\Professional\VC\Tools\MSVC\14.29.30133\include\xtree

; 202  :         _Mybase::operator++();

  004b9	8d 4d d0	 lea	 ecx, DWORD PTR _itorRef$[ebp]
  004bc	e8 00 00 00 00	 call	 ??E?$_Tree_unchecked_const_iterator@V?$_Tree_val@U?$_Tree_simple_types@U?$pair@$$CBJPAVCResource@@@std@@@std@@@std@@U_Iterator_base0@2@@std@@QAEAAV01@XZ ; std::_Tree_unchecked_const_iterator<std::_Tree_val<std::_Tree_simple_types<std::pair<long const ,CResource *> > >,std::_Iterator_base0>::operator++
  004c1	8b 75 d0	 mov	 esi, DWORD PTR _itorRef$[ebp]
$LN556@ProcessBac:
; File C:\Users\murat\Desktop\Siveps2-1-99-Project\source\client\Client\EterLib\ResourceManager.cpp

; 93   : 	while (itorRef != m_pResRefDecreaseWaitingMap.end())

  004c4	8b 45 bc	 mov	 eax, DWORD PTR _lCurrentTime$1$[ebp]
; File C:\Program Files (x86)\Microsoft Visual Studio\2019\Professional\VC\Tools\MSVC\14.29.30133\include\xtree

; 236  :         return this->_Ptr == _Right._Ptr;

  004c7	3b 77 3c	 cmp	 esi, DWORD PTR [edi+60]
; File C:\Users\murat\Desktop\Siveps2-1-99-Project\source\client\Client\EterLib\ResourceManager.cpp

; 93   : 	while (itorRef != m_pResRefDecreaseWaitingMap.end())

  004ca	75 b4		 jne	 SHORT $LL6@ProcessBac
$LN7@ProcessBac:

; 109  : }

  004cc	8b 4d f4	 mov	 ecx, DWORD PTR __$EHRec$[ebp]
  004cf	64 89 0d 00 00
	00 00		 mov	 DWORD PTR fs:0, ecx
  004d6	59		 pop	 ecx
  004d7	5f		 pop	 edi
  004d8	5e		 pop	 esi
  004d9	8b 4d f0	 mov	 ecx, DWORD PTR __$ArrayPad$[ebp]
  004dc	33 cd		 xor	 ecx, ebp
  004de	e8 00 00 00 00	 call	 @__security_check_cookie@4
  004e3	8b e5		 mov	 esp, ebp
  004e5	5d		 pop	 ebp
  004e6	c3		 ret	 0
$LN568@ProcessBac:
  004e7	e8 00 00 00 00	 call	 ?_Throw_tree_length_error@std@@YAXXZ ; std::_Throw_tree_length_error
$LN470@ProcessBac:
; File C:\Program Files (x86)\Microsoft Visual Studio\2019\Professional\VC\Tools\MSVC\14.29.30133\include\xmemory

; 172  :     _STL_VERIFY(_Back_shift >= _Min_back_shift && _Back_shift <= _Non_user_size, "invalid argument");

  004ec	e8 00 00 00 00	 call	 __invalid_parameter_noinfo_noreturn
$LN611@ProcessBac:
  004f1	cc		 int	 3
_TEXT	ENDS
;	COMDAT text$x
text$x	SEGMENT
__unwindfunclet$?ProcessBackgroundLoading@CResourceManager@@QAEXXZ$0:
  00000	8d 4d d4	 lea	 ecx, DWORD PTR $T16[ebp]
  00003	e9 00 00 00 00	 jmp	 ??1?$pair@$$CBKV?$basic_string@DU?$char_traits@D@std@@V?$allocator@D@2@@std@@@std@@QAE@XZ
__unwindfunclet$?ProcessBackgroundLoading@CResourceManager@@QAEXXZ$4:
  00008	8d 4d b8	 lea	 ecx, DWORD PTR $T8[ebp]
  0000b	e9 00 00 00 00	 jmp	 ??1?$_Alloc_construct_ptr@V?$allocator@U?$_Tree_node@U?$pair@$$CBKV?$basic_string@DU?$char_traits@D@std@@V?$allocator@D@2@@std@@@std@@PAX@std@@@std@@@std@@QAE@XZ ; std::_Alloc_construct_ptr<std::allocator<std::_Tree_node<std::pair<unsigned long const ,std::basic_string<char,std::char_traits<char>,std::allocator<char> > >,void *> > >::~_Alloc_construct_ptr<std::allocator<std::_Tree_node<std::pair<unsigned long const ,std::basic_string<char,std::char_traits<char>,std::allocator<char> > >,void *> > >
__unwindfunclet$?ProcessBackgroundLoading@CResourceManager@@QAEXXZ$15:
  00010	8d 4d b0	 lea	 ecx, DWORD PTR $T7[ebp]
  00013	e9 00 00 00 00	 jmp	 ??1?$_Alloc_construct_ptr@V?$allocator@U?$_Tree_node@U?$pair@$$CBJPAVCResource@@@std@@PAX@std@@@std@@@std@@QAE@XZ ; std::_Alloc_construct_ptr<std::allocator<std::_Tree_node<std::pair<long const ,CResource *>,void *> > >::~_Alloc_construct_ptr<std::allocator<std::_Tree_node<std::pair<long const ,CResource *>,void *> > >
  00018	cc		 int	 3
  00019	cc		 int	 3
  0001a	cc		 int	 3
  0001b	cc		 int	 3
  0001c	cc		 int	 3
__ehhandler$?ProcessBackgroundLoading@CResourceManager@@QAEXXZ:
  0001d	90		 npad	 1
  0001e	90		 npad	 1
  0001f	8b 54 24 08	 mov	 edx, DWORD PTR [esp+8]
  00023	8d 42 0c	 lea	 eax, DWORD PTR [edx+12]
  00026	8b 4a 94	 mov	 ecx, DWORD PTR [edx-108]
  00029	33 c8		 xor	 ecx, eax
  0002b	e8 00 00 00 00	 call	 @__security_check_cookie@4
  00030	8b 4a fc	 mov	 ecx, DWORD PTR [edx-4]
  00033	33 c8		 xor	 ecx, eax
  00035	e8 00 00 00 00	 call	 @__security_check_cookie@4
  0003a	b8 00 00 00 00	 mov	 eax, OFFSET __ehfuncinfo$?ProcessBackgroundLoading@CResourceManager@@QAEXXZ
  0003f	e9 00 00 00 00	 jmp	 ___CxxFrameHandler3
text$x	ENDS
?ProcessBackgroundLoading@CResourceManager@@QAEXXZ ENDP	; CResourceManager::ProcessBackgroundLoading
; Function compile flags: /Ogtp
; File C:\Users\murat\Desktop\Siveps2-1-99-Project\source\client\Client\EterLib\ResourceManager.cpp
; File C:\Program Files (x86)\Microsoft Visual Studio\2019\Professional\VC\Tools\MSVC\14.29.30133\include\xtree
; File C:\Users\murat\Desktop\Siveps2-1-99-Project\source\client\Client\EterLib\ResourceManager.cpp
; File C:\Program Files (x86)\Microsoft Visual Studio\2019\Professional\VC\Tools\MSVC\14.29.30133\include\xtree
; File C:\Users\murat\Desktop\Siveps2-1-99-Project\source\client\Client\EterLib\ResourceManager.cpp
; File C:\Program Files (x86)\Microsoft Visual Studio\2019\Professional\VC\Tools\MSVC\14.29.30133\include\xtree
; File C:\Users\murat\Desktop\Siveps2-1-99-Project\source\client\Client\EterLib\ResourceManager.cpp
; File C:\Program Files (x86)\Microsoft Visual Studio\2019\Professional\VC\Tools\MSVC\14.29.30133\include\xtree
; File C:\Program Files (x86)\Microsoft Visual Studio\2019\Professional\VC\Tools\MSVC\14.29.30133\include\xstddef
; File C:\Program Files (x86)\Microsoft Visual Studio\2019\Professional\VC\Tools\MSVC\14.29.30133\include\xtree
; File C:\Program Files (x86)\Microsoft Visual Studio\2019\Professional\VC\Tools\MSVC\14.29.30133\include\xstddef
; File C:\Program Files (x86)\Microsoft Visual Studio\2019\Professional\VC\Tools\MSVC\14.29.30133\include\xtree
; File C:\Program Files (x86)\Microsoft Visual Studio\2019\Professional\VC\Tools\MSVC\14.29.30133\include\xstddef
; File C:\Program Files (x86)\Microsoft Visual Studio\2019\Professional\VC\Tools\MSVC\14.29.30133\include\xtree
; File C:\Program Files (x86)\Microsoft Visual Studio\2019\Professional\VC\Tools\MSVC\14.29.30133\include\xmemory
; File C:\Program Files (x86)\Microsoft Visual Studio\2019\Professional\VC\Tools\MSVC\14.29.30133\include\xtree
; File C:\Program Files (x86)\Microsoft Visual Studio\2019\Professional\VC\Tools\MSVC\14.29.30133\include\xmemory
; File C:\Program Files (x86)\Microsoft Visual Studio\2019\Professional\VC\Tools\MSVC\14.29.30133\include\xtree
; File C:\Program Files (x86)\Microsoft Visual Studio\2019\Professional\VC\Tools\MSVC\14.29.30133\include\xmemory
; File C:\Program Files (x86)\Microsoft Visual Studio\2019\Professional\VC\Tools\MSVC\14.29.30133\include\xtree
; File C:\Users\murat\Desktop\Siveps2-1-99-Project\source\client\Client\EterLib\ResourceManager.cpp
; File C:\Program Files (x86)\Microsoft Visual Studio\2019\Professional\VC\Tools\MSVC\14.29.30133\include\xtree
; File C:\Users\murat\Desktop\Siveps2-1-99-Project\source\client\Client\EterLib\ResourceManager.cpp
;	COMDAT ?ReserveDeletingResource@CResourceManager@@QAEXPAVCResource@@@Z
_TEXT	SEGMENT
$T4 = -28						; size = 8
__Myhead$1$ = -20					; size = 4
$T5 = -16						; size = 4
__$EHRec$ = -12						; size = 12
_this$1$ = 8						; size = 4
_pResource$ = 8						; size = 4
?ReserveDeletingResource@CResourceManager@@QAEXPAVCResource@@@Z PROC ; CResourceManager::ReserveDeletingResource, COMDAT
; _this$ = ecx

; 511  : {

  00000	55		 push	 ebp
  00001	8b ec		 mov	 ebp, esp
  00003	6a ff		 push	 -1
  00005	68 00 00 00 00	 push	 __ehhandler$?ReserveDeletingResource@CResourceManager@@QAEXPAVCResource@@@Z
  0000a	64 a1 00 00 00
	00		 mov	 eax, DWORD PTR fs:0
  00010	50		 push	 eax
  00011	83 ec 10	 sub	 esp, 16			; 00000010H
  00014	53		 push	 ebx
  00015	56		 push	 esi
  00016	57		 push	 edi
  00017	a1 00 00 00 00	 mov	 eax, DWORD PTR ___security_cookie
  0001c	33 c5		 xor	 eax, ebp
  0001e	50		 push	 eax
  0001f	8d 45 f4	 lea	 eax, DWORD PTR __$EHRec$[ebp]
  00022	64 a3 00 00 00
	00		 mov	 DWORD PTR fs:0, eax
  00028	8b f1		 mov	 esi, ecx
  0002a	8b 7d 08	 mov	 edi, DWORD PTR _pResource$[ebp]

; 512  : 	DWORD dwCurrentTime = ELTimer_GetMSec();

  0002d	e8 00 00 00 00	 call	 ?ELTimer_GetMSec@@YAKXZ	; ELTimer_GetMSec
; File C:\Program Files (x86)\Microsoft Visual Studio\2019\Professional\VC\Tools\MSVC\14.29.30133\include\xtree

; 1605 :         _Tree_find_result<_Nodeptr> _Result{{_Scary->_Myhead->_Parent, _Tree_child::_Right}, _Scary->_Myhead};

  00032	8b 4e 24	 mov	 ecx, DWORD PTR [esi+36]
; File C:\Users\murat\Desktop\Siveps2-1-99-Project\source\client\Client\EterLib\ResourceManager.cpp

; 513  : 	m_ResourceDeletingMap.insert(TResourceDeletingMap::value_type(pResource, dwCurrentTime + c_Deleting_Wait_Time));

  00035	05 30 75 00 00	 add	 eax, 30000		; 00007530H
  0003a	89 45 f0	 mov	 DWORD PTR $T5[ebp], eax
; File C:\Program Files (x86)\Microsoft Visual Studio\2019\Professional\VC\Tools\MSVC\14.29.30133\include\xtree

; 1605 :         _Tree_find_result<_Nodeptr> _Result{{_Scary->_Myhead->_Parent, _Tree_child::_Right}, _Scary->_Myhead};

  0003d	8b d1		 mov	 edx, ecx
; File C:\Users\murat\Desktop\Siveps2-1-99-Project\source\client\Client\EterLib\ResourceManager.cpp

; 513  : 	m_ResourceDeletingMap.insert(TResourceDeletingMap::value_type(pResource, dwCurrentTime + c_Deleting_Wait_Time));

  0003f	8d 46 24	 lea	 eax, DWORD PTR [esi+36]
; File C:\Program Files (x86)\Microsoft Visual Studio\2019\Professional\VC\Tools\MSVC\14.29.30133\include\xtree

; 1605 :         _Tree_find_result<_Nodeptr> _Result{{_Scary->_Myhead->_Parent, _Tree_child::_Right}, _Scary->_Myhead};

  00042	89 4d ec	 mov	 DWORD PTR __Myhead$1$[ebp], ecx
  00045	33 f6		 xor	 esi, esi
; File C:\Users\murat\Desktop\Siveps2-1-99-Project\source\client\Client\EterLib\ResourceManager.cpp

; 513  : 	m_ResourceDeletingMap.insert(TResourceDeletingMap::value_type(pResource, dwCurrentTime + c_Deleting_Wait_Time));

  00047	89 45 08	 mov	 DWORD PTR _this$1$[ebp], eax
; File C:\Program Files (x86)\Microsoft Visual Studio\2019\Professional\VC\Tools\MSVC\14.29.30133\include\xtree

; 1605 :         _Tree_find_result<_Nodeptr> _Result{{_Scary->_Myhead->_Parent, _Tree_child::_Right}, _Scary->_Myhead};

  0004a	8b 59 04	 mov	 ebx, DWORD PTR [ecx+4]

; 1606 :         _Nodeptr _Trynode = _Result._Location._Parent;
; 1607 :         while (!_Trynode->_Isnil) {

  0004d	80 7b 0d 00	 cmp	 BYTE PTR [ebx+13], 0
  00051	75 1e		 jne	 SHORT $LN13@ReserveDel
; File C:\Program Files (x86)\Microsoft Visual Studio\2019\Professional\VC\Tools\MSVC\14.29.30133\include\xstddef

; 127  :         return _Left < _Right;

  00053	8b c3		 mov	 eax, ebx
$LL12@ReserveDel:
; File C:\Program Files (x86)\Microsoft Visual Studio\2019\Professional\VC\Tools\MSVC\14.29.30133\include\xtree

; 1608 :             _Result._Location._Parent = _Trynode;

  00055	8b d8		 mov	 ebx, eax
; File C:\Program Files (x86)\Microsoft Visual Studio\2019\Professional\VC\Tools\MSVC\14.29.30133\include\xstddef

; 127  :         return _Left < _Right;

  00057	39 78 10	 cmp	 DWORD PTR [eax+16], edi
; File C:\Program Files (x86)\Microsoft Visual Studio\2019\Professional\VC\Tools\MSVC\14.29.30133\include\xtree

; 1609 :             if (_DEBUG_LT_PRED(_Getcomp(), _Traits::_Kfn(_Trynode->_Myval), _Keyval)) {

  0005a	73 05		 jae	 SHORT $LN14@ReserveDel

; 1610 :                 _Result._Location._Child = _Tree_child::_Right;
; 1611 :                 _Trynode                 = _Trynode->_Right;

  0005c	8b 40 08	 mov	 eax, DWORD PTR [eax+8]

; 1612 :             } else {

  0005f	eb 04		 jmp	 SHORT $LN15@ReserveDel
$LN14@ReserveDel:

; 1613 :                 _Result._Location._Child = _Tree_child::_Left;
; 1614 :                 _Result._Bound           = _Trynode;

  00061	8b d0		 mov	 edx, eax

; 1615 :                 _Trynode                 = _Trynode->_Left;

  00063	8b 00		 mov	 eax, DWORD PTR [eax]
$LN15@ReserveDel:

; 1606 :         _Nodeptr _Trynode = _Result._Location._Parent;
; 1607 :         while (!_Trynode->_Isnil) {

  00065	1b f6		 sbb	 esi, esi
  00067	46		 inc	 esi
  00068	80 78 0d 00	 cmp	 BYTE PTR [eax+13], 0
  0006c	74 e7		 je	 SHORT $LL12@ReserveDel
  0006e	8b 45 08	 mov	 eax, DWORD PTR _this$1$[ebp]
$LN13@ReserveDel:

; 1599 :         return !_Bound->_Isnil && !_DEBUG_LT_PRED(_Getcomp(), _Keyval, _Traits::_Kfn(_Bound->_Myval));

  00071	80 7a 0d 00	 cmp	 BYTE PTR [edx+13], 0
  00075	75 05		 jne	 SHORT $LN21@ReserveDel
; File C:\Program Files (x86)\Microsoft Visual Studio\2019\Professional\VC\Tools\MSVC\14.29.30133\include\xstddef

; 127  :         return _Left < _Right;

  00077	3b 7a 10	 cmp	 edi, DWORD PTR [edx+16]
; File C:\Program Files (x86)\Microsoft Visual Studio\2019\Professional\VC\Tools\MSVC\14.29.30133\include\xtree

; 1599 :         return !_Bound->_Isnil && !_DEBUG_LT_PRED(_Getcomp(), _Keyval, _Traits::_Kfn(_Bound->_Myval));

  0007a	73 49		 jae	 SHORT $LN91@ReserveDel
$LN21@ReserveDel:

; 1623 :         if (max_size() == _Get_scary()->_Mysize) {

  0007c	81 78 04 aa aa
	aa 0a		 cmp	 DWORD PTR [eax+4], 178956970 ; 0aaaaaaaH
  00083	74 54		 je	 SHORT $LN110@ReserveDel
; File C:\Program Files (x86)\Microsoft Visual Studio\2019\Professional\VC\Tools\MSVC\14.29.30133\include\xmemory

; 1012 :     _CONSTEXPR20_DYNALLOC explicit _Alloc_construct_ptr(_Alloc& _Al_) : _Al(_Al_), _Ptr(nullptr) {}

  00085	89 45 e4	 mov	 DWORD PTR $T4[ebp], eax

; 85   :         return ::operator new(_Bytes);

  00088	6a 18		 push	 24			; 00000018H
; File C:\Program Files (x86)\Microsoft Visual Studio\2019\Professional\VC\Tools\MSVC\14.29.30133\include\xtree

; 790  :     explicit _Tree_temp_node_alloc(_Alnode& _Al_) : _Alloc_construct_ptr<_Alnode>(_Al_) {

  0008a	c7 45 fc 00 00
	00 00		 mov	 DWORD PTR __$EHRec$[ebp+8], 0
; File C:\Program Files (x86)\Microsoft Visual Studio\2019\Professional\VC\Tools\MSVC\14.29.30133\include\xmemory

; 1019 :         _Ptr = nullptr; // if allocate throws, prevents double-free

  00091	c7 45 e8 00 00
	00 00		 mov	 DWORD PTR $T4[ebp+4], 0

; 85   :         return ::operator new(_Bytes);

  00098	e8 00 00 00 00	 call	 ??2@YAPAXI@Z		; operator new
; File C:\Program Files (x86)\Microsoft Visual Studio\2019\Professional\VC\Tools\MSVC\14.29.30133\include\xtree

; 812  :         _Alnode_traits::construct(this->_Al, _STD addressof(this->_Ptr->_Myval), _STD forward<_Valtys>(_Vals)...);

  0009d	8b 4d f0	 mov	 ecx, DWORD PTR $T5[ebp]
; File C:\Program Files (x86)\Microsoft Visual Studio\2019\Professional\VC\Tools\MSVC\14.29.30133\include\xmemory

; 85   :         return ::operator new(_Bytes);

  000a0	83 c4 04	 add	 esp, 4
; File C:\Program Files (x86)\Microsoft Visual Studio\2019\Professional\VC\Tools\MSVC\14.29.30133\include\xtree

; 812  :         _Alnode_traits::construct(this->_Al, _STD addressof(this->_Ptr->_Myval), _STD forward<_Valtys>(_Vals)...);

  000a3	89 78 10	 mov	 DWORD PTR [eax+16], edi
  000a6	89 48 14	 mov	 DWORD PTR [eax+20], ecx

; 813  :         _Construct_in_place(this->_Ptr->_Left, _Myhead);

  000a9	8b 4d ec	 mov	 ecx, DWORD PTR __Myhead$1$[ebp]
  000ac	89 08		 mov	 DWORD PTR [eax], ecx

; 1039 :         return {_Scary->_Insert_node(_Loc._Location, _Inserted), true};

  000ae	50		 push	 eax

; 814  :         _Construct_in_place(this->_Ptr->_Parent, _Myhead);

  000af	89 48 04	 mov	 DWORD PTR [eax+4], ecx

; 815  :         _Construct_in_place(this->_Ptr->_Right, _Myhead);

  000b2	89 48 08	 mov	 DWORD PTR [eax+8], ecx

; 1039 :         return {_Scary->_Insert_node(_Loc._Location, _Inserted), true};

  000b5	8b 4d 08	 mov	 ecx, DWORD PTR _this$1$[ebp]
  000b8	56		 push	 esi
  000b9	53		 push	 ebx

; 816  :         this->_Ptr->_Color = _Red;

  000ba	66 c7 40 0c 00
	00		 mov	 WORD PTR [eax+12], 0

; 1039 :         return {_Scary->_Insert_node(_Loc._Location, _Inserted), true};

  000c0	e8 00 00 00 00	 call	 ?_Insert_node@?$_Tree_val@U?$_Tree_simple_types@U?$pair@QAVCResource@@K@std@@@std@@@std@@QAEPAU?$_Tree_node@U?$pair@QAVCResource@@K@std@@PAX@2@U?$_Tree_id@PAU?$_Tree_node@U?$pair@QAVCResource@@K@std@@PAX@std@@@2@QAU32@@Z ; std::_Tree_val<std::_Tree_simple_types<std::pair<CResource * const,unsigned long> > >::_Insert_node
$LN91@ReserveDel:
; File C:\Users\murat\Desktop\Siveps2-1-99-Project\source\client\Client\EterLib\ResourceManager.cpp

; 514  : }

  000c5	8b 4d f4	 mov	 ecx, DWORD PTR __$EHRec$[ebp]
  000c8	64 89 0d 00 00
	00 00		 mov	 DWORD PTR fs:0, ecx
  000cf	59		 pop	 ecx
  000d0	5f		 pop	 edi
  000d1	5e		 pop	 esi
  000d2	5b		 pop	 ebx
  000d3	8b e5		 mov	 esp, ebp
  000d5	5d		 pop	 ebp
  000d6	c2 04 00	 ret	 4
$LN110@ReserveDel:
; File C:\Program Files (x86)\Microsoft Visual Studio\2019\Professional\VC\Tools\MSVC\14.29.30133\include\xtree

; 1624 :             _Throw_tree_length_error();

  000d9	e8 00 00 00 00	 call	 ?_Throw_tree_length_error@std@@YAXXZ ; std::_Throw_tree_length_error
$LN108@ReserveDel:
  000de	cc		 int	 3
_TEXT	ENDS
;	COMDAT text$x
text$x	SEGMENT
__unwindfunclet$?ReserveDeletingResource@CResourceManager@@QAEXPAVCResource@@@Z$2:
  00000	8d 4d e4	 lea	 ecx, DWORD PTR $T4[ebp]
  00003	e9 00 00 00 00	 jmp	 ??1?$_Alloc_construct_ptr@V?$allocator@U?$_Tree_node@U?$pair@QAVCResource@@K@std@@PAX@std@@@std@@@std@@QAE@XZ ; std::_Alloc_construct_ptr<std::allocator<std::_Tree_node<std::pair<CResource * const,unsigned long>,void *> > >::~_Alloc_construct_ptr<std::allocator<std::_Tree_node<std::pair<CResource * const,unsigned long>,void *> > >
  00008	cc		 int	 3
  00009	cc		 int	 3
  0000a	cc		 int	 3
  0000b	cc		 int	 3
  0000c	cc		 int	 3
__ehhandler$?ReserveDeletingResource@CResourceManager@@QAEXPAVCResource@@@Z:
  0000d	90		 npad	 1
  0000e	90		 npad	 1
  0000f	8b 54 24 08	 mov	 edx, DWORD PTR [esp+8]
  00013	8d 42 0c	 lea	 eax, DWORD PTR [edx+12]
  00016	8b 4a e0	 mov	 ecx, DWORD PTR [edx-32]
  00019	33 c8		 xor	 ecx, eax
  0001b	e8 00 00 00 00	 call	 @__security_check_cookie@4
  00020	b8 00 00 00 00	 mov	 eax, OFFSET __ehfuncinfo$?ReserveDeletingResource@CResourceManager@@QAEXPAVCResource@@@Z
  00025	e9 00 00 00 00	 jmp	 ___CxxFrameHandler3
text$x	ENDS
?ReserveDeletingResource@CResourceManager@@QAEXPAVCResource@@@Z ENDP ; CResourceManager::ReserveDeletingResource
; Function compile flags: /Ogtp
; File C:\Users\murat\Desktop\Siveps2-1-99-Project\source\client\Client\EterLib\ResourceManager.cpp
; File C:\Program Files (x86)\Microsoft Visual Studio\2019\Professional\VC\Tools\MSVC\14.29.30133\include\xtree
; File C:\Users\murat\Desktop\Siveps2-1-99-Project\source\client\Client\EterLib\ResourceManager.cpp
; File C:\Program Files (x86)\Microsoft Visual Studio\2019\Professional\VC\Tools\MSVC\14.29.30133\include\xtree
; File C:\Users\murat\Desktop\Siveps2-1-99-Project\source\client\Client\EterLib\ResourceManager.cpp
; File C:\Program Files (x86)\Microsoft Visual Studio\2019\Professional\VC\Tools\MSVC\14.29.30133\include\xtree
; File C:\Program Files (x86)\Microsoft Visual Studio\2019\Professional\VC\Tools\MSVC\14.29.30133\include\xmemory
; File C:\Users\murat\Desktop\Siveps2-1-99-Project\source\client\Client\EterLib\ResourceManager.cpp
; File C:\Program Files (x86)\Microsoft Visual Studio\2019\Professional\VC\Tools\MSVC\14.29.30133\include\xmemory
; File C:\Users\murat\Desktop\Siveps2-1-99-Project\source\client\Client\EterLib\ResourceManager.cpp
; File C:\Program Files (x86)\Microsoft Visual Studio\2019\Professional\VC\Tools\MSVC\14.29.30133\include\xtree
; File C:\Users\murat\Desktop\Siveps2-1-99-Project\source\client\Client\EterLib\ResourceManager.cpp
; File C:\Program Files (x86)\Microsoft Visual Studio\2019\Professional\VC\Tools\MSVC\14.29.30133\include\xtree
; File C:\Users\murat\Desktop\Siveps2-1-99-Project\source\client\Client\EterLib\ResourceManager.cpp
;	COMDAT ?Update@CResourceManager@@QAEXXZ
_TEXT	SEGMENT
_CurrentTime$1$ = -12					; size = 4
_Count$1$ = -8						; size = 4
__Successor$1 = -4					; size = 4
_itor$ = -4						; size = 4
?Update@CResourceManager@@QAEXXZ PROC			; CResourceManager::Update, COMDAT
; _this$ = ecx

; 479  : {

  00000	55		 push	 ebp
  00001	8b ec		 mov	 ebp, esp
  00003	83 ec 10	 sub	 esp, 16			; 00000010H
  00006	53		 push	 ebx
  00007	56		 push	 esi
  00008	8b d9		 mov	 ebx, ecx

; 480  : 	DWORD CurrentTime = ELTimer_GetMSec();

  0000a	e8 00 00 00 00	 call	 ?ELTimer_GetMSec@@YAKXZ	; ELTimer_GetMSec
; File C:\Program Files (x86)\Microsoft Visual Studio\2019\Professional\VC\Tools\MSVC\14.29.30133\include\xtree

; 1143 :         return iterator(_Scary->_Myhead->_Left, _Scary);

  0000f	8b 53 24	 mov	 edx, DWORD PTR [ebx+36]
; File C:\Users\murat\Desktop\Siveps2-1-99-Project\source\client\Client\EterLib\ResourceManager.cpp

; 480  : 	DWORD CurrentTime = ELTimer_GetMSec();

  00012	89 45 f4	 mov	 DWORD PTR _CurrentTime$1$[ebp], eax

; 481  : 	CResource * pResource;
; 482  : 	int Count = 0;

  00015	c7 45 f8 00 00
	00 00		 mov	 DWORD PTR _Count$1$[ebp], 0
; File C:\Program Files (x86)\Microsoft Visual Studio\2019\Professional\VC\Tools\MSVC\14.29.30133\include\xtree

; 39   :     _Tree_unchecked_const_iterator(_Nodeptr _Pnode, const _Mytree* _Plist) noexcept : _Ptr(_Pnode) {

  0001c	8b 32		 mov	 esi, DWORD PTR [edx]
  0001e	89 75 fc	 mov	 DWORD PTR _itor$[ebp], esi
  00021	3b f2		 cmp	 esi, edx
; File C:\Users\murat\Desktop\Siveps2-1-99-Project\source\client\Client\EterLib\ResourceManager.cpp

; 486  : 	while (itor != m_ResourceDeletingMap.end())

  00023	74 62		 je	 SHORT $LN91@Update
  00025	57		 push	 edi
$LL2@Update:

; 487  : 	{
; 488  : 		pResource = itor->first;

  00026	8b 7e 10	 mov	 edi, DWORD PTR [esi+16]

; 489  : 
; 490  : 		if (CurrentTime >= itor->second)

  00029	3b 46 14	 cmp	 eax, DWORD PTR [esi+20]
  0002c	72 45		 jb	 SHORT $LN4@Update

; 491  : 		{
; 492  : 			if (pResource->canDestroy())

  0002e	8b cf		 mov	 ecx, edi
  00030	e8 00 00 00 00	 call	 ?canDestroy@CReferenceObject@@QAE_NXZ ; CReferenceObject::canDestroy
  00035	84 c0		 test	 al, al
  00037	74 07		 je	 SHORT $LN6@Update

; 493  : 			{
; 494  : 				//Tracef("Resource Clear %s\n", pResource->GetFileName());
; 495  : 				pResource->Clear();

  00039	8b cf		 mov	 ecx, edi
  0003b	e8 00 00 00 00	 call	 ?Clear@CResource@@QAEXXZ ; CResource::Clear
$LN6@Update:
; File C:\Program Files (x86)\Microsoft Visual Studio\2019\Professional\VC\Tools\MSVC\14.29.30133\include\xtree

; 1291 :         ++_Successor; // save successor iterator for return

  00040	8d 4d fc	 lea	 ecx, DWORD PTR __Successor$1[ebp]
  00043	89 75 fc	 mov	 DWORD PTR __Successor$1[ebp], esi
  00046	e8 00 00 00 00	 call	 ??E?$_Tree_unchecked_const_iterator@V?$_Tree_val@U?$_Tree_simple_types@U?$pair@QAVCResource@@K@std@@@std@@@std@@U_Iterator_base0@2@@std@@QAEAAV01@XZ ; std::_Tree_unchecked_const_iterator<std::_Tree_val<std::_Tree_simple_types<std::pair<CResource * const,unsigned long> > >,std::_Iterator_base0>::operator++

; 1292 :         _Nodeptr _Erasednode = _Scary->_Extract(_Where); // node to erase

  0004b	56		 push	 esi
  0004c	8d 4b 24	 lea	 ecx, DWORD PTR [ebx+36]
  0004f	e8 00 00 00 00	 call	 ?_Extract@?$_Tree_val@U?$_Tree_simple_types@U?$pair@QAVCResource@@K@std@@@std@@@std@@QAEPAU?$_Tree_node@U?$pair@QAVCResource@@K@std@@PAX@2@V?$_Tree_unchecked_const_iterator@V?$_Tree_val@U?$_Tree_simple_types@U?$pair@QAVCResource@@K@std@@@std@@@std@@U_Iterator_base0@2@@2@@Z ; std::_Tree_val<std::_Tree_simple_types<std::pair<CResource * const,unsigned long> > >::_Extract
; File C:\Program Files (x86)\Microsoft Visual Studio\2019\Professional\VC\Tools\MSVC\14.29.30133\include\xmemory

; 264  :         ::operator delete(_Ptr, _Bytes);

  00054	6a 18		 push	 24			; 00000018H
  00056	50		 push	 eax
  00057	e8 00 00 00 00	 call	 ??3@YAXPAXI@Z		; operator delete
; File C:\Users\murat\Desktop\Siveps2-1-99-Project\source\client\Client\EterLib\ResourceManager.cpp

; 500  : 			if (++Count >= c_DeletingCountPerFrame)

  0005c	8b 45 f8	 mov	 eax, DWORD PTR _Count$1$[ebp]
; File C:\Program Files (x86)\Microsoft Visual Studio\2019\Professional\VC\Tools\MSVC\14.29.30133\include\xmemory

; 264  :         ::operator delete(_Ptr, _Bytes);

  0005f	83 c4 08	 add	 esp, 8
; File C:\Users\murat\Desktop\Siveps2-1-99-Project\source\client\Client\EterLib\ResourceManager.cpp

; 498  : 			itor = m_ResourceDeletingMap.erase(itor);

  00062	8b 75 fc	 mov	 esi, DWORD PTR __Successor$1[ebp]

; 500  : 			if (++Count >= c_DeletingCountPerFrame)

  00065	40		 inc	 eax
  00066	89 75 fc	 mov	 DWORD PTR _itor$[ebp], esi
  00069	89 45 f8	 mov	 DWORD PTR _Count$1$[ebp], eax
  0006c	83 f8 1e	 cmp	 eax, 30			; 0000001eH
  0006f	7d 15		 jge	 SHORT $LN92@Update

; 501  : 				break;
; 502  : 		}

  00071	eb 0b		 jmp	 SHORT $LN86@Update
$LN4@Update:
; File C:\Program Files (x86)\Microsoft Visual Studio\2019\Professional\VC\Tools\MSVC\14.29.30133\include\xtree

; 202  :         _Mybase::operator++();

  00073	8d 4d fc	 lea	 ecx, DWORD PTR _itor$[ebp]
  00076	e8 00 00 00 00	 call	 ??E?$_Tree_unchecked_const_iterator@V?$_Tree_val@U?$_Tree_simple_types@U?$pair@QAVCResource@@K@std@@@std@@@std@@U_Iterator_base0@2@@std@@QAEAAV01@XZ ; std::_Tree_unchecked_const_iterator<std::_Tree_val<std::_Tree_simple_types<std::pair<CResource * const,unsigned long> > >,std::_Iterator_base0>::operator++
  0007b	8b 75 fc	 mov	 esi, DWORD PTR _itor$[ebp]
$LN86@Update:
; File C:\Users\murat\Desktop\Siveps2-1-99-Project\source\client\Client\EterLib\ResourceManager.cpp

; 486  : 	while (itor != m_ResourceDeletingMap.end())

  0007e	8b 45 f4	 mov	 eax, DWORD PTR _CurrentTime$1$[ebp]
; File C:\Program Files (x86)\Microsoft Visual Studio\2019\Professional\VC\Tools\MSVC\14.29.30133\include\xtree

; 236  :         return this->_Ptr == _Right._Ptr;

  00081	3b 73 24	 cmp	 esi, DWORD PTR [ebx+36]
; File C:\Users\murat\Desktop\Siveps2-1-99-Project\source\client\Client\EterLib\ResourceManager.cpp

; 486  : 	while (itor != m_ResourceDeletingMap.end())

  00084	75 a0		 jne	 SHORT $LL2@Update
$LN92@Update:
  00086	5f		 pop	 edi
$LN91@Update:

; 503  : 		else
; 504  : 			++itor;
; 505  : 	}
; 506  : 
; 507  : 	ProcessBackgroundLoading();

  00087	8b cb		 mov	 ecx, ebx
  00089	e8 00 00 00 00	 call	 ?ProcessBackgroundLoading@CResourceManager@@QAEXXZ ; CResourceManager::ProcessBackgroundLoading
  0008e	5e		 pop	 esi
  0008f	5b		 pop	 ebx

; 508  : }

  00090	8b e5		 mov	 esp, ebp
  00092	5d		 pop	 ebp
  00093	c3		 ret	 0
?Update@CResourceManager@@QAEXXZ ENDP			; CResourceManager::Update
_TEXT	ENDS
; Function compile flags: /Ogtp
; File C:\Users\murat\Desktop\Siveps2-1-99-Project\source\client\Client\EterLib\ResourceManager.cpp
;	COMDAT ?IsFileExist@CResourceManager@@QAE_NPBD@Z
_TEXT	SEGMENT
_c_szFileName$ = 8					; size = 4
?IsFileExist@CResourceManager@@QAE_NPBD@Z PROC		; CResourceManager::IsFileExist, COMDAT
; _this$ = ecx

; 474  : {

  00000	55		 push	 ebp
  00001	8b ec		 mov	 ebp, esp

; 475  : 	return CEterPackManager::Instance().isExist(c_szFileName);

  00003	8b 0d 00 00 00
	00		 mov	 ecx, DWORD PTR ?ms_singleton@?$CSingleton@VCEterPackManager@@@@0PAVCEterPackManager@@A ; CSingleton<CEterPackManager>::ms_singleton

; 476  : }

  00009	5d		 pop	 ebp

; 475  : 	return CEterPackManager::Instance().isExist(c_szFileName);

  0000a	e9 00 00 00 00	 jmp	 ?isExist@CEterPackManager@@QAE_NPBD@Z ; CEterPackManager::isExist
?IsFileExist@CResourceManager@@QAE_NPBD@Z ENDP		; CResourceManager::IsFileExist
_TEXT	ENDS
; Function compile flags: /Ogtp
; File C:\Users\murat\Desktop\Siveps2-1-99-Project\source\client\Client\EterLib\ResourceManager.cpp
; File C:\Program Files (x86)\Microsoft Visual Studio\2019\Professional\VC\Tools\MSVC\14.29.30133\include\vector
; File C:\Users\murat\Desktop\Siveps2-1-99-Project\source\client\Client\EterLib\ResourceManager.cpp
; File C:\Program Files (x86)\Microsoft Visual Studio\2019\Professional\VC\Tools\MSVC\14.29.30133\include\xtree
; File C:\Users\murat\Desktop\Siveps2-1-99-Project\source\client\Client\EterLib\ResourceManager.cpp
; File C:\Program Files (x86)\Microsoft Visual Studio\2019\Professional\VC\Tools\MSVC\14.29.30133\include\xstring
; File C:\Users\murat\Desktop\Siveps2-1-99-Project\source\client\Client\EterLib\ResourceManager.cpp
; File C:\Program Files (x86)\Microsoft Visual Studio\2019\Professional\VC\Tools\MSVC\14.29.30133\include\vector
; File C:\Program Files (x86)\Microsoft Visual Studio\2019\Professional\VC\Tools\MSVC\14.29.30133\include\xmemory
; File C:\Program Files (x86)\Microsoft Visual Studio\2019\Professional\VC\Tools\MSVC\14.29.30133\include\vector
; File C:\Program Files (x86)\Microsoft Visual Studio\2019\Professional\VC\Tools\MSVC\14.29.30133\include\xtree
; File C:\Users\murat\Desktop\Siveps2-1-99-Project\source\client\Client\EterLib\ResourceManager.cpp
; File C:\Program Files (x86)\Microsoft Visual Studio\2019\Professional\VC\Tools\MSVC\14.29.30133\include\algorithm
; File C:\Program Files (x86)\Microsoft Visual Studio\2019\Professional\VC\Tools\MSVC\14.29.30133\include\vector
; File C:\Program Files (x86)\Microsoft Visual Studio\2019\Professional\VC\Tools\MSVC\14.29.30133\include\algorithm
; File C:\Users\murat\Desktop\Siveps2-1-99-Project\source\client\Client\EterLib\ResourceManager.cpp
; File C:\Program Files (x86)\Microsoft Visual Studio\2019\Professional\VC\Tools\MSVC\14.29.30133\include\vector
; File C:\Program Files (x86)\Microsoft Visual Studio\2019\Professional\VC\Tools\MSVC\14.29.30133\include\algorithm
; File C:\Users\murat\Desktop\Siveps2-1-99-Project\source\client\Client\EterLib\ResourceManager.cpp
; File C:\Program Files (x86)\Microsoft Visual Studio\2019\Professional\VC\Tools\MSVC\14.29.30133\include\algorithm
; File C:\Users\murat\Desktop\Siveps2-1-99-Project\source\client\Client\EterLib\ResourceManager.cpp
; File C:\Program Files (x86)\Microsoft Visual Studio\2019\Professional\VC\Tools\MSVC\14.29.30133\include\algorithm
; File C:\Users\murat\Desktop\Siveps2-1-99-Project\source\client\Client\EterLib\ResourceManager.cpp
; File C:\Program Files (x86)\Microsoft Visual Studio\2019\Professional\VC\Tools\MSVC\14.29.30133\include\algorithm
; File C:\Users\murat\Desktop\Siveps2-1-99-Project\source\client\Client\EterLib\ResourceManager.cpp
; File C:\Program Files (x86)\Microsoft Visual Studio\2019\Professional\VC\Tools\MSVC\14.29.30133\include\algorithm
; File C:\Users\murat\Desktop\Siveps2-1-99-Project\source\client\Client\EterLib\ResourceManager.cpp
; File C:\Program Files (x86)\Microsoft Visual Studio\2019\Professional\VC\Tools\MSVC\14.29.30133\include\algorithm
; File C:\Users\murat\Desktop\Siveps2-1-99-Project\source\client\Client\EterLib\ResourceManager.cpp
; File C:\Program Files (x86)\Microsoft Visual Studio\2019\Professional\VC\Tools\MSVC\14.29.30133\include\algorithm
; File C:\Users\murat\Desktop\Siveps2-1-99-Project\source\client\Client\EterLib\ResourceManager.cpp
; File C:\Program Files (x86)\Microsoft Visual Studio\2019\Professional\VC\Tools\MSVC\14.29.30133\include\algorithm
; File C:\Users\murat\Desktop\Siveps2-1-99-Project\source\client\Client\EterLib\ResourceManager.cpp
; File C:\Program Files (x86)\Microsoft Visual Studio\2019\Professional\VC\Tools\MSVC\14.29.30133\include\vector
; File C:\Program Files (x86)\Microsoft Visual Studio\2019\Professional\VC\Tools\MSVC\14.29.30133\include\xmemory
; File C:\Users\murat\Desktop\Siveps2-1-99-Project\source\client\Client\EterLib\ResourceManager.cpp
; File C:\Program Files (x86)\Microsoft Visual Studio\2019\Professional\VC\Tools\MSVC\14.29.30133\include\xmemory
; File C:\Users\murat\Desktop\Siveps2-1-99-Project\source\client\Client\EterLib\ResourceManager.cpp
;	COMDAT ?DumpFileListToTextFile@CResourceManager@@QAEXPBD@Z
_TEXT	SEGMENT
_data$2 = -56						; size = 12
_dumpVector$ = -44					; size = 12
tv1116 = -32						; size = 4
_this$1$ = -32						; size = 4
_fp2$1$ = -28						; size = 4
_ext$1$ = -28						; size = 4
_dumpVector$2$ = -24					; size = 4
__Ptr$1$ = -20						; size = 4
_filesize$1$ = -20					; size = 4
_pResource$1$ = -16					; size = 4
__$EHRec$ = -12						; size = 12
_fp$1$ = 8						; size = 4
_c_szFileName$ = 8					; size = 4
?DumpFileListToTextFile@CResourceManager@@QAEXPBD@Z PROC ; CResourceManager::DumpFileListToTextFile, COMDAT
; _this$ = ecx

; 410  : {

  00000	55		 push	 ebp
  00001	8b ec		 mov	 ebp, esp
  00003	6a ff		 push	 -1
  00005	68 00 00 00 00	 push	 __ehhandler$?DumpFileListToTextFile@CResourceManager@@QAEXPBD@Z
  0000a	64 a1 00 00 00
	00		 mov	 eax, DWORD PTR fs:0
  00010	50		 push	 eax
  00011	83 ec 2c	 sub	 esp, 44			; 0000002cH
  00014	53		 push	 ebx
  00015	56		 push	 esi
  00016	57		 push	 edi
  00017	a1 00 00 00 00	 mov	 eax, DWORD PTR ___security_cookie
  0001c	33 c5		 xor	 eax, ebp
  0001e	50		 push	 eax
  0001f	8d 45 f4	 lea	 eax, DWORD PTR __$EHRec$[ebp]
  00022	64 a3 00 00 00
	00		 mov	 DWORD PTR fs:0, eax
  00028	89 4d e0	 mov	 DWORD PTR _this$1$[ebp], ecx
; File C:\Program Files (x86)\Microsoft Visual Studio\2019\Professional\VC\Tools\MSVC\14.29.30133\include\vector

; 401  :     _CONSTEXPR20_CONTAINER _Vector_val() noexcept : _Myfirst(), _Mylast(), _Myend() {}

  0002b	33 db		 xor	 ebx, ebx
  0002d	33 c0		 xor	 eax, eax
  0002f	33 ff		 xor	 edi, edi
  00031	89 5d ec	 mov	 DWORD PTR __Ptr$1$[ebp], ebx
  00034	89 5d d4	 mov	 DWORD PTR _dumpVector$[ebp], ebx
  00037	89 7d d8	 mov	 DWORD PTR _dumpVector$[ebp+4], edi
  0003a	89 45 e8	 mov	 DWORD PTR _dumpVector$2$[ebp], eax
  0003d	89 45 dc	 mov	 DWORD PTR _dumpVector$[ebp+8], eax
; File C:\Users\murat\Desktop\Siveps2-1-99-Project\source\client\Client\EterLib\ResourceManager.cpp

; 411  : 	std::vector<TDumpData> dumpVector;

  00040	89 45 fc	 mov	 DWORD PTR __$EHRec$[ebp+8], eax
; File C:\Program Files (x86)\Microsoft Visual Studio\2019\Professional\VC\Tools\MSVC\14.29.30133\include\xtree

; 1143 :         return iterator(_Scary->_Myhead->_Left, _Scary);

  00043	8b 41 0c	 mov	 eax, DWORD PTR [ecx+12]

; 39   :     _Tree_unchecked_const_iterator(_Nodeptr _Pnode, const _Mytree* _Plist) noexcept : _Ptr(_Pnode) {

  00046	8b 30		 mov	 esi, DWORD PTR [eax]
  00048	3b f0		 cmp	 esi, eax
; File C:\Users\murat\Desktop\Siveps2-1-99-Project\source\client\Client\EterLib\ResourceManager.cpp

; 413  : 	for (TResourcePointerMap::iterator i = m_pResMap.begin(); i != m_pResMap.end(); ++i)

  0004a	0f 84 4e 01 00
	00		 je	 $LN3@DumpFileLi
$LL35@DumpFileLi:

; 414  : 	{
; 415  : 		CResource* pResource = i->second;

  00050	8b 5e 14	 mov	 ebx, DWORD PTR [esi+20]

; 416  : 		TDumpData data;
; 417  : 
; 418  : 		if (pResource->IsEmpty())

  00053	8b cb		 mov	 ecx, ebx
  00055	89 5d f0	 mov	 DWORD PTR _pResource$1$[ebp], ebx
  00058	e8 00 00 00 00	 call	 ?IsEmpty@CResource@@QBE_NXZ ; CResource::IsEmpty
  0005d	84 c0		 test	 al, al
  0005f	0f 85 e8 00 00
	00		 jne	 $LN2@DumpFileLi
; File C:\Program Files (x86)\Microsoft Visual Studio\2019\Professional\VC\Tools\MSVC\14.29.30133\include\xstring

; 3922 :         return _Mypair._Myval2._Myptr();

  00065	83 c3 0c	 add	 ebx, 12			; 0000000cH

; 2319 :         return _BUF_SIZE <= _Myres;

  00068	83 7b 14 10	 cmp	 DWORD PTR [ebx+20], 16	; 00000010H

; 2306 :         if (_Large_string_engaged()) {

  0006c	72 02		 jb	 SHORT $LN64@DumpFileLi

; 2307 :             _Result = _Unfancy(_Bx._Ptr);

  0006e	8b 1b		 mov	 ebx, DWORD PTR [ebx]
$LN64@DumpFileLi:
; File C:\Users\murat\Desktop\Siveps2-1-99-Project\source\client\Client\EterLib\ResourceManager.cpp

; 425  : 		const char * ext = strrchr(data.filename, '.');

  00070	6a 2e		 push	 46			; 0000002eH
  00072	53		 push	 ebx
  00073	89 5d c8	 mov	 DWORD PTR _data$2[ebp], ebx
  00076	e8 00 00 00 00	 call	 _strrchr
  0007b	83 c4 08	 add	 esp, 8
  0007e	89 45 e4	 mov	 DWORD PTR _ext$1$[ebp], eax

; 426  : 
; 427  : 		if (pResource->IsType(CGraphicImage::Type()) && strnicmp(ext, ".sub", 4))

  00081	e8 00 00 00 00	 call	 ?Type@CGraphicImage@@SAKXZ ; CGraphicImage::Type
  00086	8b 4d f0	 mov	 ecx, DWORD PTR _pResource$1$[ebp]
  00089	50		 push	 eax
  0008a	e8 00 00 00 00	 call	 ?IsType@CResource@@QAE_NK@Z ; CResource::IsType
  0008f	84 c0		 test	 al, al
  00091	74 34		 je	 SHORT $LN6@DumpFileLi
  00093	6a 04		 push	 4
  00095	68 00 00 00 00	 push	 OFFSET ??_C@_04DLFHDFGL@?4sub@
  0009a	ff 75 e4	 push	 DWORD PTR _ext$1$[ebp]
  0009d	e8 00 00 00 00	 call	 __strnicmp
  000a2	83 c4 0c	 add	 esp, 12			; 0000000cH
  000a5	85 c0		 test	 eax, eax
  000a7	74 1e		 je	 SHORT $LN6@DumpFileLi

; 428  : 			filesize = ((CGraphicImage*) pResource)->GetWidth() * ((CGraphicImage*) pResource)->GetHeight() * 4;

  000a9	8b 4d f0	 mov	 ecx, DWORD PTR _pResource$1$[ebp]
  000ac	e8 00 00 00 00	 call	 ?GetWidth@CGraphicImage@@QBEHXZ ; CGraphicImage::GetWidth
  000b1	8b 4d f0	 mov	 ecx, DWORD PTR _pResource$1$[ebp]
  000b4	89 45 ec	 mov	 DWORD PTR _filesize$1$[ebp], eax
  000b7	e8 00 00 00 00	 call	 ?GetHeight@CGraphicImage@@QBEHXZ ; CGraphicImage::GetHeight
  000bc	8b 4d ec	 mov	 ecx, DWORD PTR _filesize$1$[ebp]
  000bf	0f af c8	 imul	 ecx, eax
  000c2	c1 e1 02	 shl	 ecx, 2
  000c5	eb 3c		 jmp	 SHORT $LN9@DumpFileLi
$LN6@DumpFileLi:

; 429  : 		else
; 430  : 		{
; 431  : 			FILE * fp2 = fopen(data.filename, "rb");

  000c7	68 00 00 00 00	 push	 OFFSET ??_C@_02JDPG@rb@
  000cc	53		 push	 ebx
  000cd	e8 00 00 00 00	 call	 _fopen
  000d2	83 c4 08	 add	 esp, 8
  000d5	89 45 e4	 mov	 DWORD PTR _fp2$1$[ebp], eax

; 432  : 
; 433  : 			if (fp2)

  000d8	85 c0		 test	 eax, eax
  000da	74 25		 je	 SHORT $LN8@DumpFileLi

; 434  : 			{
; 435  : 				fseek(fp2, 0L, SEEK_END);

  000dc	6a 02		 push	 2
  000de	6a 00		 push	 0
  000e0	50		 push	 eax
  000e1	e8 00 00 00 00	 call	 _fseek

; 436  : 				filesize = ftell(fp2);

  000e6	ff 75 e4	 push	 DWORD PTR _fp2$1$[ebp]
  000e9	e8 00 00 00 00	 call	 _ftell

; 437  : 				fclose(fp2);

  000ee	ff 75 e4	 push	 DWORD PTR _fp2$1$[ebp]
  000f1	89 45 ec	 mov	 DWORD PTR _filesize$1$[ebp], eax
  000f4	e8 00 00 00 00	 call	 _fclose

; 438  : 			}

  000f9	8b 4d ec	 mov	 ecx, DWORD PTR _filesize$1$[ebp]
  000fc	83 c4 14	 add	 esp, 20			; 00000014H
  000ff	eb 02		 jmp	 SHORT $LN9@DumpFileLi
$LN8@DumpFileLi:

; 439  : 			else
; 440  : 				filesize = 0;

  00101	33 c9		 xor	 ecx, ecx
$LN9@DumpFileLi:

; 441  : 		}
; 442  : 
; 443  : 		data.KB = (float) filesize / (float) 1024;
; 444  : 		data.cost = pResource->GetLoadCostMilliSecond();

  00103	8b 45 f0	 mov	 eax, DWORD PTR _pResource$1$[ebp]
  00106	66 0f 6e c1	 movd	 xmm0, ecx
  0010a	0f 5b c0	 cvtdq2ps xmm0, xmm0
  0010d	8b 40 24	 mov	 eax, DWORD PTR [eax+36]
  00110	89 45 d0	 mov	 DWORD PTR _data$2[ebp+8], eax
  00113	f3 0f 59 05 00
	00 00 00	 mulss	 xmm0, DWORD PTR __real@3a800000
  0011b	f3 0f 11 45 cc	 movss	 DWORD PTR _data$2[ebp+4], xmm0
; File C:\Program Files (x86)\Microsoft Visual Studio\2019\Professional\VC\Tools\MSVC\14.29.30133\include\vector

; 743  :         if (_Mylast != _My_data._Myend) {

  00120	3b 7d e8	 cmp	 edi, DWORD PTR _dumpVector$2$[ebp]
  00123	74 12		 je	 SHORT $LN71@DumpFileLi
; File C:\Program Files (x86)\Microsoft Visual Studio\2019\Professional\VC\Tools\MSVC\14.29.30133\include\xmemory

; 714  :             ::new (_Voidify_iter(_Ptr)) _Objty(_STD forward<_Types>(_Args)...);

  00125	89 1f		 mov	 DWORD PTR [edi], ebx
  00127	f3 0f 11 47 04	 movss	 DWORD PTR [edi+4], xmm0
  0012c	89 47 08	 mov	 DWORD PTR [edi+8], eax
; File C:\Program Files (x86)\Microsoft Visual Studio\2019\Professional\VC\Tools\MSVC\14.29.30133\include\vector

; 729  :         ++_Mylast;

  0012f	83 c7 0c	 add	 edi, 12			; 0000000cH
  00132	89 7d d8	 mov	 DWORD PTR _dumpVector$[ebp+4], edi

; 744  :             return _Emplace_back_with_unused_capacity(_STD forward<_Valty>(_Val)...);

  00135	eb 16		 jmp	 SHORT $LN2@DumpFileLi
$LN71@DumpFileLi:

; 745  :         }
; 746  : 
; 747  :         _Ty& _Result = *_Emplace_reallocate(_Mylast, _STD forward<_Valty>(_Val)...);

  00137	8d 45 c8	 lea	 eax, DWORD PTR _data$2[ebp]
  0013a	50		 push	 eax
  0013b	57		 push	 edi
  0013c	8d 4d d4	 lea	 ecx, DWORD PTR _dumpVector$[ebp]
  0013f	e8 00 00 00 00	 call	 ??$_Emplace_reallocate@ABUSDumpData@@@?$vector@USDumpData@@V?$allocator@USDumpData@@@std@@@std@@QAEPAUSDumpData@@QAU2@ABU2@@Z ; std::vector<SDumpData,std::allocator<SDumpData> >::_Emplace_reallocate<SDumpData const &>
  00144	8b 45 dc	 mov	 eax, DWORD PTR _dumpVector$[ebp+8]
  00147	8b 7d d8	 mov	 edi, DWORD PTR _dumpVector$[ebp+4]
  0014a	89 45 e8	 mov	 DWORD PTR _dumpVector$2$[ebp], eax
$LN2@DumpFileLi:
; File C:\Program Files (x86)\Microsoft Visual Studio\2019\Professional\VC\Tools\MSVC\14.29.30133\include\xtree

; 52   :         if (_Ptr->_Right->_Isnil) { // climb looking for right subtree

  0014d	8b 46 08	 mov	 eax, DWORD PTR [esi+8]
  00150	80 78 0d 00	 cmp	 BYTE PTR [eax+13], 0
  00154	74 1e		 je	 SHORT $LN34@DumpFileLi

; 53   :             _Nodeptr _Pnode;
; 54   :             while (!(_Pnode = _Ptr->_Parent)->_Isnil && _Ptr == _Pnode->_Right) {

  00156	8b 46 04	 mov	 eax, DWORD PTR [esi+4]
  00159	80 78 0d 00	 cmp	 BYTE PTR [eax+13], 0
  0015d	75 11		 jne	 SHORT $LN193@DumpFileLi
  0015f	90		 npad	 1
$LL32@DumpFileLi:
  00160	3b 70 08	 cmp	 esi, DWORD PTR [eax+8]
  00163	75 0b		 jne	 SHORT $LN193@DumpFileLi

; 55   :                 _Ptr = _Pnode; // ==> parent while right subtree

  00165	8b f0		 mov	 esi, eax
  00167	8b 40 04	 mov	 eax, DWORD PTR [eax+4]
  0016a	80 78 0d 00	 cmp	 BYTE PTR [eax+13], 0
  0016e	74 f0		 je	 SHORT $LL32@DumpFileLi
$LN193@DumpFileLi:

; 56   :             }
; 57   : 
; 58   :             _Ptr = _Pnode; // ==> parent (head if end())

  00170	8b f0		 mov	 esi, eax

; 59   :         } else {

  00172	eb 18		 jmp	 SHORT $LN39@DumpFileLi
$LN34@DumpFileLi:

; 60   :             _Ptr = _Mytree::_Min(_Ptr->_Right); // ==> smallest of right subtree

  00174	8b f0		 mov	 esi, eax

; 457  :         while (!_Pnode->_Left->_Isnil) {

  00176	8b 0e		 mov	 ecx, DWORD PTR [esi]
  00178	80 79 0d 00	 cmp	 BYTE PTR [ecx+13], 0
  0017c	75 0e		 jne	 SHORT $LN39@DumpFileLi
  0017e	66 90		 npad	 2
$LL38@DumpFileLi:
  00180	8b 01		 mov	 eax, DWORD PTR [ecx]

; 458  :             _Pnode = _Pnode->_Left;

  00182	8b f1		 mov	 esi, ecx
  00184	8b c8		 mov	 ecx, eax
  00186	80 78 0d 00	 cmp	 BYTE PTR [eax+13], 0
  0018a	74 f4		 je	 SHORT $LL38@DumpFileLi
$LN39@DumpFileLi:

; 236  :         return this->_Ptr == _Right._Ptr;

  0018c	8b 45 e0	 mov	 eax, DWORD PTR _this$1$[ebp]
  0018f	3b 70 0c	 cmp	 esi, DWORD PTR [eax+12]
; File C:\Users\murat\Desktop\Siveps2-1-99-Project\source\client\Client\EterLib\ResourceManager.cpp

; 413  : 	for (TResourcePointerMap::iterator i = m_pResMap.begin(); i != m_pResMap.end(); ++i)

  00192	0f 85 b8 fe ff
	ff		 jne	 $LL35@DumpFileLi
  00198	8b 5d d4	 mov	 ebx, DWORD PTR _dumpVector$[ebp]
  0019b	89 5d ec	 mov	 DWORD PTR __Ptr$1$[ebp], ebx
$LN3@DumpFileLi:

; 445  : 
; 446  : 		dumpVector.push_back(data);
; 447  : 	}
; 448  : 
; 449  : 	FILE * fp = fopen(c_szFileName, "w");

  0019e	68 00 00 00 00	 push	 OFFSET ??_C@_01NOFIACDB@w@
  001a3	ff 75 08	 push	 DWORD PTR _c_szFileName$[ebp]
  001a6	e8 00 00 00 00	 call	 _fopen
  001ab	83 c4 08	 add	 esp, 8
  001ae	89 45 08	 mov	 DWORD PTR _fp$1$[ebp], eax

; 450  : 
; 451  : 	if (fp)

  001b1	85 c0		 test	 eax, eax
  001b3	0f 84 08 01 00
	00		 je	 $LN10@DumpFileLi
; File C:\Program Files (x86)\Microsoft Visual Studio\2019\Professional\VC\Tools\MSVC\14.29.30133\include\algorithm

; 7399 :     _Sort_unchecked(_UFirst, _ULast, _ULast - _UFirst, _Pass_fn(_Pred));

  001b9	8b cf		 mov	 ecx, edi
  001bb	b8 ab aa aa 2a	 mov	 eax, 715827883		; 2aaaaaabH
  001c0	2b cb		 sub	 ecx, ebx
  001c2	f7 e9		 imul	 ecx
  001c4	68 00 00 00 00	 push	 OFFSET ?DumpKBCompare@@YA_NABUSDumpData@@0@Z ; DumpKBCompare
  001c9	d1 fa		 sar	 edx, 1
  001cb	8b c2		 mov	 eax, edx
  001cd	c1 e8 1f	 shr	 eax, 31			; 0000001fH
  001d0	03 c2		 add	 eax, edx
  001d2	50		 push	 eax
  001d3	57		 push	 edi
  001d4	53		 push	 ebx
  001d5	89 45 e0	 mov	 DWORD PTR tv1116[ebp], eax
  001d8	e8 00 00 00 00	 call	 ??$_Sort_unchecked@PAUSDumpData@@P6A_NABU1@0@Z@std@@YAXPAUSDumpData@@0HP6A_NABU1@1@Z@Z ; std::_Sort_unchecked<SDumpData *,bool (__cdecl*)(SDumpData const &,SDumpData const &)>
; File C:\Program Files (x86)\Microsoft Visual Studio\2019\Professional\VC\Tools\MSVC\14.29.30133\include\vector

; 1486 :         return iterator(_My_data._Mylast, _STD addressof(_My_data));

  001dd	8b f3		 mov	 esi, ebx
; File C:\Program Files (x86)\Microsoft Visual Studio\2019\Professional\VC\Tools\MSVC\14.29.30133\include\algorithm

; 7399 :     _Sort_unchecked(_UFirst, _ULast, _ULast - _UFirst, _Pass_fn(_Pred));

  001df	83 c4 10	 add	 esp, 16			; 00000010H
  001e2	0f 57 c9	 xorps	 xmm1, xmm1
; File C:\Users\murat\Desktop\Siveps2-1-99-Project\source\client\Client\EterLib\ResourceManager.cpp

; 457  : 		DumpPrint.m_totalKB = 0;

  001e5	f3 0f 11 0d 00
	00 00 00	 movss	 DWORD PTR ?m_totalKB@FDumpPrint@@2MA, xmm1
; File C:\Program Files (x86)\Microsoft Visual Studio\2019\Professional\VC\Tools\MSVC\14.29.30133\include\vector

; 1486 :         return iterator(_My_data._Mylast, _STD addressof(_My_data));

  001ed	3b f7		 cmp	 esi, edi
; File C:\Program Files (x86)\Microsoft Visual Studio\2019\Professional\VC\Tools\MSVC\14.29.30133\include\algorithm

; 270  :     for (; _UFirst != _ULast; ++_UFirst) {

  001ef	74 46		 je	 SHORT $LN105@DumpFileLi
  001f1	8b 5d 08	 mov	 ebx, DWORD PTR _fp$1$[ebp]
$LL106@DumpFileLi:
; File C:\Users\murat\Desktop\Siveps2-1-99-Project\source\client\Client\EterLib\ResourceManager.cpp

; 392  : 		m_totalKB += data.KB;

  001f4	f3 0f 10 46 04	 movss	 xmm0, DWORD PTR [esi+4]
  001f9	f3 0f 58 c1	 addss	 xmm0, xmm1
  001fd	f3 0f 11 05 00
	00 00 00	 movss	 DWORD PTR ?m_totalKB@FDumpPrint@@2MA, xmm0

; 393  : 		fprintf(m_fp, "%6.1f %s\n", data.KB, data.filename);

  00205	ff 36		 push	 DWORD PTR [esi]
  00207	f3 0f 10 46 04	 movss	 xmm0, DWORD PTR [esi+4]
  0020c	0f 5a c0	 cvtps2pd xmm0, xmm0
  0020f	83 ec 08	 sub	 esp, 8
  00212	f2 0f 11 04 24	 movsd	 QWORD PTR [esp], xmm0
  00217	68 00 00 00 00	 push	 OFFSET ??_C@_09COBKJKAL@?$CF6?41f?5?$CFs?6@
  0021c	53		 push	 ebx
  0021d	e8 00 00 00 00	 call	 _fprintf
; File C:\Program Files (x86)\Microsoft Visual Studio\2019\Professional\VC\Tools\MSVC\14.29.30133\include\algorithm

; 270  :     for (; _UFirst != _ULast; ++_UFirst) {

  00222	f3 0f 10 0d 00
	00 00 00	 movss	 xmm1, DWORD PTR ?m_totalKB@FDumpPrint@@2MA
  0022a	83 c6 0c	 add	 esi, 12			; 0000000cH
; File C:\Users\murat\Desktop\Siveps2-1-99-Project\source\client\Client\EterLib\ResourceManager.cpp

; 393  : 		fprintf(m_fp, "%6.1f %s\n", data.KB, data.filename);

  0022d	83 c4 14	 add	 esp, 20			; 00000014H
; File C:\Program Files (x86)\Microsoft Visual Studio\2019\Professional\VC\Tools\MSVC\14.29.30133\include\algorithm

; 270  :     for (; _UFirst != _ULast; ++_UFirst) {

  00230	3b f7		 cmp	 esi, edi
  00232	75 c0		 jne	 SHORT $LL106@DumpFileLi
  00234	8b 5d ec	 mov	 ebx, DWORD PTR __Ptr$1$[ebp]
$LN105@DumpFileLi:
; File C:\Users\murat\Desktop\Siveps2-1-99-Project\source\client\Client\EterLib\ResourceManager.cpp

; 460  : 		fprintf(fp,	"total: %.2fmb", DumpPrint.m_totalKB / 1024.0f);

  00237	f3 0f 59 0d 00
	00 00 00	 mulss	 xmm1, DWORD PTR __real@3a800000
  0023f	83 ec 08	 sub	 esp, 8
  00242	0f 5a c1	 cvtps2pd xmm0, xmm1
  00245	f2 0f 11 04 24	 movsd	 QWORD PTR [esp], xmm0
  0024a	68 00 00 00 00	 push	 OFFSET ??_C@_0O@LJOLOKII@total?3?5?$CF?42fmb@
  0024f	ff 75 08	 push	 DWORD PTR _fp$1$[ebp]
  00252	e8 00 00 00 00	 call	 _fprintf
; File C:\Program Files (x86)\Microsoft Visual Studio\2019\Professional\VC\Tools\MSVC\14.29.30133\include\algorithm

; 7399 :     _Sort_unchecked(_UFirst, _ULast, _ULast - _UFirst, _Pass_fn(_Pred));

  00257	68 00 00 00 00	 push	 OFFSET ?DumpCostCompare@@YA_NABUSDumpData@@0@Z ; DumpCostCompare
  0025c	ff 75 e0	 push	 DWORD PTR tv1116[ebp]
  0025f	57		 push	 edi
  00260	53		 push	 ebx
  00261	e8 00 00 00 00	 call	 ??$_Sort_unchecked@PAUSDumpData@@P6A_NABU1@0@Z@std@@YAXPAUSDumpData@@0HP6A_NABU1@1@Z@Z ; std::_Sort_unchecked<SDumpData *,bool (__cdecl*)(SDumpData const &,SDumpData const &)>
; File C:\Users\murat\Desktop\Siveps2-1-99-Project\source\client\Client\EterLib\ResourceManager.cpp

; 460  : 		fprintf(fp,	"total: %.2fmb", DumpPrint.m_totalKB / 1024.0f);

  00266	8b f3		 mov	 esi, ebx
; File C:\Program Files (x86)\Microsoft Visual Studio\2019\Professional\VC\Tools\MSVC\14.29.30133\include\algorithm

; 7399 :     _Sort_unchecked(_UFirst, _ULast, _ULast - _UFirst, _Pass_fn(_Pred));

  00268	83 c4 20	 add	 esp, 32			; 00000020H
; File C:\Users\murat\Desktop\Siveps2-1-99-Project\source\client\Client\EterLib\ResourceManager.cpp

; 460  : 		fprintf(fp,	"total: %.2fmb", DumpPrint.m_totalKB / 1024.0f);

  0026b	3b f7		 cmp	 esi, edi
; File C:\Program Files (x86)\Microsoft Visual Studio\2019\Professional\VC\Tools\MSVC\14.29.30133\include\algorithm

; 270  :     for (; _UFirst != _ULast; ++_UFirst) {

  0026d	74 20		 je	 SHORT $LN138@DumpFileLi
  0026f	8b 5d 08	 mov	 ebx, DWORD PTR _fp$1$[ebp]
$LL139@DumpFileLi:
; File C:\Users\murat\Desktop\Siveps2-1-99-Project\source\client\Client\EterLib\ResourceManager.cpp

; 405  : 		fprintf(m_fp, "%-4d %s\n", data.cost, data.filename);

  00272	ff 36		 push	 DWORD PTR [esi]
  00274	ff 76 08	 push	 DWORD PTR [esi+8]
  00277	68 00 00 00 00	 push	 OFFSET ??_C@_08IGNPNJLM@?$CF?94d?5?$CFs?6@
  0027c	53		 push	 ebx
  0027d	e8 00 00 00 00	 call	 _fprintf
; File C:\Program Files (x86)\Microsoft Visual Studio\2019\Professional\VC\Tools\MSVC\14.29.30133\include\algorithm

; 270  :     for (; _UFirst != _ULast; ++_UFirst) {

  00282	83 c6 0c	 add	 esi, 12			; 0000000cH
; File C:\Users\murat\Desktop\Siveps2-1-99-Project\source\client\Client\EterLib\ResourceManager.cpp

; 405  : 		fprintf(m_fp, "%-4d %s\n", data.cost, data.filename);

  00285	83 c4 10	 add	 esp, 16			; 00000010H
; File C:\Program Files (x86)\Microsoft Visual Studio\2019\Professional\VC\Tools\MSVC\14.29.30133\include\algorithm

; 270  :     for (; _UFirst != _ULast; ++_UFirst) {

  00288	3b f7		 cmp	 esi, edi
  0028a	75 e6		 jne	 SHORT $LL139@DumpFileLi
  0028c	8b 5d ec	 mov	 ebx, DWORD PTR __Ptr$1$[ebp]
$LN138@DumpFileLi:
; File C:\Users\murat\Desktop\Siveps2-1-99-Project\source\client\Client\EterLib\ResourceManager.cpp

; 467  : 		fprintf(fp,	"total: %.2fmb", DumpPrint.m_totalKB / 1024.0f);

  0028f	f3 0f 10 05 00
	00 00 00	 movss	 xmm0, DWORD PTR ?m_totalKB@FDumpPrint@@2MA
  00297	83 ec 08	 sub	 esp, 8
  0029a	f3 0f 59 05 00
	00 00 00	 mulss	 xmm0, DWORD PTR __real@3a800000
  002a2	8b 75 08	 mov	 esi, DWORD PTR _fp$1$[ebp]
  002a5	0f 5a c0	 cvtps2pd xmm0, xmm0
  002a8	f2 0f 11 04 24	 movsd	 QWORD PTR [esp], xmm0
  002ad	68 00 00 00 00	 push	 OFFSET ??_C@_0O@LJOLOKII@total?3?5?$CF?42fmb@
  002b2	56		 push	 esi
  002b3	e8 00 00 00 00	 call	 _fprintf

; 468  : 
; 469  : 		fclose(fp);

  002b8	56		 push	 esi
  002b9	e8 00 00 00 00	 call	 _fclose
  002be	83 c4 14	 add	 esp, 20			; 00000014H
$LN10@DumpFileLi:
; File C:\Program Files (x86)\Microsoft Visual Studio\2019\Professional\VC\Tools\MSVC\14.29.30133\include\vector

; 1763 :         if (_Myfirst) { // destroy and deallocate old array

  002c1	85 db		 test	 ebx, ebx
  002c3	74 3f		 je	 SHORT $LN146@DumpFileLi

; 1764 :             _Destroy(_Myfirst, _Mylast);
; 1765 :             _Getal().deallocate(_Myfirst, static_cast<size_type>(_Myend - _Myfirst));

  002c5	8b 4d e8	 mov	 ecx, DWORD PTR _dumpVector$2$[ebp]
  002c8	b8 ab aa aa 2a	 mov	 eax, 715827883		; 2aaaaaabH
  002cd	2b cb		 sub	 ecx, ebx
  002cf	f7 e9		 imul	 ecx
  002d1	d1 fa		 sar	 edx, 1
  002d3	8b c2		 mov	 eax, edx
  002d5	c1 e8 1f	 shr	 eax, 31			; 0000001fH
  002d8	03 c2		 add	 eax, edx
; File C:\Program Files (x86)\Microsoft Visual Studio\2019\Professional\VC\Tools\MSVC\14.29.30133\include\xmemory

; 835  :         _Deallocate<_New_alignof<_Ty>>(_Ptr, sizeof(_Ty) * _Count);

  002da	8d 0c 40	 lea	 ecx, DWORD PTR [eax+eax*2]
  002dd	8b c3		 mov	 eax, ebx
  002df	c1 e1 02	 shl	 ecx, 2

; 260  :         if (_Bytes >= _Big_allocation_threshold) { // boost the alignment of big allocations to help autovectorization

  002e2	81 f9 00 10 00
	00		 cmp	 ecx, 4096		; 00001000H
  002e8	72 10		 jb	 SHORT $LN162@DumpFileLi

; 158  :     const uintptr_t _Ptr_container   = _Ptr_user[-1];

  002ea	8b 5b fc	 mov	 ebx, DWORD PTR [ebx-4]
  002ed	83 c1 23	 add	 ecx, 35			; 00000023H
  002f0	2b c3		 sub	 eax, ebx

; 172  :     _STL_VERIFY(_Back_shift >= _Min_back_shift && _Back_shift <= _Non_user_size, "invalid argument");

  002f2	83 c0 fc	 add	 eax, -4			; fffffffcH
  002f5	83 f8 1f	 cmp	 eax, 31			; 0000001fH
  002f8	77 1e		 ja	 SHORT $LN197@DumpFileLi
$LN162@DumpFileLi:

; 264  :         ::operator delete(_Ptr, _Bytes);

  002fa	51		 push	 ecx
  002fb	53		 push	 ebx
  002fc	e8 00 00 00 00	 call	 ??3@YAXPAXI@Z		; operator delete
  00301	83 c4 08	 add	 esp, 8
$LN146@DumpFileLi:
; File C:\Users\murat\Desktop\Siveps2-1-99-Project\source\client\Client\EterLib\ResourceManager.cpp

; 471  : }

  00304	8b 4d f4	 mov	 ecx, DWORD PTR __$EHRec$[ebp]
  00307	64 89 0d 00 00
	00 00		 mov	 DWORD PTR fs:0, ecx
  0030e	59		 pop	 ecx
  0030f	5f		 pop	 edi
  00310	5e		 pop	 esi
  00311	5b		 pop	 ebx
  00312	8b e5		 mov	 esp, ebp
  00314	5d		 pop	 ebp
  00315	c2 04 00	 ret	 4
$LN197@DumpFileLi:
; File C:\Program Files (x86)\Microsoft Visual Studio\2019\Professional\VC\Tools\MSVC\14.29.30133\include\xmemory

; 172  :     _STL_VERIFY(_Back_shift >= _Min_back_shift && _Back_shift <= _Non_user_size, "invalid argument");

  00318	e8 00 00 00 00	 call	 __invalid_parameter_noinfo_noreturn
$LN195@DumpFileLi:
  0031d	cc		 int	 3
_TEXT	ENDS
;	COMDAT text$x
text$x	SEGMENT
__unwindfunclet$?DumpFileListToTextFile@CResourceManager@@QAEXPBD@Z$0:
  00000	8d 4d d4	 lea	 ecx, DWORD PTR _dumpVector$[ebp]
  00003	e9 00 00 00 00	 jmp	 ??1?$vector@USDumpData@@V?$allocator@USDumpData@@@std@@@std@@QAE@XZ ; std::vector<SDumpData,std::allocator<SDumpData> >::~vector<SDumpData,std::allocator<SDumpData> >
  00008	cc		 int	 3
  00009	cc		 int	 3
  0000a	cc		 int	 3
  0000b	cc		 int	 3
  0000c	cc		 int	 3
__ehhandler$?DumpFileListToTextFile@CResourceManager@@QAEXPBD@Z:
  0000d	90		 npad	 1
  0000e	90		 npad	 1
  0000f	8b 54 24 08	 mov	 edx, DWORD PTR [esp+8]
  00013	8d 42 0c	 lea	 eax, DWORD PTR [edx+12]
  00016	8b 4a c4	 mov	 ecx, DWORD PTR [edx-60]
  00019	33 c8		 xor	 ecx, eax
  0001b	e8 00 00 00 00	 call	 @__security_check_cookie@4
  00020	b8 00 00 00 00	 mov	 eax, OFFSET __ehfuncinfo$?DumpFileListToTextFile@CResourceManager@@QAEXPBD@Z
  00025	e9 00 00 00 00	 jmp	 ___CxxFrameHandler3
text$x	ENDS
?DumpFileListToTextFile@CResourceManager@@QAEXPBD@Z ENDP ; CResourceManager::DumpFileListToTextFile
; Function compile flags: /Ogtp
; File C:\Users\murat\Desktop\Siveps2-1-99-Project\source\client\Client\EterLib\ResourceManager.cpp
; File C:\Program Files (x86)\Microsoft Visual Studio\2019\Professional\VC\Tools\MSVC\14.29.30133\include\map
; File C:\Users\murat\Desktop\Siveps2-1-99-Project\source\client\Client\EterLib\ResourceManager.cpp
; File C:\Program Files (x86)\Microsoft Visual Studio\2019\Professional\VC\Tools\MSVC\14.29.30133\include\map
; File C:\Program Files (x86)\Microsoft Visual Studio\2019\Professional\VC\Tools\MSVC\14.29.30133\include\xtree
; File C:\Program Files (x86)\Microsoft Visual Studio\2019\Professional\VC\Tools\MSVC\14.29.30133\include\xstddef
; File C:\Program Files (x86)\Microsoft Visual Studio\2019\Professional\VC\Tools\MSVC\14.29.30133\include\xtree
; File C:\Program Files (x86)\Microsoft Visual Studio\2019\Professional\VC\Tools\MSVC\14.29.30133\include\map
; File C:\Program Files (x86)\Microsoft Visual Studio\2019\Professional\VC\Tools\MSVC\14.29.30133\include\xmemory
; File C:\Program Files (x86)\Microsoft Visual Studio\2019\Professional\VC\Tools\MSVC\14.29.30133\include\xtree
; File C:\Program Files (x86)\Microsoft Visual Studio\2019\Professional\VC\Tools\MSVC\14.29.30133\include\xmemory
; File C:\Program Files (x86)\Microsoft Visual Studio\2019\Professional\VC\Tools\MSVC\14.29.30133\include\utility
; File C:\Program Files (x86)\Microsoft Visual Studio\2019\Professional\VC\Tools\MSVC\14.29.30133\include\map
; File C:\Program Files (x86)\Microsoft Visual Studio\2019\Professional\VC\Tools\MSVC\14.29.30133\include\utility
; File C:\Program Files (x86)\Microsoft Visual Studio\2019\Professional\VC\Tools\MSVC\14.29.30133\include\map
; File C:\Program Files (x86)\Microsoft Visual Studio\2019\Professional\VC\Tools\MSVC\14.29.30133\include\utility
; File C:\Program Files (x86)\Microsoft Visual Studio\2019\Professional\VC\Tools\MSVC\14.29.30133\include\xtree
; File C:\Program Files (x86)\Microsoft Visual Studio\2019\Professional\VC\Tools\MSVC\14.29.30133\include\map
; File C:\Users\murat\Desktop\Siveps2-1-99-Project\source\client\Client\EterLib\ResourceManager.cpp
; File C:\Program Files (x86)\Microsoft Visual Studio\2019\Professional\VC\Tools\MSVC\14.29.30133\include\xtree
; File C:\Users\murat\Desktop\Siveps2-1-99-Project\source\client\Client\EterLib\ResourceManager.cpp
;	COMDAT ?RegisterResourceNewFunctionByTypePointer@CResourceManager@@QAEXHP6APAVCResource@@PBD@Z@Z
_TEXT	SEGMENT
__Loc$3 = -32						; size = 12
$T4 = -20						; size = 8
__$EHRec$ = -12						; size = 12
_iType$ = 8						; size = 4
_pNewFunc$ = 12						; size = 4
?RegisterResourceNewFunctionByTypePointer@CResourceManager@@QAEXHP6APAVCResource@@PBD@Z@Z PROC ; CResourceManager::RegisterResourceNewFunctionByTypePointer, COMDAT
; _this$ = ecx

; 185  : {

  00000	55		 push	 ebp
  00001	8b ec		 mov	 ebp, esp
  00003	6a ff		 push	 -1
  00005	68 00 00 00 00	 push	 __ehhandler$?RegisterResourceNewFunctionByTypePointer@CResourceManager@@QAEXHP6APAVCResource@@PBD@Z@Z
  0000a	64 a1 00 00 00
	00		 mov	 eax, DWORD PTR fs:0
  00010	50		 push	 eax
  00011	83 ec 14	 sub	 esp, 20			; 00000014H
  00014	56		 push	 esi
  00015	57		 push	 edi
  00016	a1 00 00 00 00	 mov	 eax, DWORD PTR ___security_cookie
  0001b	33 c5		 xor	 eax, ebp
  0001d	50		 push	 eax
  0001e	8d 45 f4	 lea	 eax, DWORD PTR __$EHRec$[ebp]
  00021	64 a3 00 00 00
	00		 mov	 DWORD PTR fs:0, eax
; File C:\Program Files (x86)\Microsoft Visual Studio\2019\Professional\VC\Tools\MSVC\14.29.30133\include\map

; 176  :         const auto _Loc = _Mybase::_Find_lower_bound(_Keyval);

  00027	8d 45 08	 lea	 eax, DWORD PTR _iType$[ebp]
  0002a	50		 push	 eax
; File C:\Users\murat\Desktop\Siveps2-1-99-Project\source\client\Client\EterLib\ResourceManager.cpp

; 187  : 	m_pResNewFuncByTypeMap[iType] = pNewFunc;

  0002b	8d 79 1c	 lea	 edi, DWORD PTR [ecx+28]
; File C:\Program Files (x86)\Microsoft Visual Studio\2019\Professional\VC\Tools\MSVC\14.29.30133\include\map

; 176  :         const auto _Loc = _Mybase::_Find_lower_bound(_Keyval);

  0002e	8d 45 e0	 lea	 eax, DWORD PTR __Loc$3[ebp]
  00031	8b cf		 mov	 ecx, edi
  00033	50		 push	 eax
  00034	e8 00 00 00 00	 call	 ??$_Find_lower_bound@H@?$_Tree@V?$_Tmap_traits@HP6APAVCResource@@PBD@ZU?$less@H@std@@V?$allocator@U?$pair@$$CBHP6APAVCResource@@PBD@Z@std@@@3@$0A@@std@@@std@@IBE?AU?$_Tree_find_result@PAU?$_Tree_node@U?$pair@$$CBHP6APAVCResource@@PBD@Z@std@@PAX@std@@@1@ABH@Z ; std::_Tree<std::_Tmap_traits<int,CResource * (__cdecl*)(char const *),std::less<int>,std::allocator<std::pair<int const ,CResource * (__cdecl*)(char const *)> >,0> >::_Find_lower_bound<int>
; File C:\Program Files (x86)\Microsoft Visual Studio\2019\Professional\VC\Tools\MSVC\14.29.30133\include\xtree

; 1599 :         return !_Bound->_Isnil && !_DEBUG_LT_PRED(_Getcomp(), _Keyval, _Traits::_Kfn(_Bound->_Myval));

  00039	8b 55 e8	 mov	 edx, DWORD PTR __Loc$3[ebp+8]
  0003c	80 7a 0d 00	 cmp	 BYTE PTR [edx+13], 0
  00040	75 08		 jne	 SHORT $LN6@RegisterRe
; File C:\Program Files (x86)\Microsoft Visual Studio\2019\Professional\VC\Tools\MSVC\14.29.30133\include\xstddef

; 127  :         return _Left < _Right;

  00042	8b 45 08	 mov	 eax, DWORD PTR _iType$[ebp]
  00045	3b 42 10	 cmp	 eax, DWORD PTR [edx+16]
; File C:\Program Files (x86)\Microsoft Visual Studio\2019\Professional\VC\Tools\MSVC\14.29.30133\include\xtree

; 1599 :         return !_Bound->_Isnil && !_DEBUG_LT_PRED(_Getcomp(), _Keyval, _Traits::_Kfn(_Bound->_Myval));

  00048	7d 53		 jge	 SHORT $LN5@RegisterRe
$LN6@RegisterRe:

; 1623 :         if (max_size() == _Get_scary()->_Mysize) {

  0004a	81 7f 04 aa aa
	aa 0a		 cmp	 DWORD PTR [edi+4], 178956970 ; 0aaaaaaaH
  00051	74 63		 je	 SHORT $LN105@RegisterRe
; File C:\Program Files (x86)\Microsoft Visual Studio\2019\Professional\VC\Tools\MSVC\14.29.30133\include\map

; 184  :         const auto _Inserted = _Tree_temp_node<_Alnode>(_Mybase::_Getal(), _Scary->_Myhead, piecewise_construct,

  00053	8b 37		 mov	 esi, DWORD PTR [edi]
; File C:\Program Files (x86)\Microsoft Visual Studio\2019\Professional\VC\Tools\MSVC\14.29.30133\include\xmemory

; 1012 :     _CONSTEXPR20_DYNALLOC explicit _Alloc_construct_ptr(_Alloc& _Al_) : _Al(_Al_), _Ptr(nullptr) {}

  00055	89 7d ec	 mov	 DWORD PTR $T4[ebp], edi

; 85   :         return ::operator new(_Bytes);

  00058	6a 18		 push	 24			; 00000018H
; File C:\Program Files (x86)\Microsoft Visual Studio\2019\Professional\VC\Tools\MSVC\14.29.30133\include\xtree

; 790  :     explicit _Tree_temp_node_alloc(_Alnode& _Al_) : _Alloc_construct_ptr<_Alnode>(_Al_) {

  0005a	c7 45 fc 00 00
	00 00		 mov	 DWORD PTR __$EHRec$[ebp+8], 0
; File C:\Program Files (x86)\Microsoft Visual Studio\2019\Professional\VC\Tools\MSVC\14.29.30133\include\xmemory

; 1019 :         _Ptr = nullptr; // if allocate throws, prevents double-free

  00061	c7 45 f0 00 00
	00 00		 mov	 DWORD PTR $T4[ebp+4], 0

; 85   :         return ::operator new(_Bytes);

  00068	e8 00 00 00 00	 call	 ??2@YAPAXI@Z		; operator new

; 244  :         return _Traits::_Allocate(_Bytes);

  0006d	8b d0		 mov	 edx, eax

; 85   :         return ::operator new(_Bytes);

  0006f	83 c4 04	 add	 esp, 4
; File C:\Program Files (x86)\Microsoft Visual Studio\2019\Professional\VC\Tools\MSVC\14.29.30133\include\utility

; 270  :         : first(_Tuple_get<_Indexes1>(_STD move(_Val1))...), second(_Tuple_get<_Indexes2>(_STD move(_Val2))...) {}

  00072	8b 45 08	 mov	 eax, DWORD PTR _iType$[ebp]
; File C:\Program Files (x86)\Microsoft Visual Studio\2019\Professional\VC\Tools\MSVC\14.29.30133\include\map

; 190  :         return {_Scary->_Insert_node(_Loc._Location, _Inserted), true};

  00075	8b cf		 mov	 ecx, edi
  00077	52		 push	 edx
  00078	ff 75 e4	 push	 DWORD PTR __Loc$3[ebp+4]
; File C:\Program Files (x86)\Microsoft Visual Studio\2019\Professional\VC\Tools\MSVC\14.29.30133\include\utility

; 270  :         : first(_Tuple_get<_Indexes1>(_STD move(_Val1))...), second(_Tuple_get<_Indexes2>(_STD move(_Val2))...) {}

  0007b	89 42 10	 mov	 DWORD PTR [edx+16], eax
; File C:\Program Files (x86)\Microsoft Visual Studio\2019\Professional\VC\Tools\MSVC\14.29.30133\include\map

; 190  :         return {_Scary->_Insert_node(_Loc._Location, _Inserted), true};

  0007e	ff 75 e0	 push	 DWORD PTR __Loc$3[ebp]
; File C:\Program Files (x86)\Microsoft Visual Studio\2019\Professional\VC\Tools\MSVC\14.29.30133\include\utility

; 270  :         : first(_Tuple_get<_Indexes1>(_STD move(_Val1))...), second(_Tuple_get<_Indexes2>(_STD move(_Val2))...) {}

  00081	c7 42 14 00 00
	00 00		 mov	 DWORD PTR [edx+20], 0
; File C:\Program Files (x86)\Microsoft Visual Studio\2019\Professional\VC\Tools\MSVC\14.29.30133\include\xtree

; 813  :         _Construct_in_place(this->_Ptr->_Left, _Myhead);

  00088	89 32		 mov	 DWORD PTR [edx], esi

; 814  :         _Construct_in_place(this->_Ptr->_Parent, _Myhead);

  0008a	89 72 04	 mov	 DWORD PTR [edx+4], esi

; 815  :         _Construct_in_place(this->_Ptr->_Right, _Myhead);

  0008d	89 72 08	 mov	 DWORD PTR [edx+8], esi

; 816  :         this->_Ptr->_Color = _Red;

  00090	66 c7 42 0c 00
	00		 mov	 WORD PTR [edx+12], 0
; File C:\Program Files (x86)\Microsoft Visual Studio\2019\Professional\VC\Tools\MSVC\14.29.30133\include\map

; 190  :         return {_Scary->_Insert_node(_Loc._Location, _Inserted), true};

  00096	e8 00 00 00 00	 call	 ?_Insert_node@?$_Tree_val@U?$_Tree_simple_types@U?$pair@$$CBHP6APAVCResource@@PBD@Z@std@@@std@@@std@@QAEPAU?$_Tree_node@U?$pair@$$CBHP6APAVCResource@@PBD@Z@std@@PAX@2@U?$_Tree_id@PAU?$_Tree_node@U?$pair@$$CBHP6APAVCResource@@PBD@Z@std@@PAX@std@@@2@QAU32@@Z ; std::_Tree_val<std::_Tree_simple_types<std::pair<int const ,CResource * (__cdecl*)(char const *)> > >::_Insert_node
  0009b	8b d0		 mov	 edx, eax
$LN5@RegisterRe:
; File C:\Users\murat\Desktop\Siveps2-1-99-Project\source\client\Client\EterLib\ResourceManager.cpp

; 187  : 	m_pResNewFuncByTypeMap[iType] = pNewFunc;

  0009d	8b 4d 0c	 mov	 ecx, DWORD PTR _pNewFunc$[ebp]
  000a0	89 4a 14	 mov	 DWORD PTR [edx+20], ecx

; 188  : }

  000a3	8b 4d f4	 mov	 ecx, DWORD PTR __$EHRec$[ebp]
  000a6	64 89 0d 00 00
	00 00		 mov	 DWORD PTR fs:0, ecx
  000ad	59		 pop	 ecx
  000ae	5f		 pop	 edi
  000af	5e		 pop	 esi
  000b0	8b e5		 mov	 esp, ebp
  000b2	5d		 pop	 ebp
  000b3	c2 08 00	 ret	 8
$LN105@RegisterRe:
; File C:\Program Files (x86)\Microsoft Visual Studio\2019\Professional\VC\Tools\MSVC\14.29.30133\include\xtree

; 1624 :             _Throw_tree_length_error();

  000b6	e8 00 00 00 00	 call	 ?_Throw_tree_length_error@std@@YAXXZ ; std::_Throw_tree_length_error
$LN103@RegisterRe:
  000bb	cc		 int	 3
_TEXT	ENDS
;	COMDAT text$x
text$x	SEGMENT
__unwindfunclet$?RegisterResourceNewFunctionByTypePointer@CResourceManager@@QAEXHP6APAVCResource@@PBD@Z@Z$2:
  00000	8d 4d ec	 lea	 ecx, DWORD PTR $T4[ebp]
  00003	e9 00 00 00 00	 jmp	 ??1?$_Alloc_construct_ptr@V?$allocator@U?$_Tree_node@U?$pair@$$CBHP6APAVCResource@@PBD@Z@std@@PAX@std@@@std@@@std@@QAE@XZ ; std::_Alloc_construct_ptr<std::allocator<std::_Tree_node<std::pair<int const ,CResource * (__cdecl*)(char const *)>,void *> > >::~_Alloc_construct_ptr<std::allocator<std::_Tree_node<std::pair<int const ,CResource * (__cdecl*)(char const *)>,void *> > >
  00008	cc		 int	 3
  00009	cc		 int	 3
  0000a	cc		 int	 3
  0000b	cc		 int	 3
  0000c	cc		 int	 3
__ehhandler$?RegisterResourceNewFunctionByTypePointer@CResourceManager@@QAEXHP6APAVCResource@@PBD@Z@Z:
  0000d	90		 npad	 1
  0000e	90		 npad	 1
  0000f	8b 54 24 08	 mov	 edx, DWORD PTR [esp+8]
  00013	8d 42 0c	 lea	 eax, DWORD PTR [edx+12]
  00016	8b 4a e0	 mov	 ecx, DWORD PTR [edx-32]
  00019	33 c8		 xor	 ecx, eax
  0001b	e8 00 00 00 00	 call	 @__security_check_cookie@4
  00020	b8 00 00 00 00	 mov	 eax, OFFSET __ehfuncinfo$?RegisterResourceNewFunctionByTypePointer@CResourceManager@@QAEXHP6APAVCResource@@PBD@Z@Z
  00025	e9 00 00 00 00	 jmp	 ___CxxFrameHandler3
text$x	ENDS
?RegisterResourceNewFunctionByTypePointer@CResourceManager@@QAEXHP6APAVCResource@@PBD@Z@Z ENDP ; CResourceManager::RegisterResourceNewFunctionByTypePointer
; Function compile flags: /Ogtp
; File C:\Users\murat\Desktop\Siveps2-1-99-Project\source\client\Client\EterLib\ResourceManager.cpp
; File C:\Program Files (x86)\Microsoft Visual Studio\2019\Professional\VC\Tools\MSVC\14.29.30133\include\xstring
; File C:\Program Files (x86)\Microsoft Visual Studio\2019\Professional\VC\Tools\MSVC\14.29.30133\include\map
; File C:\Users\murat\Desktop\Siveps2-1-99-Project\source\client\Client\EterLib\ResourceManager.cpp
; File C:\Program Files (x86)\Microsoft Visual Studio\2019\Professional\VC\Tools\MSVC\14.29.30133\include\map
; File C:\Users\murat\Desktop\Siveps2-1-99-Project\source\client\Client\EterLib\ResourceManager.cpp
; File C:\Program Files (x86)\Microsoft Visual Studio\2019\Professional\VC\Tools\MSVC\14.29.30133\include\map
; File C:\Program Files (x86)\Microsoft Visual Studio\2019\Professional\VC\Tools\MSVC\14.29.30133\include\xtree
; File C:\Program Files (x86)\Microsoft Visual Studio\2019\Professional\VC\Tools\MSVC\14.29.30133\include\xstddef
; File C:\Program Files (x86)\Microsoft Visual Studio\2019\Professional\VC\Tools\MSVC\14.29.30133\include\xtree
; File C:\Program Files (x86)\Microsoft Visual Studio\2019\Professional\VC\Tools\MSVC\14.29.30133\include\map
; File C:\Program Files (x86)\Microsoft Visual Studio\2019\Professional\VC\Tools\MSVC\14.29.30133\include\xmemory
; File C:\Program Files (x86)\Microsoft Visual Studio\2019\Professional\VC\Tools\MSVC\14.29.30133\include\xtree
; File C:\Program Files (x86)\Microsoft Visual Studio\2019\Professional\VC\Tools\MSVC\14.29.30133\include\xmemory
; File C:\Program Files (x86)\Microsoft Visual Studio\2019\Professional\VC\Tools\MSVC\14.29.30133\include\map
; File C:\Program Files (x86)\Microsoft Visual Studio\2019\Professional\VC\Tools\MSVC\14.29.30133\include\xstring
; File C:\Program Files (x86)\Microsoft Visual Studio\2019\Professional\VC\Tools\MSVC\14.29.30133\include\map
; File C:\Program Files (x86)\Microsoft Visual Studio\2019\Professional\VC\Tools\MSVC\14.29.30133\include\xstring
; File C:\Program Files (x86)\Microsoft Visual Studio\2019\Professional\VC\Tools\MSVC\14.29.30133\include\map
; File C:\Program Files (x86)\Microsoft Visual Studio\2019\Professional\VC\Tools\MSVC\14.29.30133\include\xstring
; File C:\Program Files (x86)\Microsoft Visual Studio\2019\Professional\VC\Tools\MSVC\14.29.30133\include\utility
; File C:\Program Files (x86)\Microsoft Visual Studio\2019\Professional\VC\Tools\MSVC\14.29.30133\include\xtree
; File C:\Program Files (x86)\Microsoft Visual Studio\2019\Professional\VC\Tools\MSVC\14.29.30133\include\map
; File C:\Users\murat\Desktop\Siveps2-1-99-Project\source\client\Client\EterLib\ResourceManager.cpp
; File C:\Program Files (x86)\Microsoft Visual Studio\2019\Professional\VC\Tools\MSVC\14.29.30133\include\xstring
; File C:\Program Files (x86)\Microsoft Visual Studio\2019\Professional\VC\Tools\MSVC\14.29.30133\include\xmemory
; File C:\Program Files (x86)\Microsoft Visual Studio\2019\Professional\VC\Tools\MSVC\14.29.30133\include\xstring
; File C:\Program Files (x86)\Microsoft Visual Studio\2019\Professional\VC\Tools\MSVC\14.29.30133\include\xmemory
; File C:\Users\murat\Desktop\Siveps2-1-99-Project\source\client\Client\EterLib\ResourceManager.cpp
; File C:\Program Files (x86)\Microsoft Visual Studio\2019\Professional\VC\Tools\MSVC\14.29.30133\include\xtree
; File C:\Program Files (x86)\Microsoft Visual Studio\2019\Professional\VC\Tools\MSVC\14.29.30133\include\xmemory
; File C:\Users\murat\Desktop\Siveps2-1-99-Project\source\client\Client\EterLib\ResourceManager.cpp
;	COMDAT ?RegisterResourceNewFunctionPointer@CResourceManager@@QAEXPBDP6APAVCResource@@0@Z@Z
_TEXT	SEGMENT
$T3 = -60						; size = 8
__Loc$4 = -52						; size = 12
$T5 = -40						; size = 24
__$ArrayPad$ = -16					; size = 4
__$EHRec$ = -12						; size = 12
_c_szFileExt$ = 8					; size = 4
_pNewFunc$ = 12						; size = 4
?RegisterResourceNewFunctionPointer@CResourceManager@@QAEXPBDP6APAVCResource@@0@Z@Z PROC ; CResourceManager::RegisterResourceNewFunctionPointer, COMDAT
; _this$ = ecx

; 180  : {

  00000	55		 push	 ebp
  00001	8b ec		 mov	 ebp, esp
  00003	6a ff		 push	 -1
  00005	68 00 00 00 00	 push	 __ehhandler$?RegisterResourceNewFunctionPointer@CResourceManager@@QAEXPBDP6APAVCResource@@0@Z@Z
  0000a	64 a1 00 00 00
	00		 mov	 eax, DWORD PTR fs:0
  00010	50		 push	 eax
  00011	83 ec 30	 sub	 esp, 48			; 00000030H
  00014	a1 00 00 00 00	 mov	 eax, DWORD PTR ___security_cookie
  00019	33 c5		 xor	 eax, ebp
  0001b	89 45 f0	 mov	 DWORD PTR __$ArrayPad$[ebp], eax
  0001e	56		 push	 esi
  0001f	57		 push	 edi
  00020	50		 push	 eax
  00021	8d 45 f4	 lea	 eax, DWORD PTR __$EHRec$[ebp]
  00024	64 a3 00 00 00
	00		 mov	 DWORD PTR fs:0, eax
  0002a	8b f9		 mov	 edi, ecx
  0002c	8b 75 08	 mov	 esi, DWORD PTR _c_szFileExt$[ebp]
; File C:\Program Files (x86)\Microsoft Visual Studio\2019\Professional\VC\Tools\MSVC\14.29.30133\include\xstring

; 412  :         return _CSTD strlen(reinterpret_cast<const char*>(_First));

  0002f	8b d6		 mov	 edx, esi

; 2346 :         _CONSTEXPR20_CONTAINER _Bxty() noexcept : _Ptr() {} // user-provided, for fancy pointers

  00031	c7 45 d8 00 00
	00 00		 mov	 DWORD PTR $T5[ebp], 0

; 4596 :         _My_data._Mysize = 0;

  00038	c7 45 e8 00 00
	00 00		 mov	 DWORD PTR $T5[ebp+16], 0

; 4597 : 
; 4598 : #ifdef __cpp_lib_constexpr_string
; 4599 :         if (_STD is_constant_evaluated()) {
; 4600 :             _My_data._Myres        = _BUF_SIZE; // SSO disabled in constexpr context
; 4601 :             auto& _Al              = _Getal();
; 4602 :             const pointer _New_ptr = _Al.allocate(_BUF_SIZE + 1); // throws
; 4603 :             _My_data._Bx._Ptr      = _New_ptr;
; 4604 : 
; 4605 :             _Elem* const _Raw_new = _Unfancy(_New_ptr);
; 4606 :             _Traits::assign(_Raw_new, _BUF_SIZE + 1, _Elem());
; 4607 :         } else
; 4608 : #endif // __cpp_lib_constexpr_string
; 4609 :         {
; 4610 :             _My_data._Myres = _BUF_SIZE - 1;

  0003f	c7 45 ec 0f 00
	00 00		 mov	 DWORD PTR $T5[ebp+20], 15 ; 0000000fH

; 4611 :             // the _Traits::assign is last so the codegen doesn't think the char write can alias this
; 4612 :             _Traits::assign(_My_data._Bx._Buf[0], _Elem());

  00046	c6 45 d8 00	 mov	 BYTE PTR $T5[ebp], 0

; 412  :         return _CSTD strlen(reinterpret_cast<const char*>(_First));

  0004a	8d 4a 01	 lea	 ecx, DWORD PTR [edx+1]
  0004d	0f 1f 00	 npad	 3
$LL209@RegisterRe:
  00050	8a 02		 mov	 al, BYTE PTR [edx]
  00052	42		 inc	 edx
  00053	84 c0		 test	 al, al
  00055	75 f9		 jne	 SHORT $LL209@RegisterRe
  00057	2b d1		 sub	 edx, ecx

; 3264 :         return assign(_Ptr, _Convert_size<size_type>(_Traits::length(_Ptr)));

  00059	8d 4d d8	 lea	 ecx, DWORD PTR $T5[ebp]
  0005c	52		 push	 edx
  0005d	56		 push	 esi
  0005e	e8 00 00 00 00	 call	 ?assign@?$basic_string@DU?$char_traits@D@std@@V?$allocator@D@2@@std@@QAEAAV12@QBDI@Z ; std::basic_string<char,std::char_traits<char>,std::allocator<char> >::assign
; File C:\Program Files (x86)\Microsoft Visual Studio\2019\Professional\VC\Tools\MSVC\14.29.30133\include\map

; 176  :         const auto _Loc = _Mybase::_Find_lower_bound(_Keyval);

  00063	8d 45 d8	 lea	 eax, DWORD PTR $T5[ebp]
; File C:\Users\murat\Desktop\Siveps2-1-99-Project\source\client\Client\EterLib\ResourceManager.cpp

; 181  : 	m_pResNewFuncMap[c_szFileExt] = pNewFunc;

  00066	c7 45 fc 00 00
	00 00		 mov	 DWORD PTR __$EHRec$[ebp+8], 0
; File C:\Program Files (x86)\Microsoft Visual Studio\2019\Professional\VC\Tools\MSVC\14.29.30133\include\map

; 176  :         const auto _Loc = _Mybase::_Find_lower_bound(_Keyval);

  0006d	50		 push	 eax
  0006e	8d 45 cc	 lea	 eax, DWORD PTR __Loc$4[ebp]
; File C:\Users\murat\Desktop\Siveps2-1-99-Project\source\client\Client\EterLib\ResourceManager.cpp

; 181  : 	m_pResNewFuncMap[c_szFileExt] = pNewFunc;

  00071	83 c7 14	 add	 edi, 20			; 00000014H
; File C:\Program Files (x86)\Microsoft Visual Studio\2019\Professional\VC\Tools\MSVC\14.29.30133\include\map

; 176  :         const auto _Loc = _Mybase::_Find_lower_bound(_Keyval);

  00074	50		 push	 eax
  00075	8b cf		 mov	 ecx, edi
  00077	e8 00 00 00 00	 call	 ??$_Find_lower_bound@V?$basic_string@DU?$char_traits@D@std@@V?$allocator@D@2@@std@@@?$_Tree@V?$_Tmap_traits@V?$basic_string@DU?$char_traits@D@std@@V?$allocator@D@2@@std@@P6APAVCResource@@PBD@ZU?$less@V?$basic_string@DU?$char_traits@D@std@@V?$allocator@D@2@@std@@@2@V?$allocator@U?$pair@$$CBV?$basic_string@DU?$char_traits@D@std@@V?$allocator@D@2@@std@@P6APAVCResource@@PBD@Z@std@@@2@$0A@@std@@@std@@IBE?AU?$_Tree_find_result@PAU?$_Tree_node@U?$pair@$$CBV?$basic_string@DU?$char_traits@D@std@@V?$allocator@D@2@@std@@P6APAVCResource@@PBD@Z@std@@PAX@std@@@1@ABV?$basic_string@DU?$char_traits@D@std@@V?$allocator@D@2@@1@@Z ; std::_Tree<std::_Tmap_traits<std::basic_string<char,std::char_traits<char>,std::allocator<char> >,CResource * (__cdecl*)(char const *),std::less<std::basic_string<char,std::char_traits<char>,std::allocator<char> > >,std::allocator<std::pair<std::basic_string<char,std::char_traits<char>,std::allocator<char> > const ,CResource * (__cdecl*)(char const *)> >,0> >::_Find_lower_bound<std::basic_string<char,std::char_traits<char>,std::allocator<char> > >
; File C:\Program Files (x86)\Microsoft Visual Studio\2019\Professional\VC\Tools\MSVC\14.29.30133\include\xtree

; 1599 :         return !_Bound->_Isnil && !_DEBUG_LT_PRED(_Getcomp(), _Keyval, _Traits::_Kfn(_Bound->_Myval));

  0007c	8b 75 d4	 mov	 esi, DWORD PTR __Loc$4[ebp+8]
  0007f	80 7e 0d 00	 cmp	 BYTE PTR [esi+13], 0
  00083	75 18		 jne	 SHORT $LN23@RegisterRe
  00085	8d 46 10	 lea	 eax, DWORD PTR [esi+16]
; File C:\Program Files (x86)\Microsoft Visual Studio\2019\Professional\VC\Tools\MSVC\14.29.30133\include\xstddef

; 127  :         return _Left < _Right;

  00088	50		 push	 eax
  00089	8d 45 d8	 lea	 eax, DWORD PTR $T5[ebp]
  0008c	50		 push	 eax
  0008d	e8 00 00 00 00	 call	 ??$?MDU?$char_traits@D@std@@V?$allocator@D@1@@std@@YA_NABV?$basic_string@DU?$char_traits@D@std@@V?$allocator@D@2@@0@0@Z ; std::operator<<char,std::char_traits<char>,std::allocator<char> >
  00092	83 c4 08	 add	 esp, 8
; File C:\Program Files (x86)\Microsoft Visual Studio\2019\Professional\VC\Tools\MSVC\14.29.30133\include\xtree

; 1599 :         return !_Bound->_Isnil && !_DEBUG_LT_PRED(_Getcomp(), _Keyval, _Traits::_Kfn(_Bound->_Myval));

  00095	84 c0		 test	 al, al
  00097	0f 84 85 00 00
	00		 je	 $LN22@RegisterRe
$LN23@RegisterRe:

; 1623 :         if (max_size() == _Get_scary()->_Mysize) {

  0009d	81 7f 04 5d 74
	d1 05		 cmp	 DWORD PTR [edi+4], 97612893 ; 05d1745dH
  000a4	0f 84 cb 00 00
	00		 je	 $LN213@RegisterRe
; File C:\Program Files (x86)\Microsoft Visual Studio\2019\Professional\VC\Tools\MSVC\14.29.30133\include\map

; 184  :         const auto _Inserted = _Tree_temp_node<_Alnode>(_Mybase::_Getal(), _Scary->_Myhead, piecewise_construct,

  000aa	8b 37		 mov	 esi, DWORD PTR [edi]
; File C:\Program Files (x86)\Microsoft Visual Studio\2019\Professional\VC\Tools\MSVC\14.29.30133\include\xmemory

; 1012 :     _CONSTEXPR20_DYNALLOC explicit _Alloc_construct_ptr(_Alloc& _Al_) : _Al(_Al_), _Ptr(nullptr) {}

  000ac	89 7d c4	 mov	 DWORD PTR $T3[ebp], edi

; 85   :         return ::operator new(_Bytes);

  000af	6a 2c		 push	 44			; 0000002cH
; File C:\Program Files (x86)\Microsoft Visual Studio\2019\Professional\VC\Tools\MSVC\14.29.30133\include\xtree

; 790  :     explicit _Tree_temp_node_alloc(_Alnode& _Al_) : _Alloc_construct_ptr<_Alnode>(_Al_) {

  000b1	c6 45 fc 01	 mov	 BYTE PTR __$EHRec$[ebp+8], 1
; File C:\Program Files (x86)\Microsoft Visual Studio\2019\Professional\VC\Tools\MSVC\14.29.30133\include\xmemory

; 1019 :         _Ptr = nullptr; // if allocate throws, prevents double-free

  000b5	c7 45 c8 00 00
	00 00		 mov	 DWORD PTR $T3[ebp+4], 0

; 85   :         return ::operator new(_Bytes);

  000bc	e8 00 00 00 00	 call	 ??2@YAPAXI@Z		; operator new
  000c1	83 c4 04	 add	 esp, 4
; File C:\Program Files (x86)\Microsoft Visual Studio\2019\Professional\VC\Tools\MSVC\14.29.30133\include\map

; 190  :         return {_Scary->_Insert_node(_Loc._Location, _Inserted), true};

  000c4	8b cf		 mov	 ecx, edi
; File C:\Program Files (x86)\Microsoft Visual Studio\2019\Professional\VC\Tools\MSVC\14.29.30133\include\xstring

; 2346 :         _CONSTEXPR20_CONTAINER _Bxty() noexcept : _Ptr() {} // user-provided, for fancy pointers

  000c6	c7 40 10 00 00
	00 00		 mov	 DWORD PTR [eax+16], 0

; 2355 :     size_type _Mysize = 0; // current length of string

  000cd	c7 40 20 00 00
	00 00		 mov	 DWORD PTR [eax+32], 0

; 2356 :     size_type _Myres  = 0; // current storage reserved for string

  000d4	c7 40 24 00 00
	00 00		 mov	 DWORD PTR [eax+36], 0

; 2869 :         _CSTD memcpy(_My_data_mem, _Right_data_mem, _Memcpy_val_size);

  000db	0f 10 45 d8	 movups	 xmm0, XMMWORD PTR $T5[ebp]
; File C:\Program Files (x86)\Microsoft Visual Studio\2019\Professional\VC\Tools\MSVC\14.29.30133\include\map

; 190  :         return {_Scary->_Insert_node(_Loc._Location, _Inserted), true};

  000df	50		 push	 eax
  000e0	ff 75 d0	 push	 DWORD PTR __Loc$4[ebp+4]
; File C:\Program Files (x86)\Microsoft Visual Studio\2019\Professional\VC\Tools\MSVC\14.29.30133\include\xstring

; 2869 :         _CSTD memcpy(_My_data_mem, _Right_data_mem, _Memcpy_val_size);

  000e3	0f 11 40 10	 movups	 XMMWORD PTR [eax+16], xmm0
  000e7	f3 0f 7e 45 e8	 movq	 xmm0, QWORD PTR $T5[ebp+16]
; File C:\Program Files (x86)\Microsoft Visual Studio\2019\Professional\VC\Tools\MSVC\14.29.30133\include\map

; 190  :         return {_Scary->_Insert_node(_Loc._Location, _Inserted), true};

  000ec	ff 75 cc	 push	 DWORD PTR __Loc$4[ebp]
; File C:\Program Files (x86)\Microsoft Visual Studio\2019\Professional\VC\Tools\MSVC\14.29.30133\include\xstring

; 2869 :         _CSTD memcpy(_My_data_mem, _Right_data_mem, _Memcpy_val_size);

  000ef	66 0f d6 40 20	 movq	 QWORD PTR [eax+32], xmm0

; 4596 :         _My_data._Mysize = 0;

  000f4	c7 45 e8 00 00
	00 00		 mov	 DWORD PTR $T5[ebp+16], 0

; 4597 : 
; 4598 : #ifdef __cpp_lib_constexpr_string
; 4599 :         if (_STD is_constant_evaluated()) {
; 4600 :             _My_data._Myres        = _BUF_SIZE; // SSO disabled in constexpr context
; 4601 :             auto& _Al              = _Getal();
; 4602 :             const pointer _New_ptr = _Al.allocate(_BUF_SIZE + 1); // throws
; 4603 :             _My_data._Bx._Ptr      = _New_ptr;
; 4604 : 
; 4605 :             _Elem* const _Raw_new = _Unfancy(_New_ptr);
; 4606 :             _Traits::assign(_Raw_new, _BUF_SIZE + 1, _Elem());
; 4607 :         } else
; 4608 : #endif // __cpp_lib_constexpr_string
; 4609 :         {
; 4610 :             _My_data._Myres = _BUF_SIZE - 1;

  000fb	c7 45 ec 0f 00
	00 00		 mov	 DWORD PTR $T5[ebp+20], 15 ; 0000000fH

; 4611 :             // the _Traits::assign is last so the codegen doesn't think the char write can alias this
; 4612 :             _Traits::assign(_My_data._Bx._Buf[0], _Elem());

  00102	c6 45 d8 00	 mov	 BYTE PTR $T5[ebp], 0
; File C:\Program Files (x86)\Microsoft Visual Studio\2019\Professional\VC\Tools\MSVC\14.29.30133\include\utility

; 270  :         : first(_Tuple_get<_Indexes1>(_STD move(_Val1))...), second(_Tuple_get<_Indexes2>(_STD move(_Val2))...) {}

  00106	c7 40 28 00 00
	00 00		 mov	 DWORD PTR [eax+40], 0
; File C:\Program Files (x86)\Microsoft Visual Studio\2019\Professional\VC\Tools\MSVC\14.29.30133\include\xtree

; 813  :         _Construct_in_place(this->_Ptr->_Left, _Myhead);

  0010d	89 30		 mov	 DWORD PTR [eax], esi

; 814  :         _Construct_in_place(this->_Ptr->_Parent, _Myhead);

  0010f	89 70 04	 mov	 DWORD PTR [eax+4], esi

; 815  :         _Construct_in_place(this->_Ptr->_Right, _Myhead);

  00112	89 70 08	 mov	 DWORD PTR [eax+8], esi

; 816  :         this->_Ptr->_Color = _Red;

  00115	66 c7 40 0c 00
	00		 mov	 WORD PTR [eax+12], 0
; File C:\Program Files (x86)\Microsoft Visual Studio\2019\Professional\VC\Tools\MSVC\14.29.30133\include\map

; 190  :         return {_Scary->_Insert_node(_Loc._Location, _Inserted), true};

  0011b	e8 00 00 00 00	 call	 ?_Insert_node@?$_Tree_val@U?$_Tree_simple_types@U?$pair@$$CBV?$basic_string@DU?$char_traits@D@std@@V?$allocator@D@2@@std@@P6APAVCResource@@PBD@Z@std@@@std@@@std@@QAEPAU?$_Tree_node@U?$pair@$$CBV?$basic_string@DU?$char_traits@D@std@@V?$allocator@D@2@@std@@P6APAVCResource@@PBD@Z@std@@PAX@2@U?$_Tree_id@PAU?$_Tree_node@U?$pair@$$CBV?$basic_string@DU?$char_traits@D@std@@V?$allocator@D@2@@std@@P6APAVCResource@@PBD@Z@std@@PAX@std@@@2@QAU32@@Z ; std::_Tree_val<std::_Tree_simple_types<std::pair<std::basic_string<char,std::char_traits<char>,std::allocator<char> > const ,CResource * (__cdecl*)(char const *)> > >::_Insert_node
  00120	8b f0		 mov	 esi, eax
$LN22@RegisterRe:
; File C:\Users\murat\Desktop\Siveps2-1-99-Project\source\client\Client\EterLib\ResourceManager.cpp

; 181  : 	m_pResNewFuncMap[c_szFileExt] = pNewFunc;

  00122	8b 4d 0c	 mov	 ecx, DWORD PTR _pNewFunc$[ebp]
  00125	89 4e 28	 mov	 DWORD PTR [esi+40], ecx
; File C:\Program Files (x86)\Microsoft Visual Studio\2019\Professional\VC\Tools\MSVC\14.29.30133\include\xstring

; 2319 :         return _BUF_SIZE <= _Myres;

  00128	8b 55 ec	 mov	 edx, DWORD PTR $T5[ebp+20]
  0012b	83 fa 10	 cmp	 edx, 16			; 00000010H

; 4618 :         if (_Mypair._Myval2._Large_string_engaged()) {

  0012e	72 28		 jb	 SHORT $LN192@RegisterRe
; File C:\Program Files (x86)\Microsoft Visual Studio\2019\Professional\VC\Tools\MSVC\14.29.30133\include\xmemory

; 835  :         _Deallocate<_New_alignof<_Ty>>(_Ptr, sizeof(_Ty) * _Count);

  00130	8b 4d d8	 mov	 ecx, DWORD PTR $T5[ebp]
; File C:\Program Files (x86)\Microsoft Visual Studio\2019\Professional\VC\Tools\MSVC\14.29.30133\include\xstring

; 4622 :             _Al.deallocate(_Ptr, _Mypair._Myval2._Myres + 1);

  00133	42		 inc	 edx
; File C:\Program Files (x86)\Microsoft Visual Studio\2019\Professional\VC\Tools\MSVC\14.29.30133\include\xmemory

; 835  :         _Deallocate<_New_alignof<_Ty>>(_Ptr, sizeof(_Ty) * _Count);

  00134	8b c1		 mov	 eax, ecx

; 260  :         if (_Bytes >= _Big_allocation_threshold) { // boost the alignment of big allocations to help autovectorization

  00136	81 fa 00 10 00
	00		 cmp	 edx, 4096		; 00001000H
  0013c	72 10		 jb	 SHORT $LN202@RegisterRe

; 158  :     const uintptr_t _Ptr_container   = _Ptr_user[-1];

  0013e	8b 49 fc	 mov	 ecx, DWORD PTR [ecx-4]
  00141	83 c2 23	 add	 edx, 35			; 00000023H
  00144	2b c1		 sub	 eax, ecx

; 172  :     _STL_VERIFY(_Back_shift >= _Min_back_shift && _Back_shift <= _Non_user_size, "invalid argument");

  00146	83 c0 fc	 add	 eax, -4			; fffffffcH
  00149	83 f8 1f	 cmp	 eax, 31			; 0000001fH
  0014c	77 2c		 ja	 SHORT $LN214@RegisterRe
$LN202@RegisterRe:

; 264  :         ::operator delete(_Ptr, _Bytes);

  0014e	52		 push	 edx
  0014f	51		 push	 ecx
  00150	e8 00 00 00 00	 call	 ??3@YAXPAXI@Z		; operator delete
  00155	83 c4 08	 add	 esp, 8
$LN192@RegisterRe:
; File C:\Users\murat\Desktop\Siveps2-1-99-Project\source\client\Client\EterLib\ResourceManager.cpp

; 182  : }

  00158	8b 4d f4	 mov	 ecx, DWORD PTR __$EHRec$[ebp]
  0015b	64 89 0d 00 00
	00 00		 mov	 DWORD PTR fs:0, ecx
  00162	59		 pop	 ecx
  00163	5f		 pop	 edi
  00164	5e		 pop	 esi
  00165	8b 4d f0	 mov	 ecx, DWORD PTR __$ArrayPad$[ebp]
  00168	33 cd		 xor	 ecx, ebp
  0016a	e8 00 00 00 00	 call	 @__security_check_cookie@4
  0016f	8b e5		 mov	 esp, ebp
  00171	5d		 pop	 ebp
  00172	c2 08 00	 ret	 8
$LN213@RegisterRe:
; File C:\Program Files (x86)\Microsoft Visual Studio\2019\Professional\VC\Tools\MSVC\14.29.30133\include\xtree

; 1624 :             _Throw_tree_length_error();

  00175	e8 00 00 00 00	 call	 ?_Throw_tree_length_error@std@@YAXXZ ; std::_Throw_tree_length_error
$LN214@RegisterRe:
; File C:\Program Files (x86)\Microsoft Visual Studio\2019\Professional\VC\Tools\MSVC\14.29.30133\include\xmemory

; 172  :     _STL_VERIFY(_Back_shift >= _Min_back_shift && _Back_shift <= _Non_user_size, "invalid argument");

  0017a	e8 00 00 00 00	 call	 __invalid_parameter_noinfo_noreturn
$LN211@RegisterRe:
  0017f	cc		 int	 3
_TEXT	ENDS
;	COMDAT text$x
text$x	SEGMENT
__unwindfunclet$?RegisterResourceNewFunctionPointer@CResourceManager@@QAEXPBDP6APAVCResource@@0@Z@Z$0:
  00000	8d 4d d8	 lea	 ecx, DWORD PTR $T5[ebp]
  00003	e9 00 00 00 00	 jmp	 ??1?$basic_string@DU?$char_traits@D@std@@V?$allocator@D@2@@std@@QAE@XZ ; std::basic_string<char,std::char_traits<char>,std::allocator<char> >::~basic_string<char,std::char_traits<char>,std::allocator<char> >
__unwindfunclet$?RegisterResourceNewFunctionPointer@CResourceManager@@QAEXPBDP6APAVCResource@@0@Z@Z$5:
  00008	8d 4d c4	 lea	 ecx, DWORD PTR $T3[ebp]
  0000b	e9 00 00 00 00	 jmp	 ??1?$_Alloc_construct_ptr@V?$allocator@U?$_Tree_node@U?$pair@$$CBV?$basic_string@DU?$char_traits@D@std@@V?$allocator@D@2@@std@@P6APAVCResource@@PBD@Z@std@@PAX@std@@@std@@@std@@QAE@XZ ; std::_Alloc_construct_ptr<std::allocator<std::_Tree_node<std::pair<std::basic_string<char,std::char_traits<char>,std::allocator<char> > const ,CResource * (__cdecl*)(char const *)>,void *> > >::~_Alloc_construct_ptr<std::allocator<std::_Tree_node<std::pair<std::basic_string<char,std::char_traits<char>,std::allocator<char> > const ,CResource * (__cdecl*)(char const *)>,void *> > >
  00010	cc		 int	 3
  00011	cc		 int	 3
  00012	cc		 int	 3
  00013	cc		 int	 3
  00014	cc		 int	 3
__ehhandler$?RegisterResourceNewFunctionPointer@CResourceManager@@QAEXPBDP6APAVCResource@@0@Z@Z:
  00015	90		 npad	 1
  00016	90		 npad	 1
  00017	8b 54 24 08	 mov	 edx, DWORD PTR [esp+8]
  0001b	8d 42 0c	 lea	 eax, DWORD PTR [edx+12]
  0001e	8b 4a c4	 mov	 ecx, DWORD PTR [edx-60]
  00021	33 c8		 xor	 ecx, eax
  00023	e8 00 00 00 00	 call	 @__security_check_cookie@4
  00028	8b 4a fc	 mov	 ecx, DWORD PTR [edx-4]
  0002b	33 c8		 xor	 ecx, eax
  0002d	e8 00 00 00 00	 call	 @__security_check_cookie@4
  00032	b8 00 00 00 00	 mov	 eax, OFFSET __ehfuncinfo$?RegisterResourceNewFunctionPointer@CResourceManager@@QAEXPBDP6APAVCResource@@0@Z@Z
  00037	e9 00 00 00 00	 jmp	 ___CxxFrameHandler3
text$x	ENDS
?RegisterResourceNewFunctionPointer@CResourceManager@@QAEXPBDP6APAVCResource@@0@Z@Z ENDP ; CResourceManager::RegisterResourceNewFunctionPointer
; Function compile flags: /Ogtp
; File C:\Users\murat\Desktop\Siveps2-1-99-Project\source\client\Client\EterLib\ResourceManager.cpp
; File C:\Program Files (x86)\Microsoft Visual Studio\2019\Professional\VC\Tools\MSVC\14.29.30133\include\xtree
; File C:\Users\murat\Desktop\Siveps2-1-99-Project\source\client\Client\EterLib\ResourceManager.cpp
; File C:\Program Files (x86)\Microsoft Visual Studio\2019\Professional\VC\Tools\MSVC\14.29.30133\include\xtree
; File C:\Program Files (x86)\Microsoft Visual Studio\2019\Professional\VC\Tools\MSVC\14.29.30133\include\xstddef
; File C:\Program Files (x86)\Microsoft Visual Studio\2019\Professional\VC\Tools\MSVC\14.29.30133\include\xtree
; File C:\Users\murat\Desktop\Siveps2-1-99-Project\source\client\Client\EterLib\ResourceManager.cpp
;	COMDAT ?isResourcePointerData@CResourceManager@@QAE_NK@Z
_TEXT	SEGMENT
__Loc$1 = -12						; size = 12
_dwFileCRC$ = 8						; size = 4
?isResourcePointerData@CResourceManager@@QAE_NK@Z PROC	; CResourceManager::isResourcePointerData, COMDAT
; _this$ = ecx

; 334  : {

  00000	55		 push	 ebp
  00001	8b ec		 mov	 ebp, esp
  00003	83 ec 0c	 sub	 esp, 12			; 0000000cH
  00006	56		 push	 esi
; File C:\Program Files (x86)\Microsoft Visual Studio\2019\Professional\VC\Tools\MSVC\14.29.30133\include\xtree

; 1361 :         const _Tree_find_result<_Nodeptr> _Loc = _Find_lower_bound(_Keyval);

  00007	8d 45 08	 lea	 eax, DWORD PTR _dwFileCRC$[ebp]
  0000a	50		 push	 eax
; File C:\Users\murat\Desktop\Siveps2-1-99-Project\source\client\Client\EterLib\ResourceManager.cpp

; 335  : 	TResourcePointerMap::iterator itor = m_pResMap.find(dwFileCRC);

  0000b	8d 71 0c	 lea	 esi, DWORD PTR [ecx+12]
; File C:\Program Files (x86)\Microsoft Visual Studio\2019\Professional\VC\Tools\MSVC\14.29.30133\include\xtree

; 1361 :         const _Tree_find_result<_Nodeptr> _Loc = _Find_lower_bound(_Keyval);

  0000e	8d 45 f4	 lea	 eax, DWORD PTR __Loc$1[ebp]
  00011	8b ce		 mov	 ecx, esi
  00013	50		 push	 eax
  00014	e8 00 00 00 00	 call	 ??$_Find_lower_bound@K@?$_Tree@V?$_Tmap_traits@KPAVCResource@@U?$less@K@std@@V?$allocator@U?$pair@$$CBKPAVCResource@@@std@@@3@$0A@@std@@@std@@IBE?AU?$_Tree_find_result@PAU?$_Tree_node@U?$pair@$$CBKPAVCResource@@@std@@PAX@std@@@1@ABK@Z ; std::_Tree<std::_Tmap_traits<unsigned long,CResource *,std::less<unsigned long>,std::allocator<std::pair<unsigned long const ,CResource *> >,0> >::_Find_lower_bound<unsigned long>

; 1599 :         return !_Bound->_Isnil && !_DEBUG_LT_PRED(_Getcomp(), _Keyval, _Traits::_Kfn(_Bound->_Myval));

  00019	8b 4d fc	 mov	 ecx, DWORD PTR __Loc$1[ebp+8]
  0001c	80 79 0d 00	 cmp	 BYTE PTR [ecx+13], 0
  00020	75 1b		 jne	 SHORT $LN38@isResource
; File C:\Program Files (x86)\Microsoft Visual Studio\2019\Professional\VC\Tools\MSVC\14.29.30133\include\xstddef

; 127  :         return _Left < _Right;

  00022	8b 45 08	 mov	 eax, DWORD PTR _dwFileCRC$[ebp]
  00025	3b 41 10	 cmp	 eax, DWORD PTR [ecx+16]
; File C:\Program Files (x86)\Microsoft Visual Studio\2019\Professional\VC\Tools\MSVC\14.29.30133\include\xtree

; 1599 :         return !_Bound->_Isnil && !_DEBUG_LT_PRED(_Getcomp(), _Keyval, _Traits::_Kfn(_Bound->_Myval));

  00028	72 13		 jb	 SHORT $LN38@isResource

; 39   :     _Tree_unchecked_const_iterator(_Nodeptr _Pnode, const _Mytree* _Plist) noexcept : _Ptr(_Pnode) {

  0002a	39 0e		 cmp	 DWORD PTR [esi], ecx
; File C:\Users\murat\Desktop\Siveps2-1-99-Project\source\client\Client\EterLib\ResourceManager.cpp

; 337  : 	if (m_pResMap.end() == itor)

  0002c	74 0f		 je	 SHORT $LN38@isResource

; 339  : 
; 340  : 	return (itor->second)->IsData();

  0002e	8b 49 14	 mov	 ecx, DWORD PTR [ecx+20]
  00031	e8 00 00 00 00	 call	 ?IsData@CResource@@QBE_NXZ ; CResource::IsData
  00036	5e		 pop	 esi

; 341  : }

  00037	8b e5		 mov	 esp, ebp
  00039	5d		 pop	 ebp
  0003a	c2 04 00	 ret	 4
$LN38@isResource:

; 338  : 		return NULL;

  0003d	32 c0		 xor	 al, al
  0003f	5e		 pop	 esi

; 341  : }

  00040	8b e5		 mov	 esp, ebp
  00042	5d		 pop	 ebp
  00043	c2 04 00	 ret	 4
?isResourcePointerData@CResourceManager@@QAE_NK@Z ENDP	; CResourceManager::isResourcePointerData
_TEXT	ENDS
; Function compile flags: /Ogtp
; File C:\Users\murat\Desktop\Siveps2-1-99-Project\source\client\Client\EterLib\ResourceManager.cpp
; File C:\Program Files (x86)\Microsoft Visual Studio\2019\Professional\VC\Tools\MSVC\14.29.30133\include\xtree
; File C:\Users\murat\Desktop\Siveps2-1-99-Project\source\client\Client\EterLib\ResourceManager.cpp
; File C:\Program Files (x86)\Microsoft Visual Studio\2019\Professional\VC\Tools\MSVC\14.29.30133\include\xtree
; File C:\Program Files (x86)\Microsoft Visual Studio\2019\Professional\VC\Tools\MSVC\14.29.30133\include\xstddef
; File C:\Program Files (x86)\Microsoft Visual Studio\2019\Professional\VC\Tools\MSVC\14.29.30133\include\xtree
; File C:\Users\murat\Desktop\Siveps2-1-99-Project\source\client\Client\EterLib\ResourceManager.cpp
; File C:\Program Files (x86)\Microsoft Visual Studio\2019\Professional\VC\Tools\MSVC\14.29.30133\include\xstring
; File C:\Users\murat\Desktop\Siveps2-1-99-Project\source\client\Client\EterLib\ResourceManager.cpp
; File C:\Program Files (x86)\Microsoft Visual Studio\2019\Professional\VC\Tools\MSVC\14.29.30133\include\xstring
; File C:\Users\murat\Desktop\Siveps2-1-99-Project\source\client\Client\EterLib\ResourceManager.cpp
; File C:\Program Files (x86)\Microsoft Visual Studio\2019\Professional\VC\Tools\MSVC\14.29.30133\include\xstring
; File C:\Program Files (x86)\Microsoft Visual Studio\2019\Professional\VC\Tools\MSVC\14.29.30133\include\xmemory
; File C:\Program Files (x86)\Microsoft Visual Studio\2019\Professional\VC\Tools\MSVC\14.29.30133\include\xstring
; File C:\Program Files (x86)\Microsoft Visual Studio\2019\Professional\VC\Tools\MSVC\14.29.30133\include\xmemory
; File C:\Program Files (x86)\Microsoft Visual Studio\2019\Professional\VC\Tools\MSVC\14.29.30133\include\xtree
; File C:\Users\murat\Desktop\Siveps2-1-99-Project\source\client\Client\EterLib\ResourceManager.cpp
; File C:\Program Files (x86)\Microsoft Visual Studio\2019\Professional\VC\Tools\MSVC\14.29.30133\include\xmemory
; File C:\Users\murat\Desktop\Siveps2-1-99-Project\source\client\Client\EterLib\ResourceManager.cpp
;	COMDAT ?GetTypeResourcePointer@CResourceManager@@QAEPAVCResource@@PBDH@Z
_TEXT	SEGMENT
_dwFileCRC$1$ = -36					; size = 4
_f$1 = -32						; size = 4
_c_pszFile$ = -32					; size = 4
$T2 = -28						; size = 24
__Loc$3 = -16						; size = 12
__$ArrayPad$ = -4					; size = 4
_c_szFileName$ = 8					; size = 4
_iType$ = 12						; size = 4
?GetTypeResourcePointer@CResourceManager@@QAEPAVCResource@@PBDH@Z PROC ; CResourceManager::GetTypeResourcePointer, COMDAT
; _this$ = ecx

; 225  : {

  00000	55		 push	 ebp
  00001	8b ec		 mov	 ebp, esp
  00003	83 ec 24	 sub	 esp, 36			; 00000024H
  00006	a1 00 00 00 00	 mov	 eax, DWORD PTR ___security_cookie
  0000b	33 c5		 xor	 eax, ebp
  0000d	89 45 fc	 mov	 DWORD PTR __$ArrayPad$[ebp], eax
  00010	8b 45 08	 mov	 eax, DWORD PTR _c_szFileName$[ebp]
  00013	56		 push	 esi
  00014	8b f1		 mov	 esi, ecx

; 226  : 	if (!c_szFileName || !*c_szFileName)

  00016	85 c0		 test	 eax, eax
  00018	0f 84 5f 01 00
	00		 je	 $LN3@GetTypeRes
  0001e	80 38 00	 cmp	 BYTE PTR [eax], 0
  00021	0f 84 56 01 00
	00		 je	 $LN3@GetTypeRes

; 227  : 	{
; 228  : 		assert(c_szFileName != NULL && *c_szFileName != '\0');
; 229  : 		return NULL;
; 230  : 	}
; 231  : 
; 232  : 	const char * c_pszFile;
; 233  : 	DWORD dwFileCRC = __GetFileCRC(c_szFileName, &c_pszFile);

  00027	8d 4d e0	 lea	 ecx, DWORD PTR _c_pszFile$[ebp]
  0002a	51		 push	 ecx
  0002b	50		 push	 eax
  0002c	8b ce		 mov	 ecx, esi
  0002e	e8 00 00 00 00	 call	 ?__GetFileCRC@CResourceManager@@IAEKPBDPAPBD@Z ; CResourceManager::__GetFileCRC

; 234  : 	CResource * pResource = FindResourcePointer(dwFileCRC);

  00033	50		 push	 eax
  00034	8b ce		 mov	 ecx, esi
  00036	89 45 dc	 mov	 DWORD PTR _dwFileCRC$1$[ebp], eax
  00039	e8 00 00 00 00	 call	 ?FindResourcePointer@CResourceManager@@QAEPAVCResource@@K@Z ; CResourceManager::FindResourcePointer

; 235  : 
; 236  : 	if (pResource)	//     .

  0003e	85 c0		 test	 eax, eax
  00040	0f 85 03 01 00
	00		 jne	 $LN1@GetTypeRes

; 237  : 		return pResource;
; 238  : 
; 239  : 	CResource *	(*newFunc) (const char *) = NULL;
; 240  : 
; 241  : 	if (iType != -1)

  00046	53		 push	 ebx
  00047	8b 5d e0	 mov	 ebx, DWORD PTR _c_pszFile$[ebp]
  0004a	57		 push	 edi
  0004b	8b 7d 0c	 mov	 edi, DWORD PTR _iType$[ebp]
  0004e	83 ff ff	 cmp	 edi, -1
  00051	74 37		 je	 SHORT $LN5@GetTypeRes
; File C:\Program Files (x86)\Microsoft Visual Studio\2019\Professional\VC\Tools\MSVC\14.29.30133\include\xtree

; 1361 :         const _Tree_find_result<_Nodeptr> _Loc = _Find_lower_bound(_Keyval);

  00053	8d 45 0c	 lea	 eax, DWORD PTR _iType$[ebp]
  00056	50		 push	 eax
  00057	8d 45 f0	 lea	 eax, DWORD PTR __Loc$3[ebp]
; File C:\Users\murat\Desktop\Siveps2-1-99-Project\source\client\Client\EterLib\ResourceManager.cpp

; 243  : 		TResourceNewFunctionByTypePointerMap::iterator f = m_pResNewFuncByTypeMap.find(iType);

  0005a	8d 4e 1c	 lea	 ecx, DWORD PTR [esi+28]
; File C:\Program Files (x86)\Microsoft Visual Studio\2019\Professional\VC\Tools\MSVC\14.29.30133\include\xtree

; 1361 :         const _Tree_find_result<_Nodeptr> _Loc = _Find_lower_bound(_Keyval);

  0005d	50		 push	 eax
  0005e	e8 00 00 00 00	 call	 ??$_Find_lower_bound@H@?$_Tree@V?$_Tmap_traits@HP6APAVCResource@@PBD@ZU?$less@H@std@@V?$allocator@U?$pair@$$CBHP6APAVCResource@@PBD@Z@std@@@3@$0A@@std@@@std@@IBE?AU?$_Tree_find_result@PAU?$_Tree_node@U?$pair@$$CBHP6APAVCResource@@PBD@Z@std@@PAX@std@@@1@ABH@Z ; std::_Tree<std::_Tmap_traits<int,CResource * (__cdecl*)(char const *),std::less<int>,std::allocator<std::pair<int const ,CResource * (__cdecl*)(char const *)> >,0> >::_Find_lower_bound<int>

; 1599 :         return !_Bound->_Isnil && !_DEBUG_LT_PRED(_Getcomp(), _Keyval, _Traits::_Kfn(_Bound->_Myval));

  00063	8b 45 f8	 mov	 eax, DWORD PTR __Loc$3[ebp+8]
  00066	80 78 0d 00	 cmp	 BYTE PTR [eax+13], 0
  0006a	0f 85 ea 00 00
	00		 jne	 $LN110@GetTypeRes
; File C:\Program Files (x86)\Microsoft Visual Studio\2019\Professional\VC\Tools\MSVC\14.29.30133\include\xstddef

; 127  :         return _Left < _Right;

  00070	3b 78 10	 cmp	 edi, DWORD PTR [eax+16]
; File C:\Program Files (x86)\Microsoft Visual Studio\2019\Professional\VC\Tools\MSVC\14.29.30133\include\xtree

; 1599 :         return !_Bound->_Isnil && !_DEBUG_LT_PRED(_Getcomp(), _Keyval, _Traits::_Kfn(_Bound->_Myval));

  00073	0f 8c e1 00 00
	00		 jl	 $LN110@GetTypeRes

; 39   :     _Tree_unchecked_const_iterator(_Nodeptr _Pnode, const _Mytree* _Plist) noexcept : _Ptr(_Pnode) {

  00079	39 46 1c	 cmp	 DWORD PTR [esi+28], eax
; File C:\Users\murat\Desktop\Siveps2-1-99-Project\source\client\Client\EterLib\ResourceManager.cpp

; 245  : 		if (m_pResNewFuncByTypeMap.end() != f)

  0007c	0f 84 d8 00 00
	00		 je	 $LN110@GetTypeRes

; 246  : 			newFunc = f->second;

  00082	8b 40 14	 mov	 eax, DWORD PTR [eax+20]

; 247  : 	}

  00085	e9 a8 00 00 00	 jmp	 $LN9@GetTypeRes
$LN5@GetTypeRes:

; 248  : 	else
; 249  : 	{
; 250  : 		const char * pcFileExt = strrchr(c_pszFile, '.');

  0008a	6a 2e		 push	 46			; 0000002eH
  0008c	53		 push	 ebx
  0008d	e8 00 00 00 00	 call	 _strrchr
  00092	83 c4 08	 add	 esp, 8

; 251  : 
; 252  : 		if (pcFileExt)

  00095	85 c0		 test	 eax, eax
  00097	0f 84 bd 00 00
	00		 je	 $LN110@GetTypeRes

; 255  : 			strncpy(s_szFileExt, pcFileExt + 1, 8);

  0009d	6a 08		 push	 8
  0009f	40		 inc	 eax
  000a0	50		 push	 eax
  000a1	68 00 00 00 00	 push	 OFFSET ?s_szFileExt@?BB@??GetTypeResourcePointer@CResourceManager@@QAEPAVCResource@@PBDH@Z@4PADA
  000a6	e8 00 00 00 00	 call	 _strncpy
; File C:\Program Files (x86)\Microsoft Visual Studio\2019\Professional\VC\Tools\MSVC\14.29.30133\include\xstring

; 412  :         return _CSTD strlen(reinterpret_cast<const char*>(_First));

  000ab	b9 00 00 00 00	 mov	 ecx, OFFSET ?s_szFileExt@?BB@??GetTypeResourcePointer@CResourceManager@@QAEPAVCResource@@PBDH@Z@4PADA

; 2346 :         _CONSTEXPR20_CONTAINER _Bxty() noexcept : _Ptr() {} // user-provided, for fancy pointers

  000b0	c7 45 e4 00 00
	00 00		 mov	 DWORD PTR $T2[ebp], 0
; File C:\Users\murat\Desktop\Siveps2-1-99-Project\source\client\Client\EterLib\ResourceManager.cpp

; 255  : 			strncpy(s_szFileExt, pcFileExt + 1, 8);

  000b7	83 c4 0c	 add	 esp, 12			; 0000000cH
; File C:\Program Files (x86)\Microsoft Visual Studio\2019\Professional\VC\Tools\MSVC\14.29.30133\include\xstring

; 4596 :         _My_data._Mysize = 0;

  000ba	c7 45 f4 00 00
	00 00		 mov	 DWORD PTR $T2[ebp+16], 0

; 4597 : 
; 4598 : #ifdef __cpp_lib_constexpr_string
; 4599 :         if (_STD is_constant_evaluated()) {
; 4600 :             _My_data._Myres        = _BUF_SIZE; // SSO disabled in constexpr context
; 4601 :             auto& _Al              = _Getal();
; 4602 :             const pointer _New_ptr = _Al.allocate(_BUF_SIZE + 1); // throws
; 4603 :             _My_data._Bx._Ptr      = _New_ptr;
; 4604 : 
; 4605 :             _Elem* const _Raw_new = _Unfancy(_New_ptr);
; 4606 :             _Traits::assign(_Raw_new, _BUF_SIZE + 1, _Elem());
; 4607 :         } else
; 4608 : #endif // __cpp_lib_constexpr_string
; 4609 :         {
; 4610 :             _My_data._Myres = _BUF_SIZE - 1;

  000c1	c7 45 f8 0f 00
	00 00		 mov	 DWORD PTR $T2[ebp+20], 15 ; 0000000fH

; 412  :         return _CSTD strlen(reinterpret_cast<const char*>(_First));

  000c8	8d 51 01	 lea	 edx, DWORD PTR [ecx+1]
  000cb	0f 1f 44 00 00	 npad	 5
$LL112@GetTypeRes:
  000d0	8a 01		 mov	 al, BYTE PTR [ecx]
  000d2	41		 inc	 ecx
  000d3	84 c0		 test	 al, al
  000d5	75 f9		 jne	 SHORT $LL112@GetTypeRes
  000d7	2b ca		 sub	 ecx, edx

; 3264 :         return assign(_Ptr, _Convert_size<size_type>(_Traits::length(_Ptr)));

  000d9	51		 push	 ecx
  000da	68 00 00 00 00	 push	 OFFSET ?s_szFileExt@?BB@??GetTypeResourcePointer@CResourceManager@@QAEPAVCResource@@PBDH@Z@4PADA
  000df	8d 4d e4	 lea	 ecx, DWORD PTR $T2[ebp]
  000e2	e8 00 00 00 00	 call	 ?assign@?$basic_string@DU?$char_traits@D@std@@V?$allocator@D@2@@std@@QAEAAV12@QBDI@Z ; std::basic_string<char,std::char_traits<char>,std::allocator<char> >::assign
; File C:\Users\murat\Desktop\Siveps2-1-99-Project\source\client\Client\EterLib\ResourceManager.cpp

; 257  : 			TResourceNewFunctionPointerMap::iterator f = m_pResNewFuncMap.find(s_szFileExt);

  000e7	8d 45 e4	 lea	 eax, DWORD PTR $T2[ebp]
  000ea	50		 push	 eax
  000eb	8d 45 e0	 lea	 eax, DWORD PTR _f$1[ebp]
  000ee	50		 push	 eax
  000ef	8d 4e 14	 lea	 ecx, DWORD PTR [esi+20]
  000f2	e8 00 00 00 00	 call	 ?find@?$_Tree@V?$_Tmap_traits@V?$basic_string@DU?$char_traits@D@std@@V?$allocator@D@2@@std@@P6APAVCResource@@PBD@ZU?$less@V?$basic_string@DU?$char_traits@D@std@@V?$allocator@D@2@@std@@@2@V?$allocator@U?$pair@$$CBV?$basic_string@DU?$char_traits@D@std@@V?$allocator@D@2@@std@@P6APAVCResource@@PBD@Z@std@@@2@$0A@@std@@@std@@QAE?AV?$_Tree_iterator@V?$_Tree_val@U?$_Tree_simple_types@U?$pair@$$CBV?$basic_string@DU?$char_traits@D@std@@V?$allocator@D@2@@std@@P6APAVCResource@@PBD@Z@std@@@std@@@std@@@2@ABV?$basic_string@DU?$char_traits@D@std@@V?$allocator@D@2@@2@@Z ; std::_Tree<std::_Tmap_traits<std::basic_string<char,std::char_traits<char>,std::allocator<char> >,CResource * (__cdecl*)(char const *),std::less<std::basic_string<char,std::char_traits<char>,std::allocator<char> > >,std::allocator<std::pair<std::basic_string<char,std::char_traits<char>,std::allocator<char> > const ,CResource * (__cdecl*)(char const *)> >,0> >::find
; File C:\Program Files (x86)\Microsoft Visual Studio\2019\Professional\VC\Tools\MSVC\14.29.30133\include\xstring

; 2319 :         return _BUF_SIZE <= _Myres;

  000f7	8b 55 f8	 mov	 edx, DWORD PTR $T2[ebp+20]
  000fa	83 fa 10	 cmp	 edx, 16			; 00000010H

; 4618 :         if (_Mypair._Myval2._Large_string_engaged()) {

  000fd	72 28		 jb	 SHORT $LN76@GetTypeRes
; File C:\Program Files (x86)\Microsoft Visual Studio\2019\Professional\VC\Tools\MSVC\14.29.30133\include\xmemory

; 835  :         _Deallocate<_New_alignof<_Ty>>(_Ptr, sizeof(_Ty) * _Count);

  000ff	8b 4d e4	 mov	 ecx, DWORD PTR $T2[ebp]
; File C:\Program Files (x86)\Microsoft Visual Studio\2019\Professional\VC\Tools\MSVC\14.29.30133\include\xstring

; 4622 :             _Al.deallocate(_Ptr, _Mypair._Myval2._Myres + 1);

  00102	42		 inc	 edx
; File C:\Program Files (x86)\Microsoft Visual Studio\2019\Professional\VC\Tools\MSVC\14.29.30133\include\xmemory

; 835  :         _Deallocate<_New_alignof<_Ty>>(_Ptr, sizeof(_Ty) * _Count);

  00103	8b c1		 mov	 eax, ecx

; 260  :         if (_Bytes >= _Big_allocation_threshold) { // boost the alignment of big allocations to help autovectorization

  00105	81 fa 00 10 00
	00		 cmp	 edx, 4096		; 00001000H
  0010b	72 10		 jb	 SHORT $LN86@GetTypeRes

; 158  :     const uintptr_t _Ptr_container   = _Ptr_user[-1];

  0010d	8b 49 fc	 mov	 ecx, DWORD PTR [ecx-4]
  00110	83 c2 23	 add	 edx, 35			; 00000023H
  00113	2b c1		 sub	 eax, ecx

; 172  :     _STL_VERIFY(_Back_shift >= _Min_back_shift && _Back_shift <= _Non_user_size, "invalid argument");

  00115	83 c0 fc	 add	 eax, -4			; fffffffcH
  00118	83 f8 1f	 cmp	 eax, 31			; 0000001fH
  0011b	77 73		 ja	 SHORT $LN117@GetTypeRes
$LN86@GetTypeRes:

; 264  :         ::operator delete(_Ptr, _Bytes);

  0011d	52		 push	 edx
  0011e	51		 push	 ecx
  0011f	e8 00 00 00 00	 call	 ??3@YAXPAXI@Z		; operator delete
  00124	83 c4 08	 add	 esp, 8
$LN76@GetTypeRes:
; File C:\Program Files (x86)\Microsoft Visual Studio\2019\Professional\VC\Tools\MSVC\14.29.30133\include\xtree

; 39   :     _Tree_unchecked_const_iterator(_Nodeptr _Pnode, const _Mytree* _Plist) noexcept : _Ptr(_Pnode) {

  00127	8b 45 e0	 mov	 eax, DWORD PTR _f$1[ebp]
  0012a	39 46 14	 cmp	 DWORD PTR [esi+20], eax
; File C:\Users\murat\Desktop\Siveps2-1-99-Project\source\client\Client\EterLib\ResourceManager.cpp

; 259  : 			if (m_pResNewFuncMap.end() != f)

  0012d	74 2b		 je	 SHORT $LN110@GetTypeRes

; 260  : 				newFunc = f->second;

  0012f	8b 40 28	 mov	 eax, DWORD PTR [eax+40]
$LN9@GetTypeRes:

; 261  : 		}
; 262  : 	}
; 263  : 
; 264  : 	if (!newFunc)

  00132	85 c0		 test	 eax, eax
  00134	74 24		 je	 SHORT $LN110@GetTypeRes

; 268  : 	}
; 269  : 
; 270  : 	pResource = InsertResourcePointer(dwFileCRC, newFunc(c_pszFile));

  00136	53		 push	 ebx
  00137	ff d0		 call	 eax
  00139	83 c4 04	 add	 esp, 4
  0013c	8b ce		 mov	 ecx, esi
  0013e	50		 push	 eax
  0013f	ff 75 dc	 push	 DWORD PTR _dwFileCRC$1$[ebp]
  00142	e8 00 00 00 00	 call	 ?InsertResourcePointer@CResourceManager@@QAEPAVCResource@@KPAV2@@Z ; CResourceManager::InsertResourcePointer
  00147	5f		 pop	 edi
  00148	5b		 pop	 ebx
$LN1@GetTypeRes:
  00149	5e		 pop	 esi

; 272  : }

  0014a	8b 4d fc	 mov	 ecx, DWORD PTR __$ArrayPad$[ebp]
  0014d	33 cd		 xor	 ecx, ebp
  0014f	e8 00 00 00 00	 call	 @__security_check_cookie@4
  00154	8b e5		 mov	 esp, ebp
  00156	5d		 pop	 ebp
  00157	c2 08 00	 ret	 8
$LN110@GetTypeRes:

; 265  : 	{
; 266  : 		TraceError("ResourceManager::GetResourcePointer: NOT SUPPORT FILE %s", c_pszFile);

  0015a	53		 push	 ebx
  0015b	68 00 00 00 00	 push	 OFFSET ??_C@_0DJ@NILLFGHO@ResourceManager?3?3GetResourcePoi@
  00160	e8 00 00 00 00	 call	 ?TraceError@@YAXPBDZZ	; TraceError
  00165	83 c4 08	 add	 esp, 8

; 267  : 		return NULL;

  00168	33 c0		 xor	 eax, eax
  0016a	5f		 pop	 edi
  0016b	5b		 pop	 ebx
  0016c	5e		 pop	 esi

; 272  : }

  0016d	8b 4d fc	 mov	 ecx, DWORD PTR __$ArrayPad$[ebp]
  00170	33 cd		 xor	 ecx, ebp
  00172	e8 00 00 00 00	 call	 @__security_check_cookie@4
  00177	8b e5		 mov	 esp, ebp
  00179	5d		 pop	 ebp
  0017a	c2 08 00	 ret	 8
$LN3@GetTypeRes:
  0017d	8b 4d fc	 mov	 ecx, DWORD PTR __$ArrayPad$[ebp]
  00180	33 c0		 xor	 eax, eax
  00182	33 cd		 xor	 ecx, ebp
  00184	5e		 pop	 esi
  00185	e8 00 00 00 00	 call	 @__security_check_cookie@4
  0018a	8b e5		 mov	 esp, ebp
  0018c	5d		 pop	 ebp
  0018d	c2 08 00	 ret	 8
$LN117@GetTypeRes:
; File C:\Program Files (x86)\Microsoft Visual Studio\2019\Professional\VC\Tools\MSVC\14.29.30133\include\xmemory

; 172  :     _STL_VERIFY(_Back_shift >= _Min_back_shift && _Back_shift <= _Non_user_size, "invalid argument");

  00190	e8 00 00 00 00	 call	 __invalid_parameter_noinfo_noreturn
$LN115@GetTypeRes:
  00195	cc		 int	 3
?GetTypeResourcePointer@CResourceManager@@QAEPAVCResource@@PBDH@Z ENDP ; CResourceManager::GetTypeResourcePointer
_TEXT	ENDS
; Function compile flags: /Ogtp
; File C:\Users\murat\Desktop\Siveps2-1-99-Project\source\client\Client\EterLib\ResourceManager.cpp
; File C:\Program Files (x86)\Microsoft Visual Studio\2019\Professional\VC\Tools\MSVC\14.29.30133\include\xstring
; File C:\Users\murat\Desktop\Siveps2-1-99-Project\source\client\Client\EterLib\ResourceManager.cpp
; File C:\Program Files (x86)\Microsoft Visual Studio\2019\Professional\VC\Tools\MSVC\14.29.30133\include\xstring
; File C:\Users\murat\Desktop\Siveps2-1-99-Project\source\client\Client\EterLib\ResourceManager.cpp
; File C:\Program Files (x86)\Microsoft Visual Studio\2019\Professional\VC\Tools\MSVC\14.29.30133\include\xstring
; File C:\Program Files (x86)\Microsoft Visual Studio\2019\Professional\VC\Tools\MSVC\14.29.30133\include\xmemory
; File C:\Program Files (x86)\Microsoft Visual Studio\2019\Professional\VC\Tools\MSVC\14.29.30133\include\xstring
; File C:\Program Files (x86)\Microsoft Visual Studio\2019\Professional\VC\Tools\MSVC\14.29.30133\include\xmemory
; File C:\Program Files (x86)\Microsoft Visual Studio\2019\Professional\VC\Tools\MSVC\14.29.30133\include\xtree
; File C:\Users\murat\Desktop\Siveps2-1-99-Project\source\client\Client\EterLib\ResourceManager.cpp
; File C:\Program Files (x86)\Microsoft Visual Studio\2019\Professional\VC\Tools\MSVC\14.29.30133\include\xmemory
; File C:\Users\murat\Desktop\Siveps2-1-99-Project\source\client\Client\EterLib\ResourceManager.cpp
;	COMDAT ?GetResourcePointer@CResourceManager@@QAEPAVCResource@@PBD@Z
_TEXT	SEGMENT
_dwFileCRC$1$ = -36					; size = 4
_f$1 = -32						; size = 4
_c_pszFile$ = -32					; size = 4
$T2 = -28						; size = 24
__$ArrayPad$ = -4					; size = 4
_c_szFileName$ = 8					; size = 4
?GetResourcePointer@CResourceManager@@QAEPAVCResource@@PBD@Z PROC ; CResourceManager::GetResourcePointer, COMDAT
; _this$ = ecx

; 275  : {

  00000	55		 push	 ebp
  00001	8b ec		 mov	 ebp, esp
  00003	83 ec 24	 sub	 esp, 36			; 00000024H
  00006	a1 00 00 00 00	 mov	 eax, DWORD PTR ___security_cookie
  0000b	33 c5		 xor	 eax, ebp
  0000d	89 45 fc	 mov	 DWORD PTR __$ArrayPad$[ebp], eax
  00010	8b 45 08	 mov	 eax, DWORD PTR _c_szFileName$[ebp]
  00013	57		 push	 edi
  00014	8b f9		 mov	 edi, ecx

; 276  : 	if (!c_szFileName || !*c_szFileName)

  00016	85 c0		 test	 eax, eax
  00018	0f 84 1f 01 00
	00		 je	 $LN3@GetResourc
  0001e	80 38 00	 cmp	 BYTE PTR [eax], 0
  00021	0f 84 16 01 00
	00		 je	 $LN3@GetResourc

; 279  : 		return NULL;
; 280  : 	}
; 281  : 
; 282  : 	const char * c_pszFile;
; 283  : 	DWORD dwFileCRC = __GetFileCRC(c_szFileName, &c_pszFile);

  00027	8d 4d e0	 lea	 ecx, DWORD PTR _c_pszFile$[ebp]
  0002a	51		 push	 ecx
  0002b	50		 push	 eax
  0002c	8b cf		 mov	 ecx, edi
  0002e	e8 00 00 00 00	 call	 ?__GetFileCRC@CResourceManager@@IAEKPBDPAPBD@Z ; CResourceManager::__GetFileCRC

; 284  : 	CResource * pResource = FindResourcePointer(dwFileCRC);

  00033	50		 push	 eax
  00034	8b cf		 mov	 ecx, edi
  00036	89 45 dc	 mov	 DWORD PTR _dwFileCRC$1$[ebp], eax
  00039	e8 00 00 00 00	 call	 ?FindResourcePointer@CResourceManager@@QAEPAVCResource@@K@Z ; CResourceManager::FindResourcePointer

; 285  : 
; 286  : 	if (pResource)	//     .

  0003e	85 c0		 test	 eax, eax
  00040	0f 85 c4 00 00
	00		 jne	 $LN1@GetResourc

; 287  : 		return pResource;
; 288  : 
; 289  : 	const char * pcFileExt = strrchr(c_pszFile, '.');

  00046	56		 push	 esi
  00047	8b 75 e0	 mov	 esi, DWORD PTR _c_pszFile$[ebp]
  0004a	6a 2e		 push	 46			; 0000002eH
  0004c	56		 push	 esi
  0004d	e8 00 00 00 00	 call	 _strrchr
  00052	83 c4 08	 add	 esp, 8

; 290  : 
; 291  : #ifdef _DEBUG
; 292  : 	if (!IsFileExist(c_szFileName) )
; 293  : 	{
; 294  : 		if( pcFileExt == NULL || (stricmp( pcFileExt, ".fnt" ) != 0) ) {
; 295  : 			TraceError("CResourceManager::GetResourcePointer: File not exist %s", c_szFileName);
; 296  : 		}
; 297  : 	}
; 298  : #endif
; 299  : 
; 300  : 	CResource *	(*newFunc) (const char *) = NULL;
; 301  : 
; 302  : 	if (pcFileExt)

  00055	85 c0		 test	 eax, eax
  00057	0f 84 be 00 00
	00		 je	 $LN72@GetResourc

; 305  : 		strncpy(s_szFileExt, pcFileExt + 1, 8);

  0005d	6a 08		 push	 8
  0005f	40		 inc	 eax
  00060	50		 push	 eax
  00061	68 00 00 00 00	 push	 OFFSET ?s_szFileExt@?9??GetResourcePointer@CResourceManager@@QAEPAVCResource@@PBD@Z@4PADA
  00066	e8 00 00 00 00	 call	 _strncpy
; File C:\Program Files (x86)\Microsoft Visual Studio\2019\Professional\VC\Tools\MSVC\14.29.30133\include\xstring

; 412  :         return _CSTD strlen(reinterpret_cast<const char*>(_First));

  0006b	b9 00 00 00 00	 mov	 ecx, OFFSET ?s_szFileExt@?9??GetResourcePointer@CResourceManager@@QAEPAVCResource@@PBD@Z@4PADA

; 2346 :         _CONSTEXPR20_CONTAINER _Bxty() noexcept : _Ptr() {} // user-provided, for fancy pointers

  00070	c7 45 e4 00 00
	00 00		 mov	 DWORD PTR $T2[ebp], 0
; File C:\Users\murat\Desktop\Siveps2-1-99-Project\source\client\Client\EterLib\ResourceManager.cpp

; 305  : 		strncpy(s_szFileExt, pcFileExt + 1, 8);

  00077	83 c4 0c	 add	 esp, 12			; 0000000cH
; File C:\Program Files (x86)\Microsoft Visual Studio\2019\Professional\VC\Tools\MSVC\14.29.30133\include\xstring

; 4596 :         _My_data._Mysize = 0;

  0007a	c7 45 f4 00 00
	00 00		 mov	 DWORD PTR $T2[ebp+16], 0

; 4597 : 
; 4598 : #ifdef __cpp_lib_constexpr_string
; 4599 :         if (_STD is_constant_evaluated()) {
; 4600 :             _My_data._Myres        = _BUF_SIZE; // SSO disabled in constexpr context
; 4601 :             auto& _Al              = _Getal();
; 4602 :             const pointer _New_ptr = _Al.allocate(_BUF_SIZE + 1); // throws
; 4603 :             _My_data._Bx._Ptr      = _New_ptr;
; 4604 : 
; 4605 :             _Elem* const _Raw_new = _Unfancy(_New_ptr);
; 4606 :             _Traits::assign(_Raw_new, _BUF_SIZE + 1, _Elem());
; 4607 :         } else
; 4608 : #endif // __cpp_lib_constexpr_string
; 4609 :         {
; 4610 :             _My_data._Myres = _BUF_SIZE - 1;

  00081	c7 45 f8 0f 00
	00 00		 mov	 DWORD PTR $T2[ebp+20], 15 ; 0000000fH

; 412  :         return _CSTD strlen(reinterpret_cast<const char*>(_First));

  00088	8d 51 01	 lea	 edx, DWORD PTR [ecx+1]
  0008b	0f 1f 44 00 00	 npad	 5
$LL73@GetResourc:
  00090	8a 01		 mov	 al, BYTE PTR [ecx]
  00092	41		 inc	 ecx
  00093	84 c0		 test	 al, al
  00095	75 f9		 jne	 SHORT $LL73@GetResourc
  00097	53		 push	 ebx
  00098	2b ca		 sub	 ecx, edx

; 3264 :         return assign(_Ptr, _Convert_size<size_type>(_Traits::length(_Ptr)));

  0009a	51		 push	 ecx
  0009b	68 00 00 00 00	 push	 OFFSET ?s_szFileExt@?9??GetResourcePointer@CResourceManager@@QAEPAVCResource@@PBD@Z@4PADA
  000a0	8d 4d e4	 lea	 ecx, DWORD PTR $T2[ebp]
  000a3	e8 00 00 00 00	 call	 ?assign@?$basic_string@DU?$char_traits@D@std@@V?$allocator@D@2@@std@@QAEAAV12@QBDI@Z ; std::basic_string<char,std::char_traits<char>,std::allocator<char> >::assign
; File C:\Users\murat\Desktop\Siveps2-1-99-Project\source\client\Client\EterLib\ResourceManager.cpp

; 307  : 		TResourceNewFunctionPointerMap::iterator f = m_pResNewFuncMap.find(s_szFileExt);

  000a8	8d 45 e4	 lea	 eax, DWORD PTR $T2[ebp]
  000ab	50		 push	 eax
  000ac	8d 45 e0	 lea	 eax, DWORD PTR _f$1[ebp]
  000af	50		 push	 eax
  000b0	8d 4f 14	 lea	 ecx, DWORD PTR [edi+20]
  000b3	e8 00 00 00 00	 call	 ?find@?$_Tree@V?$_Tmap_traits@V?$basic_string@DU?$char_traits@D@std@@V?$allocator@D@2@@std@@P6APAVCResource@@PBD@ZU?$less@V?$basic_string@DU?$char_traits@D@std@@V?$allocator@D@2@@std@@@2@V?$allocator@U?$pair@$$CBV?$basic_string@DU?$char_traits@D@std@@V?$allocator@D@2@@std@@P6APAVCResource@@PBD@Z@std@@@2@$0A@@std@@@std@@QAE?AV?$_Tree_iterator@V?$_Tree_val@U?$_Tree_simple_types@U?$pair@$$CBV?$basic_string@DU?$char_traits@D@std@@V?$allocator@D@2@@std@@P6APAVCResource@@PBD@Z@std@@@std@@@std@@@2@ABV?$basic_string@DU?$char_traits@D@std@@V?$allocator@D@2@@2@@Z ; std::_Tree<std::_Tmap_traits<std::basic_string<char,std::char_traits<char>,std::allocator<char> >,CResource * (__cdecl*)(char const *),std::less<std::basic_string<char,std::char_traits<char>,std::allocator<char> > >,std::allocator<std::pair<std::basic_string<char,std::char_traits<char>,std::allocator<char> > const ,CResource * (__cdecl*)(char const *)> >,0> >::find
; File C:\Program Files (x86)\Microsoft Visual Studio\2019\Professional\VC\Tools\MSVC\14.29.30133\include\xstring

; 2319 :         return _BUF_SIZE <= _Myres;

  000b8	8b 55 f8	 mov	 edx, DWORD PTR $T2[ebp+20]
  000bb	83 fa 10	 cmp	 edx, 16			; 00000010H

; 4618 :         if (_Mypair._Myval2._Large_string_engaged()) {

  000be	72 28		 jb	 SHORT $LN38@GetResourc
; File C:\Program Files (x86)\Microsoft Visual Studio\2019\Professional\VC\Tools\MSVC\14.29.30133\include\xmemory

; 835  :         _Deallocate<_New_alignof<_Ty>>(_Ptr, sizeof(_Ty) * _Count);

  000c0	8b 4d e4	 mov	 ecx, DWORD PTR $T2[ebp]
; File C:\Program Files (x86)\Microsoft Visual Studio\2019\Professional\VC\Tools\MSVC\14.29.30133\include\xstring

; 4622 :             _Al.deallocate(_Ptr, _Mypair._Myval2._Myres + 1);

  000c3	42		 inc	 edx
; File C:\Program Files (x86)\Microsoft Visual Studio\2019\Professional\VC\Tools\MSVC\14.29.30133\include\xmemory

; 835  :         _Deallocate<_New_alignof<_Ty>>(_Ptr, sizeof(_Ty) * _Count);

  000c4	8b c1		 mov	 eax, ecx

; 260  :         if (_Bytes >= _Big_allocation_threshold) { // boost the alignment of big allocations to help autovectorization

  000c6	81 fa 00 10 00
	00		 cmp	 edx, 4096		; 00001000H
  000cc	72 10		 jb	 SHORT $LN48@GetResourc

; 158  :     const uintptr_t _Ptr_container   = _Ptr_user[-1];

  000ce	8b 49 fc	 mov	 ecx, DWORD PTR [ecx-4]
  000d1	83 c2 23	 add	 edx, 35			; 00000023H
  000d4	2b c1		 sub	 eax, ecx

; 172  :     _STL_VERIFY(_Back_shift >= _Min_back_shift && _Back_shift <= _Non_user_size, "invalid argument");

  000d6	83 c0 fc	 add	 eax, -4			; fffffffcH
  000d9	83 f8 1f	 cmp	 eax, 31			; 0000001fH
  000dc	77 7f		 ja	 SHORT $LN77@GetResourc
$LN48@GetResourc:

; 264  :         ::operator delete(_Ptr, _Bytes);

  000de	52		 push	 edx
  000df	51		 push	 ecx
  000e0	e8 00 00 00 00	 call	 ??3@YAXPAXI@Z		; operator delete
  000e5	83 c4 08	 add	 esp, 8
$LN38@GetResourc:
; File C:\Program Files (x86)\Microsoft Visual Studio\2019\Professional\VC\Tools\MSVC\14.29.30133\include\xtree

; 39   :     _Tree_unchecked_const_iterator(_Nodeptr _Pnode, const _Mytree* _Plist) noexcept : _Ptr(_Pnode) {

  000e8	8b 45 e0	 mov	 eax, DWORD PTR _f$1[ebp]
  000eb	5b		 pop	 ebx
  000ec	39 47 14	 cmp	 DWORD PTR [edi+20], eax
; File C:\Users\murat\Desktop\Siveps2-1-99-Project\source\client\Client\EterLib\ResourceManager.cpp

; 309  : 		if (m_pResNewFuncMap.end() != f)

  000ef	74 2a		 je	 SHORT $LN72@GetResourc

; 310  : 			newFunc = f->second;

  000f1	8b 40 28	 mov	 eax, DWORD PTR [eax+40]

; 311  : 	}
; 312  : 
; 313  : 	if (!newFunc)

  000f4	85 c0		 test	 eax, eax
  000f6	74 23		 je	 SHORT $LN72@GetResourc

; 317  : 	}
; 318  : 
; 319  : 	pResource = InsertResourcePointer(dwFileCRC, newFunc(c_pszFile));

  000f8	56		 push	 esi
  000f9	ff d0		 call	 eax
  000fb	83 c4 04	 add	 esp, 4
  000fe	8b cf		 mov	 ecx, edi
  00100	50		 push	 eax
  00101	ff 75 dc	 push	 DWORD PTR _dwFileCRC$1$[ebp]
  00104	e8 00 00 00 00	 call	 ?InsertResourcePointer@CResourceManager@@QAEPAVCResource@@KPAV2@@Z ; CResourceManager::InsertResourcePointer
  00109	5e		 pop	 esi
$LN1@GetResourc:
  0010a	5f		 pop	 edi

; 321  : }

  0010b	8b 4d fc	 mov	 ecx, DWORD PTR __$ArrayPad$[ebp]
  0010e	33 cd		 xor	 ecx, ebp
  00110	e8 00 00 00 00	 call	 @__security_check_cookie@4
  00115	8b e5		 mov	 esp, ebp
  00117	5d		 pop	 ebp
  00118	c2 04 00	 ret	 4
$LN72@GetResourc:

; 314  : 	{
; 315  : 		TraceError("ResourceManager::GetResourcePointer: NOT SUPPORT FILE %s", c_pszFile);

  0011b	56		 push	 esi
  0011c	68 00 00 00 00	 push	 OFFSET ??_C@_0DJ@NILLFGHO@ResourceManager?3?3GetResourcePoi@
  00121	e8 00 00 00 00	 call	 ?TraceError@@YAXPBDZZ	; TraceError
  00126	83 c4 08	 add	 esp, 8

; 316  : 		return NULL;

  00129	33 c0		 xor	 eax, eax
  0012b	5e		 pop	 esi
  0012c	5f		 pop	 edi

; 321  : }

  0012d	8b 4d fc	 mov	 ecx, DWORD PTR __$ArrayPad$[ebp]
  00130	33 cd		 xor	 ecx, ebp
  00132	e8 00 00 00 00	 call	 @__security_check_cookie@4
  00137	8b e5		 mov	 esp, ebp
  00139	5d		 pop	 ebp
  0013a	c2 04 00	 ret	 4
$LN3@GetResourc:

; 277  : 	{
; 278  : 		TraceError("CResourceManager::GetResourcePointer: filename error!");

  0013d	68 00 00 00 00	 push	 OFFSET ??_C@_0DG@LGINPHCP@CResourceManager?3?3GetResourcePo@
  00142	e8 00 00 00 00	 call	 ?TraceError@@YAXPBDZZ	; TraceError

; 321  : }

  00147	8b 4d fc	 mov	 ecx, DWORD PTR __$ArrayPad$[ebp]
  0014a	83 c4 04	 add	 esp, 4
  0014d	33 cd		 xor	 ecx, ebp
  0014f	33 c0		 xor	 eax, eax
  00151	5f		 pop	 edi
  00152	e8 00 00 00 00	 call	 @__security_check_cookie@4
  00157	8b e5		 mov	 esp, ebp
  00159	5d		 pop	 ebp
  0015a	c2 04 00	 ret	 4
$LN77@GetResourc:
; File C:\Program Files (x86)\Microsoft Visual Studio\2019\Professional\VC\Tools\MSVC\14.29.30133\include\xmemory

; 172  :     _STL_VERIFY(_Back_shift >= _Min_back_shift && _Back_shift <= _Non_user_size, "invalid argument");

  0015d	e8 00 00 00 00	 call	 __invalid_parameter_noinfo_noreturn
$LN75@GetResourc:
  00162	cc		 int	 3
?GetResourcePointer@CResourceManager@@QAEPAVCResource@@PBD@Z ENDP ; CResourceManager::GetResourcePointer
_TEXT	ENDS
; Function compile flags: /Ogtp
; File C:\Users\murat\Desktop\Siveps2-1-99-Project\source\client\Client\EterLib\ResourceManager.cpp
; File C:\Program Files (x86)\Microsoft Visual Studio\2019\Professional\VC\Tools\MSVC\14.29.30133\include\xtree
; File C:\Users\murat\Desktop\Siveps2-1-99-Project\source\client\Client\EterLib\ResourceManager.cpp
; File C:\Program Files (x86)\Microsoft Visual Studio\2019\Professional\VC\Tools\MSVC\14.29.30133\include\xtree
; File C:\Program Files (x86)\Microsoft Visual Studio\2019\Professional\VC\Tools\MSVC\14.29.30133\include\xstddef
; File C:\Program Files (x86)\Microsoft Visual Studio\2019\Professional\VC\Tools\MSVC\14.29.30133\include\xtree
; File C:\Users\murat\Desktop\Siveps2-1-99-Project\source\client\Client\EterLib\ResourceManager.cpp
;	COMDAT ?FindResourcePointer@CResourceManager@@QAEPAVCResource@@K@Z
_TEXT	SEGMENT
__Loc$1 = -12						; size = 12
_dwFileCRC$ = 8						; size = 4
?FindResourcePointer@CResourceManager@@QAEPAVCResource@@K@Z PROC ; CResourceManager::FindResourcePointer, COMDAT
; _this$ = ecx

; 324  : {

  00000	55		 push	 ebp
  00001	8b ec		 mov	 ebp, esp
  00003	83 ec 0c	 sub	 esp, 12			; 0000000cH
  00006	56		 push	 esi
; File C:\Program Files (x86)\Microsoft Visual Studio\2019\Professional\VC\Tools\MSVC\14.29.30133\include\xtree

; 1361 :         const _Tree_find_result<_Nodeptr> _Loc = _Find_lower_bound(_Keyval);

  00007	8d 45 08	 lea	 eax, DWORD PTR _dwFileCRC$[ebp]
  0000a	50		 push	 eax
; File C:\Users\murat\Desktop\Siveps2-1-99-Project\source\client\Client\EterLib\ResourceManager.cpp

; 325  : 	TResourcePointerMap::iterator itor = m_pResMap.find(dwFileCRC);

  0000b	8d 71 0c	 lea	 esi, DWORD PTR [ecx+12]
; File C:\Program Files (x86)\Microsoft Visual Studio\2019\Professional\VC\Tools\MSVC\14.29.30133\include\xtree

; 1361 :         const _Tree_find_result<_Nodeptr> _Loc = _Find_lower_bound(_Keyval);

  0000e	8d 45 f4	 lea	 eax, DWORD PTR __Loc$1[ebp]
  00011	8b ce		 mov	 ecx, esi
  00013	50		 push	 eax
  00014	e8 00 00 00 00	 call	 ??$_Find_lower_bound@K@?$_Tree@V?$_Tmap_traits@KPAVCResource@@U?$less@K@std@@V?$allocator@U?$pair@$$CBKPAVCResource@@@std@@@3@$0A@@std@@@std@@IBE?AU?$_Tree_find_result@PAU?$_Tree_node@U?$pair@$$CBKPAVCResource@@@std@@PAX@std@@@1@ABK@Z ; std::_Tree<std::_Tmap_traits<unsigned long,CResource *,std::less<unsigned long>,std::allocator<std::pair<unsigned long const ,CResource *> >,0> >::_Find_lower_bound<unsigned long>

; 1599 :         return !_Bound->_Isnil && !_DEBUG_LT_PRED(_Getcomp(), _Keyval, _Traits::_Kfn(_Bound->_Myval));

  00019	8b 45 fc	 mov	 eax, DWORD PTR __Loc$1[ebp+8]
  0001c	80 78 0d 00	 cmp	 BYTE PTR [eax+13], 0
  00020	75 16		 jne	 SHORT $LN38@FindResour
; File C:\Program Files (x86)\Microsoft Visual Studio\2019\Professional\VC\Tools\MSVC\14.29.30133\include\xstddef

; 127  :         return _Left < _Right;

  00022	8b 4d 08	 mov	 ecx, DWORD PTR _dwFileCRC$[ebp]
  00025	3b 48 10	 cmp	 ecx, DWORD PTR [eax+16]
; File C:\Program Files (x86)\Microsoft Visual Studio\2019\Professional\VC\Tools\MSVC\14.29.30133\include\xtree

; 1599 :         return !_Bound->_Isnil && !_DEBUG_LT_PRED(_Getcomp(), _Keyval, _Traits::_Kfn(_Bound->_Myval));

  00028	72 0e		 jb	 SHORT $LN38@FindResour

; 39   :     _Tree_unchecked_const_iterator(_Nodeptr _Pnode, const _Mytree* _Plist) noexcept : _Ptr(_Pnode) {

  0002a	39 06		 cmp	 DWORD PTR [esi], eax
; File C:\Users\murat\Desktop\Siveps2-1-99-Project\source\client\Client\EterLib\ResourceManager.cpp

; 327  : 	if (m_pResMap.end() == itor)

  0002c	74 0a		 je	 SHORT $LN38@FindResour

; 329  : 
; 330  : 	return itor->second;

  0002e	8b 40 14	 mov	 eax, DWORD PTR [eax+20]
  00031	5e		 pop	 esi

; 331  : }

  00032	8b e5		 mov	 esp, ebp
  00034	5d		 pop	 ebp
  00035	c2 04 00	 ret	 4
$LN38@FindResour:

; 328  : 		return NULL;

  00038	33 c0		 xor	 eax, eax
  0003a	5e		 pop	 esi

; 331  : }

  0003b	8b e5		 mov	 esp, ebp
  0003d	5d		 pop	 ebp
  0003e	c2 04 00	 ret	 4
?FindResourcePointer@CResourceManager@@QAEPAVCResource@@K@Z ENDP ; CResourceManager::FindResourcePointer
_TEXT	ENDS
; Function compile flags: /Ogtp
; File C:\Users\murat\Desktop\Siveps2-1-99-Project\source\client\Client\EterLib\ResourceManager.cpp
; File C:\Program Files (x86)\Microsoft Visual Studio\2019\Professional\VC\Tools\MSVC\14.29.30133\include\xtree
; File C:\Users\murat\Desktop\Siveps2-1-99-Project\source\client\Client\EterLib\ResourceManager.cpp
; File C:\Program Files (x86)\Microsoft Visual Studio\2019\Professional\VC\Tools\MSVC\14.29.30133\include\xtree
; File C:\Program Files (x86)\Microsoft Visual Studio\2019\Professional\VC\Tools\MSVC\14.29.30133\include\xstddef
; File C:\Program Files (x86)\Microsoft Visual Studio\2019\Professional\VC\Tools\MSVC\14.29.30133\include\xtree
; File C:\Users\murat\Desktop\Siveps2-1-99-Project\source\client\Client\EterLib\ResourceManager.cpp
; File C:\Program Files (x86)\Microsoft Visual Studio\2019\Professional\VC\Tools\MSVC\14.29.30133\include\xstring
; File C:\Users\murat\Desktop\Siveps2-1-99-Project\source\client\Client\EterLib\ResourceManager.cpp
; File C:\Program Files (x86)\Microsoft Visual Studio\2019\Professional\VC\Tools\MSVC\14.29.30133\include\utility
; File C:\Users\murat\Desktop\Siveps2-1-99-Project\source\client\Client\EterLib\ResourceManager.cpp
; File C:\Program Files (x86)\Microsoft Visual Studio\2019\Professional\VC\Tools\MSVC\14.29.30133\include\utility
; File C:\Users\murat\Desktop\Siveps2-1-99-Project\source\client\Client\EterLib\ResourceManager.cpp
; File C:\Program Files (x86)\Microsoft Visual Studio\2019\Professional\VC\Tools\MSVC\14.29.30133\include\utility
; File C:\Users\murat\Desktop\Siveps2-1-99-Project\source\client\Client\EterLib\ResourceManager.cpp
;	COMDAT ?InsertResourcePointer@CResourceManager@@QAEPAVCResource@@KPAV2@@Z
_TEXT	SEGMENT
__Loc$1 = -20						; size = 12
$T2 = -16						; size = 8
$T3 = -8						; size = 8
_dwFileCRC$ = 8						; size = 4
_pResource$ = 12					; size = 4
?InsertResourcePointer@CResourceManager@@QAEPAVCResource@@KPAV2@@Z PROC ; CResourceManager::InsertResourcePointer, COMDAT
; _this$ = ecx

; 191  : {

  00000	55		 push	 ebp
  00001	8b ec		 mov	 ebp, esp
  00003	83 ec 14	 sub	 esp, 20			; 00000014H
  00006	53		 push	 ebx
  00007	56		 push	 esi
  00008	57		 push	 edi
; File C:\Program Files (x86)\Microsoft Visual Studio\2019\Professional\VC\Tools\MSVC\14.29.30133\include\xtree

; 1361 :         const _Tree_find_result<_Nodeptr> _Loc = _Find_lower_bound(_Keyval);

  00009	8d 45 08	 lea	 eax, DWORD PTR _dwFileCRC$[ebp]
  0000c	50		 push	 eax
; File C:\Users\murat\Desktop\Siveps2-1-99-Project\source\client\Client\EterLib\ResourceManager.cpp

; 192  : 	TResourcePointerMap::iterator itor = m_pResMap.find(dwFileCRC);

  0000d	8d 59 0c	 lea	 ebx, DWORD PTR [ecx+12]
; File C:\Program Files (x86)\Microsoft Visual Studio\2019\Professional\VC\Tools\MSVC\14.29.30133\include\xtree

; 1361 :         const _Tree_find_result<_Nodeptr> _Loc = _Find_lower_bound(_Keyval);

  00010	8d 45 ec	 lea	 eax, DWORD PTR __Loc$1[ebp]
  00013	8b cb		 mov	 ecx, ebx
  00015	50		 push	 eax
  00016	e8 00 00 00 00	 call	 ??$_Find_lower_bound@K@?$_Tree@V?$_Tmap_traits@KPAVCResource@@U?$less@K@std@@V?$allocator@U?$pair@$$CBKPAVCResource@@@std@@@3@$0A@@std@@@std@@IBE?AU?$_Tree_find_result@PAU?$_Tree_node@U?$pair@$$CBKPAVCResource@@@std@@PAX@std@@@1@ABK@Z ; std::_Tree<std::_Tmap_traits<unsigned long,CResource *,std::less<unsigned long>,std::allocator<std::pair<unsigned long const ,CResource *> >,0> >::_Find_lower_bound<unsigned long>

; 1599 :         return !_Bound->_Isnil && !_DEBUG_LT_PRED(_Getcomp(), _Keyval, _Traits::_Kfn(_Bound->_Myval));

  0001b	8b 7d f4	 mov	 edi, DWORD PTR __Loc$1[ebp+8]
  0001e	8b 45 08	 mov	 eax, DWORD PTR _dwFileCRC$[ebp]
  00021	80 7f 0d 00	 cmp	 BYTE PTR [edi+13], 0
  00025	75 3d		 jne	 SHORT $LN2@InsertReso
; File C:\Program Files (x86)\Microsoft Visual Studio\2019\Professional\VC\Tools\MSVC\14.29.30133\include\xstddef

; 127  :         return _Left < _Right;

  00027	3b 47 10	 cmp	 eax, DWORD PTR [edi+16]
; File C:\Program Files (x86)\Microsoft Visual Studio\2019\Professional\VC\Tools\MSVC\14.29.30133\include\xtree

; 1599 :         return !_Bound->_Isnil && !_DEBUG_LT_PRED(_Getcomp(), _Keyval, _Traits::_Kfn(_Bound->_Myval));

  0002a	72 38		 jb	 SHORT $LN2@InsertReso

; 39   :     _Tree_unchecked_const_iterator(_Nodeptr _Pnode, const _Mytree* _Plist) noexcept : _Ptr(_Pnode) {

  0002c	39 3b		 cmp	 DWORD PTR [ebx], edi
; File C:\Users\murat\Desktop\Siveps2-1-99-Project\source\client\Client\EterLib\ResourceManager.cpp

; 194  : 	if (m_pResMap.end() != itor)

  0002e	74 34		 je	 SHORT $LN2@InsertReso
; File C:\Program Files (x86)\Microsoft Visual Studio\2019\Professional\VC\Tools\MSVC\14.29.30133\include\xstring

; 3922 :         return _Mypair._Myval2._Myptr();

  00030	8b 75 0c	 mov	 esi, DWORD PTR _pResource$[ebp]

; 2319 :         return _BUF_SIZE <= _Myres;

  00033	83 7e 20 10	 cmp	 DWORD PTR [esi+32], 16	; 00000010H

; 3922 :         return _Mypair._Myval2._Myptr();

  00037	8d 46 0c	 lea	 eax, DWORD PTR [esi+12]

; 2306 :         if (_Large_string_engaged()) {

  0003a	72 02		 jb	 SHORT $LN40@InsertReso

; 2307 :             _Result = _Unfancy(_Bx._Ptr);

  0003c	8b 00		 mov	 eax, DWORD PTR [eax]
$LN40@InsertReso:
; File C:\Users\murat\Desktop\Siveps2-1-99-Project\source\client\Client\EterLib\ResourceManager.cpp

; 196  : 		TraceError("CResource::InsertResourcePointer: %s is already registered\n", pResource->GetFileName());

  0003e	50		 push	 eax
  0003f	68 00 00 00 00	 push	 OFFSET ??_C@_0DM@HFOFINBK@CResource?3?3InsertResourcePointe@
  00044	e8 00 00 00 00	 call	 ?TraceError@@YAXPBDZZ	; TraceError
  00049	83 c4 08	 add	 esp, 8

; 197  : 		assert(!"CResource::InsertResourcePointer: Resource already resistered");
; 198  : 		delete pResource;

  0004c	85 f6		 test	 esi, esi
  0004e	74 08		 je	 SHORT $LN4@InsertReso
  00050	8b 16		 mov	 edx, DWORD PTR [esi]
  00052	8b ce		 mov	 ecx, esi
  00054	6a 01		 push	 1
  00056	ff 12		 call	 DWORD PTR [edx]
$LN4@InsertReso:

; 199  : 		return itor->second;

  00058	8b 47 14	 mov	 eax, DWORD PTR [edi+20]
  0005b	5f		 pop	 edi

; 204  : }

  0005c	5e		 pop	 esi
  0005d	5b		 pop	 ebx
  0005e	8b e5		 mov	 esp, ebp
  00060	5d		 pop	 ebp
  00061	c2 08 00	 ret	 8
$LN2@InsertReso:
; File C:\Program Files (x86)\Microsoft Visual Studio\2019\Professional\VC\Tools\MSVC\14.29.30133\include\utility

; 193  :         : first(_STD forward<_Other1>(_Val1)), second(_STD forward<_Other2>(_Val2)) {}

  00064	8b 75 0c	 mov	 esi, DWORD PTR _pResource$[ebp]
; File C:\Users\murat\Desktop\Siveps2-1-99-Project\source\client\Client\EterLib\ResourceManager.cpp

; 202  : 	m_pResMap.insert(TResourcePointerMap::value_type(dwFileCRC, pResource));

  00067	8b cb		 mov	 ecx, ebx
; File C:\Program Files (x86)\Microsoft Visual Studio\2019\Professional\VC\Tools\MSVC\14.29.30133\include\utility

; 193  :         : first(_STD forward<_Other1>(_Val1)), second(_STD forward<_Other2>(_Val2)) {}

  00069	89 45 f8	 mov	 DWORD PTR $T3[ebp], eax
; File C:\Users\murat\Desktop\Siveps2-1-99-Project\source\client\Client\EterLib\ResourceManager.cpp

; 202  : 	m_pResMap.insert(TResourcePointerMap::value_type(dwFileCRC, pResource));

  0006c	8d 45 f8	 lea	 eax, DWORD PTR $T3[ebp]
  0006f	50		 push	 eax
  00070	8d 45 f0	 lea	 eax, DWORD PTR $T2[ebp]
; File C:\Program Files (x86)\Microsoft Visual Studio\2019\Professional\VC\Tools\MSVC\14.29.30133\include\utility

; 193  :         : first(_STD forward<_Other1>(_Val1)), second(_STD forward<_Other2>(_Val2)) {}

  00073	89 75 fc	 mov	 DWORD PTR $T3[ebp+4], esi
; File C:\Users\murat\Desktop\Siveps2-1-99-Project\source\client\Client\EterLib\ResourceManager.cpp

; 202  : 	m_pResMap.insert(TResourcePointerMap::value_type(dwFileCRC, pResource));

  00076	50		 push	 eax
  00077	e8 00 00 00 00	 call	 ??$insert@$0A@$0A@@?$_Tree@V?$_Tmap_traits@KPAVCResource@@U?$less@K@std@@V?$allocator@U?$pair@$$CBKPAVCResource@@@std@@@3@$0A@@std@@@std@@QAE?AU?$pair@V?$_Tree_iterator@V?$_Tree_val@U?$_Tree_simple_types@U?$pair@$$CBKPAVCResource@@@std@@@std@@@std@@@std@@_N@1@$$QAU?$pair@$$CBKPAVCResource@@@1@@Z ; std::_Tree<std::_Tmap_traits<unsigned long,CResource *,std::less<unsigned long>,std::allocator<std::pair<unsigned long const ,CResource *> >,0> >::insert<0,0>
  0007c	5f		 pop	 edi

; 203  : 	return pResource;

  0007d	8b c6		 mov	 eax, esi

; 204  : }

  0007f	5e		 pop	 esi
  00080	5b		 pop	 ebx
  00081	8b e5		 mov	 esp, ebp
  00083	5d		 pop	 ebp
  00084	c2 08 00	 ret	 8
?InsertResourcePointer@CResourceManager@@QAEPAVCResource@@KPAV2@@Z ENDP ; CResourceManager::InsertResourcePointer
_TEXT	ENDS
; Function compile flags: /Ogtp
; File C:\Users\murat\Desktop\Siveps2-1-99-Project\source\client\Client\EterLib\ResourceManager.cpp
;	COMDAT ?Destroy@CResourceManager@@QAEXXZ
_TEXT	SEGMENT
?Destroy@CResourceManager@@QAEXXZ PROC			; CResourceManager::Destroy, COMDAT
; _this$ = ecx

; 175  : 	assert(m_ResourceDeletingMap.empty() && "CResourceManager::Destroy - YOU MUST CALL DestroyDeletingList");
; 176  : 	__DestroyResourceMap();

  00000	e9 00 00 00 00	 jmp	 ?__DestroyResourceMap@CResourceManager@@IAEXXZ ; CResourceManager::__DestroyResourceMap
?Destroy@CResourceManager@@QAEXXZ ENDP			; CResourceManager::Destroy
_TEXT	ENDS
; Function compile flags: /Ogtp
; File C:\Users\murat\Desktop\Siveps2-1-99-Project\source\client\Client\EterLib\ResourceManager.cpp
;	COMDAT ?DestroyDeletingList@CResourceManager@@QAEXXZ
_TEXT	SEGMENT
?DestroyDeletingList@CResourceManager@@QAEXXZ PROC	; CResourceManager::DestroyDeletingList, COMDAT
; _this$ = ecx

; 166  : {

  00000	56		 push	 esi

; 167  : 	CResource::SetDeleteImmediately(true);

  00001	6a 01		 push	 1
  00003	8b f1		 mov	 esi, ecx
  00005	e8 00 00 00 00	 call	 ?SetDeleteImmediately@CResource@@SAX_N@Z ; CResource::SetDeleteImmediately
  0000a	83 c4 04	 add	 esp, 4

; 168  : 
; 169  : 	__DestroyCacheMap();

  0000d	8b ce		 mov	 ecx, esi
  0000f	e8 00 00 00 00	 call	 ?__DestroyCacheMap@CResourceManager@@IAEXXZ ; CResourceManager::__DestroyCacheMap

; 170  : 	__DestroyDeletingResourceMap();

  00014	8b ce		 mov	 ecx, esi
  00016	5e		 pop	 esi
  00017	e9 00 00 00 00	 jmp	 ?__DestroyDeletingResourceMap@CResourceManager@@IAEXXZ ; CResourceManager::__DestroyDeletingResourceMap
?DestroyDeletingList@CResourceManager@@QAEXXZ ENDP	; CResourceManager::DestroyDeletingList
_TEXT	ENDS
; Function compile flags: /Ogtp
; File C:\Users\murat\Desktop\Siveps2-1-99-Project\source\client\Client\EterLib\ResourceManager.cpp
; File C:\Program Files (x86)\Microsoft Visual Studio\2019\Professional\VC\Tools\MSVC\14.29.30133\include\xtree
; File C:\Users\murat\Desktop\Siveps2-1-99-Project\source\client\Client\EterLib\ResourceManager.cpp
; File C:\Program Files (x86)\Microsoft Visual Studio\2019\Professional\VC\Tools\MSVC\14.29.30133\include\xtree
; File C:\Users\murat\Desktop\Siveps2-1-99-Project\source\client\Client\EterLib\ResourceManager.cpp
; File C:\Program Files (x86)\Microsoft Visual Studio\2019\Professional\VC\Tools\MSVC\14.29.30133\include\xtree
; File C:\Program Files (x86)\Microsoft Visual Studio\2019\Professional\VC\Tools\MSVC\14.29.30133\include\xstddef
; File C:\Program Files (x86)\Microsoft Visual Studio\2019\Professional\VC\Tools\MSVC\14.29.30133\include\xtree
; File C:\Users\murat\Desktop\Siveps2-1-99-Project\source\client\Client\EterLib\ResourceManager.cpp
; File C:\Program Files (x86)\Microsoft Visual Studio\2019\Professional\VC\Tools\MSVC\14.29.30133\include\utility
; File C:\Users\murat\Desktop\Siveps2-1-99-Project\source\client\Client\EterLib\ResourceManager.cpp
; File C:\Program Files (x86)\Microsoft Visual Studio\2019\Professional\VC\Tools\MSVC\14.29.30133\include\utility
; File C:\Users\murat\Desktop\Siveps2-1-99-Project\source\client\Client\EterLib\ResourceManager.cpp
;	COMDAT ?LoadStaticCache@CResourceManager@@QAEXPBD@Z
_TEXT	SEGMENT
__Loc$1 = -20						; size = 12
$T2 = -16						; size = 8
$T3 = -8						; size = 8
_dwCacheKey$ = 8					; size = 4
_c_szFileName$ = 8					; size = 4
?LoadStaticCache@CResourceManager@@QAEXPBD@Z PROC	; CResourceManager::LoadStaticCache, COMDAT
; _this$ = ecx

; 20   : {

  00000	55		 push	 ebp
  00001	8b ec		 mov	 ebp, esp
  00003	83 ec 14	 sub	 esp, 20			; 00000014H
  00006	53		 push	 ebx
  00007	56		 push	 esi

; 21   : 	CResource* pkRes=GetResourcePointer(c_szFileName);

  00008	8b 75 08	 mov	 esi, DWORD PTR _c_szFileName$[ebp]
  0000b	8b d9		 mov	 ebx, ecx
  0000d	57		 push	 edi
  0000e	56		 push	 esi
  0000f	e8 00 00 00 00	 call	 ?GetResourcePointer@CResourceManager@@QAEPAVCResource@@PBD@Z ; CResourceManager::GetResourcePointer
  00014	8b f8		 mov	 edi, eax

; 22   : 	if (!pkRes)

  00016	85 ff		 test	 edi, edi
  00018	75 19		 jne	 SHORT $LN2@LoadStatic

; 23   : 	{
; 24   : 		Lognf(1, "CResourceManager::LoadStaticCache %s - FAILED", c_szFileName);

  0001a	56		 push	 esi
  0001b	68 00 00 00 00	 push	 OFFSET ??_C@_0CO@DICKOBGD@CResourceManager?3?3LoadStaticCac@
  00020	6a 01		 push	 1
  00022	e8 00 00 00 00	 call	 ?Lognf@@YAXIPBDZZ	; Lognf
  00027	83 c4 0c	 add	 esp, 12			; 0000000cH
  0002a	5f		 pop	 edi

; 35   : 
; 36   : }

  0002b	5e		 pop	 esi
  0002c	5b		 pop	 ebx
  0002d	8b e5		 mov	 esp, ebp
  0002f	5d		 pop	 ebp
  00030	c2 04 00	 ret	 4
$LN2@LoadStatic:

; 28   : 	DWORD dwCacheKey=GetCRC32(c_szFileName, strlen(c_szFileName));

  00033	8b c6		 mov	 eax, esi
  00035	8d 50 01	 lea	 edx, DWORD PTR [eax+1]
$LL38@LoadStatic:
  00038	8a 08		 mov	 cl, BYTE PTR [eax]
  0003a	40		 inc	 eax
  0003b	84 c9		 test	 cl, cl
  0003d	75 f9		 jne	 SHORT $LL38@LoadStatic
  0003f	2b c2		 sub	 eax, edx
  00041	50		 push	 eax
  00042	56		 push	 esi
  00043	e8 00 00 00 00	 call	 ?GetCRC32@@YAKPBDI@Z	; GetCRC32
  00048	83 c4 08	 add	 esp, 8
; File C:\Program Files (x86)\Microsoft Visual Studio\2019\Professional\VC\Tools\MSVC\14.29.30133\include\xtree

; 1361 :         const _Tree_find_result<_Nodeptr> _Loc = _Find_lower_bound(_Keyval);

  0004b	8d 4b 04	 lea	 ecx, DWORD PTR [ebx+4]
; File C:\Users\murat\Desktop\Siveps2-1-99-Project\source\client\Client\EterLib\ResourceManager.cpp

; 28   : 	DWORD dwCacheKey=GetCRC32(c_szFileName, strlen(c_szFileName));

  0004e	8b f0		 mov	 esi, eax
; File C:\Program Files (x86)\Microsoft Visual Studio\2019\Professional\VC\Tools\MSVC\14.29.30133\include\xtree

; 1361 :         const _Tree_find_result<_Nodeptr> _Loc = _Find_lower_bound(_Keyval);

  00050	8d 45 08	 lea	 eax, DWORD PTR _dwCacheKey$[ebp]
; File C:\Users\murat\Desktop\Siveps2-1-99-Project\source\client\Client\EterLib\ResourceManager.cpp

; 28   : 	DWORD dwCacheKey=GetCRC32(c_szFileName, strlen(c_szFileName));

  00053	89 75 08	 mov	 DWORD PTR _dwCacheKey$[ebp], esi
; File C:\Program Files (x86)\Microsoft Visual Studio\2019\Professional\VC\Tools\MSVC\14.29.30133\include\xtree

; 1361 :         const _Tree_find_result<_Nodeptr> _Loc = _Find_lower_bound(_Keyval);

  00056	50		 push	 eax
  00057	8d 45 ec	 lea	 eax, DWORD PTR __Loc$1[ebp]
  0005a	50		 push	 eax
  0005b	e8 00 00 00 00	 call	 ??$_Find_lower_bound@K@?$_Tree@V?$_Tmap_traits@KPAVCResource@@U?$less@K@std@@V?$allocator@U?$pair@$$CBKPAVCResource@@@std@@@3@$0A@@std@@@std@@IBE?AU?$_Tree_find_result@PAU?$_Tree_node@U?$pair@$$CBKPAVCResource@@@std@@PAX@std@@@1@ABK@Z ; std::_Tree<std::_Tmap_traits<unsigned long,CResource *,std::less<unsigned long>,std::allocator<std::pair<unsigned long const ,CResource *> >,0> >::_Find_lower_bound<unsigned long>

; 1599 :         return !_Bound->_Isnil && !_DEBUG_LT_PRED(_Getcomp(), _Keyval, _Traits::_Kfn(_Bound->_Myval));

  00060	8b 45 f4	 mov	 eax, DWORD PTR __Loc$1[ebp+8]
  00063	80 78 0d 00	 cmp	 BYTE PTR [eax+13], 0
  00067	75 0a		 jne	 SHORT $LN37@LoadStatic
; File C:\Program Files (x86)\Microsoft Visual Studio\2019\Professional\VC\Tools\MSVC\14.29.30133\include\xstddef

; 127  :         return _Left < _Right;

  00069	3b 70 10	 cmp	 esi, DWORD PTR [eax+16]
; File C:\Program Files (x86)\Microsoft Visual Studio\2019\Professional\VC\Tools\MSVC\14.29.30133\include\xtree

; 1599 :         return !_Bound->_Isnil && !_DEBUG_LT_PRED(_Getcomp(), _Keyval, _Traits::_Kfn(_Bound->_Myval));

  0006c	72 05		 jb	 SHORT $LN37@LoadStatic

; 236  :         return this->_Ptr == _Right._Ptr;

  0006e	39 43 04	 cmp	 DWORD PTR [ebx+4], eax
; File C:\Users\murat\Desktop\Siveps2-1-99-Project\source\client\Client\EterLib\ResourceManager.cpp

; 30   : 	if (m_pCacheMap.end()!=f)

  00071	75 1d		 jne	 SHORT $LN1@LoadStatic
$LN37@LoadStatic:

; 31   : 		return;
; 32   : 
; 33   : 	pkRes->AddReference();

  00073	8b cf		 mov	 ecx, edi
  00075	e8 00 00 00 00	 call	 ?AddReference@CReferenceObject@@QAEXXZ ; CReferenceObject::AddReference

; 34   : 	m_pCacheMap.insert(TResourcePointerMap::value_type(dwCacheKey, pkRes));

  0007a	8d 45 f8	 lea	 eax, DWORD PTR $T3[ebp]
; File C:\Program Files (x86)\Microsoft Visual Studio\2019\Professional\VC\Tools\MSVC\14.29.30133\include\utility

; 193  :         : first(_STD forward<_Other1>(_Val1)), second(_STD forward<_Other2>(_Val2)) {}

  0007d	89 75 f8	 mov	 DWORD PTR $T3[ebp], esi
; File C:\Users\murat\Desktop\Siveps2-1-99-Project\source\client\Client\EterLib\ResourceManager.cpp

; 34   : 	m_pCacheMap.insert(TResourcePointerMap::value_type(dwCacheKey, pkRes));

  00080	50		 push	 eax
  00081	8d 45 f0	 lea	 eax, DWORD PTR $T2[ebp]
; File C:\Program Files (x86)\Microsoft Visual Studio\2019\Professional\VC\Tools\MSVC\14.29.30133\include\utility

; 193  :         : first(_STD forward<_Other1>(_Val1)), second(_STD forward<_Other2>(_Val2)) {}

  00084	89 7d fc	 mov	 DWORD PTR $T3[ebp+4], edi
; File C:\Users\murat\Desktop\Siveps2-1-99-Project\source\client\Client\EterLib\ResourceManager.cpp

; 34   : 	m_pCacheMap.insert(TResourcePointerMap::value_type(dwCacheKey, pkRes));

  00087	50		 push	 eax
  00088	8d 4b 04	 lea	 ecx, DWORD PTR [ebx+4]
  0008b	e8 00 00 00 00	 call	 ??$insert@$0A@$0A@@?$_Tree@V?$_Tmap_traits@KPAVCResource@@U?$less@K@std@@V?$allocator@U?$pair@$$CBKPAVCResource@@@std@@@3@$0A@@std@@@std@@QAE?AU?$pair@V?$_Tree_iterator@V?$_Tree_val@U?$_Tree_simple_types@U?$pair@$$CBKPAVCResource@@@std@@@std@@@std@@@std@@_N@1@$$QAU?$pair@$$CBKPAVCResource@@@1@@Z ; std::_Tree<std::_Tmap_traits<unsigned long,CResource *,std::less<unsigned long>,std::allocator<std::pair<unsigned long const ,CResource *> >,0> >::insert<0,0>
$LN1@LoadStatic:

; 35   : 
; 36   : }

  00090	5f		 pop	 edi
  00091	5e		 pop	 esi
  00092	5b		 pop	 ebx
  00093	8b e5		 mov	 esp, ebp
  00095	5d		 pop	 ebp
  00096	c2 04 00	 ret	 4
?LoadStaticCache@CResourceManager@@QAEXPBD@Z ENDP	; CResourceManager::LoadStaticCache
_TEXT	ENDS
; Function compile flags: /Ogtp
; File C:\Users\murat\Desktop\Siveps2-1-99-Project\source\client\Client\EterLib\ResourceManager.cpp
; File C:\Program Files (x86)\Microsoft Visual Studio\2019\Professional\VC\Tools\MSVC\14.29.30133\include\xtree
; File C:\Users\murat\Desktop\Siveps2-1-99-Project\source\client\Client\EterLib\ResourceManager.cpp
; File C:\Program Files (x86)\Microsoft Visual Studio\2019\Professional\VC\Tools\MSVC\14.29.30133\include\xtree
; File C:\Program Files (x86)\Microsoft Visual Studio\2019\Professional\VC\Tools\MSVC\14.29.30133\include\xmemory
; File C:\Program Files (x86)\Microsoft Visual Studio\2019\Professional\VC\Tools\MSVC\14.29.30133\include\xtree
; File C:\Users\murat\Desktop\Siveps2-1-99-Project\source\client\Client\EterLib\ResourceManager.cpp
; File C:\Program Files (x86)\Microsoft Visual Studio\2019\Professional\VC\Tools\MSVC\14.29.30133\include\xmemory
; File C:\Program Files (x86)\Microsoft Visual Studio\2019\Professional\VC\Tools\MSVC\14.29.30133\include\xtree
; File C:\Program Files (x86)\Microsoft Visual Studio\2019\Professional\VC\Tools\MSVC\14.29.30133\include\xmemory
; File C:\Users\murat\Desktop\Siveps2-1-99-Project\source\client\Client\EterLib\ResourceManager.cpp
; File C:\Program Files (x86)\Microsoft Visual Studio\2019\Professional\VC\Tools\MSVC\14.29.30133\include\xtree
; File C:\Users\murat\Desktop\Siveps2-1-99-Project\source\client\Client\EterLib\ResourceManager.cpp
; File C:\Program Files (x86)\Microsoft Visual Studio\2019\Professional\VC\Tools\MSVC\14.29.30133\include\xtree
; File C:\Program Files (x86)\Microsoft Visual Studio\2019\Professional\VC\Tools\MSVC\14.29.30133\include\xmemory
; File C:\Users\murat\Desktop\Siveps2-1-99-Project\source\client\Client\EterLib\ResourceManager.cpp
; File C:\Users\murat\Desktop\Siveps2-1-99-Project\source\client\Client\eterBase\Singleton.h
; File C:\Users\murat\Desktop\Siveps2-1-99-Project\source\client\Client\EterLib\ResourceManager.cpp
;	COMDAT ??1CResourceManager@@UAE@XZ
_TEXT	SEGMENT
__$EHRec$ = -12						; size = 12
??1CResourceManager@@UAE@XZ PROC			; CResourceManager::~CResourceManager, COMDAT
; _this$ = ecx

; 522  : {

  00000	55		 push	 ebp
  00001	8b ec		 mov	 ebp, esp
  00003	6a ff		 push	 -1
  00005	68 00 00 00 00	 push	 __ehhandler$??1CResourceManager@@UAE@XZ
  0000a	64 a1 00 00 00
	00		 mov	 eax, DWORD PTR fs:0
  00010	50		 push	 eax
  00011	56		 push	 esi
  00012	57		 push	 edi
  00013	a1 00 00 00 00	 mov	 eax, DWORD PTR ___security_cookie
  00018	33 c5		 xor	 eax, ebp
  0001a	50		 push	 eax
  0001b	8d 45 f4	 lea	 eax, DWORD PTR __$EHRec$[ebp]
  0001e	64 a3 00 00 00
	00		 mov	 DWORD PTR fs:0, eax
  00024	8b f9		 mov	 edi, ecx
  00026	c7 07 00 00 00
	00		 mov	 DWORD PTR [edi], OFFSET ??_7CResourceManager@@6B@

; 523  : 	Destroy();

  0002c	e8 00 00 00 00	 call	 ?Destroy@CResourceManager@@QAEXXZ ; CResourceManager::Destroy

; 525  : }

  00031	8d 4f 3c	 lea	 ecx, DWORD PTR [edi+60]
  00034	e8 00 00 00 00	 call	 ??1?$_Tree@V?$_Tmap_traits@JPAVCResource@@U?$less@J@std@@V?$allocator@U?$pair@$$CBJPAVCResource@@@std@@@3@$0A@@std@@@std@@QAE@XZ ; std::_Tree<std::_Tmap_traits<long,CResource *,std::less<long>,std::allocator<std::pair<long const ,CResource *> >,0> >::~_Tree<std::_Tmap_traits<long,CResource *,std::less<long>,std::allocator<std::pair<long const ,CResource *> >,0> >
; File C:\Program Files (x86)\Microsoft Visual Studio\2019\Professional\VC\Tools\MSVC\14.29.30133\include\xtree

; 758  :         _Erase_tree(_Al, _Myhead->_Parent);

  00039	8b 47 34	 mov	 eax, DWORD PTR [edi+52]
; File C:\Users\murat\Desktop\Siveps2-1-99-Project\source\client\Client\EterLib\ResourceManager.cpp

; 525  : }

  0003c	8d 77 34	 lea	 esi, DWORD PTR [edi+52]
; File C:\Program Files (x86)\Microsoft Visual Studio\2019\Professional\VC\Tools\MSVC\14.29.30133\include\xtree

; 758  :         _Erase_tree(_Al, _Myhead->_Parent);

  0003f	8b ce		 mov	 ecx, esi
  00041	ff 70 04	 push	 DWORD PTR [eax+4]
  00044	56		 push	 esi
  00045	e8 00 00 00 00	 call	 ??$_Erase_tree@V?$allocator@U?$_Tree_node@U?$pair@$$CBKV?$basic_string@DU?$char_traits@D@std@@V?$allocator@D@2@@std@@@std@@PAX@std@@@std@@@?$_Tree_val@U?$_Tree_simple_types@U?$pair@$$CBKV?$basic_string@DU?$char_traits@D@std@@V?$allocator@D@2@@std@@@std@@@std@@@std@@QAEXAAV?$allocator@U?$_Tree_node@U?$pair@$$CBKV?$basic_string@DU?$char_traits@D@std@@V?$allocator@D@2@@std@@@std@@PAX@std@@@1@PAU?$_Tree_node@U?$pair@$$CBKV?$basic_string@DU?$char_traits@D@std@@V?$allocator@D@2@@std@@@std@@PAX@1@@Z ; std::_Tree_val<std::_Tree_simple_types<std::pair<unsigned long const ,std::basic_string<char,std::char_traits<char>,std::allocator<char> > > > >::_Erase_tree<std::allocator<std::_Tree_node<std::pair<unsigned long const ,std::basic_string<char,std::char_traits<char>,std::allocator<char> > >,void *> > >
; File C:\Program Files (x86)\Microsoft Visual Studio\2019\Professional\VC\Tools\MSVC\14.29.30133\include\xmemory

; 264  :         ::operator delete(_Ptr, _Bytes);

  0004a	6a 2c		 push	 44			; 0000002cH
  0004c	ff 36		 push	 DWORD PTR [esi]
  0004e	e8 00 00 00 00	 call	 ??3@YAXPAXI@Z		; operator delete
; File C:\Program Files (x86)\Microsoft Visual Studio\2019\Professional\VC\Tools\MSVC\14.29.30133\include\xtree

; 758  :         _Erase_tree(_Al, _Myhead->_Parent);

  00053	8b 47 2c	 mov	 eax, DWORD PTR [edi+44]
; File C:\Users\murat\Desktop\Siveps2-1-99-Project\source\client\Client\EterLib\ResourceManager.cpp

; 525  : }

  00056	8d 77 2c	 lea	 esi, DWORD PTR [edi+44]
; File C:\Program Files (x86)\Microsoft Visual Studio\2019\Professional\VC\Tools\MSVC\14.29.30133\include\xmemory

; 264  :         ::operator delete(_Ptr, _Bytes);

  00059	83 c4 08	 add	 esp, 8
; File C:\Program Files (x86)\Microsoft Visual Studio\2019\Professional\VC\Tools\MSVC\14.29.30133\include\xtree

; 758  :         _Erase_tree(_Al, _Myhead->_Parent);

  0005c	8b ce		 mov	 ecx, esi
  0005e	ff 70 04	 push	 DWORD PTR [eax+4]
  00061	56		 push	 esi
  00062	e8 00 00 00 00	 call	 ??$_Erase_tree@V?$allocator@U?$_Tree_node@U?$pair@$$CBKV?$basic_string@DU?$char_traits@D@std@@V?$allocator@D@2@@std@@@std@@PAX@std@@@std@@@?$_Tree_val@U?$_Tree_simple_types@U?$pair@$$CBKV?$basic_string@DU?$char_traits@D@std@@V?$allocator@D@2@@std@@@std@@@std@@@std@@QAEXAAV?$allocator@U?$_Tree_node@U?$pair@$$CBKV?$basic_string@DU?$char_traits@D@std@@V?$allocator@D@2@@std@@@std@@PAX@std@@@1@PAU?$_Tree_node@U?$pair@$$CBKV?$basic_string@DU?$char_traits@D@std@@V?$allocator@D@2@@std@@@std@@PAX@1@@Z ; std::_Tree_val<std::_Tree_simple_types<std::pair<unsigned long const ,std::basic_string<char,std::char_traits<char>,std::allocator<char> > > > >::_Erase_tree<std::allocator<std::_Tree_node<std::pair<unsigned long const ,std::basic_string<char,std::char_traits<char>,std::allocator<char> > >,void *> > >
; File C:\Program Files (x86)\Microsoft Visual Studio\2019\Professional\VC\Tools\MSVC\14.29.30133\include\xmemory

; 264  :         ::operator delete(_Ptr, _Bytes);

  00067	6a 2c		 push	 44			; 0000002cH
  00069	ff 36		 push	 DWORD PTR [esi]
  0006b	e8 00 00 00 00	 call	 ??3@YAXPAXI@Z		; operator delete
  00070	83 c4 08	 add	 esp, 8
; File C:\Users\murat\Desktop\Siveps2-1-99-Project\source\client\Client\EterLib\ResourceManager.cpp

; 525  : }

  00073	8d 4f 24	 lea	 ecx, DWORD PTR [edi+36]
  00076	e8 00 00 00 00	 call	 ??1?$_Tree@V?$_Tmap_traits@PAVCResource@@KU?$less@PAVCResource@@@std@@V?$allocator@U?$pair@QAVCResource@@K@std@@@3@$0A@@std@@@std@@QAE@XZ ; std::_Tree<std::_Tmap_traits<CResource *,unsigned long,std::less<CResource *>,std::allocator<std::pair<CResource * const,unsigned long> >,0> >::~_Tree<std::_Tmap_traits<CResource *,unsigned long,std::less<CResource *>,std::allocator<std::pair<CResource * const,unsigned long> >,0> >
  0007b	8d 4f 1c	 lea	 ecx, DWORD PTR [edi+28]
  0007e	e8 00 00 00 00	 call	 ??1?$_Tree@V?$_Tmap_traits@HP6APAVCResource@@PBD@ZU?$less@H@std@@V?$allocator@U?$pair@$$CBHP6APAVCResource@@PBD@Z@std@@@3@$0A@@std@@@std@@QAE@XZ ; std::_Tree<std::_Tmap_traits<int,CResource * (__cdecl*)(char const *),std::less<int>,std::allocator<std::pair<int const ,CResource * (__cdecl*)(char const *)> >,0> >::~_Tree<std::_Tmap_traits<int,CResource * (__cdecl*)(char const *),std::less<int>,std::allocator<std::pair<int const ,CResource * (__cdecl*)(char const *)> >,0> >
; File C:\Program Files (x86)\Microsoft Visual Studio\2019\Professional\VC\Tools\MSVC\14.29.30133\include\xtree

; 758  :         _Erase_tree(_Al, _Myhead->_Parent);

  00083	8b 47 14	 mov	 eax, DWORD PTR [edi+20]
; File C:\Users\murat\Desktop\Siveps2-1-99-Project\source\client\Client\EterLib\ResourceManager.cpp

; 525  : }

  00086	8d 77 14	 lea	 esi, DWORD PTR [edi+20]
; File C:\Program Files (x86)\Microsoft Visual Studio\2019\Professional\VC\Tools\MSVC\14.29.30133\include\xtree

; 758  :         _Erase_tree(_Al, _Myhead->_Parent);

  00089	8b ce		 mov	 ecx, esi
  0008b	ff 70 04	 push	 DWORD PTR [eax+4]
  0008e	56		 push	 esi
  0008f	e8 00 00 00 00	 call	 ??$_Erase_tree@V?$allocator@U?$_Tree_node@U?$pair@$$CBV?$basic_string@DU?$char_traits@D@std@@V?$allocator@D@2@@std@@P6APAVCResource@@PBD@Z@std@@PAX@std@@@std@@@?$_Tree_val@U?$_Tree_simple_types@U?$pair@$$CBV?$basic_string@DU?$char_traits@D@std@@V?$allocator@D@2@@std@@P6APAVCResource@@PBD@Z@std@@@std@@@std@@QAEXAAV?$allocator@U?$_Tree_node@U?$pair@$$CBV?$basic_string@DU?$char_traits@D@std@@V?$allocator@D@2@@std@@P6APAVCResource@@PBD@Z@std@@PAX@std@@@1@PAU?$_Tree_node@U?$pair@$$CBV?$basic_string@DU?$char_traits@D@std@@V?$allocator@D@2@@std@@P6APAVCResource@@PBD@Z@std@@PAX@1@@Z ; std::_Tree_val<std::_Tree_simple_types<std::pair<std::basic_string<char,std::char_traits<char>,std::allocator<char> > const ,CResource * (__cdecl*)(char const *)> > >::_Erase_tree<std::allocator<std::_Tree_node<std::pair<std::basic_string<char,std::char_traits<char>,std::allocator<char> > const ,CResource * (__cdecl*)(char const *)>,void *> > >
; File C:\Program Files (x86)\Microsoft Visual Studio\2019\Professional\VC\Tools\MSVC\14.29.30133\include\xmemory

; 264  :         ::operator delete(_Ptr, _Bytes);

  00094	6a 2c		 push	 44			; 0000002cH
  00096	ff 36		 push	 DWORD PTR [esi]
  00098	e8 00 00 00 00	 call	 ??3@YAXPAXI@Z		; operator delete
  0009d	83 c4 08	 add	 esp, 8
; File C:\Users\murat\Desktop\Siveps2-1-99-Project\source\client\Client\EterLib\ResourceManager.cpp

; 525  : }

  000a0	8d 4f 0c	 lea	 ecx, DWORD PTR [edi+12]
  000a3	e8 00 00 00 00	 call	 ??1?$_Tree@V?$_Tmap_traits@KPAVCResource@@U?$less@K@std@@V?$allocator@U?$pair@$$CBKPAVCResource@@@std@@@3@$0A@@std@@@std@@QAE@XZ ; std::_Tree<std::_Tmap_traits<unsigned long,CResource *,std::less<unsigned long>,std::allocator<std::pair<unsigned long const ,CResource *> >,0> >::~_Tree<std::_Tmap_traits<unsigned long,CResource *,std::less<unsigned long>,std::allocator<std::pair<unsigned long const ,CResource *> >,0> >
  000a8	8d 4f 04	 lea	 ecx, DWORD PTR [edi+4]
  000ab	e8 00 00 00 00	 call	 ??1?$_Tree@V?$_Tmap_traits@KPAVCResource@@U?$less@K@std@@V?$allocator@U?$pair@$$CBKPAVCResource@@@std@@@3@$0A@@std@@@std@@QAE@XZ ; std::_Tree<std::_Tmap_traits<unsigned long,CResource *,std::less<unsigned long>,std::allocator<std::pair<unsigned long const ,CResource *> >,0> >::~_Tree<std::_Tmap_traits<unsigned long,CResource *,std::less<unsigned long>,std::allocator<std::pair<unsigned long const ,CResource *> >,0> >
; File C:\Users\murat\Desktop\Siveps2-1-99-Project\source\client\Client\eterBase\Singleton.h

; 19   : 	{

  000b0	c7 07 00 00 00
	00		 mov	 DWORD PTR [edi], OFFSET ??_7?$CSingleton@VCResourceManager@@@@6B@

; 20   : 		assert(ms_singleton);
; 21   : 		ms_singleton = 0;

  000b6	c7 05 00 00 00
	00 00 00 00 00	 mov	 DWORD PTR ?ms_singleton@?$CSingleton@VCResourceManager@@@@0PAVCResourceManager@@A, 0 ; CSingleton<CResourceManager>::ms_singleton
; File C:\Users\murat\Desktop\Siveps2-1-99-Project\source\client\Client\EterLib\ResourceManager.cpp

; 525  : }

  000c0	8b 4d f4	 mov	 ecx, DWORD PTR __$EHRec$[ebp]
  000c3	64 89 0d 00 00
	00 00		 mov	 DWORD PTR fs:0, ecx
  000ca	59		 pop	 ecx
  000cb	5f		 pop	 edi
  000cc	5e		 pop	 esi
  000cd	8b e5		 mov	 esp, ebp
  000cf	5d		 pop	 ebp
  000d0	c3		 ret	 0
  000d1	cc		 int	 3
  000d2	cc		 int	 3
  000d3	cc		 int	 3
  000d4	cc		 int	 3
  000d5	cc		 int	 3
_TEXT	ENDS
;	COMDAT text$x
text$x	SEGMENT
__ehhandler$??1CResourceManager@@UAE@XZ:
  00000	90		 npad	 1
  00001	90		 npad	 1
  00002	8b 54 24 08	 mov	 edx, DWORD PTR [esp+8]
  00006	8d 42 0c	 lea	 eax, DWORD PTR [edx+12]
  00009	8b 4a f4	 mov	 ecx, DWORD PTR [edx-12]
  0000c	33 c8		 xor	 ecx, eax
  0000e	e8 00 00 00 00	 call	 @__security_check_cookie@4
  00013	b8 00 00 00 00	 mov	 eax, OFFSET __ehfuncinfo$??1CResourceManager@@UAE@XZ
  00018	e9 00 00 00 00	 jmp	 ___CxxFrameHandler3
text$x	ENDS
??1CResourceManager@@UAE@XZ ENDP			; CResourceManager::~CResourceManager
; Function compile flags: /Ogtp
; File C:\Users\murat\Desktop\Siveps2-1-99-Project\source\client\Client\EterLib\ResourceManager.cpp
; File C:\Users\murat\Desktop\Siveps2-1-99-Project\source\client\Client\eterBase\Singleton.h
; File C:\Users\murat\Desktop\Siveps2-1-99-Project\source\client\Client\EterLib\ResourceManager.cpp
; File C:\Program Files (x86)\Microsoft Visual Studio\2019\Professional\VC\Tools\MSVC\14.29.30133\include\xmemory
; File C:\Users\murat\Desktop\Siveps2-1-99-Project\source\client\Client\EterLib\ResourceManager.cpp
; File C:\Program Files (x86)\Microsoft Visual Studio\2019\Professional\VC\Tools\MSVC\14.29.30133\include\xtree
; File C:\Program Files (x86)\Microsoft Visual Studio\2019\Professional\VC\Tools\MSVC\14.29.30133\include\xmemory
; File C:\Program Files (x86)\Microsoft Visual Studio\2019\Professional\VC\Tools\MSVC\14.29.30133\include\xtree
; File C:\Users\murat\Desktop\Siveps2-1-99-Project\source\client\Client\EterLib\ResourceManager.cpp
; File C:\Program Files (x86)\Microsoft Visual Studio\2019\Professional\VC\Tools\MSVC\14.29.30133\include\xmemory
; File C:\Users\murat\Desktop\Siveps2-1-99-Project\source\client\Client\EterLib\ResourceManager.cpp
; File C:\Program Files (x86)\Microsoft Visual Studio\2019\Professional\VC\Tools\MSVC\14.29.30133\include\xtree
; File C:\Program Files (x86)\Microsoft Visual Studio\2019\Professional\VC\Tools\MSVC\14.29.30133\include\xmemory
; File C:\Program Files (x86)\Microsoft Visual Studio\2019\Professional\VC\Tools\MSVC\14.29.30133\include\xtree
; File C:\Users\murat\Desktop\Siveps2-1-99-Project\source\client\Client\EterLib\ResourceManager.cpp
; File C:\Program Files (x86)\Microsoft Visual Studio\2019\Professional\VC\Tools\MSVC\14.29.30133\include\xmemory
; File C:\Users\murat\Desktop\Siveps2-1-99-Project\source\client\Client\EterLib\ResourceManager.cpp
; File C:\Program Files (x86)\Microsoft Visual Studio\2019\Professional\VC\Tools\MSVC\14.29.30133\include\xtree
; File C:\Program Files (x86)\Microsoft Visual Studio\2019\Professional\VC\Tools\MSVC\14.29.30133\include\xmemory
; File C:\Program Files (x86)\Microsoft Visual Studio\2019\Professional\VC\Tools\MSVC\14.29.30133\include\xtree
; File C:\Users\murat\Desktop\Siveps2-1-99-Project\source\client\Client\EterLib\ResourceManager.cpp
; File C:\Program Files (x86)\Microsoft Visual Studio\2019\Professional\VC\Tools\MSVC\14.29.30133\include\xmemory
; File C:\Users\murat\Desktop\Siveps2-1-99-Project\source\client\Client\EterLib\ResourceManager.cpp
; File C:\Program Files (x86)\Microsoft Visual Studio\2019\Professional\VC\Tools\MSVC\14.29.30133\include\xtree
; File C:\Program Files (x86)\Microsoft Visual Studio\2019\Professional\VC\Tools\MSVC\14.29.30133\include\xmemory
; File C:\Program Files (x86)\Microsoft Visual Studio\2019\Professional\VC\Tools\MSVC\14.29.30133\include\xtree
; File C:\Users\murat\Desktop\Siveps2-1-99-Project\source\client\Client\EterLib\ResourceManager.cpp
; File C:\Program Files (x86)\Microsoft Visual Studio\2019\Professional\VC\Tools\MSVC\14.29.30133\include\xmemory
; File C:\Users\murat\Desktop\Siveps2-1-99-Project\source\client\Client\EterLib\ResourceManager.cpp
; File C:\Program Files (x86)\Microsoft Visual Studio\2019\Professional\VC\Tools\MSVC\14.29.30133\include\xtree
; File C:\Program Files (x86)\Microsoft Visual Studio\2019\Professional\VC\Tools\MSVC\14.29.30133\include\xmemory
; File C:\Program Files (x86)\Microsoft Visual Studio\2019\Professional\VC\Tools\MSVC\14.29.30133\include\xtree
; File C:\Users\murat\Desktop\Siveps2-1-99-Project\source\client\Client\EterLib\ResourceManager.cpp
; File C:\Program Files (x86)\Microsoft Visual Studio\2019\Professional\VC\Tools\MSVC\14.29.30133\include\xmemory
; File C:\Users\murat\Desktop\Siveps2-1-99-Project\source\client\Client\EterLib\ResourceManager.cpp
; File C:\Program Files (x86)\Microsoft Visual Studio\2019\Professional\VC\Tools\MSVC\14.29.30133\include\xtree
; File C:\Program Files (x86)\Microsoft Visual Studio\2019\Professional\VC\Tools\MSVC\14.29.30133\include\xmemory
; File C:\Program Files (x86)\Microsoft Visual Studio\2019\Professional\VC\Tools\MSVC\14.29.30133\include\xtree
; File C:\Users\murat\Desktop\Siveps2-1-99-Project\source\client\Client\EterLib\ResourceManager.cpp
; File C:\Program Files (x86)\Microsoft Visual Studio\2019\Professional\VC\Tools\MSVC\14.29.30133\include\xmemory
; File C:\Users\murat\Desktop\Siveps2-1-99-Project\source\client\Client\EterLib\ResourceManager.cpp
; File C:\Program Files (x86)\Microsoft Visual Studio\2019\Professional\VC\Tools\MSVC\14.29.30133\include\xtree
; File C:\Program Files (x86)\Microsoft Visual Studio\2019\Professional\VC\Tools\MSVC\14.29.30133\include\xmemory
; File C:\Program Files (x86)\Microsoft Visual Studio\2019\Professional\VC\Tools\MSVC\14.29.30133\include\xtree
; File C:\Users\murat\Desktop\Siveps2-1-99-Project\source\client\Client\EterLib\ResourceManager.cpp
; File C:\Program Files (x86)\Microsoft Visual Studio\2019\Professional\VC\Tools\MSVC\14.29.30133\include\xmemory
; File C:\Users\murat\Desktop\Siveps2-1-99-Project\source\client\Client\EterLib\ResourceManager.cpp
; File C:\Program Files (x86)\Microsoft Visual Studio\2019\Professional\VC\Tools\MSVC\14.29.30133\include\xtree
; File C:\Program Files (x86)\Microsoft Visual Studio\2019\Professional\VC\Tools\MSVC\14.29.30133\include\xmemory
; File C:\Program Files (x86)\Microsoft Visual Studio\2019\Professional\VC\Tools\MSVC\14.29.30133\include\xtree
; File C:\Users\murat\Desktop\Siveps2-1-99-Project\source\client\Client\EterLib\ResourceManager.cpp
;	COMDAT ??0CResourceManager@@QAE@XZ
_TEXT	SEGMENT
_this$ = -20						; size = 4
_this$ = -20						; size = 4
_this$ = -20						; size = 4
_this$ = -20						; size = 4
_this$ = -20						; size = 4
_this$ = -20						; size = 4
_this$ = -20						; size = 4
_this$ = -20						; size = 4
_this$ = -16						; size = 4
__$EHRec$ = -12						; size = 12
??0CResourceManager@@QAE@XZ PROC			; CResourceManager::CResourceManager, COMDAT
; _this$ = ecx

; 517  : {

  00000	55		 push	 ebp
  00001	8b ec		 mov	 ebp, esp
  00003	6a ff		 push	 -1
  00005	68 00 00 00 00	 push	 __ehhandler$??0CResourceManager@@QAE@XZ
  0000a	64 a1 00 00 00
	00		 mov	 eax, DWORD PTR fs:0
  00010	50		 push	 eax
  00011	83 ec 08	 sub	 esp, 8
  00014	56		 push	 esi
  00015	57		 push	 edi
  00016	a1 00 00 00 00	 mov	 eax, DWORD PTR ___security_cookie
  0001b	33 c5		 xor	 eax, ebp
  0001d	50		 push	 eax
  0001e	8d 45 f4	 lea	 eax, DWORD PTR __$EHRec$[ebp]
  00021	64 a3 00 00 00
	00		 mov	 DWORD PTR fs:0, eax
  00027	8b f9		 mov	 edi, ecx
  00029	89 7d f0	 mov	 DWORD PTR _this$[ebp], edi
; File C:\Users\murat\Desktop\Siveps2-1-99-Project\source\client\Client\eterBase\Singleton.h

; 15   : 		ms_singleton = (T*) ((int) this + offset);

  0002c	89 3d 00 00 00
	00		 mov	 DWORD PTR ?ms_singleton@?$CSingleton@VCResourceManager@@@@0PAVCResourceManager@@A, edi ; CSingleton<CResourceManager>::ms_singleton
; File C:\Users\murat\Desktop\Siveps2-1-99-Project\source\client\Client\EterLib\ResourceManager.cpp

; 517  : {

  00032	8d 77 04	 lea	 esi, DWORD PTR [edi+4]
  00035	c7 07 00 00 00
	00		 mov	 DWORD PTR [edi], OFFSET ??_7CResourceManager@@6B@
; File C:\Program Files (x86)\Microsoft Visual Studio\2019\Professional\VC\Tools\MSVC\14.29.30133\include\xmemory

; 85   :         return ::operator new(_Bytes);

  0003b	6a 18		 push	 24			; 00000018H
; File C:\Users\murat\Desktop\Siveps2-1-99-Project\source\client\Client\EterLib\ResourceManager.cpp

; 517  : {

  0003d	c7 45 fc 00 00
	00 00		 mov	 DWORD PTR __$EHRec$[ebp+8], 0
  00044	89 75 ec	 mov	 DWORD PTR _this$[ebp], esi
; File C:\Program Files (x86)\Microsoft Visual Studio\2019\Professional\VC\Tools\MSVC\14.29.30133\include\xtree

; 441  :     _Tree_val() noexcept : _Myhead(), _Mysize(0) {}

  00047	c7 06 00 00 00
	00		 mov	 DWORD PTR [esi], 0
  0004d	c7 46 04 00 00
	00 00		 mov	 DWORD PTR [esi+4], 0
; File C:\Program Files (x86)\Microsoft Visual Studio\2019\Professional\VC\Tools\MSVC\14.29.30133\include\xmemory

; 85   :         return ::operator new(_Bytes);

  00054	e8 00 00 00 00	 call	 ??2@YAPAXI@Z		; operator new
; File C:\Program Files (x86)\Microsoft Visual Studio\2019\Professional\VC\Tools\MSVC\14.29.30133\include\xtree

; 350  :         _Construct_in_place(_Pnode->_Left, _Pnode);

  00059	89 00		 mov	 DWORD PTR [eax], eax

; 351  :         _Construct_in_place(_Pnode->_Parent, _Pnode);

  0005b	89 40 04	 mov	 DWORD PTR [eax+4], eax

; 352  :         _Construct_in_place(_Pnode->_Right, _Pnode);

  0005e	89 40 08	 mov	 DWORD PTR [eax+8], eax

; 353  :         _Pnode->_Color = _Black;

  00061	66 c7 40 0c 01
	01		 mov	 WORD PTR [eax+12], 257	; 00000101H

; 1925 :         _Scary->_Myhead = _Node::_Buyheadnode(_Getal());

  00067	89 06		 mov	 DWORD PTR [esi], eax
; File C:\Users\murat\Desktop\Siveps2-1-99-Project\source\client\Client\EterLib\ResourceManager.cpp

; 517  : {

  00069	8d 77 0c	 lea	 esi, DWORD PTR [edi+12]
  0006c	c6 45 fc 01	 mov	 BYTE PTR __$EHRec$[ebp+8], 1
; File C:\Program Files (x86)\Microsoft Visual Studio\2019\Professional\VC\Tools\MSVC\14.29.30133\include\xmemory

; 85   :         return ::operator new(_Bytes);

  00070	6a 18		 push	 24			; 00000018H
; File C:\Users\murat\Desktop\Siveps2-1-99-Project\source\client\Client\EterLib\ResourceManager.cpp

; 517  : {

  00072	89 75 ec	 mov	 DWORD PTR _this$[ebp], esi
; File C:\Program Files (x86)\Microsoft Visual Studio\2019\Professional\VC\Tools\MSVC\14.29.30133\include\xtree

; 441  :     _Tree_val() noexcept : _Myhead(), _Mysize(0) {}

  00075	c7 06 00 00 00
	00		 mov	 DWORD PTR [esi], 0
  0007b	c7 46 04 00 00
	00 00		 mov	 DWORD PTR [esi+4], 0
; File C:\Program Files (x86)\Microsoft Visual Studio\2019\Professional\VC\Tools\MSVC\14.29.30133\include\xmemory

; 85   :         return ::operator new(_Bytes);

  00082	e8 00 00 00 00	 call	 ??2@YAPAXI@Z		; operator new
; File C:\Program Files (x86)\Microsoft Visual Studio\2019\Professional\VC\Tools\MSVC\14.29.30133\include\xtree

; 350  :         _Construct_in_place(_Pnode->_Left, _Pnode);

  00087	89 00		 mov	 DWORD PTR [eax], eax

; 351  :         _Construct_in_place(_Pnode->_Parent, _Pnode);

  00089	89 40 04	 mov	 DWORD PTR [eax+4], eax

; 352  :         _Construct_in_place(_Pnode->_Right, _Pnode);

  0008c	89 40 08	 mov	 DWORD PTR [eax+8], eax

; 353  :         _Pnode->_Color = _Black;

  0008f	66 c7 40 0c 01
	01		 mov	 WORD PTR [eax+12], 257	; 00000101H

; 1925 :         _Scary->_Myhead = _Node::_Buyheadnode(_Getal());

  00095	89 06		 mov	 DWORD PTR [esi], eax
; File C:\Users\murat\Desktop\Siveps2-1-99-Project\source\client\Client\EterLib\ResourceManager.cpp

; 517  : {

  00097	8d 77 14	 lea	 esi, DWORD PTR [edi+20]
  0009a	c6 45 fc 02	 mov	 BYTE PTR __$EHRec$[ebp+8], 2
; File C:\Program Files (x86)\Microsoft Visual Studio\2019\Professional\VC\Tools\MSVC\14.29.30133\include\xmemory

; 85   :         return ::operator new(_Bytes);

  0009e	6a 2c		 push	 44			; 0000002cH
; File C:\Users\murat\Desktop\Siveps2-1-99-Project\source\client\Client\EterLib\ResourceManager.cpp

; 517  : {

  000a0	89 75 ec	 mov	 DWORD PTR _this$[ebp], esi
; File C:\Program Files (x86)\Microsoft Visual Studio\2019\Professional\VC\Tools\MSVC\14.29.30133\include\xtree

; 441  :     _Tree_val() noexcept : _Myhead(), _Mysize(0) {}

  000a3	c7 06 00 00 00
	00		 mov	 DWORD PTR [esi], 0
  000a9	c7 46 04 00 00
	00 00		 mov	 DWORD PTR [esi+4], 0
; File C:\Program Files (x86)\Microsoft Visual Studio\2019\Professional\VC\Tools\MSVC\14.29.30133\include\xmemory

; 85   :         return ::operator new(_Bytes);

  000b0	e8 00 00 00 00	 call	 ??2@YAPAXI@Z		; operator new
; File C:\Program Files (x86)\Microsoft Visual Studio\2019\Professional\VC\Tools\MSVC\14.29.30133\include\xtree

; 350  :         _Construct_in_place(_Pnode->_Left, _Pnode);

  000b5	89 00		 mov	 DWORD PTR [eax], eax

; 351  :         _Construct_in_place(_Pnode->_Parent, _Pnode);

  000b7	89 40 04	 mov	 DWORD PTR [eax+4], eax

; 352  :         _Construct_in_place(_Pnode->_Right, _Pnode);

  000ba	89 40 08	 mov	 DWORD PTR [eax+8], eax

; 353  :         _Pnode->_Color = _Black;

  000bd	66 c7 40 0c 01
	01		 mov	 WORD PTR [eax+12], 257	; 00000101H

; 1925 :         _Scary->_Myhead = _Node::_Buyheadnode(_Getal());

  000c3	89 06		 mov	 DWORD PTR [esi], eax
; File C:\Users\murat\Desktop\Siveps2-1-99-Project\source\client\Client\EterLib\ResourceManager.cpp

; 517  : {

  000c5	8d 77 1c	 lea	 esi, DWORD PTR [edi+28]
  000c8	c6 45 fc 03	 mov	 BYTE PTR __$EHRec$[ebp+8], 3
; File C:\Program Files (x86)\Microsoft Visual Studio\2019\Professional\VC\Tools\MSVC\14.29.30133\include\xmemory

; 85   :         return ::operator new(_Bytes);

  000cc	6a 18		 push	 24			; 00000018H
; File C:\Users\murat\Desktop\Siveps2-1-99-Project\source\client\Client\EterLib\ResourceManager.cpp

; 517  : {

  000ce	89 75 ec	 mov	 DWORD PTR _this$[ebp], esi
; File C:\Program Files (x86)\Microsoft Visual Studio\2019\Professional\VC\Tools\MSVC\14.29.30133\include\xtree

; 441  :     _Tree_val() noexcept : _Myhead(), _Mysize(0) {}

  000d1	c7 06 00 00 00
	00		 mov	 DWORD PTR [esi], 0
  000d7	c7 46 04 00 00
	00 00		 mov	 DWORD PTR [esi+4], 0
; File C:\Program Files (x86)\Microsoft Visual Studio\2019\Professional\VC\Tools\MSVC\14.29.30133\include\xmemory

; 85   :         return ::operator new(_Bytes);

  000de	e8 00 00 00 00	 call	 ??2@YAPAXI@Z		; operator new
; File C:\Program Files (x86)\Microsoft Visual Studio\2019\Professional\VC\Tools\MSVC\14.29.30133\include\xtree

; 350  :         _Construct_in_place(_Pnode->_Left, _Pnode);

  000e3	89 00		 mov	 DWORD PTR [eax], eax

; 351  :         _Construct_in_place(_Pnode->_Parent, _Pnode);

  000e5	89 40 04	 mov	 DWORD PTR [eax+4], eax

; 352  :         _Construct_in_place(_Pnode->_Right, _Pnode);

  000e8	89 40 08	 mov	 DWORD PTR [eax+8], eax

; 353  :         _Pnode->_Color = _Black;

  000eb	66 c7 40 0c 01
	01		 mov	 WORD PTR [eax+12], 257	; 00000101H

; 1925 :         _Scary->_Myhead = _Node::_Buyheadnode(_Getal());

  000f1	89 06		 mov	 DWORD PTR [esi], eax
; File C:\Users\murat\Desktop\Siveps2-1-99-Project\source\client\Client\EterLib\ResourceManager.cpp

; 517  : {

  000f3	8d 77 24	 lea	 esi, DWORD PTR [edi+36]
  000f6	c6 45 fc 04	 mov	 BYTE PTR __$EHRec$[ebp+8], 4
; File C:\Program Files (x86)\Microsoft Visual Studio\2019\Professional\VC\Tools\MSVC\14.29.30133\include\xmemory

; 85   :         return ::operator new(_Bytes);

  000fa	6a 18		 push	 24			; 00000018H
; File C:\Users\murat\Desktop\Siveps2-1-99-Project\source\client\Client\EterLib\ResourceManager.cpp

; 517  : {

  000fc	89 75 ec	 mov	 DWORD PTR _this$[ebp], esi
; File C:\Program Files (x86)\Microsoft Visual Studio\2019\Professional\VC\Tools\MSVC\14.29.30133\include\xtree

; 441  :     _Tree_val() noexcept : _Myhead(), _Mysize(0) {}

  000ff	c7 06 00 00 00
	00		 mov	 DWORD PTR [esi], 0
  00105	c7 46 04 00 00
	00 00		 mov	 DWORD PTR [esi+4], 0
; File C:\Program Files (x86)\Microsoft Visual Studio\2019\Professional\VC\Tools\MSVC\14.29.30133\include\xmemory

; 85   :         return ::operator new(_Bytes);

  0010c	e8 00 00 00 00	 call	 ??2@YAPAXI@Z		; operator new
; File C:\Program Files (x86)\Microsoft Visual Studio\2019\Professional\VC\Tools\MSVC\14.29.30133\include\xtree

; 350  :         _Construct_in_place(_Pnode->_Left, _Pnode);

  00111	89 00		 mov	 DWORD PTR [eax], eax

; 351  :         _Construct_in_place(_Pnode->_Parent, _Pnode);

  00113	89 40 04	 mov	 DWORD PTR [eax+4], eax

; 352  :         _Construct_in_place(_Pnode->_Right, _Pnode);

  00116	89 40 08	 mov	 DWORD PTR [eax+8], eax

; 353  :         _Pnode->_Color = _Black;

  00119	66 c7 40 0c 01
	01		 mov	 WORD PTR [eax+12], 257	; 00000101H

; 1925 :         _Scary->_Myhead = _Node::_Buyheadnode(_Getal());

  0011f	89 06		 mov	 DWORD PTR [esi], eax
; File C:\Users\murat\Desktop\Siveps2-1-99-Project\source\client\Client\EterLib\ResourceManager.cpp

; 517  : {

  00121	8d 77 2c	 lea	 esi, DWORD PTR [edi+44]
  00124	c6 45 fc 05	 mov	 BYTE PTR __$EHRec$[ebp+8], 5
; File C:\Program Files (x86)\Microsoft Visual Studio\2019\Professional\VC\Tools\MSVC\14.29.30133\include\xmemory

; 85   :         return ::operator new(_Bytes);

  00128	6a 2c		 push	 44			; 0000002cH
; File C:\Users\murat\Desktop\Siveps2-1-99-Project\source\client\Client\EterLib\ResourceManager.cpp

; 517  : {

  0012a	89 75 ec	 mov	 DWORD PTR _this$[ebp], esi
; File C:\Program Files (x86)\Microsoft Visual Studio\2019\Professional\VC\Tools\MSVC\14.29.30133\include\xtree

; 441  :     _Tree_val() noexcept : _Myhead(), _Mysize(0) {}

  0012d	c7 06 00 00 00
	00		 mov	 DWORD PTR [esi], 0
  00133	c7 46 04 00 00
	00 00		 mov	 DWORD PTR [esi+4], 0
; File C:\Program Files (x86)\Microsoft Visual Studio\2019\Professional\VC\Tools\MSVC\14.29.30133\include\xmemory

; 85   :         return ::operator new(_Bytes);

  0013a	e8 00 00 00 00	 call	 ??2@YAPAXI@Z		; operator new
; File C:\Program Files (x86)\Microsoft Visual Studio\2019\Professional\VC\Tools\MSVC\14.29.30133\include\xtree

; 350  :         _Construct_in_place(_Pnode->_Left, _Pnode);

  0013f	89 00		 mov	 DWORD PTR [eax], eax

; 351  :         _Construct_in_place(_Pnode->_Parent, _Pnode);

  00141	89 40 04	 mov	 DWORD PTR [eax+4], eax

; 352  :         _Construct_in_place(_Pnode->_Right, _Pnode);

  00144	89 40 08	 mov	 DWORD PTR [eax+8], eax

; 353  :         _Pnode->_Color = _Black;

  00147	66 c7 40 0c 01
	01		 mov	 WORD PTR [eax+12], 257	; 00000101H

; 1925 :         _Scary->_Myhead = _Node::_Buyheadnode(_Getal());

  0014d	89 06		 mov	 DWORD PTR [esi], eax
; File C:\Users\murat\Desktop\Siveps2-1-99-Project\source\client\Client\EterLib\ResourceManager.cpp

; 517  : {

  0014f	8d 77 34	 lea	 esi, DWORD PTR [edi+52]
  00152	c6 45 fc 06	 mov	 BYTE PTR __$EHRec$[ebp+8], 6
; File C:\Program Files (x86)\Microsoft Visual Studio\2019\Professional\VC\Tools\MSVC\14.29.30133\include\xmemory

; 85   :         return ::operator new(_Bytes);

  00156	6a 2c		 push	 44			; 0000002cH
; File C:\Users\murat\Desktop\Siveps2-1-99-Project\source\client\Client\EterLib\ResourceManager.cpp

; 517  : {

  00158	89 75 ec	 mov	 DWORD PTR _this$[ebp], esi
; File C:\Program Files (x86)\Microsoft Visual Studio\2019\Professional\VC\Tools\MSVC\14.29.30133\include\xtree

; 441  :     _Tree_val() noexcept : _Myhead(), _Mysize(0) {}

  0015b	c7 06 00 00 00
	00		 mov	 DWORD PTR [esi], 0
  00161	c7 46 04 00 00
	00 00		 mov	 DWORD PTR [esi+4], 0
; File C:\Program Files (x86)\Microsoft Visual Studio\2019\Professional\VC\Tools\MSVC\14.29.30133\include\xmemory

; 85   :         return ::operator new(_Bytes);

  00168	e8 00 00 00 00	 call	 ??2@YAPAXI@Z		; operator new
; File C:\Program Files (x86)\Microsoft Visual Studio\2019\Professional\VC\Tools\MSVC\14.29.30133\include\xtree

; 350  :         _Construct_in_place(_Pnode->_Left, _Pnode);

  0016d	89 00		 mov	 DWORD PTR [eax], eax

; 351  :         _Construct_in_place(_Pnode->_Parent, _Pnode);

  0016f	89 40 04	 mov	 DWORD PTR [eax+4], eax

; 352  :         _Construct_in_place(_Pnode->_Right, _Pnode);

  00172	89 40 08	 mov	 DWORD PTR [eax+8], eax

; 353  :         _Pnode->_Color = _Black;

  00175	66 c7 40 0c 01
	01		 mov	 WORD PTR [eax+12], 257	; 00000101H

; 1925 :         _Scary->_Myhead = _Node::_Buyheadnode(_Getal());

  0017b	89 06		 mov	 DWORD PTR [esi], eax
; File C:\Users\murat\Desktop\Siveps2-1-99-Project\source\client\Client\EterLib\ResourceManager.cpp

; 517  : {

  0017d	8d 77 3c	 lea	 esi, DWORD PTR [edi+60]
  00180	c6 45 fc 07	 mov	 BYTE PTR __$EHRec$[ebp+8], 7
; File C:\Program Files (x86)\Microsoft Visual Studio\2019\Professional\VC\Tools\MSVC\14.29.30133\include\xmemory

; 85   :         return ::operator new(_Bytes);

  00184	6a 18		 push	 24			; 00000018H
; File C:\Users\murat\Desktop\Siveps2-1-99-Project\source\client\Client\EterLib\ResourceManager.cpp

; 517  : {

  00186	89 75 ec	 mov	 DWORD PTR _this$[ebp], esi
; File C:\Program Files (x86)\Microsoft Visual Studio\2019\Professional\VC\Tools\MSVC\14.29.30133\include\xtree

; 441  :     _Tree_val() noexcept : _Myhead(), _Mysize(0) {}

  00189	c7 06 00 00 00
	00		 mov	 DWORD PTR [esi], 0
  0018f	c7 46 04 00 00
	00 00		 mov	 DWORD PTR [esi+4], 0
; File C:\Program Files (x86)\Microsoft Visual Studio\2019\Professional\VC\Tools\MSVC\14.29.30133\include\xmemory

; 85   :         return ::operator new(_Bytes);

  00196	e8 00 00 00 00	 call	 ??2@YAPAXI@Z		; operator new
  0019b	83 c4 20	 add	 esp, 32			; 00000020H
; File C:\Program Files (x86)\Microsoft Visual Studio\2019\Professional\VC\Tools\MSVC\14.29.30133\include\xtree

; 350  :         _Construct_in_place(_Pnode->_Left, _Pnode);

  0019e	89 00		 mov	 DWORD PTR [eax], eax

; 351  :         _Construct_in_place(_Pnode->_Parent, _Pnode);

  001a0	89 40 04	 mov	 DWORD PTR [eax+4], eax

; 352  :         _Construct_in_place(_Pnode->_Right, _Pnode);

  001a3	89 40 08	 mov	 DWORD PTR [eax+8], eax

; 353  :         _Pnode->_Color = _Black;

  001a6	66 c7 40 0c 01
	01		 mov	 WORD PTR [eax+12], 257	; 00000101H

; 1925 :         _Scary->_Myhead = _Node::_Buyheadnode(_Getal());

  001ac	89 06		 mov	 DWORD PTR [esi], eax
; File C:\Users\murat\Desktop\Siveps2-1-99-Project\source\client\Client\EterLib\ResourceManager.cpp

; 519  : }

  001ae	8b c7		 mov	 eax, edi
  001b0	8b 4d f4	 mov	 ecx, DWORD PTR __$EHRec$[ebp]
  001b3	64 89 0d 00 00
	00 00		 mov	 DWORD PTR fs:0, ecx
  001ba	59		 pop	 ecx
  001bb	5f		 pop	 edi
  001bc	5e		 pop	 esi
  001bd	8b e5		 mov	 esp, ebp
  001bf	5d		 pop	 ebp
  001c0	c3		 ret	 0
_TEXT	ENDS
;	COMDAT text$x
text$x	SEGMENT
__unwindfunclet$??0CResourceManager@@QAE@XZ$0:
  00000	8b 4d f0	 mov	 ecx, DWORD PTR _this$[ebp]
  00003	e9 00 00 00 00	 jmp	 ??1?$CSingleton@VCResourceManager@@@@UAE@XZ ; CSingleton<CResourceManager>::~CSingleton<CResourceManager>
__unwindfunclet$??0CResourceManager@@QAE@XZ$1:
  00008	8b 4d f0	 mov	 ecx, DWORD PTR _this$[ebp]
  0000b	83 c1 04	 add	 ecx, 4
  0000e	e9 00 00 00 00	 jmp	 ??1?$map@KPAVCResource@@U?$less@K@std@@V?$allocator@U?$pair@$$CBKPAVCResource@@@std@@@3@@std@@QAE@XZ
__unwindfunclet$??0CResourceManager@@QAE@XZ$2:
  00013	8b 4d f0	 mov	 ecx, DWORD PTR _this$[ebp]
  00016	83 c1 0c	 add	 ecx, 12			; 0000000cH
  00019	e9 00 00 00 00	 jmp	 ??1?$map@KPAVCResource@@U?$less@K@std@@V?$allocator@U?$pair@$$CBKPAVCResource@@@std@@@3@@std@@QAE@XZ
__unwindfunclet$??0CResourceManager@@QAE@XZ$3:
  0001e	8b 4d f0	 mov	 ecx, DWORD PTR _this$[ebp]
  00021	83 c1 14	 add	 ecx, 20			; 00000014H
  00024	e9 00 00 00 00	 jmp	 ??1?$map@V?$basic_string@DU?$char_traits@D@std@@V?$allocator@D@2@@std@@P6APAVCResource@@PBD@ZU?$less@V?$basic_string@DU?$char_traits@D@std@@V?$allocator@D@2@@std@@@2@V?$allocator@U?$pair@$$CBV?$basic_string@DU?$char_traits@D@std@@V?$allocator@D@2@@std@@P6APAVCResource@@PBD@Z@std@@@2@@std@@QAE@XZ
__unwindfunclet$??0CResourceManager@@QAE@XZ$4:
  00029	8b 4d f0	 mov	 ecx, DWORD PTR _this$[ebp]
  0002c	83 c1 1c	 add	 ecx, 28			; 0000001cH
  0002f	e9 00 00 00 00	 jmp	 ??1?$map@HP6APAVCResource@@PBD@ZU?$less@H@std@@V?$allocator@U?$pair@$$CBHP6APAVCResource@@PBD@Z@std@@@3@@std@@QAE@XZ
__unwindfunclet$??0CResourceManager@@QAE@XZ$5:
  00034	8b 4d f0	 mov	 ecx, DWORD PTR _this$[ebp]
  00037	83 c1 24	 add	 ecx, 36			; 00000024H
  0003a	e9 00 00 00 00	 jmp	 ??1?$map@PAVCResource@@KU?$less@PAVCResource@@@std@@V?$allocator@U?$pair@QAVCResource@@K@std@@@3@@std@@QAE@XZ
__unwindfunclet$??0CResourceManager@@QAE@XZ$6:
  0003f	8b 4d f0	 mov	 ecx, DWORD PTR _this$[ebp]
  00042	83 c1 2c	 add	 ecx, 44			; 0000002cH
  00045	e9 00 00 00 00	 jmp	 ??1?$map@KV?$basic_string@DU?$char_traits@D@std@@V?$allocator@D@2@@std@@U?$less@K@2@V?$allocator@U?$pair@$$CBKV?$basic_string@DU?$char_traits@D@std@@V?$allocator@D@2@@std@@@std@@@2@@std@@QAE@XZ
__unwindfunclet$??0CResourceManager@@QAE@XZ$7:
  0004a	8b 4d f0	 mov	 ecx, DWORD PTR _this$[ebp]
  0004d	83 c1 34	 add	 ecx, 52			; 00000034H
  00050	e9 00 00 00 00	 jmp	 ??1?$map@KV?$basic_string@DU?$char_traits@D@std@@V?$allocator@D@2@@std@@U?$less@K@2@V?$allocator@U?$pair@$$CBKV?$basic_string@DU?$char_traits@D@std@@V?$allocator@D@2@@std@@@std@@@2@@std@@QAE@XZ
  00055	cc		 int	 3
  00056	cc		 int	 3
  00057	cc		 int	 3
  00058	cc		 int	 3
  00059	cc		 int	 3
__ehhandler$??0CResourceManager@@QAE@XZ:
  0005a	90		 npad	 1
  0005b	90		 npad	 1
  0005c	8b 54 24 08	 mov	 edx, DWORD PTR [esp+8]
  00060	8d 42 0c	 lea	 eax, DWORD PTR [edx+12]
  00063	8b 4a ec	 mov	 ecx, DWORD PTR [edx-20]
  00066	33 c8		 xor	 ecx, eax
  00068	e8 00 00 00 00	 call	 @__security_check_cookie@4
  0006d	b8 00 00 00 00	 mov	 eax, OFFSET __ehfuncinfo$??0CResourceManager@@QAE@XZ
  00072	e9 00 00 00 00	 jmp	 ___CxxFrameHandler3
text$x	ENDS
??0CResourceManager@@QAE@XZ ENDP			; CResourceManager::CResourceManager
; Function compile flags: /Ogtp
; File C:\Users\murat\Desktop\Siveps2-1-99-Project\source\client\Client\eterBase\Singleton.h
;	COMDAT ??_G?$CSingleton@VCResourceManager@@@@UAEPAXI@Z
_TEXT	SEGMENT
___flags$ = 8						; size = 4
??_G?$CSingleton@VCResourceManager@@@@UAEPAXI@Z PROC	; CSingleton<CResourceManager>::`scalar deleting destructor', COMDAT
; _this$ = ecx
  00000	55		 push	 ebp
  00001	8b ec		 mov	 ebp, esp
  00003	f6 45 08 01	 test	 BYTE PTR ___flags$[ebp], 1

; 19   : 	{

  00007	56		 push	 esi
  00008	8b f1		 mov	 esi, ecx
  0000a	c7 06 00 00 00
	00		 mov	 DWORD PTR [esi], OFFSET ??_7?$CSingleton@VCResourceManager@@@@6B@

; 20   : 		assert(ms_singleton);
; 21   : 		ms_singleton = 0;

  00010	c7 05 00 00 00
	00 00 00 00 00	 mov	 DWORD PTR ?ms_singleton@?$CSingleton@VCResourceManager@@@@0PAVCResourceManager@@A, 0 ; CSingleton<CResourceManager>::ms_singleton
  0001a	74 0b		 je	 SHORT $LN6@scalar
  0001c	6a 04		 push	 4
  0001e	56		 push	 esi
  0001f	e8 00 00 00 00	 call	 ??3@YAXPAXI@Z		; operator delete
  00024	83 c4 08	 add	 esp, 8
$LN6@scalar:
  00027	8b c6		 mov	 eax, esi
  00029	5e		 pop	 esi
  0002a	5d		 pop	 ebp
  0002b	c2 04 00	 ret	 4
??_G?$CSingleton@VCResourceManager@@@@UAEPAXI@Z ENDP	; CSingleton<CResourceManager>::`scalar deleting destructor'
_TEXT	ENDS
; Function compile flags: /Ogtp
; File C:\Users\murat\Desktop\Siveps2-1-99-Project\source\client\Client\eterBase\Singleton.h
;	COMDAT ??1?$CSingleton@VCResourceManager@@@@UAE@XZ
_TEXT	SEGMENT
??1?$CSingleton@VCResourceManager@@@@UAE@XZ PROC	; CSingleton<CResourceManager>::~CSingleton<CResourceManager>, COMDAT
; _this$ = ecx

; 19   : 	{

  00000	c7 01 00 00 00
	00		 mov	 DWORD PTR [ecx], OFFSET ??_7?$CSingleton@VCResourceManager@@@@6B@

; 20   : 		assert(ms_singleton);
; 21   : 		ms_singleton = 0;

  00006	c7 05 00 00 00
	00 00 00 00 00	 mov	 DWORD PTR ?ms_singleton@?$CSingleton@VCResourceManager@@@@0PAVCResourceManager@@A, 0 ; CSingleton<CResourceManager>::ms_singleton

; 22   : 	}

  00010	c3		 ret	 0
??1?$CSingleton@VCResourceManager@@@@UAE@XZ ENDP	; CSingleton<CResourceManager>::~CSingleton<CResourceManager>
_TEXT	ENDS
; Function compile flags: /Ogtp
; File C:\Program Files (x86)\Microsoft Visual Studio\2019\Professional\VC\Tools\MSVC\14.29.30133\include\xmemory
;	COMDAT ??$_Allocate_manually_vector_aligned@U_Default_allocate_traits@std@@@std@@YAPAXI@Z
_TEXT	SEGMENT
__Bytes$ = 8						; size = 4
??$_Allocate_manually_vector_aligned@U_Default_allocate_traits@std@@@std@@YAPAXI@Z PROC ; std::_Allocate_manually_vector_aligned<std::_Default_allocate_traits>, COMDAT

; 134  : __declspec(allocator) void* _Allocate_manually_vector_aligned(const size_t _Bytes) {

  00000	55		 push	 ebp
  00001	8b ec		 mov	 ebp, esp

; 135  :     // allocate _Bytes manually aligned to at least _Big_allocation_alignment
; 136  :     const size_t _Block_size = _Non_user_size + _Bytes;

  00003	8b 45 08	 mov	 eax, DWORD PTR __Bytes$[ebp]
  00006	8d 48 23	 lea	 ecx, DWORD PTR [eax+35]

; 137  :     if (_Block_size <= _Bytes) {

  00009	3b c8		 cmp	 ecx, eax
  0000b	0f 86 00 00 00
	00		 jbe	 ?_Throw_bad_array_new_length@std@@YAXXZ ; std::_Throw_bad_array_new_length

; 85   :         return ::operator new(_Bytes);

  00011	51		 push	 ecx
  00012	e8 00 00 00 00	 call	 ??2@YAPAXI@Z		; operator new

; 138  :         _Throw_bad_array_new_length(); // add overflow
; 139  :     }
; 140  : 
; 141  :     const uintptr_t _Ptr_container = reinterpret_cast<uintptr_t>(_Traits::_Allocate(_Block_size));

  00017	8b c8		 mov	 ecx, eax

; 85   :         return ::operator new(_Bytes);

  00019	83 c4 04	 add	 esp, 4

; 142  :     _STL_VERIFY(_Ptr_container != 0, "invalid argument"); // validate even in release since we're doing p[-1]

  0001c	85 c9		 test	 ecx, ecx
  0001e	74 0b		 je	 SHORT $LN7@Allocate_m

; 143  :     void* const _Ptr = reinterpret_cast<void*>((_Ptr_container + _Non_user_size) & ~(_Big_allocation_alignment - 1));

  00020	8d 41 23	 lea	 eax, DWORD PTR [ecx+35]
  00023	83 e0 e0	 and	 eax, -32		; ffffffe0H

; 144  :     static_cast<uintptr_t*>(_Ptr)[-1] = _Ptr_container;

  00026	89 48 fc	 mov	 DWORD PTR [eax-4], ecx

; 145  : 
; 146  : #ifdef _DEBUG
; 147  :     static_cast<uintptr_t*>(_Ptr)[-2] = _Big_allocation_sentinel;
; 148  : #endif // _DEBUG
; 149  :     return _Ptr;
; 150  : }

  00029	5d		 pop	 ebp
  0002a	c3		 ret	 0
$LN7@Allocate_m:

; 142  :     _STL_VERIFY(_Ptr_container != 0, "invalid argument"); // validate even in release since we're doing p[-1]

  0002b	e9 00 00 00 00	 jmp	 __invalid_parameter_noinfo_noreturn
??$_Allocate_manually_vector_aligned@U_Default_allocate_traits@std@@@std@@YAPAXI@Z ENDP ; std::_Allocate_manually_vector_aligned<std::_Default_allocate_traits>
_TEXT	ENDS
; Function compile flags: /Ogtp
; File C:\Program Files (x86)\Microsoft Visual Studio\2019\Professional\VC\Tools\MSVC\14.29.30133\include\xstring
; File C:\Program Files (x86)\Microsoft Visual Studio\2019\Professional\VC\Tools\MSVC\14.29.30133\include\utility
; File C:\Program Files (x86)\Microsoft Visual Studio\2019\Professional\VC\Tools\MSVC\14.29.30133\include\xstring
; File C:\Program Files (x86)\Microsoft Visual Studio\2019\Professional\VC\Tools\MSVC\14.29.30133\include\utility
; File C:\Program Files (x86)\Microsoft Visual Studio\2019\Professional\VC\Tools\MSVC\14.29.30133\include\xstring
;	COMDAT ??$_Traits_compare@U?$char_traits@D@std@@@std@@YAHQBDI0I@Z
_TEXT	SEGMENT
__Left$ = 8						; size = 4
__Left_size$ = 12					; size = 4
__Right$ = 16						; size = 4
__Right_size$ = 20					; size = 4
??$_Traits_compare@U?$char_traits@D@std@@@std@@YAHQBDI0I@Z PROC ; std::_Traits_compare<std::char_traits<char> >, COMDAT

; 588  :     _In_reads_(_Right_size) const _Traits_ptr_t<_Traits> _Right, const size_t _Right_size) noexcept {

  00000	55		 push	 ebp
  00001	8b ec		 mov	 ebp, esp

; 392  :         return _CSTD memcmp(_First1, _First2, _Count);

  00003	8b 55 08	 mov	 edx, DWORD PTR __Left$[ebp]

; 588  :     _In_reads_(_Right_size) const _Traits_ptr_t<_Traits> _Right, const size_t _Right_size) noexcept {

  00006	53		 push	 ebx
; File C:\Program Files (x86)\Microsoft Visual Studio\2019\Professional\VC\Tools\MSVC\14.29.30133\include\utility

; 68   :     return _Right < _Left ? _Right : _Left;

  00007	8b 5d 14	 mov	 ebx, DWORD PTR __Right_size$[ebp]
; File C:\Program Files (x86)\Microsoft Visual Studio\2019\Professional\VC\Tools\MSVC\14.29.30133\include\xstring

; 588  :     _In_reads_(_Right_size) const _Traits_ptr_t<_Traits> _Right, const size_t _Right_size) noexcept {

  0000a	56		 push	 esi

; 392  :         return _CSTD memcmp(_First1, _First2, _Count);

  0000b	8b 75 10	 mov	 esi, DWORD PTR __Right$[ebp]

; 588  :     _In_reads_(_Right_size) const _Traits_ptr_t<_Traits> _Right, const size_t _Right_size) noexcept {

  0000e	57		 push	 edi
; File C:\Program Files (x86)\Microsoft Visual Studio\2019\Professional\VC\Tools\MSVC\14.29.30133\include\utility

; 68   :     return _Right < _Left ? _Right : _Left;

  0000f	8b 7d 0c	 mov	 edi, DWORD PTR __Left_size$[ebp]
  00012	3b df		 cmp	 ebx, edi
  00014	8b cf		 mov	 ecx, edi
  00016	0f 42 cb	 cmovb	 ecx, ebx
; File C:\Program Files (x86)\Microsoft Visual Studio\2019\Professional\VC\Tools\MSVC\14.29.30133\include\xstring

; 392  :         return _CSTD memcmp(_First1, _First2, _Count);

  00019	83 e9 04	 sub	 ecx, 4
  0001c	72 13		 jb	 SHORT $LN12@Traits_com
  0001e	66 90		 npad	 2
$LL13@Traits_com:
  00020	8b 02		 mov	 eax, DWORD PTR [edx]
  00022	3b 06		 cmp	 eax, DWORD PTR [esi]
  00024	75 10		 jne	 SHORT $LN11@Traits_com
  00026	83 c2 04	 add	 edx, 4
  00029	83 c6 04	 add	 esi, 4
  0002c	83 e9 04	 sub	 ecx, 4
  0002f	73 ef		 jae	 SHORT $LL13@Traits_com
$LN12@Traits_com:
  00031	83 f9 fc	 cmp	 ecx, -4			; fffffffcH
  00034	74 34		 je	 SHORT $LN10@Traits_com
$LN11@Traits_com:
  00036	8a 02		 mov	 al, BYTE PTR [edx]
  00038	3a 06		 cmp	 al, BYTE PTR [esi]
  0003a	75 27		 jne	 SHORT $LN14@Traits_com
  0003c	83 f9 fd	 cmp	 ecx, -3			; fffffffdH
  0003f	74 29		 je	 SHORT $LN10@Traits_com
  00041	8a 42 01	 mov	 al, BYTE PTR [edx+1]
  00044	3a 46 01	 cmp	 al, BYTE PTR [esi+1]
  00047	75 1a		 jne	 SHORT $LN14@Traits_com
  00049	83 f9 fe	 cmp	 ecx, -2			; fffffffeH
  0004c	74 1c		 je	 SHORT $LN10@Traits_com
  0004e	8a 42 02	 mov	 al, BYTE PTR [edx+2]
  00051	3a 46 02	 cmp	 al, BYTE PTR [esi+2]
  00054	75 0d		 jne	 SHORT $LN14@Traits_com
  00056	83 f9 ff	 cmp	 ecx, -1
  00059	74 0f		 je	 SHORT $LN10@Traits_com
  0005b	8a 42 03	 mov	 al, BYTE PTR [edx+3]
  0005e	3a 46 03	 cmp	 al, BYTE PTR [esi+3]
  00061	74 07		 je	 SHORT $LN10@Traits_com
$LN14@Traits_com:
  00063	1b c0		 sbb	 eax, eax
  00065	83 c8 01	 or	 eax, 1
  00068	eb 02		 jmp	 SHORT $LN15@Traits_com
$LN10@Traits_com:
  0006a	33 c0		 xor	 eax, eax
$LN15@Traits_com:

; 589  :     // compare [_Left, _Left + _Left_size) to [_Right, _Right + _Right_size) using _Traits
; 590  :     const int _Ans = _Traits::compare(_Left, _Right, (_STD min)(_Left_size, _Right_size));
; 591  : 
; 592  :     if (_Ans != 0) {

  0006c	85 c0		 test	 eax, eax
  0006e	75 10		 jne	 SHORT $LN4@Traits_com

; 593  :         return _Ans;
; 594  :     }
; 595  : 
; 596  :     if (_Left_size < _Right_size) {

  00070	3b df		 cmp	 ebx, edi
  00072	76 08		 jbe	 SHORT $LN16@Traits_com

; 601  :         return 1;
; 602  :     }
; 603  : 
; 604  :     return 0;
; 605  : }

  00074	5f		 pop	 edi
  00075	5e		 pop	 esi
  00076	83 c8 ff	 or	 eax, -1
  00079	5b		 pop	 ebx
  0007a	5d		 pop	 ebp
  0007b	c3		 ret	 0
$LN16@Traits_com:

; 597  :         return -1;
; 598  :     }
; 599  : 
; 600  :     if (_Left_size > _Right_size) {

  0007c	1b c0		 sbb	 eax, eax
  0007e	f7 d8		 neg	 eax
$LN4@Traits_com:

; 601  :         return 1;
; 602  :     }
; 603  : 
; 604  :     return 0;
; 605  : }

  00080	5f		 pop	 edi
  00081	5e		 pop	 esi
  00082	5b		 pop	 ebx
  00083	5d		 pop	 ebp
  00084	c3		 ret	 0
??$_Traits_compare@U?$char_traits@D@std@@@std@@YAHQBDI0I@Z ENDP ; std::_Traits_compare<std::char_traits<char> >
_TEXT	ENDS
; Function compile flags: /Ogtp
; File C:\Program Files (x86)\Microsoft Visual Studio\2019\Professional\VC\Tools\MSVC\14.29.30133\include\xtree
;	COMDAT ?_Throw_tree_length_error@std@@YAXXZ
_TEXT	SEGMENT
?_Throw_tree_length_error@std@@YAXXZ PROC		; std::_Throw_tree_length_error, COMDAT

; 421  :     _Xlength_error("map/set too long");

  00000	68 00 00 00 00	 push	 OFFSET ??_C@_0BB@GCADKGJO@map?1set?5too?5long@
  00005	e8 00 00 00 00	 call	 ?_Xlength_error@std@@YAXPBD@Z ; std::_Xlength_error
$LN3@Throw_tree:
  0000a	cc		 int	 3
?_Throw_tree_length_error@std@@YAXXZ ENDP		; std::_Throw_tree_length_error
_TEXT	ENDS
; Function compile flags: /Ogtp
; File C:\Program Files (x86)\Microsoft Visual Studio\2019\Professional\VC\Tools\MSVC\14.29.30133\include\xstring
; File C:\Program Files (x86)\Microsoft Visual Studio\2019\Professional\VC\Tools\MSVC\14.29.30133\include\xmemory
; File C:\Program Files (x86)\Microsoft Visual Studio\2019\Professional\VC\Tools\MSVC\14.29.30133\include\xstring
; File C:\Program Files (x86)\Microsoft Visual Studio\2019\Professional\VC\Tools\MSVC\14.29.30133\include\xmemory
; File C:\Program Files (x86)\Microsoft Visual Studio\2019\Professional\VC\Tools\MSVC\14.29.30133\include\xstring
; File C:\Program Files (x86)\Microsoft Visual Studio\2019\Professional\VC\Tools\MSVC\14.29.30133\include\utility
; File C:\Program Files (x86)\Microsoft Visual Studio\2019\Professional\VC\Tools\MSVC\14.29.30133\include\xstring
; File C:\Program Files (x86)\Microsoft Visual Studio\2019\Professional\VC\Tools\MSVC\14.29.30133\include\xmemory
; File C:\Program Files (x86)\Microsoft Visual Studio\2019\Professional\VC\Tools\MSVC\14.29.30133\include\xstring
; File C:\Program Files (x86)\Microsoft Visual Studio\2019\Professional\VC\Tools\MSVC\14.29.30133\include\xmemory
; File C:\Program Files (x86)\Microsoft Visual Studio\2019\Professional\VC\Tools\MSVC\14.29.30133\include\xstring
; File C:\Program Files (x86)\Microsoft Visual Studio\2019\Professional\VC\Tools\MSVC\14.29.30133\include\xmemory
; File C:\Program Files (x86)\Microsoft Visual Studio\2019\Professional\VC\Tools\MSVC\14.29.30133\include\xstring
;	COMDAT ?assign@?$basic_string@DU?$char_traits@D@std@@V?$allocator@D@2@@std@@QAEAAV12@QBDI@Z
_TEXT	SEGMENT
__Old$1$ = -4						; size = 4
__Ptr$ = 8						; size = 4
$T1 = 12						; size = 4
__Count$ = 12						; size = 4
?assign@?$basic_string@DU?$char_traits@D@std@@V?$allocator@D@2@@std@@QAEAAV12@QBDI@Z PROC ; std::basic_string<char,std::char_traits<char>,std::allocator<char> >::assign, COMDAT
; _this$ = ecx

; 3244 :         _In_reads_(_Count) const _Elem* const _Ptr, _CRT_GUARDOVERFLOW const size_type _Count) {

  00000	55		 push	 ebp
  00001	8b ec		 mov	 ebp, esp
  00003	51		 push	 ecx
  00004	53		 push	 ebx

; 3245 :         // assign [_Ptr, _Ptr + _Count)
; 3246 :         if (_Count <= _Mypair._Myval2._Myres) {

  00005	8b 5d 0c	 mov	 ebx, DWORD PTR __Count$[ebp]
  00008	56		 push	 esi
  00009	8b f1		 mov	 esi, ecx
  0000b	57		 push	 edi
  0000c	8b 4e 14	 mov	 ecx, DWORD PTR [esi+20]
  0000f	89 4d fc	 mov	 DWORD PTR __Old$1$[ebp], ecx
  00012	3b d9		 cmp	 ebx, ecx
  00014	77 28		 ja	 SHORT $LN2@assign

; 2296 :         value_type* _Result = _Bx._Buf;

  00016	8b fe		 mov	 edi, esi

; 2319 :         return _BUF_SIZE <= _Myres;

  00018	83 f9 10	 cmp	 ecx, 16			; 00000010H

; 2297 :         if (_Large_string_engaged()) {

  0001b	72 02		 jb	 SHORT $LN5@assign

; 2298 :             _Result = _Unfancy(_Bx._Ptr);

  0001d	8b 3e		 mov	 edi, DWORD PTR [esi]
$LN5@assign:

; 122  :         _CSTD memmove(_First1, _First2, _Count * sizeof(_Elem));

  0001f	53		 push	 ebx
  00020	ff 75 08	 push	 DWORD PTR __Ptr$[ebp]

; 3247 :             _Elem* const _Old_ptr   = _Mypair._Myval2._Myptr();
; 3248 :             _Mypair._Myval2._Mysize = _Count;

  00023	89 5e 10	 mov	 DWORD PTR [esi+16], ebx

; 122  :         _CSTD memmove(_First1, _First2, _Count * sizeof(_Elem));

  00026	57		 push	 edi
  00027	e8 00 00 00 00	 call	 _memmove
  0002c	83 c4 0c	 add	 esp, 12			; 0000000cH

; 3249 :             _Traits::move(_Old_ptr, _Ptr, _Count);
; 3250 :             _Traits::assign(_Old_ptr[_Count], _Elem());

  0002f	c6 04 1f 00	 mov	 BYTE PTR [edi+ebx], 0

; 3259 :             },
; 3260 :             _Ptr);
; 3261 :     }

  00033	8b c6		 mov	 eax, esi
  00035	5f		 pop	 edi
  00036	5e		 pop	 esi
  00037	5b		 pop	 ebx
  00038	8b e5		 mov	 esp, ebp
  0003a	5d		 pop	 ebp
  0003b	c2 08 00	 ret	 8
$LN2@assign:

; 4508 :         if (_New_size > max_size()) {

  0003e	81 fb ff ff ff
	7f		 cmp	 ebx, 2147483647		; 7fffffffH
  00044	0f 87 d4 00 00
	00		 ja	 $LN60@assign

; 4488 :         const size_type _Masked = _Requested | _ALLOC_MASK;

  0004a	8b fb		 mov	 edi, ebx
  0004c	83 cf 0f	 or	 edi, 15			; 0000000fH
  0004f	81 ff ff ff ff
	7f		 cmp	 edi, 2147483647		; 7fffffffH

; 4489 :         if (_Masked > _Max) { // the mask overflows, settle for max_size()

  00055	76 15		 jbe	 SHORT $LN19@assign

; 4490 :             return _Max;

  00057	b8 00 00 00 80	 mov	 eax, -2147483648	; 80000000H
  0005c	bf ff ff ff 7f	 mov	 edi, 2147483647		; 7fffffffH
; File C:\Program Files (x86)\Microsoft Visual Studio\2019\Professional\VC\Tools\MSVC\14.29.30133\include\xmemory

; 238  :             return _Allocate_manually_vector_aligned<_Traits>(_Bytes);

  00061	50		 push	 eax
  00062	e8 00 00 00 00	 call	 ??$_Allocate_manually_vector_aligned@U_Default_allocate_traits@std@@@std@@YAPAXI@Z ; std::_Allocate_manually_vector_aligned<std::_Default_allocate_traits>
  00067	83 c4 04	 add	 esp, 4
  0006a	eb 52		 jmp	 SHORT $LN58@assign
$LN19@assign:
; File C:\Program Files (x86)\Microsoft Visual Studio\2019\Professional\VC\Tools\MSVC\14.29.30133\include\xstring

; 4493 :         if (_Old > _Max - _Old / 2) { // similarly, geometric overflows

  0006c	8b d1		 mov	 edx, ecx
  0006e	b8 ff ff ff 7f	 mov	 eax, 2147483647		; 7fffffffH
  00073	d1 ea		 shr	 edx, 1
  00075	2b c2		 sub	 eax, edx
  00077	3b c8		 cmp	 ecx, eax
  00079	76 15		 jbe	 SHORT $LN20@assign

; 4494 :             return _Max;

  0007b	b8 00 00 00 80	 mov	 eax, -2147483648	; 80000000H
  00080	bf ff ff ff 7f	 mov	 edi, 2147483647		; 7fffffffH
; File C:\Program Files (x86)\Microsoft Visual Studio\2019\Professional\VC\Tools\MSVC\14.29.30133\include\xmemory

; 238  :             return _Allocate_manually_vector_aligned<_Traits>(_Bytes);

  00085	50		 push	 eax
  00086	e8 00 00 00 00	 call	 ??$_Allocate_manually_vector_aligned@U_Default_allocate_traits@std@@@std@@YAPAXI@Z ; std::_Allocate_manually_vector_aligned<std::_Default_allocate_traits>
  0008b	83 c4 04	 add	 esp, 4
  0008e	eb 2e		 jmp	 SHORT $LN58@assign
$LN20@assign:
; File C:\Program Files (x86)\Microsoft Visual Studio\2019\Professional\VC\Tools\MSVC\14.29.30133\include\xstring

; 4497 :         return (_STD max)(_Masked, _Old + _Old / 2);

  00090	8d 04 0a	 lea	 eax, DWORD PTR [edx+ecx]
; File C:\Program Files (x86)\Microsoft Visual Studio\2019\Professional\VC\Tools\MSVC\14.29.30133\include\utility

; 44   :     return _Left < _Right ? _Right : _Left;

  00093	3b f8		 cmp	 edi, eax
  00095	0f 42 f8	 cmovb	 edi, eax
; File C:\Program Files (x86)\Microsoft Visual Studio\2019\Professional\VC\Tools\MSVC\14.29.30133\include\xstring

; 4515 :         const pointer _New_ptr        = _Al.allocate(_New_capacity + 1); // throws

  00098	8d 47 01	 lea	 eax, DWORD PTR [edi+1]
; File C:\Program Files (x86)\Microsoft Visual Studio\2019\Professional\VC\Tools\MSVC\14.29.30133\include\xmemory

; 237  :         if (_Bytes >= _Big_allocation_threshold) { // boost the alignment of big allocations to help autovectorization

  0009b	3d 00 10 00 00	 cmp	 eax, 4096		; 00001000H
  000a0	72 0b		 jb	 SHORT $LN27@assign

; 238  :             return _Allocate_manually_vector_aligned<_Traits>(_Bytes);

  000a2	50		 push	 eax
  000a3	e8 00 00 00 00	 call	 ??$_Allocate_manually_vector_aligned@U_Default_allocate_traits@std@@@std@@YAPAXI@Z ; std::_Allocate_manually_vector_aligned<std::_Default_allocate_traits>
  000a8	83 c4 04	 add	 esp, 4
  000ab	eb 11		 jmp	 SHORT $LN58@assign
$LN27@assign:

; 239  :         }
; 240  :     }
; 241  : #endif // defined(_M_IX86) || defined(_M_X64)
; 242  : 
; 243  :     if (_Bytes != 0) {

  000ad	85 c0		 test	 eax, eax
  000af	74 0b		 je	 SHORT $LN28@assign

; 85   :         return ::operator new(_Bytes);

  000b1	50		 push	 eax
  000b2	e8 00 00 00 00	 call	 ??2@YAPAXI@Z		; operator new
  000b7	83 c4 04	 add	 esp, 4

; 244  :         return _Traits::_Allocate(_Bytes);

  000ba	eb 02		 jmp	 SHORT $LN58@assign
$LN28@assign:

; 245  :     }
; 246  : 
; 247  :     return nullptr;

  000bc	33 c0		 xor	 eax, eax
$LN58@assign:
; File C:\Program Files (x86)\Microsoft Visual Studio\2019\Professional\VC\Tools\MSVC\14.29.30133\include\xstring

; 65   :         _CSTD memcpy(_First1, _First2, _Count * sizeof(_Elem));

  000be	53		 push	 ebx
  000bf	ff 75 08	 push	 DWORD PTR __Ptr$[ebp]

; 4523 :         _Mypair._Myval2._Mysize = _New_size;

  000c2	89 45 0c	 mov	 DWORD PTR $T1[ebp], eax

; 65   :         _CSTD memcpy(_First1, _First2, _Count * sizeof(_Elem));

  000c5	50		 push	 eax

; 4523 :         _Mypair._Myval2._Mysize = _New_size;

  000c6	89 5e 10	 mov	 DWORD PTR [esi+16], ebx

; 4524 :         _Mypair._Myval2._Myres  = _New_capacity;

  000c9	89 7e 14	 mov	 DWORD PTR [esi+20], edi

; 65   :         _CSTD memcpy(_First1, _First2, _Count * sizeof(_Elem));

  000cc	e8 00 00 00 00	 call	 _memcpy

; 3258 :                 _Traits::assign(_New_ptr[_Count], _Elem());

  000d1	8b 7d 0c	 mov	 edi, DWORD PTR $T1[ebp]

; 65   :         _CSTD memcpy(_First1, _First2, _Count * sizeof(_Elem));

  000d4	83 c4 0c	 add	 esp, 12			; 0000000cH

; 4526 :         if (_BUF_SIZE <= _Old_capacity) {

  000d7	8b 45 fc	 mov	 eax, DWORD PTR __Old$1$[ebp]

; 3258 :                 _Traits::assign(_New_ptr[_Count], _Elem());

  000da	c6 04 1f 00	 mov	 BYTE PTR [edi+ebx], 0

; 4526 :         if (_BUF_SIZE <= _Old_capacity) {

  000de	83 f8 10	 cmp	 eax, 16			; 00000010H
  000e1	72 29		 jb	 SHORT $LN13@assign

; 4527 :             _Al.deallocate(_Mypair._Myval2._Bx._Ptr, _Old_capacity + 1);

  000e3	8d 48 01	 lea	 ecx, DWORD PTR [eax+1]
; File C:\Program Files (x86)\Microsoft Visual Studio\2019\Professional\VC\Tools\MSVC\14.29.30133\include\xmemory

; 835  :         _Deallocate<_New_alignof<_Ty>>(_Ptr, sizeof(_Ty) * _Count);

  000e6	8b 06		 mov	 eax, DWORD PTR [esi]

; 260  :         if (_Bytes >= _Big_allocation_threshold) { // boost the alignment of big allocations to help autovectorization

  000e8	81 f9 00 10 00
	00		 cmp	 ecx, 4096		; 00001000H
  000ee	72 12		 jb	 SHORT $LN50@assign

; 158  :     const uintptr_t _Ptr_container   = _Ptr_user[-1];

  000f0	8b 50 fc	 mov	 edx, DWORD PTR [eax-4]
  000f3	83 c1 23	 add	 ecx, 35			; 00000023H

; 159  : 
; 160  :     // If the following asserts, it likely means that we are performing
; 161  :     // an aligned delete on memory coming from an unaligned allocation.
; 162  :     _STL_ASSERT(_Ptr_user[-2] == _Big_allocation_sentinel, "invalid argument");
; 163  : 
; 164  :     // Extra paranoia on aligned allocation/deallocation; ensure _Ptr_container is
; 165  :     // in range [_Min_back_shift, _Non_user_size]
; 166  : #ifdef _DEBUG
; 167  :     constexpr uintptr_t _Min_back_shift = 2 * sizeof(void*);
; 168  : #else // ^^^ _DEBUG ^^^ // vvv !_DEBUG vvv
; 169  :     constexpr uintptr_t _Min_back_shift = sizeof(void*);
; 170  : #endif // _DEBUG
; 171  :     const uintptr_t _Back_shift = reinterpret_cast<uintptr_t>(_Ptr) - _Ptr_container;

  000f6	2b c2		 sub	 eax, edx

; 172  :     _STL_VERIFY(_Back_shift >= _Min_back_shift && _Back_shift <= _Non_user_size, "invalid argument");

  000f8	83 c0 fc	 add	 eax, -4			; fffffffcH
  000fb	83 f8 1f	 cmp	 eax, 31			; 0000001fH
  000fe	77 19		 ja	 SHORT $LN47@assign

; 173  :     _Ptr = reinterpret_cast<void*>(_Ptr_container);

  00100	8b c2		 mov	 eax, edx
$LN50@assign:

; 264  :         ::operator delete(_Ptr, _Bytes);

  00102	51		 push	 ecx
  00103	50		 push	 eax
  00104	e8 00 00 00 00	 call	 ??3@YAXPAXI@Z		; operator delete
  00109	83 c4 08	 add	 esp, 8
$LN13@assign:
; File C:\Program Files (x86)\Microsoft Visual Studio\2019\Professional\VC\Tools\MSVC\14.29.30133\include\xstring

; 3254 :         return _Reallocate_for(

  0010c	89 3e		 mov	 DWORD PTR [esi], edi

; 3259 :             },
; 3260 :             _Ptr);
; 3261 :     }

  0010e	8b c6		 mov	 eax, esi
  00110	5f		 pop	 edi
  00111	5e		 pop	 esi
  00112	5b		 pop	 ebx
  00113	8b e5		 mov	 esp, ebp
  00115	5d		 pop	 ebp
  00116	c2 08 00	 ret	 8
$LN47@assign:
; File C:\Program Files (x86)\Microsoft Visual Studio\2019\Professional\VC\Tools\MSVC\14.29.30133\include\xmemory

; 172  :     _STL_VERIFY(_Back_shift >= _Min_back_shift && _Back_shift <= _Non_user_size, "invalid argument");

  00119	e8 00 00 00 00	 call	 __invalid_parameter_noinfo_noreturn
$LN60@assign:
; File C:\Program Files (x86)\Microsoft Visual Studio\2019\Professional\VC\Tools\MSVC\14.29.30133\include\xstring

; 4509 :             _Xlen_string(); // result too long

  0011e	e8 00 00 00 00	 call	 ?_Xlen_string@std@@YAXXZ ; std::_Xlen_string
$LN56@assign:
  00123	cc		 int	 3
?assign@?$basic_string@DU?$char_traits@D@std@@V?$allocator@D@2@@std@@QAEAAV12@QBDI@Z ENDP ; std::basic_string<char,std::char_traits<char>,std::allocator<char> >::assign
_TEXT	ENDS
; Function compile flags: /Ogtp
; File C:\Program Files (x86)\Microsoft Visual Studio\2019\Professional\VC\Tools\MSVC\14.29.30133\include\xstring
; File C:\Program Files (x86)\Microsoft Visual Studio\2019\Professional\VC\Tools\MSVC\14.29.30133\include\xmemory
; File C:\Program Files (x86)\Microsoft Visual Studio\2019\Professional\VC\Tools\MSVC\14.29.30133\include\xstring
; File C:\Program Files (x86)\Microsoft Visual Studio\2019\Professional\VC\Tools\MSVC\14.29.30133\include\xmemory
; File C:\Program Files (x86)\Microsoft Visual Studio\2019\Professional\VC\Tools\MSVC\14.29.30133\include\xstring
; File C:\Program Files (x86)\Microsoft Visual Studio\2019\Professional\VC\Tools\MSVC\14.29.30133\include\xmemory
; File C:\Program Files (x86)\Microsoft Visual Studio\2019\Professional\VC\Tools\MSVC\14.29.30133\include\xstring
;	COMDAT ??1?$basic_string@DU?$char_traits@D@std@@V?$allocator@D@2@@std@@QAE@XZ
_TEXT	SEGMENT
??1?$basic_string@DU?$char_traits@D@std@@V?$allocator@D@2@@std@@QAE@XZ PROC ; std::basic_string<char,std::char_traits<char>,std::allocator<char> >::~basic_string<char,std::char_traits<char>,std::allocator<char> >, COMDAT
; _this$ = ecx

; 3002 :     _CONSTEXPR20_CONTAINER ~basic_string() noexcept {

  00000	56		 push	 esi
  00001	8b f1		 mov	 esi, ecx

; 2319 :         return _BUF_SIZE <= _Myres;

  00003	8b 4e 14	 mov	 ecx, DWORD PTR [esi+20]
  00006	83 f9 10	 cmp	 ecx, 16			; 00000010H

; 4618 :         if (_Mypair._Myval2._Large_string_engaged()) {

  00009	72 27		 jb	 SHORT $LN12@basic_stri
; File C:\Program Files (x86)\Microsoft Visual Studio\2019\Professional\VC\Tools\MSVC\14.29.30133\include\xmemory

; 835  :         _Deallocate<_New_alignof<_Ty>>(_Ptr, sizeof(_Ty) * _Count);

  0000b	8b 06		 mov	 eax, DWORD PTR [esi]
; File C:\Program Files (x86)\Microsoft Visual Studio\2019\Professional\VC\Tools\MSVC\14.29.30133\include\xstring

; 4622 :             _Al.deallocate(_Ptr, _Mypair._Myval2._Myres + 1);

  0000d	41		 inc	 ecx
; File C:\Program Files (x86)\Microsoft Visual Studio\2019\Professional\VC\Tools\MSVC\14.29.30133\include\xmemory

; 260  :         if (_Bytes >= _Big_allocation_threshold) { // boost the alignment of big allocations to help autovectorization

  0000e	81 f9 00 10 00
	00		 cmp	 ecx, 4096		; 00001000H
  00014	72 12		 jb	 SHORT $LN22@basic_stri

; 158  :     const uintptr_t _Ptr_container   = _Ptr_user[-1];

  00016	8b 50 fc	 mov	 edx, DWORD PTR [eax-4]
  00019	83 c1 23	 add	 ecx, 35			; 00000023H

; 159  : 
; 160  :     // If the following asserts, it likely means that we are performing
; 161  :     // an aligned delete on memory coming from an unaligned allocation.
; 162  :     _STL_ASSERT(_Ptr_user[-2] == _Big_allocation_sentinel, "invalid argument");
; 163  : 
; 164  :     // Extra paranoia on aligned allocation/deallocation; ensure _Ptr_container is
; 165  :     // in range [_Min_back_shift, _Non_user_size]
; 166  : #ifdef _DEBUG
; 167  :     constexpr uintptr_t _Min_back_shift = 2 * sizeof(void*);
; 168  : #else // ^^^ _DEBUG ^^^ // vvv !_DEBUG vvv
; 169  :     constexpr uintptr_t _Min_back_shift = sizeof(void*);
; 170  : #endif // _DEBUG
; 171  :     const uintptr_t _Back_shift = reinterpret_cast<uintptr_t>(_Ptr) - _Ptr_container;

  0001c	2b c2		 sub	 eax, edx

; 172  :     _STL_VERIFY(_Back_shift >= _Min_back_shift && _Back_shift <= _Non_user_size, "invalid argument");

  0001e	83 c0 fc	 add	 eax, -4			; fffffffcH
  00021	83 f8 1f	 cmp	 eax, 31			; 0000001fH
  00024	77 1f		 ja	 SHORT $LN19@basic_stri

; 173  :     _Ptr = reinterpret_cast<void*>(_Ptr_container);

  00026	8b c2		 mov	 eax, edx
$LN22@basic_stri:

; 264  :         ::operator delete(_Ptr, _Bytes);

  00028	51		 push	 ecx
  00029	50		 push	 eax
  0002a	e8 00 00 00 00	 call	 ??3@YAXPAXI@Z		; operator delete
  0002f	83 c4 08	 add	 esp, 8
$LN12@basic_stri:
; File C:\Program Files (x86)\Microsoft Visual Studio\2019\Professional\VC\Tools\MSVC\14.29.30133\include\xstring

; 4633 :             _Mypair._Myval2._Mysize = 0;

  00032	c7 46 10 00 00
	00 00		 mov	 DWORD PTR [esi+16], 0

; 4634 :             _Mypair._Myval2._Myres  = _BUF_SIZE - 1;

  00039	c7 46 14 0f 00
	00 00		 mov	 DWORD PTR [esi+20], 15	; 0000000fH

; 4635 :             // the _Traits::assign is last so the codegen doesn't think the char write can alias this
; 4636 :             _Traits::assign(_Mypair._Myval2._Bx._Buf[0], _Elem());

  00040	c6 06 00	 mov	 BYTE PTR [esi], 0
  00043	5e		 pop	 esi

; 3010 :     }

  00044	c3		 ret	 0
$LN19@basic_stri:
; File C:\Program Files (x86)\Microsoft Visual Studio\2019\Professional\VC\Tools\MSVC\14.29.30133\include\xmemory

; 172  :     _STL_VERIFY(_Back_shift >= _Min_back_shift && _Back_shift <= _Non_user_size, "invalid argument");

  00045	e8 00 00 00 00	 call	 __invalid_parameter_noinfo_noreturn
$LN27@basic_stri:
  0004a	cc		 int	 3
??1?$basic_string@DU?$char_traits@D@std@@V?$allocator@D@2@@std@@QAE@XZ ENDP ; std::basic_string<char,std::char_traits<char>,std::allocator<char> >::~basic_string<char,std::char_traits<char>,std::allocator<char> >
_TEXT	ENDS
; Function compile flags: /Ogtp
; File C:\Program Files (x86)\Microsoft Visual Studio\2019\Professional\VC\Tools\MSVC\14.29.30133\include\xstring
; File C:\Program Files (x86)\Microsoft Visual Studio\2019\Professional\VC\Tools\MSVC\14.29.30133\include\utility
; File C:\Program Files (x86)\Microsoft Visual Studio\2019\Professional\VC\Tools\MSVC\14.29.30133\include\xstring
; File C:\Program Files (x86)\Microsoft Visual Studio\2019\Professional\VC\Tools\MSVC\14.29.30133\include\utility
; File C:\Program Files (x86)\Microsoft Visual Studio\2019\Professional\VC\Tools\MSVC\14.29.30133\include\xstring
; File C:\Program Files (x86)\Microsoft Visual Studio\2019\Professional\VC\Tools\MSVC\14.29.30133\include\xmemory
; File C:\Program Files (x86)\Microsoft Visual Studio\2019\Professional\VC\Tools\MSVC\14.29.30133\include\xstring
;	COMDAT ??0?$basic_string@DU?$char_traits@D@std@@V?$allocator@D@2@@std@@QAE@ABV01@@Z
_TEXT	SEGMENT
__Right_size$1$ = 8					; size = 4
__Right$ = 8						; size = 4
??0?$basic_string@DU?$char_traits@D@std@@V?$allocator@D@2@@std@@QAE@ABV01@@Z PROC ; std::basic_string<char,std::char_traits<char>,std::allocator<char> >::basic_string<char,std::char_traits<char>,std::allocator<char> >, COMDAT
; _this$ = ecx

; 2451 :         : _Mypair(_One_then_variadic_args_t{}, _Alty_traits::select_on_container_copy_construction(_Right._Getal())) {

  00000	55		 push	 ebp
  00001	8b ec		 mov	 ebp, esp
  00003	53		 push	 ebx
  00004	56		 push	 esi
  00005	8b f1		 mov	 esi, ecx
  00007	57		 push	 edi

; 2921 :         const size_type _Right_size   = _Right_data._Mysize;

  00008	8b 7d 08	 mov	 edi, DWORD PTR __Right$[ebp]

; 2346 :         _CONSTEXPR20_CONTAINER _Bxty() noexcept : _Ptr() {} // user-provided, for fancy pointers

  0000b	c7 06 00 00 00
	00		 mov	 DWORD PTR [esi], 0

; 2355 :     size_type _Mysize = 0; // current length of string

  00011	c7 46 10 00 00
	00 00		 mov	 DWORD PTR [esi+16], 0

; 2356 :     size_type _Myres  = 0; // current storage reserved for string

  00018	c7 46 14 00 00
	00 00		 mov	 DWORD PTR [esi+20], 0

; 2319 :         return _BUF_SIZE <= _Myres;

  0001f	83 7f 14 10	 cmp	 DWORD PTR [edi+20], 16	; 00000010H

; 2921 :         const size_type _Right_size   = _Right_data._Mysize;

  00023	8b 4f 10	 mov	 ecx, DWORD PTR [edi+16]
  00026	89 4d 08	 mov	 DWORD PTR __Right_size$1$[ebp], ecx

; 2306 :         if (_Large_string_engaged()) {

  00029	72 02		 jb	 SHORT $LN15@basic_stri

; 2307 :             _Result = _Unfancy(_Bx._Ptr);

  0002b	8b 3f		 mov	 edi, DWORD PTR [edi]
$LN15@basic_stri:

; 2928 :         const bool _Stay_small = _Right_size < _BUF_SIZE;

  0002d	83 f9 10	 cmp	 ecx, 16			; 00000010H

; 2929 : #endif // __cpp_lib_constexpr_string
; 2930 : 
; 2931 :         // NOTE: even if _Right is in large mode, we only go into large mode ourselves if the actual size of _Right
; 2932 :         // requires it
; 2933 :         if (_Stay_small) { // stay small, don't allocate

  00030	73 1a		 jae	 SHORT $LN12@basic_stri

; 65   :         _CSTD memcpy(_First1, _First2, _Count * sizeof(_Elem));

  00032	0f 10 07	 movups	 xmm0, XMMWORD PTR [edi]

; 2936 :             _My_data._Myres  = _BUF_SIZE - 1;

  00035	bb 0f 00 00 00	 mov	 ebx, 15			; 0000000fH

; 2452 :         auto&& _Alproxy = _GET_PROXY_ALLOCATOR(_Alty, _Getal());
; 2453 :         _Container_proxy_ptr<_Alty> _Proxy(_Alproxy, _Mypair._Myval2);
; 2454 :         _Construct_lv_contents(_Right);
; 2455 :         _Proxy._Release();
; 2456 :     }

  0003a	8b c6		 mov	 eax, esi
  0003c	5f		 pop	 edi

; 65   :         _CSTD memcpy(_First1, _First2, _Count * sizeof(_Elem));

  0003d	0f 11 06	 movups	 XMMWORD PTR [esi], xmm0

; 2452 :         auto&& _Alproxy = _GET_PROXY_ALLOCATOR(_Alty, _Getal());
; 2453 :         _Container_proxy_ptr<_Alty> _Proxy(_Alproxy, _Mypair._Myval2);
; 2454 :         _Construct_lv_contents(_Right);
; 2455 :         _Proxy._Release();
; 2456 :     }

  00040	89 4e 10	 mov	 DWORD PTR [esi+16], ecx
  00043	89 5e 14	 mov	 DWORD PTR [esi+20], ebx
  00046	5e		 pop	 esi
  00047	5b		 pop	 ebx
  00048	5d		 pop	 ebp
  00049	c2 04 00	 ret	 4
$LN12@basic_stri:

; 2941 :         const size_type _New_capacity = (_STD min)(_Right_size | _ALLOC_MASK, max_size());

  0004c	8b d9		 mov	 ebx, ecx
; File C:\Program Files (x86)\Microsoft Visual Studio\2019\Professional\VC\Tools\MSVC\14.29.30133\include\utility

; 68   :     return _Right < _Left ? _Right : _Left;

  0004e	b8 ff ff ff 7f	 mov	 eax, 2147483647		; 7fffffffH
; File C:\Program Files (x86)\Microsoft Visual Studio\2019\Professional\VC\Tools\MSVC\14.29.30133\include\xstring

; 2941 :         const size_type _New_capacity = (_STD min)(_Right_size | _ALLOC_MASK, max_size());

  00053	83 cb 0f	 or	 ebx, 15			; 0000000fH
; File C:\Program Files (x86)\Microsoft Visual Studio\2019\Professional\VC\Tools\MSVC\14.29.30133\include\utility

; 68   :     return _Right < _Left ? _Right : _Left;

  00056	3b d8		 cmp	 ebx, eax
  00058	0f 47 d8	 cmova	 ebx, eax
; File C:\Program Files (x86)\Microsoft Visual Studio\2019\Professional\VC\Tools\MSVC\14.29.30133\include\xstring

; 2942 :         const pointer _New_array      = _Al.allocate(_New_capacity + 1); // throws

  0005b	8d 43 01	 lea	 eax, DWORD PTR [ebx+1]
; File C:\Program Files (x86)\Microsoft Visual Studio\2019\Professional\VC\Tools\MSVC\14.29.30133\include\xmemory

; 237  :         if (_Bytes >= _Big_allocation_threshold) { // boost the alignment of big allocations to help autovectorization

  0005e	3d 00 10 00 00	 cmp	 eax, 4096		; 00001000H
  00063	72 0d		 jb	 SHORT $LN26@basic_stri

; 238  :             return _Allocate_manually_vector_aligned<_Traits>(_Bytes);

  00065	50		 push	 eax
  00066	e8 00 00 00 00	 call	 ??$_Allocate_manually_vector_aligned@U_Default_allocate_traits@std@@@std@@YAPAXI@Z ; std::_Allocate_manually_vector_aligned<std::_Default_allocate_traits>
  0006b	83 c4 04	 add	 esp, 4
  0006e	8b c8		 mov	 ecx, eax
  00070	eb 13		 jmp	 SHORT $LN25@basic_stri
$LN26@basic_stri:

; 239  :         }
; 240  :     }
; 241  : #endif // defined(_M_IX86) || defined(_M_X64)
; 242  : 
; 243  :     if (_Bytes != 0) {

  00072	85 c0		 test	 eax, eax
  00074	74 0d		 je	 SHORT $LN27@basic_stri

; 85   :         return ::operator new(_Bytes);

  00076	50		 push	 eax
  00077	e8 00 00 00 00	 call	 ??2@YAPAXI@Z		; operator new
  0007c	83 c4 04	 add	 esp, 4

; 244  :         return _Traits::_Allocate(_Bytes);

  0007f	8b c8		 mov	 ecx, eax
  00081	eb 02		 jmp	 SHORT $LN25@basic_stri
$LN27@basic_stri:

; 245  :     }
; 246  : 
; 247  :     return nullptr;

  00083	33 c9		 xor	 ecx, ecx
$LN25@basic_stri:
; File C:\Program Files (x86)\Microsoft Visual Studio\2019\Professional\VC\Tools\MSVC\14.29.30133\include\xstring

; 2950 :         _Traits::copy(_Unfancy(_New_array), _Right_ptr, _Right_size + 1);

  00085	8b 45 08	 mov	 eax, DWORD PTR __Right_size$1$[ebp]
  00088	40		 inc	 eax
  00089	89 0e		 mov	 DWORD PTR [esi], ecx

; 65   :         _CSTD memcpy(_First1, _First2, _Count * sizeof(_Elem));

  0008b	50		 push	 eax
  0008c	57		 push	 edi
  0008d	51		 push	 ecx
  0008e	e8 00 00 00 00	 call	 _memcpy
  00093	8b 4d 08	 mov	 ecx, DWORD PTR __Right_size$1$[ebp]
  00096	83 c4 0c	 add	 esp, 12			; 0000000cH

; 2452 :         auto&& _Alproxy = _GET_PROXY_ALLOCATOR(_Alty, _Getal());
; 2453 :         _Container_proxy_ptr<_Alty> _Proxy(_Alproxy, _Mypair._Myval2);
; 2454 :         _Construct_lv_contents(_Right);
; 2455 :         _Proxy._Release();
; 2456 :     }

  00099	89 4e 10	 mov	 DWORD PTR [esi+16], ecx
  0009c	8b c6		 mov	 eax, esi
  0009e	89 5e 14	 mov	 DWORD PTR [esi+20], ebx
  000a1	5f		 pop	 edi
  000a2	5e		 pop	 esi
  000a3	5b		 pop	 ebx
  000a4	5d		 pop	 ebp
  000a5	c2 04 00	 ret	 4
??0?$basic_string@DU?$char_traits@D@std@@V?$allocator@D@2@@std@@QAE@ABV01@@Z ENDP ; std::basic_string<char,std::char_traits<char>,std::allocator<char> >::basic_string<char,std::char_traits<char>,std::allocator<char> >
_TEXT	ENDS
; Function compile flags: /Ogtp
; File C:\Program Files (x86)\Microsoft Visual Studio\2019\Professional\VC\Tools\MSVC\14.29.30133\include\xstring
;	COMDAT ?_Xlen_string@std@@YAXXZ
_TEXT	SEGMENT
?_Xlen_string@std@@YAXXZ PROC				; std::_Xlen_string, COMDAT

; 2374 :     _Xlength_error("string too long");

  00000	68 00 00 00 00	 push	 OFFSET ??_C@_0BA@JFNIOLAK@string?5too?5long@
  00005	e8 00 00 00 00	 call	 ?_Xlength_error@std@@YAXPBD@Z ; std::_Xlength_error
$LN3@Xlen_strin:
  0000a	cc		 int	 3
?_Xlen_string@std@@YAXXZ ENDP				; std::_Xlen_string
_TEXT	ENDS
; Function compile flags: /Ogtp
; File C:\Program Files (x86)\Microsoft Visual Studio\2019\Professional\VC\Tools\MSVC\14.29.30133\include\exception
;	COMDAT ?_Throw_bad_array_new_length@std@@YAXXZ
_TEXT	SEGMENT
$T1 = -12						; size = 12
?_Throw_bad_array_new_length@std@@YAXXZ PROC		; std::_Throw_bad_array_new_length, COMDAT

; 320  : [[noreturn]] inline void _Throw_bad_array_new_length() {

  00000	55		 push	 ebp
  00001	8b ec		 mov	 ebp, esp
  00003	83 ec 0c	 sub	 esp, 12			; 0000000cH

; 321  :     _THROW(bad_array_new_length{});

  00006	8d 4d f4	 lea	 ecx, DWORD PTR $T1[ebp]
  00009	e8 00 00 00 00	 call	 ??0bad_array_new_length@std@@QAE@XZ ; std::bad_array_new_length::bad_array_new_length
  0000e	68 00 00 00 00	 push	 OFFSET __TI3?AVbad_array_new_length@std@@
  00013	8d 45 f4	 lea	 eax, DWORD PTR $T1[ebp]
  00016	50		 push	 eax
  00017	e8 00 00 00 00	 call	 __CxxThrowException@8
$LN3@Throw_bad_:
  0001c	cc		 int	 3
?_Throw_bad_array_new_length@std@@YAXXZ ENDP		; std::_Throw_bad_array_new_length
_TEXT	ENDS
; Function compile flags: /Ogtp
; File C:\Program Files (x86)\Microsoft Visual Studio\2019\Professional\VC\Tools\MSVC\14.29.30133\include\vcruntime_exception.h
;	COMDAT ??_Gbad_array_new_length@std@@UAEPAXI@Z
_TEXT	SEGMENT
___flags$ = 8						; size = 4
??_Gbad_array_new_length@std@@UAEPAXI@Z PROC		; std::bad_array_new_length::`scalar deleting destructor', COMDAT
; _this$ = ecx
  00000	55		 push	 ebp
  00001	8b ec		 mov	 ebp, esp

; 89   :     {

  00003	56		 push	 esi
  00004	8b f1		 mov	 esi, ecx

; 90   :         __std_exception_destroy(&_Data);

  00006	8d 46 04	 lea	 eax, DWORD PTR [esi+4]
  00009	c7 06 00 00 00
	00		 mov	 DWORD PTR [esi], OFFSET ??_7exception@std@@6B@
  0000f	50		 push	 eax
  00010	e8 00 00 00 00	 call	 ___std_exception_destroy
  00015	83 c4 04	 add	 esp, 4
  00018	f6 45 08 01	 test	 BYTE PTR ___flags$[ebp], 1
  0001c	74 0b		 je	 SHORT $LN12@scalar
  0001e	6a 0c		 push	 12			; 0000000cH
  00020	56		 push	 esi
  00021	e8 00 00 00 00	 call	 ??3@YAXPAXI@Z		; operator delete
  00026	83 c4 08	 add	 esp, 8
$LN12@scalar:
  00029	8b c6		 mov	 eax, esi
  0002b	5e		 pop	 esi
  0002c	5d		 pop	 ebp
  0002d	c2 04 00	 ret	 4
??_Gbad_array_new_length@std@@UAEPAXI@Z ENDP		; std::bad_array_new_length::`scalar deleting destructor'
_TEXT	ENDS
; Function compile flags: /Ogtp
; File C:\Program Files (x86)\Microsoft Visual Studio\2019\Professional\VC\Tools\MSVC\14.29.30133\include\vcruntime_exception.h
;	COMDAT ??0bad_array_new_length@std@@QAE@ABV01@@Z
_TEXT	SEGMENT
___that$ = 8						; size = 4
??0bad_array_new_length@std@@QAE@ABV01@@Z PROC		; std::bad_array_new_length::bad_array_new_length, COMDAT
; _this$ = ecx
  00000	55		 push	 ebp
  00001	8b ec		 mov	 ebp, esp

; 72   :     {

  00003	56		 push	 esi
  00004	8b f1		 mov	 esi, ecx
  00006	0f 57 c0	 xorps	 xmm0, xmm0

; 71   :         : _Data()

  00009	8d 46 04	 lea	 eax, DWORD PTR [esi+4]

; 73   :         __std_exception_copy(&_Other._Data, &_Data);

  0000c	50		 push	 eax
  0000d	c7 06 00 00 00
	00		 mov	 DWORD PTR [esi], OFFSET ??_7exception@std@@6B@
  00013	66 0f d6 00	 movq	 QWORD PTR [eax], xmm0
  00017	8b 45 08	 mov	 eax, DWORD PTR ___that$[ebp]
  0001a	83 c0 04	 add	 eax, 4
  0001d	50		 push	 eax
  0001e	e8 00 00 00 00	 call	 ___std_exception_copy
  00023	83 c4 08	 add	 esp, 8
  00026	c7 06 00 00 00
	00		 mov	 DWORD PTR [esi], OFFSET ??_7bad_array_new_length@std@@6B@
  0002c	8b c6		 mov	 eax, esi
  0002e	5e		 pop	 esi
  0002f	5d		 pop	 ebp
  00030	c2 04 00	 ret	 4
??0bad_array_new_length@std@@QAE@ABV01@@Z ENDP		; std::bad_array_new_length::bad_array_new_length
_TEXT	ENDS
; Function compile flags: /Ogtp
; File C:\Program Files (x86)\Microsoft Visual Studio\2019\Professional\VC\Tools\MSVC\14.29.30133\include\vcruntime_exception.h
;	COMDAT ??1bad_array_new_length@std@@UAE@XZ
_TEXT	SEGMENT
??1bad_array_new_length@std@@UAE@XZ PROC		; std::bad_array_new_length::~bad_array_new_length, COMDAT
; _this$ = ecx

; 90   :         __std_exception_destroy(&_Data);

  00000	8d 41 04	 lea	 eax, DWORD PTR [ecx+4]
  00003	c7 01 00 00 00
	00		 mov	 DWORD PTR [ecx], OFFSET ??_7exception@std@@6B@
  00009	50		 push	 eax
  0000a	e8 00 00 00 00	 call	 ___std_exception_destroy
  0000f	59		 pop	 ecx
  00010	c3		 ret	 0
??1bad_array_new_length@std@@UAE@XZ ENDP		; std::bad_array_new_length::~bad_array_new_length
_TEXT	ENDS
; Function compile flags: /Ogtp
; File C:\Program Files (x86)\Microsoft Visual Studio\2019\Professional\VC\Tools\MSVC\14.29.30133\include\vcruntime_exception.h
;	COMDAT ??0bad_array_new_length@std@@QAE@XZ
_TEXT	SEGMENT
??0bad_array_new_length@std@@QAE@XZ PROC		; std::bad_array_new_length::bad_array_new_length, COMDAT
; _this$ = ecx

; 141  :     {

  00000	0f 57 c0	 xorps	 xmm0, xmm0

; 142  :     }

  00003	8b c1		 mov	 eax, ecx

; 65   :         : _Data()

  00005	66 0f d6 41 04	 movq	 QWORD PTR [ecx+4], xmm0

; 66   :     {
; 67   :         _Data._What = _Message;

  0000a	c7 41 04 00 00
	00 00		 mov	 DWORD PTR [ecx+4], OFFSET ??_C@_0BF@KINCDENJ@bad?5array?5new?5length@

; 141  :     {

  00011	c7 01 00 00 00
	00		 mov	 DWORD PTR [ecx], OFFSET ??_7bad_array_new_length@std@@6B@

; 142  :     }

  00017	c3		 ret	 0
??0bad_array_new_length@std@@QAE@XZ ENDP		; std::bad_array_new_length::bad_array_new_length
_TEXT	ENDS
; Function compile flags: /Ogtp
; File C:\Program Files (x86)\Microsoft Visual Studio\2019\Professional\VC\Tools\MSVC\14.29.30133\include\vcruntime_exception.h
;	COMDAT ??_Gbad_alloc@std@@UAEPAXI@Z
_TEXT	SEGMENT
___flags$ = 8						; size = 4
??_Gbad_alloc@std@@UAEPAXI@Z PROC			; std::bad_alloc::`scalar deleting destructor', COMDAT
; _this$ = ecx
  00000	55		 push	 ebp
  00001	8b ec		 mov	 ebp, esp

; 89   :     {

  00003	56		 push	 esi
  00004	8b f1		 mov	 esi, ecx

; 90   :         __std_exception_destroy(&_Data);

  00006	8d 46 04	 lea	 eax, DWORD PTR [esi+4]
  00009	c7 06 00 00 00
	00		 mov	 DWORD PTR [esi], OFFSET ??_7exception@std@@6B@
  0000f	50		 push	 eax
  00010	e8 00 00 00 00	 call	 ___std_exception_destroy
  00015	83 c4 04	 add	 esp, 4
  00018	f6 45 08 01	 test	 BYTE PTR ___flags$[ebp], 1
  0001c	74 0b		 je	 SHORT $LN9@scalar
  0001e	6a 0c		 push	 12			; 0000000cH
  00020	56		 push	 esi
  00021	e8 00 00 00 00	 call	 ??3@YAXPAXI@Z		; operator delete
  00026	83 c4 08	 add	 esp, 8
$LN9@scalar:
  00029	8b c6		 mov	 eax, esi
  0002b	5e		 pop	 esi
  0002c	5d		 pop	 ebp
  0002d	c2 04 00	 ret	 4
??_Gbad_alloc@std@@UAEPAXI@Z ENDP			; std::bad_alloc::`scalar deleting destructor'
_TEXT	ENDS
; Function compile flags: /Ogtp
; File C:\Program Files (x86)\Microsoft Visual Studio\2019\Professional\VC\Tools\MSVC\14.29.30133\include\vcruntime_exception.h
;	COMDAT ??0bad_alloc@std@@QAE@ABV01@@Z
_TEXT	SEGMENT
___that$ = 8						; size = 4
??0bad_alloc@std@@QAE@ABV01@@Z PROC			; std::bad_alloc::bad_alloc, COMDAT
; _this$ = ecx
  00000	55		 push	 ebp
  00001	8b ec		 mov	 ebp, esp

; 72   :     {

  00003	56		 push	 esi
  00004	8b f1		 mov	 esi, ecx
  00006	0f 57 c0	 xorps	 xmm0, xmm0

; 71   :         : _Data()

  00009	8d 46 04	 lea	 eax, DWORD PTR [esi+4]

; 73   :         __std_exception_copy(&_Other._Data, &_Data);

  0000c	50		 push	 eax
  0000d	c7 06 00 00 00
	00		 mov	 DWORD PTR [esi], OFFSET ??_7exception@std@@6B@
  00013	66 0f d6 00	 movq	 QWORD PTR [eax], xmm0
  00017	8b 45 08	 mov	 eax, DWORD PTR ___that$[ebp]
  0001a	83 c0 04	 add	 eax, 4
  0001d	50		 push	 eax
  0001e	e8 00 00 00 00	 call	 ___std_exception_copy
  00023	83 c4 08	 add	 esp, 8
  00026	c7 06 00 00 00
	00		 mov	 DWORD PTR [esi], OFFSET ??_7bad_alloc@std@@6B@
  0002c	8b c6		 mov	 eax, esi
  0002e	5e		 pop	 esi
  0002f	5d		 pop	 ebp
  00030	c2 04 00	 ret	 4
??0bad_alloc@std@@QAE@ABV01@@Z ENDP			; std::bad_alloc::bad_alloc
_TEXT	ENDS
; Function compile flags: /Ogtp
; File C:\Program Files (x86)\Microsoft Visual Studio\2019\Professional\VC\Tools\MSVC\14.29.30133\include\vcruntime_exception.h
;	COMDAT ??_Gexception@std@@UAEPAXI@Z
_TEXT	SEGMENT
___flags$ = 8						; size = 4
??_Gexception@std@@UAEPAXI@Z PROC			; std::exception::`scalar deleting destructor', COMDAT
; _this$ = ecx
  00000	55		 push	 ebp
  00001	8b ec		 mov	 ebp, esp

; 89   :     {

  00003	56		 push	 esi
  00004	8b f1		 mov	 esi, ecx

; 90   :         __std_exception_destroy(&_Data);

  00006	8d 46 04	 lea	 eax, DWORD PTR [esi+4]
  00009	c7 06 00 00 00
	00		 mov	 DWORD PTR [esi], OFFSET ??_7exception@std@@6B@
  0000f	50		 push	 eax
  00010	e8 00 00 00 00	 call	 ___std_exception_destroy
  00015	83 c4 04	 add	 esp, 4
  00018	f6 45 08 01	 test	 BYTE PTR ___flags$[ebp], 1
  0001c	74 0b		 je	 SHORT $LN6@scalar
  0001e	6a 0c		 push	 12			; 0000000cH
  00020	56		 push	 esi
  00021	e8 00 00 00 00	 call	 ??3@YAXPAXI@Z		; operator delete
  00026	83 c4 08	 add	 esp, 8
$LN6@scalar:
  00029	8b c6		 mov	 eax, esi
  0002b	5e		 pop	 esi
  0002c	5d		 pop	 ebp
  0002d	c2 04 00	 ret	 4
??_Gexception@std@@UAEPAXI@Z ENDP			; std::exception::`scalar deleting destructor'
_TEXT	ENDS
; Function compile flags: /Ogtp
; File C:\Program Files (x86)\Microsoft Visual Studio\2019\Professional\VC\Tools\MSVC\14.29.30133\include\vcruntime_exception.h
;	COMDAT ?what@exception@std@@UBEPBDXZ
_TEXT	SEGMENT
?what@exception@std@@UBEPBDXZ PROC			; std::exception::what, COMDAT
; _this$ = ecx

; 95   :         return _Data._What ? _Data._What : "Unknown exception";

  00000	8b 49 04	 mov	 ecx, DWORD PTR [ecx+4]
  00003	b8 00 00 00 00	 mov	 eax, OFFSET ??_C@_0BC@EOODALEL@Unknown?5exception@
  00008	85 c9		 test	 ecx, ecx
  0000a	0f 45 c1	 cmovne	 eax, ecx

; 96   :     }

  0000d	c3		 ret	 0
?what@exception@std@@UBEPBDXZ ENDP			; std::exception::what
_TEXT	ENDS
; Function compile flags: /Ogtp
; File C:\Program Files (x86)\Microsoft Visual Studio\2019\Professional\VC\Tools\MSVC\14.29.30133\include\vcruntime_exception.h
;	COMDAT ??1exception@std@@UAE@XZ
_TEXT	SEGMENT
??1exception@std@@UAE@XZ PROC				; std::exception::~exception, COMDAT
; _this$ = ecx

; 90   :         __std_exception_destroy(&_Data);

  00000	8d 41 04	 lea	 eax, DWORD PTR [ecx+4]
  00003	c7 01 00 00 00
	00		 mov	 DWORD PTR [ecx], OFFSET ??_7exception@std@@6B@
  00009	50		 push	 eax
  0000a	e8 00 00 00 00	 call	 ___std_exception_destroy
  0000f	59		 pop	 ecx

; 91   :     }

  00010	c3		 ret	 0
??1exception@std@@UAE@XZ ENDP				; std::exception::~exception
_TEXT	ENDS
; Function compile flags: /Ogtp
; File C:\Program Files (x86)\Microsoft Visual Studio\2019\Professional\VC\Tools\MSVC\14.29.30133\include\vcruntime_exception.h
;	COMDAT ??0exception@std@@QAE@ABV01@@Z
_TEXT	SEGMENT
__Other$ = 8						; size = 4
??0exception@std@@QAE@ABV01@@Z PROC			; std::exception::exception, COMDAT
; _this$ = ecx

; 72   :     {

  00000	55		 push	 ebp
  00001	8b ec		 mov	 ebp, esp
  00003	56		 push	 esi
  00004	8b f1		 mov	 esi, ecx
  00006	0f 57 c0	 xorps	 xmm0, xmm0
  00009	8d 46 04	 lea	 eax, DWORD PTR [esi+4]

; 73   :         __std_exception_copy(&_Other._Data, &_Data);

  0000c	50		 push	 eax
  0000d	c7 06 00 00 00
	00		 mov	 DWORD PTR [esi], OFFSET ??_7exception@std@@6B@
  00013	66 0f d6 00	 movq	 QWORD PTR [eax], xmm0
  00017	8b 45 08	 mov	 eax, DWORD PTR __Other$[ebp]
  0001a	83 c0 04	 add	 eax, 4
  0001d	50		 push	 eax
  0001e	e8 00 00 00 00	 call	 ___std_exception_copy
  00023	83 c4 08	 add	 esp, 8

; 74   :     }

  00026	8b c6		 mov	 eax, esi
  00028	5e		 pop	 esi
  00029	5d		 pop	 ebp
  0002a	c2 04 00	 ret	 4
??0exception@std@@QAE@ABV01@@Z ENDP			; std::exception::exception
_TEXT	ENDS
; Function compile flags: /Ogtp
; File C:\Program Files (x86)\Windows Kits\10\Include\10.0.19041.0\ucrt\stdio.h
;	COMDAT _fprintf
_TEXT	SEGMENT
__Stream$ = 8						; size = 4
__Format$ = 12						; size = 4
_fprintf PROC						; COMDAT

; 837  :     {

  00000	55		 push	 ebp
  00001	8b ec		 mov	 ebp, esp

; 645  :         return __stdio_common_vfprintf(_CRT_INTERNAL_LOCAL_PRINTF_OPTIONS, _Stream, _Format, _Locale, _ArgList);

  00003	8d 45 10	 lea	 eax, DWORD PTR __Format$[ebp+4]
  00006	50		 push	 eax
  00007	6a 00		 push	 0
  00009	ff 75 0c	 push	 DWORD PTR __Format$[ebp]
  0000c	ff 75 08	 push	 DWORD PTR __Stream$[ebp]
  0000f	e8 00 00 00 00	 call	 ___local_stdio_printf_options
  00014	ff 70 04	 push	 DWORD PTR [eax+4]
  00017	ff 30		 push	 DWORD PTR [eax]
  00019	e8 00 00 00 00	 call	 ___stdio_common_vfprintf
  0001e	83 c4 18	 add	 esp, 24			; 00000018H

; 838  :         int _Result;
; 839  :         va_list _ArgList;
; 840  :         __crt_va_start(_ArgList, _Format);
; 841  :         _Result = _vfprintf_l(_Stream, _Format, NULL, _ArgList);
; 842  :         __crt_va_end(_ArgList);
; 843  :         return _Result;
; 844  :     }

  00021	5d		 pop	 ebp
  00022	c3		 ret	 0
_fprintf ENDP
_TEXT	ENDS
; Function compile flags: /Ogtp
; File C:\Program Files (x86)\Windows Kits\10\Include\10.0.19041.0\ucrt\corecrt_stdio_config.h
;	COMDAT ___local_stdio_printf_options
_TEXT	SEGMENT
___local_stdio_printf_options PROC			; COMDAT

; 91   :         static unsigned __int64 _OptionsStorage;
; 92   :         return &_OptionsStorage;

  00000	b8 00 00 00 00	 mov	 eax, OFFSET ?_OptionsStorage@?1??__local_stdio_printf_options@@9@4_KA ; `__local_stdio_printf_options'::`2'::_OptionsStorage

; 93   :     }

  00005	c3		 ret	 0
___local_stdio_printf_options ENDP
_TEXT	ENDS
END
