; Listing generated by Microsoft (R) Optimizing Compiler Version 19.29.30137.0 

	TITLE	C:\Users\murat\Desktop\Siveps2-1-99-Project\source\client\Client\EterLib\Distribute\TextTag.obj
	.686P
	.XMM
	include listing.inc
	.model	flat

INCLUDELIB LIBCMT
INCLUDELIB OLDNAMES

CONST	SEGMENT
?_Fake_alloc@std@@3U_Fake_allocator@1@B	ORG $+1		; std::_Fake_alloc
CONST	ENDS
PUBLIC	??0exception@std@@QAE@ABV01@@Z			; std::exception::exception
PUBLIC	??1exception@std@@UAE@XZ			; std::exception::~exception
PUBLIC	?what@exception@std@@UBEPBDXZ			; std::exception::what
PUBLIC	??_Gexception@std@@UAEPAXI@Z			; std::exception::`scalar deleting destructor'
PUBLIC	??0bad_alloc@std@@QAE@ABV01@@Z			; std::bad_alloc::bad_alloc
PUBLIC	??_Gbad_alloc@std@@UAEPAXI@Z			; std::bad_alloc::`scalar deleting destructor'
PUBLIC	??0bad_array_new_length@std@@QAE@XZ		; std::bad_array_new_length::bad_array_new_length
PUBLIC	??1bad_array_new_length@std@@UAE@XZ		; std::bad_array_new_length::~bad_array_new_length
PUBLIC	??0bad_array_new_length@std@@QAE@ABV01@@Z	; std::bad_array_new_length::bad_array_new_length
PUBLIC	??_Gbad_array_new_length@std@@UAEPAXI@Z		; std::bad_array_new_length::`scalar deleting destructor'
PUBLIC	?_Throw_bad_array_new_length@std@@YAXXZ		; std::_Throw_bad_array_new_length
PUBLIC	?_Xlen_string@std@@YAXXZ			; std::_Xlen_string
PUBLIC	??1?$basic_string@_WU?$char_traits@_W@std@@V?$allocator@_W@2@@std@@QAE@XZ ; std::basic_string<wchar_t,std::char_traits<wchar_t>,std::allocator<wchar_t> >::~basic_string<wchar_t,std::char_traits<wchar_t>,std::allocator<wchar_t> >
PUBLIC	??$_Allocate_manually_vector_aligned@U_Default_allocate_traits@std@@@std@@YAPAXI@Z ; std::_Allocate_manually_vector_aligned<std::_Default_allocate_traits>
PUBLIC	?GetTextTag@@YAHPB_WHAAHAAV?$basic_string@_WU?$char_traits@_W@std@@V?$allocator@_W@2@@std@@@Z ; GetTextTag
PUBLIC	?GetTextTagOutputString@@YA?AV?$basic_string@_WU?$char_traits@_W@std@@V?$allocator@_W@2@@std@@PB_WH@Z ; GetTextTagOutputString
PUBLIC	?GetTextTagOutputLen@@YAHPB_WH@Z		; GetTextTagOutputLen
PUBLIC	?FindColorTagEndPosition@@YAHPB_WH@Z		; FindColorTagEndPosition
PUBLIC	?FindColorTagStartPosition@@YAHPB_WH@Z		; FindColorTagStartPosition
PUBLIC	?GetTextTagInternalPosFromRenderPos@@YAHPB_WHH@Z ; GetTextTagInternalPosFromRenderPos
PUBLIC	??_7exception@std@@6B@				; std::exception::`vftable'
PUBLIC	??_C@_0BC@EOODALEL@Unknown?5exception@		; `string'
PUBLIC	??_7bad_alloc@std@@6B@				; std::bad_alloc::`vftable'
PUBLIC	??_7bad_array_new_length@std@@6B@		; std::bad_array_new_length::`vftable'
PUBLIC	??_C@_0BF@KINCDENJ@bad?5array?5new?5length@	; `string'
PUBLIC	__TI3?AVbad_array_new_length@std@@
PUBLIC	__CTA3?AVbad_array_new_length@std@@
PUBLIC	??_R0?AVbad_array_new_length@std@@@8		; std::bad_array_new_length `RTTI Type Descriptor'
PUBLIC	__CT??_R0?AVbad_array_new_length@std@@@8??0bad_array_new_length@std@@QAE@ABV01@@Z12
PUBLIC	??_R0?AVbad_alloc@std@@@8			; std::bad_alloc `RTTI Type Descriptor'
PUBLIC	__CT??_R0?AVbad_alloc@std@@@8??0bad_alloc@std@@QAE@ABV01@@Z12
PUBLIC	??_R0?AVexception@std@@@8			; std::exception `RTTI Type Descriptor'
PUBLIC	__CT??_R0?AVexception@std@@@8??0exception@std@@QAE@ABV01@@Z12
PUBLIC	??_C@_0BA@JFNIOLAK@string?5too?5long@		; `string'
PUBLIC	??_R4exception@std@@6B@				; std::exception::`RTTI Complete Object Locator'
PUBLIC	??_R3exception@std@@8				; std::exception::`RTTI Class Hierarchy Descriptor'
PUBLIC	??_R2exception@std@@8				; std::exception::`RTTI Base Class Array'
PUBLIC	??_R1A@?0A@EA@exception@std@@8			; std::exception::`RTTI Base Class Descriptor at (0,-1,0,64)'
PUBLIC	??_R4bad_alloc@std@@6B@				; std::bad_alloc::`RTTI Complete Object Locator'
PUBLIC	??_R3bad_alloc@std@@8				; std::bad_alloc::`RTTI Class Hierarchy Descriptor'
PUBLIC	??_R2bad_alloc@std@@8				; std::bad_alloc::`RTTI Base Class Array'
PUBLIC	??_R1A@?0A@EA@bad_alloc@std@@8			; std::bad_alloc::`RTTI Base Class Descriptor at (0,-1,0,64)'
PUBLIC	??_R4bad_array_new_length@std@@6B@		; std::bad_array_new_length::`RTTI Complete Object Locator'
PUBLIC	??_R3bad_array_new_length@std@@8		; std::bad_array_new_length::`RTTI Class Hierarchy Descriptor'
PUBLIC	??_R2bad_array_new_length@std@@8		; std::bad_array_new_length::`RTTI Base Class Array'
PUBLIC	??_R1A@?0A@EA@bad_array_new_length@std@@8	; std::bad_array_new_length::`RTTI Base Class Descriptor at (0,-1,0,64)'
EXTRN	??2@YAPAXI@Z:PROC				; operator new
EXTRN	??3@YAXPAXI@Z:PROC				; operator delete
EXTRN	__invalid_parameter_noinfo_noreturn:PROC
EXTRN	___std_exception_copy:PROC
EXTRN	___std_exception_destroy:PROC
EXTRN	??_Eexception@std@@UAEPAXI@Z:PROC		; std::exception::`vector deleting destructor'
EXTRN	??_Ebad_alloc@std@@UAEPAXI@Z:PROC		; std::bad_alloc::`vector deleting destructor'
EXTRN	??_Ebad_array_new_length@std@@UAEPAXI@Z:PROC	; std::bad_array_new_length::`vector deleting destructor'
EXTRN	?_Xlength_error@std@@YAXPBD@Z:PROC		; std::_Xlength_error
EXTRN	?GetDefaultCodePage@@YAKXZ:PROC			; GetDefaultCodePage
EXTRN	@__security_check_cookie@4:PROC
EXTRN	__CxxThrowException@8:PROC
EXTRN	___CxxFrameHandler3:PROC
EXTRN	_memcpy:PROC
EXTRN	_memmove:PROC
EXTRN	??_7type_info@@6B@:QWORD			; type_info::`vftable'
EXTRN	___security_cookie:DWORD
;	COMDAT ??_R1A@?0A@EA@bad_array_new_length@std@@8
rdata$r	SEGMENT
??_R1A@?0A@EA@bad_array_new_length@std@@8 DD FLAT:??_R0?AVbad_array_new_length@std@@@8 ; std::bad_array_new_length::`RTTI Base Class Descriptor at (0,-1,0,64)'
	DD	02H
	DD	00H
	DD	0ffffffffH
	DD	00H
	DD	040H
	DD	FLAT:??_R3bad_array_new_length@std@@8
rdata$r	ENDS
;	COMDAT ??_R2bad_array_new_length@std@@8
rdata$r	SEGMENT
??_R2bad_array_new_length@std@@8 DD FLAT:??_R1A@?0A@EA@bad_array_new_length@std@@8 ; std::bad_array_new_length::`RTTI Base Class Array'
	DD	FLAT:??_R1A@?0A@EA@bad_alloc@std@@8
	DD	FLAT:??_R1A@?0A@EA@exception@std@@8
rdata$r	ENDS
;	COMDAT ??_R3bad_array_new_length@std@@8
rdata$r	SEGMENT
??_R3bad_array_new_length@std@@8 DD 00H			; std::bad_array_new_length::`RTTI Class Hierarchy Descriptor'
	DD	00H
	DD	03H
	DD	FLAT:??_R2bad_array_new_length@std@@8
rdata$r	ENDS
;	COMDAT ??_R4bad_array_new_length@std@@6B@
rdata$r	SEGMENT
??_R4bad_array_new_length@std@@6B@ DD 00H		; std::bad_array_new_length::`RTTI Complete Object Locator'
	DD	00H
	DD	00H
	DD	FLAT:??_R0?AVbad_array_new_length@std@@@8
	DD	FLAT:??_R3bad_array_new_length@std@@8
rdata$r	ENDS
;	COMDAT ??_R1A@?0A@EA@bad_alloc@std@@8
rdata$r	SEGMENT
??_R1A@?0A@EA@bad_alloc@std@@8 DD FLAT:??_R0?AVbad_alloc@std@@@8 ; std::bad_alloc::`RTTI Base Class Descriptor at (0,-1,0,64)'
	DD	01H
	DD	00H
	DD	0ffffffffH
	DD	00H
	DD	040H
	DD	FLAT:??_R3bad_alloc@std@@8
rdata$r	ENDS
;	COMDAT ??_R2bad_alloc@std@@8
rdata$r	SEGMENT
??_R2bad_alloc@std@@8 DD FLAT:??_R1A@?0A@EA@bad_alloc@std@@8 ; std::bad_alloc::`RTTI Base Class Array'
	DD	FLAT:??_R1A@?0A@EA@exception@std@@8
rdata$r	ENDS
;	COMDAT ??_R3bad_alloc@std@@8
rdata$r	SEGMENT
??_R3bad_alloc@std@@8 DD 00H				; std::bad_alloc::`RTTI Class Hierarchy Descriptor'
	DD	00H
	DD	02H
	DD	FLAT:??_R2bad_alloc@std@@8
rdata$r	ENDS
;	COMDAT ??_R4bad_alloc@std@@6B@
rdata$r	SEGMENT
??_R4bad_alloc@std@@6B@ DD 00H				; std::bad_alloc::`RTTI Complete Object Locator'
	DD	00H
	DD	00H
	DD	FLAT:??_R0?AVbad_alloc@std@@@8
	DD	FLAT:??_R3bad_alloc@std@@8
rdata$r	ENDS
;	COMDAT ??_R1A@?0A@EA@exception@std@@8
rdata$r	SEGMENT
??_R1A@?0A@EA@exception@std@@8 DD FLAT:??_R0?AVexception@std@@@8 ; std::exception::`RTTI Base Class Descriptor at (0,-1,0,64)'
	DD	00H
	DD	00H
	DD	0ffffffffH
	DD	00H
	DD	040H
	DD	FLAT:??_R3exception@std@@8
rdata$r	ENDS
;	COMDAT ??_R2exception@std@@8
rdata$r	SEGMENT
??_R2exception@std@@8 DD FLAT:??_R1A@?0A@EA@exception@std@@8 ; std::exception::`RTTI Base Class Array'
rdata$r	ENDS
;	COMDAT ??_R3exception@std@@8
rdata$r	SEGMENT
??_R3exception@std@@8 DD 00H				; std::exception::`RTTI Class Hierarchy Descriptor'
	DD	00H
	DD	01H
	DD	FLAT:??_R2exception@std@@8
rdata$r	ENDS
;	COMDAT ??_R4exception@std@@6B@
rdata$r	SEGMENT
??_R4exception@std@@6B@ DD 00H				; std::exception::`RTTI Complete Object Locator'
	DD	00H
	DD	00H
	DD	FLAT:??_R0?AVexception@std@@@8
	DD	FLAT:??_R3exception@std@@8
rdata$r	ENDS
;	COMDAT ??_C@_0BA@JFNIOLAK@string?5too?5long@
CONST	SEGMENT
??_C@_0BA@JFNIOLAK@string?5too?5long@ DB 'string too long', 00H ; `string'
CONST	ENDS
;	COMDAT __CT??_R0?AVexception@std@@@8??0exception@std@@QAE@ABV01@@Z12
xdata$x	SEGMENT
__CT??_R0?AVexception@std@@@8??0exception@std@@QAE@ABV01@@Z12 DD 00H
	DD	FLAT:??_R0?AVexception@std@@@8
	DD	00H
	DD	0ffffffffH
	ORG $+4
	DD	0cH
	DD	FLAT:??0exception@std@@QAE@ABV01@@Z
xdata$x	ENDS
;	COMDAT ??_R0?AVexception@std@@@8
data$r	SEGMENT
??_R0?AVexception@std@@@8 DD FLAT:??_7type_info@@6B@	; std::exception `RTTI Type Descriptor'
	DD	00H
	DB	'.?AVexception@std@@', 00H
data$r	ENDS
;	COMDAT __CT??_R0?AVbad_alloc@std@@@8??0bad_alloc@std@@QAE@ABV01@@Z12
xdata$x	SEGMENT
__CT??_R0?AVbad_alloc@std@@@8??0bad_alloc@std@@QAE@ABV01@@Z12 DD 010H
	DD	FLAT:??_R0?AVbad_alloc@std@@@8
	DD	00H
	DD	0ffffffffH
	ORG $+4
	DD	0cH
	DD	FLAT:??0bad_alloc@std@@QAE@ABV01@@Z
xdata$x	ENDS
;	COMDAT ??_R0?AVbad_alloc@std@@@8
data$r	SEGMENT
??_R0?AVbad_alloc@std@@@8 DD FLAT:??_7type_info@@6B@	; std::bad_alloc `RTTI Type Descriptor'
	DD	00H
	DB	'.?AVbad_alloc@std@@', 00H
data$r	ENDS
;	COMDAT __CT??_R0?AVbad_array_new_length@std@@@8??0bad_array_new_length@std@@QAE@ABV01@@Z12
xdata$x	SEGMENT
__CT??_R0?AVbad_array_new_length@std@@@8??0bad_array_new_length@std@@QAE@ABV01@@Z12 DD 00H
	DD	FLAT:??_R0?AVbad_array_new_length@std@@@8
	DD	00H
	DD	0ffffffffH
	ORG $+4
	DD	0cH
	DD	FLAT:??0bad_array_new_length@std@@QAE@ABV01@@Z
xdata$x	ENDS
;	COMDAT ??_R0?AVbad_array_new_length@std@@@8
data$r	SEGMENT
??_R0?AVbad_array_new_length@std@@@8 DD FLAT:??_7type_info@@6B@ ; std::bad_array_new_length `RTTI Type Descriptor'
	DD	00H
	DB	'.?AVbad_array_new_length@std@@', 00H
data$r	ENDS
;	COMDAT __CTA3?AVbad_array_new_length@std@@
xdata$x	SEGMENT
__CTA3?AVbad_array_new_length@std@@ DD 03H
	DD	FLAT:__CT??_R0?AVbad_array_new_length@std@@@8??0bad_array_new_length@std@@QAE@ABV01@@Z12
	DD	FLAT:__CT??_R0?AVbad_alloc@std@@@8??0bad_alloc@std@@QAE@ABV01@@Z12
	DD	FLAT:__CT??_R0?AVexception@std@@@8??0exception@std@@QAE@ABV01@@Z12
xdata$x	ENDS
;	COMDAT __TI3?AVbad_array_new_length@std@@
xdata$x	SEGMENT
__TI3?AVbad_array_new_length@std@@ DD 00H
	DD	FLAT:??1bad_array_new_length@std@@UAE@XZ
	DD	00H
	DD	FLAT:__CTA3?AVbad_array_new_length@std@@
xdata$x	ENDS
;	COMDAT ??_C@_0BF@KINCDENJ@bad?5array?5new?5length@
CONST	SEGMENT
??_C@_0BF@KINCDENJ@bad?5array?5new?5length@ DB 'bad array new length', 00H ; `string'
CONST	ENDS
;	COMDAT ??_7bad_array_new_length@std@@6B@
CONST	SEGMENT
??_7bad_array_new_length@std@@6B@ DD FLAT:??_R4bad_array_new_length@std@@6B@ ; std::bad_array_new_length::`vftable'
	DD	FLAT:??_Ebad_array_new_length@std@@UAEPAXI@Z
	DD	FLAT:?what@exception@std@@UBEPBDXZ
CONST	ENDS
;	COMDAT ??_7bad_alloc@std@@6B@
CONST	SEGMENT
??_7bad_alloc@std@@6B@ DD FLAT:??_R4bad_alloc@std@@6B@	; std::bad_alloc::`vftable'
	DD	FLAT:??_Ebad_alloc@std@@UAEPAXI@Z
	DD	FLAT:?what@exception@std@@UBEPBDXZ
CONST	ENDS
;	COMDAT ??_C@_0BC@EOODALEL@Unknown?5exception@
CONST	SEGMENT
??_C@_0BC@EOODALEL@Unknown?5exception@ DB 'Unknown exception', 00H ; `string'
CONST	ENDS
;	COMDAT ??_7exception@std@@6B@
CONST	SEGMENT
??_7exception@std@@6B@ DD FLAT:??_R4exception@std@@6B@	; std::exception::`vftable'
	DD	FLAT:??_Eexception@std@@UAEPAXI@Z
	DD	FLAT:?what@exception@std@@UBEPBDXZ
CONST	ENDS
;	COMDAT xdata$x
xdata$x	SEGMENT
__unwindtable$?GetTextTagInternalPosFromRenderPos@@YAHPB_WHH@Z DD 0ffffffffH
	DD	FLAT:__unwindfunclet$?GetTextTagInternalPosFromRenderPos@@YAHPB_WHH@Z$0
	DD	00H
	DD	FLAT:__unwindfunclet$?GetTextTagInternalPosFromRenderPos@@YAHPB_WHH@Z$1
__ehfuncinfo$?GetTextTagInternalPosFromRenderPos@@YAHPB_WHH@Z DD 019930522H
	DD	02H
	DD	FLAT:__unwindtable$?GetTextTagInternalPosFromRenderPos@@YAHPB_WHH@Z
	DD	2 DUP(00H)
	DD	2 DUP(00H)
	DD	00H
	DD	01H
xdata$x	ENDS
;	COMDAT xdata$x
xdata$x	SEGMENT
__unwindtable$?GetTextTagOutputLen@@YAHPB_WH@Z DD 0ffffffffH
	DD	FLAT:__unwindfunclet$?GetTextTagOutputLen@@YAHPB_WH@Z$0
__ehfuncinfo$?GetTextTagOutputLen@@YAHPB_WH@Z DD 019930522H
	DD	01H
	DD	FLAT:__unwindtable$?GetTextTagOutputLen@@YAHPB_WH@Z
	DD	2 DUP(00H)
	DD	2 DUP(00H)
	DD	00H
	DD	01H
xdata$x	ENDS
;	COMDAT xdata$x
xdata$x	SEGMENT
__unwindtable$?GetTextTagOutputString@@YA?AV?$basic_string@_WU?$char_traits@_W@std@@V?$allocator@_W@2@@std@@PB_WH@Z DD 0ffffffffH
	DD	FLAT:__unwindfunclet$?GetTextTagOutputString@@YA?AV?$basic_string@_WU?$char_traits@_W@std@@V?$allocator@_W@2@@std@@PB_WH@Z$0
	DD	00H
	DD	FLAT:__unwindfunclet$?GetTextTagOutputString@@YA?AV?$basic_string@_WU?$char_traits@_W@std@@V?$allocator@_W@2@@std@@PB_WH@Z$1
__ehfuncinfo$?GetTextTagOutputString@@YA?AV?$basic_string@_WU?$char_traits@_W@std@@V?$allocator@_W@2@@std@@PB_WH@Z DD 019930522H
	DD	02H
	DD	FLAT:__unwindtable$?GetTextTagOutputString@@YA?AV?$basic_string@_WU?$char_traits@_W@std@@V?$allocator@_W@2@@std@@PB_WH@Z
	DD	2 DUP(00H)
	DD	2 DUP(00H)
	DD	00H
	DD	01H
xdata$x	ENDS
; Function compile flags: /Ogtp
; File C:\Users\murat\Desktop\Siveps2-1-99-Project\source\client\Client\EterLib\TextTag.cpp
; File C:\Program Files (x86)\Microsoft Visual Studio\2019\Professional\VC\Tools\MSVC\14.29.30133\include\xstring
; File C:\Users\murat\Desktop\Siveps2-1-99-Project\source\client\Client\EterLib\TextTag.cpp
; File C:\Program Files (x86)\Microsoft Visual Studio\2019\Professional\VC\Tools\MSVC\14.29.30133\include\xstring
; File C:\Users\murat\Desktop\Siveps2-1-99-Project\source\client\Client\EterLib\TextTag.cpp
; File C:\Program Files (x86)\Microsoft Visual Studio\2019\Professional\VC\Tools\MSVC\14.29.30133\include\xstring
; File C:\Users\murat\Desktop\Siveps2-1-99-Project\source\client\Client\EterLib\TextTag.cpp
; File C:\Program Files (x86)\Microsoft Visual Studio\2019\Professional\VC\Tools\MSVC\14.29.30133\include\xstring
; File C:\Users\murat\Desktop\Siveps2-1-99-Project\source\client\Client\EterLib\TextTag.cpp
; File C:\Program Files (x86)\Microsoft Visual Studio\2019\Professional\VC\Tools\MSVC\14.29.30133\include\xstring
; File C:\Program Files (x86)\Microsoft Visual Studio\2019\Professional\VC\Tools\MSVC\14.29.30133\include\xmemory
; File C:\Program Files (x86)\Microsoft Visual Studio\2019\Professional\VC\Tools\MSVC\14.29.30133\include\xstring
; File C:\Program Files (x86)\Microsoft Visual Studio\2019\Professional\VC\Tools\MSVC\14.29.30133\include\xmemory
; File C:\Program Files (x86)\Microsoft Visual Studio\2019\Professional\VC\Tools\MSVC\14.29.30133\include\xstring
; File C:\Program Files (x86)\Microsoft Visual Studio\2019\Professional\VC\Tools\MSVC\14.29.30133\include\utility
; File C:\Program Files (x86)\Microsoft Visual Studio\2019\Professional\VC\Tools\MSVC\14.29.30133\include\xstring
; File C:\Program Files (x86)\Microsoft Visual Studio\2019\Professional\VC\Tools\MSVC\14.29.30133\include\xmemory
; File C:\Program Files (x86)\Microsoft Visual Studio\2019\Professional\VC\Tools\MSVC\14.29.30133\include\xstring
; File C:\Program Files (x86)\Microsoft Visual Studio\2019\Professional\VC\Tools\MSVC\14.29.30133\include\xmemory
; File C:\Program Files (x86)\Microsoft Visual Studio\2019\Professional\VC\Tools\MSVC\14.29.30133\include\xstring
; File C:\Users\murat\Desktop\Siveps2-1-99-Project\source\client\Client\EterLib\TextTag.cpp
; File C:\Program Files (x86)\Microsoft Visual Studio\2019\Professional\VC\Tools\MSVC\14.29.30133\include\xstring
; File C:\Program Files (x86)\Microsoft Visual Studio\2019\Professional\VC\Tools\MSVC\14.29.30133\include\xmemory
; File C:\Program Files (x86)\Microsoft Visual Studio\2019\Professional\VC\Tools\MSVC\14.29.30133\include\xstring
; File C:\Program Files (x86)\Microsoft Visual Studio\2019\Professional\VC\Tools\MSVC\14.29.30133\include\xmemory
; File C:\Users\murat\Desktop\Siveps2-1-99-Project\source\client\Client\EterLib\TextTag.cpp
; File C:\Program Files (x86)\Microsoft Visual Studio\2019\Professional\VC\Tools\MSVC\14.29.30133\include\xmemory
; File C:\Program Files (x86)\Microsoft Visual Studio\2019\Professional\VC\Tools\MSVC\14.29.30133\include\xstring
; File C:\Program Files (x86)\Microsoft Visual Studio\2019\Professional\VC\Tools\MSVC\14.29.30133\include\xmemory
; File C:\Users\murat\Desktop\Siveps2-1-99-Project\source\client\Client\EterLib\TextTag.cpp
;	COMDAT ?GetTextTagInternalPosFromRenderPos@@YAHPB_WHH@Z
_TEXT	SEGMENT
_src$GSCopy$1$ = -108					; size = 4
_len$ = -104						; size = 4
$T2 = -100						; size = 4
__Ch$1$ = -96						; size = 4
__Old_capacity$1$ = -92					; size = 4
_output_len$1$ = -88					; size = 4
_i$1$ = -84						; size = 4
__Old_size$1$ = -80					; size = 4
_hyperlinkStep$1$ = -76					; size = 4
tv1060 = -72						; size = 4
tv1054 = -72						; size = 4
_color_tag$1$ = -65					; size = 1
_extraInfo$ = -64					; size = 24
_dst$ = -40						; size = 24
__$ArrayPad$ = -16					; size = 4
__$EHRec$ = -12						; size = 12
_src$ = 8						; size = 4
_src_len$ = 12						; size = 4
_offset$ = 16						; size = 4
?GetTextTagInternalPosFromRenderPos@@YAHPB_WHH@Z PROC	; GetTextTagInternalPosFromRenderPos, COMDAT

; 95   : {

  00000	55		 push	 ebp
  00001	8b ec		 mov	 ebp, esp
  00003	6a ff		 push	 -1
  00005	68 00 00 00 00	 push	 __ehhandler$?GetTextTagInternalPosFromRenderPos@@YAHPB_WHH@Z
  0000a	64 a1 00 00 00
	00		 mov	 eax, DWORD PTR fs:0
  00010	50		 push	 eax
  00011	83 ec 60	 sub	 esp, 96			; 00000060H
  00014	a1 00 00 00 00	 mov	 eax, DWORD PTR ___security_cookie
  00019	33 c5		 xor	 eax, ebp
  0001b	89 45 f0	 mov	 DWORD PTR __$ArrayPad$[ebp], eax
  0001e	53		 push	 ebx
  0001f	56		 push	 esi
  00020	57		 push	 edi
  00021	50		 push	 eax
  00022	8d 45 f4	 lea	 eax, DWORD PTR __$EHRec$[ebp]
  00025	64 a3 00 00 00
	00		 mov	 DWORD PTR fs:0, eax
  0002b	8b 55 08	 mov	 edx, DWORD PTR _src$[ebp]
; File C:\Program Files (x86)\Microsoft Visual Studio\2019\Professional\VC\Tools\MSVC\14.29.30133\include\xstring

; 4596 :         _My_data._Mysize = 0;

  0002e	33 c0		 xor	 eax, eax

; 4597 : 
; 4598 : #ifdef __cpp_lib_constexpr_string
; 4599 :         if (_STD is_constant_evaluated()) {
; 4600 :             _My_data._Myres        = _BUF_SIZE; // SSO disabled in constexpr context
; 4601 :             auto& _Al              = _Getal();
; 4602 :             const pointer _New_ptr = _Al.allocate(_BUF_SIZE + 1); // throws
; 4603 :             _My_data._Bx._Ptr      = _New_ptr;
; 4604 : 
; 4605 :             _Elem* const _Raw_new = _Unfancy(_New_ptr);
; 4606 :             _Traits::assign(_Raw_new, _BUF_SIZE + 1, _Elem());
; 4607 :         } else
; 4608 : #endif // __cpp_lib_constexpr_string
; 4609 :         {
; 4610 :             _My_data._Myres = _BUF_SIZE - 1;

  00030	be 07 00 00 00	 mov	 esi, 7

; 2346 :         _CONSTEXPR20_CONTAINER _Bxty() noexcept : _Ptr() {} // user-provided, for fancy pointers

  00035	c7 45 d8 00 00
	00 00		 mov	 DWORD PTR _dst$[ebp], 0
; File C:\Users\murat\Desktop\Siveps2-1-99-Project\source\client\Client\EterLib\TextTag.cpp

; 95   : {

  0003c	89 55 94	 mov	 DWORD PTR _src$GSCopy$1$[ebp], edx
; File C:\Program Files (x86)\Microsoft Visual Studio\2019\Professional\VC\Tools\MSVC\14.29.30133\include\xstring

; 4596 :         _My_data._Mysize = 0;

  0003f	89 45 b0	 mov	 DWORD PTR __Old_size$1$[ebp], eax
  00042	89 45 e8	 mov	 DWORD PTR _dst$[ebp+16], eax

; 4597 : 
; 4598 : #ifdef __cpp_lib_constexpr_string
; 4599 :         if (_STD is_constant_evaluated()) {
; 4600 :             _My_data._Myres        = _BUF_SIZE; // SSO disabled in constexpr context
; 4601 :             auto& _Al              = _Getal();
; 4602 :             const pointer _New_ptr = _Al.allocate(_BUF_SIZE + 1); // throws
; 4603 :             _My_data._Bx._Ptr      = _New_ptr;
; 4604 : 
; 4605 :             _Elem* const _Raw_new = _Unfancy(_New_ptr);
; 4606 :             _Traits::assign(_Raw_new, _BUF_SIZE + 1, _Elem());
; 4607 :         } else
; 4608 : #endif // __cpp_lib_constexpr_string
; 4609 :         {
; 4610 :             _My_data._Myres = _BUF_SIZE - 1;

  00045	89 75 ec	 mov	 DWORD PTR _dst$[ebp+20], esi

; 4611 :             // the _Traits::assign is last so the codegen doesn't think the char write can alias this
; 4612 :             _Traits::assign(_My_data._Bx._Buf[0], _Elem());

  00048	66 89 45 d8	 mov	 WORD PTR _dst$[ebp], ax

; 2346 :         _CONSTEXPR20_CONTAINER _Bxty() noexcept : _Ptr() {} // user-provided, for fancy pointers

  0004c	89 45 c0	 mov	 DWORD PTR _extraInfo$[ebp], eax

; 4612 :             _Traits::assign(_My_data._Bx._Buf[0], _Elem());

  0004f	33 c9		 xor	 ecx, ecx
; File C:\Users\murat\Desktop\Siveps2-1-99-Project\source\client\Client\EterLib\TextTag.cpp

; 97   : 	std::wstring dst;

  00051	89 45 fc	 mov	 DWORD PTR __$EHRec$[ebp+8], eax
; File C:\Program Files (x86)\Microsoft Visual Studio\2019\Professional\VC\Tools\MSVC\14.29.30133\include\xstring

; 4596 :         _My_data._Mysize = 0;

  00054	89 45 d0	 mov	 DWORD PTR _extraInfo$[ebp+16], eax

; 4597 : 
; 4598 : #ifdef __cpp_lib_constexpr_string
; 4599 :         if (_STD is_constant_evaluated()) {
; 4600 :             _My_data._Myres        = _BUF_SIZE; // SSO disabled in constexpr context
; 4601 :             auto& _Al              = _Getal();
; 4602 :             const pointer _New_ptr = _Al.allocate(_BUF_SIZE + 1); // throws
; 4603 :             _My_data._Bx._Ptr      = _New_ptr;
; 4604 : 
; 4605 :             _Elem* const _Raw_new = _Unfancy(_New_ptr);
; 4606 :             _Traits::assign(_Raw_new, _BUF_SIZE + 1, _Elem());
; 4607 :         } else
; 4608 : #endif // __cpp_lib_constexpr_string
; 4609 :         {
; 4610 :             _My_data._Myres = _BUF_SIZE - 1;

  00057	8b c6		 mov	 eax, esi
  00059	89 45 d4	 mov	 DWORD PTR _extraInfo$[ebp+20], eax

; 4611 :             // the _Traits::assign is last so the codegen doesn't think the char write can alias this
; 4612 :             _Traits::assign(_My_data._Bx._Buf[0], _Elem());

  0005c	66 89 4d c0	 mov	 WORD PTR _extraInfo$[ebp], cx
; File C:\Users\murat\Desktop\Siveps2-1-99-Project\source\client\Client\EterLib\TextTag.cpp

; 104  :     for (int i = 0; i < src_len; )

  00060	8b 5d d8	 mov	 ebx, DWORD PTR _dst$[ebp]
  00063	33 ff		 xor	 edi, edi
  00065	c6 45 fc 01	 mov	 BYTE PTR __$EHRec$[ebp+8], 1
  00069	89 4d a8	 mov	 DWORD PTR _output_len$1$[ebp], ecx
  0006c	89 4d b4	 mov	 DWORD PTR _hyperlinkStep$1$[ebp], ecx
  0006f	88 4d bf	 mov	 BYTE PTR _color_tag$1$[ebp], cl
  00072	89 7d ac	 mov	 DWORD PTR _i$1$[ebp], edi
  00075	39 7d 0c	 cmp	 DWORD PTR _src_len$[ebp], edi
  00078	0f 8e 46 02 00
	00		 jle	 $LN233@GetTextTag
  0007e	8b 45 0c	 mov	 eax, DWORD PTR _src_len$[ebp]
$LL2@GetTextTag:

; 105  :     {
; 106  :         int tag = GetTextTag(&src[i], src_len - i, len, extraInfo);

  00081	8d 14 4a	 lea	 edx, DWORD PTR [edx+ecx*2]
  00084	2b c1		 sub	 eax, ecx
  00086	89 55 b8	 mov	 DWORD PTR tv1054[ebp], edx
  00089	8d 55 c0	 lea	 edx, DWORD PTR _extraInfo$[ebp]
  0008c	52		 push	 edx
  0008d	8d 55 98	 lea	 edx, DWORD PTR _len$[ebp]
  00090	52		 push	 edx
  00091	8b 55 b8	 mov	 edx, DWORD PTR tv1054[ebp]
  00094	50		 push	 eax
  00095	52		 push	 edx
  00096	e8 00 00 00 00	 call	 ?GetTextTag@@YAHPB_WHAAHAAV?$basic_string@_WU?$char_traits@_W@std@@V?$allocator@_W@2@@std@@@Z ; GetTextTag
  0009b	83 c4 10	 add	 esp, 16			; 00000010H

; 107  : 
; 108  :         if (tag == TEXT_TAG_COLOR)

  0009e	83 f8 02	 cmp	 eax, 2
  000a1	75 0c		 jne	 SHORT $LN5@GetTextTag

; 109  : 		{
; 110  : 			color_tag = true;
; 111  : 			internal_offset = i;

  000a3	8b 7d ac	 mov	 edi, DWORD PTR _i$1$[ebp]
  000a6	c6 45 bf 01	 mov	 BYTE PTR _color_tag$1$[ebp], 1

; 112  : 		}

  000aa	e9 fa 01 00 00	 jmp	 $LN120@GetTextTag
$LN5@GetTextTag:

; 113  : 		else if (tag == TEXT_TAG_RESTORE_COLOR)

  000af	83 f8 05	 cmp	 eax, 5
  000b2	75 09		 jne	 SHORT $LN7@GetTextTag

; 114  : 		{
; 115  : 			color_tag = false;

  000b4	c6 45 bf 00	 mov	 BYTE PTR _color_tag$1$[ebp], 0

; 116  : 		}

  000b8	e9 ec 01 00 00	 jmp	 $LN120@GetTextTag
$LN7@GetTextTag:

; 117  :         else if (tag == TEXT_TAG_PLAIN || tag == TEXT_TAG_TAG)

  000bd	85 c0		 test	 eax, eax
  000bf	74 4d		 je	 SHORT $LN11@GetTextTag
  000c1	83 f8 01	 cmp	 eax, 1
  000c4	74 48		 je	 SHORT $LN11@GetTextTag

; 128  : 				dst += src[i];
; 129  : 			}
; 130  :         }
; 131  :         else if (tag == TEXT_TAG_HYPERLINK_START)

  000c6	83 f8 03	 cmp	 eax, 3
  000c9	75 0c		 jne	 SHORT $LN15@GetTextTag

; 132  :             hyperlinkStep = 1;

  000cb	c7 45 b4 01 00
	00 00		 mov	 DWORD PTR _hyperlinkStep$1$[ebp], 1
  000d2	e9 d2 01 00 00	 jmp	 $LN120@GetTextTag
$LN15@GetTextTag:

; 133  :         else if (tag == TEXT_TAG_HYPERLINK_END)

  000d7	83 f8 04	 cmp	 eax, 4
  000da	75 0c		 jne	 SHORT $LN17@GetTextTag

; 134  :             hyperlinkStep = 0;

  000dc	c7 45 b4 00 00
	00 00		 mov	 DWORD PTR _hyperlinkStep$1$[ebp], 0
  000e3	e9 c1 01 00 00	 jmp	 $LN120@GetTextTag
$LN17@GetTextTag:

; 135  : #ifdef ENABLE_EMOJI_IN_TEXT
; 136  :         else if (tag == TEXT_TAG_EMOJI_START)

  000e8	83 f8 06	 cmp	 eax, 6
  000eb	75 0c		 jne	 SHORT $LN19@GetTextTag

; 137  :             hyperlinkStep = 1;

  000ed	c7 45 b4 01 00
	00 00		 mov	 DWORD PTR _hyperlinkStep$1$[ebp], 1
  000f4	e9 b0 01 00 00	 jmp	 $LN120@GetTextTag
$LN19@GetTextTag:

; 138  :         else if (tag == TEXT_TAG_EMOJI_END)

  000f9	83 f8 07	 cmp	 eax, 7
  000fc	0f 85 a7 01 00
	00		 jne	 $LN120@GetTextTag

; 139  :             hyperlinkStep = 0;

  00102	c7 45 b4 00 00
	00 00		 mov	 DWORD PTR _hyperlinkStep$1$[ebp], 0
  00109	e9 9b 01 00 00	 jmp	 $LN120@GetTextTag
$LN11@GetTextTag:

; 118  :         {
; 119  :             if (hyperlinkStep == 0)

  0010e	83 7d b4 00	 cmp	 DWORD PTR _hyperlinkStep$1$[ebp], 0
  00112	0f 85 91 01 00
	00		 jne	 $LN120@GetTextTag

; 120  : 			{
; 121  : 				if (!color_tag)
; 122  : 					internal_offset = i;
; 123  : 
; 124  : 				if (offset <= output_len)

  00118	80 7d bf 00	 cmp	 BYTE PTR _color_tag$1$[ebp], 0
  0011c	8b 45 ac	 mov	 eax, DWORD PTR _i$1$[ebp]
  0011f	0f 45 c7	 cmovne	 eax, edi
  00122	8b f8		 mov	 edi, eax
  00124	8b 45 a8	 mov	 eax, DWORD PTR _output_len$1$[ebp]
  00127	89 7d 9c	 mov	 DWORD PTR $T2[ebp], edi
  0012a	39 45 10	 cmp	 DWORD PTR _offset$[ebp], eax
  0012d	0f 8e 8e 01 00
	00		 jle	 $LN234@GetTextTag
; File C:\Program Files (x86)\Microsoft Visual Studio\2019\Professional\VC\Tools\MSVC\14.29.30133\include\xstring

; 3862 :         const size_type _Old_size = _Mypair._Myval2._Mysize;

  00133	8b 4d b0	 mov	 ecx, DWORD PTR __Old_size$1$[ebp]
; File C:\Users\murat\Desktop\Siveps2-1-99-Project\source\client\Client\EterLib\TextTag.cpp

; 127  :                 ++output_len;

  00136	40		 inc	 eax
  00137	89 45 a8	 mov	 DWORD PTR _output_len$1$[ebp], eax
; File C:\Program Files (x86)\Microsoft Visual Studio\2019\Professional\VC\Tools\MSVC\14.29.30133\include\xstring

; 3119 :         push_back(_Ch);

  0013a	8b 45 b8	 mov	 eax, DWORD PTR tv1054[ebp]
  0013d	0f b7 10	 movzx	 edx, WORD PTR [eax]
  00140	89 55 a0	 mov	 DWORD PTR __Ch$1$[ebp], edx

; 3862 :         const size_type _Old_size = _Mypair._Myval2._Mysize;

  00143	3b ce		 cmp	 ecx, esi

; 3863 :         if (_Old_size < _Mypair._Myval2._Myres) {

  00145	73 2b		 jae	 SHORT $LN110@GetTextTag

; 3864 :             _Mypair._Myval2._Mysize = _Old_size + 1;

  00147	8d 41 01	 lea	 eax, DWORD PTR [ecx+1]

; 2319 :         return _BUF_SIZE <= _Myres;

  0014a	83 fe 08	 cmp	 esi, 8

; 3864 :             _Mypair._Myval2._Mysize = _Old_size + 1;

  0014d	89 45 e8	 mov	 DWORD PTR _dst$[ebp+16], eax

; 2296 :         value_type* _Result = _Bx._Buf;

  00150	8d 45 d8	 lea	 eax, DWORD PTR _dst$[ebp]

; 2297 :         if (_Large_string_engaged()) {

  00153	0f 43 c3	 cmovae	 eax, ebx

; 3866 :             _Traits::assign(_Ptr[_Old_size], _Ch);

  00156	66 89 14 48	 mov	 WORD PTR [eax+ecx*2], dx

; 3867 :             _Traits::assign(_Ptr[_Old_size + 1], _Elem());

  0015a	33 d2		 xor	 edx, edx
  0015c	66 89 54 48 02	 mov	 WORD PTR [eax+ecx*2+2], dx

; 3868 :             return;

  00161	8b 45 e8	 mov	 eax, DWORD PTR _dst$[ebp+16]
  00164	8b 75 ec	 mov	 esi, DWORD PTR _dst$[ebp+20]
  00167	8b 5d d8	 mov	 ebx, DWORD PTR _dst$[ebp]
  0016a	89 45 b0	 mov	 DWORD PTR __Old_size$1$[ebp], eax
  0016d	e9 37 01 00 00	 jmp	 $LN120@GetTextTag
$LN110@GetTextTag:

; 4542 :         const size_type _Old_size = _My_data._Mysize;

  00172	b8 fe ff ff 7f	 mov	 eax, 2147483646		; 7ffffffeH
  00177	89 4d b8	 mov	 DWORD PTR tv1060[ebp], ecx
  0017a	2b c1		 sub	 eax, ecx

; 4543 :         if (max_size() - _Old_size < _Size_increase) {

  0017c	83 f8 01	 cmp	 eax, 1
  0017f	0f 82 c5 01 00
	00		 jb	 $LN226@GetTextTag

; 4545 :         }
; 4546 : 
; 4547 :         const size_type _New_size     = _Old_size + _Size_increase;

  00185	8d 41 01	 lea	 eax, DWORD PTR [ecx+1]

; 4548 :         const size_type _Old_capacity = _My_data._Myres;

  00188	8b fe		 mov	 edi, esi

; 4488 :         const size_type _Masked = _Requested | _ALLOC_MASK;

  0018a	8b f0		 mov	 esi, eax

; 4547 :         const size_type _New_size     = _Old_size + _Size_increase;

  0018c	89 45 b0	 mov	 DWORD PTR __Old_size$1$[ebp], eax

; 4488 :         const size_type _Masked = _Requested | _ALLOC_MASK;

  0018f	83 ce 07	 or	 esi, 7

; 4548 :         const size_type _Old_capacity = _My_data._Myres;

  00192	89 7d a4	 mov	 DWORD PTR __Old_capacity$1$[ebp], edi

; 4488 :         const size_type _Masked = _Requested | _ALLOC_MASK;

  00195	81 fe fe ff ff
	7f		 cmp	 esi, 2147483646		; 7ffffffeH

; 4489 :         if (_Masked > _Max) { // the mask overflows, settle for max_size()

  0019b	76 17		 jbe	 SHORT $LN125@GetTextTag

; 4490 :             return _Max;

  0019d	b8 fe ff ff ff	 mov	 eax, -2			; fffffffeH
  001a2	be fe ff ff 7f	 mov	 esi, 2147483646		; 7ffffffeH
; File C:\Program Files (x86)\Microsoft Visual Studio\2019\Professional\VC\Tools\MSVC\14.29.30133\include\xmemory

; 238  :             return _Allocate_manually_vector_aligned<_Traits>(_Bytes);

  001a7	50		 push	 eax
  001a8	e8 00 00 00 00	 call	 ??$_Allocate_manually_vector_aligned@U_Default_allocate_traits@std@@@std@@YAPAXI@Z ; std::_Allocate_manually_vector_aligned<std::_Default_allocate_traits>
  001ad	83 c4 04	 add	 esp, 4
  001b0	8b f8		 mov	 edi, eax
  001b2	eb 65		 jmp	 SHORT $LN136@GetTextTag
$LN125@GetTextTag:
; File C:\Program Files (x86)\Microsoft Visual Studio\2019\Professional\VC\Tools\MSVC\14.29.30133\include\xstring

; 4493 :         if (_Old > _Max - _Old / 2) { // similarly, geometric overflows

  001b4	8b cf		 mov	 ecx, edi
  001b6	b8 fe ff ff 7f	 mov	 eax, 2147483646		; 7ffffffeH
  001bb	d1 e9		 shr	 ecx, 1
  001bd	2b c1		 sub	 eax, ecx
  001bf	3b f8		 cmp	 edi, eax
  001c1	76 17		 jbe	 SHORT $LN126@GetTextTag

; 4494 :             return _Max;

  001c3	b8 fe ff ff ff	 mov	 eax, -2			; fffffffeH
  001c8	be fe ff ff 7f	 mov	 esi, 2147483646		; 7ffffffeH
; File C:\Program Files (x86)\Microsoft Visual Studio\2019\Professional\VC\Tools\MSVC\14.29.30133\include\xmemory

; 238  :             return _Allocate_manually_vector_aligned<_Traits>(_Bytes);

  001cd	50		 push	 eax
  001ce	e8 00 00 00 00	 call	 ??$_Allocate_manually_vector_aligned@U_Default_allocate_traits@std@@@std@@YAPAXI@Z ; std::_Allocate_manually_vector_aligned<std::_Default_allocate_traits>
  001d3	83 c4 04	 add	 esp, 4
  001d6	8b f8		 mov	 edi, eax
  001d8	eb 3f		 jmp	 SHORT $LN136@GetTextTag
$LN126@GetTextTag:
; File C:\Program Files (x86)\Microsoft Visual Studio\2019\Professional\VC\Tools\MSVC\14.29.30133\include\xstring

; 4497 :         return (_STD max)(_Masked, _Old + _Old / 2);

  001da	8d 04 39	 lea	 eax, DWORD PTR [ecx+edi]
; File C:\Program Files (x86)\Microsoft Visual Studio\2019\Professional\VC\Tools\MSVC\14.29.30133\include\utility

; 44   :     return _Left < _Right ? _Right : _Left;

  001dd	3b f0		 cmp	 esi, eax
  001df	0f 42 f0	 cmovb	 esi, eax
; File C:\Program Files (x86)\Microsoft Visual Studio\2019\Professional\VC\Tools\MSVC\14.29.30133\include\xstring

; 4551 :         const pointer _New_ptr        = _Al.allocate(_New_capacity + 1); // throws

  001e2	8d 46 01	 lea	 eax, DWORD PTR [esi+1]
; File C:\Program Files (x86)\Microsoft Visual Studio\2019\Professional\VC\Tools\MSVC\14.29.30133\include\xmemory

; 64   :         if (_Count > _Max_possible) {

  001e5	3d ff ff ff 7f	 cmp	 eax, 2147483647		; 7fffffffH
  001ea	0f 87 55 01 00
	00		 ja	 $LN227@GetTextTag

; 66   :         }
; 67   :     }
; 68   : 
; 69   :     return _Count * _Ty_size;

  001f0	03 c0		 add	 eax, eax

; 237  :         if (_Bytes >= _Big_allocation_threshold) { // boost the alignment of big allocations to help autovectorization

  001f2	3d 00 10 00 00	 cmp	 eax, 4096		; 00001000H
  001f7	72 0d		 jb	 SHORT $LN137@GetTextTag

; 238  :             return _Allocate_manually_vector_aligned<_Traits>(_Bytes);

  001f9	50		 push	 eax
  001fa	e8 00 00 00 00	 call	 ??$_Allocate_manually_vector_aligned@U_Default_allocate_traits@std@@@std@@YAPAXI@Z ; std::_Allocate_manually_vector_aligned<std::_Default_allocate_traits>
  001ff	83 c4 04	 add	 esp, 4
  00202	8b f8		 mov	 edi, eax
  00204	eb 13		 jmp	 SHORT $LN136@GetTextTag
$LN137@GetTextTag:

; 239  :         }
; 240  :     }
; 241  : #endif // defined(_M_IX86) || defined(_M_X64)
; 242  : 
; 243  :     if (_Bytes != 0) {

  00206	85 c0		 test	 eax, eax
  00208	74 0d		 je	 SHORT $LN138@GetTextTag

; 85   :         return ::operator new(_Bytes);

  0020a	50		 push	 eax
  0020b	e8 00 00 00 00	 call	 ??2@YAPAXI@Z		; operator new
  00210	83 c4 04	 add	 esp, 4

; 244  :         return _Traits::_Allocate(_Bytes);

  00213	8b f8		 mov	 edi, eax
  00215	eb 02		 jmp	 SHORT $LN136@GetTextTag
$LN138@GetTextTag:

; 245  :     }
; 246  : 
; 247  :     return nullptr;

  00217	33 ff		 xor	 edi, edi
$LN136@GetTextTag:
; File C:\Program Files (x86)\Microsoft Visual Studio\2019\Professional\VC\Tools\MSVC\14.29.30133\include\xstring

; 4559 :         _My_data._Mysize      = _New_size;

  00219	8b 45 b0	 mov	 eax, DWORD PTR __Old_size$1$[ebp]
  0021c	89 45 e8	 mov	 DWORD PTR _dst$[ebp+16], eax

; 4560 :         _My_data._Myres       = _New_capacity;
; 4561 :         _Elem* const _Raw_new = _Unfancy(_New_ptr);

  0021f	8b 45 b8	 mov	 eax, DWORD PTR tv1060[ebp]
  00222	03 c0		 add	 eax, eax
  00224	89 75 ec	 mov	 DWORD PTR _dst$[ebp+20], esi

; 4562 :         if (_BUF_SIZE <= _Old_capacity) {

  00227	83 7d a4 08	 cmp	 DWORD PTR __Old_capacity$1$[ebp], 8
  0022b	50		 push	 eax
  0022c	72 52		 jb	 SHORT $LN119@GetTextTag

; 65   :         _CSTD memcpy(_First1, _First2, _Count * sizeof(_Elem));

  0022e	53		 push	 ebx
  0022f	57		 push	 edi
  00230	e8 00 00 00 00	 call	 _memcpy

; 3875 :                 _Traits::assign(_New_ptr[_Old_size], _Ch);

  00235	8b 4d b8	 mov	 ecx, DWORD PTR tv1060[ebp]

; 65   :         _CSTD memcpy(_First1, _First2, _Count * sizeof(_Elem));

  00238	83 c4 0c	 add	 esp, 12			; 0000000cH

; 3875 :                 _Traits::assign(_New_ptr[_Old_size], _Ch);

  0023b	8b 55 a0	 mov	 edx, DWORD PTR __Ch$1$[ebp]
  0023e	8d 04 09	 lea	 eax, DWORD PTR [ecx+ecx]

; 3876 :                 _Traits::assign(_New_ptr[_Old_size + 1], _Elem());

  00241	33 c9		 xor	 ecx, ecx
  00243	66 89 4c 38 02	 mov	 WORD PTR [eax+edi+2], cx
  00248	66 89 14 38	 mov	 WORD PTR [eax+edi], dx
; File C:\Program Files (x86)\Microsoft Visual Studio\2019\Professional\VC\Tools\MSVC\14.29.30133\include\xmemory

; 835  :         _Deallocate<_New_alignof<_Ty>>(_Ptr, sizeof(_Ty) * _Count);

  0024c	8b 45 a4	 mov	 eax, DWORD PTR __Old_capacity$1$[ebp]
  0024f	8d 0c 45 02 00
	00 00		 lea	 ecx, DWORD PTR [eax*2+2]
  00256	8b c3		 mov	 eax, ebx

; 260  :         if (_Bytes >= _Big_allocation_threshold) { // boost the alignment of big allocations to help autovectorization

  00258	81 f9 00 10 00
	00		 cmp	 ecx, 4096		; 00001000H
  0025e	72 14		 jb	 SHORT $LN161@GetTextTag

; 158  :     const uintptr_t _Ptr_container   = _Ptr_user[-1];

  00260	8b 5b fc	 mov	 ebx, DWORD PTR [ebx-4]
  00263	83 c1 23	 add	 ecx, 35			; 00000023H
  00266	2b c3		 sub	 eax, ebx

; 172  :     _STL_VERIFY(_Back_shift >= _Min_back_shift && _Back_shift <= _Non_user_size, "invalid argument");

  00268	83 c0 fc	 add	 eax, -4			; fffffffcH
  0026b	83 f8 1f	 cmp	 eax, 31			; 0000001fH
  0026e	0f 87 db 00 00
	00		 ja	 $LN216@GetTextTag
$LN161@GetTextTag:

; 264  :         ::operator delete(_Ptr, _Bytes);

  00274	51		 push	 ecx
  00275	53		 push	 ebx
  00276	e8 00 00 00 00	 call	 ??3@YAXPAXI@Z		; operator delete
  0027b	83 c4 08	 add	 esp, 8
; File C:\Program Files (x86)\Microsoft Visual Studio\2019\Professional\VC\Tools\MSVC\14.29.30133\include\xstring

; 4567 :         } else {

  0027e	eb 21		 jmp	 SHORT $LN238@GetTextTag
$LN119@GetTextTag:

; 65   :         _CSTD memcpy(_First1, _First2, _Count * sizeof(_Elem));

  00280	8d 45 d8	 lea	 eax, DWORD PTR _dst$[ebp]
  00283	50		 push	 eax
  00284	57		 push	 edi
  00285	e8 00 00 00 00	 call	 _memcpy

; 3875 :                 _Traits::assign(_New_ptr[_Old_size], _Ch);

  0028a	8b 4d b8	 mov	 ecx, DWORD PTR tv1060[ebp]

; 65   :         _CSTD memcpy(_First1, _First2, _Count * sizeof(_Elem));

  0028d	83 c4 0c	 add	 esp, 12			; 0000000cH

; 3875 :                 _Traits::assign(_New_ptr[_Old_size], _Ch);

  00290	8b 55 a0	 mov	 edx, DWORD PTR __Ch$1$[ebp]
  00293	8d 04 09	 lea	 eax, DWORD PTR [ecx+ecx]

; 3876 :                 _Traits::assign(_New_ptr[_Old_size + 1], _Elem());

  00296	33 c9		 xor	 ecx, ecx
  00298	66 89 14 38	 mov	 WORD PTR [eax+edi], dx
  0029c	66 89 4c 38 02	 mov	 WORD PTR [eax+edi+2], cx
$LN238@GetTextTag:
; File C:\Users\murat\Desktop\Siveps2-1-99-Project\source\client\Client\EterLib\TextTag.cpp

; 141  :         i += len;

  002a1	8b df		 mov	 ebx, edi
  002a3	8b 7d 9c	 mov	 edi, DWORD PTR $T2[ebp]
  002a6	89 5d d8	 mov	 DWORD PTR _dst$[ebp], ebx
$LN120@GetTextTag:
  002a9	8b 4d ac	 mov	 ecx, DWORD PTR _i$1$[ebp]
  002ac	03 4d 98	 add	 ecx, DWORD PTR _len$[ebp]
  002af	8b 45 0c	 mov	 eax, DWORD PTR _src_len$[ebp]
  002b2	89 4d ac	 mov	 DWORD PTR _i$1$[ebp], ecx
  002b5	3b c8		 cmp	 ecx, eax
  002b7	7d 08		 jge	 SHORT $LN234@GetTextTag

; 104  :     for (int i = 0; i < src_len; )

  002b9	8b 55 94	 mov	 edx, DWORD PTR _src$GSCopy$1$[ebp]
  002bc	e9 c0 fd ff ff	 jmp	 $LL2@GetTextTag
$LN234@GetTextTag:
; File C:\Program Files (x86)\Microsoft Visual Studio\2019\Professional\VC\Tools\MSVC\14.29.30133\include\xstring

; 2319 :         return _BUF_SIZE <= _Myres;

  002c1	8b 45 d4	 mov	 eax, DWORD PTR _extraInfo$[ebp+20]
$LN233@GetTextTag:
  002c4	83 f8 08	 cmp	 eax, 8

; 4618 :         if (_Mypair._Myval2._Large_string_engaged()) {

  002c7	72 2e		 jb	 SHORT $LN182@GetTextTag
; File C:\Program Files (x86)\Microsoft Visual Studio\2019\Professional\VC\Tools\MSVC\14.29.30133\include\xmemory

; 835  :         _Deallocate<_New_alignof<_Ty>>(_Ptr, sizeof(_Ty) * _Count);

  002c9	8b 4d c0	 mov	 ecx, DWORD PTR _extraInfo$[ebp]
  002cc	8d 14 45 02 00
	00 00		 lea	 edx, DWORD PTR [eax*2+2]
  002d3	8b c1		 mov	 eax, ecx

; 260  :         if (_Bytes >= _Big_allocation_threshold) { // boost the alignment of big allocations to help autovectorization

  002d5	81 fa 00 10 00
	00		 cmp	 edx, 4096		; 00001000H
  002db	72 10		 jb	 SHORT $LN192@GetTextTag

; 158  :     const uintptr_t _Ptr_container   = _Ptr_user[-1];

  002dd	8b 49 fc	 mov	 ecx, DWORD PTR [ecx-4]
  002e0	83 c2 23	 add	 edx, 35			; 00000023H
  002e3	2b c1		 sub	 eax, ecx

; 172  :     _STL_VERIFY(_Back_shift >= _Min_back_shift && _Back_shift <= _Non_user_size, "invalid argument");

  002e5	83 c0 fc	 add	 eax, -4			; fffffffcH
  002e8	83 f8 1f	 cmp	 eax, 31			; 0000001fH
  002eb	77 62		 ja	 SHORT $LN216@GetTextTag
$LN192@GetTextTag:

; 264  :         ::operator delete(_Ptr, _Bytes);

  002ed	52		 push	 edx
  002ee	51		 push	 ecx
  002ef	e8 00 00 00 00	 call	 ??3@YAXPAXI@Z		; operator delete
  002f4	83 c4 08	 add	 esp, 8
$LN182@GetTextTag:
; File C:\Program Files (x86)\Microsoft Visual Studio\2019\Professional\VC\Tools\MSVC\14.29.30133\include\xstring

; 2319 :         return _BUF_SIZE <= _Myres;

  002f7	83 fe 08	 cmp	 esi, 8

; 4618 :         if (_Mypair._Myval2._Large_string_engaged()) {

  002fa	72 2b		 jb	 SHORT $LN209@GetTextTag
; File C:\Program Files (x86)\Microsoft Visual Studio\2019\Professional\VC\Tools\MSVC\14.29.30133\include\xmemory

; 835  :         _Deallocate<_New_alignof<_Ty>>(_Ptr, sizeof(_Ty) * _Count);

  002fc	8d 34 75 02 00
	00 00		 lea	 esi, DWORD PTR [esi*2+2]
  00303	8b c3		 mov	 eax, ebx

; 260  :         if (_Bytes >= _Big_allocation_threshold) { // boost the alignment of big allocations to help autovectorization

  00305	81 fe 00 10 00
	00		 cmp	 esi, 4096		; 00001000H
  0030b	72 10		 jb	 SHORT $LN219@GetTextTag

; 158  :     const uintptr_t _Ptr_container   = _Ptr_user[-1];

  0030d	8b 5b fc	 mov	 ebx, DWORD PTR [ebx-4]
  00310	83 c6 23	 add	 esi, 35			; 00000023H
  00313	2b c3		 sub	 eax, ebx

; 172  :     _STL_VERIFY(_Back_shift >= _Min_back_shift && _Back_shift <= _Non_user_size, "invalid argument");

  00315	83 c0 fc	 add	 eax, -4			; fffffffcH
  00318	83 f8 1f	 cmp	 eax, 31			; 0000001fH
  0031b	77 32		 ja	 SHORT $LN216@GetTextTag
$LN219@GetTextTag:

; 264  :         ::operator delete(_Ptr, _Bytes);

  0031d	56		 push	 esi
  0031e	53		 push	 ebx
  0031f	e8 00 00 00 00	 call	 ??3@YAXPAXI@Z		; operator delete
  00324	83 c4 08	 add	 esp, 8
$LN209@GetTextTag:
; File C:\Users\murat\Desktop\Siveps2-1-99-Project\source\client\Client\EterLib\TextTag.cpp

; 144  : 	return internal_offset;

  00327	8b c7		 mov	 eax, edi

; 145  : }

  00329	8b 4d f4	 mov	 ecx, DWORD PTR __$EHRec$[ebp]
  0032c	64 89 0d 00 00
	00 00		 mov	 DWORD PTR fs:0, ecx
  00333	59		 pop	 ecx
  00334	5f		 pop	 edi
  00335	5e		 pop	 esi
  00336	5b		 pop	 ebx
  00337	8b 4d f0	 mov	 ecx, DWORD PTR __$ArrayPad$[ebp]
  0033a	33 cd		 xor	 ecx, ebp
  0033c	e8 00 00 00 00	 call	 @__security_check_cookie@4
  00341	8b e5		 mov	 esp, ebp
  00343	5d		 pop	 ebp
  00344	c3		 ret	 0
$LN227@GetTextTag:
; File C:\Program Files (x86)\Microsoft Visual Studio\2019\Professional\VC\Tools\MSVC\14.29.30133\include\xmemory

; 65   :             _Throw_bad_array_new_length(); // multiply overflow

  00345	e8 00 00 00 00	 call	 ?_Throw_bad_array_new_length@std@@YAXXZ ; std::_Throw_bad_array_new_length
$LN226@GetTextTag:
; File C:\Program Files (x86)\Microsoft Visual Studio\2019\Professional\VC\Tools\MSVC\14.29.30133\include\xstring

; 4544 :             _Xlen_string(); // result too long

  0034a	e8 00 00 00 00	 call	 ?_Xlen_string@std@@YAXXZ ; std::_Xlen_string
$LN216@GetTextTag:
; File C:\Program Files (x86)\Microsoft Visual Studio\2019\Professional\VC\Tools\MSVC\14.29.30133\include\xmemory

; 172  :     _STL_VERIFY(_Back_shift >= _Min_back_shift && _Back_shift <= _Non_user_size, "invalid argument");

  0034f	e8 00 00 00 00	 call	 __invalid_parameter_noinfo_noreturn
$LN237@GetTextTag:
  00354	cc		 int	 3
_TEXT	ENDS
;	COMDAT text$x
text$x	SEGMENT
__unwindfunclet$?GetTextTagInternalPosFromRenderPos@@YAHPB_WHH@Z$0:
  00000	8d 4d d8	 lea	 ecx, DWORD PTR _dst$[ebp]
  00003	e9 00 00 00 00	 jmp	 ??1?$basic_string@_WU?$char_traits@_W@std@@V?$allocator@_W@2@@std@@QAE@XZ ; std::basic_string<wchar_t,std::char_traits<wchar_t>,std::allocator<wchar_t> >::~basic_string<wchar_t,std::char_traits<wchar_t>,std::allocator<wchar_t> >
__unwindfunclet$?GetTextTagInternalPosFromRenderPos@@YAHPB_WHH@Z$1:
  00008	8d 4d c0	 lea	 ecx, DWORD PTR _extraInfo$[ebp]
  0000b	e9 00 00 00 00	 jmp	 ??1?$basic_string@_WU?$char_traits@_W@std@@V?$allocator@_W@2@@std@@QAE@XZ ; std::basic_string<wchar_t,std::char_traits<wchar_t>,std::allocator<wchar_t> >::~basic_string<wchar_t,std::char_traits<wchar_t>,std::allocator<wchar_t> >
  00010	cc		 int	 3
  00011	cc		 int	 3
  00012	cc		 int	 3
  00013	cc		 int	 3
  00014	cc		 int	 3
__ehhandler$?GetTextTagInternalPosFromRenderPos@@YAHPB_WHH@Z:
  00015	90		 npad	 1
  00016	90		 npad	 1
  00017	8b 54 24 08	 mov	 edx, DWORD PTR [esp+8]
  0001b	8d 42 0c	 lea	 eax, DWORD PTR [edx+12]
  0001e	8b 4a 90	 mov	 ecx, DWORD PTR [edx-112]
  00021	33 c8		 xor	 ecx, eax
  00023	e8 00 00 00 00	 call	 @__security_check_cookie@4
  00028	8b 4a fc	 mov	 ecx, DWORD PTR [edx-4]
  0002b	33 c8		 xor	 ecx, eax
  0002d	e8 00 00 00 00	 call	 @__security_check_cookie@4
  00032	b8 00 00 00 00	 mov	 eax, OFFSET __ehfuncinfo$?GetTextTagInternalPosFromRenderPos@@YAHPB_WHH@Z
  00037	e9 00 00 00 00	 jmp	 ___CxxFrameHandler3
text$x	ENDS
?GetTextTagInternalPosFromRenderPos@@YAHPB_WHH@Z ENDP	; GetTextTagInternalPosFromRenderPos
; Function compile flags: /Ogtp
; File C:\Users\murat\Desktop\Siveps2-1-99-Project\source\client\Client\EterLib\TextTag.cpp
;	COMDAT ?FindColorTagStartPosition@@YAHPB_WH@Z
_TEXT	SEGMENT
_src$ = 8						; size = 4
_src_len$ = 12						; size = 4
?FindColorTagStartPosition@@YAHPB_WH@Z PROC		; FindColorTagStartPosition, COMDAT

; 179  : {

  00000	55		 push	 ebp
  00001	8b ec		 mov	 ebp, esp
  00003	53		 push	 ebx

; 180  :     if (src_len < 2)

  00004	8b 5d 0c	 mov	 ebx, DWORD PTR _src_len$[ebp]
  00007	56		 push	 esi
  00008	83 fb 02	 cmp	 ebx, 2
  0000b	7c 7d		 jl	 SHORT $LN10@FindColorT

; 181  :         return 0;
; 182  : 
; 183  :     const wchar_t * cur = src;
; 184  : 
; 185  : 	// @fixme012
; 186  : 	wchar_t wcStarts = L'c';

  0000d	be 63 00 00 00	 mov	 esi, 99			; 00000063H
  00012	57		 push	 edi

; 187  : 	wchar_t wcEnds = L'r';

  00013	8d 7e 0f	 lea	 edi, DWORD PTR [esi+15]

; 188  : 	if (GetDefaultCodePage() == CP_ARABIC)

  00016	e8 00 00 00 00	 call	 ?GetDefaultCodePage@@YAKXZ ; GetDefaultCodePage
  0001b	3d e8 04 00 00	 cmp	 eax, 1256		; 000004e8H
  00020	75 07		 jne	 SHORT $LN5@FindColorT

; 189  : 	{
; 190  : 		wcStarts = L'h';

  00022	be 68 00 00 00	 mov	 esi, 104		; 00000068H

; 191  : 		wcEnds = L'h';

  00027	8b fe		 mov	 edi, esi
$LN5@FindColorT:

; 192  : 	}
; 193  : 
; 194  :     // |r의 경우
; 195  :     if (*cur == wcEnds && *(cur - 1) == L'|')

  00029	8b 4d 08	 mov	 ecx, DWORD PTR _src$[ebp]
  0002c	0f b7 01	 movzx	 eax, WORD PTR [ecx]
  0002f	66 3b c7	 cmp	 ax, di
  00032	5f		 pop	 edi
  00033	75 41		 jne	 SHORT $LN19@FindColorT
  00035	66 83 79 fe 7c	 cmp	 WORD PTR [ecx-2], 124	; 0000007cH
  0003a	75 3a		 jne	 SHORT $LN19@FindColorT

; 196  :     {
; 197  : 	    int len = src_len;
; 198  : 
; 199  :         // ||r은 무시
; 200  :         if (len >= 2 && *(cur - 2) == L'|')

  0003c	66 83 79 fc 7c	 cmp	 WORD PTR [ecx-4], 124	; 0000007cH
  00041	8d 41 fc	 lea	 eax, DWORD PTR [ecx-4]
  00044	74 3b		 je	 SHORT $LN20@FindColorT

; 201  :             return 1;
; 202  : 
; 203  :         cur -= 2;
; 204  :         len -= 2;

  00046	8d 53 fe	 lea	 edx, DWORD PTR [ebx-2]

; 205  : 
; 206  :         // |c까지 찾아서 |위치까지 리턴한다.
; 207  :         while (len > 1) // 최소 2자를 검사해야 된다.

  00049	83 fa 01	 cmp	 edx, 1
  0004c	7e 17		 jle	 SHORT $LN21@FindColorT
  0004e	66 90		 npad	 2
$LL2@FindColorT:

; 208  :         {
; 209  :             if (*cur == wcStarts && *(cur - 1) == L'|')

  00050	66 39 30	 cmp	 WORD PTR [eax], si
  00053	75 07		 jne	 SHORT $LN9@FindColorT
  00055	66 83 78 fe 7c	 cmp	 WORD PTR [eax-2], 124	; 0000007cH
  0005a	74 0f		 je	 SHORT $LN13@FindColorT
$LN9@FindColorT:

; 211  : 
; 212  :             --cur;
; 213  :             --len;

  0005c	4a		 dec	 edx
  0005d	83 e8 02	 sub	 eax, 2
  00060	83 fa 01	 cmp	 edx, 1
  00063	7f eb		 jg	 SHORT $LL2@FindColorT
$LN21@FindColorT:
  00065	5e		 pop	 esi

; 214  :         }
; 215  :         return (src_len); // 못찾으면 전부;;

  00066	8b c3		 mov	 eax, ebx

; 222  : }

  00068	5b		 pop	 ebx
  00069	5d		 pop	 ebp
  0006a	c3		 ret	 0
$LN13@FindColorT:

; 210  :                 return (src - cur) + 1;

  0006b	2b c8		 sub	 ecx, eax
  0006d	d1 f9		 sar	 ecx, 1
  0006f	5e		 pop	 esi

; 222  : }

  00070	5b		 pop	 ebx
  00071	8d 41 01	 lea	 eax, DWORD PTR [ecx+1]
  00074	5d		 pop	 ebp
  00075	c3		 ret	 0
$LN19@FindColorT:

; 216  :     }
; 217  : 	// ||의 경우
; 218  : 	else if (*cur == L'|' && *(cur - 1) == L'|')

  00076	83 f8 7c	 cmp	 eax, 124		; 0000007cH
  00079	75 0f		 jne	 SHORT $LN10@FindColorT
  0007b	66 39 41 fe	 cmp	 WORD PTR [ecx-2], ax
  0007f	75 09		 jne	 SHORT $LN10@FindColorT
$LN20@FindColorT:
  00081	5e		 pop	 esi

; 219  : 		return 1;

  00082	b8 01 00 00 00	 mov	 eax, 1

; 222  : }

  00087	5b		 pop	 ebx
  00088	5d		 pop	 ebp
  00089	c3		 ret	 0
$LN10@FindColorT:
  0008a	5e		 pop	 esi

; 220  : 
; 221  :     return 0;

  0008b	33 c0		 xor	 eax, eax

; 222  : }

  0008d	5b		 pop	 ebx
  0008e	5d		 pop	 ebp
  0008f	c3		 ret	 0
?FindColorTagStartPosition@@YAHPB_WH@Z ENDP		; FindColorTagStartPosition
_TEXT	ENDS
; Function compile flags: /Ogtp
; File C:\Users\murat\Desktop\Siveps2-1-99-Project\source\client\Client\EterLib\TextTag.cpp
;	COMDAT ?FindColorTagEndPosition@@YAHPB_WH@Z
_TEXT	SEGMENT
_src$ = 8						; size = 4
_src_len$ = 12						; size = 4
?FindColorTagEndPosition@@YAHPB_WH@Z PROC		; FindColorTagEndPosition, COMDAT

; 225  : {

  00000	55		 push	 ebp
  00001	8b ec		 mov	 ebp, esp
  00003	56		 push	 esi
  00004	57		 push	 edi

; 226  : 	const wchar_t * cur = src;
; 227  : 
; 228  : 	// @fixme012
; 229  : 	wchar_t wcStarts = L'c';

  00005	bf 63 00 00 00	 mov	 edi, 99			; 00000063H

; 230  : 	wchar_t wcEnds = L'r';

  0000a	8d 77 0f	 lea	 esi, DWORD PTR [edi+15]

; 231  : 	if (GetDefaultCodePage() == CP_ARABIC)

  0000d	e8 00 00 00 00	 call	 ?GetDefaultCodePage@@YAKXZ ; GetDefaultCodePage
  00012	3d e8 04 00 00	 cmp	 eax, 1256		; 000004e8H
  00017	75 07		 jne	 SHORT $LN4@FindColorT

; 232  : 	{
; 233  : 		wcStarts = L'h';

  00019	bf 68 00 00 00	 mov	 edi, 104		; 00000068H

; 234  : 		wcEnds = L'h';

  0001e	8b f7		 mov	 esi, edi
$LN4@FindColorT:

; 235  : 	}
; 236  : 
; 237  : 	if (src_len >= 4 && *cur == L'|' && *(cur + 1) == wcStarts)

  00020	8b 45 0c	 mov	 eax, DWORD PTR _src_len$[ebp]
  00023	8b 55 08	 mov	 edx, DWORD PTR _src$[ebp]
  00026	83 f8 04	 cmp	 eax, 4
  00029	7c 39		 jl	 SHORT $LN5@FindColorT
  0002b	66 83 3a 7c	 cmp	 WORD PTR [edx], 124	; 0000007cH
  0002f	75 24		 jne	 SHORT $LN8@FindColorT
  00031	66 39 7a 02	 cmp	 WORD PTR [edx+2], di
  00035	75 38		 jne	 SHORT $LN16@FindColorT

; 238  : 	{
; 239  : 		int left = src_len - 2;

  00037	8d 48 fe	 lea	 ecx, DWORD PTR [eax-2]

; 240  : 		cur += 2;

  0003a	8d 42 04	 lea	 eax, DWORD PTR [edx+4]
  0003d	0f 1f 00	 npad	 3
$LL2@FindColorT:

; 241  : 
; 242  : 		while (left > 1)
; 243  : 		{
; 244  : 			if (*cur == L'|' && *(cur + 1) == wcEnds)

  00040	66 83 38 7c	 cmp	 WORD PTR [eax], 124	; 0000007cH
  00044	75 06		 jne	 SHORT $LN7@FindColorT
  00046	66 39 70 02	 cmp	 WORD PTR [eax+2], si
  0004a	74 0f		 je	 SHORT $LN11@FindColorT
$LN7@FindColorT:

; 246  : 
; 247  : 			--left;

  0004c	49		 dec	 ecx

; 248  : 			++cur;

  0004d	83 c0 02	 add	 eax, 2
  00050	83 f9 01	 cmp	 ecx, 1
  00053	7f eb		 jg	 SHORT $LL2@FindColorT
$LN8@FindColorT:
  00055	5f		 pop	 edi

; 253  : 
; 254  : 	return 0;

  00056	33 c0		 xor	 eax, eax

; 255  : }

  00058	5e		 pop	 esi
  00059	5d		 pop	 ebp
  0005a	c3		 ret	 0
$LN11@FindColorT:

; 245  : 				return (cur - src) + 1;

  0005b	2b c2		 sub	 eax, edx
  0005d	d1 f8		 sar	 eax, 1
  0005f	5f		 pop	 edi
  00060	40		 inc	 eax

; 255  : }

  00061	5e		 pop	 esi
  00062	5d		 pop	 ebp
  00063	c3		 ret	 0
$LN5@FindColorT:

; 249  : 		}
; 250  : 	}
; 251  : 	else if (src_len >= 2 && *cur == L'|' && *(cur + 1) == L'|')

  00064	83 f8 02	 cmp	 eax, 2
  00067	7c ec		 jl	 SHORT $LN8@FindColorT
  00069	66 83 3a 7c	 cmp	 WORD PTR [edx], 124	; 0000007cH
  0006d	75 e6		 jne	 SHORT $LN8@FindColorT
$LN16@FindColorT:
  0006f	66 83 7a 02 7c	 cmp	 WORD PTR [edx+2], 124	; 0000007cH
  00074	75 df		 jne	 SHORT $LN8@FindColorT

; 252  : 		return 1;

  00076	5f		 pop	 edi
  00077	b8 01 00 00 00	 mov	 eax, 1

; 255  : }

  0007c	5e		 pop	 esi
  0007d	5d		 pop	 ebp
  0007e	c3		 ret	 0
?FindColorTagEndPosition@@YAHPB_WH@Z ENDP		; FindColorTagEndPosition
_TEXT	ENDS
; Function compile flags: /Ogtp
; File C:\Users\murat\Desktop\Siveps2-1-99-Project\source\client\Client\EterLib\TextTag.cpp
; File C:\Program Files (x86)\Microsoft Visual Studio\2019\Professional\VC\Tools\MSVC\14.29.30133\include\xstring
; File C:\Users\murat\Desktop\Siveps2-1-99-Project\source\client\Client\EterLib\TextTag.cpp
; File C:\Program Files (x86)\Microsoft Visual Studio\2019\Professional\VC\Tools\MSVC\14.29.30133\include\xstring
; File C:\Users\murat\Desktop\Siveps2-1-99-Project\source\client\Client\EterLib\TextTag.cpp
; File C:\Program Files (x86)\Microsoft Visual Studio\2019\Professional\VC\Tools\MSVC\14.29.30133\include\xstring
; File C:\Users\murat\Desktop\Siveps2-1-99-Project\source\client\Client\EterLib\TextTag.cpp
; File C:\Program Files (x86)\Microsoft Visual Studio\2019\Professional\VC\Tools\MSVC\14.29.30133\include\xstring
; File C:\Program Files (x86)\Microsoft Visual Studio\2019\Professional\VC\Tools\MSVC\14.29.30133\include\xmemory
; File C:\Users\murat\Desktop\Siveps2-1-99-Project\source\client\Client\EterLib\TextTag.cpp
; File C:\Program Files (x86)\Microsoft Visual Studio\2019\Professional\VC\Tools\MSVC\14.29.30133\include\xmemory
; File C:\Users\murat\Desktop\Siveps2-1-99-Project\source\client\Client\EterLib\TextTag.cpp
;	COMDAT ?GetTextTagOutputLen@@YAHPB_WH@Z
_TEXT	SEGMENT
_src$GSCopy$1$ = -48					; size = 4
_len$ = -44						; size = 4
_extraInfo$ = -40					; size = 24
__$ArrayPad$ = -16					; size = 4
__$EHRec$ = -12						; size = 12
_src$ = 8						; size = 4
_src_len$ = 12						; size = 4
?GetTextTagOutputLen@@YAHPB_WH@Z PROC			; GetTextTagOutputLen, COMDAT

; 148  : {

  00000	55		 push	 ebp
  00001	8b ec		 mov	 ebp, esp
  00003	6a ff		 push	 -1
  00005	68 00 00 00 00	 push	 __ehhandler$?GetTextTagOutputLen@@YAHPB_WH@Z
  0000a	64 a1 00 00 00
	00		 mov	 eax, DWORD PTR fs:0
  00010	50		 push	 eax
  00011	83 ec 24	 sub	 esp, 36			; 00000024H
  00014	a1 00 00 00 00	 mov	 eax, DWORD PTR ___security_cookie
  00019	33 c5		 xor	 eax, ebp
  0001b	89 45 f0	 mov	 DWORD PTR __$ArrayPad$[ebp], eax
  0001e	53		 push	 ebx
  0001f	56		 push	 esi
  00020	57		 push	 edi
  00021	50		 push	 eax
  00022	8d 45 f4	 lea	 eax, DWORD PTR __$EHRec$[ebp]
  00025	64 a3 00 00 00
	00		 mov	 DWORD PTR fs:0, eax
  0002b	8b 4d 08	 mov	 ecx, DWORD PTR _src$[ebp]
; File C:\Program Files (x86)\Microsoft Visual Studio\2019\Professional\VC\Tools\MSVC\14.29.30133\include\xstring

; 4612 :             _Traits::assign(_My_data._Bx._Buf[0], _Elem());

  0002e	33 d2		 xor	 edx, edx
; File C:\Users\murat\Desktop\Siveps2-1-99-Project\source\client\Client\EterLib\TextTag.cpp

; 148  : {

  00030	8b 45 0c	 mov	 eax, DWORD PTR _src_len$[ebp]
; File C:\Program Files (x86)\Microsoft Visual Studio\2019\Professional\VC\Tools\MSVC\14.29.30133\include\xstring

; 2346 :         _CONSTEXPR20_CONTAINER _Bxty() noexcept : _Ptr() {} // user-provided, for fancy pointers

  00033	c7 45 d8 00 00
	00 00		 mov	 DWORD PTR _extraInfo$[ebp], 0
; File C:\Users\murat\Desktop\Siveps2-1-99-Project\source\client\Client\EterLib\TextTag.cpp

; 148  : {

  0003a	89 4d d0	 mov	 DWORD PTR _src$GSCopy$1$[ebp], ecx
; File C:\Program Files (x86)\Microsoft Visual Studio\2019\Professional\VC\Tools\MSVC\14.29.30133\include\xstring

; 4596 :         _My_data._Mysize = 0;

  0003d	c7 45 e8 00 00
	00 00		 mov	 DWORD PTR _extraInfo$[ebp+16], 0

; 4597 : 
; 4598 : #ifdef __cpp_lib_constexpr_string
; 4599 :         if (_STD is_constant_evaluated()) {
; 4600 :             _My_data._Myres        = _BUF_SIZE; // SSO disabled in constexpr context
; 4601 :             auto& _Al              = _Getal();
; 4602 :             const pointer _New_ptr = _Al.allocate(_BUF_SIZE + 1); // throws
; 4603 :             _My_data._Bx._Ptr      = _New_ptr;
; 4604 : 
; 4605 :             _Elem* const _Raw_new = _Unfancy(_New_ptr);
; 4606 :             _Traits::assign(_Raw_new, _BUF_SIZE + 1, _Elem());
; 4607 :         } else
; 4608 : #endif // __cpp_lib_constexpr_string
; 4609 :         {
; 4610 :             _My_data._Myres = _BUF_SIZE - 1;

  00044	c7 45 ec 07 00
	00 00		 mov	 DWORD PTR _extraInfo$[ebp+20], 7

; 4612 :             _Traits::assign(_My_data._Bx._Buf[0], _Elem());

  0004b	66 89 55 d8	 mov	 WORD PTR _extraInfo$[ebp], dx
; File C:\Users\murat\Desktop\Siveps2-1-99-Project\source\client\Client\EterLib\TextTag.cpp

; 151  :     int output_len = 0;

  0004f	33 db		 xor	 ebx, ebx
  00051	89 55 fc	 mov	 DWORD PTR __$EHRec$[ebp+8], edx

; 152  :     int hyperlinkStep = 0;

  00054	33 f6		 xor	 esi, esi

; 153  : 
; 154  :     for (int i = 0; i < src_len; )

  00056	33 ff		 xor	 edi, edi
  00058	85 c0		 test	 eax, eax
  0005a	0f 8e 8e 00 00
	00		 jle	 $LN43@GetTextTag
$LL2@GetTextTag:

; 155  :     {
; 156  :         int tag = GetTextTag(&src[i], src_len - i, len, extraInfo);

  00060	8d 55 d8	 lea	 edx, DWORD PTR _extraInfo$[ebp]
  00063	2b c7		 sub	 eax, edi
  00065	52		 push	 edx
  00066	8d 55 d4	 lea	 edx, DWORD PTR _len$[ebp]
  00069	52		 push	 edx
  0006a	50		 push	 eax
  0006b	8d 04 79	 lea	 eax, DWORD PTR [ecx+edi*2]
  0006e	50		 push	 eax
  0006f	e8 00 00 00 00	 call	 ?GetTextTag@@YAHPB_WHAAHAAV?$basic_string@_WU?$char_traits@_W@std@@V?$allocator@_W@2@@std@@@Z ; GetTextTag
  00074	83 c4 10	 add	 esp, 16			; 00000010H

; 157  : 
; 158  :         if (tag == TEXT_TAG_PLAIN || tag == TEXT_TAG_TAG)

  00077	85 c0		 test	 eax, eax
  00079	74 2b		 je	 SHORT $LN7@GetTextTag
  0007b	83 f8 01	 cmp	 eax, 1
  0007e	74 26		 je	 SHORT $LN7@GetTextTag

; 162  :         }
; 163  :         else if (tag == TEXT_TAG_HYPERLINK_START)

  00080	83 f8 03	 cmp	 eax, 3
  00083	75 05		 jne	 SHORT $LN9@GetTextTag

; 164  :             hyperlinkStep = 1;

  00085	8d 70 fe	 lea	 esi, DWORD PTR [eax-2]
  00088	eb 21		 jmp	 SHORT $LN8@GetTextTag
$LN9@GetTextTag:

; 165  :         else if (tag == TEXT_TAG_HYPERLINK_END)

  0008a	83 f8 04	 cmp	 eax, 4
  0008d	75 04		 jne	 SHORT $LN11@GetTextTag

; 166  :             hyperlinkStep = 0;

  0008f	33 f6		 xor	 esi, esi
  00091	eb 18		 jmp	 SHORT $LN8@GetTextTag
$LN11@GetTextTag:

; 167  : #ifdef ENABLE_EMOJI_IN_TEXT
; 168  :         else if (tag == TEXT_TAG_EMOJI_START)

  00093	83 f8 06	 cmp	 eax, 6
  00096	75 05		 jne	 SHORT $LN13@GetTextTag

; 169  :             hyperlinkStep = 1;

  00098	8d 70 fb	 lea	 esi, DWORD PTR [eax-5]
  0009b	eb 0e		 jmp	 SHORT $LN8@GetTextTag
$LN13@GetTextTag:

; 170  :         else if (tag == TEXT_TAG_EMOJI_END)

  0009d	83 f8 07	 cmp	 eax, 7
  000a0	75 09		 jne	 SHORT $LN8@GetTextTag

; 171  :             hyperlinkStep = 0;

  000a2	33 f6		 xor	 esi, esi
  000a4	eb 05		 jmp	 SHORT $LN8@GetTextTag
$LN7@GetTextTag:

; 159  :         {
; 160  :             if (hyperlinkStep == 0)

  000a6	85 f6		 test	 esi, esi
  000a8	75 01		 jne	 SHORT $LN8@GetTextTag

; 161  :                 ++output_len;

  000aa	43		 inc	 ebx
$LN8@GetTextTag:

; 172  : #endif
; 173  :         i += len;

  000ab	03 7d d4	 add	 edi, DWORD PTR _len$[ebp]
  000ae	8b 45 0c	 mov	 eax, DWORD PTR _src_len$[ebp]
  000b1	8b 4d d0	 mov	 ecx, DWORD PTR _src$GSCopy$1$[ebp]
  000b4	3b f8		 cmp	 edi, eax
  000b6	7c a8		 jl	 SHORT $LL2@GetTextTag
; File C:\Program Files (x86)\Microsoft Visual Studio\2019\Professional\VC\Tools\MSVC\14.29.30133\include\xstring

; 2319 :         return _BUF_SIZE <= _Myres;

  000b8	8b 55 ec	 mov	 edx, DWORD PTR _extraInfo$[ebp+20]
  000bb	83 fa 08	 cmp	 edx, 8

; 4618 :         if (_Mypair._Myval2._Large_string_engaged()) {

  000be	72 2e		 jb	 SHORT $LN43@GetTextTag
; File C:\Program Files (x86)\Microsoft Visual Studio\2019\Professional\VC\Tools\MSVC\14.29.30133\include\xmemory

; 835  :         _Deallocate<_New_alignof<_Ty>>(_Ptr, sizeof(_Ty) * _Count);

  000c0	8b 4d d8	 mov	 ecx, DWORD PTR _extraInfo$[ebp]
  000c3	8d 14 55 02 00
	00 00		 lea	 edx, DWORD PTR [edx*2+2]
  000ca	8b c1		 mov	 eax, ecx

; 260  :         if (_Bytes >= _Big_allocation_threshold) { // boost the alignment of big allocations to help autovectorization

  000cc	81 fa 00 10 00
	00		 cmp	 edx, 4096		; 00001000H
  000d2	72 10		 jb	 SHORT $LN53@GetTextTag

; 158  :     const uintptr_t _Ptr_container   = _Ptr_user[-1];

  000d4	8b 49 fc	 mov	 ecx, DWORD PTR [ecx-4]
  000d7	83 c2 23	 add	 edx, 35			; 00000023H
  000da	2b c1		 sub	 eax, ecx

; 172  :     _STL_VERIFY(_Back_shift >= _Min_back_shift && _Back_shift <= _Non_user_size, "invalid argument");

  000dc	83 c0 fc	 add	 eax, -4			; fffffffcH
  000df	83 f8 1f	 cmp	 eax, 31			; 0000001fH
  000e2	77 28		 ja	 SHORT $LN66@GetTextTag
$LN53@GetTextTag:

; 264  :         ::operator delete(_Ptr, _Bytes);

  000e4	52		 push	 edx
  000e5	51		 push	 ecx
  000e6	e8 00 00 00 00	 call	 ??3@YAXPAXI@Z		; operator delete
  000eb	83 c4 08	 add	 esp, 8
$LN43@GetTextTag:
; File C:\Users\murat\Desktop\Siveps2-1-99-Project\source\client\Client\EterLib\TextTag.cpp

; 175  :     return output_len;

  000ee	8b c3		 mov	 eax, ebx

; 176  : }

  000f0	8b 4d f4	 mov	 ecx, DWORD PTR __$EHRec$[ebp]
  000f3	64 89 0d 00 00
	00 00		 mov	 DWORD PTR fs:0, ecx
  000fa	59		 pop	 ecx
  000fb	5f		 pop	 edi
  000fc	5e		 pop	 esi
  000fd	5b		 pop	 ebx
  000fe	8b 4d f0	 mov	 ecx, DWORD PTR __$ArrayPad$[ebp]
  00101	33 cd		 xor	 ecx, ebp
  00103	e8 00 00 00 00	 call	 @__security_check_cookie@4
  00108	8b e5		 mov	 esp, ebp
  0010a	5d		 pop	 ebp
  0010b	c3		 ret	 0
$LN66@GetTextTag:
; File C:\Program Files (x86)\Microsoft Visual Studio\2019\Professional\VC\Tools\MSVC\14.29.30133\include\xmemory

; 172  :     _STL_VERIFY(_Back_shift >= _Min_back_shift && _Back_shift <= _Non_user_size, "invalid argument");

  0010c	e8 00 00 00 00	 call	 __invalid_parameter_noinfo_noreturn
$LN64@GetTextTag:
  00111	cc		 int	 3
_TEXT	ENDS
;	COMDAT text$x
text$x	SEGMENT
__unwindfunclet$?GetTextTagOutputLen@@YAHPB_WH@Z$0:
  00000	8d 4d d8	 lea	 ecx, DWORD PTR _extraInfo$[ebp]
  00003	e9 00 00 00 00	 jmp	 ??1?$basic_string@_WU?$char_traits@_W@std@@V?$allocator@_W@2@@std@@QAE@XZ ; std::basic_string<wchar_t,std::char_traits<wchar_t>,std::allocator<wchar_t> >::~basic_string<wchar_t,std::char_traits<wchar_t>,std::allocator<wchar_t> >
  00008	cc		 int	 3
  00009	cc		 int	 3
  0000a	cc		 int	 3
  0000b	cc		 int	 3
  0000c	cc		 int	 3
__ehhandler$?GetTextTagOutputLen@@YAHPB_WH@Z:
  0000d	90		 npad	 1
  0000e	90		 npad	 1
  0000f	8b 54 24 08	 mov	 edx, DWORD PTR [esp+8]
  00013	8d 42 0c	 lea	 eax, DWORD PTR [edx+12]
  00016	8b 4a cc	 mov	 ecx, DWORD PTR [edx-52]
  00019	33 c8		 xor	 ecx, eax
  0001b	e8 00 00 00 00	 call	 @__security_check_cookie@4
  00020	8b 4a fc	 mov	 ecx, DWORD PTR [edx-4]
  00023	33 c8		 xor	 ecx, eax
  00025	e8 00 00 00 00	 call	 @__security_check_cookie@4
  0002a	b8 00 00 00 00	 mov	 eax, OFFSET __ehfuncinfo$?GetTextTagOutputLen@@YAHPB_WH@Z
  0002f	e9 00 00 00 00	 jmp	 ___CxxFrameHandler3
text$x	ENDS
?GetTextTagOutputLen@@YAHPB_WH@Z ENDP			; GetTextTagOutputLen
; Function compile flags: /Ogtp
; File C:\Users\murat\Desktop\Siveps2-1-99-Project\source\client\Client\EterLib\TextTag.cpp
; File C:\Program Files (x86)\Microsoft Visual Studio\2019\Professional\VC\Tools\MSVC\14.29.30133\include\xstring
; File C:\Users\murat\Desktop\Siveps2-1-99-Project\source\client\Client\EterLib\TextTag.cpp
; File C:\Program Files (x86)\Microsoft Visual Studio\2019\Professional\VC\Tools\MSVC\14.29.30133\include\xstring
; File C:\Users\murat\Desktop\Siveps2-1-99-Project\source\client\Client\EterLib\TextTag.cpp
; File C:\Program Files (x86)\Microsoft Visual Studio\2019\Professional\VC\Tools\MSVC\14.29.30133\include\xstring
; File C:\Users\murat\Desktop\Siveps2-1-99-Project\source\client\Client\EterLib\TextTag.cpp
; File C:\Program Files (x86)\Microsoft Visual Studio\2019\Professional\VC\Tools\MSVC\14.29.30133\include\xstring
; File C:\Users\murat\Desktop\Siveps2-1-99-Project\source\client\Client\EterLib\TextTag.cpp
; File C:\Program Files (x86)\Microsoft Visual Studio\2019\Professional\VC\Tools\MSVC\14.29.30133\include\xstring
; File C:\Program Files (x86)\Microsoft Visual Studio\2019\Professional\VC\Tools\MSVC\14.29.30133\include\xmemory
; File C:\Program Files (x86)\Microsoft Visual Studio\2019\Professional\VC\Tools\MSVC\14.29.30133\include\xstring
; File C:\Program Files (x86)\Microsoft Visual Studio\2019\Professional\VC\Tools\MSVC\14.29.30133\include\xmemory
; File C:\Program Files (x86)\Microsoft Visual Studio\2019\Professional\VC\Tools\MSVC\14.29.30133\include\xstring
; File C:\Program Files (x86)\Microsoft Visual Studio\2019\Professional\VC\Tools\MSVC\14.29.30133\include\utility
; File C:\Program Files (x86)\Microsoft Visual Studio\2019\Professional\VC\Tools\MSVC\14.29.30133\include\xstring
; File C:\Program Files (x86)\Microsoft Visual Studio\2019\Professional\VC\Tools\MSVC\14.29.30133\include\xmemory
; File C:\Program Files (x86)\Microsoft Visual Studio\2019\Professional\VC\Tools\MSVC\14.29.30133\include\xstring
; File C:\Program Files (x86)\Microsoft Visual Studio\2019\Professional\VC\Tools\MSVC\14.29.30133\include\xmemory
; File C:\Program Files (x86)\Microsoft Visual Studio\2019\Professional\VC\Tools\MSVC\14.29.30133\include\xstring
; File C:\Users\murat\Desktop\Siveps2-1-99-Project\source\client\Client\EterLib\TextTag.cpp
; File C:\Program Files (x86)\Microsoft Visual Studio\2019\Professional\VC\Tools\MSVC\14.29.30133\include\xstring
; File C:\Program Files (x86)\Microsoft Visual Studio\2019\Professional\VC\Tools\MSVC\14.29.30133\include\xmemory
; File C:\Users\murat\Desktop\Siveps2-1-99-Project\source\client\Client\EterLib\TextTag.cpp
; File C:\Program Files (x86)\Microsoft Visual Studio\2019\Professional\VC\Tools\MSVC\14.29.30133\include\xmemory
; File C:\Program Files (x86)\Microsoft Visual Studio\2019\Professional\VC\Tools\MSVC\14.29.30133\include\xstring
; File C:\Program Files (x86)\Microsoft Visual Studio\2019\Professional\VC\Tools\MSVC\14.29.30133\include\xmemory
; File C:\Users\murat\Desktop\Siveps2-1-99-Project\source\client\Client\EterLib\TextTag.cpp
;	COMDAT ?GetTextTagOutputString@@YA?AV?$basic_string@_WU?$char_traits@_W@std@@V?$allocator@_W@2@@std@@PB_WH@Z
_TEXT	SEGMENT
___$ReturnUdt$GSCopy$ = -80				; size = 4
_src$GSCopy$1$ = -76					; size = 4
_len$ = -72						; size = 4
__Old_size$1$ = -68					; size = 4
$T2 = -64						; size = 4
_i$1$ = -60						; size = 4
__Ch$1$ = -56						; size = 4
__Old$1$ = -52						; size = 4
__New_size$1$ = -48					; size = 4
tv845 = -48						; size = 4
_hyperlinkStep$1$ = -44					; size = 4
_extraInfo$ = -40					; size = 24
__$ArrayPad$ = -16					; size = 4
__$EHRec$ = -12						; size = 12
___$ReturnUdt$ = 8					; size = 4
_src$ = 12						; size = 4
_src_len$ = 16						; size = 4
?GetTextTagOutputString@@YA?AV?$basic_string@_WU?$char_traits@_W@std@@V?$allocator@_W@2@@std@@PB_WH@Z PROC ; GetTextTagOutputString, COMDAT

; 60   : {

  00000	55		 push	 ebp
  00001	8b ec		 mov	 ebp, esp
  00003	6a ff		 push	 -1
  00005	68 00 00 00 00	 push	 __ehhandler$?GetTextTagOutputString@@YA?AV?$basic_string@_WU?$char_traits@_W@std@@V?$allocator@_W@2@@std@@PB_WH@Z
  0000a	64 a1 00 00 00
	00		 mov	 eax, DWORD PTR fs:0
  00010	50		 push	 eax
  00011	83 ec 44	 sub	 esp, 68			; 00000044H
  00014	a1 00 00 00 00	 mov	 eax, DWORD PTR ___security_cookie
  00019	33 c5		 xor	 eax, ebp
  0001b	89 45 f0	 mov	 DWORD PTR __$ArrayPad$[ebp], eax
  0001e	53		 push	 ebx
  0001f	56		 push	 esi
  00020	57		 push	 edi
  00021	50		 push	 eax
  00022	8d 45 f4	 lea	 eax, DWORD PTR __$EHRec$[ebp]
  00025	64 a3 00 00 00
	00		 mov	 DWORD PTR fs:0, eax
  0002b	8b 75 08	 mov	 esi, DWORD PTR ___$ReturnUdt$[ebp]
; File C:\Program Files (x86)\Microsoft Visual Studio\2019\Professional\VC\Tools\MSVC\14.29.30133\include\xstring

; 4612 :             _Traits::assign(_My_data._Bx._Buf[0], _Elem());

  0002e	33 c9		 xor	 ecx, ecx
; File C:\Users\murat\Desktop\Siveps2-1-99-Project\source\client\Client\EterLib\TextTag.cpp

; 60   : {

  00030	8b 55 0c	 mov	 edx, DWORD PTR _src$[ebp]
  00033	8b 45 10	 mov	 eax, DWORD PTR _src_len$[ebp]
  00036	89 75 b0	 mov	 DWORD PTR ___$ReturnUdt$GSCopy$[ebp], esi
  00039	c7 45 c0 00 00
	00 00		 mov	 DWORD PTR $T2[ebp], 0
; File C:\Program Files (x86)\Microsoft Visual Studio\2019\Professional\VC\Tools\MSVC\14.29.30133\include\xstring

; 2346 :         _CONSTEXPR20_CONTAINER _Bxty() noexcept : _Ptr() {} // user-provided, for fancy pointers

  00040	c7 06 00 00 00
	00		 mov	 DWORD PTR [esi], 0

; 4596 :         _My_data._Mysize = 0;

  00046	c7 46 10 00 00
	00 00		 mov	 DWORD PTR [esi+16], 0

; 4597 : 
; 4598 : #ifdef __cpp_lib_constexpr_string
; 4599 :         if (_STD is_constant_evaluated()) {
; 4600 :             _My_data._Myres        = _BUF_SIZE; // SSO disabled in constexpr context
; 4601 :             auto& _Al              = _Getal();
; 4602 :             const pointer _New_ptr = _Al.allocate(_BUF_SIZE + 1); // throws
; 4603 :             _My_data._Bx._Ptr      = _New_ptr;
; 4604 : 
; 4605 :             _Elem* const _Raw_new = _Unfancy(_New_ptr);
; 4606 :             _Traits::assign(_Raw_new, _BUF_SIZE + 1, _Elem());
; 4607 :         } else
; 4608 : #endif // __cpp_lib_constexpr_string
; 4609 :         {
; 4610 :             _My_data._Myres = _BUF_SIZE - 1;

  0004d	c7 46 14 07 00
	00 00		 mov	 DWORD PTR [esi+20], 7
; File C:\Users\murat\Desktop\Siveps2-1-99-Project\source\client\Client\EterLib\TextTag.cpp

; 60   : {

  00054	89 55 b4	 mov	 DWORD PTR _src$GSCopy$1$[ebp], edx
; File C:\Program Files (x86)\Microsoft Visual Studio\2019\Professional\VC\Tools\MSVC\14.29.30133\include\xstring

; 4612 :             _Traits::assign(_My_data._Bx._Buf[0], _Elem());

  00057	66 89 0e	 mov	 WORD PTR [esi], cx

; 2346 :         _CONSTEXPR20_CONTAINER _Bxty() noexcept : _Ptr() {} // user-provided, for fancy pointers

  0005a	89 4d d8	 mov	 DWORD PTR _extraInfo$[ebp], ecx
; File C:\Users\murat\Desktop\Siveps2-1-99-Project\source\client\Client\EterLib\TextTag.cpp

; 91   : 	return dst;

  0005d	c7 45 c0 01 00
	00 00		 mov	 DWORD PTR $T2[ebp], 1
; File C:\Program Files (x86)\Microsoft Visual Studio\2019\Professional\VC\Tools\MSVC\14.29.30133\include\xstring

; 4596 :         _My_data._Mysize = 0;

  00064	89 4d e8	 mov	 DWORD PTR _extraInfo$[ebp+16], ecx

; 4597 : 
; 4598 : #ifdef __cpp_lib_constexpr_string
; 4599 :         if (_STD is_constant_evaluated()) {
; 4600 :             _My_data._Myres        = _BUF_SIZE; // SSO disabled in constexpr context
; 4601 :             auto& _Al              = _Getal();
; 4602 :             const pointer _New_ptr = _Al.allocate(_BUF_SIZE + 1); // throws
; 4603 :             _My_data._Bx._Ptr      = _New_ptr;
; 4604 : 
; 4605 :             _Elem* const _Raw_new = _Unfancy(_New_ptr);
; 4606 :             _Traits::assign(_Raw_new, _BUF_SIZE + 1, _Elem());
; 4607 :         } else
; 4608 : #endif // __cpp_lib_constexpr_string
; 4609 :         {
; 4610 :             _My_data._Myres = _BUF_SIZE - 1;

  00067	c7 45 ec 07 00
	00 00		 mov	 DWORD PTR _extraInfo$[ebp+20], 7

; 4612 :             _Traits::assign(_My_data._Bx._Buf[0], _Elem());

  0006e	66 89 4d d8	 mov	 WORD PTR _extraInfo$[ebp], cx
; File C:\Users\murat\Desktop\Siveps2-1-99-Project\source\client\Client\EterLib\TextTag.cpp

; 65   :     int hyperlinkStep = 0;

  00072	33 db		 xor	 ebx, ebx
  00074	c7 45 fc 01 00
	00 00		 mov	 DWORD PTR __$EHRec$[ebp+8], 1
  0007b	89 5d d4	 mov	 DWORD PTR _hyperlinkStep$1$[ebp], ebx

; 66   : 
; 67   :     for (int i = 0; i < src_len; )

  0007e	89 4d c4	 mov	 DWORD PTR _i$1$[ebp], ecx
  00081	85 c0		 test	 eax, eax
  00083	0f 8e 2c 02 00
	00		 jle	 $LN122@GetTextTag
  00089	0f 1f 80 00 00
	00 00		 npad	 7
$LL2@GetTextTag:

; 68   :     {
; 69   :         int tag = GetTextTag(&src[i], src_len - i, len, extraInfo);

  00090	8d 3c 4a	 lea	 edi, DWORD PTR [edx+ecx*2]
  00093	2b c1		 sub	 eax, ecx
  00095	8d 55 d8	 lea	 edx, DWORD PTR _extraInfo$[ebp]
  00098	52		 push	 edx
  00099	8d 55 b8	 lea	 edx, DWORD PTR _len$[ebp]
  0009c	52		 push	 edx
  0009d	50		 push	 eax
  0009e	57		 push	 edi
  0009f	e8 00 00 00 00	 call	 ?GetTextTag@@YAHPB_WHAAHAAV?$basic_string@_WU?$char_traits@_W@std@@V?$allocator@_W@2@@std@@@Z ; GetTextTag
  000a4	83 c4 10	 add	 esp, 16			; 00000010H

; 70   : 
; 71   :         if (tag == TEXT_TAG_PLAIN || tag == TEXT_TAG_TAG)

  000a7	85 c0		 test	 eax, eax
  000a9	74 4b		 je	 SHORT $LN7@GetTextTag
  000ab	83 f8 01	 cmp	 eax, 1
  000ae	74 46		 je	 SHORT $LN7@GetTextTag

; 74   : 			{
; 75   :                 ++output_len;
; 76   : 				dst += src[i];
; 77   : 			}
; 78   :         }
; 79   :         else if (tag == TEXT_TAG_HYPERLINK_START)

  000b0	83 f8 03	 cmp	 eax, 3
  000b3	75 0d		 jne	 SHORT $LN9@GetTextTag

; 80   :             hyperlinkStep = 1;

  000b5	bb 01 00 00 00	 mov	 ebx, 1
  000ba	89 5d d4	 mov	 DWORD PTR _hyperlinkStep$1$[ebp], ebx
  000bd	e9 a5 01 00 00	 jmp	 $LN59@GetTextTag
$LN9@GetTextTag:

; 81   :         else if (tag == TEXT_TAG_HYPERLINK_END)

  000c2	83 f8 04	 cmp	 eax, 4
  000c5	75 0a		 jne	 SHORT $LN11@GetTextTag

; 82   :             hyperlinkStep = 0;

  000c7	33 db		 xor	 ebx, ebx
  000c9	89 5d d4	 mov	 DWORD PTR _hyperlinkStep$1$[ebp], ebx
  000cc	e9 96 01 00 00	 jmp	 $LN59@GetTextTag
$LN11@GetTextTag:

; 83   : #ifdef ENABLE_EMOJI_IN_TEXT
; 84   :         else if (tag == TEXT_TAG_EMOJI_START)

  000d1	83 f8 06	 cmp	 eax, 6
  000d4	75 0d		 jne	 SHORT $LN13@GetTextTag

; 85   :             hyperlinkStep = 1;

  000d6	bb 01 00 00 00	 mov	 ebx, 1
  000db	89 5d d4	 mov	 DWORD PTR _hyperlinkStep$1$[ebp], ebx
  000de	e9 84 01 00 00	 jmp	 $LN59@GetTextTag
$LN13@GetTextTag:

; 86   :         else if (tag == TEXT_TAG_EMOJI_END)

  000e3	83 f8 07	 cmp	 eax, 7
  000e6	0f 85 7b 01 00
	00		 jne	 $LN59@GetTextTag

; 87   :             hyperlinkStep = 0;

  000ec	33 db		 xor	 ebx, ebx
  000ee	89 5d d4	 mov	 DWORD PTR _hyperlinkStep$1$[ebp], ebx
  000f1	e9 71 01 00 00	 jmp	 $LN59@GetTextTag
$LN7@GetTextTag:

; 72   :         {
; 73   :             if (hyperlinkStep == 0)

  000f6	85 db		 test	 ebx, ebx
  000f8	0f 85 69 01 00
	00		 jne	 $LN59@GetTextTag
; File C:\Program Files (x86)\Microsoft Visual Studio\2019\Professional\VC\Tools\MSVC\14.29.30133\include\xstring

; 3862 :         const size_type _Old_size = _Mypair._Myval2._Mysize;

  000fe	8b 5e 10	 mov	 ebx, DWORD PTR [esi+16]

; 3863 :         if (_Old_size < _Mypair._Myval2._Myres) {

  00101	8b 4e 14	 mov	 ecx, DWORD PTR [esi+20]

; 3119 :         push_back(_Ch);

  00104	0f b7 17	 movzx	 edx, WORD PTR [edi]
  00107	89 55 c8	 mov	 DWORD PTR __Ch$1$[ebp], edx

; 3862 :         const size_type _Old_size = _Mypair._Myval2._Mysize;

  0010a	89 5d bc	 mov	 DWORD PTR __Old_size$1$[ebp], ebx

; 3863 :         if (_Old_size < _Mypair._Myval2._Myres) {

  0010d	89 4d cc	 mov	 DWORD PTR __Old$1$[ebp], ecx
  00110	3b d9		 cmp	 ebx, ecx
  00112	73 1f		 jae	 SHORT $LN49@GetTextTag

; 3864 :             _Mypair._Myval2._Mysize = _Old_size + 1;

  00114	8d 43 01	 lea	 eax, DWORD PTR [ebx+1]
  00117	89 46 10	 mov	 DWORD PTR [esi+16], eax

; 2296 :         value_type* _Result = _Bx._Buf;

  0011a	8b c6		 mov	 eax, esi

; 2319 :         return _BUF_SIZE <= _Myres;

  0011c	83 f9 08	 cmp	 ecx, 8

; 2297 :         if (_Large_string_engaged()) {

  0011f	72 02		 jb	 SHORT $LN52@GetTextTag

; 2298 :             _Result = _Unfancy(_Bx._Ptr);

  00121	8b 06		 mov	 eax, DWORD PTR [esi]
$LN52@GetTextTag:

; 3867 :             _Traits::assign(_Ptr[_Old_size + 1], _Elem());

  00123	33 c9		 xor	 ecx, ecx
  00125	66 89 14 58	 mov	 WORD PTR [eax+ebx*2], dx
  00129	66 89 4c 58 02	 mov	 WORD PTR [eax+ebx*2+2], cx

; 3868 :             return;

  0012e	e9 31 01 00 00	 jmp	 $LN148@GetTextTag
$LN49@GetTextTag:

; 4543 :         if (max_size() - _Old_size < _Size_increase) {

  00133	b8 fe ff ff 7f	 mov	 eax, 2147483646		; 7ffffffeH
  00138	2b c3		 sub	 eax, ebx
  0013a	83 f8 01	 cmp	 eax, 1
  0013d	0f 82 95 01 00
	00		 jb	 $LN138@GetTextTag

; 4545 :         }
; 4546 : 
; 4547 :         const size_type _New_size     = _Old_size + _Size_increase;

  00143	8d 43 01	 lea	 eax, DWORD PTR [ebx+1]

; 4488 :         const size_type _Masked = _Requested | _ALLOC_MASK;

  00146	8b f8		 mov	 edi, eax

; 4547 :         const size_type _New_size     = _Old_size + _Size_increase;

  00148	89 45 d0	 mov	 DWORD PTR __New_size$1$[ebp], eax

; 4488 :         const size_type _Masked = _Requested | _ALLOC_MASK;

  0014b	83 cf 07	 or	 edi, 7
  0014e	81 ff fe ff ff
	7f		 cmp	 edi, 2147483646		; 7ffffffeH

; 4489 :         if (_Masked > _Max) { // the mask overflows, settle for max_size()

  00154	76 1a		 jbe	 SHORT $LN64@GetTextTag

; 4490 :             return _Max;

  00156	b8 fe ff ff ff	 mov	 eax, -2			; fffffffeH
  0015b	bf fe ff ff 7f	 mov	 edi, 2147483646		; 7ffffffeH
; File C:\Program Files (x86)\Microsoft Visual Studio\2019\Professional\VC\Tools\MSVC\14.29.30133\include\xmemory

; 238  :             return _Allocate_manually_vector_aligned<_Traits>(_Bytes);

  00160	50		 push	 eax
  00161	e8 00 00 00 00	 call	 ??$_Allocate_manually_vector_aligned@U_Default_allocate_traits@std@@@std@@YAPAXI@Z ; std::_Allocate_manually_vector_aligned<std::_Default_allocate_traits>
  00166	8b 4d cc	 mov	 ecx, DWORD PTR __Old$1$[ebp]
  00169	83 c4 04	 add	 esp, 4
  0016c	8b d8		 mov	 ebx, eax
  0016e	eb 6e		 jmp	 SHORT $LN75@GetTextTag
$LN64@GetTextTag:
; File C:\Program Files (x86)\Microsoft Visual Studio\2019\Professional\VC\Tools\MSVC\14.29.30133\include\xstring

; 4493 :         if (_Old > _Max - _Old / 2) { // similarly, geometric overflows

  00170	8b d1		 mov	 edx, ecx
  00172	b8 fe ff ff 7f	 mov	 eax, 2147483646		; 7ffffffeH
  00177	d1 ea		 shr	 edx, 1
  00179	2b c2		 sub	 eax, edx
  0017b	3b c8		 cmp	 ecx, eax
  0017d	76 1a		 jbe	 SHORT $LN65@GetTextTag

; 4494 :             return _Max;

  0017f	b8 fe ff ff ff	 mov	 eax, -2			; fffffffeH
  00184	bf fe ff ff 7f	 mov	 edi, 2147483646		; 7ffffffeH
; File C:\Program Files (x86)\Microsoft Visual Studio\2019\Professional\VC\Tools\MSVC\14.29.30133\include\xmemory

; 238  :             return _Allocate_manually_vector_aligned<_Traits>(_Bytes);

  00189	50		 push	 eax
  0018a	e8 00 00 00 00	 call	 ??$_Allocate_manually_vector_aligned@U_Default_allocate_traits@std@@@std@@YAPAXI@Z ; std::_Allocate_manually_vector_aligned<std::_Default_allocate_traits>
  0018f	8b 4d cc	 mov	 ecx, DWORD PTR __Old$1$[ebp]
  00192	83 c4 04	 add	 esp, 4
  00195	8b d8		 mov	 ebx, eax
  00197	eb 45		 jmp	 SHORT $LN75@GetTextTag
$LN65@GetTextTag:
; File C:\Program Files (x86)\Microsoft Visual Studio\2019\Professional\VC\Tools\MSVC\14.29.30133\include\xstring

; 4497 :         return (_STD max)(_Masked, _Old + _Old / 2);

  00199	8d 04 0a	 lea	 eax, DWORD PTR [edx+ecx]
; File C:\Program Files (x86)\Microsoft Visual Studio\2019\Professional\VC\Tools\MSVC\14.29.30133\include\utility

; 44   :     return _Left < _Right ? _Right : _Left;

  0019c	3b f8		 cmp	 edi, eax
  0019e	0f 42 f8	 cmovb	 edi, eax
; File C:\Program Files (x86)\Microsoft Visual Studio\2019\Professional\VC\Tools\MSVC\14.29.30133\include\xstring

; 4551 :         const pointer _New_ptr        = _Al.allocate(_New_capacity + 1); // throws

  001a1	8d 47 01	 lea	 eax, DWORD PTR [edi+1]
; File C:\Program Files (x86)\Microsoft Visual Studio\2019\Professional\VC\Tools\MSVC\14.29.30133\include\xmemory

; 64   :         if (_Count > _Max_possible) {

  001a4	3d ff ff ff 7f	 cmp	 eax, 2147483647		; 7fffffffH
  001a9	0f 87 24 01 00
	00		 ja	 $LN139@GetTextTag

; 66   :         }
; 67   :     }
; 68   : 
; 69   :     return _Count * _Ty_size;

  001af	03 c0		 add	 eax, eax

; 237  :         if (_Bytes >= _Big_allocation_threshold) { // boost the alignment of big allocations to help autovectorization

  001b1	3d 00 10 00 00	 cmp	 eax, 4096		; 00001000H
  001b6	72 10		 jb	 SHORT $LN76@GetTextTag

; 238  :             return _Allocate_manually_vector_aligned<_Traits>(_Bytes);

  001b8	50		 push	 eax
  001b9	e8 00 00 00 00	 call	 ??$_Allocate_manually_vector_aligned@U_Default_allocate_traits@std@@@std@@YAPAXI@Z ; std::_Allocate_manually_vector_aligned<std::_Default_allocate_traits>
  001be	8b 4d cc	 mov	 ecx, DWORD PTR __Old$1$[ebp]
  001c1	83 c4 04	 add	 esp, 4
  001c4	8b d8		 mov	 ebx, eax
  001c6	eb 16		 jmp	 SHORT $LN75@GetTextTag
$LN76@GetTextTag:

; 239  :         }
; 240  :     }
; 241  : #endif // defined(_M_IX86) || defined(_M_X64)
; 242  : 
; 243  :     if (_Bytes != 0) {

  001c8	85 c0		 test	 eax, eax
  001ca	74 10		 je	 SHORT $LN77@GetTextTag

; 85   :         return ::operator new(_Bytes);

  001cc	50		 push	 eax
  001cd	e8 00 00 00 00	 call	 ??2@YAPAXI@Z		; operator new

; 244  :         return _Traits::_Allocate(_Bytes);

  001d2	8b 4d cc	 mov	 ecx, DWORD PTR __Old$1$[ebp]

; 85   :         return ::operator new(_Bytes);

  001d5	83 c4 04	 add	 esp, 4

; 244  :         return _Traits::_Allocate(_Bytes);

  001d8	8b d8		 mov	 ebx, eax
  001da	eb 02		 jmp	 SHORT $LN75@GetTextTag
$LN77@GetTextTag:

; 245  :     }
; 246  : 
; 247  :     return nullptr;

  001dc	33 db		 xor	 ebx, ebx
$LN75@GetTextTag:
; File C:\Program Files (x86)\Microsoft Visual Studio\2019\Professional\VC\Tools\MSVC\14.29.30133\include\xstring

; 4559 :         _My_data._Mysize      = _New_size;

  001de	8b 45 d0	 mov	 eax, DWORD PTR __New_size$1$[ebp]
  001e1	89 46 10	 mov	 DWORD PTR [esi+16], eax

; 4560 :         _My_data._Myres       = _New_capacity;
; 4561 :         _Elem* const _Raw_new = _Unfancy(_New_ptr);

  001e4	8b 45 bc	 mov	 eax, DWORD PTR __Old_size$1$[ebp]
  001e7	89 7e 14	 mov	 DWORD PTR [esi+20], edi
  001ea	8d 3c 00	 lea	 edi, DWORD PTR [eax+eax]
  001ed	89 7d d0	 mov	 DWORD PTR tv845[ebp], edi

; 4562 :         if (_BUF_SIZE <= _Old_capacity) {

  001f0	83 f9 08	 cmp	 ecx, 8
  001f3	72 54		 jb	 SHORT $LN58@GetTextTag

; 65   :         _CSTD memcpy(_First1, _First2, _Count * sizeof(_Elem));

  001f5	ff 75 d0	 push	 DWORD PTR tv845[ebp]

; 4563 :             const pointer _Old_ptr = _My_data._Bx._Ptr;

  001f8	8b 3e		 mov	 edi, DWORD PTR [esi]

; 65   :         _CSTD memcpy(_First1, _First2, _Count * sizeof(_Elem));

  001fa	57		 push	 edi
  001fb	53		 push	 ebx
  001fc	e8 00 00 00 00	 call	 _memcpy

; 3875 :                 _Traits::assign(_New_ptr[_Old_size], _Ch);

  00201	8b 45 d0	 mov	 eax, DWORD PTR tv845[ebp]

; 65   :         _CSTD memcpy(_First1, _First2, _Count * sizeof(_Elem));

  00204	83 c4 0c	 add	 esp, 12			; 0000000cH

; 3875 :                 _Traits::assign(_New_ptr[_Old_size], _Ch);

  00207	8b 4d c8	 mov	 ecx, DWORD PTR __Ch$1$[ebp]
  0020a	66 89 0c 18	 mov	 WORD PTR [eax+ebx], cx

; 3876 :                 _Traits::assign(_New_ptr[_Old_size + 1], _Elem());

  0020e	33 c9		 xor	 ecx, ecx
  00210	66 89 4c 18 02	 mov	 WORD PTR [eax+ebx+2], cx
; File C:\Program Files (x86)\Microsoft Visual Studio\2019\Professional\VC\Tools\MSVC\14.29.30133\include\xmemory

; 835  :         _Deallocate<_New_alignof<_Ty>>(_Ptr, sizeof(_Ty) * _Count);

  00215	8b 45 cc	 mov	 eax, DWORD PTR __Old$1$[ebp]
  00218	8d 0c 45 02 00
	00 00		 lea	 ecx, DWORD PTR [eax*2+2]

; 260  :         if (_Bytes >= _Big_allocation_threshold) { // boost the alignment of big allocations to help autovectorization

  0021f	81 f9 00 10 00
	00		 cmp	 ecx, 4096		; 00001000H
  00225	72 16		 jb	 SHORT $LN100@GetTextTag

; 158  :     const uintptr_t _Ptr_container   = _Ptr_user[-1];

  00227	8b 57 fc	 mov	 edx, DWORD PTR [edi-4]
  0022a	83 c1 23	 add	 ecx, 35			; 00000023H

; 159  : 
; 160  :     // If the following asserts, it likely means that we are performing
; 161  :     // an aligned delete on memory coming from an unaligned allocation.
; 162  :     _STL_ASSERT(_Ptr_user[-2] == _Big_allocation_sentinel, "invalid argument");
; 163  : 
; 164  :     // Extra paranoia on aligned allocation/deallocation; ensure _Ptr_container is
; 165  :     // in range [_Min_back_shift, _Non_user_size]
; 166  : #ifdef _DEBUG
; 167  :     constexpr uintptr_t _Min_back_shift = 2 * sizeof(void*);
; 168  : #else // ^^^ _DEBUG ^^^ // vvv !_DEBUG vvv
; 169  :     constexpr uintptr_t _Min_back_shift = sizeof(void*);
; 170  : #endif // _DEBUG
; 171  :     const uintptr_t _Back_shift = reinterpret_cast<uintptr_t>(_Ptr) - _Ptr_container;

  0022d	2b fa		 sub	 edi, edx

; 172  :     _STL_VERIFY(_Back_shift >= _Min_back_shift && _Back_shift <= _Non_user_size, "invalid argument");

  0022f	8d 47 fc	 lea	 eax, DWORD PTR [edi-4]
  00232	83 f8 1f	 cmp	 eax, 31			; 0000001fH
  00235	0f 87 a2 00 00
	00		 ja	 $LN129@GetTextTag

; 173  :     _Ptr = reinterpret_cast<void*>(_Ptr_container);

  0023b	8b fa		 mov	 edi, edx
$LN100@GetTextTag:

; 264  :         ::operator delete(_Ptr, _Bytes);

  0023d	51		 push	 ecx
  0023e	57		 push	 edi
  0023f	e8 00 00 00 00	 call	 ??3@YAXPAXI@Z		; operator delete
  00244	83 c4 08	 add	 esp, 8
; File C:\Program Files (x86)\Microsoft Visual Studio\2019\Professional\VC\Tools\MSVC\14.29.30133\include\xstring

; 4567 :         } else {

  00247	eb 19		 jmp	 SHORT $LN149@GetTextTag
$LN58@GetTextTag:

; 65   :         _CSTD memcpy(_First1, _First2, _Count * sizeof(_Elem));

  00249	57		 push	 edi
  0024a	56		 push	 esi
  0024b	53		 push	 ebx
  0024c	e8 00 00 00 00	 call	 _memcpy

; 3875 :                 _Traits::assign(_New_ptr[_Old_size], _Ch);

  00251	8b 4d c8	 mov	 ecx, DWORD PTR __Ch$1$[ebp]

; 65   :         _CSTD memcpy(_First1, _First2, _Count * sizeof(_Elem));

  00254	83 c4 0c	 add	 esp, 12			; 0000000cH

; 3876 :                 _Traits::assign(_New_ptr[_Old_size + 1], _Elem());

  00257	33 c0		 xor	 eax, eax
  00259	66 89 0c 1f	 mov	 WORD PTR [edi+ebx], cx
  0025d	66 89 44 1f 02	 mov	 WORD PTR [edi+ebx+2], ax
$LN149@GetTextTag:
; File C:\Users\murat\Desktop\Siveps2-1-99-Project\source\client\Client\EterLib\TextTag.cpp

; 89   :         i += len;

  00262	89 1e		 mov	 DWORD PTR [esi], ebx
$LN148@GetTextTag:
  00264	8b 5d d4	 mov	 ebx, DWORD PTR _hyperlinkStep$1$[ebp]
$LN59@GetTextTag:
  00267	8b 4d c4	 mov	 ecx, DWORD PTR _i$1$[ebp]
  0026a	03 4d b8	 add	 ecx, DWORD PTR _len$[ebp]
  0026d	8b 45 10	 mov	 eax, DWORD PTR _src_len$[ebp]
  00270	89 4d c4	 mov	 DWORD PTR _i$1$[ebp], ecx
  00273	3b c8		 cmp	 ecx, eax
  00275	7d 08		 jge	 SHORT $LN145@GetTextTag

; 66   : 
; 67   :     for (int i = 0; i < src_len; )

  00277	8b 55 b4	 mov	 edx, DWORD PTR _src$GSCopy$1$[ebp]
  0027a	e9 11 fe ff ff	 jmp	 $LL2@GetTextTag
$LN145@GetTextTag:
; File C:\Program Files (x86)\Microsoft Visual Studio\2019\Professional\VC\Tools\MSVC\14.29.30133\include\xstring

; 2319 :         return _BUF_SIZE <= _Myres;

  0027f	8b 55 ec	 mov	 edx, DWORD PTR _extraInfo$[ebp+20]
  00282	83 fa 08	 cmp	 edx, 8

; 4618 :         if (_Mypair._Myval2._Large_string_engaged()) {

  00285	72 2e		 jb	 SHORT $LN122@GetTextTag
; File C:\Program Files (x86)\Microsoft Visual Studio\2019\Professional\VC\Tools\MSVC\14.29.30133\include\xmemory

; 835  :         _Deallocate<_New_alignof<_Ty>>(_Ptr, sizeof(_Ty) * _Count);

  00287	8b 4d d8	 mov	 ecx, DWORD PTR _extraInfo$[ebp]
  0028a	8d 14 55 02 00
	00 00		 lea	 edx, DWORD PTR [edx*2+2]
  00291	8b c1		 mov	 eax, ecx

; 260  :         if (_Bytes >= _Big_allocation_threshold) { // boost the alignment of big allocations to help autovectorization

  00293	81 fa 00 10 00
	00		 cmp	 edx, 4096		; 00001000H
  00299	72 10		 jb	 SHORT $LN132@GetTextTag

; 158  :     const uintptr_t _Ptr_container   = _Ptr_user[-1];

  0029b	8b 49 fc	 mov	 ecx, DWORD PTR [ecx-4]
  0029e	83 c2 23	 add	 edx, 35			; 00000023H
  002a1	2b c1		 sub	 eax, ecx

; 172  :     _STL_VERIFY(_Back_shift >= _Min_back_shift && _Back_shift <= _Non_user_size, "invalid argument");

  002a3	83 c0 fc	 add	 eax, -4			; fffffffcH
  002a6	83 f8 1f	 cmp	 eax, 31			; 0000001fH
  002a9	77 32		 ja	 SHORT $LN129@GetTextTag
$LN132@GetTextTag:

; 264  :         ::operator delete(_Ptr, _Bytes);

  002ab	52		 push	 edx
  002ac	51		 push	 ecx
  002ad	e8 00 00 00 00	 call	 ??3@YAXPAXI@Z		; operator delete
  002b2	83 c4 08	 add	 esp, 8
$LN122@GetTextTag:
; File C:\Users\murat\Desktop\Siveps2-1-99-Project\source\client\Client\EterLib\TextTag.cpp

; 91   : 	return dst;

  002b5	8b c6		 mov	 eax, esi

; 92   : }

  002b7	8b 4d f4	 mov	 ecx, DWORD PTR __$EHRec$[ebp]
  002ba	64 89 0d 00 00
	00 00		 mov	 DWORD PTR fs:0, ecx
  002c1	59		 pop	 ecx
  002c2	5f		 pop	 edi
  002c3	5e		 pop	 esi
  002c4	5b		 pop	 ebx
  002c5	8b 4d f0	 mov	 ecx, DWORD PTR __$ArrayPad$[ebp]
  002c8	33 cd		 xor	 ecx, ebp
  002ca	e8 00 00 00 00	 call	 @__security_check_cookie@4
  002cf	8b e5		 mov	 esp, ebp
  002d1	5d		 pop	 ebp
  002d2	c3		 ret	 0
$LN139@GetTextTag:
; File C:\Program Files (x86)\Microsoft Visual Studio\2019\Professional\VC\Tools\MSVC\14.29.30133\include\xmemory

; 65   :             _Throw_bad_array_new_length(); // multiply overflow

  002d3	e8 00 00 00 00	 call	 ?_Throw_bad_array_new_length@std@@YAXXZ ; std::_Throw_bad_array_new_length
$LN138@GetTextTag:
; File C:\Program Files (x86)\Microsoft Visual Studio\2019\Professional\VC\Tools\MSVC\14.29.30133\include\xstring

; 4544 :             _Xlen_string(); // result too long

  002d8	e8 00 00 00 00	 call	 ?_Xlen_string@std@@YAXXZ ; std::_Xlen_string
$LN129@GetTextTag:
; File C:\Program Files (x86)\Microsoft Visual Studio\2019\Professional\VC\Tools\MSVC\14.29.30133\include\xmemory

; 172  :     _STL_VERIFY(_Back_shift >= _Min_back_shift && _Back_shift <= _Non_user_size, "invalid argument");

  002dd	e8 00 00 00 00	 call	 __invalid_parameter_noinfo_noreturn
$LN147@GetTextTag:
  002e2	cc		 int	 3
_TEXT	ENDS
;	COMDAT text$x
text$x	SEGMENT
__unwindfunclet$?GetTextTagOutputString@@YA?AV?$basic_string@_WU?$char_traits@_W@std@@V?$allocator@_W@2@@std@@PB_WH@Z$0:
  00000	8b 45 c0	 mov	 eax, DWORD PTR $T2[ebp]
  00003	83 e0 01	 and	 eax, 1
  00006	0f 84 0c 00 00
	00		 je	 $LN18@GetTextTag
  0000c	83 65 c0 fe	 and	 DWORD PTR $T2[ebp], -2	; fffffffeH
  00010	8b 4d b0	 mov	 ecx, DWORD PTR ___$ReturnUdt$GSCopy$[ebp]
  00013	e9 00 00 00 00	 jmp	 ??1?$basic_string@_WU?$char_traits@_W@std@@V?$allocator@_W@2@@std@@QAE@XZ ; std::basic_string<wchar_t,std::char_traits<wchar_t>,std::allocator<wchar_t> >::~basic_string<wchar_t,std::char_traits<wchar_t>,std::allocator<wchar_t> >
$LN18@GetTextTag:
  00018	c3		 ret	 0
__unwindfunclet$?GetTextTagOutputString@@YA?AV?$basic_string@_WU?$char_traits@_W@std@@V?$allocator@_W@2@@std@@PB_WH@Z$1:
  00019	8d 4d d8	 lea	 ecx, DWORD PTR _extraInfo$[ebp]
  0001c	e9 00 00 00 00	 jmp	 ??1?$basic_string@_WU?$char_traits@_W@std@@V?$allocator@_W@2@@std@@QAE@XZ ; std::basic_string<wchar_t,std::char_traits<wchar_t>,std::allocator<wchar_t> >::~basic_string<wchar_t,std::char_traits<wchar_t>,std::allocator<wchar_t> >
  00021	cc		 int	 3
  00022	cc		 int	 3
  00023	cc		 int	 3
  00024	cc		 int	 3
  00025	cc		 int	 3
__ehhandler$?GetTextTagOutputString@@YA?AV?$basic_string@_WU?$char_traits@_W@std@@V?$allocator@_W@2@@std@@PB_WH@Z:
  00026	90		 npad	 1
  00027	90		 npad	 1
  00028	8b 54 24 08	 mov	 edx, DWORD PTR [esp+8]
  0002c	8d 42 0c	 lea	 eax, DWORD PTR [edx+12]
  0002f	8b 4a ac	 mov	 ecx, DWORD PTR [edx-84]
  00032	33 c8		 xor	 ecx, eax
  00034	e8 00 00 00 00	 call	 @__security_check_cookie@4
  00039	8b 4a fc	 mov	 ecx, DWORD PTR [edx-4]
  0003c	33 c8		 xor	 ecx, eax
  0003e	e8 00 00 00 00	 call	 @__security_check_cookie@4
  00043	b8 00 00 00 00	 mov	 eax, OFFSET __ehfuncinfo$?GetTextTagOutputString@@YA?AV?$basic_string@_WU?$char_traits@_W@std@@V?$allocator@_W@2@@std@@PB_WH@Z
  00048	e9 00 00 00 00	 jmp	 ___CxxFrameHandler3
text$x	ENDS
?GetTextTagOutputString@@YA?AV?$basic_string@_WU?$char_traits@_W@std@@V?$allocator@_W@2@@std@@PB_WH@Z ENDP ; GetTextTagOutputString
; Function compile flags: /Ogtp
; File C:\Users\murat\Desktop\Siveps2-1-99-Project\source\client\Client\EterLib\TextTag.cpp
; File C:\Program Files (x86)\Microsoft Visual Studio\2019\Professional\VC\Tools\MSVC\14.29.30133\include\xstring
; File C:\Users\murat\Desktop\Siveps2-1-99-Project\source\client\Client\EterLib\TextTag.cpp
; File C:\Program Files (x86)\Microsoft Visual Studio\2019\Professional\VC\Tools\MSVC\14.29.30133\include\xstring
; File C:\Users\murat\Desktop\Siveps2-1-99-Project\source\client\Client\EterLib\TextTag.cpp
; File C:\Program Files (x86)\Microsoft Visual Studio\2019\Professional\VC\Tools\MSVC\14.29.30133\include\xstring
; File C:\Program Files (x86)\Microsoft Visual Studio\2019\Professional\VC\Tools\MSVC\14.29.30133\include\xmemory
; File C:\Program Files (x86)\Microsoft Visual Studio\2019\Professional\VC\Tools\MSVC\14.29.30133\include\xstring
; File C:\Program Files (x86)\Microsoft Visual Studio\2019\Professional\VC\Tools\MSVC\14.29.30133\include\utility
; File C:\Program Files (x86)\Microsoft Visual Studio\2019\Professional\VC\Tools\MSVC\14.29.30133\include\xstring
; File C:\Program Files (x86)\Microsoft Visual Studio\2019\Professional\VC\Tools\MSVC\14.29.30133\include\xmemory
; File C:\Program Files (x86)\Microsoft Visual Studio\2019\Professional\VC\Tools\MSVC\14.29.30133\include\xstring
; File C:\Users\murat\Desktop\Siveps2-1-99-Project\source\client\Client\EterLib\TextTag.cpp
; File C:\Program Files (x86)\Microsoft Visual Studio\2019\Professional\VC\Tools\MSVC\14.29.30133\include\xmemory
; File C:\Users\murat\Desktop\Siveps2-1-99-Project\source\client\Client\EterLib\TextTag.cpp
;	COMDAT ?GetTextTag@@YAHPB_WHAAHAAV?$basic_string@_WU?$char_traits@_W@std@@V?$allocator@_W@2@@std@@@Z
_TEXT	SEGMENT
_src$ = 8						; size = 4
_maxLen$ = 12						; size = 4
_tagLen$ = 16						; size = 4
_extraInfo$ = 20					; size = 4
?GetTextTag@@YAHPB_WHAAHAAV?$basic_string@_WU?$char_traits@_W@std@@V?$allocator@_W@2@@std@@@Z PROC ; GetTextTag, COMDAT

; 6    : {

  00000	55		 push	 ebp
  00001	8b ec		 mov	 ebp, esp

; 7    :     tagLen = 1;

  00003	8b 45 10	 mov	 eax, DWORD PTR _tagLen$[ebp]
  00006	56		 push	 esi

; 8    : 
; 9    :     if (maxLen < 2 || *src != L'|')

  00007	8b 75 0c	 mov	 esi, DWORD PTR _maxLen$[ebp]
  0000a	c7 00 01 00 00
	00		 mov	 DWORD PTR [eax], 1
  00010	83 fe 02	 cmp	 esi, 2
  00013	0f 8c 4a 01 00
	00		 jl	 $LN3@GetTextTag
  00019	8b 55 08	 mov	 edx, DWORD PTR _src$[ebp]
  0001c	66 83 3a 7c	 cmp	 WORD PTR [edx], 124	; 0000007cH
  00020	0f 85 3d 01 00
	00		 jne	 $LN3@GetTextTag

; 11   : 
; 12   :     const wchar_t * cur = ++src;
; 13   : 
; 14   :     if (*cur == L'c') // color

  00026	0f b7 4a 02	 movzx	 ecx, WORD PTR [edx+2]
  0002a	83 f9 63	 cmp	 ecx, 99			; 00000063H
  0002d	0f 85 c8 00 00
	00		 jne	 $LN4@GetTextTag

; 15   :     {
; 16   :         if (maxLen < 10)

  00033	83 fe 0a	 cmp	 esi, 10			; 0000000aH
  00036	0f 8c 27 01 00
	00		 jl	 $LN3@GetTextTag

; 17   :             return TEXT_TAG_PLAIN;
; 18   : 
; 19   :         tagLen = 10;

  0003c	53		 push	 ebx
  0003d	57		 push	 edi
; File C:\Program Files (x86)\Microsoft Visual Studio\2019\Professional\VC\Tools\MSVC\14.29.30133\include\xstring

; 3246 :         if (_Count <= _Mypair._Myval2._Myres) {

  0003e	8b 7d 14	 mov	 edi, DWORD PTR _extraInfo$[ebp]
; File C:\Users\murat\Desktop\Siveps2-1-99-Project\source\client\Client\EterLib\TextTag.cpp

; 20   :         extraInfo.assign(++cur, 8);

  00041	8d 5a 04	 lea	 ebx, DWORD PTR [edx+4]
  00044	c7 00 0a 00 00
	00		 mov	 DWORD PTR [eax], 10	; 0000000aH
; File C:\Program Files (x86)\Microsoft Visual Studio\2019\Professional\VC\Tools\MSVC\14.29.30133\include\xstring

; 3246 :         if (_Count <= _Mypair._Myval2._Myres) {

  0004a	8b 57 14	 mov	 edx, DWORD PTR [edi+20]
  0004d	83 fa 08	 cmp	 edx, 8
  00050	72 25		 jb	 SHORT $LN20@GetTextTag

; 2298 :             _Result = _Unfancy(_Bx._Ptr);

  00052	8b 37		 mov	 esi, DWORD PTR [edi]

; 122  :         _CSTD memmove(_First1, _First2, _Count * sizeof(_Elem));

  00054	6a 10		 push	 16			; 00000010H
  00056	53		 push	 ebx
  00057	56		 push	 esi

; 3248 :             _Mypair._Myval2._Mysize = _Count;

  00058	c7 47 10 08 00
	00 00		 mov	 DWORD PTR [edi+16], 8

; 122  :         _CSTD memmove(_First1, _First2, _Count * sizeof(_Elem));

  0005f	e8 00 00 00 00	 call	 _memmove
  00064	83 c4 0c	 add	 esp, 12			; 0000000cH

; 3250 :             _Traits::assign(_Old_ptr[_Count], _Elem());

  00067	33 c0		 xor	 eax, eax
  00069	66 89 46 10	 mov	 WORD PTR [esi+16], ax
; File C:\Users\murat\Desktop\Siveps2-1-99-Project\source\client\Client\EterLib\TextTag.cpp

; 21   :         return TEXT_TAG_COLOR;

  0006d	b8 02 00 00 00	 mov	 eax, 2
  00072	5f		 pop	 edi
  00073	5b		 pop	 ebx
  00074	5e		 pop	 esi

; 57   : }

  00075	5d		 pop	 ebp
  00076	c3		 ret	 0
$LN20@GetTextTag:
; File C:\Program Files (x86)\Microsoft Visual Studio\2019\Professional\VC\Tools\MSVC\14.29.30133\include\xstring

; 4493 :         if (_Old > _Max - _Old / 2) { // similarly, geometric overflows

  00077	8b ca		 mov	 ecx, edx
  00079	b8 fe ff ff 7f	 mov	 eax, 2147483646		; 7ffffffeH
  0007e	d1 e9		 shr	 ecx, 1
  00080	2b c1		 sub	 eax, ecx
  00082	3b d0		 cmp	 edx, eax
  00084	76 15		 jbe	 SHORT $LN38@GetTextTag

; 4494 :             return _Max;

  00086	b8 fe ff ff ff	 mov	 eax, -2			; fffffffeH
  0008b	be fe ff ff 7f	 mov	 esi, 2147483646		; 7ffffffeH
; File C:\Program Files (x86)\Microsoft Visual Studio\2019\Professional\VC\Tools\MSVC\14.29.30133\include\xmemory

; 238  :             return _Allocate_manually_vector_aligned<_Traits>(_Bytes);

  00090	50		 push	 eax
  00091	e8 00 00 00 00	 call	 ??$_Allocate_manually_vector_aligned@U_Default_allocate_traits@std@@@std@@YAPAXI@Z ; std::_Allocate_manually_vector_aligned<std::_Default_allocate_traits>
  00096	83 c4 04	 add	 esp, 4
  00099	eb 40		 jmp	 SHORT $LN48@GetTextTag
$LN38@GetTextTag:
; File C:\Program Files (x86)\Microsoft Visual Studio\2019\Professional\VC\Tools\MSVC\14.29.30133\include\xstring

; 4497 :         return (_STD max)(_Masked, _Old + _Old / 2);

  0009b	8d 04 11	 lea	 eax, DWORD PTR [ecx+edx]
; File C:\Program Files (x86)\Microsoft Visual Studio\2019\Professional\VC\Tools\MSVC\14.29.30133\include\utility

; 44   :     return _Left < _Right ? _Right : _Left;

  0009e	be 0f 00 00 00	 mov	 esi, 15			; 0000000fH
  000a3	3b c6		 cmp	 eax, esi
  000a5	0f 47 f0	 cmova	 esi, eax
; File C:\Program Files (x86)\Microsoft Visual Studio\2019\Professional\VC\Tools\MSVC\14.29.30133\include\xstring

; 4515 :         const pointer _New_ptr        = _Al.allocate(_New_capacity + 1); // throws

  000a8	8d 46 01	 lea	 eax, DWORD PTR [esi+1]
; File C:\Program Files (x86)\Microsoft Visual Studio\2019\Professional\VC\Tools\MSVC\14.29.30133\include\xmemory

; 64   :         if (_Count > _Max_possible) {

  000ab	3d ff ff ff 7f	 cmp	 eax, 2147483647		; 7fffffffH
  000b0	0f 87 b2 00 00
	00		 ja	 $LN81@GetTextTag

; 66   :         }
; 67   :     }
; 68   : 
; 69   :     return _Count * _Ty_size;

  000b6	03 c0		 add	 eax, eax

; 237  :         if (_Bytes >= _Big_allocation_threshold) { // boost the alignment of big allocations to help autovectorization

  000b8	3d 00 10 00 00	 cmp	 eax, 4096		; 00001000H
  000bd	72 0b		 jb	 SHORT $LN49@GetTextTag

; 238  :             return _Allocate_manually_vector_aligned<_Traits>(_Bytes);

  000bf	50		 push	 eax
  000c0	e8 00 00 00 00	 call	 ??$_Allocate_manually_vector_aligned@U_Default_allocate_traits@std@@@std@@YAPAXI@Z ; std::_Allocate_manually_vector_aligned<std::_Default_allocate_traits>
  000c5	83 c4 04	 add	 esp, 4
  000c8	eb 11		 jmp	 SHORT $LN48@GetTextTag
$LN49@GetTextTag:

; 239  :         }
; 240  :     }
; 241  : #endif // defined(_M_IX86) || defined(_M_X64)
; 242  : 
; 243  :     if (_Bytes != 0) {

  000ca	85 c0		 test	 eax, eax
  000cc	74 0b		 je	 SHORT $LN50@GetTextTag

; 85   :         return ::operator new(_Bytes);

  000ce	50		 push	 eax
  000cf	e8 00 00 00 00	 call	 ??2@YAPAXI@Z		; operator new
  000d4	83 c4 04	 add	 esp, 4

; 244  :         return _Traits::_Allocate(_Bytes);

  000d7	eb 02		 jmp	 SHORT $LN48@GetTextTag
$LN50@GetTextTag:

; 245  :     }
; 246  : 
; 247  :     return nullptr;

  000d9	33 c0		 xor	 eax, eax
$LN48@GetTextTag:
; File C:\Program Files (x86)\Microsoft Visual Studio\2019\Professional\VC\Tools\MSVC\14.29.30133\include\xstring

; 4524 :         _Mypair._Myval2._Myres  = _New_capacity;

  000db	89 77 14	 mov	 DWORD PTR [edi+20], esi

; 3258 :                 _Traits::assign(_New_ptr[_Count], _Elem());

  000de	33 c9		 xor	 ecx, ecx

; 4523 :         _Mypair._Myval2._Mysize = _New_size;

  000e0	c7 47 10 08 00
	00 00		 mov	 DWORD PTR [edi+16], 8

; 65   :         _CSTD memcpy(_First1, _First2, _Count * sizeof(_Elem));

  000e7	0f 10 03	 movups	 xmm0, XMMWORD PTR [ebx]
  000ea	0f 11 00	 movups	 XMMWORD PTR [eax], xmm0

; 3258 :                 _Traits::assign(_New_ptr[_Count], _Elem());

  000ed	66 89 48 10	 mov	 WORD PTR [eax+16], cx

; 4530 :             _Construct_in_place(_Mypair._Myval2._Bx._Ptr, _New_ptr);

  000f1	89 07		 mov	 DWORD PTR [edi], eax
; File C:\Users\murat\Desktop\Siveps2-1-99-Project\source\client\Client\EterLib\TextTag.cpp

; 21   :         return TEXT_TAG_COLOR;

  000f3	8d 41 02	 lea	 eax, DWORD PTR [ecx+2]
  000f6	5f		 pop	 edi
  000f7	5b		 pop	 ebx
  000f8	5e		 pop	 esi

; 57   : }

  000f9	5d		 pop	 ebp
  000fa	c3		 ret	 0
$LN4@GetTextTag:

; 22   :     }
; 23   :     else if (*cur == L'|') // ||는 |로 표시한다.

  000fb	83 f9 7c	 cmp	 ecx, 124		; 0000007cH
  000fe	75 0c		 jne	 SHORT $LN7@GetTextTag

; 24   :     {
; 25   :         tagLen = 2;

  00100	c7 00 02 00 00
	00		 mov	 DWORD PTR [eax], 2

; 26   :         return TEXT_TAG_TAG;

  00106	8d 41 85	 lea	 eax, DWORD PTR [ecx-123]
  00109	5e		 pop	 esi

; 57   : }

  0010a	5d		 pop	 ebp
  0010b	c3		 ret	 0
$LN7@GetTextTag:

; 27   :     }
; 28   :     else if (*cur == L'r') // restore color

  0010c	83 f9 72	 cmp	 ecx, 114		; 00000072H
  0010f	75 0c		 jne	 SHORT $LN9@GetTextTag

; 29   :     {
; 30   :         tagLen = 2;

  00111	c7 00 02 00 00
	00		 mov	 DWORD PTR [eax], 2

; 31   :         return TEXT_TAG_RESTORE_COLOR;

  00117	8d 41 93	 lea	 eax, DWORD PTR [ecx-109]
  0011a	5e		 pop	 esi

; 57   : }

  0011b	5d		 pop	 ebp
  0011c	c3		 ret	 0
$LN9@GetTextTag:

; 32   :     }
; 33   :     else if (*cur == L'H') // hyperlink |Hitem:10000:0:0:0:0|h[이름]|h

  0011d	83 f9 48	 cmp	 ecx, 72			; 00000048H
  00120	75 0c		 jne	 SHORT $LN11@GetTextTag

; 34   :     {
; 35   :         tagLen = 2;

  00122	c7 00 02 00 00
	00		 mov	 DWORD PTR [eax], 2

; 36   :         return TEXT_TAG_HYPERLINK_START;

  00128	8d 41 bb	 lea	 eax, DWORD PTR [ecx-69]
  0012b	5e		 pop	 esi

; 57   : }

  0012c	5d		 pop	 ebp
  0012d	c3		 ret	 0
$LN11@GetTextTag:

; 37   :     }
; 38   :     else if (*cur == L'h') // end of hyperlink

  0012e	83 f9 68	 cmp	 ecx, 104		; 00000068H
  00131	75 0c		 jne	 SHORT $LN13@GetTextTag

; 39   :     {
; 40   :         tagLen = 2;

  00133	c7 00 02 00 00
	00		 mov	 DWORD PTR [eax], 2

; 41   :         return TEXT_TAG_HYPERLINK_END;

  00139	8d 41 9c	 lea	 eax, DWORD PTR [ecx-100]
  0013c	5e		 pop	 esi

; 57   : }

  0013d	5d		 pop	 ebp
  0013e	c3		 ret	 0
$LN13@GetTextTag:

; 42   :     }
; 43   : #ifdef ENABLE_EMOJI_IN_TEXT
; 44   : 	else if (*cur == L'E') // emoji |Epath/emo|e

  0013f	83 f9 45	 cmp	 ecx, 69			; 00000045H
  00142	75 0c		 jne	 SHORT $LN15@GetTextTag

; 45   : 	{
; 46   : 		tagLen = 2;

  00144	c7 00 02 00 00
	00		 mov	 DWORD PTR [eax], 2

; 47   : 		return TEXT_TAG_EMOJI_START;

  0014a	8d 41 c1	 lea	 eax, DWORD PTR [ecx-63]
  0014d	5e		 pop	 esi

; 57   : }

  0014e	5d		 pop	 ebp
  0014f	c3		 ret	 0
$LN15@GetTextTag:

; 48   : 	}
; 49   : 	else if (*cur == L'e') // end of emoji

  00150	83 f9 65	 cmp	 ecx, 101		; 00000065H
  00153	75 0e		 jne	 SHORT $LN3@GetTextTag

; 50   : 	{
; 51   : 		tagLen = 2;

  00155	c7 00 02 00 00
	00		 mov	 DWORD PTR [eax], 2

; 52   : 		return TEXT_TAG_EMOJI_END;

  0015b	b8 07 00 00 00	 mov	 eax, 7
  00160	5e		 pop	 esi

; 57   : }

  00161	5d		 pop	 ebp
  00162	c3		 ret	 0
$LN3@GetTextTag:

; 10   :         return TEXT_TAG_PLAIN;

  00163	33 c0		 xor	 eax, eax
  00165	5e		 pop	 esi

; 57   : }

  00166	5d		 pop	 ebp
  00167	c3		 ret	 0
$LN81@GetTextTag:
; File C:\Program Files (x86)\Microsoft Visual Studio\2019\Professional\VC\Tools\MSVC\14.29.30133\include\xmemory

; 65   :             _Throw_bad_array_new_length(); // multiply overflow

  00168	e8 00 00 00 00	 call	 ?_Throw_bad_array_new_length@std@@YAXXZ ; std::_Throw_bad_array_new_length
$LN79@GetTextTag:
  0016d	cc		 int	 3
?GetTextTag@@YAHPB_WHAAHAAV?$basic_string@_WU?$char_traits@_W@std@@V?$allocator@_W@2@@std@@@Z ENDP ; GetTextTag
_TEXT	ENDS
; Function compile flags: /Ogtp
; File C:\Program Files (x86)\Microsoft Visual Studio\2019\Professional\VC\Tools\MSVC\14.29.30133\include\xmemory
;	COMDAT ??$_Allocate_manually_vector_aligned@U_Default_allocate_traits@std@@@std@@YAPAXI@Z
_TEXT	SEGMENT
__Bytes$ = 8						; size = 4
??$_Allocate_manually_vector_aligned@U_Default_allocate_traits@std@@@std@@YAPAXI@Z PROC ; std::_Allocate_manually_vector_aligned<std::_Default_allocate_traits>, COMDAT

; 134  : __declspec(allocator) void* _Allocate_manually_vector_aligned(const size_t _Bytes) {

  00000	55		 push	 ebp
  00001	8b ec		 mov	 ebp, esp

; 135  :     // allocate _Bytes manually aligned to at least _Big_allocation_alignment
; 136  :     const size_t _Block_size = _Non_user_size + _Bytes;

  00003	8b 45 08	 mov	 eax, DWORD PTR __Bytes$[ebp]
  00006	8d 48 23	 lea	 ecx, DWORD PTR [eax+35]

; 137  :     if (_Block_size <= _Bytes) {

  00009	3b c8		 cmp	 ecx, eax
  0000b	0f 86 00 00 00
	00		 jbe	 ?_Throw_bad_array_new_length@std@@YAXXZ ; std::_Throw_bad_array_new_length

; 85   :         return ::operator new(_Bytes);

  00011	51		 push	 ecx
  00012	e8 00 00 00 00	 call	 ??2@YAPAXI@Z		; operator new

; 138  :         _Throw_bad_array_new_length(); // add overflow
; 139  :     }
; 140  : 
; 141  :     const uintptr_t _Ptr_container = reinterpret_cast<uintptr_t>(_Traits::_Allocate(_Block_size));

  00017	8b c8		 mov	 ecx, eax

; 85   :         return ::operator new(_Bytes);

  00019	83 c4 04	 add	 esp, 4

; 142  :     _STL_VERIFY(_Ptr_container != 0, "invalid argument"); // validate even in release since we're doing p[-1]

  0001c	85 c9		 test	 ecx, ecx
  0001e	74 0b		 je	 SHORT $LN7@Allocate_m

; 143  :     void* const _Ptr = reinterpret_cast<void*>((_Ptr_container + _Non_user_size) & ~(_Big_allocation_alignment - 1));

  00020	8d 41 23	 lea	 eax, DWORD PTR [ecx+35]
  00023	83 e0 e0	 and	 eax, -32		; ffffffe0H

; 144  :     static_cast<uintptr_t*>(_Ptr)[-1] = _Ptr_container;

  00026	89 48 fc	 mov	 DWORD PTR [eax-4], ecx

; 145  : 
; 146  : #ifdef _DEBUG
; 147  :     static_cast<uintptr_t*>(_Ptr)[-2] = _Big_allocation_sentinel;
; 148  : #endif // _DEBUG
; 149  :     return _Ptr;
; 150  : }

  00029	5d		 pop	 ebp
  0002a	c3		 ret	 0
$LN7@Allocate_m:

; 142  :     _STL_VERIFY(_Ptr_container != 0, "invalid argument"); // validate even in release since we're doing p[-1]

  0002b	e9 00 00 00 00	 jmp	 __invalid_parameter_noinfo_noreturn
??$_Allocate_manually_vector_aligned@U_Default_allocate_traits@std@@@std@@YAPAXI@Z ENDP ; std::_Allocate_manually_vector_aligned<std::_Default_allocate_traits>
_TEXT	ENDS
; Function compile flags: /Ogtp
; File C:\Program Files (x86)\Microsoft Visual Studio\2019\Professional\VC\Tools\MSVC\14.29.30133\include\xstring
; File C:\Program Files (x86)\Microsoft Visual Studio\2019\Professional\VC\Tools\MSVC\14.29.30133\include\xmemory
; File C:\Program Files (x86)\Microsoft Visual Studio\2019\Professional\VC\Tools\MSVC\14.29.30133\include\xstring
; File C:\Program Files (x86)\Microsoft Visual Studio\2019\Professional\VC\Tools\MSVC\14.29.30133\include\xmemory
; File C:\Program Files (x86)\Microsoft Visual Studio\2019\Professional\VC\Tools\MSVC\14.29.30133\include\xstring
;	COMDAT ??1?$basic_string@_WU?$char_traits@_W@std@@V?$allocator@_W@2@@std@@QAE@XZ
_TEXT	SEGMENT
??1?$basic_string@_WU?$char_traits@_W@std@@V?$allocator@_W@2@@std@@QAE@XZ PROC ; std::basic_string<wchar_t,std::char_traits<wchar_t>,std::allocator<wchar_t> >::~basic_string<wchar_t,std::char_traits<wchar_t>,std::allocator<wchar_t> >, COMDAT
; _this$ = ecx

; 3002 :     _CONSTEXPR20_CONTAINER ~basic_string() noexcept {

  00000	56		 push	 esi
  00001	8b f1		 mov	 esi, ecx

; 2319 :         return _BUF_SIZE <= _Myres;

  00003	8b 4e 14	 mov	 ecx, DWORD PTR [esi+20]
  00006	83 f9 08	 cmp	 ecx, 8

; 4618 :         if (_Mypair._Myval2._Large_string_engaged()) {

  00009	72 2d		 jb	 SHORT $LN12@basic_stri
; File C:\Program Files (x86)\Microsoft Visual Studio\2019\Professional\VC\Tools\MSVC\14.29.30133\include\xmemory

; 835  :         _Deallocate<_New_alignof<_Ty>>(_Ptr, sizeof(_Ty) * _Count);

  0000b	8b 06		 mov	 eax, DWORD PTR [esi]
  0000d	8d 0c 4d 02 00
	00 00		 lea	 ecx, DWORD PTR [ecx*2+2]

; 260  :         if (_Bytes >= _Big_allocation_threshold) { // boost the alignment of big allocations to help autovectorization

  00014	81 f9 00 10 00
	00		 cmp	 ecx, 4096		; 00001000H
  0001a	72 12		 jb	 SHORT $LN22@basic_stri

; 158  :     const uintptr_t _Ptr_container   = _Ptr_user[-1];

  0001c	8b 50 fc	 mov	 edx, DWORD PTR [eax-4]
  0001f	83 c1 23	 add	 ecx, 35			; 00000023H

; 159  : 
; 160  :     // If the following asserts, it likely means that we are performing
; 161  :     // an aligned delete on memory coming from an unaligned allocation.
; 162  :     _STL_ASSERT(_Ptr_user[-2] == _Big_allocation_sentinel, "invalid argument");
; 163  : 
; 164  :     // Extra paranoia on aligned allocation/deallocation; ensure _Ptr_container is
; 165  :     // in range [_Min_back_shift, _Non_user_size]
; 166  : #ifdef _DEBUG
; 167  :     constexpr uintptr_t _Min_back_shift = 2 * sizeof(void*);
; 168  : #else // ^^^ _DEBUG ^^^ // vvv !_DEBUG vvv
; 169  :     constexpr uintptr_t _Min_back_shift = sizeof(void*);
; 170  : #endif // _DEBUG
; 171  :     const uintptr_t _Back_shift = reinterpret_cast<uintptr_t>(_Ptr) - _Ptr_container;

  00022	2b c2		 sub	 eax, edx

; 172  :     _STL_VERIFY(_Back_shift >= _Min_back_shift && _Back_shift <= _Non_user_size, "invalid argument");

  00024	83 c0 fc	 add	 eax, -4			; fffffffcH
  00027	83 f8 1f	 cmp	 eax, 31			; 0000001fH
  0002a	77 21		 ja	 SHORT $LN19@basic_stri

; 173  :     _Ptr = reinterpret_cast<void*>(_Ptr_container);

  0002c	8b c2		 mov	 eax, edx
$LN22@basic_stri:

; 264  :         ::operator delete(_Ptr, _Bytes);

  0002e	51		 push	 ecx
  0002f	50		 push	 eax
  00030	e8 00 00 00 00	 call	 ??3@YAXPAXI@Z		; operator delete
  00035	83 c4 08	 add	 esp, 8
$LN12@basic_stri:
; File C:\Program Files (x86)\Microsoft Visual Studio\2019\Professional\VC\Tools\MSVC\14.29.30133\include\xstring

; 4636 :             _Traits::assign(_Mypair._Myval2._Bx._Buf[0], _Elem());

  00038	33 c0		 xor	 eax, eax
  0003a	c7 46 10 00 00
	00 00		 mov	 DWORD PTR [esi+16], 0
  00041	c7 46 14 07 00
	00 00		 mov	 DWORD PTR [esi+20], 7
  00048	66 89 06	 mov	 WORD PTR [esi], ax
  0004b	5e		 pop	 esi

; 3010 :     }

  0004c	c3		 ret	 0
$LN19@basic_stri:
; File C:\Program Files (x86)\Microsoft Visual Studio\2019\Professional\VC\Tools\MSVC\14.29.30133\include\xmemory

; 172  :     _STL_VERIFY(_Back_shift >= _Min_back_shift && _Back_shift <= _Non_user_size, "invalid argument");

  0004d	e8 00 00 00 00	 call	 __invalid_parameter_noinfo_noreturn
$LN27@basic_stri:
  00052	cc		 int	 3
??1?$basic_string@_WU?$char_traits@_W@std@@V?$allocator@_W@2@@std@@QAE@XZ ENDP ; std::basic_string<wchar_t,std::char_traits<wchar_t>,std::allocator<wchar_t> >::~basic_string<wchar_t,std::char_traits<wchar_t>,std::allocator<wchar_t> >
_TEXT	ENDS
; Function compile flags: /Ogtp
; File C:\Program Files (x86)\Microsoft Visual Studio\2019\Professional\VC\Tools\MSVC\14.29.30133\include\xstring
;	COMDAT ?_Xlen_string@std@@YAXXZ
_TEXT	SEGMENT
?_Xlen_string@std@@YAXXZ PROC				; std::_Xlen_string, COMDAT

; 2374 :     _Xlength_error("string too long");

  00000	68 00 00 00 00	 push	 OFFSET ??_C@_0BA@JFNIOLAK@string?5too?5long@
  00005	e8 00 00 00 00	 call	 ?_Xlength_error@std@@YAXPBD@Z ; std::_Xlength_error
$LN3@Xlen_strin:
  0000a	cc		 int	 3
?_Xlen_string@std@@YAXXZ ENDP				; std::_Xlen_string
_TEXT	ENDS
; Function compile flags: /Ogtp
; File C:\Program Files (x86)\Microsoft Visual Studio\2019\Professional\VC\Tools\MSVC\14.29.30133\include\exception
;	COMDAT ?_Throw_bad_array_new_length@std@@YAXXZ
_TEXT	SEGMENT
$T1 = -12						; size = 12
?_Throw_bad_array_new_length@std@@YAXXZ PROC		; std::_Throw_bad_array_new_length, COMDAT

; 320  : [[noreturn]] inline void _Throw_bad_array_new_length() {

  00000	55		 push	 ebp
  00001	8b ec		 mov	 ebp, esp
  00003	83 ec 0c	 sub	 esp, 12			; 0000000cH

; 321  :     _THROW(bad_array_new_length{});

  00006	8d 4d f4	 lea	 ecx, DWORD PTR $T1[ebp]
  00009	e8 00 00 00 00	 call	 ??0bad_array_new_length@std@@QAE@XZ ; std::bad_array_new_length::bad_array_new_length
  0000e	68 00 00 00 00	 push	 OFFSET __TI3?AVbad_array_new_length@std@@
  00013	8d 45 f4	 lea	 eax, DWORD PTR $T1[ebp]
  00016	50		 push	 eax
  00017	e8 00 00 00 00	 call	 __CxxThrowException@8
$LN3@Throw_bad_:
  0001c	cc		 int	 3
?_Throw_bad_array_new_length@std@@YAXXZ ENDP		; std::_Throw_bad_array_new_length
_TEXT	ENDS
; Function compile flags: /Ogtp
; File C:\Program Files (x86)\Microsoft Visual Studio\2019\Professional\VC\Tools\MSVC\14.29.30133\include\vcruntime_exception.h
;	COMDAT ??_Gbad_array_new_length@std@@UAEPAXI@Z
_TEXT	SEGMENT
___flags$ = 8						; size = 4
??_Gbad_array_new_length@std@@UAEPAXI@Z PROC		; std::bad_array_new_length::`scalar deleting destructor', COMDAT
; _this$ = ecx
  00000	55		 push	 ebp
  00001	8b ec		 mov	 ebp, esp

; 89   :     {

  00003	56		 push	 esi
  00004	8b f1		 mov	 esi, ecx

; 90   :         __std_exception_destroy(&_Data);

  00006	8d 46 04	 lea	 eax, DWORD PTR [esi+4]
  00009	c7 06 00 00 00
	00		 mov	 DWORD PTR [esi], OFFSET ??_7exception@std@@6B@
  0000f	50		 push	 eax
  00010	e8 00 00 00 00	 call	 ___std_exception_destroy
  00015	83 c4 04	 add	 esp, 4
  00018	f6 45 08 01	 test	 BYTE PTR ___flags$[ebp], 1
  0001c	74 0b		 je	 SHORT $LN12@scalar
  0001e	6a 0c		 push	 12			; 0000000cH
  00020	56		 push	 esi
  00021	e8 00 00 00 00	 call	 ??3@YAXPAXI@Z		; operator delete
  00026	83 c4 08	 add	 esp, 8
$LN12@scalar:
  00029	8b c6		 mov	 eax, esi
  0002b	5e		 pop	 esi
  0002c	5d		 pop	 ebp
  0002d	c2 04 00	 ret	 4
??_Gbad_array_new_length@std@@UAEPAXI@Z ENDP		; std::bad_array_new_length::`scalar deleting destructor'
_TEXT	ENDS
; Function compile flags: /Ogtp
; File C:\Program Files (x86)\Microsoft Visual Studio\2019\Professional\VC\Tools\MSVC\14.29.30133\include\vcruntime_exception.h
;	COMDAT ??0bad_array_new_length@std@@QAE@ABV01@@Z
_TEXT	SEGMENT
___that$ = 8						; size = 4
??0bad_array_new_length@std@@QAE@ABV01@@Z PROC		; std::bad_array_new_length::bad_array_new_length, COMDAT
; _this$ = ecx
  00000	55		 push	 ebp
  00001	8b ec		 mov	 ebp, esp

; 72   :     {

  00003	56		 push	 esi
  00004	8b f1		 mov	 esi, ecx
  00006	0f 57 c0	 xorps	 xmm0, xmm0

; 71   :         : _Data()

  00009	8d 46 04	 lea	 eax, DWORD PTR [esi+4]

; 73   :         __std_exception_copy(&_Other._Data, &_Data);

  0000c	50		 push	 eax
  0000d	c7 06 00 00 00
	00		 mov	 DWORD PTR [esi], OFFSET ??_7exception@std@@6B@
  00013	66 0f d6 00	 movq	 QWORD PTR [eax], xmm0
  00017	8b 45 08	 mov	 eax, DWORD PTR ___that$[ebp]
  0001a	83 c0 04	 add	 eax, 4
  0001d	50		 push	 eax
  0001e	e8 00 00 00 00	 call	 ___std_exception_copy
  00023	83 c4 08	 add	 esp, 8
  00026	c7 06 00 00 00
	00		 mov	 DWORD PTR [esi], OFFSET ??_7bad_array_new_length@std@@6B@
  0002c	8b c6		 mov	 eax, esi
  0002e	5e		 pop	 esi
  0002f	5d		 pop	 ebp
  00030	c2 04 00	 ret	 4
??0bad_array_new_length@std@@QAE@ABV01@@Z ENDP		; std::bad_array_new_length::bad_array_new_length
_TEXT	ENDS
; Function compile flags: /Ogtp
; File C:\Program Files (x86)\Microsoft Visual Studio\2019\Professional\VC\Tools\MSVC\14.29.30133\include\vcruntime_exception.h
;	COMDAT ??1bad_array_new_length@std@@UAE@XZ
_TEXT	SEGMENT
??1bad_array_new_length@std@@UAE@XZ PROC		; std::bad_array_new_length::~bad_array_new_length, COMDAT
; _this$ = ecx

; 90   :         __std_exception_destroy(&_Data);

  00000	8d 41 04	 lea	 eax, DWORD PTR [ecx+4]
  00003	c7 01 00 00 00
	00		 mov	 DWORD PTR [ecx], OFFSET ??_7exception@std@@6B@
  00009	50		 push	 eax
  0000a	e8 00 00 00 00	 call	 ___std_exception_destroy
  0000f	59		 pop	 ecx
  00010	c3		 ret	 0
??1bad_array_new_length@std@@UAE@XZ ENDP		; std::bad_array_new_length::~bad_array_new_length
_TEXT	ENDS
; Function compile flags: /Ogtp
; File C:\Program Files (x86)\Microsoft Visual Studio\2019\Professional\VC\Tools\MSVC\14.29.30133\include\vcruntime_exception.h
;	COMDAT ??0bad_array_new_length@std@@QAE@XZ
_TEXT	SEGMENT
??0bad_array_new_length@std@@QAE@XZ PROC		; std::bad_array_new_length::bad_array_new_length, COMDAT
; _this$ = ecx

; 141  :     {

  00000	0f 57 c0	 xorps	 xmm0, xmm0

; 142  :     }

  00003	8b c1		 mov	 eax, ecx

; 65   :         : _Data()

  00005	66 0f d6 41 04	 movq	 QWORD PTR [ecx+4], xmm0

; 66   :     {
; 67   :         _Data._What = _Message;

  0000a	c7 41 04 00 00
	00 00		 mov	 DWORD PTR [ecx+4], OFFSET ??_C@_0BF@KINCDENJ@bad?5array?5new?5length@

; 141  :     {

  00011	c7 01 00 00 00
	00		 mov	 DWORD PTR [ecx], OFFSET ??_7bad_array_new_length@std@@6B@

; 142  :     }

  00017	c3		 ret	 0
??0bad_array_new_length@std@@QAE@XZ ENDP		; std::bad_array_new_length::bad_array_new_length
_TEXT	ENDS
; Function compile flags: /Ogtp
; File C:\Program Files (x86)\Microsoft Visual Studio\2019\Professional\VC\Tools\MSVC\14.29.30133\include\vcruntime_exception.h
;	COMDAT ??_Gbad_alloc@std@@UAEPAXI@Z
_TEXT	SEGMENT
___flags$ = 8						; size = 4
??_Gbad_alloc@std@@UAEPAXI@Z PROC			; std::bad_alloc::`scalar deleting destructor', COMDAT
; _this$ = ecx
  00000	55		 push	 ebp
  00001	8b ec		 mov	 ebp, esp

; 89   :     {

  00003	56		 push	 esi
  00004	8b f1		 mov	 esi, ecx

; 90   :         __std_exception_destroy(&_Data);

  00006	8d 46 04	 lea	 eax, DWORD PTR [esi+4]
  00009	c7 06 00 00 00
	00		 mov	 DWORD PTR [esi], OFFSET ??_7exception@std@@6B@
  0000f	50		 push	 eax
  00010	e8 00 00 00 00	 call	 ___std_exception_destroy
  00015	83 c4 04	 add	 esp, 4
  00018	f6 45 08 01	 test	 BYTE PTR ___flags$[ebp], 1
  0001c	74 0b		 je	 SHORT $LN9@scalar
  0001e	6a 0c		 push	 12			; 0000000cH
  00020	56		 push	 esi
  00021	e8 00 00 00 00	 call	 ??3@YAXPAXI@Z		; operator delete
  00026	83 c4 08	 add	 esp, 8
$LN9@scalar:
  00029	8b c6		 mov	 eax, esi
  0002b	5e		 pop	 esi
  0002c	5d		 pop	 ebp
  0002d	c2 04 00	 ret	 4
??_Gbad_alloc@std@@UAEPAXI@Z ENDP			; std::bad_alloc::`scalar deleting destructor'
_TEXT	ENDS
; Function compile flags: /Ogtp
; File C:\Program Files (x86)\Microsoft Visual Studio\2019\Professional\VC\Tools\MSVC\14.29.30133\include\vcruntime_exception.h
;	COMDAT ??0bad_alloc@std@@QAE@ABV01@@Z
_TEXT	SEGMENT
___that$ = 8						; size = 4
??0bad_alloc@std@@QAE@ABV01@@Z PROC			; std::bad_alloc::bad_alloc, COMDAT
; _this$ = ecx
  00000	55		 push	 ebp
  00001	8b ec		 mov	 ebp, esp

; 72   :     {

  00003	56		 push	 esi
  00004	8b f1		 mov	 esi, ecx
  00006	0f 57 c0	 xorps	 xmm0, xmm0

; 71   :         : _Data()

  00009	8d 46 04	 lea	 eax, DWORD PTR [esi+4]

; 73   :         __std_exception_copy(&_Other._Data, &_Data);

  0000c	50		 push	 eax
  0000d	c7 06 00 00 00
	00		 mov	 DWORD PTR [esi], OFFSET ??_7exception@std@@6B@
  00013	66 0f d6 00	 movq	 QWORD PTR [eax], xmm0
  00017	8b 45 08	 mov	 eax, DWORD PTR ___that$[ebp]
  0001a	83 c0 04	 add	 eax, 4
  0001d	50		 push	 eax
  0001e	e8 00 00 00 00	 call	 ___std_exception_copy
  00023	83 c4 08	 add	 esp, 8
  00026	c7 06 00 00 00
	00		 mov	 DWORD PTR [esi], OFFSET ??_7bad_alloc@std@@6B@
  0002c	8b c6		 mov	 eax, esi
  0002e	5e		 pop	 esi
  0002f	5d		 pop	 ebp
  00030	c2 04 00	 ret	 4
??0bad_alloc@std@@QAE@ABV01@@Z ENDP			; std::bad_alloc::bad_alloc
_TEXT	ENDS
; Function compile flags: /Ogtp
; File C:\Program Files (x86)\Microsoft Visual Studio\2019\Professional\VC\Tools\MSVC\14.29.30133\include\vcruntime_exception.h
;	COMDAT ??_Gexception@std@@UAEPAXI@Z
_TEXT	SEGMENT
___flags$ = 8						; size = 4
??_Gexception@std@@UAEPAXI@Z PROC			; std::exception::`scalar deleting destructor', COMDAT
; _this$ = ecx
  00000	55		 push	 ebp
  00001	8b ec		 mov	 ebp, esp

; 89   :     {

  00003	56		 push	 esi
  00004	8b f1		 mov	 esi, ecx

; 90   :         __std_exception_destroy(&_Data);

  00006	8d 46 04	 lea	 eax, DWORD PTR [esi+4]
  00009	c7 06 00 00 00
	00		 mov	 DWORD PTR [esi], OFFSET ??_7exception@std@@6B@
  0000f	50		 push	 eax
  00010	e8 00 00 00 00	 call	 ___std_exception_destroy
  00015	83 c4 04	 add	 esp, 4
  00018	f6 45 08 01	 test	 BYTE PTR ___flags$[ebp], 1
  0001c	74 0b		 je	 SHORT $LN6@scalar
  0001e	6a 0c		 push	 12			; 0000000cH
  00020	56		 push	 esi
  00021	e8 00 00 00 00	 call	 ??3@YAXPAXI@Z		; operator delete
  00026	83 c4 08	 add	 esp, 8
$LN6@scalar:
  00029	8b c6		 mov	 eax, esi
  0002b	5e		 pop	 esi
  0002c	5d		 pop	 ebp
  0002d	c2 04 00	 ret	 4
??_Gexception@std@@UAEPAXI@Z ENDP			; std::exception::`scalar deleting destructor'
_TEXT	ENDS
; Function compile flags: /Ogtp
; File C:\Program Files (x86)\Microsoft Visual Studio\2019\Professional\VC\Tools\MSVC\14.29.30133\include\vcruntime_exception.h
;	COMDAT ?what@exception@std@@UBEPBDXZ
_TEXT	SEGMENT
?what@exception@std@@UBEPBDXZ PROC			; std::exception::what, COMDAT
; _this$ = ecx

; 95   :         return _Data._What ? _Data._What : "Unknown exception";

  00000	8b 49 04	 mov	 ecx, DWORD PTR [ecx+4]
  00003	b8 00 00 00 00	 mov	 eax, OFFSET ??_C@_0BC@EOODALEL@Unknown?5exception@
  00008	85 c9		 test	 ecx, ecx
  0000a	0f 45 c1	 cmovne	 eax, ecx

; 96   :     }

  0000d	c3		 ret	 0
?what@exception@std@@UBEPBDXZ ENDP			; std::exception::what
_TEXT	ENDS
; Function compile flags: /Ogtp
; File C:\Program Files (x86)\Microsoft Visual Studio\2019\Professional\VC\Tools\MSVC\14.29.30133\include\vcruntime_exception.h
;	COMDAT ??1exception@std@@UAE@XZ
_TEXT	SEGMENT
??1exception@std@@UAE@XZ PROC				; std::exception::~exception, COMDAT
; _this$ = ecx

; 90   :         __std_exception_destroy(&_Data);

  00000	8d 41 04	 lea	 eax, DWORD PTR [ecx+4]
  00003	c7 01 00 00 00
	00		 mov	 DWORD PTR [ecx], OFFSET ??_7exception@std@@6B@
  00009	50		 push	 eax
  0000a	e8 00 00 00 00	 call	 ___std_exception_destroy
  0000f	59		 pop	 ecx

; 91   :     }

  00010	c3		 ret	 0
??1exception@std@@UAE@XZ ENDP				; std::exception::~exception
_TEXT	ENDS
; Function compile flags: /Ogtp
; File C:\Program Files (x86)\Microsoft Visual Studio\2019\Professional\VC\Tools\MSVC\14.29.30133\include\vcruntime_exception.h
;	COMDAT ??0exception@std@@QAE@ABV01@@Z
_TEXT	SEGMENT
__Other$ = 8						; size = 4
??0exception@std@@QAE@ABV01@@Z PROC			; std::exception::exception, COMDAT
; _this$ = ecx

; 72   :     {

  00000	55		 push	 ebp
  00001	8b ec		 mov	 ebp, esp
  00003	56		 push	 esi
  00004	8b f1		 mov	 esi, ecx
  00006	0f 57 c0	 xorps	 xmm0, xmm0
  00009	8d 46 04	 lea	 eax, DWORD PTR [esi+4]

; 73   :         __std_exception_copy(&_Other._Data, &_Data);

  0000c	50		 push	 eax
  0000d	c7 06 00 00 00
	00		 mov	 DWORD PTR [esi], OFFSET ??_7exception@std@@6B@
  00013	66 0f d6 00	 movq	 QWORD PTR [eax], xmm0
  00017	8b 45 08	 mov	 eax, DWORD PTR __Other$[ebp]
  0001a	83 c0 04	 add	 eax, 4
  0001d	50		 push	 eax
  0001e	e8 00 00 00 00	 call	 ___std_exception_copy
  00023	83 c4 08	 add	 esp, 8

; 74   :     }

  00026	8b c6		 mov	 eax, esi
  00028	5e		 pop	 esi
  00029	5d		 pop	 ebp
  0002a	c2 04 00	 ret	 4
??0exception@std@@QAE@ABV01@@Z ENDP			; std::exception::exception
_TEXT	ENDS
END
