; Listing generated by Microsoft (R) Optimizing Compiler Version 19.29.30137.0 

	TITLE	C:\Users\murat\Desktop\Siveps2-1-99-Project\source\client\Client\GameLib\Distribute\ActorInstanceBattle.obj
	.686P
	.XMM
	include listing.inc
	.model	flat

INCLUDELIB LIBCMT
INCLUDELIB OLDNAMES

PUBLIC	??_7?$CDynamicPoolEx@VCTextureAnimationCWDecorator@NEffectUpdateDecorator@@@@6B@ ; CDynamicPoolEx<NEffectUpdateDecorator::CTextureAnimationCWDecorator>::`vftable'
PUBLIC	??_G?$CDynamicPoolEx@VCTextureAnimationCWDecorator@NEffectUpdateDecorator@@@@UAEPAXI@Z ; CDynamicPoolEx<NEffectUpdateDecorator::CTextureAnimationCWDecorator>::`scalar deleting destructor'
PUBLIC	??_7?$CDynamicPoolEx@VCNullDecorator@NEffectUpdateDecorator@@@@6B@ ; CDynamicPoolEx<NEffectUpdateDecorator::CNullDecorator>::`vftable'
PUBLIC	??_G?$CDynamicPoolEx@VCNullDecorator@NEffectUpdateDecorator@@@@UAEPAXI@Z ; CDynamicPoolEx<NEffectUpdateDecorator::CNullDecorator>::`scalar deleting destructor'
PUBLIC	??_R4?$CDynamicPoolEx@VCHeaderDecorator@NEffectUpdateDecorator@@@@6B@ ; CDynamicPoolEx<NEffectUpdateDecorator::CHeaderDecorator>::`RTTI Complete Object Locator'
PUBLIC	??_R0?AV?$CDynamicPoolEx@VCHeaderDecorator@NEffectUpdateDecorator@@@@@8 ; CDynamicPoolEx<NEffectUpdateDecorator::CHeaderDecorator> `RTTI Type Descriptor'
PUBLIC	??_R3?$CDynamicPoolEx@VCHeaderDecorator@NEffectUpdateDecorator@@@@8 ; CDynamicPoolEx<NEffectUpdateDecorator::CHeaderDecorator>::`RTTI Class Hierarchy Descriptor'
PUBLIC	??_R2?$CDynamicPoolEx@VCHeaderDecorator@NEffectUpdateDecorator@@@@8 ; CDynamicPoolEx<NEffectUpdateDecorator::CHeaderDecorator>::`RTTI Base Class Array'
PUBLIC	??_R1A@?0A@EA@?$CDynamicPoolEx@VCHeaderDecorator@NEffectUpdateDecorator@@@@8 ; CDynamicPoolEx<NEffectUpdateDecorator::CHeaderDecorator>::`RTTI Base Class Descriptor at (0,-1,0,64)'
PUBLIC	??_7?$CDynamicPoolEx@VCHeaderDecorator@NEffectUpdateDecorator@@@@6B@ ; CDynamicPoolEx<NEffectUpdateDecorator::CHeaderDecorator>::`vftable'
PUBLIC	??_G?$CDynamicPoolEx@VCHeaderDecorator@NEffectUpdateDecorator@@@@UAEPAXI@Z ; CDynamicPoolEx<NEffectUpdateDecorator::CHeaderDecorator>::`scalar deleting destructor'
PUBLIC	??_R4?$CDynamicPoolEx@VCNullDecorator@NEffectUpdateDecorator@@@@6B@ ; CDynamicPoolEx<NEffectUpdateDecorator::CNullDecorator>::`RTTI Complete Object Locator'
PUBLIC	??_R0?AV?$CDynamicPoolEx@VCNullDecorator@NEffectUpdateDecorator@@@@@8 ; CDynamicPoolEx<NEffectUpdateDecorator::CNullDecorator> `RTTI Type Descriptor'
PUBLIC	??_R3?$CDynamicPoolEx@VCNullDecorator@NEffectUpdateDecorator@@@@8 ; CDynamicPoolEx<NEffectUpdateDecorator::CNullDecorator>::`RTTI Class Hierarchy Descriptor'
PUBLIC	??_R2?$CDynamicPoolEx@VCNullDecorator@NEffectUpdateDecorator@@@@8 ; CDynamicPoolEx<NEffectUpdateDecorator::CNullDecorator>::`RTTI Base Class Array'
PUBLIC	??_R1A@?0A@EA@?$CDynamicPoolEx@VCNullDecorator@NEffectUpdateDecorator@@@@8 ; CDynamicPoolEx<NEffectUpdateDecorator::CNullDecorator>::`RTTI Base Class Descriptor at (0,-1,0,64)'
PUBLIC	??_R4?$CDynamicPoolEx@VCTextureAnimationCWDecorator@NEffectUpdateDecorator@@@@6B@ ; CDynamicPoolEx<NEffectUpdateDecorator::CTextureAnimationCWDecorator>::`RTTI Complete Object Locator'
PUBLIC	??_R0?AV?$CDynamicPoolEx@VCTextureAnimationCWDecorator@NEffectUpdateDecorator@@@@@8 ; CDynamicPoolEx<NEffectUpdateDecorator::CTextureAnimationCWDecorator> `RTTI Type Descriptor'
PUBLIC	??_R3?$CDynamicPoolEx@VCTextureAnimationCWDecorator@NEffectUpdateDecorator@@@@8 ; CDynamicPoolEx<NEffectUpdateDecorator::CTextureAnimationCWDecorator>::`RTTI Class Hierarchy Descriptor'
PUBLIC	??_R2?$CDynamicPoolEx@VCTextureAnimationCWDecorator@NEffectUpdateDecorator@@@@8 ; CDynamicPoolEx<NEffectUpdateDecorator::CTextureAnimationCWDecorator>::`RTTI Base Class Array'
PUBLIC	??_R1A@?0A@EA@?$CDynamicPoolEx@VCTextureAnimationCWDecorator@NEffectUpdateDecorator@@@@8 ; CDynamicPoolEx<NEffectUpdateDecorator::CTextureAnimationCWDecorator>::`RTTI Base Class Descriptor at (0,-1,0,64)'
PUBLIC	??_R4?$CDynamicPoolEx@VCTextureAnimationCCWDecorator@NEffectUpdateDecorator@@@@6B@ ; CDynamicPoolEx<NEffectUpdateDecorator::CTextureAnimationCCWDecorator>::`RTTI Complete Object Locator'
PUBLIC	??_R0?AV?$CDynamicPoolEx@VCTextureAnimationCCWDecorator@NEffectUpdateDecorator@@@@@8 ; CDynamicPoolEx<NEffectUpdateDecorator::CTextureAnimationCCWDecorator> `RTTI Type Descriptor'
PUBLIC	??_R3?$CDynamicPoolEx@VCTextureAnimationCCWDecorator@NEffectUpdateDecorator@@@@8 ; CDynamicPoolEx<NEffectUpdateDecorator::CTextureAnimationCCWDecorator>::`RTTI Class Hierarchy Descriptor'
PUBLIC	??_R2?$CDynamicPoolEx@VCTextureAnimationCCWDecorator@NEffectUpdateDecorator@@@@8 ; CDynamicPoolEx<NEffectUpdateDecorator::CTextureAnimationCCWDecorator>::`RTTI Base Class Array'
PUBLIC	??_R1A@?0A@EA@?$CDynamicPoolEx@VCTextureAnimationCCWDecorator@NEffectUpdateDecorator@@@@8 ; CDynamicPoolEx<NEffectUpdateDecorator::CTextureAnimationCCWDecorator>::`RTTI Base Class Descriptor at (0,-1,0,64)'
PUBLIC	??_R4?$CDynamicPoolEx@VCTextureAnimationRandomDecorator@NEffectUpdateDecorator@@@@6B@ ; CDynamicPoolEx<NEffectUpdateDecorator::CTextureAnimationRandomDecorator>::`RTTI Complete Object Locator'
PUBLIC	??_R0?AV?$CDynamicPoolEx@VCTextureAnimationRandomDecorator@NEffectUpdateDecorator@@@@@8 ; CDynamicPoolEx<NEffectUpdateDecorator::CTextureAnimationRandomDecorator> `RTTI Type Descriptor'
PUBLIC	??_R3?$CDynamicPoolEx@VCTextureAnimationRandomDecorator@NEffectUpdateDecorator@@@@8 ; CDynamicPoolEx<NEffectUpdateDecorator::CTextureAnimationRandomDecorator>::`RTTI Class Hierarchy Descriptor'
PUBLIC	??_R2?$CDynamicPoolEx@VCTextureAnimationRandomDecorator@NEffectUpdateDecorator@@@@8 ; CDynamicPoolEx<NEffectUpdateDecorator::CTextureAnimationRandomDecorator>::`RTTI Base Class Array'
PUBLIC	??_R1A@?0A@EA@?$CDynamicPoolEx@VCTextureAnimationRandomDecorator@NEffectUpdateDecorator@@@@8 ; CDynamicPoolEx<NEffectUpdateDecorator::CTextureAnimationRandomDecorator>::`RTTI Base Class Descriptor at (0,-1,0,64)'
PUBLIC	??_R4?$CDynamicPoolEx@VCAirResistanceDecorator@NEffectUpdateDecorator@@@@6B@ ; CDynamicPoolEx<NEffectUpdateDecorator::CAirResistanceDecorator>::`RTTI Complete Object Locator'
PUBLIC	??_R0?AV?$CDynamicPoolEx@VCAirResistanceDecorator@NEffectUpdateDecorator@@@@@8 ; CDynamicPoolEx<NEffectUpdateDecorator::CAirResistanceDecorator> `RTTI Type Descriptor'
PUBLIC	??_R3?$CDynamicPoolEx@VCAirResistanceDecorator@NEffectUpdateDecorator@@@@8 ; CDynamicPoolEx<NEffectUpdateDecorator::CAirResistanceDecorator>::`RTTI Class Hierarchy Descriptor'
PUBLIC	??_R2?$CDynamicPoolEx@VCAirResistanceDecorator@NEffectUpdateDecorator@@@@8 ; CDynamicPoolEx<NEffectUpdateDecorator::CAirResistanceDecorator>::`RTTI Base Class Array'
PUBLIC	??_R1A@?0A@EA@?$CDynamicPoolEx@VCAirResistanceDecorator@NEffectUpdateDecorator@@@@8 ; CDynamicPoolEx<NEffectUpdateDecorator::CAirResistanceDecorator>::`RTTI Base Class Descriptor at (0,-1,0,64)'
PUBLIC	??_R4?$CDynamicPoolEx@VCGravityDecorator@NEffectUpdateDecorator@@@@6B@ ; CDynamicPoolEx<NEffectUpdateDecorator::CGravityDecorator>::`RTTI Complete Object Locator'
PUBLIC	??_R0?AV?$CDynamicPoolEx@VCGravityDecorator@NEffectUpdateDecorator@@@@@8 ; CDynamicPoolEx<NEffectUpdateDecorator::CGravityDecorator> `RTTI Type Descriptor'
PUBLIC	??_R3?$CDynamicPoolEx@VCGravityDecorator@NEffectUpdateDecorator@@@@8 ; CDynamicPoolEx<NEffectUpdateDecorator::CGravityDecorator>::`RTTI Class Hierarchy Descriptor'
PUBLIC	??_R2?$CDynamicPoolEx@VCGravityDecorator@NEffectUpdateDecorator@@@@8 ; CDynamicPoolEx<NEffectUpdateDecorator::CGravityDecorator>::`RTTI Base Class Array'
PUBLIC	??_R1A@?0A@EA@?$CDynamicPoolEx@VCGravityDecorator@NEffectUpdateDecorator@@@@8 ; CDynamicPoolEx<NEffectUpdateDecorator::CGravityDecorator>::`RTTI Base Class Descriptor at (0,-1,0,64)'
PUBLIC	??_R4?$CDynamicPoolEx@VCRotationDecorator@NEffectUpdateDecorator@@@@6B@ ; CDynamicPoolEx<NEffectUpdateDecorator::CRotationDecorator>::`RTTI Complete Object Locator'
PUBLIC	??_R0?AV?$CDynamicPoolEx@VCRotationDecorator@NEffectUpdateDecorator@@@@@8 ; CDynamicPoolEx<NEffectUpdateDecorator::CRotationDecorator> `RTTI Type Descriptor'
PUBLIC	??_R3?$CDynamicPoolEx@VCRotationDecorator@NEffectUpdateDecorator@@@@8 ; CDynamicPoolEx<NEffectUpdateDecorator::CRotationDecorator>::`RTTI Class Hierarchy Descriptor'
PUBLIC	??_R2?$CDynamicPoolEx@VCRotationDecorator@NEffectUpdateDecorator@@@@8 ; CDynamicPoolEx<NEffectUpdateDecorator::CRotationDecorator>::`RTTI Base Class Array'
PUBLIC	??_R1A@?0A@EA@?$CDynamicPoolEx@VCRotationDecorator@NEffectUpdateDecorator@@@@8 ; CDynamicPoolEx<NEffectUpdateDecorator::CRotationDecorator>::`RTTI Base Class Descriptor at (0,-1,0,64)'
PUBLIC	??_7?$CDynamicPoolEx@VCRotationDecorator@NEffectUpdateDecorator@@@@6B@ ; CDynamicPoolEx<NEffectUpdateDecorator::CRotationDecorator>::`vftable'
PUBLIC	??_G?$CDynamicPoolEx@VCRotationDecorator@NEffectUpdateDecorator@@@@UAEPAXI@Z ; CDynamicPoolEx<NEffectUpdateDecorator::CRotationDecorator>::`scalar deleting destructor'
PUBLIC	??_7?$CDynamicPoolEx@VCGravityDecorator@NEffectUpdateDecorator@@@@6B@ ; CDynamicPoolEx<NEffectUpdateDecorator::CGravityDecorator>::`vftable'
PUBLIC	??_G?$CDynamicPoolEx@VCGravityDecorator@NEffectUpdateDecorator@@@@UAEPAXI@Z ; CDynamicPoolEx<NEffectUpdateDecorator::CGravityDecorator>::`scalar deleting destructor'
PUBLIC	??_7?$CDynamicPoolEx@VCAirResistanceDecorator@NEffectUpdateDecorator@@@@6B@ ; CDynamicPoolEx<NEffectUpdateDecorator::CAirResistanceDecorator>::`vftable'
PUBLIC	??_G?$CDynamicPoolEx@VCAirResistanceDecorator@NEffectUpdateDecorator@@@@UAEPAXI@Z ; CDynamicPoolEx<NEffectUpdateDecorator::CAirResistanceDecorator>::`scalar deleting destructor'
PUBLIC	??_7?$CDynamicPoolEx@VCTextureAnimationRandomDecorator@NEffectUpdateDecorator@@@@6B@ ; CDynamicPoolEx<NEffectUpdateDecorator::CTextureAnimationRandomDecorator>::`vftable'
PUBLIC	??_G?$CDynamicPoolEx@VCTextureAnimationRandomDecorator@NEffectUpdateDecorator@@@@UAEPAXI@Z ; CDynamicPoolEx<NEffectUpdateDecorator::CTextureAnimationRandomDecorator>::`scalar deleting destructor'
PUBLIC	??_7?$CDynamicPoolEx@VCTextureAnimationCCWDecorator@NEffectUpdateDecorator@@@@6B@ ; CDynamicPoolEx<NEffectUpdateDecorator::CTextureAnimationCCWDecorator>::`vftable'
PUBLIC	??_G?$CDynamicPoolEx@VCTextureAnimationCCWDecorator@NEffectUpdateDecorator@@@@UAEPAXI@Z ; CDynamicPoolEx<NEffectUpdateDecorator::CTextureAnimationCCWDecorator>::`scalar deleting destructor'
EXTRN	??_E?$CDynamicPoolEx@VCTextureAnimationCWDecorator@NEffectUpdateDecorator@@@@UAEPAXI@Z:PROC ; CDynamicPoolEx<NEffectUpdateDecorator::CTextureAnimationCWDecorator>::`vector deleting destructor'
EXTRN	??_E?$CDynamicPoolEx@VCNullDecorator@NEffectUpdateDecorator@@@@UAEPAXI@Z:PROC ; CDynamicPoolEx<NEffectUpdateDecorator::CNullDecorator>::`vector deleting destructor'
EXTRN	??_7type_info@@6B@:QWORD			; type_info::`vftable'
EXTRN	??_E?$CDynamicPoolEx@VCHeaderDecorator@NEffectUpdateDecorator@@@@UAEPAXI@Z:PROC ; CDynamicPoolEx<NEffectUpdateDecorator::CHeaderDecorator>::`vector deleting destructor'
EXTRN	??_E?$CDynamicPoolEx@VCRotationDecorator@NEffectUpdateDecorator@@@@UAEPAXI@Z:PROC ; CDynamicPoolEx<NEffectUpdateDecorator::CRotationDecorator>::`vector deleting destructor'
EXTRN	??_E?$CDynamicPoolEx@VCGravityDecorator@NEffectUpdateDecorator@@@@UAEPAXI@Z:PROC ; CDynamicPoolEx<NEffectUpdateDecorator::CGravityDecorator>::`vector deleting destructor'
EXTRN	??_E?$CDynamicPoolEx@VCAirResistanceDecorator@NEffectUpdateDecorator@@@@UAEPAXI@Z:PROC ; CDynamicPoolEx<NEffectUpdateDecorator::CAirResistanceDecorator>::`vector deleting destructor'
EXTRN	??_E?$CDynamicPoolEx@VCTextureAnimationRandomDecorator@NEffectUpdateDecorator@@@@UAEPAXI@Z:PROC ; CDynamicPoolEx<NEffectUpdateDecorator::CTextureAnimationRandomDecorator>::`vector deleting destructor'
EXTRN	??_E?$CDynamicPoolEx@VCTextureAnimationCCWDecorator@NEffectUpdateDecorator@@@@UAEPAXI@Z:PROC ; CDynamicPoolEx<NEffectUpdateDecorator::CTextureAnimationCCWDecorator>::`vector deleting destructor'
;	COMDAT ??_7?$CDynamicPoolEx@VCTextureAnimationCCWDecorator@NEffectUpdateDecorator@@@@6B@
CONST	SEGMENT
??_7?$CDynamicPoolEx@VCTextureAnimationCCWDecorator@NEffectUpdateDecorator@@@@6B@ DD FLAT:??_R4?$CDynamicPoolEx@VCTextureAnimationCCWDecorator@NEffectUpdateDecorator@@@@6B@ ; CDynamicPoolEx<NEffectUpdateDecorator::CTextureAnimationCCWDecorator>::`vftable'
	DD	FLAT:??_E?$CDynamicPoolEx@VCTextureAnimationCCWDecorator@NEffectUpdateDecorator@@@@UAEPAXI@Z
CONST	ENDS
;	COMDAT ??_7?$CDynamicPoolEx@VCTextureAnimationRandomDecorator@NEffectUpdateDecorator@@@@6B@
CONST	SEGMENT
??_7?$CDynamicPoolEx@VCTextureAnimationRandomDecorator@NEffectUpdateDecorator@@@@6B@ DD FLAT:??_R4?$CDynamicPoolEx@VCTextureAnimationRandomDecorator@NEffectUpdateDecorator@@@@6B@ ; CDynamicPoolEx<NEffectUpdateDecorator::CTextureAnimationRandomDecorator>::`vftable'
	DD	FLAT:??_E?$CDynamicPoolEx@VCTextureAnimationRandomDecorator@NEffectUpdateDecorator@@@@UAEPAXI@Z
CONST	ENDS
;	COMDAT ??_7?$CDynamicPoolEx@VCAirResistanceDecorator@NEffectUpdateDecorator@@@@6B@
CONST	SEGMENT
??_7?$CDynamicPoolEx@VCAirResistanceDecorator@NEffectUpdateDecorator@@@@6B@ DD FLAT:??_R4?$CDynamicPoolEx@VCAirResistanceDecorator@NEffectUpdateDecorator@@@@6B@ ; CDynamicPoolEx<NEffectUpdateDecorator::CAirResistanceDecorator>::`vftable'
	DD	FLAT:??_E?$CDynamicPoolEx@VCAirResistanceDecorator@NEffectUpdateDecorator@@@@UAEPAXI@Z
CONST	ENDS
;	COMDAT ??_7?$CDynamicPoolEx@VCGravityDecorator@NEffectUpdateDecorator@@@@6B@
CONST	SEGMENT
??_7?$CDynamicPoolEx@VCGravityDecorator@NEffectUpdateDecorator@@@@6B@ DD FLAT:??_R4?$CDynamicPoolEx@VCGravityDecorator@NEffectUpdateDecorator@@@@6B@ ; CDynamicPoolEx<NEffectUpdateDecorator::CGravityDecorator>::`vftable'
	DD	FLAT:??_E?$CDynamicPoolEx@VCGravityDecorator@NEffectUpdateDecorator@@@@UAEPAXI@Z
CONST	ENDS
;	COMDAT ??_7?$CDynamicPoolEx@VCRotationDecorator@NEffectUpdateDecorator@@@@6B@
CONST	SEGMENT
??_7?$CDynamicPoolEx@VCRotationDecorator@NEffectUpdateDecorator@@@@6B@ DD FLAT:??_R4?$CDynamicPoolEx@VCRotationDecorator@NEffectUpdateDecorator@@@@6B@ ; CDynamicPoolEx<NEffectUpdateDecorator::CRotationDecorator>::`vftable'
	DD	FLAT:??_E?$CDynamicPoolEx@VCRotationDecorator@NEffectUpdateDecorator@@@@UAEPAXI@Z
CONST	ENDS
CONST	SEGMENT
?_Fake_alloc@std@@3U_Fake_allocator@1@B	ORG $+1		; std::_Fake_alloc
CONST	ENDS
;	COMDAT ??_R1A@?0A@EA@?$CDynamicPoolEx@VCRotationDecorator@NEffectUpdateDecorator@@@@8
rdata$r	SEGMENT
??_R1A@?0A@EA@?$CDynamicPoolEx@VCRotationDecorator@NEffectUpdateDecorator@@@@8 DD FLAT:??_R0?AV?$CDynamicPoolEx@VCRotationDecorator@NEffectUpdateDecorator@@@@@8 ; CDynamicPoolEx<NEffectUpdateDecorator::CRotationDecorator>::`RTTI Base Class Descriptor at (0,-1,0,64)'
	DD	00H
	DD	00H
	DD	0ffffffffH
	DD	00H
	DD	040H
	DD	FLAT:??_R3?$CDynamicPoolEx@VCRotationDecorator@NEffectUpdateDecorator@@@@8
rdata$r	ENDS
;	COMDAT ??_R2?$CDynamicPoolEx@VCRotationDecorator@NEffectUpdateDecorator@@@@8
rdata$r	SEGMENT
??_R2?$CDynamicPoolEx@VCRotationDecorator@NEffectUpdateDecorator@@@@8 DD FLAT:??_R1A@?0A@EA@?$CDynamicPoolEx@VCRotationDecorator@NEffectUpdateDecorator@@@@8 ; CDynamicPoolEx<NEffectUpdateDecorator::CRotationDecorator>::`RTTI Base Class Array'
rdata$r	ENDS
;	COMDAT ??_R3?$CDynamicPoolEx@VCRotationDecorator@NEffectUpdateDecorator@@@@8
rdata$r	SEGMENT
??_R3?$CDynamicPoolEx@VCRotationDecorator@NEffectUpdateDecorator@@@@8 DD 00H ; CDynamicPoolEx<NEffectUpdateDecorator::CRotationDecorator>::`RTTI Class Hierarchy Descriptor'
	DD	00H
	DD	01H
	DD	FLAT:??_R2?$CDynamicPoolEx@VCRotationDecorator@NEffectUpdateDecorator@@@@8
rdata$r	ENDS
;	COMDAT ??_R0?AV?$CDynamicPoolEx@VCRotationDecorator@NEffectUpdateDecorator@@@@@8
data$rs	SEGMENT
??_R0?AV?$CDynamicPoolEx@VCRotationDecorator@NEffectUpdateDecorator@@@@@8 DD FLAT:??_7type_info@@6B@ ; CDynamicPoolEx<NEffectUpdateDecorator::CRotationDecorator> `RTTI Type Descriptor'
	DD	00H
	DB	'.?AV?$CDynamicPoolEx@VCRotationDecorator@NEffectUpdateDe'
	DB	'corator@@@@', 00H
data$rs	ENDS
;	COMDAT ??_R4?$CDynamicPoolEx@VCRotationDecorator@NEffectUpdateDecorator@@@@6B@
rdata$r	SEGMENT
??_R4?$CDynamicPoolEx@VCRotationDecorator@NEffectUpdateDecorator@@@@6B@ DD 00H ; CDynamicPoolEx<NEffectUpdateDecorator::CRotationDecorator>::`RTTI Complete Object Locator'
	DD	00H
	DD	00H
	DD	FLAT:??_R0?AV?$CDynamicPoolEx@VCRotationDecorator@NEffectUpdateDecorator@@@@@8
	DD	FLAT:??_R3?$CDynamicPoolEx@VCRotationDecorator@NEffectUpdateDecorator@@@@8
rdata$r	ENDS
;	COMDAT ??_R1A@?0A@EA@?$CDynamicPoolEx@VCGravityDecorator@NEffectUpdateDecorator@@@@8
rdata$r	SEGMENT
??_R1A@?0A@EA@?$CDynamicPoolEx@VCGravityDecorator@NEffectUpdateDecorator@@@@8 DD FLAT:??_R0?AV?$CDynamicPoolEx@VCGravityDecorator@NEffectUpdateDecorator@@@@@8 ; CDynamicPoolEx<NEffectUpdateDecorator::CGravityDecorator>::`RTTI Base Class Descriptor at (0,-1,0,64)'
	DD	00H
	DD	00H
	DD	0ffffffffH
	DD	00H
	DD	040H
	DD	FLAT:??_R3?$CDynamicPoolEx@VCGravityDecorator@NEffectUpdateDecorator@@@@8
rdata$r	ENDS
;	COMDAT ??_R2?$CDynamicPoolEx@VCGravityDecorator@NEffectUpdateDecorator@@@@8
rdata$r	SEGMENT
??_R2?$CDynamicPoolEx@VCGravityDecorator@NEffectUpdateDecorator@@@@8 DD FLAT:??_R1A@?0A@EA@?$CDynamicPoolEx@VCGravityDecorator@NEffectUpdateDecorator@@@@8 ; CDynamicPoolEx<NEffectUpdateDecorator::CGravityDecorator>::`RTTI Base Class Array'
rdata$r	ENDS
;	COMDAT ??_R3?$CDynamicPoolEx@VCGravityDecorator@NEffectUpdateDecorator@@@@8
rdata$r	SEGMENT
??_R3?$CDynamicPoolEx@VCGravityDecorator@NEffectUpdateDecorator@@@@8 DD 00H ; CDynamicPoolEx<NEffectUpdateDecorator::CGravityDecorator>::`RTTI Class Hierarchy Descriptor'
	DD	00H
	DD	01H
	DD	FLAT:??_R2?$CDynamicPoolEx@VCGravityDecorator@NEffectUpdateDecorator@@@@8
rdata$r	ENDS
;	COMDAT ??_R0?AV?$CDynamicPoolEx@VCGravityDecorator@NEffectUpdateDecorator@@@@@8
data$rs	SEGMENT
??_R0?AV?$CDynamicPoolEx@VCGravityDecorator@NEffectUpdateDecorator@@@@@8 DD FLAT:??_7type_info@@6B@ ; CDynamicPoolEx<NEffectUpdateDecorator::CGravityDecorator> `RTTI Type Descriptor'
	DD	00H
	DB	'.?AV?$CDynamicPoolEx@VCGravityDecorator@NEffectUpdateDec'
	DB	'orator@@@@', 00H
data$rs	ENDS
;	COMDAT ??_R4?$CDynamicPoolEx@VCGravityDecorator@NEffectUpdateDecorator@@@@6B@
rdata$r	SEGMENT
??_R4?$CDynamicPoolEx@VCGravityDecorator@NEffectUpdateDecorator@@@@6B@ DD 00H ; CDynamicPoolEx<NEffectUpdateDecorator::CGravityDecorator>::`RTTI Complete Object Locator'
	DD	00H
	DD	00H
	DD	FLAT:??_R0?AV?$CDynamicPoolEx@VCGravityDecorator@NEffectUpdateDecorator@@@@@8
	DD	FLAT:??_R3?$CDynamicPoolEx@VCGravityDecorator@NEffectUpdateDecorator@@@@8
rdata$r	ENDS
;	COMDAT ??_R1A@?0A@EA@?$CDynamicPoolEx@VCAirResistanceDecorator@NEffectUpdateDecorator@@@@8
rdata$r	SEGMENT
??_R1A@?0A@EA@?$CDynamicPoolEx@VCAirResistanceDecorator@NEffectUpdateDecorator@@@@8 DD FLAT:??_R0?AV?$CDynamicPoolEx@VCAirResistanceDecorator@NEffectUpdateDecorator@@@@@8 ; CDynamicPoolEx<NEffectUpdateDecorator::CAirResistanceDecorator>::`RTTI Base Class Descriptor at (0,-1,0,64)'
	DD	00H
	DD	00H
	DD	0ffffffffH
	DD	00H
	DD	040H
	DD	FLAT:??_R3?$CDynamicPoolEx@VCAirResistanceDecorator@NEffectUpdateDecorator@@@@8
rdata$r	ENDS
;	COMDAT ??_R2?$CDynamicPoolEx@VCAirResistanceDecorator@NEffectUpdateDecorator@@@@8
rdata$r	SEGMENT
??_R2?$CDynamicPoolEx@VCAirResistanceDecorator@NEffectUpdateDecorator@@@@8 DD FLAT:??_R1A@?0A@EA@?$CDynamicPoolEx@VCAirResistanceDecorator@NEffectUpdateDecorator@@@@8 ; CDynamicPoolEx<NEffectUpdateDecorator::CAirResistanceDecorator>::`RTTI Base Class Array'
rdata$r	ENDS
;	COMDAT ??_R3?$CDynamicPoolEx@VCAirResistanceDecorator@NEffectUpdateDecorator@@@@8
rdata$r	SEGMENT
??_R3?$CDynamicPoolEx@VCAirResistanceDecorator@NEffectUpdateDecorator@@@@8 DD 00H ; CDynamicPoolEx<NEffectUpdateDecorator::CAirResistanceDecorator>::`RTTI Class Hierarchy Descriptor'
	DD	00H
	DD	01H
	DD	FLAT:??_R2?$CDynamicPoolEx@VCAirResistanceDecorator@NEffectUpdateDecorator@@@@8
rdata$r	ENDS
;	COMDAT ??_R0?AV?$CDynamicPoolEx@VCAirResistanceDecorator@NEffectUpdateDecorator@@@@@8
data$rs	SEGMENT
??_R0?AV?$CDynamicPoolEx@VCAirResistanceDecorator@NEffectUpdateDecorator@@@@@8 DD FLAT:??_7type_info@@6B@ ; CDynamicPoolEx<NEffectUpdateDecorator::CAirResistanceDecorator> `RTTI Type Descriptor'
	DD	00H
	DB	'.?AV?$CDynamicPoolEx@VCAirResistanceDecorator@NEffectUpd'
	DB	'ateDecorator@@@@', 00H
data$rs	ENDS
;	COMDAT ??_R4?$CDynamicPoolEx@VCAirResistanceDecorator@NEffectUpdateDecorator@@@@6B@
rdata$r	SEGMENT
??_R4?$CDynamicPoolEx@VCAirResistanceDecorator@NEffectUpdateDecorator@@@@6B@ DD 00H ; CDynamicPoolEx<NEffectUpdateDecorator::CAirResistanceDecorator>::`RTTI Complete Object Locator'
	DD	00H
	DD	00H
	DD	FLAT:??_R0?AV?$CDynamicPoolEx@VCAirResistanceDecorator@NEffectUpdateDecorator@@@@@8
	DD	FLAT:??_R3?$CDynamicPoolEx@VCAirResistanceDecorator@NEffectUpdateDecorator@@@@8
rdata$r	ENDS
;	COMDAT ??_R1A@?0A@EA@?$CDynamicPoolEx@VCTextureAnimationRandomDecorator@NEffectUpdateDecorator@@@@8
rdata$r	SEGMENT
??_R1A@?0A@EA@?$CDynamicPoolEx@VCTextureAnimationRandomDecorator@NEffectUpdateDecorator@@@@8 DD FLAT:??_R0?AV?$CDynamicPoolEx@VCTextureAnimationRandomDecorator@NEffectUpdateDecorator@@@@@8 ; CDynamicPoolEx<NEffectUpdateDecorator::CTextureAnimationRandomDecorator>::`RTTI Base Class Descriptor at (0,-1,0,64)'
	DD	00H
	DD	00H
	DD	0ffffffffH
	DD	00H
	DD	040H
	DD	FLAT:??_R3?$CDynamicPoolEx@VCTextureAnimationRandomDecorator@NEffectUpdateDecorator@@@@8
rdata$r	ENDS
;	COMDAT ??_R2?$CDynamicPoolEx@VCTextureAnimationRandomDecorator@NEffectUpdateDecorator@@@@8
rdata$r	SEGMENT
??_R2?$CDynamicPoolEx@VCTextureAnimationRandomDecorator@NEffectUpdateDecorator@@@@8 DD FLAT:??_R1A@?0A@EA@?$CDynamicPoolEx@VCTextureAnimationRandomDecorator@NEffectUpdateDecorator@@@@8 ; CDynamicPoolEx<NEffectUpdateDecorator::CTextureAnimationRandomDecorator>::`RTTI Base Class Array'
rdata$r	ENDS
;	COMDAT ??_R3?$CDynamicPoolEx@VCTextureAnimationRandomDecorator@NEffectUpdateDecorator@@@@8
rdata$r	SEGMENT
??_R3?$CDynamicPoolEx@VCTextureAnimationRandomDecorator@NEffectUpdateDecorator@@@@8 DD 00H ; CDynamicPoolEx<NEffectUpdateDecorator::CTextureAnimationRandomDecorator>::`RTTI Class Hierarchy Descriptor'
	DD	00H
	DD	01H
	DD	FLAT:??_R2?$CDynamicPoolEx@VCTextureAnimationRandomDecorator@NEffectUpdateDecorator@@@@8
rdata$r	ENDS
;	COMDAT ??_R0?AV?$CDynamicPoolEx@VCTextureAnimationRandomDecorator@NEffectUpdateDecorator@@@@@8
data$rs	SEGMENT
??_R0?AV?$CDynamicPoolEx@VCTextureAnimationRandomDecorator@NEffectUpdateDecorator@@@@@8 DD FLAT:??_7type_info@@6B@ ; CDynamicPoolEx<NEffectUpdateDecorator::CTextureAnimationRandomDecorator> `RTTI Type Descriptor'
	DD	00H
	DB	'.?AV?$CDynamicPoolEx@VCTextureAnimationRandomDecorator@N'
	DB	'EffectUpdateDecorator@@@@', 00H
data$rs	ENDS
;	COMDAT ??_R4?$CDynamicPoolEx@VCTextureAnimationRandomDecorator@NEffectUpdateDecorator@@@@6B@
rdata$r	SEGMENT
??_R4?$CDynamicPoolEx@VCTextureAnimationRandomDecorator@NEffectUpdateDecorator@@@@6B@ DD 00H ; CDynamicPoolEx<NEffectUpdateDecorator::CTextureAnimationRandomDecorator>::`RTTI Complete Object Locator'
	DD	00H
	DD	00H
	DD	FLAT:??_R0?AV?$CDynamicPoolEx@VCTextureAnimationRandomDecorator@NEffectUpdateDecorator@@@@@8
	DD	FLAT:??_R3?$CDynamicPoolEx@VCTextureAnimationRandomDecorator@NEffectUpdateDecorator@@@@8
rdata$r	ENDS
;	COMDAT ??_R1A@?0A@EA@?$CDynamicPoolEx@VCTextureAnimationCCWDecorator@NEffectUpdateDecorator@@@@8
rdata$r	SEGMENT
??_R1A@?0A@EA@?$CDynamicPoolEx@VCTextureAnimationCCWDecorator@NEffectUpdateDecorator@@@@8 DD FLAT:??_R0?AV?$CDynamicPoolEx@VCTextureAnimationCCWDecorator@NEffectUpdateDecorator@@@@@8 ; CDynamicPoolEx<NEffectUpdateDecorator::CTextureAnimationCCWDecorator>::`RTTI Base Class Descriptor at (0,-1,0,64)'
	DD	00H
	DD	00H
	DD	0ffffffffH
	DD	00H
	DD	040H
	DD	FLAT:??_R3?$CDynamicPoolEx@VCTextureAnimationCCWDecorator@NEffectUpdateDecorator@@@@8
rdata$r	ENDS
;	COMDAT ??_R2?$CDynamicPoolEx@VCTextureAnimationCCWDecorator@NEffectUpdateDecorator@@@@8
rdata$r	SEGMENT
??_R2?$CDynamicPoolEx@VCTextureAnimationCCWDecorator@NEffectUpdateDecorator@@@@8 DD FLAT:??_R1A@?0A@EA@?$CDynamicPoolEx@VCTextureAnimationCCWDecorator@NEffectUpdateDecorator@@@@8 ; CDynamicPoolEx<NEffectUpdateDecorator::CTextureAnimationCCWDecorator>::`RTTI Base Class Array'
rdata$r	ENDS
;	COMDAT ??_R3?$CDynamicPoolEx@VCTextureAnimationCCWDecorator@NEffectUpdateDecorator@@@@8
rdata$r	SEGMENT
??_R3?$CDynamicPoolEx@VCTextureAnimationCCWDecorator@NEffectUpdateDecorator@@@@8 DD 00H ; CDynamicPoolEx<NEffectUpdateDecorator::CTextureAnimationCCWDecorator>::`RTTI Class Hierarchy Descriptor'
	DD	00H
	DD	01H
	DD	FLAT:??_R2?$CDynamicPoolEx@VCTextureAnimationCCWDecorator@NEffectUpdateDecorator@@@@8
rdata$r	ENDS
;	COMDAT ??_R0?AV?$CDynamicPoolEx@VCTextureAnimationCCWDecorator@NEffectUpdateDecorator@@@@@8
data$rs	SEGMENT
??_R0?AV?$CDynamicPoolEx@VCTextureAnimationCCWDecorator@NEffectUpdateDecorator@@@@@8 DD FLAT:??_7type_info@@6B@ ; CDynamicPoolEx<NEffectUpdateDecorator::CTextureAnimationCCWDecorator> `RTTI Type Descriptor'
	DD	00H
	DB	'.?AV?$CDynamicPoolEx@VCTextureAnimationCCWDecorator@NEff'
	DB	'ectUpdateDecorator@@@@', 00H
data$rs	ENDS
;	COMDAT ??_R4?$CDynamicPoolEx@VCTextureAnimationCCWDecorator@NEffectUpdateDecorator@@@@6B@
rdata$r	SEGMENT
??_R4?$CDynamicPoolEx@VCTextureAnimationCCWDecorator@NEffectUpdateDecorator@@@@6B@ DD 00H ; CDynamicPoolEx<NEffectUpdateDecorator::CTextureAnimationCCWDecorator>::`RTTI Complete Object Locator'
	DD	00H
	DD	00H
	DD	FLAT:??_R0?AV?$CDynamicPoolEx@VCTextureAnimationCCWDecorator@NEffectUpdateDecorator@@@@@8
	DD	FLAT:??_R3?$CDynamicPoolEx@VCTextureAnimationCCWDecorator@NEffectUpdateDecorator@@@@8
rdata$r	ENDS
;	COMDAT ??_R1A@?0A@EA@?$CDynamicPoolEx@VCTextureAnimationCWDecorator@NEffectUpdateDecorator@@@@8
rdata$r	SEGMENT
??_R1A@?0A@EA@?$CDynamicPoolEx@VCTextureAnimationCWDecorator@NEffectUpdateDecorator@@@@8 DD FLAT:??_R0?AV?$CDynamicPoolEx@VCTextureAnimationCWDecorator@NEffectUpdateDecorator@@@@@8 ; CDynamicPoolEx<NEffectUpdateDecorator::CTextureAnimationCWDecorator>::`RTTI Base Class Descriptor at (0,-1,0,64)'
	DD	00H
	DD	00H
	DD	0ffffffffH
	DD	00H
	DD	040H
	DD	FLAT:??_R3?$CDynamicPoolEx@VCTextureAnimationCWDecorator@NEffectUpdateDecorator@@@@8
rdata$r	ENDS
;	COMDAT ??_R2?$CDynamicPoolEx@VCTextureAnimationCWDecorator@NEffectUpdateDecorator@@@@8
rdata$r	SEGMENT
??_R2?$CDynamicPoolEx@VCTextureAnimationCWDecorator@NEffectUpdateDecorator@@@@8 DD FLAT:??_R1A@?0A@EA@?$CDynamicPoolEx@VCTextureAnimationCWDecorator@NEffectUpdateDecorator@@@@8 ; CDynamicPoolEx<NEffectUpdateDecorator::CTextureAnimationCWDecorator>::`RTTI Base Class Array'
rdata$r	ENDS
;	COMDAT ??_R3?$CDynamicPoolEx@VCTextureAnimationCWDecorator@NEffectUpdateDecorator@@@@8
rdata$r	SEGMENT
??_R3?$CDynamicPoolEx@VCTextureAnimationCWDecorator@NEffectUpdateDecorator@@@@8 DD 00H ; CDynamicPoolEx<NEffectUpdateDecorator::CTextureAnimationCWDecorator>::`RTTI Class Hierarchy Descriptor'
	DD	00H
	DD	01H
	DD	FLAT:??_R2?$CDynamicPoolEx@VCTextureAnimationCWDecorator@NEffectUpdateDecorator@@@@8
rdata$r	ENDS
;	COMDAT ??_R0?AV?$CDynamicPoolEx@VCTextureAnimationCWDecorator@NEffectUpdateDecorator@@@@@8
data$rs	SEGMENT
??_R0?AV?$CDynamicPoolEx@VCTextureAnimationCWDecorator@NEffectUpdateDecorator@@@@@8 DD FLAT:??_7type_info@@6B@ ; CDynamicPoolEx<NEffectUpdateDecorator::CTextureAnimationCWDecorator> `RTTI Type Descriptor'
	DD	00H
	DB	'.?AV?$CDynamicPoolEx@VCTextureAnimationCWDecorator@NEffe'
	DB	'ctUpdateDecorator@@@@', 00H
data$rs	ENDS
;	COMDAT ??_R4?$CDynamicPoolEx@VCTextureAnimationCWDecorator@NEffectUpdateDecorator@@@@6B@
rdata$r	SEGMENT
??_R4?$CDynamicPoolEx@VCTextureAnimationCWDecorator@NEffectUpdateDecorator@@@@6B@ DD 00H ; CDynamicPoolEx<NEffectUpdateDecorator::CTextureAnimationCWDecorator>::`RTTI Complete Object Locator'
	DD	00H
	DD	00H
	DD	FLAT:??_R0?AV?$CDynamicPoolEx@VCTextureAnimationCWDecorator@NEffectUpdateDecorator@@@@@8
	DD	FLAT:??_R3?$CDynamicPoolEx@VCTextureAnimationCWDecorator@NEffectUpdateDecorator@@@@8
rdata$r	ENDS
;	COMDAT ??_R1A@?0A@EA@?$CDynamicPoolEx@VCNullDecorator@NEffectUpdateDecorator@@@@8
rdata$r	SEGMENT
??_R1A@?0A@EA@?$CDynamicPoolEx@VCNullDecorator@NEffectUpdateDecorator@@@@8 DD FLAT:??_R0?AV?$CDynamicPoolEx@VCNullDecorator@NEffectUpdateDecorator@@@@@8 ; CDynamicPoolEx<NEffectUpdateDecorator::CNullDecorator>::`RTTI Base Class Descriptor at (0,-1,0,64)'
	DD	00H
	DD	00H
	DD	0ffffffffH
	DD	00H
	DD	040H
	DD	FLAT:??_R3?$CDynamicPoolEx@VCNullDecorator@NEffectUpdateDecorator@@@@8
rdata$r	ENDS
;	COMDAT ??_R2?$CDynamicPoolEx@VCNullDecorator@NEffectUpdateDecorator@@@@8
rdata$r	SEGMENT
??_R2?$CDynamicPoolEx@VCNullDecorator@NEffectUpdateDecorator@@@@8 DD FLAT:??_R1A@?0A@EA@?$CDynamicPoolEx@VCNullDecorator@NEffectUpdateDecorator@@@@8 ; CDynamicPoolEx<NEffectUpdateDecorator::CNullDecorator>::`RTTI Base Class Array'
rdata$r	ENDS
;	COMDAT ??_R3?$CDynamicPoolEx@VCNullDecorator@NEffectUpdateDecorator@@@@8
rdata$r	SEGMENT
??_R3?$CDynamicPoolEx@VCNullDecorator@NEffectUpdateDecorator@@@@8 DD 00H ; CDynamicPoolEx<NEffectUpdateDecorator::CNullDecorator>::`RTTI Class Hierarchy Descriptor'
	DD	00H
	DD	01H
	DD	FLAT:??_R2?$CDynamicPoolEx@VCNullDecorator@NEffectUpdateDecorator@@@@8
rdata$r	ENDS
;	COMDAT ??_R0?AV?$CDynamicPoolEx@VCNullDecorator@NEffectUpdateDecorator@@@@@8
data$rs	SEGMENT
??_R0?AV?$CDynamicPoolEx@VCNullDecorator@NEffectUpdateDecorator@@@@@8 DD FLAT:??_7type_info@@6B@ ; CDynamicPoolEx<NEffectUpdateDecorator::CNullDecorator> `RTTI Type Descriptor'
	DD	00H
	DB	'.?AV?$CDynamicPoolEx@VCNullDecorator@NEffectUpdateDecora'
	DB	'tor@@@@', 00H
data$rs	ENDS
;	COMDAT ??_R4?$CDynamicPoolEx@VCNullDecorator@NEffectUpdateDecorator@@@@6B@
rdata$r	SEGMENT
??_R4?$CDynamicPoolEx@VCNullDecorator@NEffectUpdateDecorator@@@@6B@ DD 00H ; CDynamicPoolEx<NEffectUpdateDecorator::CNullDecorator>::`RTTI Complete Object Locator'
	DD	00H
	DD	00H
	DD	FLAT:??_R0?AV?$CDynamicPoolEx@VCNullDecorator@NEffectUpdateDecorator@@@@@8
	DD	FLAT:??_R3?$CDynamicPoolEx@VCNullDecorator@NEffectUpdateDecorator@@@@8
rdata$r	ENDS
;	COMDAT ??_7?$CDynamicPoolEx@VCHeaderDecorator@NEffectUpdateDecorator@@@@6B@
CONST	SEGMENT
??_7?$CDynamicPoolEx@VCHeaderDecorator@NEffectUpdateDecorator@@@@6B@ DD FLAT:??_R4?$CDynamicPoolEx@VCHeaderDecorator@NEffectUpdateDecorator@@@@6B@ ; CDynamicPoolEx<NEffectUpdateDecorator::CHeaderDecorator>::`vftable'
	DD	FLAT:??_E?$CDynamicPoolEx@VCHeaderDecorator@NEffectUpdateDecorator@@@@UAEPAXI@Z
CONST	ENDS
;	COMDAT ??_R1A@?0A@EA@?$CDynamicPoolEx@VCHeaderDecorator@NEffectUpdateDecorator@@@@8
rdata$r	SEGMENT
??_R1A@?0A@EA@?$CDynamicPoolEx@VCHeaderDecorator@NEffectUpdateDecorator@@@@8 DD FLAT:??_R0?AV?$CDynamicPoolEx@VCHeaderDecorator@NEffectUpdateDecorator@@@@@8 ; CDynamicPoolEx<NEffectUpdateDecorator::CHeaderDecorator>::`RTTI Base Class Descriptor at (0,-1,0,64)'
	DD	00H
	DD	00H
	DD	0ffffffffH
	DD	00H
	DD	040H
	DD	FLAT:??_R3?$CDynamicPoolEx@VCHeaderDecorator@NEffectUpdateDecorator@@@@8
rdata$r	ENDS
;	COMDAT ??_R2?$CDynamicPoolEx@VCHeaderDecorator@NEffectUpdateDecorator@@@@8
rdata$r	SEGMENT
??_R2?$CDynamicPoolEx@VCHeaderDecorator@NEffectUpdateDecorator@@@@8 DD FLAT:??_R1A@?0A@EA@?$CDynamicPoolEx@VCHeaderDecorator@NEffectUpdateDecorator@@@@8 ; CDynamicPoolEx<NEffectUpdateDecorator::CHeaderDecorator>::`RTTI Base Class Array'
rdata$r	ENDS
;	COMDAT ??_R3?$CDynamicPoolEx@VCHeaderDecorator@NEffectUpdateDecorator@@@@8
rdata$r	SEGMENT
??_R3?$CDynamicPoolEx@VCHeaderDecorator@NEffectUpdateDecorator@@@@8 DD 00H ; CDynamicPoolEx<NEffectUpdateDecorator::CHeaderDecorator>::`RTTI Class Hierarchy Descriptor'
	DD	00H
	DD	01H
	DD	FLAT:??_R2?$CDynamicPoolEx@VCHeaderDecorator@NEffectUpdateDecorator@@@@8
rdata$r	ENDS
;	COMDAT ??_R0?AV?$CDynamicPoolEx@VCHeaderDecorator@NEffectUpdateDecorator@@@@@8
data$rs	SEGMENT
??_R0?AV?$CDynamicPoolEx@VCHeaderDecorator@NEffectUpdateDecorator@@@@@8 DD FLAT:??_7type_info@@6B@ ; CDynamicPoolEx<NEffectUpdateDecorator::CHeaderDecorator> `RTTI Type Descriptor'
	DD	00H
	DB	'.?AV?$CDynamicPoolEx@VCHeaderDecorator@NEffectUpdateDeco'
	DB	'rator@@@@', 00H
data$rs	ENDS
;	COMDAT ??_R4?$CDynamicPoolEx@VCHeaderDecorator@NEffectUpdateDecorator@@@@6B@
rdata$r	SEGMENT
??_R4?$CDynamicPoolEx@VCHeaderDecorator@NEffectUpdateDecorator@@@@6B@ DD 00H ; CDynamicPoolEx<NEffectUpdateDecorator::CHeaderDecorator>::`RTTI Complete Object Locator'
	DD	00H
	DD	00H
	DD	FLAT:??_R0?AV?$CDynamicPoolEx@VCHeaderDecorator@NEffectUpdateDecorator@@@@@8
	DD	FLAT:??_R3?$CDynamicPoolEx@VCHeaderDecorator@NEffectUpdateDecorator@@@@8
rdata$r	ENDS
;	COMDAT ??_7?$CDynamicPoolEx@VCNullDecorator@NEffectUpdateDecorator@@@@6B@
CONST	SEGMENT
??_7?$CDynamicPoolEx@VCNullDecorator@NEffectUpdateDecorator@@@@6B@ DD FLAT:??_R4?$CDynamicPoolEx@VCNullDecorator@NEffectUpdateDecorator@@@@6B@ ; CDynamicPoolEx<NEffectUpdateDecorator::CNullDecorator>::`vftable'
	DD	FLAT:??_E?$CDynamicPoolEx@VCNullDecorator@NEffectUpdateDecorator@@@@UAEPAXI@Z
CONST	ENDS
;	COMDAT ??_7?$CDynamicPoolEx@VCTextureAnimationCWDecorator@NEffectUpdateDecorator@@@@6B@
CONST	SEGMENT
??_7?$CDynamicPoolEx@VCTextureAnimationCWDecorator@NEffectUpdateDecorator@@@@6B@ DD FLAT:??_R4?$CDynamicPoolEx@VCTextureAnimationCWDecorator@NEffectUpdateDecorator@@@@6B@ ; CDynamicPoolEx<NEffectUpdateDecorator::CTextureAnimationCWDecorator>::`vftable'
	DD	FLAT:??_E?$CDynamicPoolEx@VCTextureAnimationCWDecorator@NEffectUpdateDecorator@@@@UAEPAXI@Z
CONST	ENDS
PUBLIC	??_H@YGXPAXIIP6EPAX0@Z@Z			; `vector constructor iterator'
PUBLIC	?__empty_global_delete@@YAXPAX@Z		; __empty_global_delete
PUBLIC	?__empty_global_delete@@YAXPAXI@Z		; __empty_global_delete
PUBLIC	?CanAct@CActorInstance@@QAE_NXZ			; CActorInstance::CanAct
PUBLIC	?CanMove@CActorInstance@@QAE_NXZ		; CActorInstance::CanMove
PUBLIC	?CanAttack@CActorInstance@@QAE_NXZ		; CActorInstance::CanAttack
PUBLIC	?CanUseSkill@CActorInstance@@QAE_NXZ		; CActorInstance::CanUseSkill
PUBLIC	?CanCheckAttacking@CActorInstance@@QAEHXZ	; CActorInstance::CanCheckAttacking
PUBLIC	?IsClickableDistanceDestInstance@CActorInstance@@QAEHAAV1@M@Z ; CActorInstance::IsClickableDistanceDestInstance
PUBLIC	?InputNormalAttackCommand@CActorInstance@@QAEXM@Z ; CActorInstance::InputNormalAttackCommand
PUBLIC	?InputComboAttackCommand@CActorInstance@@QAE_NM@Z ; CActorInstance::InputComboAttackCommand
PUBLIC	?isAttacking@CActorInstance@@QAEHXZ		; CActorInstance::isAttacking
PUBLIC	?isNormalAttacking@CActorInstance@@QAEHXZ	; CActorInstance::isNormalAttacking
PUBLIC	?isComboAttacking@CActorInstance@@QAEHXZ	; CActorInstance::isComboAttacking
PUBLIC	?IsSplashAttacking@CActorInstance@@QAEHXZ	; CActorInstance::IsSplashAttacking
PUBLIC	?IsUsingMovingSkill@CActorInstance@@QAEHXZ	; CActorInstance::IsUsingMovingSkill
PUBLIC	?IsActEmotion@CActorInstance@@QAEHXZ		; CActorInstance::IsActEmotion
PUBLIC	?GetComboIndex@CActorInstance@@QAEKXZ		; CActorInstance::GetComboIndex
PUBLIC	?GetAttackingElapsedTime@CActorInstance@@QAEMXZ	; CActorInstance::GetAttackingElapsedTime
PUBLIC	?SetBlendingPosition@CActorInstance@@QAEXABUD3DXVECTOR3@@M@Z ; CActorInstance::SetBlendingPosition
PUBLIC	?ResetBlendingPosition@CActorInstance@@QAEXXZ	; CActorInstance::ResetBlendingPosition
PUBLIC	?GetBlendingPosition@CActorInstance@@QAEXPAUD3DXVECTOR3@@@Z ; CActorInstance::GetBlendingPosition
PUBLIC	?NormalAttack@CActorInstance@@QAEHMM@Z		; CActorInstance::NormalAttack
PUBLIC	?ComboAttack@CActorInstance@@QAEHKMM@Z		; CActorInstance::ComboAttack
PUBLIC	?SetBattleHitEffect@CActorInstance@@QAEXK@Z	; CActorInstance::SetBattleHitEffect
PUBLIC	?SetBattleAttachEffect@CActorInstance@@QAEXK@Z	; CActorInstance::SetBattleAttachEffect
PUBLIC	?CanFishing@CActorInstance@@QAE_NXZ		; CActorInstance::CanFishing
PUBLIC	?OnShootDamage@CActorInstance@@UAEXXZ		; CActorInstance::OnShootDamage
PUBLIC	?ComboProcess@CActorInstance@@QAEXXZ		; CActorInstance::ComboProcess
PUBLIC	?ShakeProcess@CActorInstance@@QAEXXZ		; CActorInstance::ShakeProcess
PUBLIC	?__CanInputNormalAttackCommand@CActorInstance@@QAE_NXZ ; CActorInstance::__CanInputNormalAttackCommand
PUBLIC	?__Shake@CActorInstance@@AAEXK@Z		; CActorInstance::__Shake
PUBLIC	?__IsInSplashTime@CActorInstance@@IAE_NXZ	; CActorInstance::__IsInSplashTime
PUBLIC	?isValidAttacking@CActorInstance@@IAEHXZ	; CActorInstance::isValidAttacking
PUBLIC	?__GetOwnerTime@CActorInstance@@IAEMXZ		; CActorInstance::__GetOwnerTime
PUBLIC	?__GetOwnerVID@CActorInstance@@IAEKXZ		; CActorInstance::__GetOwnerVID
PUBLIC	?__CanPushDestActor@CActorInstance@@IAE_NAAV1@@Z ; CActorInstance::__CanPushDestActor
PUBLIC	?__RunNextCombo@CActorInstance@@IAEXXZ		; CActorInstance::__RunNextCombo
PUBLIC	?__ClearCombo@CActorInstance@@IAEXXZ		; CActorInstance::__ClearCombo
PUBLIC	?__OnEndCombo@CActorInstance@@IAEXXZ		; CActorInstance::__OnEndCombo
PUBLIC	?__ProcessDataAttackSuccess@CActorInstance@@IAEXABUSAttackData@NRaceData@@AAV1@ABUD3DXVECTOR3@@IH@Z ; CActorInstance::__ProcessDataAttackSuccess
PUBLIC	?__ProcessMotionEventAttackSuccess@CActorInstance@@IAEXKEAAV1@@Z ; CActorInstance::__ProcessMotionEventAttackSuccess
PUBLIC	?__ProcessMotionAttackSuccess@CActorInstance@@IAEXKAAV1@@Z ; CActorInstance::__ProcessMotionAttackSuccess
PUBLIC	?__HitStone@CActorInstance@@IAEXAAV1@@Z		; CActorInstance::__HitStone
PUBLIC	?__HitGood@CActorInstance@@IAEXAAV1@@Z		; CActorInstance::__HitGood
PUBLIC	?__HitGreate@CActorInstance@@IAEXAAV1@@Z	; CActorInstance::__HitGreate
PUBLIC	?__PushDirect@CActorInstance@@IAEXAAV1@@Z	; CActorInstance::__PushDirect
PUBLIC	?__PushCircle@CActorInstance@@IAEXAAV1@@Z	; CActorInstance::__PushCircle
PUBLIC	?__isInvisible@CActorInstance@@IAE_NXZ		; CActorInstance::__isInvisible
PUBLIC	?__SetFallingDirection@CActorInstance@@IAEXMM@Z	; CActorInstance::__SetFallingDirection
PUBLIC	?__IsMovingSkill@CActorInstance@@IAEHG@Z	; CActorInstance::__IsMovingSkill
PUBLIC	?IS_HUGE_RACE@@YA_NI@Z				; IS_HUGE_RACE
PUBLIC	?IS_PARTY_HUNTING_RACE@@YA_NI@Z			; IS_PARTY_HUNTING_RACE
PUBLIC	??1?$CDynamicPoolEx@VCRotationDecorator@NEffectUpdateDecorator@@@@UAE@XZ ; CDynamicPoolEx<NEffectUpdateDecorator::CRotationDecorator>::~CDynamicPoolEx<NEffectUpdateDecorator::CRotationDecorator>
PUBLIC	?Delete@?$CDynamicPoolEx@VCRotationDecorator@NEffectUpdateDecorator@@@@KAXPAVCRotationDecorator@NEffectUpdateDecorator@@@Z ; CDynamicPoolEx<NEffectUpdateDecorator::CRotationDecorator>::Delete
PUBLIC	??1?$CDynamicPoolEx@VCGravityDecorator@NEffectUpdateDecorator@@@@UAE@XZ ; CDynamicPoolEx<NEffectUpdateDecorator::CGravityDecorator>::~CDynamicPoolEx<NEffectUpdateDecorator::CGravityDecorator>
PUBLIC	?Delete@?$CDynamicPoolEx@VCGravityDecorator@NEffectUpdateDecorator@@@@KAXPAVCGravityDecorator@NEffectUpdateDecorator@@@Z ; CDynamicPoolEx<NEffectUpdateDecorator::CGravityDecorator>::Delete
PUBLIC	??1?$CDynamicPoolEx@VCAirResistanceDecorator@NEffectUpdateDecorator@@@@UAE@XZ ; CDynamicPoolEx<NEffectUpdateDecorator::CAirResistanceDecorator>::~CDynamicPoolEx<NEffectUpdateDecorator::CAirResistanceDecorator>
PUBLIC	?Delete@?$CDynamicPoolEx@VCAirResistanceDecorator@NEffectUpdateDecorator@@@@KAXPAVCAirResistanceDecorator@NEffectUpdateDecorator@@@Z ; CDynamicPoolEx<NEffectUpdateDecorator::CAirResistanceDecorator>::Delete
PUBLIC	??1?$CDynamicPoolEx@VCTextureAnimationRandomDecorator@NEffectUpdateDecorator@@@@UAE@XZ ; CDynamicPoolEx<NEffectUpdateDecorator::CTextureAnimationRandomDecorator>::~CDynamicPoolEx<NEffectUpdateDecorator::CTextureAnimationRandomDecorator>
PUBLIC	?Delete@?$CDynamicPoolEx@VCTextureAnimationRandomDecorator@NEffectUpdateDecorator@@@@KAXPAVCTextureAnimationRandomDecorator@NEffectUpdateDecorator@@@Z ; CDynamicPoolEx<NEffectUpdateDecorator::CTextureAnimationRandomDecorator>::Delete
PUBLIC	??1?$CDynamicPoolEx@VCTextureAnimationCCWDecorator@NEffectUpdateDecorator@@@@UAE@XZ ; CDynamicPoolEx<NEffectUpdateDecorator::CTextureAnimationCCWDecorator>::~CDynamicPoolEx<NEffectUpdateDecorator::CTextureAnimationCCWDecorator>
PUBLIC	?Delete@?$CDynamicPoolEx@VCTextureAnimationCCWDecorator@NEffectUpdateDecorator@@@@KAXPAVCTextureAnimationCCWDecorator@NEffectUpdateDecorator@@@Z ; CDynamicPoolEx<NEffectUpdateDecorator::CTextureAnimationCCWDecorator>::Delete
PUBLIC	??1?$CDynamicPoolEx@VCTextureAnimationCWDecorator@NEffectUpdateDecorator@@@@UAE@XZ ; CDynamicPoolEx<NEffectUpdateDecorator::CTextureAnimationCWDecorator>::~CDynamicPoolEx<NEffectUpdateDecorator::CTextureAnimationCWDecorator>
PUBLIC	?Delete@?$CDynamicPoolEx@VCTextureAnimationCWDecorator@NEffectUpdateDecorator@@@@KAXPAVCTextureAnimationCWDecorator@NEffectUpdateDecorator@@@Z ; CDynamicPoolEx<NEffectUpdateDecorator::CTextureAnimationCWDecorator>::Delete
PUBLIC	??1?$CDynamicPoolEx@VCNullDecorator@NEffectUpdateDecorator@@@@UAE@XZ ; CDynamicPoolEx<NEffectUpdateDecorator::CNullDecorator>::~CDynamicPoolEx<NEffectUpdateDecorator::CNullDecorator>
PUBLIC	?Delete@?$CDynamicPoolEx@VCNullDecorator@NEffectUpdateDecorator@@@@KAXPAVCNullDecorator@NEffectUpdateDecorator@@@Z ; CDynamicPoolEx<NEffectUpdateDecorator::CNullDecorator>::Delete
PUBLIC	??1?$CDynamicPoolEx@VCHeaderDecorator@NEffectUpdateDecorator@@@@UAE@XZ ; CDynamicPoolEx<NEffectUpdateDecorator::CHeaderDecorator>::~CDynamicPoolEx<NEffectUpdateDecorator::CHeaderDecorator>
PUBLIC	?Delete@?$CDynamicPoolEx@VCHeaderDecorator@NEffectUpdateDecorator@@@@KAXPAVCHeaderDecorator@NEffectUpdateDecorator@@@Z ; CDynamicPoolEx<NEffectUpdateDecorator::CHeaderDecorator>::Delete
PUBLIC	?ms_singleton@?$CSingleton@VCTimer@@@@0PAVCTimer@@A ; CSingleton<CTimer>::ms_singleton
PUBLIC	?ms_kPool@?$CPooledObject@VCHeaderDecorator@NEffectUpdateDecorator@@@@1V?$CDynamicPoolEx@VCHeaderDecorator@NEffectUpdateDecorator@@@@A ; CPooledObject<NEffectUpdateDecorator::CHeaderDecorator>::ms_kPool
PUBLIC	?ms_kPool@?$CPooledObject@VCNullDecorator@NEffectUpdateDecorator@@@@1V?$CDynamicPoolEx@VCNullDecorator@NEffectUpdateDecorator@@@@A ; CPooledObject<NEffectUpdateDecorator::CNullDecorator>::ms_kPool
PUBLIC	?ms_kPool@?$CPooledObject@VCTextureAnimationCWDecorator@NEffectUpdateDecorator@@@@1V?$CDynamicPoolEx@VCTextureAnimationCWDecorator@NEffectUpdateDecorator@@@@A ; CPooledObject<NEffectUpdateDecorator::CTextureAnimationCWDecorator>::ms_kPool
PUBLIC	?ms_kPool@?$CPooledObject@VCTextureAnimationCCWDecorator@NEffectUpdateDecorator@@@@1V?$CDynamicPoolEx@VCTextureAnimationCCWDecorator@NEffectUpdateDecorator@@@@A ; CPooledObject<NEffectUpdateDecorator::CTextureAnimationCCWDecorator>::ms_kPool
PUBLIC	?ms_kPool@?$CPooledObject@VCTextureAnimationRandomDecorator@NEffectUpdateDecorator@@@@1V?$CDynamicPoolEx@VCTextureAnimationRandomDecorator@NEffectUpdateDecorator@@@@A ; CPooledObject<NEffectUpdateDecorator::CTextureAnimationRandomDecorator>::ms_kPool
PUBLIC	?ms_kPool@?$CPooledObject@VCAirResistanceDecorator@NEffectUpdateDecorator@@@@1V?$CDynamicPoolEx@VCAirResistanceDecorator@NEffectUpdateDecorator@@@@A ; CPooledObject<NEffectUpdateDecorator::CAirResistanceDecorator>::ms_kPool
PUBLIC	?ms_kPool@?$CPooledObject@VCGravityDecorator@NEffectUpdateDecorator@@@@1V?$CDynamicPoolEx@VCGravityDecorator@NEffectUpdateDecorator@@@@A ; CPooledObject<NEffectUpdateDecorator::CGravityDecorator>::ms_kPool
PUBLIC	?ms_kPool@?$CPooledObject@VCRotationDecorator@NEffectUpdateDecorator@@@@1V?$CDynamicPoolEx@VCRotationDecorator@NEffectUpdateDecorator@@@@A ; CPooledObject<NEffectUpdateDecorator::CRotationDecorator>::ms_kPool
PUBLIC	?ms_singleton@?$CSingleton@VCEffectManager@@@@0PAVCEffectManager@@A ; CSingleton<CEffectManager>::ms_singleton
PUBLIC	??_C@_0CF@IFJHLB@Attacking?5motion?5data?5is?5NULL?$CB?5@ ; `string'
PUBLIC	??_C@_0DO@CGEPLNOG@CActorInstance?3?3__RunNextCombo?$CI@ ; `string'
PUBLIC	??_C@_0IP@BHEKJOJN@CActorInstance?3?3__RunNextCombo?$CI@ ; `string'
PUBLIC	??_C@_0ID@NOGKCFDC@CActorInstance?3?3__RunNextCombo?$CI@ ; `string'
PUBLIC	??_C@_0EC@FEDLPHGA@ProcessSucceedingAttacking?3?5Unk@ ; `string'
PUBLIC	__real@00000000
PUBLIC	__real@3c8efa35
PUBLIC	__real@3f666666
PUBLIC	__real@40400000
PUBLIC	__real@41f00000
PUBLIC	__real@42652ee0
PUBLIC	__real@43870000
PUBLIC	__xmm@80000000800000008000000080000000
EXTRN	??3@YAXPAX@Z:PROC				; operator delete
EXTRN	??3@YAXPAXI@Z:PROC				; operator delete
EXTRN	_atexit:PROC
EXTRN	__invalid_parameter_noinfo_noreturn:PROC
EXTRN	_rand:PROC
EXTRN	_D3DXVec2Normalize@8:PROC
EXTRN	_D3DXVec3Normalize@8:PROC
EXTRN	?Tracef@@YAXPBDZZ:PROC				; Tracef
EXTRN	?TraceError@@YAXPBDZZ:PROC			; TraceError
EXTRN	?GetCurrentSecond@CTimer@@QAEMXZ:PROC		; CTimer::GetCurrentSecond
EXTRN	?ELTimer_GetMSec@@YAKXZ:PROC			; ELTimer_GetMSec
EXTRN	?GetPosition@CGraphicObjectInstance@@QBEABUD3DXVECTOR3@@XZ:PROC ; CGraphicObjectInstance::GetPosition
EXTRN	?CreateEffect@CEffectManager@@QAEHKABUD3DXVECTOR3@@0@Z:PROC ; CEffectManager::CreateEffect
EXTRN	?GetMotionDataPointer@CRaceData@@QAEHKPAPAVCRaceMotionData@@@Z:PROC ; CRaceData::GetMotionDataPointer
EXTRN	?GetNormalAttackIndex@CRaceData@@QAEHGPAG@Z:PROC ; CRaceData::GetNormalAttackIndex
EXTRN	?GetComboDataPointer@CRaceData@@QAEHGGPAPAUSComboAttackData@1@@Z:PROC ; CRaceData::GetComboDataPointer
EXTRN	?GetMotionDuration@CRaceMotionData@@QAEMXZ:PROC	; CRaceMotionData::GetMotionDuration
EXTRN	?IsComboInputTimeData@CRaceMotionData@@QBEHXZ:PROC ; CRaceMotionData::IsComboInputTimeData
EXTRN	?GetComboInputStartTime@CRaceMotionData@@QBEMXZ:PROC ; CRaceMotionData::GetComboInputStartTime
EXTRN	?GetNextComboTime@CRaceMotionData@@QBEMXZ:PROC	; CRaceMotionData::GetNextComboTime
EXTRN	?GetComboInputEndTime@CRaceMotionData@@QBEMXZ:PROC ; CRaceMotionData::GetComboInputEndTime
EXTRN	?isAttackingMotion@CRaceMotionData@@QBEHXZ:PROC	; CRaceMotionData::isAttackingMotion
EXTRN	?GetMotionAttackDataPointer@CRaceMotionData@@QBEPBUSMotionAttackData@NRaceData@@XZ:PROC ; CRaceMotionData::GetMotionAttackDataPointer
EXTRN	?GetMotionAttackDataReference@CRaceMotionData@@QBEABUSMotionAttackData@NRaceData@@XZ:PROC ; CRaceMotionData::GetMotionAttackDataReference
EXTRN	?HasSplashMotionEvent@CRaceMotionData@@QBEHXZ:PROC ; CRaceMotionData::HasSplashMotionEvent
EXTRN	?IsCancelEnableSkill@CRaceMotionData@@QBEHXZ:PROC ; CRaceMotionData::IsCancelEnableSkill
EXTRN	?GetMotionEventDataCount@CRaceMotionData@@QBEKXZ:PROC ; CRaceMotionData::GetMotionEventDataCount
EXTRN	?GetMotionAttackingEventDataPointer@CRaceMotionData@@QBEHEPAPBUSMotionEventDataAttack@NMotionEvent@@@Z:PROC ; CRaceMotionData::GetMotionAttackingEventDataPointer
EXTRN	?Initialize@CPhysicsObject@@QAEXXZ:PROC		; CPhysicsObject::Initialize
EXTRN	?isBlending@CPhysicsObject@@QAE_NXZ:PROC	; CPhysicsObject::isBlending
EXTRN	?SetDirection@CPhysicsObject@@QAEXABUD3DXVECTOR3@@@Z:PROC ; CPhysicsObject::SetDirection
EXTRN	?IncreaseExternalForce@CPhysicsObject@@QAEXABUD3DXVECTOR3@@M@Z:PROC ; CPhysicsObject::IncreaseExternalForce
EXTRN	?SetLastPosition@CPhysicsObject@@QAEXABUD3DXVECTOR3@@M@Z:PROC ; CPhysicsObject::SetLastPosition
EXTRN	?GetLastPosition@CPhysicsObject@@QAEXPAUD3DXVECTOR3@@@Z:PROC ; CPhysicsObject::GetLastPosition
EXTRN	?InsertDelay@CGraphicThingInstance@@QAEXM@Z:PROC ; CGraphicThingInstance::InsertDelay
EXTRN	?GetLocalTime@CGraphicThingInstance@@QAEMXZ:PROC ; CGraphicThingInstance::GetLocalTime
EXTRN	?GetRace@CActorInstance@@QAEKXZ:PROC		; CActorInstance::GetRace
EXTRN	?IsNPC@CActorInstance@@QAE_NXZ:PROC		; CActorInstance::IsNPC
EXTRN	?IsStone@CActorInstance@@QAE_NXZ:PROC		; CActorInstance::IsStone
EXTRN	?IsDoor@CActorInstance@@QAE_NXZ:PROC		; CActorInstance::IsDoor
EXTRN	?IsBuilding@CActorInstance@@QAE_NXZ:PROC	; CActorInstance::IsBuilding
EXTRN	?IsBowMode@CActorInstance@@QAE_NXZ:PROC		; CActorInstance::IsBowMode
EXTRN	?AttachEffectByID@CActorInstance@@QAEKKPBDKPBUD3DXVECTOR3@@@Z:PROC ; CActorInstance::AttachEffectByID
EXTRN	?InterceptOnceMotion@CActorInstance@@QAE_NKMIM@Z:PROC ; CActorInstance::InterceptOnceMotion
EXTRN	?PushOnceMotion@CActorInstance@@QAE_NKMM@Z:PROC	; CActorInstance::PushOnceMotion
EXTRN	?PushLoopMotion@CActorInstance@@QAE_NKMM@Z:PROC	; CActorInstance::PushLoopMotion
EXTRN	?isLock@CActorInstance@@QAEHXZ:PROC		; CActorInstance::isLock
EXTRN	?IsUsingSkill@CActorInstance@@QAEHXZ:PROC	; CActorInstance::IsUsingSkill
EXTRN	?CanCancelSkill@CActorInstance@@QAEHXZ:PROC	; CActorInstance::CanCancelSkill
EXTRN	?IsSleep@CActorInstance@@QAEHXZ:PROC		; CActorInstance::IsSleep
EXTRN	?IsParalysis@CActorInstance@@QAEHXZ:PROC	; CActorInstance::IsParalysis
EXTRN	?IsFaint@CActorInstance@@QAEHXZ:PROC		; CActorInstance::IsFaint
EXTRN	?IsResistFallen@CActorInstance@@QAEHXZ:PROC	; CActorInstance::IsResistFallen
EXTRN	?IsWaiting@CActorInstance@@QAEHXZ:PROC		; CActorInstance::IsWaiting
EXTRN	?IsDead@CActorInstance@@QAEHXZ:PROC		; CActorInstance::IsDead
EXTRN	?IsStun@CActorInstance@@QAEHXZ:PROC		; CActorInstance::IsStun
EXTRN	?IsKnockDown@CActorInstance@@QAEHXZ:PROC	; CActorInstance::IsKnockDown
EXTRN	?Die@CActorInstance@@QAEXXZ:PROC		; CActorInstance::Die
EXTRN	?GetPositionVectorRef@CActorInstance@@QAEABUD3DXVECTOR3@@XZ:PROC ; CActorInstance::GetPositionVectorRef
EXTRN	?NEW_SetAtkPixelPosition@CActorInstance@@QAEXABUD3DXVECTOR3@@@Z:PROC ; CActorInstance::NEW_SetAtkPixelPosition
EXTRN	?NEW_GetAtkPixelPositionRef@CActorInstance@@QAEABUD3DXVECTOR3@@XZ:PROC ; CActorInstance::NEW_GetAtkPixelPositionRef
EXTRN	?NEW_GetCurPixelPositionRef@CActorInstance@@QAEABUD3DXVECTOR3@@XZ:PROC ; CActorInstance::NEW_GetCurPixelPositionRef
EXTRN	?GetPixelPosition@CActorInstance@@QAEXPAUD3DXVECTOR3@@@Z:PROC ; CActorInstance::GetPixelPosition
EXTRN	?GetRotation@CActorInstance@@QAEMXZ:PROC	; CActorInstance::GetRotation
EXTRN	?BlendRotation@CActorInstance@@QAEXMM@Z:PROC	; CActorInstance::BlendRotation
EXTRN	?SetAdvancingRotation@CActorInstance@@QAEXM@Z:PROC ; CActorInstance::SetAdvancingRotation
EXTRN	?__GetAttackSpeed@CActorInstance@@IAEMXZ:PROC	; CActorInstance::__GetAttackSpeed
EXTRN	?__IsKnockDownMotion@CActorInstance@@IAE_NXZ:PROC ; CActorInstance::__IsKnockDownMotion
EXTRN	?__IsStandUpMotion@CActorInstance@@IAE_NXZ:PROC	; CActorInstance::__IsStandUpMotion
EXTRN	?__IsMountingHorse@CActorInstance@@IAE_NXZ:PROC	; CActorInstance::__IsMountingHorse
EXTRN	?__GetCurrentMotionIndex@CActorInstance@@IAEGXZ:PROC ; CActorInstance::__GetCurrentMotionIndex
EXTRN	?__GetCurrentComboType@CActorInstance@@IAEGXZ:PROC ; CActorInstance::__GetCurrentComboType
EXTRN	?__OnAttack@CActorInstance@@QAEXG@Z:PROC	; CActorInstance::__OnAttack
EXTRN	?__OnHit@CActorInstance@@IAEXIAAV1@H@Z:PROC	; CActorInstance::__OnHit
EXTRN	@__security_check_cookie@4:PROC
EXTRN	__CIatan2:PROC
EXTRN	__libm_sse2_cos_precise:PROC
EXTRN	__libm_sse2_sin_precise:PROC
EXTRN	__libm_sse2_sqrt_precise:PROC
EXTRN	___security_cookie:DWORD
EXTRN	__fltused:DWORD
;	COMDAT ?ms_singleton@?$CSingleton@VCTimer@@@@0PAVCTimer@@A
_BSS	SEGMENT
?ms_singleton@?$CSingleton@VCTimer@@@@0PAVCTimer@@A DD 01H DUP (?) ; CSingleton<CTimer>::ms_singleton
_BSS	ENDS
;	COMDAT ?ms_singleton@?$CSingleton@VCEffectManager@@@@0PAVCEffectManager@@A
_BSS	SEGMENT
?ms_singleton@?$CSingleton@VCEffectManager@@@@0PAVCEffectManager@@A DD 01H DUP (?) ; CSingleton<CEffectManager>::ms_singleton
_BSS	ENDS
;	COMDAT CRT$XCU
CRT$XCU	SEGMENT
??ms_kPool$initializer$@?$CPooledObject@VCHeaderDecorator@NEffectUpdateDecorator@@@@1P6AXXZA@@3P6AXXZA DD FLAT:??__E?ms_kPool@?$CPooledObject@VCHeaderDecorator@NEffectUpdateDecorator@@@@1V?$CDynamicPoolEx@VCHeaderDecorator@NEffectUpdateDecorator@@@@A@@YAXXZ ; ??ms_kPool$initializer$@?$CPooledObject@VCHeaderDecorator@NEffectUpdateDecorator@@@@1P6AXXZA@@3P6AXXZA
CRT$XCU	ENDS
;	COMDAT __xmm@80000000800000008000000080000000
CONST	SEGMENT
__xmm@80000000800000008000000080000000 DB 00H, 00H, 00H, 080H, 00H, 00H, 00H
	DB	080H, 00H, 00H, 00H, 080H, 00H, 00H, 00H, 080H
CONST	ENDS
;	COMDAT __real@43870000
CONST	SEGMENT
__real@43870000 DD 043870000r			; 270
CONST	ENDS
;	COMDAT __real@42652ee0
CONST	SEGMENT
__real@42652ee0 DD 042652ee0r			; 57.2958
CONST	ENDS
;	COMDAT __real@41f00000
CONST	SEGMENT
__real@41f00000 DD 041f00000r			; 30
CONST	ENDS
;	COMDAT __real@40400000
CONST	SEGMENT
__real@40400000 DD 040400000r			; 3
CONST	ENDS
;	COMDAT __real@3f666666
CONST	SEGMENT
__real@3f666666 DD 03f666666r			; 0.9
CONST	ENDS
;	COMDAT __real@3c8efa35
CONST	SEGMENT
__real@3c8efa35 DD 03c8efa35r			; 0.0174533
CONST	ENDS
;	COMDAT __real@00000000
CONST	SEGMENT
__real@00000000 DD 000000000r			; 0
CONST	ENDS
;	COMDAT ??_C@_0EC@FEDLPHGA@ProcessSucceedingAttacking?3?5Unk@
CONST	SEGMENT
??_C@_0EC@FEDLPHGA@ProcessSucceedingAttacking?3?5Unk@ DB 'ProcessSucceedi'
	DB	'ngAttacking: Unknown AttackingData.iHittingType %d', 00H ; `string'
CONST	ENDS
;	COMDAT ??_C@_0ID@NOGKCFDC@CActorInstance?3?3__RunNextCombo?$CI@
CONST	SEGMENT
??_C@_0ID@NOGKCFDC@CActorInstance?3?3__RunNextCombo?$CI@ DB 'CActorInstan'
	DB	'ce::__RunNextCombo(wComboType=%d, wComboIndex=%d) - (dwComboA'
	DB	'rrayIndex=%d) >= (pComboData->ComboIndexVector.size()=%d)', 00H ; `string'
CONST	ENDS
;	COMDAT ??_C@_0IP@BHEKJOJN@CActorInstance?3?3__RunNextCombo?$CI@
CONST	SEGMENT
??_C@_0IP@BHEKJOJN@CActorInstance?3?3__RunNextCombo?$CI@ DB 'CActorInstan'
	DB	'ce::__RunNextCombo(wComboType=%d, wComboIndex=%d) - m_pkCurRa'
	DB	'ceData->GetComboDataPointer(m_wcurMotionMode=%d, &pComboData)'
	DB	' == NULL', 00H				; `string'
CONST	ENDS
;	COMDAT ??_C@_0DO@CGEPLNOG@CActorInstance?3?3__RunNextCombo?$CI@
CONST	SEGMENT
??_C@_0DO@CGEPLNOG@CActorInstance?3?3__RunNextCombo?$CI@ DB 'CActorInstan'
	DB	'ce::__RunNextCombo(wComboType=%d, wComboIndex=%d)', 00H ; `string'
CONST	ENDS
;	COMDAT ??_C@_0CF@IFJHLB@Attacking?5motion?5data?5is?5NULL?$CB?5@
CONST	SEGMENT
??_C@_0CF@IFJHLB@Attacking?5motion?5data?5is?5NULL?$CB?5@ DB 'Attacking m'
	DB	'otion data is NULL! : %d', 0aH, 00H		; `string'
CONST	ENDS
;	COMDAT ?ms_kPool@?$CPooledObject@VCRotationDecorator@NEffectUpdateDecorator@@@@1V?$CDynamicPoolEx@VCRotationDecorator@NEffectUpdateDecorator@@@@A
_DATA	SEGMENT
?ms_kPool@?$CPooledObject@VCRotationDecorator@NEffectUpdateDecorator@@@@1V?$CDynamicPoolEx@VCRotationDecorator@NEffectUpdateDecorator@@@@A DD FLAT:??_7?$CDynamicPoolEx@VCRotationDecorator@NEffectUpdateDecorator@@@@6B@ ; CPooledObject<NEffectUpdateDecorator::CRotationDecorator>::ms_kPool
	DD	00H
	DD	00H
	DD	00H
	DD	00H
	DD	00H
	DD	00H
	DD	00H
	DD	00H
_DATA	ENDS
;	COMDAT ?ms_kPool@?$CPooledObject@VCGravityDecorator@NEffectUpdateDecorator@@@@1V?$CDynamicPoolEx@VCGravityDecorator@NEffectUpdateDecorator@@@@A
_DATA	SEGMENT
?ms_kPool@?$CPooledObject@VCGravityDecorator@NEffectUpdateDecorator@@@@1V?$CDynamicPoolEx@VCGravityDecorator@NEffectUpdateDecorator@@@@A DD FLAT:??_7?$CDynamicPoolEx@VCGravityDecorator@NEffectUpdateDecorator@@@@6B@ ; CPooledObject<NEffectUpdateDecorator::CGravityDecorator>::ms_kPool
	DD	00H
	DD	00H
	DD	00H
	DD	00H
	DD	00H
	DD	00H
	DD	00H
	DD	00H
_DATA	ENDS
;	COMDAT ?ms_kPool@?$CPooledObject@VCAirResistanceDecorator@NEffectUpdateDecorator@@@@1V?$CDynamicPoolEx@VCAirResistanceDecorator@NEffectUpdateDecorator@@@@A
_DATA	SEGMENT
?ms_kPool@?$CPooledObject@VCAirResistanceDecorator@NEffectUpdateDecorator@@@@1V?$CDynamicPoolEx@VCAirResistanceDecorator@NEffectUpdateDecorator@@@@A DD FLAT:??_7?$CDynamicPoolEx@VCAirResistanceDecorator@NEffectUpdateDecorator@@@@6B@ ; CPooledObject<NEffectUpdateDecorator::CAirResistanceDecorator>::ms_kPool
	DD	00H
	DD	00H
	DD	00H
	DD	00H
	DD	00H
	DD	00H
	DD	00H
	DD	00H
_DATA	ENDS
;	COMDAT ?ms_kPool@?$CPooledObject@VCTextureAnimationRandomDecorator@NEffectUpdateDecorator@@@@1V?$CDynamicPoolEx@VCTextureAnimationRandomDecorator@NEffectUpdateDecorator@@@@A
_DATA	SEGMENT
?ms_kPool@?$CPooledObject@VCTextureAnimationRandomDecorator@NEffectUpdateDecorator@@@@1V?$CDynamicPoolEx@VCTextureAnimationRandomDecorator@NEffectUpdateDecorator@@@@A DD FLAT:??_7?$CDynamicPoolEx@VCTextureAnimationRandomDecorator@NEffectUpdateDecorator@@@@6B@ ; CPooledObject<NEffectUpdateDecorator::CTextureAnimationRandomDecorator>::ms_kPool
	DD	00H
	DD	00H
	DD	00H
	DD	00H
	DD	00H
	DD	00H
	DD	00H
	DD	00H
_DATA	ENDS
;	COMDAT ?ms_kPool@?$CPooledObject@VCTextureAnimationCCWDecorator@NEffectUpdateDecorator@@@@1V?$CDynamicPoolEx@VCTextureAnimationCCWDecorator@NEffectUpdateDecorator@@@@A
_DATA	SEGMENT
?ms_kPool@?$CPooledObject@VCTextureAnimationCCWDecorator@NEffectUpdateDecorator@@@@1V?$CDynamicPoolEx@VCTextureAnimationCCWDecorator@NEffectUpdateDecorator@@@@A DD FLAT:??_7?$CDynamicPoolEx@VCTextureAnimationCCWDecorator@NEffectUpdateDecorator@@@@6B@ ; CPooledObject<NEffectUpdateDecorator::CTextureAnimationCCWDecorator>::ms_kPool
	DD	00H
	DD	00H
	DD	00H
	DD	00H
	DD	00H
	DD	00H
	DD	00H
	DD	00H
_DATA	ENDS
;	COMDAT ?ms_kPool@?$CPooledObject@VCTextureAnimationCWDecorator@NEffectUpdateDecorator@@@@1V?$CDynamicPoolEx@VCTextureAnimationCWDecorator@NEffectUpdateDecorator@@@@A
_DATA	SEGMENT
?ms_kPool@?$CPooledObject@VCTextureAnimationCWDecorator@NEffectUpdateDecorator@@@@1V?$CDynamicPoolEx@VCTextureAnimationCWDecorator@NEffectUpdateDecorator@@@@A DD FLAT:??_7?$CDynamicPoolEx@VCTextureAnimationCWDecorator@NEffectUpdateDecorator@@@@6B@ ; CPooledObject<NEffectUpdateDecorator::CTextureAnimationCWDecorator>::ms_kPool
	DD	00H
	DD	00H
	DD	00H
	DD	00H
	DD	00H
	DD	00H
	DD	00H
	DD	00H
_DATA	ENDS
;	COMDAT ?ms_kPool@?$CPooledObject@VCNullDecorator@NEffectUpdateDecorator@@@@1V?$CDynamicPoolEx@VCNullDecorator@NEffectUpdateDecorator@@@@A
_DATA	SEGMENT
?ms_kPool@?$CPooledObject@VCNullDecorator@NEffectUpdateDecorator@@@@1V?$CDynamicPoolEx@VCNullDecorator@NEffectUpdateDecorator@@@@A DD FLAT:??_7?$CDynamicPoolEx@VCNullDecorator@NEffectUpdateDecorator@@@@6B@ ; CPooledObject<NEffectUpdateDecorator::CNullDecorator>::ms_kPool
	DD	00H
	DD	00H
	DD	00H
	DD	00H
	DD	00H
	DD	00H
	DD	00H
	DD	00H
_DATA	ENDS
;	COMDAT ?ms_kPool@?$CPooledObject@VCHeaderDecorator@NEffectUpdateDecorator@@@@1V?$CDynamicPoolEx@VCHeaderDecorator@NEffectUpdateDecorator@@@@A
_DATA	SEGMENT
?ms_kPool@?$CPooledObject@VCHeaderDecorator@NEffectUpdateDecorator@@@@1V?$CDynamicPoolEx@VCHeaderDecorator@NEffectUpdateDecorator@@@@A DD FLAT:??_7?$CDynamicPoolEx@VCHeaderDecorator@NEffectUpdateDecorator@@@@6B@ ; CPooledObject<NEffectUpdateDecorator::CHeaderDecorator>::ms_kPool
	DD	00H
	DD	00H
	DD	00H
	DD	00H
	DD	00H
	DD	00H
	DD	00H
	DD	00H
_DATA	ENDS
;	COMDAT CRT$XCU
CRT$XCU	SEGMENT
??ms_kPool$initializer$@?$CPooledObject@VCNullDecorator@NEffectUpdateDecorator@@@@1P6AXXZA@@3P6AXXZA DD FLAT:??__E?ms_kPool@?$CPooledObject@VCNullDecorator@NEffectUpdateDecorator@@@@1V?$CDynamicPoolEx@VCNullDecorator@NEffectUpdateDecorator@@@@A@@YAXXZ ; ??ms_kPool$initializer$@?$CPooledObject@VCNullDecorator@NEffectUpdateDecorator@@@@1P6AXXZA@@3P6AXXZA
CRT$XCU	ENDS
;	COMDAT CRT$XCU
CRT$XCU	SEGMENT
??ms_kPool$initializer$@?$CPooledObject@VCTextureAnimationCWDecorator@NEffectUpdateDecorator@@@@1P6AXXZA@@3P6AXXZA DD FLAT:??__E?ms_kPool@?$CPooledObject@VCTextureAnimationCWDecorator@NEffectUpdateDecorator@@@@1V?$CDynamicPoolEx@VCTextureAnimationCWDecorator@NEffectUpdateDecorator@@@@A@@YAXXZ ; ??ms_kPool$initializer$@?$CPooledObject@VCTextureAnimationCWDecorator@NEffectUpdateDecorator@@@@1P6AXXZA@@3P6AXXZA
CRT$XCU	ENDS
;	COMDAT CRT$XCU
CRT$XCU	SEGMENT
??ms_kPool$initializer$@?$CPooledObject@VCTextureAnimationCCWDecorator@NEffectUpdateDecorator@@@@1P6AXXZA@@3P6AXXZA DD FLAT:??__E?ms_kPool@?$CPooledObject@VCTextureAnimationCCWDecorator@NEffectUpdateDecorator@@@@1V?$CDynamicPoolEx@VCTextureAnimationCCWDecorator@NEffectUpdateDecorator@@@@A@@YAXXZ ; ??ms_kPool$initializer$@?$CPooledObject@VCTextureAnimationCCWDecorator@NEffectUpdateDecorator@@@@1P6AXXZA@@3P6AXXZA
CRT$XCU	ENDS
;	COMDAT CRT$XCU
CRT$XCU	SEGMENT
??ms_kPool$initializer$@?$CPooledObject@VCTextureAnimationRandomDecorator@NEffectUpdateDecorator@@@@1P6AXXZA@@3P6AXXZA DD FLAT:??__E?ms_kPool@?$CPooledObject@VCTextureAnimationRandomDecorator@NEffectUpdateDecorator@@@@1V?$CDynamicPoolEx@VCTextureAnimationRandomDecorator@NEffectUpdateDecorator@@@@A@@YAXXZ ; ??ms_kPool$initializer$@?$CPooledObject@VCTextureAnimationRandomDecorator@NEffectUpdateDecorator@@@@1P6AXXZA@@3P6AXXZA
CRT$XCU	ENDS
;	COMDAT CRT$XCU
CRT$XCU	SEGMENT
??ms_kPool$initializer$@?$CPooledObject@VCAirResistanceDecorator@NEffectUpdateDecorator@@@@1P6AXXZA@@3P6AXXZA DD FLAT:??__E?ms_kPool@?$CPooledObject@VCAirResistanceDecorator@NEffectUpdateDecorator@@@@1V?$CDynamicPoolEx@VCAirResistanceDecorator@NEffectUpdateDecorator@@@@A@@YAXXZ ; ??ms_kPool$initializer$@?$CPooledObject@VCAirResistanceDecorator@NEffectUpdateDecorator@@@@1P6AXXZA@@3P6AXXZA
CRT$XCU	ENDS
;	COMDAT CRT$XCU
CRT$XCU	SEGMENT
??ms_kPool$initializer$@?$CPooledObject@VCGravityDecorator@NEffectUpdateDecorator@@@@1P6AXXZA@@3P6AXXZA DD FLAT:??__E?ms_kPool@?$CPooledObject@VCGravityDecorator@NEffectUpdateDecorator@@@@1V?$CDynamicPoolEx@VCGravityDecorator@NEffectUpdateDecorator@@@@A@@YAXXZ ; ??ms_kPool$initializer$@?$CPooledObject@VCGravityDecorator@NEffectUpdateDecorator@@@@1P6AXXZA@@3P6AXXZA
CRT$XCU	ENDS
;	COMDAT CRT$XCU
CRT$XCU	SEGMENT
??ms_kPool$initializer$@?$CPooledObject@VCRotationDecorator@NEffectUpdateDecorator@@@@1P6AXXZA@@3P6AXXZA DD FLAT:??__E?ms_kPool@?$CPooledObject@VCRotationDecorator@NEffectUpdateDecorator@@@@1V?$CDynamicPoolEx@VCRotationDecorator@NEffectUpdateDecorator@@@@A@@YAXXZ ; ??ms_kPool$initializer$@?$CPooledObject@VCRotationDecorator@NEffectUpdateDecorator@@@@1P6AXXZA@@3P6AXXZA
CRT$XCU	ENDS
; Function compile flags: /Ogtp
;	COMDAT ??__F?ms_kPool@?$CPooledObject@VCRotationDecorator@NEffectUpdateDecorator@@@@1V?$CDynamicPoolEx@VCRotationDecorator@NEffectUpdateDecorator@@@@A@@YAXXZ
text$yd	SEGMENT
??__F?ms_kPool@?$CPooledObject@VCRotationDecorator@NEffectUpdateDecorator@@@@1V?$CDynamicPoolEx@VCRotationDecorator@NEffectUpdateDecorator@@@@A@@YAXXZ PROC ; `dynamic atexit destructor for 'CPooledObject<NEffectUpdateDecorator::CRotationDecorator>::ms_kPool'', COMDAT
  00000	b9 00 00 00 00	 mov	 ecx, OFFSET ?ms_kPool@?$CPooledObject@VCRotationDecorator@NEffectUpdateDecorator@@@@1V?$CDynamicPoolEx@VCRotationDecorator@NEffectUpdateDecorator@@@@A ; CPooledObject<NEffectUpdateDecorator::CRotationDecorator>::ms_kPool
  00005	e9 00 00 00 00	 jmp	 ??1?$CDynamicPoolEx@VCRotationDecorator@NEffectUpdateDecorator@@@@UAE@XZ ; CDynamicPoolEx<NEffectUpdateDecorator::CRotationDecorator>::~CDynamicPoolEx<NEffectUpdateDecorator::CRotationDecorator>
??__F?ms_kPool@?$CPooledObject@VCRotationDecorator@NEffectUpdateDecorator@@@@1V?$CDynamicPoolEx@VCRotationDecorator@NEffectUpdateDecorator@@@@A@@YAXXZ ENDP ; `dynamic atexit destructor for 'CPooledObject<NEffectUpdateDecorator::CRotationDecorator>::ms_kPool''
text$yd	ENDS
; Function compile flags: /Ogtp
; File C:\Users\murat\Desktop\Siveps2-1-99-Project\source\client\Client\eterLib\Pool.h
;	COMDAT ??__E?ms_kPool@?$CPooledObject@VCRotationDecorator@NEffectUpdateDecorator@@@@1V?$CDynamicPoolEx@VCRotationDecorator@NEffectUpdateDecorator@@@@A@@YAXXZ
text$di	SEGMENT
??__E?ms_kPool@?$CPooledObject@VCRotationDecorator@NEffectUpdateDecorator@@@@1V?$CDynamicPoolEx@VCRotationDecorator@NEffectUpdateDecorator@@@@A@@YAXXZ PROC ; `dynamic initializer for 'CPooledObject<NEffectUpdateDecorator::CRotationDecorator>::ms_kPool'', COMDAT

; 272  : template <class T> CDynamicPoolEx<T> CPooledObject<T>::ms_kPool;

  00000	68 00 00 00 00	 push	 OFFSET ??__F?ms_kPool@?$CPooledObject@VCRotationDecorator@NEffectUpdateDecorator@@@@1V?$CDynamicPoolEx@VCRotationDecorator@NEffectUpdateDecorator@@@@A@@YAXXZ ; `dynamic atexit destructor for 'CPooledObject<NEffectUpdateDecorator::CRotationDecorator>::ms_kPool''
  00005	e8 00 00 00 00	 call	 _atexit
  0000a	59		 pop	 ecx
  0000b	c3		 ret	 0
??__E?ms_kPool@?$CPooledObject@VCRotationDecorator@NEffectUpdateDecorator@@@@1V?$CDynamicPoolEx@VCRotationDecorator@NEffectUpdateDecorator@@@@A@@YAXXZ ENDP ; `dynamic initializer for 'CPooledObject<NEffectUpdateDecorator::CRotationDecorator>::ms_kPool''
text$di	ENDS
; Function compile flags: /Ogtp
;	COMDAT ??__F?ms_kPool@?$CPooledObject@VCGravityDecorator@NEffectUpdateDecorator@@@@1V?$CDynamicPoolEx@VCGravityDecorator@NEffectUpdateDecorator@@@@A@@YAXXZ
text$yd	SEGMENT
??__F?ms_kPool@?$CPooledObject@VCGravityDecorator@NEffectUpdateDecorator@@@@1V?$CDynamicPoolEx@VCGravityDecorator@NEffectUpdateDecorator@@@@A@@YAXXZ PROC ; `dynamic atexit destructor for 'CPooledObject<NEffectUpdateDecorator::CGravityDecorator>::ms_kPool'', COMDAT
  00000	b9 00 00 00 00	 mov	 ecx, OFFSET ?ms_kPool@?$CPooledObject@VCGravityDecorator@NEffectUpdateDecorator@@@@1V?$CDynamicPoolEx@VCGravityDecorator@NEffectUpdateDecorator@@@@A ; CPooledObject<NEffectUpdateDecorator::CGravityDecorator>::ms_kPool
  00005	e9 00 00 00 00	 jmp	 ??1?$CDynamicPoolEx@VCGravityDecorator@NEffectUpdateDecorator@@@@UAE@XZ ; CDynamicPoolEx<NEffectUpdateDecorator::CGravityDecorator>::~CDynamicPoolEx<NEffectUpdateDecorator::CGravityDecorator>
??__F?ms_kPool@?$CPooledObject@VCGravityDecorator@NEffectUpdateDecorator@@@@1V?$CDynamicPoolEx@VCGravityDecorator@NEffectUpdateDecorator@@@@A@@YAXXZ ENDP ; `dynamic atexit destructor for 'CPooledObject<NEffectUpdateDecorator::CGravityDecorator>::ms_kPool''
text$yd	ENDS
; Function compile flags: /Ogtp
; File C:\Users\murat\Desktop\Siveps2-1-99-Project\source\client\Client\eterLib\Pool.h
;	COMDAT ??__E?ms_kPool@?$CPooledObject@VCGravityDecorator@NEffectUpdateDecorator@@@@1V?$CDynamicPoolEx@VCGravityDecorator@NEffectUpdateDecorator@@@@A@@YAXXZ
text$di	SEGMENT
??__E?ms_kPool@?$CPooledObject@VCGravityDecorator@NEffectUpdateDecorator@@@@1V?$CDynamicPoolEx@VCGravityDecorator@NEffectUpdateDecorator@@@@A@@YAXXZ PROC ; `dynamic initializer for 'CPooledObject<NEffectUpdateDecorator::CGravityDecorator>::ms_kPool'', COMDAT

; 272  : template <class T> CDynamicPoolEx<T> CPooledObject<T>::ms_kPool;

  00000	68 00 00 00 00	 push	 OFFSET ??__F?ms_kPool@?$CPooledObject@VCGravityDecorator@NEffectUpdateDecorator@@@@1V?$CDynamicPoolEx@VCGravityDecorator@NEffectUpdateDecorator@@@@A@@YAXXZ ; `dynamic atexit destructor for 'CPooledObject<NEffectUpdateDecorator::CGravityDecorator>::ms_kPool''
  00005	e8 00 00 00 00	 call	 _atexit
  0000a	59		 pop	 ecx
  0000b	c3		 ret	 0
??__E?ms_kPool@?$CPooledObject@VCGravityDecorator@NEffectUpdateDecorator@@@@1V?$CDynamicPoolEx@VCGravityDecorator@NEffectUpdateDecorator@@@@A@@YAXXZ ENDP ; `dynamic initializer for 'CPooledObject<NEffectUpdateDecorator::CGravityDecorator>::ms_kPool''
text$di	ENDS
; Function compile flags: /Ogtp
;	COMDAT ??__F?ms_kPool@?$CPooledObject@VCAirResistanceDecorator@NEffectUpdateDecorator@@@@1V?$CDynamicPoolEx@VCAirResistanceDecorator@NEffectUpdateDecorator@@@@A@@YAXXZ
text$yd	SEGMENT
??__F?ms_kPool@?$CPooledObject@VCAirResistanceDecorator@NEffectUpdateDecorator@@@@1V?$CDynamicPoolEx@VCAirResistanceDecorator@NEffectUpdateDecorator@@@@A@@YAXXZ PROC ; `dynamic atexit destructor for 'CPooledObject<NEffectUpdateDecorator::CAirResistanceDecorator>::ms_kPool'', COMDAT
  00000	b9 00 00 00 00	 mov	 ecx, OFFSET ?ms_kPool@?$CPooledObject@VCAirResistanceDecorator@NEffectUpdateDecorator@@@@1V?$CDynamicPoolEx@VCAirResistanceDecorator@NEffectUpdateDecorator@@@@A ; CPooledObject<NEffectUpdateDecorator::CAirResistanceDecorator>::ms_kPool
  00005	e9 00 00 00 00	 jmp	 ??1?$CDynamicPoolEx@VCAirResistanceDecorator@NEffectUpdateDecorator@@@@UAE@XZ ; CDynamicPoolEx<NEffectUpdateDecorator::CAirResistanceDecorator>::~CDynamicPoolEx<NEffectUpdateDecorator::CAirResistanceDecorator>
??__F?ms_kPool@?$CPooledObject@VCAirResistanceDecorator@NEffectUpdateDecorator@@@@1V?$CDynamicPoolEx@VCAirResistanceDecorator@NEffectUpdateDecorator@@@@A@@YAXXZ ENDP ; `dynamic atexit destructor for 'CPooledObject<NEffectUpdateDecorator::CAirResistanceDecorator>::ms_kPool''
text$yd	ENDS
; Function compile flags: /Ogtp
; File C:\Users\murat\Desktop\Siveps2-1-99-Project\source\client\Client\eterLib\Pool.h
;	COMDAT ??__E?ms_kPool@?$CPooledObject@VCAirResistanceDecorator@NEffectUpdateDecorator@@@@1V?$CDynamicPoolEx@VCAirResistanceDecorator@NEffectUpdateDecorator@@@@A@@YAXXZ
text$di	SEGMENT
??__E?ms_kPool@?$CPooledObject@VCAirResistanceDecorator@NEffectUpdateDecorator@@@@1V?$CDynamicPoolEx@VCAirResistanceDecorator@NEffectUpdateDecorator@@@@A@@YAXXZ PROC ; `dynamic initializer for 'CPooledObject<NEffectUpdateDecorator::CAirResistanceDecorator>::ms_kPool'', COMDAT

; 272  : template <class T> CDynamicPoolEx<T> CPooledObject<T>::ms_kPool;

  00000	68 00 00 00 00	 push	 OFFSET ??__F?ms_kPool@?$CPooledObject@VCAirResistanceDecorator@NEffectUpdateDecorator@@@@1V?$CDynamicPoolEx@VCAirResistanceDecorator@NEffectUpdateDecorator@@@@A@@YAXXZ ; `dynamic atexit destructor for 'CPooledObject<NEffectUpdateDecorator::CAirResistanceDecorator>::ms_kPool''
  00005	e8 00 00 00 00	 call	 _atexit
  0000a	59		 pop	 ecx
  0000b	c3		 ret	 0
??__E?ms_kPool@?$CPooledObject@VCAirResistanceDecorator@NEffectUpdateDecorator@@@@1V?$CDynamicPoolEx@VCAirResistanceDecorator@NEffectUpdateDecorator@@@@A@@YAXXZ ENDP ; `dynamic initializer for 'CPooledObject<NEffectUpdateDecorator::CAirResistanceDecorator>::ms_kPool''
text$di	ENDS
; Function compile flags: /Ogtp
;	COMDAT ??__F?ms_kPool@?$CPooledObject@VCTextureAnimationRandomDecorator@NEffectUpdateDecorator@@@@1V?$CDynamicPoolEx@VCTextureAnimationRandomDecorator@NEffectUpdateDecorator@@@@A@@YAXXZ
text$yd	SEGMENT
??__F?ms_kPool@?$CPooledObject@VCTextureAnimationRandomDecorator@NEffectUpdateDecorator@@@@1V?$CDynamicPoolEx@VCTextureAnimationRandomDecorator@NEffectUpdateDecorator@@@@A@@YAXXZ PROC ; `dynamic atexit destructor for 'CPooledObject<NEffectUpdateDecorator::CTextureAnimationRandomDecorator>::ms_kPool'', COMDAT
  00000	b9 00 00 00 00	 mov	 ecx, OFFSET ?ms_kPool@?$CPooledObject@VCTextureAnimationRandomDecorator@NEffectUpdateDecorator@@@@1V?$CDynamicPoolEx@VCTextureAnimationRandomDecorator@NEffectUpdateDecorator@@@@A ; CPooledObject<NEffectUpdateDecorator::CTextureAnimationRandomDecorator>::ms_kPool
  00005	e9 00 00 00 00	 jmp	 ??1?$CDynamicPoolEx@VCTextureAnimationRandomDecorator@NEffectUpdateDecorator@@@@UAE@XZ ; CDynamicPoolEx<NEffectUpdateDecorator::CTextureAnimationRandomDecorator>::~CDynamicPoolEx<NEffectUpdateDecorator::CTextureAnimationRandomDecorator>
??__F?ms_kPool@?$CPooledObject@VCTextureAnimationRandomDecorator@NEffectUpdateDecorator@@@@1V?$CDynamicPoolEx@VCTextureAnimationRandomDecorator@NEffectUpdateDecorator@@@@A@@YAXXZ ENDP ; `dynamic atexit destructor for 'CPooledObject<NEffectUpdateDecorator::CTextureAnimationRandomDecorator>::ms_kPool''
text$yd	ENDS
; Function compile flags: /Ogtp
; File C:\Users\murat\Desktop\Siveps2-1-99-Project\source\client\Client\eterLib\Pool.h
;	COMDAT ??__E?ms_kPool@?$CPooledObject@VCTextureAnimationRandomDecorator@NEffectUpdateDecorator@@@@1V?$CDynamicPoolEx@VCTextureAnimationRandomDecorator@NEffectUpdateDecorator@@@@A@@YAXXZ
text$di	SEGMENT
??__E?ms_kPool@?$CPooledObject@VCTextureAnimationRandomDecorator@NEffectUpdateDecorator@@@@1V?$CDynamicPoolEx@VCTextureAnimationRandomDecorator@NEffectUpdateDecorator@@@@A@@YAXXZ PROC ; `dynamic initializer for 'CPooledObject<NEffectUpdateDecorator::CTextureAnimationRandomDecorator>::ms_kPool'', COMDAT

; 272  : template <class T> CDynamicPoolEx<T> CPooledObject<T>::ms_kPool;

  00000	68 00 00 00 00	 push	 OFFSET ??__F?ms_kPool@?$CPooledObject@VCTextureAnimationRandomDecorator@NEffectUpdateDecorator@@@@1V?$CDynamicPoolEx@VCTextureAnimationRandomDecorator@NEffectUpdateDecorator@@@@A@@YAXXZ ; `dynamic atexit destructor for 'CPooledObject<NEffectUpdateDecorator::CTextureAnimationRandomDecorator>::ms_kPool''
  00005	e8 00 00 00 00	 call	 _atexit
  0000a	59		 pop	 ecx
  0000b	c3		 ret	 0
??__E?ms_kPool@?$CPooledObject@VCTextureAnimationRandomDecorator@NEffectUpdateDecorator@@@@1V?$CDynamicPoolEx@VCTextureAnimationRandomDecorator@NEffectUpdateDecorator@@@@A@@YAXXZ ENDP ; `dynamic initializer for 'CPooledObject<NEffectUpdateDecorator::CTextureAnimationRandomDecorator>::ms_kPool''
text$di	ENDS
; Function compile flags: /Ogtp
;	COMDAT ??__F?ms_kPool@?$CPooledObject@VCTextureAnimationCCWDecorator@NEffectUpdateDecorator@@@@1V?$CDynamicPoolEx@VCTextureAnimationCCWDecorator@NEffectUpdateDecorator@@@@A@@YAXXZ
text$yd	SEGMENT
??__F?ms_kPool@?$CPooledObject@VCTextureAnimationCCWDecorator@NEffectUpdateDecorator@@@@1V?$CDynamicPoolEx@VCTextureAnimationCCWDecorator@NEffectUpdateDecorator@@@@A@@YAXXZ PROC ; `dynamic atexit destructor for 'CPooledObject<NEffectUpdateDecorator::CTextureAnimationCCWDecorator>::ms_kPool'', COMDAT
  00000	b9 00 00 00 00	 mov	 ecx, OFFSET ?ms_kPool@?$CPooledObject@VCTextureAnimationCCWDecorator@NEffectUpdateDecorator@@@@1V?$CDynamicPoolEx@VCTextureAnimationCCWDecorator@NEffectUpdateDecorator@@@@A ; CPooledObject<NEffectUpdateDecorator::CTextureAnimationCCWDecorator>::ms_kPool
  00005	e9 00 00 00 00	 jmp	 ??1?$CDynamicPoolEx@VCTextureAnimationCCWDecorator@NEffectUpdateDecorator@@@@UAE@XZ ; CDynamicPoolEx<NEffectUpdateDecorator::CTextureAnimationCCWDecorator>::~CDynamicPoolEx<NEffectUpdateDecorator::CTextureAnimationCCWDecorator>
??__F?ms_kPool@?$CPooledObject@VCTextureAnimationCCWDecorator@NEffectUpdateDecorator@@@@1V?$CDynamicPoolEx@VCTextureAnimationCCWDecorator@NEffectUpdateDecorator@@@@A@@YAXXZ ENDP ; `dynamic atexit destructor for 'CPooledObject<NEffectUpdateDecorator::CTextureAnimationCCWDecorator>::ms_kPool''
text$yd	ENDS
; Function compile flags: /Ogtp
; File C:\Users\murat\Desktop\Siveps2-1-99-Project\source\client\Client\eterLib\Pool.h
;	COMDAT ??__E?ms_kPool@?$CPooledObject@VCTextureAnimationCCWDecorator@NEffectUpdateDecorator@@@@1V?$CDynamicPoolEx@VCTextureAnimationCCWDecorator@NEffectUpdateDecorator@@@@A@@YAXXZ
text$di	SEGMENT
??__E?ms_kPool@?$CPooledObject@VCTextureAnimationCCWDecorator@NEffectUpdateDecorator@@@@1V?$CDynamicPoolEx@VCTextureAnimationCCWDecorator@NEffectUpdateDecorator@@@@A@@YAXXZ PROC ; `dynamic initializer for 'CPooledObject<NEffectUpdateDecorator::CTextureAnimationCCWDecorator>::ms_kPool'', COMDAT

; 272  : template <class T> CDynamicPoolEx<T> CPooledObject<T>::ms_kPool;

  00000	68 00 00 00 00	 push	 OFFSET ??__F?ms_kPool@?$CPooledObject@VCTextureAnimationCCWDecorator@NEffectUpdateDecorator@@@@1V?$CDynamicPoolEx@VCTextureAnimationCCWDecorator@NEffectUpdateDecorator@@@@A@@YAXXZ ; `dynamic atexit destructor for 'CPooledObject<NEffectUpdateDecorator::CTextureAnimationCCWDecorator>::ms_kPool''
  00005	e8 00 00 00 00	 call	 _atexit
  0000a	59		 pop	 ecx
  0000b	c3		 ret	 0
??__E?ms_kPool@?$CPooledObject@VCTextureAnimationCCWDecorator@NEffectUpdateDecorator@@@@1V?$CDynamicPoolEx@VCTextureAnimationCCWDecorator@NEffectUpdateDecorator@@@@A@@YAXXZ ENDP ; `dynamic initializer for 'CPooledObject<NEffectUpdateDecorator::CTextureAnimationCCWDecorator>::ms_kPool''
text$di	ENDS
; Function compile flags: /Ogtp
;	COMDAT ??__F?ms_kPool@?$CPooledObject@VCTextureAnimationCWDecorator@NEffectUpdateDecorator@@@@1V?$CDynamicPoolEx@VCTextureAnimationCWDecorator@NEffectUpdateDecorator@@@@A@@YAXXZ
text$yd	SEGMENT
??__F?ms_kPool@?$CPooledObject@VCTextureAnimationCWDecorator@NEffectUpdateDecorator@@@@1V?$CDynamicPoolEx@VCTextureAnimationCWDecorator@NEffectUpdateDecorator@@@@A@@YAXXZ PROC ; `dynamic atexit destructor for 'CPooledObject<NEffectUpdateDecorator::CTextureAnimationCWDecorator>::ms_kPool'', COMDAT
  00000	b9 00 00 00 00	 mov	 ecx, OFFSET ?ms_kPool@?$CPooledObject@VCTextureAnimationCWDecorator@NEffectUpdateDecorator@@@@1V?$CDynamicPoolEx@VCTextureAnimationCWDecorator@NEffectUpdateDecorator@@@@A ; CPooledObject<NEffectUpdateDecorator::CTextureAnimationCWDecorator>::ms_kPool
  00005	e9 00 00 00 00	 jmp	 ??1?$CDynamicPoolEx@VCTextureAnimationCWDecorator@NEffectUpdateDecorator@@@@UAE@XZ ; CDynamicPoolEx<NEffectUpdateDecorator::CTextureAnimationCWDecorator>::~CDynamicPoolEx<NEffectUpdateDecorator::CTextureAnimationCWDecorator>
??__F?ms_kPool@?$CPooledObject@VCTextureAnimationCWDecorator@NEffectUpdateDecorator@@@@1V?$CDynamicPoolEx@VCTextureAnimationCWDecorator@NEffectUpdateDecorator@@@@A@@YAXXZ ENDP ; `dynamic atexit destructor for 'CPooledObject<NEffectUpdateDecorator::CTextureAnimationCWDecorator>::ms_kPool''
text$yd	ENDS
; Function compile flags: /Ogtp
; File C:\Users\murat\Desktop\Siveps2-1-99-Project\source\client\Client\eterLib\Pool.h
;	COMDAT ??__E?ms_kPool@?$CPooledObject@VCTextureAnimationCWDecorator@NEffectUpdateDecorator@@@@1V?$CDynamicPoolEx@VCTextureAnimationCWDecorator@NEffectUpdateDecorator@@@@A@@YAXXZ
text$di	SEGMENT
??__E?ms_kPool@?$CPooledObject@VCTextureAnimationCWDecorator@NEffectUpdateDecorator@@@@1V?$CDynamicPoolEx@VCTextureAnimationCWDecorator@NEffectUpdateDecorator@@@@A@@YAXXZ PROC ; `dynamic initializer for 'CPooledObject<NEffectUpdateDecorator::CTextureAnimationCWDecorator>::ms_kPool'', COMDAT

; 272  : template <class T> CDynamicPoolEx<T> CPooledObject<T>::ms_kPool;

  00000	68 00 00 00 00	 push	 OFFSET ??__F?ms_kPool@?$CPooledObject@VCTextureAnimationCWDecorator@NEffectUpdateDecorator@@@@1V?$CDynamicPoolEx@VCTextureAnimationCWDecorator@NEffectUpdateDecorator@@@@A@@YAXXZ ; `dynamic atexit destructor for 'CPooledObject<NEffectUpdateDecorator::CTextureAnimationCWDecorator>::ms_kPool''
  00005	e8 00 00 00 00	 call	 _atexit
  0000a	59		 pop	 ecx
  0000b	c3		 ret	 0
??__E?ms_kPool@?$CPooledObject@VCTextureAnimationCWDecorator@NEffectUpdateDecorator@@@@1V?$CDynamicPoolEx@VCTextureAnimationCWDecorator@NEffectUpdateDecorator@@@@A@@YAXXZ ENDP ; `dynamic initializer for 'CPooledObject<NEffectUpdateDecorator::CTextureAnimationCWDecorator>::ms_kPool''
text$di	ENDS
; Function compile flags: /Ogtp
;	COMDAT ??__F?ms_kPool@?$CPooledObject@VCNullDecorator@NEffectUpdateDecorator@@@@1V?$CDynamicPoolEx@VCNullDecorator@NEffectUpdateDecorator@@@@A@@YAXXZ
text$yd	SEGMENT
??__F?ms_kPool@?$CPooledObject@VCNullDecorator@NEffectUpdateDecorator@@@@1V?$CDynamicPoolEx@VCNullDecorator@NEffectUpdateDecorator@@@@A@@YAXXZ PROC ; `dynamic atexit destructor for 'CPooledObject<NEffectUpdateDecorator::CNullDecorator>::ms_kPool'', COMDAT
  00000	b9 00 00 00 00	 mov	 ecx, OFFSET ?ms_kPool@?$CPooledObject@VCNullDecorator@NEffectUpdateDecorator@@@@1V?$CDynamicPoolEx@VCNullDecorator@NEffectUpdateDecorator@@@@A ; CPooledObject<NEffectUpdateDecorator::CNullDecorator>::ms_kPool
  00005	e9 00 00 00 00	 jmp	 ??1?$CDynamicPoolEx@VCNullDecorator@NEffectUpdateDecorator@@@@UAE@XZ ; CDynamicPoolEx<NEffectUpdateDecorator::CNullDecorator>::~CDynamicPoolEx<NEffectUpdateDecorator::CNullDecorator>
??__F?ms_kPool@?$CPooledObject@VCNullDecorator@NEffectUpdateDecorator@@@@1V?$CDynamicPoolEx@VCNullDecorator@NEffectUpdateDecorator@@@@A@@YAXXZ ENDP ; `dynamic atexit destructor for 'CPooledObject<NEffectUpdateDecorator::CNullDecorator>::ms_kPool''
text$yd	ENDS
; Function compile flags: /Ogtp
; File C:\Users\murat\Desktop\Siveps2-1-99-Project\source\client\Client\eterLib\Pool.h
;	COMDAT ??__E?ms_kPool@?$CPooledObject@VCNullDecorator@NEffectUpdateDecorator@@@@1V?$CDynamicPoolEx@VCNullDecorator@NEffectUpdateDecorator@@@@A@@YAXXZ
text$di	SEGMENT
??__E?ms_kPool@?$CPooledObject@VCNullDecorator@NEffectUpdateDecorator@@@@1V?$CDynamicPoolEx@VCNullDecorator@NEffectUpdateDecorator@@@@A@@YAXXZ PROC ; `dynamic initializer for 'CPooledObject<NEffectUpdateDecorator::CNullDecorator>::ms_kPool'', COMDAT

; 272  : template <class T> CDynamicPoolEx<T> CPooledObject<T>::ms_kPool;

  00000	68 00 00 00 00	 push	 OFFSET ??__F?ms_kPool@?$CPooledObject@VCNullDecorator@NEffectUpdateDecorator@@@@1V?$CDynamicPoolEx@VCNullDecorator@NEffectUpdateDecorator@@@@A@@YAXXZ ; `dynamic atexit destructor for 'CPooledObject<NEffectUpdateDecorator::CNullDecorator>::ms_kPool''
  00005	e8 00 00 00 00	 call	 _atexit
  0000a	59		 pop	 ecx
  0000b	c3		 ret	 0
??__E?ms_kPool@?$CPooledObject@VCNullDecorator@NEffectUpdateDecorator@@@@1V?$CDynamicPoolEx@VCNullDecorator@NEffectUpdateDecorator@@@@A@@YAXXZ ENDP ; `dynamic initializer for 'CPooledObject<NEffectUpdateDecorator::CNullDecorator>::ms_kPool''
text$di	ENDS
; Function compile flags: /Ogtp
;	COMDAT ??__F?ms_kPool@?$CPooledObject@VCHeaderDecorator@NEffectUpdateDecorator@@@@1V?$CDynamicPoolEx@VCHeaderDecorator@NEffectUpdateDecorator@@@@A@@YAXXZ
text$yd	SEGMENT
??__F?ms_kPool@?$CPooledObject@VCHeaderDecorator@NEffectUpdateDecorator@@@@1V?$CDynamicPoolEx@VCHeaderDecorator@NEffectUpdateDecorator@@@@A@@YAXXZ PROC ; `dynamic atexit destructor for 'CPooledObject<NEffectUpdateDecorator::CHeaderDecorator>::ms_kPool'', COMDAT
  00000	b9 00 00 00 00	 mov	 ecx, OFFSET ?ms_kPool@?$CPooledObject@VCHeaderDecorator@NEffectUpdateDecorator@@@@1V?$CDynamicPoolEx@VCHeaderDecorator@NEffectUpdateDecorator@@@@A ; CPooledObject<NEffectUpdateDecorator::CHeaderDecorator>::ms_kPool
  00005	e9 00 00 00 00	 jmp	 ??1?$CDynamicPoolEx@VCHeaderDecorator@NEffectUpdateDecorator@@@@UAE@XZ ; CDynamicPoolEx<NEffectUpdateDecorator::CHeaderDecorator>::~CDynamicPoolEx<NEffectUpdateDecorator::CHeaderDecorator>
??__F?ms_kPool@?$CPooledObject@VCHeaderDecorator@NEffectUpdateDecorator@@@@1V?$CDynamicPoolEx@VCHeaderDecorator@NEffectUpdateDecorator@@@@A@@YAXXZ ENDP ; `dynamic atexit destructor for 'CPooledObject<NEffectUpdateDecorator::CHeaderDecorator>::ms_kPool''
text$yd	ENDS
; Function compile flags: /Ogtp
; File C:\Users\murat\Desktop\Siveps2-1-99-Project\source\client\Client\eterLib\Pool.h
;	COMDAT ??__E?ms_kPool@?$CPooledObject@VCHeaderDecorator@NEffectUpdateDecorator@@@@1V?$CDynamicPoolEx@VCHeaderDecorator@NEffectUpdateDecorator@@@@A@@YAXXZ
text$di	SEGMENT
??__E?ms_kPool@?$CPooledObject@VCHeaderDecorator@NEffectUpdateDecorator@@@@1V?$CDynamicPoolEx@VCHeaderDecorator@NEffectUpdateDecorator@@@@A@@YAXXZ PROC ; `dynamic initializer for 'CPooledObject<NEffectUpdateDecorator::CHeaderDecorator>::ms_kPool'', COMDAT

; 272  : template <class T> CDynamicPoolEx<T> CPooledObject<T>::ms_kPool;

  00000	68 00 00 00 00	 push	 OFFSET ??__F?ms_kPool@?$CPooledObject@VCHeaderDecorator@NEffectUpdateDecorator@@@@1V?$CDynamicPoolEx@VCHeaderDecorator@NEffectUpdateDecorator@@@@A@@YAXXZ ; `dynamic atexit destructor for 'CPooledObject<NEffectUpdateDecorator::CHeaderDecorator>::ms_kPool''
  00005	e8 00 00 00 00	 call	 _atexit
  0000a	59		 pop	 ecx
  0000b	c3		 ret	 0
??__E?ms_kPool@?$CPooledObject@VCHeaderDecorator@NEffectUpdateDecorator@@@@1V?$CDynamicPoolEx@VCHeaderDecorator@NEffectUpdateDecorator@@@@A@@YAXXZ ENDP ; `dynamic initializer for 'CPooledObject<NEffectUpdateDecorator::CHeaderDecorator>::ms_kPool''
text$di	ENDS
; Function compile flags: /Ogtp
;	COMDAT ??_G?$CDynamicPoolEx@VCHeaderDecorator@NEffectUpdateDecorator@@@@UAEPAXI@Z
_TEXT	SEGMENT
___flags$ = 8						; size = 4
??_G?$CDynamicPoolEx@VCHeaderDecorator@NEffectUpdateDecorator@@@@UAEPAXI@Z PROC ; CDynamicPoolEx<NEffectUpdateDecorator::CHeaderDecorator>::`scalar deleting destructor', COMDAT
; _this$ = ecx
  00000	55		 push	 ebp
  00001	8b ec		 mov	 ebp, esp
  00003	56		 push	 esi
  00004	8b f1		 mov	 esi, ecx
  00006	e8 00 00 00 00	 call	 ??1?$CDynamicPoolEx@VCHeaderDecorator@NEffectUpdateDecorator@@@@UAE@XZ ; CDynamicPoolEx<NEffectUpdateDecorator::CHeaderDecorator>::~CDynamicPoolEx<NEffectUpdateDecorator::CHeaderDecorator>
  0000b	f6 45 08 01	 test	 BYTE PTR ___flags$[ebp], 1
  0000f	74 0b		 je	 SHORT $LN4@scalar
  00011	6a 24		 push	 36			; 00000024H
  00013	56		 push	 esi
  00014	e8 00 00 00 00	 call	 ??3@YAXPAXI@Z		; operator delete
  00019	83 c4 08	 add	 esp, 8
$LN4@scalar:
  0001c	8b c6		 mov	 eax, esi
  0001e	5e		 pop	 esi
  0001f	5d		 pop	 ebp
  00020	c2 04 00	 ret	 4
??_G?$CDynamicPoolEx@VCHeaderDecorator@NEffectUpdateDecorator@@@@UAEPAXI@Z ENDP ; CDynamicPoolEx<NEffectUpdateDecorator::CHeaderDecorator>::`scalar deleting destructor'
_TEXT	ENDS
; Function compile flags: /Ogtp
; File C:\Users\murat\Desktop\Siveps2-1-99-Project\source\client\Client\eterLib\Pool.h
;	COMDAT ?Delete@?$CDynamicPoolEx@VCHeaderDecorator@NEffectUpdateDecorator@@@@KAXPAVCHeaderDecorator@NEffectUpdateDecorator@@@Z
_TEXT	SEGMENT
_pkData$ = 8						; size = 4
?Delete@?$CDynamicPoolEx@VCHeaderDecorator@NEffectUpdateDecorator@@@@KAXPAVCHeaderDecorator@NEffectUpdateDecorator@@@Z PROC ; CDynamicPoolEx<NEffectUpdateDecorator::CHeaderDecorator>::Delete, COMDAT

; 224  : 			::operator delete(pkData);

  00000	e9 00 00 00 00	 jmp	 ??3@YAXPAX@Z		; operator delete
?Delete@?$CDynamicPoolEx@VCHeaderDecorator@NEffectUpdateDecorator@@@@KAXPAVCHeaderDecorator@NEffectUpdateDecorator@@@Z ENDP ; CDynamicPoolEx<NEffectUpdateDecorator::CHeaderDecorator>::Delete
_TEXT	ENDS
; Function compile flags: /Ogtp
; File C:\Users\murat\Desktop\Siveps2-1-99-Project\source\client\Client\eterLib\Pool.h
; File C:\Program Files (x86)\Microsoft Visual Studio\2019\Professional\VC\Tools\MSVC\14.29.30133\include\vector
; File C:\Program Files (x86)\Microsoft Visual Studio\2019\Professional\VC\Tools\MSVC\14.29.30133\include\algorithm
; File C:\Users\murat\Desktop\Siveps2-1-99-Project\source\client\Client\eterLib\Pool.h
; File C:\Program Files (x86)\Microsoft Visual Studio\2019\Professional\VC\Tools\MSVC\14.29.30133\include\algorithm
; File C:\Users\murat\Desktop\Siveps2-1-99-Project\source\client\Client\eterLib\Pool.h
; File C:\Program Files (x86)\Microsoft Visual Studio\2019\Professional\VC\Tools\MSVC\14.29.30133\include\algorithm
; File C:\Users\murat\Desktop\Siveps2-1-99-Project\source\client\Client\eterLib\Pool.h
; File C:\Program Files (x86)\Microsoft Visual Studio\2019\Professional\VC\Tools\MSVC\14.29.30133\include\vector
; File C:\Program Files (x86)\Microsoft Visual Studio\2019\Professional\VC\Tools\MSVC\14.29.30133\include\xmemory
; File C:\Program Files (x86)\Microsoft Visual Studio\2019\Professional\VC\Tools\MSVC\14.29.30133\include\vector
; File C:\Program Files (x86)\Microsoft Visual Studio\2019\Professional\VC\Tools\MSVC\14.29.30133\include\xmemory
; File C:\Program Files (x86)\Microsoft Visual Studio\2019\Professional\VC\Tools\MSVC\14.29.30133\include\vector
; File C:\Program Files (x86)\Microsoft Visual Studio\2019\Professional\VC\Tools\MSVC\14.29.30133\include\xmemory
; File C:\Program Files (x86)\Microsoft Visual Studio\2019\Professional\VC\Tools\MSVC\14.29.30133\include\vector
; File C:\Program Files (x86)\Microsoft Visual Studio\2019\Professional\VC\Tools\MSVC\14.29.30133\include\xmemory
; File C:\Program Files (x86)\Microsoft Visual Studio\2019\Professional\VC\Tools\MSVC\14.29.30133\include\vector
; File C:\Users\murat\Desktop\Siveps2-1-99-Project\source\client\Client\eterLib\Pool.h
; File C:\Program Files (x86)\Microsoft Visual Studio\2019\Professional\VC\Tools\MSVC\14.29.30133\include\xmemory
; File C:\Users\murat\Desktop\Siveps2-1-99-Project\source\client\Client\eterLib\Pool.h
;	COMDAT ??1?$CDynamicPoolEx@VCHeaderDecorator@NEffectUpdateDecorator@@@@UAE@XZ
_TEXT	SEGMENT
??1?$CDynamicPoolEx@VCHeaderDecorator@NEffectUpdateDecorator@@@@UAE@XZ PROC ; CDynamicPoolEx<NEffectUpdateDecorator::CHeaderDecorator>::~CDynamicPoolEx<NEffectUpdateDecorator::CHeaderDecorator>, COMDAT
; _this$ = ecx

; 132  : 		{

  00000	53		 push	 ebx
  00001	56		 push	 esi
  00002	57		 push	 edi
  00003	8b f9		 mov	 edi, ecx
  00005	c7 07 00 00 00
	00		 mov	 DWORD PTR [edi], OFFSET ??_7?$CDynamicPoolEx@VCHeaderDecorator@NEffectUpdateDecorator@@@@6B@
; File C:\Program Files (x86)\Microsoft Visual Studio\2019\Professional\VC\Tools\MSVC\14.29.30133\include\vector

; 42   :     _CONSTEXPR20_CONTAINER _Vector_const_iterator(_Tptr _Parg, const _Container_base* _Pvector) noexcept : _Ptr(_Parg) {

  0000b	8b 5f 08	 mov	 ebx, DWORD PTR [edi+8]
  0000e	8b 77 04	 mov	 esi, DWORD PTR [edi+4]
; File C:\Program Files (x86)\Microsoft Visual Studio\2019\Professional\VC\Tools\MSVC\14.29.30133\include\algorithm

; 270  :     for (; _UFirst != _ULast; ++_UFirst) {

  00011	3b f3		 cmp	 esi, ebx
  00013	74 14		 je	 SHORT $LN19@CDynamicPo
$LL20@CDynamicPo:
; File C:\Users\murat\Desktop\Siveps2-1-99-Project\source\client\Client\eterLib\Pool.h

; 224  : 			::operator delete(pkData);

  00015	ff 36		 push	 DWORD PTR [esi]
  00017	e8 00 00 00 00	 call	 ??3@YAXPAX@Z		; operator delete
; File C:\Program Files (x86)\Microsoft Visual Studio\2019\Professional\VC\Tools\MSVC\14.29.30133\include\algorithm

; 270  :     for (; _UFirst != _ULast; ++_UFirst) {

  0001c	83 c6 04	 add	 esi, 4
; File C:\Users\murat\Desktop\Siveps2-1-99-Project\source\client\Client\eterLib\Pool.h

; 224  : 			::operator delete(pkData);

  0001f	83 c4 04	 add	 esp, 4
; File C:\Program Files (x86)\Microsoft Visual Studio\2019\Professional\VC\Tools\MSVC\14.29.30133\include\algorithm

; 270  :     for (; _UFirst != _ULast; ++_UFirst) {

  00022	3b f3		 cmp	 esi, ebx
  00024	75 ef		 jne	 SHORT $LL20@CDynamicPo
  00026	8b 77 04	 mov	 esi, DWORD PTR [edi+4]
$LN19@CDynamicPo:
; File C:\Users\murat\Desktop\Siveps2-1-99-Project\source\client\Client\eterLib\Pool.h

; 162  : 			m_kVct_pkFree.clear();

  00029	8b 47 10	 mov	 eax, DWORD PTR [edi+16]
  0002c	89 77 08	 mov	 DWORD PTR [edi+8], esi
  0002f	89 47 14	 mov	 DWORD PTR [edi+20], eax
; File C:\Program Files (x86)\Microsoft Visual Studio\2019\Professional\VC\Tools\MSVC\14.29.30133\include\vector

; 1763 :         if (_Myfirst) { // destroy and deallocate old array

  00032	85 c0		 test	 eax, eax
  00034	74 41		 je	 SHORT $LN27@CDynamicPo

; 1764 :             _Destroy(_Myfirst, _Mylast);
; 1765 :             _Getal().deallocate(_Myfirst, static_cast<size_type>(_Myend - _Myfirst));

  00036	8b 4f 18	 mov	 ecx, DWORD PTR [edi+24]
  00039	2b c8		 sub	 ecx, eax
; File C:\Program Files (x86)\Microsoft Visual Studio\2019\Professional\VC\Tools\MSVC\14.29.30133\include\xmemory

; 835  :         _Deallocate<_New_alignof<_Ty>>(_Ptr, sizeof(_Ty) * _Count);

  0003b	83 e1 fc	 and	 ecx, -4			; fffffffcH

; 260  :         if (_Bytes >= _Big_allocation_threshold) { // boost the alignment of big allocations to help autovectorization

  0003e	81 f9 00 10 00
	00		 cmp	 ecx, 4096		; 00001000H
  00044	72 12		 jb	 SHORT $LN43@CDynamicPo

; 158  :     const uintptr_t _Ptr_container   = _Ptr_user[-1];

  00046	8b 50 fc	 mov	 edx, DWORD PTR [eax-4]
  00049	83 c1 23	 add	 ecx, 35			; 00000023H

; 159  : 
; 160  :     // If the following asserts, it likely means that we are performing
; 161  :     // an aligned delete on memory coming from an unaligned allocation.
; 162  :     _STL_ASSERT(_Ptr_user[-2] == _Big_allocation_sentinel, "invalid argument");
; 163  : 
; 164  :     // Extra paranoia on aligned allocation/deallocation; ensure _Ptr_container is
; 165  :     // in range [_Min_back_shift, _Non_user_size]
; 166  : #ifdef _DEBUG
; 167  :     constexpr uintptr_t _Min_back_shift = 2 * sizeof(void*);
; 168  : #else // ^^^ _DEBUG ^^^ // vvv !_DEBUG vvv
; 169  :     constexpr uintptr_t _Min_back_shift = sizeof(void*);
; 170  : #endif // _DEBUG
; 171  :     const uintptr_t _Back_shift = reinterpret_cast<uintptr_t>(_Ptr) - _Ptr_container;

  0004c	2b c2		 sub	 eax, edx

; 172  :     _STL_VERIFY(_Back_shift >= _Min_back_shift && _Back_shift <= _Non_user_size, "invalid argument");

  0004e	83 c0 fc	 add	 eax, -4			; fffffffcH
  00051	83 f8 1f	 cmp	 eax, 31			; 0000001fH
  00054	77 6d		 ja	 SHORT $LN65@CDynamicPo

; 173  :     _Ptr = reinterpret_cast<void*>(_Ptr_container);

  00056	8b c2		 mov	 eax, edx
$LN43@CDynamicPo:

; 264  :         ::operator delete(_Ptr, _Bytes);

  00058	51		 push	 ecx
  00059	50		 push	 eax
  0005a	e8 00 00 00 00	 call	 ??3@YAXPAXI@Z		; operator delete
; File C:\Program Files (x86)\Microsoft Visual Studio\2019\Professional\VC\Tools\MSVC\14.29.30133\include\vector

; 1767 :             _Myfirst = nullptr;

  0005f	c7 47 10 00 00
	00 00		 mov	 DWORD PTR [edi+16], 0
; File C:\Program Files (x86)\Microsoft Visual Studio\2019\Professional\VC\Tools\MSVC\14.29.30133\include\xmemory

; 264  :         ::operator delete(_Ptr, _Bytes);

  00066	83 c4 08	 add	 esp, 8
; File C:\Program Files (x86)\Microsoft Visual Studio\2019\Professional\VC\Tools\MSVC\14.29.30133\include\vector

; 1768 :             _Mylast  = nullptr;

  00069	c7 47 14 00 00
	00 00		 mov	 DWORD PTR [edi+20], 0

; 1769 :             _Myend   = nullptr;

  00070	c7 47 18 00 00
	00 00		 mov	 DWORD PTR [edi+24], 0
$LN27@CDynamicPo:

; 1763 :         if (_Myfirst) { // destroy and deallocate old array

  00077	8b 47 04	 mov	 eax, DWORD PTR [edi+4]
  0007a	85 c0		 test	 eax, eax
  0007c	74 41		 je	 SHORT $LN52@CDynamicPo

; 1764 :             _Destroy(_Myfirst, _Mylast);
; 1765 :             _Getal().deallocate(_Myfirst, static_cast<size_type>(_Myend - _Myfirst));

  0007e	8b 4f 0c	 mov	 ecx, DWORD PTR [edi+12]
  00081	2b c8		 sub	 ecx, eax
; File C:\Program Files (x86)\Microsoft Visual Studio\2019\Professional\VC\Tools\MSVC\14.29.30133\include\xmemory

; 835  :         _Deallocate<_New_alignof<_Ty>>(_Ptr, sizeof(_Ty) * _Count);

  00083	83 e1 fc	 and	 ecx, -4			; fffffffcH

; 260  :         if (_Bytes >= _Big_allocation_threshold) { // boost the alignment of big allocations to help autovectorization

  00086	81 f9 00 10 00
	00		 cmp	 ecx, 4096		; 00001000H
  0008c	72 12		 jb	 SHORT $LN68@CDynamicPo

; 158  :     const uintptr_t _Ptr_container   = _Ptr_user[-1];

  0008e	8b 50 fc	 mov	 edx, DWORD PTR [eax-4]
  00091	83 c1 23	 add	 ecx, 35			; 00000023H

; 159  : 
; 160  :     // If the following asserts, it likely means that we are performing
; 161  :     // an aligned delete on memory coming from an unaligned allocation.
; 162  :     _STL_ASSERT(_Ptr_user[-2] == _Big_allocation_sentinel, "invalid argument");
; 163  : 
; 164  :     // Extra paranoia on aligned allocation/deallocation; ensure _Ptr_container is
; 165  :     // in range [_Min_back_shift, _Non_user_size]
; 166  : #ifdef _DEBUG
; 167  :     constexpr uintptr_t _Min_back_shift = 2 * sizeof(void*);
; 168  : #else // ^^^ _DEBUG ^^^ // vvv !_DEBUG vvv
; 169  :     constexpr uintptr_t _Min_back_shift = sizeof(void*);
; 170  : #endif // _DEBUG
; 171  :     const uintptr_t _Back_shift = reinterpret_cast<uintptr_t>(_Ptr) - _Ptr_container;

  00094	2b c2		 sub	 eax, edx

; 172  :     _STL_VERIFY(_Back_shift >= _Min_back_shift && _Back_shift <= _Non_user_size, "invalid argument");

  00096	83 c0 fc	 add	 eax, -4			; fffffffcH
  00099	83 f8 1f	 cmp	 eax, 31			; 0000001fH
  0009c	77 25		 ja	 SHORT $LN65@CDynamicPo

; 173  :     _Ptr = reinterpret_cast<void*>(_Ptr_container);

  0009e	8b c2		 mov	 eax, edx
$LN68@CDynamicPo:

; 264  :         ::operator delete(_Ptr, _Bytes);

  000a0	51		 push	 ecx
  000a1	50		 push	 eax
  000a2	e8 00 00 00 00	 call	 ??3@YAXPAXI@Z		; operator delete
; File C:\Program Files (x86)\Microsoft Visual Studio\2019\Professional\VC\Tools\MSVC\14.29.30133\include\vector

; 1767 :             _Myfirst = nullptr;

  000a7	c7 47 04 00 00
	00 00		 mov	 DWORD PTR [edi+4], 0
; File C:\Program Files (x86)\Microsoft Visual Studio\2019\Professional\VC\Tools\MSVC\14.29.30133\include\xmemory

; 264  :         ::operator delete(_Ptr, _Bytes);

  000ae	83 c4 08	 add	 esp, 8
; File C:\Program Files (x86)\Microsoft Visual Studio\2019\Professional\VC\Tools\MSVC\14.29.30133\include\vector

; 1768 :             _Mylast  = nullptr;

  000b1	c7 47 08 00 00
	00 00		 mov	 DWORD PTR [edi+8], 0

; 1769 :             _Myend   = nullptr;

  000b8	c7 47 0c 00 00
	00 00		 mov	 DWORD PTR [edi+12], 0
$LN52@CDynamicPo:
  000bf	5f		 pop	 edi
; File C:\Users\murat\Desktop\Siveps2-1-99-Project\source\client\Client\eterLib\Pool.h

; 142  : 		}

  000c0	5e		 pop	 esi
  000c1	5b		 pop	 ebx
  000c2	c3		 ret	 0
$LN65@CDynamicPo:
; File C:\Program Files (x86)\Microsoft Visual Studio\2019\Professional\VC\Tools\MSVC\14.29.30133\include\xmemory

; 172  :     _STL_VERIFY(_Back_shift >= _Min_back_shift && _Back_shift <= _Non_user_size, "invalid argument");

  000c3	e8 00 00 00 00	 call	 __invalid_parameter_noinfo_noreturn
$LN77@CDynamicPo:
  000c8	cc		 int	 3
??1?$CDynamicPoolEx@VCHeaderDecorator@NEffectUpdateDecorator@@@@UAE@XZ ENDP ; CDynamicPoolEx<NEffectUpdateDecorator::CHeaderDecorator>::~CDynamicPoolEx<NEffectUpdateDecorator::CHeaderDecorator>
_TEXT	ENDS
; Function compile flags: /Ogtp
;	COMDAT ??_G?$CDynamicPoolEx@VCNullDecorator@NEffectUpdateDecorator@@@@UAEPAXI@Z
_TEXT	SEGMENT
___flags$ = 8						; size = 4
??_G?$CDynamicPoolEx@VCNullDecorator@NEffectUpdateDecorator@@@@UAEPAXI@Z PROC ; CDynamicPoolEx<NEffectUpdateDecorator::CNullDecorator>::`scalar deleting destructor', COMDAT
; _this$ = ecx
  00000	55		 push	 ebp
  00001	8b ec		 mov	 ebp, esp
  00003	56		 push	 esi
  00004	8b f1		 mov	 esi, ecx
  00006	e8 00 00 00 00	 call	 ??1?$CDynamicPoolEx@VCNullDecorator@NEffectUpdateDecorator@@@@UAE@XZ ; CDynamicPoolEx<NEffectUpdateDecorator::CNullDecorator>::~CDynamicPoolEx<NEffectUpdateDecorator::CNullDecorator>
  0000b	f6 45 08 01	 test	 BYTE PTR ___flags$[ebp], 1
  0000f	74 0b		 je	 SHORT $LN4@scalar
  00011	6a 24		 push	 36			; 00000024H
  00013	56		 push	 esi
  00014	e8 00 00 00 00	 call	 ??3@YAXPAXI@Z		; operator delete
  00019	83 c4 08	 add	 esp, 8
$LN4@scalar:
  0001c	8b c6		 mov	 eax, esi
  0001e	5e		 pop	 esi
  0001f	5d		 pop	 ebp
  00020	c2 04 00	 ret	 4
??_G?$CDynamicPoolEx@VCNullDecorator@NEffectUpdateDecorator@@@@UAEPAXI@Z ENDP ; CDynamicPoolEx<NEffectUpdateDecorator::CNullDecorator>::`scalar deleting destructor'
_TEXT	ENDS
; Function compile flags: /Ogtp
; File C:\Users\murat\Desktop\Siveps2-1-99-Project\source\client\Client\eterLib\Pool.h
;	COMDAT ?Delete@?$CDynamicPoolEx@VCNullDecorator@NEffectUpdateDecorator@@@@KAXPAVCNullDecorator@NEffectUpdateDecorator@@@Z
_TEXT	SEGMENT
_pkData$ = 8						; size = 4
?Delete@?$CDynamicPoolEx@VCNullDecorator@NEffectUpdateDecorator@@@@KAXPAVCNullDecorator@NEffectUpdateDecorator@@@Z PROC ; CDynamicPoolEx<NEffectUpdateDecorator::CNullDecorator>::Delete, COMDAT

; 224  : 			::operator delete(pkData);

  00000	e9 00 00 00 00	 jmp	 ??3@YAXPAX@Z		; operator delete
?Delete@?$CDynamicPoolEx@VCNullDecorator@NEffectUpdateDecorator@@@@KAXPAVCNullDecorator@NEffectUpdateDecorator@@@Z ENDP ; CDynamicPoolEx<NEffectUpdateDecorator::CNullDecorator>::Delete
_TEXT	ENDS
; Function compile flags: /Ogtp
; File C:\Users\murat\Desktop\Siveps2-1-99-Project\source\client\Client\eterLib\Pool.h
; File C:\Program Files (x86)\Microsoft Visual Studio\2019\Professional\VC\Tools\MSVC\14.29.30133\include\vector
; File C:\Program Files (x86)\Microsoft Visual Studio\2019\Professional\VC\Tools\MSVC\14.29.30133\include\algorithm
; File C:\Users\murat\Desktop\Siveps2-1-99-Project\source\client\Client\eterLib\Pool.h
; File C:\Program Files (x86)\Microsoft Visual Studio\2019\Professional\VC\Tools\MSVC\14.29.30133\include\algorithm
; File C:\Users\murat\Desktop\Siveps2-1-99-Project\source\client\Client\eterLib\Pool.h
; File C:\Program Files (x86)\Microsoft Visual Studio\2019\Professional\VC\Tools\MSVC\14.29.30133\include\algorithm
; File C:\Users\murat\Desktop\Siveps2-1-99-Project\source\client\Client\eterLib\Pool.h
; File C:\Program Files (x86)\Microsoft Visual Studio\2019\Professional\VC\Tools\MSVC\14.29.30133\include\vector
; File C:\Program Files (x86)\Microsoft Visual Studio\2019\Professional\VC\Tools\MSVC\14.29.30133\include\xmemory
; File C:\Program Files (x86)\Microsoft Visual Studio\2019\Professional\VC\Tools\MSVC\14.29.30133\include\vector
; File C:\Program Files (x86)\Microsoft Visual Studio\2019\Professional\VC\Tools\MSVC\14.29.30133\include\xmemory
; File C:\Program Files (x86)\Microsoft Visual Studio\2019\Professional\VC\Tools\MSVC\14.29.30133\include\vector
; File C:\Program Files (x86)\Microsoft Visual Studio\2019\Professional\VC\Tools\MSVC\14.29.30133\include\xmemory
; File C:\Program Files (x86)\Microsoft Visual Studio\2019\Professional\VC\Tools\MSVC\14.29.30133\include\vector
; File C:\Program Files (x86)\Microsoft Visual Studio\2019\Professional\VC\Tools\MSVC\14.29.30133\include\xmemory
; File C:\Program Files (x86)\Microsoft Visual Studio\2019\Professional\VC\Tools\MSVC\14.29.30133\include\vector
; File C:\Users\murat\Desktop\Siveps2-1-99-Project\source\client\Client\eterLib\Pool.h
; File C:\Program Files (x86)\Microsoft Visual Studio\2019\Professional\VC\Tools\MSVC\14.29.30133\include\xmemory
; File C:\Users\murat\Desktop\Siveps2-1-99-Project\source\client\Client\eterLib\Pool.h
;	COMDAT ??1?$CDynamicPoolEx@VCNullDecorator@NEffectUpdateDecorator@@@@UAE@XZ
_TEXT	SEGMENT
??1?$CDynamicPoolEx@VCNullDecorator@NEffectUpdateDecorator@@@@UAE@XZ PROC ; CDynamicPoolEx<NEffectUpdateDecorator::CNullDecorator>::~CDynamicPoolEx<NEffectUpdateDecorator::CNullDecorator>, COMDAT
; _this$ = ecx

; 132  : 		{

  00000	53		 push	 ebx
  00001	56		 push	 esi
  00002	57		 push	 edi
  00003	8b f9		 mov	 edi, ecx
  00005	c7 07 00 00 00
	00		 mov	 DWORD PTR [edi], OFFSET ??_7?$CDynamicPoolEx@VCNullDecorator@NEffectUpdateDecorator@@@@6B@
; File C:\Program Files (x86)\Microsoft Visual Studio\2019\Professional\VC\Tools\MSVC\14.29.30133\include\vector

; 42   :     _CONSTEXPR20_CONTAINER _Vector_const_iterator(_Tptr _Parg, const _Container_base* _Pvector) noexcept : _Ptr(_Parg) {

  0000b	8b 5f 08	 mov	 ebx, DWORD PTR [edi+8]
  0000e	8b 77 04	 mov	 esi, DWORD PTR [edi+4]
; File C:\Program Files (x86)\Microsoft Visual Studio\2019\Professional\VC\Tools\MSVC\14.29.30133\include\algorithm

; 270  :     for (; _UFirst != _ULast; ++_UFirst) {

  00011	3b f3		 cmp	 esi, ebx
  00013	74 14		 je	 SHORT $LN19@CDynamicPo
$LL20@CDynamicPo:
; File C:\Users\murat\Desktop\Siveps2-1-99-Project\source\client\Client\eterLib\Pool.h

; 224  : 			::operator delete(pkData);

  00015	ff 36		 push	 DWORD PTR [esi]
  00017	e8 00 00 00 00	 call	 ??3@YAXPAX@Z		; operator delete
; File C:\Program Files (x86)\Microsoft Visual Studio\2019\Professional\VC\Tools\MSVC\14.29.30133\include\algorithm

; 270  :     for (; _UFirst != _ULast; ++_UFirst) {

  0001c	83 c6 04	 add	 esi, 4
; File C:\Users\murat\Desktop\Siveps2-1-99-Project\source\client\Client\eterLib\Pool.h

; 224  : 			::operator delete(pkData);

  0001f	83 c4 04	 add	 esp, 4
; File C:\Program Files (x86)\Microsoft Visual Studio\2019\Professional\VC\Tools\MSVC\14.29.30133\include\algorithm

; 270  :     for (; _UFirst != _ULast; ++_UFirst) {

  00022	3b f3		 cmp	 esi, ebx
  00024	75 ef		 jne	 SHORT $LL20@CDynamicPo
  00026	8b 77 04	 mov	 esi, DWORD PTR [edi+4]
$LN19@CDynamicPo:
; File C:\Users\murat\Desktop\Siveps2-1-99-Project\source\client\Client\eterLib\Pool.h

; 162  : 			m_kVct_pkFree.clear();

  00029	8b 47 10	 mov	 eax, DWORD PTR [edi+16]
  0002c	89 77 08	 mov	 DWORD PTR [edi+8], esi
  0002f	89 47 14	 mov	 DWORD PTR [edi+20], eax
; File C:\Program Files (x86)\Microsoft Visual Studio\2019\Professional\VC\Tools\MSVC\14.29.30133\include\vector

; 1763 :         if (_Myfirst) { // destroy and deallocate old array

  00032	85 c0		 test	 eax, eax
  00034	74 41		 je	 SHORT $LN27@CDynamicPo

; 1764 :             _Destroy(_Myfirst, _Mylast);
; 1765 :             _Getal().deallocate(_Myfirst, static_cast<size_type>(_Myend - _Myfirst));

  00036	8b 4f 18	 mov	 ecx, DWORD PTR [edi+24]
  00039	2b c8		 sub	 ecx, eax
; File C:\Program Files (x86)\Microsoft Visual Studio\2019\Professional\VC\Tools\MSVC\14.29.30133\include\xmemory

; 835  :         _Deallocate<_New_alignof<_Ty>>(_Ptr, sizeof(_Ty) * _Count);

  0003b	83 e1 fc	 and	 ecx, -4			; fffffffcH

; 260  :         if (_Bytes >= _Big_allocation_threshold) { // boost the alignment of big allocations to help autovectorization

  0003e	81 f9 00 10 00
	00		 cmp	 ecx, 4096		; 00001000H
  00044	72 12		 jb	 SHORT $LN43@CDynamicPo

; 158  :     const uintptr_t _Ptr_container   = _Ptr_user[-1];

  00046	8b 50 fc	 mov	 edx, DWORD PTR [eax-4]
  00049	83 c1 23	 add	 ecx, 35			; 00000023H

; 159  : 
; 160  :     // If the following asserts, it likely means that we are performing
; 161  :     // an aligned delete on memory coming from an unaligned allocation.
; 162  :     _STL_ASSERT(_Ptr_user[-2] == _Big_allocation_sentinel, "invalid argument");
; 163  : 
; 164  :     // Extra paranoia on aligned allocation/deallocation; ensure _Ptr_container is
; 165  :     // in range [_Min_back_shift, _Non_user_size]
; 166  : #ifdef _DEBUG
; 167  :     constexpr uintptr_t _Min_back_shift = 2 * sizeof(void*);
; 168  : #else // ^^^ _DEBUG ^^^ // vvv !_DEBUG vvv
; 169  :     constexpr uintptr_t _Min_back_shift = sizeof(void*);
; 170  : #endif // _DEBUG
; 171  :     const uintptr_t _Back_shift = reinterpret_cast<uintptr_t>(_Ptr) - _Ptr_container;

  0004c	2b c2		 sub	 eax, edx

; 172  :     _STL_VERIFY(_Back_shift >= _Min_back_shift && _Back_shift <= _Non_user_size, "invalid argument");

  0004e	83 c0 fc	 add	 eax, -4			; fffffffcH
  00051	83 f8 1f	 cmp	 eax, 31			; 0000001fH
  00054	77 6d		 ja	 SHORT $LN65@CDynamicPo

; 173  :     _Ptr = reinterpret_cast<void*>(_Ptr_container);

  00056	8b c2		 mov	 eax, edx
$LN43@CDynamicPo:

; 264  :         ::operator delete(_Ptr, _Bytes);

  00058	51		 push	 ecx
  00059	50		 push	 eax
  0005a	e8 00 00 00 00	 call	 ??3@YAXPAXI@Z		; operator delete
; File C:\Program Files (x86)\Microsoft Visual Studio\2019\Professional\VC\Tools\MSVC\14.29.30133\include\vector

; 1767 :             _Myfirst = nullptr;

  0005f	c7 47 10 00 00
	00 00		 mov	 DWORD PTR [edi+16], 0
; File C:\Program Files (x86)\Microsoft Visual Studio\2019\Professional\VC\Tools\MSVC\14.29.30133\include\xmemory

; 264  :         ::operator delete(_Ptr, _Bytes);

  00066	83 c4 08	 add	 esp, 8
; File C:\Program Files (x86)\Microsoft Visual Studio\2019\Professional\VC\Tools\MSVC\14.29.30133\include\vector

; 1768 :             _Mylast  = nullptr;

  00069	c7 47 14 00 00
	00 00		 mov	 DWORD PTR [edi+20], 0

; 1769 :             _Myend   = nullptr;

  00070	c7 47 18 00 00
	00 00		 mov	 DWORD PTR [edi+24], 0
$LN27@CDynamicPo:

; 1763 :         if (_Myfirst) { // destroy and deallocate old array

  00077	8b 47 04	 mov	 eax, DWORD PTR [edi+4]
  0007a	85 c0		 test	 eax, eax
  0007c	74 41		 je	 SHORT $LN52@CDynamicPo

; 1764 :             _Destroy(_Myfirst, _Mylast);
; 1765 :             _Getal().deallocate(_Myfirst, static_cast<size_type>(_Myend - _Myfirst));

  0007e	8b 4f 0c	 mov	 ecx, DWORD PTR [edi+12]
  00081	2b c8		 sub	 ecx, eax
; File C:\Program Files (x86)\Microsoft Visual Studio\2019\Professional\VC\Tools\MSVC\14.29.30133\include\xmemory

; 835  :         _Deallocate<_New_alignof<_Ty>>(_Ptr, sizeof(_Ty) * _Count);

  00083	83 e1 fc	 and	 ecx, -4			; fffffffcH

; 260  :         if (_Bytes >= _Big_allocation_threshold) { // boost the alignment of big allocations to help autovectorization

  00086	81 f9 00 10 00
	00		 cmp	 ecx, 4096		; 00001000H
  0008c	72 12		 jb	 SHORT $LN68@CDynamicPo

; 158  :     const uintptr_t _Ptr_container   = _Ptr_user[-1];

  0008e	8b 50 fc	 mov	 edx, DWORD PTR [eax-4]
  00091	83 c1 23	 add	 ecx, 35			; 00000023H

; 159  : 
; 160  :     // If the following asserts, it likely means that we are performing
; 161  :     // an aligned delete on memory coming from an unaligned allocation.
; 162  :     _STL_ASSERT(_Ptr_user[-2] == _Big_allocation_sentinel, "invalid argument");
; 163  : 
; 164  :     // Extra paranoia on aligned allocation/deallocation; ensure _Ptr_container is
; 165  :     // in range [_Min_back_shift, _Non_user_size]
; 166  : #ifdef _DEBUG
; 167  :     constexpr uintptr_t _Min_back_shift = 2 * sizeof(void*);
; 168  : #else // ^^^ _DEBUG ^^^ // vvv !_DEBUG vvv
; 169  :     constexpr uintptr_t _Min_back_shift = sizeof(void*);
; 170  : #endif // _DEBUG
; 171  :     const uintptr_t _Back_shift = reinterpret_cast<uintptr_t>(_Ptr) - _Ptr_container;

  00094	2b c2		 sub	 eax, edx

; 172  :     _STL_VERIFY(_Back_shift >= _Min_back_shift && _Back_shift <= _Non_user_size, "invalid argument");

  00096	83 c0 fc	 add	 eax, -4			; fffffffcH
  00099	83 f8 1f	 cmp	 eax, 31			; 0000001fH
  0009c	77 25		 ja	 SHORT $LN65@CDynamicPo

; 173  :     _Ptr = reinterpret_cast<void*>(_Ptr_container);

  0009e	8b c2		 mov	 eax, edx
$LN68@CDynamicPo:

; 264  :         ::operator delete(_Ptr, _Bytes);

  000a0	51		 push	 ecx
  000a1	50		 push	 eax
  000a2	e8 00 00 00 00	 call	 ??3@YAXPAXI@Z		; operator delete
; File C:\Program Files (x86)\Microsoft Visual Studio\2019\Professional\VC\Tools\MSVC\14.29.30133\include\vector

; 1767 :             _Myfirst = nullptr;

  000a7	c7 47 04 00 00
	00 00		 mov	 DWORD PTR [edi+4], 0
; File C:\Program Files (x86)\Microsoft Visual Studio\2019\Professional\VC\Tools\MSVC\14.29.30133\include\xmemory

; 264  :         ::operator delete(_Ptr, _Bytes);

  000ae	83 c4 08	 add	 esp, 8
; File C:\Program Files (x86)\Microsoft Visual Studio\2019\Professional\VC\Tools\MSVC\14.29.30133\include\vector

; 1768 :             _Mylast  = nullptr;

  000b1	c7 47 08 00 00
	00 00		 mov	 DWORD PTR [edi+8], 0

; 1769 :             _Myend   = nullptr;

  000b8	c7 47 0c 00 00
	00 00		 mov	 DWORD PTR [edi+12], 0
$LN52@CDynamicPo:
  000bf	5f		 pop	 edi
; File C:\Users\murat\Desktop\Siveps2-1-99-Project\source\client\Client\eterLib\Pool.h

; 142  : 		}

  000c0	5e		 pop	 esi
  000c1	5b		 pop	 ebx
  000c2	c3		 ret	 0
$LN65@CDynamicPo:
; File C:\Program Files (x86)\Microsoft Visual Studio\2019\Professional\VC\Tools\MSVC\14.29.30133\include\xmemory

; 172  :     _STL_VERIFY(_Back_shift >= _Min_back_shift && _Back_shift <= _Non_user_size, "invalid argument");

  000c3	e8 00 00 00 00	 call	 __invalid_parameter_noinfo_noreturn
$LN77@CDynamicPo:
  000c8	cc		 int	 3
??1?$CDynamicPoolEx@VCNullDecorator@NEffectUpdateDecorator@@@@UAE@XZ ENDP ; CDynamicPoolEx<NEffectUpdateDecorator::CNullDecorator>::~CDynamicPoolEx<NEffectUpdateDecorator::CNullDecorator>
_TEXT	ENDS
; Function compile flags: /Ogtp
;	COMDAT ??_G?$CDynamicPoolEx@VCTextureAnimationCWDecorator@NEffectUpdateDecorator@@@@UAEPAXI@Z
_TEXT	SEGMENT
___flags$ = 8						; size = 4
??_G?$CDynamicPoolEx@VCTextureAnimationCWDecorator@NEffectUpdateDecorator@@@@UAEPAXI@Z PROC ; CDynamicPoolEx<NEffectUpdateDecorator::CTextureAnimationCWDecorator>::`scalar deleting destructor', COMDAT
; _this$ = ecx
  00000	55		 push	 ebp
  00001	8b ec		 mov	 ebp, esp
  00003	56		 push	 esi
  00004	8b f1		 mov	 esi, ecx
  00006	e8 00 00 00 00	 call	 ??1?$CDynamicPoolEx@VCTextureAnimationCWDecorator@NEffectUpdateDecorator@@@@UAE@XZ ; CDynamicPoolEx<NEffectUpdateDecorator::CTextureAnimationCWDecorator>::~CDynamicPoolEx<NEffectUpdateDecorator::CTextureAnimationCWDecorator>
  0000b	f6 45 08 01	 test	 BYTE PTR ___flags$[ebp], 1
  0000f	74 0b		 je	 SHORT $LN4@scalar
  00011	6a 24		 push	 36			; 00000024H
  00013	56		 push	 esi
  00014	e8 00 00 00 00	 call	 ??3@YAXPAXI@Z		; operator delete
  00019	83 c4 08	 add	 esp, 8
$LN4@scalar:
  0001c	8b c6		 mov	 eax, esi
  0001e	5e		 pop	 esi
  0001f	5d		 pop	 ebp
  00020	c2 04 00	 ret	 4
??_G?$CDynamicPoolEx@VCTextureAnimationCWDecorator@NEffectUpdateDecorator@@@@UAEPAXI@Z ENDP ; CDynamicPoolEx<NEffectUpdateDecorator::CTextureAnimationCWDecorator>::`scalar deleting destructor'
_TEXT	ENDS
; Function compile flags: /Ogtp
; File C:\Users\murat\Desktop\Siveps2-1-99-Project\source\client\Client\eterLib\Pool.h
;	COMDAT ?Delete@?$CDynamicPoolEx@VCTextureAnimationCWDecorator@NEffectUpdateDecorator@@@@KAXPAVCTextureAnimationCWDecorator@NEffectUpdateDecorator@@@Z
_TEXT	SEGMENT
_pkData$ = 8						; size = 4
?Delete@?$CDynamicPoolEx@VCTextureAnimationCWDecorator@NEffectUpdateDecorator@@@@KAXPAVCTextureAnimationCWDecorator@NEffectUpdateDecorator@@@Z PROC ; CDynamicPoolEx<NEffectUpdateDecorator::CTextureAnimationCWDecorator>::Delete, COMDAT

; 224  : 			::operator delete(pkData);

  00000	e9 00 00 00 00	 jmp	 ??3@YAXPAX@Z		; operator delete
?Delete@?$CDynamicPoolEx@VCTextureAnimationCWDecorator@NEffectUpdateDecorator@@@@KAXPAVCTextureAnimationCWDecorator@NEffectUpdateDecorator@@@Z ENDP ; CDynamicPoolEx<NEffectUpdateDecorator::CTextureAnimationCWDecorator>::Delete
_TEXT	ENDS
; Function compile flags: /Ogtp
; File C:\Users\murat\Desktop\Siveps2-1-99-Project\source\client\Client\eterLib\Pool.h
; File C:\Program Files (x86)\Microsoft Visual Studio\2019\Professional\VC\Tools\MSVC\14.29.30133\include\vector
; File C:\Program Files (x86)\Microsoft Visual Studio\2019\Professional\VC\Tools\MSVC\14.29.30133\include\algorithm
; File C:\Users\murat\Desktop\Siveps2-1-99-Project\source\client\Client\eterLib\Pool.h
; File C:\Program Files (x86)\Microsoft Visual Studio\2019\Professional\VC\Tools\MSVC\14.29.30133\include\algorithm
; File C:\Users\murat\Desktop\Siveps2-1-99-Project\source\client\Client\eterLib\Pool.h
; File C:\Program Files (x86)\Microsoft Visual Studio\2019\Professional\VC\Tools\MSVC\14.29.30133\include\algorithm
; File C:\Users\murat\Desktop\Siveps2-1-99-Project\source\client\Client\eterLib\Pool.h
; File C:\Program Files (x86)\Microsoft Visual Studio\2019\Professional\VC\Tools\MSVC\14.29.30133\include\vector
; File C:\Program Files (x86)\Microsoft Visual Studio\2019\Professional\VC\Tools\MSVC\14.29.30133\include\xmemory
; File C:\Program Files (x86)\Microsoft Visual Studio\2019\Professional\VC\Tools\MSVC\14.29.30133\include\vector
; File C:\Program Files (x86)\Microsoft Visual Studio\2019\Professional\VC\Tools\MSVC\14.29.30133\include\xmemory
; File C:\Program Files (x86)\Microsoft Visual Studio\2019\Professional\VC\Tools\MSVC\14.29.30133\include\vector
; File C:\Program Files (x86)\Microsoft Visual Studio\2019\Professional\VC\Tools\MSVC\14.29.30133\include\xmemory
; File C:\Program Files (x86)\Microsoft Visual Studio\2019\Professional\VC\Tools\MSVC\14.29.30133\include\vector
; File C:\Program Files (x86)\Microsoft Visual Studio\2019\Professional\VC\Tools\MSVC\14.29.30133\include\xmemory
; File C:\Program Files (x86)\Microsoft Visual Studio\2019\Professional\VC\Tools\MSVC\14.29.30133\include\vector
; File C:\Users\murat\Desktop\Siveps2-1-99-Project\source\client\Client\eterLib\Pool.h
; File C:\Program Files (x86)\Microsoft Visual Studio\2019\Professional\VC\Tools\MSVC\14.29.30133\include\xmemory
; File C:\Users\murat\Desktop\Siveps2-1-99-Project\source\client\Client\eterLib\Pool.h
;	COMDAT ??1?$CDynamicPoolEx@VCTextureAnimationCWDecorator@NEffectUpdateDecorator@@@@UAE@XZ
_TEXT	SEGMENT
??1?$CDynamicPoolEx@VCTextureAnimationCWDecorator@NEffectUpdateDecorator@@@@UAE@XZ PROC ; CDynamicPoolEx<NEffectUpdateDecorator::CTextureAnimationCWDecorator>::~CDynamicPoolEx<NEffectUpdateDecorator::CTextureAnimationCWDecorator>, COMDAT
; _this$ = ecx

; 132  : 		{

  00000	53		 push	 ebx
  00001	56		 push	 esi
  00002	57		 push	 edi
  00003	8b f9		 mov	 edi, ecx
  00005	c7 07 00 00 00
	00		 mov	 DWORD PTR [edi], OFFSET ??_7?$CDynamicPoolEx@VCTextureAnimationCWDecorator@NEffectUpdateDecorator@@@@6B@
; File C:\Program Files (x86)\Microsoft Visual Studio\2019\Professional\VC\Tools\MSVC\14.29.30133\include\vector

; 42   :     _CONSTEXPR20_CONTAINER _Vector_const_iterator(_Tptr _Parg, const _Container_base* _Pvector) noexcept : _Ptr(_Parg) {

  0000b	8b 5f 08	 mov	 ebx, DWORD PTR [edi+8]
  0000e	8b 77 04	 mov	 esi, DWORD PTR [edi+4]
; File C:\Program Files (x86)\Microsoft Visual Studio\2019\Professional\VC\Tools\MSVC\14.29.30133\include\algorithm

; 270  :     for (; _UFirst != _ULast; ++_UFirst) {

  00011	3b f3		 cmp	 esi, ebx
  00013	74 14		 je	 SHORT $LN19@CDynamicPo
$LL20@CDynamicPo:
; File C:\Users\murat\Desktop\Siveps2-1-99-Project\source\client\Client\eterLib\Pool.h

; 224  : 			::operator delete(pkData);

  00015	ff 36		 push	 DWORD PTR [esi]
  00017	e8 00 00 00 00	 call	 ??3@YAXPAX@Z		; operator delete
; File C:\Program Files (x86)\Microsoft Visual Studio\2019\Professional\VC\Tools\MSVC\14.29.30133\include\algorithm

; 270  :     for (; _UFirst != _ULast; ++_UFirst) {

  0001c	83 c6 04	 add	 esi, 4
; File C:\Users\murat\Desktop\Siveps2-1-99-Project\source\client\Client\eterLib\Pool.h

; 224  : 			::operator delete(pkData);

  0001f	83 c4 04	 add	 esp, 4
; File C:\Program Files (x86)\Microsoft Visual Studio\2019\Professional\VC\Tools\MSVC\14.29.30133\include\algorithm

; 270  :     for (; _UFirst != _ULast; ++_UFirst) {

  00022	3b f3		 cmp	 esi, ebx
  00024	75 ef		 jne	 SHORT $LL20@CDynamicPo
  00026	8b 77 04	 mov	 esi, DWORD PTR [edi+4]
$LN19@CDynamicPo:
; File C:\Users\murat\Desktop\Siveps2-1-99-Project\source\client\Client\eterLib\Pool.h

; 162  : 			m_kVct_pkFree.clear();

  00029	8b 47 10	 mov	 eax, DWORD PTR [edi+16]
  0002c	89 77 08	 mov	 DWORD PTR [edi+8], esi
  0002f	89 47 14	 mov	 DWORD PTR [edi+20], eax
; File C:\Program Files (x86)\Microsoft Visual Studio\2019\Professional\VC\Tools\MSVC\14.29.30133\include\vector

; 1763 :         if (_Myfirst) { // destroy and deallocate old array

  00032	85 c0		 test	 eax, eax
  00034	74 41		 je	 SHORT $LN27@CDynamicPo

; 1764 :             _Destroy(_Myfirst, _Mylast);
; 1765 :             _Getal().deallocate(_Myfirst, static_cast<size_type>(_Myend - _Myfirst));

  00036	8b 4f 18	 mov	 ecx, DWORD PTR [edi+24]
  00039	2b c8		 sub	 ecx, eax
; File C:\Program Files (x86)\Microsoft Visual Studio\2019\Professional\VC\Tools\MSVC\14.29.30133\include\xmemory

; 835  :         _Deallocate<_New_alignof<_Ty>>(_Ptr, sizeof(_Ty) * _Count);

  0003b	83 e1 fc	 and	 ecx, -4			; fffffffcH

; 260  :         if (_Bytes >= _Big_allocation_threshold) { // boost the alignment of big allocations to help autovectorization

  0003e	81 f9 00 10 00
	00		 cmp	 ecx, 4096		; 00001000H
  00044	72 12		 jb	 SHORT $LN43@CDynamicPo

; 158  :     const uintptr_t _Ptr_container   = _Ptr_user[-1];

  00046	8b 50 fc	 mov	 edx, DWORD PTR [eax-4]
  00049	83 c1 23	 add	 ecx, 35			; 00000023H

; 159  : 
; 160  :     // If the following asserts, it likely means that we are performing
; 161  :     // an aligned delete on memory coming from an unaligned allocation.
; 162  :     _STL_ASSERT(_Ptr_user[-2] == _Big_allocation_sentinel, "invalid argument");
; 163  : 
; 164  :     // Extra paranoia on aligned allocation/deallocation; ensure _Ptr_container is
; 165  :     // in range [_Min_back_shift, _Non_user_size]
; 166  : #ifdef _DEBUG
; 167  :     constexpr uintptr_t _Min_back_shift = 2 * sizeof(void*);
; 168  : #else // ^^^ _DEBUG ^^^ // vvv !_DEBUG vvv
; 169  :     constexpr uintptr_t _Min_back_shift = sizeof(void*);
; 170  : #endif // _DEBUG
; 171  :     const uintptr_t _Back_shift = reinterpret_cast<uintptr_t>(_Ptr) - _Ptr_container;

  0004c	2b c2		 sub	 eax, edx

; 172  :     _STL_VERIFY(_Back_shift >= _Min_back_shift && _Back_shift <= _Non_user_size, "invalid argument");

  0004e	83 c0 fc	 add	 eax, -4			; fffffffcH
  00051	83 f8 1f	 cmp	 eax, 31			; 0000001fH
  00054	77 6d		 ja	 SHORT $LN65@CDynamicPo

; 173  :     _Ptr = reinterpret_cast<void*>(_Ptr_container);

  00056	8b c2		 mov	 eax, edx
$LN43@CDynamicPo:

; 264  :         ::operator delete(_Ptr, _Bytes);

  00058	51		 push	 ecx
  00059	50		 push	 eax
  0005a	e8 00 00 00 00	 call	 ??3@YAXPAXI@Z		; operator delete
; File C:\Program Files (x86)\Microsoft Visual Studio\2019\Professional\VC\Tools\MSVC\14.29.30133\include\vector

; 1767 :             _Myfirst = nullptr;

  0005f	c7 47 10 00 00
	00 00		 mov	 DWORD PTR [edi+16], 0
; File C:\Program Files (x86)\Microsoft Visual Studio\2019\Professional\VC\Tools\MSVC\14.29.30133\include\xmemory

; 264  :         ::operator delete(_Ptr, _Bytes);

  00066	83 c4 08	 add	 esp, 8
; File C:\Program Files (x86)\Microsoft Visual Studio\2019\Professional\VC\Tools\MSVC\14.29.30133\include\vector

; 1768 :             _Mylast  = nullptr;

  00069	c7 47 14 00 00
	00 00		 mov	 DWORD PTR [edi+20], 0

; 1769 :             _Myend   = nullptr;

  00070	c7 47 18 00 00
	00 00		 mov	 DWORD PTR [edi+24], 0
$LN27@CDynamicPo:

; 1763 :         if (_Myfirst) { // destroy and deallocate old array

  00077	8b 47 04	 mov	 eax, DWORD PTR [edi+4]
  0007a	85 c0		 test	 eax, eax
  0007c	74 41		 je	 SHORT $LN52@CDynamicPo

; 1764 :             _Destroy(_Myfirst, _Mylast);
; 1765 :             _Getal().deallocate(_Myfirst, static_cast<size_type>(_Myend - _Myfirst));

  0007e	8b 4f 0c	 mov	 ecx, DWORD PTR [edi+12]
  00081	2b c8		 sub	 ecx, eax
; File C:\Program Files (x86)\Microsoft Visual Studio\2019\Professional\VC\Tools\MSVC\14.29.30133\include\xmemory

; 835  :         _Deallocate<_New_alignof<_Ty>>(_Ptr, sizeof(_Ty) * _Count);

  00083	83 e1 fc	 and	 ecx, -4			; fffffffcH

; 260  :         if (_Bytes >= _Big_allocation_threshold) { // boost the alignment of big allocations to help autovectorization

  00086	81 f9 00 10 00
	00		 cmp	 ecx, 4096		; 00001000H
  0008c	72 12		 jb	 SHORT $LN68@CDynamicPo

; 158  :     const uintptr_t _Ptr_container   = _Ptr_user[-1];

  0008e	8b 50 fc	 mov	 edx, DWORD PTR [eax-4]
  00091	83 c1 23	 add	 ecx, 35			; 00000023H

; 159  : 
; 160  :     // If the following asserts, it likely means that we are performing
; 161  :     // an aligned delete on memory coming from an unaligned allocation.
; 162  :     _STL_ASSERT(_Ptr_user[-2] == _Big_allocation_sentinel, "invalid argument");
; 163  : 
; 164  :     // Extra paranoia on aligned allocation/deallocation; ensure _Ptr_container is
; 165  :     // in range [_Min_back_shift, _Non_user_size]
; 166  : #ifdef _DEBUG
; 167  :     constexpr uintptr_t _Min_back_shift = 2 * sizeof(void*);
; 168  : #else // ^^^ _DEBUG ^^^ // vvv !_DEBUG vvv
; 169  :     constexpr uintptr_t _Min_back_shift = sizeof(void*);
; 170  : #endif // _DEBUG
; 171  :     const uintptr_t _Back_shift = reinterpret_cast<uintptr_t>(_Ptr) - _Ptr_container;

  00094	2b c2		 sub	 eax, edx

; 172  :     _STL_VERIFY(_Back_shift >= _Min_back_shift && _Back_shift <= _Non_user_size, "invalid argument");

  00096	83 c0 fc	 add	 eax, -4			; fffffffcH
  00099	83 f8 1f	 cmp	 eax, 31			; 0000001fH
  0009c	77 25		 ja	 SHORT $LN65@CDynamicPo

; 173  :     _Ptr = reinterpret_cast<void*>(_Ptr_container);

  0009e	8b c2		 mov	 eax, edx
$LN68@CDynamicPo:

; 264  :         ::operator delete(_Ptr, _Bytes);

  000a0	51		 push	 ecx
  000a1	50		 push	 eax
  000a2	e8 00 00 00 00	 call	 ??3@YAXPAXI@Z		; operator delete
; File C:\Program Files (x86)\Microsoft Visual Studio\2019\Professional\VC\Tools\MSVC\14.29.30133\include\vector

; 1767 :             _Myfirst = nullptr;

  000a7	c7 47 04 00 00
	00 00		 mov	 DWORD PTR [edi+4], 0
; File C:\Program Files (x86)\Microsoft Visual Studio\2019\Professional\VC\Tools\MSVC\14.29.30133\include\xmemory

; 264  :         ::operator delete(_Ptr, _Bytes);

  000ae	83 c4 08	 add	 esp, 8
; File C:\Program Files (x86)\Microsoft Visual Studio\2019\Professional\VC\Tools\MSVC\14.29.30133\include\vector

; 1768 :             _Mylast  = nullptr;

  000b1	c7 47 08 00 00
	00 00		 mov	 DWORD PTR [edi+8], 0

; 1769 :             _Myend   = nullptr;

  000b8	c7 47 0c 00 00
	00 00		 mov	 DWORD PTR [edi+12], 0
$LN52@CDynamicPo:
  000bf	5f		 pop	 edi
; File C:\Users\murat\Desktop\Siveps2-1-99-Project\source\client\Client\eterLib\Pool.h

; 142  : 		}

  000c0	5e		 pop	 esi
  000c1	5b		 pop	 ebx
  000c2	c3		 ret	 0
$LN65@CDynamicPo:
; File C:\Program Files (x86)\Microsoft Visual Studio\2019\Professional\VC\Tools\MSVC\14.29.30133\include\xmemory

; 172  :     _STL_VERIFY(_Back_shift >= _Min_back_shift && _Back_shift <= _Non_user_size, "invalid argument");

  000c3	e8 00 00 00 00	 call	 __invalid_parameter_noinfo_noreturn
$LN77@CDynamicPo:
  000c8	cc		 int	 3
??1?$CDynamicPoolEx@VCTextureAnimationCWDecorator@NEffectUpdateDecorator@@@@UAE@XZ ENDP ; CDynamicPoolEx<NEffectUpdateDecorator::CTextureAnimationCWDecorator>::~CDynamicPoolEx<NEffectUpdateDecorator::CTextureAnimationCWDecorator>
_TEXT	ENDS
; Function compile flags: /Ogtp
;	COMDAT ??_G?$CDynamicPoolEx@VCTextureAnimationCCWDecorator@NEffectUpdateDecorator@@@@UAEPAXI@Z
_TEXT	SEGMENT
___flags$ = 8						; size = 4
??_G?$CDynamicPoolEx@VCTextureAnimationCCWDecorator@NEffectUpdateDecorator@@@@UAEPAXI@Z PROC ; CDynamicPoolEx<NEffectUpdateDecorator::CTextureAnimationCCWDecorator>::`scalar deleting destructor', COMDAT
; _this$ = ecx
  00000	55		 push	 ebp
  00001	8b ec		 mov	 ebp, esp
  00003	56		 push	 esi
  00004	8b f1		 mov	 esi, ecx
  00006	e8 00 00 00 00	 call	 ??1?$CDynamicPoolEx@VCTextureAnimationCCWDecorator@NEffectUpdateDecorator@@@@UAE@XZ ; CDynamicPoolEx<NEffectUpdateDecorator::CTextureAnimationCCWDecorator>::~CDynamicPoolEx<NEffectUpdateDecorator::CTextureAnimationCCWDecorator>
  0000b	f6 45 08 01	 test	 BYTE PTR ___flags$[ebp], 1
  0000f	74 0b		 je	 SHORT $LN4@scalar
  00011	6a 24		 push	 36			; 00000024H
  00013	56		 push	 esi
  00014	e8 00 00 00 00	 call	 ??3@YAXPAXI@Z		; operator delete
  00019	83 c4 08	 add	 esp, 8
$LN4@scalar:
  0001c	8b c6		 mov	 eax, esi
  0001e	5e		 pop	 esi
  0001f	5d		 pop	 ebp
  00020	c2 04 00	 ret	 4
??_G?$CDynamicPoolEx@VCTextureAnimationCCWDecorator@NEffectUpdateDecorator@@@@UAEPAXI@Z ENDP ; CDynamicPoolEx<NEffectUpdateDecorator::CTextureAnimationCCWDecorator>::`scalar deleting destructor'
_TEXT	ENDS
; Function compile flags: /Ogtp
; File C:\Users\murat\Desktop\Siveps2-1-99-Project\source\client\Client\eterLib\Pool.h
;	COMDAT ?Delete@?$CDynamicPoolEx@VCTextureAnimationCCWDecorator@NEffectUpdateDecorator@@@@KAXPAVCTextureAnimationCCWDecorator@NEffectUpdateDecorator@@@Z
_TEXT	SEGMENT
_pkData$ = 8						; size = 4
?Delete@?$CDynamicPoolEx@VCTextureAnimationCCWDecorator@NEffectUpdateDecorator@@@@KAXPAVCTextureAnimationCCWDecorator@NEffectUpdateDecorator@@@Z PROC ; CDynamicPoolEx<NEffectUpdateDecorator::CTextureAnimationCCWDecorator>::Delete, COMDAT

; 224  : 			::operator delete(pkData);

  00000	e9 00 00 00 00	 jmp	 ??3@YAXPAX@Z		; operator delete
?Delete@?$CDynamicPoolEx@VCTextureAnimationCCWDecorator@NEffectUpdateDecorator@@@@KAXPAVCTextureAnimationCCWDecorator@NEffectUpdateDecorator@@@Z ENDP ; CDynamicPoolEx<NEffectUpdateDecorator::CTextureAnimationCCWDecorator>::Delete
_TEXT	ENDS
; Function compile flags: /Ogtp
; File C:\Users\murat\Desktop\Siveps2-1-99-Project\source\client\Client\eterLib\Pool.h
; File C:\Program Files (x86)\Microsoft Visual Studio\2019\Professional\VC\Tools\MSVC\14.29.30133\include\vector
; File C:\Program Files (x86)\Microsoft Visual Studio\2019\Professional\VC\Tools\MSVC\14.29.30133\include\algorithm
; File C:\Users\murat\Desktop\Siveps2-1-99-Project\source\client\Client\eterLib\Pool.h
; File C:\Program Files (x86)\Microsoft Visual Studio\2019\Professional\VC\Tools\MSVC\14.29.30133\include\algorithm
; File C:\Users\murat\Desktop\Siveps2-1-99-Project\source\client\Client\eterLib\Pool.h
; File C:\Program Files (x86)\Microsoft Visual Studio\2019\Professional\VC\Tools\MSVC\14.29.30133\include\algorithm
; File C:\Users\murat\Desktop\Siveps2-1-99-Project\source\client\Client\eterLib\Pool.h
; File C:\Program Files (x86)\Microsoft Visual Studio\2019\Professional\VC\Tools\MSVC\14.29.30133\include\vector
; File C:\Program Files (x86)\Microsoft Visual Studio\2019\Professional\VC\Tools\MSVC\14.29.30133\include\xmemory
; File C:\Program Files (x86)\Microsoft Visual Studio\2019\Professional\VC\Tools\MSVC\14.29.30133\include\vector
; File C:\Program Files (x86)\Microsoft Visual Studio\2019\Professional\VC\Tools\MSVC\14.29.30133\include\xmemory
; File C:\Program Files (x86)\Microsoft Visual Studio\2019\Professional\VC\Tools\MSVC\14.29.30133\include\vector
; File C:\Program Files (x86)\Microsoft Visual Studio\2019\Professional\VC\Tools\MSVC\14.29.30133\include\xmemory
; File C:\Program Files (x86)\Microsoft Visual Studio\2019\Professional\VC\Tools\MSVC\14.29.30133\include\vector
; File C:\Program Files (x86)\Microsoft Visual Studio\2019\Professional\VC\Tools\MSVC\14.29.30133\include\xmemory
; File C:\Program Files (x86)\Microsoft Visual Studio\2019\Professional\VC\Tools\MSVC\14.29.30133\include\vector
; File C:\Users\murat\Desktop\Siveps2-1-99-Project\source\client\Client\eterLib\Pool.h
; File C:\Program Files (x86)\Microsoft Visual Studio\2019\Professional\VC\Tools\MSVC\14.29.30133\include\xmemory
; File C:\Users\murat\Desktop\Siveps2-1-99-Project\source\client\Client\eterLib\Pool.h
;	COMDAT ??1?$CDynamicPoolEx@VCTextureAnimationCCWDecorator@NEffectUpdateDecorator@@@@UAE@XZ
_TEXT	SEGMENT
??1?$CDynamicPoolEx@VCTextureAnimationCCWDecorator@NEffectUpdateDecorator@@@@UAE@XZ PROC ; CDynamicPoolEx<NEffectUpdateDecorator::CTextureAnimationCCWDecorator>::~CDynamicPoolEx<NEffectUpdateDecorator::CTextureAnimationCCWDecorator>, COMDAT
; _this$ = ecx

; 132  : 		{

  00000	53		 push	 ebx
  00001	56		 push	 esi
  00002	57		 push	 edi
  00003	8b f9		 mov	 edi, ecx
  00005	c7 07 00 00 00
	00		 mov	 DWORD PTR [edi], OFFSET ??_7?$CDynamicPoolEx@VCTextureAnimationCCWDecorator@NEffectUpdateDecorator@@@@6B@
; File C:\Program Files (x86)\Microsoft Visual Studio\2019\Professional\VC\Tools\MSVC\14.29.30133\include\vector

; 42   :     _CONSTEXPR20_CONTAINER _Vector_const_iterator(_Tptr _Parg, const _Container_base* _Pvector) noexcept : _Ptr(_Parg) {

  0000b	8b 5f 08	 mov	 ebx, DWORD PTR [edi+8]
  0000e	8b 77 04	 mov	 esi, DWORD PTR [edi+4]
; File C:\Program Files (x86)\Microsoft Visual Studio\2019\Professional\VC\Tools\MSVC\14.29.30133\include\algorithm

; 270  :     for (; _UFirst != _ULast; ++_UFirst) {

  00011	3b f3		 cmp	 esi, ebx
  00013	74 14		 je	 SHORT $LN19@CDynamicPo
$LL20@CDynamicPo:
; File C:\Users\murat\Desktop\Siveps2-1-99-Project\source\client\Client\eterLib\Pool.h

; 224  : 			::operator delete(pkData);

  00015	ff 36		 push	 DWORD PTR [esi]
  00017	e8 00 00 00 00	 call	 ??3@YAXPAX@Z		; operator delete
; File C:\Program Files (x86)\Microsoft Visual Studio\2019\Professional\VC\Tools\MSVC\14.29.30133\include\algorithm

; 270  :     for (; _UFirst != _ULast; ++_UFirst) {

  0001c	83 c6 04	 add	 esi, 4
; File C:\Users\murat\Desktop\Siveps2-1-99-Project\source\client\Client\eterLib\Pool.h

; 224  : 			::operator delete(pkData);

  0001f	83 c4 04	 add	 esp, 4
; File C:\Program Files (x86)\Microsoft Visual Studio\2019\Professional\VC\Tools\MSVC\14.29.30133\include\algorithm

; 270  :     for (; _UFirst != _ULast; ++_UFirst) {

  00022	3b f3		 cmp	 esi, ebx
  00024	75 ef		 jne	 SHORT $LL20@CDynamicPo
  00026	8b 77 04	 mov	 esi, DWORD PTR [edi+4]
$LN19@CDynamicPo:
; File C:\Users\murat\Desktop\Siveps2-1-99-Project\source\client\Client\eterLib\Pool.h

; 162  : 			m_kVct_pkFree.clear();

  00029	8b 47 10	 mov	 eax, DWORD PTR [edi+16]
  0002c	89 77 08	 mov	 DWORD PTR [edi+8], esi
  0002f	89 47 14	 mov	 DWORD PTR [edi+20], eax
; File C:\Program Files (x86)\Microsoft Visual Studio\2019\Professional\VC\Tools\MSVC\14.29.30133\include\vector

; 1763 :         if (_Myfirst) { // destroy and deallocate old array

  00032	85 c0		 test	 eax, eax
  00034	74 41		 je	 SHORT $LN27@CDynamicPo

; 1764 :             _Destroy(_Myfirst, _Mylast);
; 1765 :             _Getal().deallocate(_Myfirst, static_cast<size_type>(_Myend - _Myfirst));

  00036	8b 4f 18	 mov	 ecx, DWORD PTR [edi+24]
  00039	2b c8		 sub	 ecx, eax
; File C:\Program Files (x86)\Microsoft Visual Studio\2019\Professional\VC\Tools\MSVC\14.29.30133\include\xmemory

; 835  :         _Deallocate<_New_alignof<_Ty>>(_Ptr, sizeof(_Ty) * _Count);

  0003b	83 e1 fc	 and	 ecx, -4			; fffffffcH

; 260  :         if (_Bytes >= _Big_allocation_threshold) { // boost the alignment of big allocations to help autovectorization

  0003e	81 f9 00 10 00
	00		 cmp	 ecx, 4096		; 00001000H
  00044	72 12		 jb	 SHORT $LN43@CDynamicPo

; 158  :     const uintptr_t _Ptr_container   = _Ptr_user[-1];

  00046	8b 50 fc	 mov	 edx, DWORD PTR [eax-4]
  00049	83 c1 23	 add	 ecx, 35			; 00000023H

; 159  : 
; 160  :     // If the following asserts, it likely means that we are performing
; 161  :     // an aligned delete on memory coming from an unaligned allocation.
; 162  :     _STL_ASSERT(_Ptr_user[-2] == _Big_allocation_sentinel, "invalid argument");
; 163  : 
; 164  :     // Extra paranoia on aligned allocation/deallocation; ensure _Ptr_container is
; 165  :     // in range [_Min_back_shift, _Non_user_size]
; 166  : #ifdef _DEBUG
; 167  :     constexpr uintptr_t _Min_back_shift = 2 * sizeof(void*);
; 168  : #else // ^^^ _DEBUG ^^^ // vvv !_DEBUG vvv
; 169  :     constexpr uintptr_t _Min_back_shift = sizeof(void*);
; 170  : #endif // _DEBUG
; 171  :     const uintptr_t _Back_shift = reinterpret_cast<uintptr_t>(_Ptr) - _Ptr_container;

  0004c	2b c2		 sub	 eax, edx

; 172  :     _STL_VERIFY(_Back_shift >= _Min_back_shift && _Back_shift <= _Non_user_size, "invalid argument");

  0004e	83 c0 fc	 add	 eax, -4			; fffffffcH
  00051	83 f8 1f	 cmp	 eax, 31			; 0000001fH
  00054	77 6d		 ja	 SHORT $LN65@CDynamicPo

; 173  :     _Ptr = reinterpret_cast<void*>(_Ptr_container);

  00056	8b c2		 mov	 eax, edx
$LN43@CDynamicPo:

; 264  :         ::operator delete(_Ptr, _Bytes);

  00058	51		 push	 ecx
  00059	50		 push	 eax
  0005a	e8 00 00 00 00	 call	 ??3@YAXPAXI@Z		; operator delete
; File C:\Program Files (x86)\Microsoft Visual Studio\2019\Professional\VC\Tools\MSVC\14.29.30133\include\vector

; 1767 :             _Myfirst = nullptr;

  0005f	c7 47 10 00 00
	00 00		 mov	 DWORD PTR [edi+16], 0
; File C:\Program Files (x86)\Microsoft Visual Studio\2019\Professional\VC\Tools\MSVC\14.29.30133\include\xmemory

; 264  :         ::operator delete(_Ptr, _Bytes);

  00066	83 c4 08	 add	 esp, 8
; File C:\Program Files (x86)\Microsoft Visual Studio\2019\Professional\VC\Tools\MSVC\14.29.30133\include\vector

; 1768 :             _Mylast  = nullptr;

  00069	c7 47 14 00 00
	00 00		 mov	 DWORD PTR [edi+20], 0

; 1769 :             _Myend   = nullptr;

  00070	c7 47 18 00 00
	00 00		 mov	 DWORD PTR [edi+24], 0
$LN27@CDynamicPo:

; 1763 :         if (_Myfirst) { // destroy and deallocate old array

  00077	8b 47 04	 mov	 eax, DWORD PTR [edi+4]
  0007a	85 c0		 test	 eax, eax
  0007c	74 41		 je	 SHORT $LN52@CDynamicPo

; 1764 :             _Destroy(_Myfirst, _Mylast);
; 1765 :             _Getal().deallocate(_Myfirst, static_cast<size_type>(_Myend - _Myfirst));

  0007e	8b 4f 0c	 mov	 ecx, DWORD PTR [edi+12]
  00081	2b c8		 sub	 ecx, eax
; File C:\Program Files (x86)\Microsoft Visual Studio\2019\Professional\VC\Tools\MSVC\14.29.30133\include\xmemory

; 835  :         _Deallocate<_New_alignof<_Ty>>(_Ptr, sizeof(_Ty) * _Count);

  00083	83 e1 fc	 and	 ecx, -4			; fffffffcH

; 260  :         if (_Bytes >= _Big_allocation_threshold) { // boost the alignment of big allocations to help autovectorization

  00086	81 f9 00 10 00
	00		 cmp	 ecx, 4096		; 00001000H
  0008c	72 12		 jb	 SHORT $LN68@CDynamicPo

; 158  :     const uintptr_t _Ptr_container   = _Ptr_user[-1];

  0008e	8b 50 fc	 mov	 edx, DWORD PTR [eax-4]
  00091	83 c1 23	 add	 ecx, 35			; 00000023H

; 159  : 
; 160  :     // If the following asserts, it likely means that we are performing
; 161  :     // an aligned delete on memory coming from an unaligned allocation.
; 162  :     _STL_ASSERT(_Ptr_user[-2] == _Big_allocation_sentinel, "invalid argument");
; 163  : 
; 164  :     // Extra paranoia on aligned allocation/deallocation; ensure _Ptr_container is
; 165  :     // in range [_Min_back_shift, _Non_user_size]
; 166  : #ifdef _DEBUG
; 167  :     constexpr uintptr_t _Min_back_shift = 2 * sizeof(void*);
; 168  : #else // ^^^ _DEBUG ^^^ // vvv !_DEBUG vvv
; 169  :     constexpr uintptr_t _Min_back_shift = sizeof(void*);
; 170  : #endif // _DEBUG
; 171  :     const uintptr_t _Back_shift = reinterpret_cast<uintptr_t>(_Ptr) - _Ptr_container;

  00094	2b c2		 sub	 eax, edx

; 172  :     _STL_VERIFY(_Back_shift >= _Min_back_shift && _Back_shift <= _Non_user_size, "invalid argument");

  00096	83 c0 fc	 add	 eax, -4			; fffffffcH
  00099	83 f8 1f	 cmp	 eax, 31			; 0000001fH
  0009c	77 25		 ja	 SHORT $LN65@CDynamicPo

; 173  :     _Ptr = reinterpret_cast<void*>(_Ptr_container);

  0009e	8b c2		 mov	 eax, edx
$LN68@CDynamicPo:

; 264  :         ::operator delete(_Ptr, _Bytes);

  000a0	51		 push	 ecx
  000a1	50		 push	 eax
  000a2	e8 00 00 00 00	 call	 ??3@YAXPAXI@Z		; operator delete
; File C:\Program Files (x86)\Microsoft Visual Studio\2019\Professional\VC\Tools\MSVC\14.29.30133\include\vector

; 1767 :             _Myfirst = nullptr;

  000a7	c7 47 04 00 00
	00 00		 mov	 DWORD PTR [edi+4], 0
; File C:\Program Files (x86)\Microsoft Visual Studio\2019\Professional\VC\Tools\MSVC\14.29.30133\include\xmemory

; 264  :         ::operator delete(_Ptr, _Bytes);

  000ae	83 c4 08	 add	 esp, 8
; File C:\Program Files (x86)\Microsoft Visual Studio\2019\Professional\VC\Tools\MSVC\14.29.30133\include\vector

; 1768 :             _Mylast  = nullptr;

  000b1	c7 47 08 00 00
	00 00		 mov	 DWORD PTR [edi+8], 0

; 1769 :             _Myend   = nullptr;

  000b8	c7 47 0c 00 00
	00 00		 mov	 DWORD PTR [edi+12], 0
$LN52@CDynamicPo:
  000bf	5f		 pop	 edi
; File C:\Users\murat\Desktop\Siveps2-1-99-Project\source\client\Client\eterLib\Pool.h

; 142  : 		}

  000c0	5e		 pop	 esi
  000c1	5b		 pop	 ebx
  000c2	c3		 ret	 0
$LN65@CDynamicPo:
; File C:\Program Files (x86)\Microsoft Visual Studio\2019\Professional\VC\Tools\MSVC\14.29.30133\include\xmemory

; 172  :     _STL_VERIFY(_Back_shift >= _Min_back_shift && _Back_shift <= _Non_user_size, "invalid argument");

  000c3	e8 00 00 00 00	 call	 __invalid_parameter_noinfo_noreturn
$LN77@CDynamicPo:
  000c8	cc		 int	 3
??1?$CDynamicPoolEx@VCTextureAnimationCCWDecorator@NEffectUpdateDecorator@@@@UAE@XZ ENDP ; CDynamicPoolEx<NEffectUpdateDecorator::CTextureAnimationCCWDecorator>::~CDynamicPoolEx<NEffectUpdateDecorator::CTextureAnimationCCWDecorator>
_TEXT	ENDS
; Function compile flags: /Ogtp
;	COMDAT ??_G?$CDynamicPoolEx@VCTextureAnimationRandomDecorator@NEffectUpdateDecorator@@@@UAEPAXI@Z
_TEXT	SEGMENT
___flags$ = 8						; size = 4
??_G?$CDynamicPoolEx@VCTextureAnimationRandomDecorator@NEffectUpdateDecorator@@@@UAEPAXI@Z PROC ; CDynamicPoolEx<NEffectUpdateDecorator::CTextureAnimationRandomDecorator>::`scalar deleting destructor', COMDAT
; _this$ = ecx
  00000	55		 push	 ebp
  00001	8b ec		 mov	 ebp, esp
  00003	56		 push	 esi
  00004	8b f1		 mov	 esi, ecx
  00006	e8 00 00 00 00	 call	 ??1?$CDynamicPoolEx@VCTextureAnimationRandomDecorator@NEffectUpdateDecorator@@@@UAE@XZ ; CDynamicPoolEx<NEffectUpdateDecorator::CTextureAnimationRandomDecorator>::~CDynamicPoolEx<NEffectUpdateDecorator::CTextureAnimationRandomDecorator>
  0000b	f6 45 08 01	 test	 BYTE PTR ___flags$[ebp], 1
  0000f	74 0b		 je	 SHORT $LN4@scalar
  00011	6a 24		 push	 36			; 00000024H
  00013	56		 push	 esi
  00014	e8 00 00 00 00	 call	 ??3@YAXPAXI@Z		; operator delete
  00019	83 c4 08	 add	 esp, 8
$LN4@scalar:
  0001c	8b c6		 mov	 eax, esi
  0001e	5e		 pop	 esi
  0001f	5d		 pop	 ebp
  00020	c2 04 00	 ret	 4
??_G?$CDynamicPoolEx@VCTextureAnimationRandomDecorator@NEffectUpdateDecorator@@@@UAEPAXI@Z ENDP ; CDynamicPoolEx<NEffectUpdateDecorator::CTextureAnimationRandomDecorator>::`scalar deleting destructor'
_TEXT	ENDS
; Function compile flags: /Ogtp
; File C:\Users\murat\Desktop\Siveps2-1-99-Project\source\client\Client\eterLib\Pool.h
;	COMDAT ?Delete@?$CDynamicPoolEx@VCTextureAnimationRandomDecorator@NEffectUpdateDecorator@@@@KAXPAVCTextureAnimationRandomDecorator@NEffectUpdateDecorator@@@Z
_TEXT	SEGMENT
_pkData$ = 8						; size = 4
?Delete@?$CDynamicPoolEx@VCTextureAnimationRandomDecorator@NEffectUpdateDecorator@@@@KAXPAVCTextureAnimationRandomDecorator@NEffectUpdateDecorator@@@Z PROC ; CDynamicPoolEx<NEffectUpdateDecorator::CTextureAnimationRandomDecorator>::Delete, COMDAT

; 224  : 			::operator delete(pkData);

  00000	e9 00 00 00 00	 jmp	 ??3@YAXPAX@Z		; operator delete
?Delete@?$CDynamicPoolEx@VCTextureAnimationRandomDecorator@NEffectUpdateDecorator@@@@KAXPAVCTextureAnimationRandomDecorator@NEffectUpdateDecorator@@@Z ENDP ; CDynamicPoolEx<NEffectUpdateDecorator::CTextureAnimationRandomDecorator>::Delete
_TEXT	ENDS
; Function compile flags: /Ogtp
; File C:\Users\murat\Desktop\Siveps2-1-99-Project\source\client\Client\eterLib\Pool.h
; File C:\Program Files (x86)\Microsoft Visual Studio\2019\Professional\VC\Tools\MSVC\14.29.30133\include\vector
; File C:\Program Files (x86)\Microsoft Visual Studio\2019\Professional\VC\Tools\MSVC\14.29.30133\include\algorithm
; File C:\Users\murat\Desktop\Siveps2-1-99-Project\source\client\Client\eterLib\Pool.h
; File C:\Program Files (x86)\Microsoft Visual Studio\2019\Professional\VC\Tools\MSVC\14.29.30133\include\algorithm
; File C:\Users\murat\Desktop\Siveps2-1-99-Project\source\client\Client\eterLib\Pool.h
; File C:\Program Files (x86)\Microsoft Visual Studio\2019\Professional\VC\Tools\MSVC\14.29.30133\include\algorithm
; File C:\Users\murat\Desktop\Siveps2-1-99-Project\source\client\Client\eterLib\Pool.h
; File C:\Program Files (x86)\Microsoft Visual Studio\2019\Professional\VC\Tools\MSVC\14.29.30133\include\vector
; File C:\Program Files (x86)\Microsoft Visual Studio\2019\Professional\VC\Tools\MSVC\14.29.30133\include\xmemory
; File C:\Program Files (x86)\Microsoft Visual Studio\2019\Professional\VC\Tools\MSVC\14.29.30133\include\vector
; File C:\Program Files (x86)\Microsoft Visual Studio\2019\Professional\VC\Tools\MSVC\14.29.30133\include\xmemory
; File C:\Program Files (x86)\Microsoft Visual Studio\2019\Professional\VC\Tools\MSVC\14.29.30133\include\vector
; File C:\Program Files (x86)\Microsoft Visual Studio\2019\Professional\VC\Tools\MSVC\14.29.30133\include\xmemory
; File C:\Program Files (x86)\Microsoft Visual Studio\2019\Professional\VC\Tools\MSVC\14.29.30133\include\vector
; File C:\Program Files (x86)\Microsoft Visual Studio\2019\Professional\VC\Tools\MSVC\14.29.30133\include\xmemory
; File C:\Program Files (x86)\Microsoft Visual Studio\2019\Professional\VC\Tools\MSVC\14.29.30133\include\vector
; File C:\Users\murat\Desktop\Siveps2-1-99-Project\source\client\Client\eterLib\Pool.h
; File C:\Program Files (x86)\Microsoft Visual Studio\2019\Professional\VC\Tools\MSVC\14.29.30133\include\xmemory
; File C:\Users\murat\Desktop\Siveps2-1-99-Project\source\client\Client\eterLib\Pool.h
;	COMDAT ??1?$CDynamicPoolEx@VCTextureAnimationRandomDecorator@NEffectUpdateDecorator@@@@UAE@XZ
_TEXT	SEGMENT
??1?$CDynamicPoolEx@VCTextureAnimationRandomDecorator@NEffectUpdateDecorator@@@@UAE@XZ PROC ; CDynamicPoolEx<NEffectUpdateDecorator::CTextureAnimationRandomDecorator>::~CDynamicPoolEx<NEffectUpdateDecorator::CTextureAnimationRandomDecorator>, COMDAT
; _this$ = ecx

; 132  : 		{

  00000	53		 push	 ebx
  00001	56		 push	 esi
  00002	57		 push	 edi
  00003	8b f9		 mov	 edi, ecx
  00005	c7 07 00 00 00
	00		 mov	 DWORD PTR [edi], OFFSET ??_7?$CDynamicPoolEx@VCTextureAnimationRandomDecorator@NEffectUpdateDecorator@@@@6B@
; File C:\Program Files (x86)\Microsoft Visual Studio\2019\Professional\VC\Tools\MSVC\14.29.30133\include\vector

; 42   :     _CONSTEXPR20_CONTAINER _Vector_const_iterator(_Tptr _Parg, const _Container_base* _Pvector) noexcept : _Ptr(_Parg) {

  0000b	8b 5f 08	 mov	 ebx, DWORD PTR [edi+8]
  0000e	8b 77 04	 mov	 esi, DWORD PTR [edi+4]
; File C:\Program Files (x86)\Microsoft Visual Studio\2019\Professional\VC\Tools\MSVC\14.29.30133\include\algorithm

; 270  :     for (; _UFirst != _ULast; ++_UFirst) {

  00011	3b f3		 cmp	 esi, ebx
  00013	74 14		 je	 SHORT $LN19@CDynamicPo
$LL20@CDynamicPo:
; File C:\Users\murat\Desktop\Siveps2-1-99-Project\source\client\Client\eterLib\Pool.h

; 224  : 			::operator delete(pkData);

  00015	ff 36		 push	 DWORD PTR [esi]
  00017	e8 00 00 00 00	 call	 ??3@YAXPAX@Z		; operator delete
; File C:\Program Files (x86)\Microsoft Visual Studio\2019\Professional\VC\Tools\MSVC\14.29.30133\include\algorithm

; 270  :     for (; _UFirst != _ULast; ++_UFirst) {

  0001c	83 c6 04	 add	 esi, 4
; File C:\Users\murat\Desktop\Siveps2-1-99-Project\source\client\Client\eterLib\Pool.h

; 224  : 			::operator delete(pkData);

  0001f	83 c4 04	 add	 esp, 4
; File C:\Program Files (x86)\Microsoft Visual Studio\2019\Professional\VC\Tools\MSVC\14.29.30133\include\algorithm

; 270  :     for (; _UFirst != _ULast; ++_UFirst) {

  00022	3b f3		 cmp	 esi, ebx
  00024	75 ef		 jne	 SHORT $LL20@CDynamicPo
  00026	8b 77 04	 mov	 esi, DWORD PTR [edi+4]
$LN19@CDynamicPo:
; File C:\Users\murat\Desktop\Siveps2-1-99-Project\source\client\Client\eterLib\Pool.h

; 162  : 			m_kVct_pkFree.clear();

  00029	8b 47 10	 mov	 eax, DWORD PTR [edi+16]
  0002c	89 77 08	 mov	 DWORD PTR [edi+8], esi
  0002f	89 47 14	 mov	 DWORD PTR [edi+20], eax
; File C:\Program Files (x86)\Microsoft Visual Studio\2019\Professional\VC\Tools\MSVC\14.29.30133\include\vector

; 1763 :         if (_Myfirst) { // destroy and deallocate old array

  00032	85 c0		 test	 eax, eax
  00034	74 41		 je	 SHORT $LN27@CDynamicPo

; 1764 :             _Destroy(_Myfirst, _Mylast);
; 1765 :             _Getal().deallocate(_Myfirst, static_cast<size_type>(_Myend - _Myfirst));

  00036	8b 4f 18	 mov	 ecx, DWORD PTR [edi+24]
  00039	2b c8		 sub	 ecx, eax
; File C:\Program Files (x86)\Microsoft Visual Studio\2019\Professional\VC\Tools\MSVC\14.29.30133\include\xmemory

; 835  :         _Deallocate<_New_alignof<_Ty>>(_Ptr, sizeof(_Ty) * _Count);

  0003b	83 e1 fc	 and	 ecx, -4			; fffffffcH

; 260  :         if (_Bytes >= _Big_allocation_threshold) { // boost the alignment of big allocations to help autovectorization

  0003e	81 f9 00 10 00
	00		 cmp	 ecx, 4096		; 00001000H
  00044	72 12		 jb	 SHORT $LN43@CDynamicPo

; 158  :     const uintptr_t _Ptr_container   = _Ptr_user[-1];

  00046	8b 50 fc	 mov	 edx, DWORD PTR [eax-4]
  00049	83 c1 23	 add	 ecx, 35			; 00000023H

; 159  : 
; 160  :     // If the following asserts, it likely means that we are performing
; 161  :     // an aligned delete on memory coming from an unaligned allocation.
; 162  :     _STL_ASSERT(_Ptr_user[-2] == _Big_allocation_sentinel, "invalid argument");
; 163  : 
; 164  :     // Extra paranoia on aligned allocation/deallocation; ensure _Ptr_container is
; 165  :     // in range [_Min_back_shift, _Non_user_size]
; 166  : #ifdef _DEBUG
; 167  :     constexpr uintptr_t _Min_back_shift = 2 * sizeof(void*);
; 168  : #else // ^^^ _DEBUG ^^^ // vvv !_DEBUG vvv
; 169  :     constexpr uintptr_t _Min_back_shift = sizeof(void*);
; 170  : #endif // _DEBUG
; 171  :     const uintptr_t _Back_shift = reinterpret_cast<uintptr_t>(_Ptr) - _Ptr_container;

  0004c	2b c2		 sub	 eax, edx

; 172  :     _STL_VERIFY(_Back_shift >= _Min_back_shift && _Back_shift <= _Non_user_size, "invalid argument");

  0004e	83 c0 fc	 add	 eax, -4			; fffffffcH
  00051	83 f8 1f	 cmp	 eax, 31			; 0000001fH
  00054	77 6d		 ja	 SHORT $LN65@CDynamicPo

; 173  :     _Ptr = reinterpret_cast<void*>(_Ptr_container);

  00056	8b c2		 mov	 eax, edx
$LN43@CDynamicPo:

; 264  :         ::operator delete(_Ptr, _Bytes);

  00058	51		 push	 ecx
  00059	50		 push	 eax
  0005a	e8 00 00 00 00	 call	 ??3@YAXPAXI@Z		; operator delete
; File C:\Program Files (x86)\Microsoft Visual Studio\2019\Professional\VC\Tools\MSVC\14.29.30133\include\vector

; 1767 :             _Myfirst = nullptr;

  0005f	c7 47 10 00 00
	00 00		 mov	 DWORD PTR [edi+16], 0
; File C:\Program Files (x86)\Microsoft Visual Studio\2019\Professional\VC\Tools\MSVC\14.29.30133\include\xmemory

; 264  :         ::operator delete(_Ptr, _Bytes);

  00066	83 c4 08	 add	 esp, 8
; File C:\Program Files (x86)\Microsoft Visual Studio\2019\Professional\VC\Tools\MSVC\14.29.30133\include\vector

; 1768 :             _Mylast  = nullptr;

  00069	c7 47 14 00 00
	00 00		 mov	 DWORD PTR [edi+20], 0

; 1769 :             _Myend   = nullptr;

  00070	c7 47 18 00 00
	00 00		 mov	 DWORD PTR [edi+24], 0
$LN27@CDynamicPo:

; 1763 :         if (_Myfirst) { // destroy and deallocate old array

  00077	8b 47 04	 mov	 eax, DWORD PTR [edi+4]
  0007a	85 c0		 test	 eax, eax
  0007c	74 41		 je	 SHORT $LN52@CDynamicPo

; 1764 :             _Destroy(_Myfirst, _Mylast);
; 1765 :             _Getal().deallocate(_Myfirst, static_cast<size_type>(_Myend - _Myfirst));

  0007e	8b 4f 0c	 mov	 ecx, DWORD PTR [edi+12]
  00081	2b c8		 sub	 ecx, eax
; File C:\Program Files (x86)\Microsoft Visual Studio\2019\Professional\VC\Tools\MSVC\14.29.30133\include\xmemory

; 835  :         _Deallocate<_New_alignof<_Ty>>(_Ptr, sizeof(_Ty) * _Count);

  00083	83 e1 fc	 and	 ecx, -4			; fffffffcH

; 260  :         if (_Bytes >= _Big_allocation_threshold) { // boost the alignment of big allocations to help autovectorization

  00086	81 f9 00 10 00
	00		 cmp	 ecx, 4096		; 00001000H
  0008c	72 12		 jb	 SHORT $LN68@CDynamicPo

; 158  :     const uintptr_t _Ptr_container   = _Ptr_user[-1];

  0008e	8b 50 fc	 mov	 edx, DWORD PTR [eax-4]
  00091	83 c1 23	 add	 ecx, 35			; 00000023H

; 159  : 
; 160  :     // If the following asserts, it likely means that we are performing
; 161  :     // an aligned delete on memory coming from an unaligned allocation.
; 162  :     _STL_ASSERT(_Ptr_user[-2] == _Big_allocation_sentinel, "invalid argument");
; 163  : 
; 164  :     // Extra paranoia on aligned allocation/deallocation; ensure _Ptr_container is
; 165  :     // in range [_Min_back_shift, _Non_user_size]
; 166  : #ifdef _DEBUG
; 167  :     constexpr uintptr_t _Min_back_shift = 2 * sizeof(void*);
; 168  : #else // ^^^ _DEBUG ^^^ // vvv !_DEBUG vvv
; 169  :     constexpr uintptr_t _Min_back_shift = sizeof(void*);
; 170  : #endif // _DEBUG
; 171  :     const uintptr_t _Back_shift = reinterpret_cast<uintptr_t>(_Ptr) - _Ptr_container;

  00094	2b c2		 sub	 eax, edx

; 172  :     _STL_VERIFY(_Back_shift >= _Min_back_shift && _Back_shift <= _Non_user_size, "invalid argument");

  00096	83 c0 fc	 add	 eax, -4			; fffffffcH
  00099	83 f8 1f	 cmp	 eax, 31			; 0000001fH
  0009c	77 25		 ja	 SHORT $LN65@CDynamicPo

; 173  :     _Ptr = reinterpret_cast<void*>(_Ptr_container);

  0009e	8b c2		 mov	 eax, edx
$LN68@CDynamicPo:

; 264  :         ::operator delete(_Ptr, _Bytes);

  000a0	51		 push	 ecx
  000a1	50		 push	 eax
  000a2	e8 00 00 00 00	 call	 ??3@YAXPAXI@Z		; operator delete
; File C:\Program Files (x86)\Microsoft Visual Studio\2019\Professional\VC\Tools\MSVC\14.29.30133\include\vector

; 1767 :             _Myfirst = nullptr;

  000a7	c7 47 04 00 00
	00 00		 mov	 DWORD PTR [edi+4], 0
; File C:\Program Files (x86)\Microsoft Visual Studio\2019\Professional\VC\Tools\MSVC\14.29.30133\include\xmemory

; 264  :         ::operator delete(_Ptr, _Bytes);

  000ae	83 c4 08	 add	 esp, 8
; File C:\Program Files (x86)\Microsoft Visual Studio\2019\Professional\VC\Tools\MSVC\14.29.30133\include\vector

; 1768 :             _Mylast  = nullptr;

  000b1	c7 47 08 00 00
	00 00		 mov	 DWORD PTR [edi+8], 0

; 1769 :             _Myend   = nullptr;

  000b8	c7 47 0c 00 00
	00 00		 mov	 DWORD PTR [edi+12], 0
$LN52@CDynamicPo:
  000bf	5f		 pop	 edi
; File C:\Users\murat\Desktop\Siveps2-1-99-Project\source\client\Client\eterLib\Pool.h

; 142  : 		}

  000c0	5e		 pop	 esi
  000c1	5b		 pop	 ebx
  000c2	c3		 ret	 0
$LN65@CDynamicPo:
; File C:\Program Files (x86)\Microsoft Visual Studio\2019\Professional\VC\Tools\MSVC\14.29.30133\include\xmemory

; 172  :     _STL_VERIFY(_Back_shift >= _Min_back_shift && _Back_shift <= _Non_user_size, "invalid argument");

  000c3	e8 00 00 00 00	 call	 __invalid_parameter_noinfo_noreturn
$LN77@CDynamicPo:
  000c8	cc		 int	 3
??1?$CDynamicPoolEx@VCTextureAnimationRandomDecorator@NEffectUpdateDecorator@@@@UAE@XZ ENDP ; CDynamicPoolEx<NEffectUpdateDecorator::CTextureAnimationRandomDecorator>::~CDynamicPoolEx<NEffectUpdateDecorator::CTextureAnimationRandomDecorator>
_TEXT	ENDS
; Function compile flags: /Ogtp
;	COMDAT ??_G?$CDynamicPoolEx@VCAirResistanceDecorator@NEffectUpdateDecorator@@@@UAEPAXI@Z
_TEXT	SEGMENT
___flags$ = 8						; size = 4
??_G?$CDynamicPoolEx@VCAirResistanceDecorator@NEffectUpdateDecorator@@@@UAEPAXI@Z PROC ; CDynamicPoolEx<NEffectUpdateDecorator::CAirResistanceDecorator>::`scalar deleting destructor', COMDAT
; _this$ = ecx
  00000	55		 push	 ebp
  00001	8b ec		 mov	 ebp, esp
  00003	56		 push	 esi
  00004	8b f1		 mov	 esi, ecx
  00006	e8 00 00 00 00	 call	 ??1?$CDynamicPoolEx@VCAirResistanceDecorator@NEffectUpdateDecorator@@@@UAE@XZ ; CDynamicPoolEx<NEffectUpdateDecorator::CAirResistanceDecorator>::~CDynamicPoolEx<NEffectUpdateDecorator::CAirResistanceDecorator>
  0000b	f6 45 08 01	 test	 BYTE PTR ___flags$[ebp], 1
  0000f	74 0b		 je	 SHORT $LN4@scalar
  00011	6a 24		 push	 36			; 00000024H
  00013	56		 push	 esi
  00014	e8 00 00 00 00	 call	 ??3@YAXPAXI@Z		; operator delete
  00019	83 c4 08	 add	 esp, 8
$LN4@scalar:
  0001c	8b c6		 mov	 eax, esi
  0001e	5e		 pop	 esi
  0001f	5d		 pop	 ebp
  00020	c2 04 00	 ret	 4
??_G?$CDynamicPoolEx@VCAirResistanceDecorator@NEffectUpdateDecorator@@@@UAEPAXI@Z ENDP ; CDynamicPoolEx<NEffectUpdateDecorator::CAirResistanceDecorator>::`scalar deleting destructor'
_TEXT	ENDS
; Function compile flags: /Ogtp
; File C:\Users\murat\Desktop\Siveps2-1-99-Project\source\client\Client\eterLib\Pool.h
;	COMDAT ?Delete@?$CDynamicPoolEx@VCAirResistanceDecorator@NEffectUpdateDecorator@@@@KAXPAVCAirResistanceDecorator@NEffectUpdateDecorator@@@Z
_TEXT	SEGMENT
_pkData$ = 8						; size = 4
?Delete@?$CDynamicPoolEx@VCAirResistanceDecorator@NEffectUpdateDecorator@@@@KAXPAVCAirResistanceDecorator@NEffectUpdateDecorator@@@Z PROC ; CDynamicPoolEx<NEffectUpdateDecorator::CAirResistanceDecorator>::Delete, COMDAT

; 224  : 			::operator delete(pkData);

  00000	e9 00 00 00 00	 jmp	 ??3@YAXPAX@Z		; operator delete
?Delete@?$CDynamicPoolEx@VCAirResistanceDecorator@NEffectUpdateDecorator@@@@KAXPAVCAirResistanceDecorator@NEffectUpdateDecorator@@@Z ENDP ; CDynamicPoolEx<NEffectUpdateDecorator::CAirResistanceDecorator>::Delete
_TEXT	ENDS
; Function compile flags: /Ogtp
; File C:\Users\murat\Desktop\Siveps2-1-99-Project\source\client\Client\eterLib\Pool.h
; File C:\Program Files (x86)\Microsoft Visual Studio\2019\Professional\VC\Tools\MSVC\14.29.30133\include\vector
; File C:\Program Files (x86)\Microsoft Visual Studio\2019\Professional\VC\Tools\MSVC\14.29.30133\include\algorithm
; File C:\Users\murat\Desktop\Siveps2-1-99-Project\source\client\Client\eterLib\Pool.h
; File C:\Program Files (x86)\Microsoft Visual Studio\2019\Professional\VC\Tools\MSVC\14.29.30133\include\algorithm
; File C:\Users\murat\Desktop\Siveps2-1-99-Project\source\client\Client\eterLib\Pool.h
; File C:\Program Files (x86)\Microsoft Visual Studio\2019\Professional\VC\Tools\MSVC\14.29.30133\include\algorithm
; File C:\Users\murat\Desktop\Siveps2-1-99-Project\source\client\Client\eterLib\Pool.h
; File C:\Program Files (x86)\Microsoft Visual Studio\2019\Professional\VC\Tools\MSVC\14.29.30133\include\vector
; File C:\Program Files (x86)\Microsoft Visual Studio\2019\Professional\VC\Tools\MSVC\14.29.30133\include\xmemory
; File C:\Program Files (x86)\Microsoft Visual Studio\2019\Professional\VC\Tools\MSVC\14.29.30133\include\vector
; File C:\Program Files (x86)\Microsoft Visual Studio\2019\Professional\VC\Tools\MSVC\14.29.30133\include\xmemory
; File C:\Program Files (x86)\Microsoft Visual Studio\2019\Professional\VC\Tools\MSVC\14.29.30133\include\vector
; File C:\Program Files (x86)\Microsoft Visual Studio\2019\Professional\VC\Tools\MSVC\14.29.30133\include\xmemory
; File C:\Program Files (x86)\Microsoft Visual Studio\2019\Professional\VC\Tools\MSVC\14.29.30133\include\vector
; File C:\Program Files (x86)\Microsoft Visual Studio\2019\Professional\VC\Tools\MSVC\14.29.30133\include\xmemory
; File C:\Program Files (x86)\Microsoft Visual Studio\2019\Professional\VC\Tools\MSVC\14.29.30133\include\vector
; File C:\Users\murat\Desktop\Siveps2-1-99-Project\source\client\Client\eterLib\Pool.h
; File C:\Program Files (x86)\Microsoft Visual Studio\2019\Professional\VC\Tools\MSVC\14.29.30133\include\xmemory
; File C:\Users\murat\Desktop\Siveps2-1-99-Project\source\client\Client\eterLib\Pool.h
;	COMDAT ??1?$CDynamicPoolEx@VCAirResistanceDecorator@NEffectUpdateDecorator@@@@UAE@XZ
_TEXT	SEGMENT
??1?$CDynamicPoolEx@VCAirResistanceDecorator@NEffectUpdateDecorator@@@@UAE@XZ PROC ; CDynamicPoolEx<NEffectUpdateDecorator::CAirResistanceDecorator>::~CDynamicPoolEx<NEffectUpdateDecorator::CAirResistanceDecorator>, COMDAT
; _this$ = ecx

; 132  : 		{

  00000	53		 push	 ebx
  00001	56		 push	 esi
  00002	57		 push	 edi
  00003	8b f9		 mov	 edi, ecx
  00005	c7 07 00 00 00
	00		 mov	 DWORD PTR [edi], OFFSET ??_7?$CDynamicPoolEx@VCAirResistanceDecorator@NEffectUpdateDecorator@@@@6B@
; File C:\Program Files (x86)\Microsoft Visual Studio\2019\Professional\VC\Tools\MSVC\14.29.30133\include\vector

; 42   :     _CONSTEXPR20_CONTAINER _Vector_const_iterator(_Tptr _Parg, const _Container_base* _Pvector) noexcept : _Ptr(_Parg) {

  0000b	8b 5f 08	 mov	 ebx, DWORD PTR [edi+8]
  0000e	8b 77 04	 mov	 esi, DWORD PTR [edi+4]
; File C:\Program Files (x86)\Microsoft Visual Studio\2019\Professional\VC\Tools\MSVC\14.29.30133\include\algorithm

; 270  :     for (; _UFirst != _ULast; ++_UFirst) {

  00011	3b f3		 cmp	 esi, ebx
  00013	74 14		 je	 SHORT $LN19@CDynamicPo
$LL20@CDynamicPo:
; File C:\Users\murat\Desktop\Siveps2-1-99-Project\source\client\Client\eterLib\Pool.h

; 224  : 			::operator delete(pkData);

  00015	ff 36		 push	 DWORD PTR [esi]
  00017	e8 00 00 00 00	 call	 ??3@YAXPAX@Z		; operator delete
; File C:\Program Files (x86)\Microsoft Visual Studio\2019\Professional\VC\Tools\MSVC\14.29.30133\include\algorithm

; 270  :     for (; _UFirst != _ULast; ++_UFirst) {

  0001c	83 c6 04	 add	 esi, 4
; File C:\Users\murat\Desktop\Siveps2-1-99-Project\source\client\Client\eterLib\Pool.h

; 224  : 			::operator delete(pkData);

  0001f	83 c4 04	 add	 esp, 4
; File C:\Program Files (x86)\Microsoft Visual Studio\2019\Professional\VC\Tools\MSVC\14.29.30133\include\algorithm

; 270  :     for (; _UFirst != _ULast; ++_UFirst) {

  00022	3b f3		 cmp	 esi, ebx
  00024	75 ef		 jne	 SHORT $LL20@CDynamicPo
  00026	8b 77 04	 mov	 esi, DWORD PTR [edi+4]
$LN19@CDynamicPo:
; File C:\Users\murat\Desktop\Siveps2-1-99-Project\source\client\Client\eterLib\Pool.h

; 162  : 			m_kVct_pkFree.clear();

  00029	8b 47 10	 mov	 eax, DWORD PTR [edi+16]
  0002c	89 77 08	 mov	 DWORD PTR [edi+8], esi
  0002f	89 47 14	 mov	 DWORD PTR [edi+20], eax
; File C:\Program Files (x86)\Microsoft Visual Studio\2019\Professional\VC\Tools\MSVC\14.29.30133\include\vector

; 1763 :         if (_Myfirst) { // destroy and deallocate old array

  00032	85 c0		 test	 eax, eax
  00034	74 41		 je	 SHORT $LN27@CDynamicPo

; 1764 :             _Destroy(_Myfirst, _Mylast);
; 1765 :             _Getal().deallocate(_Myfirst, static_cast<size_type>(_Myend - _Myfirst));

  00036	8b 4f 18	 mov	 ecx, DWORD PTR [edi+24]
  00039	2b c8		 sub	 ecx, eax
; File C:\Program Files (x86)\Microsoft Visual Studio\2019\Professional\VC\Tools\MSVC\14.29.30133\include\xmemory

; 835  :         _Deallocate<_New_alignof<_Ty>>(_Ptr, sizeof(_Ty) * _Count);

  0003b	83 e1 fc	 and	 ecx, -4			; fffffffcH

; 260  :         if (_Bytes >= _Big_allocation_threshold) { // boost the alignment of big allocations to help autovectorization

  0003e	81 f9 00 10 00
	00		 cmp	 ecx, 4096		; 00001000H
  00044	72 12		 jb	 SHORT $LN43@CDynamicPo

; 158  :     const uintptr_t _Ptr_container   = _Ptr_user[-1];

  00046	8b 50 fc	 mov	 edx, DWORD PTR [eax-4]
  00049	83 c1 23	 add	 ecx, 35			; 00000023H

; 159  : 
; 160  :     // If the following asserts, it likely means that we are performing
; 161  :     // an aligned delete on memory coming from an unaligned allocation.
; 162  :     _STL_ASSERT(_Ptr_user[-2] == _Big_allocation_sentinel, "invalid argument");
; 163  : 
; 164  :     // Extra paranoia on aligned allocation/deallocation; ensure _Ptr_container is
; 165  :     // in range [_Min_back_shift, _Non_user_size]
; 166  : #ifdef _DEBUG
; 167  :     constexpr uintptr_t _Min_back_shift = 2 * sizeof(void*);
; 168  : #else // ^^^ _DEBUG ^^^ // vvv !_DEBUG vvv
; 169  :     constexpr uintptr_t _Min_back_shift = sizeof(void*);
; 170  : #endif // _DEBUG
; 171  :     const uintptr_t _Back_shift = reinterpret_cast<uintptr_t>(_Ptr) - _Ptr_container;

  0004c	2b c2		 sub	 eax, edx

; 172  :     _STL_VERIFY(_Back_shift >= _Min_back_shift && _Back_shift <= _Non_user_size, "invalid argument");

  0004e	83 c0 fc	 add	 eax, -4			; fffffffcH
  00051	83 f8 1f	 cmp	 eax, 31			; 0000001fH
  00054	77 6d		 ja	 SHORT $LN65@CDynamicPo

; 173  :     _Ptr = reinterpret_cast<void*>(_Ptr_container);

  00056	8b c2		 mov	 eax, edx
$LN43@CDynamicPo:

; 264  :         ::operator delete(_Ptr, _Bytes);

  00058	51		 push	 ecx
  00059	50		 push	 eax
  0005a	e8 00 00 00 00	 call	 ??3@YAXPAXI@Z		; operator delete
; File C:\Program Files (x86)\Microsoft Visual Studio\2019\Professional\VC\Tools\MSVC\14.29.30133\include\vector

; 1767 :             _Myfirst = nullptr;

  0005f	c7 47 10 00 00
	00 00		 mov	 DWORD PTR [edi+16], 0
; File C:\Program Files (x86)\Microsoft Visual Studio\2019\Professional\VC\Tools\MSVC\14.29.30133\include\xmemory

; 264  :         ::operator delete(_Ptr, _Bytes);

  00066	83 c4 08	 add	 esp, 8
; File C:\Program Files (x86)\Microsoft Visual Studio\2019\Professional\VC\Tools\MSVC\14.29.30133\include\vector

; 1768 :             _Mylast  = nullptr;

  00069	c7 47 14 00 00
	00 00		 mov	 DWORD PTR [edi+20], 0

; 1769 :             _Myend   = nullptr;

  00070	c7 47 18 00 00
	00 00		 mov	 DWORD PTR [edi+24], 0
$LN27@CDynamicPo:

; 1763 :         if (_Myfirst) { // destroy and deallocate old array

  00077	8b 47 04	 mov	 eax, DWORD PTR [edi+4]
  0007a	85 c0		 test	 eax, eax
  0007c	74 41		 je	 SHORT $LN52@CDynamicPo

; 1764 :             _Destroy(_Myfirst, _Mylast);
; 1765 :             _Getal().deallocate(_Myfirst, static_cast<size_type>(_Myend - _Myfirst));

  0007e	8b 4f 0c	 mov	 ecx, DWORD PTR [edi+12]
  00081	2b c8		 sub	 ecx, eax
; File C:\Program Files (x86)\Microsoft Visual Studio\2019\Professional\VC\Tools\MSVC\14.29.30133\include\xmemory

; 835  :         _Deallocate<_New_alignof<_Ty>>(_Ptr, sizeof(_Ty) * _Count);

  00083	83 e1 fc	 and	 ecx, -4			; fffffffcH

; 260  :         if (_Bytes >= _Big_allocation_threshold) { // boost the alignment of big allocations to help autovectorization

  00086	81 f9 00 10 00
	00		 cmp	 ecx, 4096		; 00001000H
  0008c	72 12		 jb	 SHORT $LN68@CDynamicPo

; 158  :     const uintptr_t _Ptr_container   = _Ptr_user[-1];

  0008e	8b 50 fc	 mov	 edx, DWORD PTR [eax-4]
  00091	83 c1 23	 add	 ecx, 35			; 00000023H

; 159  : 
; 160  :     // If the following asserts, it likely means that we are performing
; 161  :     // an aligned delete on memory coming from an unaligned allocation.
; 162  :     _STL_ASSERT(_Ptr_user[-2] == _Big_allocation_sentinel, "invalid argument");
; 163  : 
; 164  :     // Extra paranoia on aligned allocation/deallocation; ensure _Ptr_container is
; 165  :     // in range [_Min_back_shift, _Non_user_size]
; 166  : #ifdef _DEBUG
; 167  :     constexpr uintptr_t _Min_back_shift = 2 * sizeof(void*);
; 168  : #else // ^^^ _DEBUG ^^^ // vvv !_DEBUG vvv
; 169  :     constexpr uintptr_t _Min_back_shift = sizeof(void*);
; 170  : #endif // _DEBUG
; 171  :     const uintptr_t _Back_shift = reinterpret_cast<uintptr_t>(_Ptr) - _Ptr_container;

  00094	2b c2		 sub	 eax, edx

; 172  :     _STL_VERIFY(_Back_shift >= _Min_back_shift && _Back_shift <= _Non_user_size, "invalid argument");

  00096	83 c0 fc	 add	 eax, -4			; fffffffcH
  00099	83 f8 1f	 cmp	 eax, 31			; 0000001fH
  0009c	77 25		 ja	 SHORT $LN65@CDynamicPo

; 173  :     _Ptr = reinterpret_cast<void*>(_Ptr_container);

  0009e	8b c2		 mov	 eax, edx
$LN68@CDynamicPo:

; 264  :         ::operator delete(_Ptr, _Bytes);

  000a0	51		 push	 ecx
  000a1	50		 push	 eax
  000a2	e8 00 00 00 00	 call	 ??3@YAXPAXI@Z		; operator delete
; File C:\Program Files (x86)\Microsoft Visual Studio\2019\Professional\VC\Tools\MSVC\14.29.30133\include\vector

; 1767 :             _Myfirst = nullptr;

  000a7	c7 47 04 00 00
	00 00		 mov	 DWORD PTR [edi+4], 0
; File C:\Program Files (x86)\Microsoft Visual Studio\2019\Professional\VC\Tools\MSVC\14.29.30133\include\xmemory

; 264  :         ::operator delete(_Ptr, _Bytes);

  000ae	83 c4 08	 add	 esp, 8
; File C:\Program Files (x86)\Microsoft Visual Studio\2019\Professional\VC\Tools\MSVC\14.29.30133\include\vector

; 1768 :             _Mylast  = nullptr;

  000b1	c7 47 08 00 00
	00 00		 mov	 DWORD PTR [edi+8], 0

; 1769 :             _Myend   = nullptr;

  000b8	c7 47 0c 00 00
	00 00		 mov	 DWORD PTR [edi+12], 0
$LN52@CDynamicPo:
  000bf	5f		 pop	 edi
; File C:\Users\murat\Desktop\Siveps2-1-99-Project\source\client\Client\eterLib\Pool.h

; 142  : 		}

  000c0	5e		 pop	 esi
  000c1	5b		 pop	 ebx
  000c2	c3		 ret	 0
$LN65@CDynamicPo:
; File C:\Program Files (x86)\Microsoft Visual Studio\2019\Professional\VC\Tools\MSVC\14.29.30133\include\xmemory

; 172  :     _STL_VERIFY(_Back_shift >= _Min_back_shift && _Back_shift <= _Non_user_size, "invalid argument");

  000c3	e8 00 00 00 00	 call	 __invalid_parameter_noinfo_noreturn
$LN77@CDynamicPo:
  000c8	cc		 int	 3
??1?$CDynamicPoolEx@VCAirResistanceDecorator@NEffectUpdateDecorator@@@@UAE@XZ ENDP ; CDynamicPoolEx<NEffectUpdateDecorator::CAirResistanceDecorator>::~CDynamicPoolEx<NEffectUpdateDecorator::CAirResistanceDecorator>
_TEXT	ENDS
; Function compile flags: /Ogtp
;	COMDAT ??_G?$CDynamicPoolEx@VCGravityDecorator@NEffectUpdateDecorator@@@@UAEPAXI@Z
_TEXT	SEGMENT
___flags$ = 8						; size = 4
??_G?$CDynamicPoolEx@VCGravityDecorator@NEffectUpdateDecorator@@@@UAEPAXI@Z PROC ; CDynamicPoolEx<NEffectUpdateDecorator::CGravityDecorator>::`scalar deleting destructor', COMDAT
; _this$ = ecx
  00000	55		 push	 ebp
  00001	8b ec		 mov	 ebp, esp
  00003	56		 push	 esi
  00004	8b f1		 mov	 esi, ecx
  00006	e8 00 00 00 00	 call	 ??1?$CDynamicPoolEx@VCGravityDecorator@NEffectUpdateDecorator@@@@UAE@XZ ; CDynamicPoolEx<NEffectUpdateDecorator::CGravityDecorator>::~CDynamicPoolEx<NEffectUpdateDecorator::CGravityDecorator>
  0000b	f6 45 08 01	 test	 BYTE PTR ___flags$[ebp], 1
  0000f	74 0b		 je	 SHORT $LN4@scalar
  00011	6a 24		 push	 36			; 00000024H
  00013	56		 push	 esi
  00014	e8 00 00 00 00	 call	 ??3@YAXPAXI@Z		; operator delete
  00019	83 c4 08	 add	 esp, 8
$LN4@scalar:
  0001c	8b c6		 mov	 eax, esi
  0001e	5e		 pop	 esi
  0001f	5d		 pop	 ebp
  00020	c2 04 00	 ret	 4
??_G?$CDynamicPoolEx@VCGravityDecorator@NEffectUpdateDecorator@@@@UAEPAXI@Z ENDP ; CDynamicPoolEx<NEffectUpdateDecorator::CGravityDecorator>::`scalar deleting destructor'
_TEXT	ENDS
; Function compile flags: /Ogtp
; File C:\Users\murat\Desktop\Siveps2-1-99-Project\source\client\Client\eterLib\Pool.h
;	COMDAT ?Delete@?$CDynamicPoolEx@VCGravityDecorator@NEffectUpdateDecorator@@@@KAXPAVCGravityDecorator@NEffectUpdateDecorator@@@Z
_TEXT	SEGMENT
_pkData$ = 8						; size = 4
?Delete@?$CDynamicPoolEx@VCGravityDecorator@NEffectUpdateDecorator@@@@KAXPAVCGravityDecorator@NEffectUpdateDecorator@@@Z PROC ; CDynamicPoolEx<NEffectUpdateDecorator::CGravityDecorator>::Delete, COMDAT

; 224  : 			::operator delete(pkData);

  00000	e9 00 00 00 00	 jmp	 ??3@YAXPAX@Z		; operator delete
?Delete@?$CDynamicPoolEx@VCGravityDecorator@NEffectUpdateDecorator@@@@KAXPAVCGravityDecorator@NEffectUpdateDecorator@@@Z ENDP ; CDynamicPoolEx<NEffectUpdateDecorator::CGravityDecorator>::Delete
_TEXT	ENDS
; Function compile flags: /Ogtp
; File C:\Users\murat\Desktop\Siveps2-1-99-Project\source\client\Client\eterLib\Pool.h
; File C:\Program Files (x86)\Microsoft Visual Studio\2019\Professional\VC\Tools\MSVC\14.29.30133\include\vector
; File C:\Program Files (x86)\Microsoft Visual Studio\2019\Professional\VC\Tools\MSVC\14.29.30133\include\algorithm
; File C:\Users\murat\Desktop\Siveps2-1-99-Project\source\client\Client\eterLib\Pool.h
; File C:\Program Files (x86)\Microsoft Visual Studio\2019\Professional\VC\Tools\MSVC\14.29.30133\include\algorithm
; File C:\Users\murat\Desktop\Siveps2-1-99-Project\source\client\Client\eterLib\Pool.h
; File C:\Program Files (x86)\Microsoft Visual Studio\2019\Professional\VC\Tools\MSVC\14.29.30133\include\algorithm
; File C:\Users\murat\Desktop\Siveps2-1-99-Project\source\client\Client\eterLib\Pool.h
; File C:\Program Files (x86)\Microsoft Visual Studio\2019\Professional\VC\Tools\MSVC\14.29.30133\include\vector
; File C:\Program Files (x86)\Microsoft Visual Studio\2019\Professional\VC\Tools\MSVC\14.29.30133\include\xmemory
; File C:\Program Files (x86)\Microsoft Visual Studio\2019\Professional\VC\Tools\MSVC\14.29.30133\include\vector
; File C:\Program Files (x86)\Microsoft Visual Studio\2019\Professional\VC\Tools\MSVC\14.29.30133\include\xmemory
; File C:\Program Files (x86)\Microsoft Visual Studio\2019\Professional\VC\Tools\MSVC\14.29.30133\include\vector
; File C:\Program Files (x86)\Microsoft Visual Studio\2019\Professional\VC\Tools\MSVC\14.29.30133\include\xmemory
; File C:\Program Files (x86)\Microsoft Visual Studio\2019\Professional\VC\Tools\MSVC\14.29.30133\include\vector
; File C:\Program Files (x86)\Microsoft Visual Studio\2019\Professional\VC\Tools\MSVC\14.29.30133\include\xmemory
; File C:\Program Files (x86)\Microsoft Visual Studio\2019\Professional\VC\Tools\MSVC\14.29.30133\include\vector
; File C:\Users\murat\Desktop\Siveps2-1-99-Project\source\client\Client\eterLib\Pool.h
; File C:\Program Files (x86)\Microsoft Visual Studio\2019\Professional\VC\Tools\MSVC\14.29.30133\include\xmemory
; File C:\Users\murat\Desktop\Siveps2-1-99-Project\source\client\Client\eterLib\Pool.h
;	COMDAT ??1?$CDynamicPoolEx@VCGravityDecorator@NEffectUpdateDecorator@@@@UAE@XZ
_TEXT	SEGMENT
??1?$CDynamicPoolEx@VCGravityDecorator@NEffectUpdateDecorator@@@@UAE@XZ PROC ; CDynamicPoolEx<NEffectUpdateDecorator::CGravityDecorator>::~CDynamicPoolEx<NEffectUpdateDecorator::CGravityDecorator>, COMDAT
; _this$ = ecx

; 132  : 		{

  00000	53		 push	 ebx
  00001	56		 push	 esi
  00002	57		 push	 edi
  00003	8b f9		 mov	 edi, ecx
  00005	c7 07 00 00 00
	00		 mov	 DWORD PTR [edi], OFFSET ??_7?$CDynamicPoolEx@VCGravityDecorator@NEffectUpdateDecorator@@@@6B@
; File C:\Program Files (x86)\Microsoft Visual Studio\2019\Professional\VC\Tools\MSVC\14.29.30133\include\vector

; 42   :     _CONSTEXPR20_CONTAINER _Vector_const_iterator(_Tptr _Parg, const _Container_base* _Pvector) noexcept : _Ptr(_Parg) {

  0000b	8b 5f 08	 mov	 ebx, DWORD PTR [edi+8]
  0000e	8b 77 04	 mov	 esi, DWORD PTR [edi+4]
; File C:\Program Files (x86)\Microsoft Visual Studio\2019\Professional\VC\Tools\MSVC\14.29.30133\include\algorithm

; 270  :     for (; _UFirst != _ULast; ++_UFirst) {

  00011	3b f3		 cmp	 esi, ebx
  00013	74 14		 je	 SHORT $LN19@CDynamicPo
$LL20@CDynamicPo:
; File C:\Users\murat\Desktop\Siveps2-1-99-Project\source\client\Client\eterLib\Pool.h

; 224  : 			::operator delete(pkData);

  00015	ff 36		 push	 DWORD PTR [esi]
  00017	e8 00 00 00 00	 call	 ??3@YAXPAX@Z		; operator delete
; File C:\Program Files (x86)\Microsoft Visual Studio\2019\Professional\VC\Tools\MSVC\14.29.30133\include\algorithm

; 270  :     for (; _UFirst != _ULast; ++_UFirst) {

  0001c	83 c6 04	 add	 esi, 4
; File C:\Users\murat\Desktop\Siveps2-1-99-Project\source\client\Client\eterLib\Pool.h

; 224  : 			::operator delete(pkData);

  0001f	83 c4 04	 add	 esp, 4
; File C:\Program Files (x86)\Microsoft Visual Studio\2019\Professional\VC\Tools\MSVC\14.29.30133\include\algorithm

; 270  :     for (; _UFirst != _ULast; ++_UFirst) {

  00022	3b f3		 cmp	 esi, ebx
  00024	75 ef		 jne	 SHORT $LL20@CDynamicPo
  00026	8b 77 04	 mov	 esi, DWORD PTR [edi+4]
$LN19@CDynamicPo:
; File C:\Users\murat\Desktop\Siveps2-1-99-Project\source\client\Client\eterLib\Pool.h

; 162  : 			m_kVct_pkFree.clear();

  00029	8b 47 10	 mov	 eax, DWORD PTR [edi+16]
  0002c	89 77 08	 mov	 DWORD PTR [edi+8], esi
  0002f	89 47 14	 mov	 DWORD PTR [edi+20], eax
; File C:\Program Files (x86)\Microsoft Visual Studio\2019\Professional\VC\Tools\MSVC\14.29.30133\include\vector

; 1763 :         if (_Myfirst) { // destroy and deallocate old array

  00032	85 c0		 test	 eax, eax
  00034	74 41		 je	 SHORT $LN27@CDynamicPo

; 1764 :             _Destroy(_Myfirst, _Mylast);
; 1765 :             _Getal().deallocate(_Myfirst, static_cast<size_type>(_Myend - _Myfirst));

  00036	8b 4f 18	 mov	 ecx, DWORD PTR [edi+24]
  00039	2b c8		 sub	 ecx, eax
; File C:\Program Files (x86)\Microsoft Visual Studio\2019\Professional\VC\Tools\MSVC\14.29.30133\include\xmemory

; 835  :         _Deallocate<_New_alignof<_Ty>>(_Ptr, sizeof(_Ty) * _Count);

  0003b	83 e1 fc	 and	 ecx, -4			; fffffffcH

; 260  :         if (_Bytes >= _Big_allocation_threshold) { // boost the alignment of big allocations to help autovectorization

  0003e	81 f9 00 10 00
	00		 cmp	 ecx, 4096		; 00001000H
  00044	72 12		 jb	 SHORT $LN43@CDynamicPo

; 158  :     const uintptr_t _Ptr_container   = _Ptr_user[-1];

  00046	8b 50 fc	 mov	 edx, DWORD PTR [eax-4]
  00049	83 c1 23	 add	 ecx, 35			; 00000023H

; 159  : 
; 160  :     // If the following asserts, it likely means that we are performing
; 161  :     // an aligned delete on memory coming from an unaligned allocation.
; 162  :     _STL_ASSERT(_Ptr_user[-2] == _Big_allocation_sentinel, "invalid argument");
; 163  : 
; 164  :     // Extra paranoia on aligned allocation/deallocation; ensure _Ptr_container is
; 165  :     // in range [_Min_back_shift, _Non_user_size]
; 166  : #ifdef _DEBUG
; 167  :     constexpr uintptr_t _Min_back_shift = 2 * sizeof(void*);
; 168  : #else // ^^^ _DEBUG ^^^ // vvv !_DEBUG vvv
; 169  :     constexpr uintptr_t _Min_back_shift = sizeof(void*);
; 170  : #endif // _DEBUG
; 171  :     const uintptr_t _Back_shift = reinterpret_cast<uintptr_t>(_Ptr) - _Ptr_container;

  0004c	2b c2		 sub	 eax, edx

; 172  :     _STL_VERIFY(_Back_shift >= _Min_back_shift && _Back_shift <= _Non_user_size, "invalid argument");

  0004e	83 c0 fc	 add	 eax, -4			; fffffffcH
  00051	83 f8 1f	 cmp	 eax, 31			; 0000001fH
  00054	77 6d		 ja	 SHORT $LN65@CDynamicPo

; 173  :     _Ptr = reinterpret_cast<void*>(_Ptr_container);

  00056	8b c2		 mov	 eax, edx
$LN43@CDynamicPo:

; 264  :         ::operator delete(_Ptr, _Bytes);

  00058	51		 push	 ecx
  00059	50		 push	 eax
  0005a	e8 00 00 00 00	 call	 ??3@YAXPAXI@Z		; operator delete
; File C:\Program Files (x86)\Microsoft Visual Studio\2019\Professional\VC\Tools\MSVC\14.29.30133\include\vector

; 1767 :             _Myfirst = nullptr;

  0005f	c7 47 10 00 00
	00 00		 mov	 DWORD PTR [edi+16], 0
; File C:\Program Files (x86)\Microsoft Visual Studio\2019\Professional\VC\Tools\MSVC\14.29.30133\include\xmemory

; 264  :         ::operator delete(_Ptr, _Bytes);

  00066	83 c4 08	 add	 esp, 8
; File C:\Program Files (x86)\Microsoft Visual Studio\2019\Professional\VC\Tools\MSVC\14.29.30133\include\vector

; 1768 :             _Mylast  = nullptr;

  00069	c7 47 14 00 00
	00 00		 mov	 DWORD PTR [edi+20], 0

; 1769 :             _Myend   = nullptr;

  00070	c7 47 18 00 00
	00 00		 mov	 DWORD PTR [edi+24], 0
$LN27@CDynamicPo:

; 1763 :         if (_Myfirst) { // destroy and deallocate old array

  00077	8b 47 04	 mov	 eax, DWORD PTR [edi+4]
  0007a	85 c0		 test	 eax, eax
  0007c	74 41		 je	 SHORT $LN52@CDynamicPo

; 1764 :             _Destroy(_Myfirst, _Mylast);
; 1765 :             _Getal().deallocate(_Myfirst, static_cast<size_type>(_Myend - _Myfirst));

  0007e	8b 4f 0c	 mov	 ecx, DWORD PTR [edi+12]
  00081	2b c8		 sub	 ecx, eax
; File C:\Program Files (x86)\Microsoft Visual Studio\2019\Professional\VC\Tools\MSVC\14.29.30133\include\xmemory

; 835  :         _Deallocate<_New_alignof<_Ty>>(_Ptr, sizeof(_Ty) * _Count);

  00083	83 e1 fc	 and	 ecx, -4			; fffffffcH

; 260  :         if (_Bytes >= _Big_allocation_threshold) { // boost the alignment of big allocations to help autovectorization

  00086	81 f9 00 10 00
	00		 cmp	 ecx, 4096		; 00001000H
  0008c	72 12		 jb	 SHORT $LN68@CDynamicPo

; 158  :     const uintptr_t _Ptr_container   = _Ptr_user[-1];

  0008e	8b 50 fc	 mov	 edx, DWORD PTR [eax-4]
  00091	83 c1 23	 add	 ecx, 35			; 00000023H

; 159  : 
; 160  :     // If the following asserts, it likely means that we are performing
; 161  :     // an aligned delete on memory coming from an unaligned allocation.
; 162  :     _STL_ASSERT(_Ptr_user[-2] == _Big_allocation_sentinel, "invalid argument");
; 163  : 
; 164  :     // Extra paranoia on aligned allocation/deallocation; ensure _Ptr_container is
; 165  :     // in range [_Min_back_shift, _Non_user_size]
; 166  : #ifdef _DEBUG
; 167  :     constexpr uintptr_t _Min_back_shift = 2 * sizeof(void*);
; 168  : #else // ^^^ _DEBUG ^^^ // vvv !_DEBUG vvv
; 169  :     constexpr uintptr_t _Min_back_shift = sizeof(void*);
; 170  : #endif // _DEBUG
; 171  :     const uintptr_t _Back_shift = reinterpret_cast<uintptr_t>(_Ptr) - _Ptr_container;

  00094	2b c2		 sub	 eax, edx

; 172  :     _STL_VERIFY(_Back_shift >= _Min_back_shift && _Back_shift <= _Non_user_size, "invalid argument");

  00096	83 c0 fc	 add	 eax, -4			; fffffffcH
  00099	83 f8 1f	 cmp	 eax, 31			; 0000001fH
  0009c	77 25		 ja	 SHORT $LN65@CDynamicPo

; 173  :     _Ptr = reinterpret_cast<void*>(_Ptr_container);

  0009e	8b c2		 mov	 eax, edx
$LN68@CDynamicPo:

; 264  :         ::operator delete(_Ptr, _Bytes);

  000a0	51		 push	 ecx
  000a1	50		 push	 eax
  000a2	e8 00 00 00 00	 call	 ??3@YAXPAXI@Z		; operator delete
; File C:\Program Files (x86)\Microsoft Visual Studio\2019\Professional\VC\Tools\MSVC\14.29.30133\include\vector

; 1767 :             _Myfirst = nullptr;

  000a7	c7 47 04 00 00
	00 00		 mov	 DWORD PTR [edi+4], 0
; File C:\Program Files (x86)\Microsoft Visual Studio\2019\Professional\VC\Tools\MSVC\14.29.30133\include\xmemory

; 264  :         ::operator delete(_Ptr, _Bytes);

  000ae	83 c4 08	 add	 esp, 8
; File C:\Program Files (x86)\Microsoft Visual Studio\2019\Professional\VC\Tools\MSVC\14.29.30133\include\vector

; 1768 :             _Mylast  = nullptr;

  000b1	c7 47 08 00 00
	00 00		 mov	 DWORD PTR [edi+8], 0

; 1769 :             _Myend   = nullptr;

  000b8	c7 47 0c 00 00
	00 00		 mov	 DWORD PTR [edi+12], 0
$LN52@CDynamicPo:
  000bf	5f		 pop	 edi
; File C:\Users\murat\Desktop\Siveps2-1-99-Project\source\client\Client\eterLib\Pool.h

; 142  : 		}

  000c0	5e		 pop	 esi
  000c1	5b		 pop	 ebx
  000c2	c3		 ret	 0
$LN65@CDynamicPo:
; File C:\Program Files (x86)\Microsoft Visual Studio\2019\Professional\VC\Tools\MSVC\14.29.30133\include\xmemory

; 172  :     _STL_VERIFY(_Back_shift >= _Min_back_shift && _Back_shift <= _Non_user_size, "invalid argument");

  000c3	e8 00 00 00 00	 call	 __invalid_parameter_noinfo_noreturn
$LN77@CDynamicPo:
  000c8	cc		 int	 3
??1?$CDynamicPoolEx@VCGravityDecorator@NEffectUpdateDecorator@@@@UAE@XZ ENDP ; CDynamicPoolEx<NEffectUpdateDecorator::CGravityDecorator>::~CDynamicPoolEx<NEffectUpdateDecorator::CGravityDecorator>
_TEXT	ENDS
; Function compile flags: /Ogtp
;	COMDAT ??_G?$CDynamicPoolEx@VCRotationDecorator@NEffectUpdateDecorator@@@@UAEPAXI@Z
_TEXT	SEGMENT
___flags$ = 8						; size = 4
??_G?$CDynamicPoolEx@VCRotationDecorator@NEffectUpdateDecorator@@@@UAEPAXI@Z PROC ; CDynamicPoolEx<NEffectUpdateDecorator::CRotationDecorator>::`scalar deleting destructor', COMDAT
; _this$ = ecx
  00000	55		 push	 ebp
  00001	8b ec		 mov	 ebp, esp
  00003	56		 push	 esi
  00004	8b f1		 mov	 esi, ecx
  00006	e8 00 00 00 00	 call	 ??1?$CDynamicPoolEx@VCRotationDecorator@NEffectUpdateDecorator@@@@UAE@XZ ; CDynamicPoolEx<NEffectUpdateDecorator::CRotationDecorator>::~CDynamicPoolEx<NEffectUpdateDecorator::CRotationDecorator>
  0000b	f6 45 08 01	 test	 BYTE PTR ___flags$[ebp], 1
  0000f	74 0b		 je	 SHORT $LN4@scalar
  00011	6a 24		 push	 36			; 00000024H
  00013	56		 push	 esi
  00014	e8 00 00 00 00	 call	 ??3@YAXPAXI@Z		; operator delete
  00019	83 c4 08	 add	 esp, 8
$LN4@scalar:
  0001c	8b c6		 mov	 eax, esi
  0001e	5e		 pop	 esi
  0001f	5d		 pop	 ebp
  00020	c2 04 00	 ret	 4
??_G?$CDynamicPoolEx@VCRotationDecorator@NEffectUpdateDecorator@@@@UAEPAXI@Z ENDP ; CDynamicPoolEx<NEffectUpdateDecorator::CRotationDecorator>::`scalar deleting destructor'
_TEXT	ENDS
; Function compile flags: /Ogtp
; File C:\Users\murat\Desktop\Siveps2-1-99-Project\source\client\Client\eterLib\Pool.h
;	COMDAT ?Delete@?$CDynamicPoolEx@VCRotationDecorator@NEffectUpdateDecorator@@@@KAXPAVCRotationDecorator@NEffectUpdateDecorator@@@Z
_TEXT	SEGMENT
_pkData$ = 8						; size = 4
?Delete@?$CDynamicPoolEx@VCRotationDecorator@NEffectUpdateDecorator@@@@KAXPAVCRotationDecorator@NEffectUpdateDecorator@@@Z PROC ; CDynamicPoolEx<NEffectUpdateDecorator::CRotationDecorator>::Delete, COMDAT

; 224  : 			::operator delete(pkData);

  00000	e9 00 00 00 00	 jmp	 ??3@YAXPAX@Z		; operator delete
?Delete@?$CDynamicPoolEx@VCRotationDecorator@NEffectUpdateDecorator@@@@KAXPAVCRotationDecorator@NEffectUpdateDecorator@@@Z ENDP ; CDynamicPoolEx<NEffectUpdateDecorator::CRotationDecorator>::Delete
_TEXT	ENDS
; Function compile flags: /Ogtp
; File C:\Users\murat\Desktop\Siveps2-1-99-Project\source\client\Client\eterLib\Pool.h
; File C:\Program Files (x86)\Microsoft Visual Studio\2019\Professional\VC\Tools\MSVC\14.29.30133\include\vector
; File C:\Program Files (x86)\Microsoft Visual Studio\2019\Professional\VC\Tools\MSVC\14.29.30133\include\algorithm
; File C:\Users\murat\Desktop\Siveps2-1-99-Project\source\client\Client\eterLib\Pool.h
; File C:\Program Files (x86)\Microsoft Visual Studio\2019\Professional\VC\Tools\MSVC\14.29.30133\include\algorithm
; File C:\Users\murat\Desktop\Siveps2-1-99-Project\source\client\Client\eterLib\Pool.h
; File C:\Program Files (x86)\Microsoft Visual Studio\2019\Professional\VC\Tools\MSVC\14.29.30133\include\algorithm
; File C:\Users\murat\Desktop\Siveps2-1-99-Project\source\client\Client\eterLib\Pool.h
; File C:\Program Files (x86)\Microsoft Visual Studio\2019\Professional\VC\Tools\MSVC\14.29.30133\include\vector
; File C:\Program Files (x86)\Microsoft Visual Studio\2019\Professional\VC\Tools\MSVC\14.29.30133\include\xmemory
; File C:\Program Files (x86)\Microsoft Visual Studio\2019\Professional\VC\Tools\MSVC\14.29.30133\include\vector
; File C:\Program Files (x86)\Microsoft Visual Studio\2019\Professional\VC\Tools\MSVC\14.29.30133\include\xmemory
; File C:\Program Files (x86)\Microsoft Visual Studio\2019\Professional\VC\Tools\MSVC\14.29.30133\include\vector
; File C:\Program Files (x86)\Microsoft Visual Studio\2019\Professional\VC\Tools\MSVC\14.29.30133\include\xmemory
; File C:\Program Files (x86)\Microsoft Visual Studio\2019\Professional\VC\Tools\MSVC\14.29.30133\include\vector
; File C:\Program Files (x86)\Microsoft Visual Studio\2019\Professional\VC\Tools\MSVC\14.29.30133\include\xmemory
; File C:\Program Files (x86)\Microsoft Visual Studio\2019\Professional\VC\Tools\MSVC\14.29.30133\include\vector
; File C:\Users\murat\Desktop\Siveps2-1-99-Project\source\client\Client\eterLib\Pool.h
; File C:\Program Files (x86)\Microsoft Visual Studio\2019\Professional\VC\Tools\MSVC\14.29.30133\include\xmemory
; File C:\Users\murat\Desktop\Siveps2-1-99-Project\source\client\Client\eterLib\Pool.h
;	COMDAT ??1?$CDynamicPoolEx@VCRotationDecorator@NEffectUpdateDecorator@@@@UAE@XZ
_TEXT	SEGMENT
??1?$CDynamicPoolEx@VCRotationDecorator@NEffectUpdateDecorator@@@@UAE@XZ PROC ; CDynamicPoolEx<NEffectUpdateDecorator::CRotationDecorator>::~CDynamicPoolEx<NEffectUpdateDecorator::CRotationDecorator>, COMDAT
; _this$ = ecx

; 132  : 		{

  00000	53		 push	 ebx
  00001	56		 push	 esi
  00002	57		 push	 edi
  00003	8b f9		 mov	 edi, ecx
  00005	c7 07 00 00 00
	00		 mov	 DWORD PTR [edi], OFFSET ??_7?$CDynamicPoolEx@VCRotationDecorator@NEffectUpdateDecorator@@@@6B@
; File C:\Program Files (x86)\Microsoft Visual Studio\2019\Professional\VC\Tools\MSVC\14.29.30133\include\vector

; 42   :     _CONSTEXPR20_CONTAINER _Vector_const_iterator(_Tptr _Parg, const _Container_base* _Pvector) noexcept : _Ptr(_Parg) {

  0000b	8b 5f 08	 mov	 ebx, DWORD PTR [edi+8]
  0000e	8b 77 04	 mov	 esi, DWORD PTR [edi+4]
; File C:\Program Files (x86)\Microsoft Visual Studio\2019\Professional\VC\Tools\MSVC\14.29.30133\include\algorithm

; 270  :     for (; _UFirst != _ULast; ++_UFirst) {

  00011	3b f3		 cmp	 esi, ebx
  00013	74 14		 je	 SHORT $LN19@CDynamicPo
$LL20@CDynamicPo:
; File C:\Users\murat\Desktop\Siveps2-1-99-Project\source\client\Client\eterLib\Pool.h

; 224  : 			::operator delete(pkData);

  00015	ff 36		 push	 DWORD PTR [esi]
  00017	e8 00 00 00 00	 call	 ??3@YAXPAX@Z		; operator delete
; File C:\Program Files (x86)\Microsoft Visual Studio\2019\Professional\VC\Tools\MSVC\14.29.30133\include\algorithm

; 270  :     for (; _UFirst != _ULast; ++_UFirst) {

  0001c	83 c6 04	 add	 esi, 4
; File C:\Users\murat\Desktop\Siveps2-1-99-Project\source\client\Client\eterLib\Pool.h

; 224  : 			::operator delete(pkData);

  0001f	83 c4 04	 add	 esp, 4
; File C:\Program Files (x86)\Microsoft Visual Studio\2019\Professional\VC\Tools\MSVC\14.29.30133\include\algorithm

; 270  :     for (; _UFirst != _ULast; ++_UFirst) {

  00022	3b f3		 cmp	 esi, ebx
  00024	75 ef		 jne	 SHORT $LL20@CDynamicPo
  00026	8b 77 04	 mov	 esi, DWORD PTR [edi+4]
$LN19@CDynamicPo:
; File C:\Users\murat\Desktop\Siveps2-1-99-Project\source\client\Client\eterLib\Pool.h

; 162  : 			m_kVct_pkFree.clear();

  00029	8b 47 10	 mov	 eax, DWORD PTR [edi+16]
  0002c	89 77 08	 mov	 DWORD PTR [edi+8], esi
  0002f	89 47 14	 mov	 DWORD PTR [edi+20], eax
; File C:\Program Files (x86)\Microsoft Visual Studio\2019\Professional\VC\Tools\MSVC\14.29.30133\include\vector

; 1763 :         if (_Myfirst) { // destroy and deallocate old array

  00032	85 c0		 test	 eax, eax
  00034	74 41		 je	 SHORT $LN27@CDynamicPo

; 1764 :             _Destroy(_Myfirst, _Mylast);
; 1765 :             _Getal().deallocate(_Myfirst, static_cast<size_type>(_Myend - _Myfirst));

  00036	8b 4f 18	 mov	 ecx, DWORD PTR [edi+24]
  00039	2b c8		 sub	 ecx, eax
; File C:\Program Files (x86)\Microsoft Visual Studio\2019\Professional\VC\Tools\MSVC\14.29.30133\include\xmemory

; 835  :         _Deallocate<_New_alignof<_Ty>>(_Ptr, sizeof(_Ty) * _Count);

  0003b	83 e1 fc	 and	 ecx, -4			; fffffffcH

; 260  :         if (_Bytes >= _Big_allocation_threshold) { // boost the alignment of big allocations to help autovectorization

  0003e	81 f9 00 10 00
	00		 cmp	 ecx, 4096		; 00001000H
  00044	72 12		 jb	 SHORT $LN43@CDynamicPo

; 158  :     const uintptr_t _Ptr_container   = _Ptr_user[-1];

  00046	8b 50 fc	 mov	 edx, DWORD PTR [eax-4]
  00049	83 c1 23	 add	 ecx, 35			; 00000023H

; 159  : 
; 160  :     // If the following asserts, it likely means that we are performing
; 161  :     // an aligned delete on memory coming from an unaligned allocation.
; 162  :     _STL_ASSERT(_Ptr_user[-2] == _Big_allocation_sentinel, "invalid argument");
; 163  : 
; 164  :     // Extra paranoia on aligned allocation/deallocation; ensure _Ptr_container is
; 165  :     // in range [_Min_back_shift, _Non_user_size]
; 166  : #ifdef _DEBUG
; 167  :     constexpr uintptr_t _Min_back_shift = 2 * sizeof(void*);
; 168  : #else // ^^^ _DEBUG ^^^ // vvv !_DEBUG vvv
; 169  :     constexpr uintptr_t _Min_back_shift = sizeof(void*);
; 170  : #endif // _DEBUG
; 171  :     const uintptr_t _Back_shift = reinterpret_cast<uintptr_t>(_Ptr) - _Ptr_container;

  0004c	2b c2		 sub	 eax, edx

; 172  :     _STL_VERIFY(_Back_shift >= _Min_back_shift && _Back_shift <= _Non_user_size, "invalid argument");

  0004e	83 c0 fc	 add	 eax, -4			; fffffffcH
  00051	83 f8 1f	 cmp	 eax, 31			; 0000001fH
  00054	77 6d		 ja	 SHORT $LN65@CDynamicPo

; 173  :     _Ptr = reinterpret_cast<void*>(_Ptr_container);

  00056	8b c2		 mov	 eax, edx
$LN43@CDynamicPo:

; 264  :         ::operator delete(_Ptr, _Bytes);

  00058	51		 push	 ecx
  00059	50		 push	 eax
  0005a	e8 00 00 00 00	 call	 ??3@YAXPAXI@Z		; operator delete
; File C:\Program Files (x86)\Microsoft Visual Studio\2019\Professional\VC\Tools\MSVC\14.29.30133\include\vector

; 1767 :             _Myfirst = nullptr;

  0005f	c7 47 10 00 00
	00 00		 mov	 DWORD PTR [edi+16], 0
; File C:\Program Files (x86)\Microsoft Visual Studio\2019\Professional\VC\Tools\MSVC\14.29.30133\include\xmemory

; 264  :         ::operator delete(_Ptr, _Bytes);

  00066	83 c4 08	 add	 esp, 8
; File C:\Program Files (x86)\Microsoft Visual Studio\2019\Professional\VC\Tools\MSVC\14.29.30133\include\vector

; 1768 :             _Mylast  = nullptr;

  00069	c7 47 14 00 00
	00 00		 mov	 DWORD PTR [edi+20], 0

; 1769 :             _Myend   = nullptr;

  00070	c7 47 18 00 00
	00 00		 mov	 DWORD PTR [edi+24], 0
$LN27@CDynamicPo:

; 1763 :         if (_Myfirst) { // destroy and deallocate old array

  00077	8b 47 04	 mov	 eax, DWORD PTR [edi+4]
  0007a	85 c0		 test	 eax, eax
  0007c	74 41		 je	 SHORT $LN52@CDynamicPo

; 1764 :             _Destroy(_Myfirst, _Mylast);
; 1765 :             _Getal().deallocate(_Myfirst, static_cast<size_type>(_Myend - _Myfirst));

  0007e	8b 4f 0c	 mov	 ecx, DWORD PTR [edi+12]
  00081	2b c8		 sub	 ecx, eax
; File C:\Program Files (x86)\Microsoft Visual Studio\2019\Professional\VC\Tools\MSVC\14.29.30133\include\xmemory

; 835  :         _Deallocate<_New_alignof<_Ty>>(_Ptr, sizeof(_Ty) * _Count);

  00083	83 e1 fc	 and	 ecx, -4			; fffffffcH

; 260  :         if (_Bytes >= _Big_allocation_threshold) { // boost the alignment of big allocations to help autovectorization

  00086	81 f9 00 10 00
	00		 cmp	 ecx, 4096		; 00001000H
  0008c	72 12		 jb	 SHORT $LN68@CDynamicPo

; 158  :     const uintptr_t _Ptr_container   = _Ptr_user[-1];

  0008e	8b 50 fc	 mov	 edx, DWORD PTR [eax-4]
  00091	83 c1 23	 add	 ecx, 35			; 00000023H

; 159  : 
; 160  :     // If the following asserts, it likely means that we are performing
; 161  :     // an aligned delete on memory coming from an unaligned allocation.
; 162  :     _STL_ASSERT(_Ptr_user[-2] == _Big_allocation_sentinel, "invalid argument");
; 163  : 
; 164  :     // Extra paranoia on aligned allocation/deallocation; ensure _Ptr_container is
; 165  :     // in range [_Min_back_shift, _Non_user_size]
; 166  : #ifdef _DEBUG
; 167  :     constexpr uintptr_t _Min_back_shift = 2 * sizeof(void*);
; 168  : #else // ^^^ _DEBUG ^^^ // vvv !_DEBUG vvv
; 169  :     constexpr uintptr_t _Min_back_shift = sizeof(void*);
; 170  : #endif // _DEBUG
; 171  :     const uintptr_t _Back_shift = reinterpret_cast<uintptr_t>(_Ptr) - _Ptr_container;

  00094	2b c2		 sub	 eax, edx

; 172  :     _STL_VERIFY(_Back_shift >= _Min_back_shift && _Back_shift <= _Non_user_size, "invalid argument");

  00096	83 c0 fc	 add	 eax, -4			; fffffffcH
  00099	83 f8 1f	 cmp	 eax, 31			; 0000001fH
  0009c	77 25		 ja	 SHORT $LN65@CDynamicPo

; 173  :     _Ptr = reinterpret_cast<void*>(_Ptr_container);

  0009e	8b c2		 mov	 eax, edx
$LN68@CDynamicPo:

; 264  :         ::operator delete(_Ptr, _Bytes);

  000a0	51		 push	 ecx
  000a1	50		 push	 eax
  000a2	e8 00 00 00 00	 call	 ??3@YAXPAXI@Z		; operator delete
; File C:\Program Files (x86)\Microsoft Visual Studio\2019\Professional\VC\Tools\MSVC\14.29.30133\include\vector

; 1767 :             _Myfirst = nullptr;

  000a7	c7 47 04 00 00
	00 00		 mov	 DWORD PTR [edi+4], 0
; File C:\Program Files (x86)\Microsoft Visual Studio\2019\Professional\VC\Tools\MSVC\14.29.30133\include\xmemory

; 264  :         ::operator delete(_Ptr, _Bytes);

  000ae	83 c4 08	 add	 esp, 8
; File C:\Program Files (x86)\Microsoft Visual Studio\2019\Professional\VC\Tools\MSVC\14.29.30133\include\vector

; 1768 :             _Mylast  = nullptr;

  000b1	c7 47 08 00 00
	00 00		 mov	 DWORD PTR [edi+8], 0

; 1769 :             _Myend   = nullptr;

  000b8	c7 47 0c 00 00
	00 00		 mov	 DWORD PTR [edi+12], 0
$LN52@CDynamicPo:
  000bf	5f		 pop	 edi
; File C:\Users\murat\Desktop\Siveps2-1-99-Project\source\client\Client\eterLib\Pool.h

; 142  : 		}

  000c0	5e		 pop	 esi
  000c1	5b		 pop	 ebx
  000c2	c3		 ret	 0
$LN65@CDynamicPo:
; File C:\Program Files (x86)\Microsoft Visual Studio\2019\Professional\VC\Tools\MSVC\14.29.30133\include\xmemory

; 172  :     _STL_VERIFY(_Back_shift >= _Min_back_shift && _Back_shift <= _Non_user_size, "invalid argument");

  000c3	e8 00 00 00 00	 call	 __invalid_parameter_noinfo_noreturn
$LN77@CDynamicPo:
  000c8	cc		 int	 3
??1?$CDynamicPoolEx@VCRotationDecorator@NEffectUpdateDecorator@@@@UAE@XZ ENDP ; CDynamicPoolEx<NEffectUpdateDecorator::CRotationDecorator>::~CDynamicPoolEx<NEffectUpdateDecorator::CRotationDecorator>
_TEXT	ENDS
; Function compile flags: /Ogtp
; File C:\Users\murat\Desktop\Siveps2-1-99-Project\source\client\Client\GameLib\ActorInstanceBattle.cpp
;	COMDAT ?IS_PARTY_HUNTING_RACE@@YA_NI@Z
_TEXT	SEGMENT
_vnum$ = 8						; size = 4
?IS_PARTY_HUNTING_RACE@@YA_NI@Z PROC			; IS_PARTY_HUNTING_RACE, COMDAT

; 611  : 	return true;

  00000	b0 01		 mov	 al, 1

; 612  : 
; 613  : 	//     
; 614  : 	/*
; 615  : 	if (vnum < 8) // 
; 616  : 		return true;
; 617  : 
; 618  : 	if (vnum >= 8000 && vnum <= 8112) // 
; 619  : 		return true;
; 620  : 
; 621  : 	if (vnum >= 2400 && vnum <  5000) //    
; 622  : 		return true;
; 623  : 
; 624  : 	return false;
; 625  : 	*/
; 626  : }

  00002	c3		 ret	 0
?IS_PARTY_HUNTING_RACE@@YA_NI@Z ENDP			; IS_PARTY_HUNTING_RACE
_TEXT	ENDS
; Function compile flags: /Ogtp
; File C:\Users\murat\Desktop\Siveps2-1-99-Project\source\client\Client\GameLib\ActorInstanceBattle.cpp
;	COMDAT ?IS_HUGE_RACE@@YA_NI@Z
_TEXT	SEGMENT
_vnum$ = 8						; size = 4
?IS_HUGE_RACE@@YA_NI@Z PROC				; IS_HUGE_RACE, COMDAT

; 553  : {

  00000	55		 push	 ebp
  00001	8b ec		 mov	 ebp, esp

; 554  : 	switch (vnum)

  00003	8b 45 08	 mov	 eax, DWORD PTR _vnum$[ebp]
  00006	3d 26 0a 00 00	 cmp	 eax, 2598		; 00000a26H
  0000b	77 26		 ja	 SHORT $LN14@IS_HUGE_RA
  0000d	74 20		 je	 SHORT $LN8@IS_HUGE_RA
  0000f	3d 2c 08 00 00	 cmp	 eax, 2092		; 0000082cH
  00014	77 12		 ja	 SHORT $LN15@IS_HUGE_RA
  00016	74 17		 je	 SHORT $LN8@IS_HUGE_RA
  00018	2d a7 04 00 00	 sub	 eax, 1191		; 000004a7H
  0001d	74 10		 je	 SHORT $LN8@IS_HUGE_RA
  0001f	83 e8 01	 sub	 eax, 1
  00022	74 0b		 je	 SHORT $LN8@IS_HUGE_RA
$LN2@IS_HUGE_RA:

; 566  : 	case 2598:
; 567  : 		return true;
; 568  : 	case 2092:
; 569  : 		return true;
; 570  : 	case 1191:
; 571  : 		return true;
; 572  : 	case 1192:
; 573  : 		return true;
; 574  : 	}
; 575  : 	return false;

  00024	32 c0		 xor	 al, al

; 576  : }

  00026	5d		 pop	 ebp
  00027	c3		 ret	 0
$LN15@IS_HUGE_RA:

; 554  : 	switch (vnum)

  00028	3d bd 09 00 00	 cmp	 eax, 2493		; 000009bdH
  0002d	75 f5		 jne	 SHORT $LN2@IS_HUGE_RA
$LN8@IS_HUGE_RA:

; 555  : 	{
; 556  : 	case 2493:
; 557  : 		return true;
; 558  : 	case 6191:
; 559  : 		return true;
; 560  : 	case 6192:
; 561  : 		return true;
; 562  : 	case 6193:
; 563  : 		return true;
; 564  : 	case 6091:
; 565  : 		return true;

  0002f	b0 01		 mov	 al, 1

; 576  : }

  00031	5d		 pop	 ebp
  00032	c3		 ret	 0
$LN14@IS_HUGE_RA:

; 554  : 	switch (vnum)

  00033	05 35 e8 ff ff	 add	 eax, -6091		; ffffe835H
  00038	83 f8 66	 cmp	 eax, 102		; 00000066H
  0003b	77 e7		 ja	 SHORT $LN2@IS_HUGE_RA
  0003d	0f b6 80 00 00
	00 00		 movzx	 eax, BYTE PTR $LN16@IS_HUGE_RA[eax]
  00044	ff 24 85 00 00
	00 00		 jmp	 DWORD PTR $LN17@IS_HUGE_RA[eax*4]
  0004b	90		 npad	 1
$LN17@IS_HUGE_RA:

; 576  : }

  0004c	00 00 00 00	 DD	 $LN8@IS_HUGE_RA
  00050	00 00 00 00	 DD	 $LN2@IS_HUGE_RA
$LN16@IS_HUGE_RA:
  00054	00		 DB	 0
  00055	01		 DB	 1
  00056	01		 DB	 1
  00057	01		 DB	 1
  00058	01		 DB	 1
  00059	01		 DB	 1
  0005a	01		 DB	 1
  0005b	01		 DB	 1
  0005c	01		 DB	 1
  0005d	01		 DB	 1
  0005e	01		 DB	 1
  0005f	01		 DB	 1
  00060	01		 DB	 1
  00061	01		 DB	 1
  00062	01		 DB	 1
  00063	01		 DB	 1
  00064	01		 DB	 1
  00065	01		 DB	 1
  00066	01		 DB	 1
  00067	01		 DB	 1
  00068	01		 DB	 1
  00069	01		 DB	 1
  0006a	01		 DB	 1
  0006b	01		 DB	 1
  0006c	01		 DB	 1
  0006d	01		 DB	 1
  0006e	01		 DB	 1
  0006f	01		 DB	 1
  00070	01		 DB	 1
  00071	01		 DB	 1
  00072	01		 DB	 1
  00073	01		 DB	 1
  00074	01		 DB	 1
  00075	01		 DB	 1
  00076	01		 DB	 1
  00077	01		 DB	 1
  00078	01		 DB	 1
  00079	01		 DB	 1
  0007a	01		 DB	 1
  0007b	01		 DB	 1
  0007c	01		 DB	 1
  0007d	01		 DB	 1
  0007e	01		 DB	 1
  0007f	01		 DB	 1
  00080	01		 DB	 1
  00081	01		 DB	 1
  00082	01		 DB	 1
  00083	01		 DB	 1
  00084	01		 DB	 1
  00085	01		 DB	 1
  00086	01		 DB	 1
  00087	01		 DB	 1
  00088	01		 DB	 1
  00089	01		 DB	 1
  0008a	01		 DB	 1
  0008b	01		 DB	 1
  0008c	01		 DB	 1
  0008d	01		 DB	 1
  0008e	01		 DB	 1
  0008f	01		 DB	 1
  00090	01		 DB	 1
  00091	01		 DB	 1
  00092	01		 DB	 1
  00093	01		 DB	 1
  00094	01		 DB	 1
  00095	01		 DB	 1
  00096	01		 DB	 1
  00097	01		 DB	 1
  00098	01		 DB	 1
  00099	01		 DB	 1
  0009a	01		 DB	 1
  0009b	01		 DB	 1
  0009c	01		 DB	 1
  0009d	01		 DB	 1
  0009e	01		 DB	 1
  0009f	01		 DB	 1
  000a0	01		 DB	 1
  000a1	01		 DB	 1
  000a2	01		 DB	 1
  000a3	01		 DB	 1
  000a4	01		 DB	 1
  000a5	01		 DB	 1
  000a6	01		 DB	 1
  000a7	01		 DB	 1
  000a8	01		 DB	 1
  000a9	01		 DB	 1
  000aa	01		 DB	 1
  000ab	01		 DB	 1
  000ac	01		 DB	 1
  000ad	01		 DB	 1
  000ae	01		 DB	 1
  000af	01		 DB	 1
  000b0	01		 DB	 1
  000b1	01		 DB	 1
  000b2	01		 DB	 1
  000b3	01		 DB	 1
  000b4	01		 DB	 1
  000b5	01		 DB	 1
  000b6	01		 DB	 1
  000b7	01		 DB	 1
  000b8	00		 DB	 0
  000b9	00		 DB	 0
  000ba	00		 DB	 0
?IS_HUGE_RACE@@YA_NI@Z ENDP				; IS_HUGE_RACE
_TEXT	ENDS
; Function compile flags: /Ogtp
; File C:\Users\murat\Desktop\Siveps2-1-99-Project\source\client\Client\GameLib\ActorInstanceBattle.cpp
;	COMDAT ?__IsMovingSkill@CActorInstance@@IAEHG@Z
_TEXT	SEGMENT
_wSkillNumber$ = 8					; size = 2
?__IsMovingSkill@CActorInstance@@IAEHG@Z PROC		; CActorInstance::__IsMovingSkill, COMDAT
; _this$ = ecx

; 413  : {

  00000	55		 push	 ebp
  00001	8b ec		 mov	 ebp, esp

; 414  : 	enum
; 415  : 	{
; 416  : 		HORSE_DASH_SKILL_NUMBER = 137,
; 417  : 	};
; 418  : 
; 419  : 	return HORSE_DASH_SKILL_NUMBER == wSkillNumber;

  00003	b9 89 00 00 00	 mov	 ecx, 137		; 00000089H
  00008	33 c0		 xor	 eax, eax
  0000a	66 3b 4d 08	 cmp	 cx, WORD PTR _wSkillNumber$[ebp]
  0000e	0f 94 c0	 sete	 al

; 420  : }

  00011	5d		 pop	 ebp
  00012	c2 04 00	 ret	 4
?__IsMovingSkill@CActorInstance@@IAEHG@Z ENDP		; CActorInstance::__IsMovingSkill
_TEXT	ENDS
; Function compile flags: /Ogtp
; File C:\Users\murat\Desktop\Siveps2-1-99-Project\source\client\Client\GameLib\ActorInstanceBattle.cpp
; File C:\Users\murat\Desktop\Siveps2-1-99-Project\source\client\extern\include\d3dx8math.inl
; File C:\Users\murat\Desktop\Siveps2-1-99-Project\source\client\Client\GameLib\ActorInstanceBattle.cpp
; File C:\Users\murat\Desktop\Siveps2-1-99-Project\source\client\extern\include\d3dx8math.inl
; File C:\Users\murat\Desktop\Siveps2-1-99-Project\source\client\Client\GameLib\ActorInstanceBattle.cpp
; File C:\Users\murat\Desktop\Siveps2-1-99-Project\source\client\extern\include\d3dx8math.inl
; File C:\Users\murat\Desktop\Siveps2-1-99-Project\source\client\Client\GameLib\ActorInstanceBattle.cpp
;	COMDAT ?__SetFallingDirection@CActorInstance@@IAEXMM@Z
_TEXT	SEGMENT
$T1 = -16						; size = 12
__$ArrayPad$ = -4					; size = 4
_fx$ = 8						; size = 4
_fy$ = 12						; size = 4
?__SetFallingDirection@CActorInstance@@IAEXMM@Z PROC	; CActorInstance::__SetFallingDirection, COMDAT
; _this$ = ecx

; 987  : {

  00000	55		 push	 ebp
  00001	8b ec		 mov	 ebp, esp
  00003	83 ec 10	 sub	 esp, 16			; 00000010H
  00006	a1 00 00 00 00	 mov	 eax, DWORD PTR ___security_cookie
  0000b	33 c5		 xor	 eax, ebp
  0000d	89 45 fc	 mov	 DWORD PTR __$ArrayPad$[ebp], eax
  00010	f3 0f 10 45 08	 movss	 xmm0, DWORD PTR _fx$[ebp]

; 988  : 	m_PhysicsObject.SetDirection(D3DXVECTOR3(fx, fy, 0.0f));

  00015	8d 45 f0	 lea	 eax, DWORD PTR $T1[ebp]
; File C:\Users\murat\Desktop\Siveps2-1-99-Project\source\client\extern\include\d3dx8math.inl

; 180  :     x = fx;

  00018	f3 0f 11 45 f0	 movss	 DWORD PTR $T1[ebp], xmm0
; File C:\Users\murat\Desktop\Siveps2-1-99-Project\source\client\Client\GameLib\ActorInstanceBattle.cpp

; 988  : 	m_PhysicsObject.SetDirection(D3DXVECTOR3(fx, fy, 0.0f));

  0001d	81 c1 80 03 00
	00		 add	 ecx, 896		; 00000380H
; File C:\Users\murat\Desktop\Siveps2-1-99-Project\source\client\extern\include\d3dx8math.inl

; 181  :     y = fy;

  00023	f3 0f 10 45 0c	 movss	 xmm0, DWORD PTR _fy$[ebp]
; File C:\Users\murat\Desktop\Siveps2-1-99-Project\source\client\Client\GameLib\ActorInstanceBattle.cpp

; 988  : 	m_PhysicsObject.SetDirection(D3DXVECTOR3(fx, fy, 0.0f));

  00028	50		 push	 eax
; File C:\Users\murat\Desktop\Siveps2-1-99-Project\source\client\extern\include\d3dx8math.inl

; 181  :     y = fy;

  00029	f3 0f 11 45 f4	 movss	 DWORD PTR $T1[ebp+4], xmm0

; 182  :     z = fz;

  0002e	c7 45 f8 00 00
	00 00		 mov	 DWORD PTR $T1[ebp+8], 0
; File C:\Users\murat\Desktop\Siveps2-1-99-Project\source\client\Client\GameLib\ActorInstanceBattle.cpp

; 988  : 	m_PhysicsObject.SetDirection(D3DXVECTOR3(fx, fy, 0.0f));

  00035	e8 00 00 00 00	 call	 ?SetDirection@CPhysicsObject@@QAEXABUD3DXVECTOR3@@@Z ; CPhysicsObject::SetDirection

; 989  : }

  0003a	8b 4d fc	 mov	 ecx, DWORD PTR __$ArrayPad$[ebp]
  0003d	33 cd		 xor	 ecx, ebp
  0003f	e8 00 00 00 00	 call	 @__security_check_cookie@4
  00044	8b e5		 mov	 esp, ebp
  00046	5d		 pop	 ebp
  00047	c2 08 00	 ret	 8
?__SetFallingDirection@CActorInstance@@IAEXMM@Z ENDP	; CActorInstance::__SetFallingDirection
_TEXT	ENDS
; Function compile flags: /Ogtp
; File C:\Users\murat\Desktop\Siveps2-1-99-Project\source\client\Client\GameLib\ActorInstanceBattle.cpp
;	COMDAT ?__isInvisible@CActorInstance@@IAE_NXZ
_TEXT	SEGMENT
tv129 = -4						; size = 4
?__isInvisible@CActorInstance@@IAE_NXZ PROC		; CActorInstance::__isInvisible, COMDAT
; _this$ = ecx

; 976  : {

  00000	55		 push	 ebp
  00001	8b ec		 mov	 ebp, esp
  00003	51		 push	 ecx
  00004	56		 push	 esi
  00005	8b f1		 mov	 esi, ecx

; 977  : 	if (IsDead())

  00007	e8 00 00 00 00	 call	 ?IsDead@CActorInstance@@QAEHXZ ; CActorInstance::IsDead
  0000c	85 c0		 test	 eax, eax
  0000e	75 23		 jne	 SHORT $LN3@isInvisibl

; 978  : 		return true;
; 979  : 
; 980  : 	if (CTimer::Instance().GetCurrentSecond() >= m_fInvisibleTime)

  00010	8b 0d 00 00 00
	00		 mov	 ecx, DWORD PTR ?ms_singleton@?$CSingleton@VCTimer@@@@0PAVCTimer@@A ; CSingleton<CTimer>::ms_singleton
  00016	e8 00 00 00 00	 call	 ?GetCurrentSecond@CTimer@@QAEMXZ ; CTimer::GetCurrentSecond
  0001b	d9 5d fc	 fstp	 DWORD PTR tv129[ebp]
  0001e	f3 0f 10 45 fc	 movss	 xmm0, DWORD PTR tv129[ebp]
  00023	0f 2f 86 28 04
	00 00		 comiss	 xmm0, DWORD PTR [esi+1064]
  0002a	72 07		 jb	 SHORT $LN3@isInvisibl

; 981  : 		return false;

  0002c	32 c0		 xor	 al, al
  0002e	5e		 pop	 esi

; 984  : }

  0002f	8b e5		 mov	 esp, ebp
  00031	5d		 pop	 ebp
  00032	c3		 ret	 0
$LN3@isInvisibl:

; 982  : 
; 983  : 	return true;

  00033	b0 01		 mov	 al, 1
  00035	5e		 pop	 esi

; 984  : }

  00036	8b e5		 mov	 esp, ebp
  00038	5d		 pop	 ebp
  00039	c3		 ret	 0
?__isInvisible@CActorInstance@@IAE_NXZ ENDP		; CActorInstance::__isInvisible
_TEXT	ENDS
; Function compile flags: /Ogtp
; File C:\Users\murat\Desktop\Siveps2-1-99-Project\source\client\Client\GameLib\ActorInstanceBattle.cpp
; File C:\Users\murat\Desktop\Siveps2-1-99-Project\source\client\extern\include\d3dx8math.inl
; File C:\Users\murat\Desktop\Siveps2-1-99-Project\source\client\Client\GameLib\ActorInstanceBattle.cpp
;	COMDAT ?__PushCircle@CActorInstance@@IAEXAAV1@@Z
_TEXT	SEGMENT
tv248 = -24						; size = 4
tv254 = -20						; size = 4
_v3Direction$ = -16					; size = 12
__$ArrayPad$ = -4					; size = 4
_rVictim$ = 8						; size = 4
?__PushCircle@CActorInstance@@IAEXAAV1@@Z PROC		; CActorInstance::__PushCircle, COMDAT
; _this$ = ecx

; 946  : {

  00000	55		 push	 ebp
  00001	8b ec		 mov	 ebp, esp
  00003	83 ec 18	 sub	 esp, 24			; 00000018H
  00006	a1 00 00 00 00	 mov	 eax, DWORD PTR ___security_cookie
  0000b	33 c5		 xor	 eax, ebp
  0000d	89 45 fc	 mov	 DWORD PTR __$ArrayPad$[ebp], eax
  00010	56		 push	 esi
  00011	8b 75 08	 mov	 esi, DWORD PTR _rVictim$[ebp]

; 947  : 	const TPixelPosition& c_rkPPosAtk=NEW_GetAtkPixelPositionRef();

  00014	e8 00 00 00 00	 call	 ?NEW_GetAtkPixelPositionRef@CActorInstance@@QAEABUD3DXVECTOR3@@XZ ; CActorInstance::NEW_GetAtkPixelPositionRef

; 950  : 
; 951  : 	const D3DXVECTOR3& c_rv3SrcPos = v3SrcPos;
; 952  : 	const D3DXVECTOR3& c_rv3DstPos = rVictim.GetPosition();

  00019	8b ce		 mov	 ecx, esi
; File C:\Users\murat\Desktop\Siveps2-1-99-Project\source\client\extern\include\d3dx8math.inl

; 180  :     x = fx;

  0001b	f3 0f 10 00	 movss	 xmm0, DWORD PTR [eax]
  0001f	f3 0f 11 45 ec	 movss	 DWORD PTR tv254[ebp], xmm0
; File C:\Users\murat\Desktop\Siveps2-1-99-Project\source\client\Client\GameLib\ActorInstanceBattle.cpp

; 949  : 	D3DXVECTOR3 v3SrcPos(c_rkPPosAtk.x, -c_rkPPosAtk.y, c_rkPPosAtk.z);

  00024	f3 0f 10 40 04	 movss	 xmm0, DWORD PTR [eax+4]
  00029	f3 0f 11 45 e8	 movss	 DWORD PTR tv248[ebp], xmm0

; 950  : 
; 951  : 	const D3DXVECTOR3& c_rv3SrcPos = v3SrcPos;
; 952  : 	const D3DXVECTOR3& c_rv3DstPos = rVictim.GetPosition();

  0002e	e8 00 00 00 00	 call	 ?GetPosition@CGraphicObjectInstance@@QBEABUD3DXVECTOR3@@XZ ; CGraphicObjectInstance::GetPosition
  00033	f3 0f 10 4d e8	 movss	 xmm1, DWORD PTR tv248[ebp]
  00038	0f 57 0d 00 00
	00 00		 xorps	 xmm1, DWORD PTR __xmm@80000000800000008000000080000000

; 953  : 
; 954  : 	D3DXVECTOR3 v3Direction;
; 955  : 	v3Direction.x = c_rv3DstPos.x - c_rv3SrcPos.x;

  0003f	f3 0f 10 00	 movss	 xmm0, DWORD PTR [eax]
  00043	f3 0f 5c 45 ec	 subss	 xmm0, DWORD PTR tv254[ebp]
  00048	f3 0f 11 45 f0	 movss	 DWORD PTR _v3Direction$[ebp], xmm0

; 956  : 	v3Direction.y = c_rv3DstPos.y - c_rv3SrcPos.y;

  0004d	f3 0f 10 40 04	 movss	 xmm0, DWORD PTR [eax+4]

; 957  : 	v3Direction.z = 0.0f;
; 958  : 	D3DXVec3Normalize(&v3Direction, &v3Direction);

  00052	8d 45 f0	 lea	 eax, DWORD PTR _v3Direction$[ebp]
  00055	f3 0f 5c c1	 subss	 xmm0, xmm1
  00059	c7 45 f8 00 00
	00 00		 mov	 DWORD PTR _v3Direction$[ebp+8], 0
  00060	50		 push	 eax
  00061	50		 push	 eax
  00062	f3 0f 11 45 f4	 movss	 DWORD PTR _v3Direction$[ebp+4], xmm0
  00067	e8 00 00 00 00	 call	 _D3DXVec3Normalize@8

; 959  : 
; 960  : 	rVictim.__SetFallingDirection(v3Direction.x, v3Direction.y);

  0006c	f3 0f 10 45 f4	 movss	 xmm0, DWORD PTR _v3Direction$[ebp+4]
  00071	83 ec 08	 sub	 esp, 8
  00074	8b ce		 mov	 ecx, esi
  00076	f3 0f 11 44 24
	04		 movss	 DWORD PTR [esp+4], xmm0
  0007c	f3 0f 10 45 f0	 movss	 xmm0, DWORD PTR _v3Direction$[ebp]
  00081	f3 0f 11 04 24	 movss	 DWORD PTR [esp], xmm0
  00086	e8 00 00 00 00	 call	 ?__SetFallingDirection@CActorInstance@@IAEXMM@Z ; CActorInstance::__SetFallingDirection

; 961  : }

  0008b	8b 4d fc	 mov	 ecx, DWORD PTR __$ArrayPad$[ebp]
  0008e	33 cd		 xor	 ecx, ebp
  00090	5e		 pop	 esi
  00091	e8 00 00 00 00	 call	 @__security_check_cookie@4
  00096	8b e5		 mov	 esp, ebp
  00098	5d		 pop	 ebp
  00099	c2 04 00	 ret	 4
?__PushCircle@CActorInstance@@IAEXAAV1@@Z ENDP		; CActorInstance::__PushCircle
_TEXT	ENDS
; Function compile flags: /Ogtp
; File C:\Users\murat\Desktop\Siveps2-1-99-Project\source\client\Client\GameLib\ActorInstanceBattle.cpp
; File C:\Program Files (x86)\Windows Kits\10\Include\10.0.19041.0\ucrt\corecrt_math.h
; File C:\Users\murat\Desktop\Siveps2-1-99-Project\source\client\Client\GameLib\ActorInstanceBattle.cpp
; File C:\Program Files (x86)\Windows Kits\10\Include\10.0.19041.0\ucrt\corecrt_math.h
; File C:\Users\murat\Desktop\Siveps2-1-99-Project\source\client\Client\GameLib\ActorInstanceBattle.cpp
;	COMDAT ?__PushDirect@CActorInstance@@IAEXAAV1@@Z
_TEXT	SEGMENT
tv171 = -12						; size = 8
_v3Direction$$sroa$90$1$ = -4				; size = 4
_rVictim$ = 8						; size = 4
?__PushDirect@CActorInstance@@IAEXAAV1@@Z PROC		; CActorInstance::__PushDirect, COMDAT
; _this$ = ecx

; 964  : {

  00000	55		 push	 ebp
  00001	8b ec		 mov	 ebp, esp
  00003	83 ec 0c	 sub	 esp, 12			; 0000000cH

; 965  : 	D3DXVECTOR3 v3Direction;
; 966  : 	v3Direction.x = cosf(D3DXToRadian(m_fcurRotation + 270.0f));

  00006	f3 0f 10 81 a0
	04 00 00	 movss	 xmm0, DWORD PTR [ecx+1184]
  0000e	f3 0f 58 05 00
	00 00 00	 addss	 xmm0, DWORD PTR __real@43870000
  00016	f3 0f 59 05 00
	00 00 00	 mulss	 xmm0, DWORD PTR __real@3c8efa35
; File C:\Program Files (x86)\Windows Kits\10\Include\10.0.19041.0\ucrt\corecrt_math.h

; 647  :             return (float)cos(_X);

  0001e	0f 5a c0	 cvtps2pd xmm0, xmm0
  00021	f2 0f 11 45 f4	 movsd	 QWORD PTR tv171[ebp], xmm0
  00026	e8 00 00 00 00	 call	 __libm_sse2_cos_precise
  0002b	f2 0f 5a c0	 cvtsd2ss xmm0, xmm0
  0002f	f3 0f 11 45 fc	 movss	 DWORD PTR _v3Direction$$sroa$90$1$[ebp], xmm0

; 748  :             return (float)sin(_X);

  00034	f2 0f 10 45 f4	 movsd	 xmm0, QWORD PTR tv171[ebp]
  00039	e8 00 00 00 00	 call	 __libm_sse2_sin_precise
; File C:\Users\murat\Desktop\Siveps2-1-99-Project\source\client\Client\GameLib\ActorInstanceBattle.cpp

; 970  : 	rVictim.__SetFallingDirection(v3Direction.x, v3Direction.y);

  0003e	8b 4d 08	 mov	 ecx, DWORD PTR _rVictim$[ebp]
  00041	83 ec 08	 sub	 esp, 8
; File C:\Program Files (x86)\Windows Kits\10\Include\10.0.19041.0\ucrt\corecrt_math.h

; 748  :             return (float)sin(_X);

  00044	f2 0f 5a c0	 cvtsd2ss xmm0, xmm0
; File C:\Users\murat\Desktop\Siveps2-1-99-Project\source\client\Client\GameLib\ActorInstanceBattle.cpp

; 970  : 	rVictim.__SetFallingDirection(v3Direction.x, v3Direction.y);

  00048	f3 0f 11 44 24
	04		 movss	 DWORD PTR [esp+4], xmm0
  0004e	f3 0f 10 45 fc	 movss	 xmm0, DWORD PTR _v3Direction$$sroa$90$1$[ebp]
  00053	f3 0f 11 04 24	 movss	 DWORD PTR [esp], xmm0
  00058	e8 00 00 00 00	 call	 ?__SetFallingDirection@CActorInstance@@IAEXMM@Z ; CActorInstance::__SetFallingDirection

; 971  : }

  0005d	8b e5		 mov	 esp, ebp
  0005f	5d		 pop	 ebp
  00060	c2 04 00	 ret	 4
?__PushDirect@CActorInstance@@IAEXAAV1@@Z ENDP		; CActorInstance::__PushDirect
_TEXT	ENDS
; Function compile flags: /Ogtp
; File C:\Users\murat\Desktop\Siveps2-1-99-Project\source\client\Client\GameLib\ActorInstanceBattle.cpp
; File C:\Program Files (x86)\Windows Kits\10\Include\10.0.19041.0\ucrt\corecrt_math.h
; File C:\Users\murat\Desktop\Siveps2-1-99-Project\source\client\Client\GameLib\ActorInstanceBattle.cpp
; File C:\Program Files (x86)\Windows Kits\10\Include\10.0.19041.0\ucrt\corecrt_math.h
; File C:\Users\murat\Desktop\Siveps2-1-99-Project\source\client\extern\include\d3dx8math.inl
; File C:\Program Files (x86)\Windows Kits\10\Include\10.0.19041.0\ucrt\corecrt_math.h
; File C:\Users\murat\Desktop\Siveps2-1-99-Project\source\client\extern\include\d3dx8math.inl
; File C:\Program Files (x86)\Windows Kits\10\Include\10.0.19041.0\ucrt\corecrt_math.h
; File C:\Users\murat\Desktop\Siveps2-1-99-Project\source\client\extern\include\d3dx8math.inl
; File C:\Program Files (x86)\Windows Kits\10\Include\10.0.19041.0\ucrt\corecrt_math.h
; File C:\Users\murat\Desktop\Siveps2-1-99-Project\source\client\Client\GameLib\ActorInstanceBattle.cpp
; File C:\Users\murat\Desktop\Siveps2-1-99-Project\source\client\extern\include\d3dx8math.inl
; File C:\Users\murat\Desktop\Siveps2-1-99-Project\source\client\Client\GameLib\ActorInstanceBattle.cpp
; File C:\Users\murat\Desktop\Siveps2-1-99-Project\source\client\extern\include\d3dx8math.inl
; File C:\Users\murat\Desktop\Siveps2-1-99-Project\source\client\Client\GameLib\ActorInstanceBattle.cpp
; File C:\Users\murat\Desktop\Siveps2-1-99-Project\source\client\extern\include\d3dx8math.inl
; File C:\Users\murat\Desktop\Siveps2-1-99-Project\source\client\Client\GameLib\ActorInstanceBattle.cpp
; File C:\Users\murat\Desktop\Siveps2-1-99-Project\source\client\extern\include\d3dx8math.inl
; File C:\Users\murat\Desktop\Siveps2-1-99-Project\source\client\Client\GameLib\ActorInstanceBattle.cpp
;	COMDAT ?__HitGreate@CActorInstance@@IAEXAAV1@@Z
_TEXT	SEGMENT
_v2Normal$ = -20					; size = 8
_v2VictimNormal$ = -12					; size = 8
_fVictimRotRad$ = -4					; size = 4
_fScalar$1$ = 8						; size = 4
_fRotRad$ = 8						; size = 4
_rVictim$ = 8						; size = 4
?__HitGreate@CActorInstance@@IAEXAAV1@@Z PROC		; CActorInstance::__HitGreate, COMDAT
; _this$ = ecx

; 846  : {

  00000	55		 push	 ebp
  00001	8b ec		 mov	 ebp, esp
  00003	83 ec 14	 sub	 esp, 20			; 00000014H
  00006	56		 push	 esi

; 847  : 	// DISABLE_KNOCKDOWN_ATTACK
; 848  : 	if (rVictim.IsKnockDown())

  00007	8b 75 08	 mov	 esi, DWORD PTR _rVictim$[ebp]
  0000a	57		 push	 edi
  0000b	8b f9		 mov	 edi, ecx
  0000d	8b ce		 mov	 ecx, esi
  0000f	e8 00 00 00 00	 call	 ?IsKnockDown@CActorInstance@@QAEHXZ ; CActorInstance::IsKnockDown
  00014	85 c0		 test	 eax, eax
  00016	0f 85 c8 01 00
	00		 jne	 $LN14@HitGreate

; 849  : 		return;
; 850  : 	if (rVictim.__IsStandUpMotion())

  0001c	8b ce		 mov	 ecx, esi
  0001e	e8 00 00 00 00	 call	 ?__IsStandUpMotion@CActorInstance@@IAE_NXZ ; CActorInstance::__IsStandUpMotion
  00023	84 c0		 test	 al, al
  00025	0f 85 b9 01 00
	00		 jne	 $LN14@HitGreate

; 851  : 		return;
; 852  : 	// END_OF_DISABLE_KNOCKDOWN_ATTACK
; 853  : 
; 854  : 	float fRotRad = D3DXToRadian(GetRotation());

  0002b	8b cf		 mov	 ecx, edi
  0002d	e8 00 00 00 00	 call	 ?GetRotation@CActorInstance@@QAEMXZ ; CActorInstance::GetRotation
  00032	d8 0d 00 00 00
	00		 fmul	 DWORD PTR __real@3c8efa35

; 855  : 	float fVictimRotRad = D3DXToRadian(rVictim.GetRotation());

  00038	8b ce		 mov	 ecx, esi
  0003a	d9 5d 08	 fstp	 DWORD PTR _fRotRad$[ebp]
  0003d	e8 00 00 00 00	 call	 ?GetRotation@CActorInstance@@QAEMXZ ; CActorInstance::GetRotation
  00042	f3 0f 10 45 08	 movss	 xmm0, DWORD PTR _fRotRad$[ebp]
  00047	d8 0d 00 00 00
	00		 fmul	 DWORD PTR __real@3c8efa35
; File C:\Program Files (x86)\Windows Kits\10\Include\10.0.19041.0\ucrt\corecrt_math.h

; 748  :             return (float)sin(_X);

  0004d	0f 5a c0	 cvtps2pd xmm0, xmm0
; File C:\Users\murat\Desktop\Siveps2-1-99-Project\source\client\Client\GameLib\ActorInstanceBattle.cpp

; 855  : 	float fVictimRotRad = D3DXToRadian(rVictim.GetRotation());

  00050	d9 5d fc	 fstp	 DWORD PTR _fVictimRotRad$[ebp]
; File C:\Program Files (x86)\Windows Kits\10\Include\10.0.19041.0\ucrt\corecrt_math.h

; 748  :             return (float)sin(_X);

  00053	e8 00 00 00 00	 call	 __libm_sse2_sin_precise
  00058	0f 57 c9	 xorps	 xmm1, xmm1
  0005b	f2 0f 5a c8	 cvtsd2ss xmm1, xmm0
  0005f	f3 0f 10 45 08	 movss	 xmm0, DWORD PTR _fRotRad$[ebp]

; 647  :             return (float)cos(_X);

  00064	0f 5a c0	 cvtps2pd xmm0, xmm0
; File C:\Users\murat\Desktop\Siveps2-1-99-Project\source\client\extern\include\d3dx8math.inl

; 41   :     x = fx;

  00067	f3 0f 11 4d ec	 movss	 DWORD PTR _v2Normal$[ebp], xmm1
; File C:\Program Files (x86)\Windows Kits\10\Include\10.0.19041.0\ucrt\corecrt_math.h

; 647  :             return (float)cos(_X);

  0006c	e8 00 00 00 00	 call	 __libm_sse2_cos_precise
  00071	f2 0f 5a c0	 cvtsd2ss xmm0, xmm0
; File C:\Users\murat\Desktop\Siveps2-1-99-Project\source\client\extern\include\d3dx8math.inl

; 42   :     y = fy;

  00075	f3 0f 11 45 f0	 movss	 DWORD PTR _v2Normal$[ebp+4], xmm0
  0007a	f3 0f 10 45 fc	 movss	 xmm0, DWORD PTR _fVictimRotRad$[ebp]
; File C:\Program Files (x86)\Windows Kits\10\Include\10.0.19041.0\ucrt\corecrt_math.h

; 748  :             return (float)sin(_X);

  0007f	0f 5a c0	 cvtps2pd xmm0, xmm0
  00082	e8 00 00 00 00	 call	 __libm_sse2_sin_precise
  00087	0f 57 c9	 xorps	 xmm1, xmm1
  0008a	f2 0f 5a c8	 cvtsd2ss xmm1, xmm0
  0008e	f3 0f 10 45 fc	 movss	 xmm0, DWORD PTR _fVictimRotRad$[ebp]

; 647  :             return (float)cos(_X);

  00093	0f 5a c0	 cvtps2pd xmm0, xmm0
; File C:\Users\murat\Desktop\Siveps2-1-99-Project\source\client\extern\include\d3dx8math.inl

; 41   :     x = fx;

  00096	f3 0f 11 4d f4	 movss	 DWORD PTR _v2VictimNormal$[ebp], xmm1
; File C:\Program Files (x86)\Windows Kits\10\Include\10.0.19041.0\ucrt\corecrt_math.h

; 647  :             return (float)cos(_X);

  0009b	e8 00 00 00 00	 call	 __libm_sse2_cos_precise
  000a0	f2 0f 5a c0	 cvtsd2ss xmm0, xmm0
; File C:\Users\murat\Desktop\Siveps2-1-99-Project\source\client\Client\GameLib\ActorInstanceBattle.cpp

; 860  : 	D3DXVec2Normalize(&v2Normal, &v2Normal);

  000a4	8d 45 ec	 lea	 eax, DWORD PTR _v2Normal$[ebp]
  000a7	50		 push	 eax
  000a8	50		 push	 eax
; File C:\Users\murat\Desktop\Siveps2-1-99-Project\source\client\extern\include\d3dx8math.inl

; 42   :     y = fy;

  000a9	f3 0f 11 45 f8	 movss	 DWORD PTR _v2VictimNormal$[ebp+4], xmm0
; File C:\Users\murat\Desktop\Siveps2-1-99-Project\source\client\Client\GameLib\ActorInstanceBattle.cpp

; 860  : 	D3DXVec2Normalize(&v2Normal, &v2Normal);

  000ae	e8 00 00 00 00	 call	 _D3DXVec2Normalize@8

; 861  : 	D3DXVec2Normalize(&v2VictimNormal, &v2VictimNormal);

  000b3	8d 45 f4	 lea	 eax, DWORD PTR _v2VictimNormal$[ebp]
  000b6	50		 push	 eax
  000b7	50		 push	 eax
  000b8	e8 00 00 00 00	 call	 _D3DXVec2Normalize@8
; File C:\Users\murat\Desktop\Siveps2-1-99-Project\source\client\extern\include\d3dx8math.inl

; 1132 :     return pV1->x * pV2->x + pV1->y * pV2->y;

  000bd	f3 0f 10 4d f8	 movss	 xmm1, DWORD PTR _v2VictimNormal$[ebp+4]
; File C:\Users\murat\Desktop\Siveps2-1-99-Project\source\client\Client\GameLib\ActorInstanceBattle.cpp

; 865  : 	rVictim.__Shake(100);

  000c2	8b ce		 mov	 ecx, esi
; File C:\Users\murat\Desktop\Siveps2-1-99-Project\source\client\extern\include\d3dx8math.inl

; 1132 :     return pV1->x * pV2->x + pV1->y * pV2->y;

  000c4	f3 0f 10 45 f4	 movss	 xmm0, DWORD PTR _v2VictimNormal$[ebp]
  000c9	f3 0f 59 4d f0	 mulss	 xmm1, DWORD PTR _v2Normal$[ebp+4]
; File C:\Users\murat\Desktop\Siveps2-1-99-Project\source\client\Client\GameLib\ActorInstanceBattle.cpp

; 865  : 	rVictim.__Shake(100);

  000ce	6a 64		 push	 100			; 00000064H
; File C:\Users\murat\Desktop\Siveps2-1-99-Project\source\client\extern\include\d3dx8math.inl

; 1132 :     return pV1->x * pV2->x + pV1->y * pV2->y;

  000d0	f3 0f 59 45 ec	 mulss	 xmm0, DWORD PTR _v2Normal$[ebp]
  000d5	f3 0f 58 c8	 addss	 xmm1, xmm0
  000d9	f3 0f 11 4d 08	 movss	 DWORD PTR _fScalar$1$[ebp], xmm1
; File C:\Users\murat\Desktop\Siveps2-1-99-Project\source\client\Client\GameLib\ActorInstanceBattle.cpp

; 865  : 	rVictim.__Shake(100);

  000de	e8 00 00 00 00	 call	 ?__Shake@CActorInstance@@AAEXK@Z ; CActorInstance::__Shake

; 866  : 
; 867  : 	if (rVictim.IsUsingSkill())

  000e3	8b ce		 mov	 ecx, esi
  000e5	e8 00 00 00 00	 call	 ?IsUsingSkill@CActorInstance@@QAEHXZ ; CActorInstance::IsUsingSkill
  000ea	85 c0		 test	 eax, eax
  000ec	0f 85 f2 00 00
	00		 jne	 $LN14@HitGreate

; 868  : 		return;
; 869  : 
; 870  : 	if (rVictim.IsStun())

  000f2	8b ce		 mov	 ecx, esi
  000f4	e8 00 00 00 00	 call	 ?IsStun@CActorInstance@@QAEHXZ ; CActorInstance::IsStun
  000f9	0f 57 c0	 xorps	 xmm0, xmm0
  000fc	85 c0		 test	 eax, eax
  000fe	74 52		 je	 SHORT $LN5@HitGreate

; 871  : 	{
; 872  : 		if (fScalar < 0.0f)

  00100	0f 2f 45 08	 comiss	 xmm0, DWORD PTR _fScalar$1$[ebp]
  00104	77 1f		 ja	 SHORT $LN39@HitGreate

; 873  : 			rVictim.InterceptOnceMotion(CRaceMotionData::NAME_DAMAGE_FLYING);
; 874  : 		else
; 875  : 		{
; 876  : 			if (!rVictim.InterceptOnceMotion(CRaceMotionData::NAME_DAMAGE_FLYING_BACK))

  00106	51		 push	 ecx
  00107	c7 04 24 00 00
	80 3f		 mov	 DWORD PTR [esp], 1065353216 ; 3f800000H
  0010e	6a 00		 push	 0
  00110	51		 push	 ecx
  00111	c7 04 24 cd cc
	cc 3d		 mov	 DWORD PTR [esp], 1036831949 ; 3dcccccdH
  00118	8b ce		 mov	 ecx, esi
  0011a	6a 09		 push	 9
  0011c	e8 00 00 00 00	 call	 ?InterceptOnceMotion@CActorInstance@@QAE_NKMIM@Z ; CActorInstance::InterceptOnceMotion
  00121	84 c0		 test	 al, al
  00123	75 1b		 jne	 SHORT $LN9@HitGreate
$LN39@HitGreate:

; 877  : 				rVictim.InterceptOnceMotion(CRaceMotionData::NAME_DAMAGE_FLYING);

  00125	51		 push	 ecx
  00126	c7 04 24 00 00
	80 3f		 mov	 DWORD PTR [esp], 1065353216 ; 3f800000H
  0012d	6a 00		 push	 0
  0012f	51		 push	 ecx
  00130	c7 04 24 cd cc
	cc 3d		 mov	 DWORD PTR [esp], 1036831949 ; 3dcccccdH
  00137	8b ce		 mov	 ecx, esi
  00139	6a 06		 push	 6
  0013b	e8 00 00 00 00	 call	 ?InterceptOnceMotion@CActorInstance@@QAE_NKMIM@Z ; CActorInstance::InterceptOnceMotion
$LN9@HitGreate:

; 878  : 		}
; 879  : 
; 880  : 		rVictim.m_isRealDead=true;

  00140	5f		 pop	 edi
  00141	c7 86 44 04 00
	00 01 00 00 00	 mov	 DWORD PTR [esi+1092], 1

; 905  : 				rVictim.PushLoopMotion(CRaceMotionData::NAME_WAIT);
; 906  : 			}
; 907  : 		}
; 908  : 	}
; 909  : }

  0014b	5e		 pop	 esi
  0014c	8b e5		 mov	 esp, ebp
  0014e	5d		 pop	 ebp
  0014f	c2 04 00	 ret	 4
$LN5@HitGreate:

; 881  : 	}
; 882  : 	else
; 883  : 	{
; 884  : 		if (fScalar < 0.0f)

  00152	0f 2f 45 08	 comiss	 xmm0, DWORD PTR _fScalar$1$[ebp]
  00156	51		 push	 ecx
  00157	c7 04 24 00 00
	80 3f		 mov	 DWORD PTR [esp], 1065353216 ; 3f800000H
  0015e	6a 00		 push	 0
  00160	51		 push	 ecx
  00161	c7 04 24 cd cc
	cc 3d		 mov	 DWORD PTR [esp], 1036831949 ; 3dcccccdH
  00168	8b ce		 mov	 ecx, esi
  0016a	76 21		 jbe	 SHORT $LN10@HitGreate
$LN42@HitGreate:

; 905  : 				rVictim.PushLoopMotion(CRaceMotionData::NAME_WAIT);
; 906  : 			}
; 907  : 		}
; 908  : 	}
; 909  : }

  0016c	6a 06		 push	 6
  0016e	e8 00 00 00 00	 call	 ?InterceptOnceMotion@CActorInstance@@QAE_NKMIM@Z ; CActorInstance::InterceptOnceMotion
  00173	84 c0		 test	 al, al
  00175	74 6d		 je	 SHORT $LN14@HitGreate
  00177	83 ec 08	 sub	 esp, 8
  0017a	c7 44 24 04 00
	00 80 3f	 mov	 DWORD PTR [esp+4], 1065353216 ; 3f800000H
  00182	c7 04 24 cd cc
	cc 3d		 mov	 DWORD PTR [esp], 1036831949 ; 3dcccccdH
  00189	6a 07		 push	 7
  0018b	eb 35		 jmp	 SHORT $LN40@HitGreate
$LN10@HitGreate:

; 885  : 		{
; 886  : 			if (rVictim.InterceptOnceMotion(CRaceMotionData::NAME_DAMAGE_FLYING))
; 887  : 			{
; 888  : 				rVictim.PushOnceMotion(CRaceMotionData::NAME_STAND_UP);
; 889  : 				rVictim.PushLoopMotion(CRaceMotionData::NAME_WAIT);
; 890  : 			}
; 891  : 		}
; 892  : 		else
; 893  : 		{
; 894  : 			if (!rVictim.InterceptOnceMotion(CRaceMotionData::NAME_DAMAGE_FLYING_BACK))

  0018d	6a 09		 push	 9
  0018f	e8 00 00 00 00	 call	 ?InterceptOnceMotion@CActorInstance@@QAE_NKMIM@Z ; CActorInstance::InterceptOnceMotion
  00194	84 c0		 test	 al, al
  00196	75 16		 jne	 SHORT $LN13@HitGreate

; 895  : 			{
; 896  : 				if (rVictim.InterceptOnceMotion(CRaceMotionData::NAME_DAMAGE_FLYING))

  00198	51		 push	 ecx
  00199	c7 04 24 00 00
	80 3f		 mov	 DWORD PTR [esp], 1065353216 ; 3f800000H
  001a0	6a 00		 push	 0
  001a2	51		 push	 ecx
  001a3	c7 04 24 cd cc
	cc 3d		 mov	 DWORD PTR [esp], 1036831949 ; 3dcccccdH
  001aa	8b ce		 mov	 ecx, esi

; 897  : 				{
; 898  : 					rVictim.PushOnceMotion(CRaceMotionData::NAME_STAND_UP);
; 899  : 					rVictim.PushLoopMotion(CRaceMotionData::NAME_WAIT);
; 900  : 				}
; 901  : 			}

  001ac	eb be		 jmp	 SHORT $LN42@HitGreate
$LN13@HitGreate:

; 902  : 			else
; 903  : 			{
; 904  : 				rVictim.PushOnceMotion(CRaceMotionData::NAME_STAND_UP_BACK);

  001ae	83 ec 08	 sub	 esp, 8
  001b1	c7 44 24 04 00
	00 80 3f	 mov	 DWORD PTR [esp+4], 1065353216 ; 3f800000H
  001b9	c7 04 24 cd cc
	cc 3d		 mov	 DWORD PTR [esp], 1036831949 ; 3dcccccdH
  001c0	6a 0a		 push	 10			; 0000000aH
$LN40@HitGreate:

; 905  : 				rVictim.PushLoopMotion(CRaceMotionData::NAME_WAIT);
; 906  : 			}
; 907  : 		}
; 908  : 	}
; 909  : }

  001c2	8b ce		 mov	 ecx, esi
  001c4	e8 00 00 00 00	 call	 ?PushOnceMotion@CActorInstance@@QAE_NKMM@Z ; CActorInstance::PushOnceMotion
  001c9	83 ec 08	 sub	 esp, 8
  001cc	8b ce		 mov	 ecx, esi
  001ce	c7 44 24 04 00
	00 80 3f	 mov	 DWORD PTR [esp+4], 1065353216 ; 3f800000H
  001d6	c7 04 24 cd cc
	cc 3d		 mov	 DWORD PTR [esp], 1036831949 ; 3dcccccdH
  001dd	6a 01		 push	 1
  001df	e8 00 00 00 00	 call	 ?PushLoopMotion@CActorInstance@@QAE_NKMM@Z ; CActorInstance::PushLoopMotion
$LN14@HitGreate:
  001e4	5f		 pop	 edi
  001e5	5e		 pop	 esi
  001e6	8b e5		 mov	 esp, ebp
  001e8	5d		 pop	 ebp
  001e9	c2 04 00	 ret	 4
?__HitGreate@CActorInstance@@IAEXAAV1@@Z ENDP		; CActorInstance::__HitGreate
_TEXT	ENDS
; Function compile flags: /Ogtp
; File C:\Users\murat\Desktop\Siveps2-1-99-Project\source\client\Client\GameLib\ActorInstanceBattle.cpp
; File C:\Program Files (x86)\Windows Kits\10\Include\10.0.19041.0\ucrt\corecrt_math.h
; File C:\Users\murat\Desktop\Siveps2-1-99-Project\source\client\Client\GameLib\ActorInstanceBattle.cpp
; File C:\Program Files (x86)\Windows Kits\10\Include\10.0.19041.0\ucrt\corecrt_math.h
; File C:\Users\murat\Desktop\Siveps2-1-99-Project\source\client\extern\include\d3dx8math.inl
; File C:\Program Files (x86)\Windows Kits\10\Include\10.0.19041.0\ucrt\corecrt_math.h
; File C:\Users\murat\Desktop\Siveps2-1-99-Project\source\client\extern\include\d3dx8math.inl
; File C:\Program Files (x86)\Windows Kits\10\Include\10.0.19041.0\ucrt\corecrt_math.h
; File C:\Users\murat\Desktop\Siveps2-1-99-Project\source\client\extern\include\d3dx8math.inl
; File C:\Program Files (x86)\Windows Kits\10\Include\10.0.19041.0\ucrt\corecrt_math.h
; File C:\Users\murat\Desktop\Siveps2-1-99-Project\source\client\Client\GameLib\ActorInstanceBattle.cpp
; File C:\Users\murat\Desktop\Siveps2-1-99-Project\source\client\extern\include\d3dx8math.inl
; File C:\Users\murat\Desktop\Siveps2-1-99-Project\source\client\Client\GameLib\ActorInstanceBattle.cpp
; File C:\Users\murat\Desktop\Siveps2-1-99-Project\source\client\extern\include\d3dx8math.inl
; File C:\Users\murat\Desktop\Siveps2-1-99-Project\source\client\Client\GameLib\ActorInstanceBattle.cpp
; File C:\Users\murat\Desktop\Siveps2-1-99-Project\source\client\extern\include\d3dx8math.inl
; File C:\Users\murat\Desktop\Siveps2-1-99-Project\source\client\Client\GameLib\ActorInstanceBattle.cpp
; File C:\Users\murat\Desktop\Siveps2-1-99-Project\source\client\extern\include\d3dx8math.inl
; File C:\Users\murat\Desktop\Siveps2-1-99-Project\source\client\Client\GameLib\ActorInstanceBattle.cpp
;	COMDAT ?__HitGood@CActorInstance@@IAEXAAV1@@Z
_TEXT	SEGMENT
_v2Normal$1 = -20					; size = 8
_v2VictimNormal$2 = -12					; size = 8
_fVictimRotRad$3 = -4					; size = 4
_fRotRad$4 = 8						; size = 4
_rVictim$ = 8						; size = 4
?__HitGood@CActorInstance@@IAEXAAV1@@Z PROC		; CActorInstance::__HitGood, COMDAT
; _this$ = ecx

; 804  : {

  00000	55		 push	 ebp
  00001	8b ec		 mov	 ebp, esp
  00003	83 ec 14	 sub	 esp, 20			; 00000014H
  00006	56		 push	 esi

; 805  : 	if (rVictim.IsKnockDown())

  00007	8b 75 08	 mov	 esi, DWORD PTR _rVictim$[ebp]
  0000a	57		 push	 edi
  0000b	8b f9		 mov	 edi, ecx
  0000d	8b ce		 mov	 ecx, esi
  0000f	e8 00 00 00 00	 call	 ?IsKnockDown@CActorInstance@@QAEHXZ ; CActorInstance::IsKnockDown
  00014	85 c0		 test	 eax, eax
  00016	0f 85 3b 01 00
	00		 jne	 $LN11@HitGood

; 806  : 		return;
; 807  : 
; 808  : 	if (rVictim.IsStun())

  0001c	8b ce		 mov	 ecx, esi
  0001e	e8 00 00 00 00	 call	 ?IsStun@CActorInstance@@QAEHXZ ; CActorInstance::IsStun
  00023	8b ce		 mov	 ecx, esi
  00025	85 c0		 test	 eax, eax
  00027	74 0d		 je	 SHORT $LN3@HitGood

; 809  : 	{
; 810  : 		rVictim.Die();

  00029	e8 00 00 00 00	 call	 ?Die@CActorInstance@@QAEXXZ ; CActorInstance::Die
  0002e	5f		 pop	 edi

; 839  : 					rVictim.PushLoopMotion(CRaceMotionData::NAME_WAIT);
; 840  : 			}
; 841  : 		}
; 842  : 	}
; 843  : }

  0002f	5e		 pop	 esi
  00030	8b e5		 mov	 esp, ebp
  00032	5d		 pop	 ebp
  00033	c2 04 00	 ret	 4
$LN3@HitGood:

; 811  : 	}
; 812  : 	else
; 813  : 	{
; 814  : 		rVictim.__Shake(100);

  00036	6a 64		 push	 100			; 00000064H
  00038	e8 00 00 00 00	 call	 ?__Shake@CActorInstance@@AAEXK@Z ; CActorInstance::__Shake

; 815  : 
; 816  : 		if (!rVictim.isLock())

  0003d	8b ce		 mov	 ecx, esi
  0003f	e8 00 00 00 00	 call	 ?isLock@CActorInstance@@QAEHXZ ; CActorInstance::isLock
  00044	85 c0		 test	 eax, eax
  00046	0f 85 0b 01 00
	00		 jne	 $LN11@HitGood

; 817  : 		{
; 818  : 			float fRotRad = D3DXToRadian(GetRotation());

  0004c	8b cf		 mov	 ecx, edi
  0004e	e8 00 00 00 00	 call	 ?GetRotation@CActorInstance@@QAEMXZ ; CActorInstance::GetRotation
  00053	d8 0d 00 00 00
	00		 fmul	 DWORD PTR __real@3c8efa35

; 819  : 			float fVictimRotRad = D3DXToRadian(rVictim.GetRotation());

  00059	8b ce		 mov	 ecx, esi
  0005b	d9 5d 08	 fstp	 DWORD PTR _fRotRad$4[ebp]
  0005e	e8 00 00 00 00	 call	 ?GetRotation@CActorInstance@@QAEMXZ ; CActorInstance::GetRotation
  00063	f3 0f 10 45 08	 movss	 xmm0, DWORD PTR _fRotRad$4[ebp]
  00068	d8 0d 00 00 00
	00		 fmul	 DWORD PTR __real@3c8efa35
; File C:\Program Files (x86)\Windows Kits\10\Include\10.0.19041.0\ucrt\corecrt_math.h

; 748  :             return (float)sin(_X);

  0006e	0f 5a c0	 cvtps2pd xmm0, xmm0
; File C:\Users\murat\Desktop\Siveps2-1-99-Project\source\client\Client\GameLib\ActorInstanceBattle.cpp

; 819  : 			float fVictimRotRad = D3DXToRadian(rVictim.GetRotation());

  00071	d9 5d fc	 fstp	 DWORD PTR _fVictimRotRad$3[ebp]
; File C:\Program Files (x86)\Windows Kits\10\Include\10.0.19041.0\ucrt\corecrt_math.h

; 748  :             return (float)sin(_X);

  00074	e8 00 00 00 00	 call	 __libm_sse2_sin_precise
  00079	0f 57 c9	 xorps	 xmm1, xmm1
  0007c	f2 0f 5a c8	 cvtsd2ss xmm1, xmm0
  00080	f3 0f 10 45 08	 movss	 xmm0, DWORD PTR _fRotRad$4[ebp]

; 647  :             return (float)cos(_X);

  00085	0f 5a c0	 cvtps2pd xmm0, xmm0
; File C:\Users\murat\Desktop\Siveps2-1-99-Project\source\client\extern\include\d3dx8math.inl

; 41   :     x = fx;

  00088	f3 0f 11 4d ec	 movss	 DWORD PTR _v2Normal$1[ebp], xmm1
; File C:\Program Files (x86)\Windows Kits\10\Include\10.0.19041.0\ucrt\corecrt_math.h

; 647  :             return (float)cos(_X);

  0008d	e8 00 00 00 00	 call	 __libm_sse2_cos_precise
  00092	f2 0f 5a c0	 cvtsd2ss xmm0, xmm0
; File C:\Users\murat\Desktop\Siveps2-1-99-Project\source\client\extern\include\d3dx8math.inl

; 42   :     y = fy;

  00096	f3 0f 11 45 f0	 movss	 DWORD PTR _v2Normal$1[ebp+4], xmm0
  0009b	f3 0f 10 45 fc	 movss	 xmm0, DWORD PTR _fVictimRotRad$3[ebp]
; File C:\Program Files (x86)\Windows Kits\10\Include\10.0.19041.0\ucrt\corecrt_math.h

; 748  :             return (float)sin(_X);

  000a0	0f 5a c0	 cvtps2pd xmm0, xmm0
  000a3	e8 00 00 00 00	 call	 __libm_sse2_sin_precise
  000a8	0f 57 c9	 xorps	 xmm1, xmm1
  000ab	f2 0f 5a c8	 cvtsd2ss xmm1, xmm0
  000af	f3 0f 10 45 fc	 movss	 xmm0, DWORD PTR _fVictimRotRad$3[ebp]

; 647  :             return (float)cos(_X);

  000b4	0f 5a c0	 cvtps2pd xmm0, xmm0
; File C:\Users\murat\Desktop\Siveps2-1-99-Project\source\client\extern\include\d3dx8math.inl

; 41   :     x = fx;

  000b7	f3 0f 11 4d f4	 movss	 DWORD PTR _v2VictimNormal$2[ebp], xmm1
; File C:\Program Files (x86)\Windows Kits\10\Include\10.0.19041.0\ucrt\corecrt_math.h

; 647  :             return (float)cos(_X);

  000bc	e8 00 00 00 00	 call	 __libm_sse2_cos_precise
  000c1	f2 0f 5a c0	 cvtsd2ss xmm0, xmm0
; File C:\Users\murat\Desktop\Siveps2-1-99-Project\source\client\Client\GameLib\ActorInstanceBattle.cpp

; 824  : 			D3DXVec2Normalize(&v2Normal, &v2Normal);

  000c5	8d 45 ec	 lea	 eax, DWORD PTR _v2Normal$1[ebp]
  000c8	50		 push	 eax
  000c9	50		 push	 eax
; File C:\Users\murat\Desktop\Siveps2-1-99-Project\source\client\extern\include\d3dx8math.inl

; 42   :     y = fy;

  000ca	f3 0f 11 45 f8	 movss	 DWORD PTR _v2VictimNormal$2[ebp+4], xmm0
; File C:\Users\murat\Desktop\Siveps2-1-99-Project\source\client\Client\GameLib\ActorInstanceBattle.cpp

; 824  : 			D3DXVec2Normalize(&v2Normal, &v2Normal);

  000cf	e8 00 00 00 00	 call	 _D3DXVec2Normalize@8

; 825  : 			D3DXVec2Normalize(&v2VictimNormal, &v2VictimNormal);

  000d4	8d 45 f4	 lea	 eax, DWORD PTR _v2VictimNormal$2[ebp]
  000d7	50		 push	 eax
  000d8	50		 push	 eax
  000d9	e8 00 00 00 00	 call	 _D3DXVec2Normalize@8
; File C:\Users\murat\Desktop\Siveps2-1-99-Project\source\client\extern\include\d3dx8math.inl

; 1132 :     return pV1->x * pV2->x + pV1->y * pV2->y;

  000de	f3 0f 10 45 f4	 movss	 xmm0, DWORD PTR _v2VictimNormal$2[ebp]
  000e3	f3 0f 10 4d f8	 movss	 xmm1, DWORD PTR _v2VictimNormal$2[ebp+4]
  000e8	f3 0f 59 45 ec	 mulss	 xmm0, DWORD PTR _v2Normal$1[ebp]
; File C:\Users\murat\Desktop\Siveps2-1-99-Project\source\client\Client\GameLib\ActorInstanceBattle.cpp

; 829  : 			if (fScalar < 0.0f)

  000ed	51		 push	 ecx
; File C:\Users\murat\Desktop\Siveps2-1-99-Project\source\client\extern\include\d3dx8math.inl

; 1132 :     return pV1->x * pV2->x + pV1->y * pV2->y;

  000ee	f3 0f 59 4d f0	 mulss	 xmm1, DWORD PTR _v2Normal$1[ebp+4]
; File C:\Users\murat\Desktop\Siveps2-1-99-Project\source\client\Client\GameLib\ActorInstanceBattle.cpp

; 829  : 			if (fScalar < 0.0f)

  000f3	c7 04 24 00 00
	80 3f		 mov	 DWORD PTR [esp], 1065353216 ; 3f800000H
  000fa	6a 00		 push	 0
  000fc	51		 push	 ecx
; File C:\Users\murat\Desktop\Siveps2-1-99-Project\source\client\extern\include\d3dx8math.inl

; 1132 :     return pV1->x * pV2->x + pV1->y * pV2->y;

  000fd	f3 0f 58 c8	 addss	 xmm1, xmm0
; File C:\Users\murat\Desktop\Siveps2-1-99-Project\source\client\Client\GameLib\ActorInstanceBattle.cpp

; 829  : 			if (fScalar < 0.0f)

  00101	c7 04 24 cd cc
	cc 3d		 mov	 DWORD PTR [esp], 1036831949 ; 3dcccccdH
  00108	0f 57 c0	 xorps	 xmm0, xmm0
  0010b	8b ce		 mov	 ecx, esi
  0010d	0f 2f c1	 comiss	 xmm0, xmm1
  00110	77 1f		 ja	 SHORT $LN37@HitGood

; 830  : 			{
; 831  : 				if (rVictim.InterceptOnceMotion(CRaceMotionData::NAME_DAMAGE))
; 832  : 					rVictim.PushLoopMotion(CRaceMotionData::NAME_WAIT);
; 833  : 			}
; 834  : 			else
; 835  : 			{
; 836  : 				if (rVictim.InterceptOnceMotion(CRaceMotionData::NAME_DAMAGE_BACK))

  00112	6a 08		 push	 8
  00114	e8 00 00 00 00	 call	 ?InterceptOnceMotion@CActorInstance@@QAE_NKMIM@Z ; CActorInstance::InterceptOnceMotion
  00119	84 c0		 test	 al, al
  0011b	75 1f		 jne	 SHORT $LN35@HitGood

; 837  : 					rVictim.PushLoopMotion(CRaceMotionData::NAME_WAIT);
; 838  : 				else if (rVictim.InterceptOnceMotion(CRaceMotionData::NAME_DAMAGE))

  0011d	51		 push	 ecx
  0011e	c7 04 24 00 00
	80 3f		 mov	 DWORD PTR [esp], 1065353216 ; 3f800000H
  00125	6a 00		 push	 0
  00127	51		 push	 ecx
  00128	c7 04 24 cd cc
	cc 3d		 mov	 DWORD PTR [esp], 1036831949 ; 3dcccccdH
  0012f	8b ce		 mov	 ecx, esi
$LN37@HitGood:

; 839  : 					rVictim.PushLoopMotion(CRaceMotionData::NAME_WAIT);
; 840  : 			}
; 841  : 		}
; 842  : 	}
; 843  : }

  00131	6a 05		 push	 5
  00133	e8 00 00 00 00	 call	 ?InterceptOnceMotion@CActorInstance@@QAE_NKMIM@Z ; CActorInstance::InterceptOnceMotion
  00138	84 c0		 test	 al, al
  0013a	74 1b		 je	 SHORT $LN11@HitGood
$LN35@HitGood:
  0013c	83 ec 08	 sub	 esp, 8
  0013f	8b ce		 mov	 ecx, esi
  00141	c7 44 24 04 00
	00 80 3f	 mov	 DWORD PTR [esp+4], 1065353216 ; 3f800000H
  00149	c7 04 24 cd cc
	cc 3d		 mov	 DWORD PTR [esp], 1036831949 ; 3dcccccdH
  00150	6a 01		 push	 1
  00152	e8 00 00 00 00	 call	 ?PushLoopMotion@CActorInstance@@QAE_NKMM@Z ; CActorInstance::PushLoopMotion
$LN11@HitGood:
  00157	5f		 pop	 edi
  00158	5e		 pop	 esi
  00159	8b e5		 mov	 esp, ebp
  0015b	5d		 pop	 ebp
  0015c	c2 04 00	 ret	 4
?__HitGood@CActorInstance@@IAEXAAV1@@Z ENDP		; CActorInstance::__HitGood
_TEXT	ENDS
; Function compile flags: /Ogtp
; File C:\Users\murat\Desktop\Siveps2-1-99-Project\source\client\Client\GameLib\ActorInstanceBattle.cpp
;	COMDAT ?__HitStone@CActorInstance@@IAEXAAV1@@Z
_TEXT	SEGMENT
_rVictim$ = 8						; size = 4
?__HitStone@CActorInstance@@IAEXAAV1@@Z PROC		; CActorInstance::__HitStone, COMDAT
; _this$ = ecx

; 792  : {

  00000	55		 push	 ebp
  00001	8b ec		 mov	 ebp, esp
  00003	56		 push	 esi

; 793  : 	if (rVictim.IsStun())

  00004	8b 75 08	 mov	 esi, DWORD PTR _rVictim$[ebp]
  00007	8b ce		 mov	 ecx, esi
  00009	e8 00 00 00 00	 call	 ?IsStun@CActorInstance@@QAEHXZ ; CActorInstance::IsStun
  0000e	8b ce		 mov	 ecx, esi
  00010	85 c0		 test	 eax, eax
  00012	74 0a		 je	 SHORT $LN2@HitStone

; 794  : 	{
; 795  : 		rVictim.Die();

  00014	e8 00 00 00 00	 call	 ?Die@CActorInstance@@QAEXXZ ; CActorInstance::Die
  00019	5e		 pop	 esi

; 800  : 	}
; 801  : }

  0001a	5d		 pop	 ebp
  0001b	c2 04 00	 ret	 4
$LN2@HitStone:

; 796  : 	}
; 797  : 	else
; 798  : 	{
; 799  : 		rVictim.__Shake(100);

  0001e	6a 64		 push	 100			; 00000064H
  00020	e8 00 00 00 00	 call	 ?__Shake@CActorInstance@@AAEXK@Z ; CActorInstance::__Shake
  00025	5e		 pop	 esi

; 800  : 	}
; 801  : }

  00026	5d		 pop	 ebp
  00027	c2 04 00	 ret	 4
?__HitStone@CActorInstance@@IAEXAAV1@@Z ENDP		; CActorInstance::__HitStone
_TEXT	ENDS
; Function compile flags: /Ogtp
; File C:\Users\murat\Desktop\Siveps2-1-99-Project\source\client\Client\GameLib\ActorInstanceBattle.cpp
;	COMDAT ?__ProcessMotionAttackSuccess@CActorInstance@@IAEXKAAV1@@Z
_TEXT	SEGMENT
_c_pMotionData$ = -4					; size = 4
_dwMotionKey$ = 8					; size = 4
_rVictim$ = 12						; size = 4
?__ProcessMotionAttackSuccess@CActorInstance@@IAEXKAAV1@@Z PROC ; CActorInstance::__ProcessMotionAttackSuccess, COMDAT
; _this$ = ecx

; 531  : {

  00000	55		 push	 ebp
  00001	8b ec		 mov	 ebp, esp
  00003	51		 push	 ecx
  00004	57		 push	 edi
  00005	8b f9		 mov	 edi, ecx

; 532  : 	CRaceMotionData * c_pMotionData;
; 533  : 
; 534  : 	if (!m_pkCurRaceData->GetMotionDataPointer(dwMotionKey, &c_pMotionData))

  00007	8d 45 fc	 lea	 eax, DWORD PTR _c_pMotionData$[ebp]
  0000a	50		 push	 eax
  0000b	ff 75 08	 push	 DWORD PTR _dwMotionKey$[ebp]
  0000e	8b 8f 20 04 00
	00		 mov	 ecx, DWORD PTR [edi+1056]
  00014	e8 00 00 00 00	 call	 ?GetMotionDataPointer@CRaceData@@QAEHKPAPAVCRaceMotionData@@@Z ; CRaceData::GetMotionDataPointer
  00019	85 c0		 test	 eax, eax
  0001b	74 20		 je	 SHORT $LN1@ProcessMot

; 535  : 		return;
; 536  : 
; 537  : 	const D3DXVECTOR3& c_rv3VictimPos=rVictim.GetPositionVectorRef();

  0001d	8b 4d 0c	 mov	 ecx, DWORD PTR _rVictim$[ebp]
  00020	e8 00 00 00 00	 call	 ?GetPositionVectorRef@CActorInstance@@QAEABUD3DXVECTOR3@@XZ ; CActorInstance::GetPositionVectorRef

; 538  : 	__ProcessDataAttackSuccess(c_pMotionData->GetMotionAttackDataReference(), rVictim, c_rv3VictimPos);

  00025	8b 4d fc	 mov	 ecx, DWORD PTR _c_pMotionData$[ebp]
  00028	6a 01		 push	 1
  0002a	6a 00		 push	 0
  0002c	50		 push	 eax
  0002d	ff 75 0c	 push	 DWORD PTR _rVictim$[ebp]
  00030	e8 00 00 00 00	 call	 ?GetMotionAttackDataReference@CRaceMotionData@@QBEABUSMotionAttackData@NRaceData@@XZ ; CRaceMotionData::GetMotionAttackDataReference
  00035	50		 push	 eax
  00036	8b cf		 mov	 ecx, edi
  00038	e8 00 00 00 00	 call	 ?__ProcessDataAttackSuccess@CActorInstance@@IAEXABUSAttackData@NRaceData@@AAV1@ABUD3DXVECTOR3@@IH@Z ; CActorInstance::__ProcessDataAttackSuccess
$LN1@ProcessMot:
  0003d	5f		 pop	 edi

; 539  : }

  0003e	8b e5		 mov	 esp, ebp
  00040	5d		 pop	 ebp
  00041	c2 08 00	 ret	 8
?__ProcessMotionAttackSuccess@CActorInstance@@IAEXKAAV1@@Z ENDP ; CActorInstance::__ProcessMotionAttackSuccess
_TEXT	ENDS
; Function compile flags: /Ogtp
; File C:\Users\murat\Desktop\Siveps2-1-99-Project\source\client\Client\GameLib\ActorInstanceBattle.cpp
;	COMDAT ?__ProcessMotionEventAttackSuccess@CActorInstance@@IAEXKEAAV1@@Z
_TEXT	SEGMENT
_pMotionData$ = -4					; size = 4
_pMotionEventData$ = 8					; size = 4
_dwMotionKey$ = 8					; size = 4
_byEventIndex$ = 12					; size = 1
_rVictim$ = 16						; size = 4
?__ProcessMotionEventAttackSuccess@CActorInstance@@IAEXKEAAV1@@Z PROC ; CActorInstance::__ProcessMotionEventAttackSuccess, COMDAT
; _this$ = ecx

; 512  : {

  00000	55		 push	 ebp
  00001	8b ec		 mov	 ebp, esp
  00003	51		 push	 ecx
  00004	57		 push	 edi
  00005	8b f9		 mov	 edi, ecx

; 513  : 	CRaceMotionData * pMotionData;
; 514  : 
; 515  : 	if (!m_pkCurRaceData->GetMotionDataPointer(dwMotionKey, &pMotionData))

  00007	8d 45 fc	 lea	 eax, DWORD PTR _pMotionData$[ebp]
  0000a	50		 push	 eax
  0000b	ff 75 08	 push	 DWORD PTR _dwMotionKey$[ebp]
  0000e	8b 8f 20 04 00
	00		 mov	 ecx, DWORD PTR [edi+1056]
  00014	e8 00 00 00 00	 call	 ?GetMotionDataPointer@CRaceData@@QAEHKPAPAVCRaceMotionData@@@Z ; CRaceData::GetMotionDataPointer
  00019	85 c0		 test	 eax, eax
  0001b	74 41		 je	 SHORT $LN1@ProcessMot

; 516  : 		return;
; 517  : 
; 518  : 	if (byEventIndex >= pMotionData->GetMotionEventDataCount())

  0001d	8b 4d fc	 mov	 ecx, DWORD PTR _pMotionData$[ebp]
  00020	e8 00 00 00 00	 call	 ?GetMotionEventDataCount@CRaceMotionData@@QBEKXZ ; CRaceMotionData::GetMotionEventDataCount
  00025	8b 55 0c	 mov	 edx, DWORD PTR _byEventIndex$[ebp]
  00028	0f b6 ca	 movzx	 ecx, dl
  0002b	3b c8		 cmp	 ecx, eax
  0002d	73 2f		 jae	 SHORT $LN1@ProcessMot

; 519  : 		return;
; 520  : 
; 521  : 	const CRaceMotionData::TMotionAttackingEventData * pMotionEventData;
; 522  : 	if (!pMotionData->GetMotionAttackingEventDataPointer(byEventIndex, &pMotionEventData))

  0002f	8b 4d fc	 mov	 ecx, DWORD PTR _pMotionData$[ebp]
  00032	8d 45 08	 lea	 eax, DWORD PTR _pMotionEventData$[ebp]
  00035	50		 push	 eax
  00036	52		 push	 edx
  00037	e8 00 00 00 00	 call	 ?GetMotionAttackingEventDataPointer@CRaceMotionData@@QBEHEPAPBUSMotionEventDataAttack@NMotionEvent@@@Z ; CRaceMotionData::GetMotionAttackingEventDataPointer
  0003c	85 c0		 test	 eax, eax
  0003e	74 1e		 je	 SHORT $LN1@ProcessMot

; 523  : 		return;
; 524  : 
; 525  : 	const D3DXVECTOR3& c_rv3VictimPos=rVictim.GetPositionVectorRef();

  00040	8b 4d 10	 mov	 ecx, DWORD PTR _rVictim$[ebp]
  00043	e8 00 00 00 00	 call	 ?GetPositionVectorRef@CActorInstance@@QAEABUD3DXVECTOR3@@XZ ; CActorInstance::GetPositionVectorRef

; 526  : 	__ProcessDataAttackSuccess(pMotionEventData->AttackData, rVictim, c_rv3VictimPos);

  00048	6a 01		 push	 1
  0004a	6a 00		 push	 0
  0004c	50		 push	 eax
  0004d	8b 45 08	 mov	 eax, DWORD PTR _pMotionEventData$[ebp]
  00050	8b cf		 mov	 ecx, edi
  00052	ff 75 10	 push	 DWORD PTR _rVictim$[ebp]
  00055	83 c0 28	 add	 eax, 40			; 00000028H
  00058	50		 push	 eax
  00059	e8 00 00 00 00	 call	 ?__ProcessDataAttackSuccess@CActorInstance@@IAEXABUSAttackData@NRaceData@@AAV1@ABUD3DXVECTOR3@@IH@Z ; CActorInstance::__ProcessDataAttackSuccess
$LN1@ProcessMot:
  0005e	5f		 pop	 edi

; 527  : }

  0005f	8b e5		 mov	 esp, ebp
  00061	5d		 pop	 ebp
  00062	c2 0c 00	 ret	 12			; 0000000cH
?__ProcessMotionEventAttackSuccess@CActorInstance@@IAEXKEAAV1@@Z ENDP ; CActorInstance::__ProcessMotionEventAttackSuccess
_TEXT	ENDS
; Function compile flags: /Ogtp
; File C:\Users\murat\Desktop\Siveps2-1-99-Project\source\client\Client\GameLib\ActorInstanceBattle.cpp
; File C:\Users\murat\Desktop\Siveps2-1-99-Project\source\client\extern\include\d3dx8math.inl
; File C:\Users\murat\Desktop\Siveps2-1-99-Project\source\client\Client\GameLib\ActorInstanceBattle.cpp
; File C:\Users\murat\Desktop\Siveps2-1-99-Project\source\client\extern\include\d3dx8math.inl
; File C:\Users\murat\Desktop\Siveps2-1-99-Project\source\client\Client\GameLib\ActorInstanceBattle.cpp
; File C:\Program Files (x86)\Windows Kits\10\Include\10.0.19041.0\ucrt\corecrt_math.h
; File C:\Users\murat\Desktop\Siveps2-1-99-Project\source\client\Client\GameLib\ActorInstanceBattle.cpp
; File C:\Program Files (x86)\Windows Kits\10\Include\10.0.19041.0\ucrt\corecrt_math.h
; File C:\Users\murat\Desktop\Siveps2-1-99-Project\source\client\Client\GameLib\ActorInstanceBattle.cpp
; File C:\Program Files (x86)\Microsoft Visual Studio\2019\Professional\VC\Tools\MSVC\14.29.30133\include\cmath
; File C:\Users\murat\Desktop\Siveps2-1-99-Project\source\client\Client\GameLib\ActorInstanceBattle.cpp
; File C:\Users\murat\Desktop\Siveps2-1-99-Project\source\client\extern\include\d3dx8math.inl
; File C:\Users\murat\Desktop\Siveps2-1-99-Project\source\client\Client\GameLib\ActorInstanceBattle.cpp
; File C:\Users\murat\Desktop\Siveps2-1-99-Project\source\client\extern\include\d3dx8math.inl
; File C:\Users\murat\Desktop\Siveps2-1-99-Project\source\client\Client\GameLib\ActorInstanceBattle.cpp
; File C:\Users\murat\Desktop\Siveps2-1-99-Project\source\client\extern\include\d3dx8math.inl
; File C:\Users\murat\Desktop\Siveps2-1-99-Project\source\client\Client\GameLib\ActorInstanceBattle.cpp
; File C:\Users\murat\Desktop\Siveps2-1-99-Project\source\client\extern\include\d3dx8math.inl
; File C:\Users\murat\Desktop\Siveps2-1-99-Project\source\client\Client\GameLib\ActorInstanceBattle.cpp
; File C:\Users\murat\Desktop\Siveps2-1-99-Project\source\client\extern\include\d3dx8math.inl
; File C:\Users\murat\Desktop\Siveps2-1-99-Project\source\client\Client\GameLib\ActorInstanceBattle.cpp
; File C:\Users\murat\Desktop\Siveps2-1-99-Project\source\client\extern\include\d3dx8math.inl
; File C:\Users\murat\Desktop\Siveps2-1-99-Project\source\client\Client\GameLib\ActorInstanceBattle.cpp
; File C:\Users\murat\Desktop\Siveps2-1-99-Project\source\client\extern\include\d3dx8math.inl
; File C:\Users\murat\Desktop\Siveps2-1-99-Project\source\client\Client\GameLib\ActorInstanceBattle.cpp
; File C:\Users\murat\Desktop\Siveps2-1-99-Project\source\client\extern\include\d3dx8math.inl
; File C:\Users\murat\Desktop\Siveps2-1-99-Project\source\client\Client\GameLib\ActorInstanceBattle.cpp
; File C:\Users\murat\Desktop\Siveps2-1-99-Project\source\client\extern\include\d3dx8math.inl
; File C:\Users\murat\Desktop\Siveps2-1-99-Project\source\client\Client\GameLib\ActorInstanceBattle.cpp
;	COMDAT ?__ProcessDataAttackSuccess@CActorInstance@@IAEXABUSAttackData@NRaceData@@AAV1@ABUD3DXVECTOR3@@IH@Z
_TEXT	SEGMENT
_c_rv3Position$GSCopy$1$ = -56				; size = 4
_v3Pos$1$ = -56						; size = 4
$T1 = -52						; size = 12
$T2 = -40						; size = 12
$T3 = -40						; size = 12
_vec3Effect$ = -28					; size = 12
_vec3Delta$4 = -16					; size = 12
tv631 = -12						; size = 8
tv628 = -12						; size = 8
$T5 = -8						; size = 4
__$ArrayPad$ = -4					; size = 4
_c_rAttackData$ = 8					; size = 4
_rVictim$ = 12						; size = 4
_c_rv3Position$ = 16					; size = 4
_uiSkill$ = 20						; size = 4
_isSendPacket$ = 24					; size = 4
?__ProcessDataAttackSuccess@CActorInstance@@IAEXABUSAttackData@NRaceData@@AAV1@ABUD3DXVECTOR3@@IH@Z PROC ; CActorInstance::__ProcessDataAttackSuccess, COMDAT
; _this$ = ecx

; 629  : {

  00000	55		 push	 ebp
  00001	8b ec		 mov	 ebp, esp
  00003	83 ec 38	 sub	 esp, 56			; 00000038H
  00006	a1 00 00 00 00	 mov	 eax, DWORD PTR ___security_cookie
  0000b	33 c5		 xor	 eax, ebp
  0000d	89 45 fc	 mov	 DWORD PTR __$ArrayPad$[ebp], eax
  00010	8b 45 10	 mov	 eax, DWORD PTR _c_rv3Position$[ebp]
  00013	53		 push	 ebx
  00014	8b 5d 08	 mov	 ebx, DWORD PTR _c_rAttackData$[ebp]
  00017	56		 push	 esi
  00018	8b 75 0c	 mov	 esi, DWORD PTR _rVictim$[ebp]
  0001b	57		 push	 edi

; 630  : 	if (NRaceData::HIT_TYPE_NONE == c_rAttackData.iHittingType)

  0001c	83 7b 04 00	 cmp	 DWORD PTR [ebx+4], 0
  00020	8b f9		 mov	 edi, ecx
  00022	89 45 c8	 mov	 DWORD PTR _c_rv3Position$GSCopy$1$[ebp], eax
  00025	0f 84 db 02 00
	00		 je	 $LN1@ProcessDat

; 631  : 		return;
; 632  : 
; 633  : 	InsertDelay(c_rAttackData.fStiffenTime);

  0002b	f3 0f 10 43 10	 movss	 xmm0, DWORD PTR [ebx+16]
  00030	51		 push	 ecx
  00031	f3 0f 11 04 24	 movss	 DWORD PTR [esp], xmm0
  00036	e8 00 00 00 00	 call	 ?InsertDelay@CGraphicThingInstance@@QAEXM@Z ; CGraphicThingInstance::InsertDelay

; 634  : 
; 635  : 	if (__CanPushDestActor(rVictim) && c_rAttackData.fExternalForce > 0.0f)

  0003b	56		 push	 esi
  0003c	8b cf		 mov	 ecx, edi
  0003e	e8 00 00 00 00	 call	 ?__CanPushDestActor@CActorInstance@@IAE_NAAV1@@Z ; CActorInstance::__CanPushDestActor
  00043	0f 57 c9	 xorps	 xmm1, xmm1
  00046	84 c0		 test	 al, al
  00048	74 30		 je	 SHORT $LN3@ProcessDat
  0004a	f3 0f 10 43 0c	 movss	 xmm0, DWORD PTR [ebx+12]
  0004f	0f 2f c1	 comiss	 xmm0, xmm1
  00052	76 26		 jbe	 SHORT $LN3@ProcessDat

; 636  : 	{
; 637  : 		__PushCircle(rVictim);

  00054	56		 push	 esi
  00055	8b cf		 mov	 ecx, edi
  00057	e8 00 00 00 00	 call	 ?__PushCircle@CActorInstance@@IAEXAAV1@@Z ; CActorInstance::__PushCircle

; 638  : 
; 639  : 		// VICTIM_COLLISION_TEST
; 640  : 		const D3DXVECTOR3& kVictimPos = rVictim.GetPosition();

  0005c	8b ce		 mov	 ecx, esi
  0005e	e8 00 00 00 00	 call	 ?GetPosition@CGraphicObjectInstance@@QBEABUD3DXVECTOR3@@XZ ; CGraphicObjectInstance::GetPosition

; 641  : 		rVictim.m_PhysicsObject.IncreaseExternalForce(kVictimPos, c_rAttackData.fExternalForce); //*nForceRatio/100.0f);

  00063	f3 0f 10 43 0c	 movss	 xmm0, DWORD PTR [ebx+12]
  00068	51		 push	 ecx
  00069	f3 0f 11 04 24	 movss	 DWORD PTR [esp], xmm0
  0006e	8d 8e 80 03 00
	00		 lea	 ecx, DWORD PTR [esi+896]
  00074	50		 push	 eax
  00075	e8 00 00 00 00	 call	 ?IncreaseExternalForce@CPhysicsObject@@QAEXABUD3DXVECTOR3@@M@Z ; CPhysicsObject::IncreaseExternalForce
$LN3@ProcessDat:

; 642  : 
; 643  : 		// VICTIM_COLLISION_TEST_END
; 644  : 	}
; 645  : 
; 646  : 	// Invisible Time
; 647  : 	if (IS_PARTY_HUNTING_RACE(rVictim.GetRace()))

  0007a	8b ce		 mov	 ecx, esi
  0007c	e8 00 00 00 00	 call	 ?GetRace@CActorInstance@@QAEKXZ ; CActorInstance::GetRace
  00081	50		 push	 eax
  00082	e8 00 00 00 00	 call	 ?IS_PARTY_HUNTING_RACE@@YA_NI@Z ; IS_PARTY_HUNTING_RACE
  00087	83 c4 04	 add	 esp, 4
  0008a	84 c0		 test	 al, al
  0008c	74 23		 je	 SHORT $LN4@ProcessDat

; 648  : 	{
; 649  : 		if (uiSkill) //      

  0008e	83 7d 14 00	 cmp	 DWORD PTR _uiSkill$[ebp], 0
  00092	74 14		 je	 SHORT $LN6@ProcessDat

; 650  : 			rVictim.m_fInvisibleTime = CTimer::Instance().GetCurrentSecond() + c_rAttackData.fInvisibleTime;

  00094	8b 0d 00 00 00
	00		 mov	 ecx, DWORD PTR ?ms_singleton@?$CSingleton@VCTimer@@@@0PAVCTimer@@A ; CSingleton<CTimer>::ms_singleton
  0009a	e8 00 00 00 00	 call	 ?GetCurrentSecond@CTimer@@QAEMXZ ; CTimer::GetCurrentSecond
  0009f	d8 43 08	 fadd	 DWORD PTR [ebx+8]
  000a2	d9 9e 28 04 00
	00		 fstp	 DWORD PTR [esi+1064]
$LN6@ProcessDat:

; 651  : 
; 652  : 		if (m_isMain) // #0000794: [M2KR]  -             

  000a8	83 bf 4c 04 00
	00 00		 cmp	 DWORD PTR [edi+1100], 0
  000af	74 14		 je	 SHORT $LN5@ProcessDat
$LN4@ProcessDat:

; 653  : 			rVictim.m_fInvisibleTime = CTimer::Instance().GetCurrentSecond() + c_rAttackData.fInvisibleTime;
; 654  : 	}
; 655  : 	else //      
; 656  : 	{
; 657  : 		rVictim.m_fInvisibleTime = CTimer::Instance().GetCurrentSecond() + c_rAttackData.fInvisibleTime;
; 658  : 	}
; 659  : 
; 660  : 	// Stiffen Time
; 661  : 	rVictim.InsertDelay(c_rAttackData.fStiffenTime);

  000b1	8b 0d 00 00 00
	00		 mov	 ecx, DWORD PTR ?ms_singleton@?$CSingleton@VCTimer@@@@0PAVCTimer@@A ; CSingleton<CTimer>::ms_singleton
  000b7	e8 00 00 00 00	 call	 ?GetCurrentSecond@CTimer@@QAEMXZ ; CTimer::GetCurrentSecond
  000bc	d8 43 08	 fadd	 DWORD PTR [ebx+8]
  000bf	d9 9e 28 04 00
	00		 fstp	 DWORD PTR [esi+1064]
$LN5@ProcessDat:
  000c5	f3 0f 10 43 10	 movss	 xmm0, DWORD PTR [ebx+16]
  000ca	51		 push	 ecx
  000cb	8b ce		 mov	 ecx, esi
  000cd	f3 0f 11 04 24	 movss	 DWORD PTR [esp], xmm0
  000d2	e8 00 00 00 00	 call	 ?InsertDelay@CGraphicThingInstance@@QAEXM@Z ; CGraphicThingInstance::InsertDelay
; File C:\Users\murat\Desktop\Siveps2-1-99-Project\source\client\extern\include\d3dx8math.inl

; 180  :     x = fx;

  000d7	f3 0f 10 86 68
	04 00 00	 movss	 xmm0, DWORD PTR [esi+1128]
; File C:\Users\murat\Desktop\Siveps2-1-99-Project\source\client\Client\GameLib\ActorInstanceBattle.cpp

; 668  : 	if (IS_HUGE_RACE(rVictim.GetRace()))

  000df	8b ce		 mov	 ecx, esi
; File C:\Users\murat\Desktop\Siveps2-1-99-Project\source\client\extern\include\d3dx8math.inl

; 180  :     x = fx;

  000e1	f3 0f 11 45 e4	 movss	 DWORD PTR _vec3Effect$[ebp], xmm0

; 181  :     y = fy;

  000e6	f3 0f 10 86 6c
	04 00 00	 movss	 xmm0, DWORD PTR [esi+1132]
  000ee	f3 0f 11 45 e8	 movss	 DWORD PTR _vec3Effect$[ebp+4], xmm0

; 182  :     z = fz;

  000f3	f3 0f 10 86 70
	04 00 00	 movss	 xmm0, DWORD PTR [esi+1136]
  000fb	f3 0f 11 45 ec	 movss	 DWORD PTR _vec3Effect$[ebp+8], xmm0
; File C:\Users\murat\Desktop\Siveps2-1-99-Project\source\client\Client\GameLib\ActorInstanceBattle.cpp

; 668  : 	if (IS_HUGE_RACE(rVictim.GetRace()))

  00100	e8 00 00 00 00	 call	 ?GetRace@CActorInstance@@QAEKXZ ; CActorInstance::GetRace
  00105	50		 push	 eax
  00106	e8 00 00 00 00	 call	 ?IS_HUGE_RACE@@YA_NI@Z	; IS_HUGE_RACE
  0010b	83 c4 04	 add	 esp, 4
  0010e	84 c0		 test	 al, al
  00110	74 12		 je	 SHORT $LN8@ProcessDat

; 669  : 	{
; 670  : 		vec3Effect = c_rv3Position;

  00112	8b 45 c8	 mov	 eax, DWORD PTR _c_rv3Position$GSCopy$1$[ebp]
  00115	f3 0f 7e 00	 movq	 xmm0, QWORD PTR [eax]
  00119	8b 40 08	 mov	 eax, DWORD PTR [eax+8]
  0011c	66 0f d6 45 e4	 movq	 QWORD PTR _vec3Effect$[ebp], xmm0
  00121	89 45 ec	 mov	 DWORD PTR _vec3Effect$[ebp+8], eax
$LN8@ProcessDat:

; 671  : 	}
; 672  : 
; 673  : 	const D3DXVECTOR3 & v3Pos = GetPosition();

  00124	8b cf		 mov	 ecx, edi
  00126	e8 00 00 00 00	 call	 ?GetPosition@CGraphicObjectInstance@@QBEABUD3DXVECTOR3@@XZ ; CGraphicObjectInstance::GetPosition
  0012b	89 45 c8	 mov	 DWORD PTR _v3Pos$1$[ebp], eax

; 675  : 	float fHeight = D3DXToDegree(atan2(-vec3Effect.x + v3Pos.x,+vec3Effect.y - v3Pos.y));

  0012e	f3 0f 10 00	 movss	 xmm0, DWORD PTR [eax]
  00132	f3 0f 5c 45 e4	 subss	 xmm0, DWORD PTR _vec3Effect$[ebp]
; File C:\Program Files (x86)\Windows Kits\10\Include\10.0.19041.0\ucrt\corecrt_math.h

; 632  :             return (float)atan2(_Y, _X);

  00137	0f 5a c0	 cvtps2pd xmm0, xmm0
  0013a	f2 0f 11 45 f4	 movsd	 QWORD PTR tv631[ebp], xmm0
; File C:\Users\murat\Desktop\Siveps2-1-99-Project\source\client\Client\GameLib\ActorInstanceBattle.cpp

; 675  : 	float fHeight = D3DXToDegree(atan2(-vec3Effect.x + v3Pos.x,+vec3Effect.y - v3Pos.y));

  0013f	f3 0f 10 45 e8	 movss	 xmm0, DWORD PTR _vec3Effect$[ebp+4]
  00144	f3 0f 5c 40 04	 subss	 xmm0, DWORD PTR [eax+4]
; File C:\Program Files (x86)\Windows Kits\10\Include\10.0.19041.0\ucrt\corecrt_math.h

; 632  :             return (float)atan2(_Y, _X);

  00149	dd 45 f4	 fld	 QWORD PTR tv631[ebp]
  0014c	0f 5a c0	 cvtps2pd xmm0, xmm0
  0014f	f2 0f 11 45 f4	 movsd	 QWORD PTR tv628[ebp], xmm0
  00154	dd 45 f4	 fld	 QWORD PTR tv628[ebp]
  00157	e8 00 00 00 00	 call	 __CIatan2
; File C:\Users\murat\Desktop\Siveps2-1-99-Project\source\client\Client\GameLib\ActorInstanceBattle.cpp

; 678  : 	if (rVictim.IsBuilding()||rVictim.IsDoor())

  0015c	8b ce		 mov	 ecx, esi
; File C:\Program Files (x86)\Microsoft Visual Studio\2019\Professional\VC\Tools\MSVC\14.29.30133\include\cmath

; 61   :     return _CSTD atan2f(_Yx, _Xx);

  0015e	d9 5d f8	 fstp	 DWORD PTR $T5[ebp]
; File C:\Users\murat\Desktop\Siveps2-1-99-Project\source\client\Client\GameLib\ActorInstanceBattle.cpp

; 678  : 	if (rVictim.IsBuilding()||rVictim.IsDoor())

  00161	e8 00 00 00 00	 call	 ?IsBuilding@CActorInstance@@QAE_NXZ ; CActorInstance::IsBuilding
  00166	84 c0		 test	 al, al
  00168	75 6a		 jne	 SHORT $LN11@ProcessDat
  0016a	8b ce		 mov	 ecx, esi
  0016c	e8 00 00 00 00	 call	 ?IsDoor@CActorInstance@@QAE_NXZ ; CActorInstance::IsDoor
  00171	84 c0		 test	 al, al
  00173	75 5f		 jne	 SHORT $LN11@ProcessDat

; 687  : 	}
; 688  : 	else
; 689  : 	{
; 690  : 		CEffectManager& rkEftMgr=CEffectManager::Instance();
; 691  : 		if (m_dwBattleHitEffectID)

  00175	8b 87 50 04 00
	00		 mov	 eax, DWORD PTR [edi+1104]
  0017b	85 c0		 test	 eax, eax
  0017d	74 34		 je	 SHORT $LN13@ProcessDat

; 692  : 			rkEftMgr.CreateEffect(m_dwBattleHitEffectID, vec3Effect, D3DXVECTOR3(0.0f, 0.0f, fHeight));

  0017f	f3 0f 10 45 f8	 movss	 xmm0, DWORD PTR $T5[ebp]
  00184	8d 4d d8	 lea	 ecx, DWORD PTR $T2[ebp]
  00187	f3 0f 59 05 00
	00 00 00	 mulss	 xmm0, DWORD PTR __real@42652ee0
  0018f	51		 push	 ecx
  00190	8d 4d e4	 lea	 ecx, DWORD PTR _vec3Effect$[ebp]
; File C:\Users\murat\Desktop\Siveps2-1-99-Project\source\client\extern\include\d3dx8math.inl

; 180  :     x = fx;

  00193	c7 45 d8 00 00
	00 00		 mov	 DWORD PTR $T2[ebp], 0
; File C:\Users\murat\Desktop\Siveps2-1-99-Project\source\client\Client\GameLib\ActorInstanceBattle.cpp

; 692  : 			rkEftMgr.CreateEffect(m_dwBattleHitEffectID, vec3Effect, D3DXVECTOR3(0.0f, 0.0f, fHeight));

  0019a	51		 push	 ecx
  0019b	8b 0d 00 00 00
	00		 mov	 ecx, DWORD PTR ?ms_singleton@?$CSingleton@VCEffectManager@@@@0PAVCEffectManager@@A ; CSingleton<CEffectManager>::ms_singleton
  001a1	50		 push	 eax
; File C:\Users\murat\Desktop\Siveps2-1-99-Project\source\client\extern\include\d3dx8math.inl

; 181  :     y = fy;

  001a2	c7 45 dc 00 00
	00 00		 mov	 DWORD PTR $T2[ebp+4], 0

; 182  :     z = fz;

  001a9	f3 0f 11 45 e0	 movss	 DWORD PTR $T2[ebp+8], xmm0
; File C:\Users\murat\Desktop\Siveps2-1-99-Project\source\client\Client\GameLib\ActorInstanceBattle.cpp

; 692  : 			rkEftMgr.CreateEffect(m_dwBattleHitEffectID, vec3Effect, D3DXVECTOR3(0.0f, 0.0f, fHeight));

  001ae	e8 00 00 00 00	 call	 ?CreateEffect@CEffectManager@@QAEHKABUD3DXVECTOR3@@0@Z ; CEffectManager::CreateEffect
$LN13@ProcessDat:

; 693  : 		if (m_dwBattleAttachEffectID)

  001b3	8b 87 54 04 00
	00		 mov	 eax, DWORD PTR [edi+1108]
  001b9	85 c0		 test	 eax, eax
  001bb	0f 84 d1 00 00
	00		 je	 $LN12@ProcessDat

; 694  : 			rVictim.AttachEffectByID(0, NULL, m_dwBattleAttachEffectID);

  001c1	6a 00		 push	 0
  001c3	50		 push	 eax
  001c4	6a 00		 push	 0
  001c6	6a 00		 push	 0
  001c8	8b ce		 mov	 ecx, esi
  001ca	e8 00 00 00 00	 call	 ?AttachEffectByID@CActorInstance@@QAEKKPBDKPBUD3DXVECTOR3@@@Z ; CActorInstance::AttachEffectByID
  001cf	e9 be 00 00 00	 jmp	 $LN12@ProcessDat
$LN11@ProcessDat:
; File C:\Users\murat\Desktop\Siveps2-1-99-Project\source\client\extern\include\d3dx8math.inl

; 263  :     return D3DXVECTOR3(x - v.x, y - v.y, z - v.z);

  001d4	8b 45 c8	 mov	 eax, DWORD PTR _v3Pos$1$[ebp]
  001d7	f3 0f 10 45 e4	 movss	 xmm0, DWORD PTR _vec3Effect$[ebp]
  001dc	f3 0f 5c 00	 subss	 xmm0, DWORD PTR [eax]

; 180  :     x = fx;

  001e0	f3 0f 11 45 f0	 movss	 DWORD PTR _vec3Delta$4[ebp], xmm0

; 263  :     return D3DXVECTOR3(x - v.x, y - v.y, z - v.z);

  001e5	f3 0f 10 45 e8	 movss	 xmm0, DWORD PTR _vec3Effect$[ebp+4]
  001ea	f3 0f 5c 40 04	 subss	 xmm0, DWORD PTR [eax+4]

; 181  :     y = fy;

  001ef	f3 0f 11 45 f4	 movss	 DWORD PTR _vec3Delta$4[ebp+4], xmm0

; 263  :     return D3DXVECTOR3(x - v.x, y - v.y, z - v.z);

  001f4	f3 0f 10 45 ec	 movss	 xmm0, DWORD PTR _vec3Effect$[ebp+8]
  001f9	f3 0f 5c 40 08	 subss	 xmm0, DWORD PTR [eax+8]
; File C:\Users\murat\Desktop\Siveps2-1-99-Project\source\client\Client\GameLib\ActorInstanceBattle.cpp

; 681  : 		D3DXVec3Normalize(&vec3Delta, &vec3Delta);

  001fe	8d 45 f0	 lea	 eax, DWORD PTR _vec3Delta$4[ebp]
  00201	50		 push	 eax
  00202	50		 push	 eax
; File C:\Users\murat\Desktop\Siveps2-1-99-Project\source\client\extern\include\d3dx8math.inl

; 182  :     z = fz;

  00203	f3 0f 11 45 f8	 movss	 DWORD PTR _vec3Delta$4[ebp+8], xmm0
; File C:\Users\murat\Desktop\Siveps2-1-99-Project\source\client\Client\GameLib\ActorInstanceBattle.cpp

; 681  : 		D3DXVec3Normalize(&vec3Delta, &vec3Delta);

  00208	e8 00 00 00 00	 call	 _D3DXVec3Normalize@8
; File C:\Users\murat\Desktop\Siveps2-1-99-Project\source\client\extern\include\d3dx8math.inl

; 222  :     x *= f;

  0020d	f3 0f 10 05 00
	00 00 00	 movss	 xmm0, DWORD PTR __real@41f00000
  00215	f3 0f 10 4d f0	 movss	 xmm1, DWORD PTR _vec3Delta$4[ebp]

; 223  :     y *= f;

  0021a	f3 0f 10 55 f4	 movss	 xmm2, DWORD PTR _vec3Delta$4[ebp+4]

; 224  :     z *= f;

  0021f	f3 0f 10 5d f8	 movss	 xmm3, DWORD PTR _vec3Delta$4[ebp+8]
; File C:\Users\murat\Desktop\Siveps2-1-99-Project\source\client\Client\GameLib\ActorInstanceBattle.cpp

; 685  : 		if (m_dwBattleHitEffectID)

  00224	8b 8f 50 04 00
	00		 mov	 ecx, DWORD PTR [edi+1104]
; File C:\Users\murat\Desktop\Siveps2-1-99-Project\source\client\extern\include\d3dx8math.inl

; 222  :     x *= f;

  0022a	f3 0f 59 c8	 mulss	 xmm1, xmm0

; 223  :     y *= f;

  0022e	f3 0f 59 d0	 mulss	 xmm2, xmm0

; 224  :     z *= f;

  00232	f3 0f 59 d8	 mulss	 xmm3, xmm0
  00236	f3 0f 11 4d f0	 movss	 DWORD PTR _vec3Delta$4[ebp], xmm1
  0023b	f3 0f 11 55 f4	 movss	 DWORD PTR _vec3Delta$4[ebp+4], xmm2
  00240	f3 0f 11 5d f8	 movss	 DWORD PTR _vec3Delta$4[ebp+8], xmm3
; File C:\Users\murat\Desktop\Siveps2-1-99-Project\source\client\Client\GameLib\ActorInstanceBattle.cpp

; 685  : 		if (m_dwBattleHitEffectID)

  00245	85 c9		 test	 ecx, ecx
  00247	74 49		 je	 SHORT $LN12@ProcessDat
; File C:\Users\murat\Desktop\Siveps2-1-99-Project\source\client\extern\include\d3dx8math.inl

; 257  :     return D3DXVECTOR3(x + v.x, y + v.y, z + v.z);

  00249	8b 45 c8	 mov	 eax, DWORD PTR _v3Pos$1$[ebp]

; 180  :     x = fx;

  0024c	c7 45 d8 00 00
	00 00		 mov	 DWORD PTR $T3[ebp], 0

; 181  :     y = fy;

  00253	c7 45 dc 00 00
	00 00		 mov	 DWORD PTR $T3[ebp+4], 0

; 182  :     z = fz;

  0025a	c7 45 e0 00 00
	00 00		 mov	 DWORD PTR $T3[ebp+8], 0

; 257  :     return D3DXVECTOR3(x + v.x, y + v.y, z + v.z);

  00261	f3 0f 58 08	 addss	 xmm1, DWORD PTR [eax]
  00265	f3 0f 58 50 04	 addss	 xmm2, DWORD PTR [eax+4]
  0026a	f3 0f 58 58 08	 addss	 xmm3, DWORD PTR [eax+8]
; File C:\Users\murat\Desktop\Siveps2-1-99-Project\source\client\Client\GameLib\ActorInstanceBattle.cpp

; 686  : 			rkEftMgr.CreateEffect(m_dwBattleHitEffectID, v3Pos+vec3Delta, D3DXVECTOR3(0.0f, 0.0f, 0.0f));

  0026f	8d 45 d8	 lea	 eax, DWORD PTR $T3[ebp]
  00272	50		 push	 eax
  00273	8d 45 cc	 lea	 eax, DWORD PTR $T1[ebp]
; File C:\Users\murat\Desktop\Siveps2-1-99-Project\source\client\extern\include\d3dx8math.inl

; 180  :     x = fx;

  00276	f3 0f 11 4d cc	 movss	 DWORD PTR $T1[ebp], xmm1
; File C:\Users\murat\Desktop\Siveps2-1-99-Project\source\client\Client\GameLib\ActorInstanceBattle.cpp

; 686  : 			rkEftMgr.CreateEffect(m_dwBattleHitEffectID, v3Pos+vec3Delta, D3DXVECTOR3(0.0f, 0.0f, 0.0f));

  0027b	50		 push	 eax
  0027c	51		 push	 ecx
  0027d	8b 0d 00 00 00
	00		 mov	 ecx, DWORD PTR ?ms_singleton@?$CSingleton@VCEffectManager@@@@0PAVCEffectManager@@A ; CSingleton<CEffectManager>::ms_singleton
; File C:\Users\murat\Desktop\Siveps2-1-99-Project\source\client\extern\include\d3dx8math.inl

; 181  :     y = fy;

  00283	f3 0f 11 55 d0	 movss	 DWORD PTR $T1[ebp+4], xmm2

; 182  :     z = fz;

  00288	f3 0f 11 5d d4	 movss	 DWORD PTR $T1[ebp+8], xmm3
; File C:\Users\murat\Desktop\Siveps2-1-99-Project\source\client\Client\GameLib\ActorInstanceBattle.cpp

; 686  : 			rkEftMgr.CreateEffect(m_dwBattleHitEffectID, v3Pos+vec3Delta, D3DXVECTOR3(0.0f, 0.0f, 0.0f));

  0028d	e8 00 00 00 00	 call	 ?CreateEffect@CEffectManager@@QAEHKABUD3DXVECTOR3@@0@Z ; CEffectManager::CreateEffect
$LN12@ProcessDat:

; 695  : 	}
; 696  : 
; 697  : 	if (rVictim.IsBuilding())

  00292	8b ce		 mov	 ecx, esi
  00294	e8 00 00 00 00	 call	 ?IsBuilding@CActorInstance@@QAE_NXZ ; CActorInstance::IsBuilding
  00299	84 c0		 test	 al, al
  0029b	75 5b		 jne	 SHORT $LN24@ProcessDat

; 698  : 	{
; 699  : 		// 2004.08.03.   
; 700  : 	}
; 701  : 	else if (rVictim.IsStone() || rVictim.IsDoor())

  0029d	8b ce		 mov	 ecx, esi
  0029f	e8 00 00 00 00	 call	 ?IsStone@CActorInstance@@QAE_NXZ ; CActorInstance::IsStone
  002a4	84 c0		 test	 al, al
  002a6	75 48		 jne	 SHORT $LN19@ProcessDat
  002a8	8b ce		 mov	 ecx, esi
  002aa	e8 00 00 00 00	 call	 ?IsDoor@CActorInstance@@QAE_NXZ ; CActorInstance::IsDoor
  002af	84 c0		 test	 al, al
  002b1	75 3d		 jne	 SHORT $LN19@ProcessDat

; 704  : 	}
; 705  : 	else
; 706  : 	{
; 707  : 		///////////
; 708  : 		// Motion
; 709  : 		if (NRaceData::HIT_TYPE_GOOD == c_rAttackData.iHittingType || rVictim.IsResistFallen())

  002b3	83 7b 04 02	 cmp	 DWORD PTR [ebx+4], 2
  002b7	74 2d		 je	 SHORT $LN22@ProcessDat
  002b9	8b ce		 mov	 ecx, esi
  002bb	e8 00 00 00 00	 call	 ?IsResistFallen@CActorInstance@@QAEHXZ ; CActorInstance::IsResistFallen
  002c0	85 c0		 test	 eax, eax
  002c2	75 22		 jne	 SHORT $LN22@ProcessDat

; 713  : 		else if (NRaceData::HIT_TYPE_GREAT == c_rAttackData.iHittingType)

  002c4	8b 43 04	 mov	 eax, DWORD PTR [ebx+4]
  002c7	83 f8 01	 cmp	 eax, 1
  002ca	75 0a		 jne	 SHORT $LN23@ProcessDat

; 714  : 		{
; 715  : 			__HitGreate(rVictim);

  002cc	56		 push	 esi
  002cd	8b cf		 mov	 ecx, edi
  002cf	e8 00 00 00 00	 call	 ?__HitGreate@CActorInstance@@IAEXAAV1@@Z ; CActorInstance::__HitGreate

; 716  : 		}

  002d4	eb 22		 jmp	 SHORT $LN24@ProcessDat
$LN23@ProcessDat:

; 717  : 		else
; 718  : 		{
; 719  : 			TraceError("ProcessSucceedingAttacking: Unknown AttackingData.iHittingType %d", c_rAttackData.iHittingType);

  002d6	50		 push	 eax
  002d7	68 00 00 00 00	 push	 OFFSET ??_C@_0EC@FEDLPHGA@ProcessSucceedingAttacking?3?5Unk@
  002dc	e8 00 00 00 00	 call	 ?TraceError@@YAXPBDZZ	; TraceError
  002e1	83 c4 08	 add	 esp, 8
  002e4	eb 12		 jmp	 SHORT $LN24@ProcessDat
$LN22@ProcessDat:

; 710  : 		{
; 711  : 			__HitGood(rVictim);

  002e6	56		 push	 esi
  002e7	8b cf		 mov	 ecx, edi
  002e9	e8 00 00 00 00	 call	 ?__HitGood@CActorInstance@@IAEXAAV1@@Z ; CActorInstance::__HitGood

; 712  : 		}

  002ee	eb 08		 jmp	 SHORT $LN24@ProcessDat
$LN19@ProcessDat:

; 702  : 	{
; 703  : 		__HitStone(rVictim);

  002f0	56		 push	 esi
  002f1	8b cf		 mov	 ecx, edi
  002f3	e8 00 00 00 00	 call	 ?__HitStone@CActorInstance@@IAEXAAV1@@Z ; CActorInstance::__HitStone
$LN24@ProcessDat:

; 720  : 		}
; 721  : 	}
; 722  : 
; 723  : 	__OnHit(uiSkill, rVictim, isSendPacket);

  002f8	ff 75 18	 push	 DWORD PTR _isSendPacket$[ebp]
  002fb	8b cf		 mov	 ecx, edi
  002fd	56		 push	 esi
  002fe	ff 75 14	 push	 DWORD PTR _uiSkill$[ebp]
  00301	e8 00 00 00 00	 call	 ?__OnHit@CActorInstance@@IAEXIAAV1@H@Z ; CActorInstance::__OnHit
$LN1@ProcessDat:

; 724  : }

  00306	8b 4d fc	 mov	 ecx, DWORD PTR __$ArrayPad$[ebp]
  00309	5f		 pop	 edi
  0030a	5e		 pop	 esi
  0030b	33 cd		 xor	 ecx, ebp
  0030d	5b		 pop	 ebx
  0030e	e8 00 00 00 00	 call	 @__security_check_cookie@4
  00313	8b e5		 mov	 esp, ebp
  00315	5d		 pop	 ebp
  00316	c2 14 00	 ret	 20			; 00000014H
?__ProcessDataAttackSuccess@CActorInstance@@IAEXABUSAttackData@NRaceData@@AAV1@ABUD3DXVECTOR3@@IH@Z ENDP ; CActorInstance::__ProcessDataAttackSuccess
_TEXT	ENDS
; Function compile flags: /Ogtp
; File C:\Users\murat\Desktop\Siveps2-1-99-Project\source\client\Client\GameLib\ActorInstanceBattle.cpp
;	COMDAT ?__OnEndCombo@CActorInstance@@IAEXXZ
_TEXT	SEGMENT
?__OnEndCombo@CActorInstance@@IAEXXZ PROC		; CActorInstance::__OnEndCombo, COMDAT
; _this$ = ecx

; 300  : {

  00000	56		 push	 esi
  00001	8b f1		 mov	 esi, ecx

; 301  : 	if (__IsMountingHorse())

  00003	e8 00 00 00 00	 call	 ?__IsMountingHorse@CActorInstance@@IAE_NXZ ; CActorInstance::__IsMountingHorse
  00008	84 c0		 test	 al, al
  0000a	74 0a		 je	 SHORT $LN2@OnEndCombo

; 302  : 	{
; 303  : 		m_dwcurComboIndex = 1;

  0000c	c7 86 f8 03 00
	00 01 00 00 00	 mov	 DWORD PTR [esi+1016], 1
$LN2@OnEndCombo:
  00016	5e		 pop	 esi

; 304  : 	}
; 305  : 
; 306  : 	//     .
; 307  : 	//        Motion   Wait   .
; 308  : }

  00017	c3		 ret	 0
?__OnEndCombo@CActorInstance@@IAEXXZ ENDP		; CActorInstance::__OnEndCombo
_TEXT	ENDS
; Function compile flags: /Ogtp
; File C:\Users\murat\Desktop\Siveps2-1-99-Project\source\client\Client\GameLib\ActorInstanceBattle.cpp
;	COMDAT ?__ClearCombo@CActorInstance@@IAEXXZ
_TEXT	SEGMENT
?__ClearCombo@CActorInstance@@IAEXXZ PROC		; CActorInstance::__ClearCombo, COMDAT
; _this$ = ecx

; 312  : 	m_dwcurComboIndex = 0;

  00000	c7 81 f8 03 00
	00 00 00 00 00	 mov	 DWORD PTR [ecx+1016], 0

; 313  : 	m_isPreInput = FALSE;

  0000a	c7 81 0c 04 00
	00 00 00 00 00	 mov	 DWORD PTR [ecx+1036], 0

; 314  : 	m_pkCurRaceMotionData = NULL;

  00014	c7 81 24 04 00
	00 00 00 00 00	 mov	 DWORD PTR [ecx+1060], 0

; 315  : }

  0001e	c3		 ret	 0
?__ClearCombo@CActorInstance@@IAEXXZ ENDP		; CActorInstance::__ClearCombo
_TEXT	ENDS
; Function compile flags: /Ogtp
; File C:\Users\murat\Desktop\Siveps2-1-99-Project\source\client\Client\GameLib\ActorInstanceBattle.cpp
; File C:\Program Files (x86)\Microsoft Visual Studio\2019\Professional\VC\Tools\MSVC\14.29.30133\include\vector
; File C:\Users\murat\Desktop\Siveps2-1-99-Project\source\client\Client\GameLib\ActorInstanceBattle.cpp
; File C:\Program Files (x86)\Microsoft Visual Studio\2019\Professional\VC\Tools\MSVC\14.29.30133\include\vector
; File C:\Users\murat\Desktop\Siveps2-1-99-Project\source\client\Client\GameLib\ActorInstanceBattle.cpp
;	COMDAT ?__RunNextCombo@CActorInstance@@IAEXXZ
_TEXT	SEGMENT
_pComboData$ = -8					; size = 4
tv342 = -4						; size = 4
?__RunNextCombo@CActorInstance@@IAEXXZ PROC		; CActorInstance::__RunNextCombo, COMDAT
; _this$ = ecx

; 257  : {

  00000	55		 push	 ebp
  00001	8b ec		 mov	 ebp, esp
  00003	83 ec 08	 sub	 esp, 8
  00006	53		 push	 ebx
  00007	56		 push	 esi
  00008	57		 push	 edi
  00009	8b f9		 mov	 edi, ecx

; 258  :  	++m_dwcurComboIndex;

  0000b	ff 87 f8 03 00
	00		 inc	 DWORD PTR [edi+1016]
  00011	8b 87 f8 03 00
	00		 mov	 eax, DWORD PTR [edi+1016]

; 259  : 	///////////////////////////
; 260  : 
; 261  : 	WORD wComboIndex = m_dwcurComboIndex;

  00017	0f b7 f0	 movzx	 esi, ax

; 262  : 	WORD wComboType = __GetCurrentComboType();

  0001a	e8 00 00 00 00	 call	 ?__GetCurrentComboType@CActorInstance@@IAEGXZ ; CActorInstance::__GetCurrentComboType
  0001f	0f b7 d8	 movzx	 ebx, ax
  00022	8b c6		 mov	 eax, esi
  00024	89 45 fc	 mov	 DWORD PTR tv342[ebp], eax

; 263  : 
; 264  : 	if (wComboIndex==0)

  00027	66 85 f6	 test	 si, si
  0002a	75 16		 jne	 SHORT $LN2@RunNextCom

; 265  : 	{
; 266  : 		TraceError("CActorInstance::__RunNextCombo(wComboType=%d, wComboIndex=%d)", wComboType, wComboIndex);

  0002c	50		 push	 eax
  0002d	53		 push	 ebx
  0002e	68 00 00 00 00	 push	 OFFSET ??_C@_0DO@CGEPLNOG@CActorInstance?3?3__RunNextCombo?$CI@
  00033	e8 00 00 00 00	 call	 ?TraceError@@YAXPBDZZ	; TraceError
  00038	83 c4 0c	 add	 esp, 12			; 0000000cH
  0003b	5f		 pop	 edi

; 296  : 	}
; 297  : }

  0003c	5e		 pop	 esi
  0003d	5b		 pop	 ebx
  0003e	8b e5		 mov	 esp, ebp
  00040	5d		 pop	 ebp
  00041	c3		 ret	 0
$LN2@RunNextCom:

; 267  : 		return;
; 268  : 	}
; 269  : 
; 270  : 	DWORD dwComboArrayIndex = wComboIndex - 1;
; 271  : 
; 272  : 	CRaceData::TComboData * pComboData;
; 273  : 
; 274  : 	if (!m_pkCurRaceData->GetComboDataPointer(m_wcurMotionMode, wComboType, &pComboData))

  00042	8b 8f 20 04 00
	00		 mov	 ecx, DWORD PTR [edi+1056]
  00048	8d 70 ff	 lea	 esi, DWORD PTR [eax-1]
  0004b	8d 45 f8	 lea	 eax, DWORD PTR _pComboData$[ebp]
  0004e	50		 push	 eax
  0004f	0f b7 87 34 03
	00 00		 movzx	 eax, WORD PTR [edi+820]
  00056	53		 push	 ebx
  00057	50		 push	 eax
  00058	e8 00 00 00 00	 call	 ?GetComboDataPointer@CRaceData@@QAEHGGPAPAUSComboAttackData@1@@Z ; CRaceData::GetComboDataPointer
  0005d	85 c0		 test	 eax, eax
  0005f	75 20		 jne	 SHORT $LN3@RunNextCom

; 275  : 	{
; 276  : 		TraceError("CActorInstance::__RunNextCombo(wComboType=%d, wComboIndex=%d) - m_pkCurRaceData->GetComboDataPointer(m_wcurMotionMode=%d, &pComboData) == NULL",

  00061	0f b7 87 34 03
	00 00		 movzx	 eax, WORD PTR [edi+820]
  00068	50		 push	 eax
  00069	ff 75 fc	 push	 DWORD PTR tv342[ebp]
  0006c	53		 push	 ebx
  0006d	68 00 00 00 00	 push	 OFFSET ??_C@_0IP@BHEKJOJN@CActorInstance?3?3__RunNextCombo?$CI@
  00072	e8 00 00 00 00	 call	 ?TraceError@@YAXPBDZZ	; TraceError
  00077	83 c4 10	 add	 esp, 16			; 00000010H
  0007a	5f		 pop	 edi

; 296  : 	}
; 297  : }

  0007b	5e		 pop	 esi
  0007c	5b		 pop	 ebx
  0007d	8b e5		 mov	 esp, ebp
  0007f	5d		 pop	 ebp
  00080	c3		 ret	 0
$LN3@RunNextCom:
; File C:\Program Files (x86)\Microsoft Visual Studio\2019\Professional\VC\Tools\MSVC\14.29.30133\include\vector

; 1549 :         return static_cast<size_type>(_My_data._Mylast - _My_data._Myfirst);

  00081	8b 45 f8	 mov	 eax, DWORD PTR _pComboData$[ebp]
  00084	8b 08		 mov	 ecx, DWORD PTR [eax]
  00086	8b 40 04	 mov	 eax, DWORD PTR [eax+4]
  00089	2b c1		 sub	 eax, ecx
  0008b	c1 f8 02	 sar	 eax, 2
; File C:\Users\murat\Desktop\Siveps2-1-99-Project\source\client\Client\GameLib\ActorInstanceBattle.cpp

; 281  : 	if (dwComboArrayIndex >= pComboData->ComboIndexVector.size())

  0008e	3b f0		 cmp	 esi, eax
  00090	72 1a		 jb	 SHORT $LN4@RunNextCom

; 282  : 	{
; 283  : 		TraceError("CActorInstance::__RunNextCombo(wComboType=%d, wComboIndex=%d) - (dwComboArrayIndex=%d) >= (pComboData->ComboIndexVector.size()=%d)",

  00092	50		 push	 eax
  00093	56		 push	 esi
  00094	ff 75 fc	 push	 DWORD PTR tv342[ebp]
  00097	53		 push	 ebx
  00098	68 00 00 00 00	 push	 OFFSET ??_C@_0ID@NOGKCFDC@CActorInstance?3?3__RunNextCombo?$CI@
  0009d	e8 00 00 00 00	 call	 ?TraceError@@YAXPBDZZ	; TraceError
  000a2	83 c4 14	 add	 esp, 20			; 00000014H
  000a5	5f		 pop	 edi

; 296  : 	}
; 297  : }

  000a6	5e		 pop	 esi
  000a7	5b		 pop	 ebx
  000a8	8b e5		 mov	 esp, ebp
  000aa	5d		 pop	 ebp
  000ab	c3		 ret	 0
$LN4@RunNextCom:

; 284  : 			wComboType, wComboIndex, dwComboArrayIndex, pComboData->ComboIndexVector.size());
; 285  : 		return;
; 286  : 	}
; 287  : 
; 288  : 	WORD wcurComboMotionIndex = pComboData->ComboIndexVector[dwComboArrayIndex];
; 289  : 	ComboAttack(wcurComboMotionIndex, m_fAtkDirRot, 0.1f);

  000ac	f3 0f 10 87 1c
	04 00 00	 movss	 xmm0, DWORD PTR [edi+1052]
  000b4	83 ec 08	 sub	 esp, 8
  000b7	0f b7 04 b1	 movzx	 eax, WORD PTR [ecx+esi*4]
  000bb	8b cf		 mov	 ecx, edi
  000bd	c7 44 24 04 cd
	cc cc 3d	 mov	 DWORD PTR [esp+4], 1036831949 ; 3dcccccdH
  000c5	f3 0f 11 04 24	 movss	 DWORD PTR [esp], xmm0
  000ca	50		 push	 eax
  000cb	e8 00 00 00 00	 call	 ?ComboAttack@CActorInstance@@QAEHKMM@Z ; CActorInstance::ComboAttack
; File C:\Program Files (x86)\Microsoft Visual Studio\2019\Professional\VC\Tools\MSVC\14.29.30133\include\vector

; 1549 :         return static_cast<size_type>(_My_data._Mylast - _My_data._Myfirst);

  000d0	8b 45 f8	 mov	 eax, DWORD PTR _pComboData$[ebp]
  000d3	8b 48 04	 mov	 ecx, DWORD PTR [eax+4]
  000d6	2b 08		 sub	 ecx, DWORD PTR [eax]
  000d8	c1 f9 02	 sar	 ecx, 2
; File C:\Users\murat\Desktop\Siveps2-1-99-Project\source\client\Client\GameLib\ActorInstanceBattle.cpp

; 293  : 	if (m_dwcurComboIndex == pComboData->ComboIndexVector.size())

  000db	39 8f f8 03 00
	00		 cmp	 DWORD PTR [edi+1016], ecx
  000e1	75 07		 jne	 SHORT $LN5@RunNextCom

; 294  : 	{
; 295  : 		__OnEndCombo();

  000e3	8b cf		 mov	 ecx, edi
  000e5	e8 00 00 00 00	 call	 ?__OnEndCombo@CActorInstance@@IAEXXZ ; CActorInstance::__OnEndCombo
$LN5@RunNextCom:

; 296  : 	}
; 297  : }

  000ea	5f		 pop	 edi
  000eb	5e		 pop	 esi
  000ec	5b		 pop	 ebx
  000ed	8b e5		 mov	 esp, ebp
  000ef	5d		 pop	 ebp
  000f0	c3		 ret	 0
?__RunNextCombo@CActorInstance@@IAEXXZ ENDP		; CActorInstance::__RunNextCombo
_TEXT	ENDS
; Function compile flags: /Ogtp
; File C:\Users\murat\Desktop\Siveps2-1-99-Project\source\client\Client\GameLib\ActorInstanceBattle.cpp
;	COMDAT ?__CanPushDestActor@CActorInstance@@IAE_NAAV1@@Z
_TEXT	SEGMENT
tv162 = 8						; size = 4
_rkActorDst$ = 8					; size = 4
?__CanPushDestActor@CActorInstance@@IAE_NAAV1@@Z PROC	; CActorInstance::__CanPushDestActor, COMDAT
; _this$ = ecx

; 579  : {

  00000	55		 push	 ebp
  00001	8b ec		 mov	 ebp, esp
  00003	56		 push	 esi
  00004	57		 push	 edi

; 580  : 	if (rkActorDst.IsBuilding())

  00005	8b 7d 08	 mov	 edi, DWORD PTR _rkActorDst$[ebp]
  00008	8b f1		 mov	 esi, ecx
  0000a	8b cf		 mov	 ecx, edi
  0000c	e8 00 00 00 00	 call	 ?IsBuilding@CActorInstance@@QAE_NXZ ; CActorInstance::IsBuilding
  00011	84 c0		 test	 al, al
  00013	75 74		 jne	 SHORT $LN11@CanPushDes

; 581  : 		return false;
; 582  : 
; 583  : 	if (rkActorDst.IsDoor())

  00015	8b cf		 mov	 ecx, edi
  00017	e8 00 00 00 00	 call	 ?IsDoor@CActorInstance@@QAE_NXZ ; CActorInstance::IsDoor
  0001c	84 c0		 test	 al, al
  0001e	75 69		 jne	 SHORT $LN11@CanPushDes

; 584  : 		return false;
; 585  : 
; 586  : 	if (rkActorDst.IsStone())

  00020	8b cf		 mov	 ecx, edi
  00022	e8 00 00 00 00	 call	 ?IsStone@CActorInstance@@QAE_NXZ ; CActorInstance::IsStone
  00027	84 c0		 test	 al, al
  00029	75 5e		 jne	 SHORT $LN11@CanPushDes

; 587  : 		return false;
; 588  : 
; 589  : 	if (rkActorDst.IsNPC())

  0002b	8b cf		 mov	 ecx, edi
  0002d	e8 00 00 00 00	 call	 ?IsNPC@CActorInstance@@QAE_NXZ ; CActorInstance::IsNPC
  00032	84 c0		 test	 al, al
  00034	75 53		 jne	 SHORT $LN11@CanPushDes

; 590  : 		return false;
; 591  : 
; 592  : 	//    
; 593  : 	extern bool IS_HUGE_RACE(unsigned int vnum);
; 594  : 	if (IS_HUGE_RACE(rkActorDst.GetRace()))

  00036	8b cf		 mov	 ecx, edi
  00038	e8 00 00 00 00	 call	 ?GetRace@CActorInstance@@QAEKXZ ; CActorInstance::GetRace
  0003d	50		 push	 eax
  0003e	e8 00 00 00 00	 call	 ?IS_HUGE_RACE@@YA_NI@Z	; IS_HUGE_RACE
  00043	83 c4 04	 add	 esp, 4
  00046	84 c0		 test	 al, al
  00048	75 3f		 jne	 SHORT $LN11@CanPushDes

; 595  : 		return false;
; 596  : 
; 597  : 	if (rkActorDst.IsStun())

  0004a	8b cf		 mov	 ecx, edi
  0004c	e8 00 00 00 00	 call	 ?IsStun@CActorInstance@@QAEHXZ ; CActorInstance::IsStun
  00051	85 c0		 test	 eax, eax
  00053	75 2c		 jne	 SHORT $LN9@CanPushDes

; 598  : 		return true;
; 599  : 
; 600  : 	if (rkActorDst.__GetOwnerVID()!=GetVirtualID())

  00055	8b 06		 mov	 eax, DWORD PTR [esi]
  00057	8b ce		 mov	 ecx, esi
  00059	ff 50 48	 call	 DWORD PTR [eax+72]
  0005c	8b cf		 mov	 ecx, edi
  0005e	8b f0		 mov	 esi, eax
  00060	e8 00 00 00 00	 call	 ?__GetOwnerVID@CActorInstance@@IAEKXZ ; CActorInstance::__GetOwnerVID
  00065	3b c6		 cmp	 eax, esi
  00067	75 20		 jne	 SHORT $LN11@CanPushDes

; 601  : 		return false;
; 602  : 
; 603  : 	if (rkActorDst.__GetOwnerTime()>3.0f)

  00069	8b cf		 mov	 ecx, edi
  0006b	e8 00 00 00 00	 call	 ?__GetOwnerTime@CActorInstance@@IAEMXZ ; CActorInstance::__GetOwnerTime
  00070	d9 5d 08	 fstp	 DWORD PTR tv162[ebp]
  00073	f3 0f 10 45 08	 movss	 xmm0, DWORD PTR tv162[ebp]
  00078	0f 2f 05 00 00
	00 00		 comiss	 xmm0, DWORD PTR __real@40400000
  0007f	77 08		 ja	 SHORT $LN11@CanPushDes
$LN9@CanPushDes:
  00081	5f		 pop	 edi

; 605  : 
; 606  : 	return true;

  00082	b0 01		 mov	 al, 1

; 607  : }

  00084	5e		 pop	 esi
  00085	5d		 pop	 ebp
  00086	c2 04 00	 ret	 4
$LN11@CanPushDes:
  00089	5f		 pop	 edi

; 604  : 		return false;

  0008a	32 c0		 xor	 al, al

; 607  : }

  0008c	5e		 pop	 esi
  0008d	5d		 pop	 ebp
  0008e	c2 04 00	 ret	 4
?__CanPushDestActor@CActorInstance@@IAE_NAAV1@@Z ENDP	; CActorInstance::__CanPushDestActor
_TEXT	ENDS
; Function compile flags: /Ogtp
; File C:\Users\murat\Desktop\Siveps2-1-99-Project\source\client\Client\GameLib\ActorInstanceBattle.cpp
;	COMDAT ?__GetOwnerVID@CActorInstance@@IAEKXZ
_TEXT	SEGMENT
?__GetOwnerVID@CActorInstance@@IAEKXZ PROC		; CActorInstance::__GetOwnerVID, COMDAT
; _this$ = ecx

; 544  : 	return m_dwOwnerVID;

  00000	8b 81 5c 05 00
	00		 mov	 eax, DWORD PTR [ecx+1372]

; 545  : }

  00006	c3		 ret	 0
?__GetOwnerVID@CActorInstance@@IAEKXZ ENDP		; CActorInstance::__GetOwnerVID
_TEXT	ENDS
; Function compile flags: /Ogtp
; File C:\Users\murat\Desktop\Siveps2-1-99-Project\source\client\Client\GameLib\ActorInstanceBattle.cpp
;	COMDAT ?__GetOwnerTime@CActorInstance@@IAEMXZ
_TEXT	SEGMENT
?__GetOwnerTime@CActorInstance@@IAEMXZ PROC		; CActorInstance::__GetOwnerTime, COMDAT
; _this$ = ecx

; 548  : {

  00000	56		 push	 esi
  00001	8b f1		 mov	 esi, ecx

; 549  : 	return GetLocalTime()-m_fOwnerBaseTime;

  00003	e8 00 00 00 00	 call	 ?GetLocalTime@CGraphicThingInstance@@QAEMXZ ; CGraphicThingInstance::GetLocalTime
  00008	d8 a6 c4 04 00
	00		 fsub	 DWORD PTR [esi+1220]
  0000e	5e		 pop	 esi

; 550  : }

  0000f	c3		 ret	 0
?__GetOwnerTime@CActorInstance@@IAEMXZ ENDP		; CActorInstance::__GetOwnerTime
_TEXT	ENDS
; Function compile flags: /Ogtp
; File C:\Users\murat\Desktop\Siveps2-1-99-Project\source\client\Client\GameLib\ActorInstanceBattle.cpp
; File C:\Program Files (x86)\Microsoft Visual Studio\2019\Professional\VC\Tools\MSVC\14.29.30133\include\vector
; File C:\Users\murat\Desktop\Siveps2-1-99-Project\source\client\Client\GameLib\ActorInstanceBattle.cpp
; File C:\Program Files (x86)\Microsoft Visual Studio\2019\Professional\VC\Tools\MSVC\14.29.30133\include\vector
; File C:\Users\murat\Desktop\Siveps2-1-99-Project\source\client\Client\GameLib\ActorInstanceBattle.cpp
; File C:\Program Files (x86)\Microsoft Visual Studio\2019\Professional\VC\Tools\MSVC\14.29.30133\include\vector
; File C:\Users\murat\Desktop\Siveps2-1-99-Project\source\client\Client\GameLib\ActorInstanceBattle.cpp
;	COMDAT ?isValidAttacking@CActorInstance@@IAEHXZ
_TEXT	SEGMENT
_fElapsedTime$ = -4					; size = 4
?isValidAttacking@CActorInstance@@IAEHXZ PROC		; CActorInstance::isValidAttacking, COMDAT
; _this$ = ecx

; 334  : {

  00000	55		 push	 ebp
  00001	8b ec		 mov	 ebp, esp
  00003	51		 push	 ecx
  00004	57		 push	 edi
  00005	8b f9		 mov	 edi, ecx

; 335  : 	if (!m_pkCurRaceMotionData)

  00007	8b 8f 24 04 00
	00		 mov	 ecx, DWORD PTR [edi+1060]
  0000d	85 c9		 test	 ecx, ecx
  0000f	74 51		 je	 SHORT $LN28@isValidAtt

; 336  : 		return FALSE;
; 337  : 
; 338  : 	if (!m_pkCurRaceMotionData->isAttackingMotion())

  00011	e8 00 00 00 00	 call	 ?isAttackingMotion@CRaceMotionData@@QBEHXZ ; CRaceMotionData::isAttackingMotion
  00016	85 c0		 test	 eax, eax
  00018	74 48		 je	 SHORT $LN28@isValidAtt

; 340  : 
; 341  : 	const NRaceData::TMotionAttackData * c_pData = m_pkCurRaceMotionData->GetMotionAttackDataPointer();

  0001a	8b 8f 24 04 00
	00		 mov	 ecx, DWORD PTR [edi+1060]
  00020	56		 push	 esi
  00021	e8 00 00 00 00	 call	 ?GetMotionAttackDataPointer@CRaceMotionData@@QBEPBUSMotionAttackData@NRaceData@@XZ ; CRaceMotionData::GetMotionAttackDataPointer

; 342  : 	float fElapsedTime = GetAttackingElapsedTime();

  00026	8b cf		 mov	 ecx, edi
  00028	8b f0		 mov	 esi, eax
  0002a	e8 00 00 00 00	 call	 ?GetAttackingElapsedTime@CActorInstance@@QAEMXZ ; CActorInstance::GetAttackingElapsedTime
; File C:\Program Files (x86)\Microsoft Visual Studio\2019\Professional\VC\Tools\MSVC\14.29.30133\include\vector

; 42   :     _CONSTEXPR20_CONTAINER _Vector_const_iterator(_Tptr _Parg, const _Container_base* _Pvector) noexcept : _Ptr(_Parg) {

  0002f	8b 4e 1c	 mov	 ecx, DWORD PTR [esi+28]
  00032	8b 46 20	 mov	 eax, DWORD PTR [esi+32]
; File C:\Users\murat\Desktop\Siveps2-1-99-Project\source\client\Client\GameLib\ActorInstanceBattle.cpp

; 342  : 	float fElapsedTime = GetAttackingElapsedTime();

  00035	d9 5d fc	 fstp	 DWORD PTR _fElapsedTime$[ebp]
; File C:\Program Files (x86)\Microsoft Visual Studio\2019\Professional\VC\Tools\MSVC\14.29.30133\include\vector

; 42   :     _CONSTEXPR20_CONTAINER _Vector_const_iterator(_Tptr _Parg, const _Container_base* _Pvector) noexcept : _Ptr(_Parg) {

  00038	5e		 pop	 esi
  00039	3b c8		 cmp	 ecx, eax
; File C:\Users\murat\Desktop\Siveps2-1-99-Project\source\client\Client\GameLib\ActorInstanceBattle.cpp

; 344  : 	for (; itor != c_pData->HitDataContainer.end(); ++itor)

  0003b	74 1b		 je	 SHORT $LN29@isValidAtt
  0003d	f3 0f 10 4d fc	 movss	 xmm1, DWORD PTR _fElapsedTime$[ebp]
$LL14@isValidAtt:

; 345  : 	{
; 346  : 		const NRaceData::THitData & c_rHitData = *itor;
; 347  : 		if (fElapsedTime > c_rHitData.fAttackStartTime &&

  00042	0f 2f 09	 comiss	 xmm1, DWORD PTR [ecx]
  00045	76 0a		 jbe	 SHORT $LN2@isValidAtt
  00047	f3 0f 10 41 04	 movss	 xmm0, DWORD PTR [ecx+4]
  0004c	0f 2f c1	 comiss	 xmm0, xmm1
  0004f	77 07		 ja	 SHORT $LN29@isValidAtt
$LN2@isValidAtt:
; File C:\Program Files (x86)\Microsoft Visual Studio\2019\Professional\VC\Tools\MSVC\14.29.30133\include\vector

; 78   :         ++_Ptr;

  00051	83 c1 2c	 add	 ecx, 44			; 0000002cH

; 154  :         return _Ptr == _Right._Ptr;

  00054	3b c8		 cmp	 ecx, eax
; File C:\Users\murat\Desktop\Siveps2-1-99-Project\source\client\Client\GameLib\ActorInstanceBattle.cpp

; 344  : 	for (; itor != c_pData->HitDataContainer.end(); ++itor)

  00056	75 ea		 jne	 SHORT $LL14@isValidAtt
$LN29@isValidAtt:

; 348  : 			fElapsedTime < c_rHitData.fAttackEndTime)
; 349  : 			return TRUE;
; 350  : 	}
; 351  : 
; 352  : 	return TRUE;

  00058	b8 01 00 00 00	 mov	 eax, 1
  0005d	5f		 pop	 edi

; 353  : }

  0005e	8b e5		 mov	 esp, ebp
  00060	5d		 pop	 ebp
  00061	c3		 ret	 0
$LN28@isValidAtt:

; 339  : 		return FALSE;

  00062	33 c0		 xor	 eax, eax
  00064	5f		 pop	 edi

; 353  : }

  00065	8b e5		 mov	 esp, ebp
  00067	5d		 pop	 ebp
  00068	c3		 ret	 0
?isValidAttacking@CActorInstance@@IAEHXZ ENDP		; CActorInstance::isValidAttacking
_TEXT	ENDS
; Function compile flags: /Ogtp
; File C:\Users\murat\Desktop\Siveps2-1-99-Project\source\client\Client\GameLib\ActorInstanceBattle.cpp
;	COMDAT ?__IsInSplashTime@CActorInstance@@IAE_NXZ
_TEXT	SEGMENT
tv128 = -4						; size = 4
?__IsInSplashTime@CActorInstance@@IAE_NXZ PROC		; CActorInstance::__IsInSplashTime, COMDAT
; _this$ = ecx

; 364  : {

  00000	55		 push	 ebp
  00001	8b ec		 mov	 ebp, esp
  00003	51		 push	 ecx
  00004	56		 push	 esi
  00005	8b f1		 mov	 esi, ecx

; 365  : 	if (m_kSplashArea.fDisappearingTime>GetLocalTime())

  00007	e8 00 00 00 00	 call	 ?GetLocalTime@CGraphicThingInstance@@QAEMXZ ; CGraphicThingInstance::GetLocalTime
  0000c	f3 0f 10 86 54
	03 00 00	 movss	 xmm0, DWORD PTR [esi+852]
  00014	d9 5d fc	 fstp	 DWORD PTR tv128[ebp]
  00017	0f 2f 45 fc	 comiss	 xmm0, DWORD PTR tv128[ebp]
  0001b	5e		 pop	 esi
  0001c	0f 97 c0	 seta	 al

; 366  : 		return true;
; 367  : 
; 368  : 	return false;
; 369  : }

  0001f	8b e5		 mov	 esp, ebp
  00021	5d		 pop	 ebp
  00022	c3		 ret	 0
?__IsInSplashTime@CActorInstance@@IAE_NXZ ENDP		; CActorInstance::__IsInSplashTime
_TEXT	ENDS
; Function compile flags: /Ogtp
; File C:\Users\murat\Desktop\Siveps2-1-99-Project\source\client\Client\GameLib\ActorInstanceBattle.cpp
;	COMDAT ?__Shake@CActorInstance@@AAEXK@Z
_TEXT	SEGMENT
_dwDuration$ = 8					; size = 4
?__Shake@CActorInstance@@AAEXK@Z PROC			; CActorInstance::__Shake, COMDAT
; _this$ = ecx

; 745  : {

  00000	55		 push	 ebp
  00001	8b ec		 mov	 ebp, esp
  00003	56		 push	 esi
  00004	8b f1		 mov	 esi, ecx

; 746  : 	DWORD dwCurTime=ELTimer_GetMSec();

  00006	e8 00 00 00 00	 call	 ?ELTimer_GetMSec@@YAKXZ	; ELTimer_GetMSec

; 747  : 	m_dwShakeTime=dwCurTime+dwDuration;

  0000b	03 45 08	 add	 eax, DWORD PTR _dwDuration$[ebp]
  0000e	89 86 90 04 00
	00		 mov	 DWORD PTR [esi+1168], eax
  00014	5e		 pop	 esi

; 748  : }

  00015	5d		 pop	 ebp
  00016	c2 04 00	 ret	 4
?__Shake@CActorInstance@@AAEXK@Z ENDP			; CActorInstance::__Shake
_TEXT	ENDS
; Function compile flags: /Ogtp
; File C:\Users\murat\Desktop\Siveps2-1-99-Project\source\client\Client\GameLib\ActorInstanceBattle.cpp
;	COMDAT ?__CanInputNormalAttackCommand@CActorInstance@@QAE_NXZ
_TEXT	SEGMENT
tv130 = -8						; size = 4
_fElapsedTime$1 = -4					; size = 4
?__CanInputNormalAttackCommand@CActorInstance@@QAE_NXZ PROC ; CActorInstance::__CanInputNormalAttackCommand, COMDAT
; _this$ = ecx

; 465  : {

  00000	55		 push	 ebp
  00001	8b ec		 mov	 ebp, esp
  00003	83 ec 08	 sub	 esp, 8
  00006	56		 push	 esi
  00007	8b f1		 mov	 esi, ecx

; 466  : 	if (IsWaiting())

  00009	e8 00 00 00 00	 call	 ?IsWaiting@CActorInstance@@QAEHXZ ; CActorInstance::IsWaiting
  0000e	85 c0		 test	 eax, eax
  00010	75 3b		 jne	 SHORT $LN6@CanInputNo

; 467  : 		return true;
; 468  : 
; 469  : 	if (isNormalAttacking())

  00012	8b ce		 mov	 ecx, esi
  00014	e8 00 00 00 00	 call	 ?isNormalAttacking@CActorInstance@@QAEHXZ ; CActorInstance::isNormalAttacking
  00019	85 c0		 test	 eax, eax
  0001b	74 29		 je	 SHORT $LN4@CanInputNo

; 470  : 	{
; 471  : 		float fElapsedTime = GetAttackingElapsedTime();

  0001d	8b ce		 mov	 ecx, esi
  0001f	e8 00 00 00 00	 call	 ?GetAttackingElapsedTime@CActorInstance@@QAEMXZ ; CActorInstance::GetAttackingElapsedTime

; 472  : 
; 473  : 		if (fElapsedTime > m_pkCurRaceMotionData->GetMotionDuration()*0.9f)

  00024	8b 8e 24 04 00
	00		 mov	 ecx, DWORD PTR [esi+1060]
  0002a	d9 5d fc	 fstp	 DWORD PTR _fElapsedTime$1[ebp]
  0002d	e8 00 00 00 00	 call	 ?GetMotionDuration@CRaceMotionData@@QAEMXZ ; CRaceMotionData::GetMotionDuration
  00032	d8 0d 00 00 00
	00		 fmul	 DWORD PTR __real@3f666666
  00038	f3 0f 10 45 fc	 movss	 xmm0, DWORD PTR _fElapsedTime$1[ebp]
  0003d	d9 5d f8	 fstp	 DWORD PTR tv130[ebp]
  00040	0f 2f 45 f8	 comiss	 xmm0, DWORD PTR tv130[ebp]
  00044	77 07		 ja	 SHORT $LN6@CanInputNo
$LN4@CanInputNo:

; 475  : 	}
; 476  : 
; 477  : 	return false;

  00046	32 c0		 xor	 al, al
  00048	5e		 pop	 esi

; 478  : }

  00049	8b e5		 mov	 esp, ebp
  0004b	5d		 pop	 ebp
  0004c	c3		 ret	 0
$LN6@CanInputNo:

; 474  : 			return true;

  0004d	b0 01		 mov	 al, 1
  0004f	5e		 pop	 esi

; 478  : }

  00050	8b e5		 mov	 esp, ebp
  00052	5d		 pop	 ebp
  00053	c3		 ret	 0
?__CanInputNormalAttackCommand@CActorInstance@@QAE_NXZ ENDP ; CActorInstance::__CanInputNormalAttackCommand
_TEXT	ENDS
; Function compile flags: /Ogtp
; File C:\Users\murat\Desktop\Siveps2-1-99-Project\source\client\Client\GameLib\ActorInstanceBattle.cpp
; File C:\Users\murat\Desktop\Siveps2-1-99-Project\source\client\extern\include\d3dx8math.inl
; File C:\Users\murat\Desktop\Siveps2-1-99-Project\source\client\Client\GameLib\ActorInstanceBattle.cpp
;	COMDAT ?ShakeProcess@CActorInstance@@QAEXXZ
_TEXT	SEGMENT
_v3Pos$1$sroa$187$1$ = -8				; size = 4
$T2 = -4						; size = 4
?ShakeProcess@CActorInstance@@QAEXXZ PROC		; CActorInstance::ShakeProcess, COMDAT
; _this$ = ecx

; 751  : {

  00000	55		 push	 ebp
  00001	8b ec		 mov	 ebp, esp
  00003	83 ec 08	 sub	 esp, 8
  00006	56		 push	 esi
  00007	8b f1		 mov	 esi, ecx

; 752  : 	if (m_dwShakeTime)

  00009	83 be 90 04 00
	00 00		 cmp	 DWORD PTR [esi+1168], 0
  00010	0f 84 61 01 00
	00		 je	 $LN8@ShakeProce
  00016	0f 57 c0	 xorps	 xmm0, xmm0
; File C:\Users\murat\Desktop\Siveps2-1-99-Project\source\client\extern\include\d3dx8math.inl

; 181  :     y = fy;

  00019	f3 0f 11 45 f8	 movss	 DWORD PTR _v3Pos$1$sroa$187$1$[ebp], xmm0
; File C:\Users\murat\Desktop\Siveps2-1-99-Project\source\client\Client\GameLib\ActorInstanceBattle.cpp

; 756  : 		DWORD dwCurTime=ELTimer_GetMSec();

  0001e	e8 00 00 00 00	 call	 ?ELTimer_GetMSec@@YAKXZ	; ELTimer_GetMSec

; 757  : 
; 758  : 		if (m_dwShakeTime<dwCurTime)

  00023	0f 57 c9	 xorps	 xmm1, xmm1
  00026	39 86 90 04 00
	00		 cmp	 DWORD PTR [esi+1168], eax
  0002c	73 12		 jae	 SHORT $LN9@ShakeProce

; 759  : 		{
; 760  : 			m_dwShakeTime=0;

  0002e	c7 86 90 04 00
	00 00 00 00 00	 mov	 DWORD PTR [esi+1168], 0
  00038	0f 57 c0	 xorps	 xmm0, xmm0

; 761  : 		}

  0003b	e9 02 01 00 00	 jmp	 $LN6@ShakeProce
$LN9@ShakeProce:
  00040	57		 push	 edi

; 762  : 		else
; 763  : 		{
; 764  : 			int nShakeSize=10;
; 765  : 
; 766  : 			switch (rand()%2)

  00041	f3 0f 11 4d fc	 movss	 DWORD PTR $T2[ebp], xmm1
  00046	e8 00 00 00 00	 call	 _rand
  0004b	25 01 00 00 80	 and	 eax, -2147483647	; 80000001H
  00050	79 05		 jns	 SHORT $LN22@ShakeProce
  00052	48		 dec	 eax
  00053	83 c8 fe	 or	 eax, -2			; fffffffeH
  00056	40		 inc	 eax
$LN22@ShakeProce:
  00057	bf 0a 00 00 00	 mov	 edi, 10			; 0000000aH
  0005c	83 e8 00	 sub	 eax, 0
  0005f	74 1d		 je	 SHORT $LN11@ShakeProce
  00061	83 e8 01	 sub	 eax, 1
  00064	75 34		 jne	 SHORT $LN2@ShakeProce

; 769  : 				case 1:v3Pos.x-=rand()%nShakeSize;break;

  00066	e8 00 00 00 00	 call	 _rand
  0006b	99		 cdq
  0006c	0f 57 c9	 xorps	 xmm1, xmm1
  0006f	f7 ff		 idiv	 edi
  00071	66 0f 6e c2	 movd	 xmm0, edx
  00075	0f 5b c0	 cvtdq2ps xmm0, xmm0
  00078	f3 0f 5c c8	 subss	 xmm1, xmm0
  0007c	eb 17		 jmp	 SHORT $LN25@ShakeProce
$LN11@ShakeProce:

; 767  : 			{
; 768  : 				case 0:v3Pos.x+=rand()%nShakeSize;break;

  0007e	e8 00 00 00 00	 call	 _rand
  00083	99		 cdq
  00084	f7 ff		 idiv	 edi
  00086	66 0f 6e ca	 movd	 xmm1, edx
  0008a	0f 5b c9	 cvtdq2ps xmm1, xmm1
  0008d	f3 0f 58 0d 00
	00 00 00	 addss	 xmm1, DWORD PTR __real@00000000
$LN25@ShakeProce:

; 770  : 			}
; 771  : 
; 772  : 			switch (rand()%2)

  00095	f3 0f 11 4d fc	 movss	 DWORD PTR $T2[ebp], xmm1
$LN2@ShakeProce:
  0009a	e8 00 00 00 00	 call	 _rand
  0009f	25 01 00 00 80	 and	 eax, -2147483647	; 80000001H
  000a4	79 05		 jns	 SHORT $LN23@ShakeProce
  000a6	48		 dec	 eax
  000a7	83 c8 fe	 or	 eax, -2			; fffffffeH
  000aa	40		 inc	 eax
$LN23@ShakeProce:
  000ab	83 e8 00	 sub	 eax, 0
  000ae	74 22		 je	 SHORT $LN13@ShakeProce
  000b0	83 e8 01	 sub	 eax, 1
  000b3	75 39		 jne	 SHORT $LN4@ShakeProce

; 775  : 				case 1:v3Pos.y-=rand()%nShakeSize;break;

  000b5	e8 00 00 00 00	 call	 _rand
  000ba	99		 cdq
  000bb	0f 57 c9	 xorps	 xmm1, xmm1
  000be	f7 ff		 idiv	 edi
  000c0	66 0f 6e c2	 movd	 xmm0, edx
  000c4	0f 5b c0	 cvtdq2ps xmm0, xmm0
  000c7	f3 0f 5c c8	 subss	 xmm1, xmm0
  000cb	f3 0f 11 4d f8	 movss	 DWORD PTR _v3Pos$1$sroa$187$1$[ebp], xmm1
  000d0	eb 1c		 jmp	 SHORT $LN4@ShakeProce
$LN13@ShakeProce:

; 773  : 			{
; 774  : 				case 0:v3Pos.y+=rand()%nShakeSize;break;

  000d2	e8 00 00 00 00	 call	 _rand
  000d7	99		 cdq
  000d8	f7 ff		 idiv	 edi
  000da	66 0f 6e c2	 movd	 xmm0, edx
  000de	0f 5b c0	 cvtdq2ps xmm0, xmm0
  000e1	f3 0f 58 05 00
	00 00 00	 addss	 xmm0, DWORD PTR __real@00000000
  000e9	f3 0f 11 45 f8	 movss	 DWORD PTR _v3Pos$1$sroa$187$1$[ebp], xmm0
$LN4@ShakeProce:

; 776  : 			}
; 777  : 
; 778  : 			switch (rand()%2)

  000ee	e8 00 00 00 00	 call	 _rand
  000f3	25 01 00 00 80	 and	 eax, -2147483647	; 80000001H
  000f8	79 05		 jns	 SHORT $LN24@ShakeProce
  000fa	48		 dec	 eax
  000fb	83 c8 fe	 or	 eax, -2			; fffffffeH
  000fe	40		 inc	 eax
$LN24@ShakeProce:
  000ff	83 e8 00	 sub	 eax, 0
  00102	74 1d		 je	 SHORT $LN15@ShakeProce
  00104	83 e8 01	 sub	 eax, 1
  00107	75 30		 jne	 SHORT $LN20@ShakeProce

; 781  : 				case 1:v3Pos.z-=rand()%nShakeSize;break;

  00109	e8 00 00 00 00	 call	 _rand
  0010e	99		 cdq
  0010f	0f 57 c9	 xorps	 xmm1, xmm1
  00112	f7 ff		 idiv	 edi
  00114	66 0f 6e c2	 movd	 xmm0, edx
  00118	0f 5b c0	 cvtdq2ps xmm0, xmm0
  0011b	f3 0f 5c c8	 subss	 xmm1, xmm0
  0011f	eb 1b		 jmp	 SHORT $LN26@ShakeProce
$LN15@ShakeProce:

; 779  : 			{
; 780  : 				case 0:v3Pos.z+=rand()%nShakeSize;break;

  00121	e8 00 00 00 00	 call	 _rand
  00126	99		 cdq
  00127	0f 57 c9	 xorps	 xmm1, xmm1
  0012a	f7 ff		 idiv	 edi
  0012c	66 0f 6e c2	 movd	 xmm0, edx
  00130	0f 5b c0	 cvtdq2ps xmm0, xmm0
  00133	f3 0f 58 c8	 addss	 xmm1, xmm0
  00137	eb 03		 jmp	 SHORT $LN26@ShakeProce
$LN20@ShakeProce:
  00139	0f 57 c9	 xorps	 xmm1, xmm1
$LN26@ShakeProce:

; 776  : 			}
; 777  : 
; 778  : 			switch (rand()%2)

  0013c	f3 0f 10 45 fc	 movss	 xmm0, DWORD PTR $T2[ebp]
  00141	5f		 pop	 edi
$LN6@ShakeProce:

; 782  : 			}
; 783  : 		}
; 784  : 
; 785  : 		m_worldMatrix._41	+= v3Pos.x;

  00142	f3 0f 58 86 9c
	00 00 00	 addss	 xmm0, DWORD PTR [esi+156]

; 786  : 		m_worldMatrix._42	+= v3Pos.y;
; 787  : 		m_worldMatrix._43	+= v3Pos.z;

  0014a	f3 0f 58 8e a4
	00 00 00	 addss	 xmm1, DWORD PTR [esi+164]
  00152	f3 0f 11 86 9c
	00 00 00	 movss	 DWORD PTR [esi+156], xmm0
  0015a	f3 0f 10 45 f8	 movss	 xmm0, DWORD PTR _v3Pos$1$sroa$187$1$[ebp]
  0015f	f3 0f 58 86 a0
	00 00 00	 addss	 xmm0, DWORD PTR [esi+160]
  00167	f3 0f 11 8e a4
	00 00 00	 movss	 DWORD PTR [esi+164], xmm1
  0016f	f3 0f 11 86 a0
	00 00 00	 movss	 DWORD PTR [esi+160], xmm0
$LN8@ShakeProce:
  00177	5e		 pop	 esi

; 788  : 	}
; 789  : }

  00178	8b e5		 mov	 esp, ebp
  0017a	5d		 pop	 ebp
  0017b	c3		 ret	 0
?ShakeProcess@CActorInstance@@QAEXXZ ENDP		; CActorInstance::ShakeProcess
_TEXT	ENDS
; Function compile flags: /Ogtp
; File C:\Users\murat\Desktop\Siveps2-1-99-Project\source\client\Client\GameLib\ActorInstanceBattle.cpp
;	COMDAT ?ComboProcess@CActorInstance@@QAEXXZ
_TEXT	SEGMENT
tv156 = -8						; size = 4
_fElapsedTime$1 = -4					; size = 4
?ComboProcess@CActorInstance@@QAEXXZ PROC		; CActorInstance::ComboProcess, COMDAT
; _this$ = ecx

; 217  : {

  00000	55		 push	 ebp
  00001	8b ec		 mov	 ebp, esp
  00003	83 ec 08	 sub	 esp, 8
  00006	56		 push	 esi
  00007	8b f1		 mov	 esi, ecx

; 218  : 	// If combo is on action
; 219  : 	if (0 != m_dwcurComboIndex)

  00009	8b 86 f8 03 00
	00		 mov	 eax, DWORD PTR [esi+1016]
  0000f	85 c0		 test	 eax, eax
  00011	74 63		 je	 SHORT $LN2@ComboProce

; 220  : 	{
; 221  : 		if (!m_pkCurRaceMotionData)

  00013	83 be 24 04 00
	00 00		 cmp	 DWORD PTR [esi+1060], 0
  0001a	75 1a		 jne	 SHORT $LN4@ComboProce

; 222  : 		{
; 223  : 			Tracef("Attacking motion data is NULL! : %d\n", m_dwcurComboIndex);

  0001c	50		 push	 eax
  0001d	68 00 00 00 00	 push	 OFFSET ??_C@_0CF@IFJHLB@Attacking?5motion?5data?5is?5NULL?$CB?5@
  00022	e8 00 00 00 00	 call	 ?Tracef@@YAXPBDZZ	; Tracef
  00027	83 c4 08	 add	 esp, 8

; 224  : 			__ClearCombo();

  0002a	8b ce		 mov	 ecx, esi
  0002c	e8 00 00 00 00	 call	 ?__ClearCombo@CActorInstance@@IAEXXZ ; CActorInstance::__ClearCombo
  00031	5e		 pop	 esi

; 252  : 		}
; 253  : 	}
; 254  : }

  00032	8b e5		 mov	 esp, ebp
  00034	5d		 pop	 ebp
  00035	c3		 ret	 0
$LN4@ComboProce:

; 225  : 			return;
; 226  : 		}
; 227  : 
; 228  : 		float fElapsedTime = GetAttackingElapsedTime();

  00036	e8 00 00 00 00	 call	 ?GetAttackingElapsedTime@CActorInstance@@QAEMXZ ; CActorInstance::GetAttackingElapsedTime

; 229  : 
; 230  : 		// Process PreInput
; 231  : 		if (m_isPreInput)

  0003b	83 be 0c 04 00
	00 00		 cmp	 DWORD PTR [esi+1036], 0
  00042	d9 5d fc	 fstp	 DWORD PTR _fElapsedTime$1[ebp]
  00045	74 5b		 je	 SHORT $LN8@ComboProce

; 232  : 		{
; 233  : 			//Tracenf(" %f  %f", fElapsedTime, m_pkCurRaceMotionData->GetNextComboTime());
; 234  : 			if (fElapsedTime > m_pkCurRaceMotionData->GetNextComboTime())

  00047	8b 8e 24 04 00
	00		 mov	 ecx, DWORD PTR [esi+1060]
  0004d	e8 00 00 00 00	 call	 ?GetNextComboTime@CRaceMotionData@@QBEMXZ ; CRaceMotionData::GetNextComboTime
  00052	f3 0f 10 45 fc	 movss	 xmm0, DWORD PTR _fElapsedTime$1[ebp]
  00057	d9 5d f8	 fstp	 DWORD PTR tv156[ebp]
  0005a	0f 2f 45 f8	 comiss	 xmm0, DWORD PTR tv156[ebp]
  0005e	76 42		 jbe	 SHORT $LN8@ComboProce

; 235  : 			{
; 236  :   				__RunNextCombo();

  00060	8b ce		 mov	 ecx, esi
  00062	e8 00 00 00 00	 call	 ?__RunNextCombo@CActorInstance@@IAEXXZ ; CActorInstance::__RunNextCombo

; 237  : 				m_isPreInput = FALSE;

  00067	c7 86 0c 04 00
	00 00 00 00 00	 mov	 DWORD PTR [esi+1036], 0
  00071	5e		 pop	 esi

; 252  : 		}
; 253  : 	}
; 254  : }

  00072	8b e5		 mov	 esp, ebp
  00074	5d		 pop	 ebp
  00075	c3		 ret	 0
$LN2@ComboProce:

; 238  : 
; 239  : 				return;
; 240  : 			}
; 241  : 		}
; 242  : 	}
; 243  : 	else
; 244  : 	{
; 245  : 		m_isPreInput = FALSE;

  00076	c7 86 0c 04 00
	00 00 00 00 00	 mov	 DWORD PTR [esi+1036], 0

; 246  : 
; 247  : 		if (!IsUsingSkill())	// m_isNextPreInput    

  00080	e8 00 00 00 00	 call	 ?IsUsingSkill@CActorInstance@@QAEHXZ ; CActorInstance::IsUsingSkill
  00085	85 c0		 test	 eax, eax
  00087	75 19		 jne	 SHORT $LN8@ComboProce

; 248  : 		if (m_isNextPreInput)	//      

  00089	39 86 10 04 00
	00		 cmp	 DWORD PTR [esi+1040], eax
  0008f	74 11		 je	 SHORT $LN8@ComboProce

; 249  : 		{
; 250  : 			__RunNextCombo();

  00091	8b ce		 mov	 ecx, esi
  00093	e8 00 00 00 00	 call	 ?__RunNextCombo@CActorInstance@@IAEXXZ ; CActorInstance::__RunNextCombo

; 251  : 			m_isNextPreInput = FALSE;

  00098	c7 86 10 04 00
	00 00 00 00 00	 mov	 DWORD PTR [esi+1040], 0
$LN8@ComboProce:
  000a2	5e		 pop	 esi

; 252  : 		}
; 253  : 	}
; 254  : }

  000a3	8b e5		 mov	 esp, ebp
  000a5	5d		 pop	 ebp
  000a6	c3		 ret	 0
?ComboProcess@CActorInstance@@QAEXXZ ENDP		; CActorInstance::ComboProcess
_TEXT	ENDS
; Function compile flags: /Ogtp
; File C:\Users\murat\Desktop\Siveps2-1-99-Project\source\client\Client\GameLib\ActorInstanceBattle.cpp
;	COMDAT ?OnShootDamage@CActorInstance@@UAEXXZ
_TEXT	SEGMENT
?OnShootDamage@CActorInstance@@UAEXXZ PROC		; CActorInstance::OnShootDamage, COMDAT
; _this$ = ecx

; 727  : {

  00000	56		 push	 esi

; 728  : 	if (IsStun())

  00001	8d b1 58 fd ff
	ff		 lea	 esi, DWORD PTR [ecx-680]
  00007	8b ce		 mov	 ecx, esi
  00009	e8 00 00 00 00	 call	 ?IsStun@CActorInstance@@QAEHXZ ; CActorInstance::IsStun
  0000e	8b ce		 mov	 ecx, esi
  00010	85 c0		 test	 eax, eax
  00012	74 06		 je	 SHORT $LN2@OnShootDam
  00014	5e		 pop	 esi

; 729  : 	{
; 730  : 		Die();

  00015	e9 00 00 00 00	 jmp	 ?Die@CActorInstance@@QAEXXZ ; CActorInstance::Die
$LN2@OnShootDam:

; 731  : 	}
; 732  : 	else
; 733  : 	{
; 734  : 		__Shake(100);

  0001a	6a 64		 push	 100			; 00000064H
  0001c	e8 00 00 00 00	 call	 ?__Shake@CActorInstance@@AAEXK@Z ; CActorInstance::__Shake

; 735  : 
; 736  : 		if (!isLock() && !__IsKnockDownMotion() && !__IsStandUpMotion())

  00021	8b ce		 mov	 ecx, esi
  00023	e8 00 00 00 00	 call	 ?isLock@CActorInstance@@QAEHXZ ; CActorInstance::isLock
  00028	85 c0		 test	 eax, eax
  0002a	75 50		 jne	 SHORT $LN5@OnShootDam
  0002c	8b ce		 mov	 ecx, esi
  0002e	e8 00 00 00 00	 call	 ?__IsKnockDownMotion@CActorInstance@@IAE_NXZ ; CActorInstance::__IsKnockDownMotion
  00033	84 c0		 test	 al, al
  00035	75 45		 jne	 SHORT $LN5@OnShootDam
  00037	8b ce		 mov	 ecx, esi
  00039	e8 00 00 00 00	 call	 ?__IsStandUpMotion@CActorInstance@@IAE_NXZ ; CActorInstance::__IsStandUpMotion
  0003e	84 c0		 test	 al, al
  00040	75 3a		 jne	 SHORT $LN5@OnShootDam

; 737  : 		{
; 738  : 			if (InterceptOnceMotion(CRaceMotionData::NAME_DAMAGE))

  00042	51		 push	 ecx
  00043	c7 04 24 00 00
	80 3f		 mov	 DWORD PTR [esp], 1065353216 ; 3f800000H
  0004a	6a 00		 push	 0
  0004c	51		 push	 ecx
  0004d	c7 04 24 cd cc
	cc 3d		 mov	 DWORD PTR [esp], 1036831949 ; 3dcccccdH
  00054	8b ce		 mov	 ecx, esi
  00056	6a 05		 push	 5
  00058	e8 00 00 00 00	 call	 ?InterceptOnceMotion@CActorInstance@@QAE_NKMIM@Z ; CActorInstance::InterceptOnceMotion
  0005d	84 c0		 test	 al, al
  0005f	74 1b		 je	 SHORT $LN5@OnShootDam

; 739  : 				PushLoopMotion(CRaceMotionData::NAME_WAIT);

  00061	83 ec 08	 sub	 esp, 8
  00064	8b ce		 mov	 ecx, esi
  00066	c7 44 24 04 00
	00 80 3f	 mov	 DWORD PTR [esp+4], 1065353216 ; 3f800000H
  0006e	c7 04 24 cd cc
	cc 3d		 mov	 DWORD PTR [esp], 1036831949 ; 3dcccccdH
  00075	6a 01		 push	 1
  00077	e8 00 00 00 00	 call	 ?PushLoopMotion@CActorInstance@@QAE_NKMM@Z ; CActorInstance::PushLoopMotion
$LN5@OnShootDam:

; 740  : 		}
; 741  : 	}
; 742  : }

  0007c	5e		 pop	 esi
  0007d	c3		 ret	 0
?OnShootDamage@CActorInstance@@UAEXXZ ENDP		; CActorInstance::OnShootDamage
_TEXT	ENDS
; Function compile flags: /Ogtp
; File C:\Users\murat\Desktop\Siveps2-1-99-Project\source\client\Client\GameLib\ActorInstanceBattle.cpp
;	COMDAT ?CanFishing@CActorInstance@@QAE_NXZ
_TEXT	SEGMENT
?CanFishing@CActorInstance@@QAE_NXZ PROC		; CActorInstance::CanFishing, COMDAT
; _this$ = ecx

; 97   : {

  00000	56		 push	 esi
  00001	8b f1		 mov	 esi, ecx

; 98   : 	if (!CanAct())

  00003	e8 00 00 00 00	 call	 ?CanAct@CActorInstance@@QAE_NXZ ; CActorInstance::CanAct
  00008	84 c0		 test	 al, al
  0000a	74 28		 je	 SHORT $LN9@CanFishing

; 99   : 		return false;
; 100  : 
; 101  : 	if (IsUsingSkill())

  0000c	8b ce		 mov	 ecx, esi
  0000e	e8 00 00 00 00	 call	 ?IsUsingSkill@CActorInstance@@QAEHXZ ; CActorInstance::IsUsingSkill
  00013	85 c0		 test	 eax, eax
  00015	75 1d		 jne	 SHORT $LN9@CanFishing

; 102  : 		return false;
; 103  : 
; 104  : 	switch (__GetCurrentMotionIndex())

  00017	8b ce		 mov	 ecx, esi
  00019	e8 00 00 00 00	 call	 ?__GetCurrentMotionIndex@CActorInstance@@IAEGXZ ; CActorInstance::__GetCurrentMotionIndex
  0001e	0f b7 c0	 movzx	 eax, ax
  00021	83 e8 01	 sub	 eax, 1
  00024	74 0a		 je	 SHORT $LN6@CanFishing
  00026	83 e8 01	 sub	 eax, 1
  00029	74 05		 je	 SHORT $LN6@CanFishing
  0002b	83 e8 01	 sub	 eax, 1
  0002e	75 04		 jne	 SHORT $LN9@CanFishing
$LN6@CanFishing:

; 112  : 			break;
; 113  : 	}
; 114  : 
; 115  : 	return true;

  00030	b0 01		 mov	 al, 1
  00032	5e		 pop	 esi

; 116  : }

  00033	c3		 ret	 0
$LN9@CanFishing:

; 105  : 	{
; 106  : 		case CRaceMotionData::NAME_WAIT:
; 107  : 		case CRaceMotionData::NAME_WALK:
; 108  : 		case CRaceMotionData::NAME_RUN:
; 109  : 			break;
; 110  : 		default:
; 111  : 			return false;

  00034	32 c0		 xor	 al, al
  00036	5e		 pop	 esi

; 116  : }

  00037	c3		 ret	 0
?CanFishing@CActorInstance@@QAE_NXZ ENDP		; CActorInstance::CanFishing
_TEXT	ENDS
; Function compile flags: /Ogtp
; File C:\Users\murat\Desktop\Siveps2-1-99-Project\source\client\Client\GameLib\ActorInstanceBattle.cpp
;	COMDAT ?SetBattleAttachEffect@CActorInstance@@QAEXK@Z
_TEXT	SEGMENT
_dwID$ = 8						; size = 4
?SetBattleAttachEffect@CActorInstance@@QAEXK@Z PROC	; CActorInstance::SetBattleAttachEffect, COMDAT
; _this$ = ecx

; 15   : {

  00000	55		 push	 ebp
  00001	8b ec		 mov	 ebp, esp

; 16   : 	m_dwBattleAttachEffectID = dwID;

  00003	8b 45 08	 mov	 eax, DWORD PTR _dwID$[ebp]
  00006	89 81 54 04 00
	00		 mov	 DWORD PTR [ecx+1108], eax

; 17   : }

  0000c	5d		 pop	 ebp
  0000d	c2 04 00	 ret	 4
?SetBattleAttachEffect@CActorInstance@@QAEXK@Z ENDP	; CActorInstance::SetBattleAttachEffect
_TEXT	ENDS
; Function compile flags: /Ogtp
; File C:\Users\murat\Desktop\Siveps2-1-99-Project\source\client\Client\GameLib\ActorInstanceBattle.cpp
;	COMDAT ?SetBattleHitEffect@CActorInstance@@QAEXK@Z
_TEXT	SEGMENT
_dwID$ = 8						; size = 4
?SetBattleHitEffect@CActorInstance@@QAEXK@Z PROC	; CActorInstance::SetBattleHitEffect, COMDAT
; _this$ = ecx

; 10   : {

  00000	55		 push	 ebp
  00001	8b ec		 mov	 ebp, esp

; 11   : 	m_dwBattleHitEffectID = dwID;

  00003	8b 45 08	 mov	 eax, DWORD PTR _dwID$[ebp]
  00006	89 81 50 04 00
	00		 mov	 DWORD PTR [ecx+1104], eax

; 12   : }

  0000c	5d		 pop	 ebp
  0000d	c2 04 00	 ret	 4
?SetBattleHitEffect@CActorInstance@@QAEXK@Z ENDP	; CActorInstance::SetBattleHitEffect
_TEXT	ENDS
; Function compile flags: /Ogtp
; File C:\Users\murat\Desktop\Siveps2-1-99-Project\source\client\Client\GameLib\ActorInstanceBattle.cpp
;	COMDAT ?ComboAttack@CActorInstance@@QAEHKMM@Z
_TEXT	SEGMENT
_dwMotionIndex$ = 8					; size = 4
_fDirRot$ = 12						; size = 4
_fBlendTime$ = 16					; size = 4
?ComboAttack@CActorInstance@@QAEHKMM@Z PROC		; CActorInstance::ComboAttack, COMDAT
; _this$ = ecx

; 498  : {

  00000	55		 push	 ebp
  00001	8b ec		 mov	 ebp, esp

; 499  : 	BlendRotation(fDirRot, fBlendTime);

  00003	f3 0f 10 45 10	 movss	 xmm0, DWORD PTR _fBlendTime$[ebp]
  00008	57		 push	 edi
  00009	83 ec 08	 sub	 esp, 8
  0000c	8b f9		 mov	 edi, ecx
  0000e	f3 0f 11 44 24
	04		 movss	 DWORD PTR [esp+4], xmm0
  00014	f3 0f 10 45 0c	 movss	 xmm0, DWORD PTR _fDirRot$[ebp]
  00019	f3 0f 11 04 24	 movss	 DWORD PTR [esp], xmm0
  0001e	e8 00 00 00 00	 call	 ?BlendRotation@CActorInstance@@QAEXMM@Z ; CActorInstance::BlendRotation

; 500  : 	SetAdvancingRotation(fDirRot);

  00023	f3 0f 10 45 0c	 movss	 xmm0, DWORD PTR _fDirRot$[ebp]
  00028	51		 push	 ecx
  00029	8b cf		 mov	 ecx, edi
  0002b	f3 0f 11 04 24	 movss	 DWORD PTR [esp], xmm0
  00030	e8 00 00 00 00	 call	 ?SetAdvancingRotation@CActorInstance@@QAEXM@Z ; CActorInstance::SetAdvancingRotation

; 501  : 
; 502  : 	InterceptOnceMotion(dwMotionIndex, fBlendTime, 0, __GetAttackSpeed());

  00035	8b cf		 mov	 ecx, edi
  00037	e8 00 00 00 00	 call	 ?__GetAttackSpeed@CActorInstance@@IAEMXZ ; CActorInstance::__GetAttackSpeed
  0003c	f3 0f 10 45 10	 movss	 xmm0, DWORD PTR _fBlendTime$[ebp]
  00041	51		 push	 ecx
  00042	d9 1c 24	 fstp	 DWORD PTR [esp]
  00045	6a 00		 push	 0
  00047	51		 push	 ecx
  00048	f3 0f 11 04 24	 movss	 DWORD PTR [esp], xmm0
  0004d	8b cf		 mov	 ecx, edi
  0004f	ff 75 08	 push	 DWORD PTR _dwMotionIndex$[ebp]
  00052	e8 00 00 00 00	 call	 ?InterceptOnceMotion@CActorInstance@@QAE_NKMIM@Z ; CActorInstance::InterceptOnceMotion

; 503  : 
; 504  : 	__OnAttack(dwMotionIndex);

  00057	ff 75 08	 push	 DWORD PTR _dwMotionIndex$[ebp]
  0005a	8b cf		 mov	 ecx, edi
  0005c	e8 00 00 00 00	 call	 ?__OnAttack@CActorInstance@@QAEXG@Z ; CActorInstance::__OnAttack

; 505  : 
; 506  : 	NEW_SetAtkPixelPosition(NEW_GetCurPixelPositionRef());

  00061	8b cf		 mov	 ecx, edi
  00063	e8 00 00 00 00	 call	 ?NEW_GetCurPixelPositionRef@CActorInstance@@QAEABUD3DXVECTOR3@@XZ ; CActorInstance::NEW_GetCurPixelPositionRef
  00068	50		 push	 eax
  00069	8b cf		 mov	 ecx, edi
  0006b	e8 00 00 00 00	 call	 ?NEW_SetAtkPixelPosition@CActorInstance@@QAEXABUD3DXVECTOR3@@@Z ; CActorInstance::NEW_SetAtkPixelPosition

; 507  : 
; 508  : 	return TRUE;

  00070	b8 01 00 00 00	 mov	 eax, 1
  00075	5f		 pop	 edi

; 509  : }

  00076	5d		 pop	 ebp
  00077	c2 0c 00	 ret	 12			; 0000000cH
?ComboAttack@CActorInstance@@QAEHKMM@Z ENDP		; CActorInstance::ComboAttack
_TEXT	ENDS
; Function compile flags: /Ogtp
; File C:\Users\murat\Desktop\Siveps2-1-99-Project\source\client\Client\GameLib\ActorInstanceBattle.cpp
;	COMDAT ?NormalAttack@CActorInstance@@QAEHMM@Z
_TEXT	SEGMENT
_wMotionIndex$ = -4					; size = 2
_fDirRot$ = 8						; size = 4
_fBlendTime$ = 12					; size = 4
?NormalAttack@CActorInstance@@QAEHMM@Z PROC		; CActorInstance::NormalAttack, COMDAT
; _this$ = ecx

; 481  : {

  00000	55		 push	 ebp
  00001	8b ec		 mov	 ebp, esp
  00003	51		 push	 ecx
  00004	56		 push	 esi
  00005	8b f1		 mov	 esi, ecx

; 482  : 	WORD wMotionIndex;
; 483  : 	if (!m_pkCurRaceData->GetNormalAttackIndex(m_wcurMotionMode, &wMotionIndex))

  00007	8d 45 fc	 lea	 eax, DWORD PTR _wMotionIndex$[ebp]
  0000a	50		 push	 eax
  0000b	0f b7 86 34 03
	00 00		 movzx	 eax, WORD PTR [esi+820]
  00012	8b 8e 20 04 00
	00		 mov	 ecx, DWORD PTR [esi+1056]
  00018	50		 push	 eax
  00019	e8 00 00 00 00	 call	 ?GetNormalAttackIndex@CRaceData@@QAEHGPAG@Z ; CRaceData::GetNormalAttackIndex
  0001e	85 c0		 test	 eax, eax
  00020	75 07		 jne	 SHORT $LN2@NormalAtta
  00022	5e		 pop	 esi

; 495  : }

  00023	8b e5		 mov	 esp, ebp
  00025	5d		 pop	 ebp
  00026	c2 08 00	 ret	 8
$LN2@NormalAtta:

; 484  : 		return FALSE;
; 485  : 
; 486  : 	BlendRotation(fDirRot, fBlendTime);

  00029	f3 0f 10 45 0c	 movss	 xmm0, DWORD PTR _fBlendTime$[ebp]
  0002e	83 ec 08	 sub	 esp, 8
  00031	8b ce		 mov	 ecx, esi
  00033	f3 0f 11 44 24
	04		 movss	 DWORD PTR [esp+4], xmm0
  00039	f3 0f 10 45 08	 movss	 xmm0, DWORD PTR _fDirRot$[ebp]
  0003e	f3 0f 11 04 24	 movss	 DWORD PTR [esp], xmm0
  00043	e8 00 00 00 00	 call	 ?BlendRotation@CActorInstance@@QAEXMM@Z ; CActorInstance::BlendRotation

; 487  : 	SetAdvancingRotation(fDirRot);

  00048	f3 0f 10 45 08	 movss	 xmm0, DWORD PTR _fDirRot$[ebp]
  0004d	51		 push	 ecx
  0004e	8b ce		 mov	 ecx, esi
  00050	f3 0f 11 04 24	 movss	 DWORD PTR [esp], xmm0
  00055	e8 00 00 00 00	 call	 ?SetAdvancingRotation@CActorInstance@@QAEXM@Z ; CActorInstance::SetAdvancingRotation

; 488  : 	InterceptOnceMotion(wMotionIndex, 0.1f, 0, __GetAttackSpeed());

  0005a	8b ce		 mov	 ecx, esi
  0005c	e8 00 00 00 00	 call	 ?__GetAttackSpeed@CActorInstance@@IAEMXZ ; CActorInstance::__GetAttackSpeed
  00061	0f b7 45 fc	 movzx	 eax, WORD PTR _wMotionIndex$[ebp]
  00065	51		 push	 ecx
  00066	d9 1c 24	 fstp	 DWORD PTR [esp]
  00069	6a 00		 push	 0
  0006b	51		 push	 ecx
  0006c	c7 04 24 cd cc
	cc 3d		 mov	 DWORD PTR [esp], 1036831949 ; 3dcccccdH
  00073	8b ce		 mov	 ecx, esi
  00075	50		 push	 eax
  00076	e8 00 00 00 00	 call	 ?InterceptOnceMotion@CActorInstance@@QAE_NKMIM@Z ; CActorInstance::InterceptOnceMotion

; 489  : 
; 490  : 	__OnAttack(wMotionIndex);

  0007b	ff 75 fc	 push	 DWORD PTR _wMotionIndex$[ebp]
  0007e	8b ce		 mov	 ecx, esi
  00080	e8 00 00 00 00	 call	 ?__OnAttack@CActorInstance@@QAEXG@Z ; CActorInstance::__OnAttack

; 491  : 
; 492  : 	NEW_SetAtkPixelPosition(NEW_GetCurPixelPositionRef());

  00085	8b ce		 mov	 ecx, esi
  00087	e8 00 00 00 00	 call	 ?NEW_GetCurPixelPositionRef@CActorInstance@@QAEABUD3DXVECTOR3@@XZ ; CActorInstance::NEW_GetCurPixelPositionRef
  0008c	50		 push	 eax
  0008d	8b ce		 mov	 ecx, esi
  0008f	e8 00 00 00 00	 call	 ?NEW_SetAtkPixelPosition@CActorInstance@@QAEXABUD3DXVECTOR3@@@Z ; CActorInstance::NEW_SetAtkPixelPosition

; 493  : 
; 494  : 	return TRUE;

  00094	b8 01 00 00 00	 mov	 eax, 1
  00099	5e		 pop	 esi

; 495  : }

  0009a	8b e5		 mov	 esp, ebp
  0009c	5d		 pop	 ebp
  0009d	c2 08 00	 ret	 8
?NormalAttack@CActorInstance@@QAEHMM@Z ENDP		; CActorInstance::NormalAttack
_TEXT	ENDS
; Function compile flags: /Ogtp
; File C:\Users\murat\Desktop\Siveps2-1-99-Project\source\client\Client\GameLib\ActorInstanceBattle.cpp
;	COMDAT ?GetBlendingPosition@CActorInstance@@QAEXPAUD3DXVECTOR3@@@Z
_TEXT	SEGMENT
_pPosition$ = 8						; size = 4
?GetBlendingPosition@CActorInstance@@QAEXPAUD3DXVECTOR3@@@Z PROC ; CActorInstance::GetBlendingPosition, COMDAT
; _this$ = ecx

; 929  : {

  00000	55		 push	 ebp
  00001	8b ec		 mov	 ebp, esp
  00003	53		 push	 ebx
  00004	56		 push	 esi

; 930  : 	if (m_PhysicsObject.isBlending())

  00005	8b 75 08	 mov	 esi, DWORD PTR _pPosition$[ebp]
  00008	57		 push	 edi
  00009	8b f9		 mov	 edi, ecx
  0000b	8d 8f 80 03 00
	00		 lea	 ecx, DWORD PTR [edi+896]
  00011	e8 00 00 00 00	 call	 ?isBlending@CPhysicsObject@@QAE_NXZ ; CPhysicsObject::isBlending
  00016	84 c0		 test	 al, al
  00018	74 47		 je	 SHORT $LN2@GetBlendin

; 931  : 	{
; 932  : 		m_PhysicsObject.GetLastPosition(pPosition);

  0001a	56		 push	 esi
  0001b	8d 8f 80 03 00
	00		 lea	 ecx, DWORD PTR [edi+896]
  00021	e8 00 00 00 00	 call	 ?GetLastPosition@CPhysicsObject@@QAEXPAUD3DXVECTOR3@@@Z ; CPhysicsObject::GetLastPosition

; 933  : 		pPosition->x += m_x;

  00026	f3 0f 10 87 68
	04 00 00	 movss	 xmm0, DWORD PTR [edi+1128]
  0002e	f3 0f 58 06	 addss	 xmm0, DWORD PTR [esi]
  00032	f3 0f 11 06	 movss	 DWORD PTR [esi], xmm0

; 934  : 		pPosition->y += m_y;

  00036	f3 0f 10 87 6c
	04 00 00	 movss	 xmm0, DWORD PTR [edi+1132]
  0003e	f3 0f 58 46 04	 addss	 xmm0, DWORD PTR [esi+4]
  00043	f3 0f 11 46 04	 movss	 DWORD PTR [esi+4], xmm0

; 935  : 		pPosition->z += m_z;

  00048	f3 0f 10 87 70
	04 00 00	 movss	 xmm0, DWORD PTR [edi+1136]
  00050	f3 0f 58 46 08	 addss	 xmm0, DWORD PTR [esi+8]
  00055	5f		 pop	 edi
  00056	f3 0f 11 46 08	 movss	 DWORD PTR [esi+8], xmm0

; 942  : 	}
; 943  : }

  0005b	5e		 pop	 esi
  0005c	5b		 pop	 ebx
  0005d	5d		 pop	 ebp
  0005e	c2 04 00	 ret	 4
$LN2@GetBlendin:

; 936  : 	}
; 937  : 	else
; 938  : 	{
; 939  : 		pPosition->x = m_x;

  00061	8b 87 68 04 00
	00		 mov	 eax, DWORD PTR [edi+1128]
  00067	89 06		 mov	 DWORD PTR [esi], eax

; 940  : 		pPosition->y = m_y;

  00069	8b 87 6c 04 00
	00		 mov	 eax, DWORD PTR [edi+1132]
  0006f	89 46 04	 mov	 DWORD PTR [esi+4], eax

; 941  : 		pPosition->z = m_z;

  00072	8b 87 70 04 00
	00		 mov	 eax, DWORD PTR [edi+1136]
  00078	5f		 pop	 edi
  00079	89 46 08	 mov	 DWORD PTR [esi+8], eax

; 942  : 	}
; 943  : }

  0007c	5e		 pop	 esi
  0007d	5b		 pop	 ebx
  0007e	5d		 pop	 ebp
  0007f	c2 04 00	 ret	 4
?GetBlendingPosition@CActorInstance@@QAEXPAUD3DXVECTOR3@@@Z ENDP ; CActorInstance::GetBlendingPosition
_TEXT	ENDS
; Function compile flags: /Ogtp
; File C:\Users\murat\Desktop\Siveps2-1-99-Project\source\client\Client\GameLib\ActorInstanceBattle.cpp
;	COMDAT ?ResetBlendingPosition@CActorInstance@@QAEXXZ
_TEXT	SEGMENT
?ResetBlendingPosition@CActorInstance@@QAEXXZ PROC	; CActorInstance::ResetBlendingPosition, COMDAT
; _this$ = ecx

; 925  : 	m_PhysicsObject.Initialize();

  00000	81 c1 80 03 00
	00		 add	 ecx, 896		; 00000380H
  00006	e9 00 00 00 00	 jmp	 ?Initialize@CPhysicsObject@@QAEXXZ ; CPhysicsObject::Initialize
?ResetBlendingPosition@CActorInstance@@QAEXXZ ENDP	; CActorInstance::ResetBlendingPosition
_TEXT	ENDS
; Function compile flags: /Ogtp
; File C:\Users\murat\Desktop\Siveps2-1-99-Project\source\client\Client\GameLib\ActorInstanceBattle.cpp
;	COMDAT ?SetBlendingPosition@CActorInstance@@QAEXABUD3DXVECTOR3@@M@Z
_TEXT	SEGMENT
_Position$ = -16					; size = 12
__$ArrayPad$ = -4					; size = 4
_c_rPosition$ = 8					; size = 4
_fBlendingTime$ = 12					; size = 4
?SetBlendingPosition@CActorInstance@@QAEXABUD3DXVECTOR3@@M@Z PROC ; CActorInstance::SetBlendingPosition, COMDAT
; _this$ = ecx

; 912  : {

  00000	55		 push	 ebp
  00001	8b ec		 mov	 ebp, esp
  00003	83 ec 10	 sub	 esp, 16			; 00000010H
  00006	a1 00 00 00 00	 mov	 eax, DWORD PTR ___security_cookie
  0000b	33 c5		 xor	 eax, ebp
  0000d	89 45 fc	 mov	 DWORD PTR __$ArrayPad$[ebp], eax
  00010	8b 45 08	 mov	 eax, DWORD PTR _c_rPosition$[ebp]

; 913  : 	//return;
; 914  : 	TPixelPosition Position;
; 915  : 
; 916  : 	Position.x = c_rPosition.x - m_x;
; 917  : 	Position.y = c_rPosition.y - m_y;
; 918  : 	Position.z = 0;
; 919  : 
; 920  : 	m_PhysicsObject.SetLastPosition(Position, fBlendingTime);

  00013	51		 push	 ecx
  00014	c7 45 f8 00 00
	00 00		 mov	 DWORD PTR _Position$[ebp+8], 0
  0001b	f3 0f 10 00	 movss	 xmm0, DWORD PTR [eax]
  0001f	f3 0f 5c 81 68
	04 00 00	 subss	 xmm0, DWORD PTR [ecx+1128]
  00027	f3 0f 11 45 f0	 movss	 DWORD PTR _Position$[ebp], xmm0
  0002c	f3 0f 10 40 04	 movss	 xmm0, DWORD PTR [eax+4]
  00031	8d 45 f0	 lea	 eax, DWORD PTR _Position$[ebp]
  00034	f3 0f 5c 81 6c
	04 00 00	 subss	 xmm0, DWORD PTR [ecx+1132]
  0003c	81 c1 80 03 00
	00		 add	 ecx, 896		; 00000380H
  00042	f3 0f 11 45 f4	 movss	 DWORD PTR _Position$[ebp+4], xmm0
  00047	f3 0f 10 45 0c	 movss	 xmm0, DWORD PTR _fBlendingTime$[ebp]
  0004c	f3 0f 11 04 24	 movss	 DWORD PTR [esp], xmm0
  00051	50		 push	 eax
  00052	e8 00 00 00 00	 call	 ?SetLastPosition@CPhysicsObject@@QAEXABUD3DXVECTOR3@@M@Z ; CPhysicsObject::SetLastPosition

; 921  : }

  00057	8b 4d fc	 mov	 ecx, DWORD PTR __$ArrayPad$[ebp]
  0005a	33 cd		 xor	 ecx, ebp
  0005c	e8 00 00 00 00	 call	 @__security_check_cookie@4
  00061	8b e5		 mov	 esp, ebp
  00063	5d		 pop	 ebp
  00064	c2 08 00	 ret	 8
?SetBlendingPosition@CActorInstance@@QAEXABUD3DXVECTOR3@@M@Z ENDP ; CActorInstance::SetBlendingPosition
_TEXT	ENDS
; Function compile flags: /Ogtp
; File C:\Users\murat\Desktop\Siveps2-1-99-Project\source\client\Client\GameLib\ActorInstanceBattle.cpp
;	COMDAT ?GetAttackingElapsedTime@CActorInstance@@QAEMXZ
_TEXT	SEGMENT
tv66 = -4						; size = 4
?GetAttackingElapsedTime@CActorInstance@@QAEMXZ PROC	; CActorInstance::GetAttackingElapsedTime, COMDAT
; _this$ = ecx

; 459  : {

  00000	55		 push	 ebp
  00001	8b ec		 mov	 ebp, esp
  00003	51		 push	 ecx
  00004	56		 push	 esi
  00005	8b f1		 mov	 esi, ecx

; 460  : 	return (GetLocalTime() - m_kCurMotNode.fStartTime) * m_kCurMotNode.fSpeedRatio;

  00007	e8 00 00 00 00	 call	 ?GetLocalTime@CGraphicThingInstance@@QAEMXZ ; CGraphicThingInstance::GetLocalTime
  0000c	d8 a6 20 03 00
	00		 fsub	 DWORD PTR [esi+800]
  00012	d9 5d fc	 fstp	 DWORD PTR tv66[ebp]
  00015	d9 86 28 03 00
	00		 fld	 DWORD PTR [esi+808]
  0001b	d8 4d fc	 fmul	 DWORD PTR tv66[ebp]
  0001e	5e		 pop	 esi

; 461  : //	return (GetLocalTime() - m_kCurMotNode.fStartTime) * __GetAttackSpeed();
; 462  : }

  0001f	8b e5		 mov	 esp, ebp
  00021	5d		 pop	 ebp
  00022	c3		 ret	 0
?GetAttackingElapsedTime@CActorInstance@@QAEMXZ ENDP	; CActorInstance::GetAttackingElapsedTime
_TEXT	ENDS
; Function compile flags: /Ogtp
; File C:\Users\murat\Desktop\Siveps2-1-99-Project\source\client\Client\GameLib\ActorInstanceBattle.cpp
;	COMDAT ?GetComboIndex@CActorInstance@@QAEKXZ
_TEXT	SEGMENT
?GetComboIndex@CActorInstance@@QAEKXZ PROC		; CActorInstance::GetComboIndex, COMDAT
; _this$ = ecx

; 455  : 	return m_dwcurComboIndex;

  00000	8b 81 f8 03 00
	00		 mov	 eax, DWORD PTR [ecx+1016]

; 456  : }

  00006	c3		 ret	 0
?GetComboIndex@CActorInstance@@QAEKXZ ENDP		; CActorInstance::GetComboIndex
_TEXT	ENDS
; Function compile flags: /Ogtp
; File C:\Users\murat\Desktop\Siveps2-1-99-Project\source\client\Client\GameLib\ActorInstanceBattle.cpp
;	COMDAT ?IsActEmotion@CActorInstance@@QAEHXZ
_TEXT	SEGMENT
?IsActEmotion@CActorInstance@@QAEHXZ PROC		; CActorInstance::IsActEmotion, COMDAT
; _this$ = ecx

; 424  : 	DWORD dwCurMotionIndex=__GetCurrentMotionIndex();

  00000	e8 00 00 00 00	 call	 ?__GetCurrentMotionIndex@CActorInstance@@IAEGXZ ; CActorInstance::__GetCurrentMotionIndex
  00005	0f b7 c0	 movzx	 eax, ax

; 425  : 	switch (dwCurMotionIndex)

  00008	05 cb fe ff ff	 add	 eax, -309		; fffffecbH
  0000d	83 f8 09	 cmp	 eax, 9
  00010	77 14		 ja	 SHORT $LN2@IsActEmoti
  00012	0f b6 80 00 00
	00 00		 movzx	 eax, BYTE PTR $LN15@IsActEmoti[eax]
  00019	ff 24 85 00 00
	00 00		 jmp	 DWORD PTR $LN16@IsActEmoti[eax*4]
$LN4@IsActEmoti:

; 426  : 	{
; 427  : 		case CRaceMotionData::NAME_FRENCH_KISS_START+0:
; 428  : 		case CRaceMotionData::NAME_FRENCH_KISS_START+1:
; 429  : 		case CRaceMotionData::NAME_FRENCH_KISS_START+2:
; 430  : 		case CRaceMotionData::NAME_FRENCH_KISS_START+3:
; 431  : #ifdef ENABLE_WOLFMAN_CHARACTER
; 432  : 		case CRaceMotionData::NAME_FRENCH_KISS_START+4:
; 433  : #endif
; 434  : 		case CRaceMotionData::NAME_KISS_START+0:
; 435  : 		case CRaceMotionData::NAME_KISS_START+1:
; 436  : 		case CRaceMotionData::NAME_KISS_START+2:
; 437  : 		case CRaceMotionData::NAME_KISS_START+3:
; 438  : #ifdef ENABLE_WOLFMAN_CHARACTER
; 439  : 		case CRaceMotionData::NAME_KISS_START+4:
; 440  : #endif
; 441  : 			return TRUE;

  00020	b8 01 00 00 00	 mov	 eax, 1

; 446  : }

  00025	c3		 ret	 0
$LN2@IsActEmoti:

; 442  : 			break;
; 443  : 	}
; 444  : 
; 445  : 	return FALSE;

  00026	33 c0		 xor	 eax, eax

; 446  : }

  00028	c3		 ret	 0
  00029	0f 1f 00	 npad	 3
$LN16@IsActEmoti:
  0002c	00 00 00 00	 DD	 $LN4@IsActEmoti
$LN15@IsActEmoti:
  00030	00		 DB	 0
  00031	00		 DB	 0
  00032	00		 DB	 0
  00033	00		 DB	 0
  00034	00		 DB	 0
  00035	00		 DB	 0
  00036	00		 DB	 0
  00037	00		 DB	 0
  00038	00		 DB	 0
  00039	00		 DB	 0
?IsActEmotion@CActorInstance@@QAEHXZ ENDP		; CActorInstance::IsActEmotion
_TEXT	ENDS
; Function compile flags: /Ogtp
; File C:\Users\murat\Desktop\Siveps2-1-99-Project\source\client\Client\GameLib\ActorInstanceBattle.cpp
;	COMDAT ?IsUsingMovingSkill@CActorInstance@@QAEHXZ
_TEXT	SEGMENT
?IsUsingMovingSkill@CActorInstance@@QAEHXZ PROC		; CActorInstance::IsUsingMovingSkill, COMDAT
; _this$ = ecx

; 450  : 	return __IsMovingSkill(m_kCurMotNode.uSkill);

  00000	0f b7 81 30 03
	00 00		 movzx	 eax, WORD PTR [ecx+816]
  00007	50		 push	 eax
  00008	e8 00 00 00 00	 call	 ?__IsMovingSkill@CActorInstance@@IAEHG@Z ; CActorInstance::__IsMovingSkill

; 451  : }

  0000d	c3		 ret	 0
?IsUsingMovingSkill@CActorInstance@@QAEHXZ ENDP		; CActorInstance::IsUsingMovingSkill
_TEXT	ENDS
; Function compile flags: /Ogtp
; File C:\Users\murat\Desktop\Siveps2-1-99-Project\source\client\Client\GameLib\ActorInstanceBattle.cpp
;	COMDAT ?IsSplashAttacking@CActorInstance@@QAEHXZ
_TEXT	SEGMENT
?IsSplashAttacking@CActorInstance@@QAEHXZ PROC		; CActorInstance::IsSplashAttacking, COMDAT
; _this$ = ecx

; 403  : 	if (!m_pkCurRaceMotionData)

  00000	8b 89 24 04 00
	00		 mov	 ecx, DWORD PTR [ecx+1060]
  00006	85 c9		 test	 ecx, ecx
  00008	74 0f		 je	 SHORT $LN3@IsSplashAt

; 404  : 		return FALSE;
; 405  : 
; 406  : 	if (m_pkCurRaceMotionData->HasSplashMotionEvent())

  0000a	e8 00 00 00 00	 call	 ?HasSplashMotionEvent@CRaceMotionData@@QBEHXZ ; CRaceMotionData::HasSplashMotionEvent
  0000f	85 c0		 test	 eax, eax
  00011	74 06		 je	 SHORT $LN3@IsSplashAt

; 407  : 		return TRUE;

  00013	b8 01 00 00 00	 mov	 eax, 1

; 410  : }

  00018	c3		 ret	 0
$LN3@IsSplashAt:

; 408  : 
; 409  : 	return FALSE;

  00019	33 c0		 xor	 eax, eax

; 410  : }

  0001b	c3		 ret	 0
?IsSplashAttacking@CActorInstance@@QAEHXZ ENDP		; CActorInstance::IsSplashAttacking
_TEXT	ENDS
; Function compile flags: /Ogtp
; File C:\Users\murat\Desktop\Siveps2-1-99-Project\source\client\Client\GameLib\ActorInstanceBattle.cpp
;	COMDAT ?isComboAttacking@CActorInstance@@QAEHXZ
_TEXT	SEGMENT
?isComboAttacking@CActorInstance@@QAEHXZ PROC		; CActorInstance::isComboAttacking, COMDAT
; _this$ = ecx

; 387  : {

  00000	56		 push	 esi
  00001	8b f1		 mov	 esi, ecx

; 388  : 	if (!m_pkCurRaceMotionData)

  00003	8b 8e 24 04 00
	00		 mov	 ecx, DWORD PTR [esi+1060]
  00009	85 c9		 test	 ecx, ecx
  0000b	74 21		 je	 SHORT $LN6@isComboAtt

; 389  : 		return FALSE;
; 390  : 
; 391  : 	if (!m_pkCurRaceMotionData->isAttackingMotion())

  0000d	e8 00 00 00 00	 call	 ?isAttackingMotion@CRaceMotionData@@QBEHXZ ; CRaceMotionData::isAttackingMotion
  00012	85 c0		 test	 eax, eax
  00014	74 18		 je	 SHORT $LN6@isComboAtt

; 392  : 		return FALSE;
; 393  : 
; 394  : 	const NRaceData::TMotionAttackData * c_pData = m_pkCurRaceMotionData->GetMotionAttackDataPointer();

  00016	8b 8e 24 04 00
	00		 mov	 ecx, DWORD PTR [esi+1060]
  0001c	e8 00 00 00 00	 call	 ?GetMotionAttackDataPointer@CRaceMotionData@@QBEPBUSMotionAttackData@NRaceData@@XZ ; CRaceMotionData::GetMotionAttackDataPointer

; 395  : 	if (NRaceData::MOTION_TYPE_COMBO != c_pData->iMotionType)

  00021	83 78 18 02	 cmp	 DWORD PTR [eax+24], 2
  00025	75 07		 jne	 SHORT $LN6@isComboAtt

; 397  : 
; 398  : 	return TRUE;

  00027	b8 01 00 00 00	 mov	 eax, 1
  0002c	5e		 pop	 esi

; 399  : }

  0002d	c3		 ret	 0
$LN6@isComboAtt:

; 396  : 		return FALSE;

  0002e	33 c0		 xor	 eax, eax
  00030	5e		 pop	 esi

; 399  : }

  00031	c3		 ret	 0
?isComboAttacking@CActorInstance@@QAEHXZ ENDP		; CActorInstance::isComboAttacking
_TEXT	ENDS
; Function compile flags: /Ogtp
; File C:\Users\murat\Desktop\Siveps2-1-99-Project\source\client\Client\GameLib\ActorInstanceBattle.cpp
;	COMDAT ?isNormalAttacking@CActorInstance@@QAEHXZ
_TEXT	SEGMENT
?isNormalAttacking@CActorInstance@@QAEHXZ PROC		; CActorInstance::isNormalAttacking, COMDAT
; _this$ = ecx

; 372  : {

  00000	56		 push	 esi
  00001	8b f1		 mov	 esi, ecx

; 373  : 	if (!m_pkCurRaceMotionData)

  00003	8b 8e 24 04 00
	00		 mov	 ecx, DWORD PTR [esi+1060]
  00009	85 c9		 test	 ecx, ecx
  0000b	74 21		 je	 SHORT $LN6@isNormalAt

; 374  : 		return FALSE;
; 375  : 
; 376  : 	if (!m_pkCurRaceMotionData->isAttackingMotion())

  0000d	e8 00 00 00 00	 call	 ?isAttackingMotion@CRaceMotionData@@QBEHXZ ; CRaceMotionData::isAttackingMotion
  00012	85 c0		 test	 eax, eax
  00014	74 18		 je	 SHORT $LN6@isNormalAt

; 377  : 		return FALSE;
; 378  : 
; 379  : 	const NRaceData::TMotionAttackData * c_pData = m_pkCurRaceMotionData->GetMotionAttackDataPointer();

  00016	8b 8e 24 04 00
	00		 mov	 ecx, DWORD PTR [esi+1060]
  0001c	e8 00 00 00 00	 call	 ?GetMotionAttackDataPointer@CRaceMotionData@@QBEPBUSMotionAttackData@NRaceData@@XZ ; CRaceMotionData::GetMotionAttackDataPointer

; 380  : 	if (NRaceData::MOTION_TYPE_NORMAL != c_pData->iMotionType)

  00021	83 78 18 01	 cmp	 DWORD PTR [eax+24], 1
  00025	75 07		 jne	 SHORT $LN6@isNormalAt

; 382  : 
; 383  : 	return TRUE;

  00027	b8 01 00 00 00	 mov	 eax, 1
  0002c	5e		 pop	 esi

; 384  : }

  0002d	c3		 ret	 0
$LN6@isNormalAt:

; 381  : 		return FALSE;

  0002e	33 c0		 xor	 eax, eax
  00030	5e		 pop	 esi

; 384  : }

  00031	c3		 ret	 0
?isNormalAttacking@CActorInstance@@QAEHXZ ENDP		; CActorInstance::isNormalAttacking
_TEXT	ENDS
; Function compile flags: /Ogtp
; File C:\Users\murat\Desktop\Siveps2-1-99-Project\source\client\Client\GameLib\ActorInstanceBattle.cpp
;	COMDAT ?isAttacking@CActorInstance@@QAEHXZ
_TEXT	SEGMENT
?isAttacking@CActorInstance@@QAEHXZ PROC		; CActorInstance::isAttacking, COMDAT
; _this$ = ecx

; 320  : {

  00000	56		 push	 esi
  00001	8b f1		 mov	 esi, ecx

; 321  : 	if (isNormalAttacking())

  00003	e8 00 00 00 00	 call	 ?isNormalAttacking@CActorInstance@@QAEHXZ ; CActorInstance::isNormalAttacking
  00008	85 c0		 test	 eax, eax
  0000a	75 18		 jne	 SHORT $LN6@isAttackin

; 322  : 		return TRUE;
; 323  : 
; 324  : 	if (isComboAttacking())

  0000c	8b ce		 mov	 ecx, esi
  0000e	e8 00 00 00 00	 call	 ?isComboAttacking@CActorInstance@@QAEHXZ ; CActorInstance::isComboAttacking
  00013	85 c0		 test	 eax, eax
  00015	75 0d		 jne	 SHORT $LN6@isAttackin

; 325  : 		return TRUE;
; 326  : 
; 327  : 	if (IsSplashAttacking())

  00017	8b ce		 mov	 ecx, esi
  00019	e8 00 00 00 00	 call	 ?IsSplashAttacking@CActorInstance@@QAEHXZ ; CActorInstance::IsSplashAttacking
  0001e	85 c0		 test	 eax, eax
  00020	75 02		 jne	 SHORT $LN6@isAttackin
  00022	5e		 pop	 esi

; 329  : 
; 330  : 	return FALSE;
; 331  : }

  00023	c3		 ret	 0
$LN6@isAttackin:

; 328  : 		return TRUE;

  00024	b8 01 00 00 00	 mov	 eax, 1
  00029	5e		 pop	 esi

; 329  : 
; 330  : 	return FALSE;
; 331  : }

  0002a	c3		 ret	 0
?isAttacking@CActorInstance@@QAEHXZ ENDP		; CActorInstance::isAttacking
_TEXT	ENDS
; Function compile flags: /Ogtp
; File C:\Users\murat\Desktop\Siveps2-1-99-Project\source\client\Client\GameLib\ActorInstanceBattle.cpp
;	COMDAT ?InputComboAttackCommand@CActorInstance@@QAE_NM@Z
_TEXT	SEGMENT
tv186 = -4						; size = 4
tv180 = -4						; size = 4
tv175 = -4						; size = 4
tv166 = -4						; size = 4
_fElapsedTime$1 = 8					; size = 4
_fElapsedTime$2 = 8					; size = 4
_fDirRot$ = 8						; size = 4
?InputComboAttackCommand@CActorInstance@@QAE_NM@Z PROC	; CActorInstance::InputComboAttackCommand, COMDAT
; _this$ = ecx

; 158  : {

  00000	55		 push	 ebp
  00001	8b ec		 mov	 ebp, esp
  00003	51		 push	 ecx

; 159  : 	m_fAtkDirRot=fDirRot;

  00004	f3 0f 10 45 08	 movss	 xmm0, DWORD PTR _fDirRot$[ebp]
  00009	56		 push	 esi
  0000a	8b f1		 mov	 esi, ecx

; 160  : 
; 161  : 	if (m_isPreInput)

  0000c	83 be 0c 04 00
	00 00		 cmp	 DWORD PTR [esi+1036], 0
  00013	f3 0f 11 86 1c
	04 00 00	 movss	 DWORD PTR [esi+1052], xmm0
  0001b	75 58		 jne	 SHORT $LN12@InputCombo

; 162  : 		return false;
; 163  : 
; 164  : 	/////////////////////////////////////////////////////////////////////////////////
; 165  : 
; 166  : 	// Process Input
; 167  :   	if (0 == m_dwcurComboIndex)

  0001d	83 be f8 03 00
	00 00		 cmp	 DWORD PTR [esi+1016], 0
  00024	0f 84 c0 00 00
	00		 je	 $LN14@InputCombo

; 168  : 	{
; 169  :  		__RunNextCombo();
; 170  : 		return true;
; 171  : 	}
; 172  : 	else if (m_pkCurRaceMotionData->IsComboInputTimeData())

  0002a	8b 8e 24 04 00
	00		 mov	 ecx, DWORD PTR [esi+1060]
  00030	e8 00 00 00 00	 call	 ?IsComboInputTimeData@CRaceMotionData@@QBEHXZ ; CRaceMotionData::IsComboInputTimeData
  00035	8b ce		 mov	 ecx, esi
  00037	85 c0		 test	 eax, eax
  00039	0f 84 84 00 00
	00		 je	 $LN5@InputCombo

; 173  : 	{
; 174  : 		//   
; 175  :  		float fElapsedTime = GetAttackingElapsedTime();

  0003f	e8 00 00 00 00	 call	 ?GetAttackingElapsedTime@CActorInstance@@QAEMXZ ; CActorInstance::GetAttackingElapsedTime

; 176  : 
; 177  : 		//     ..
; 178  : 		if (fElapsedTime > m_pkCurRaceMotionData->GetComboInputEndTime())

  00044	8b 8e 24 04 00
	00		 mov	 ecx, DWORD PTR [esi+1060]
  0004a	d9 5d 08	 fstp	 DWORD PTR _fElapsedTime$2[ebp]
  0004d	e8 00 00 00 00	 call	 ?GetComboInputEndTime@CRaceMotionData@@QBEMXZ ; CRaceMotionData::GetComboInputEndTime
  00052	f3 0f 10 45 08	 movss	 xmm0, DWORD PTR _fElapsedTime$2[ebp]
  00057	d9 5d fc	 fstp	 DWORD PTR tv186[ebp]
  0005a	0f 2f 45 fc	 comiss	 xmm0, DWORD PTR tv186[ebp]
  0005e	76 1e		 jbe	 SHORT $LN7@InputCombo

; 179  : 		{
; 180  : 			//Tracen("   ");
; 181  : 			if (IsBowMode())

  00060	8b ce		 mov	 ecx, esi
  00062	e8 00 00 00 00	 call	 ?IsBowMode@CActorInstance@@QAE_NXZ ; CActorInstance::IsBowMode
  00067	84 c0		 test	 al, al
  00069	74 0a		 je	 SHORT $LN12@InputCombo

; 182  : 				m_isNextPreInput = TRUE;

  0006b	c7 86 10 04 00
	00 01 00 00 00	 mov	 DWORD PTR [esi+1040], 1
$LN12@InputCombo:

; 209  : 		}
; 210  : 	}
; 211  : 	// Process Input
; 212  : 
; 213  : 	return false;
; 214  : }

  00075	32 c0		 xor	 al, al
  00077	5e		 pop	 esi
  00078	8b e5		 mov	 esp, ebp
  0007a	5d		 pop	 ebp
  0007b	c2 04 00	 ret	 4
$LN7@InputCombo:

; 183  : 			return false;
; 184  : 		}
; 185  : 
; 186  : 		if (fElapsedTime > m_pkCurRaceMotionData->GetNextComboTime()) //     

  0007e	8b 8e 24 04 00
	00		 mov	 ecx, DWORD PTR [esi+1060]
  00084	e8 00 00 00 00	 call	 ?GetNextComboTime@CRaceMotionData@@QBEMXZ ; CRaceMotionData::GetNextComboTime
  00089	f3 0f 10 45 08	 movss	 xmm0, DWORD PTR _fElapsedTime$2[ebp]
  0008e	d9 5d fc	 fstp	 DWORD PTR tv180[ebp]
  00091	0f 2f 45 fc	 comiss	 xmm0, DWORD PTR tv180[ebp]
  00095	77 53		 ja	 SHORT $LN14@InputCombo

; 187  : 		{
; 188  : 			//Tracen("  ");
; 189  : 			// args : BlendingTime
; 190  : 			__RunNextCombo();
; 191  : 			return true;
; 192  : 		}
; 193  : 		else if (fElapsedTime > m_pkCurRaceMotionData->GetComboInputStartTime()) //     ..

  00097	8b 8e 24 04 00
	00		 mov	 ecx, DWORD PTR [esi+1060]
  0009d	e8 00 00 00 00	 call	 ?GetComboInputStartTime@CRaceMotionData@@QBEMXZ ; CRaceMotionData::GetComboInputStartTime
  000a2	f3 0f 10 45 08	 movss	 xmm0, DWORD PTR _fElapsedTime$2[ebp]
  000a7	d9 5d fc	 fstp	 DWORD PTR tv175[ebp]
  000aa	0f 2f 45 fc	 comiss	 xmm0, DWORD PTR tv175[ebp]
  000ae	76 c5		 jbe	 SHORT $LN12@InputCombo

; 194  : 		{
; 195  : 			//Tracen("  ");
; 196  : 			m_isPreInput = TRUE;

  000b0	c7 86 0c 04 00
	00 01 00 00 00	 mov	 DWORD PTR [esi+1036], 1

; 209  : 		}
; 210  : 	}
; 211  : 	// Process Input
; 212  : 
; 213  : 	return false;
; 214  : }

  000ba	32 c0		 xor	 al, al
  000bc	5e		 pop	 esi
  000bd	8b e5		 mov	 esp, ebp
  000bf	5d		 pop	 ebp
  000c0	c2 04 00	 ret	 4
$LN5@InputCombo:

; 197  : 			return false;
; 198  : 		}
; 199  : 	}
; 200  : 	else
; 201  : 	{
; 202  : 		float fElapsedTime = GetAttackingElapsedTime();

  000c3	e8 00 00 00 00	 call	 ?GetAttackingElapsedTime@CActorInstance@@QAEMXZ ; CActorInstance::GetAttackingElapsedTime

; 203  : 		if (fElapsedTime > m_pkCurRaceMotionData->GetMotionDuration()*0.9f) //     

  000c8	8b 8e 24 04 00
	00		 mov	 ecx, DWORD PTR [esi+1060]
  000ce	d9 5d 08	 fstp	 DWORD PTR _fElapsedTime$1[ebp]
  000d1	e8 00 00 00 00	 call	 ?GetMotionDuration@CRaceMotionData@@QAEMXZ ; CRaceMotionData::GetMotionDuration
  000d6	d8 0d 00 00 00
	00		 fmul	 DWORD PTR __real@3f666666
  000dc	f3 0f 10 45 08	 movss	 xmm0, DWORD PTR _fElapsedTime$1[ebp]
  000e1	d9 5d fc	 fstp	 DWORD PTR tv166[ebp]
  000e4	0f 2f 45 fc	 comiss	 xmm0, DWORD PTR tv166[ebp]
  000e8	76 8b		 jbe	 SHORT $LN12@InputCombo
$LN14@InputCombo:

; 204  : 		{
; 205  : 			//Tracen("  ");
; 206  : 			// args : BlendingTime
; 207  : 			__RunNextCombo();

  000ea	8b ce		 mov	 ecx, esi
  000ec	e8 00 00 00 00	 call	 ?__RunNextCombo@CActorInstance@@IAEXXZ ; CActorInstance::__RunNextCombo

; 208  : 			return true;

  000f1	b0 01		 mov	 al, 1
  000f3	5e		 pop	 esi

; 209  : 		}
; 210  : 	}
; 211  : 	// Process Input
; 212  : 
; 213  : 	return false;
; 214  : }

  000f4	8b e5		 mov	 esp, ebp
  000f6	5d		 pop	 ebp
  000f7	c2 04 00	 ret	 4
?InputComboAttackCommand@CActorInstance@@QAE_NM@Z ENDP	; CActorInstance::InputComboAttackCommand
_TEXT	ENDS
; Function compile flags: /Ogtp
; File C:\Users\murat\Desktop\Siveps2-1-99-Project\source\client\Client\GameLib\ActorInstanceBattle.cpp
;	COMDAT ?InputNormalAttackCommand@CActorInstance@@QAEXM@Z
_TEXT	SEGMENT
_fDirRot$ = 8						; size = 4
?InputNormalAttackCommand@CActorInstance@@QAEXM@Z PROC	; CActorInstance::InputNormalAttackCommand, COMDAT
; _this$ = ecx

; 149  : {

  00000	55		 push	 ebp
  00001	8b ec		 mov	 ebp, esp
  00003	56		 push	 esi
  00004	8b f1		 mov	 esi, ecx

; 150  : 	if (!__CanInputNormalAttackCommand())

  00006	e8 00 00 00 00	 call	 ?__CanInputNormalAttackCommand@CActorInstance@@QAE_NXZ ; CActorInstance::__CanInputNormalAttackCommand
  0000b	84 c0		 test	 al, al
  0000d	74 24		 je	 SHORT $LN1@InputNorma

; 151  : 		return;
; 152  : 
; 153  : 	m_fAtkDirRot=fDirRot;

  0000f	f3 0f 10 45 08	 movss	 xmm0, DWORD PTR _fDirRot$[ebp]

; 154  : 	NormalAttack(m_fAtkDirRot);

  00014	83 ec 08	 sub	 esp, 8
  00017	8b ce		 mov	 ecx, esi
  00019	f3 0f 11 86 1c
	04 00 00	 movss	 DWORD PTR [esi+1052], xmm0
  00021	c7 44 24 04 cd
	cc cc 3d	 mov	 DWORD PTR [esp+4], 1036831949 ; 3dcccccdH
  00029	f3 0f 11 04 24	 movss	 DWORD PTR [esp], xmm0
  0002e	e8 00 00 00 00	 call	 ?NormalAttack@CActorInstance@@QAEHMM@Z ; CActorInstance::NormalAttack
$LN1@InputNorma:
  00033	5e		 pop	 esi

; 155  : }

  00034	5d		 pop	 ebp
  00035	c2 04 00	 ret	 4
?InputNormalAttackCommand@CActorInstance@@QAEXM@Z ENDP	; CActorInstance::InputNormalAttackCommand
_TEXT	ENDS
; Function compile flags: /Ogtp
; File C:\Users\murat\Desktop\Siveps2-1-99-Project\source\client\Client\GameLib\ActorInstanceBattle.cpp
; File C:\Program Files (x86)\Microsoft Visual Studio\2019\Professional\VC\Tools\MSVC\14.29.30133\include\list
; File C:\Users\murat\Desktop\Siveps2-1-99-Project\source\client\Client\GameLib\ActorInstanceBattle.cpp
; File C:\Program Files (x86)\Microsoft Visual Studio\2019\Professional\VC\Tools\MSVC\14.29.30133\include\vector
; File C:\Users\murat\Desktop\Siveps2-1-99-Project\source\client\Client\GameLib\ActorInstanceBattle.cpp
; File C:\Users\murat\Desktop\Siveps2-1-99-Project\source\client\extern\include\d3dx8math.inl
; File C:\Users\murat\Desktop\Siveps2-1-99-Project\source\client\Client\GameLib\ActorInstanceBattle.cpp
; File C:\Users\murat\Desktop\Siveps2-1-99-Project\source\client\extern\include\d3dx8math.inl
; File C:\Users\murat\Desktop\Siveps2-1-99-Project\source\client\Client\GameLib\ActorInstanceBattle.cpp
; File C:\Users\murat\Desktop\Siveps2-1-99-Project\source\client\extern\include\d3dx8math.inl
; File C:\Program Files (x86)\Windows Kits\10\Include\10.0.19041.0\ucrt\corecrt_math.h
; File C:\Users\murat\Desktop\Siveps2-1-99-Project\source\client\Client\GameLib\ActorInstanceBattle.cpp
; File C:\Program Files (x86)\Windows Kits\10\Include\10.0.19041.0\ucrt\corecrt_math.h
; File C:\Users\murat\Desktop\Siveps2-1-99-Project\source\client\Client\GameLib\ActorInstanceBattle.cpp
; File C:\Program Files (x86)\Microsoft Visual Studio\2019\Professional\VC\Tools\MSVC\14.29.30133\include\vector
; File C:\Users\murat\Desktop\Siveps2-1-99-Project\source\client\Client\GameLib\ActorInstanceBattle.cpp
; File C:\Program Files (x86)\Microsoft Visual Studio\2019\Professional\VC\Tools\MSVC\14.29.30133\include\list
; File C:\Users\murat\Desktop\Siveps2-1-99-Project\source\client\Client\GameLib\ActorInstanceBattle.cpp
;	COMDAT ?IsClickableDistanceDestInstance@CActorInstance@@QAEHAAV1@M@Z
_TEXT	SEGMENT
_i$1$ = -28						; size = 4
tv749 = -24						; size = 4
$T1 = -20						; size = 4
_kPPosSrc$ = -16					; size = 12
__$ArrayPad$ = -4					; size = 4
_rkInstDst$ = 8						; size = 4
_fDistance$ = 12					; size = 4
?IsClickableDistanceDestInstance@CActorInstance@@QAEHAAV1@M@Z PROC ; CActorInstance::IsClickableDistanceDestInstance, COMDAT
; _this$ = ecx

; 119  : {

  00000	55		 push	 ebp
  00001	8b ec		 mov	 ebp, esp
  00003	83 e4 f8	 and	 esp, -8			; fffffff8H
  00006	83 ec 20	 sub	 esp, 32			; 00000020H
  00009	a1 00 00 00 00	 mov	 eax, DWORD PTR ___security_cookie
  0000e	33 c4		 xor	 eax, esp
  00010	89 44 24 1c	 mov	 DWORD PTR __$ArrayPad$[esp+32], eax
  00014	56		 push	 esi
  00015	57		 push	 edi

; 120  : 	TPixelPosition kPPosSrc;
; 121  : 	GetPixelPosition(&kPPosSrc);

  00016	8d 44 24 18	 lea	 eax, DWORD PTR _kPPosSrc$[esp+40]
  0001a	50		 push	 eax
  0001b	e8 00 00 00 00	 call	 ?GetPixelPosition@CActorInstance@@QAEXPAUD3DXVECTOR3@@@Z ; CActorInstance::GetPixelPosition
; File C:\Program Files (x86)\Microsoft Visual Studio\2019\Professional\VC\Tools\MSVC\14.29.30133\include\list

; 1092 :         return iterator(_Mypair._Myval2._Myhead->_Next, _STD addressof(_Mypair._Myval2));

  00020	8b 4d 08	 mov	 ecx, DWORD PTR _rkInstDst$[ebp]
  00023	8b 89 40 03 00
	00		 mov	 ecx, DWORD PTR [ecx+832]
  00029	89 4c 24 14	 mov	 DWORD PTR $T1[esp+40], ecx

; 39   :     _List_unchecked_const_iterator(_Nodeptr _Pnode, const _Mylist* _Plist) noexcept : _Ptr(_Pnode) {

  0002d	8b 01		 mov	 eax, DWORD PTR [ecx]
  0002f	89 44 24 0c	 mov	 DWORD PTR _i$1$[esp+40], eax
  00033	3b c1		 cmp	 eax, ecx
; File C:\Users\murat\Desktop\Siveps2-1-99-Project\source\client\Client\GameLib\ActorInstanceBattle.cpp

; 128  : 	for (i=rkLstkDefPtInst.begin(); i!=rkLstkDefPtInst.end(); ++i)

  00035	0f 84 9c 00 00
	00		 je	 $LN86@IsClickabl
  0003b	0f 1f 44 00 00	 npad	 5
$LL27@IsClickabl:
; File C:\Program Files (x86)\Microsoft Visual Studio\2019\Professional\VC\Tools\MSVC\14.29.30133\include\vector

; 42   :     _CONSTEXPR20_CONTAINER _Vector_const_iterator(_Tptr _Parg, const _Container_base* _Pvector) noexcept : _Ptr(_Parg) {

  00040	8b 70 18	 mov	 esi, DWORD PTR [eax+24]
  00043	8b 78 1c	 mov	 edi, DWORD PTR [eax+28]

; 154  :         return _Ptr == _Right._Ptr;

  00046	3b f7		 cmp	 esi, edi
; File C:\Users\murat\Desktop\Siveps2-1-99-Project\source\client\Client\GameLib\ActorInstanceBattle.cpp

; 133  : 		for (j=rkVctkDefSphere.begin(); j!=rkVctkDefSphere.end(); ++j)

  00048	74 7f		 je	 SHORT $LN2@IsClickabl
  0004a	66 0f 1f 44 00
	00		 npad	 6
$LL57@IsClickabl:
; File C:\Users\murat\Desktop\Siveps2-1-99-Project\source\client\extern\include\d3dx8math.inl

; 263  :     return D3DXVECTOR3(x - v.x, y - v.y, z - v.z);

  00050	f3 0f 10 0e	 movss	 xmm1, DWORD PTR [esi]
  00054	f3 0f 10 5e 04	 movss	 xmm3, DWORD PTR [esi+4]
  00059	f3 0f 5c 5c 24
	1c		 subss	 xmm3, DWORD PTR _kPPosSrc$[esp+44]
  0005f	f3 0f 5c 4c 24
	18		 subss	 xmm1, DWORD PTR _kPPosSrc$[esp+40]
  00065	f3 0f 10 46 08	 movss	 xmm0, DWORD PTR [esi+8]
  0006a	f3 0f 5c 44 24
	20		 subss	 xmm0, DWORD PTR _kPPosSrc$[esp+48]
; File C:\Users\murat\Desktop\Siveps2-1-99-Project\source\client\Client\GameLib\ActorInstanceBattle.cpp

; 138  : 			float fAtkDistance=rkSphere.fRadius+fDistance;

  00070	f3 0f 10 55 0c	 movss	 xmm2, DWORD PTR _fDistance$[ebp]
  00075	f3 0f 58 56 18	 addss	 xmm2, DWORD PTR [esi+24]

; 140  : 			if (fAtkDistance>fMovDistance)

  0007a	f3 0f 59 db	 mulss	 xmm3, xmm3
; File C:\Users\murat\Desktop\Siveps2-1-99-Project\source\client\extern\include\d3dx8math.inl

; 1239 :     return sqrtf(pV->x * pV->x + pV->y * pV->y + pV->z * pV->z);

  0007e	f3 0f 59 c9	 mulss	 xmm1, xmm1
  00082	f3 0f 59 c0	 mulss	 xmm0, xmm0
  00086	f3 0f 58 d9	 addss	 xmm3, xmm1
; File C:\Users\murat\Desktop\Siveps2-1-99-Project\source\client\Client\GameLib\ActorInstanceBattle.cpp

; 138  : 			float fAtkDistance=rkSphere.fRadius+fDistance;

  0008a	f3 0f 11 54 24
	10		 movss	 DWORD PTR tv749[esp+40], xmm2
  00090	0f 57 c9	 xorps	 xmm1, xmm1
; File C:\Users\murat\Desktop\Siveps2-1-99-Project\source\client\extern\include\d3dx8math.inl

; 1239 :     return sqrtf(pV->x * pV->x + pV->y * pV->y + pV->z * pV->z);

  00093	f3 0f 58 d8	 addss	 xmm3, xmm0
; File C:\Program Files (x86)\Windows Kits\10\Include\10.0.19041.0\ucrt\corecrt_math.h

; 758  :             return (float)sqrt(_X);

  00097	0f 5a c3	 cvtps2pd xmm0, xmm3
  0009a	66 0f 2e c8	 ucomisd xmm1, xmm0
  0009e	77 06		 ja	 SHORT $LN87@IsClickabl
  000a0	f2 0f 51 c0	 sqrtsd	 xmm0, xmm0
  000a4	eb 05		 jmp	 SHORT $LN88@IsClickabl
$LN87@IsClickabl:
  000a6	e8 00 00 00 00	 call	 __libm_sse2_sqrt_precise
$LN88@IsClickabl:
; File C:\Users\murat\Desktop\Siveps2-1-99-Project\source\client\Client\GameLib\ActorInstanceBattle.cpp

; 140  : 			if (fAtkDistance>fMovDistance)

  000ab	f3 0f 10 4c 24
	10		 movss	 xmm1, DWORD PTR tv749[esp+40]
; File C:\Program Files (x86)\Windows Kits\10\Include\10.0.19041.0\ucrt\corecrt_math.h

; 758  :             return (float)sqrt(_X);

  000b1	f2 0f 5a c0	 cvtsd2ss xmm0, xmm0
; File C:\Users\murat\Desktop\Siveps2-1-99-Project\source\client\Client\GameLib\ActorInstanceBattle.cpp

; 140  : 			if (fAtkDistance>fMovDistance)

  000b5	0f 2f c8	 comiss	 xmm1, xmm0
  000b8	77 32		 ja	 SHORT $LN78@IsClickabl
; File C:\Program Files (x86)\Microsoft Visual Studio\2019\Professional\VC\Tools\MSVC\14.29.30133\include\vector

; 78   :         ++_Ptr;

  000ba	83 c6 1c	 add	 esi, 28			; 0000001cH

; 154  :         return _Ptr == _Right._Ptr;

  000bd	3b f7		 cmp	 esi, edi
; File C:\Users\murat\Desktop\Siveps2-1-99-Project\source\client\Client\GameLib\ActorInstanceBattle.cpp

; 133  : 		for (j=rkVctkDefSphere.begin(); j!=rkVctkDefSphere.end(); ++j)

  000bf	75 8f		 jne	 SHORT $LL57@IsClickabl
  000c1	8b 44 24 0c	 mov	 eax, DWORD PTR _i$1$[esp+40]
  000c5	8b 4c 24 14	 mov	 ecx, DWORD PTR $T1[esp+40]
$LN2@IsClickabl:
; File C:\Program Files (x86)\Microsoft Visual Studio\2019\Professional\VC\Tools\MSVC\14.29.30133\include\list

; 168  :         this->_Ptr = this->_Ptr->_Next;

  000c9	8b 00		 mov	 eax, DWORD PTR [eax]
  000cb	89 44 24 0c	 mov	 DWORD PTR _i$1$[esp+40], eax

; 201  :         return this->_Ptr == _Right._Ptr;

  000cf	3b c1		 cmp	 eax, ecx
; File C:\Users\murat\Desktop\Siveps2-1-99-Project\source\client\Client\GameLib\ActorInstanceBattle.cpp

; 128  : 	for (i=rkLstkDefPtInst.begin(); i!=rkLstkDefPtInst.end(); ++i)

  000d1	0f 85 69 ff ff
	ff		 jne	 $LL27@IsClickabl
$LN86@IsClickabl:

; 141  : 				return TRUE;
; 142  : 		}
; 143  : 	}
; 144  : 
; 145  : 	return FALSE;

  000d7	33 c0		 xor	 eax, eax

; 146  : }

  000d9	5f		 pop	 edi
  000da	5e		 pop	 esi
  000db	8b 4c 24 1c	 mov	 ecx, DWORD PTR __$ArrayPad$[esp+32]
  000df	33 cc		 xor	 ecx, esp
  000e1	e8 00 00 00 00	 call	 @__security_check_cookie@4
  000e6	8b e5		 mov	 esp, ebp
  000e8	5d		 pop	 ebp
  000e9	c2 08 00	 ret	 8
$LN78@IsClickabl:
  000ec	8b 4c 24 24	 mov	 ecx, DWORD PTR __$ArrayPad$[esp+40]
  000f0	b8 01 00 00 00	 mov	 eax, 1
  000f5	5f		 pop	 edi
  000f6	5e		 pop	 esi
  000f7	33 cc		 xor	 ecx, esp
  000f9	e8 00 00 00 00	 call	 @__security_check_cookie@4
  000fe	8b e5		 mov	 esp, ebp
  00100	5d		 pop	 ebp
  00101	c2 08 00	 ret	 8
?IsClickableDistanceDestInstance@CActorInstance@@QAEHAAV1@M@Z ENDP ; CActorInstance::IsClickableDistanceDestInstance
_TEXT	ENDS
; Function compile flags: /Ogtp
; File C:\Users\murat\Desktop\Siveps2-1-99-Project\source\client\Client\GameLib\ActorInstanceBattle.cpp
;	COMDAT ?CanCheckAttacking@CActorInstance@@QAEHXZ
_TEXT	SEGMENT
?CanCheckAttacking@CActorInstance@@QAEHXZ PROC		; CActorInstance::CanCheckAttacking, COMDAT
; _this$ = ecx

; 357  : 	if (isAttacking())

  00000	e8 00 00 00 00	 call	 ?isAttacking@CActorInstance@@QAEHXZ ; CActorInstance::isAttacking
  00005	f7 d8		 neg	 eax
  00007	1b c0		 sbb	 eax, eax
  00009	f7 d8		 neg	 eax

; 358  : 		return true;
; 359  : 
; 360  : 	return false;
; 361  : }

  0000b	c3		 ret	 0
?CanCheckAttacking@CActorInstance@@QAEHXZ ENDP		; CActorInstance::CanCheckAttacking
_TEXT	ENDS
; Function compile flags: /Ogtp
; File C:\Users\murat\Desktop\Siveps2-1-99-Project\source\client\Client\GameLib\ActorInstanceBattle.cpp
;	COMDAT ?CanUseSkill@CActorInstance@@QAE_NXZ
_TEXT	SEGMENT
?CanUseSkill@CActorInstance@@QAE_NXZ PROC		; CActorInstance::CanUseSkill, COMDAT
; _this$ = ecx

; 40   : {

  00000	56		 push	 esi
  00001	8b f1		 mov	 esi, ecx

; 41   : 	if (!CanAct())

  00003	e8 00 00 00 00	 call	 ?CanAct@CActorInstance@@QAE_NXZ ; CActorInstance::CanAct
  00008	84 c0		 test	 al, al
  0000a	74 3e		 je	 SHORT $LN12@CanUseSkil

; 42   : 		return false;
; 43   : 
; 44   : 	DWORD dwCurMotionIndex=__GetCurrentMotionIndex();

  0000c	8b ce		 mov	 ecx, esi
  0000e	e8 00 00 00 00	 call	 ?__GetCurrentMotionIndex@CActorInstance@@IAEGXZ ; CActorInstance::__GetCurrentMotionIndex
  00013	0f b7 c0	 movzx	 eax, ax

; 45   : 
; 46   : 	// Locked during attack
; 47   : 	switch (dwCurMotionIndex)

  00016	83 c0 e6	 add	 eax, -26		; ffffffe6H
  00019	83 f8 05	 cmp	 eax, 5
  0001c	77 0e		 ja	 SHORT $LN2@CanUseSkil
  0001e	0f b6 80 00 00
	00 00		 movzx	 eax, BYTE PTR $LN14@CanUseSkil[eax]
  00025	ff 24 85 00 00
	00 00		 jmp	 DWORD PTR $LN15@CanUseSkil[eax*4]
$LN2@CanUseSkil:

; 48   : 	{
; 49   : 		case CRaceMotionData::NAME_FISHING_THROW:
; 50   : 		case CRaceMotionData::NAME_FISHING_WAIT:
; 51   : 		case CRaceMotionData::NAME_FISHING_STOP:
; 52   : 		case CRaceMotionData::NAME_FISHING_REACT:
; 53   : 		case CRaceMotionData::NAME_FISHING_CATCH:
; 54   : 		case CRaceMotionData::NAME_FISHING_FAIL:
; 55   : 			return TRUE;
; 56   : 			break;
; 57   : 	}
; 58   : 
; 59   : 	// Locked during using skill
; 60   : 	if (IsUsingSkill())

  0002c	8b ce		 mov	 ecx, esi
  0002e	e8 00 00 00 00	 call	 ?IsUsingSkill@CActorInstance@@QAEHXZ ; CActorInstance::IsUsingSkill
  00033	85 c0		 test	 eax, eax
  00035	74 0f		 je	 SHORT $LN11@CanUseSkil

; 61   : 	{
; 62   : 		if (m_pkCurRaceMotionData->IsCancelEnableSkill())

  00037	8b 8e 24 04 00
	00		 mov	 ecx, DWORD PTR [esi+1060]
  0003d	e8 00 00 00 00	 call	 ?IsCancelEnableSkill@CRaceMotionData@@QBEHXZ ; CRaceMotionData::IsCancelEnableSkill
  00042	85 c0		 test	 eax, eax
  00044	74 04		 je	 SHORT $LN12@CanUseSkil
$LN11@CanUseSkil:

; 66   : 	}
; 67   : 
; 68   : 	return true;

  00046	b0 01		 mov	 al, 1
  00048	5e		 pop	 esi

; 69   : }

  00049	c3		 ret	 0
$LN12@CanUseSkil:

; 63   : 			return TRUE;
; 64   : 
; 65   : 		return FALSE;

  0004a	32 c0		 xor	 al, al
  0004c	5e		 pop	 esi

; 69   : }

  0004d	c3		 ret	 0
  0004e	66 90		 npad	 2
$LN15@CanUseSkil:
  00050	00 00 00 00	 DD	 $LN11@CanUseSkil
$LN14@CanUseSkil:
  00054	00		 DB	 0
  00055	00		 DB	 0
  00056	00		 DB	 0
  00057	00		 DB	 0
  00058	00		 DB	 0
  00059	00		 DB	 0
?CanUseSkill@CActorInstance@@QAE_NXZ ENDP		; CActorInstance::CanUseSkill
_TEXT	ENDS
; Function compile flags: /Ogtp
; File C:\Users\murat\Desktop\Siveps2-1-99-Project\source\client\Client\GameLib\ActorInstanceBattle.cpp
;	COMDAT ?CanAttack@CActorInstance@@QAE_NXZ
_TEXT	SEGMENT
?CanAttack@CActorInstance@@QAE_NXZ PROC			; CActorInstance::CanAttack, COMDAT
; _this$ = ecx

; 83   : {

  00000	56		 push	 esi
  00001	8b f1		 mov	 esi, ecx

; 84   : 	if (!CanAct())

  00003	e8 00 00 00 00	 call	 ?CanAct@CActorInstance@@QAE_NXZ ; CActorInstance::CanAct
  00008	84 c0		 test	 al, al
  0000a	74 1a		 je	 SHORT $LN6@CanAttack

; 85   : 		return false;
; 86   : 
; 87   : 	if (IsUsingSkill())

  0000c	8b ce		 mov	 ecx, esi
  0000e	e8 00 00 00 00	 call	 ?IsUsingSkill@CActorInstance@@QAEHXZ ; CActorInstance::IsUsingSkill
  00013	85 c0		 test	 eax, eax
  00015	74 0b		 je	 SHORT $LN4@CanAttack

; 88   : 	{
; 89   : 		if (!CanCancelSkill())

  00017	8b ce		 mov	 ecx, esi
  00019	e8 00 00 00 00	 call	 ?CanCancelSkill@CActorInstance@@QAEHXZ ; CActorInstance::CanCancelSkill
  0001e	85 c0		 test	 eax, eax
  00020	74 04		 je	 SHORT $LN6@CanAttack
$LN4@CanAttack:

; 91   : 	}
; 92   : 
; 93   : 	return true;

  00022	b0 01		 mov	 al, 1
  00024	5e		 pop	 esi

; 94   : }

  00025	c3		 ret	 0
$LN6@CanAttack:

; 90   : 			return false;

  00026	32 c0		 xor	 al, al
  00028	5e		 pop	 esi

; 94   : }

  00029	c3		 ret	 0
?CanAttack@CActorInstance@@QAE_NXZ ENDP			; CActorInstance::CanAttack
_TEXT	ENDS
; Function compile flags: /Ogtp
; File C:\Users\murat\Desktop\Siveps2-1-99-Project\source\client\Client\GameLib\ActorInstanceBattle.cpp
;	COMDAT ?CanMove@CActorInstance@@QAE_NXZ
_TEXT	SEGMENT
?CanMove@CActorInstance@@QAE_NXZ PROC			; CActorInstance::CanMove, COMDAT
; _this$ = ecx

; 72   : {

  00000	56		 push	 esi
  00001	8b f1		 mov	 esi, ecx

; 73   : 	if (!CanAct())

  00003	e8 00 00 00 00	 call	 ?CanAct@CActorInstance@@QAE_NXZ ; CActorInstance::CanAct
  00008	84 c0		 test	 al, al
  0000a	74 0f		 je	 SHORT $LN5@CanMove

; 74   : 		return false;
; 75   : 
; 76   : 	if (isLock())

  0000c	8b ce		 mov	 ecx, esi
  0000e	e8 00 00 00 00	 call	 ?isLock@CActorInstance@@QAEHXZ ; CActorInstance::isLock
  00013	85 c0		 test	 eax, eax
  00015	75 04		 jne	 SHORT $LN5@CanMove

; 78   : 
; 79   : 	return true;

  00017	b0 01		 mov	 al, 1
  00019	5e		 pop	 esi

; 80   : }

  0001a	c3		 ret	 0
$LN5@CanMove:

; 77   : 		return false;

  0001b	32 c0		 xor	 al, al
  0001d	5e		 pop	 esi

; 80   : }

  0001e	c3		 ret	 0
?CanMove@CActorInstance@@QAE_NXZ ENDP			; CActorInstance::CanMove
_TEXT	ENDS
; Function compile flags: /Ogtp
; File C:\Users\murat\Desktop\Siveps2-1-99-Project\source\client\Client\GameLib\ActorInstanceBattle.cpp
;	COMDAT ?CanAct@CActorInstance@@QAE_NXZ
_TEXT	SEGMENT
?CanAct@CActorInstance@@QAE_NXZ PROC			; CActorInstance::CanAct, COMDAT
; _this$ = ecx

; 20   : {

  00000	56		 push	 esi
  00001	8b f1		 mov	 esi, ecx

; 21   : 	if (IsDead())

  00003	e8 00 00 00 00	 call	 ?IsDead@CActorInstance@@QAEHXZ ; CActorInstance::IsDead
  00008	85 c0		 test	 eax, eax
  0000a	75 30		 jne	 SHORT $LN8@CanAct

; 22   : 		return false;
; 23   : 
; 24   : 	if (IsStun())

  0000c	8b ce		 mov	 ecx, esi
  0000e	e8 00 00 00 00	 call	 ?IsStun@CActorInstance@@QAEHXZ ; CActorInstance::IsStun
  00013	85 c0		 test	 eax, eax
  00015	75 25		 jne	 SHORT $LN8@CanAct

; 25   : 		return false;
; 26   : 
; 27   : 	if (IsParalysis())

  00017	8b ce		 mov	 ecx, esi
  00019	e8 00 00 00 00	 call	 ?IsParalysis@CActorInstance@@QAEHXZ ; CActorInstance::IsParalysis
  0001e	85 c0		 test	 eax, eax
  00020	75 1a		 jne	 SHORT $LN8@CanAct

; 28   : 		return false;
; 29   : 
; 30   : 	if (IsFaint())

  00022	8b ce		 mov	 ecx, esi
  00024	e8 00 00 00 00	 call	 ?IsFaint@CActorInstance@@QAEHXZ ; CActorInstance::IsFaint
  00029	85 c0		 test	 eax, eax
  0002b	75 0f		 jne	 SHORT $LN8@CanAct

; 31   : 		return false;
; 32   : 
; 33   : 	if (IsSleep())

  0002d	8b ce		 mov	 ecx, esi
  0002f	e8 00 00 00 00	 call	 ?IsSleep@CActorInstance@@QAEHXZ ; CActorInstance::IsSleep
  00034	85 c0		 test	 eax, eax
  00036	75 04		 jne	 SHORT $LN8@CanAct

; 35   : 
; 36   : 	return true;

  00038	b0 01		 mov	 al, 1
  0003a	5e		 pop	 esi

; 37   : }

  0003b	c3		 ret	 0
$LN8@CanAct:

; 34   : 		return false;

  0003c	32 c0		 xor	 al, al
  0003e	5e		 pop	 esi

; 37   : }

  0003f	c3		 ret	 0
?CanAct@CActorInstance@@QAE_NXZ ENDP			; CActorInstance::CanAct
_TEXT	ENDS
; Function compile flags: /Ogtp
; File C:\Users\murat\Desktop\Siveps2-1-99-Project\source\client\Client\GameLib\ActorInstanceBattle.cpp
;	COMDAT ?__empty_global_delete@@YAXPAXI@Z
_TEXT	SEGMENT
___formal$ = 8						; size = 4
___formal$ = 12						; size = 4
?__empty_global_delete@@YAXPAXI@Z PROC			; __empty_global_delete, COMDAT

  00000	c2 00 00	 ret	 0
?__empty_global_delete@@YAXPAXI@Z ENDP			; __empty_global_delete
_TEXT	ENDS
; Function compile flags: /Ogtp
; File C:\Users\murat\Desktop\Siveps2-1-99-Project\source\client\Client\GameLib\ActorInstanceBattle.cpp
;	COMDAT ?__empty_global_delete@@YAXPAX@Z
_TEXT	SEGMENT
___formal$ = 8						; size = 4
?__empty_global_delete@@YAXPAX@Z PROC			; __empty_global_delete, COMDAT

  00000	c2 00 00	 ret	 0
?__empty_global_delete@@YAXPAX@Z ENDP			; __empty_global_delete
_TEXT	ENDS
; Function compile flags: /Ogtp
;	COMDAT ??_H@YGXPAXIIP6EPAX0@Z@Z
_TEXT	SEGMENT
___t$ = 8						; size = 4
___s$ = 12						; size = 4
___n$ = 16						; size = 4
___f$ = 20						; size = 4
??_H@YGXPAXIIP6EPAX0@Z@Z PROC				; `vector constructor iterator', COMDAT
  00000	55		 push	 ebp
  00001	8b ec		 mov	 ebp, esp
  00003	56		 push	 esi
  00004	8b 75 10	 mov	 esi, DWORD PTR ___n$[ebp]
  00007	85 f6		 test	 esi, esi
  00009	74 16		 je	 SHORT $LN6@vector
  0000b	53		 push	 ebx
  0000c	8b 5d 14	 mov	 ebx, DWORD PTR ___f$[ebp]
  0000f	57		 push	 edi
  00010	8b 7d 08	 mov	 edi, DWORD PTR ___t$[ebp]
$LL2@vector:
  00013	8b cf		 mov	 ecx, edi
  00015	ff d3		 call	 ebx
  00017	03 7d 0c	 add	 edi, DWORD PTR ___s$[ebp]
  0001a	83 ee 01	 sub	 esi, 1
  0001d	75 f4		 jne	 SHORT $LL2@vector
  0001f	5f		 pop	 edi
  00020	5b		 pop	 ebx
$LN6@vector:
  00021	5e		 pop	 esi
  00022	5d		 pop	 ebp
  00023	c2 10 00	 ret	 16			; 00000010H
??_H@YGXPAXIIP6EPAX0@Z@Z ENDP				; `vector constructor iterator'
_TEXT	ENDS
END
