; Listing generated by Microsoft (R) Optimizing Compiler Version 19.29.30137.0 

	TITLE	C:\Users\murat\Desktop\Siveps2-1-99-Project\source\client\Client\GameLib\Distribute\ActorInstanceBattle.obj
	.686P
	.XMM
	include listing.inc
	.model	flat

INCLUDELIB LIBCMT
INCLUDELIB OLDNAMES

PUBLIC	??_7?$CDynamicPoolEx@VCTextureAnimationCWDecorator@NEffectUpdateDecorator@@@@6B@ ; CDynamicPoolEx<NEffectUpdateDecorator::CTextureAnimationCWDecorator>::`vftable'
PUBLIC	??_G?$CDynamicPoolEx@VCTextureAnimationCWDecorator@NEffectUpdateDecorator@@@@UAEPAXI@Z ; CDynamicPoolEx<NEffectUpdateDecorator::CTextureAnimationCWDecorator>::`scalar deleting destructor'
PUBLIC	??_7?$CDynamicPoolEx@VCNullDecorator@NEffectUpdateDecorator@@@@6B@ ; CDynamicPoolEx<NEffectUpdateDecorator::CNullDecorator>::`vftable'
PUBLIC	??_G?$CDynamicPoolEx@VCNullDecorator@NEffectUpdateDecorator@@@@UAEPAXI@Z ; CDynamicPoolEx<NEffectUpdateDecorator::CNullDecorator>::`scalar deleting destructor'
PUBLIC	??_R4?$CDynamicPoolEx@VCHeaderDecorator@NEffectUpdateDecorator@@@@6B@ ; CDynamicPoolEx<NEffectUpdateDecorator::CHeaderDecorator>::`RTTI Complete Object Locator'
PUBLIC	??_R0?AV?$CDynamicPoolEx@VCHeaderDecorator@NEffectUpdateDecorator@@@@@8 ; CDynamicPoolEx<NEffectUpdateDecorator::CHeaderDecorator> `RTTI Type Descriptor'
PUBLIC	??_R3?$CDynamicPoolEx@VCHeaderDecorator@NEffectUpdateDecorator@@@@8 ; CDynamicPoolEx<NEffectUpdateDecorator::CHeaderDecorator>::`RTTI Class Hierarchy Descriptor'
PUBLIC	??_R2?$CDynamicPoolEx@VCHeaderDecorator@NEffectUpdateDecorator@@@@8 ; CDynamicPoolEx<NEffectUpdateDecorator::CHeaderDecorator>::`RTTI Base Class Array'
PUBLIC	??_R1A@?0A@EA@?$CDynamicPoolEx@VCHeaderDecorator@NEffectUpdateDecorator@@@@8 ; CDynamicPoolEx<NEffectUpdateDecorator::CHeaderDecorator>::`RTTI Base Class Descriptor at (0,-1,0,64)'
PUBLIC	??_7?$CDynamicPoolEx@VCHeaderDecorator@NEffectUpdateDecorator@@@@6B@ ; CDynamicPoolEx<NEffectUpdateDecorator::CHeaderDecorator>::`vftable'
PUBLIC	??_G?$CDynamicPoolEx@VCHeaderDecorator@NEffectUpdateDecorator@@@@UAEPAXI@Z ; CDynamicPoolEx<NEffectUpdateDecorator::CHeaderDecorator>::`scalar deleting destructor'
PUBLIC	??_R4?$CDynamicPoolEx@VCNullDecorator@NEffectUpdateDecorator@@@@6B@ ; CDynamicPoolEx<NEffectUpdateDecorator::CNullDecorator>::`RTTI Complete Object Locator'
PUBLIC	??_R0?AV?$CDynamicPoolEx@VCNullDecorator@NEffectUpdateDecorator@@@@@8 ; CDynamicPoolEx<NEffectUpdateDecorator::CNullDecorator> `RTTI Type Descriptor'
PUBLIC	??_R3?$CDynamicPoolEx@VCNullDecorator@NEffectUpdateDecorator@@@@8 ; CDynamicPoolEx<NEffectUpdateDecorator::CNullDecorator>::`RTTI Class Hierarchy Descriptor'
PUBLIC	??_R2?$CDynamicPoolEx@VCNullDecorator@NEffectUpdateDecorator@@@@8 ; CDynamicPoolEx<NEffectUpdateDecorator::CNullDecorator>::`RTTI Base Class Array'
PUBLIC	??_R1A@?0A@EA@?$CDynamicPoolEx@VCNullDecorator@NEffectUpdateDecorator@@@@8 ; CDynamicPoolEx<NEffectUpdateDecorator::CNullDecorator>::`RTTI Base Class Descriptor at (0,-1,0,64)'
PUBLIC	??_R4?$CDynamicPoolEx@VCTextureAnimationCWDecorator@NEffectUpdateDecorator@@@@6B@ ; CDynamicPoolEx<NEffectUpdateDecorator::CTextureAnimationCWDecorator>::`RTTI Complete Object Locator'
PUBLIC	??_R0?AV?$CDynamicPoolEx@VCTextureAnimationCWDecorator@NEffectUpdateDecorator@@@@@8 ; CDynamicPoolEx<NEffectUpdateDecorator::CTextureAnimationCWDecorator> `RTTI Type Descriptor'
PUBLIC	??_R3?$CDynamicPoolEx@VCTextureAnimationCWDecorator@NEffectUpdateDecorator@@@@8 ; CDynamicPoolEx<NEffectUpdateDecorator::CTextureAnimationCWDecorator>::`RTTI Class Hierarchy Descriptor'
PUBLIC	??_R2?$CDynamicPoolEx@VCTextureAnimationCWDecorator@NEffectUpdateDecorator@@@@8 ; CDynamicPoolEx<NEffectUpdateDecorator::CTextureAnimationCWDecorator>::`RTTI Base Class Array'
PUBLIC	??_R1A@?0A@EA@?$CDynamicPoolEx@VCTextureAnimationCWDecorator@NEffectUpdateDecorator@@@@8 ; CDynamicPoolEx<NEffectUpdateDecorator::CTextureAnimationCWDecorator>::`RTTI Base Class Descriptor at (0,-1,0,64)'
PUBLIC	??_R4?$CDynamicPoolEx@VCTextureAnimationCCWDecorator@NEffectUpdateDecorator@@@@6B@ ; CDynamicPoolEx<NEffectUpdateDecorator::CTextureAnimationCCWDecorator>::`RTTI Complete Object Locator'
PUBLIC	??_R0?AV?$CDynamicPoolEx@VCTextureAnimationCCWDecorator@NEffectUpdateDecorator@@@@@8 ; CDynamicPoolEx<NEffectUpdateDecorator::CTextureAnimationCCWDecorator> `RTTI Type Descriptor'
PUBLIC	??_R3?$CDynamicPoolEx@VCTextureAnimationCCWDecorator@NEffectUpdateDecorator@@@@8 ; CDynamicPoolEx<NEffectUpdateDecorator::CTextureAnimationCCWDecorator>::`RTTI Class Hierarchy Descriptor'
PUBLIC	??_R2?$CDynamicPoolEx@VCTextureAnimationCCWDecorator@NEffectUpdateDecorator@@@@8 ; CDynamicPoolEx<NEffectUpdateDecorator::CTextureAnimationCCWDecorator>::`RTTI Base Class Array'
PUBLIC	??_R1A@?0A@EA@?$CDynamicPoolEx@VCTextureAnimationCCWDecorator@NEffectUpdateDecorator@@@@8 ; CDynamicPoolEx<NEffectUpdateDecorator::CTextureAnimationCCWDecorator>::`RTTI Base Class Descriptor at (0,-1,0,64)'
PUBLIC	??_R4?$CDynamicPoolEx@VCTextureAnimationRandomDecorator@NEffectUpdateDecorator@@@@6B@ ; CDynamicPoolEx<NEffectUpdateDecorator::CTextureAnimationRandomDecorator>::`RTTI Complete Object Locator'
PUBLIC	??_R0?AV?$CDynamicPoolEx@VCTextureAnimationRandomDecorator@NEffectUpdateDecorator@@@@@8 ; CDynamicPoolEx<NEffectUpdateDecorator::CTextureAnimationRandomDecorator> `RTTI Type Descriptor'
PUBLIC	??_R3?$CDynamicPoolEx@VCTextureAnimationRandomDecorator@NEffectUpdateDecorator@@@@8 ; CDynamicPoolEx<NEffectUpdateDecorator::CTextureAnimationRandomDecorator>::`RTTI Class Hierarchy Descriptor'
PUBLIC	??_R2?$CDynamicPoolEx@VCTextureAnimationRandomDecorator@NEffectUpdateDecorator@@@@8 ; CDynamicPoolEx<NEffectUpdateDecorator::CTextureAnimationRandomDecorator>::`RTTI Base Class Array'
PUBLIC	??_R1A@?0A@EA@?$CDynamicPoolEx@VCTextureAnimationRandomDecorator@NEffectUpdateDecorator@@@@8 ; CDynamicPoolEx<NEffectUpdateDecorator::CTextureAnimationRandomDecorator>::`RTTI Base Class Descriptor at (0,-1,0,64)'
PUBLIC	??_R4?$CDynamicPoolEx@VCAirResistanceDecorator@NEffectUpdateDecorator@@@@6B@ ; CDynamicPoolEx<NEffectUpdateDecorator::CAirResistanceDecorator>::`RTTI Complete Object Locator'
PUBLIC	??_R0?AV?$CDynamicPoolEx@VCAirResistanceDecorator@NEffectUpdateDecorator@@@@@8 ; CDynamicPoolEx<NEffectUpdateDecorator::CAirResistanceDecorator> `RTTI Type Descriptor'
PUBLIC	??_R3?$CDynamicPoolEx@VCAirResistanceDecorator@NEffectUpdateDecorator@@@@8 ; CDynamicPoolEx<NEffectUpdateDecorator::CAirResistanceDecorator>::`RTTI Class Hierarchy Descriptor'
PUBLIC	??_R2?$CDynamicPoolEx@VCAirResistanceDecorator@NEffectUpdateDecorator@@@@8 ; CDynamicPoolEx<NEffectUpdateDecorator::CAirResistanceDecorator>::`RTTI Base Class Array'
PUBLIC	??_R1A@?0A@EA@?$CDynamicPoolEx@VCAirResistanceDecorator@NEffectUpdateDecorator@@@@8 ; CDynamicPoolEx<NEffectUpdateDecorator::CAirResistanceDecorator>::`RTTI Base Class Descriptor at (0,-1,0,64)'
PUBLIC	??_R4?$CDynamicPoolEx@VCGravityDecorator@NEffectUpdateDecorator@@@@6B@ ; CDynamicPoolEx<NEffectUpdateDecorator::CGravityDecorator>::`RTTI Complete Object Locator'
PUBLIC	??_R0?AV?$CDynamicPoolEx@VCGravityDecorator@NEffectUpdateDecorator@@@@@8 ; CDynamicPoolEx<NEffectUpdateDecorator::CGravityDecorator> `RTTI Type Descriptor'
PUBLIC	??_R3?$CDynamicPoolEx@VCGravityDecorator@NEffectUpdateDecorator@@@@8 ; CDynamicPoolEx<NEffectUpdateDecorator::CGravityDecorator>::`RTTI Class Hierarchy Descriptor'
PUBLIC	??_R2?$CDynamicPoolEx@VCGravityDecorator@NEffectUpdateDecorator@@@@8 ; CDynamicPoolEx<NEffectUpdateDecorator::CGravityDecorator>::`RTTI Base Class Array'
PUBLIC	??_R1A@?0A@EA@?$CDynamicPoolEx@VCGravityDecorator@NEffectUpdateDecorator@@@@8 ; CDynamicPoolEx<NEffectUpdateDecorator::CGravityDecorator>::`RTTI Base Class Descriptor at (0,-1,0,64)'
PUBLIC	??_R4?$CDynamicPoolEx@VCRotationDecorator@NEffectUpdateDecorator@@@@6B@ ; CDynamicPoolEx<NEffectUpdateDecorator::CRotationDecorator>::`RTTI Complete Object Locator'
PUBLIC	??_R0?AV?$CDynamicPoolEx@VCRotationDecorator@NEffectUpdateDecorator@@@@@8 ; CDynamicPoolEx<NEffectUpdateDecorator::CRotationDecorator> `RTTI Type Descriptor'
PUBLIC	??_R3?$CDynamicPoolEx@VCRotationDecorator@NEffectUpdateDecorator@@@@8 ; CDynamicPoolEx<NEffectUpdateDecorator::CRotationDecorator>::`RTTI Class Hierarchy Descriptor'
PUBLIC	??_R2?$CDynamicPoolEx@VCRotationDecorator@NEffectUpdateDecorator@@@@8 ; CDynamicPoolEx<NEffectUpdateDecorator::CRotationDecorator>::`RTTI Base Class Array'
PUBLIC	??_R1A@?0A@EA@?$CDynamicPoolEx@VCRotationDecorator@NEffectUpdateDecorator@@@@8 ; CDynamicPoolEx<NEffectUpdateDecorator::CRotationDecorator>::`RTTI Base Class Descriptor at (0,-1,0,64)'
PUBLIC	??_7?$CDynamicPoolEx@VCRotationDecorator@NEffectUpdateDecorator@@@@6B@ ; CDynamicPoolEx<NEffectUpdateDecorator::CRotationDecorator>::`vftable'
PUBLIC	??_G?$CDynamicPoolEx@VCRotationDecorator@NEffectUpdateDecorator@@@@UAEPAXI@Z ; CDynamicPoolEx<NEffectUpdateDecorator::CRotationDecorator>::`scalar deleting destructor'
PUBLIC	??_7?$CDynamicPoolEx@VCGravityDecorator@NEffectUpdateDecorator@@@@6B@ ; CDynamicPoolEx<NEffectUpdateDecorator::CGravityDecorator>::`vftable'
PUBLIC	??_G?$CDynamicPoolEx@VCGravityDecorator@NEffectUpdateDecorator@@@@UAEPAXI@Z ; CDynamicPoolEx<NEffectUpdateDecorator::CGravityDecorator>::`scalar deleting destructor'
PUBLIC	??_7?$CDynamicPoolEx@VCAirResistanceDecorator@NEffectUpdateDecorator@@@@6B@ ; CDynamicPoolEx<NEffectUpdateDecorator::CAirResistanceDecorator>::`vftable'
PUBLIC	??_G?$CDynamicPoolEx@VCAirResistanceDecorator@NEffectUpdateDecorator@@@@UAEPAXI@Z ; CDynamicPoolEx<NEffectUpdateDecorator::CAirResistanceDecorator>::`scalar deleting destructor'
PUBLIC	??_7?$CDynamicPoolEx@VCTextureAnimationRandomDecorator@NEffectUpdateDecorator@@@@6B@ ; CDynamicPoolEx<NEffectUpdateDecorator::CTextureAnimationRandomDecorator>::`vftable'
PUBLIC	??_G?$CDynamicPoolEx@VCTextureAnimationRandomDecorator@NEffectUpdateDecorator@@@@UAEPAXI@Z ; CDynamicPoolEx<NEffectUpdateDecorator::CTextureAnimationRandomDecorator>::`scalar deleting destructor'
PUBLIC	??_7?$CDynamicPoolEx@VCTextureAnimationCCWDecorator@NEffectUpdateDecorator@@@@6B@ ; CDynamicPoolEx<NEffectUpdateDecorator::CTextureAnimationCCWDecorator>::`vftable'
PUBLIC	??_G?$CDynamicPoolEx@VCTextureAnimationCCWDecorator@NEffectUpdateDecorator@@@@UAEPAXI@Z ; CDynamicPoolEx<NEffectUpdateDecorator::CTextureAnimationCCWDecorator>::`scalar deleting destructor'
EXTRN	??_E?$CDynamicPoolEx@VCTextureAnimationCWDecorator@NEffectUpdateDecorator@@@@UAEPAXI@Z:PROC ; CDynamicPoolEx<NEffectUpdateDecorator::CTextureAnimationCWDecorator>::`vector deleting destructor'
EXTRN	??_E?$CDynamicPoolEx@VCNullDecorator@NEffectUpdateDecorator@@@@UAEPAXI@Z:PROC ; CDynamicPoolEx<NEffectUpdateDecorator::CNullDecorator>::`vector deleting destructor'
EXTRN	??_7type_info@@6B@:QWORD			; type_info::`vftable'
EXTRN	??_E?$CDynamicPoolEx@VCHeaderDecorator@NEffectUpdateDecorator@@@@UAEPAXI@Z:PROC ; CDynamicPoolEx<NEffectUpdateDecorator::CHeaderDecorator>::`vector deleting destructor'
EXTRN	??_E?$CDynamicPoolEx@VCRotationDecorator@NEffectUpdateDecorator@@@@UAEPAXI@Z:PROC ; CDynamicPoolEx<NEffectUpdateDecorator::CRotationDecorator>::`vector deleting destructor'
EXTRN	??_E?$CDynamicPoolEx@VCGravityDecorator@NEffectUpdateDecorator@@@@UAEPAXI@Z:PROC ; CDynamicPoolEx<NEffectUpdateDecorator::CGravityDecorator>::`vector deleting destructor'
EXTRN	??_E?$CDynamicPoolEx@VCAirResistanceDecorator@NEffectUpdateDecorator@@@@UAEPAXI@Z:PROC ; CDynamicPoolEx<NEffectUpdateDecorator::CAirResistanceDecorator>::`vector deleting destructor'
EXTRN	??_E?$CDynamicPoolEx@VCTextureAnimationRandomDecorator@NEffectUpdateDecorator@@@@UAEPAXI@Z:PROC ; CDynamicPoolEx<NEffectUpdateDecorator::CTextureAnimationRandomDecorator>::`vector deleting destructor'
EXTRN	??_E?$CDynamicPoolEx@VCTextureAnimationCCWDecorator@NEffectUpdateDecorator@@@@UAEPAXI@Z:PROC ; CDynamicPoolEx<NEffectUpdateDecorator::CTextureAnimationCCWDecorator>::`vector deleting destructor'
;	COMDAT ??_7?$CDynamicPoolEx@VCTextureAnimationCCWDecorator@NEffectUpdateDecorator@@@@6B@
CONST	SEGMENT
??_7?$CDynamicPoolEx@VCTextureAnimationCCWDecorator@NEffectUpdateDecorator@@@@6B@ DD FLAT:??_R4?$CDynamicPoolEx@VCTextureAnimationCCWDecorator@NEffectUpdateDecorator@@@@6B@ ; CDynamicPoolEx<NEffectUpdateDecorator::CTextureAnimationCCWDecorator>::`vftable'
	DD	FLAT:??_E?$CDynamicPoolEx@VCTextureAnimationCCWDecorator@NEffectUpdateDecorator@@@@UAEPAXI@Z
CONST	ENDS
;	COMDAT ??_7?$CDynamicPoolEx@VCTextureAnimationRandomDecorator@NEffectUpdateDecorator@@@@6B@
CONST	SEGMENT
??_7?$CDynamicPoolEx@VCTextureAnimationRandomDecorator@NEffectUpdateDecorator@@@@6B@ DD FLAT:??_R4?$CDynamicPoolEx@VCTextureAnimationRandomDecorator@NEffectUpdateDecorator@@@@6B@ ; CDynamicPoolEx<NEffectUpdateDecorator::CTextureAnimationRandomDecorator>::`vftable'
	DD	FLAT:??_E?$CDynamicPoolEx@VCTextureAnimationRandomDecorator@NEffectUpdateDecorator@@@@UAEPAXI@Z
CONST	ENDS
;	COMDAT ??_7?$CDynamicPoolEx@VCAirResistanceDecorator@NEffectUpdateDecorator@@@@6B@
CONST	SEGMENT
??_7?$CDynamicPoolEx@VCAirResistanceDecorator@NEffectUpdateDecorator@@@@6B@ DD FLAT:??_R4?$CDynamicPoolEx@VCAirResistanceDecorator@NEffectUpdateDecorator@@@@6B@ ; CDynamicPoolEx<NEffectUpdateDecorator::CAirResistanceDecorator>::`vftable'
	DD	FLAT:??_E?$CDynamicPoolEx@VCAirResistanceDecorator@NEffectUpdateDecorator@@@@UAEPAXI@Z
CONST	ENDS
;	COMDAT ??_7?$CDynamicPoolEx@VCGravityDecorator@NEffectUpdateDecorator@@@@6B@
CONST	SEGMENT
??_7?$CDynamicPoolEx@VCGravityDecorator@NEffectUpdateDecorator@@@@6B@ DD FLAT:??_R4?$CDynamicPoolEx@VCGravityDecorator@NEffectUpdateDecorator@@@@6B@ ; CDynamicPoolEx<NEffectUpdateDecorator::CGravityDecorator>::`vftable'
	DD	FLAT:??_E?$CDynamicPoolEx@VCGravityDecorator@NEffectUpdateDecorator@@@@UAEPAXI@Z
CONST	ENDS
;	COMDAT ??_7?$CDynamicPoolEx@VCRotationDecorator@NEffectUpdateDecorator@@@@6B@
CONST	SEGMENT
??_7?$CDynamicPoolEx@VCRotationDecorator@NEffectUpdateDecorator@@@@6B@ DD FLAT:??_R4?$CDynamicPoolEx@VCRotationDecorator@NEffectUpdateDecorator@@@@6B@ ; CDynamicPoolEx<NEffectUpdateDecorator::CRotationDecorator>::`vftable'
	DD	FLAT:??_E?$CDynamicPoolEx@VCRotationDecorator@NEffectUpdateDecorator@@@@UAEPAXI@Z
CONST	ENDS
CONST	SEGMENT
?_Fake_alloc@std@@3U_Fake_allocator@1@B	ORG $+1		; std::_Fake_alloc
CONST	ENDS
;	COMDAT ??_R1A@?0A@EA@?$CDynamicPoolEx@VCRotationDecorator@NEffectUpdateDecorator@@@@8
rdata$r	SEGMENT
??_R1A@?0A@EA@?$CDynamicPoolEx@VCRotationDecorator@NEffectUpdateDecorator@@@@8 DD FLAT:??_R0?AV?$CDynamicPoolEx@VCRotationDecorator@NEffectUpdateDecorator@@@@@8 ; CDynamicPoolEx<NEffectUpdateDecorator::CRotationDecorator>::`RTTI Base Class Descriptor at (0,-1,0,64)'
	DD	00H
	DD	00H
	DD	0ffffffffH
	DD	00H
	DD	040H
	DD	FLAT:??_R3?$CDynamicPoolEx@VCRotationDecorator@NEffectUpdateDecorator@@@@8
rdata$r	ENDS
;	COMDAT ??_R2?$CDynamicPoolEx@VCRotationDecorator@NEffectUpdateDecorator@@@@8
rdata$r	SEGMENT
??_R2?$CDynamicPoolEx@VCRotationDecorator@NEffectUpdateDecorator@@@@8 DD FLAT:??_R1A@?0A@EA@?$CDynamicPoolEx@VCRotationDecorator@NEffectUpdateDecorator@@@@8 ; CDynamicPoolEx<NEffectUpdateDecorator::CRotationDecorator>::`RTTI Base Class Array'
rdata$r	ENDS
;	COMDAT ??_R3?$CDynamicPoolEx@VCRotationDecorator@NEffectUpdateDecorator@@@@8
rdata$r	SEGMENT
??_R3?$CDynamicPoolEx@VCRotationDecorator@NEffectUpdateDecorator@@@@8 DD 00H ; CDynamicPoolEx<NEffectUpdateDecorator::CRotationDecorator>::`RTTI Class Hierarchy Descriptor'
	DD	00H
	DD	01H
	DD	FLAT:??_R2?$CDynamicPoolEx@VCRotationDecorator@NEffectUpdateDecorator@@@@8
rdata$r	ENDS
;	COMDAT ??_R0?AV?$CDynamicPoolEx@VCRotationDecorator@NEffectUpdateDecorator@@@@@8
data$rs	SEGMENT
??_R0?AV?$CDynamicPoolEx@VCRotationDecorator@NEffectUpdateDecorator@@@@@8 DD FLAT:??_7type_info@@6B@ ; CDynamicPoolEx<NEffectUpdateDecorator::CRotationDecorator> `RTTI Type Descriptor'
	DD	00H
	DB	'.?AV?$CDynamicPoolEx@VCRotationDecorator@NEffectUpdateDe'
	DB	'corator@@@@', 00H
data$rs	ENDS
;	COMDAT ??_R4?$CDynamicPoolEx@VCRotationDecorator@NEffectUpdateDecorator@@@@6B@
rdata$r	SEGMENT
??_R4?$CDynamicPoolEx@VCRotationDecorator@NEffectUpdateDecorator@@@@6B@ DD 00H ; CDynamicPoolEx<NEffectUpdateDecorator::CRotationDecorator>::`RTTI Complete Object Locator'
	DD	00H
	DD	00H
	DD	FLAT:??_R0?AV?$CDynamicPoolEx@VCRotationDecorator@NEffectUpdateDecorator@@@@@8
	DD	FLAT:??_R3?$CDynamicPoolEx@VCRotationDecorator@NEffectUpdateDecorator@@@@8
rdata$r	ENDS
;	COMDAT ??_R1A@?0A@EA@?$CDynamicPoolEx@VCGravityDecorator@NEffectUpdateDecorator@@@@8
rdata$r	SEGMENT
??_R1A@?0A@EA@?$CDynamicPoolEx@VCGravityDecorator@NEffectUpdateDecorator@@@@8 DD FLAT:??_R0?AV?$CDynamicPoolEx@VCGravityDecorator@NEffectUpdateDecorator@@@@@8 ; CDynamicPoolEx<NEffectUpdateDecorator::CGravityDecorator>::`RTTI Base Class Descriptor at (0,-1,0,64)'
	DD	00H
	DD	00H
	DD	0ffffffffH
	DD	00H
	DD	040H
	DD	FLAT:??_R3?$CDynamicPoolEx@VCGravityDecorator@NEffectUpdateDecorator@@@@8
rdata$r	ENDS
;	COMDAT ??_R2?$CDynamicPoolEx@VCGravityDecorator@NEffectUpdateDecorator@@@@8
rdata$r	SEGMENT
??_R2?$CDynamicPoolEx@VCGravityDecorator@NEffectUpdateDecorator@@@@8 DD FLAT:??_R1A@?0A@EA@?$CDynamicPoolEx@VCGravityDecorator@NEffectUpdateDecorator@@@@8 ; CDynamicPoolEx<NEffectUpdateDecorator::CGravityDecorator>::`RTTI Base Class Array'
rdata$r	ENDS
;	COMDAT ??_R3?$CDynamicPoolEx@VCGravityDecorator@NEffectUpdateDecorator@@@@8
rdata$r	SEGMENT
??_R3?$CDynamicPoolEx@VCGravityDecorator@NEffectUpdateDecorator@@@@8 DD 00H ; CDynamicPoolEx<NEffectUpdateDecorator::CGravityDecorator>::`RTTI Class Hierarchy Descriptor'
	DD	00H
	DD	01H
	DD	FLAT:??_R2?$CDynamicPoolEx@VCGravityDecorator@NEffectUpdateDecorator@@@@8
rdata$r	ENDS
;	COMDAT ??_R0?AV?$CDynamicPoolEx@VCGravityDecorator@NEffectUpdateDecorator@@@@@8
data$rs	SEGMENT
??_R0?AV?$CDynamicPoolEx@VCGravityDecorator@NEffectUpdateDecorator@@@@@8 DD FLAT:??_7type_info@@6B@ ; CDynamicPoolEx<NEffectUpdateDecorator::CGravityDecorator> `RTTI Type Descriptor'
	DD	00H
	DB	'.?AV?$CDynamicPoolEx@VCGravityDecorator@NEffectUpdateDec'
	DB	'orator@@@@', 00H
data$rs	ENDS
;	COMDAT ??_R4?$CDynamicPoolEx@VCGravityDecorator@NEffectUpdateDecorator@@@@6B@
rdata$r	SEGMENT
??_R4?$CDynamicPoolEx@VCGravityDecorator@NEffectUpdateDecorator@@@@6B@ DD 00H ; CDynamicPoolEx<NEffectUpdateDecorator::CGravityDecorator>::`RTTI Complete Object Locator'
	DD	00H
	DD	00H
	DD	FLAT:??_R0?AV?$CDynamicPoolEx@VCGravityDecorator@NEffectUpdateDecorator@@@@@8
	DD	FLAT:??_R3?$CDynamicPoolEx@VCGravityDecorator@NEffectUpdateDecorator@@@@8
rdata$r	ENDS
;	COMDAT ??_R1A@?0A@EA@?$CDynamicPoolEx@VCAirResistanceDecorator@NEffectUpdateDecorator@@@@8
rdata$r	SEGMENT
??_R1A@?0A@EA@?$CDynamicPoolEx@VCAirResistanceDecorator@NEffectUpdateDecorator@@@@8 DD FLAT:??_R0?AV?$CDynamicPoolEx@VCAirResistanceDecorator@NEffectUpdateDecorator@@@@@8 ; CDynamicPoolEx<NEffectUpdateDecorator::CAirResistanceDecorator>::`RTTI Base Class Descriptor at (0,-1,0,64)'
	DD	00H
	DD	00H
	DD	0ffffffffH
	DD	00H
	DD	040H
	DD	FLAT:??_R3?$CDynamicPoolEx@VCAirResistanceDecorator@NEffectUpdateDecorator@@@@8
rdata$r	ENDS
;	COMDAT ??_R2?$CDynamicPoolEx@VCAirResistanceDecorator@NEffectUpdateDecorator@@@@8
rdata$r	SEGMENT
??_R2?$CDynamicPoolEx@VCAirResistanceDecorator@NEffectUpdateDecorator@@@@8 DD FLAT:??_R1A@?0A@EA@?$CDynamicPoolEx@VCAirResistanceDecorator@NEffectUpdateDecorator@@@@8 ; CDynamicPoolEx<NEffectUpdateDecorator::CAirResistanceDecorator>::`RTTI Base Class Array'
rdata$r	ENDS
;	COMDAT ??_R3?$CDynamicPoolEx@VCAirResistanceDecorator@NEffectUpdateDecorator@@@@8
rdata$r	SEGMENT
??_R3?$CDynamicPoolEx@VCAirResistanceDecorator@NEffectUpdateDecorator@@@@8 DD 00H ; CDynamicPoolEx<NEffectUpdateDecorator::CAirResistanceDecorator>::`RTTI Class Hierarchy Descriptor'
	DD	00H
	DD	01H
	DD	FLAT:??_R2?$CDynamicPoolEx@VCAirResistanceDecorator@NEffectUpdateDecorator@@@@8
rdata$r	ENDS
;	COMDAT ??_R0?AV?$CDynamicPoolEx@VCAirResistanceDecorator@NEffectUpdateDecorator@@@@@8
data$rs	SEGMENT
??_R0?AV?$CDynamicPoolEx@VCAirResistanceDecorator@NEffectUpdateDecorator@@@@@8 DD FLAT:??_7type_info@@6B@ ; CDynamicPoolEx<NEffectUpdateDecorator::CAirResistanceDecorator> `RTTI Type Descriptor'
	DD	00H
	DB	'.?AV?$CDynamicPoolEx@VCAirResistanceDecorator@NEffectUpd'
	DB	'ateDecorator@@@@', 00H
data$rs	ENDS
;	COMDAT ??_R4?$CDynamicPoolEx@VCAirResistanceDecorator@NEffectUpdateDecorator@@@@6B@
rdata$r	SEGMENT
??_R4?$CDynamicPoolEx@VCAirResistanceDecorator@NEffectUpdateDecorator@@@@6B@ DD 00H ; CDynamicPoolEx<NEffectUpdateDecorator::CAirResistanceDecorator>::`RTTI Complete Object Locator'
	DD	00H
	DD	00H
	DD	FLAT:??_R0?AV?$CDynamicPoolEx@VCAirResistanceDecorator@NEffectUpdateDecorator@@@@@8
	DD	FLAT:??_R3?$CDynamicPoolEx@VCAirResistanceDecorator@NEffectUpdateDecorator@@@@8
rdata$r	ENDS
;	COMDAT ??_R1A@?0A@EA@?$CDynamicPoolEx@VCTextureAnimationRandomDecorator@NEffectUpdateDecorator@@@@8
rdata$r	SEGMENT
??_R1A@?0A@EA@?$CDynamicPoolEx@VCTextureAnimationRandomDecorator@NEffectUpdateDecorator@@@@8 DD FLAT:??_R0?AV?$CDynamicPoolEx@VCTextureAnimationRandomDecorator@NEffectUpdateDecorator@@@@@8 ; CDynamicPoolEx<NEffectUpdateDecorator::CTextureAnimationRandomDecorator>::`RTTI Base Class Descriptor at (0,-1,0,64)'
	DD	00H
	DD	00H
	DD	0ffffffffH
	DD	00H
	DD	040H
	DD	FLAT:??_R3?$CDynamicPoolEx@VCTextureAnimationRandomDecorator@NEffectUpdateDecorator@@@@8
rdata$r	ENDS
;	COMDAT ??_R2?$CDynamicPoolEx@VCTextureAnimationRandomDecorator@NEffectUpdateDecorator@@@@8
rdata$r	SEGMENT
??_R2?$CDynamicPoolEx@VCTextureAnimationRandomDecorator@NEffectUpdateDecorator@@@@8 DD FLAT:??_R1A@?0A@EA@?$CDynamicPoolEx@VCTextureAnimationRandomDecorator@NEffectUpdateDecorator@@@@8 ; CDynamicPoolEx<NEffectUpdateDecorator::CTextureAnimationRandomDecorator>::`RTTI Base Class Array'
rdata$r	ENDS
;	COMDAT ??_R3?$CDynamicPoolEx@VCTextureAnimationRandomDecorator@NEffectUpdateDecorator@@@@8
rdata$r	SEGMENT
??_R3?$CDynamicPoolEx@VCTextureAnimationRandomDecorator@NEffectUpdateDecorator@@@@8 DD 00H ; CDynamicPoolEx<NEffectUpdateDecorator::CTextureAnimationRandomDecorator>::`RTTI Class Hierarchy Descriptor'
	DD	00H
	DD	01H
	DD	FLAT:??_R2?$CDynamicPoolEx@VCTextureAnimationRandomDecorator@NEffectUpdateDecorator@@@@8
rdata$r	ENDS
;	COMDAT ??_R0?AV?$CDynamicPoolEx@VCTextureAnimationRandomDecorator@NEffectUpdateDecorator@@@@@8
data$rs	SEGMENT
??_R0?AV?$CDynamicPoolEx@VCTextureAnimationRandomDecorator@NEffectUpdateDecorator@@@@@8 DD FLAT:??_7type_info@@6B@ ; CDynamicPoolEx<NEffectUpdateDecorator::CTextureAnimationRandomDecorator> `RTTI Type Descriptor'
	DD	00H
	DB	'.?AV?$CDynamicPoolEx@VCTextureAnimationRandomDecorator@N'
	DB	'EffectUpdateDecorator@@@@', 00H
data$rs	ENDS
;	COMDAT ??_R4?$CDynamicPoolEx@VCTextureAnimationRandomDecorator@NEffectUpdateDecorator@@@@6B@
rdata$r	SEGMENT
??_R4?$CDynamicPoolEx@VCTextureAnimationRandomDecorator@NEffectUpdateDecorator@@@@6B@ DD 00H ; CDynamicPoolEx<NEffectUpdateDecorator::CTextureAnimationRandomDecorator>::`RTTI Complete Object Locator'
	DD	00H
	DD	00H
	DD	FLAT:??_R0?AV?$CDynamicPoolEx@VCTextureAnimationRandomDecorator@NEffectUpdateDecorator@@@@@8
	DD	FLAT:??_R3?$CDynamicPoolEx@VCTextureAnimationRandomDecorator@NEffectUpdateDecorator@@@@8
rdata$r	ENDS
;	COMDAT ??_R1A@?0A@EA@?$CDynamicPoolEx@VCTextureAnimationCCWDecorator@NEffectUpdateDecorator@@@@8
rdata$r	SEGMENT
??_R1A@?0A@EA@?$CDynamicPoolEx@VCTextureAnimationCCWDecorator@NEffectUpdateDecorator@@@@8 DD FLAT:??_R0?AV?$CDynamicPoolEx@VCTextureAnimationCCWDecorator@NEffectUpdateDecorator@@@@@8 ; CDynamicPoolEx<NEffectUpdateDecorator::CTextureAnimationCCWDecorator>::`RTTI Base Class Descriptor at (0,-1,0,64)'
	DD	00H
	DD	00H
	DD	0ffffffffH
	DD	00H
	DD	040H
	DD	FLAT:??_R3?$CDynamicPoolEx@VCTextureAnimationCCWDecorator@NEffectUpdateDecorator@@@@8
rdata$r	ENDS
;	COMDAT ??_R2?$CDynamicPoolEx@VCTextureAnimationCCWDecorator@NEffectUpdateDecorator@@@@8
rdata$r	SEGMENT
??_R2?$CDynamicPoolEx@VCTextureAnimationCCWDecorator@NEffectUpdateDecorator@@@@8 DD FLAT:??_R1A@?0A@EA@?$CDynamicPoolEx@VCTextureAnimationCCWDecorator@NEffectUpdateDecorator@@@@8 ; CDynamicPoolEx<NEffectUpdateDecorator::CTextureAnimationCCWDecorator>::`RTTI Base Class Array'
rdata$r	ENDS
;	COMDAT ??_R3?$CDynamicPoolEx@VCTextureAnimationCCWDecorator@NEffectUpdateDecorator@@@@8
rdata$r	SEGMENT
??_R3?$CDynamicPoolEx@VCTextureAnimationCCWDecorator@NEffectUpdateDecorator@@@@8 DD 00H ; CDynamicPoolEx<NEffectUpdateDecorator::CTextureAnimationCCWDecorator>::`RTTI Class Hierarchy Descriptor'
	DD	00H
	DD	01H
	DD	FLAT:??_R2?$CDynamicPoolEx@VCTextureAnimationCCWDecorator@NEffectUpdateDecorator@@@@8
rdata$r	ENDS
;	COMDAT ??_R0?AV?$CDynamicPoolEx@VCTextureAnimationCCWDecorator@NEffectUpdateDecorator@@@@@8
data$rs	SEGMENT
??_R0?AV?$CDynamicPoolEx@VCTextureAnimationCCWDecorator@NEffectUpdateDecorator@@@@@8 DD FLAT:??_7type_info@@6B@ ; CDynamicPoolEx<NEffectUpdateDecorator::CTextureAnimationCCWDecorator> `RTTI Type Descriptor'
	DD	00H
	DB	'.?AV?$CDynamicPoolEx@VCTextureAnimationCCWDecorator@NEff'
	DB	'ectUpdateDecorator@@@@', 00H
data$rs	ENDS
;	COMDAT ??_R4?$CDynamicPoolEx@VCTextureAnimationCCWDecorator@NEffectUpdateDecorator@@@@6B@
rdata$r	SEGMENT
??_R4?$CDynamicPoolEx@VCTextureAnimationCCWDecorator@NEffectUpdateDecorator@@@@6B@ DD 00H ; CDynamicPoolEx<NEffectUpdateDecorator::CTextureAnimationCCWDecorator>::`RTTI Complete Object Locator'
	DD	00H
	DD	00H
	DD	FLAT:??_R0?AV?$CDynamicPoolEx@VCTextureAnimationCCWDecorator@NEffectUpdateDecorator@@@@@8
	DD	FLAT:??_R3?$CDynamicPoolEx@VCTextureAnimationCCWDecorator@NEffectUpdateDecorator@@@@8
rdata$r	ENDS
;	COMDAT ??_R1A@?0A@EA@?$CDynamicPoolEx@VCTextureAnimationCWDecorator@NEffectUpdateDecorator@@@@8
rdata$r	SEGMENT
??_R1A@?0A@EA@?$CDynamicPoolEx@VCTextureAnimationCWDecorator@NEffectUpdateDecorator@@@@8 DD FLAT:??_R0?AV?$CDynamicPoolEx@VCTextureAnimationCWDecorator@NEffectUpdateDecorator@@@@@8 ; CDynamicPoolEx<NEffectUpdateDecorator::CTextureAnimationCWDecorator>::`RTTI Base Class Descriptor at (0,-1,0,64)'
	DD	00H
	DD	00H
	DD	0ffffffffH
	DD	00H
	DD	040H
	DD	FLAT:??_R3?$CDynamicPoolEx@VCTextureAnimationCWDecorator@NEffectUpdateDecorator@@@@8
rdata$r	ENDS
;	COMDAT ??_R2?$CDynamicPoolEx@VCTextureAnimationCWDecorator@NEffectUpdateDecorator@@@@8
rdata$r	SEGMENT
??_R2?$CDynamicPoolEx@VCTextureAnimationCWDecorator@NEffectUpdateDecorator@@@@8 DD FLAT:??_R1A@?0A@EA@?$CDynamicPoolEx@VCTextureAnimationCWDecorator@NEffectUpdateDecorator@@@@8 ; CDynamicPoolEx<NEffectUpdateDecorator::CTextureAnimationCWDecorator>::`RTTI Base Class Array'
rdata$r	ENDS
;	COMDAT ??_R3?$CDynamicPoolEx@VCTextureAnimationCWDecorator@NEffectUpdateDecorator@@@@8
rdata$r	SEGMENT
??_R3?$CDynamicPoolEx@VCTextureAnimationCWDecorator@NEffectUpdateDecorator@@@@8 DD 00H ; CDynamicPoolEx<NEffectUpdateDecorator::CTextureAnimationCWDecorator>::`RTTI Class Hierarchy Descriptor'
	DD	00H
	DD	01H
	DD	FLAT:??_R2?$CDynamicPoolEx@VCTextureAnimationCWDecorator@NEffectUpdateDecorator@@@@8
rdata$r	ENDS
;	COMDAT ??_R0?AV?$CDynamicPoolEx@VCTextureAnimationCWDecorator@NEffectUpdateDecorator@@@@@8
data$rs	SEGMENT
??_R0?AV?$CDynamicPoolEx@VCTextureAnimationCWDecorator@NEffectUpdateDecorator@@@@@8 DD FLAT:??_7type_info@@6B@ ; CDynamicPoolEx<NEffectUpdateDecorator::CTextureAnimationCWDecorator> `RTTI Type Descriptor'
	DD	00H
	DB	'.?AV?$CDynamicPoolEx@VCTextureAnimationCWDecorator@NEffe'
	DB	'ctUpdateDecorator@@@@', 00H
data$rs	ENDS
;	COMDAT ??_R4?$CDynamicPoolEx@VCTextureAnimationCWDecorator@NEffectUpdateDecorator@@@@6B@
rdata$r	SEGMENT
??_R4?$CDynamicPoolEx@VCTextureAnimationCWDecorator@NEffectUpdateDecorator@@@@6B@ DD 00H ; CDynamicPoolEx<NEffectUpdateDecorator::CTextureAnimationCWDecorator>::`RTTI Complete Object Locator'
	DD	00H
	DD	00H
	DD	FLAT:??_R0?AV?$CDynamicPoolEx@VCTextureAnimationCWDecorator@NEffectUpdateDecorator@@@@@8
	DD	FLAT:??_R3?$CDynamicPoolEx@VCTextureAnimationCWDecorator@NEffectUpdateDecorator@@@@8
rdata$r	ENDS
;	COMDAT ??_R1A@?0A@EA@?$CDynamicPoolEx@VCNullDecorator@NEffectUpdateDecorator@@@@8
rdata$r	SEGMENT
??_R1A@?0A@EA@?$CDynamicPoolEx@VCNullDecorator@NEffectUpdateDecorator@@@@8 DD FLAT:??_R0?AV?$CDynamicPoolEx@VCNullDecorator@NEffectUpdateDecorator@@@@@8 ; CDynamicPoolEx<NEffectUpdateDecorator::CNullDecorator>::`RTTI Base Class Descriptor at (0,-1,0,64)'
	DD	00H
	DD	00H
	DD	0ffffffffH
	DD	00H
	DD	040H
	DD	FLAT:??_R3?$CDynamicPoolEx@VCNullDecorator@NEffectUpdateDecorator@@@@8
rdata$r	ENDS
;	COMDAT ??_R2?$CDynamicPoolEx@VCNullDecorator@NEffectUpdateDecorator@@@@8
rdata$r	SEGMENT
??_R2?$CDynamicPoolEx@VCNullDecorator@NEffectUpdateDecorator@@@@8 DD FLAT:??_R1A@?0A@EA@?$CDynamicPoolEx@VCNullDecorator@NEffectUpdateDecorator@@@@8 ; CDynamicPoolEx<NEffectUpdateDecorator::CNullDecorator>::`RTTI Base Class Array'
rdata$r	ENDS
;	COMDAT ??_R3?$CDynamicPoolEx@VCNullDecorator@NEffectUpdateDecorator@@@@8
rdata$r	SEGMENT
??_R3?$CDynamicPoolEx@VCNullDecorator@NEffectUpdateDecorator@@@@8 DD 00H ; CDynamicPoolEx<NEffectUpdateDecorator::CNullDecorator>::`RTTI Class Hierarchy Descriptor'
	DD	00H
	DD	01H
	DD	FLAT:??_R2?$CDynamicPoolEx@VCNullDecorator@NEffectUpdateDecorator@@@@8
rdata$r	ENDS
;	COMDAT ??_R0?AV?$CDynamicPoolEx@VCNullDecorator@NEffectUpdateDecorator@@@@@8
data$rs	SEGMENT
??_R0?AV?$CDynamicPoolEx@VCNullDecorator@NEffectUpdateDecorator@@@@@8 DD FLAT:??_7type_info@@6B@ ; CDynamicPoolEx<NEffectUpdateDecorator::CNullDecorator> `RTTI Type Descriptor'
	DD	00H
	DB	'.?AV?$CDynamicPoolEx@VCNullDecorator@NEffectUpdateDecora'
	DB	'tor@@@@', 00H
data$rs	ENDS
;	COMDAT ??_R4?$CDynamicPoolEx@VCNullDecorator@NEffectUpdateDecorator@@@@6B@
rdata$r	SEGMENT
??_R4?$CDynamicPoolEx@VCNullDecorator@NEffectUpdateDecorator@@@@6B@ DD 00H ; CDynamicPoolEx<NEffectUpdateDecorator::CNullDecorator>::`RTTI Complete Object Locator'
	DD	00H
	DD	00H
	DD	FLAT:??_R0?AV?$CDynamicPoolEx@VCNullDecorator@NEffectUpdateDecorator@@@@@8
	DD	FLAT:??_R3?$CDynamicPoolEx@VCNullDecorator@NEffectUpdateDecorator@@@@8
rdata$r	ENDS
;	COMDAT ??_7?$CDynamicPoolEx@VCHeaderDecorator@NEffectUpdateDecorator@@@@6B@
CONST	SEGMENT
??_7?$CDynamicPoolEx@VCHeaderDecorator@NEffectUpdateDecorator@@@@6B@ DD FLAT:??_R4?$CDynamicPoolEx@VCHeaderDecorator@NEffectUpdateDecorator@@@@6B@ ; CDynamicPoolEx<NEffectUpdateDecorator::CHeaderDecorator>::`vftable'
	DD	FLAT:??_E?$CDynamicPoolEx@VCHeaderDecorator@NEffectUpdateDecorator@@@@UAEPAXI@Z
CONST	ENDS
;	COMDAT ??_R1A@?0A@EA@?$CDynamicPoolEx@VCHeaderDecorator@NEffectUpdateDecorator@@@@8
rdata$r	SEGMENT
??_R1A@?0A@EA@?$CDynamicPoolEx@VCHeaderDecorator@NEffectUpdateDecorator@@@@8 DD FLAT:??_R0?AV?$CDynamicPoolEx@VCHeaderDecorator@NEffectUpdateDecorator@@@@@8 ; CDynamicPoolEx<NEffectUpdateDecorator::CHeaderDecorator>::`RTTI Base Class Descriptor at (0,-1,0,64)'
	DD	00H
	DD	00H
	DD	0ffffffffH
	DD	00H
	DD	040H
	DD	FLAT:??_R3?$CDynamicPoolEx@VCHeaderDecorator@NEffectUpdateDecorator@@@@8
rdata$r	ENDS
;	COMDAT ??_R2?$CDynamicPoolEx@VCHeaderDecorator@NEffectUpdateDecorator@@@@8
rdata$r	SEGMENT
??_R2?$CDynamicPoolEx@VCHeaderDecorator@NEffectUpdateDecorator@@@@8 DD FLAT:??_R1A@?0A@EA@?$CDynamicPoolEx@VCHeaderDecorator@NEffectUpdateDecorator@@@@8 ; CDynamicPoolEx<NEffectUpdateDecorator::CHeaderDecorator>::`RTTI Base Class Array'
rdata$r	ENDS
;	COMDAT ??_R3?$CDynamicPoolEx@VCHeaderDecorator@NEffectUpdateDecorator@@@@8
rdata$r	SEGMENT
??_R3?$CDynamicPoolEx@VCHeaderDecorator@NEffectUpdateDecorator@@@@8 DD 00H ; CDynamicPoolEx<NEffectUpdateDecorator::CHeaderDecorator>::`RTTI Class Hierarchy Descriptor'
	DD	00H
	DD	01H
	DD	FLAT:??_R2?$CDynamicPoolEx@VCHeaderDecorator@NEffectUpdateDecorator@@@@8
rdata$r	ENDS
;	COMDAT ??_R0?AV?$CDynamicPoolEx@VCHeaderDecorator@NEffectUpdateDecorator@@@@@8
data$rs	SEGMENT
??_R0?AV?$CDynamicPoolEx@VCHeaderDecorator@NEffectUpdateDecorator@@@@@8 DD FLAT:??_7type_info@@6B@ ; CDynamicPoolEx<NEffectUpdateDecorator::CHeaderDecorator> `RTTI Type Descriptor'
	DD	00H
	DB	'.?AV?$CDynamicPoolEx@VCHeaderDecorator@NEffectUpdateDeco'
	DB	'rator@@@@', 00H
data$rs	ENDS
;	COMDAT ??_R4?$CDynamicPoolEx@VCHeaderDecorator@NEffectUpdateDecorator@@@@6B@
rdata$r	SEGMENT
??_R4?$CDynamicPoolEx@VCHeaderDecorator@NEffectUpdateDecorator@@@@6B@ DD 00H ; CDynamicPoolEx<NEffectUpdateDecorator::CHeaderDecorator>::`RTTI Complete Object Locator'
	DD	00H
	DD	00H
	DD	FLAT:??_R0?AV?$CDynamicPoolEx@VCHeaderDecorator@NEffectUpdateDecorator@@@@@8
	DD	FLAT:??_R3?$CDynamicPoolEx@VCHeaderDecorator@NEffectUpdateDecorator@@@@8
rdata$r	ENDS
;	COMDAT ??_7?$CDynamicPoolEx@VCNullDecorator@NEffectUpdateDecorator@@@@6B@
CONST	SEGMENT
??_7?$CDynamicPoolEx@VCNullDecorator@NEffectUpdateDecorator@@@@6B@ DD FLAT:??_R4?$CDynamicPoolEx@VCNullDecorator@NEffectUpdateDecorator@@@@6B@ ; CDynamicPoolEx<NEffectUpdateDecorator::CNullDecorator>::`vftable'
	DD	FLAT:??_E?$CDynamicPoolEx@VCNullDecorator@NEffectUpdateDecorator@@@@UAEPAXI@Z
CONST	ENDS
;	COMDAT ??_7?$CDynamicPoolEx@VCTextureAnimationCWDecorator@NEffectUpdateDecorator@@@@6B@
CONST	SEGMENT
??_7?$CDynamicPoolEx@VCTextureAnimationCWDecorator@NEffectUpdateDecorator@@@@6B@ DD FLAT:??_R4?$CDynamicPoolEx@VCTextureAnimationCWDecorator@NEffectUpdateDecorator@@@@6B@ ; CDynamicPoolEx<NEffectUpdateDecorator::CTextureAnimationCWDecorator>::`vftable'
	DD	FLAT:??_E?$CDynamicPoolEx@VCTextureAnimationCWDecorator@NEffectUpdateDecorator@@@@UAEPAXI@Z
CONST	ENDS
PUBLIC	??_H@YGXPAXIIP6EPAX0@Z@Z			; `vector constructor iterator'
PUBLIC	?__empty_global_delete@@YAXPAX@Z		; __empty_global_delete
PUBLIC	?__empty_global_delete@@YAXPAXI@Z		; __empty_global_delete
PUBLIC	?CanAct@CActorInstance@@QAE_NXZ			; CActorInstance::CanAct
PUBLIC	?CanMove@CActorInstance@@QAE_NXZ		; CActorInstance::CanMove
PUBLIC	?CanAttack@CActorInstance@@QAE_NXZ		; CActorInstance::CanAttack
PUBLIC	?CanUseSkill@CActorInstance@@QAE_NXZ		; CActorInstance::CanUseSkill
PUBLIC	?CanCheckAttacking@CActorInstance@@QAEHXZ	; CActorInstance::CanCheckAttacking
PUBLIC	?IsClickableDistanceDestInstance@CActorInstance@@QAEHAAV1@M@Z ; CActorInstance::IsClickableDistanceDestInstance
PUBLIC	?InputNormalAttackCommand@CActorInstance@@QAEXM@Z ; CActorInstance::InputNormalAttackCommand
PUBLIC	?InputComboAttackCommand@CActorInstance@@QAE_NM@Z ; CActorInstance::InputComboAttackCommand
PUBLIC	?isAttacking@CActorInstance@@QAEHXZ		; CActorInstance::isAttacking
PUBLIC	?isNormalAttacking@CActorInstance@@QAEHXZ	; CActorInstance::isNormalAttacking
PUBLIC	?isComboAttacking@CActorInstance@@QAEHXZ	; CActorInstance::isComboAttacking
PUBLIC	?IsSplashAttacking@CActorInstance@@QAEHXZ	; CActorInstance::IsSplashAttacking
PUBLIC	?IsUsingMovingSkill@CActorInstance@@QAEHXZ	; CActorInstance::IsUsingMovingSkill
PUBLIC	?IsActEmotion@CActorInstance@@QAEHXZ		; CActorInstance::IsActEmotion
PUBLIC	?GetComboIndex@CActorInstance@@QAEKXZ		; CActorInstance::GetComboIndex
PUBLIC	?GetAttackingElapsedTime@CActorInstance@@QAEMXZ	; CActorInstance::GetAttackingElapsedTime
PUBLIC	?SetBlendingPosition@CActorInstance@@QAEXABUD3DXVECTOR3@@M@Z ; CActorInstance::SetBlendingPosition
PUBLIC	?ResetBlendingPosition@CActorInstance@@QAEXXZ	; CActorInstance::ResetBlendingPosition
PUBLIC	?GetBlendingPosition@CActorInstance@@QAEXPAUD3DXVECTOR3@@@Z ; CActorInstance::GetBlendingPosition
PUBLIC	?NormalAttack@CActorInstance@@QAEHMM@Z		; CActorInstance::NormalAttack
PUBLIC	?ComboAttack@CActorInstance@@QAEHKMM@Z		; CActorInstance::ComboAttack
PUBLIC	?SetBattleHitEffect@CActorInstance@@QAEXK@Z	; CActorInstance::SetBattleHitEffect
PUBLIC	?SetBattleAttachEffect@CActorInstance@@QAEXK@Z	; CActorInstance::SetBattleAttachEffect
PUBLIC	?CanFishing@CActorInstance@@QAE_NXZ		; CActorInstance::CanFishing
PUBLIC	?OnShootDamage@CActorInstance@@UAEXXZ		; CActorInstance::OnShootDamage
PUBLIC	?ComboProcess@CActorInstance@@QAEXXZ		; CActorInstance::ComboProcess
PUBLIC	?ShakeProcess@CActorInstance@@QAEXXZ		; CActorInstance::ShakeProcess
PUBLIC	?__CanInputNormalAttackCommand@CActorInstance@@QAE_NXZ ; CActorInstance::__CanInputNormalAttackCommand
PUBLIC	?__Shake@CActorInstance@@AAEXK@Z		; CActorInstance::__Shake
PUBLIC	?__IsInSplashTime@CActorInstance@@IAE_NXZ	; CActorInstance::__IsInSplashTime
PUBLIC	?isValidAttacking@CActorInstance@@IAEHXZ	; CActorInstance::isValidAttacking
PUBLIC	?__GetOwnerTime@CActorInstance@@IAEMXZ		; CActorInstance::__GetOwnerTime
PUBLIC	?__GetOwnerVID@CActorInstance@@IAEKXZ		; CActorInstance::__GetOwnerVID
PUBLIC	?__CanPushDestActor@CActorInstance@@IAE_NAAV1@@Z ; CActorInstance::__CanPushDestActor
PUBLIC	?__RunNextCombo@CActorInstance@@IAEXXZ		; CActorInstance::__RunNextCombo
PUBLIC	?__ClearCombo@CActorInstance@@IAEXXZ		; CActorInstance::__ClearCombo
PUBLIC	?__OnEndCombo@CActorInstance@@IAEXXZ		; CActorInstance::__OnEndCombo
PUBLIC	?__ProcessDataAttackSuccess@CActorInstance@@IAEXABUSAttackData@NRaceData@@AAV1@ABUD3DXVECTOR3@@IH@Z ; CActorInstance::__ProcessDataAttackSuccess
PUBLIC	?__ProcessMotionEventAttackSuccess@CActorInstance@@IAEXKEAAV1@@Z ; CActorInstance::__ProcessMotionEventAttackSuccess
PUBLIC	?__ProcessMotionAttackSuccess@CActorInstance@@IAEXKAAV1@@Z ; CActorInstance::__ProcessMotionAttackSuccess
PUBLIC	?__HitStone@CActorInstance@@IAEXAAV1@@Z		; CActorInstance::__HitStone
PUBLIC	?__HitGood@CActorInstance@@IAEXAAV1@@Z		; CActorInstance::__HitGood
PUBLIC	?__HitGreate@CActorInstance@@IAEXAAV1@@Z	; CActorInstance::__HitGreate
PUBLIC	?__PushDirect@CActorInstance@@IAEXAAV1@@Z	; CActorInstance::__PushDirect
PUBLIC	?__PushCircle@CActorInstance@@IAEXAAV1@@Z	; CActorInstance::__PushCircle
PUBLIC	?__isInvisible@CActorInstance@@IAE_NXZ		; CActorInstance::__isInvisible
PUBLIC	?__SetFallingDirection@CActorInstance@@IAEXMM@Z	; CActorInstance::__SetFallingDirection
PUBLIC	?__IsMovingSkill@CActorInstance@@IAEHG@Z	; CActorInstance::__IsMovingSkill
PUBLIC	?IS_HUGE_RACE@@YA_NI@Z				; IS_HUGE_RACE
PUBLIC	?IS_PARTY_HUNTING_RACE@@YA_NI@Z			; IS_PARTY_HUNTING_RACE
PUBLIC	??1?$CDynamicPoolEx@VCRotationDecorator@NEffectUpdateDecorator@@@@UAE@XZ ; CDynamicPoolEx<NEffectUpdateDecorator::CRotationDecorator>::~CDynamicPoolEx<NEffectUpdateDecorator::CRotationDecorator>
PUBLIC	?Delete@?$CDynamicPoolEx@VCRotationDecorator@NEffectUpdateDecorator@@@@KAXPAVCRotationDecorator@NEffectUpdateDecorator@@@Z ; CDynamicPoolEx<NEffectUpdateDecorator::CRotationDecorator>::Delete
PUBLIC	??1?$CDynamicPoolEx@VCGravityDecorator@NEffectUpdateDecorator@@@@UAE@XZ ; CDynamicPoolEx<NEffectUpdateDecorator::CGravityDecorator>::~CDynamicPoolEx<NEffectUpdateDecorator::CGravityDecorator>
PUBLIC	?Delete@?$CDynamicPoolEx@VCGravityDecorator@NEffectUpdateDecorator@@@@KAXPAVCGravityDecorator@NEffectUpdateDecorator@@@Z ; CDynamicPoolEx<NEffectUpdateDecorator::CGravityDecorator>::Delete
PUBLIC	??1?$CDynamicPoolEx@VCAirResistanceDecorator@NEffectUpdateDecorator@@@@UAE@XZ ; CDynamicPoolEx<NEffectUpdateDecorator::CAirResistanceDecorator>::~CDynamicPoolEx<NEffectUpdateDecorator::CAirResistanceDecorator>
PUBLIC	?Delete@?$CDynamicPoolEx@VCAirResistanceDecorator@NEffectUpdateDecorator@@@@KAXPAVCAirResistanceDecorator@NEffectUpdateDecorator@@@Z ; CDynamicPoolEx<NEffectUpdateDecorator::CAirResistanceDecorator>::Delete
PUBLIC	??1?$CDynamicPoolEx@VCTextureAnimationRandomDecorator@NEffectUpdateDecorator@@@@UAE@XZ ; CDynamicPoolEx<NEffectUpdateDecorator::CTextureAnimationRandomDecorator>::~CDynamicPoolEx<NEffectUpdateDecorator::CTextureAnimationRandomDecorator>
PUBLIC	?Delete@?$CDynamicPoolEx@VCTextureAnimationRandomDecorator@NEffectUpdateDecorator@@@@KAXPAVCTextureAnimationRandomDecorator@NEffectUpdateDecorator@@@Z ; CDynamicPoolEx<NEffectUpdateDecorator::CTextureAnimationRandomDecorator>::Delete
PUBLIC	??1?$CDynamicPoolEx@VCTextureAnimationCCWDecorator@NEffectUpdateDecorator@@@@UAE@XZ ; CDynamicPoolEx<NEffectUpdateDecorator::CTextureAnimationCCWDecorator>::~CDynamicPoolEx<NEffectUpdateDecorator::CTextureAnimationCCWDecorator>
PUBLIC	?Delete@?$CDynamicPoolEx@VCTextureAnimationCCWDecorator@NEffectUpdateDecorator@@@@KAXPAVCTextureAnimationCCWDecorator@NEffectUpdateDecorator@@@Z ; CDynamicPoolEx<NEffectUpdateDecorator::CTextureAnimationCCWDecorator>::Delete
PUBLIC	??1?$CDynamicPoolEx@VCTextureAnimationCWDecorator@NEffectUpdateDecorator@@@@UAE@XZ ; CDynamicPoolEx<NEffectUpdateDecorator::CTextureAnimationCWDecorator>::~CDynamicPoolEx<NEffectUpdateDecorator::CTextureAnimationCWDecorator>
PUBLIC	?Delete@?$CDynamicPoolEx@VCTextureAnimationCWDecorator@NEffectUpdateDecorator@@@@KAXPAVCTextureAnimationCWDecorator@NEffectUpdateDecorator@@@Z ; CDynamicPoolEx<NEffectUpdateDecorator::CTextureAnimationCWDecorator>::Delete
PUBLIC	??1?$CDynamicPoolEx@VCNullDecorator@NEffectUpdateDecorator@@@@UAE@XZ ; CDynamicPoolEx<NEffectUpdateDecorator::CNullDecorator>::~CDynamicPoolEx<NEffectUpdateDecorator::CNullDecorator>
PUBLIC	?Delete@?$CDynamicPoolEx@VCNullDecorator@NEffectUpdateDecorator@@@@KAXPAVCNullDecorator@NEffectUpdateDecorator@@@Z ; CDynamicPoolEx<NEffectUpdateDecorator::CNullDecorator>::Delete
PUBLIC	??1?$CDynamicPoolEx@VCHeaderDecorator@NEffectUpdateDecorator@@@@UAE@XZ ; CDynamicPoolEx<NEffectUpdateDecorator::CHeaderDecorator>::~CDynamicPoolEx<NEffectUpdateDecorator::CHeaderDecorator>
PUBLIC	?Delete@?$CDynamicPoolEx@VCHeaderDecorator@NEffectUpdateDecorator@@@@KAXPAVCHeaderDecorator@NEffectUpdateDecorator@@@Z ; CDynamicPoolEx<NEffectUpdateDecorator::CHeaderDecorator>::Delete
PUBLIC	?ms_singleton@?$CSingleton@VCTimer@@@@0PAVCTimer@@A ; CSingleton<CTimer>::ms_singleton
PUBLIC	?ms_kPool@?$CPooledObject@VCHeaderDecorator@NEffectUpdateDecorator@@@@1V?$CDynamicPoolEx@VCHeaderDecorator@NEffectUpdateDecorator@@@@A ; CPooledObject<NEffectUpdateDecorator::CHeaderDecorator>::ms_kPool
PUBLIC	?ms_kPool@?$CPooledObject@VCNullDecorator@NEffectUpdateDecorator@@@@1V?$CDynamicPoolEx@VCNullDecorator@NEffectUpdateDecorator@@@@A ; CPooledObject<NEffectUpdateDecorator::CNullDecorator>::ms_kPool
PUBLIC	?ms_kPool@?$CPooledObject@VCTextureAnimationCWDecorator@NEffectUpdateDecorator@@@@1V?$CDynamicPoolEx@VCTextureAnimationCWDecorator@NEffectUpdateDecorator@@@@A ; CPooledObject<NEffectUpdateDecorator::CTextureAnimationCWDecorator>::ms_kPool
PUBLIC	?ms_kPool@?$CPooledObject@VCTextureAnimationCCWDecorator@NEffectUpdateDecorator@@@@1V?$CDynamicPoolEx@VCTextureAnimationCCWDecorator@NEffectUpdateDecorator@@@@A ; CPooledObject<NEffectUpdateDecorator::CTextureAnimationCCWDecorator>::ms_kPool
PUBLIC	?ms_kPool@?$CPooledObject@VCTextureAnimationRandomDecorator@NEffectUpdateDecorator@@@@1V?$CDynamicPoolEx@VCTextureAnimationRandomDecorator@NEffectUpdateDecorator@@@@A ; CPooledObject<NEffectUpdateDecorator::CTextureAnimationRandomDecorator>::ms_kPool
PUBLIC	?ms_kPool@?$CPooledObject@VCAirResistanceDecorator@NEffectUpdateDecorator@@@@1V?$CDynamicPoolEx@VCAirResistanceDecorator@NEffectUpdateDecorator@@@@A ; CPooledObject<NEffectUpdateDecorator::CAirResistanceDecorator>::ms_kPool
PUBLIC	?ms_kPool@?$CPooledObject@VCGravityDecorator@NEffectUpdateDecorator@@@@1V?$CDynamicPoolEx@VCGravityDecorator@NEffectUpdateDecorator@@@@A ; CPooledObject<NEffectUpdateDecorator::CGravityDecorator>::ms_kPool
PUBLIC	?ms_kPool@?$CPooledObject@VCRotationDecorator@NEffectUpdateDecorator@@@@1V?$CDynamicPoolEx@VCRotationDecorator@NEffectUpdateDecorator@@@@A ; CPooledObject<NEffectUpdateDecorator::CRotationDecorator>::ms_kPool
PUBLIC	?ms_singleton@?$CSingleton@VCEffectManager@@@@0PAVCEffectManager@@A ; CSingleton<CEffectManager>::ms_singleton
PUBLIC	??_C@_0CF@IFJHLB@Attacking?5motion?5data?5is?5NULL?$CB?5@ ; `string'
PUBLIC	??_C@_0DO@CGEPLNOG@CActorInstance?3?3__RunNextCombo?$CI@ ; `string'
PUBLIC	??_C@_0IP@BHEKJOJN@CActorInstance?3?3__RunNextCombo?$CI@ ; `string'
PUBLIC	??_C@_0ID@NOGKCFDC@CActorInstance?3?3__RunNextCombo?$CI@ ; `string'
PUBLIC	??_C@_0EC@FEDLPHGA@ProcessSucceedingAttacking?3?5Unk@ ; `string'
PUBLIC	__real@00000000
PUBLIC	__real@3c8efa35
PUBLIC	__real@3f666666
PUBLIC	__real@40400000
PUBLIC	__real@41f00000
PUBLIC	__real@42652ee0
PUBLIC	__real@43870000
PUBLIC	__xmm@80000000800000008000000080000000
EXTRN	??3@YAXPAX@Z:PROC				; operator delete
EXTRN	??3@YAXPAXI@Z:PROC				; operator delete
EXTRN	_atexit:PROC
EXTRN	__invalid_parameter_noinfo_noreturn:PROC
EXTRN	_rand:PROC
EXTRN	_D3DXVec2Normalize@8:PROC
EXTRN	_D3DXVec3Normalize@8:PROC
EXTRN	?Tracef@@YAXPBDZZ:PROC				; Tracef
EXTRN	?TraceError@@YAXPBDZZ:PROC			; TraceError
EXTRN	?GetCurrentSecond@CTimer@@QAEMXZ:PROC		; CTimer::GetCurrentSecond
EXTRN	?ELTimer_GetMSec@@YAKXZ:PROC			; ELTimer_GetMSec
EXTRN	?GetPosition@CGraphicObjectInstance@@QBEABUD3DXVECTOR3@@XZ:PROC ; CGraphicObjectInstance::GetPosition
EXTRN	?CreateEffect@CEffectManager@@QAEHKABUD3DXVECTOR3@@0@Z:PROC ; CEffectManager::CreateEffect
EXTRN	?GetMotionDataPointer@CRaceData@@QAEHKPAPAVCRaceMotionData@@@Z:PROC ; CRaceData::GetMotionDataPointer
EXTRN	?GetNormalAttackIndex@CRaceData@@QAEHGPAG@Z:PROC ; CRaceData::GetNormalAttackIndex
EXTRN	?GetComboDataPointer@CRaceData@@QAEHGGPAPAUSComboAttackData@1@@Z:PROC ; CRaceData::GetComboDataPointer
EXTRN	?GetMotionDuration@CRaceMotionData@@QAEMXZ:PROC	; CRaceMotionData::GetMotionDuration
EXTRN	?IsComboInputTimeData@CRaceMotionData@@QBEHXZ:PROC ; CRaceMotionData::IsComboInputTimeData
EXTRN	?GetComboInputStartTime@CRaceMotionData@@QBEMXZ:PROC ; CRaceMotionData::GetComboInputStartTime
EXTRN	?GetNextComboTime@CRaceMotionData@@QBEMXZ:PROC	; CRaceMotionData::GetNextComboTime
EXTRN	?GetComboInputEndTime@CRaceMotionData@@QBEMXZ:PROC ; CRaceMotionData::GetComboInputEndTime
EXTRN	?isAttackingMotion@CRaceMotionData@@QBEHXZ:PROC	; CRaceMotionData::isAttackingMotion
EXTRN	?GetMotionAttackDataPointer@CRaceMotionData@@QBEPBUSMotionAttackData@NRaceData@@XZ:PROC ; CRaceMotionData::GetMotionAttackDataPointer
EXTRN	?GetMotionAttackDataReference@CRaceMotionData@@QBEABUSMotionAttackData@NRaceData@@XZ:PROC ; CRaceMotionData::GetMotionAttackDataReference
EXTRN	?HasSplashMotionEvent@CRaceMotionData@@QBEHXZ:PROC ; CRaceMotionData::HasSplashMotionEvent
EXTRN	?IsCancelEnableSkill@CRaceMotionData@@QBEHXZ:PROC ; CRaceMotionData::IsCancelEnableSkill
EXTRN	?GetMotionEventDataCount@CRaceMotionData@@QBEKXZ:PROC ; CRaceMotionData::GetMotionEventDataCount
EXTRN	?GetMotionAttackingEventDataPointer@CRaceMotionData@@QBEHEPAPBUSMotionEventDataAttack@NMotionEvent@@@Z:PROC ; CRaceMotionData::GetMotionAttackingEventDataPointer
EXTRN	?Initialize@CPhysicsObject@@QAEXXZ:PROC		; CPhysicsObject::Initialize
EXTRN	?isBlending@CPhysicsObject@@QAE_NXZ:PROC	; CPhysicsObject::isBlending
EXTRN	?SetDirection@CPhysicsObject@@QAEXABUD3DXVECTOR3@@@Z:PROC ; CPhysicsObject::SetDirection
EXTRN	?IncreaseExternalForce@CPhysicsObject@@QAEXABUD3DXVECTOR3@@M@Z:PROC ; CPhysicsObject::IncreaseExternalForce
EXTRN	?SetLastPosition@CPhysicsObject@@QAEXABUD3DXVECTOR3@@M@Z:PROC ; CPhysicsObject::SetLastPosition
EXTRN	?GetLastPosition@CPhysicsObject@@QAEXPAUD3DXVECTOR3@@@Z:PROC ; CPhysicsObject::GetLastPosition
EXTRN	?InsertDelay@CGraphicThingInstance@@QAEXM@Z:PROC ; CGraphicThingInstance::InsertDelay
EXTRN	?GetLocalTime@CGraphicThingInstance@@QAEMXZ:PROC ; CGraphicThingInstance::GetLocalTime
EXTRN	?GetRace@CActorInstance@@QAEKXZ:PROC		; CActorInstance::GetRace
EXTRN	?IsNPC@CActorInstance@@QAE_NXZ:PROC		; CActorInstance::IsNPC
EXTRN	?IsStone@CActorInstance@@QAE_NXZ:PROC		; CActorInstance::IsStone
EXTRN	?IsDoor@CActorInstance@@QAE_NXZ:PROC		; CActorInstance::IsDoor
EXTRN	?IsBuilding@CActorInstance@@QAE_NXZ:PROC	; CActorInstance::IsBuilding
EXTRN	?IsBowMode@CActorInstance@@QAE_NXZ:PROC		; CActorInstance::IsBowMode
EXTRN	?AttachEffectByID@CActorInstance@@QAEKKPBDKPBUD3DXVECTOR3@@@Z:PROC ; CActorInstance::AttachEffectByID
EXTRN	?InterceptOnceMotion@CActorInstance@@QAE_NKMIM@Z:PROC ; CActorInstance::InterceptOnceMotion
EXTRN	?PushOnceMotion@CActorInstance@@QAE_NKMM@Z:PROC	; CActorInstance::PushOnceMotion
EXTRN	?PushLoopMotion@CActorInstance@@QAE_NKMM@Z:PROC	; CActorInstance::PushLoopMotion
EXTRN	?isLock@CActorInstance@@QAEHXZ:PROC		; CActorInstance::isLock
EXTRN	?IsUsingSkill@CActorInstance@@QAEHXZ:PROC	; CActorInstance::IsUsingSkill
EXTRN	?CanCancelSkill@CActorInstance@@QAEHXZ:PROC	; CActorInstance::CanCancelSkill
EXTRN	?IsSleep@CActorInstance@@QAEHXZ:PROC		; CActorInstance::IsSleep
EXTRN	?IsParalysis@CActorInstance@@QAEHXZ:PROC	; CActorInstance::IsParalysis
EXTRN	?IsFaint@CActorInstance@@QAEHXZ:PROC		; CActorInstance::IsFaint
EXTRN	?IsResistFallen@CActorInstance@@QAEHXZ:PROC	; CActorInstance::IsResistFallen
EXTRN	?IsWaiting@CActorInstance@@QAEHXZ:PROC		; CActorInstance::IsWaiting
EXTRN	?IsDead@CActorInstance@@QAEHXZ:PROC		; CActorInstance::IsDead
EXTRN	?IsStun@CActorInstance@@QAEHXZ:PROC		; CActorInstance::IsStun
EXTRN	?IsKnockDown@CActorInstance@@QAEHXZ:PROC	; CActorInstance::IsKnockDown
EXTRN	?Die@CActorInstance@@QAEXXZ:PROC		; CActorInstance::Die
EXTRN	?GetPositionVectorRef@CActorInstance@@QAEABUD3DXVECTOR3@@XZ:PROC ; CActorInstance::GetPositionVectorRef
EXTRN	?NEW_SetAtkPixelPosition@CActorInstance@@QAEXABUD3DXVECTOR3@@@Z:PROC ; CActorInstance::NEW_SetAtkPixelPosition
EXTRN	?NEW_GetAtkPixelPositionRef@CActorInstance@@QAEABUD3DXVECTOR3@@XZ:PROC ; CActorInstance::NEW_GetAtkPixelPositionRef
EXTRN	?NEW_GetCurPixelPositionRef@CActorInstance@@QAEABUD3DXVECTOR3@@XZ:PROC ; CActorInstance::NEW_GetCurPixelPositionRef
EXTRN	?GetPixelPosition@CActorInstance@@QAEXPAUD3DXVECTOR3@@@Z:PROC ; CActorInstance::GetPixelPosition
EXTRN	?GetRotation@CActorInstance@@QAEMXZ:PROC	; CActorInstance::GetRotation
EXTRN	?BlendRotation@CActorInstance@@QAEXMM@Z:PROC	; CActorInstance::BlendRotation
EXTRN	?SetAdvancingRotation@CActorInstance@@QAEXM@Z:PROC ; CActorInstance::SetAdvancingRotation
EXTRN	?__GetAttackSpeed@CActorInstance@@IAEMXZ:PROC	; CActorInstance::__GetAttackSpeed
EXTRN	?__IsKnockDownMotion@CActorInstance@@IAE_NXZ:PROC ; CActorInstance::__IsKnockDownMotion
EXTRN	?__IsStandUpMotion@CActorInstance@@IAE_NXZ:PROC	; CActorInstance::__IsStandUpMotion
EXTRN	?__IsMountingHorse@CActorInstance@@IAE_NXZ:PROC	; CActorInstance::__IsMountingHorse
EXTRN	?__GetCurrentMotionIndex@CActorInstance@@IAEGXZ:PROC ; CActorInstance::__GetCurrentMotionIndex
EXTRN	?__GetCurrentComboType@CActorInstance@@IAEGXZ:PROC ; CActorInstance::__GetCurrentComboType
EXTRN	?__OnAttack@CActorInstance@@QAEXG@Z:PROC	; CActorInstance::__OnAttack
EXTRN	?__OnHit@CActorInstance@@IAEXIAAV1@H@Z:PROC	; CActorInstance::__OnHit
EXTRN	@__security_check_cookie@4:PROC
EXTRN	__CIatan2:PROC
EXTRN	__libm_sse2_cos_precise:PROC
EXTRN	__libm_sse2_sin_precise:PROC
EXTRN	__libm_sse2_sqrt_precise:PROC
EXTRN	___security_cookie:DWORD
EXTRN	__fltused:DWORD
;	COMDAT ?ms_singleton@?$CSingleton@VCTimer@@@@0PAVCTimer@@A
_BSS	SEGMENT
?ms_singleton@?$CSingleton@VCTimer@@@@0PAVCTimer@@A DD 01H DUP (?) ; CSingleton<CTimer>::ms_singleton
_BSS	ENDS
;	COMDAT ?ms_singleton@?$CSingleton@VCEffectManager@@@@0PAVCEffectManager@@A
_BSS	SEGMENT
?ms_singleton@?$CSingleton@VCEffectManager@@@@0PAVCEffectManager@@A DD 01H DUP (?) ; CSingleton<CEffectManager>::ms_singleton
_BSS	ENDS
;	COMDAT CRT$XCU
CRT$XCU	SEGMENT
??ms_kPool$initializer$@?$CPooledObject@VCHeaderDecorator@NEffectUpdateDecorator@@@@1P6AXXZA@@3P6AXXZA DD FLAT:??__E?ms_kPool@?$CPooledObject@VCHeaderDecorator@NEffectUpdateDecorator@@@@1V?$CDynamicPoolEx@VCHeaderDecorator@NEffectUpdateDecorator@@@@A@@YAXXZ ; ??ms_kPool$initializer$@?$CPooledObject@VCHeaderDecorator@NEffectUpdateDecorator@@@@1P6AXXZA@@3P6AXXZA
CRT$XCU	ENDS
;	COMDAT __xmm@80000000800000008000000080000000
CONST	SEGMENT
__xmm@80000000800000008000000080000000 DB 00H, 00H, 00H, 080H, 00H, 00H, 00H
	DB	080H, 00H, 00H, 00H, 080H, 00H, 00H, 00H, 080H
CONST	ENDS
;	COMDAT __real@43870000
CONST	SEGMENT
__real@43870000 DD 043870000r			; 270
CONST	ENDS
;	COMDAT __real@42652ee0
CONST	SEGMENT
__real@42652ee0 DD 042652ee0r			; 57.2958
CONST	ENDS
;	COMDAT __real@41f00000
CONST	SEGMENT
__real@41f00000 DD 041f00000r			; 30
CONST	ENDS
;	COMDAT __real@40400000
CONST	SEGMENT
__real@40400000 DD 040400000r			; 3
CONST	ENDS
;	COMDAT __real@3f666666
CONST	SEGMENT
__real@3f666666 DD 03f666666r			; 0.9
CONST	ENDS
;	COMDAT __real@3c8efa35
CONST	SEGMENT
__real@3c8efa35 DD 03c8efa35r			; 0.0174533
CONST	ENDS
;	COMDAT __real@00000000
CONST	SEGMENT
__real@00000000 DD 000000000r			; 0
CONST	ENDS
;	COMDAT ??_C@_0EC@FEDLPHGA@ProcessSucceedingAttacking?3?5Unk@
CONST	SEGMENT
??_C@_0EC@FEDLPHGA@ProcessSucceedingAttacking?3?5Unk@ DB 'ProcessSucceedi'
	DB	'ngAttacking: Unknown AttackingData.iHittingType %d', 00H ; `string'
CONST	ENDS
;	COMDAT ??_C@_0ID@NOGKCFDC@CActorInstance?3?3__RunNextCombo?$CI@
CONST	SEGMENT
??_C@_0ID@NOGKCFDC@CActorInstance?3?3__RunNextCombo?$CI@ DB 'CActorInstan'
	DB	'ce::__RunNextCombo(wComboType=%d, wComboIndex=%d) - (dwComboA'
	DB	'rrayIndex=%d) >= (pComboData->ComboIndexVector.size()=%d)', 00H ; `string'
CONST	ENDS
;	COMDAT ??_C@_0IP@BHEKJOJN@CActorInstance?3?3__RunNextCombo?$CI@
CONST	SEGMENT
??_C@_0IP@BHEKJOJN@CActorInstance?3?3__RunNextCombo?$CI@ DB 'CActorInstan'
	DB	'ce::__RunNextCombo(wComboType=%d, wComboIndex=%d) - m_pkCurRa'
	DB	'ceData->GetComboDataPointer(m_wcurMotionMode=%d, &pComboData)'
	DB	' == NULL', 00H				; `string'
CONST	ENDS
;	COMDAT ??_C@_0DO@CGEPLNOG@CActorInstance?3?3__RunNextCombo?$CI@
CONST	SEGMENT
??_C@_0DO@CGEPLNOG@CActorInstance?3?3__RunNextCombo?$CI@ DB 'CActorInstan'
	DB	'ce::__RunNextCombo(wComboType=%d, wComboIndex=%d)', 00H ; `string'
CONST	ENDS
;	COMDAT ??_C@_0CF@IFJHLB@Attacking?5motion?5data?5is?5NULL?$CB?5@
CONST	SEGMENT
??_C@_0CF@IFJHLB@Attacking?5motion?5data?5is?5NULL?$CB?5@ DB 'Attacking m'
	DB	'otion data is NULL! : %d', 0aH, 00H		; `string'
CONST	ENDS
;	COMDAT ?ms_kPool@?$CPooledObject@VCRotationDecorator@NEffectUpdateDecorator@@@@1V?$CDynamicPoolEx@VCRotationDecorator@NEffectUpdateDecorator@@@@A
_DATA	SEGMENT
?ms_kPool@?$CPooledObject@VCRotationDecorator@NEffectUpdateDecorator@@@@1V?$CDynamicPoolEx@VCRotationDecorator@NEffectUpdateDecorator@@@@A DD FLAT:??_7?$CDynamicPoolEx@VCRotationDecorator@NEffectUpdateDecorator@@@@6B@ ; CPooledObject<NEffectUpdateDecorator::CRotationDecorator>::ms_kPool
	DD	00H
	DD	00H
	DD	00H
	DD	00H
	DD	00H
	DD	00H
	DD	00H
	DD	00H
_DATA	ENDS
;	COMDAT ?ms_kPool@?$CPooledObject@VCGravityDecorator@NEffectUpdateDecorator@@@@1V?$CDynamicPoolEx@VCGravityDecorator@NEffectUpdateDecorator@@@@A
_DATA	SEGMENT
?ms_kPool@?$CPooledObject@VCGravityDecorator@NEffectUpdateDecorator@@@@1V?$CDynamicPoolEx@VCGravityDecorator@NEffectUpdateDecorator@@@@A DD FLAT:??_7?$CDynamicPoolEx@VCGravityDecorator@NEffectUpdateDecorator@@@@6B@ ; CPooledObject<NEffectUpdateDecorator::CGravityDecorator>::ms_kPool
	DD	00H
	DD	00H
	DD	00H
	DD	00H
	DD	00H
	DD	00H
	DD	00H
	DD	00H
_DATA	ENDS
;	COMDAT ?ms_kPool@?$CPooledObject@VCAirResistanceDecorator@NEffectUpdateDecorator@@@@1V?$CDynamicPoolEx@VCAirResistanceDecorator@NEffectUpdateDecorator@@@@A
_DATA	SEGMENT
?ms_kPool@?$CPooledObject@VCAirResistanceDecorator@NEffectUpdateDecorator@@@@1V?$CDynamicPoolEx@VCAirResistanceDecorator@NEffectUpdateDecorator@@@@A DD FLAT:??_7?$CDynamicPoolEx@VCAirResistanceDecorator@NEffectUpdateDecorator@@@@6B@ ; CPooledObject<NEffectUpdateDecorator::CAirResistanceDecorator>::ms_kPool
	DD	00H
	DD	00H
	DD	00H
	DD	00H
	DD	00H
	DD	00H
	DD	00H
	DD	00H
_DATA	ENDS
;	COMDAT ?ms_kPool@?$CPooledObject@VCTextureAnimationRandomDecorator@NEffectUpdateDecorator@@@@1V?$CDynamicPoolEx@VCTextureAnimationRandomDecorator@NEffectUpdateDecorator@@@@A
_DATA	SEGMENT
?ms_kPool@?$CPooledObject@VCTextureAnimationRandomDecorator@NEffectUpdateDecorator@@@@1V?$CDynamicPoolEx@VCTextureAnimationRandomDecorator@NEffectUpdateDecorator@@@@A DD FLAT:??_7?$CDynamicPoolEx@VCTextureAnimationRandomDecorator@NEffectUpdateDecorator@@@@6B@ ; CPooledObject<NEffectUpdateDecorator::CTextureAnimationRandomDecorator>::ms_kPool
	DD	00H
	DD	00H
	DD	00H
	DD	00H
	DD	00H
	DD	00H
	DD	00H
	DD	00H
_DATA	ENDS
;	COMDAT ?ms_kPool@?$CPooledObject@VCTextureAnimationCCWDecorator@NEffectUpdateDecorator@@@@1V?$CDynamicPoolEx@VCTextureAnimationCCWDecorator@NEffectUpdateDecorator@@@@A
_DATA	SEGMENT
?ms_kPool@?$CPooledObject@VCTextureAnimationCCWDecorator@NEffectUpdateDecorator@@@@1V?$CDynamicPoolEx@VCTextureAnimationCCWDecorator@NEffectUpdateDecorator@@@@A DD FLAT:??_7?$CDynamicPoolEx@VCTextureAnimationCCWDecorator@NEffectUpdateDecorator@@@@6B@ ; CPooledObject<NEffectUpdateDecorator::CTextureAnimationCCWDecorator>::ms_kPool
	DD	00H
	DD	00H
	DD	00H
	DD	00H
	DD	00H
	DD	00H
	DD	00H
	DD	00H
_DATA	ENDS
;	COMDAT ?ms_kPool@?$CPooledObject@VCTextureAnimationCWDecorator@NEffectUpdateDecorator@@@@1V?$CDynamicPoolEx@VCTextureAnimationCWDecorator@NEffectUpdateDecorator@@@@A
_DATA	SEGMENT
?ms_kPool@?$CPooledObject@VCTextureAnimationCWDecorator@NEffectUpdateDecorator@@@@1V?$CDynamicPoolEx@VCTextureAnimationCWDecorator@NEffectUpdateDecorator@@@@A DD FLAT:??_7?$CDynamicPoolEx@VCTextureAnimationCWDecorator@NEffectUpdateDecorator@@@@6B@ ; CPooledObject<NEffectUpdateDecorator::CTextureAnimationCWDecorator>::ms_kPool
	DD	00H
	DD	00H
	DD	00H
	DD	00H
	DD	00H
	DD	00H
	DD	00H
	DD	00H
_DATA	ENDS
;	COMDAT ?ms_kPool@?$CPooledObject@VCNullDecorator@NEffectUpdateDecorator@@@@1V?$CDynamicPoolEx@VCNullDecorator@NEffectUpdateDecorator@@@@A
_DATA	SEGMENT
?ms_kPool@?$CPooledObject@VCNullDecorator@NEffectUpdateDecorator@@@@1V?$CDynamicPoolEx@VCNullDecorator@NEffectUpdateDecorator@@@@A DD FLAT:??_7?$CDynamicPoolEx@VCNullDecorator@NEffectUpdateDecorator@@@@6B@ ; CPooledObject<NEffectUpdateDecorator::CNullDecorator>::ms_kPool
	DD	00H
	DD	00H
	DD	00H
	DD	00H
	DD	00H
	DD	00H
	DD	00H
	DD	00H
_DATA	ENDS
;	COMDAT ?ms_kPool@?$CPooledObject@VCHeaderDecorator@NEffectUpdateDecorator@@@@1V?$CDynamicPoolEx@VCHeaderDecorator@NEffectUpdateDecorator@@@@A
_DATA	SEGMENT
?ms_kPool@?$CPooledObject@VCHeaderDecorator@NEffectUpdateDecorator@@@@1V?$CDynamicPoolEx@VCHeaderDecorator@NEffectUpdateDecorator@@@@A DD FLAT:??_7?$CDynamicPoolEx@VCHeaderDecorator@NEffectUpdateDecorator@@@@6B@ ; CPooledObject<NEffectUpdateDecorator::CHeaderDecorator>::ms_kPool
	DD	00H
	DD	00H
	DD	00H
	DD	00H
	DD	00H
	DD	00H
	DD	00H
	DD	00H
_DATA	ENDS
;	COMDAT CRT$XCU
CRT$XCU	SEGMENT
??ms_kPool$initializer$@?$CPooledObject@VCNullDecorator@NEffectUpdateDecorator@@@@1P6AXXZA@@3P6AXXZA DD FLAT:??__E?ms_kPool@?$CPooledObject@VCNullDecorator@NEffectUpdateDecorator@@@@1V?$CDynamicPoolEx@VCNullDecorator@NEffectUpdateDecorator@@@@A@@YAXXZ ; ??ms_kPool$initializer$@?$CPooledObject@VCNullDecorator@NEffectUpdateDecorator@@@@1P6AXXZA@@3P6AXXZA
CRT$XCU	ENDS
;	COMDAT CRT$XCU
CRT$XCU	SEGMENT
??ms_kPool$initializer$@?$CPooledObject@VCTextureAnimationCWDecorator@NEffectUpdateDecorator@@@@1P6AXXZA@@3P6AXXZA DD FLAT:??__E?ms_kPool@?$CPooledObject@VCTextureAnimationCWDecorator@NEffectUpdateDecorator@@@@1V?$CDynamicPoolEx@VCTextureAnimationCWDecorator@NEffectUpdateDecorator@@@@A@@YAXXZ ; ??ms_kPool$initializer$@?$CPooledObject@VCTextureAnimationCWDecorator@NEffectUpdateDecorator@@@@1P6AXXZA@@3P6AXXZA
CRT$XCU	ENDS
;	COMDAT CRT$XCU
CRT$XCU	SEGMENT
??ms_kPool$initializer$@?$CPooledObject@VCTextureAnimationCCWDecorator@NEffectUpdateDecorator@@@@1P6AXXZA@@3P6AXXZA DD FLAT:??__E?ms_kPool@?$CPooledObject@VCTextureAnimationCCWDecorator@NEffectUpdateDecorator@@@@1V?$CDynamicPoolEx@VCTextureAnimationCCWDecorator@NEffectUpdateDecorator@@@@A@@YAXXZ ; ??ms_kPool$initializer$@?$CPooledObject@VCTextureAnimationCCWDecorator@NEffectUpdateDecorator@@@@1P6AXXZA@@3P6AXXZA
CRT$XCU	ENDS
;	COMDAT CRT$XCU
CRT$XCU	SEGMENT
??ms_kPool$initializer$@?$CPooledObject@VCTextureAnimationRandomDecorator@NEffectUpdateDecorator@@@@1P6AXXZA@@3P6AXXZA DD FLAT:??__E?ms_kPool@?$CPooledObject@VCTextureAnimationRandomDecorator@NEffectUpdateDecorator@@@@1V?$CDynamicPoolEx@VCTextureAnimationRandomDecorator@NEffectUpdateDecorator@@@@A@@YAXXZ ; ??ms_kPool$initializer$@?$CPooledObject@VCTextureAnimationRandomDecorator@NEffectUpdateDecorator@@@@1P6AXXZA@@3P6AXXZA
CRT$XCU	ENDS
;	COMDAT CRT$XCU
CRT$XCU	SEGMENT
??ms_kPool$initializer$@?$CPooledObject@VCAirResistanceDecorator@NEffectUpdateDecorator@@@@1P6AXXZA@@3P6AXXZA DD FLAT:??__E?ms_kPool@?$CPooledObject@VCAirResistanceDecorator@NEffectUpdateDecorator@@@@1V?$CDynamicPoolEx@VCAirResistanceDecorator@NEffectUpdateDecorator@@@@A@@YAXXZ ; ??ms_kPool$initializer$@?$CPooledObject@VCAirResistanceDecorator@NEffectUpdateDecorator@@@@1P6AXXZA@@3P6AXXZA
CRT$XCU	ENDS
;	COMDAT CRT$XCU
CRT$XCU	SEGMENT
??ms_kPool$initializer$@?$CPooledObject@VCGravityDecorator@NEffectUpdateDecorator@@@@1P6AXXZA@@3P6AXXZA DD FLAT:??__E?ms_kPool@?$CPooledObject@VCGravityDecorator@NEffectUpdateDecorator@@@@1V?$CDynamicPoolEx@VCGravityDecorator@NEffectUpdateDecorator@@@@A@@YAXXZ ; ??ms_kPool$initializer$@?$CPooledObject@VCGravityDecorator@NEffectUpdateDecorator@@@@1P6AXXZA@@3P6AXXZA
CRT$XCU	ENDS
;	COMDAT CRT$XCU
CRT$XCU	SEGMENT
??ms_kPool$initializer$@?$CPooledObject@VCRotationDecorator@NEffectUpdateDecorator@@@@1P6AXXZA@@3P6AXXZA DD FLAT:??__E?ms_kPool@?$CPooledObject@VCRotationDecorator@NEffectUpdateDecorator@@@@1V?$CDynamicPoolEx@VCRotationDecorator@NEffectUpdateDecorator@@@@A@@YAXXZ ; ??ms_kPool$initializer$@?$CPooledObject@VCRotationDecorator@NEffectUpdateDecorator@@@@1P6AXXZA@@3P6AXXZA
CRT$XCU	ENDS
; Function compile flags: /Ogtp
;	COMDAT ??__F?ms_kPool@?$CPooledObject@VCRotationDecorator@NEffectUpdateDecorator@@@@1V?$CDynamicPoolEx@VCRotationDecorator@NEffectUpdateDecorator@@@@A@@YAXXZ
text$yd	SEGMENT
??__F?ms_kPool@?$CPooledObject@VCRotationDecorator@NEffectUpdateDecorator@@@@1V?$CDynamicPoolEx@VCRotationDecorator@NEffectUpdateDecorator@@@@A@@YAXXZ PROC ; `dynamic atexit destructor for 'CPooledObject<NEffectUpdateDecorator::CRotationDecorator>::ms_kPool'', COMDAT
  00000	b9 00 00 00 00	 mov	 ecx, OFFSET ?ms_kPool@?$CPooledObject@VCRotationDecorator@NEffectUpdateDecorator@@@@1V?$CDynamicPoolEx@VCRotationDecorator@NEffectUpdateDecorator@@@@A ; CPooledObject<NEffectUpdateDecorator::CRotationDecorator>::ms_kPool
  00005	e9 00 00 00 00	 jmp	 ??1?$CDynamicPoolEx@VCRotationDecorator@NEffectUpdateDecorator@@@@UAE@XZ ; CDynamicPoolEx<NEffectUpdateDecorator::CRotationDecorator>::~CDynamicPoolEx<NEffectUpdateDecorator::CRotationDecorator>
??__F?ms_kPool@?$CPooledObject@VCRotationDecorator@NEffectUpdateDecorator@@@@1V?$CDynamicPoolEx@VCRotationDecorator@NEffectUpdateDecorator@@@@A@@YAXXZ ENDP ; `dynamic atexit destructor for 'CPooledObject<NEffectUpdateDecorator::CRotationDecorator>::ms_kPool''
text$yd	ENDS
; Function compile flags: /Ogtp
; File C:\Users\murat\Desktop\Siveps2-1-99-Project\source\client\Client\eterLib\Pool.h
;	COMDAT ??__E?ms_kPool@?$CPooledObject@VCRotationDecorator@NEffectUpdateDecorator@@@@1V?$CDynamicPoolEx@VCRotationDecorator@NEffectUpdateDecorator@@@@A@@YAXXZ
text$di	SEGMENT
??__E?ms_kPool@?$CPooledObject@VCRotationDecorator@NEffectUpdateDecorator@@@@1V?$CDynamicPoolEx@VCRotationDecorator@NEffectUpdateDecorator@@@@A@@YAXXZ PROC ; `dynamic initializer for 'CPooledObject<NEffectUpdateDecorator::CRotationDecorator>::ms_kPool'', COMDAT

; 272  : template <class T> CDynamicPoolEx<T> CPooledObject<T>::ms_kPool;

  00000	68 00 00 00 00	 push	 OFFSET ??__F?ms_kPool@?$CPooledObject@VCRotationDecorator@NEffectUpdateDecorator@@@@1V?$CDynamicPoolEx@VCRotationDecorator@NEffectUpdateDecorator@@@@A@@YAXXZ ; `dynamic atexit destructor for 'CPooledObject<NEffectUpdateDecorator::CRotationDecorator>::ms_kPool''
  00005	e8 00 00 00 00	 call	 _atexit
  0000a	59		 pop	 ecx
  0000b	c3		 ret	 0
??__E?ms_kPool@?$CPooledObject@VCRotationDecorator@NEffectUpdateDecorator@@@@1V?$CDynamicPoolEx@VCRotationDecorator@NEffectUpdateDecorator@@@@A@@YAXXZ ENDP ; `dynamic initializer for 'CPooledObject<NEffectUpdateDecorator::CRotationDecorator>::ms_kPool''
text$di	ENDS
; Function compile flags: /Ogtp
;	COMDAT ??__F?ms_kPool@?$CPooledObject@VCGravityDecorator@NEffectUpdateDecorator@@@@1V?$CDynamicPoolEx@VCGravityDecorator@NEffectUpdateDecorator@@@@A@@YAXXZ
text$yd	SEGMENT
??__F?ms_kPool@?$CPooledObject@VCGravityDecorator@NEffectUpdateDecorator@@@@1V?$CDynamicPoolEx@VCGravityDecorator@NEffectUpdateDecorator@@@@A@@YAXXZ PROC ; `dynamic atexit destructor for 'CPooledObject<NEffectUpdateDecorator::CGravityDecorator>::ms_kPool'', COMDAT
  00000	b9 00 00 00 00	 mov	 ecx, OFFSET ?ms_kPool@?$CPooledObject@VCGravityDecorator@NEffectUpdateDecorator@@@@1V?$CDynamicPoolEx@VCGravityDecorator@NEffectUpdateDecorator@@@@A ; CPooledObject<NEffectUpdateDecorator::CGravityDecorator>::ms_kPool
  00005	e9 00 00 00 00	 jmp	 ??1?$CDynamicPoolEx@VCGravityDecorator@NEffectUpdateDecorator@@@@UAE@XZ ; CDynamicPoolEx<NEffectUpdateDecorator::CGravityDecorator>::~CDynamicPoolEx<NEffectUpdateDecorator::CGravityDecorator>
??__F?ms_kPool@?$CPooledObject@VCGravityDecorator@NEffectUpdateDecorator@@@@1V?$CDynamicPoolEx@VCGravityDecorator@NEffectUpdateDecorator@@@@A@@YAXXZ ENDP ; `dynamic atexit destructor for 'CPooledObject<NEffectUpdateDecorator::CGravityDecorator>::ms_kPool''
text$yd	ENDS
; Function compile flags: /Ogtp
; File C:\Users\murat\Desktop\Siveps2-1-99-Project\source\client\Client\eterLib\Pool.h
;	COMDAT ??__E?ms_kPool@?$CPooledObject@VCGravityDecorator@NEffectUpdateDecorator@@@@1V?$CDynamicPoolEx@VCGravityDecorator@NEffectUpdateDecorator@@@@A@@YAXXZ
text$di	SEGMENT
??__E?ms_kPool@?$CPooledObject@VCGravityDecorator@NEffectUpdateDecorator@@@@1V?$CDynamicPoolEx@VCGravityDecorator@NEffectUpdateDecorator@@@@A@@YAXXZ PROC ; `dynamic initializer for 'CPooledObject<NEffectUpdateDecorator::CGravityDecorator>::ms_kPool'', COMDAT

; 272  : template <class T> CDynamicPoolEx<T> CPooledObject<T>::ms_kPool;

  00000	68 00 00 00 00	 push	 OFFSET ??__F?ms_kPool@?$CPooledObject@VCGravityDecorator@NEffectUpdateDecorator@@@@1V?$CDynamicPoolEx@VCGravityDecorator@NEffectUpdateDecorator@@@@A@@YAXXZ ; `dynamic atexit destructor for 'CPooledObject<NEffectUpdateDecorator::CGravityDecorator>::ms_kPool''
  00005	e8 00 00 00 00	 call	 _atexit
  0000a	59		 pop	 ecx
  0000b	c3		 ret	 0
??__E?ms_kPool@?$CPooledObject@VCGravityDecorator@NEffectUpdateDecorator@@@@1V?$CDynamicPoolEx@VCGravityDecorator@NEffectUpdateDecorator@@@@A@@YAXXZ ENDP ; `dynamic initializer for 'CPooledObject<NEffectUpdateDecorator::CGravityDecorator>::ms_kPool''
text$di	ENDS
; Function compile flags: /Ogtp
;	COMDAT ??__F?ms_kPool@?$CPooledObject@VCAirResistanceDecorator@NEffectUpdateDecorator@@@@1V?$CDynamicPoolEx@VCAirResistanceDecorator@NEffectUpdateDecorator@@@@A@@YAXXZ
text$yd	SEGMENT
??__F?ms_kPool@?$CPooledObject@VCAirResistanceDecorator@NEffectUpdateDecorator@@@@1V?$CDynamicPoolEx@VCAirResistanceDecorator@NEffectUpdateDecorator@@@@A@@YAXXZ PROC ; `dynamic atexit destructor for 'CPooledObject<NEffectUpdateDecorator::CAirResistanceDecorator>::ms_kPool'', COMDAT
  00000	b9 00 00 00 00	 mov	 ecx, OFFSET ?ms_kPool@?$CPooledObject@VCAirResistanceDecorator@NEffectUpdateDecorator@@@@1V?$CDynamicPoolEx@VCAirResistanceDecorator@NEffectUpdateDecorator@@@@A ; CPooledObject<NEffectUpdateDecorator::CAirResistanceDecorator>::ms_kPool
  00005	e9 00 00 00 00	 jmp	 ??1?$CDynamicPoolEx@VCAirResistanceDecorator@NEffectUpdateDecorator@@@@UAE@XZ ; CDynamicPoolEx<NEffectUpdateDecorator::CAirResistanceDecorator>::~CDynamicPoolEx<NEffectUpdateDecorator::CAirResistanceDecorator>
??__F?ms_kPool@?$CPooledObject@VCAirResistanceDecorator@NEffectUpdateDecorator@@@@1V?$CDynamicPoolEx@VCAirResistanceDecorator@NEffectUpdateDecorator@@@@A@@YAXXZ ENDP ; `dynamic atexit destructor for 'CPooledObject<NEffectUpdateDecorator::CAirResistanceDecorator>::ms_kPool''
text$yd	ENDS
; Function compile flags: /Ogtp
; File C:\Users\murat\Desktop\Siveps2-1-99-Project\source\client\Client\eterLib\Pool.h
;	COMDAT ??__E?ms_kPool@?$CPooledObject@VCAirResistanceDecorator@NEffectUpdateDecorator@@@@1V?$CDynamicPoolEx@VCAirResistanceDecorator@NEffectUpdateDecorator@@@@A@@YAXXZ
text$di	SEGMENT
??__E?ms_kPool@?$CPooledObject@VCAirResistanceDecorator@NEffectUpdateDecorator@@@@1V?$CDynamicPoolEx@VCAirResistanceDecorator@NEffectUpdateDecorator@@@@A@@YAXXZ PROC ; `dynamic initializer for 'CPooledObject<NEffectUpdateDecorator::CAirResistanceDecorator>::ms_kPool'', COMDAT

; 272  : template <class T> CDynamicPoolEx<T> CPooledObject<T>::ms_kPool;

  00000	68 00 00 00 00	 push	 OFFSET ??__F?ms_kPool@?$CPooledObject@VCAirResistanceDecorator@NEffectUpdateDecorator@@@@1V?$CDynamicPoolEx@VCAirResistanceDecorator@NEffectUpdateDecorator@@@@A@@YAXXZ ; `dynamic atexit destructor for 'CPooledObject<NEffectUpdateDecorator::CAirResistanceDecorator>::ms_kPool''
  00005	e8 00 00 00 00	 call	 _atexit
  0000a	59		 pop	 ecx
  0000b	c3		 ret	 0
??__E?ms_kPool@?$CPooledObject@VCAirResistanceDecorator@NEffectUpdateDecorator@@@@1V?$CDynamicPoolEx@VCAirResistanceDecorator@NEffectUpdateDecorator@@@@A@@YAXXZ ENDP ; `dynamic initializer for 'CPooledObject<NEffectUpdateDecorator::CAirResistanceDecorator>::ms_kPool''
text$di	ENDS
; Function compile flags: /Ogtp
;	COMDAT ??__F?ms_kPool@?$CPooledObject@VCTextureAnimationRandomDecorator@NEffectUpdateDecorator@@@@1V?$CDynamicPoolEx@VCTextureAnimationRandomDecorator@NEffectUpdateDecorator@@@@A@@YAXXZ
text$yd	SEGMENT
??__F?ms_kPool@?$CPooledObject@VCTextureAnimationRandomDecorator@NEffectUpdateDecorator@@@@1V?$CDynamicPoolEx@VCTextureAnimationRandomDecorator@NEffectUpdateDecorator@@@@A@@YAXXZ PROC ; `dynamic atexit destructor for 'CPooledObject<NEffectUpdateDecorator::CTextureAnimationRandomDecorator>::ms_kPool'', COMDAT
  00000	b9 00 00 00 00	 mov	 ecx, OFFSET ?ms_kPool@?$CPooledObject@VCTextureAnimationRandomDecorator@NEffectUpdateDecorator@@@@1V?$CDynamicPoolEx@VCTextureAnimationRandomDecorator@NEffectUpdateDecorator@@@@A ; CPooledObject<NEffectUpdateDecorator::CTextureAnimationRandomDecorator>::ms_kPool
  00005	e9 00 00 00 00	 jmp	 ??1?$CDynamicPoolEx@VCTextureAnimationRandomDecorator@NEffectUpdateDecorator@@@@UAE@XZ ; CDynamicPoolEx<NEffectUpdateDecorator::CTextureAnimationRandomDecorator>::~CDynamicPoolEx<NEffectUpdateDecorator::CTextureAnimationRandomDecorator>
??__F?ms_kPool@?$CPooledObject@VCTextureAnimationRandomDecorator@NEffectUpdateDecorator@@@@1V?$CDynamicPoolEx@VCTextureAnimationRandomDecorator@NEffectUpdateDecorator@@@@A@@YAXXZ ENDP ; `dynamic atexit destructor for 'CPooledObject<NEffectUpdateDecorator::CTextureAnimationRandomDecorator>::ms_kPool''
text$yd	ENDS
; Function compile flags: /Ogtp
; File C:\Users\murat\Desktop\Siveps2-1-99-Project\source\client\Client\eterLib\Pool.h
;	COMDAT ??__E?ms_kPool@?$CPooledObject@VCTextureAnimationRandomDecorator@NEffectUpdateDecorator@@@@1V?$CDynamicPoolEx@VCTextureAnimationRandomDecorator@NEffectUpdateDecorator@@@@A@@YAXXZ
text$di	SEGMENT
??__E?ms_kPool@?$CPooledObject@VCTextureAnimationRandomDecorator@NEffectUpdateDecorator@@@@1V?$CDynamicPoolEx@VCTextureAnimationRandomDecorator@NEffectUpdateDecorator@@@@A@@YAXXZ PROC ; `dynamic initializer for 'CPooledObject<NEffectUpdateDecorator::CTextureAnimationRandomDecorator>::ms_kPool'', COMDAT

; 272  : template <class T> CDynamicPoolEx<T> CPooledObject<T>::ms_kPool;

  00000	68 00 00 00 00	 push	 OFFSET ??__F?ms_kPool@?$CPooledObject@VCTextureAnimationRandomDecorator@NEffectUpdateDecorator@@@@1V?$CDynamicPoolEx@VCTextureAnimationRandomDecorator@NEffectUpdateDecorator@@@@A@@YAXXZ ; `dynamic atexit destructor for 'CPooledObject<NEffectUpdateDecorator::CTextureAnimationRandomDecorator>::ms_kPool''
  00005	e8 00 00 00 00	 call	 _atexit
  0000a	59		 pop	 ecx
  0000b	c3		 ret	 0
??__E?ms_kPool@?$CPooledObject@VCTextureAnimationRandomDecorator@NEffectUpdateDecorator@@@@1V?$CDynamicPoolEx@VCTextureAnimationRandomDecorator@NEffectUpdateDecorator@@@@A@@YAXXZ ENDP ; `dynamic initializer for 'CPooledObject<NEffectUpdateDecorator::CTextureAnimationRandomDecorator>::ms_kPool''
text$di	ENDS
; Function compile flags: /Ogtp
;	COMDAT ??__F?ms_kPool@?$CPooledObject@VCTextureAnimationCCWDecorator@NEffectUpdateDecorator@@@@1V?$CDynamicPoolEx@VCTextureAnimationCCWDecorator@NEffectUpdateDecorator@@@@A@@YAXXZ
text$yd	SEGMENT
??__F?ms_kPool@?$CPooledObject@VCTextureAnimationCCWDecorator@NEffectUpdateDecorator@@@@1V?$CDynamicPoolEx@VCTextureAnimationCCWDecorator@NEffectUpdateDecorator@@@@A@@YAXXZ PROC ; `dynamic atexit destructor for 'CPooledObject<NEffectUpdateDecorator::CTextureAnimationCCWDecorator>::ms_kPool'', COMDAT
  00000	b9 00 00 00 00	 mov	 ecx, OFFSET ?ms_kPool@?$CPooledObject@VCTextureAnimationCCWDecorator@NEffectUpdateDecorator@@@@1V?$CDynamicPoolEx@VCTextureAnimationCCWDecorator@NEffectUpdateDecorator@@@@A ; CPooledObject<NEffectUpdateDecorator::CTextureAnimationCCWDecorator>::ms_kPool
  00005	e9 00 00 00 00	 jmp	 ??1?$CDynamicPoolEx@VCTextureAnimationCCWDecorator@NEffectUpdateDecorator@@@@UAE@XZ ; CDynamicPoolEx<NEffectUpdateDecorator::CTextureAnimationCCWDecorator>::~CDynamicPoolEx<NEffectUpdateDecorator::CTextureAnimationCCWDecorator>
??__F?ms_kPool@?$CPooledObject@VCTextureAnimationCCWDecorator@NEffectUpdateDecorator@@@@1V?$CDynamicPoolEx@VCTextureAnimationCCWDecorator@NEffectUpdateDecorator@@@@A@@YAXXZ ENDP ; `dynamic atexit destructor for 'CPooledObject<NEffectUpdateDecorator::CTextureAnimationCCWDecorator>::ms_kPool''
text$yd	ENDS
; Function compile flags: /Ogtp
; File C:\Users\murat\Desktop\Siveps2-1-99-Project\source\client\Client\eterLib\Pool.h
;	COMDAT ??__E?ms_kPool@?$CPooledObject@VCTextureAnimationCCWDecorator@NEffectUpdateDecorator@@@@1V?$CDynamicPoolEx@VCTextureAnimationCCWDecorator@NEffectUpdateDecorator@@@@A@@YAXXZ
text$di	SEGMENT
??__E?ms_kPool@?$CPooledObject@VCTextureAnimationCCWDecorator@NEffectUpdateDecorator@@@@1V?$CDynamicPoolEx@VCTextureAnimationCCWDecorator@NEffectUpdateDecorator@@@@A@@YAXXZ PROC ; `dynamic initializer for 'CPooledObject<NEffectUpdateDecorator::CTextureAnimationCCWDecorator>::ms_kPool'', COMDAT

; 272  : template <class T> CDynamicPoolEx<T> CPooledObject<T>::ms_kPool;

  00000	68 00 00 00 00	 push	 OFFSET ??__F?ms_kPool@?$CPooledObject@VCTextureAnimationCCWDecorator@NEffectUpdateDecorator@@@@1V?$CDynamicPoolEx@VCTextureAnimationCCWDecorator@NEffectUpdateDecorator@@@@A@@YAXXZ ; `dynamic atexit destructor for 'CPooledObject<NEffectUpdateDecorator::CTextureAnimationCCWDecorator>::ms_kPool''
  00005	e8 00 00 00 00	 call	 _atexit
  0000a	59		 pop	 ecx
  0000b	c3		 ret	 0
??__E?ms_kPool@?$CPooledObject@VCTextureAnimationCCWDecorator@NEffectUpdateDecorator@@@@1V?$CDynamicPoolEx@VCTextureAnimationCCWDecorator@NEffectUpdateDecorator@@@@A@@YAXXZ ENDP ; `dynamic initializer for 'CPooledObject<NEffectUpdateDecorator::CTextureAnimationCCWDecorator>::ms_kPool''
text$di	ENDS
; Function compile flags: /Ogtp
;	COMDAT ??__F?ms_kPool@?$CPooledObject@VCTextureAnimationCWDecorator@NEffectUpdateDecorator@@@@1V?$CDynamicPoolEx@VCTextureAnimationCWDecorator@NEffectUpdateDecorator@@@@A@@YAXXZ
text$yd	SEGMENT
??__F?ms_kPool@?$CPooledObject@VCTextureAnimationCWDecorator@NEffectUpdateDecorator@@@@1V?$CDynamicPoolEx@VCTextureAnimationCWDecorator@NEffectUpdateDecorator@@@@A@@YAXXZ PROC ; `dynamic atexit destructor for 'CPooledObject<NEffectUpdateDecorator::CTextureAnimationCWDecorator>::ms_kPool'', COMDAT
  00000	b9 00 00 00 00	 mov	 ecx, OFFSET ?ms_kPool@?$CPooledObject@VCTextureAnimationCWDecorator@NEffectUpdateDecorator@@@@1V?$CDynamicPoolEx@VCTextureAnimationCWDecorator@NEffectUpdateDecorator@@@@A ; CPooledObject<NEffectUpdateDecorator::CTextureAnimationCWDecorator>::ms_kPool
  00005	e9 00 00 00 00	 jmp	 ??1?$CDynamicPoolEx@VCTextureAnimationCWDecorator@NEffectUpdateDecorator@@@@UAE@XZ ; CDynamicPoolEx<NEffectUpdateDecorator::CTextureAnimationCWDecorator>::~CDynamicPoolEx<NEffectUpdateDecorator::CTextureAnimationCWDecorator>
??__F?ms_kPool@?$CPooledObject@VCTextureAnimationCWDecorator@NEffectUpdateDecorator@@@@1V?$CDynamicPoolEx@VCTextureAnimationCWDecorator@NEffectUpdateDecorator@@@@A@@YAXXZ ENDP ; `dynamic atexit destructor for 'CPooledObject<NEffectUpdateDecorator::CTextureAnimationCWDecorator>::ms_kPool''
text$yd	ENDS
; Function compile flags: /Ogtp
; File C:\Users\murat\Desktop\Siveps2-1-99-Project\source\client\Client\eterLib\Pool.h
;	COMDAT ??__E?ms_kPool@?$CPooledObject@VCTextureAnimationCWDecorator@NEffectUpdateDecorator@@@@1V?$CDynamicPoolEx@VCTextureAnimationCWDecorator@NEffectUpdateDecorator@@@@A@@YAXXZ
text$di	SEGMENT
??__E?ms_kPool@?$CPooledObject@VCTextureAnimationCWDecorator@NEffectUpdateDecorator@@@@1V?$CDynamicPoolEx@VCTextureAnimationCWDecorator@NEffectUpdateDecorator@@@@A@@YAXXZ PROC ; `dynamic initializer for 'CPooledObject<NEffectUpdateDecorator::CTextureAnimationCWDecorator>::ms_kPool'', COMDAT

; 272  : template <class T> CDynamicPoolEx<T> CPooledObject<T>::ms_kPool;

  00000	68 00 00 00 00	 push	 OFFSET ??__F?ms_kPool@?$CPooledObject@VCTextureAnimationCWDecorator@NEffectUpdateDecorator@@@@1V?$CDynamicPoolEx@VCTextureAnimationCWDecorator@NEffectUpdateDecorator@@@@A@@YAXXZ ; `dynamic atexit destructor for 'CPooledObject<NEffectUpdateDecorator::CTextureAnimationCWDecorator>::ms_kPool''
  00005	e8 00 00 00 00	 call	 _atexit
  0000a	59		 pop	 ecx
  0000b	c3		 ret	 0
??__E?ms_kPool@?$CPooledObject@VCTextureAnimationCWDecorator@NEffectUpdateDecorator@@@@1V?$CDynamicPoolEx@VCTextureAnimationCWDecorator@NEffectUpdateDecorator@@@@A@@YAXXZ ENDP ; `dynamic initializer for 'CPooledObject<NEffectUpdateDecorator::CTextureAnimationCWDecorator>::ms_kPool''
text$di	ENDS
; Function compile flags: /Ogtp
;	COMDAT ??__F?ms_kPool@?$CPooledObject@VCNullDecorator@NEffectUpdateDecorator@@@@1V?$CDynamicPoolEx@VCNullDecorator@NEffectUpdateDecorator@@@@A@@YAXXZ
text$yd	SEGMENT
??__F?ms_kPool@?$CPooledObject@VCNullDecorator@NEffectUpdateDecorator@@@@1V?$CDynamicPoolEx@VCNullDecorator@NEffectUpdateDecorator@@@@A@@YAXXZ PROC ; `dynamic atexit destructor for 'CPooledObject<NEffectUpdateDecorator::CNullDecorator>::ms_kPool'', COMDAT
  00000	b9 00 00 00 00	 mov	 ecx, OFFSET ?ms_kPool@?$CPooledObject@VCNullDecorator@NEffectUpdateDecorator@@@@1V?$CDynamicPoolEx@VCNullDecorator@NEffectUpdateDecorator@@@@A ; CPooledObject<NEffectUpdateDecorator::CNullDecorator>::ms_kPool
  00005	e9 00 00 00 00	 jmp	 ??1?$CDynamicPoolEx@VCNullDecorator@NEffectUpdateDecorator@@@@UAE@XZ ; CDynamicPoolEx<NEffectUpdateDecorator::CNullDecorator>::~CDynamicPoolEx<NEffectUpdateDecorator::CNullDecorator>
??__F?ms_kPool@?$CPooledObject@VCNullDecorator@NEffectUpdateDecorator@@@@1V?$CDynamicPoolEx@VCNullDecorator@NEffectUpdateDecorator@@@@A@@YAXXZ ENDP ; `dynamic atexit destructor for 'CPooledObject<NEffectUpdateDecorator::CNullDecorator>::ms_kPool''
text$yd	ENDS
; Function compile flags: /Ogtp
; File C:\Users\murat\Desktop\Siveps2-1-99-Project\source\client\Client\eterLib\Pool.h
;	COMDAT ??__E?ms_kPool@?$CPooledObject@VCNullDecorator@NEffectUpdateDecorator@@@@1V?$CDynamicPoolEx@VCNullDecorator@NEffectUpdateDecorator@@@@A@@YAXXZ
text$di	SEGMENT
??__E?ms_kPool@?$CPooledObject@VCNullDecorator@NEffectUpdateDecorator@@@@1V?$CDynamicPoolEx@VCNullDecorator@NEffectUpdateDecorator@@@@A@@YAXXZ PROC ; `dynamic initializer for 'CPooledObject<NEffectUpdateDecorator::CNullDecorator>::ms_kPool'', COMDAT

; 272  : template <class T> CDynamicPoolEx<T> CPooledObject<T>::ms_kPool;

  00000	68 00 00 00 00	 push	 OFFSET ??__F?ms_kPool@?$CPooledObject@VCNullDecorator@NEffectUpdateDecorator@@@@1V?$CDynamicPoolEx@VCNullDecorator@NEffectUpdateDecorator@@@@A@@YAXXZ ; `dynamic atexit destructor for 'CPooledObject<NEffectUpdateDecorator::CNullDecorator>::ms_kPool''
  00005	e8 00 00 00 00	 call	 _atexit
  0000a	59		 pop	 ecx
  0000b	c3		 ret	 0
??__E?ms_kPool@?$CPooledObject@VCNullDecorator@NEffectUpdateDecorator@@@@1V?$CDynamicPoolEx@VCNullDecorator@NEffectUpdateDecorator@@@@A@@YAXXZ ENDP ; `dynamic initializer for 'CPooledObject<NEffectUpdateDecorator::CNullDecorator>::ms_kPool''
text$di	ENDS
; Function compile flags: /Ogtp
;	COMDAT ??__F?ms_kPool@?$CPooledObject@VCHeaderDecorator@NEffectUpdateDecorator@@@@1V?$CDynamicPoolEx@VCHeaderDecorator@NEffectUpdateDecorator@@@@A@@YAXXZ
text$yd	SEGMENT
??__F?ms_kPool@?$CPooledObject@VCHeaderDecorator@NEffectUpdateDecorator@@@@1V?$CDynamicPoolEx@VCHeaderDecorator@NEffectUpdateDecorator@@@@A@@YAXXZ PROC ; `dynamic atexit destructor for 'CPooledObject<NEffectUpdateDecorator::CHeaderDecorator>::ms_kPool'', COMDAT
  00000	b9 00 00 00 00	 mov	 ecx, OFFSET ?ms_kPool@?$CPooledObject@VCHeaderDecorator@NEffectUpdateDecorator@@@@1V?$CDynamicPoolEx@VCHeaderDecorator@NEffectUpdateDecorator@@@@A ; CPooledObject<NEffectUpdateDecorator::CHeaderDecorator>::ms_kPool
  00005	e9 00 00 00 00	 jmp	 ??1?$CDynamicPoolEx@VCHeaderDecorator@NEffectUpdateDecorator@@@@UAE@XZ ; CDynamicPoolEx<NEffectUpdateDecorator::CHeaderDecorator>::~CDynamicPoolEx<NEffectUpdateDecorator::CHeaderDecorator>
??__F?ms_kPool@?$CPooledObject@VCHeaderDecorator@NEffectUpdateDecorator@@@@1V?$CDynamicPoolEx@VCHeaderDecorator@NEffectUpdateDecorator@@@@A@@YAXXZ ENDP ; `dynamic atexit destructor for 'CPooledObject<NEffectUpdateDecorator::CHeaderDecorator>::ms_kPool''
text$yd	ENDS
; Function compile flags: /Ogtp
; File C:\Users\murat\Desktop\Siveps2-1-99-Project\source\client\Client\eterLib\Pool.h
;	COMDAT ??__E?ms_kPool@?$CPooledObject@VCHeaderDecorator@NEffectUpdateDecorator@@@@1V?$CDynamicPoolEx@VCHeaderDecorator@NEffectUpdateDecorator@@@@A@@YAXXZ
text$di	SEGMENT
??__E?ms_kPool@?$CPooledObject@VCHeaderDecorator@NEffectUpdateDecorator@@@@1V?$CDynamicPoolEx@VCHeaderDecorator@NEffectUpdateDecorator@@@@A@@YAXXZ PROC ; `dynamic initializer for 'CPooledObject<NEffectUpdateDecorator::CHeaderDecorator>::ms_kPool'', COMDAT

; 272  : template <class T> CDynamicPoolEx<T> CPooledObject<T>::ms_kPool;

  00000	68 00 00 00 00	 push	 OFFSET ??__F?ms_kPool@?$CPooledObject@VCHeaderDecorator@NEffectUpdateDecorator@@@@1V?$CDynamicPoolEx@VCHeaderDecorator@NEffectUpdateDecorator@@@@A@@YAXXZ ; `dynamic atexit destructor for 'CPooledObject<NEffectUpdateDecorator::CHeaderDecorator>::ms_kPool''
  00005	e8 00 00 00 00	 call	 _atexit
  0000a	59		 pop	 ecx
  0000b	c3		 ret	 0
??__E?ms_kPool@?$CPooledObject@VCHeaderDecorator@NEffectUpdateDecorator@@@@1V?$CDynamicPoolEx@VCHeaderDecorator@NEffectUpdateDecorator@@@@A@@YAXXZ ENDP ; `dynamic initializer for 'CPooledObject<NEffectUpdateDecorator::CHeaderDecorator>::ms_kPool''
text$di	ENDS
; Function compile flags: /Ogtp
;	COMDAT ??_G?$CDynamicPoolEx@VCHeaderDecorator@NEffectUpdateDecorator@@@@UAEPAXI@Z
_TEXT	SEGMENT
___flags$ = 8						; size = 4
??_G?$CDynamicPoolEx@VCHeaderDecorator@NEffectUpdateDecorator@@@@UAEPAXI@Z PROC ; CDynamicPoolEx<NEffectUpdateDecorator::CHeaderDecorator>::`scalar deleting destructor', COMDAT
; _this$ = ecx
  00000	55		 push	 ebp
  00001	8b ec		 mov	 ebp, esp
  00003	56		 push	 esi
  00004	8b f1		 mov	 esi, ecx
  00006	e8 00 00 00 00	 call	 ??1?$CDynamicPoolEx@VCHeaderDecorator@NEffectUpdateDecorator@@@@UAE@XZ ; CDynamicPoolEx<NEffectUpdateDecorator::CHeaderDecorator>::~CDynamicPoolEx<NEffectUpdateDecorator::CHeaderDecorator>
  0000b	f6 45 08 01	 test	 BYTE PTR ___flags$[ebp], 1
  0000f	74 0b		 je	 SHORT $LN4@scalar
  00011	6a 24		 push	 36			; 00000024H
  00013	56		 push	 esi
  00014	e8 00 00 00 00	 call	 ??3@YAXPAXI@Z		; operator delete
  00019	83 c4 08	 add	 esp, 8
$LN4@scalar:
  0001c	8b c6		 mov	 eax, esi
  0001e	5e		 pop	 esi
  0001f	5d		 pop	 ebp
  00020	c2 04 00	 ret	 4
??_G?$CDynamicPoolEx@VCHeaderDecorator@NEffectUpdateDecorator@@@@UAEPAXI@Z ENDP ; CDynamicPoolEx<NEffectUpdateDecorator::CHeaderDecorator>::`scalar deleting destructor'
_TEXT	ENDS
; Function compile flags: /Ogtp
; File C:\Users\murat\Desktop\Siveps2-1-99-Project\source\client\Client\eterLib\Pool.h
;	COMDAT ?Delete@?$CDynamicPoolEx@VCHeaderDecorator@NEffectUpdateDecorator@@@@KAXPAVCHeaderDecorator@NEffectUpdateDecorator@@@Z
_TEXT	SEGMENT
_pkData$ = 8						; size = 4
?Delete@?$CDynamicPoolEx@VCHeaderDecorator@NEffectUpdateDecorator@@@@KAXPAVCHeaderDecorator@NEffectUpdateDecorator@@@Z PROC ; CDynamicPoolEx<NEffectUpdateDecorator::CHeaderDecorator>::Delete, COMDAT

; 224  : 			::operator delete(pkData);

  00000	e9 00 00 00 00	 jmp	 ??3@YAXPAX@Z		; operator delete
?Delete@?$CDynamicPoolEx@VCHeaderDecorator@NEffectUpdateDecorator@@@@KAXPAVCHeaderDecorator@NEffectUpdateDecorator@@@Z ENDP ; CDynamicPoolEx<NEffectUpdateDecorator::CHeaderDecorator>::Delete
_TEXT	ENDS
; Function compile flags: /Ogtp
; File C:\Users\murat\Desktop\Siveps2-1-99-Project\source\client\Client\eterLib\Pool.h
; File C:\Program Files (x86)\Microsoft Visual Studio\2019\Professional\VC\Tools\MSVC\14.29.30133\include\vector
; File C:\Program Files (x86)\Microsoft Visual Studio\2019\Professional\VC\Tools\MSVC\14.29.30133\include\algorithm
; File C:\Users\murat\Desktop\Siveps2-1-99-Project\source\client\Client\eterLib\Pool.h
; File C:\Program Files (x86)\Microsoft Visual Studio\2019\Professional\VC\Tools\MSVC\14.29.30133\include\algorithm
; File C:\Users\murat\Desktop\Siveps2-1-99-Project\source\client\Client\eterLib\Pool.h
; File C:\Program Files (x86)\Microsoft Visual Studio\2019\Professional\VC\Tools\MSVC\14.29.30133\include\algorithm
; File C:\Users\murat\Desktop\Siveps2-1-99-Project\source\client\Client\eterLib\Pool.h
; File C:\Program Files (x86)\Microsoft Visual Studio\2019\Professional\VC\Tools\MSVC\14.29.30133\include\vector
; File C:\Program Files (x86)\Microsoft Visual Studio\2019\Professional\VC\Tools\MSVC\14.29.30133\include\xmemory
; File C:\Program Files (x86)\Microsoft Visual Studio\2019\Professional\VC\Tools\MSVC\14.29.30133\include\vector
; File C:\Program Files (x86)\Microsoft Visual Studio\2019\Professional\VC\Tools\MSVC\14.29.30133\include\xmemory
; File C:\Program Files (x86)\Microsoft Visual Studio\2019\Professional\VC\Tools\MSVC\14.29.30133\include\vector
; File C:\Program Files (x86)\Microsoft Visual Studio\2019\Professional\VC\Tools\MSVC\14.29.30133\include\xmemory
; File C:\Program Files (x86)\Microsoft Visual Studio\2019\Professional\VC\Tools\MSVC\14.29.30133\include\vector
; File C:\Program Files (x86)\Microsoft Visual Studio\2019\Professional\VC\Tools\MSVC\14.29.30133\include\xmemory
; File C:\Program Files (x86)\Microsoft Visual Studio\2019\Professional\VC\Tools\MSVC\14.29.30133\include\vector
; File C:\Users\murat\Desktop\Siveps2-1-99-Project\source\client\Client\eterLib\Pool.h
; File C:\Program Files (x86)\Microsoft Visual Studio\2019\Professional\VC\Tools\MSVC\14.29.30133\include\xmemory
; File C:\Users\murat\Desktop\Siveps2-1-99-Project\source\client\Client\eterLib\Pool.h
;	COMDAT ??1?$CDynamicPoolEx@VCHeaderDecorator@NEffectUpdateDecorator@@@@UAE@XZ
_TEXT	SEGMENT
??1?$CDynamicPoolEx@VCHeaderDecorator@NEffectUpdateDecorator@@@@UAE@XZ PROC ; CDynamicPoolEx<NEffectUpdateDecorator::CHeaderDecorator>::~CDynamicPoolEx<NEffectUpdateDecorator::CHeaderDecorator>, COMDAT
; _this$ = ecx

; 132  : 		{

  00000	53		 push	 ebx
  00001	56		 push	 esi
  00002	57		 push	 edi
  00003	8b f9		 mov	 edi, ecx
  00005	c7 07 00 00 00
	00		 mov	 DWORD PTR [edi], OFFSET ??_7?$CDynamicPoolEx@VCHeaderDecorator@NEffectUpdateDecorator@@@@6B@
; File C:\Program Files (x86)\Microsoft Visual Studio\2019\Professional\VC\Tools\MSVC\14.29.30133\include\vector

; 42   :     _CONSTEXPR20_CONTAINER _Vector_const_iterator(_Tptr _Parg, const _Container_base* _Pvector) noexcept : _Ptr(_Parg) {

  0000b	8b 5f 08	 mov	 ebx, DWORD PTR [edi+8]
  0000e	8b 77 04	 mov	 esi, DWORD PTR [edi+4]
; File C:\Program Files (x86)\Microsoft Visual Studio\2019\Professional\VC\Tools\MSVC\14.29.30133\include\algorithm

; 270  :     for (; _UFirst != _ULast; ++_UFirst) {

  00011	3b f3		 cmp	 esi, ebx
  00013	74 14		 je	 SHORT $LN19@CDynamicPo
$LL20@CDynamicPo:
; File C:\Users\murat\Desktop\Siveps2-1-99-Project\source\client\Client\eterLib\Pool.h

; 224  : 			::operator delete(pkData);

  00015	ff 36		 push	 DWORD PTR [esi]
  00017	e8 00 00 00 00	 call	 ??3@YAXPAX@Z		; operator delete
; File C:\Program Files (x86)\Microsoft Visual Studio\2019\Professional\VC\Tools\MSVC\14.29.30133\include\algorithm

; 270  :     for (; _UFirst != _ULast; ++_UFirst) {

  0001c	83 c6 04	 add	 esi, 4
; File C:\Users\murat\Desktop\Siveps2-1-99-Project\source\client\Client\eterLib\Pool.h

; 224  : 			::operator delete(pkData);

  0001f	83 c4 04	 add	 esp, 4
; File C:\Program Files (x86)\Microsoft Visual Studio\2019\Professional\VC\Tools\MSVC\14.29.30133\include\algorithm

; 270  :     for (; _UFirst != _ULast; ++_UFirst) {

  00022	3b f3		 cmp	 esi, ebx
  00024	75 ef		 jne	 SHORT $LL20@CDynamicPo
  00026	8b 77 04	 mov	 esi, DWORD PTR [edi+4]
$LN19@CDynamicPo:
; File C:\Users\murat\Desktop\Siveps2-1-99-Project\source\client\Client\eterLib\Pool.h

; 162  : 			m_kVct_pkFree.clear();

  00029	8b 47 10	 mov	 eax, DWORD PTR [edi+16]
  0002c	89 77 08	 mov	 DWORD PTR [edi+8], esi
  0002f	89 47 14	 mov	 DWORD PTR [edi+20], eax
; File C:\Program Files (x86)\Microsoft Visual Studio\2019\Professional\VC\Tools\MSVC\14.29.30133\include\vector

; 1763 :         if (_Myfirst) { // destroy and deallocate old array

  00032	85 c0		 test	 eax, eax
  00034	74 41		 je	 SHORT $LN27@CDynamicPo

; 1764 :             _Destroy(_Myfirst, _Mylast);
; 1765 :             _Getal().deallocate(_Myfirst, static_cast<size_type>(_Myend - _Myfirst));

  00036	8b 4f 18	 mov	 ecx, DWORD PTR [edi+24]
  00039	2b c8		 sub	 ecx, eax
; File C:\Program Files (x86)\Microsoft Visual Studio\2019\Professional\VC\Tools\MSVC\14.29.30133\include\xmemory

; 835  :         _Deallocate<_New_alignof<_Ty>>(_Ptr, sizeof(_Ty) * _Count);

  0003b	83 e1 fc	 and	 ecx, -4			; fffffffcH

; 260  :         if (_Bytes >= _Big_allocation_threshold) { // boost the alignment of big allocations to help autovectorization

  0003e	81 f9 00 10 00
	00		 cmp	 ecx, 4096		; 00001000H
  00044	72 12		 jb	 SHORT $LN43@CDynamicPo

; 158  :     const uintptr_t _Ptr_container   = _Ptr_user[-1];

  00046	8b 50 fc	 mov	 edx, DWORD PTR [eax-4]
  00049	83 c1 23	 add	 ecx, 35			; 00000023H

; 159  : 
; 160  :     // If the following asserts, it likely means that we are performing
; 161  :     // an aligned delete on memory coming from an unaligned allocation.
; 162  :     _STL_ASSERT(_Ptr_user[-2] == _Big_allocation_sentinel, "invalid argument");
; 163  : 
; 164  :     // Extra paranoia on aligned allocation/deallocation; ensure _Ptr_container is
; 165  :     // in range [_Min_back_shift, _Non_user_size]
; 166  : #ifdef _DEBUG
; 167  :     constexpr uintptr_t _Min_back_shift = 2 * sizeof(void*);
; 168  : #else // ^^^ _DEBUG ^^^ // vvv !_DEBUG vvv
; 169  :     constexpr uintptr_t _Min_back_shift = sizeof(void*);
; 170  : #endif // _DEBUG
; 171  :     const uintptr_t _Back_shift = reinterpret_cast<uintptr_t>(_Ptr) - _Ptr_container;

  0004c	2b c2		 sub	 eax, edx

; 172  :     _STL_VERIFY(_Back_shift >= _Min_back_shift && _Back_shift <= _Non_user_size, "invalid argument");

  0004e	83 c0 fc	 add	 eax, -4			; fffffffcH
  00051	83 f8 1f	 cmp	 eax, 31			; 0000001fH
  00054	77 6d		 ja	 SHORT $LN65@CDynamicPo

; 173  :     _Ptr = reinterpret_cast<void*>(_Ptr_container);

  00056	8b c2		 mov	 eax, edx
$LN43@CDynamicPo:

; 264  :         ::operator delete(_Ptr, _Bytes);

  00058	51		 push	 ecx
  00059	50		 push	 eax
  0005a	e8 00 00 00 00	 call	 ??3@YAXPAXI@Z		; operator delete
; File C:\Program Files (x86)\Microsoft Visual Studio\2019\Professional\VC\Tools\MSVC\14.29.30133\include\vector

; 1767 :             _Myfirst = nullptr;

  0005f	c7 47 10 00 00
	00 00		 mov	 DWORD PTR [edi+16], 0
; File C:\Program Files (x86)\Microsoft Visual Studio\2019\Professional\VC\Tools\MSVC\14.29.30133\include\xmemory

; 264  :         ::operator delete(_Ptr, _Bytes);

  00066	83 c4 08	 add	 esp, 8
; File C:\Program Files (x86)\Microsoft Visual Studio\2019\Professional\VC\Tools\MSVC\14.29.30133\include\vector

; 1768 :             _Mylast  = nullptr;

  00069	c7 47 14 00 00
	00 00		 mov	 DWORD PTR [edi+20], 0

; 1769 :             _Myend   = nullptr;

  00070	c7 47 18 00 00
	00 00		 mov	 DWORD PTR [edi+24], 0
$LN27@CDynamicPo:

; 1763 :         if (_Myfirst) { // destroy and deallocate old array

  00077	8b 47 04	 mov	 eax, DWORD PTR [edi+4]
  0007a	85 c0		 test	 eax, eax
  0007c	74 41		 je	 SHORT $LN52@CDynamicPo

; 1764 :             _Destroy(_Myfirst, _Mylast);
; 1765 :             _Getal().deallocate(_Myfirst, static_cast<size_type>(_Myend - _Myfirst));

  0007e	8b 4f 0c	 mov	 ecx, DWORD PTR [edi+12]
  00081	2b c8		 sub	 ecx, eax
; File C:\Program Files (x86)\Microsoft Visual Studio\2019\Professional\VC\Tools\MSVC\14.29.30133\include\xmemory

; 835  :         _Deallocate<_New_alignof<_Ty>>(_Ptr, sizeof(_Ty) * _Count);

  00083	83 e1 fc	 and	 ecx, -4			; fffffffcH

; 260  :         if (_Bytes >= _Big_allocation_threshold) { // boost the alignment of big allocations to help autovectorization

  00086	81 f9 00 10 00
	00		 cmp	 ecx, 4096		; 00001000H
  0008c	72 12		 jb	 SHORT $LN68@CDynamicPo

; 158  :     const uintptr_t _Ptr_container   = _Ptr_user[-1];

  0008e	8b 50 fc	 mov	 edx, DWORD PTR [eax-4]
  00091	83 c1 23	 add	 ecx, 35			; 00000023H

; 159  : 
; 160  :     // If the following asserts, it likely means that we are performing
; 161  :     // an aligned delete on memory coming from an unaligned allocation.
; 162  :     _STL_ASSERT(_Ptr_user[-2] == _Big_allocation_sentinel, "invalid argument");
; 163  : 
; 164  :     // Extra paranoia on aligned allocation/deallocation; ensure _Ptr_container is
; 165  :     // in range [_Min_back_shift, _Non_user_size]
; 166  : #ifdef _DEBUG
; 167  :     constexpr uintptr_t _Min_back_shift = 2 * sizeof(void*);
; 168  : #else // ^^^ _DEBUG ^^^ // vvv !_DEBUG vvv
; 169  :     constexpr uintptr_t _Min_back_shift = sizeof(void*);
; 170  : #endif // _DEBUG
; 171  :     const uintptr_t _Back_shift = reinterpret_cast<uintptr_t>(_Ptr) - _Ptr_container;

  00094	2b c2		 sub	 eax, edx

; 172  :     _STL_VERIFY(_Back_shift >= _Min_back_shift && _Back_shift <= _Non_user_size, "invalid argument");

  00096	83 c0 fc	 add	 eax, -4			; fffffffcH
  00099	83 f8 1f	 cmp	 eax, 31			; 0000001fH
  0009c	77 25		 ja	 SHORT $LN65@CDynamicPo

; 173  :     _Ptr = reinterpret_cast<void*>(_Ptr_container);

  0009e	8b c2		 mov	 eax, edx
$LN68@CDynamicPo:

; 264  :         ::operator delete(_Ptr, _Bytes);

  000a0	51		 push	 ecx
  000a1	50		 push	 eax
  000a2	e8 00 00 00 00	 call	 ??3@YAXPAXI@Z		; operator delete
; File C:\Program Files (x86)\Microsoft Visual Studio\2019\Professional\VC\Tools\MSVC\14.29.30133\include\vector

; 1767 :             _Myfirst = nullptr;

  000a7	c7 47 04 00 00
	00 00		 mov	 DWORD PTR [edi+4], 0
; File C:\Program Files (x86)\Microsoft Visual Studio\2019\Professional\VC\Tools\MSVC\14.29.30133\include\xmemory

; 264  :         ::operator delete(_Ptr, _Bytes);

  000ae	83 c4 08	 add	 esp, 8
; File C:\Program Files (x86)\Microsoft Visual Studio\2019\Professional\VC\Tools\MSVC\14.29.30133\include\vector

; 1768 :             _Mylast  = nullptr;

  000b1	c7 47 08 00 00
	00 00		 mov	 DWORD PTR [edi+8], 0

; 1769 :             _Myend   = nullptr;

  000b8	c7 47 0c 00 00
	00 00		 mov	 DWORD PTR [edi+12], 0
$LN52@CDynamicPo:
  000bf	5f		 pop	 edi
; File C:\Users\murat\Desktop\Siveps2-1-99-Project\source\client\Client\eterLib\Pool.h

; 142  : 		}

  000c0	5e		 pop	 esi
  000c1	5b		 pop	 ebx
  000c2	c3		 ret	 0
$LN65@CDynamicPo:
; File C:\Program Files (x86)\Microsoft Visual Studio\2019\Professional\VC\Tools\MSVC\14.29.30133\include\xmemory

; 172  :     _STL_VERIFY(_Back_shift >= _Min_back_shift && _Back_shift <= _Non_user_size, "invalid argument");

  000c3	e8 00 00 00 00	 call	 __invalid_parameter_noinfo_noreturn
$LN77@CDynamicPo:
  000c8	cc		 int	 3
??1?$CDynamicPoolEx@VCHeaderDecorator@NEffectUpdateDecorator@@@@UAE@XZ ENDP ; CDynamicPoolEx<NEffectUpdateDecorator::CHeaderDecorator>::~CDynamicPoolEx<NEffectUpdateDecorator::CHeaderDecorator>
_TEXT	ENDS
; Function compile flags: /Ogtp
;	COMDAT ??_G?$CDynamicPoolEx@VCNullDecorator@NEffectUpdateDecorator@@@@UAEPAXI@Z
_TEXT	SEGMENT
___flags$ = 8						; size = 4
??_G?$CDynamicPoolEx@VCNullDecorator@NEffectUpdateDecorator@@@@UAEPAXI@Z PROC ; CDynamicPoolEx<NEffectUpdateDecorator::CNullDecorator>::`scalar deleting destructor', COMDAT
; _this$ = ecx
  00000	55		 push	 ebp
  00001	8b ec		 mov	 ebp, esp
  00003	56		 push	 esi
  00004	8b f1		 mov	 esi, ecx
  00006	e8 00 00 00 00	 call	 ??1?$CDynamicPoolEx@VCNullDecorator@NEffectUpdateDecorator@@@@UAE@XZ ; CDynamicPoolEx<NEffectUpdateDecorator::CNullDecorator>::~CDynamicPoolEx<NEffectUpdateDecorator::CNullDecorator>
  0000b	f6 45 08 01	 test	 BYTE PTR ___flags$[ebp], 1
  0000f	74 0b		 je	 SHORT $LN4@scalar
  00011	6a 24		 push	 36			; 00000024H
  00013	56		 push	 esi
  00014	e8 00 00 00 00	 call	 ??3@YAXPAXI@Z		; operator delete
  00019	83 c4 08	 add	 esp, 8
$LN4@scalar:
  0001c	8b c6		 mov	 eax, esi
  0001e	5e		 pop	 esi
  0001f	5d		 pop	 ebp
  00020	c2 04 00	 ret	 4
??_G?$CDynamicPoolEx@VCNullDecorator@NEffectUpdateDecorator@@@@UAEPAXI@Z ENDP ; CDynamicPoolEx<NEffectUpdateDecorator::CNullDecorator>::`scalar deleting destructor'
_TEXT	ENDS
; Function compile flags: /Ogtp
; File C:\Users\murat\Desktop\Siveps2-1-99-Project\source\client\Client\eterLib\Pool.h
;	COMDAT ?Delete@?$CDynamicPoolEx@VCNullDecorator@NEffectUpdateDecorator@@@@KAXPAVCNullDecorator@NEffectUpdateDecorator@@@Z
_TEXT	SEGMENT
_pkData$ = 8						; size = 4
?Delete@?$CDynamicPoolEx@VCNullDecorator@NEffectUpdateDecorator@@@@KAXPAVCNullDecorator@NEffectUpdateDecorator@@@Z PROC ; CDynamicPoolEx<NEffectUpdateDecorator::CNullDecorator>::Delete, COMDAT

; 224  : 			::operator delete(pkData);

  00000	e9 00 00 00 00	 jmp	 ??3@YAXPAX@Z		; operator delete
?Delete@?$CDynamicPoolEx@VCNullDecorator@NEffectUpdateDecorator@@@@KAXPAVCNullDecorator@NEffectUpdateDecorator@@@Z ENDP ; CDynamicPoolEx<NEffectUpdateDecorator::CNullDecorator>::Delete
_TEXT	ENDS
; Function compile flags: /Ogtp
; File C:\Users\murat\Desktop\Siveps2-1-99-Project\source\client\Client\eterLib\Pool.h
; File C:\Program Files (x86)\Microsoft Visual Studio\2019\Professional\VC\Tools\MSVC\14.29.30133\include\vector
; File C:\Program Files (x86)\Microsoft Visual Studio\2019\Professional\VC\Tools\MSVC\14.29.30133\include\algorithm
; File C:\Users\murat\Desktop\Siveps2-1-99-Project\source\client\Client\eterLib\Pool.h
; File C:\Program Files (x86)\Microsoft Visual Studio\2019\Professional\VC\Tools\MSVC\14.29.30133\include\algorithm
; File C:\Users\murat\Desktop\Siveps2-1-99-Project\source\client\Client\eterLib\Pool.h
; File C:\Program Files (x86)\Microsoft Visual Studio\2019\Professional\VC\Tools\MSVC\14.29.30133\include\algorithm
; File C:\Users\murat\Desktop\Siveps2-1-99-Project\source\client\Client\eterLib\Pool.h
; File C:\Program Files (x86)\Microsoft Visual Studio\2019\Professional\VC\Tools\MSVC\14.29.30133\include\vector
; File C:\Program Files (x86)\Microsoft Visual Studio\2019\Professional\VC\Tools\MSVC\14.29.30133\include\xmemory
; File C:\Program Files (x86)\Microsoft Visual Studio\2019\Professional\VC\Tools\MSVC\14.29.30133\include\vector
; File C:\Program Files (x86)\Microsoft Visual Studio\2019\Professional\VC\Tools\MSVC\14.29.30133\include\xmemory
; File C:\Program Files (x86)\Microsoft Visual Studio\2019\Professional\VC\Tools\MSVC\14.29.30133\include\vector
; File C:\Program Files (x86)\Microsoft Visual Studio\2019\Professional\VC\Tools\MSVC\14.29.30133\include\xmemory
; File C:\Program Files (x86)\Microsoft Visual Studio\2019\Professional\VC\Tools\MSVC\14.29.30133\include\vector
; File C:\Program Files (x86)\Microsoft Visual Studio\2019\Professional\VC\Tools\MSVC\14.29.30133\include\xmemory
; File C:\Program Files (x86)\Microsoft Visual Studio\2019\Professional\VC\Tools\MSVC\14.29.30133\include\vector
; File C:\Users\murat\Desktop\Siveps2-1-99-Project\source\client\Client\eterLib\Pool.h
; File C:\Program Files (x86)\Microsoft Visual Studio\2019\Professional\VC\Tools\MSVC\14.29.30133\include\xmemory
; File C:\Users\murat\Desktop\Siveps2-1-99-Project\source\client\Client\eterLib\Pool.h
;	COMDAT ??1?$CDynamicPoolEx@VCNullDecorator@NEffectUpdateDecorator@@@@UAE@XZ
_TEXT	SEGMENT
??1?$CDynamicPoolEx@VCNullDecorator@NEffectUpdateDecorator@@@@UAE@XZ PROC ; CDynamicPoolEx<NEffectUpdateDecorator::CNullDecorator>::~CDynamicPoolEx<NEffectUpdateDecorator::CNullDecorator>, COMDAT
; _this$ = ecx

; 132  : 		{

  00000	53		 push	 ebx
  00001	56		 push	 esi
  00002	57		 push	 edi
  00003	8b f9		 mov	 edi, ecx
  00005	c7 07 00 00 00
	00		 mov	 DWORD PTR [edi], OFFSET ??_7?$CDynamicPoolEx@VCNullDecorator@NEffectUpdateDecorator@@@@6B@
; File C:\Program Files (x86)\Microsoft Visual Studio\2019\Professional\VC\Tools\MSVC\14.29.30133\include\vector

; 42   :     _CONSTEXPR20_CONTAINER _Vector_const_iterator(_Tptr _Parg, const _Container_base* _Pvector) noexcept : _Ptr(_Parg) {

  0000b	8b 5f 08	 mov	 ebx, DWORD PTR [edi+8]
  0000e	8b 77 04	 mov	 esi, DWORD PTR [edi+4]
; File C:\Program Files (x86)\Microsoft Visual Studio\2019\Professional\VC\Tools\MSVC\14.29.30133\include\algorithm

; 270  :     for (; _UFirst != _ULast; ++_UFirst) {

  00011	3b f3		 cmp	 esi, ebx
  00013	74 14		 je	 SHORT $LN19@CDynamicPo
$LL20@CDynamicPo:
; File C:\Users\murat\Desktop\Siveps2-1-99-Project\source\client\Client\eterLib\Pool.h

; 224  : 			::operator delete(pkData);

  00015	ff 36		 push	 DWORD PTR [esi]
  00017	e8 00 00 00 00	 call	 ??3@YAXPAX@Z		; operator delete
; File C:\Program Files (x86)\Microsoft Visual Studio\2019\Professional\VC\Tools\MSVC\14.29.30133\include\algorithm

; 270  :     for (; _UFirst != _ULast; ++_UFirst) {

  0001c	83 c6 04	 add	 esi, 4
; File C:\Users\murat\Desktop\Siveps2-1-99-Project\source\client\Client\eterLib\Pool.h

; 224  : 			::operator delete(pkData);

  0001f	83 c4 04	 add	 esp, 4
; File C:\Program Files (x86)\Microsoft Visual Studio\2019\Professional\VC\Tools\MSVC\14.29.30133\include\algorithm

; 270  :     for (; _UFirst != _ULast; ++_UFirst) {

  00022	3b f3		 cmp	 esi, ebx
  00024	75 ef		 jne	 SHORT $LL20@CDynamicPo
  00026	8b 77 04	 mov	 esi, DWORD PTR [edi+4]
$LN19@CDynamicPo:
; File C:\Users\murat\Desktop\Siveps2-1-99-Project\source\client\Client\eterLib\Pool.h

; 162  : 			m_kVct_pkFree.clear();

  00029	8b 47 10	 mov	 eax, DWORD PTR [edi+16]
  0002c	89 77 08	 mov	 DWORD PTR [edi+8], esi
  0002f	89 47 14	 mov	 DWORD PTR [edi+20], eax
; File C:\Program Files (x86)\Microsoft Visual Studio\2019\Professional\VC\Tools\MSVC\14.29.30133\include\vector

; 1763 :         if (_Myfirst) { // destroy and deallocate old array

  00032	85 c0		 test	 eax, eax
  00034	74 41		 je	 SHORT $LN27@CDynamicPo

; 1764 :             _Destroy(_Myfirst, _Mylast);
; 1765 :             _Getal().deallocate(_Myfirst, static_cast<size_type>(_Myend - _Myfirst));

  00036	8b 4f 18	 mov	 ecx, DWORD PTR [edi+24]
  00039	2b c8		 sub	 ecx, eax
; File C:\Program Files (x86)\Microsoft Visual Studio\2019\Professional\VC\Tools\MSVC\14.29.30133\include\xmemory

; 835  :         _Deallocate<_New_alignof<_Ty>>(_Ptr, sizeof(_Ty) * _Count);

  0003b	83 e1 fc	 and	 ecx, -4			; fffffffcH

; 260  :         if (_Bytes >= _Big_allocation_threshold) { // boost the alignment of big allocations to help autovectorization

  0003e	81 f9 00 10 00
	00		 cmp	 ecx, 4096		; 00001000H
  00044	72 12		 jb	 SHORT $LN43@CDynamicPo

; 158  :     const uintptr_t _Ptr_container   = _Ptr_user[-1];

  00046	8b 50 fc	 mov	 edx, DWORD PTR [eax-4]
  00049	83 c1 23	 add	 ecx, 35			; 00000023H

; 159  : 
; 160  :     // If the following asserts, it likely means that we are performing
; 161  :     // an aligned delete on memory coming from an unaligned allocation.
; 162  :     _STL_ASSERT(_Ptr_user[-2] == _Big_allocation_sentinel, "invalid argument");
; 163  : 
; 164  :     // Extra paranoia on aligned allocation/deallocation; ensure _Ptr_container is
; 165  :     // in range [_Min_back_shift, _Non_user_size]
; 166  : #ifdef _DEBUG
; 167  :     constexpr uintptr_t _Min_back_shift = 2 * sizeof(void*);
; 168  : #else // ^^^ _DEBUG ^^^ // vvv !_DEBUG vvv
; 169  :     constexpr uintptr_t _Min_back_shift = sizeof(void*);
; 170  : #endif // _DEBUG
; 171  :     const uintptr_t _Back_shift = reinterpret_cast<uintptr_t>(_Ptr) - _Ptr_container;

  0004c	2b c2		 sub	 eax, edx

; 172  :     _STL_VERIFY(_Back_shift >= _Min_back_shift && _Back_shift <= _Non_user_size, "invalid argument");

  0004e	83 c0 fc	 add	 eax, -4			; fffffffcH
  00051	83 f8 1f	 cmp	 eax, 31			; 0000001fH
  00054	77 6d		 ja	 SHORT $LN65@CDynamicPo

; 173  :     _Ptr = reinterpret_cast<void*>(_Ptr_container);

  00056	8b c2		 mov	 eax, edx
$LN43@CDynamicPo:

; 264  :         ::operator delete(_Ptr, _Bytes);

  00058	51		 push	 ecx
  00059	50		 push	 eax
  0005a	e8 00 00 00 00	 call	 ??3@YAXPAXI@Z		; operator delete
; File C:\Program Files (x86)\Microsoft Visual Studio\2019\Professional\VC\Tools\MSVC\14.29.30133\include\vector

; 1767 :             _Myfirst = nullptr;

  0005f	c7 47 10 00 00
	00 00		 mov	 DWORD PTR [edi+16], 0
; File C:\Program Files (x86)\Microsoft Visual Studio\2019\Professional\VC\Tools\MSVC\14.29.30133\include\xmemory

; 264  :         ::operator delete(_Ptr, _Bytes);

  00066	83 c4 08	 add	 esp, 8
; File C:\Program Files (x86)\Microsoft Visual Studio\2019\Professional\VC\Tools\MSVC\14.29.30133\include\vector

; 1768 :             _Mylast  = nullptr;

  00069	c7 47 14 00 00
	00 00		 mov	 DWORD PTR [edi+20], 0

; 1769 :             _Myend   = nullptr;

  00070	c7 47 18 00 00
	00 00		 mov	 DWORD PTR [edi+24], 0
$LN27@CDynamicPo:

; 1763 :         if (_Myfirst) { // destroy and deallocate old array

  00077	8b 47 04	 mov	 eax, DWORD PTR [edi+4]
  0007a	85 c0		 test	 eax, eax
  0007c	74 41		 je	 SHORT $LN52@CDynamicPo

; 1764 :             _Destroy(_Myfirst, _Mylast);
; 1765 :             _Getal().deallocate(_Myfirst, static_cast<size_type>(_Myend - _Myfirst));

  0007e	8b 4f 0c	 mov	 ecx, DWORD PTR [edi+12]
  00081	2b c8		 sub	 ecx, eax
; File C:\Program Files (x86)\Microsoft Visual Studio\2019\Professional\VC\Tools\MSVC\14.29.30133\include\xmemory

; 835  :         _Deallocate<_New_alignof<_Ty>>(_Ptr, sizeof(_Ty) * _Count);

  00083	83 e1 fc	 and	 ecx, -4			; fffffffcH

; 260  :         if (_Bytes >= _Big_allocation_threshold) { // boost the alignment of big allocations to help autovectorization

  00086	81 f9 00 10 00
	00		 cmp	 ecx, 4096		; 00001000H
  0008c	72 12		 jb	 SHORT $LN68@CDynamicPo

; 158  :     const uintptr_t _Ptr_container   = _Ptr_user[-1];

  0008e	8b 50 fc	 mov	 edx, DWORD PTR [eax-4]
  00091	83 c1 23	 add	 ecx, 35			; 00000023H

; 159  : 
; 160  :     // If the following asserts, it likely means that we are performing
; 161  :     // an aligned delete on memory coming from an unaligned allocation.
; 162  :     _STL_ASSERT(_Ptr_user[-2] == _Big_allocation_sentinel, "invalid argument");
; 163  : 
; 164  :     // Extra paranoia on aligned allocation/deallocation; ensure _Ptr_container is
; 165  :     // in range [_Min_back_shift, _Non_user_size]
; 166  : #ifdef _DEBUG
; 167  :     constexpr uintptr_t _Min_back_shift = 2 * sizeof(void*);
; 168  : #else // ^^^ _DEBUG ^^^ // vvv !_DEBUG vvv
; 169  :     constexpr uintptr_t _Min_back_shift = sizeof(void*);
; 170  : #endif // _DEBUG
; 171  :     const uintptr_t _Back_shift = reinterpret_cast<uintptr_t>(_Ptr) - _Ptr_container;

  00094	2b c2		 sub	 eax, edx

; 172  :     _STL_VERIFY(_Back_shift >= _Min_back_shift && _Back_shift <= _Non_user_size, "invalid argument");

  00096	83 c0 fc	 add	 eax, -4			; fffffffcH
  00099	83 f8 1f	 cmp	 eax, 31			; 0000001fH
  0009c	77 25		 ja	 SHORT $LN65@CDynamicPo

; 173  :     _Ptr = reinterpret_cast<void*>(_Ptr_container);

  0009e	8b c2		 mov	 eax, edx
$LN68@CDynamicPo:

; 264  :         ::operator delete(_Ptr, _Bytes);

  000a0	51		 push	 ecx
  000a1	50		 push	 eax
  000a2	e8 00 00 00 00	 call	 ??3@YAXPAXI@Z		; operator delete
; File C:\Program Files (x86)\Microsoft Visual Studio\2019\Professional\VC\Tools\MSVC\14.29.30133\include\vector

; 1767 :             _Myfirst = nullptr;

  000a7	c7 47 04 00 00
	00 00		 mov	 DWORD PTR [edi+4], 0
; File C:\Program Files (x86)\Microsoft Visual Studio\2019\Professional\VC\Tools\MSVC\14.29.30133\include\xmemory

; 264  :         ::operator delete(_Ptr, _Bytes);

  000ae	83 c4 08	 add	 esp, 8
; File C:\Program Files (x86)\Microsoft Visual Studio\2019\Professional\VC\Tools\MSVC\14.29.30133\include\vector

; 1768 :             _Mylast  = nullptr;

  000b1	c7 47 08 00 00
	00 00		 mov	 DWORD PTR [edi+8], 0

; 1769 :             _Myend   = nullptr;

  000b8	c7 47 0c 00 00
	00 00		 mov	 DWORD PTR [edi+12], 0
$LN52@CDynamicPo:
  000bf	5f		 pop	 edi
; File C:\Users\murat\Desktop\Siveps2-1-99-Project\source\client\Client\eterLib\Pool.h

; 142  : 		}

  000c0	5e		 pop	 esi
  000c1	5b		 pop	 ebx
  000c2	c3		 ret	 0
$LN65@CDynamicPo:
; File C:\Program Files (x86)\Microsoft Visual Studio\2019\Professional\VC\Tools\MSVC\14.29.30133\include\xmemory

; 172  :     _STL_VERIFY(_Back_shift >= _Min_back_shift && _Back_shift <= _Non_user_size, "invalid argument");

  000c3	e8 00 00 00 00	 call	 __invalid_parameter_noinfo_noreturn
$LN77@CDynamicPo:
  000c8	cc		 int	 3
??1?$CDynamicPoolEx@VCNullDecorator@NEffectUpdateDecorator@@@@UAE@XZ ENDP ; CDynamicPoolEx<NEffectUpdateDecorator::CNullDecorator>::~CDynamicPoolEx<NEffectUpdateDecorator::CNullDecorator>
_TEXT	ENDS
; Function compile flags: /Ogtp
;	COMDAT ??_G?$CDynamicPoolEx@VCTextureAnimationCWDecorator@NEffectUpdateDecorator@@@@UAEPAXI@Z
_TEXT	SEGMENT
___flags$ = 8						; size = 4
??_G?$CDynamicPoolEx@VCTextureAnimationCWDecorator@NEffectUpdateDecorator@@@@UAEPAXI@Z PROC ; CDynamicPoolEx<NEffectUpdateDecorator::CTextureAnimationCWDecorator>::`scalar deleting destructor', COMDAT
; _this$ = ecx
  00000	55		 push	 ebp
  00001	8b ec		 mov	 ebp, esp
  00003	56		 push	 esi
  00004	8b f1		 mov	 esi, ecx
  00006	e8 00 00 00 00	 call	 ??1?$CDynamicPoolEx@VCTextureAnimationCWDecorator@NEffectUpdateDecorator@@@@UAE@XZ ; CDynamicPoolEx<NEffectUpdateDecorator::CTextureAnimationCWDecorator>::~CDynamicPoolEx<NEffectUpdateDecorator::CTextureAnimationCWDecorator>
  0000b	f6 45 08 01	 test	 BYTE PTR ___flags$[ebp], 1
  0000f	74 0b		 je	 SHORT $LN4@scalar
  00011	6a 24		 push	 36			; 00000024H
  00013	56		 push	 esi
  00014	e8 00 00 00 00	 call	 ??3@YAXPAXI@Z		; operator delete
  00019	83 c4 08	 add	 esp, 8
$LN4@scalar:
  0001c	8b c6		 mov	 eax, esi
  0001e	5e		 pop	 esi
  0001f	5d		 pop	 ebp
  00020	c2 04 00	 ret	 4
??_G?$CDynamicPoolEx@VCTextureAnimationCWDecorator@NEffectUpdateDecorator@@@@UAEPAXI@Z ENDP ; CDynamicPoolEx<NEffectUpdateDecorator::CTextureAnimationCWDecorator>::`scalar deleting destructor'
_TEXT	ENDS
; Function compile flags: /Ogtp
; File C:\Users\murat\Desktop\Siveps2-1-99-Project\source\client\Client\eterLib\Pool.h
;	COMDAT ?Delete@?$CDynamicPoolEx@VCTextureAnimationCWDecorator@NEffectUpdateDecorator@@@@KAXPAVCTextureAnimationCWDecorator@NEffectUpdateDecorator@@@Z
_TEXT	SEGMENT
_pkData$ = 8						; size = 4
?Delete@?$CDynamicPoolEx@VCTextureAnimationCWDecorator@NEffectUpdateDecorator@@@@KAXPAVCTextureAnimationCWDecorator@NEffectUpdateDecorator@@@Z PROC ; CDynamicPoolEx<NEffectUpdateDecorator::CTextureAnimationCWDecorator>::Delete, COMDAT

; 224  : 			::operator delete(pkData);

  00000	e9 00 00 00 00	 jmp	 ??3@YAXPAX@Z		; operator delete
?Delete@?$CDynamicPoolEx@VCTextureAnimationCWDecorator@NEffectUpdateDecorator@@@@KAXPAVCTextureAnimationCWDecorator@NEffectUpdateDecorator@@@Z ENDP ; CDynamicPoolEx<NEffectUpdateDecorator::CTextureAnimationCWDecorator>::Delete
_TEXT	ENDS
; Function compile flags: /Ogtp
; File C:\Users\murat\Desktop\Siveps2-1-99-Project\source\client\Client\eterLib\Pool.h
; File C:\Program Files (x86)\Microsoft Visual Studio\2019\Professional\VC\Tools\MSVC\14.29.30133\include\vector
; File C:\Program Files (x86)\Microsoft Visual Studio\2019\Professional\VC\Tools\MSVC\14.29.30133\include\algorithm
; File C:\Users\murat\Desktop\Siveps2-1-99-Project\source\client\Client\eterLib\Pool.h
; File C:\Program Files (x86)\Microsoft Visual Studio\2019\Professional\VC\Tools\MSVC\14.29.30133\include\algorithm
; File C:\Users\murat\Desktop\Siveps2-1-99-Project\source\client\Client\eterLib\Pool.h
; File C:\Program Files (x86)\Microsoft Visual Studio\2019\Professional\VC\Tools\MSVC\14.29.30133\include\algorithm
; File C:\Users\murat\Desktop\Siveps2-1-99-Project\source\client\Client\eterLib\Pool.h
; File C:\Program Files (x86)\Microsoft Visual Studio\2019\Professional\VC\Tools\MSVC\14.29.30133\include\vector
; File C:\Program Files (x86)\Microsoft Visual Studio\2019\Professional\VC\Tools\MSVC\14.29.30133\include\xmemory
; File C:\Program Files (x86)\Microsoft Visual Studio\2019\Professional\VC\Tools\MSVC\14.29.30133\include\vector
; File C:\Program Files (x86)\Microsoft Visual Studio\2019\Professional\VC\Tools\MSVC\14.29.30133\include\xmemory
; File C:\Program Files (x86)\Microsoft Visual Studio\2019\Professional\VC\Tools\MSVC\14.29.30133\include\vector
; File C:\Program Files (x86)\Microsoft Visual Studio\2019\Professional\VC\Tools\MSVC\14.29.30133\include\xmemory
; File C:\Program Files (x86)\Microsoft Visual Studio\2019\Professional\VC\Tools\MSVC\14.29.30133\include\vector
; File C:\Program Files (x86)\Microsoft Visual Studio\2019\Professional\VC\Tools\MSVC\14.29.30133\include\xmemory
; File C:\Program Files (x86)\Microsoft Visual Studio\2019\Professional\VC\Tools\MSVC\14.29.30133\include\vector
; File C:\Users\murat\Desktop\Siveps2-1-99-Project\source\client\Client\eterLib\Pool.h
; File C:\Program Files (x86)\Microsoft Visual Studio\2019\Professional\VC\Tools\MSVC\14.29.30133\include\xmemory
; File C:\Users\murat\Desktop\Siveps2-1-99-Project\source\client\Client\eterLib\Pool.h
;	COMDAT ??1?$CDynamicPoolEx@VCTextureAnimationCWDecorator@NEffectUpdateDecorator@@@@UAE@XZ
_TEXT	SEGMENT
??1?$CDynamicPoolEx@VCTextureAnimationCWDecorator@NEffectUpdateDecorator@@@@UAE@XZ PROC ; CDynamicPoolEx<NEffectUpdateDecorator::CTextureAnimationCWDecorator>::~CDynamicPoolEx<NEffectUpdateDecorator::CTextureAnimationCWDecorator>, COMDAT
; _this$ = ecx

; 132  : 		{

  00000	53		 push	 ebx
  00001	56		 push	 esi
  00002	57		 push	 edi
  00003	8b f9		 mov	 edi, ecx
  00005	c7 07 00 00 00
	00		 mov	 DWORD PTR [edi], OFFSET ??_7?$CDynamicPoolEx@VCTextureAnimationCWDecorator@NEffectUpdateDecorator@@@@6B@
; File C:\Program Files (x86)\Microsoft Visual Studio\2019\Professional\VC\Tools\MSVC\14.29.30133\include\vector

; 42   :     _CONSTEXPR20_CONTAINER _Vector_const_iterator(_Tptr _Parg, const _Container_base* _Pvector) noexcept : _Ptr(_Parg) {

  0000b	8b 5f 08	 mov	 ebx, DWORD PTR [edi+8]
  0000e	8b 77 04	 mov	 esi, DWORD PTR [edi+4]
; File C:\Program Files (x86)\Microsoft Visual Studio\2019\Professional\VC\Tools\MSVC\14.29.30133\include\algorithm

; 270  :     for (; _UFirst != _ULast; ++_UFirst) {

  00011	3b f3		 cmp	 esi, ebx
  00013	74 14		 je	 SHORT $LN19@CDynamicPo
$LL20@CDynamicPo:
; File C:\Users\murat\Desktop\Siveps2-1-99-Project\source\client\Client\eterLib\Pool.h

; 224  : 			::operator delete(pkData);

  00015	ff 36		 push	 DWORD PTR [esi]
  00017	e8 00 00 00 00	 call	 ??3@YAXPAX@Z		; operator delete
; File C:\Program Files (x86)\Microsoft Visual Studio\2019\Professional\VC\Tools\MSVC\14.29.30133\include\algorithm

; 270  :     for (; _UFirst != _ULast; ++_UFirst) {

  0001c	83 c6 04	 add	 esi, 4
; File C:\Users\murat\Desktop\Siveps2-1-99-Project\source\client\Client\eterLib\Pool.h

; 224  : 			::operator delete(pkData);

  0001f	83 c4 04	 add	 esp, 4
; File C:\Program Files (x86)\Microsoft Visual Studio\2019\Professional\VC\Tools\MSVC\14.29.30133\include\algorithm

; 270  :     for (; _UFirst != _ULast; ++_UFirst) {

  00022	3b f3		 cmp	 esi, ebx
  00024	75 ef		 jne	 SHORT $LL20@CDynamicPo
  00026	8b 77 04	 mov	 esi, DWORD PTR [edi+4]
$LN19@CDynamicPo:
; File C:\Users\murat\Desktop\Siveps2-1-99-Project\source\client\Client\eterLib\Pool.h

; 162  : 			m_kVct_pkFree.clear();

  00029	8b 47 10	 mov	 eax, DWORD PTR [edi+16]
  0002c	89 77 08	 mov	 DWORD PTR [edi+8], esi
  0002f	89 47 14	 mov	 DWORD PTR [edi+20], eax
; File C:\Program Files (x86)\Microsoft Visual Studio\2019\Professional\VC\Tools\MSVC\14.29.30133\include\vector

; 1763 :         if (_Myfirst) { // destroy and deallocate old array

  00032	85 c0		 test	 eax, eax
  00034	74 41		 je	 SHORT $LN27@CDynamicPo

; 1764 :             _Destroy(_Myfirst, _Mylast);
; 1765 :             _Getal().deallocate(_Myfirst, static_cast<size_type>(_Myend - _Myfirst));

  00036	8b 4f 18	 mov	 ecx, DWORD PTR [edi+24]
  00039	2b c8		 sub	 ecx, eax
; File C:\Program Files (x86)\Microsoft Visual Studio\2019\Professional\VC\Tools\MSVC\14.29.30133\include\xmemory

; 835  :         _Deallocate<_New_alignof<_Ty>>(_Ptr, sizeof(_Ty) * _Count);

  0003b	83 e1 fc	 and	 ecx, -4			; fffffffcH

; 260  :         if (_Bytes >= _Big_allocation_threshold) { // boost the alignment of big allocations to help autovectorization

  0003e	81 f9 00 10 00
	00		 cmp	 ecx, 4096		; 00001000H
  00044	72 12		 jb	 SHORT $LN43@CDynamicPo

; 158  :     const uintptr_t _Ptr_container   = _Ptr_user[-1];

  00046	8b 50 fc	 mov	 edx, DWORD PTR [eax-4]
  00049	83 c1 23	 add	 ecx, 35			; 00000023H

; 159  : 
; 160  :     // If the following asserts, it likely means that we are performing
; 161  :     // an aligned delete on memory coming from an unaligned allocation.
; 162  :     _STL_ASSERT(_Ptr_user[-2] == _Big_allocation_sentinel, "invalid argument");
; 163  : 
; 164  :     // Extra paranoia on aligned allocation/deallocation; ensure _Ptr_container is
; 165  :     // in range [_Min_back_shift, _Non_user_size]
; 166  : #ifdef _DEBUG
; 167  :     constexpr uintptr_t _Min_back_shift = 2 * sizeof(void*);
; 168  : #else // ^^^ _DEBUG ^^^ // vvv !_DEBUG vvv
; 169  :     constexpr uintptr_t _Min_back_shift = sizeof(void*);
; 170  : #endif // _DEBUG
; 171  :     const uintptr_t _Back_shift = reinterpret_cast<uintptr_t>(_Ptr) - _Ptr_container;

  0004c	2b c2		 sub	 eax, edx

; 172  :     _STL_VERIFY(_Back_shift >= _Min_back_shift && _Back_shift <= _Non_user_size, "invalid argument");

  0004e	83 c0 fc	 add	 eax, -4			; fffffffcH
  00051	83 f8 1f	 cmp	 eax, 31			; 0000001fH
  00054	77 6d		 ja	 SHORT $LN65@CDynamicPo

; 173  :     _Ptr = reinterpret_cast<void*>(_Ptr_container);

  00056	8b c2		 mov	 eax, edx
$LN43@CDynamicPo:

; 264  :         ::operator delete(_Ptr, _Bytes);

  00058	51		 push	 ecx
  00059	50		 push	 eax
  0005a	e8 00 00 00 00	 call	 ??3@YAXPAXI@Z		; operator delete
; File C:\Program Files (x86)\Microsoft Visual Studio\2019\Professional\VC\Tools\MSVC\14.29.30133\include\vector

; 1767 :             _Myfirst = nullptr;

  0005f	c7 47 10 00 00
	00 00		 mov	 DWORD PTR [edi+16], 0
; File C:\Program Files (x86)\Microsoft Visual Studio\2019\Professional\VC\Tools\MSVC\14.29.30133\include\xmemory

; 264  :         ::operator delete(_Ptr, _Bytes);

  00066	83 c4 08	 add	 esp, 8
; File C:\Program Files (x86)\Microsoft Visual Studio\2019\Professional\VC\Tools\MSVC\14.29.30133\include\vector

; 1768 :             _Mylast  = nullptr;

  00069	c7 47 14 00 00
	00 00		 mov	 DWORD PTR [edi+20], 0

; 1769 :             _Myend   = nullptr;

  00070	c7 47 18 00 00
	00 00		 mov	 DWORD PTR [edi+24], 0
$LN27@CDynamicPo:

; 1763 :         if (_Myfirst) { // destroy and deallocate old array

  00077	8b 47 04	 mov	 eax, DWORD PTR [edi+4]
  0007a	85 c0		 test	 eax, eax
  0007c	74 41		 je	 SHORT $LN52@CDynamicPo

; 1764 :             _Destroy(_Myfirst, _Mylast);
; 1765 :             _Getal().deallocate(_Myfirst, static_cast<size_type>(_Myend - _Myfirst));

  0007e	8b 4f 0c	 mov	 ecx, DWORD PTR [edi+12]
  00081	2b c8		 sub	 ecx, eax
; File C:\Program Files (x86)\Microsoft Visual Studio\2019\Professional\VC\Tools\MSVC\14.29.30133\include\xmemory

; 835  :         _Deallocate<_New_alignof<_Ty>>(_Ptr, sizeof(_Ty) * _Count);

  00083	83 e1 fc	 and	 ecx, -4			; fffffffcH

; 260  :         if (_Bytes >= _Big_allocation_threshold) { // boost the alignment of big allocations to help autovectorization

  00086	81 f9 00 10 00
	00		 cmp	 ecx, 4096		; 00001000H
  0008c	72 12		 jb	 SHORT $LN68@CDynamicPo

; 158  :     const uintptr_t _Ptr_container   = _Ptr_user[-1];

  0008e	8b 50 fc	 mov	 edx, DWORD PTR [eax-4]
  00091	83 c1 23	 add	 ecx, 35			; 00000023H

; 159  : 
; 160  :     // If the following asserts, it likely means that we are performing
; 161  :     // an aligned delete on memory coming from an unaligned allocation.
; 162  :     _STL_ASSERT(_Ptr_user[-2] == _Big_allocation_sentinel, "invalid argument");
; 163  : 
; 164  :     // Extra paranoia on aligned allocation/deallocation; ensure _Ptr_container is
; 165  :     // in range [_Min_back_shift, _Non_user_size]
; 166  : #ifdef _DEBUG
; 167  :     constexpr uintptr_t _Min_back_shift = 2 * sizeof(void*);
; 168  : #else // ^^^ _DEBUG ^^^ // vvv !_DEBUG vvv
; 169  :     constexpr uintptr_t _Min_back_shift = sizeof(void*);
; 170  : #endif // _DEBUG
; 171  :     const uintptr_t _Back_shift = reinterpret_cast<uintptr_t>(_Ptr) - _Ptr_container;

  00094	2b c2		 sub	 eax, edx

; 172  :     _STL_VERIFY(_Back_shift >= _Min_back_shift && _Back_shift <= _Non_user_size, "invalid argument");

  00096	83 c0 fc	 add	 eax, -4			; fffffffcH
  00099	83 f8 1f	 cmp	 eax, 31			; 0000001fH
  0009c	77 25		 ja	 SHORT $LN65@CDynamicPo

; 173  :     _Ptr = reinterpret_cast<void*>(_Ptr_container);

  0009e	8b c2		 mov	 eax, edx
$LN68@CDynamicPo:

; 264  :         ::operator delete(_Ptr, _Bytes);

  000a0	51		 push	 ecx
  000a1	50		 push	 eax
  000a2	e8 00 00 00 00	 call	 ??3@YAXPAXI@Z		; operator delete
; File C:\Program Files (x86)\Microsoft Visual Studio\2019\Professional\VC\Tools\MSVC\14.29.30133\include\vector

; 1767 :             _Myfirst = nullptr;

  000a7	c7 47 04 00 00
	00 00		 mov	 DWORD PTR [edi+4], 0
; File C:\Program Files (x86)\Microsoft Visual Studio\2019\Professional\VC\Tools\MSVC\14.29.30133\include\xmemory

; 264  :         ::operator delete(_Ptr, _Bytes);

  000ae	83 c4 08	 add	 esp, 8
; File C:\Program Files (x86)\Microsoft Visual Studio\2019\Professional\VC\Tools\MSVC\14.29.30133\include\vector

; 1768 :             _Mylast  = nullptr;

  000b1	c7 47 08 00 00
	00 00		 mov	 DWORD PTR [edi+8], 0

; 1769 :             _Myend   = nullptr;

  000b8	c7 47 0c 00 00
	00 00		 mov	 DWORD PTR [edi+12], 0
$LN52@CDynamicPo:
  000bf	5f		 pop	 edi
; File C:\Users\murat\Desktop\Siveps2-1-99-Project\source\client\Client\eterLib\Pool.h

; 142  : 		}

  000c0	5e		 pop	 esi
  000c1	5b		 pop	 ebx
  000c2	c3		 ret	 0
$LN65@CDynamicPo:
; File C:\Program Files (x86)\Microsoft Visual Studio\2019\Professional\VC\Tools\MSVC\14.29.30133\include\xmemory

; 172  :     _STL_VERIFY(_Back_shift >= _Min_back_shift && _Back_shift <= _Non_user_size, "invalid argument");

  000c3	e8 00 00 00 00	 call	 __invalid_parameter_noinfo_noreturn
$LN77@CDynamicPo:
  000c8	cc		 int	 3
??1?$CDynamicPoolEx@VCTextureAnimationCWDecorator@NEffectUpdateDecorator@@@@UAE@XZ ENDP ; CDynamicPoolEx<NEffectUpdateDecorator::CTextureAnimationCWDecorator>::~CDynamicPoolEx<NEffectUpdateDecorator::CTextureAnimationCWDecorator>
_TEXT	ENDS
; Function compile flags: /Ogtp
;	COMDAT ??_G?$CDynamicPoolEx@VCTextureAnimationCCWDecorator@NEffectUpdateDecorator@@@@UAEPAXI@Z
_TEXT	SEGMENT
___flags$ = 8						; size = 4
??_G?$CDynamicPoolEx@VCTextureAnimationCCWDecorator@NEffectUpdateDecorator@@@@UAEPAXI@Z PROC ; CDynamicPoolEx<NEffectUpdateDecorator::CTextureAnimationCCWDecorator>::`scalar deleting destructor', COMDAT
; _this$ = ecx
  00000	55		 push	 ebp
  00001	8b ec		 mov	 ebp, esp
  00003	56		 push	 esi
  00004	8b f1		 mov	 esi, ecx
  00006	e8 00 00 00 00	 call	 ??1?$CDynamicPoolEx@VCTextureAnimationCCWDecorator@NEffectUpdateDecorator@@@@UAE@XZ ; CDynamicPoolEx<NEffectUpdateDecorator::CTextureAnimationCCWDecorator>::~CDynamicPoolEx<NEffectUpdateDecorator::CTextureAnimationCCWDecorator>
  0000b	f6 45 08 01	 test	 BYTE PTR ___flags$[ebp], 1
  0000f	74 0b		 je	 SHORT $LN4@scalar
  00011	6a 24		 push	 36			; 00000024H
  00013	56		 push	 esi
  00014	e8 00 00 00 00	 call	 ??3@YAXPAXI@Z		; operator delete
  00019	83 c4 08	 add	 esp, 8
$LN4@scalar:
  0001c	8b c6		 mov	 eax, esi
  0001e	5e		 pop	 esi
  0001f	5d		 pop	 ebp
  00020	c2 04 00	 ret	 4
??_G?$CDynamicPoolEx@VCTextureAnimationCCWDecorator@NEffectUpdateDecorator@@@@UAEPAXI@Z ENDP ; CDynamicPoolEx<NEffectUpdateDecorator::CTextureAnimationCCWDecorator>::`scalar deleting destructor'
_TEXT	ENDS
; Function compile flags: /Ogtp
; File C:\Users\murat\Desktop\Siveps2-1-99-Project\source\client\Client\eterLib\Pool.h
;	COMDAT ?Delete@?$CDynamicPoolEx@VCTextureAnimationCCWDecorator@NEffectUpdateDecorator@@@@KAXPAVCTextureAnimationCCWDecorator@NEffectUpdateDecorator@@@Z
_TEXT	SEGMENT
_pkData$ = 8						; size = 4
?Delete@?$CDynamicPoolEx@VCTextureAnimationCCWDecorator@NEffectUpdateDecorator@@@@KAXPAVCTextureAnimationCCWDecorator@NEffectUpdateDecorator@@@Z PROC ; CDynamicPoolEx<NEffectUpdateDecorator::CTextureAnimationCCWDecorator>::Delete, COMDAT

; 224  : 			::operator delete(pkData);

  00000	e9 00 00 00 00	 jmp	 ??3@YAXPAX@Z		; operator delete
?Delete@?$CDynamicPoolEx@VCTextureAnimationCCWDecorator@NEffectUpdateDecorator@@@@KAXPAVCTextureAnimationCCWDecorator@NEffectUpdateDecorator@@@Z ENDP ; CDynamicPoolEx<NEffectUpdateDecorator::CTextureAnimationCCWDecorator>::Delete
_TEXT	ENDS
; Function compile flags: /Ogtp
; File C:\Users\murat\Desktop\Siveps2-1-99-Project\source\client\Client\eterLib\Pool.h
; File C:\Program Files (x86)\Microsoft Visual Studio\2019\Professional\VC\Tools\MSVC\14.29.30133\include\vector
; File C:\Program Files (x86)\Microsoft Visual Studio\2019\Professional\VC\Tools\MSVC\14.29.30133\include\algorithm
; File C:\Users\murat\Desktop\Siveps2-1-99-Project\source\client\Client\eterLib\Pool.h
; File C:\Program Files (x86)\Microsoft Visual Studio\2019\Professional\VC\Tools\MSVC\14.29.30133\include\algorithm
; File C:\Users\murat\Desktop\Siveps2-1-99-Project\source\client\Client\eterLib\Pool.h
; File C:\Program Files (x86)\Microsoft Visual Studio\2019\Professional\VC\Tools\MSVC\14.29.30133\include\algorithm
; File C:\Users\murat\Desktop\Siveps2-1-99-Project\source\client\Client\eterLib\Pool.h
; File C:\Program Files (x86)\Microsoft Visual Studio\2019\Professional\VC\Tools\MSVC\14.29.30133\include\vector
; File C:\Program Files (x86)\Microsoft Visual Studio\2019\Professional\VC\Tools\MSVC\14.29.30133\include\xmemory
; File C:\Program Files (x86)\Microsoft Visual Studio\2019\Professional\VC\Tools\MSVC\14.29.30133\include\vector
; File C:\Program Files (x86)\Microsoft Visual Studio\2019\Professional\VC\Tools\MSVC\14.29.30133\include\xmemory
; File C:\Program Files (x86)\Microsoft Visual Studio\2019\Professional\VC\Tools\MSVC\14.29.30133\include\vector
; File C:\Program Files (x86)\Microsoft Visual Studio\2019\Professional\VC\Tools\MSVC\14.29.30133\include\xmemory
; File C:\Program Files (x86)\Microsoft Visual Studio\2019\Professional\VC\Tools\MSVC\14.29.30133\include\vector
; File C:\Program Files (x86)\Microsoft Visual Studio\2019\Professional\VC\Tools\MSVC\14.29.30133\include\xmemory
; File C:\Program Files (x86)\Microsoft Visual Studio\2019\Professional\VC\Tools\MSVC\14.29.30133\include\vector
; File C:\Users\murat\Desktop\Siveps2-1-99-Project\source\client\Client\eterLib\Pool.h
; File C:\Program Files (x86)\Microsoft Visual Studio\2019\Professional\VC\Tools\MSVC\14.29.30133\include\xmemory
; File C:\Users\murat\Desktop\Siveps2-1-99-Project\source\client\Client\eterLib\Pool.h
;	COMDAT ??1?$CDynamicPoolEx@VCTextureAnimationCCWDecorator@NEffectUpdateDecorator@@@@UAE@XZ
_TEXT	SEGMENT
??1?$CDynamicPoolEx@VCTextureAnimationCCWDecorator@NEffectUpdateDecorator@@@@UAE@XZ PROC ; CDynamicPoolEx<NEffectUpdateDecorator::CTextureAnimationCCWDecorator>::~CDynamicPoolEx<NEffectUpdateDecorator::CTextureAnimationCCWDecorator>, COMDAT
; _this$ = ecx

; 132  : 		{

  00000	53		 push	 ebx
  00001	56		 push	 esi
  00002	57		 push	 edi
  00003	8b f9		 mov	 edi, ecx
  00005	c7 07 00 00 00
	00		 mov	 DWORD PTR [edi], OFFSET ??_7?$CDynamicPoolEx@VCTextureAnimationCCWDecorator@NEffectUpdateDecorator@@@@6B@
; File C:\Program Files (x86)\Microsoft Visual Studio\2019\Professional\VC\Tools\MSVC\14.29.30133\include\vector

; 42   :     _CONSTEXPR20_CONTAINER _Vector_const_iterator(_Tptr _Parg, const _Container_base* _Pvector) noexcept : _Ptr(_Parg) {

  0000b	8b 5f 08	 mov	 ebx, DWORD PTR [edi+8]
  0000e	8b 77 04	 mov	 esi, DWORD PTR [edi+4]
; File C:\Program Files (x86)\Microsoft Visual Studio\2019\Professional\VC\Tools\MSVC\14.29.30133\include\algorithm

; 270  :     for (; _UFirst != _ULast; ++_UFirst) {

  00011	3b f3		 cmp	 esi, ebx
  00013	74 14		 je	 SHORT $LN19@CDynamicPo
$LL20@CDynamicPo:
; File C:\Users\murat\Desktop\Siveps2-1-99-Project\source\client\Client\eterLib\Pool.h

; 224  : 			::operator delete(pkData);

  00015	ff 36		 push	 DWORD PTR [esi]
  00017	e8 00 00 00 00	 call	 ??3@YAXPAX@Z		; operator delete
; File C:\Program Files (x86)\Microsoft Visual Studio\2019\Professional\VC\Tools\MSVC\14.29.30133\include\algorithm

; 270  :     for (; _UFirst != _ULast; ++_UFirst) {

  0001c	83 c6 04	 add	 esi, 4
; File C:\Users\murat\Desktop\Siveps2-1-99-Project\source\client\Client\eterLib\Pool.h

; 224  : 			::operator delete(pkData);

  0001f	83 c4 04	 add	 esp, 4
; File C:\Program Files (x86)\Microsoft Visual Studio\2019\Professional\VC\Tools\MSVC\14.29.30133\include\algorithm

; 270  :     for (; _UFirst != _ULast; ++_UFirst) {

  00022	3b f3		 cmp	 esi, ebx
  00024	75 ef		 jne	 SHORT $LL20@CDynamicPo
  00026	8b 77 04	 mov	 esi, DWORD PTR [edi+4]
$LN19@CDynamicPo:
; File C:\Users\murat\Desktop\Siveps2-1-99-Project\source\client\Client\eterLib\Pool.h

; 162  : 			m_kVct_pkFree.clear();

  00029	8b 47 10	 mov	 eax, DWORD PTR [edi+16]
  0002c	89 77 08	 mov	 DWORD PTR [edi+8], esi
  0002f	89 47 14	 mov	 DWORD PTR [edi+20], eax
; File C:\Program Files (x86)\Microsoft Visual Studio\2019\Professional\VC\Tools\MSVC\14.29.30133\include\vector

; 1763 :         if (_Myfirst) { // destroy and deallocate old array

  00032	85 c0		 test	 eax, eax
  00034	74 41		 je	 SHORT $LN27@CDynamicPo

; 1764 :             _Destroy(_Myfirst, _Mylast);
; 1765 :             _Getal().deallocate(_Myfirst, static_cast<size_type>(_Myend - _Myfirst));

  00036	8b 4f 18	 mov	 ecx, DWORD PTR [edi+24]
  00039	2b c8		 sub	 ecx, eax
; File C:\Program Files (x86)\Microsoft Visual Studio\2019\Professional\VC\Tools\MSVC\14.29.30133\include\xmemory

; 835  :         _Deallocate<_New_alignof<_Ty>>(_Ptr, sizeof(_Ty) * _Count);

  0003b	83 e1 fc	 and	 ecx, -4			; fffffffcH

; 260  :         if (_Bytes >= _Big_allocation_threshold) { // boost the alignment of big allocations to help autovectorization

  0003e	81 f9 00 10 00
	00		 cmp	 ecx, 4096		; 00001000H
  00044	72 12		 jb	 SHORT $LN43@CDynamicPo

; 158  :     const uintptr_t _Ptr_container   = _Ptr_user[-1];

  00046	8b 50 fc	 mov	 edx, DWORD PTR [eax-4]
  00049	83 c1 23	 add	 ecx, 35			; 00000023H

; 159  : 
; 160  :     // If the following asserts, it likely means that we are performing
; 161  :     // an aligned delete on memory coming from an unaligned allocation.
; 162  :     _STL_ASSERT(_Ptr_user[-2] == _Big_allocation_sentinel, "invalid argument");
; 163  : 
; 164  :     // Extra paranoia on aligned allocation/deallocation; ensure _Ptr_container is
; 165  :     // in range [_Min_back_shift, _Non_user_size]
; 166  : #ifdef _DEBUG
; 167  :     constexpr uintptr_t _Min_back_shift = 2 * sizeof(void*);
; 168  : #else // ^^^ _DEBUG ^^^ // vvv !_DEBUG vvv
; 169  :     constexpr uintptr_t _Min_back_shift = sizeof(void*);
; 170  : #endif // _DEBUG
; 171  :     const uintptr_t _Back_shift = reinterpret_cast<uintptr_t>(_Ptr) - _Ptr_container;

  0004c	2b c2		 sub	 eax, edx

; 172  :     _STL_VERIFY(_Back_shift >= _Min_back_shift && _Back_shift <= _Non_user_size, "invalid argument");

  0004e	83 c0 fc	 add	 eax, -4			; fffffffcH
  00051	83 f8 1f	 cmp	 eax, 31			; 0000001fH
  00054	77 6d		 ja	 SHORT $LN65@CDynamicPo

; 173  :     _Ptr = reinterpret_cast<void*>(_Ptr_container);

  00056	8b c2		 mov	 eax, edx
$LN43@CDynamicPo:

; 264  :         ::operator delete(_Ptr, _Bytes);

  00058	51		 push	 ecx
  00059	50		 push	 eax
  0005a	e8 00 00 00 00	 call	 ??3@YAXPAXI@Z		; operator delete
; File C:\Program Files (x86)\Microsoft Visual Studio\2019\Professional\VC\Tools\MSVC\14.29.30133\include\vector

; 1767 :             _Myfirst = nullptr;

  0005f	c7 47 10 00 00
	00 00		 mov	 DWORD PTR [edi+16], 0
; File C:\Program Files (x86)\Microsoft Visual Studio\2019\Professional\VC\Tools\MSVC\14.29.30133\include\xmemory

; 264  :         ::operator delete(_Ptr, _Bytes);

  00066	83 c4 08	 add	 esp, 8
; File C:\Program Files (x86)\Microsoft Visual Studio\2019\Professional\VC\Tools\MSVC\14.29.30133\include\vector

; 1768 :             _Mylast  = nullptr;

  00069	c7 47 14 00 00
	00 00		 mov	 DWORD PTR [edi+20], 0

; 1769 :             _Myend   = nullptr;

  00070	c7 47 18 00 00
	00 00		 mov	 DWORD PTR [edi+24], 0
$LN27@CDynamicPo:

; 1763 :         if (_Myfirst) { // destroy and deallocate old array

  00077	8b 47 04	 mov	 eax, DWORD PTR [edi+4]
  0007a	85 c0		 test	 eax, eax
  0007c	74 41		 je	 SHORT $LN52@CDynamicPo

; 1764 :             _Destroy(_Myfirst, _Mylast);
; 1765 :             _Getal().deallocate(_Myfirst, static_cast<size_type>(_Myend - _Myfirst));

  0007e	8b 4f 0c	 mov	 ecx, DWORD PTR [edi+12]
  00081	2b c8		 sub	 ecx, eax
; File C:\Program Files (x86)\Microsoft Visual Studio\2019\Professional\VC\Tools\MSVC\14.29.30133\include\xmemory

; 835  :         _Deallocate<_New_alignof<_Ty>>(_Ptr, sizeof(_Ty) * _Count);

  00083	83 e1 fc	 and	 ecx, -4			; fffffffcH

; 260  :         if (_Bytes >= _Big_allocation_threshold) { // boost the alignment of big allocations to help autovectorization

  00086	81 f9 00 10 00
	00		 cmp	 ecx, 4096		; 00001000H
  0008c	72 12		 jb	 SHORT $LN68@CDynamicPo

; 158  :     const uintptr_t _Ptr_container   = _Ptr_user[-1];

  0008e	8b 50 fc	 mov	 edx, DWORD PTR [eax-4]
  00091	83 c1 23	 add	 ecx, 35			; 00000023H

; 159  : 
; 160  :     // If the following asserts, it likely means that we are performing
; 161  :     // an aligned delete on memory coming from an unaligned allocation.
; 162  :     _STL_ASSERT(_Ptr_user[-2] == _Big_allocation_sentinel, "invalid argument");
; 163  : 
; 164  :     // Extra paranoia on aligned allocation/deallocation; ensure _Ptr_container is
; 165  :     // in range [_Min_back_shift, _Non_user_size]
; 166  : #ifdef _DEBUG
; 167  :     constexpr uintptr_t _Min_back_shift = 2 * sizeof(void*);
; 168  : #else // ^^^ _DEBUG ^^^ // vvv !_DEBUG vvv
; 169  :     constexpr uintptr_t _Min_back_shift = sizeof(void*);
; 170  : #endif // _DEBUG
; 171  :     const uintptr_t _Back_shift = reinterpret_cast<uintptr_t>(_Ptr) - _Ptr_container;

  00094	2b c2		 sub	 eax, edx

; 172  :     _STL_VERIFY(_Back_shift >= _Min_back_shift && _Back_shift <= _Non_user_size, "invalid argument");

  00096	83 c0 fc	 add	 eax, -4			; fffffffcH
  00099	83 f8 1f	 cmp	 eax, 31			; 0000001fH
  0009c	77 25		 ja	 SHORT $LN65@CDynamicPo

; 173  :     _Ptr = reinterpret_cast<void*>(_Ptr_container);

  0009e	8b c2		 mov	 eax, edx
$LN68@CDynamicPo:

; 264  :         ::operator delete(_Ptr, _Bytes);

  000a0	51		 push	 ecx
  000a1	50		 push	 eax
  000a2	e8 00 00 00 00	 call	 ??3@YAXPAXI@Z		; operator delete
; File C:\Program Files (x86)\Microsoft Visual Studio\2019\Professional\VC\Tools\MSVC\14.29.30133\include\vector

; 1767 :             _Myfirst = nullptr;

  000a7	c7 47 04 00 00
	00 00		 mov	 DWORD PTR [edi+4], 0
; File C:\Program Files (x86)\Microsoft Visual Studio\2019\Professional\VC\Tools\MSVC\14.29.30133\include\xmemory

; 264  :         ::operator delete(_Ptr, _Bytes);

  000ae	83 c4 08	 add	 esp, 8
; File C:\Program Files (x86)\Microsoft Visual Studio\2019\Professional\VC\Tools\MSVC\14.29.30133\include\vector

; 1768 :             _Mylast  = nullptr;

  000b1	c7 47 08 00 00
	00 00		 mov	 DWORD PTR [edi+8], 0

; 1769 :             _Myend   = nullptr;

  000b8	c7 47 0c 00 00
	00 00		 mov	 DWORD PTR [edi+12], 0
$LN52@CDynamicPo:
  000bf	5f		 pop	 edi
; File C:\Users\murat\Desktop\Siveps2-1-99-Project\source\client\Client\eterLib\Pool.h

; 142  : 		}

  000c0	5e		 pop	 esi
  000c1	5b		 pop	 ebx
  000c2	c3		 ret	 0
$LN65@CDynamicPo:
; File C:\Program Files (x86)\Microsoft Visual Studio\2019\Professional\VC\Tools\MSVC\14.29.30133\include\xmemory

; 172  :     _STL_VERIFY(_Back_shift >= _Min_back_shift && _Back_shift <= _Non_user_size, "invalid argument");

  000c3	e8 00 00 00 00	 call	 __invalid_parameter_noinfo_noreturn
$LN77@CDynamicPo:
  000c8	cc		 int	 3
??1?$CDynamicPoolEx@VCTextureAnimationCCWDecorator@NEffectUpdateDecorator@@@@UAE@XZ ENDP ; CDynamicPoolEx<NEffectUpdateDecorator::CTextureAnimationCCWDecorator>::~CDynamicPoolEx<NEffectUpdateDecorator::CTextureAnimationCCWDecorator>
_TEXT	ENDS
; Function compile flags: /Ogtp
;	COMDAT ??_G?$CDynamicPoolEx@VCTextureAnimationRandomDecorator@NEffectUpdateDecorator@@@@UAEPAXI@Z
_TEXT	SEGMENT
___flags$ = 8						; size = 4
??_G?$CDynamicPoolEx@VCTextureAnimationRandomDecorator@NEffectUpdateDecorator@@@@UAEPAXI@Z PROC ; CDynamicPoolEx<NEffectUpdateDecorator::CTextureAnimationRandomDecorator>::`scalar deleting destructor', COMDAT
; _this$ = ecx
  00000	55		 push	 ebp
  00001	8b ec		 mov	 ebp, esp
  00003	56		 push	 esi
  00004	8b f1		 mov	 esi, ecx
  00006	e8 00 00 00 00	 call	 ??1?$CDynamicPoolEx@VCTextureAnimationRandomDecorator@NEffectUpdateDecorator@@@@UAE@XZ ; CDynamicPoolEx<NEffectUpdateDecorator::CTextureAnimationRandomDecorator>::~CDynamicPoolEx<NEffectUpdateDecorator::CTextureAnimationRandomDecorator>
  0000b	f6 45 08 01	 test	 BYTE PTR ___flags$[ebp], 1
  0000f	74 0b		 je	 SHORT $LN4@scalar
  00011	6a 24		 push	 36			; 00000024H
  00013	56		 push	 esi
  00014	e8 00 00 00 00	 call	 ??3@YAXPAXI@Z		; operator delete
  00019	83 c4 08	 add	 esp, 8
$LN4@scalar:
  0001c	8b c6		 mov	 eax, esi
  0001e	5e		 pop	 esi
  0001f	5d		 pop	 ebp
  00020	c2 04 00	 ret	 4
??_G?$CDynamicPoolEx@VCTextureAnimationRandomDecorator@NEffectUpdateDecorator@@@@UAEPAXI@Z ENDP ; CDynamicPoolEx<NEffectUpdateDecorator::CTextureAnimationRandomDecorator>::`scalar deleting destructor'
_TEXT	ENDS
; Function compile flags: /Ogtp
; File C:\Users\murat\Desktop\Siveps2-1-99-Project\source\client\Client\eterLib\Pool.h
;	COMDAT ?Delete@?$CDynamicPoolEx@VCTextureAnimationRandomDecorator@NEffectUpdateDecorator@@@@KAXPAVCTextureAnimationRandomDecorator@NEffectUpdateDecorator@@@Z
_TEXT	SEGMENT
_pkData$ = 8						; size = 4
?Delete@?$CDynamicPoolEx@VCTextureAnimationRandomDecorator@NEffectUpdateDecorator@@@@KAXPAVCTextureAnimationRandomDecorator@NEffectUpdateDecorator@@@Z PROC ; CDynamicPoolEx<NEffectUpdateDecorator::CTextureAnimationRandomDecorator>::Delete, COMDAT

; 224  : 			::operator delete(pkData);

  00000	e9 00 00 00 00	 jmp	 ??3@YAXPAX@Z		; operator delete
?Delete@?$CDynamicPoolEx@VCTextureAnimationRandomDecorator@NEffectUpdateDecorator@@@@KAXPAVCTextureAnimationRandomDecorator@NEffectUpdateDecorator@@@Z ENDP ; CDynamicPoolEx<NEffectUpdateDecorator::CTextureAnimationRandomDecorator>::Delete
_TEXT	ENDS
; Function compile flags: /Ogtp
; File C:\Users\murat\Desktop\Siveps2-1-99-Project\source\client\Client\eterLib\Pool.h
; File C:\Program Files (x86)\Microsoft Visual Studio\2019\Professional\VC\Tools\MSVC\14.29.30133\include\vector
; File C:\Program Files (x86)\Microsoft Visual Studio\2019\Professional\VC\Tools\MSVC\14.29.30133\include\algorithm
; File C:\Users\murat\Desktop\Siveps2-1-99-Project\source\client\Client\eterLib\Pool.h
; File C:\Program Files (x86)\Microsoft Visual Studio\2019\Professional\VC\Tools\MSVC\14.29.30133\include\algorithm
; File C:\Users\murat\Desktop\Siveps2-1-99-Project\source\client\Client\eterLib\Pool.h
; File C:\Program Files (x86)\Microsoft Visual Studio\2019\Professional\VC\Tools\MSVC\14.29.30133\include\algorithm
; File C:\Users\murat\Desktop\Siveps2-1-99-Project\source\client\Client\eterLib\Pool.h
; File C:\Program Files (x86)\Microsoft Visual Studio\2019\Professional\VC\Tools\MSVC\14.29.30133\include\vector
; File C:\Program Files (x86)\Microsoft Visual Studio\2019\Professional\VC\Tools\MSVC\14.29.30133\include\xmemory
; File C:\Program Files (x86)\Microsoft Visual Studio\2019\Professional\VC\Tools\MSVC\14.29.30133\include\vector
; File C:\Program Files (x86)\Microsoft Visual Studio\2019\Professional\VC\Tools\MSVC\14.29.30133\include\xmemory
; File C:\Program Files (x86)\Microsoft Visual Studio\2019\Professional\VC\Tools\MSVC\14.29.30133\include\vector
; File C:\Program Files (x86)\Microsoft Visual Studio\2019\Professional\VC\Tools\MSVC\14.29.30133\include\xmemory
; File C:\Program Files (x86)\Microsoft Visual Studio\2019\Professional\VC\Tools\MSVC\14.29.30133\include\vector
; File C:\Program Files (x86)\Microsoft Visual Studio\2019\Professional\VC\Tools\MSVC\14.29.30133\include\xmemory
; File C:\Program Files (x86)\Microsoft Visual Studio\2019\Professional\VC\Tools\MSVC\14.29.30133\include\vector
; File C:\Users\murat\Desktop\Siveps2-1-99-Project\source\client\Client\eterLib\Pool.h
; File C:\Program Files (x86)\Microsoft Visual Studio\2019\Professional\VC\Tools\MSVC\14.29.30133\include\xmemory
; File C:\Users\murat\Desktop\Siveps2-1-99-Project\source\client\Client\eterLib\Pool.h
;	COMDAT ??1?$CDynamicPoolEx@VCTextureAnimationRandomDecorator@NEffectUpdateDecorator@@@@UAE@XZ
_TEXT	SEGMENT
??1?$CDynamicPoolEx@VCTextureAnimationRandomDecorator@NEffectUpdateDecorator@@@@UAE@XZ PROC ; CDynamicPoolEx<NEffectUpdateDecorator::CTextureAnimationRandomDecorator>::~CDynamicPoolEx<NEffectUpdateDecorator::CTextureAnimationRandomDecorator>, COMDAT
; _this$ = ecx

; 132  : 		{

  00000	53		 push	 ebx
  00001	56		 push	 esi
  00002	57		 push	 edi
  00003	8b f9		 mov	 edi, ecx
  00005	c7 07 00 00 00
	00		 mov	 DWORD PTR [edi], OFFSET ??_7?$CDynamicPoolEx@VCTextureAnimationRandomDecorator@NEffectUpdateDecorator@@@@6B@
; File C:\Program Files (x86)\Microsoft Visual Studio\2019\Professional\VC\Tools\MSVC\14.29.30133\include\vector

; 42   :     _CONSTEXPR20_CONTAINER _Vector_const_iterator(_Tptr _Parg, const _Container_base* _Pvector) noexcept : _Ptr(_Parg) {

  0000b	8b 5f 08	 mov	 ebx, DWORD PTR [edi+8]
  0000e	8b 77 04	 mov	 esi, DWORD PTR [edi+4]
; File C:\Program Files (x86)\Microsoft Visual Studio\2019\Professional\VC\Tools\MSVC\14.29.30133\include\algorithm

; 270  :     for (; _UFirst != _ULast; ++_UFirst) {

  00011	3b f3		 cmp	 esi, ebx
  00013	74 14		 je	 SHORT $LN19@CDynamicPo
$LL20@CDynamicPo:
; File C:\Users\murat\Desktop\Siveps2-1-99-Project\source\client\Client\eterLib\Pool.h

; 224  : 			::operator delete(pkData);

  00015	ff 36		 push	 DWORD PTR [esi]
  00017	e8 00 00 00 00	 call	 ??3@YAXPAX@Z		; operator delete
; File C:\Program Files (x86)\Microsoft Visual Studio\2019\Professional\VC\Tools\MSVC\14.29.30133\include\algorithm

; 270  :     for (; _UFirst != _ULast; ++_UFirst) {

  0001c	83 c6 04	 add	 esi, 4
; File C:\Users\murat\Desktop\Siveps2-1-99-Project\source\client\Client\eterLib\Pool.h

; 224  : 			::operator delete(pkData);

  0001f	83 c4 04	 add	 esp, 4
; File C:\Program Files (x86)\Microsoft Visual Studio\2019\Professional\VC\Tools\MSVC\14.29.30133\include\algorithm

; 270  :     for (; _UFirst != _ULast; ++_UFirst) {

  00022	3b f3		 cmp	 esi, ebx
  00024	75 ef		 jne	 SHORT $LL20@CDynamicPo
  00026	8b 77 04	 mov	 esi, DWORD PTR [edi+4]
$LN19@CDynamicPo:
; File C:\Users\murat\Desktop\Siveps2-1-99-Project\source\client\Client\eterLib\Pool.h

; 162  : 			m_kVct_pkFree.clear();

  00029	8b 47 10	 mov	 eax, DWORD PTR [edi+16]
  0002c	89 77 08	 mov	 DWORD PTR [edi+8], esi
  0002f	89 47 14	 mov	 DWORD PTR [edi+20], eax
; File C:\Program Files (x86)\Microsoft Visual Studio\2019\Professional\VC\Tools\MSVC\14.29.30133\include\vector

; 1763 :         if (_Myfirst) { // destroy and deallocate old array

  00032	85 c0		 test	 eax, eax
  00034	74 41		 je	 SHORT $LN27@CDynamicPo

; 1764 :             _Destroy(_Myfirst, _Mylast);
; 1765 :             _Getal().deallocate(_Myfirst, static_cast<size_type>(_Myend - _Myfirst));

  00036	8b 4f 18	 mov	 ecx, DWORD PTR [edi+24]
  00039	2b c8		 sub	 ecx, eax
; File C:\Program Files (x86)\Microsoft Visual Studio\2019\Professional\VC\Tools\MSVC\14.29.30133\include\xmemory

; 835  :         _Deallocate<_New_alignof<_Ty>>(_Ptr, sizeof(_Ty) * _Count);

  0003b	83 e1 fc	 and	 ecx, -4			; fffffffcH

; 260  :         if (_Bytes >= _Big_allocation_threshold) { // boost the alignment of big allocations to help autovectorization

  0003e	81 f9 00 10 00
	00		 cmp	 ecx, 4096		; 00001000H
  00044	72 12		 jb	 SHORT $LN43@CDynamicPo

; 158  :     const uintptr_t _Ptr_container   = _Ptr_user[-1];

  00046	8b 50 fc	 mov	 edx, DWORD PTR [eax-4]
  00049	83 c1 23	 add	 ecx, 35			; 00000023H

; 159  : 
; 160  :     // If the following asserts, it likely means that we are performing
; 161  :     // an aligned delete on memory coming from an unaligned allocation.
; 162  :     _STL_ASSERT(_Ptr_user[-2] == _Big_allocation_sentinel, "invalid argument");
; 163  : 
; 164  :     // Extra paranoia on aligned allocation/deallocation; ensure _Ptr_container is
; 165  :     // in range [_Min_back_shift, _Non_user_size]
; 166  : #ifdef _DEBUG
; 167  :     constexpr uintptr_t _Min_back_shift = 2 * sizeof(void*);
; 168  : #else // ^^^ _DEBUG ^^^ // vvv !_DEBUG vvv
; 169  :     constexpr uintptr_t _Min_back_shift = sizeof(void*);
; 170  : #endif // _DEBUG
; 171  :     const uintptr_t _Back_shift = reinterpret_cast<uintptr_t>(_Ptr) - _Ptr_container;

  0004c	2b c2		 sub	 eax, edx

; 172  :     _STL_VERIFY(_Back_shift >= _Min_back_shift && _Back_shift <= _Non_user_size, "invalid argument");

  0004e	83 c0 fc	 add	 eax, -4			; fffffffcH
  00051	83 f8 1f	 cmp	 eax, 31			; 0000001fH
  00054	77 6d		 ja	 SHORT $LN65@CDynamicPo

; 173  :     _Ptr = reinterpret_cast<void*>(_Ptr_container);

  00056	8b c2		 mov	 eax, edx
$LN43@CDynamicPo:

; 264  :         ::operator delete(_Ptr, _Bytes);

  00058	51		 push	 ecx
  00059	50		 push	 eax
  0005a	e8 00 00 00 00	 call	 ??3@YAXPAXI@Z		; operator delete
; File C:\Program Files (x86)\Microsoft Visual Studio\2019\Professional\VC\Tools\MSVC\14.29.30133\include\vector

; 1767 :             _Myfirst = nullptr;

  0005f	c7 47 10 00 00
	00 00		 mov	 DWORD PTR [edi+16], 0
; File C:\Program Files (x86)\Microsoft Visual Studio\2019\Professional\VC\Tools\MSVC\14.29.30133\include\xmemory

; 264  :         ::operator delete(_Ptr, _Bytes);

  00066	83 c4 08	 add	 esp, 8
; File C:\Program Files (x86)\Microsoft Visual Studio\2019\Professional\VC\Tools\MSVC\14.29.30133\include\vector

; 1768 :             _Mylast  = nullptr;

  00069	c7 47 14 00 00
	00 00		 mov	 DWORD PTR [edi+20], 0

; 1769 :             _Myend   = nullptr;

  00070	c7 47 18 00 00
	00 00		 mov	 DWORD PTR [edi+24], 0
$LN27@CDynamicPo:

; 1763 :         if (_Myfirst) { // destroy and deallocate old array

  00077	8b 47 04	 mov	 eax, DWORD PTR [edi+4]
  0007a	85 c0		 test	 eax, eax
  0007c	74 41		 je	 SHORT $LN52@CDynamicPo

; 1764 :             _Destroy(_Myfirst, _Mylast);
; 1765 :             _Getal().deallocate(_Myfirst, static_cast<size_type>(_Myend - _Myfirst));

  0007e	8b 4f 0c	 mov	 ecx, DWORD PTR [edi+12]
  00081	2b c8		 sub	 ecx, eax
; File C:\Program Files (x86)\Microsoft Visual Studio\2019\Professional\VC\Tools\MSVC\14.29.30133\include\xmemory

; 835  :         _Deallocate<_New_alignof<_Ty>>(_Ptr, sizeof(_Ty) * _Count);

  00083	83 e1 fc	 and	 ecx, -4			; fffffffcH

; 260  :         if (_Bytes >= _Big_allocation_threshold) { // boost the alignment of big allocations to help autovectorization

  00086	81 f9 00 10 00
	00		 cmp	 ecx, 4096		; 00001000H
  0008c	72 12		 jb	 SHORT $LN68@CDynamicPo

; 158  :     const uintptr_t _Ptr_container   = _Ptr_user[-1];

  0008e	8b 50 fc	 mov	 edx, DWORD PTR [eax-4]
  00091	83 c1 23	 add	 ecx, 35			; 00000023H

; 159  : 
; 160  :     // If the following asserts, it likely means that we are performing
; 161  :     // an aligned delete on memory coming from an unaligned allocation.
; 162  :     _STL_ASSERT(_Ptr_user[-2] == _Big_allocation_sentinel, "invalid argument");
; 163  : 
; 164  :     // Extra paranoia on aligned allocation/deallocation; ensure _Ptr_container is
; 165  :     // in range [_Min_back_shift, _Non_user_size]
; 166  : #ifdef _DEBUG
; 167  :     constexpr uintptr_t _Min_back_shift = 2 * sizeof(void*);
; 168  : #else // ^^^ _DEBUG ^^^ // vvv !_DEBUG vvv
; 169  :     constexpr uintptr_t _Min_back_shift = sizeof(void*);
; 170  : #endif // _DEBUG
; 171  :     const uintptr_t _Back_shift = reinterpret_cast<uintptr_t>(_Ptr) - _Ptr_container;

  00094	2b c2		 sub	 eax, edx

; 172  :     _STL_VERIFY(_Back_shift >= _Min_back_shift && _Back_shift <= _Non_user_size, "invalid argument");

  00096	83 c0 fc	 add	 eax, -4			; fffffffcH
  00099	83 f8 1f	 cmp	 eax, 31			; 0000001fH
  0009c	77 25		 ja	 SHORT $LN65@CDynamicPo

; 173  :     _Ptr = reinterpret_cast<void*>(_Ptr_container);

  0009e	8b c2		 mov	 eax, edx
$LN68@CDynamicPo:

; 264  :         ::operator delete(_Ptr, _Bytes);

  000a0	51		 push	 ecx
  000a1	50		 push	 eax
  000a2	e8 00 00 00 00	 call	 ??3@YAXPAXI@Z		; operator delete
; File C:\Program Files (x86)\Microsoft Visual Studio\2019\Professional\VC\Tools\MSVC\14.29.30133\include\vector

; 1767 :             _Myfirst = nullptr;

  000a7	c7 47 04 00 00
	00 00		 mov	 DWORD PTR [edi+4], 0
; File C:\Program Files (x86)\Microsoft Visual Studio\2019\Professional\VC\Tools\MSVC\14.29.30133\include\xmemory

; 264  :         ::operator delete(_Ptr, _Bytes);

  000ae	83 c4 08	 add	 esp, 8
; File C:\Program Files (x86)\Microsoft Visual Studio\2019\Professional\VC\Tools\MSVC\14.29.30133\include\vector

; 1768 :             _Mylast  = nullptr;

  000b1	c7 47 08 00 00
	00 00		 mov	 DWORD PTR [edi+8], 0

; 1769 :             _Myend   = nullptr;

  000b8	c7 47 0c 00 00
	00 00		 mov	 DWORD PTR [edi+12], 0
$LN52@CDynamicPo:
  000bf	5f		 pop	 edi
; File C:\Users\murat\Desktop\Siveps2-1-99-Project\source\client\Client\eterLib\Pool.h

; 142  : 		}

  000c0	5e		 pop	 esi
  000c1	5b		 pop	 ebx
  000c2	c3		 ret	 0
$LN65@CDynamicPo:
; File C:\Program Files (x86)\Microsoft Visual Studio\2019\Professional\VC\Tools\MSVC\14.29.30133\include\xmemory

; 172  :     _STL_VERIFY(_Back_shift >= _Min_back_shift && _Back_shift <= _Non_user_size, "invalid argument");

  000c3	e8 00 00 00 00	 call	 __invalid_parameter_noinfo_noreturn
$LN77@CDynamicPo:
  000c8	cc		 int	 3
??1?$CDynamicPoolEx@VCTextureAnimationRandomDecorator@NEffectUpdateDecorator@@@@UAE@XZ ENDP ; CDynamicPoolEx<NEffectUpdateDecorator::CTextureAnimationRandomDecorator>::~CDynamicPoolEx<NEffectUpdateDecorator::CTextureAnimationRandomDecorator>
_TEXT	ENDS
; Function compile flags: /Ogtp
;	COMDAT ??_G?$CDynamicPoolEx@VCAirResistanceDecorator@NEffectUpdateDecorator@@@@UAEPAXI@Z
_TEXT	SEGMENT
___flags$ = 8						; size = 4
??_G?$CDynamicPoolEx@VCAirResistanceDecorator@NEffectUpdateDecorator@@@@UAEPAXI@Z PROC ; CDynamicPoolEx<NEffectUpdateDecorator::CAirResistanceDecorator>::`scalar deleting destructor', COMDAT
; _this$ = ecx
  00000	55		 push	 ebp
  00001	8b ec		 mov	 ebp, esp
  00003	56		 push	 esi
  00004	8b f1		 mov	 esi, ecx
  00006	e8 00 00 00 00	 call	 ??1?$CDynamicPoolEx@VCAirResistanceDecorator@NEffectUpdateDecorator@@@@UAE@XZ ; CDynamicPoolEx<NEffectUpdateDecorator::CAirResistanceDecorator>::~CDynamicPoolEx<NEffectUpdateDecorator::CAirResistanceDecorator>
  0000b	f6 45 08 01	 test	 BYTE PTR ___flags$[ebp], 1
  0000f	74 0b		 je	 SHORT $LN4@scalar
  00011	6a 24		 push	 36			; 00000024H
  00013	56		 push	 esi
  00014	e8 00 00 00 00	 call	 ??3@YAXPAXI@Z		; operator delete
  00019	83 c4 08	 add	 esp, 8
$LN4@scalar:
  0001c	8b c6		 mov	 eax, esi
  0001e	5e		 pop	 esi
  0001f	5d		 pop	 ebp
  00020	c2 04 00	 ret	 4
??_G?$CDynamicPoolEx@VCAirResistanceDecorator@NEffectUpdateDecorator@@@@UAEPAXI@Z ENDP ; CDynamicPoolEx<NEffectUpdateDecorator::CAirResistanceDecorator>::`scalar deleting destructor'
_TEXT	ENDS
; Function compile flags: /Ogtp
; File C:\Users\murat\Desktop\Siveps2-1-99-Project\source\client\Client\eterLib\Pool.h
;	COMDAT ?Delete@?$CDynamicPoolEx@VCAirResistanceDecorator@NEffectUpdateDecorator@@@@KAXPAVCAirResistanceDecorator@NEffectUpdateDecorator@@@Z
_TEXT	SEGMENT
_pkData$ = 8						; size = 4
?Delete@?$CDynamicPoolEx@VCAirResistanceDecorator@NEffectUpdateDecorator@@@@KAXPAVCAirResistanceDecorator@NEffectUpdateDecorator@@@Z PROC ; CDynamicPoolEx<NEffectUpdateDecorator::CAirResistanceDecorator>::Delete, COMDAT

; 224  : 			::operator delete(pkData);

  00000	e9 00 00 00 00	 jmp	 ??3@YAXPAX@Z		; operator delete
?Delete@?$CDynamicPoolEx@VCAirResistanceDecorator@NEffectUpdateDecorator@@@@KAXPAVCAirResistanceDecorator@NEffectUpdateDecorator@@@Z ENDP ; CDynamicPoolEx<NEffectUpdateDecorator::CAirResistanceDecorator>::Delete
_TEXT	ENDS
; Function compile flags: /Ogtp
; File C:\Users\murat\Desktop\Siveps2-1-99-Project\source\client\Client\eterLib\Pool.h
; File C:\Program Files (x86)\Microsoft Visual Studio\2019\Professional\VC\Tools\MSVC\14.29.30133\include\vector
; File C:\Program Files (x86)\Microsoft Visual Studio\2019\Professional\VC\Tools\MSVC\14.29.30133\include\algorithm
; File C:\Users\murat\Desktop\Siveps2-1-99-Project\source\client\Client\eterLib\Pool.h
; File C:\Program Files (x86)\Microsoft Visual Studio\2019\Professional\VC\Tools\MSVC\14.29.30133\include\algorithm
; File C:\Users\murat\Desktop\Siveps2-1-99-Project\source\client\Client\eterLib\Pool.h
; File C:\Program Files (x86)\Microsoft Visual Studio\2019\Professional\VC\Tools\MSVC\14.29.30133\include\algorithm
; File C:\Users\murat\Desktop\Siveps2-1-99-Project\source\client\Client\eterLib\Pool.h
; File C:\Program Files (x86)\Microsoft Visual Studio\2019\Professional\VC\Tools\MSVC\14.29.30133\include\vector
; File C:\Program Files (x86)\Microsoft Visual Studio\2019\Professional\VC\Tools\MSVC\14.29.30133\include\xmemory
; File C:\Program Files (x86)\Microsoft Visual Studio\2019\Professional\VC\Tools\MSVC\14.29.30133\include\vector
; File C:\Program Files (x86)\Microsoft Visual Studio\2019\Professional\VC\Tools\MSVC\14.29.30133\include\xmemory
; File C:\Program Files (x86)\Microsoft Visual Studio\2019\Professional\VC\Tools\MSVC\14.29.30133\include\vector
; File C:\Program Files (x86)\Microsoft Visual Studio\2019\Professional\VC\Tools\MSVC\14.29.30133\include\xmemory
; File C:\Program Files (x86)\Microsoft Visual Studio\2019\Professional\VC\Tools\MSVC\14.29.30133\include\vector
; File C:\Program Files (x86)\Microsoft Visual Studio\2019\Professional\VC\Tools\MSVC\14.29.30133\include\xmemory
; File C:\Program Files (x86)\Microsoft Visual Studio\2019\Professional\VC\Tools\MSVC\14.29.30133\include\vector
; File C:\Users\murat\Desktop\Siveps2-1-99-Project\source\client\Client\eterLib\Pool.h
; File C:\Program Files (x86)\Microsoft Visual Studio\2019\Professional\VC\Tools\MSVC\14.29.30133\include\xmemory
; File C:\Users\murat\Desktop\Siveps2-1-99-Project\source\client\Client\eterLib\Pool.h
;	COMDAT ??1?$CDynamicPoolEx@VCAirResistanceDecorator@NEffectUpdateDecorator@@@@UAE@XZ
_TEXT	SEGMENT
??1?$CDynamicPoolEx@VCAirResistanceDecorator@NEffectUpdateDecorator@@@@UAE@XZ PROC ; CDynamicPoolEx<NEffectUpdateDecorator::CAirResistanceDecorator>::~CDynamicPoolEx<NEffectUpdateDecorator::CAirResistanceDecorator>, COMDAT
; _this$ = ecx

; 132  : 		{

  00000	53		 push	 ebx
  00001	56		 push	 esi
  00002	57		 push	 edi
  00003	8b f9		 mov	 edi, ecx
  00005	c7 07 00 00 00
	00		 mov	 DWORD PTR [edi], OFFSET ??_7?$CDynamicPoolEx@VCAirResistanceDecorator@NEffectUpdateDecorator@@@@6B@
; File C:\Program Files (x86)\Microsoft Visual Studio\2019\Professional\VC\Tools\MSVC\14.29.30133\include\vector

; 42   :     _CONSTEXPR20_CONTAINER _Vector_const_iterator(_Tptr _Parg, const _Container_base* _Pvector) noexcept : _Ptr(_Parg) {

  0000b	8b 5f 08	 mov	 ebx, DWORD PTR [edi+8]
  0000e	8b 77 04	 mov	 esi, DWORD PTR [edi+4]
; File C:\Program Files (x86)\Microsoft Visual Studio\2019\Professional\VC\Tools\MSVC\14.29.30133\include\algorithm

; 270  :     for (; _UFirst != _ULast; ++_UFirst) {

  00011	3b f3		 cmp	 esi, ebx
  00013	74 14		 je	 SHORT $LN19@CDynamicPo
$LL20@CDynamicPo:
; File C:\Users\murat\Desktop\Siveps2-1-99-Project\source\client\Client\eterLib\Pool.h

; 224  : 			::operator delete(pkData);

  00015	ff 36		 push	 DWORD PTR [esi]
  00017	e8 00 00 00 00	 call	 ??3@YAXPAX@Z		; operator delete
; File C:\Program Files (x86)\Microsoft Visual Studio\2019\Professional\VC\Tools\MSVC\14.29.30133\include\algorithm

; 270  :     for (; _UFirst != _ULast; ++_UFirst) {

  0001c	83 c6 04	 add	 esi, 4
; File C:\Users\murat\Desktop\Siveps2-1-99-Project\source\client\Client\eterLib\Pool.h

; 224  : 			::operator delete(pkData);

  0001f	83 c4 04	 add	 esp, 4
; File C:\Program Files (x86)\Microsoft Visual Studio\2019\Professional\VC\Tools\MSVC\14.29.30133\include\algorithm

; 270  :     for (; _UFirst != _ULast; ++_UFirst) {

  00022	3b f3		 cmp	 esi, ebx
  00024	75 ef		 jne	 SHORT $LL20@CDynamicPo
  00026	8b 77 04	 mov	 esi, DWORD PTR [edi+4]
$LN19@CDynamicPo:
; File C:\Users\murat\Desktop\Siveps2-1-99-Project\source\client\Client\eterLib\Pool.h

; 162  : 			m_kVct_pkFree.clear();

  00029	8b 47 10	 mov	 eax, DWORD PTR [edi+16]
  0002c	89 77 08	 mov	 DWORD PTR [edi+8], esi
  0002f	89 47 14	 mov	 DWORD PTR [edi+20], eax
; File C:\Program Files (x86)\Microsoft Visual Studio\2019\Professional\VC\Tools\MSVC\14.29.30133\include\vector

; 1763 :         if (_Myfirst) { // destroy and deallocate old array

  00032	85 c0		 test	 eax, eax
  00034	74 41		 je	 SHORT $LN27@CDynamicPo

; 1764 :             _Destroy(_Myfirst, _Mylast);
; 1765 :             _Getal().deallocate(_Myfirst, static_cast<size_type>(_Myend - _Myfirst));

  00036	8b 4f 18	 mov	 ecx, DWORD PTR [edi+24]
  00039	2b c8		 sub	 ecx, eax
; File C:\Program Files (x86)\Microsoft Visual Studio\2019\Professional\VC\Tools\MSVC\14.29.30133\include\xmemory

; 835  :         _Deallocate<_New_alignof<_Ty>>(_Ptr, sizeof(_Ty) * _Count);

  0003b	83 e1 fc	 and	 ecx, -4			; fffffffcH

; 260  :         if (_Bytes >= _Big_allocation_threshold) { // boost the alignment of big allocations to help autovectorization

  0003e	81 f9 00 10 00
	00		 cmp	 ecx, 4096		; 00001000H
  00044	72 12		 jb	 SHORT $LN43@CDynamicPo

; 158  :     const uintptr_t _Ptr_container   = _Ptr_user[-1];

  00046	8b 50 fc	 mov	 edx, DWORD PTR [eax-4]
  00049	83 c1 23	 add	 ecx, 35			; 00000023H

; 159  : 
; 160  :     // If the following asserts, it likely means that we are performing
; 161  :     // an aligned delete on memory coming from an unaligned allocation.
; 162  :     _STL_ASSERT(_Ptr_user[-2] == _Big_allocation_sentinel, "invalid argument");
; 163  : 
; 164  :     // Extra paranoia on aligned allocation/deallocation; ensure _Ptr_container is
; 165  :     // in range [_Min_back_shift, _Non_user_size]
; 166  : #ifdef _DEBUG
; 167  :     constexpr uintptr_t _Min_back_shift = 2 * sizeof(void*);
; 168  : #else // ^^^ _DEBUG ^^^ // vvv !_DEBUG vvv
; 169  :     constexpr uintptr_t _Min_back_shift = sizeof(void*);
; 170  : #endif // _DEBUG
; 171  :     const uintptr_t _Back_shift = reinterpret_cast<uintptr_t>(_Ptr) - _Ptr_container;

  0004c	2b c2		 sub	 eax, edx

; 172  :     _STL_VERIFY(_Back_shift >= _Min_back_shift && _Back_shift <= _Non_user_size, "invalid argument");

  0004e	83 c0 fc	 add	 eax, -4			; fffffffcH
  00051	83 f8 1f	 cmp	 eax, 31			; 0000001fH
  00054	77 6d		 ja	 SHORT $LN65@CDynamicPo

; 173  :     _Ptr = reinterpret_cast<void*>(_Ptr_container);

  00056	8b c2		 mov	 eax, edx
$LN43@CDynamicPo:

; 264  :         ::operator delete(_Ptr, _Bytes);

  00058	51		 push	 ecx
  00059	50		 push	 eax
  0005a	e8 00 00 00 00	 call	 ??3@YAXPAXI@Z		; operator delete
; File C:\Program Files (x86)\Microsoft Visual Studio\2019\Professional\VC\Tools\MSVC\14.29.30133\include\vector

; 1767 :             _Myfirst = nullptr;

  0005f	c7 47 10 00 00
	00 00		 mov	 DWORD PTR [edi+16], 0
; File C:\Program Files (x86)\Microsoft Visual Studio\2019\Professional\VC\Tools\MSVC\14.29.30133\include\xmemory

; 264  :         ::operator delete(_Ptr, _Bytes);

  00066	83 c4 08	 add	 esp, 8
; File C:\Program Files (x86)\Microsoft Visual Studio\2019\Professional\VC\Tools\MSVC\14.29.30133\include\vector

; 1768 :             _Mylast  = nullptr;

  00069	c7 47 14 00 00
	00 00		 mov	 DWORD PTR [edi+20], 0

; 1769 :             _Myend   = nullptr;

  00070	c7 47 18 00 00
	00 00		 mov	 DWORD PTR [edi+24], 0
$LN27@CDynamicPo:

; 1763 :         if (_Myfirst) { // destroy and deallocate old array

  00077	8b 47 04	 mov	 eax, DWORD PTR [edi+4]
  0007a	85 c0		 test	 eax, eax
  0007c	74 41		 je	 SHORT $LN52@CDynamicPo

; 1764 :             _Destroy(_Myfirst, _Mylast);
; 1765 :             _Getal().deallocate(_Myfirst, static_cast<size_type>(_Myend - _Myfirst));

  0007e	8b 4f 0c	 mov	 ecx, DWORD PTR [edi+12]
  00081	2b c8		 sub	 ecx, eax
; File C:\Program Files (x86)\Microsoft Visual Studio\2019\Professional\VC\Tools\MSVC\14.29.30133\include\xmemory

; 835  :         _Deallocate<_New_alignof<_Ty>>(_Ptr, sizeof(_Ty) * _Count);

  00083	83 e1 fc	 and	 ecx, -4			; fffffffcH

; 260  :         if (_Bytes >= _Big_allocation_threshold) { // boost the alignment of big allocations to help autovectorization

  00086	81 f9 00 10 00
	00		 cmp	 ecx, 4096		; 00001000H
  0008c	72 12		 jb	 SHORT $LN68@CDynamicPo

; 158  :     const uintptr_t _Ptr_container   = _Ptr_user[-1];

  0008e	8b 50 fc	 mov	 edx, DWORD PTR [eax-4]
  00091	83 c1 23	 add	 ecx, 35			; 00000023H

; 159  : 
; 160  :     // If the following asserts, it likely means that we are performing
; 161  :     // an aligned delete on memory coming from an unaligned allocation.
; 162  :     _STL_ASSERT(_Ptr_user[-2] == _Big_allocation_sentinel, "invalid argument");
; 163  : 
; 164  :     // Extra paranoia on aligned allocation/deallocation; ensure _Ptr_container is
; 165  :     // in range [_Min_back_shift, _Non_user_size]
; 166  : #ifdef _DEBUG
; 167  :     constexpr uintptr_t _Min_back_shift = 2 * sizeof(void*);
; 168  : #else // ^^^ _DEBUG ^^^ // vvv !_DEBUG vvv
; 169  :     constexpr uintptr_t _Min_back_shift = sizeof(void*);
; 170  : #endif // _DEBUG
; 171  :     const uintptr_t _Back_shift = reinterpret_cast<uintptr_t>(_Ptr) - _Ptr_container;

  00094	2b c2		 sub	 eax, edx

; 172  :     _STL_VERIFY(_Back_shift >= _Min_back_shift && _Back_shift <= _Non_user_size, "invalid argument");

  00096	83 c0 fc	 add	 eax, -4			; fffffffcH
  00099	83 f8 1f	 cmp	 eax, 31			; 0000001fH
  0009c	77 25		 ja	 SHORT $LN65@CDynamicPo

; 173  :     _Ptr = reinterpret_cast<void*>(_Ptr_container);

  0009e	8b c2		 mov	 eax, edx
$LN68@CDynamicPo:

; 264  :         ::operator delete(_Ptr, _Bytes);

  000a0	51		 push	 ecx
  000a1	50		 push	 eax
  000a2	e8 00 00 00 00	 call	 ??3@YAXPAXI@Z		; operator delete
; File C:\Program Files (x86)\Microsoft Visual Studio\2019\Professional\VC\Tools\MSVC\14.29.30133\include\vector

; 1767 :             _Myfirst = nullptr;

  000a7	c7 47 04 00 00
	00 00		 mov	 DWORD PTR [edi+4], 0
; File C:\Program Files (x86)\Microsoft Visual Studio\2019\Professional\VC\Tools\MSVC\14.29.30133\include\xmemory

; 264  :         ::operator delete(_Ptr, _Bytes);

  000ae	83 c4 08	 add	 esp, 8
; File C:\Program Files (x86)\Microsoft Visual Studio\2019\Professional\VC\Tools\MSVC\14.29.30133\include\vector

; 1768 :             _Mylast  = nullptr;

  000b1	c7 47 08 00 00
	00 00		 mov	 DWORD PTR [edi+8], 0

; 1769 :             _Myend   = nullptr;

  000b8	c7 47 0c 00 00
	00 00		 mov	 DWORD PTR [edi+12], 0
$LN52@CDynamicPo:
  000bf	5f		 pop	 edi
; File C:\Users\murat\Desktop\Siveps2-1-99-Project\source\client\Client\eterLib\Pool.h

; 142  : 		}

  000c0	5e		 pop	 esi
  000c1	5b		 pop	 ebx
  000c2	c3		 ret	 0
$LN65@CDynamicPo:
; File C:\Program Files (x86)\Microsoft Visual Studio\2019\Professional\VC\Tools\MSVC\14.29.30133\include\xmemory

; 172  :     _STL_VERIFY(_Back_shift >= _Min_back_shift && _Back_shift <= _Non_user_size, "invalid argument");

  000c3	e8 00 00 00 00	 call	 __invalid_parameter_noinfo_noreturn
$LN77@CDynamicPo:
  000c8	cc		 int	 3
??1?$CDynamicPoolEx@VCAirResistanceDecorator@NEffectUpdateDecorator@@@@UAE@XZ ENDP ; CDynamicPoolEx<NEffectUpdateDecorator::CAirResistanceDecorator>::~CDynamicPoolEx<NEffectUpdateDecorator::CAirResistanceDecorator>
_TEXT	ENDS
; Function compile flags: /Ogtp
;	COMDAT ??_G?$CDynamicPoolEx@VCGravityDecorator@NEffectUpdateDecorator@@@@UAEPAXI@Z
_TEXT	SEGMENT
___flags$ = 8						; size = 4
??_G?$CDynamicPoolEx@VCGravityDecorator@NEffectUpdateDecorator@@@@UAEPAXI@Z PROC ; CDynamicPoolEx<NEffectUpdateDecorator::CGravityDecorator>::`scalar deleting destructor', COMDAT
; _this$ = ecx
  00000	55		 push	 ebp
  00001	8b ec		 mov	 ebp, esp
  00003	56		 push	 esi
  00004	8b f1		 mov	 esi, ecx
  00006	e8 00 00 00 00	 call	 ??1?$CDynamicPoolEx@VCGravityDecorator@NEffectUpdateDecorator@@@@UAE@XZ ; CDynamicPoolEx<NEffectUpdateDecorator::CGravityDecorator>::~CDynamicPoolEx<NEffectUpdateDecorator::CGravityDecorator>
  0000b	f6 45 08 01	 test	 BYTE PTR ___flags$[ebp], 1
  0000f	74 0b		 je	 SHORT $LN4@scalar
  00011	6a 24		 push	 36			; 00000024H
  00013	56		 push	 esi
  00014	e8 00 00 00 00	 call	 ??3@YAXPAXI@Z		; operator delete
  00019	83 c4 08	 add	 esp, 8
$LN4@scalar:
  0001c	8b c6		 mov	 eax, esi
  0001e	5e		 pop	 esi
  0001f	5d		 pop	 ebp
  00020	c2 04 00	 ret	 4
??_G?$CDynamicPoolEx@VCGravityDecorator@NEffectUpdateDecorator@@@@UAEPAXI@Z ENDP ; CDynamicPoolEx<NEffectUpdateDecorator::CGravityDecorator>::`scalar deleting destructor'
_TEXT	ENDS
; Function compile flags: /Ogtp
; File C:\Users\murat\Desktop\Siveps2-1-99-Project\source\client\Client\eterLib\Pool.h
;	COMDAT ?Delete@?$CDynamicPoolEx@VCGravityDecorator@NEffectUpdateDecorator@@@@KAXPAVCGravityDecorator@NEffectUpdateDecorator@@@Z
_TEXT	SEGMENT
_pkData$ = 8						; size = 4
?Delete@?$CDynamicPoolEx@VCGravityDecorator@NEffectUpdateDecorator@@@@KAXPAVCGravityDecorator@NEffectUpdateDecorator@@@Z PROC ; CDynamicPoolEx<NEffectUpdateDecorator::CGravityDecorator>::Delete, COMDAT

; 224  : 			::operator delete(pkData);

  00000	e9 00 00 00 00	 jmp	 ??3@YAXPAX@Z		; operator delete
?Delete@?$CDynamicPoolEx@VCGravityDecorator@NEffectUpdateDecorator@@@@KAXPAVCGravityDecorator@NEffectUpdateDecorator@@@Z ENDP ; CDynamicPoolEx<NEffectUpdateDecorator::CGravityDecorator>::Delete
_TEXT	ENDS
; Function compile flags: /Ogtp
; File C:\Users\murat\Desktop\Siveps2-1-99-Project\source\client\Client\eterLib\Pool.h
; File C:\Program Files (x86)\Microsoft Visual Studio\2019\Professional\VC\Tools\MSVC\14.29.30133\include\vector
; File C:\Program Files (x86)\Microsoft Visual Studio\2019\Professional\VC\Tools\MSVC\14.29.30133\include\algorithm
; File C:\Users\murat\Desktop\Siveps2-1-99-Project\source\client\Client\eterLib\Pool.h
; File C:\Program Files (x86)\Microsoft Visual Studio\2019\Professional\VC\Tools\MSVC\14.29.30133\include\algorithm
; File C:\Users\murat\Desktop\Siveps2-1-99-Project\source\client\Client\eterLib\Pool.h
; File C:\Program Files (x86)\Microsoft Visual Studio\2019\Professional\VC\Tools\MSVC\14.29.30133\include\algorithm
; File C:\Users\murat\Desktop\Siveps2-1-99-Project\source\client\Client\eterLib\Pool.h
; File C:\Program Files (x86)\Microsoft Visual Studio\2019\Professional\VC\Tools\MSVC\14.29.30133\include\vector
; File C:\Program Files (x86)\Microsoft Visual Studio\2019\Professional\VC\Tools\MSVC\14.29.30133\include\xmemory
; File C:\Program Files (x86)\Microsoft Visual Studio\2019\Professional\VC\Tools\MSVC\14.29.30133\include\vector
; File C:\Program Files (x86)\Microsoft Visual Studio\2019\Professional\VC\Tools\MSVC\14.29.30133\include\xmemory
; File C:\Program Files (x86)\Microsoft Visual Studio\2019\Professional\VC\Tools\MSVC\14.29.30133\include\vector
; File C:\Program Files (x86)\Microsoft Visual Studio\2019\Professional\VC\Tools\MSVC\14.29.30133\include\xmemory
; File C:\Program Files (x86)\Microsoft Visual Studio\2019\Professional\VC\Tools\MSVC\14.29.30133\include\vector
; File C:\Program Files (x86)\Microsoft Visual Studio\2019\Professional\VC\Tools\MSVC\14.29.30133\include\xmemory
; File C:\Program Files (x86)\Microsoft Visual Studio\2019\Professional\VC\Tools\MSVC\14.29.30133\include\vector
; File C:\Users\murat\Desktop\Siveps2-1-99-Project\source\client\Client\eterLib\Pool.h
; File C:\Program Files (x86)\Microsoft Visual Studio\2019\Professional\VC\Tools\MSVC\14.29.30133\include\xmemory
; File C:\Users\murat\Desktop\Siveps2-1-99-Project\source\client\Client\eterLib\Pool.h
;	COMDAT ??1?$CDynamicPoolEx@VCGravityDecorator@NEffectUpdateDecorator@@@@UAE@XZ
_TEXT	SEGMENT
??1?$CDynamicPoolEx@VCGravityDecorator@NEffectUpdateDecorator@@@@UAE@XZ PROC ; CDynamicPoolEx<NEffectUpdateDecorator::CGravityDecorator>::~CDynamicPoolEx<NEffectUpdateDecorator::CGravityDecorator>, COMDAT
; _this$ = ecx

; 132  : 		{

  00000	53		 push	 ebx
  00001	56		 push	 esi
  00002	57		 push	 edi
  00003	8b f9		 mov	 edi, ecx
  00005	c7 07 00 00 00
	00		 mov	 DWORD PTR [edi], OFFSET ??_7?$CDynamicPoolEx@VCGravityDecorator@NEffectUpdateDecorator@@@@6B@
; File C:\Program Files (x86)\Microsoft Visual Studio\2019\Professional\VC\Tools\MSVC\14.29.30133\include\vector

; 42   :     _CONSTEXPR20_CONTAINER _Vector_const_iterator(_Tptr _Parg, const _Container_base* _Pvector) noexcept : _Ptr(_Parg) {

  0000b	8b 5f 08	 mov	 ebx, DWORD PTR [edi+8]
  0000e	8b 77 04	 mov	 esi, DWORD PTR [edi+4]
; File C:\Program Files (x86)\Microsoft Visual Studio\2019\Professional\VC\Tools\MSVC\14.29.30133\include\algorithm

; 270  :     for (; _UFirst != _ULast; ++_UFirst) {

  00011	3b f3		 cmp	 esi, ebx
  00013	74 14		 je	 SHORT $LN19@CDynamicPo
$LL20@CDynamicPo:
; File C:\Users\murat\Desktop\Siveps2-1-99-Project\source\client\Client\eterLib\Pool.h

; 224  : 			::operator delete(pkData);

  00015	ff 36		 push	 DWORD PTR [esi]
  00017	e8 00 00 00 00	 call	 ??3@YAXPAX@Z		; operator delete
; File C:\Program Files (x86)\Microsoft Visual Studio\2019\Professional\VC\Tools\MSVC\14.29.30133\include\algorithm

; 270  :     for (; _UFirst != _ULast; ++_UFirst) {

  0001c	83 c6 04	 add	 esi, 4
; File C:\Users\murat\Desktop\Siveps2-1-99-Project\source\client\Client\eterLib\Pool.h

; 224  : 			::operator delete(pkData);

  0001f	83 c4 04	 add	 esp, 4
; File C:\Program Files (x86)\Microsoft Visual Studio\2019\Professional\VC\Tools\MSVC\14.29.30133\include\algorithm

; 270  :     for (; _UFirst != _ULast; ++_UFirst) {

  00022	3b f3		 cmp	 esi, ebx
  00024	75 ef		 jne	 SHORT $LL20@CDynamicPo
  00026	8b 77 04	 mov	 esi, DWORD PTR [edi+4]
$LN19@CDynamicPo:
; File C:\Users\murat\Desktop\Siveps2-1-99-Project\source\client\Client\eterLib\Pool.h

; 162  : 			m_kVct_pkFree.clear();

  00029	8b 47 10	 mov	 eax, DWORD PTR [edi+16]
  0002c	89 77 08	 mov	 DWORD PTR [edi+8], esi
  0002f	89 47 14	 mov	 DWORD PTR [edi+20], eax
; File C:\Program Files (x86)\Microsoft Visual Studio\2019\Professional\VC\Tools\MSVC\14.29.30133\include\vector

; 1763 :         if (_Myfirst) { // destroy and deallocate old array

  00032	85 c0		 test	 eax, eax
  00034	74 41		 je	 SHORT $LN27@CDynamicPo

; 1764 :             _Destroy(_Myfirst, _Mylast);
; 1765 :             _Getal().deallocate(_Myfirst, static_cast<size_type>(_Myend - _Myfirst));

  00036	8b 4f 18	 mov	 ecx, DWORD PTR [edi+24]
  00039	2b c8		 sub	 ecx, eax
; File C:\Program Files (x86)\Microsoft Visual Studio\2019\Professional\VC\Tools\MSVC\14.29.30133\include\xmemory

; 835  :         _Deallocate<_New_alignof<_Ty>>(_Ptr, sizeof(_Ty) * _Count);

  0003b	83 e1 fc	 and	 ecx, -4			; fffffffcH

; 260  :         if (_Bytes >= _Big_allocation_threshold) { // boost the alignment of big allocations to help autovectorization

  0003e	81 f9 00 10 00
	00		 cmp	 ecx, 4096		; 00001000H
  00044	72 12		 jb	 SHORT $LN43@CDynamicPo

; 158  :     const uintptr_t _Ptr_container   = _Ptr_user[-1];

  00046	8b 50 fc	 mov	 edx, DWORD PTR [eax-4]
  00049	83 c1 23	 add	 ecx, 35			; 00000023H

; 159  : 
; 160  :     // If the following asserts, it likely means that we are performing
; 161  :     // an aligned delete on memory coming from an unaligned allocation.
; 162  :     _STL_ASSERT(_Ptr_user[-2] == _Big_allocation_sentinel, "invalid argument");
; 163  : 
; 164  :     // Extra paranoia on aligned allocation/deallocation; ensure _Ptr_container is
; 165  :     // in range [_Min_back_shift, _Non_user_size]
; 166  : #ifdef _DEBUG
; 167  :     constexpr uintptr_t _Min_back_shift = 2 * sizeof(void*);
; 168  : #else // ^^^ _DEBUG ^^^ // vvv !_DEBUG vvv
; 169  :     constexpr uintptr_t _Min_back_shift = sizeof(void*);
; 170  : #endif // _DEBUG
; 171  :     const uintptr_t _Back_shift = reinterpret_cast<uintptr_t>(_Ptr) - _Ptr_container;

  0004c	2b c2		 sub	 eax, edx

; 172  :     _STL_VERIFY(_Back_shift >= _Min_back_shift && _Back_shift <= _Non_user_size, "invalid argument");

  0004e	83 c0 fc	 add	 eax, -4			; fffffffcH
  00051	83 f8 1f	 cmp	 eax, 31			; 0000001fH
  00054	77 6d		 ja	 SHORT $LN65@CDynamicPo

; 173  :     _Ptr = reinterpret_cast<void*>(_Ptr_container);

  00056	8b c2		 mov	 eax, edx
$LN43@CDynamicPo:

; 264  :         ::operator delete(_Ptr, _Bytes);

  00058	51		 push	 ecx
  00059	50		 push	 eax
  0005a	e8 00 00 00 00	 call	 ??3@YAXPAXI@Z		; operator delete
; File C:\Program Files (x86)\Microsoft Visual Studio\2019\Professional\VC\Tools\MSVC\14.29.30133\include\vector

; 1767 :             _Myfirst = nullptr;

  0005f	c7 47 10 00 00
	00 00		 mov	 DWORD PTR [edi+16], 0
; File C:\Program Files (x86)\Microsoft Visual Studio\2019\Professional\VC\Tools\MSVC\14.29.30133\include\xmemory

; 264  :         ::operator delete(_Ptr, _Bytes);

  00066	83 c4 08	 add	 esp, 8
; File C:\Program Files (x86)\Microsoft Visual Studio\2019\Professional\VC\Tools\MSVC\14.29.30133\include\vector

; 1768 :             _Mylast  = nullptr;

  00069	c7 47 14 00 00
	00 00		 mov	 DWORD PTR [edi+20], 0

; 1769 :             _Myend   = nullptr;

  00070	c7 47 18 00 00
	00 00		 mov	 DWORD PTR [edi+24], 0
$LN27@CDynamicPo:

; 1763 :         if (_Myfirst) { // destroy and deallocate old array

  00077	8b 47 04	 mov	 eax, DWORD PTR [edi+4]
  0007a	85 c0		 test	 eax, eax
  0007c	74 41		 je	 SHORT $LN52@CDynamicPo

; 1764 :             _Destroy(_Myfirst, _Mylast);
; 1765 :             _Getal().deallocate(_Myfirst, static_cast<size_type>(_Myend - _Myfirst));

  0007e	8b 4f 0c	 mov	 ecx, DWORD PTR [edi+12]
  00081	2b c8		 sub	 ecx, eax
; File C:\Program Files (x86)\Microsoft Visual Studio\2019\Professional\VC\Tools\MSVC\14.29.30133\include\xmemory

; 835  :         _Deallocate<_New_alignof<_Ty>>(_Ptr, sizeof(_Ty) * _Count);

  00083	83 e1 fc	 and	 ecx, -4			; fffffffcH

; 260  :         if (_Bytes >= _Big_allocation_threshold) { // boost the alignment of big allocations to help autovectorization

  00086	81 f9 00 10 00
	00		 cmp	 ecx, 4096		; 00001000H
  0008c	72 12		 jb	 SHORT $LN68@CDynamicPo

; 158  :     const uintptr_t _Ptr_container   = _Ptr_user[-1];

  0008e	8b 50 fc	 mov	 edx, DWORD PTR [eax-4]
  00091	83 c1 23	 add	 ecx, 35			; 00000023H

; 159  : 
; 160  :     // If the following asserts, it likely means that we are performing
; 161  :     // an aligned delete on memory coming from an unaligned allocation.
; 162  :     _STL_ASSERT(_Ptr_user[-2] == _Big_allocation_sentinel, "invalid argument");
; 163  : 
; 164  :     // Extra paranoia on aligned allocation/deallocation; ensure _Ptr_container is
; 165  :     // in range [_Min_back_shift, _Non_user_size]
; 166  : #ifdef _DEBUG
; 167  :     constexpr uintptr_t _Min_back_shift = 2 * sizeof(void*);
; 168  : #else // ^^^ _DEBUG ^^^ // vvv !_DEBUG vvv
; 169  :     constexpr uintptr_t _Min_back_shift = sizeof(void*);
; 170  : #endif // _DEBUG
; 171  :     const uintptr_t _Back_shift = reinterpret_cast<uintptr_t>(_Ptr) - _Ptr_container;

  00094	2b c2		 sub	 eax, edx

; 172  :     _STL_VERIFY(_Back_shift >= _Min_back_shift && _Back_shift <= _Non_user_size, "invalid argument");

  00096	83 c0 fc	 add	 eax, -4			; fffffffcH
  00099	83 f8 1f	 cmp	 eax, 31			; 0000001fH
  0009c	77 25		 ja	 SHORT $LN65@CDynamicPo

; 173  :     _Ptr = reinterpret_cast<void*>(_Ptr_container);

  0009e	8b c2		 mov	 eax, edx
$LN68@CDynamicPo:

; 264  :         ::operator delete(_Ptr, _Bytes);

  000a0	51		 push	 ecx
  000a1	50		 push	 eax
  000a2	e8 00 00 00 00	 call	 ??3@YAXPAXI@Z		; operator delete
; File C:\Program Files (x86)\Microsoft Visual Studio\2019\Professional\VC\Tools\MSVC\14.29.30133\include\vector

; 1767 :             _Myfirst = nullptr;

  000a7	c7 47 04 00 00
	00 00		 mov	 DWORD PTR [edi+4], 0
; File C:\Program Files (x86)\Microsoft Visual Studio\2019\Professional\VC\Tools\MSVC\14.29.30133\include\xmemory

; 264  :         ::operator delete(_Ptr, _Bytes);

  000ae	83 c4 08	 add	 esp, 8
; File C:\Program Files (x86)\Microsoft Visual Studio\2019\Professional\VC\Tools\MSVC\14.29.30133\include\vector

; 1768 :             _Mylast  = nullptr;

  000b1	c7 47 08 00 00
	00 00		 mov	 DWORD PTR [edi+8], 0

; 1769 :             _Myend   = nullptr;

  000b8	c7 47 0c 00 00
	00 00		 mov	 DWORD PTR [edi+12], 0
$LN52@CDynamicPo:
  000bf	5f		 pop	 edi
; File C:\Users\murat\Desktop\Siveps2-1-99-Project\source\client\Client\eterLib\Pool.h

; 142  : 		}

  000c0	5e		 pop	 esi
  000c1	5b		 pop	 ebx
  000c2	c3		 ret	 0
$LN65@CDynamicPo:
; File C:\Program Files (x86)\Microsoft Visual Studio\2019\Professional\VC\Tools\MSVC\14.29.30133\include\xmemory

; 172  :     _STL_VERIFY(_Back_shift >= _Min_back_shift && _Back_shift <= _Non_user_size, "invalid argument");

  000c3	e8 00 00 00 00	 call	 __invalid_parameter_noinfo_noreturn
$LN77@CDynamicPo:
  000c8	cc		 int	 3
??1?$CDynamicPoolEx@VCGravityDecorator@NEffectUpdateDecorator@@@@UAE@XZ ENDP ; CDynamicPoolEx<NEffectUpdateDecorator::CGravityDecorator>::~CDynamicPoolEx<NEffectUpdateDecorator::CGravityDecorator>
_TEXT	ENDS
; Function compile flags: /Ogtp
;	COMDAT ??_G?$CDynamicPoolEx@VCRotationDecorator@NEffectUpdateDecorator@@@@UAEPAXI@Z
_TEXT	SEGMENT
___flags$ = 8						; size = 4
??_G?$CDynamicPoolEx@VCRotationDecorator@NEffectUpdateDecorator@@@@UAEPAXI@Z PROC ; CDynamicPoolEx<NEffectUpdateDecorator::CRotationDecorator>::`scalar deleting destructor', COMDAT
; _this$ = ecx
  00000	55		 push	 ebp
  00001	8b ec		 mov	 ebp, esp
  00003	56		 push	 esi
  00004	8b f1		 mov	 esi, ecx
  00006	e8 00 00 00 00	 call	 ??1?$CDynamicPoolEx@VCRotationDecorator@NEffectUpdateDecorator@@@@UAE@XZ ; CDynamicPoolEx<NEffectUpdateDecorator::CRotationDecorator>::~CDynamicPoolEx<NEffectUpdateDecorator::CRotationDecorator>
  0000b	f6 45 08 01	 test	 BYTE PTR ___flags$[ebp], 1
  0000f	74 0b		 je	 SHORT $LN4@scalar
  00011	6a 24		 push	 36			; 00000024H
  00013	56		 push	 esi
  00014	e8 00 00 00 00	 call	 ??3@YAXPAXI@Z		; operator delete
  00019	83 c4 08	 add	 esp, 8
$LN4@scalar:
  0001c	8b c6		 mov	 eax, esi
  0001e	5e		 pop	 esi
  0001f	5d		 pop	 ebp
  00020	c2 04 00	 ret	 4
??_G?$CDynamicPoolEx@VCRotationDecorator@NEffectUpdateDecorator@@@@UAEPAXI@Z ENDP ; CDynamicPoolEx<NEffectUpdateDecorator::CRotationDecorator>::`scalar deleting destructor'
_TEXT	ENDS
; Function compile flags: /Ogtp
; File C:\Users\murat\Desktop\Siveps2-1-99-Project\source\client\Client\eterLib\Pool.h
;	COMDAT ?Delete@?$CDynamicPoolEx@VCRotationDecorator@NEffectUpdateDecorator@@@@KAXPAVCRotationDecorator@NEffectUpdateDecorator@@@Z
_TEXT	SEGMENT
_pkData$ = 8						; size = 4
?Delete@?$CDynamicPoolEx@VCRotationDecorator@NEffectUpdateDecorator@@@@KAXPAVCRotationDecorator@NEffectUpdateDecorator@@@Z PROC ; CDynamicPoolEx<NEffectUpdateDecorator::CRotationDecorator>::Delete, COMDAT

; 224  : 			::operator delete(pkData);

  00000	e9 00 00 00 00	 jmp	 ??3@YAXPAX@Z		; operator delete
?Delete@?$CDynamicPoolEx@VCRotationDecorator@NEffectUpdateDecorator@@@@KAXPAVCRotationDecorator@NEffectUpdateDecorator@@@Z ENDP ; CDynamicPoolEx<NEffectUpdateDecorator::CRotationDecorator>::Delete
_TEXT	ENDS
; Function compile flags: /Ogtp
; File C:\Users\murat\Desktop\Siveps2-1-99-Project\source\client\Client\eterLib\Pool.h
; File C:\Program Files (x86)\Microsoft Visual Studio\2019\Professional\VC\Tools\MSVC\14.29.30133\include\vector
; File C:\Program Files (x86)\Microsoft Visual Studio\2019\Professional\VC\Tools\MSVC\14.29.30133\include\algorithm
; File C:\Users\murat\Desktop\Siveps2-1-99-Project\source\client\Client\eterLib\Pool.h
; File C:\Program Files (x86)\Microsoft Visual Studio\2019\Professional\VC\Tools\MSVC\14.29.30133\include\algorithm
; File C:\Users\murat\Desktop\Siveps2-1-99-Project\source\client\Client\eterLib\Pool.h
; File C:\Program Files (x86)\Microsoft Visual Studio\2019\Professional\VC\Tools\MSVC\14.29.30133\include\algorithm
; File C:\Users\murat\Desktop\Siveps2-1-99-Project\source\client\Client\eterLib\Pool.h
; File C:\Program Files (x86)\Microsoft Visual Studio\2019\Professional\VC\Tools\MSVC\14.29.30133\include\vector
; File C:\Program Files (x86)\Microsoft Visual Studio\2019\Professional\VC\Tools\MSVC\14.29.30133\include\xmemory
; File C:\Program Files (x86)\Microsoft Visual Studio\2019\Professional\VC\Tools\MSVC\14.29.30133\include\vector
; File C:\Program Files (x86)\Microsoft Visual Studio\2019\Professional\VC\Tools\MSVC\14.29.30133\include\xmemory
; File C:\Program Files (x86)\Microsoft Visual Studio\2019\Professional\VC\Tools\MSVC\14.29.30133\include\vector
; File C:\Program Files (x86)\Microsoft Visual Studio\2019\Professional\VC\Tools\MSVC\14.29.30133\include\xmemory
; File C:\Program Files (x86)\Microsoft Visual Studio\2019\Professional\VC\Tools\MSVC\14.29.30133\include\vector
; File C:\Program Files (x86)\Microsoft Visual Studio\2019\Professional\VC\Tools\MSVC\14.29.30133\include\xmemory
; File C:\Program Files (x86)\Microsoft Visual Studio\2019\Professional\VC\Tools\MSVC\14.29.30133\include\vector
; File C:\Users\murat\Desktop\Siveps2-1-99-Project\source\client\Client\eterLib\Pool.h
; File C:\Program Files (x86)\Microsoft Visual Studio\2019\Professional\VC\Tools\MSVC\14.29.30133\include\xmemory
; File C:\Users\murat\Desktop\Siveps2-1-99-Project\source\client\Client\eterLib\Pool.h
;	COMDAT ??1?$CDynamicPoolEx@VCRotationDecorator@NEffectUpdateDecorator@@@@UAE@XZ
_TEXT	SEGMENT
??1?$CDynamicPoolEx@VCRotationDecorator@NEffectUpdateDecorator@@@@UAE@XZ PROC ; CDynamicPoolEx<NEffectUpdateDecorator::CRotationDecorator>::~CDynamicPoolEx<NEffectUpdateDecorator::CRotationDecorator>, COMDAT
; _this$ = ecx

; 132  : 		{

  00000	53		 push	 ebx
  00001	56		 push	 esi
  00002	57		 push	 edi
  00003	8b f9		 mov	 edi, ecx
  00005	c7 07 00 00 00
	00		 mov	 DWORD PTR [edi], OFFSET ??_7?$CDynamicPoolEx@VCRotationDecorator@NEffectUpdateDecorator@@@@6B@
; File C:\Program Files (x86)\Microsoft Visual Studio\2019\Professional\VC\Tools\MSVC\14.29.30133\include\vector

; 42   :     _CONSTEXPR20_CONTAINER _Vector_const_iterator(_Tptr _Parg, const _Container_base* _Pvector) noexcept : _Ptr(_Parg) {

  0000b	8b 5f 08	 mov	 ebx, DWORD PTR [edi+8]
  0000e	8b 77 04	 mov	 esi, DWORD PTR [edi+4]
; File C:\Program Files (x86)\Microsoft Visual Studio\2019\Professional\VC\Tools\MSVC\14.29.30133\include\algorithm

; 270  :     for (; _UFirst != _ULast; ++_UFirst) {

  00011	3b f3		 cmp	 esi, ebx
  00013	74 14		 je	 SHORT $LN19@CDynamicPo
$LL20@CDynamicPo:
; File C:\Users\murat\Desktop\Siveps2-1-99-Project\source\client\Client\eterLib\Pool.h

; 224  : 			::operator delete(pkData);

  00015	ff 36		 push	 DWORD PTR [esi]
  00017	e8 00 00 00 00	 call	 ??3@YAXPAX@Z		; operator delete
; File C:\Program Files (x86)\Microsoft Visual Studio\2019\Professional\VC\Tools\MSVC\14.29.30133\include\algorithm

; 270  :     for (; _UFirst != _ULast; ++_UFirst) {

  0001c	83 c6 04	 add	 esi, 4
; File C:\Users\murat\Desktop\Siveps2-1-99-Project\source\client\Client\eterLib\Pool.h

; 224  : 			::operator delete(pkData);

  0001f	83 c4 04	 add	 esp, 4
; File C:\Program Files (x86)\Microsoft Visual Studio\2019\Professional\VC\Tools\MSVC\14.29.30133\include\algorithm

; 270  :     for (; _UFirst != _ULast; ++_UFirst) {

  00022	3b f3		 cmp	 esi, ebx
  00024	75 ef		 jne	 SHORT $LL20@CDynamicPo
  00026	8b 77 04	 mov	 esi, DWORD PTR [edi+4]
$LN19@CDynamicPo:
; File C:\Users\murat\Desktop\Siveps2-1-99-Project\source\client\Client\eterLib\Pool.h

; 162  : 			m_kVct_pkFree.clear();

  00029	8b 47 10	 mov	 eax, DWORD PTR [edi+16]
  0002c	89 77 08	 mov	 DWORD PTR [edi+8], esi
  0002f	89 47 14	 mov	 DWORD PTR [edi+20], eax
; File C:\Program Files (x86)\Microsoft Visual Studio\2019\Professional\VC\Tools\MSVC\14.29.30133\include\vector

; 1763 :         if (_Myfirst) { // destroy and deallocate old array

  00032	85 c0		 test	 eax, eax
  00034	74 41		 je	 SHORT $LN27@CDynamicPo

; 1764 :             _Destroy(_Myfirst, _Mylast);
; 1765 :             _Getal().deallocate(_Myfirst, static_cast<size_type>(_Myend - _Myfirst));

  00036	8b 4f 18	 mov	 ecx, DWORD PTR [edi+24]
  00039	2b c8		 sub	 ecx, eax
; File C:\Program Files (x86)\Microsoft Visual Studio\2019\Professional\VC\Tools\MSVC\14.29.30133\include\xmemory

; 835  :         _Deallocate<_New_alignof<_Ty>>(_Ptr, sizeof(_Ty) * _Count);

  0003b	83 e1 fc	 and	 ecx, -4			; fffffffcH

; 260  :         if (_Bytes >= _Big_allocation_threshold) { // boost the alignment of big allocations to help autovectorization

  0003e	81 f9 00 10 00
	00		 cmp	 ecx, 4096		; 00001000H
  00044	72 12		 jb	 SHORT $LN43@CDynamicPo

; 158  :     const uintptr_t _Ptr_container   = _Ptr_user[-1];

  00046	8b 50 fc	 mov	 edx, DWORD PTR [eax-4]
  00049	83 c1 23	 add	 ecx, 35			; 00000023H

; 159  : 
; 160  :     // If the following asserts, it likely means that we are performing
; 161  :     // an aligned delete on memory coming from an unaligned allocation.
; 162  :     _STL_ASSERT(_Ptr_user[-2] == _Big_allocation_sentinel, "invalid argument");
; 163  : 
; 164  :     // Extra paranoia on aligned allocation/deallocation; ensure _Ptr_container is
; 165  :     // in range [_Min_back_shift, _Non_user_size]
; 166  : #ifdef _DEBUG
; 167  :     constexpr uintptr_t _Min_back_shift = 2 * sizeof(void*);
; 168  : #else // ^^^ _DEBUG ^^^ // vvv !_DEBUG vvv
; 169  :     constexpr uintptr_t _Min_back_shift = sizeof(void*);
; 170  : #endif // _DEBUG
; 171  :     const uintptr_t _Back_shift = reinterpret_cast<uintptr_t>(_Ptr) - _Ptr_container;

  0004c	2b c2		 sub	 eax, edx

; 172  :     _STL_VERIFY(_Back_shift >= _Min_back_shift && _Back_shift <= _Non_user_size, "invalid argument");

  0004e	83 c0 fc	 add	 eax, -4			; fffffffcH
  00051	83 f8 1f	 cmp	 eax, 31			; 0000001fH
  00054	77 6d		 ja	 SHORT $LN65@CDynamicPo

; 173  :     _Ptr = reinterpret_cast<void*>(_Ptr_container);

  00056	8b c2		 mov	 eax, edx
$LN43@CDynamicPo:

; 264  :         ::operator delete(_Ptr, _Bytes);

  00058	51		 push	 ecx
  00059	50		 push	 eax
  0005a	e8 00 00 00 00	 call	 ??3@YAXPAXI@Z		; operator delete
; File C:\Program Files (x86)\Microsoft Visual Studio\2019\Professional\VC\Tools\MSVC\14.29.30133\include\vector

; 1767 :             _Myfirst = nullptr;

  0005f	c7 47 10 00 00
	00 00		 mov	 DWORD PTR [edi+16], 0
; File C:\Program Files (x86)\Microsoft Visual Studio\2019\Professional\VC\Tools\MSVC\14.29.30133\include\xmemory

; 264  :         ::operator delete(_Ptr, _Bytes);

  00066	83 c4 08	 add	 esp, 8
; File C:\Program Files (x86)\Microsoft Visual Studio\2019\Professional\VC\Tools\MSVC\14.29.30133\include\vector

; 1768 :             _Mylast  = nullptr;

  00069	c7 47 14 00 00
	00 00		 mov	 DWORD PTR [edi+20], 0

; 1769 :             _Myend   = nullptr;

  00070	c7 47 18 00 00
	00 00		 mov	 DWORD PTR [edi+24], 0
$LN27@CDynamicPo:

; 1763 :         if (_Myfirst) { // destroy and deallocate old array

  00077	8b 47 04	 mov	 eax, DWORD PTR [edi+4]
  0007a	85 c0		 test	 eax, eax
  0007c	74 41		 je	 SHORT $LN52@CDynamicPo

; 1764 :             _Destroy(_Myfirst, _Mylast);
; 1765 :             _Getal().deallocate(_Myfirst, static_cast<size_type>(_Myend - _Myfirst));

  0007e	8b 4f 0c	 mov	 ecx, DWORD PTR [edi+12]
  00081	2b c8		 sub	 ecx, eax
; File C:\Program Files (x86)\Microsoft Visual Studio\2019\Professional\VC\Tools\MSVC\14.29.30133\include\xmemory

; 835  :         _Deallocate<_New_alignof<_Ty>>(_Ptr, sizeof(_Ty) * _Count);

  00083	83 e1 fc	 and	 ecx, -4			; fffffffcH

; 260  :         if (_Bytes >= _Big_allocation_threshold) { // boost the alignment of big allocations to help autovectorization

  00086	81 f9 00 10 00
	00		 cmp	 ecx, 4096		; 00001000H
  0008c	72 12		 jb	 SHORT $LN68@CDynamicPo

; 158  :     const uintptr_t _Ptr_container   = _Ptr_user[-1];

  0008e	8b 50 fc	 mov	 edx, DWORD PTR [eax-4]
  00091	83 c1 23	 add	 ecx, 35			; 00000023H

; 159  : 
; 160  :     // If the following asserts, it likely means that we are performing
; 161  :     // an aligned delete on memory coming from an unaligned allocation.
; 162  :     _STL_ASSERT(_Ptr_user[-2] == _Big_allocation_sentinel, "invalid argument");
; 163  : 
; 164  :     // Extra paranoia on aligned allocation/deallocation; ensure _Ptr_container is
; 165  :     // in range [_Min_back_shift, _Non_user_size]
; 166  : #ifdef _DEBUG
; 167  :     constexpr uintptr_t _Min_back_shift = 2 * sizeof(void*);
; 168  : #else // ^^^ _DEBUG ^^^ // vvv !_DEBUG vvv
; 169  :     constexpr uintptr_t _Min_back_shift = sizeof(void*);
; 170  : #endif // _DEBUG
; 171  :     const uintptr_t _Back_shift = reinterpret_cast<uintptr_t>(_Ptr) - _Ptr_container;

  00094	2b c2		 sub	 eax, edx

; 172  :     _STL_VERIFY(_Back_shift >= _Min_back_shift && _Back_shift <= _Non_user_size, "invalid argument");

  00096	83 c0 fc	 add	 eax, -4			; fffffffcH
  00099	83 f8 1f	 cmp	 eax, 31			; 0000001fH
  0009c	77 25		 ja	 SHORT $LN65@CDynamicPo

; 173  :     _Ptr = reinterpret_cast<void*>(_Ptr_container);

  0009e	8b c2		 mov	 eax, edx
$LN68@CDynamicPo:

; 264  :         ::operator delete(_Ptr, _Bytes);

  000a0	51		 push	 ecx
  000a1	50		 push	 eax
  000a2	e8 00 00 00 00	 call	 ??3@YAXPAXI@Z		; operator delete
; File C:\Program Files (x86)\Microsoft Visual Studio\2019\Professional\VC\Tools\MSVC\14.29.30133\include\vector

; 1767 :             _Myfirst = nullptr;

  000a7	c7 47 04 00 00
	00 00		 mov	 DWORD PTR [edi+4], 0
; File C:\Program Files (x86)\Microsoft Visual Studio\2019\Professional\VC\Tools\MSVC\14.29.30133\include\xmemory

; 264  :         ::operator delete(_Ptr, _Bytes);

  000ae	83 c4 08	 add	 esp, 8
; File C:\Program Files (x86)\Microsoft Visual Studio\2019\Professional\VC\Tools\MSVC\14.29.30133\include\vector

; 1768 :             _Mylast  = nullptr;

  000b1	c7 47 08 00 00
	00 00		 mov	 DWORD PTR [edi+8], 0

; 1769 :             _Myend   = nullptr;

  000b8	c7 47 0c 00 00
	00 00		 mov	 DWORD PTR [edi+12], 0
$LN52@CDynamicPo:
  000bf	5f		 pop	 edi
; File C:\Users\murat\Desktop\Siveps2-1-99-Project\source\client\Client\eterLib\Pool.h

; 142  : 		}

  000c0	5e		 pop	 esi
  000c1	5b		 pop	 ebx
  000c2	c3		 ret	 0
$LN65@CDynamicPo:
; File C:\Program Files (x86)\Microsoft Visual Studio\2019\Professional\VC\Tools\MSVC\14.29.30133\include\xmemory

; 172  :     _STL_VERIFY(_Back_shift >= _Min_back_shift && _Back_shift <= _Non_user_size, "invalid argument");

  000c3	e8 00 00 00 00	 call	 __invalid_parameter_noinfo_noreturn
$LN77@CDynamicPo:
  000c8	cc		 int	 3
??1?$CDynamicPoolEx@VCRotationDecorator@NEffectUpdateDecorator@@@@UAE@XZ ENDP ; CDynamicPoolEx<NEffectUpdateDecorator::CRotationDecorator>::~CDynamicPoolEx<NEffectUpdateDecorator::CRotationDecorator>
_TEXT	ENDS
; Function compile flags: /Ogtp
; File C:\Users\murat\Desktop\Siveps2-1-99-Project\source\client\Client\GameLib\ActorInstanceBattle.cpp
;	COMDAT ?IS_PARTY_HUNTING_RACE@@YA_NI@Z
_TEXT	SEGMENT
_vnum$ = 8						; size = 4
?IS_PARTY_HUNTING_RACE@@YA_NI@Z PROC			; IS_PARTY_HUNTING_RACE, COMDAT

; 611  : 	return true;

  00000	b0 01		 mov	 al, 1

; 612  : 
; 613  : 	//     
; 614  : 	/*
; 615  : 	if (vnum < 8) // 
; 616  : 		return true;
; 617  : 
; 618  : 	if (vnum >= 8000 && vnum <= 8112) // 
; 619  : 		return true;
; 620  : 
; 621  : 	if (vnum >= 2400 && vnum <  5000) //    
; 622  : 		return true;
; 623  : 
; 624  : 	return false;
; 625  : 	*/
; 626  : }

  00002	c3		 ret	 0
?IS_PARTY_HUNTING_RACE@@YA_NI@Z ENDP			; IS_PARTY_HUNTING_RACE
_TEXT	ENDS
; Function compile flags: /Ogtp
; File C:\Users\murat\Desktop\Siveps2-1-99-Project\source\client\Client\GameLib\ActorInstanceBattle.cpp
;	COMDAT ?IS_HUGE_RACE@@YA_NI@Z
_TEXT	SEGMENT
_vnum$ = 8						; size = 4
?IS_HUGE_RACE@@YA_NI@Z PROC				; IS_HUGE_RACE, COMDAT

; 553  : {

  00000	55		 push	 ebp
  00001	8b ec		 mov	 ebp, esp

; 554  : 	switch (vnum)

  00003	8b 45 08	 mov	 eax, DWORD PTR _vnum$[ebp]
  00006	3d 26 0a 00 00	 cmp	 eax, 2598		; 00000a26H
  0000b	77 26		 ja	 SHORT $LN14@IS_HUGE_RA
  0000d	74 20		 je	 SHORT $LN8@IS_HUGE_RA
  0000f	3d 2c 08 00 00	 cmp	 eax, 2092		; 0000082cH
  00014	77 12		 ja	 SHORT $LN15@IS_HUGE_RA
  00016	74 17		 je	 SHORT $LN8@IS_HUGE_RA
  00018	2d a7 04 00 00	 sub	 eax, 1191		; 000004a7H
  0001d	74 10		 je	 SHORT $LN8@IS_HUGE_RA
  0001f	83 e8 01	 sub	 eax, 1
  00022	74 0b		 je	 SHORT $LN8@IS_HUGE_RA
$LN2@IS_HUGE_RA:

; 566  : 	case 2598:
; 567  : 		return true;
; 568  : 	case 2092:
; 569  : 		return true;
; 570  : 	case 1191:
; 571  : 		return true;
; 572  : 	case 1192:
; 573  : 		return true;
; 574  : 	}
; 575  : 	return false;

  00024	32 c0		 xor	 al, al

; 576  : }

  00026	5d		 pop	 ebp
  00027	c3		 ret	 0
$LN15@IS_HUGE_RA:

; 554  : 	switch (vnum)

  00028	3d bd 09 00 00	 cmp	 eax, 2493		; 000009bdH
  0002d	75 f5		 jne	 SHORT $LN2@IS_HUGE_RA
$LN8@IS_HUGE_RA:

; 555  : 	{
; 556  : 	case 2493:
; 557  : 		return true;
; 558  : 	case 6191:
; 559  : 		return true;
; 560  : 	case 6192:
; 561  : 		return true;
; 562  : 	case 6193:
; 563  : 		return true;
; 564  : 	case 6091:
; 565  : 		return true;

  0002f	b0 01		 mov	 al, 1

; 576  : }

  00031	5d		 pop	 ebp
  00032	c3		 ret	 0
$LN14@IS_HUGE_RA:

; 554  : 	switch (vnum)

  00033	05 35 e8 ff ff	 add	 eax, -6091		; ffffe835H
  00038	83 f8 66	 cmp	 eax, 102		; 00000066H
  0003b	77 e7		 ja	 SHORT $LN2@IS_HUGE_RA
  0003d	0f b6 80 00 00
	00 00		 movzx	 eax, BYTE PTR $LN16@IS_HUGE_RA[eax]
  00044	ff 24 85 00 00
	00 00		 jmp	 DWORD PTR $LN17@IS_HUGE_RA[eax*4]
  0004b	90		 npad	 1
$LN17@IS_HUGE_RA:

; 576  : }

  0004c	00 00 00 00	 DD	 $LN8@IS_HUGE_RA
  00050	00 00 00 00	 DD	 $LN2@IS_HUGE_RA
$LN16@IS_HUGE_RA:
  00054	00		 DB	 0
  00055	01		 DB	 1
  00056	01		 DB	 1
  00057	01		 DB	 1
  00058	01		 DB	 1
  00059	01		 DB	 1
  0005a	01		 DB	 1
  0005b	01		 DB	 1
  0005c	01		 DB	 1
  0005d	01		 DB	 1
  0005e	01		 DB	 1
  0005f	01		 DB	 1
  00060	01		 DB	 1
  00061	01		 DB	 1
  00062	01		 DB	 1
  00063	01		 DB	 1
  00064	01		 DB	 1
  00065	01		 DB	 1
  00066	01		 DB	 1
  00067	01		 DB	 1
  00068	01		 DB	 1
  00069	01		 DB	 1
  0006a	01		 DB	 1
  0006b	01		 DB	 1
  0006c	01		 DB	 1
  0006d	01		 DB	 1
  0006e	01		 DB	 1
  0006f	01		 DB	 1
  00070	01		 DB	 1
  00071	01		 DB	 1
  00072	01		 DB	 1
  00073	01		 DB	 1
  00074	01		 DB	 1
  00075	01		 DB	 1
  00076	01		 DB	 1
  00077	01		 DB	 1
  00078	01		 DB	 1
  00079	01		 DB	 1
  0007a	01		 DB	 1
  0007b	01		 DB	 1
  0007c	01		 DB	 1
  0007d	01		 DB	 1
  0007e	01		 DB	 1
  0007f	01		 DB	 1
  00080	01		 DB	 1
  00081	01		 DB	 1
  00082	01		 DB	 1
  00083	01		 DB	 1
  00084	01		 DB	 1
  00085	01		 DB	 1
  00086	01		 DB	 1
  00087	01		 DB	 1
  00088	01		 DB	 1
  00089	01		 DB	 1
  0008a	01		 DB	 1
  0008b	01		 DB	 1
  0008c	01		 DB	 1
  0008d	01		 DB	 1
  0008e	01		 DB	 1
  0008f	01		 DB	 1
  00090	01		 DB	 1
  00091	01		 DB	 1
  00092	01		 DB	 1
  00093	01		 DB	 1
  00094	01		 DB	 1
  00095	01		 DB	 1
  00096	01		 DB	 1
  00097	01		 DB	 1
  00098	01		 DB	 1
  00099	01		 DB	 1
  0009a	01		 DB	 1
  0009b	01		 DB	 1
  0009c	01		 DB	 1
  0009d	01		 DB	 1
  0009e	01		 DB	 1
  0009f	01		 DB	 1
  000a0	01		 DB	 1
  000a1	01		 DB	 1
  000a2	01		 DB	 1
  000a3	01		 DB	 1
  000a4	01		 DB	 1
  000a5	01		 DB	 1
  000a6	01		 DB	 1
  000a7	01		 DB	 1
  000a8	01		 DB	 1
  000a9	01		 DB	 1
  000aa	01		 DB	 1
  000ab	01		 DB	 1
  000ac	01		 DB	 1
  000ad	01		 DB	 1
  000ae	01		 DB	 1
  000af	01		 DB	 1
  000b0	01		 DB	 1
  000b1	01		 DB	 1
  000b2	01		 DB	 1
  000b3	01		 DB	 1
  000b4	01		 DB	 1
  000b5	01		 DB	 1
  000b6	01		 DB	 1
  000b7	01		 DB	 1
  000b8	00		 DB	 0
  000b9	00		 DB	 0
  000ba	00		 DB	 0
?IS_HUGE_RACE@@YA_NI@Z ENDP				; IS_HUGE_RACE
_TEXT	ENDS
; Function compile flags: /Ogtp
; File C:\Users\murat\Desktop\Siveps2-1-99-Project\source\client\Client\GameLib\ActorInstanceBattle.cpp
;	COMDAT ?__IsMovingSkill@CActorInstance@@IAEHG@Z
_TEXT	SEGMENT
_wSkillNumber$ = 8					; size = 2
?__IsMovingSkill@CActorInstance@@IAEHG@Z PROC		; CActorInstance::__IsMovingSkill, COMDAT
; _this$ = ecx

; 413  : {

  00000	55		 push	 ebp
  00001	8b ec		 mov	 ebp, esp

; 414  : 	enum
; 415  : 	{
; 416  : 		HORSE_DASH_SKILL_NUMBER = 137,
; 417  : 	};
; 418  : 
; 419  : 	return HORSE_DASH_SKILL_NUMBER == wSkillNumber;

  00003	b9 89 00 00 00	 mov	 ecx, 137		; 00000089H
  00008	33 c0		 xor	 eax, eax
  0000a	66 3b 4d 08	 cmp	 cx, WORD PTR _wSkillNumber$[ebp]
  0000e	0f 94 c0	 sete	 al

; 420  : }

  00011	5d		 pop	 ebp
  00012	c2 04 00	 ret	 4
?__IsMovingSkill@CActorInstance@@IAEHG@Z ENDP		; CActorInstance::__IsMovingSkill
_TEXT	ENDS
; Function compile flags: /Ogtp
; File C:\Users\murat\Desktop\Siveps2-1-99-Project\source\client\Client\GameLib\ActorInstanceBattle.cpp
; File C:\Users\murat\Desktop\Siveps2-1-99-Project\source\client\extern\include\d3dx8math.inl
; File C:\Users\murat\Desktop\Siveps2-1-99-Project\source\client\Client\GameLib\ActorInstanceBattle.cpp
; File C:\Users\murat\Desktop\Siveps2-1-99-Project\source\client\extern\include\d3dx8math.inl
; File C:\Users\murat\Desktop\Siveps2-1-99-Project\source\client\Client\GameLib\ActorInstanceBattle.cpp
; File C:\Users\murat\Desktop\Siveps2-1-99-Project\source\client\extern\include\d3dx8math.inl
; File C:\Users\murat\Desktop\Siveps2-1-99-Project\source\client\Client\GameLib\ActorInstanceBattle.cpp
;	COMDAT ?__SetFallingDirection@CActorInstance@@IAEXMM@Z
_TEXT	SEGMENT
$T1 = -16						; size = 12
__$ArrayPad$ = -4					; size = 4
_fx$ = 8						; size = 4
_fy$ = 12						; size = 4
?__SetFallingDirection@CActorInstance@@IAEXMM@Z PROC	; CActorInstance::__SetFallingDirection, COMDAT
; _this$ = ecx

; 987  : {

  00000	55		 push	 ebp
  00001	8b ec		 mov	 ebp, esp
  00003	83 ec 10	 sub	 esp, 16			; 00000010H
  00006	a1 00 00 00 00	 mov	 eax, DWORD PTR ___security_cookie
  0000b	33 c5		 xor	 eax, ebp
  0000d	89 45 fc	 mov	 DWORD PTR __$ArrayPad$[ebp], eax
  00010	f3 0f 10 45 08	 movss	 xmm0, DWORD PTR _fx$[ebp]

; 988  : 	m_PhysicsObject.SetDirection(D3DXVECTOR3(fx, fy, 0.0f));

  00015	8d 45 f0	 lea	 eax, DWORD PTR $T1[ebp]
; File C:\Users\murat\Desktop\Siveps2-1-99-Project\source\client\extern\include\d3dx8math.inl

; 180  :     x = fx;

  00018	f3 0f 11 45 f0	 movss	 DWORD PTR $T1[ebp], xmm0
; File C:\Users\murat\Desktop\Siveps2-1-99-Project\source\client\Client\GameLib\ActorInstanceBattle.cpp

; 988  : 	m_PhysicsObject.SetDirection(D3DXVECTOR3(fx, fy, 0.0f));

  0001d	81 c1 80 03 00
	00		 add	 ecx, 896		; 00000380H
; File C:\Users\murat\Desktop\Siveps2-1-99-Project\source\client\extern\include\d3dx8math.inl

; 181  :     y = fy;

  00023	f3 0f 10 45 0c	 movss	 xmm0, DWORD PTR _fy$[ebp]
; File C:\Users\murat\Desktop\Siveps2-1-99-Project\source\client\Client\GameLib\ActorInstanceBattle.cpp

; 988  : 	m_PhysicsObject.SetDirection(D3DXVECTOR3(fx, fy, 0.0f));

  00028	50		 push	 eax
; File C:\Users\murat\Desktop\Siveps2-1-99-Project\source\client\extern\include\d3dx8math.inl

; 181  :     y = fy;

  00029	f3 0f 11 45 f4	 movss	 DWORD PTR $T1[ebp+4], xmm0

; 182  :     z = fz;

  0002e	c7 45 f8 00 00
	00 00		 mov	 DWORD PTR $T1[ebp+8], 0
; File C:\Users\murat\Desktop\Siveps2-1-99-Project\source\client\Client\GameLib\ActorInstanceBattle.cpp

; 988  : 	m_PhysicsObject.SetDirection(D3DXVECTOR3(fx, fy, 0.0f));

  00035	e8 00 00 00 00	 call	 ?SetDirection@CPhysicsObject@@QAEXABUD3DXVECTOR3@@@Z ; CPhysicsObject::SetDirection

; 989  : }

  0003a	8b 4d fc	 mov	 ecx, DWORD PTR __$ArrayPad$[ebp]
  0003d	33 cd		 xor	 ecx, ebp
  0003f	e8 00 00 00 00	 call	 @__security_check_cookie@4
  00044	8b e5		 mov	 esp, ebp
  00046	5d		 pop	 ebp
  00047	c2 08 00	 ret	 8
?__SetFallingDirection@CActorInstance@@IAEXMM@Z ENDP	; CActorInstance::__SetFallingDirection
_TEXT	ENDS
; Function compile flags: /Ogtp
; File C:\Users\murat\Desktop\Siveps2-1-99-Project\source\client\Client\GameLib\ActorInstanceBattle.cpp
;	COMDAT ?__isInvisible@CActorInstance@@IAE_NXZ
_TEXT	SEGMENT
tv129 = -4						; size = 4
?__isInvisible@CActorInstance@@IAE_NXZ PROC		; CActorInstance::__isInvisible, COMDAT
; _this$ = ecx

; 976  : {

  00000	55		 push	 ebp
  00001	8b ec		 mov	 ebp, esp
  00003	51		 push	 ecx
  00004	56		 push	 esi
  00005	8b f1		 mov	 esi, ecx

; 977  : 	if (IsDead())

  00007	e8 00 00 00 00	 call	 ?IsDead@CActorInstance@@QAEHXZ ; CActorInstance::IsDead
  0000c	85 c0		 test	 eax, eax
  0000e	75 23		 jne	 SHORT $LN3@isInvisibl

; 978  : 		return true;
; 979  : 
; 980  : 	if (CTimer::Instance().GetCurrentSecond() >= m_fInvisibleTime)

  00010	8b 0d 00 00 00
	00		 mov	 ecx, DWORD PTR ?ms_singleton@?$CSingleton@VCTimer@@@@0PAVCTimer@@A ; CSingleton<CTimer>::ms_singleton
  00016	e8 00 00 00 00	 call	 ?GetCurrentSecond@CTimer@@QAEMXZ ; CTimer::GetCurrentSecond
  0001b	d9 5d fc	 fstp	 DWORD PTR tv129[ebp]
  0001e	f3 0f 10 45 fc	 movss	 xmm0, DWORD PTR tv129[ebp]
  00023	0f 2f 86 28 04
	00 00		 comiss	 xmm0, DWORD PTR [esi+1064]
  0002a	72 07		 jb	 SHORT $LN3@isInvisibl

; 981  : 		return false;

  0002c	32 c0		 xor	 al, al
  0002e	5e		 pop	 esi

; 984  : }

  0002f	8b e5		 mov	 esp, ebp
  00031	5d		 pop	 ebp
  00032	c3		 ret	 0
$LN3@isInvisibl:

; 982  : 
; 983  : 	return true;

  00033	b0 01		 mov	 al, 1
  00035	5e		 pop	 esi

; 984  : }

  00036	8b e5		 mov	 esp, ebp
  00038	5d		 pop	 ebp
  00039	c3		 ret	 0
?__isInvisible@CActorInstance@@IAE_NXZ ENDP		; CActorInstance::__isInvisible
_TEXT	ENDS
; Function compile flags: /Ogtp
; File C:\Users\murat\Desktop\Siveps2-1-99-Project\source\client\Client\GameLib\ActorInstanceBattle.cpp
; File C:\Users\murat\Desktop\Siveps2-1-99-Project\source\client\extern\include\d3dx8math.inl
; File C:\Users\murat\Desktop\Siveps2-1-99-Project\source\client\Client\GameLib\ActorInstanceBattle.cpp
;	COMDAT ?__PushCircle@CActorInstance@@IAEXAAV1@@Z
_TEXT	SEGMENT
tv248 = -24						; size = 4
tv254 = -20						; size = 4
_v3Direction$ = -16					; size = 12
__$ArrayPad$ = -4					; size = 4
_rVictim$ = 8						; size = 4
?__PushCircle@CActorInstance@@IAEXAAV1@@Z PROC		; CActorInstance::__PushCircle, COMDAT
; _this$ = ecx

; 946  : {

  00000	55		 push	 ebp
  00001	8b ec		 mov	 ebp, esp
  00003	83 ec 18	 sub	 esp, 24			; 00000018H
  00006	a1 00 00 00 00	 mov	 eax, DWORD PTR ___security_cookie
  0000b	33 c5		 xor	 eax, ebp
  0000d	89 45 fc	 mov	 DWORD PTR __$ArrayPad$[ebp], eax
  00010	56		 push	 esi
  00011	8b 75 08	 mov	 esi, DWORD PTR _rVictim$[ebp]

; 947  : 	const TPixelPosition& c_rkPPosAtk=NEW_GetAtkPixelPositionRef();

  00014	e8 00 00 00 00	 call	 ?NEW_GetAtkPixelPositionRef@CActorInstance@@QAEABUD3DXVECTOR3@@XZ ; CActorInstance::NEW_GetAtkPixelPositionRef

; 950  : 
; 951  : 	const D3DXVECTOR3& c_rv3SrcPos = v3SrcPos;
; 952  : 	const D3DXVECTOR3& c_rv3DstPos = rVictim.GetPosition();

  00019	8b ce		 mov	 ecx, esi
; File C:\Users\murat\Desktop\Siveps2-1-99-Project\source\client\extern\include\d3dx8math.inl

; 180  :     x = fx;

  0001b	f3 0f 10 00	 movss	 xmm0, DWORD PTR [eax]
  0001f	f3 0f 11 45 ec	 movss	 DWORD PTR tv254[ebp], xmm0
; File C:\Users\murat\Desktop\Siveps2-1-99-Project\source\client\Client\GameLib\ActorInstanceBattle.cpp

; 949  : 	D3DXVECTOR3 v3SrcPos(c_rkPPosAtk.x, -c_rkPPosAtk.y, c_rkPPosAtk.z);

  00024	f3 0f 10 40 04	 movss	 xmm0, DWORD PTR [eax+4]
  00029	f3 0f 11 45 e8	 movss	 DWORD PTR tv248[ebp], xmm0

; 950  : 
; 951  : 	const D3DXVECTOR3& c_rv3SrcPos = v3SrcPos;
; 952  : 	const D3DXVECTOR3& c_rv3DstPos = rVictim.GetPosition();

  0002e	e8 00 00 00 00	 call	 ?GetPosition@CGraphicObjectInstance@@QBEABUD3DXVECTOR3@@XZ ; CGraphicObjectInstance::GetPosition
  00033	f3 0f 10 4d e8	 movss	 xmm1, DWORD PTR tv248[ebp]
  00038	0f 57 0d 00 00
	00 00		 xorps	 xmm1, DWORD PTR __xmm@80000000800000008000000080000000

; 953  : 
; 954  : 	D3DXVECTOR3 v3Direction;
; 955  : 	v3Direction.x = c_rv3DstPos.x - c_rv3SrcPos.x;

  0003f	f3 0f 10 00	 movss	 xmm0, DWORD PTR [eax]
  00043	f3 0f 5c 45 ec	 subss	 xmm0, DWORD PTR tv254[ebp]
  00048	f3 0f 11 45 f0	 movss	 DWORD PTR _v3Direction$[ebp], xmm0

; 956  : 	v3Direction.y = c_rv3DstPos.y - c_rv3SrcPos.y;

  0004d	f3 0f 10 40 04	 movss	 xmm0, DWORD PTR [eax+4]

; 957  : 	v3Direction.z = 0.0f;
; 958  : 	D3DXVec3Normalize(&v3Direction, &v3Direction);

  00052	8d 45 f0	 lea	 eax, DWORD PTR _v3Direction$[ebp]
  00055	f3 0f 5c c1	 subss	 xmm0, xmm1
  00059	c7 45 f8 00 00
	00 00		 mov	 DWORD PTR _v3Direction$[ebp+8], 0
  00060	50		 push	 eax
  00061	50		 push	 eax
  00062	f3 0f 11 45 f4	 movss	 DWORD PTR _v3Direction$[ebp+4], xmm0
  00067	e8 00 00 00 00	 call	 _D3DXVec3Normalize@8

; 959  : 
; 960  : 	rVictim.__SetFallingDirection(v3Direction.x, v3Direction.y);

  0006c	f3 0f 10 45 f4	 movss	 xmm0, DWORD PTR _v3Direction$[ebp+4]
  00071	83 ec 08	 sub	 esp, 8
  00074	8b ce		 mov	 ecx, esi
  00076	f3 0f 11 44 24
	04		 movss	 DWORD PTR [esp+4], xmm0
  0007c	f3 0f 10 45 f0	 movss	 xmm0, DWORD PTR _v3Direction$[ebp]
  00081	f3 0f 11 04 24	 movss	 DWORD PTR [esp], xmm0
  00086	e8 00 00 00 00	 call	 ?__SetFallingDirection@CActorInstance@@IAEXMM@Z ; CActorInstance::__SetFallingDirection

; 961  : }

  0008b	8b 4d fc	 mov	 ecx, DWORD PTR __$ArrayPad$[ebp]
  0008e	33 cd		 xor	 ecx, ebp
  00090	5e		 pop	 esi
  00091	e8 00 00 00 00	 call	 @__security_check_cookie@4
  00096	8b e5		 mov	 esp, ebp
  00098	5d		 pop	 ebp
  00099	c2 04 00	 ret	 4
?__PushCircle@CActorInstance@@IAEXAAV1@@Z ENDP		; CActorInstance::__PushCircle
_TEXT	ENDS
; Function compile flags: /Ogtp
; File C:\Users\murat\Desktop\Siveps2-1-99-Project\source\client\Client\GameLib\ActorInstanceBattle.cpp
; File C:\Program Files (x86)\Windows Kits\10\Include\10.0.19041.0\ucrt\corecrt_math.h
; File C:\Users\murat\Desktop\Siveps2-1-99-Project\source\client\Client\GameLib\ActorInstanceBattle.cpp
; File C:\Program Files (x86)\Windows Kits\10\Include\10.0.19041.0\ucrt\corecrt_math.h
; File C:\Users\murat\Desktop\Siveps2-1-99-Project\source\client\Client\GameLib\ActorInstanceBattle.cpp
;	COMDAT ?__PushDirect@CActorInstance@@IAEXAAV1@@Z
_TEXT	SEGMENT
tv171 = -12						; size = 8
_v3Direction$$sroa$90$1$ = -4				; size = 4
_rVictim$ = 8						; size = 4
?__PushDirect@CActorInstance@@IAEXAAV1@@Z PROC		; CActorInstance::__PushDirect, COMDAT
; _this$ = ecx

; 964  : {

  00000	55		 push	 ebp
  00001	8b ec		 mov	 ebp, esp
  00003	83 ec 0c	 sub	 esp, 12			; 0000000cH

; 965  : 	D3DXVECTOR3 v3Direction;
; 966  : 	v3Direction.x = cosf(D3DXToRadian(m_fcurRotation + 270.0f));

  00006	f3 0f 10 81 a0
	04 00 00	 movss	 xmm0, DWORD PTR [ecx+1184]
  0000e	f3 0f 58 05 00
	00 00 00	 addss	 xmm0, DWORD PTR __real@43870000
  00016	f3 0f 59 05 00
	00 00 00	 mulss	 xmm0, DWORD PTR __real@3c8efa35
; File C:\Program Files (x86)\Windows Kits\10\Include\10.0.19041.0\ucrt\corecrt_math.h

; 647  :             return (float)cos(_X);

  0001e	0f 5a c0	 cvtps2pd xmm0, xmm0
  00021	f2 0f 11 45 f4	 movsd	 QWORD PTR tv171[ebp], xmm0
  00026	e8 00 00 00 00	 call	 __libm_sse2_cos_precise
  0002b	f2 0f 5a c0	 cvtsd2ss xmm0, xmm0
  0002f	f3 0f 11 45 fc	 movss	 DWORD PTR _v3Direction$$sroa$90$1$[ebp], xmm0

; 748  :             return (float)sin(_X);

  00034	f2 0f 10 45 f4	 movsd	 xmm0, QWORD PTR tv171[ebp]
  00039	e8 00 00 00 00	 call	 __libm_sse2_sin_precise
; File C:\Users\murat\Desktop\Siveps2-1-99-Project\source\client\Client\GameLib\ActorInstanceBattle.cpp

; 970  : 	rVictim.__SetFallingDirection(v3Direction.x, v3Direction.y);

  0003e	8b 4d 08	 mov	 ecx, DWORD PTR _rVictim$[ebp]
  00041	83 ec 08	 sub	 esp, 8
; File C:\Program Files (x86)\Windows Kits\10\Include\10.0.19041.0\ucrt\corecrt_math.h

; 748  :             return (float)sin(_X);

  00044	f2 0f 5a c0	 cvtsd2ss xmm0, xmm0
; File C:\Users\murat\Desktop\Siveps2-1-99-Project\source\client\Client\GameLib\ActorInstanceBattle.cpp

; 970  : 	rVictim.__SetFallingDirection(v3Direction.x, v3Direction.y);

  00048	f3 0f 11 44 24
	04		 movss	 DWORD PTR [esp+4], xmm0
  0004e	f3 0f 10 45 fc	 movss	 xmm0, DWORD PTR _v3Direction$$sroa$90$1$[ebp]
  00053	f3 0f 11 04 24	 movss	 DWORD PTR [esp], xmm0
  00058	e8 00 00 00 00	 call	 ?__SetFallingDirection@CActorInstance@@IAEXMM@Z ; CActorInstance::__SetFallingDirection

; 971  : }

  0005d	8b e5		 mov	 esp, ebp
  0005f	5d		 pop	 ebp
  00060	c2 04 00	 ret	 4
?__PushDirect@CActorInstance@@IAEXAAV1@@Z ENDP		; CActorInstance::__PushDirect
_TEXT	ENDS
; Function compile flags: /Ogtp
; File C:\Users\murat\Desktop\Siveps2-1-99-Project\source\client\Client\GameLib\ActorInstanceBattle.cpp
; File C:\Program Files (x86)\Windows Kits\10\Include\10.0.19041.0\ucrt\corecrt_math.h
; File C:\Users\murat\Desktop\Siveps2-1-99-Project\source\client\Client\GameLib\ActorInstanceBattle.cpp
; File C:\Program Files (x86)\Windows Kits\10\Include\10.0.19041.0\ucrt\corecrt_math.h
; File C:\Users\murat\Desktop\Siveps2-1-99-Project\source\client\extern\include\d3dx8math.inl
; File C:\Program Files (x86)\Windows Kits\10\Include\10.0.19041.0\ucrt\corecrt_math.h
; File C:\Users\murat\Desktop\Siveps2-1-99-Project\source\client\extern\include\d3dx8math.inl
; File C:\Program Files (x86)\Windows Kits\10\Include\10.0.19041.0\ucrt\corecrt_math.h
; File C:\Users\murat\Desktop\Siveps2-1-99-Project\source\client\extern\include\d3dx8math.inl
; File C:\Program Files (x86)\Windows Kits\10\Include\10.0.19041.0\ucrt\corecrt_math.h
; File C:\Users\murat\Desktop\Siveps2-1-99-Project\source\client\Client\GameLib\ActorInstanceBattle.cpp
; File C:\Users\murat\Desktop\Siveps2-1-99-Project\source\client\extern\include\d3dx8math.inl
; File C:\Users\murat\Desktop\Siveps2-1-99-Project\source\client\Client\GameLib\ActorInstanceBattle.cpp
; File C:\Users\murat\Desktop\Siveps2-1-99-Project\source\client\extern\include\d3dx8math.inl
; File C:\Users\murat\Desktop\Siveps2-1-99-Project\source\client\Client\GameLib\ActorInstanceBattle.cpp
; File C:\Users\murat\Desktop\Siveps2-1-99-Project\source\client\extern\include\d3dx8math.inl
; File C:\Users\murat\Desktop\Siveps2-1-99-Project\source\client\Client\GameLib\ActorInstanceBattle.cpp
; File C:\Users\murat\Desktop\Siveps2-1-99-Project\source\client\extern\include\d3dx8math.inl
; File C:\Users\murat\Desktop\Siveps2-1-99-Project\source\client\Client\GameLib\ActorInstanceBattle.cpp
;	COMDAT ?__HitGreate@CActorInstance@@IAEXAAV1@@Z
_TEXT	SEGMENT
_v2Normal$ = -20					; size = 8
_v2VictimNormal$ = -12					; size = 8
_fVictimRotRad$ = -4					; size = 4
_fScalar$1$ = 8						; size = 4
_fRotRad$ = 8						; size = 4
_rVictim$ = 8						; size = 4
?__HitGreate@CActorInstance@@IAEXAAV1@@Z PROC		; CActorInstance::__HitGreate, COMDAT
; _this$ = ecx

; 846  : {

  00000	55		 push	 ebp
  00001	8b ec		 mov	 ebp, esp
  00003	83 ec 14	 sub	 esp, 20			; 00000014H
  00006	56		 push	 esi

; 847  : 	// DISABLE_KNOCKDOWN_ATTACK
; 848  : 	if (rVictim.IsKnockDown())

  00007	8b 75 08	 mov	 esi, DWORD PTR _rVictim$[ebp]
  0000a	57		 push	 edi
  0000b	8b f9		 mov	 edi, ecx
  0000d	8b ce		 mov	 ecx, esi
  0000f	e8 00 00 00 00	 call	 ?IsKnockDown@CActorInstance@@QAEHXZ ; CActorInstance::IsKnockDown
  00014	85 c0		 test	 eax, eax
  00016	0f 85 c8 01 00
	00		 jne	 $LN14@HitGreate

; 849  : 		return;
; 850  : 	if (rVictim.__IsStandUpMotion())

  0001c	8b ce		 mov	 ecx, esi
  0001e	e8 00 00 00 00	 call	 ?__IsStandUpMotion@CActorInstance@@IAE_NXZ ; CActorInstance::__IsStandUpMotion
  00023	84 c0		 test	 al, al
  00025	0f 85 b9 01 00
	00		 jne	 $LN14@HitGreate

; 851  : 		return;
; 852  : 	// END_OF_DISABLE_KNOCKDOWN_ATTACK
; 853  : 
; 854  : 	float fRotRad = D3DXToRadian(GetRotation());

  0002b	8b cf		 mov	 ecx, edi
  0002d	e8 00 00 00 00	 call	 ?GetRotation@CActorInstance@@QAEMXZ ; CActorInstance::GetRotation
  00032	d8 0d 00 00 00
	00		 fmul	 DWORD PTR __real@3c8efa35

; 855  : 	float fVictimRotRad = D3DXToRadian(rVictim.GetRotation());

  00038	8b ce		 mov	 ecx, esi
  0003a	d9 5d 08	 fstp	 DWORD PTR _fRotRad$[ebp]
  0003d	e8 00 00 00 00	 call	 ?GetRotation@CActorInstance@@QAEMXZ ; CActorInstance::GetRotation
  00042	f3 0f 10 45 08	 movss	 xmm0, DWORD PTR _fRotRad$[ebp]
  00047	d8 0d 00 00 00
	00		 fmul	 DWORD PTR __real@3c8efa35
; File C:\Program Files (x86)\Windows Kits\10\Include\10.0.19041.0\ucrt\corecrt_math.h

; 748  :             return (float)sin(_X);

  0004d	0f 5a c0	 cvtps2pd xmm0, xmm0
; File C:\Users\murat\Desktop\Siveps2-1-99-Project\source\client\Client\GameLib\ActorInstanceBattle.cpp

; 855  : 	float fVictimRotRad = D3DXToRadian(rVictim.GetRotation());

  00050	d9 5d fc	 fstp	 DWORD PTR _fVictimRotRad$[ebp]
; File C:\Program Files (x86)\Windows Kits\10\Include\10.0.19041.0\ucrt\corecrt_math.h

; 748  :             return (float)sin(_X);

  00053	e8 00 00 00 00	 call	 __libm_sse2_sin_precise
  00058	0f 57 c9	 xorps	 xmm1, xmm1
  0005b	f2 0f 5a c8	 cvtsd2ss xmm1, xmm0
  0005f	f3 0f 10 45 08	 movss	 xmm0, DWORD PTR _fRotRad$[ebp]

; 647  :             return (float)cos(_X);

  00064	0f 5a c0	 cvtps2pd xmm0, xmm0
; File C:\Users\murat\Desktop\Siveps2-1-99-Project\source\client\extern\include\d3dx8math.inl

; 41   :     x = fx;

  00067	f3 0f 11 4d ec	 movss	 DWORD PTR _v2Normal$[ebp], xmm1
; File C:\Program Files (x86)\Windows Kits\10\Include\10.0.19041.0\ucrt\corecrt_math.h

; 647  :             return (float)cos(_X);

  0006c	e8 00 00 00 00	 call	 __libm_sse2_cos_precise
  00071	f2 0f 5a c0	 cvtsd2ss xmm0, xmm0
; File C:\Users\murat\Desktop\Siveps2-1-99-Project\source\client\extern\include\d3dx8math.inl

; 42   :     y = fy;

  00075	f3 0f 11 45 f0	 movss	 DWORD PTR _v2Normal$[ebp+4], xmm0
  0007a	f3 0f 10 45 fc	 movss	 xmm0, DWORD PTR _fVictimRotRad$[ebp]
; File C:\Program Files (x86)\Windows Kits\10\Include\10.0.19041.0\ucrt\corecrt_math.h

; 748  :             return (float)sin(_X);

  0007f	0f 5a c0	 cvtps2pd xmm0, xmm0
  00082	e8 00 00 00 00	 call	 __libm_sse2_sin_precise
  00087	0f 57 c9	 xorps	 xmm1, xmm1
  0008a	f2 0f 5a c8	 cvtsd2ss xmm1, xmm0
  0008e	f3 0f 10 45 fc	 movss	 xmm0, DWORD PTR _fVictimRotRad$[ebp]

; 647  :             return (float)cos(_X);

  00093	0f 5a c0	 cvtps2pd xmm0, xmm0
; File C:\Users\murat\Desktop\Siveps2-1-99-Project\source\client\extern\include\d3dx8math.inl

; 41   :     x = fx;

  00096	f3 0f 11 4d f4	 movss	 DWORD PTR _v2VictimNormal$[ebp], xmm1
; File C:\Program Files (x86)\Windows Kits\10\Include\10.0.19041.0\ucrt\corecrt_math.h

; 647  :             return (float)cos(_X);

  0009b	e8 00 00 00 00	 call	 __libm_sse2_cos_precise
  000a0	f2 0f 5a c0	 cvtsd2ss xmm0, xmm0
; File C:\Users\murat\Desktop\Siveps2-1-99-Project\source\client\Client\GameLib\ActorInstanceBattle.cpp

; 860  : 	D3DXVec2Normalize(&v2Normal, &v2Normal);

  000a4	8d 45 ec	 lea	 eax, DWORD PTR _v2Normal$[ebp]
  000a7	50		 push	 eax
  000a8	50		 push	 eax
; File C:\Users\murat\Desktop\Siveps2-1-99-Project\source\client\extern\include\d3dx8math.inl

; 42   :     y = fy;

  000a9	f3 0f 11 45 f8	 movss	 DWORD PTR _v2VictimNormal$[ebp+4], xmm0
; File C:\Users\murat\Desktop\Siveps2-1-99-Project\source\client\Client\GameLib\ActorInstanceBattle.cpp

; 860  : 	D3DXVec2Normalize(&v2Normal, &v2Normal);

  000ae	e8 00 00 00 00	 call	 _D3DXVec2Normalize@8

; 861  : 	D3DXVec2Normalize(&v2VictimNormal, &v2VictimNormal);

  000b3	8d 45 f4	 lea	 eax, DWORD PTR _v2VictimNormal$[ebp]
  000b6	50		 push	 eax
  000b7	50		 push	 eax
  000b8	e8 00 00 00 00	 call	 _D3DXVec2Normalize@8
; File C:\Users\murat\Desktop\Siveps2-1-99-Project\source\client\extern\include\d3dx8math.inl

; 1132 :     return pV1->x * pV2->x + pV1->y * pV2->y;

  000bd	f3 0f 10 4d f8	 movss	 xmm1, DWORD PTR _v2VictimNormal$[ebp+4]
; File C:\Users\murat\Desktop\Siveps2-1-99-Project\source\client\Client\GameLib\ActorInstanceBattle.cpp

; 865  : 	rVictim.__Shake(100);

  000c2	8b ce		 mov	 ecx, esi
; File C:\Users\murat\Desktop\Siveps2-1-99-Project\source\client\extern\include\d3dx8math.inl

; 1132 :     return pV1->x * pV2->x + pV1->y * pV2->y;

  000c4	f3 0f 10 45 f4	 movss	 xmm0, DWORD PTR _v2VictimNormal$[ebp]
  000c9	f3 0f 59 4d f0	 mulss	 xmm1, DWORD PTR _v2Normal$[ebp+4]
; File C:\Users\murat\Desktop\Siveps2-1-99-Project\source\client\Client\GameLib\ActorInstanceBattle.cpp

; 865  : 	rVictim.__Shake(100);

  000ce	6a 64		 push	 100			; 00000064H
; File C:\Users\murat\Desktop\Siveps2-1-99-Project\source\client\extern\include\d3dx8math.inl

; 1132 :     return pV1->x * pV2->x + pV1->y * pV2->y;

  000d0	f3 0f 59 45 ec	 mulss	 xmm0, DWORD PTR _v2Normal$[ebp]
  000d5	f3 0f 58 c8	 addss	 xmm1, xmm0
  000d9	f3 0f 11 4d 08	 movss	 DWORD PTR _fScalar$1$[ebp], xmm1
; File C:\Users\murat\Desktop\Siveps2-1-99-Project\source\client\Client\GameLib\ActorInstanceBattle.cpp

; 865  : 	rVictim.__Shake(100);

  000de	e8 00 00 00 00	 call	 ?__Shake@CActorInstance@@AAEXK@Z ; CActorInstance::__Shake

; 866  : 
; 867  : 	if (rVictim.IsUsingSkill())

  000e3	8b ce		 mov	 ecx, esi
  000e5	e8 00 00 00 00	 call	 ?IsUsingSkill@CActorInstance@@QAEHXZ ; CActorInstance::IsUsingSkill
  000ea	85 c0		 test	 eax, eax
  000ec	0f 85 f2 00 00
	00		 jne	 $LN14@HitGreate

; 868  : 		return;
; 869  : 
; 870  : 	if (rVictim.IsStun())

  000f2	8b ce		 mov	 ecx, esi
  000f4	e8 00 00 00 00	 call	 ?IsStun@CActorInstance@@QAEHXZ ; CActorInstance::IsStun
  000f9	0f 57 c0	 xorps	 xmm0, xmm0
  000fc	85 c0		 test	 eax, eax
  000fe	74 52		 je	 SHORT $LN5@HitGreate

; 871  : 	{
; 872  : 		if (fScalar < 0.0f)

  00100	0f 2f 45 08	 comiss	 xmm0, DWORD PTR _fScalar$1$[ebp]
  00104	77 1f		 ja	 SHORT $LN39@HitGreate

; 873  : 			rVictim.InterceptOnceMotion(CRaceMotionData::NAME_DAMAGE_FLYING);
; 874  : 		else
; 875  : 		{
; 876  : 			if (!rVictim.InterceptOnceMotion(CRaceMotionData::NAME_DAMAGE_FLYING_BACK))

  00106	51		 push	 ecx
  00107	c7 04 24 00 00
	80 3f		 mov	 DWORD PTR [esp], 1065353216 ; 3f800000H
  0010e	6a 00		 push	 0
  00110	51		 push	 ecx
  00111	c7 04 24 cd cc
	cc 3d		 mov	 DWORD PTR [esp], 1036831949 ; 3dcccccdH
  00118	8b ce		 mov	 ecx, esi
  0011a	6a 09		 push	 9
  0011c	e8 00 00 00 00	 call	 ?InterceptOnceMotion@CActorInstance@@QAE_NKMIM@Z ; CActorInstance::InterceptOnceMotion
  00121	84 c0		 test	 al, al
  00123	75 1b		 jne	 SHORT $LN9@HitGreate
$LN39@HitGreate:

; 877  : 				rVictim.InterceptOnceMotion(CRaceMotionData::NAME_DAMAGE_FLYING);

  00125	51		 push	 ecx
  00126	c7 04 24 00 00
	80 3f		 mov	 DWORD PTR [esp], 1065353216 ; 3f800000H
  0012d	6a 00		 push	 0
  0012f	51		 push	 ecx
  00130	c7 04 24 cd cc
	cc 3d		 mov	 DWORD PTR [esp], 1036831949 ; 3dcccccdH
  00137	8b ce		 mov	 ecx, esi
  00139	6a 06		 push	 6
  0013b	e8 00 00 00 00	 call	 ?InterceptOnceMotion@CActorInstance@@QAE_NKMIM@Z ; CActorInstance::InterceptOnceMotion
$LN9@HitGreate:

; 878  : 		}
; 879  : 
; 880  : 		rVictim.m_isRealDead=true;

  00140	5f		 pop	 edi
  00141	c7 86 44 04 00
	00 01 00 00 00	 mov	 DWORD PTR [esi+1092], 1

; 905  : 				rVictim.PushLoopMotion(CRaceMotionData::NAME_WAIT);
; 906  : 			}
; 907  : 		}
; 908  : 	}
; 909  : }

  0014b	5e		 pop	 esi
  0014c	8b e5		 mov	 esp, ebp
  0014e	5d		 pop	 ebp
  0014f	c2 04 00	 ret	 4
$LN5@HitGreate:

; 881  : 	}
; 882  : 	else
; 883  : 	{
; 884  : 		if (fScalar < 0.0f)

  00152	0f 2f 45 08	 comiss	 xmm0, DWORD PTR _fScalar$1$[ebp]
  00156	51		 push	 ecx
  00157	c7 04 24 00 00
	80 3f		 mov	 DWORD PTR [esp], 1065353216 ; 3f800000H
  0015e	6a 00		 push	 0
  00160	51		 push	 ecx
  00161	c7 04 24 cd cc
	cc 3d		 mov	 DWORD PTR [esp], 1036831949 ; 3dcccccdH
  00168	8b ce		 mov	 ecx, esi
  0016a	76 21		 jbe	 SHORT $LN10@HitGreate
$LN42@HitGreate:

; 905  : 				rVictim.PushLoopMotion(CRaceMotionData::NAME_WAIT);
; 906  : 			}
; 907  : 		}
; 908  : 	}
; 909  : }

  0016c	6a 06		 push	 6
  0016e	e8 00 00 00 00	 call	 ?InterceptOnceMotion@CActorInstance@@QAE_NKMIM@Z ; CActorInstance::InterceptOnceMotion
  00173	84 c0		 test	 al, al
  00175	74 6d		 je	 SHORT $LN14@HitGreate
  00177	83 ec 08	 sub	 esp, 8
  0017a	c7 44 24 04 00
	00 80 3f	 mov	 DWORD PTR [esp+4], 1065353216 ; 3f800000H
  00182	c7 04 24 cd cc
	cc 3d		 mov	 DWORD PTR [esp], 1036831949 ; 3dcccccdH
  00189	6a 07		 push	 7
  0018b	eb 35		 jmp	 SHORT $LN40@HitGreate
$LN10@HitGreate:

; 885  : 		{
; 886  : 			if (rVictim.InterceptOnceMotion(CRaceMotionData::NAME_DAMAGE_FLYING))
; 887  : 			{
; 888  : 				rVictim.PushOnceMotion(CRaceMotionData::NAME_STAND_UP);
; 889  : 				rVictim.PushLoopMotion(CRaceMotionData::NAME_WAIT);
; 890  : 			}
; 891  : 		}
; 892  : 		else
; 893  : 		{
; 894  : 			if (!rVictim.InterceptOnceMotion(CRaceMotionData::NAME_DAMAGE_FLYING_BACK))

  0018d	6a 09		 push	 9
  0018f	e8 00 00 00 00	 call	 ?InterceptOnceMotion@CActorInstance@@QAE_NKMIM@Z ; CActorInstance::InterceptOnceMotion
  00194	84 c0		 test	 al, al
  00196	75 16		 jne	 SHORT $LN13@HitGreate

; 895  : 			{
; 896  : 				if (rVictim.InterceptOnceMotion(CRaceMotionData::NAME_DAMAGE_FLYING))

  00198	51		 push	 ecx
  00199	c7 04 24 00 00
	80 3f		 mov	 DWORD PTR [esp], 1065353216 ; 3f800000H
  001a0	6a 00		 push	 0
  001a2	51		 push	 ecx
  001a3	c7 04 24 cd cc
	cc 3d		 mov	 DWORD PTR [esp], 1036831949 ; 3dcccccdH
  001aa	8b ce		 mov	 ecx, esi

; 897  : 				{
; 898  : 					rVictim.PushOnceMotion(CRaceMotionData::NAME_STAND_UP);
; 899  : 					rVictim.PushLoopMotion(CRaceMotionData::NAME_WAIT);
; 900  : 				}
; 901  : 			}

  001ac	eb be		 jmp	 SHORT $LN42@HitGreate
$LN13@HitGreate:

; 902  : 			else
; 903  : 			{
; 904  : 				rVictim.PushOnceMotion(CRaceMotionData::NAME_STAND_UP_BACK);

  001ae	83 ec 08	 sub	 esp, 8
  001b1	c7 44 24 04 00
	00 80 3f	 mov	 DWORD PTR [esp+4], 1065353216 ; 3f800000H
  001b9	c7 04 24 cd cc
	cc 3d		 mov	 DWORD PTR [esp], 1036831949 ; 3dcccccdH
  001c0	6a 0a		 push	 10			; 0000000aH
$LN40@HitGreate:

; 905  : 				rVictim.PushLoopMotion(CRaceMotionData::NAME_WAIT);
; 906  : 			}
; 907  : 		}
; 908  : 	}
; 909  : }

  001c2	8b ce		 mov	 ecx, esi
  001c4	e8 00 00 00 00	 call	 ?PushOnceMotion@CActorInstance@@QAE_NKMM@Z ; CActorInstance::PushOnceMotion
  001c9	83 ec 08	 sub	 esp, 8
  001cc	8b ce		 mov	 ecx, esi
  001ce	c7 44 24 04 00
	00 80 3f	 mov	 DWORD PTR [esp+4], 1065353216 ; 3f800000H
  001d6	c7 04 24 cd cc
	cc 3d		 mov	 DWORD PTR [esp], 1036831949 ; 3dcccccdH
  001dd	6a 01		 push	 1
  001df	e8 00 00 00 00	 call	 ?PushLoopMotion@CActorInstance@@QAE_NKMM@Z ; CActorInstance::PushLoopMotion
$LN14@HitGreate:
  001e4	5f		 pop	 edi
  001e5	5e		 pop	 esi
  001e6	8b e5		 mov	 esp, ebp
  001e8	5d		 pop	 ebp
  001e9	c2 04 00	 ret	 4
?__HitGreate@CActorInstance@@IAEXAAV1@@Z ENDP		; CActorInstance::__HitGreate
_TEXT	ENDS
; Function compile flags: /Ogtp
; File C:\Users\murat\Desktop\Siveps2-1-99-Project\source\client\Client\GameLib\ActorInstanceBattle.cpp
; File C:\Program Files (x86)\Windows Kits\10\Include\10.0.19041.0\ucrt\corecrt_math.h
; File C:\Users\murat\Desktop\Siveps2-1-99-Project\source\client\Client\GameLib\ActorInstanceBattle.cpp
; File C:\Program Files (x86)\Windows Kits\10\Include\10.0.19041.0\ucrt\corecrt_math.h
; File C:\Users\murat\Desktop\Siveps2-1-99-Project\source\client\extern\include\d3dx8math.inl
; File C:\Program Files (x86)\Windows Kits\10\Include\10.0.19041.0\ucrt\corecrt_math.h
; File C:\Users\murat\Desktop\Siveps2-1-99-Project\source\client\extern\include\d3dx8math.inl
; File C:\Program Files (x86)\Windows Kits\10\Include\10.0.19041.0\ucrt\corecrt_math.h
; File C:\Users\murat\Desktop\Siveps2-1-99-Project\source\client\extern\include\d3dx8math.inl
; File C:\Program Files (x86)\Windows Kits\10\Include\10.0.19041.0\ucrt\corecrt_math.h
; File C:\Users\murat\Desktop\Siveps2-1-99-Project\source\client\Client\GameLib\ActorInstanceBattle.cpp
; File C:\Users\murat\Desktop\Siveps2-1-99-Project\source\client\extern\include\d3dx8math.inl
; File C:\Users\murat\Desktop\Siveps2-1-99-Project\source\client\Client\GameLib\ActorInstanceBattle.cpp
; File C:\Users\murat\Desktop\Siveps2-1-99-Project\source\client\extern\include\d3dx8math.inl
; File C:\Users\murat\Desktop\Siveps2-1-99-Project\source\client\Client\GameLib\ActorInstanceBattle.cpp
; File C:\Users\murat\Desktop\Siveps2-1-99-Project\source\client\extern\include\d3dx8math.inl
; File C:\Users\murat\Desktop\Siveps2-1-99-Project\source\client\Client\GameLib\ActorInstanceBattle.cpp
; File C:\Users\murat\Desktop\Siveps2-1-99-Project\source\client\extern\include\d3dx8math.inl
; File C:\Users\murat\Desktop\Siveps2-1-99-Project\source\client\Client\GameLib\ActorInstanceBattle.cpp
;	COMDAT ?__HitGood@CActorInstance@@IAEXAAV1@@Z
_TEXT	SEGMENT
_v2Normal$1 = -20					; size = 8
_v2VictimNormal$2 = -12					; size = 8
_fVictimRotRad$3 = -4					; size = 4
_fRotRad$4 = 8						; size = 4
_rVictim$ = 8						; size = 4
?__HitGood@CActorInstance@@IAEXAAV1@@Z PROC		; CActorInstance::__HitGood, COMDAT
; _this$ = ecx

; 804  : {

  00000	55		 push	 ebp
  00001	8b ec		 mov	 ebp, esp
  00003	83 ec 14	 sub	 esp, 20			; 00000014H
  00006	56		 push	 esi

; 805  : 	if (rVictim.IsKnockDown())

  00007	8b 75 08	 mov	 esi, DWORD PTR _rVictim$[ebp]
  0000a	57		 push	 edi
  0000b	8b f9		 mov	 edi, ecx
  0000d	8b ce		 mov	 ecx, esi
  0000f	e8 00 00 00 00	 call	 ?IsKnockDown@CActorInstance@@QAEHXZ ; CActorInstance::IsKnockDown
  00014	85 c0		 test	 eax, eax
  00016	0f 85 3b 01 00
	00		 jne	 $LN11@HitGood

; 806  : 		return;
; 807  : 
; 808  : 	if (rVictim.IsStun())

  0001c	8b ce		 mov	 ecx, esi
  0001e	e8 00 00 00 00	 call	 ?IsStun@CActorInstance@@QAEHXZ ; CActorInstance::IsStun
  00023	8b ce		 mov	 ecx, esi
  00025	85 c0		 test	 eax, eax
  00027	74 0d		 je	 SHORT $LN3@HitGood

; 809  : 	{
; 810  : 		rVictim.Die();

  00029	e8 00 00 00 00	 call	 ?Die@CActorInstance@@QAEXXZ ; CActorInstance::Die
  0002e	5f		 pop	 edi

; 839  : 					rVictim.PushLoopMotion(CRaceMotionData::NAME_WAIT);
; 840  : 			}
; 841  : 		}
; 842  : 	}
; 843  : }

  0002f	5e		 pop	 esi
  00030	8b e5		 mov	 esp, ebp
  00032	5d		 pop	 ebp
  00033	c2 04 00	 ret	 4
$LN3@HitGood:

; 811  : 	}
; 812  : 	else
; 813  : 	{
; 814  : 		rVictim.__Shake(100);

  00036	6a 64		 push	 100			; 00000064H
  00038	e8 00 00 00 00	 call	 ?__Shake@CActorInstance@@AAEXK@Z ; CActorInstance::__Shake

; 815  : 
; 816  : 		if (!rVictim.isLock())

  0003d	8b ce		 mov	 ecx, esi
  0003f	e8 00 00 00 00	 call	 ?isLock@CActorInstance@@QAEHXZ ; CActorInstance::isLock
  00044	85 c0		 test	 eax, eax
  00046	0f 85 0b 01 00
	00		 jne	 $LN11@HitGood

; 817  : 		{
; 818  : 			float fRotRad = D3DXToRadian(GetRotation());

  0004c	8b cf		 mov	 ecx, edi
  0004e	e8 00 00 00 00	 call	 ?GetRotation@CActorInstance@@QAEMXZ ; CActorInstance::GetRotation
  00053	d8 0d 00 00 00
	00		 fmul	 DWORD PTR __real@3c8efa35

; 819  : 			float fVictimRotRad = D3DXToRadian(rVictim.GetRotation());

  00059	8b ce		 mov	 ecx, esi
  0005b	d9 5d 08	 fstp	 DWORD PTR _fRotRad$4[ebp]
  0005e	e8 00 00 00 00	 call	 ?GetRotation@CActorInstance@@QAEMXZ ; CActorInstance::GetRotation
  00063	f3 0f 10 45 08	 movss	 xmm0, DWORD PTR _fRotRad$4[ebp]
  00068	d8 0d 00 00 00
	00		 fmul	 DWORD PTR __real@3c8efa35
; File C:\Program Files (x86)\Windows Kits\10\Include\10.0.19041.0\ucrt\corecrt_math.h

; 748  :             return (float)sin(_X);

  0006e	0f 5a c0	 cvtps2pd xmm0, xmm0
; File C:\Users\murat\Desktop\Siveps2-1-99-Project\source\client\Client\GameLib\ActorInstanceBattle.cpp

; 819  : 			float fVictimRotRad = D3DXToRadian(rVictim.GetRotation());

  00071	d9 5d fc	 fstp	 DWORD PTR _fVictimRotRad$3[ebp]
; File C:\Program Files (x86)\Windows Kits\10\Include\10.0.19041.0\ucrt\corecrt_math.h

; 748  :             return (float)sin(_X);

  00074	e8 00 00 00 00	 call	 __libm_sse2_sin_precise
  00079	0f 57 c9	 xorps	 xmm1, xmm1
  0007c	f2 0f 5a c8	 cvtsd2ss xmm1, xmm0
  00080	f3 0f 10 45 08	 movss	 xmm0, DWORD PTR _fRotRad$4[ebp]

; 647  :             return (float)cos(_X);

  00085	0f 5a c0	 cvtps2pd xmm0, xmm0
; File C:\Users\murat\Desktop\Siveps2-1-99-Project\source\client\extern\include\d3dx8math.inl

; 41   :     x = fx;

  00088	f3 0f 11 4d ec	 movss	 DWORD PTR _v2Normal$1[ebp], xmm1
; File C:\Program Files (x86)\Windows Kits\10\Include\10.0.19041.0\ucrt\corecrt_math.h

; 647  :             return (float)cos(_X);

  0008d	e8 00 00 00 00	 call	 __libm_sse2_cos_precise
  00092	f2 0f 5a c0	 cvtsd2ss xmm0, xmm0
; File C:\Users\murat\Desktop\Siveps2-1-99-Project\source\client\extern\include\d3dx8math.inl

; 42   :     y = fy;

  00096	f3 0f 11 45 f0	 movss	 DWORD PTR _v2Normal$1[ebp+4], xmm0
  0009b	f3 0f 10 45 fc	 movss	 xmm0, DWORD PTR _fVictimRotRad$3[ebp]
; File C:\Program Files (x86)\Windows Kits\10\Include\10.0.19041.0\ucrt\corecrt_math.h

; 748  :             return (float)sin(_X);

  000a0	0f 5a c0	 cvtps2pd xmm0, xmm0
  000a3	e8 00 00 00 00	 call	 __libm_sse2_sin_precise
  000a8	0f 57 c9	 xorps	 xmm1, xmm1
  000ab	f2 0f 5a c8	 cvtsd2ss xmm1, xmm0
  000af	f3 0f 10 45 fc	 movss	 xmm0, DWORD PTR _fVictimRotRad$3[ebp]

; 647  :             return (float)cos(_X);

  000b4	0f 5a c0	 cvtps2pd xmm0, xmm0
; File C:\Users\murat\Desktop\Siveps2-1-99-Project\source\client\extern\include\d3dx8math.inl

; 41   :     x = fx;

  000b7	f3 0f 11 4d f4	 movss	 DWORD PTR _v2VictimNormal$2[ebp], xmm1
; File C:\Program Files (x86)\Windows Kits\10\Include\10.0.19041.0\ucrt\corecrt_math.h

; 647  :             return (float)cos(_X);

  000bc	e8 00 00 00 00	 call	 __libm_sse2_cos_precise
  000c1	f2 0f 5a c0	 cvtsd2ss xmm0, xmm0
; File C:\Users\murat\Desktop\Siveps2-1-99-Project\source\client\Client\GameLib\ActorInstanceBattle.cpp

; 824  : 			D3DXVec2Normalize(&v2Normal, &v2Normal);

  000c5	8d 45 ec	 lea	 eax, DWORD PTR _v2Normal$1[ebp]
  000c8	50		 push	 eax
  000c9	50		 push	 eax
; File C:\Users\murat\Desktop\Siveps2-1-99-Project\source\client\extern\include\d3dx8math.inl

; 42   :     y = fy;

  000ca	f3 0f 11 45 f8	 movss	 DWORD PTR _v2VictimNormal$2[ebp+4], xmm0
; File C:\Users\murat\Desktop\Siveps2-1-99-Project\source\client\Client\GameLib\ActorInstanceBattle.cpp

; 824  : 			D3DXVec2Normalize(&v2Normal, &v2Normal);

  000cf	e8 00 00 00 00	 call	 _D3DXVec2Normalize@8

; 825  : 			D3DXVec2Normalize(&v2VictimNormal, &v2VictimNormal);

  000d4	8d 45 f4	 lea	 eax, DWORD PTR _v2VictimNormal$2[ebp]
  000d7	50		 push	 eax
  000d8	50		 push	 eax
  000d9	e8 00 00 00 00	 call	 _D3DXVec2Normalize@8
; File C:\Users\murat\Desktop\Siveps2-1-99-Project\source\client\extern\include\d3dx8math.inl

; 1132 :     return pV1->x * pV2->x + pV1->y * pV2->y;

  000de	f3 0f 10 45 f4	 movss	 xmm0, DWORD PTR _v2VictimNormal$2[ebp]
  000e3	f3 0f 10 4d f8	 movss	 xmm1, DWORD PTR _v2VictimNormal$2[ebp+4]
  000e8	f3 0f 59 45 ec	 mulss	 xmm0, DWORD PTR _v2Normal$1[ebp]
; File C:\Users\murat\Desktop\Siveps2-1-99-Project\source\client\Client\GameLib\ActorInstanceBattle.cpp

; 829  : 			if (fScalar < 0.0f)

  000ed	51		 push	 ecx
; File C:\Users\murat\Desktop\Siveps2-1-99-Project\source\client\extern\include\d3dx8math.inl

; 1132 :     return pV1->x * pV2->x + pV1->y * pV2->y;

  000ee	f3 0f 59 4d f0	 mulss	 xmm1, DWORD PTR _v2Normal$1[ebp+4]
; File C:\Users\murat\Desktop\Siveps2-1-99-Project\source\client\Client\GameLib\ActorInstanceBattle.cpp

; 829  : 			if (fScalar < 0.0f)

  000f3	c7 04 24 00 00
	80 3f		 mov	 DWORD PTR [esp], 1065353216 ; 3f800000H
  000fa	6a 00		 push	 0
  000fc	51		 push	 ecx
; File C:\Users\murat\Desktop\Siveps2-1-99-Project\source\client\extern\include\d3dx8math.inl

; 1132 :     return pV1->x * pV2->x + pV1->y * pV2->y;

  000fd	f3 0f 58 c8	 addss	 xmm1, xmm0
; File C:\Users\murat\Desktop\Siveps2-1-99-Project\source\client\Client\GameLib\ActorInstanceBattle.cpp

; 829  : 			if (fScalar < 0.0f)

  00101	c7 04 24 cd cc
	cc 3d		 mov	 DWORD PTR [esp], 1036831949 ; 3dcccccdH
  00108	0f 57 c0	 xorps	 xmm0, xmm0
  0010b	8b ce		 mov	 ecx, esi
  0010d	0f 2f c1	 comiss	 xmm0, xmm1
  00110	77 1f		 ja	 SHORT $LN37@HitGood

; 830  : 			{
; 831  : 				if (rVictim.InterceptOnceMotion(CRaceMotionData::NAME_DAMAGE))
; 832  : 					rVictim.PushLoopMotion(CRaceMotionData::NAME_WAIT);
; 833  : 			}
; 834  : 			else
; 835  : 			{
; 836  : 				if (rVictim.InterceptOnceMotion(CRaceMotionData::NAME_DAMAGE_BACK))

  00112	6a 08		 push	 8
  00114	e8 00 00 00 00	 call	 ?InterceptOnceMotion@CActorInstance@@QAE_NKMIM@Z ; CActorInstance::InterceptOnceMotion
  00119	84 c0		 test	 al, al
  0011b	75 1f		 jne	 SHORT $LN35@HitGood

; 837  : 					rVictim.PushLoopMotion(CRaceMotionData::NAME_WAIT);
; 838  : 				else if (rVictim.InterceptOnceMotion(CRaceMotionData::NAME_DAMAGE))

  0011d	51		 push	 ecx
  0011e	c7 04 24 00 00
	80 3f		 mov	 DWORD PTR [esp], 1065353216 ; 3f800000H
  00125	6a 00		 push	 0
  00127	51		 push	 ecx
  00128	c7 04 24 cd cc
	cc 3d		 mov	 DWORD PTR [esp], 1036831949 ; 3dcccccdH
  0012f	8b ce		 mov	 ecx, esi
$LN37@HitGood:

; 839  : 					rVictim.PushLoopMotion(CRaceMotionData::NAME_WAIT);
; 840  : 			}
; 841  : 		}
; 842  : 	}
; 843  : }

  00131	6a 05		 push	 5
  00133	e8 00 00 00 00	 call	 ?InterceptOnceMotion@CActorInstance@@QAE_NKMIM@Z ; CActorInstance::InterceptOnceMotion
  00138	84 c0		 test	 al, al
  0013a	74 1b		 je	 SHORT $LN11@HitGood
$LN35@HitGood:
  0013c	83 ec 08	 sub	 esp, 8
  0013f	8b ce		 mov	 ecx, esi
  00141	c7 44 24 04 00
	00 80 3f	 mov	 DWORD PTR [esp+4], 1065353216 ; 3f800000H
  00149	c7 04 24 cd cc
	cc 3d		 mov	 DWORD PTR [esp], 1036831949 ; 3dcccccdH
  00150	6a 01		 push	 1
  00152	e8 00 00 00 00	 call	 ?PushLoopMotion@CActorInstance@@QAE_NKMM@Z ; CActorInstance::PushLoopMotion
$LN11@HitGood:
  00157	5f		 pop	 edi
  00158	5e		 pop	 esi
  00159	8b e5		 mov	 esp, ebp
  0015b	5d		 pop	 ebp
  0015c	c2 04 00	 ret	 4
?__HitGood@CActorInstance@@IAEXAAV1@@Z ENDP		; CActorInstance::__HitGood
_TEXT	ENDS
; Function compile flags: /Ogtp
; File C:\Users\murat\Desktop\Siveps2-1-99-Project\source\client\Client\GameLib\ActorInstanceBattle.cpp
;	COMDAT ?__HitStone@CActorInstance@@IAEXAAV1@@Z
_TEXT	SEGMENT
_rVictim$ = 8						; size = 4
?__HitStone@CActorInstance@@IAEXAAV1@@Z PROC		; CActorInstance::__HitStone, COMDAT
; _this$ = ecx

; 792  : {

  00000	55		 push	 ebp
  00001	8b ec		 mov	 ebp, esp
  00003	56		 push	 esi

; 793  : 	if (rVictim.IsStun())

  00004	8b 75 08	 mov	 esi, DWORD PTR _rVictim$[ebp]
  00007	8b ce		 mov	 ecx, esi
  00009	e8 00 00 00 00	 call	 ?IsStun@CActorInstance@@QAEHXZ ; CActorInstance::IsStun
  0000e	8b ce		 mov	 ecx, esi
  00010	85 c0		 test	 eax, eax
  00012	74 0a		 je	 SHORT $LN2@HitStone

; 794  : 	{
; 795  : 		rVictim.Die();

  00014	e8 00 00 00 00	 call	 ?Die@CActorInstance@@QAEXXZ ; CActorInstance::Die
  00019	5e		 pop	 esi

; 800  : 	}
; 801  : }

  0001a	5d		 pop	 ebp
  0001b	c2 04 00	 ret	 4
$LN2@HitStone:

; 796  : 	}
; 797  : 	else
; 798  : 	{
; 799  : 		rVictim.__Shake(100);

  0001e	6a 64		 push	 100			; 00000064H
  00020	e8 00 00 00 00	 call	 ?__Shake@CActorInstance@@AAEXK@Z ; CActorInstance::__Shake
  00025	5e		 pop	 esi

; 800  : 	}
; 801  : }

  00026	5d		 pop	 ebp
  00027	c2 04 00	 ret	 4
?__HitStone@CActorInstance@@IAEXAAV1@@Z ENDP		; CActorInstance::__HitStone
_TEXT	ENDS
; Function compile flags: /Ogtp
; File C:\Users\murat\Desktop\Siveps2-1-99-Project\source\client\Client\GameLib\ActorInstanceBattle.cpp
;	COMDAT ?__ProcessMotionAttackSuccess@CActorInstance@@IAEXKAAV1@@Z
_TEXT	SEGMENT
_c_pMotionData$ = -4					; size = 4
_dwMotionKey$ = 8					; size = 4
_rVictim$ = 12						; size = 4
?__ProcessMotionAttackSuccess@CActorInstance@@IAEXKAAV1@@Z PROC ; CActorInstance::__ProcessMotionAttackSuccess, COMDAT
; _this$ = ecx

; 531  : {

  00000	55		 push	 ebp
  00001	8b ec		 mov	 ebp, esp
  00003	51		 push	 ecx
  00004	57		 push	 edi
  00005	8b f9		 mov	 edi, ecx

; 532  : 	CRaceMotionData * c_pMotionData;
; 533  : 
; 534  : 	if (!m_pkCurRaceData->GetMotionDataPointer(dwMotionKey, &c_pMotionData))

  00007	8d 45 fc	 lea	 eax, DWORD PTR _c_pMotionData$[ebp]
  0000a	50		 push	 eax
  0000b	ff 75 08	 push	 DWORD PTR _dwMotionKey$[ebp]
  0000e	8b 8f 20 04 00
	00		 mov	 ecx, DWORD PTR [edi+1056]
  00014	e8 00 00 00 00	 call	 ?GetMotionDataPointer@CRaceData@@QAEHKPAPAVCRaceMotionData@@@Z ; CRaceData::GetMotionDataPointer
  00019	85 c0		 test	 eax, eax
  0001b	74 20		 je	 SHORT $LN1@ProcessMot

; 535  : 		return;
; 536  : 
; 537  : 	const D3DXVECTOR3& c_rv3VictimPos=rVictim.GetPositionVectorRef();

  0001d	8b 4d 0c	 mov	 ecx, DWORD PTR _rVictim$[ebp]
  00020	e8 00 00 00 00	 call	 ?GetPositionVectorRef@CActorInstance@@QAEABUD3DXVECTOR3@@XZ ; CActorInstance::GetPositionVectorRef

; 538  : 	__ProcessDataAttackSuccess(c_pMotionData->GetMotionAttackDataReference(), rVictim, c_rv3VictimPos);

  00025	8b 4d fc	 mov	 ecx, DWORD PTR _c_pMotionData$[ebp]
  00028	6a 01		 push	 1
  0002a	6a 00		 push	 0
  0002c	50		 push	 eax
  0002d	ff 75 0c	 push	 DWORD PTR _rVictim$[ebp]
  00030	e8 00 00 00 00	 call	 ?GetMotionAttackDataReference@CRaceMotionData@@QBEABUSMotionAttackData@NRaceData@@XZ ; CRaceMotionData::GetMotionAttackDataReference
  00035	50		 push	 eax
  00036	8b cf		 mov	 ecx, edi
  00038	e8 00 00 00 00	 call	 ?__ProcessDataAttackSuccess@CActorInstance@@IAEXABUSAttackData@NRaceData@@AAV1@ABUD3DXVECTOR3@@IH@Z ; CActorInstance::__ProcessDataAttackSuccess
$LN1@ProcessMot:
  0003d	5f		 pop	 edi

; 539  : }

  0003e	8b e5		 mov	 esp, ebp
  00040	5d		 pop	 ebp
  00041	c2 08 00	 ret	 8
?__ProcessMotionAttackSuccess@CActorInstance@@IAEXKAAV1@@Z ENDP ; CActorInstance::__ProcessMotionAttackSuccess
_TEXT	ENDS
; Function compile flags: /Ogtp
; File C:\Users\murat\Desktop\Siveps2-1-99-Project\source\client\Client\GameLib\ActorInstanceBattle.cpp
;	COMDAT ?__ProcessMotionEventAttackSuccess@CActorInstance@@IAEXKEAAV1@@Z
_TEXT	SEGMENT
_pMotionData$ = -4					; size = 4
_pMotionEventData$ = 8					; size = 4
_dwMotionKey$ = 8					; size = 4
_byEventIndex$ = 12					; size = 1
_rVictim$ = 16						; size = 4
?__ProcessMotionEventAttackSuccess@CActorInstance@@IAEXKEAAV1@@Z PROC ; CActorInstance::__ProcessMotionEventAttackSuccess, COMDAT
; _this$ = ecx

; 512  : {

  00000	55		 push	 ebp
  00001	8b ec		 mov	 ebp, esp
  00003	51		 push	 ecx
  00004	57		 push	 edi
  00005	8b f9		 mov	 edi, ecx

; 513  : 	CRaceMotionData * pMotionData;
; 514  : 
; 515  : 	if (!m_pkCurRaceData->GetMotionDataPointer(dwMotionKey, &pMotionData))

  00007	8d 45 fc	 lea	 eax, DWORD PTR _pMotionData$[ebp]
  0000a	50		 push	 eax
  0000b	ff 75 08	 push	 DWORD PTR _dwMotionKey$[ebp]
  0000e	8b 8f 20 04 00
	00		 mov	 ecx, DWORD PTR [edi+1056]
  00014	e8 00 00 00 00	 call	 ?GetMotionDataPointer@CRaceData@@QAEHKPAPAVCRaceMotionData@@@Z ; CRaceData::GetMotionDataPointer
  00019	85 c0		 test	 eax, eax
  0001b	74 41		 je	 SHORT $LN1@ProcessMot

; 516  : 		return;
; 517  : 
; 518  : 	if (byEventIndex >= pMotionData->GetMotionEventDataCount())

  0001d	8b 4d fc	 mov	 ecx, DWORD PTR _pMotionData$[ebp]
  00020	e8 00 00 00 00	 call	 ?GetMotionEventDataCount@CRaceMotionData@@QBEKXZ ; CRaceMotionData::GetMotionEventDataCount
  00025	8b 55 0c	 mov	 edx, DWORD PTR _byEventIndex$[ebp]
  00028	0f b6 ca	 movzx	 ecx, dl
  0002b	3b c8		 cmp	 ecx, eax
  0002d	73 2f		 jae	 SHORT $LN1@ProcessMot

; 519  : 		return;
; 520  : 
; 521  : 	const CRaceMotionData::TMotionAttackingEventData * pMotionEventData;
; 522  : 	if (!pMotionData->GetMotionAttackingEventDataPointer(byEventIndex, &pMotionEventData))

  0002f	8b 4d fc	 mov	 ecx, DWORD PTR _pMotionData$[ebp]
  00032	8d 45 08	 lea	 eax, DWORD PTR _pMotionEventData$[ebp]
  00035	50		 push	 eax
  00036	52		 push	 edx
  00037	e8 00 00 00 00	 call	 ?GetMotionAttackingEventDataPointer@CRaceMotionData@@QBEHEPAPBUSMotionEventDataAttack@NMotionEvent@@@Z ; CRaceMotionData::GetMotionAttackingEventDataPointer
  0003c	85 c0		 test	 eax, eax
  0003e	74 1e		 je	 SHORT $LN1@ProcessMot

; 523  : 		return;
; 524  : 
; 525  : 	const D3DXVECTOR3& c_rv3VictimPos=rVictim.GetPositionVectorRef();

  00040	8b 4d 10	 mov	 ecx, DWORD PTR _rVictim$[ebp]
  00043	e8 00 00 00 00	 call	 ?GetPositionVectorRef@CActorInstance@@QAEABUD3DXVECTOR3@@XZ ; CActorInstance::GetPositionVectorRef

; 526  : 	__ProcessDataAttackSuccess(pMotionEventData->AttackData, rVictim, c_rv3VictimPos);

  00048	6a 01		 push	 1
  0004a	6a 00		 push	 0
  0004c	50		 push	 eax
  0004d	8b 45 08	 mov	 eax, DWORD PTR _pMotionEventData$[ebp]
  00050	8b cf		 mov	 ecx, edi
  00052	ff 75 10	 push	 DWORD PTR _rVictim$[ebp]
  00055	83 c0 28	 add	 eax, 40			; 00000028H
  00058	50		 push	 eax
  00059	e8 00 00 00 00	 call	 ?__ProcessDataAttackSuccess@CActorInstance@@IAEXABUSAttackData@NRaceData@@AAV1@ABUD3DXVECTOR3@@IH@Z ; CActorInstance::__ProcessDataAttackSuccess
$LN1@ProcessMot:
  0005e	5f		 pop	 edi

; 527  : }

  0005f	8b e5		 mov	 esp, ebp
  00061	5d		 pop	 ebp
  00062	c2 0c 00	 ret	 12			; 0000000cH
?__ProcessMotionEventAttackSuccess@CActorInstance@@IAEXKEAAV1@@Z ENDP ; CActorInstance::__ProcessMotionEventAttackSuccess
_TEXT	ENDS
; Function compile flags: /Ogtp
; File C:\Users\murat\Desktop\Siveps2-1-99-Project\source\client\Client\GameLib\ActorInstanceBattle.cpp
; File C:\Users\murat\Desktop\Siveps2-1-99-Project\source\client\extern\include\d3dx8math.inl
; File C:\Users\murat\Desktop\Siveps2-1-99-Project\source\client\Client\GameLib\ActorInstanceBattle.cpp
; File C:\Users\murat\Desktop\Siveps2-1-99-Project\source\client\extern\include\d3dx8math.inl
; File C:\Users\murat\Desktop\Siveps2-1-99-Project\source\client\Client\GameLib\ActorInstanceBattle.cpp
; File C:\Program Files (x86)\Windows Kits\10\Include\10.0.19041.0\ucrt\corecrt_math.h
; File C:\Users\murat\Desktop\Siveps2-1-99-Project\source\client\Client\GameLib\ActorInstanceBattle.cpp
; File C:\Program Files (x86)\Windows Kits\10\Include\10.0.19041.0\ucrt\corecrt_math.h
; File C:\Users\murat\Desktop\Siveps2-1-99-Project\source\client\Client\GameLib\ActorInstanceBattle.cpp
; File C:\Program Files (x86)\Microsoft Visual Studio\2019\Professional\VC\Tools\MSVC\14.29.30133\include\cmath
; File C:\Users\murat\Desktop\Siveps2-1-99-Project\source\client\Client\GameLib\ActorInstanceBattle.cpp
; File C:\Users\murat\Desktop\Siveps2-1-99-Project\source\client\extern\include\d3dx8math.inl
; File C:\Users\murat\Desktop\Siveps2-1-99-Project\source\client\Client\GameLib\ActorInstanceBattle.cpp
; File C:\Users\murat\Desktop\Siveps2-1-99-Project\source\client\extern\include\d3dx8math.inl
; File C:\Users\murat\Desktop\Siveps2-1-99-Project\source\client\Client\GameLib\ActorInstanceBattle.cpp
; File C:\Users\murat\Desktop\Siveps2-1-99-Project\source\client\extern\include\d3dx8math.inl
; File C:\Users\murat\Desktop\Siveps2-1-99-Project\source\client\Client\GameLib\ActorInstanceBattle.cpp
; File C:\Users\murat\Desktop\Siveps2-1-99-Project\source\client\extern\include\d3dx8math.inl
; File C:\Users\murat\Desktop\Siveps2-1-99-Project\source\client\Client\GameLib\ActorInstanceBattle.cpp
; File C:\Users\murat\Desktop\Siveps2-1-99-Project\source\client\extern\include\d3dx8math.inl
; File C:\Users\murat\Desktop\Siveps2-1-99-Project\source\client\Client\GameLib\ActorInstanceBattle.cpp
; File C:\Users\murat\Desktop\Siveps2-1-99-Project\source\client\extern\include\d3dx8math.inl
; File C:\Users\murat\Desktop\Siveps2-1-99-Project\source\client\Client\GameLib\ActorInstanceBattle.cpp
; File C:\Users\murat\Desktop\Siveps2-1-99-Project\source\client\extern\include\d3dx8math.inl
; File C:\Users\murat\Desktop\Siveps2-1-99-Project\source\client\Client\GameLib\ActorInstanceBattle.cpp
; File C:\Users\murat\Desktop\Siveps2-1-99-Project\source\client\extern\include\d3dx8math.inl
; File C:\Users\murat\Desktop\Siveps2-1-99-Project\source\client\Client\GameLib\ActorInstanceBattle.cpp
; File C:\Users\murat\Desktop\Siveps2-1-99-Project\source\client\extern\include\d3dx8math.inl
; File C:\Users\murat\Desktop\Siveps2-1-99-Project\source\client\Client\GameLib\ActorInstanceBattle.cpp
;	COMDAT ?__ProcessDataAttackSuccess@CActorInstance@@IAEXABUSAttackData@NRaceData@@AAV1@ABUD3DXVECTOR3@@IH@Z
_TEXT	SEGMENT
_c_rv3Position$GSCopy$1$ = -56				; size = 4
_v3Pos$1$ = -56						; size = 4
$T1 = -52						; size = 12
$T2 = -40						; size = 12
$T3 = -40						; size = 12
_vec3Effect$ = -28					; size = 12
_vec3Delta$4 = -16					; size = 12
tv631 = -12						; size = 8
tv628 = -12						; size = 8
$T5 = -8						; size = 4
__$ArrayPad$ = -4					; size = 4
_c_rAttackData$ = 8					; size = 4
_rVictim$ = 12						; size = 4
_c_rv3Position$ = 16					; size = 4
_uiSkill$ = 20						; size = 4
_isSendPacket$ = 24					; size = 4
?__ProcessDataAttackSuccess@CActorInstance@@IAEXABUSAttackData@NRaceData@@AAV1@ABUD3DXVECTOR3@@IH@Z PROC ; CActorInstance::__ProcessDataAttackSuccess, COMDAT
; _this$ = ecx

; 629  : {

  00000	55		 push	 ebp
  00001	8b ec		 mov	 ebp, esp
  00003	83 ec 38	 sub	 esp, 56			; 00000038H
  00006	a1 00 00 00 00	 mov	 eax, DWORD PTR ___security_cookie
  0000b	33 c5		 xor	 eax, ebp
  0000d	89 45 fc	 mov	 DWORD PTR __$ArrayPad$[ebp], eax
  00010	8b 45 10	 mov	 eax, DWORD PTR _c_rv3Position$[ebp]
  00013	53		 push	 ebx
  00014	8b 5d 08	 mov	 ebx, DWORD PTR _c_rAttackData$[ebp]
  00017	56		 push	 esi
  00018	8b 75 0c	 mov	 esi, DWORD PTR _rVictim$[ebp]
  0001b	57		 push	 edi

; 630  : 	if (NRaceData::HIT_TYPE_NONE == c_rAttackData.iHittingType)

  0001c	83 7b 04 00	 cmp	 DWORD PTR [ebx+4], 0
  00020	8b f9		 mov	 edi, ecx
  00022	89 45 c8	 mov	 DWORD PTR _c_rv3Position$GSCopy$1$[ebp], eax
  00025	0f 84 db 02 00
	00		 je	 $LN1@ProcessDat

; 631  : 		return;
; 632  : 
; 633  : 	InsertDelay(c_rAttackData.fStiffenTime);

  0002b	f3 0f 10 43 10	 movss	 xmm0, DWORD PTR [ebx+16]
  00030	51		 push	 ecx
  00031	f3 0f 11 04 24	 movss	 DWORD PTR [esp], xmm0
  00036	e8 00 00 00 00	 call	 ?InsertDelay@CGraphicThingInstance@@QAEXM@Z ; CGraphicThingInstance::InsertDelay

; 634  : 
; 635  : 	if (__CanPushDestActor(rVictim) && c_rAttackData.fExternalForce > 0.0f)

  0003b	56		 push	 esi
  0003c	8b cf		 mov	 ecx, edi
  0003e	e8 00 00 00 00	 call	 ?__CanPushDestActor@CActorInstance@@IAE_NAAV1@@Z ; CActorInstance::__CanPushDestActor
  00043	0f 57 c9	 xorps	 xmm1, xmm1
  00046	84 c0		 test	 al, al
  00048	74 30		 je	 SHORT $LN3@ProcessDat
  0004a	f3 0f 10 43 0c	 movss	 xmm0, DWORD PTR [ebx+12]
  0004f	0f 2f c1	 comiss	 xmm0, xmm1
  00052	76 26		 jbe	 SHORT $LN3@ProcessDat

; 636  : 	{
; 637  : 		__PushCircle(rVictim);

  00054	56		 push	 esi
  00055	8b cf		 mov	 ecx, edi
  00057	e8 00 00 00 00	 call	 ?__PushCircle@CActorInstance@@IAEXAAV1@@Z ; CActorInstance::__PushCircle

; 638  : 
; 639  : 		// VICTIM_COLLISION_TEST
; 640  : 		const D3DXVECTOR3& kVictimPos = rVictim.GetPosition();

  0005c	8b ce		 mov	 ecx, esi
  0005e	e8 00 00 00 00	 call	 ?GetPosition@CGraphicObjectInstance@@QBEABUD3DXVECTOR3@@XZ ; CGraphicObjectInstance::GetPosition

; 641  : 		rVictim.m_PhysicsObject.IncreaseExternalForce(kVictimPos, c_rAttackData.fExternalForce); //*nForceRatio/100.0f);

  00063	f3 0f 10 43 0c	 movss	 xmm0, DWORD PTR [ebx+12]
  00068	51		 push	 ecx
  00069	f3 0f 11 04 24	 movss	 DWORD PTR [esp], xmm0
  0006e	8d 8e 80 03 00
	00		 lea	 ecx, DWORD PTR [esi+896]
  00074	50		 push	 eax
  00075	e8 00 00 00 00	 call	 ?IncreaseExternalForce@CPhysicsObject@@QAEXABUD3DXVECTOR3@@M@Z ; CPhysicsObject::IncreaseExternalForce
$LN3@ProcessDat:

; 642  : 
; 643  : 		// VICTIM_COLLISION_TEST_END
; 644  : 	}
; 645  : 
; 646  : 	// Invisible Time
; 647  : 	if (IS_PARTY_HUNTING_RACE(rVictim.GetRace()))

  0007a	8b ce		 mov	 ecx, esi
  0007c	e8 00 00 00 00	 call	 ?GetRace@CActorInstance@@QAEKXZ ; CActorInstance::GetRace
  00081	50		 push	 eax
  00082	e8 00 00 00 00	 call	 ?IS_PARTY_HUNTING_RACE@@YA_NI@Z ; IS_PARTY_HUNTING_RACE
  00087	83 c4 04	 add	 esp, 4
  0008a	84 c0		 test	 al, al
  0008c	74 23		 je	 SHORT $LN4@ProcessDat

; 648  : 	{
; 649  : 		if (uiSkill) //      

  0008e	83 7d 14 00	 cmp	 DWORD PTR _uiSkill$[ebp], 0
  00092	74 14		 je	 SHORT $LN6@ProcessDat

; 650  : 			rVictim.m_fInvisibleTime = CTimer::Instance().GetCurrentSecond() + c_rAttackData.fInvisibleTime;

  00094	8b 0d 00 00 00
	00		 mov	 ecx, DWORD PTR ?ms_singleton@?$CSingleton@VCTimer@@@@0PAVCTimer@@A ; CSingleton<CTimer>::ms_singleton
  0009a	e8 00 00 00 00	 call	 ?GetCurrentSecond@CTimer@@QAEMXZ ; CTimer::GetCurrentSecond
  0009f	d8 43 08	 fadd	 DWORD PTR [ebx+8]
  000a2	d9 9e 28 04 00
	00		 fstp	 DWORD PTR [esi+1064]
$LN6@ProcessDat:

; 651  : 
; 652  : 		if (m_isMain) // #0000794: [M2KR]  -             

  000a8	83 bf 4c 04 00
	00 00		 cmp	 DWORD PTR [edi+1100], 0
  000af	74 14		 je	 SHORT $LN5@ProcessDat
$LN4@ProcessDat:

; 653  : 			rVictim.m_fInvisibleTime = CTimer::Instance().GetCurrentSecond() + c_rAttackData.fInvisibleTime;
; 654  : 	}
; 655  : 	else //      
; 656  : 	{
; 657  : 		rVictim.m_fInvisibleTime = CTimer::Instance().GetCurrentSecond() + c_rAttackData.fInvisibleTime;
; 658  : 	}
; 659  : 
; 660  : 	// Stiffen Time
; 661  : 	rVictim.InsertDelay(c_rAttackData.fStiffenTime);

  000b1	8b 0d 00 00 00
	00		 mov	 ecx, DWORD PTR ?ms_singleton@?$CSingleton@VCTimer@@@@0PAVCTimer@@A ; CSingleton<CTimer>::ms_singleton
  000b7	e8 00 00 00 00	 call	 ?GetCurrentSecond@CTimer@@QAEMXZ ; CTimer::GetCurrentSecond
  000bc	d8 43 08	 fadd	 DWORD PTR [ebx+8]
  000bf	d9 9e 28 04 00
	00		 fstp	 DWORD PTR [esi+1064]
$LN5@ProcessDat:
  000c5	f3 0f 10 43 10	 movss	 xmm0, DWORD PTR [ebx+16]
  000ca	51		 push	 ecx
  000cb	8b ce		 mov	 ecx, esi
  000cd	f3 0f 11 04 24	 movss	 DWORD PTR [esp], xmm0
  000d2	e8 00 00 00 00	 call	 ?InsertDelay@CGraphicThingInstance@@QAEXM@Z ; CGraphicThingInstance::InsertDelay
; File C:\Users\murat\Desktop\Siveps2-1-99-Project\source\client\extern\include\d3dx8math.inl

; 180  :     x = fx;

  000d7	f3 0f 10 86 68
	04 00 00	 movss	 xmm0, DWORD PTR [esi+1128]
; File C:\Users\murat\Desktop\Siveps2-1-99-Project\source\client\Client\GameLib\ActorInstanceBattle.cpp

; 668  : 	if (IS_HUGE_RACE(rVictim.GetRace()))

  000df	8b ce		 mov	 ecx, esi
; File C:\Users\murat\Desktop\Siveps2-1-99-Project\source\client\extern\include\d3dx8math.inl

; 180  :     x = fx;

  000e1	f3 0f 11 45 e4	 movss	 DWORD PTR _vec3Effect$[ebp], xmm0

; 181  :     y = fy;

  000e6	f3 0f 10 86 6c
	04 00 00	 movss	 xmm0, DWORD PTR [esi+1132]
  000ee	f3 0f 11 45 e8	 movss	 DWORD PTR _vec3Effect$[ebp+4], xmm0

; 182  :     z = fz;

  000f3	f3 0f 10 86 70
	04 00 00	 movss	 xmm0, DWORD PTR [esi+1136]
  000fb	f3 0f 11 45 ec	 movss	 DWORD PTR _vec3Effect$[ebp+8], xmm0
; File C:\Users\murat\Desktop\Siveps2-1-99-Project\source\client\Client\GameLib\ActorInstanceBattle.cpp

; 668  : 	if (IS_HUGE_RACE(rVictim.GetRace()))

  00100	e8 00 00 00 00	 call	 ?GetRace@CActorInstance@@QAEKXZ ; CActorInstance::GetRace
  00105	50		 push	 eax
  00106	e8 00 00 00 00	 call	 ?IS_HUGE_RACE@@YA_NI@Z	; IS_HUGE_RACE
  0010b	83 c4 04	 add	 esp, 4
  0010e	84 c0		 test	 al, al
  00110	74 12		 je	 SHORT $LN8@ProcessDat

; 669  : 	{
; 670  : 		vec3Effect = c_rv3Position;

  00112	8b 45 c8	 mov	 eax, DWORD PTR _c_rv3Position$GSCopy$1$[ebp]
  00115	f3 0f 7e 00	 movq	 xmm0, QWORD PTR [eax]
  00119	8b 40 08	 mov	 eax, DWORD PTR [eax+8]
  0011c	66 0f d6 45 e4	 movq	 QWORD PTR _vec3Effect$[ebp], xmm0
  00121	89 45 ec	 mov	 DWORD PTR _vec3Effect$[ebp+8], eax
$LN8@ProcessDat:

; 671  : 	}
; 672  : 
; 673  : 	const D3DXVECTOR3 & v3Pos = GetPosition();

  00124	8b cf		 mov	 ecx, edi
  00126	e8 00 00 00 00	 call	 ?GetPosition@CGraphicObjectInstance@@QBEABUD3DXVECTOR3@@XZ ; CGraphicObjectInstance::GetPosition
  0012b	89 45 c8	 mov	 DWORD PTR _v3Pos$1$[ebp], eax

; 675  : 	float fHeight = D3DXToDegree(atan2(-vec3Effect.x + v3Pos.x,+vec3Effect.y - v3Pos.y));

  0012e	f3 0f 10 00	 movss	 xmm0, DWORD PTR [eax]
  00132	f3 0f 5c 45 e4	 subss	 xmm0, DWORD PTR _vec3Effect$[ebp]
