; Listing generated by Microsoft (R) Optimizing Compiler Version 19.29.30137.0 

	TITLE	C:\Users\murat\Desktop\Siveps2-1-99-Project\source\client\Client\GameLib\Distribute\AreaLoaderThread.obj
	.686P
	.XMM
	include listing.inc
	.model	flat

INCLUDELIB LIBCMT
INCLUDELIB OLDNAMES

CONST	SEGMENT
?piecewise_construct@std@@3Upiecewise_construct_t@1@B	ORG $+1 ; std::piecewise_construct
?_Fake_alloc@std@@3U_Fake_allocator@1@B	ORG $+1		; std::_Fake_alloc
CONST	ENDS
PUBLIC	___local_stdio_printf_options
PUBLIC	_sprintf
PUBLIC	__snprintf
PUBLIC	??0exception@std@@QAE@ABV01@@Z			; std::exception::exception
PUBLIC	??1exception@std@@UAE@XZ			; std::exception::~exception
PUBLIC	?what@exception@std@@UBEPBDXZ			; std::exception::what
PUBLIC	??_Gexception@std@@UAEPAXI@Z			; std::exception::`scalar deleting destructor'
PUBLIC	??0bad_alloc@std@@QAE@ABV01@@Z			; std::bad_alloc::bad_alloc
PUBLIC	??_Gbad_alloc@std@@UAEPAXI@Z			; std::bad_alloc::`scalar deleting destructor'
PUBLIC	??0bad_array_new_length@std@@QAE@XZ		; std::bad_array_new_length::bad_array_new_length
PUBLIC	??1bad_array_new_length@std@@UAE@XZ		; std::bad_array_new_length::~bad_array_new_length
PUBLIC	??0bad_array_new_length@std@@QAE@ABV01@@Z	; std::bad_array_new_length::bad_array_new_length
PUBLIC	??_Gbad_array_new_length@std@@UAEPAXI@Z		; std::bad_array_new_length::`scalar deleting destructor'
PUBLIC	?_Throw_bad_array_new_length@std@@YAXXZ		; std::_Throw_bad_array_new_length
PUBLIC	?_Xlen_string@std@@YAXXZ			; std::_Xlen_string
PUBLIC	??0?$basic_string@DU?$char_traits@D@std@@V?$allocator@D@2@@std@@QAE@QBD@Z ; std::basic_string<char,std::char_traits<char>,std::allocator<char> >::basic_string<char,std::char_traits<char>,std::allocator<char> >
PUBLIC	??1?$basic_string@DU?$char_traits@D@std@@V?$allocator@D@2@@std@@QAE@XZ ; std::basic_string<char,std::char_traits<char>,std::allocator<char> >::~basic_string<char,std::char_traits<char>,std::allocator<char> >
PUBLIC	?assign@?$basic_string@DU?$char_traits@D@std@@V?$allocator@D@2@@std@@QAEAAV12@QBDI@Z ; std::basic_string<char,std::char_traits<char>,std::allocator<char> >::assign
PUBLIC	?_Throw_tree_length_error@std@@YAXXZ		; std::_Throw_tree_length_error
PUBLIC	??1?$vector@V?$basic_string@DU?$char_traits@D@std@@V?$allocator@D@2@@std@@V?$allocator@V?$basic_string@DU?$char_traits@D@std@@V?$allocator@D@2@@std@@@2@@std@@QAE@XZ ; std::vector<std::basic_string<char,std::char_traits<char>,std::allocator<char> >,std::allocator<std::basic_string<char,std::char_traits<char>,std::allocator<char> > > >::~vector<std::basic_string<char,std::char_traits<char>,std::allocator<char> >,std::allocator<std::basic_string<char,std::char_traits<char>,std::allocator<char> > > >
PUBLIC	??$_Allocate_manually_vector_aligned@U_Default_allocate_traits@std@@@std@@YAPAXI@Z ; std::_Allocate_manually_vector_aligned<std::_Default_allocate_traits>
PUBLIC	??0TEMP_CAreaLoaderThread@@QAE@XZ		; TEMP_CAreaLoaderThread::TEMP_CAreaLoaderThread
PUBLIC	??1TEMP_CAreaLoaderThread@@UAE@XZ		; TEMP_CAreaLoaderThread::~TEMP_CAreaLoaderThread
PUBLIC	?Create@TEMP_CAreaLoaderThread@@QAE_NPAX@Z	; TEMP_CAreaLoaderThread::Create
PUBLIC	?Shutdown@TEMP_CAreaLoaderThread@@QAEXXZ	; TEMP_CAreaLoaderThread::Shutdown
PUBLIC	?Request@TEMP_CAreaLoaderThread@@QAEXPAVCTerrain@@@Z ; TEMP_CAreaLoaderThread::Request
PUBLIC	?Fetch@TEMP_CAreaLoaderThread@@QAE_NPAPAVCTerrain@@@Z ; TEMP_CAreaLoaderThread::Fetch
PUBLIC	?Request@TEMP_CAreaLoaderThread@@QAEXPAVCArea@@@Z ; TEMP_CAreaLoaderThread::Request
PUBLIC	?Fetch@TEMP_CAreaLoaderThread@@QAE_NPAPAVCArea@@@Z ; TEMP_CAreaLoaderThread::Fetch
PUBLIC	?EntryPoint@TEMP_CAreaLoaderThread@@KGIPAX@Z	; TEMP_CAreaLoaderThread::EntryPoint
PUBLIC	?Run@TEMP_CAreaLoaderThread@@IAEIPAX@Z		; TEMP_CAreaLoaderThread::Run
PUBLIC	?Setup@TEMP_CAreaLoaderThread@@IAEIXZ		; TEMP_CAreaLoaderThread::Setup
PUBLIC	?Execute@TEMP_CAreaLoaderThread@@IAEIPAX@Z	; TEMP_CAreaLoaderThread::Execute
PUBLIC	?Destroy@TEMP_CAreaLoaderThread@@IAEXXZ		; TEMP_CAreaLoaderThread::Destroy
PUBLIC	?ProcessTerrain@TEMP_CAreaLoaderThread@@IAEXXZ	; TEMP_CAreaLoaderThread::ProcessTerrain
PUBLIC	?ProcessArea@TEMP_CAreaLoaderThread@@IAEXXZ	; TEMP_CAreaLoaderThread::ProcessArea
PUBLIC	??1?$deque@PAVCTerrain@@V?$allocator@PAVCTerrain@@@std@@@std@@QAE@XZ ; std::deque<CTerrain *,std::allocator<CTerrain *> >::~deque<CTerrain *,std::allocator<CTerrain *> >
PUBLIC	?push_back@?$deque@PAVCTerrain@@V?$allocator@PAVCTerrain@@@std@@@std@@QAEXABQAVCTerrain@@@Z ; std::deque<CTerrain *,std::allocator<CTerrain *> >::push_back
PUBLIC	?_Xlen@?$deque@PAVCTerrain@@V?$allocator@PAVCTerrain@@@std@@@std@@ABEXXZ ; std::deque<CTerrain *,std::allocator<CTerrain *> >::_Xlen
PUBLIC	?_Growmap@?$deque@PAVCTerrain@@V?$allocator@PAVCTerrain@@@std@@@std@@AAEXI@Z ; std::deque<CTerrain *,std::allocator<CTerrain *> >::_Growmap
PUBLIC	??1?$deque@PAVCArea@@V?$allocator@PAVCArea@@@std@@@std@@QAE@XZ ; std::deque<CArea *,std::allocator<CArea *> >::~deque<CArea *,std::allocator<CArea *> >
PUBLIC	?push_back@?$deque@PAVCArea@@V?$allocator@PAVCArea@@@std@@@std@@QAEXABQAVCArea@@@Z ; std::deque<CArea *,std::allocator<CArea *> >::push_back
PUBLIC	?_Xlen@?$deque@PAVCArea@@V?$allocator@PAVCArea@@@std@@@std@@ABEXXZ ; std::deque<CArea *,std::allocator<CArea *> >::_Xlen
PUBLIC	?_Growmap@?$deque@PAVCArea@@V?$allocator@PAVCArea@@@std@@@std@@AAEXI@Z ; std::deque<CArea *,std::allocator<CArea *> >::_Growmap
PUBLIC	??_GTEMP_CAreaLoaderThread@@UAEPAXI@Z		; TEMP_CAreaLoaderThread::`scalar deleting destructor'
PUBLIC	?find@?$_Tree@V?$_Tmap_traits@V?$basic_string@DU?$char_traits@D@std@@V?$allocator@D@2@@std@@V?$vector@V?$basic_string@DU?$char_traits@D@std@@V?$allocator@D@2@@std@@V?$allocator@V?$basic_string@DU?$char_traits@D@std@@V?$allocator@D@2@@std@@@2@@2@U?$less@V?$basic_string@DU?$char_traits@D@std@@V?$allocator@D@2@@std@@@2@V?$allocator@U?$pair@$$CBV?$basic_string@DU?$char_traits@D@std@@V?$allocator@D@2@@std@@V?$vector@V?$basic_string@DU?$char_traits@D@std@@V?$allocator@D@2@@std@@V?$allocator@V?$basic_string@DU?$char_traits@D@std@@V?$allocator@D@2@@std@@@2@@2@@std@@@2@$0A@@std@@@std@@QAE?AV?$_Tree_iterator@V?$_Tree_val@U?$_Tree_simple_types@U?$pair@$$CBV?$basic_string@DU?$char_traits@D@std@@V?$allocator@D@2@@std@@V?$vector@V?$basic_string@DU?$char_traits@D@std@@V?$allocator@D@2@@std@@V?$allocator@V?$basic_string@DU?$char_traits@D@std@@V?$allocator@D@2@@std@@@2@@2@@std@@@std@@@std@@@2@ABV?$basic_string@DU?$char_traits@D@std@@V?$allocator@D@2@@2@@Z ; std::_Tree<std::_Tmap_traits<std::basic_string<char,std::char_traits<char>,std::allocator<char> >,std::vector<std::basic_string<char,std::char_traits<char>,std::allocator<char> >,std::allocator<std::basic_string<char,std::char_traits<char>,std::allocator<char> > > >,std::less<std::basic_string<char,std::char_traits<char>,std::allocator<char> > >,std::allocator<std::pair<std::basic_string<char,std::char_traits<char>,std::allocator<char> > const ,std::vector<std::basic_string<char,std::char_traits<char>,std::allocator<char> >,std::allocator<std::basic_string<char,std::char_traits<char>,std::allocator<char> > > > > >,0> >::find
PUBLIC	?_Insert_node@?$_Tree_val@U?$_Tree_simple_types@U?$pair@$$CBV?$basic_string@DU?$char_traits@D@std@@V?$allocator@D@2@@std@@V?$vector@V?$basic_string@DU?$char_traits@D@std@@V?$allocator@D@2@@std@@V?$allocator@V?$basic_string@DU?$char_traits@D@std@@V?$allocator@D@2@@std@@@2@@2@@std@@@std@@@std@@QAEPAU?$_Tree_node@U?$pair@$$CBV?$basic_string@DU?$char_traits@D@std@@V?$allocator@D@2@@std@@V?$vector@V?$basic_string@DU?$char_traits@D@std@@V?$allocator@D@2@@std@@V?$allocator@V?$basic_string@DU?$char_traits@D@std@@V?$allocator@D@2@@std@@@2@@2@@std@@PAX@2@U?$_Tree_id@PAU?$_Tree_node@U?$pair@$$CBV?$basic_string@DU?$char_traits@D@std@@V?$allocator@D@2@@std@@V?$vector@V?$basic_string@DU?$char_traits@D@std@@V?$allocator@D@2@@std@@V?$allocator@V?$basic_string@DU?$char_traits@D@std@@V?$allocator@D@2@@std@@@2@@2@@std@@PAX@std@@@2@QAU32@@Z ; std::_Tree_val<std::_Tree_simple_types<std::pair<std::basic_string<char,std::char_traits<char>,std::allocator<char> > const ,std::vector<std::basic_string<char,std::char_traits<char>,std::allocator<char> >,std::allocator<std::basic_string<char,std::char_traits<char>,std::allocator<char> > > > > > >::_Insert_node
PUBLIC	??A?$map@V?$basic_string@DU?$char_traits@D@std@@V?$allocator@D@2@@std@@V?$vector@V?$basic_string@DU?$char_traits@D@std@@V?$allocator@D@2@@std@@V?$allocator@V?$basic_string@DU?$char_traits@D@std@@V?$allocator@D@2@@std@@@2@@2@U?$less@V?$basic_string@DU?$char_traits@D@std@@V?$allocator@D@2@@std@@@2@V?$allocator@U?$pair@$$CBV?$basic_string@DU?$char_traits@D@std@@V?$allocator@D@2@@std@@V?$vector@V?$basic_string@DU?$char_traits@D@std@@V?$allocator@D@2@@std@@V?$allocator@V?$basic_string@DU?$char_traits@D@std@@V?$allocator@D@2@@std@@@2@@2@@std@@@2@@std@@QAEAAV?$vector@V?$basic_string@DU?$char_traits@D@std@@V?$allocator@D@2@@std@@V?$allocator@V?$basic_string@DU?$char_traits@D@std@@V?$allocator@D@2@@std@@@2@@1@$$QAV?$basic_string@DU?$char_traits@D@std@@V?$allocator@D@2@@1@@Z ; std::map<std::basic_string<char,std::char_traits<char>,std::allocator<char> >,std::vector<std::basic_string<char,std::char_traits<char>,std::allocator<char> >,std::allocator<std::basic_string<char,std::char_traits<char>,std::allocator<char> > > >,std::less<std::basic_string<char,std::char_traits<char>,std::allocator<char> > >,std::allocator<std::pair<std::basic_string<char,std::char_traits<char>,std::allocator<char> > const ,std::vector<std::basic_string<char,std::char_traits<char>,std::allocator<char> >,std::allocator<std::basic_string<char,std::char_traits<char>,std::allocator<char> > > > > > >::operator[]
PUBLIC	??1?$map@V?$basic_string@DU?$char_traits@D@std@@V?$allocator@D@2@@std@@V?$vector@V?$basic_string@DU?$char_traits@D@std@@V?$allocator@D@2@@std@@V?$allocator@V?$basic_string@DU?$char_traits@D@std@@V?$allocator@D@2@@std@@@2@@2@U?$less@V?$basic_string@DU?$char_traits@D@std@@V?$allocator@D@2@@std@@@2@V?$allocator@U?$pair@$$CBV?$basic_string@DU?$char_traits@D@std@@V?$allocator@D@2@@std@@V?$vector@V?$basic_string@DU?$char_traits@D@std@@V?$allocator@D@2@@std@@V?$allocator@V?$basic_string@DU?$char_traits@D@std@@V?$allocator@D@2@@std@@@2@@2@@std@@@2@@std@@QAE@XZ ; std::map<std::basic_string<char,std::char_traits<char>,std::allocator<char> >,std::vector<std::basic_string<char,std::char_traits<char>,std::allocator<char> >,std::allocator<std::basic_string<char,std::char_traits<char>,std::allocator<char> > > >,std::less<std::basic_string<char,std::char_traits<char>,std::allocator<char> > >,std::allocator<std::pair<std::basic_string<char,std::char_traits<char>,std::allocator<char> > const ,std::vector<std::basic_string<char,std::char_traits<char>,std::allocator<char> >,std::allocator<std::basic_string<char,std::char_traits<char>,std::allocator<char> > > > > > >::~map<std::basic_string<char,std::char_traits<char>,std::allocator<char> >,std::vector<std::basic_string<char,std::char_traits<char>,std::allocator<char> >,std::allocator<std::basic_string<char,std::char_traits<char>,std::allocator<char> > > >,std::less<std::basic_string<char,std::char_traits<char>,std::allocator<char> > >,std::allocator<std::pair<std::basic_string<char,std::char_traits<char>,std::allocator<char> > const ,std::vector<std::basic_string<char,std::char_traits<char>,std::allocator<char> >,std::allocator<std::basic_string<char,std::char_traits<char>,std::allocator<char> > > > > > >
PUBLIC	??$?9DU?$char_traits@D@std@@V?$allocator@D@1@@std@@YA_NABV?$basic_string@DU?$char_traits@D@std@@V?$allocator@D@2@@0@QBD@Z ; std::operator!=<char,std::char_traits<char>,std::allocator<char> >
PUBLIC	??$_Find_lower_bound@V?$basic_string@DU?$char_traits@D@std@@V?$allocator@D@2@@std@@@?$_Tree@V?$_Tmap_traits@V?$basic_string@DU?$char_traits@D@std@@V?$allocator@D@2@@std@@V?$vector@V?$basic_string@DU?$char_traits@D@std@@V?$allocator@D@2@@std@@V?$allocator@V?$basic_string@DU?$char_traits@D@std@@V?$allocator@D@2@@std@@@2@@2@U?$less@V?$basic_string@DU?$char_traits@D@std@@V?$allocator@D@2@@std@@@2@V?$allocator@U?$pair@$$CBV?$basic_string@DU?$char_traits@D@std@@V?$allocator@D@2@@std@@V?$vector@V?$basic_string@DU?$char_traits@D@std@@V?$allocator@D@2@@std@@V?$allocator@V?$basic_string@DU?$char_traits@D@std@@V?$allocator@D@2@@std@@@2@@2@@std@@@2@$0A@@std@@@std@@IBE?AU?$_Tree_find_result@PAU?$_Tree_node@U?$pair@$$CBV?$basic_string@DU?$char_traits@D@std@@V?$allocator@D@2@@std@@V?$vector@V?$basic_string@DU?$char_traits@D@std@@V?$allocator@D@2@@std@@V?$allocator@V?$basic_string@DU?$char_traits@D@std@@V?$allocator@D@2@@std@@@2@@2@@std@@PAX@std@@@1@ABV?$basic_string@DU?$char_traits@D@std@@V?$allocator@D@2@@1@@Z ; std::_Tree<std::_Tmap_traits<std::basic_string<char,std::char_traits<char>,std::allocator<char> >,std::vector<std::basic_string<char,std::char_traits<char>,std::allocator<char> >,std::allocator<std::basic_string<char,std::char_traits<char>,std::allocator<char> > > >,std::less<std::basic_string<char,std::char_traits<char>,std::allocator<char> > >,std::allocator<std::pair<std::basic_string<char,std::char_traits<char>,std::allocator<char> > const ,std::vector<std::basic_string<char,std::char_traits<char>,std::allocator<char> >,std::allocator<std::basic_string<char,std::char_traits<char>,std::allocator<char> > > > > >,0> >::_Find_lower_bound<std::basic_string<char,std::char_traits<char>,std::allocator<char> > >
PUBLIC	??1?$_Alloc_construct_ptr@V?$allocator@U?$_Tree_node@U?$pair@$$CBV?$basic_string@DU?$char_traits@D@std@@V?$allocator@D@2@@std@@V?$vector@V?$basic_string@DU?$char_traits@D@std@@V?$allocator@D@2@@std@@V?$allocator@V?$basic_string@DU?$char_traits@D@std@@V?$allocator@D@2@@std@@@2@@2@@std@@PAX@std@@@std@@@std@@QAE@XZ ; std::_Alloc_construct_ptr<std::allocator<std::_Tree_node<std::pair<std::basic_string<char,std::char_traits<char>,std::allocator<char> > const ,std::vector<std::basic_string<char,std::char_traits<char>,std::allocator<char> >,std::allocator<std::basic_string<char,std::char_traits<char>,std::allocator<char> > > > >,void *> > >::~_Alloc_construct_ptr<std::allocator<std::_Tree_node<std::pair<std::basic_string<char,std::char_traits<char>,std::allocator<char> > const ,std::vector<std::basic_string<char,std::char_traits<char>,std::allocator<char> >,std::allocator<std::basic_string<char,std::char_traits<char>,std::allocator<char> > > > >,void *> > >
PUBLIC	??$_Erase_tree@V?$allocator@U?$_Tree_node@U?$pair@$$CBV?$basic_string@DU?$char_traits@D@std@@V?$allocator@D@2@@std@@V?$vector@V?$basic_string@DU?$char_traits@D@std@@V?$allocator@D@2@@std@@V?$allocator@V?$basic_string@DU?$char_traits@D@std@@V?$allocator@D@2@@std@@@2@@2@@std@@PAX@std@@@std@@@?$_Tree_val@U?$_Tree_simple_types@U?$pair@$$CBV?$basic_string@DU?$char_traits@D@std@@V?$allocator@D@2@@std@@V?$vector@V?$basic_string@DU?$char_traits@D@std@@V?$allocator@D@2@@std@@V?$allocator@V?$basic_string@DU?$char_traits@D@std@@V?$allocator@D@2@@std@@@2@@2@@std@@@std@@@std@@QAEXAAV?$allocator@U?$_Tree_node@U?$pair@$$CBV?$basic_string@DU?$char_traits@D@std@@V?$allocator@D@2@@std@@V?$vector@V?$basic_string@DU?$char_traits@D@std@@V?$allocator@D@2@@std@@V?$allocator@V?$basic_string@DU?$char_traits@D@std@@V?$allocator@D@2@@std@@@2@@2@@std@@PAX@std@@@1@PAU?$_Tree_node@U?$pair@$$CBV?$basic_string@DU?$char_traits@D@std@@V?$allocator@D@2@@std@@V?$vector@V?$basic_string@DU?$char_traits@D@std@@V?$allocator@D@2@@std@@V?$allocator@V?$basic_string@DU?$char_traits@D@std@@V?$allocator@D@2@@std@@@2@@2@@std@@PAX@1@@Z ; std::_Tree_val<std::_Tree_simple_types<std::pair<std::basic_string<char,std::char_traits<char>,std::allocator<char> > const ,std::vector<std::basic_string<char,std::char_traits<char>,std::allocator<char> >,std::allocator<std::basic_string<char,std::char_traits<char>,std::allocator<char> > > > > > >::_Erase_tree<std::allocator<std::_Tree_node<std::pair<std::basic_string<char,std::char_traits<char>,std::allocator<char> > const ,std::vector<std::basic_string<char,std::char_traits<char>,std::allocator<char> >,std::allocator<std::basic_string<char,std::char_traits<char>,std::allocator<char> > > > >,void *> > >
PUBLIC	??$destroy@U?$pair@$$CBV?$basic_string@DU?$char_traits@D@std@@V?$allocator@D@2@@std@@V?$vector@V?$basic_string@DU?$char_traits@D@std@@V?$allocator@D@2@@std@@V?$allocator@V?$basic_string@DU?$char_traits@D@std@@V?$allocator@D@2@@std@@@2@@2@@std@@@?$_Default_allocator_traits@V?$allocator@U?$_Tree_node@U?$pair@$$CBV?$basic_string@DU?$char_traits@D@std@@V?$allocator@D@2@@std@@V?$vector@V?$basic_string@DU?$char_traits@D@std@@V?$allocator@D@2@@std@@V?$allocator@V?$basic_string@DU?$char_traits@D@std@@V?$allocator@D@2@@std@@@2@@2@@std@@PAX@std@@@std@@@std@@SAXAAV?$allocator@U?$_Tree_node@U?$pair@$$CBV?$basic_string@DU?$char_traits@D@std@@V?$allocator@D@2@@std@@V?$vector@V?$basic_string@DU?$char_traits@D@std@@V?$allocator@D@2@@std@@V?$allocator@V?$basic_string@DU?$char_traits@D@std@@V?$allocator@D@2@@std@@@2@@2@@std@@PAX@std@@@1@QAU?$pair@$$CBV?$basic_string@DU?$char_traits@D@std@@V?$allocator@D@2@@std@@V?$vector@V?$basic_string@DU?$char_traits@D@std@@V?$allocator@D@2@@std@@V?$allocator@V?$basic_string@DU?$char_traits@D@std@@V?$allocator@D@2@@std@@@2@@2@@1@@Z ; std::_Default_allocator_traits<std::allocator<std::_Tree_node<std::pair<std::basic_string<char,std::char_traits<char>,std::allocator<char> > const ,std::vector<std::basic_string<char,std::char_traits<char>,std::allocator<char> >,std::allocator<std::basic_string<char,std::char_traits<char>,std::allocator<char> > > > >,void *> > >::destroy<std::pair<std::basic_string<char,std::char_traits<char>,std::allocator<char> > const ,std::vector<std::basic_string<char,std::char_traits<char>,std::allocator<char> >,std::allocator<std::basic_string<char,std::char_traits<char>,std::allocator<char> > > > > >
PUBLIC	??$uninitialized_copy@PAPAPAVCArea@@PAPAPAV1@@std@@YAPAPAPAVCArea@@QAPAPAV1@0PAPAPAV1@@Z ; std::uninitialized_copy<CArea * * *,CArea * * *>
PUBLIC	??$_Uninitialized_value_construct_n_unchecked1@PAPAPAVCArea@@I@std@@YAPAPAPAVCArea@@PAPAPAV1@I@Z ; std::_Uninitialized_value_construct_n_unchecked1<CArea * * *,unsigned int>
PUBLIC	??$uninitialized_copy@PAPAPAVCTerrain@@PAPAPAV1@@std@@YAPAPAPAVCTerrain@@QAPAPAV1@0PAPAPAV1@@Z ; std::uninitialized_copy<CTerrain * * *,CTerrain * * *>
PUBLIC	??$_Uninitialized_value_construct_n_unchecked1@PAPAPAVCTerrain@@I@std@@YAPAPAPAVCTerrain@@PAPAPAV1@I@Z ; std::_Uninitialized_value_construct_n_unchecked1<CTerrain * * *,unsigned int>
PUBLIC	??$_Zero_range@PAPAPAVCArea@@@std@@YAPAPAPAVCArea@@QAPAPAV1@0@Z ; std::_Zero_range<CArea * * *>
PUBLIC	??$_Zero_range@PAPAPAVCTerrain@@@std@@YAPAPAPAVCTerrain@@QAPAPAV1@0@Z ; std::_Zero_range<CTerrain * * *>
PUBLIC	??$?MDU?$char_traits@D@std@@V?$allocator@D@1@@std@@YA_NABV?$basic_string@DU?$char_traits@D@std@@V?$allocator@D@2@@0@0@Z ; std::operator<<char,std::char_traits<char>,std::allocator<char> >
PUBLIC	??$_Copy_memmove@PAPAPAVCArea@@PAPAPAV1@@std@@YAPAPAPAVCArea@@PAPAPAV1@00@Z ; std::_Copy_memmove<CArea * * *,CArea * * *>
PUBLIC	??$_Copy_memmove@PAPAPAVCTerrain@@PAPAPAV1@@std@@YAPAPAPAVCTerrain@@PAPAPAV1@00@Z ; std::_Copy_memmove<CTerrain * * *,CTerrain * * *>
PUBLIC	?_OptionsStorage@?1??__local_stdio_printf_options@@9@4_KA ; `__local_stdio_printf_options'::`2'::_OptionsStorage
PUBLIC	??_7exception@std@@6B@				; std::exception::`vftable'
PUBLIC	??_C@_0BC@EOODALEL@Unknown?5exception@		; `string'
PUBLIC	??_7bad_alloc@std@@6B@				; std::bad_alloc::`vftable'
PUBLIC	??_7bad_array_new_length@std@@6B@		; std::bad_array_new_length::`vftable'
PUBLIC	??_C@_0BF@KINCDENJ@bad?5array?5new?5length@	; `string'
PUBLIC	__TI3?AVbad_array_new_length@std@@
PUBLIC	__CTA3?AVbad_array_new_length@std@@
PUBLIC	??_R0?AVbad_array_new_length@std@@@8		; std::bad_array_new_length `RTTI Type Descriptor'
PUBLIC	__CT??_R0?AVbad_array_new_length@std@@@8??0bad_array_new_length@std@@QAE@ABV01@@Z12
PUBLIC	??_R0?AVbad_alloc@std@@@8			; std::bad_alloc `RTTI Type Descriptor'
PUBLIC	__CT??_R0?AVbad_alloc@std@@@8??0bad_alloc@std@@QAE@ABV01@@Z12
PUBLIC	??_R0?AVexception@std@@@8			; std::exception `RTTI Type Descriptor'
PUBLIC	__CT??_R0?AVexception@std@@@8??0exception@std@@QAE@ABV01@@Z12
PUBLIC	??_C@_0BA@JFNIOLAK@string?5too?5long@		; `string'
PUBLIC	??_C@_0BB@GCADKGJO@map?1set?5too?5long@		; `string'
PUBLIC	??_R4exception@std@@6B@				; std::exception::`RTTI Complete Object Locator'
PUBLIC	??_R3exception@std@@8				; std::exception::`RTTI Class Hierarchy Descriptor'
PUBLIC	??_R2exception@std@@8				; std::exception::`RTTI Base Class Array'
PUBLIC	??_R1A@?0A@EA@exception@std@@8			; std::exception::`RTTI Base Class Descriptor at (0,-1,0,64)'
PUBLIC	??_R4bad_alloc@std@@6B@				; std::bad_alloc::`RTTI Complete Object Locator'
PUBLIC	??_R3bad_alloc@std@@8				; std::bad_alloc::`RTTI Class Hierarchy Descriptor'
PUBLIC	??_R2bad_alloc@std@@8				; std::bad_alloc::`RTTI Base Class Array'
PUBLIC	??_R1A@?0A@EA@bad_alloc@std@@8			; std::bad_alloc::`RTTI Base Class Descriptor at (0,-1,0,64)'
PUBLIC	??_R4bad_array_new_length@std@@6B@		; std::bad_array_new_length::`RTTI Complete Object Locator'
PUBLIC	??_R3bad_array_new_length@std@@8		; std::bad_array_new_length::`RTTI Class Hierarchy Descriptor'
PUBLIC	??_R2bad_array_new_length@std@@8		; std::bad_array_new_length::`RTTI Base Class Array'
PUBLIC	??_R1A@?0A@EA@bad_array_new_length@std@@8	; std::bad_array_new_length::`RTTI Base Class Descriptor at (0,-1,0,64)'
PUBLIC	??_7TEMP_CAreaLoaderThread@@6B@			; TEMP_CAreaLoaderThread::`vftable'
PUBLIC	??_C@_0FE@BAIIJAJL@TEMP_CAreaLoaderThread?3?3Execute@ ; `string'
PUBLIC	??_C@_0DI@ILGIOFFC@TEMP_CAreaLoaderThread?3?3Request@ ; `string'
PUBLIC	??_C@_0DO@MFBBOCDC@TEMP_CAreaLoaderThread?3?3Process@ ; `string'
PUBLIC	??_C@_08HAAOAKJA@?$CFs?2?$CF06u?2@		; `string'
PUBLIC	??_C@_0DO@IKNACHFC@TEMP_CAreaLoaderThread?3?3Process@ ; `string'
PUBLIC	??_C@_0EB@FFIMHONH@TEMP_CAreaLoaderThread?3?3Process@ ; `string'
PUBLIC	??_C@_0BJ@PNPPDMHN@?$CFs?2?$CF06u?2AreaProperty?4txt@ ; `string'
PUBLIC	??_C@_0L@PCFMFEAG@scripttype@			; `string'
PUBLIC	??_C@_08FLKAMJDN@areaname@			; `string'
PUBLIC	??_C@_0N@JAFNMPED@AreaProperty@			; `string'
PUBLIC	??_C@_0BD@OEBGBMHL@?$CFs?2?$CF06u?2height?4raw@	; `string'
PUBLIC	??_C@_0BB@KIEAEMGF@?$CFs?2?$CF06u?2tile?4raw@	; `string'
PUBLIC	??_C@_0BB@MGHNOCIE@?$CFs?2?$CF06u?2attr?4atr@	; `string'
PUBLIC	??_C@_0BC@COFDKBDG@?$CFs?2?$CF06u?2water?4wtr@	; `string'
PUBLIC	??_C@_0BG@JDDLCJKB@?$CFs?2?$CF06u?2shadowmap?4dds@ ; `string'
PUBLIC	??_C@_0BG@IEOOCGAN@?$CFs?2?$CF06u?2shadowmap?4raw@ ; `string'
PUBLIC	??_C@_0BE@OEFJKKPK@?$CFs?2?$CF06u?2minimap?4dds@ ; `string'
PUBLIC	??_C@_0EE@GJPDLMNG@TEMP_CAreaLoaderThread?3?3Process@ ; `string'
PUBLIC	??_C@_0BC@KBDMBKEH@deque?$DMT?$DO?5too?5long@	; `string'
PUBLIC	??_R4TEMP_CAreaLoaderThread@@6B@		; TEMP_CAreaLoaderThread::`RTTI Complete Object Locator'
PUBLIC	??_R0?AVTEMP_CAreaLoaderThread@@@8		; TEMP_CAreaLoaderThread `RTTI Type Descriptor'
PUBLIC	??_R3TEMP_CAreaLoaderThread@@8			; TEMP_CAreaLoaderThread::`RTTI Class Hierarchy Descriptor'
PUBLIC	??_R2TEMP_CAreaLoaderThread@@8			; TEMP_CAreaLoaderThread::`RTTI Base Class Array'
PUBLIC	??_R1A@?0A@EA@TEMP_CAreaLoaderThread@@8		; TEMP_CAreaLoaderThread::`RTTI Base Class Descriptor at (0,-1,0,64)'
EXTRN	??2@YAPAXI@Z:PROC				; operator new
EXTRN	??3@YAXPAXI@Z:PROC				; operator delete
EXTRN	__invalid_parameter_noinfo_noreturn:PROC
EXTRN	__imp__CloseHandle@4:PROC
EXTRN	__imp__ReleaseSemaphore@12:PROC
EXTRN	__imp__WaitForSingleObject@8:PROC
EXTRN	__imp__Sleep@4:PROC
EXTRN	__imp__SetThreadPriority@8:PROC
EXTRN	__imp__CreateSemaphoreA@16:PROC
EXTRN	___stdio_common_vsprintf:PROC
EXTRN	___std_exception_copy:PROC
EXTRN	___std_exception_destroy:PROC
EXTRN	??_Eexception@std@@UAEPAXI@Z:PROC		; std::exception::`vector deleting destructor'
EXTRN	??_Ebad_alloc@std@@UAEPAXI@Z:PROC		; std::bad_alloc::`vector deleting destructor'
EXTRN	??_Ebad_array_new_length@std@@UAEPAXI@Z:PROC	; std::bad_array_new_length::`vector deleting destructor'
EXTRN	?_Xlength_error@std@@YAXPBD@Z:PROC		; std::_Xlength_error
EXTRN	__beginthreadex:PROC
EXTRN	?Tracef@@YAXPBDZZ:PROC				; Tracef
EXTRN	?TraceError@@YAXPBDZZ:PROC			; TraceError
EXTRN	?ELTimer_GetMSec@@YAKXZ:PROC			; ELTimer_GetMSec
EXTRN	?LoadMultipleTextData@@YA_NPBDAAV?$map@V?$basic_string@DU?$char_traits@D@std@@V?$allocator@D@2@@std@@V?$vector@V?$basic_string@DU?$char_traits@D@std@@V?$allocator@D@2@@std@@V?$allocator@V?$basic_string@DU?$char_traits@D@std@@V?$allocator@D@2@@std@@@2@@2@U?$less@V?$basic_string@DU?$char_traits@D@std@@V?$allocator@D@2@@std@@@2@V?$allocator@U?$pair@$$CBV?$basic_string@DU?$char_traits@D@std@@V?$allocator@D@2@@std@@V?$vector@V?$basic_string@DU?$char_traits@D@std@@V?$allocator@D@2@@std@@V?$allocator@V?$basic_string@DU?$char_traits@D@std@@V?$allocator@D@2@@std@@@2@@2@@std@@@2@@std@@@Z:PROC ; LoadMultipleTextData
EXTRN	??0Mutex@@QAE@XZ:PROC				; Mutex::Mutex
EXTRN	??1Mutex@@QAE@XZ:PROC				; Mutex::~Mutex
EXTRN	?Lock@Mutex@@QAEXXZ:PROC			; Mutex::Lock
EXTRN	?Unlock@Mutex@@QAEXXZ:PROC			; Mutex::Unlock
EXTRN	??_ETEMP_CAreaLoaderThread@@UAEPAXI@Z:PROC	; TEMP_CAreaLoaderThread::`vector deleting destructor'
EXTRN	?LoadWaterMap@CTerrainImpl@@QAE_NPBD@Z:PROC	; CTerrainImpl::LoadWaterMap
EXTRN	?RAW_LoadTileMap@CTerrain@@QAE_NPBD_N@Z:PROC	; CTerrain::RAW_LoadTileMap
EXTRN	?LoadHeightMap@CTerrain@@QAE_NPBD@Z:PROC	; CTerrain::LoadHeightMap
EXTRN	?CalculateTerrainPatch@CTerrain@@QAEXXZ:PROC	; CTerrain::CalculateTerrainPatch
EXTRN	?CopySettingFromGlobalSetting@CTerrain@@QAEXXZ:PROC ; CTerrain::CopySettingFromGlobalSetting
EXTRN	?LoadAttrMap@CTerrain@@QAE_NPBD@Z:PROC		; CTerrain::LoadAttrMap
EXTRN	?LoadShadowTexture@CTerrain@@QAEXPBD@Z:PROC	; CTerrain::LoadShadowTexture
EXTRN	?LoadShadowMap@CTerrain@@QAE_NPBD@Z:PROC	; CTerrain::LoadShadowMap
EXTRN	?LoadMiniMapTexture@CTerrain@@QAEXPBD@Z:PROC	; CTerrain::LoadMiniMapTexture
EXTRN	?Load@CArea@@QAE_NPBD@Z:PROC			; CArea::Load
EXTRN	?GetCoordinate@CArea@@QAEXPAG0@Z:PROC		; CArea::GetCoordinate
EXTRN	@__security_check_cookie@4:PROC
EXTRN	__CxxThrowException@8:PROC
EXTRN	___CxxFrameHandler3:PROC
EXTRN	_memcpy:PROC
EXTRN	_memmove:PROC
EXTRN	_memset:PROC
EXTRN	??_7type_info@@6B@:QWORD			; type_info::`vftable'
EXTRN	?g_iLoadingDelayTime@@3HA:DWORD			; g_iLoadingDelayTime
EXTRN	___security_cookie:DWORD
;	COMDAT ?_OptionsStorage@?1??__local_stdio_printf_options@@9@4_KA
_BSS	SEGMENT
?_OptionsStorage@?1??__local_stdio_printf_options@@9@4_KA DQ 01H DUP (?) ; `__local_stdio_printf_options'::`2'::_OptionsStorage
_BSS	ENDS
;	COMDAT ??_R1A@?0A@EA@TEMP_CAreaLoaderThread@@8
rdata$r	SEGMENT
??_R1A@?0A@EA@TEMP_CAreaLoaderThread@@8 DD FLAT:??_R0?AVTEMP_CAreaLoaderThread@@@8 ; TEMP_CAreaLoaderThread::`RTTI Base Class Descriptor at (0,-1,0,64)'
	DD	00H
	DD	00H
	DD	0ffffffffH
	DD	00H
	DD	040H
	DD	FLAT:??_R3TEMP_CAreaLoaderThread@@8
rdata$r	ENDS
;	COMDAT ??_R2TEMP_CAreaLoaderThread@@8
rdata$r	SEGMENT
??_R2TEMP_CAreaLoaderThread@@8 DD FLAT:??_R1A@?0A@EA@TEMP_CAreaLoaderThread@@8 ; TEMP_CAreaLoaderThread::`RTTI Base Class Array'
rdata$r	ENDS
;	COMDAT ??_R3TEMP_CAreaLoaderThread@@8
rdata$r	SEGMENT
??_R3TEMP_CAreaLoaderThread@@8 DD 00H			; TEMP_CAreaLoaderThread::`RTTI Class Hierarchy Descriptor'
	DD	00H
	DD	01H
	DD	FLAT:??_R2TEMP_CAreaLoaderThread@@8
rdata$r	ENDS
;	COMDAT ??_R0?AVTEMP_CAreaLoaderThread@@@8
data$rs	SEGMENT
??_R0?AVTEMP_CAreaLoaderThread@@@8 DD FLAT:??_7type_info@@6B@ ; TEMP_CAreaLoaderThread `RTTI Type Descriptor'
	DD	00H
	DB	'.?AVTEMP_CAreaLoaderThread@@', 00H
data$rs	ENDS
;	COMDAT ??_R4TEMP_CAreaLoaderThread@@6B@
rdata$r	SEGMENT
??_R4TEMP_CAreaLoaderThread@@6B@ DD 00H			; TEMP_CAreaLoaderThread::`RTTI Complete Object Locator'
	DD	00H
	DD	00H
	DD	FLAT:??_R0?AVTEMP_CAreaLoaderThread@@@8
	DD	FLAT:??_R3TEMP_CAreaLoaderThread@@8
rdata$r	ENDS
;	COMDAT ??_C@_0BC@KBDMBKEH@deque?$DMT?$DO?5too?5long@
CONST	SEGMENT
??_C@_0BC@KBDMBKEH@deque?$DMT?$DO?5too?5long@ DB 'deque<T> too long', 00H ; `string'
CONST	ENDS
;	COMDAT ??_C@_0EE@GJPDLMNG@TEMP_CAreaLoaderThread?3?3Process@
CONST	SEGMENT
??_C@_0EE@GJPDLMNG@TEMP_CAreaLoaderThread?3?3Process@ DB 'TEMP_CAreaLoade'
	DB	'rThread::ProcessTerrain LoadTerrain : %d ms elapsed', 0aH, 00H ; `string'
CONST	ENDS
;	COMDAT ??_C@_0BE@OEFJKKPK@?$CFs?2?$CF06u?2minimap?4dds@
CONST	SEGMENT
??_C@_0BE@OEFJKKPK@?$CFs?2?$CF06u?2minimap?4dds@ DB '%s\%06u\minimap.dds', 00H ; `string'
CONST	ENDS
;	COMDAT ??_C@_0BG@IEOOCGAN@?$CFs?2?$CF06u?2shadowmap?4raw@
CONST	SEGMENT
??_C@_0BG@IEOOCGAN@?$CFs?2?$CF06u?2shadowmap?4raw@ DB '%s\%06u\shadowmap.'
	DB	'raw', 00H					; `string'
CONST	ENDS
;	COMDAT ??_C@_0BG@JDDLCJKB@?$CFs?2?$CF06u?2shadowmap?4dds@
CONST	SEGMENT
??_C@_0BG@JDDLCJKB@?$CFs?2?$CF06u?2shadowmap?4dds@ DB '%s\%06u\shadowmap.'
	DB	'dds', 00H					; `string'
CONST	ENDS
;	COMDAT ??_C@_0BC@COFDKBDG@?$CFs?2?$CF06u?2water?4wtr@
CONST	SEGMENT
??_C@_0BC@COFDKBDG@?$CFs?2?$CF06u?2water?4wtr@ DB '%s\%06u\water.wtr', 00H ; `string'
CONST	ENDS
;	COMDAT ??_C@_0BB@MGHNOCIE@?$CFs?2?$CF06u?2attr?4atr@
CONST	SEGMENT
??_C@_0BB@MGHNOCIE@?$CFs?2?$CF06u?2attr?4atr@ DB '%s\%06u\attr.atr', 00H ; `string'
CONST	ENDS
;	COMDAT ??_C@_0BB@KIEAEMGF@?$CFs?2?$CF06u?2tile?4raw@
CONST	SEGMENT
??_C@_0BB@KIEAEMGF@?$CFs?2?$CF06u?2tile?4raw@ DB '%s\%06u\tile.raw', 00H ; `string'
CONST	ENDS
;	COMDAT ??_C@_0BD@OEBGBMHL@?$CFs?2?$CF06u?2height?4raw@
CONST	SEGMENT
??_C@_0BD@OEBGBMHL@?$CFs?2?$CF06u?2height?4raw@ DB '%s\%06u\height.raw', 00H ; `string'
CONST	ENDS
;	COMDAT ??_C@_0N@JAFNMPED@AreaProperty@
CONST	SEGMENT
??_C@_0N@JAFNMPED@AreaProperty@ DB 'AreaProperty', 00H	; `string'
CONST	ENDS
;	COMDAT ??_C@_08FLKAMJDN@areaname@
CONST	SEGMENT
??_C@_08FLKAMJDN@areaname@ DB 'areaname', 00H		; `string'
CONST	ENDS
;	COMDAT ??_C@_0L@PCFMFEAG@scripttype@
CONST	SEGMENT
??_C@_0L@PCFMFEAG@scripttype@ DB 'scripttype', 00H	; `string'
CONST	ENDS
;	COMDAT ??_C@_0BJ@PNPPDMHN@?$CFs?2?$CF06u?2AreaProperty?4txt@
CONST	SEGMENT
??_C@_0BJ@PNPPDMHN@?$CFs?2?$CF06u?2AreaProperty?4txt@ DB '%s\%06u\AreaPro'
	DB	'perty.txt', 00H				; `string'
CONST	ENDS
;	COMDAT ??_C@_0EB@FFIMHONH@TEMP_CAreaLoaderThread?3?3Process@
CONST	SEGMENT
??_C@_0EB@FFIMHONH@TEMP_CAreaLoaderThread?3?3Process@ DB 'TEMP_CAreaLoade'
	DB	'rThread::ProcessTerrain() RequestDeque Size : %d', 0aH, 00H ; `string'
CONST	ENDS
;	COMDAT ??_C@_0DO@IKNACHFC@TEMP_CAreaLoaderThread?3?3Process@
CONST	SEGMENT
??_C@_0DO@IKNACHFC@TEMP_CAreaLoaderThread?3?3Process@ DB 'TEMP_CAreaLoade'
	DB	'rThread::ProcessArea LoadArea : %d ms elapsed', 0aH, 00H ; `string'
CONST	ENDS
;	COMDAT ??_C@_08HAAOAKJA@?$CFs?2?$CF06u?2@
CONST	SEGMENT
??_C@_08HAAOAKJA@?$CFs?2?$CF06u?2@ DB '%s\%06u\', 00H	; `string'
CONST	ENDS
;	COMDAT ??_C@_0DO@MFBBOCDC@TEMP_CAreaLoaderThread?3?3Process@
CONST	SEGMENT
??_C@_0DO@MFBBOCDC@TEMP_CAreaLoaderThread?3?3Process@ DB 'TEMP_CAreaLoade'
	DB	'rThread::ProcessArea() RequestDeque Size : %d', 0aH, 00H ; `string'
CONST	ENDS
;	COMDAT ??_C@_0DI@ILGIOFFC@TEMP_CAreaLoaderThread?3?3Request@
CONST	SEGMENT
??_C@_0DI@ILGIOFFC@TEMP_CAreaLoaderThread?3?3Request@ DB 'TEMP_CAreaLoade'
	DB	'rThread::Request: ReleaseSemaphore error', 00H ; `string'
CONST	ENDS
;	COMDAT ??_C@_0FE@BAIIJAJL@TEMP_CAreaLoaderThread?3?3Execute@
CONST	SEGMENT
??_C@_0FE@BAIIJAJL@TEMP_CAreaLoaderThread?3?3Execute@ DB 'TEMP_CAreaLoade'
	DB	'rThread::Execute: Timeout occured while time-out interval is '
	DB	'INIFITE', 00H				; `string'
CONST	ENDS
;	COMDAT ??_7TEMP_CAreaLoaderThread@@6B@
CONST	SEGMENT
??_7TEMP_CAreaLoaderThread@@6B@ DD FLAT:??_R4TEMP_CAreaLoaderThread@@6B@ ; TEMP_CAreaLoaderThread::`vftable'
	DD	FLAT:??_ETEMP_CAreaLoaderThread@@UAEPAXI@Z
CONST	ENDS
;	COMDAT ??_R1A@?0A@EA@bad_array_new_length@std@@8
rdata$r	SEGMENT
??_R1A@?0A@EA@bad_array_new_length@std@@8 DD FLAT:??_R0?AVbad_array_new_length@std@@@8 ; std::bad_array_new_length::`RTTI Base Class Descriptor at (0,-1,0,64)'
	DD	02H
	DD	00H
	DD	0ffffffffH
	DD	00H
	DD	040H
	DD	FLAT:??_R3bad_array_new_length@std@@8
rdata$r	ENDS
;	COMDAT ??_R2bad_array_new_length@std@@8
rdata$r	SEGMENT
??_R2bad_array_new_length@std@@8 DD FLAT:??_R1A@?0A@EA@bad_array_new_length@std@@8 ; std::bad_array_new_length::`RTTI Base Class Array'
	DD	FLAT:??_R1A@?0A@EA@bad_alloc@std@@8
	DD	FLAT:??_R1A@?0A@EA@exception@std@@8
rdata$r	ENDS
;	COMDAT ??_R3bad_array_new_length@std@@8
rdata$r	SEGMENT
??_R3bad_array_new_length@std@@8 DD 00H			; std::bad_array_new_length::`RTTI Class Hierarchy Descriptor'
	DD	00H
	DD	03H
	DD	FLAT:??_R2bad_array_new_length@std@@8
rdata$r	ENDS
;	COMDAT ??_R4bad_array_new_length@std@@6B@
rdata$r	SEGMENT
??_R4bad_array_new_length@std@@6B@ DD 00H		; std::bad_array_new_length::`RTTI Complete Object Locator'
	DD	00H
	DD	00H
	DD	FLAT:??_R0?AVbad_array_new_length@std@@@8
	DD	FLAT:??_R3bad_array_new_length@std@@8
rdata$r	ENDS
;	COMDAT ??_R1A@?0A@EA@bad_alloc@std@@8
rdata$r	SEGMENT
??_R1A@?0A@EA@bad_alloc@std@@8 DD FLAT:??_R0?AVbad_alloc@std@@@8 ; std::bad_alloc::`RTTI Base Class Descriptor at (0,-1,0,64)'
	DD	01H
	DD	00H
	DD	0ffffffffH
	DD	00H
	DD	040H
	DD	FLAT:??_R3bad_alloc@std@@8
rdata$r	ENDS
;	COMDAT ??_R2bad_alloc@std@@8
rdata$r	SEGMENT
??_R2bad_alloc@std@@8 DD FLAT:??_R1A@?0A@EA@bad_alloc@std@@8 ; std::bad_alloc::`RTTI Base Class Array'
	DD	FLAT:??_R1A@?0A@EA@exception@std@@8
rdata$r	ENDS
;	COMDAT ??_R3bad_alloc@std@@8
rdata$r	SEGMENT
??_R3bad_alloc@std@@8 DD 00H				; std::bad_alloc::`RTTI Class Hierarchy Descriptor'
	DD	00H
	DD	02H
	DD	FLAT:??_R2bad_alloc@std@@8
rdata$r	ENDS
;	COMDAT ??_R4bad_alloc@std@@6B@
rdata$r	SEGMENT
??_R4bad_alloc@std@@6B@ DD 00H				; std::bad_alloc::`RTTI Complete Object Locator'
	DD	00H
	DD	00H
	DD	FLAT:??_R0?AVbad_alloc@std@@@8
	DD	FLAT:??_R3bad_alloc@std@@8
rdata$r	ENDS
;	COMDAT ??_R1A@?0A@EA@exception@std@@8
rdata$r	SEGMENT
??_R1A@?0A@EA@exception@std@@8 DD FLAT:??_R0?AVexception@std@@@8 ; std::exception::`RTTI Base Class Descriptor at (0,-1,0,64)'
	DD	00H
	DD	00H
	DD	0ffffffffH
	DD	00H
	DD	040H
	DD	FLAT:??_R3exception@std@@8
rdata$r	ENDS
;	COMDAT ??_R2exception@std@@8
rdata$r	SEGMENT
??_R2exception@std@@8 DD FLAT:??_R1A@?0A@EA@exception@std@@8 ; std::exception::`RTTI Base Class Array'
rdata$r	ENDS
;	COMDAT ??_R3exception@std@@8
rdata$r	SEGMENT
??_R3exception@std@@8 DD 00H				; std::exception::`RTTI Class Hierarchy Descriptor'
	DD	00H
	DD	01H
	DD	FLAT:??_R2exception@std@@8
rdata$r	ENDS
;	COMDAT ??_R4exception@std@@6B@
rdata$r	SEGMENT
??_R4exception@std@@6B@ DD 00H				; std::exception::`RTTI Complete Object Locator'
	DD	00H
	DD	00H
	DD	FLAT:??_R0?AVexception@std@@@8
	DD	FLAT:??_R3exception@std@@8
rdata$r	ENDS
;	COMDAT ??_C@_0BB@GCADKGJO@map?1set?5too?5long@
CONST	SEGMENT
??_C@_0BB@GCADKGJO@map?1set?5too?5long@ DB 'map/set too long', 00H ; `string'
CONST	ENDS
;	COMDAT ??_C@_0BA@JFNIOLAK@string?5too?5long@
CONST	SEGMENT
??_C@_0BA@JFNIOLAK@string?5too?5long@ DB 'string too long', 00H ; `string'
CONST	ENDS
;	COMDAT __CT??_R0?AVexception@std@@@8??0exception@std@@QAE@ABV01@@Z12
xdata$x	SEGMENT
__CT??_R0?AVexception@std@@@8??0exception@std@@QAE@ABV01@@Z12 DD 00H
	DD	FLAT:??_R0?AVexception@std@@@8
	DD	00H
	DD	0ffffffffH
	ORG $+4
	DD	0cH
	DD	FLAT:??0exception@std@@QAE@ABV01@@Z
xdata$x	ENDS
;	COMDAT ??_R0?AVexception@std@@@8
data$r	SEGMENT
??_R0?AVexception@std@@@8 DD FLAT:??_7type_info@@6B@	; std::exception `RTTI Type Descriptor'
	DD	00H
	DB	'.?AVexception@std@@', 00H
data$r	ENDS
;	COMDAT __CT??_R0?AVbad_alloc@std@@@8??0bad_alloc@std@@QAE@ABV01@@Z12
xdata$x	SEGMENT
__CT??_R0?AVbad_alloc@std@@@8??0bad_alloc@std@@QAE@ABV01@@Z12 DD 010H
	DD	FLAT:??_R0?AVbad_alloc@std@@@8
	DD	00H
	DD	0ffffffffH
	ORG $+4
	DD	0cH
	DD	FLAT:??0bad_alloc@std@@QAE@ABV01@@Z
xdata$x	ENDS
;	COMDAT ??_R0?AVbad_alloc@std@@@8
data$r	SEGMENT
??_R0?AVbad_alloc@std@@@8 DD FLAT:??_7type_info@@6B@	; std::bad_alloc `RTTI Type Descriptor'
	DD	00H
	DB	'.?AVbad_alloc@std@@', 00H
data$r	ENDS
;	COMDAT __CT??_R0?AVbad_array_new_length@std@@@8??0bad_array_new_length@std@@QAE@ABV01@@Z12
xdata$x	SEGMENT
__CT??_R0?AVbad_array_new_length@std@@@8??0bad_array_new_length@std@@QAE@ABV01@@Z12 DD 00H
	DD	FLAT:??_R0?AVbad_array_new_length@std@@@8
	DD	00H
	DD	0ffffffffH
	ORG $+4
	DD	0cH
	DD	FLAT:??0bad_array_new_length@std@@QAE@ABV01@@Z
xdata$x	ENDS
;	COMDAT ??_R0?AVbad_array_new_length@std@@@8
data$r	SEGMENT
??_R0?AVbad_array_new_length@std@@@8 DD FLAT:??_7type_info@@6B@ ; std::bad_array_new_length `RTTI Type Descriptor'
	DD	00H
	DB	'.?AVbad_array_new_length@std@@', 00H
data$r	ENDS
;	COMDAT __CTA3?AVbad_array_new_length@std@@
xdata$x	SEGMENT
__CTA3?AVbad_array_new_length@std@@ DD 03H
	DD	FLAT:__CT??_R0?AVbad_array_new_length@std@@@8??0bad_array_new_length@std@@QAE@ABV01@@Z12
	DD	FLAT:__CT??_R0?AVbad_alloc@std@@@8??0bad_alloc@std@@QAE@ABV01@@Z12
	DD	FLAT:__CT??_R0?AVexception@std@@@8??0exception@std@@QAE@ABV01@@Z12
xdata$x	ENDS
;	COMDAT __TI3?AVbad_array_new_length@std@@
xdata$x	SEGMENT
__TI3?AVbad_array_new_length@std@@ DD 00H
	DD	FLAT:??1bad_array_new_length@std@@UAE@XZ
	DD	00H
	DD	FLAT:__CTA3?AVbad_array_new_length@std@@
xdata$x	ENDS
;	COMDAT ??_C@_0BF@KINCDENJ@bad?5array?5new?5length@
CONST	SEGMENT
??_C@_0BF@KINCDENJ@bad?5array?5new?5length@ DB 'bad array new length', 00H ; `string'
CONST	ENDS
;	COMDAT ??_7bad_array_new_length@std@@6B@
CONST	SEGMENT
??_7bad_array_new_length@std@@6B@ DD FLAT:??_R4bad_array_new_length@std@@6B@ ; std::bad_array_new_length::`vftable'
	DD	FLAT:??_Ebad_array_new_length@std@@UAEPAXI@Z
	DD	FLAT:?what@exception@std@@UBEPBDXZ
CONST	ENDS
;	COMDAT ??_7bad_alloc@std@@6B@
CONST	SEGMENT
??_7bad_alloc@std@@6B@ DD FLAT:??_R4bad_alloc@std@@6B@	; std::bad_alloc::`vftable'
	DD	FLAT:??_Ebad_alloc@std@@UAEPAXI@Z
	DD	FLAT:?what@exception@std@@UBEPBDXZ
CONST	ENDS
;	COMDAT ??_C@_0BC@EOODALEL@Unknown?5exception@
CONST	SEGMENT
??_C@_0BC@EOODALEL@Unknown?5exception@ DB 'Unknown exception', 00H ; `string'
CONST	ENDS
;	COMDAT ??_7exception@std@@6B@
CONST	SEGMENT
??_7exception@std@@6B@ DD FLAT:??_R4exception@std@@6B@	; std::exception::`vftable'
	DD	FLAT:??_Eexception@std@@UAEPAXI@Z
	DD	FLAT:?what@exception@std@@UBEPBDXZ
CONST	ENDS
;	COMDAT xdata$x
xdata$x	SEGMENT
__unwindtable$??$?0ABUpiecewise_construct_t@std@@V?$tuple@$$QAV?$basic_string@DU?$char_traits@D@std@@V?$allocator@D@2@@std@@@1@V?$tuple@$$V@1@@?$_Tree_temp_node@V?$allocator@U?$_Tree_node@U?$pair@$$CBV?$basic_string@DU?$char_traits@D@std@@V?$allocator@D@2@@std@@V?$vector@V?$basic_string@DU?$char_traits@D@std@@V?$allocator@D@2@@std@@V?$allocator@V?$basic_string@DU?$char_traits@D@std@@V?$allocator@D@2@@std@@@2@@2@@std@@PAX@std@@@std@@@std@@QAE@AAV?$allocator@U?$_Tree_node@U?$pair@$$CBV?$basic_string@DU?$char_traits@D@std@@V?$allocator@D@2@@std@@V?$vector@V?$basic_string@DU?$char_traits@D@std@@V?$allocator@D@2@@std@@V?$allocator@V?$basic_string@DU?$char_traits@D@std@@V?$allocator@D@2@@std@@@2@@2@@std@@PAX@std@@@1@PAU?$_Tree_node@U?$pair@$$CBV?$basic_string@DU?$char_traits@D@std@@V?$allocator@D@2@@std@@V?$vector@V?$basic_string@DU?$char_traits@D@std@@V?$allocator@D@2@@std@@V?$allocator@V?$basic_string@DU?$char_traits@D@std@@V?$allocator@D@2@@std@@@2@@2@@std@@PAX@1@ABUpiecewise_construct_t@1@$$QAV?$tuple@$$QAV?$basic_string@DU?$char_traits@D@std@@V?$allocator@D@2@@std@@@1@$$QAV?$tuple@$$V@1@@Z DD 0ffffffffH
	DD	FLAT:__unwindfunclet$??$?0ABUpiecewise_construct_t@std@@V?$tuple@$$QAV?$basic_string@DU?$char_traits@D@std@@V?$allocator@D@2@@std@@@1@V?$tuple@$$V@1@@?$_Tree_temp_node@V?$allocator@U?$_Tree_node@U?$pair@$$CBV?$basic_string@DU?$char_traits@D@std@@V?$allocator@D@2@@std@@V?$vector@V?$basic_string@DU?$char_traits@D@std@@V?$allocator@D@2@@std@@V?$allocator@V?$basic_string@DU?$char_traits@D@std@@V?$allocator@D@2@@std@@@2@@2@@std@@PAX@std@@@std@@@std@@QAE@AAV?$allocator@U?$_Tree_node@U?$pair@$$CBV?$basic_string@DU?$char_traits@D@std@@V?$allocator@D@2@@std@@V?$vector@V?$basic_string@DU?$char_traits@D@std@@V?$allocator@D@2@@std@@V?$allocator@V?$basic_string@DU?$char_traits@D@std@@V?$allocator@D@2@@std@@@2@@2@@std@@PAX@std@@@1@PAU?$_Tree_node@U?$pair@$$CBV?$basic_string@DU?$char_traits@D@std@@V?$allocator@D@2@@std@@V?$vector@V?$basic_string@DU?$char_traits@D@std@@V?$allocator@D@2@@std@@V?$allocator@V?$basic_string@DU?$char_traits@D@std@@V?$allocator@D@2@@std@@@2@@2@@std@@PAX@1@ABUpiecewise_construct_t@1@$$QAV?$tuple@$$QAV?$basic_string@DU?$char_traits@D@std@@V?$allocator@D@2@@std@@@1@$$QAV?$tuple@$$V@1@@Z$1
__ehfuncinfo$??$?0ABUpiecewise_construct_t@std@@V?$tuple@$$QAV?$basic_string@DU?$char_traits@D@std@@V?$allocator@D@2@@std@@@1@V?$tuple@$$V@1@@?$_Tree_temp_node@V?$allocator@U?$_Tree_node@U?$pair@$$CBV?$basic_string@DU?$char_traits@D@std@@V?$allocator@D@2@@std@@V?$vector@V?$basic_string@DU?$char_traits@D@std@@V?$allocator@D@2@@std@@V?$allocator@V?$basic_string@DU?$char_traits@D@std@@V?$allocator@D@2@@std@@@2@@2@@std@@PAX@std@@@std@@@std@@QAE@AAV?$allocator@U?$_Tree_node@U?$pair@$$CBV?$basic_string@DU?$char_traits@D@std@@V?$allocator@D@2@@std@@V?$vector@V?$basic_string@DU?$char_traits@D@std@@V?$allocator@D@2@@std@@V?$allocator@V?$basic_string@DU?$char_traits@D@std@@V?$allocator@D@2@@std@@@2@@2@@std@@PAX@std@@@1@PAU?$_Tree_node@U?$pair@$$CBV?$basic_string@DU?$char_traits@D@std@@V?$allocator@D@2@@std@@V?$vector@V?$basic_string@DU?$char_traits@D@std@@V?$allocator@D@2@@std@@V?$allocator@V?$basic_string@DU?$char_traits@D@std@@V?$allocator@D@2@@std@@@2@@2@@std@@PAX@1@ABUpiecewise_construct_t@1@$$QAV?$tuple@$$QAV?$basic_string@DU?$char_traits@D@std@@V?$allocator@D@2@@std@@@1@$$QAV?$tuple@$$V@1@@Z DD 019930522H
	DD	01H
	DD	FLAT:__unwindtable$??$?0ABUpiecewise_construct_t@std@@V?$tuple@$$QAV?$basic_string@DU?$char_traits@D@std@@V?$allocator@D@2@@std@@@1@V?$tuple@$$V@1@@?$_Tree_temp_node@V?$allocator@U?$_Tree_node@U?$pair@$$CBV?$basic_string@DU?$char_traits@D@std@@V?$allocator@D@2@@std@@V?$vector@V?$basic_string@DU?$char_traits@D@std@@V?$allocator@D@2@@std@@V?$allocator@V?$basic_string@DU?$char_traits@D@std@@V?$allocator@D@2@@std@@@2@@2@@std@@PAX@std@@@std@@@std@@QAE@AAV?$allocator@U?$_Tree_node@U?$pair@$$CBV?$basic_string@DU?$char_traits@D@std@@V?$allocator@D@2@@std@@V?$vector@V?$basic_string@DU?$char_traits@D@std@@V?$allocator@D@2@@std@@V?$allocator@V?$basic_string@DU?$char_traits@D@std@@V?$allocator@D@2@@std@@@2@@2@@std@@PAX@std@@@1@PAU?$_Tree_node@U?$pair@$$CBV?$basic_string@DU?$char_traits@D@std@@V?$allocator@D@2@@std@@V?$vector@V?$basic_string@DU?$char_traits@D@std@@V?$allocator@D@2@@std@@V?$allocator@V?$basic_string@DU?$char_traits@D@std@@V?$allocator@D@2@@std@@@2@@2@@std@@PAX@1@ABUpiecewise_construct_t@1@$$QAV?$tuple@$$QAV?$basic_string@DU?$char_traits@D@std@@V?$allocator@D@2@@std@@@1@$$QAV?$tuple@$$V@1@@Z
	DD	2 DUP(00H)
	DD	2 DUP(00H)
	DD	00H
	DD	01H
xdata$x	ENDS
;	COMDAT xdata$x
xdata$x	SEGMENT
__unwindtable$??0?$_Tree_temp_node_alloc@V?$allocator@U?$_Tree_node@U?$pair@$$CBV?$basic_string@DU?$char_traits@D@std@@V?$allocator@D@2@@std@@V?$vector@V?$basic_string@DU?$char_traits@D@std@@V?$allocator@D@2@@std@@V?$allocator@V?$basic_string@DU?$char_traits@D@std@@V?$allocator@D@2@@std@@@2@@2@@std@@PAX@std@@@std@@@std@@QAE@AAV?$allocator@U?$_Tree_node@U?$pair@$$CBV?$basic_string@DU?$char_traits@D@std@@V?$allocator@D@2@@std@@V?$vector@V?$basic_string@DU?$char_traits@D@std@@V?$allocator@D@2@@std@@V?$allocator@V?$basic_string@DU?$char_traits@D@std@@V?$allocator@D@2@@std@@@2@@2@@std@@PAX@std@@@1@@Z DD 0ffffffffH
	DD	FLAT:__unwindfunclet$??0?$_Tree_temp_node_alloc@V?$allocator@U?$_Tree_node@U?$pair@$$CBV?$basic_string@DU?$char_traits@D@std@@V?$allocator@D@2@@std@@V?$vector@V?$basic_string@DU?$char_traits@D@std@@V?$allocator@D@2@@std@@V?$allocator@V?$basic_string@DU?$char_traits@D@std@@V?$allocator@D@2@@std@@@2@@2@@std@@PAX@std@@@std@@@std@@QAE@AAV?$allocator@U?$_Tree_node@U?$pair@$$CBV?$basic_string@DU?$char_traits@D@std@@V?$allocator@D@2@@std@@V?$vector@V?$basic_string@DU?$char_traits@D@std@@V?$allocator@D@2@@std@@V?$allocator@V?$basic_string@DU?$char_traits@D@std@@V?$allocator@D@2@@std@@@2@@2@@std@@PAX@std@@@1@@Z$0
__ehfuncinfo$??0?$_Tree_temp_node_alloc@V?$allocator@U?$_Tree_node@U?$pair@$$CBV?$basic_string@DU?$char_traits@D@std@@V?$allocator@D@2@@std@@V?$vector@V?$basic_string@DU?$char_traits@D@std@@V?$allocator@D@2@@std@@V?$allocator@V?$basic_string@DU?$char_traits@D@std@@V?$allocator@D@2@@std@@@2@@2@@std@@PAX@std@@@std@@@std@@QAE@AAV?$allocator@U?$_Tree_node@U?$pair@$$CBV?$basic_string@DU?$char_traits@D@std@@V?$allocator@D@2@@std@@V?$vector@V?$basic_string@DU?$char_traits@D@std@@V?$allocator@D@2@@std@@V?$allocator@V?$basic_string@DU?$char_traits@D@std@@V?$allocator@D@2@@std@@@2@@2@@std@@PAX@std@@@1@@Z DD 019930522H
	DD	01H
	DD	FLAT:__unwindtable$??0?$_Tree_temp_node_alloc@V?$allocator@U?$_Tree_node@U?$pair@$$CBV?$basic_string@DU?$char_traits@D@std@@V?$allocator@D@2@@std@@V?$vector@V?$basic_string@DU?$char_traits@D@std@@V?$allocator@D@2@@std@@V?$allocator@V?$basic_string@DU?$char_traits@D@std@@V?$allocator@D@2@@std@@@2@@2@@std@@PAX@std@@@std@@@std@@QAE@AAV?$allocator@U?$_Tree_node@U?$pair@$$CBV?$basic_string@DU?$char_traits@D@std@@V?$allocator@D@2@@std@@V?$vector@V?$basic_string@DU?$char_traits@D@std@@V?$allocator@D@2@@std@@V?$allocator@V?$basic_string@DU?$char_traits@D@std@@V?$allocator@D@2@@std@@@2@@2@@std@@PAX@std@@@1@@Z
	DD	2 DUP(00H)
	DD	2 DUP(00H)
	DD	00H
	DD	01H
xdata$x	ENDS
;	COMDAT xdata$x
xdata$x	SEGMENT
__unwindtable$??$_Try_emplace@V?$basic_string@DU?$char_traits@D@std@@V?$allocator@D@2@@std@@$$V@?$map@V?$basic_string@DU?$char_traits@D@std@@V?$allocator@D@2@@std@@V?$vector@V?$basic_string@DU?$char_traits@D@std@@V?$allocator@D@2@@std@@V?$allocator@V?$basic_string@DU?$char_traits@D@std@@V?$allocator@D@2@@std@@@2@@2@U?$less@V?$basic_string@DU?$char_traits@D@std@@V?$allocator@D@2@@std@@@2@V?$allocator@U?$pair@$$CBV?$basic_string@DU?$char_traits@D@std@@V?$allocator@D@2@@std@@V?$vector@V?$basic_string@DU?$char_traits@D@std@@V?$allocator@D@2@@std@@V?$allocator@V?$basic_string@DU?$char_traits@D@std@@V?$allocator@D@2@@std@@@2@@2@@std@@@2@@std@@AAE?AU?$pair@PAU?$_Tree_node@U?$pair@$$CBV?$basic_string@DU?$char_traits@D@std@@V?$allocator@D@2@@std@@V?$vector@V?$basic_string@DU?$char_traits@D@std@@V?$allocator@D@2@@std@@V?$allocator@V?$basic_string@DU?$char_traits@D@std@@V?$allocator@D@2@@std@@@2@@2@@std@@PAX@std@@_N@1@$$QAV?$basic_string@DU?$char_traits@D@std@@V?$allocator@D@2@@1@@Z DD 0ffffffffH
	DD	FLAT:__unwindfunclet$??$_Try_emplace@V?$basic_string@DU?$char_traits@D@std@@V?$allocator@D@2@@std@@$$V@?$map@V?$basic_string@DU?$char_traits@D@std@@V?$allocator@D@2@@std@@V?$vector@V?$basic_string@DU?$char_traits@D@std@@V?$allocator@D@2@@std@@V?$allocator@V?$basic_string@DU?$char_traits@D@std@@V?$allocator@D@2@@std@@@2@@2@U?$less@V?$basic_string@DU?$char_traits@D@std@@V?$allocator@D@2@@std@@@2@V?$allocator@U?$pair@$$CBV?$basic_string@DU?$char_traits@D@std@@V?$allocator@D@2@@std@@V?$vector@V?$basic_string@DU?$char_traits@D@std@@V?$allocator@D@2@@std@@V?$allocator@V?$basic_string@DU?$char_traits@D@std@@V?$allocator@D@2@@std@@@2@@2@@std@@@2@@std@@AAE?AU?$pair@PAU?$_Tree_node@U?$pair@$$CBV?$basic_string@DU?$char_traits@D@std@@V?$allocator@D@2@@std@@V?$vector@V?$basic_string@DU?$char_traits@D@std@@V?$allocator@D@2@@std@@V?$allocator@V?$basic_string@DU?$char_traits@D@std@@V?$allocator@D@2@@std@@@2@@2@@std@@PAX@std@@_N@1@$$QAV?$basic_string@DU?$char_traits@D@std@@V?$allocator@D@2@@1@@Z$2
__ehfuncinfo$??$_Try_emplace@V?$basic_string@DU?$char_traits@D@std@@V?$allocator@D@2@@std@@$$V@?$map@V?$basic_string@DU?$char_traits@D@std@@V?$allocator@D@2@@std@@V?$vector@V?$basic_string@DU?$char_traits@D@std@@V?$allocator@D@2@@std@@V?$allocator@V?$basic_string@DU?$char_traits@D@std@@V?$allocator@D@2@@std@@@2@@2@U?$less@V?$basic_string@DU?$char_traits@D@std@@V?$allocator@D@2@@std@@@2@V?$allocator@U?$pair@$$CBV?$basic_string@DU?$char_traits@D@std@@V?$allocator@D@2@@std@@V?$vector@V?$basic_string@DU?$char_traits@D@std@@V?$allocator@D@2@@std@@V?$allocator@V?$basic_string@DU?$char_traits@D@std@@V?$allocator@D@2@@std@@@2@@2@@std@@@2@@std@@AAE?AU?$pair@PAU?$_Tree_node@U?$pair@$$CBV?$basic_string@DU?$char_traits@D@std@@V?$allocator@D@2@@std@@V?$vector@V?$basic_string@DU?$char_traits@D@std@@V?$allocator@D@2@@std@@V?$allocator@V?$basic_string@DU?$char_traits@D@std@@V?$allocator@D@2@@std@@@2@@2@@std@@PAX@std@@_N@1@$$QAV?$basic_string@DU?$char_traits@D@std@@V?$allocator@D@2@@1@@Z DD 019930522H
	DD	01H
	DD	FLAT:__unwindtable$??$_Try_emplace@V?$basic_string@DU?$char_traits@D@std@@V?$allocator@D@2@@std@@$$V@?$map@V?$basic_string@DU?$char_traits@D@std@@V?$allocator@D@2@@std@@V?$vector@V?$basic_string@DU?$char_traits@D@std@@V?$allocator@D@2@@std@@V?$allocator@V?$basic_string@DU?$char_traits@D@std@@V?$allocator@D@2@@std@@@2@@2@U?$less@V?$basic_string@DU?$char_traits@D@std@@V?$allocator@D@2@@std@@@2@V?$allocator@U?$pair@$$CBV?$basic_string@DU?$char_traits@D@std@@V?$allocator@D@2@@std@@V?$vector@V?$basic_string@DU?$char_traits@D@std@@V?$allocator@D@2@@std@@V?$allocator@V?$basic_string@DU?$char_traits@D@std@@V?$allocator@D@2@@std@@@2@@2@@std@@@2@@std@@AAE?AU?$pair@PAU?$_Tree_node@U?$pair@$$CBV?$basic_string@DU?$char_traits@D@std@@V?$allocator@D@2@@std@@V?$vector@V?$basic_string@DU?$char_traits@D@std@@V?$allocator@D@2@@std@@V?$allocator@V?$basic_string@DU?$char_traits@D@std@@V?$allocator@D@2@@std@@@2@@2@@std@@PAX@std@@_N@1@$$QAV?$basic_string@DU?$char_traits@D@std@@V?$allocator@D@2@@1@@Z
	DD	2 DUP(00H)
	DD	2 DUP(00H)
	DD	00H
	DD	01H
xdata$x	ENDS
;	COMDAT xdata$x
xdata$x	SEGMENT
__unwindtable$??A?$map@V?$basic_string@DU?$char_traits@D@std@@V?$allocator@D@2@@std@@V?$vector@V?$basic_string@DU?$char_traits@D@std@@V?$allocator@D@2@@std@@V?$allocator@V?$basic_string@DU?$char_traits@D@std@@V?$allocator@D@2@@std@@@2@@2@U?$less@V?$basic_string@DU?$char_traits@D@std@@V?$allocator@D@2@@std@@@2@V?$allocator@U?$pair@$$CBV?$basic_string@DU?$char_traits@D@std@@V?$allocator@D@2@@std@@V?$vector@V?$basic_string@DU?$char_traits@D@std@@V?$allocator@D@2@@std@@V?$allocator@V?$basic_string@DU?$char_traits@D@std@@V?$allocator@D@2@@std@@@2@@2@@std@@@2@@std@@QAEAAV?$vector@V?$basic_string@DU?$char_traits@D@std@@V?$allocator@D@2@@std@@V?$allocator@V?$basic_string@DU?$char_traits@D@std@@V?$allocator@D@2@@std@@@2@@1@$$QAV?$basic_string@DU?$char_traits@D@std@@V?$allocator@D@2@@1@@Z DD 0ffffffffH
	DD	FLAT:__unwindfunclet$??A?$map@V?$basic_string@DU?$char_traits@D@std@@V?$allocator@D@2@@std@@V?$vector@V?$basic_string@DU?$char_traits@D@std@@V?$allocator@D@2@@std@@V?$allocator@V?$basic_string@DU?$char_traits@D@std@@V?$allocator@D@2@@std@@@2@@2@U?$less@V?$basic_string@DU?$char_traits@D@std@@V?$allocator@D@2@@std@@@2@V?$allocator@U?$pair@$$CBV?$basic_string@DU?$char_traits@D@std@@V?$allocator@D@2@@std@@V?$vector@V?$basic_string@DU?$char_traits@D@std@@V?$allocator@D@2@@std@@V?$allocator@V?$basic_string@DU?$char_traits@D@std@@V?$allocator@D@2@@std@@@2@@2@@std@@@2@@std@@QAEAAV?$vector@V?$basic_string@DU?$char_traits@D@std@@V?$allocator@D@2@@std@@V?$allocator@V?$basic_string@DU?$char_traits@D@std@@V?$allocator@D@2@@std@@@2@@1@$$QAV?$basic_string@DU?$char_traits@D@std@@V?$allocator@D@2@@1@@Z$2
__ehfuncinfo$??A?$map@V?$basic_string@DU?$char_traits@D@std@@V?$allocator@D@2@@std@@V?$vector@V?$basic_string@DU?$char_traits@D@std@@V?$allocator@D@2@@std@@V?$allocator@V?$basic_string@DU?$char_traits@D@std@@V?$allocator@D@2@@std@@@2@@2@U?$less@V?$basic_string@DU?$char_traits@D@std@@V?$allocator@D@2@@std@@@2@V?$allocator@U?$pair@$$CBV?$basic_string@DU?$char_traits@D@std@@V?$allocator@D@2@@std@@V?$vector@V?$basic_string@DU?$char_traits@D@std@@V?$allocator@D@2@@std@@V?$allocator@V?$basic_string@DU?$char_traits@D@std@@V?$allocator@D@2@@std@@@2@@2@@std@@@2@@std@@QAEAAV?$vector@V?$basic_string@DU?$char_traits@D@std@@V?$allocator@D@2@@std@@V?$allocator@V?$basic_string@DU?$char_traits@D@std@@V?$allocator@D@2@@std@@@2@@1@$$QAV?$basic_string@DU?$char_traits@D@std@@V?$allocator@D@2@@1@@Z DD 019930522H
	DD	01H
	DD	FLAT:__unwindtable$??A?$map@V?$basic_string@DU?$char_traits@D@std@@V?$allocator@D@2@@std@@V?$vector@V?$basic_string@DU?$char_traits@D@std@@V?$allocator@D@2@@std@@V?$allocator@V?$basic_string@DU?$char_traits@D@std@@V?$allocator@D@2@@std@@@2@@2@U?$less@V?$basic_string@DU?$char_traits@D@std@@V?$allocator@D@2@@std@@@2@V?$allocator@U?$pair@$$CBV?$basic_string@DU?$char_traits@D@std@@V?$allocator@D@2@@std@@V?$vector@V?$basic_string@DU?$char_traits@D@std@@V?$allocator@D@2@@std@@V?$allocator@V?$basic_string@DU?$char_traits@D@std@@V?$allocator@D@2@@std@@@2@@2@@std@@@2@@std@@QAEAAV?$vector@V?$basic_string@DU?$char_traits@D@std@@V?$allocator@D@2@@std@@V?$allocator@V?$basic_string@DU?$char_traits@D@std@@V?$allocator@D@2@@std@@@2@@1@$$QAV?$basic_string@DU?$char_traits@D@std@@V?$allocator@D@2@@1@@Z
	DD	2 DUP(00H)
	DD	2 DUP(00H)
	DD	00H
	DD	01H
xdata$x	ENDS
;	COMDAT xdata$x
xdata$x	SEGMENT
__unwindtable$?SetName@CTerrain@@QAEXV?$basic_string@DU?$char_traits@D@std@@V?$allocator@D@2@@std@@@Z DD 0ffffffffH
	DD	FLAT:__unwindfunclet$?SetName@CTerrain@@QAEXV?$basic_string@DU?$char_traits@D@std@@V?$allocator@D@2@@std@@@Z$0
__ehfuncinfo$?SetName@CTerrain@@QAEXV?$basic_string@DU?$char_traits@D@std@@V?$allocator@D@2@@std@@@Z DD 019930522H
	DD	01H
	DD	FLAT:__unwindtable$?SetName@CTerrain@@QAEXV?$basic_string@DU?$char_traits@D@std@@V?$allocator@D@2@@std@@@Z
	DD	2 DUP(00H)
	DD	2 DUP(00H)
	DD	00H
	DD	01H
xdata$x	ENDS
;	COMDAT xdata$x
xdata$x	SEGMENT
__unwindtable$?ProcessTerrain@TEMP_CAreaLoaderThread@@IAEXXZ DD 0ffffffffH
	DD	FLAT:__unwindfunclet$?ProcessTerrain@TEMP_CAreaLoaderThread@@IAEXXZ$0
	DD	00H
	DD	FLAT:__unwindfunclet$?ProcessTerrain@TEMP_CAreaLoaderThread@@IAEXXZ$3
	DD	00H
	DD	FLAT:__unwindfunclet$?ProcessTerrain@TEMP_CAreaLoaderThread@@IAEXXZ$4
	DD	00H
	DD	FLAT:__unwindfunclet$?ProcessTerrain@TEMP_CAreaLoaderThread@@IAEXXZ$19
__ehfuncinfo$?ProcessTerrain@TEMP_CAreaLoaderThread@@IAEXXZ DD 019930522H
	DD	04H
	DD	FLAT:__unwindtable$?ProcessTerrain@TEMP_CAreaLoaderThread@@IAEXXZ
	DD	2 DUP(00H)
	DD	2 DUP(00H)
	DD	00H
	DD	01H
xdata$x	ENDS
;	COMDAT xdata$x
xdata$x	SEGMENT
__ehfuncinfo$??0TEMP_CAreaLoaderThread@@QAE@XZ DD 019930522H
	DD	07H
	DD	FLAT:__unwindtable$??0TEMP_CAreaLoaderThread@@QAE@XZ
	DD	2 DUP(00H)
	DD	2 DUP(00H)
	DD	00H
	DD	01H
__unwindtable$??0TEMP_CAreaLoaderThread@@QAE@XZ DD 0ffffffffH
	DD	FLAT:__unwindfunclet$??0TEMP_CAreaLoaderThread@@QAE@XZ$0
	DD	00H
	DD	FLAT:__unwindfunclet$??0TEMP_CAreaLoaderThread@@QAE@XZ$1
	DD	01H
	DD	FLAT:__unwindfunclet$??0TEMP_CAreaLoaderThread@@QAE@XZ$2
	DD	02H
	DD	FLAT:__unwindfunclet$??0TEMP_CAreaLoaderThread@@QAE@XZ$3
	DD	03H
	DD	FLAT:__unwindfunclet$??0TEMP_CAreaLoaderThread@@QAE@XZ$4
	DD	04H
	DD	FLAT:__unwindfunclet$??0TEMP_CAreaLoaderThread@@QAE@XZ$5
	DD	05H
	DD	FLAT:__unwindfunclet$??0TEMP_CAreaLoaderThread@@QAE@XZ$6
xdata$x	ENDS
; Function compile flags: /Ogtp
; File C:\Program Files (x86)\Microsoft Visual Studio\2019\Professional\VC\Tools\MSVC\14.29.30133\include\xutility
;	COMDAT ??$_Copy_memmove@PAPAPAVCTerrain@@PAPAPAV1@@std@@YAPAPAPAVCTerrain@@PAPAPAV1@00@Z
_TEXT	SEGMENT
__First$ = 8						; size = 4
__Last$ = 12						; size = 4
__Dest$ = 16						; size = 4
??$_Copy_memmove@PAPAPAVCTerrain@@PAPAPAV1@@std@@YAPAPAPAVCTerrain@@PAPAPAV1@00@Z PROC ; std::_Copy_memmove<CTerrain * * *,CTerrain * * *>, COMDAT

; 4159 : _OutCtgIt _Copy_memmove(_CtgIt _First, _CtgIt _Last, _OutCtgIt _Dest) {

  00000	55		 push	 ebp
  00001	8b ec		 mov	 ebp, esp

; 4160 :     auto _FirstPtr              = _To_address(_First);
; 4161 :     auto _LastPtr               = _To_address(_Last);
; 4162 :     auto _DestPtr               = _To_address(_Dest);
; 4163 :     const char* const _First_ch = const_cast<const char*>(reinterpret_cast<const volatile char*>(_FirstPtr));
; 4164 :     const char* const _Last_ch  = const_cast<const char*>(reinterpret_cast<const volatile char*>(_LastPtr));
; 4165 :     char* const _Dest_ch        = const_cast<char*>(reinterpret_cast<const volatile char*>(_DestPtr));
; 4166 :     const auto _Count           = static_cast<size_t>(_Last_ch - _First_ch);

  00003	8b 45 08	 mov	 eax, DWORD PTR __First$[ebp]
  00006	56		 push	 esi

; 4167 :     _CSTD memmove(_Dest_ch, _First_ch, _Count);

  00007	8b 75 10	 mov	 esi, DWORD PTR __Dest$[ebp]
  0000a	57		 push	 edi
  0000b	8b 7d 0c	 mov	 edi, DWORD PTR __Last$[ebp]
  0000e	2b f8		 sub	 edi, eax
  00010	57		 push	 edi
  00011	50		 push	 eax
  00012	56		 push	 esi
  00013	e8 00 00 00 00	 call	 _memmove
  00018	83 c4 0c	 add	 esp, 12			; 0000000cH

; 4168 :     if constexpr (is_pointer_v<_OutCtgIt>) {
; 4169 :         return reinterpret_cast<_OutCtgIt>(_Dest_ch + _Count);

  0001b	8d 04 37	 lea	 eax, DWORD PTR [edi+esi]
  0001e	5f		 pop	 edi
  0001f	5e		 pop	 esi

; 4170 :     } else {
; 4171 :         return _Dest + (_LastPtr - _FirstPtr);
; 4172 :     }
; 4173 : }

  00020	5d		 pop	 ebp
  00021	c3		 ret	 0
??$_Copy_memmove@PAPAPAVCTerrain@@PAPAPAV1@@std@@YAPAPAPAVCTerrain@@PAPAPAV1@00@Z ENDP ; std::_Copy_memmove<CTerrain * * *,CTerrain * * *>
_TEXT	ENDS
; Function compile flags: /Ogtp
; File C:\Program Files (x86)\Microsoft Visual Studio\2019\Professional\VC\Tools\MSVC\14.29.30133\include\xutility
;	COMDAT ??$_Copy_memmove@PAPAPAVCArea@@PAPAPAV1@@std@@YAPAPAPAVCArea@@PAPAPAV1@00@Z
_TEXT	SEGMENT
__First$ = 8						; size = 4
__Last$ = 12						; size = 4
__Dest$ = 16						; size = 4
??$_Copy_memmove@PAPAPAVCArea@@PAPAPAV1@@std@@YAPAPAPAVCArea@@PAPAPAV1@00@Z PROC ; std::_Copy_memmove<CArea * * *,CArea * * *>, COMDAT

; 4159 : _OutCtgIt _Copy_memmove(_CtgIt _First, _CtgIt _Last, _OutCtgIt _Dest) {

  00000	55		 push	 ebp
  00001	8b ec		 mov	 ebp, esp

; 4160 :     auto _FirstPtr              = _To_address(_First);
; 4161 :     auto _LastPtr               = _To_address(_Last);
; 4162 :     auto _DestPtr               = _To_address(_Dest);
; 4163 :     const char* const _First_ch = const_cast<const char*>(reinterpret_cast<const volatile char*>(_FirstPtr));
; 4164 :     const char* const _Last_ch  = const_cast<const char*>(reinterpret_cast<const volatile char*>(_LastPtr));
; 4165 :     char* const _Dest_ch        = const_cast<char*>(reinterpret_cast<const volatile char*>(_DestPtr));
; 4166 :     const auto _Count           = static_cast<size_t>(_Last_ch - _First_ch);

  00003	8b 45 08	 mov	 eax, DWORD PTR __First$[ebp]
  00006	56		 push	 esi

; 4167 :     _CSTD memmove(_Dest_ch, _First_ch, _Count);

  00007	8b 75 10	 mov	 esi, DWORD PTR __Dest$[ebp]
  0000a	57		 push	 edi
  0000b	8b 7d 0c	 mov	 edi, DWORD PTR __Last$[ebp]
  0000e	2b f8		 sub	 edi, eax
  00010	57		 push	 edi
  00011	50		 push	 eax
  00012	56		 push	 esi
  00013	e8 00 00 00 00	 call	 _memmove
  00018	83 c4 0c	 add	 esp, 12			; 0000000cH

; 4168 :     if constexpr (is_pointer_v<_OutCtgIt>) {
; 4169 :         return reinterpret_cast<_OutCtgIt>(_Dest_ch + _Count);

  0001b	8d 04 37	 lea	 eax, DWORD PTR [edi+esi]
  0001e	5f		 pop	 edi
  0001f	5e		 pop	 esi

; 4170 :     } else {
; 4171 :         return _Dest + (_LastPtr - _FirstPtr);
; 4172 :     }
; 4173 : }

  00020	5d		 pop	 ebp
  00021	c3		 ret	 0
??$_Copy_memmove@PAPAPAVCArea@@PAPAPAV1@@std@@YAPAPAPAVCArea@@PAPAPAV1@00@Z ENDP ; std::_Copy_memmove<CArea * * *,CArea * * *>
_TEXT	ENDS
; Function compile flags: /Ogtp
; File C:\Program Files (x86)\Microsoft Visual Studio\2019\Professional\VC\Tools\MSVC\14.29.30133\include\xstring
; File C:\Program Files (x86)\Microsoft Visual Studio\2019\Professional\VC\Tools\MSVC\14.29.30133\include\utility
; File C:\Program Files (x86)\Microsoft Visual Studio\2019\Professional\VC\Tools\MSVC\14.29.30133\include\xstring
; File C:\Program Files (x86)\Microsoft Visual Studio\2019\Professional\VC\Tools\MSVC\14.29.30133\include\utility
; File C:\Program Files (x86)\Microsoft Visual Studio\2019\Professional\VC\Tools\MSVC\14.29.30133\include\xstring
;	COMDAT ??$?MDU?$char_traits@D@std@@V?$allocator@D@1@@std@@YA_NABV?$basic_string@DU?$char_traits@D@std@@V?$allocator@D@2@@0@0@Z
_TEXT	SEGMENT
__Left$ = 8						; size = 4
__Right$ = 12						; size = 4
??$?MDU?$char_traits@D@std@@V?$allocator@D@1@@std@@YA_NABV?$basic_string@DU?$char_traits@D@std@@V?$allocator@D@2@@0@0@Z PROC ; std::operator<<char,std::char_traits<char>,std::allocator<char> >, COMDAT

; 4842 :     const basic_string<_Elem, _Traits, _Alloc>& _Left, const basic_string<_Elem, _Traits, _Alloc>& _Right) noexcept {

  00000	55		 push	 ebp
  00001	8b ec		 mov	 ebp, esp

; 2305 :         const value_type* _Result = _Bx._Buf;

  00003	8b 45 0c	 mov	 eax, DWORD PTR __Right$[ebp]
  00006	8b c8		 mov	 ecx, eax

; 2319 :         return _BUF_SIZE <= _Myres;

  00008	83 78 14 10	 cmp	 DWORD PTR [eax+20], 16	; 00000010H

; 2306 :         if (_Large_string_engaged()) {

  0000c	72 02		 jb	 SHORT $LN6@operator

; 2307 :             _Result = _Unfancy(_Bx._Ptr);

  0000e	8b 08		 mov	 ecx, DWORD PTR [eax]
$LN6@operator:
  00010	53		 push	 ebx
  00011	56		 push	 esi

; 2305 :         const value_type* _Result = _Bx._Buf;

  00012	8b 75 08	 mov	 esi, DWORD PTR __Left$[ebp]
  00015	8b d6		 mov	 edx, esi
  00017	57		 push	 edi

; 2319 :         return _BUF_SIZE <= _Myres;

  00018	83 7e 14 10	 cmp	 DWORD PTR [esi+20], 16	; 00000010H

; 2306 :         if (_Large_string_engaged()) {

  0001c	72 02		 jb	 SHORT $LN11@operator

; 2307 :             _Result = _Unfancy(_Bx._Ptr);

  0001e	8b 16		 mov	 edx, DWORD PTR [esi]
$LN11@operator:

; 4414 :         return _Traits_compare<_Traits>(_Mypair._Myval2._Myptr(), _Mypair._Myval2._Mysize,

  00020	8b 5e 10	 mov	 ebx, DWORD PTR [esi+16]
; File C:\Program Files (x86)\Microsoft Visual Studio\2019\Professional\VC\Tools\MSVC\14.29.30133\include\utility

; 68   :     return _Right < _Left ? _Right : _Left;

  00023	8b f3		 mov	 esi, ebx
; File C:\Program Files (x86)\Microsoft Visual Studio\2019\Professional\VC\Tools\MSVC\14.29.30133\include\xstring

; 4414 :         return _Traits_compare<_Traits>(_Mypair._Myval2._Myptr(), _Mypair._Myval2._Mysize,

  00025	8b 78 10	 mov	 edi, DWORD PTR [eax+16]
; File C:\Program Files (x86)\Microsoft Visual Studio\2019\Professional\VC\Tools\MSVC\14.29.30133\include\utility

; 68   :     return _Right < _Left ? _Right : _Left;

  00028	3b fb		 cmp	 edi, ebx
  0002a	0f 42 f7	 cmovb	 esi, edi
; File C:\Program Files (x86)\Microsoft Visual Studio\2019\Professional\VC\Tools\MSVC\14.29.30133\include\xstring

; 392  :         return _CSTD memcmp(_First1, _First2, _Count);

  0002d	83 ee 04	 sub	 esi, 4
  00030	72 11		 jb	 SHORT $LN26@operator
$LL27@operator:
  00032	8b 02		 mov	 eax, DWORD PTR [edx]
  00034	3b 01		 cmp	 eax, DWORD PTR [ecx]
  00036	75 10		 jne	 SHORT $LN25@operator
  00038	83 c2 04	 add	 edx, 4
  0003b	83 c1 04	 add	 ecx, 4
  0003e	83 ee 04	 sub	 esi, 4
  00041	73 ef		 jae	 SHORT $LL27@operator
$LN26@operator:
  00043	83 fe fc	 cmp	 esi, -4			; fffffffcH
  00046	74 34		 je	 SHORT $LN24@operator
$LN25@operator:
  00048	8a 02		 mov	 al, BYTE PTR [edx]
  0004a	3a 01		 cmp	 al, BYTE PTR [ecx]
  0004c	75 27		 jne	 SHORT $LN28@operator
  0004e	83 fe fd	 cmp	 esi, -3			; fffffffdH
  00051	74 29		 je	 SHORT $LN24@operator
  00053	8a 42 01	 mov	 al, BYTE PTR [edx+1]
  00056	3a 41 01	 cmp	 al, BYTE PTR [ecx+1]
  00059	75 1a		 jne	 SHORT $LN28@operator
  0005b	83 fe fe	 cmp	 esi, -2			; fffffffeH
  0005e	74 1c		 je	 SHORT $LN24@operator
  00060	8a 42 02	 mov	 al, BYTE PTR [edx+2]
  00063	3a 41 02	 cmp	 al, BYTE PTR [ecx+2]
  00066	75 0d		 jne	 SHORT $LN28@operator
  00068	83 fe ff	 cmp	 esi, -1
  0006b	74 0f		 je	 SHORT $LN24@operator
  0006d	8a 42 03	 mov	 al, BYTE PTR [edx+3]
  00070	3a 41 03	 cmp	 al, BYTE PTR [ecx+3]
  00073	74 07		 je	 SHORT $LN24@operator
$LN28@operator:
  00075	1b c0		 sbb	 eax, eax
  00077	83 c8 01	 or	 eax, 1
  0007a	eb 02		 jmp	 SHORT $LN29@operator
$LN24@operator:
  0007c	33 c0		 xor	 eax, eax
$LN29@operator:

; 592  :     if (_Ans != 0) {

  0007e	85 c0		 test	 eax, eax
  00080	75 13		 jne	 SHORT $LN18@operator

; 593  :         return _Ans;
; 594  :     }
; 595  : 
; 596  :     if (_Left_size < _Right_size) {

  00082	3b fb		 cmp	 edi, ebx
  00084	76 0b		 jbe	 SHORT $LN30@operator

; 4843 :     return _Left.compare(_Right) < 0;

  00086	5f		 pop	 edi

; 597  :         return -1;

  00087	83 c8 ff	 or	 eax, -1

; 4843 :     return _Left.compare(_Right) < 0;

  0008a	5e		 pop	 esi
  0008b	c1 e8 1f	 shr	 eax, 31			; 0000001fH
  0008e	5b		 pop	 ebx

; 4844 : }

  0008f	5d		 pop	 ebp
  00090	c3		 ret	 0
$LN30@operator:

; 600  :     if (_Left_size > _Right_size) {

  00091	1b c0		 sbb	 eax, eax
  00093	f7 d8		 neg	 eax
$LN18@operator:

; 4843 :     return _Left.compare(_Right) < 0;

  00095	5f		 pop	 edi
  00096	5e		 pop	 esi
  00097	c1 e8 1f	 shr	 eax, 31			; 0000001fH
  0009a	5b		 pop	 ebx

; 4844 : }

  0009b	5d		 pop	 ebp
  0009c	c3		 ret	 0
??$?MDU?$char_traits@D@std@@V?$allocator@D@1@@std@@YA_NABV?$basic_string@DU?$char_traits@D@std@@V?$allocator@D@2@@0@0@Z ENDP ; std::operator<<char,std::char_traits<char>,std::allocator<char> >
_TEXT	ENDS
; Function compile flags: /Ogtp
; File C:\Program Files (x86)\Microsoft Visual Studio\2019\Professional\VC\Tools\MSVC\14.29.30133\include\xmemory
;	COMDAT ??$_Zero_range@PAPAPAVCTerrain@@@std@@YAPAPAPAVCTerrain@@QAPAPAV1@0@Z
_TEXT	SEGMENT
__First$ = 8						; size = 4
__Last$ = 12						; size = 4
??$_Zero_range@PAPAPAVCTerrain@@@std@@YAPAPAPAVCTerrain@@QAPAPAV1@0@Z PROC ; std::_Zero_range<CTerrain * * *>, COMDAT

; 1806 : _Ptr _Zero_range(const _Ptr _First, const _Ptr _Last) { // fill [_First, _Last) with zeroes

  00000	55		 push	 ebp
  00001	8b ec		 mov	 ebp, esp

; 1807 :     char* const _First_ch = reinterpret_cast<char*>(_To_address(_First));
; 1808 :     char* const _Last_ch  = reinterpret_cast<char*>(_To_address(_Last));
; 1809 :     _CSTD memset(_First_ch, 0, static_cast<size_t>(_Last_ch - _First_ch));

  00003	8b 55 08	 mov	 edx, DWORD PTR __First$[ebp]
  00006	8b 4d 0c	 mov	 ecx, DWORD PTR __Last$[ebp]
  00009	2b ca		 sub	 ecx, edx
  0000b	51		 push	 ecx
  0000c	6a 00		 push	 0
  0000e	52		 push	 edx
  0000f	e8 00 00 00 00	 call	 _memset

; 1810 :     return _Last;

  00014	8b 45 0c	 mov	 eax, DWORD PTR __Last$[ebp]
  00017	83 c4 0c	 add	 esp, 12			; 0000000cH

; 1811 : }

  0001a	5d		 pop	 ebp
  0001b	c3		 ret	 0
??$_Zero_range@PAPAPAVCTerrain@@@std@@YAPAPAPAVCTerrain@@QAPAPAV1@0@Z ENDP ; std::_Zero_range<CTerrain * * *>
_TEXT	ENDS
; Function compile flags: /Ogtp
; File C:\Program Files (x86)\Microsoft Visual Studio\2019\Professional\VC\Tools\MSVC\14.29.30133\include\xmemory
;	COMDAT ??$_Zero_range@PAPAPAVCArea@@@std@@YAPAPAPAVCArea@@QAPAPAV1@0@Z
_TEXT	SEGMENT
__First$ = 8						; size = 4
__Last$ = 12						; size = 4
??$_Zero_range@PAPAPAVCArea@@@std@@YAPAPAPAVCArea@@QAPAPAV1@0@Z PROC ; std::_Zero_range<CArea * * *>, COMDAT

; 1806 : _Ptr _Zero_range(const _Ptr _First, const _Ptr _Last) { // fill [_First, _Last) with zeroes

  00000	55		 push	 ebp
  00001	8b ec		 mov	 ebp, esp

; 1807 :     char* const _First_ch = reinterpret_cast<char*>(_To_address(_First));
; 1808 :     char* const _Last_ch  = reinterpret_cast<char*>(_To_address(_Last));
; 1809 :     _CSTD memset(_First_ch, 0, static_cast<size_t>(_Last_ch - _First_ch));

  00003	8b 55 08	 mov	 edx, DWORD PTR __First$[ebp]
  00006	8b 4d 0c	 mov	 ecx, DWORD PTR __Last$[ebp]
  00009	2b ca		 sub	 ecx, edx
  0000b	51		 push	 ecx
  0000c	6a 00		 push	 0
  0000e	52		 push	 edx
  0000f	e8 00 00 00 00	 call	 _memset

; 1810 :     return _Last;

  00014	8b 45 0c	 mov	 eax, DWORD PTR __Last$[ebp]
  00017	83 c4 0c	 add	 esp, 12			; 0000000cH

; 1811 : }

  0001a	5d		 pop	 ebp
  0001b	c3		 ret	 0
??$_Zero_range@PAPAPAVCArea@@@std@@YAPAPAPAVCArea@@QAPAPAV1@0@Z ENDP ; std::_Zero_range<CArea * * *>
_TEXT	ENDS
; Function compile flags: /Ogtp
; File C:\Program Files (x86)\Microsoft Visual Studio\2019\Professional\VC\Tools\MSVC\14.29.30133\include\xmemory
;	COMDAT ??$_Uninitialized_value_construct_n_unchecked1@PAPAPAVCTerrain@@I@std@@YAPAPAPAVCTerrain@@PAPAPAV1@I@Z
_TEXT	SEGMENT
__UFirst$ = 8						; size = 4
__Count$ = 12						; size = 4
??$_Uninitialized_value_construct_n_unchecked1@PAPAPAVCTerrain@@I@std@@YAPAPAPAVCTerrain@@PAPAPAV1@I@Z PROC ; std::_Uninitialized_value_construct_n_unchecked1<CTerrain * * *,unsigned int>, COMDAT

; 1838 : _NoThrowFwdIt _Uninitialized_value_construct_n_unchecked1(_NoThrowFwdIt _UFirst, _Diff _Count) {

  00000	55		 push	 ebp
  00001	8b ec		 mov	 ebp, esp

; 1839 :     // value-initialize all elements in [_UFirst, _UFirst + _Count_raw)
; 1840 :     _STL_INTERNAL_CHECK(_Count >= 0);
; 1841 :     if constexpr (_Use_memset_value_construct_v<_NoThrowFwdIt>) {
; 1842 :         return _Zero_range(_UFirst, _UFirst + _Count);

  00003	8b 4d 08	 mov	 ecx, DWORD PTR __UFirst$[ebp]
  00006	8b 45 0c	 mov	 eax, DWORD PTR __Count$[ebp]
  00009	8d 04 81	 lea	 eax, DWORD PTR [ecx+eax*4]
  0000c	89 45 0c	 mov	 DWORD PTR __Count$[ebp], eax
  0000f	89 4d 08	 mov	 DWORD PTR __UFirst$[ebp], ecx

; 1843 :     } else {
; 1844 :         _Uninitialized_backout<_NoThrowFwdIt> _Backout{_UFirst};
; 1845 :         for (; 0 < _Count; --_Count) {
; 1846 :             _Backout._Emplace_back();
; 1847 :         }
; 1848 : 
; 1849 :         return _Backout._Release();
; 1850 :     }
; 1851 : }

  00012	5d		 pop	 ebp

; 1839 :     // value-initialize all elements in [_UFirst, _UFirst + _Count_raw)
; 1840 :     _STL_INTERNAL_CHECK(_Count >= 0);
; 1841 :     if constexpr (_Use_memset_value_construct_v<_NoThrowFwdIt>) {
; 1842 :         return _Zero_range(_UFirst, _UFirst + _Count);

  00013	e9 00 00 00 00	 jmp	 ??$_Zero_range@PAPAPAVCTerrain@@@std@@YAPAPAPAVCTerrain@@QAPAPAV1@0@Z ; std::_Zero_range<CTerrain * * *>
??$_Uninitialized_value_construct_n_unchecked1@PAPAPAVCTerrain@@I@std@@YAPAPAPAVCTerrain@@PAPAPAV1@I@Z ENDP ; std::_Uninitialized_value_construct_n_unchecked1<CTerrain * * *,unsigned int>
_TEXT	ENDS
; Function compile flags: /Ogtp
; File C:\Program Files (x86)\Microsoft Visual Studio\2019\Professional\VC\Tools\MSVC\14.29.30133\include\xmemory
;	COMDAT ??$uninitialized_copy@PAPAPAVCTerrain@@PAPAPAV1@@std@@YAPAPAPAVCTerrain@@QAPAPAV1@0PAPAPAV1@@Z
_TEXT	SEGMENT
__First$ = 8						; size = 4
__Last$ = 12						; size = 4
__Dest$ = 16						; size = 4
??$uninitialized_copy@PAPAPAVCTerrain@@PAPAPAV1@@std@@YAPAPAPAVCTerrain@@QAPAPAV1@0PAPAPAV1@@Z PROC ; std::uninitialized_copy<CTerrain * * *,CTerrain * * *>, COMDAT

; 1700 : _NoThrowFwdIt uninitialized_copy(const _InIt _First, const _InIt _Last, _NoThrowFwdIt _Dest) {

  00000	55		 push	 ebp
  00001	8b ec		 mov	 ebp, esp

; 1701 :     // copy [_First, _Last) to raw [_Dest, ...)
; 1702 :     _Adl_verify_range(_First, _Last);
; 1703 :     auto _UFirst      = _Get_unwrapped(_First);
; 1704 :     const auto _ULast = _Get_unwrapped(_Last);
; 1705 :     auto _UDest       = _Get_unwrapped_n(_Dest, _Idl_distance<_InIt>(_UFirst, _ULast));
; 1706 :     _Seek_wrapped(_Dest, _Uninitialized_copy_unchecked(_UFirst, _ULast, _UDest));
; 1707 :     return _Dest;
; 1708 : }

  00003	5d		 pop	 ebp

; 1687 :             return _Copy_memmove(_First, _Last, _Dest);

  00004	e9 00 00 00 00	 jmp	 ??$_Copy_memmove@PAPAPAVCTerrain@@PAPAPAV1@@std@@YAPAPAPAVCTerrain@@PAPAPAV1@00@Z ; std::_Copy_memmove<CTerrain * * *,CTerrain * * *>
??$uninitialized_copy@PAPAPAVCTerrain@@PAPAPAV1@@std@@YAPAPAPAVCTerrain@@QAPAPAV1@0PAPAPAV1@@Z ENDP ; std::uninitialized_copy<CTerrain * * *,CTerrain * * *>
_TEXT	ENDS
; Function compile flags: /Ogtp
; File C:\Program Files (x86)\Microsoft Visual Studio\2019\Professional\VC\Tools\MSVC\14.29.30133\include\xmemory
;	COMDAT ??$_Uninitialized_value_construct_n_unchecked1@PAPAPAVCArea@@I@std@@YAPAPAPAVCArea@@PAPAPAV1@I@Z
_TEXT	SEGMENT
__UFirst$ = 8						; size = 4
__Count$ = 12						; size = 4
??$_Uninitialized_value_construct_n_unchecked1@PAPAPAVCArea@@I@std@@YAPAPAPAVCArea@@PAPAPAV1@I@Z PROC ; std::_Uninitialized_value_construct_n_unchecked1<CArea * * *,unsigned int>, COMDAT

; 1838 : _NoThrowFwdIt _Uninitialized_value_construct_n_unchecked1(_NoThrowFwdIt _UFirst, _Diff _Count) {

  00000	55		 push	 ebp
  00001	8b ec		 mov	 ebp, esp

; 1839 :     // value-initialize all elements in [_UFirst, _UFirst + _Count_raw)
; 1840 :     _STL_INTERNAL_CHECK(_Count >= 0);
; 1841 :     if constexpr (_Use_memset_value_construct_v<_NoThrowFwdIt>) {
; 1842 :         return _Zero_range(_UFirst, _UFirst + _Count);

  00003	8b 4d 08	 mov	 ecx, DWORD PTR __UFirst$[ebp]
  00006	8b 45 0c	 mov	 eax, DWORD PTR __Count$[ebp]
  00009	8d 04 81	 lea	 eax, DWORD PTR [ecx+eax*4]
  0000c	89 45 0c	 mov	 DWORD PTR __Count$[ebp], eax
  0000f	89 4d 08	 mov	 DWORD PTR __UFirst$[ebp], ecx

; 1843 :     } else {
; 1844 :         _Uninitialized_backout<_NoThrowFwdIt> _Backout{_UFirst};
; 1845 :         for (; 0 < _Count; --_Count) {
; 1846 :             _Backout._Emplace_back();
; 1847 :         }
; 1848 : 
; 1849 :         return _Backout._Release();
; 1850 :     }
; 1851 : }

  00012	5d		 pop	 ebp

; 1839 :     // value-initialize all elements in [_UFirst, _UFirst + _Count_raw)
; 1840 :     _STL_INTERNAL_CHECK(_Count >= 0);
; 1841 :     if constexpr (_Use_memset_value_construct_v<_NoThrowFwdIt>) {
; 1842 :         return _Zero_range(_UFirst, _UFirst + _Count);

  00013	e9 00 00 00 00	 jmp	 ??$_Zero_range@PAPAPAVCArea@@@std@@YAPAPAPAVCArea@@QAPAPAV1@0@Z ; std::_Zero_range<CArea * * *>
??$_Uninitialized_value_construct_n_unchecked1@PAPAPAVCArea@@I@std@@YAPAPAPAVCArea@@PAPAPAV1@I@Z ENDP ; std::_Uninitialized_value_construct_n_unchecked1<CArea * * *,unsigned int>
_TEXT	ENDS
; Function compile flags: /Ogtp
; File C:\Program Files (x86)\Microsoft Visual Studio\2019\Professional\VC\Tools\MSVC\14.29.30133\include\xmemory
;	COMDAT ??$uninitialized_copy@PAPAPAVCArea@@PAPAPAV1@@std@@YAPAPAPAVCArea@@QAPAPAV1@0PAPAPAV1@@Z
_TEXT	SEGMENT
__First$ = 8						; size = 4
__Last$ = 12						; size = 4
__Dest$ = 16						; size = 4
??$uninitialized_copy@PAPAPAVCArea@@PAPAPAV1@@std@@YAPAPAPAVCArea@@QAPAPAV1@0PAPAPAV1@@Z PROC ; std::uninitialized_copy<CArea * * *,CArea * * *>, COMDAT

; 1700 : _NoThrowFwdIt uninitialized_copy(const _InIt _First, const _InIt _Last, _NoThrowFwdIt _Dest) {

  00000	55		 push	 ebp
  00001	8b ec		 mov	 ebp, esp

; 1701 :     // copy [_First, _Last) to raw [_Dest, ...)
; 1702 :     _Adl_verify_range(_First, _Last);
; 1703 :     auto _UFirst      = _Get_unwrapped(_First);
; 1704 :     const auto _ULast = _Get_unwrapped(_Last);
; 1705 :     auto _UDest       = _Get_unwrapped_n(_Dest, _Idl_distance<_InIt>(_UFirst, _ULast));
; 1706 :     _Seek_wrapped(_Dest, _Uninitialized_copy_unchecked(_UFirst, _ULast, _UDest));
; 1707 :     return _Dest;
; 1708 : }

  00003	5d		 pop	 ebp

; 1687 :             return _Copy_memmove(_First, _Last, _Dest);

  00004	e9 00 00 00 00	 jmp	 ??$_Copy_memmove@PAPAPAVCArea@@PAPAPAV1@@std@@YAPAPAPAVCArea@@PAPAPAV1@00@Z ; std::_Copy_memmove<CArea * * *,CArea * * *>
??$uninitialized_copy@PAPAPAVCArea@@PAPAPAV1@@std@@YAPAPAPAVCArea@@QAPAPAV1@0PAPAPAV1@@Z ENDP ; std::uninitialized_copy<CArea * * *,CArea * * *>
_TEXT	ENDS
; Function compile flags: /Ogtp
; File C:\Program Files (x86)\Microsoft Visual Studio\2019\Professional\VC\Tools\MSVC\14.29.30133\include\xmemory
; File C:\Program Files (x86)\Microsoft Visual Studio\2019\Professional\VC\Tools\MSVC\14.29.30133\include\xstring
; File C:\Program Files (x86)\Microsoft Visual Studio\2019\Professional\VC\Tools\MSVC\14.29.30133\include\xmemory
; File C:\Program Files (x86)\Microsoft Visual Studio\2019\Professional\VC\Tools\MSVC\14.29.30133\include\xstring
; File C:\Program Files (x86)\Microsoft Visual Studio\2019\Professional\VC\Tools\MSVC\14.29.30133\include\xmemory
; File C:\Program Files (x86)\Microsoft Visual Studio\2019\Professional\VC\Tools\MSVC\14.29.30133\include\xstring
; File C:\Program Files (x86)\Microsoft Visual Studio\2019\Professional\VC\Tools\MSVC\14.29.30133\include\xmemory
;	COMDAT ??$destroy@U?$pair@$$CBV?$basic_string@DU?$char_traits@D@std@@V?$allocator@D@2@@std@@V?$vector@V?$basic_string@DU?$char_traits@D@std@@V?$allocator@D@2@@std@@V?$allocator@V?$basic_string@DU?$char_traits@D@std@@V?$allocator@D@2@@std@@@2@@2@@std@@@?$_Default_allocator_traits@V?$allocator@U?$_Tree_node@U?$pair@$$CBV?$basic_string@DU?$char_traits@D@std@@V?$allocator@D@2@@std@@V?$vector@V?$basic_string@DU?$char_traits@D@std@@V?$allocator@D@2@@std@@V?$allocator@V?$basic_string@DU?$char_traits@D@std@@V?$allocator@D@2@@std@@@2@@2@@std@@PAX@std@@@std@@@std@@SAXAAV?$allocator@U?$_Tree_node@U?$pair@$$CBV?$basic_string@DU?$char_traits@D@std@@V?$allocator@D@2@@std@@V?$vector@V?$basic_string@DU?$char_traits@D@std@@V?$allocator@D@2@@std@@V?$allocator@V?$basic_string@DU?$char_traits@D@std@@V?$allocator@D@2@@std@@@2@@2@@std@@PAX@std@@@1@QAU?$pair@$$CBV?$basic_string@DU?$char_traits@D@std@@V?$allocator@D@2@@std@@V?$vector@V?$basic_string@DU?$char_traits@D@std@@V?$allocator@D@2@@std@@V?$allocator@V?$basic_string@DU?$char_traits@D@std@@V?$allocator@D@2@@std@@@2@@2@@1@@Z
_TEXT	SEGMENT
___formal$ = 8						; size = 4
__Ptr$ = 12						; size = 4
??$destroy@U?$pair@$$CBV?$basic_string@DU?$char_traits@D@std@@V?$allocator@D@2@@std@@V?$vector@V?$basic_string@DU?$char_traits@D@std@@V?$allocator@D@2@@std@@V?$allocator@V?$basic_string@DU?$char_traits@D@std@@V?$allocator@D@2@@std@@@2@@2@@std@@@?$_Default_allocator_traits@V?$allocator@U?$_Tree_node@U?$pair@$$CBV?$basic_string@DU?$char_traits@D@std@@V?$allocator@D@2@@std@@V?$vector@V?$basic_string@DU?$char_traits@D@std@@V?$allocator@D@2@@std@@V?$allocator@V?$basic_string@DU?$char_traits@D@std@@V?$allocator@D@2@@std@@@2@@2@@std@@PAX@std@@@std@@@std@@SAXAAV?$allocator@U?$_Tree_node@U?$pair@$$CBV?$basic_string@DU?$char_traits@D@std@@V?$allocator@D@2@@std@@V?$vector@V?$basic_string@DU?$char_traits@D@std@@V?$allocator@D@2@@std@@V?$allocator@V?$basic_string@DU?$char_traits@D@std@@V?$allocator@D@2@@std@@@2@@2@@std@@PAX@std@@@1@QAU?$pair@$$CBV?$basic_string@DU?$char_traits@D@std@@V?$allocator@D@2@@std@@V?$vector@V?$basic_string@DU?$char_traits@D@std@@V?$allocator@D@2@@std@@V?$allocator@V?$basic_string@DU?$char_traits@D@std@@V?$allocator@D@2@@std@@@2@@2@@1@@Z PROC ; std::_Default_allocator_traits<std::allocator<std::_Tree_node<std::pair<std::basic_string<char,std::char_traits<char>,std::allocator<char> > const ,std::vector<std::basic_string<char,std::char_traits<char>,std::allocator<char> >,std::allocator<std::basic_string<char,std::char_traits<char>,std::allocator<char> > > > >,void *> > >::destroy<std::pair<std::basic_string<char,std::char_traits<char>,std::allocator<char> > const ,std::vector<std::basic_string<char,std::char_traits<char>,std::allocator<char> >,std::allocator<std::basic_string<char,std::char_traits<char>,std::allocator<char> > > > > >, COMDAT

; 719  :     static _CONSTEXPR20_DYNALLOC void destroy(_Alloc&, _Uty* const _Ptr) {

  00000	55		 push	 ebp
  00001	8b ec		 mov	 ebp, esp
  00003	56		 push	 esi
  00004	8b 75 0c	 mov	 esi, DWORD PTR __Ptr$[ebp]
  00007	8d 4e 18	 lea	 ecx, DWORD PTR [esi+24]
  0000a	e8 00 00 00 00	 call	 ??1?$vector@V?$basic_string@DU?$char_traits@D@std@@V?$allocator@D@2@@std@@V?$allocator@V?$basic_string@DU?$char_traits@D@std@@V?$allocator@D@2@@std@@@2@@std@@QAE@XZ ; std::vector<std::basic_string<char,std::char_traits<char>,std::allocator<char> >,std::allocator<std::basic_string<char,std::char_traits<char>,std::allocator<char> > > >::~vector<std::basic_string<char,std::char_traits<char>,std::allocator<char> >,std::allocator<std::basic_string<char,std::char_traits<char>,std::allocator<char> > > >
; File C:\Program Files (x86)\Microsoft Visual Studio\2019\Professional\VC\Tools\MSVC\14.29.30133\include\xstring

; 2319 :         return _BUF_SIZE <= _Myres;

  0000f	8b 4e 14	 mov	 ecx, DWORD PTR [esi+20]
  00012	83 f9 10	 cmp	 ecx, 16			; 00000010H

; 4618 :         if (_Mypair._Myval2._Large_string_engaged()) {

  00015	72 27		 jb	 SHORT $LN21@destroy
; File C:\Program Files (x86)\Microsoft Visual Studio\2019\Professional\VC\Tools\MSVC\14.29.30133\include\xmemory

; 835  :         _Deallocate<_New_alignof<_Ty>>(_Ptr, sizeof(_Ty) * _Count);

  00017	8b 06		 mov	 eax, DWORD PTR [esi]
; File C:\Program Files (x86)\Microsoft Visual Studio\2019\Professional\VC\Tools\MSVC\14.29.30133\include\xstring

; 4622 :             _Al.deallocate(_Ptr, _Mypair._Myval2._Myres + 1);

  00019	41		 inc	 ecx
; File C:\Program Files (x86)\Microsoft Visual Studio\2019\Professional\VC\Tools\MSVC\14.29.30133\include\xmemory

; 260  :         if (_Bytes >= _Big_allocation_threshold) { // boost the alignment of big allocations to help autovectorization

  0001a	81 f9 00 10 00
	00		 cmp	 ecx, 4096		; 00001000H
  00020	72 12		 jb	 SHORT $LN31@destroy

; 158  :     const uintptr_t _Ptr_container   = _Ptr_user[-1];

  00022	8b 50 fc	 mov	 edx, DWORD PTR [eax-4]
  00025	83 c1 23	 add	 ecx, 35			; 00000023H

; 159  : 
; 160  :     // If the following asserts, it likely means that we are performing
; 161  :     // an aligned delete on memory coming from an unaligned allocation.
; 162  :     _STL_ASSERT(_Ptr_user[-2] == _Big_allocation_sentinel, "invalid argument");
; 163  : 
; 164  :     // Extra paranoia on aligned allocation/deallocation; ensure _Ptr_container is
; 165  :     // in range [_Min_back_shift, _Non_user_size]
; 166  : #ifdef _DEBUG
; 167  :     constexpr uintptr_t _Min_back_shift = 2 * sizeof(void*);
; 168  : #else // ^^^ _DEBUG ^^^ // vvv !_DEBUG vvv
; 169  :     constexpr uintptr_t _Min_back_shift = sizeof(void*);
; 170  : #endif // _DEBUG
; 171  :     const uintptr_t _Back_shift = reinterpret_cast<uintptr_t>(_Ptr) - _Ptr_container;

  00028	2b c2		 sub	 eax, edx

; 172  :     _STL_VERIFY(_Back_shift >= _Min_back_shift && _Back_shift <= _Non_user_size, "invalid argument");

  0002a	83 c0 fc	 add	 eax, -4			; fffffffcH
  0002d	83 f8 1f	 cmp	 eax, 31			; 0000001fH
  00030	77 20		 ja	 SHORT $LN28@destroy

; 173  :     _Ptr = reinterpret_cast<void*>(_Ptr_container);

  00032	8b c2		 mov	 eax, edx
$LN31@destroy:

; 264  :         ::operator delete(_Ptr, _Bytes);

  00034	51		 push	 ecx
  00035	50		 push	 eax
  00036	e8 00 00 00 00	 call	 ??3@YAXPAXI@Z		; operator delete
  0003b	83 c4 08	 add	 esp, 8
$LN21@destroy:
; File C:\Program Files (x86)\Microsoft Visual Studio\2019\Professional\VC\Tools\MSVC\14.29.30133\include\xstring

; 4633 :             _Mypair._Myval2._Mysize = 0;

  0003e	c7 46 10 00 00
	00 00		 mov	 DWORD PTR [esi+16], 0

; 4634 :             _Mypair._Myval2._Myres  = _BUF_SIZE - 1;

  00045	c7 46 14 0f 00
	00 00		 mov	 DWORD PTR [esi+20], 15	; 0000000fH

; 4635 :             // the _Traits::assign is last so the codegen doesn't think the char write can alias this
; 4636 :             _Traits::assign(_Mypair._Myval2._Bx._Buf[0], _Elem());

  0004c	c6 06 00	 mov	 BYTE PTR [esi], 0
  0004f	5e		 pop	 esi
; File C:\Program Files (x86)\Microsoft Visual Studio\2019\Professional\VC\Tools\MSVC\14.29.30133\include\xmemory

; 725  :     }

  00050	5d		 pop	 ebp
  00051	c3		 ret	 0
$LN28@destroy:

; 172  :     _STL_VERIFY(_Back_shift >= _Min_back_shift && _Back_shift <= _Non_user_size, "invalid argument");

  00052	e8 00 00 00 00	 call	 __invalid_parameter_noinfo_noreturn
$LN39@destroy:
  00057	cc		 int	 3
??$destroy@U?$pair@$$CBV?$basic_string@DU?$char_traits@D@std@@V?$allocator@D@2@@std@@V?$vector@V?$basic_string@DU?$char_traits@D@std@@V?$allocator@D@2@@std@@V?$allocator@V?$basic_string@DU?$char_traits@D@std@@V?$allocator@D@2@@std@@@2@@2@@std@@@?$_Default_allocator_traits@V?$allocator@U?$_Tree_node@U?$pair@$$CBV?$basic_string@DU?$char_traits@D@std@@V?$allocator@D@2@@std@@V?$vector@V?$basic_string@DU?$char_traits@D@std@@V?$allocator@D@2@@std@@V?$allocator@V?$basic_string@DU?$char_traits@D@std@@V?$allocator@D@2@@std@@@2@@2@@std@@PAX@std@@@std@@@std@@SAXAAV?$allocator@U?$_Tree_node@U?$pair@$$CBV?$basic_string@DU?$char_traits@D@std@@V?$allocator@D@2@@std@@V?$vector@V?$basic_string@DU?$char_traits@D@std@@V?$allocator@D@2@@std@@V?$allocator@V?$basic_string@DU?$char_traits@D@std@@V?$allocator@D@2@@std@@@2@@2@@std@@PAX@std@@@1@QAU?$pair@$$CBV?$basic_string@DU?$char_traits@D@std@@V?$allocator@D@2@@std@@V?$vector@V?$basic_string@DU?$char_traits@D@std@@V?$allocator@D@2@@std@@V?$allocator@V?$basic_string@DU?$char_traits@D@std@@V?$allocator@D@2@@std@@@2@@2@@1@@Z ENDP ; std::_Default_allocator_traits<std::allocator<std::_Tree_node<std::pair<std::basic_string<char,std::char_traits<char>,std::allocator<char> > const ,std::vector<std::basic_string<char,std::char_traits<char>,std::allocator<char> >,std::allocator<std::basic_string<char,std::char_traits<char>,std::allocator<char> > > > >,void *> > >::destroy<std::pair<std::basic_string<char,std::char_traits<char>,std::allocator<char> > const ,std::vector<std::basic_string<char,std::char_traits<char>,std::allocator<char> >,std::allocator<std::basic_string<char,std::char_traits<char>,std::allocator<char> > > > > >
_TEXT	ENDS
; Function compile flags: /Ogtp
; File C:\Program Files (x86)\Microsoft Visual Studio\2019\Professional\VC\Tools\MSVC\14.29.30133\include\xtree
; File C:\Program Files (x86)\Microsoft Visual Studio\2019\Professional\VC\Tools\MSVC\14.29.30133\include\utility
; File C:\Program Files (x86)\Microsoft Visual Studio\2019\Professional\VC\Tools\MSVC\14.29.30133\include\xtree
; File C:\Program Files (x86)\Microsoft Visual Studio\2019\Professional\VC\Tools\MSVC\14.29.30133\include\xmemory
; File C:\Program Files (x86)\Microsoft Visual Studio\2019\Professional\VC\Tools\MSVC\14.29.30133\include\xtree
; File C:\Program Files (x86)\Microsoft Visual Studio\2019\Professional\VC\Tools\MSVC\14.29.30133\include\xmemory
; File C:\Program Files (x86)\Microsoft Visual Studio\2019\Professional\VC\Tools\MSVC\14.29.30133\include\xtree
;	COMDAT ??$_Erase_tree@V?$allocator@U?$_Tree_node@U?$pair@$$CBV?$basic_string@DU?$char_traits@D@std@@V?$allocator@D@2@@std@@V?$vector@V?$basic_string@DU?$char_traits@D@std@@V?$allocator@D@2@@std@@V?$allocator@V?$basic_string@DU?$char_traits@D@std@@V?$allocator@D@2@@std@@@2@@2@@std@@PAX@std@@@std@@@?$_Tree_val@U?$_Tree_simple_types@U?$pair@$$CBV?$basic_string@DU?$char_traits@D@std@@V?$allocator@D@2@@std@@V?$vector@V?$basic_string@DU?$char_traits@D@std@@V?$allocator@D@2@@std@@V?$allocator@V?$basic_string@DU?$char_traits@D@std@@V?$allocator@D@2@@std@@@2@@2@@std@@@std@@@std@@QAEXAAV?$allocator@U?$_Tree_node@U?$pair@$$CBV?$basic_string@DU?$char_traits@D@std@@V?$allocator@D@2@@std@@V?$vector@V?$basic_string@DU?$char_traits@D@std@@V?$allocator@D@2@@std@@V?$allocator@V?$basic_string@DU?$char_traits@D@std@@V?$allocator@D@2@@std@@@2@@2@@std@@PAX@std@@@1@PAU?$_Tree_node@U?$pair@$$CBV?$basic_string@DU?$char_traits@D@std@@V?$allocator@D@2@@std@@V?$vector@V?$basic_string@DU?$char_traits@D@std@@V?$allocator@D@2@@std@@V?$allocator@V?$basic_string@DU?$char_traits@D@std@@V?$allocator@D@2@@std@@@2@@2@@std@@PAX@1@@Z
_TEXT	SEGMENT
_this$1$ = -4						; size = 4
__Al$ = 8						; size = 4
__Rootnode$ = 12					; size = 4
??$_Erase_tree@V?$allocator@U?$_Tree_node@U?$pair@$$CBV?$basic_string@DU?$char_traits@D@std@@V?$allocator@D@2@@std@@V?$vector@V?$basic_string@DU?$char_traits@D@std@@V?$allocator@D@2@@std@@V?$allocator@V?$basic_string@DU?$char_traits@D@std@@V?$allocator@D@2@@std@@@2@@2@@std@@PAX@std@@@std@@@?$_Tree_val@U?$_Tree_simple_types@U?$pair@$$CBV?$basic_string@DU?$char_traits@D@std@@V?$allocator@D@2@@std@@V?$vector@V?$basic_string@DU?$char_traits@D@std@@V?$allocator@D@2@@std@@V?$allocator@V?$basic_string@DU?$char_traits@D@std@@V?$allocator@D@2@@std@@@2@@2@@std@@@std@@@std@@QAEXAAV?$allocator@U?$_Tree_node@U?$pair@$$CBV?$basic_string@DU?$char_traits@D@std@@V?$allocator@D@2@@std@@V?$vector@V?$basic_string@DU?$char_traits@D@std@@V?$allocator@D@2@@std@@V?$allocator@V?$basic_string@DU?$char_traits@D@std@@V?$allocator@D@2@@std@@@2@@2@@std@@PAX@std@@@1@PAU?$_Tree_node@U?$pair@$$CBV?$basic_string@DU?$char_traits@D@std@@V?$allocator@D@2@@std@@V?$vector@V?$basic_string@DU?$char_traits@D@std@@V?$allocator@D@2@@std@@V?$allocator@V?$basic_string@DU?$char_traits@D@std@@V?$allocator@D@2@@std@@@2@@2@@std@@PAX@1@@Z PROC ; std::_Tree_val<std::_Tree_simple_types<std::pair<std::basic_string<char,std::char_traits<char>,std::allocator<char> > const ,std::vector<std::basic_string<char,std::char_traits<char>,std::allocator<char> >,std::allocator<std::basic_string<char,std::char_traits<char>,std::allocator<char> > > > > > >::_Erase_tree<std::allocator<std::_Tree_node<std::pair<std::basic_string<char,std::char_traits<char>,std::allocator<char> > const ,std::vector<std::basic_string<char,std::char_traits<char>,std::allocator<char> >,std::allocator<std::basic_string<char,std::char_traits<char>,std::allocator<char> > > > >,void *> > >, COMDAT
; _this$ = ecx

; 748  :     void _Erase_tree(_Alnode& _Al, _Nodeptr _Rootnode) noexcept {

  00000	55		 push	 ebp
  00001	8b ec		 mov	 ebp, esp
  00003	51		 push	 ecx
  00004	56		 push	 esi

; 749  :         while (!_Rootnode->_Isnil) { // free subtrees, then node

  00005	8b 75 0c	 mov	 esi, DWORD PTR __Rootnode$[ebp]
  00008	8b c1		 mov	 eax, ecx
  0000a	89 45 fc	 mov	 DWORD PTR _this$1$[ebp], eax
  0000d	80 7e 0d 00	 cmp	 BYTE PTR [esi+13], 0
  00011	75 34		 jne	 SHORT $LN3@Erase_tree
  00013	53		 push	 ebx
  00014	8b 5d 08	 mov	 ebx, DWORD PTR __Al$[ebp]
  00017	57		 push	 edi
$LL2@Erase_tree:

; 750  :             _Erase_tree(_Al, _Rootnode->_Right);

  00018	ff 76 08	 push	 DWORD PTR [esi+8]
  0001b	8b c8		 mov	 ecx, eax
  0001d	53		 push	 ebx
  0001e	e8 00 00 00 00	 call	 ??$_Erase_tree@V?$allocator@U?$_Tree_node@U?$pair@$$CBV?$basic_string@DU?$char_traits@D@std@@V?$allocator@D@2@@std@@V?$vector@V?$basic_string@DU?$char_traits@D@std@@V?$allocator@D@2@@std@@V?$allocator@V?$basic_string@DU?$char_traits@D@std@@V?$allocator@D@2@@std@@@2@@2@@std@@PAX@std@@@std@@@?$_Tree_val@U?$_Tree_simple_types@U?$pair@$$CBV?$basic_string@DU?$char_traits@D@std@@V?$allocator@D@2@@std@@V?$vector@V?$basic_string@DU?$char_traits@D@std@@V?$allocator@D@2@@std@@V?$allocator@V?$basic_string@DU?$char_traits@D@std@@V?$allocator@D@2@@std@@@2@@2@@std@@@std@@@std@@QAEXAAV?$allocator@U?$_Tree_node@U?$pair@$$CBV?$basic_string@DU?$char_traits@D@std@@V?$allocator@D@2@@std@@V?$vector@V?$basic_string@DU?$char_traits@D@std@@V?$allocator@D@2@@std@@V?$allocator@V?$basic_string@DU?$char_traits@D@std@@V?$allocator@D@2@@std@@@2@@2@@std@@PAX@std@@@1@PAU?$_Tree_node@U?$pair@$$CBV?$basic_string@DU?$char_traits@D@std@@V?$allocator@D@2@@std@@V?$vector@V?$basic_string@DU?$char_traits@D@std@@V?$allocator@D@2@@std@@V?$allocator@V?$basic_string@DU?$char_traits@D@std@@V?$allocator@D@2@@std@@@2@@2@@std@@PAX@1@@Z ; std::_Tree_val<std::_Tree_simple_types<std::pair<std::basic_string<char,std::char_traits<char>,std::allocator<char> > const ,std::vector<std::basic_string<char,std::char_traits<char>,std::allocator<char> >,std::allocator<std::basic_string<char,std::char_traits<char>,std::allocator<char> > > > > > >::_Erase_tree<std::allocator<std::_Tree_node<std::pair<std::basic_string<char,std::char_traits<char>,std::allocator<char> > const ,std::vector<std::basic_string<char,std::char_traits<char>,std::allocator<char> >,std::allocator<std::basic_string<char,std::char_traits<char>,std::allocator<char> > > > >,void *> > >
; File C:\Program Files (x86)\Microsoft Visual Studio\2019\Professional\VC\Tools\MSVC\14.29.30133\include\utility

; 616  :     _Ty _Old_val = static_cast<_Ty&&>(_Val);

  00023	8b fe		 mov	 edi, esi

; 617  :     _Val         = static_cast<_Other&&>(_New_val);

  00025	8b 36		 mov	 esi, DWORD PTR [esi]
; File C:\Program Files (x86)\Microsoft Visual Studio\2019\Professional\VC\Tools\MSVC\14.29.30133\include\xtree

; 385  :         allocator_traits<_Alloc>::destroy(_Al, _STD addressof(_Ptr->_Myval));

  00027	8d 47 10	 lea	 eax, DWORD PTR [edi+16]
  0002a	50		 push	 eax
  0002b	53		 push	 ebx
  0002c	e8 00 00 00 00	 call	 ??$destroy@U?$pair@$$CBV?$basic_string@DU?$char_traits@D@std@@V?$allocator@D@2@@std@@V?$vector@V?$basic_string@DU?$char_traits@D@std@@V?$allocator@D@2@@std@@V?$allocator@V?$basic_string@DU?$char_traits@D@std@@V?$allocator@D@2@@std@@@2@@2@@std@@@?$_Default_allocator_traits@V?$allocator@U?$_Tree_node@U?$pair@$$CBV?$basic_string@DU?$char_traits@D@std@@V?$allocator@D@2@@std@@V?$vector@V?$basic_string@DU?$char_traits@D@std@@V?$allocator@D@2@@std@@V?$allocator@V?$basic_string@DU?$char_traits@D@std@@V?$allocator@D@2@@std@@@2@@2@@std@@PAX@std@@@std@@@std@@SAXAAV?$allocator@U?$_Tree_node@U?$pair@$$CBV?$basic_string@DU?$char_traits@D@std@@V?$allocator@D@2@@std@@V?$vector@V?$basic_string@DU?$char_traits@D@std@@V?$allocator@D@2@@std@@V?$allocator@V?$basic_string@DU?$char_traits@D@std@@V?$allocator@D@2@@std@@@2@@2@@std@@PAX@std@@@1@QAU?$pair@$$CBV?$basic_string@DU?$char_traits@D@std@@V?$allocator@D@2@@std@@V?$vector@V?$basic_string@DU?$char_traits@D@std@@V?$allocator@D@2@@std@@V?$allocator@V?$basic_string@DU?$char_traits@D@std@@V?$allocator@D@2@@std@@@2@@2@@1@@Z ; std::_Default_allocator_traits<std::allocator<std::_Tree_node<std::pair<std::basic_string<char,std::char_traits<char>,std::allocator<char> > const ,std::vector<std::basic_string<char,std::char_traits<char>,std::allocator<char> >,std::allocator<std::basic_string<char,std::char_traits<char>,std::allocator<char> > > > >,void *> > >::destroy<std::pair<std::basic_string<char,std::char_traits<char>,std::allocator<char> > const ,std::vector<std::basic_string<char,std::char_traits<char>,std::allocator<char> >,std::allocator<std::basic_string<char,std::char_traits<char>,std::allocator<char> > > > > >
; File C:\Program Files (x86)\Microsoft Visual Studio\2019\Professional\VC\Tools\MSVC\14.29.30133\include\xmemory

; 264  :         ::operator delete(_Ptr, _Bytes);

  00031	6a 34		 push	 52			; 00000034H
  00033	57		 push	 edi
  00034	e8 00 00 00 00	 call	 ??3@YAXPAXI@Z		; operator delete
; File C:\Program Files (x86)\Microsoft Visual Studio\2019\Professional\VC\Tools\MSVC\14.29.30133\include\xtree

; 749  :         while (!_Rootnode->_Isnil) { // free subtrees, then node

  00039	8b 45 fc	 mov	 eax, DWORD PTR _this$1$[ebp]
; File C:\Program Files (x86)\Microsoft Visual Studio\2019\Professional\VC\Tools\MSVC\14.29.30133\include\xmemory

; 264  :         ::operator delete(_Ptr, _Bytes);

  0003c	83 c4 10	 add	 esp, 16			; 00000010H
; File C:\Program Files (x86)\Microsoft Visual Studio\2019\Professional\VC\Tools\MSVC\14.29.30133\include\xtree

; 749  :         while (!_Rootnode->_Isnil) { // free subtrees, then node

  0003f	80 7e 0d 00	 cmp	 BYTE PTR [esi+13], 0
  00043	74 d3		 je	 SHORT $LL2@Erase_tree
  00045	5f		 pop	 edi
  00046	5b		 pop	 ebx
$LN3@Erase_tree:
  00047	5e		 pop	 esi

; 751  :             _Alnode::value_type::_Freenode(_Al, _STD exchange(_Rootnode, _Rootnode->_Left));
; 752  :         }
; 753  :     }

  00048	8b e5		 mov	 esp, ebp
  0004a	5d		 pop	 ebp
  0004b	c2 08 00	 ret	 8
??$_Erase_tree@V?$allocator@U?$_Tree_node@U?$pair@$$CBV?$basic_string@DU?$char_traits@D@std@@V?$allocator@D@2@@std@@V?$vector@V?$basic_string@DU?$char_traits@D@std@@V?$allocator@D@2@@std@@V?$allocator@V?$basic_string@DU?$char_traits@D@std@@V?$allocator@D@2@@std@@@2@@2@@std@@PAX@std@@@std@@@?$_Tree_val@U?$_Tree_simple_types@U?$pair@$$CBV?$basic_string@DU?$char_traits@D@std@@V?$allocator@D@2@@std@@V?$vector@V?$basic_string@DU?$char_traits@D@std@@V?$allocator@D@2@@std@@V?$allocator@V?$basic_string@DU?$char_traits@D@std@@V?$allocator@D@2@@std@@@2@@2@@std@@@std@@@std@@QAEXAAV?$allocator@U?$_Tree_node@U?$pair@$$CBV?$basic_string@DU?$char_traits@D@std@@V?$allocator@D@2@@std@@V?$vector@V?$basic_string@DU?$char_traits@D@std@@V?$allocator@D@2@@std@@V?$allocator@V?$basic_string@DU?$char_traits@D@std@@V?$allocator@D@2@@std@@@2@@2@@std@@PAX@std@@@1@PAU?$_Tree_node@U?$pair@$$CBV?$basic_string@DU?$char_traits@D@std@@V?$allocator@D@2@@std@@V?$vector@V?$basic_string@DU?$char_traits@D@std@@V?$allocator@D@2@@std@@V?$allocator@V?$basic_string@DU?$char_traits@D@std@@V?$allocator@D@2@@std@@@2@@2@@std@@PAX@1@@Z ENDP ; std::_Tree_val<std::_Tree_simple_types<std::pair<std::basic_string<char,std::char_traits<char>,std::allocator<char> > const ,std::vector<std::basic_string<char,std::char_traits<char>,std::allocator<char> >,std::allocator<std::basic_string<char,std::char_traits<char>,std::allocator<char> > > > > > >::_Erase_tree<std::allocator<std::_Tree_node<std::pair<std::basic_string<char,std::char_traits<char>,std::allocator<char> > const ,std::vector<std::basic_string<char,std::char_traits<char>,std::allocator<char> >,std::allocator<std::basic_string<char,std::char_traits<char>,std::allocator<char> > > > >,void *> > >
_TEXT	ENDS
; Function compile flags: /Ogtp
; File C:\Program Files (x86)\Microsoft Visual Studio\2019\Professional\VC\Tools\MSVC\14.29.30133\include\xmemory
;	COMDAT ??1?$_Alloc_construct_ptr@V?$allocator@U?$_Tree_node@U?$pair@$$CBV?$basic_string@DU?$char_traits@D@std@@V?$allocator@D@2@@std@@V?$vector@V?$basic_string@DU?$char_traits@D@std@@V?$allocator@D@2@@std@@V?$allocator@V?$basic_string@DU?$char_traits@D@std@@V?$allocator@D@2@@std@@@2@@2@@std@@PAX@std@@@std@@@std@@QAE@XZ
_TEXT	SEGMENT
??1?$_Alloc_construct_ptr@V?$allocator@U?$_Tree_node@U?$pair@$$CBV?$basic_string@DU?$char_traits@D@std@@V?$allocator@D@2@@std@@V?$vector@V?$basic_string@DU?$char_traits@D@std@@V?$allocator@D@2@@std@@V?$allocator@V?$basic_string@DU?$char_traits@D@std@@V?$allocator@D@2@@std@@@2@@2@@std@@PAX@std@@@std@@@std@@QAE@XZ PROC ; std::_Alloc_construct_ptr<std::allocator<std::_Tree_node<std::pair<std::basic_string<char,std::char_traits<char>,std::allocator<char> > const ,std::vector<std::basic_string<char,std::char_traits<char>,std::allocator<char> >,std::allocator<std::basic_string<char,std::char_traits<char>,std::allocator<char> > > > >,void *> > >::~_Alloc_construct_ptr<std::allocator<std::_Tree_node<std::pair<std::basic_string<char,std::char_traits<char>,std::allocator<char> > const ,std::vector<std::basic_string<char,std::char_traits<char>,std::allocator<char> >,std::allocator<std::basic_string<char,std::char_traits<char>,std::allocator<char> > > > >,void *> > >, COMDAT
; _this$ = ecx

; 1024 :         if (_Ptr) {

  00000	8b 41 04	 mov	 eax, DWORD PTR [ecx+4]
  00003	85 c0		 test	 eax, eax
  00005	74 0b		 je	 SHORT $LN8@Alloc_cons

; 264  :         ::operator delete(_Ptr, _Bytes);

  00007	6a 34		 push	 52			; 00000034H
  00009	50		 push	 eax
  0000a	e8 00 00 00 00	 call	 ??3@YAXPAXI@Z		; operator delete
  0000f	83 c4 08	 add	 esp, 8
$LN8@Alloc_cons:

; 1025 :             _Al.deallocate(_Ptr, 1);
; 1026 :         }
; 1027 :     }

  00012	c3		 ret	 0
??1?$_Alloc_construct_ptr@V?$allocator@U?$_Tree_node@U?$pair@$$CBV?$basic_string@DU?$char_traits@D@std@@V?$allocator@D@2@@std@@V?$vector@V?$basic_string@DU?$char_traits@D@std@@V?$allocator@D@2@@std@@V?$allocator@V?$basic_string@DU?$char_traits@D@std@@V?$allocator@D@2@@std@@@2@@2@@std@@PAX@std@@@std@@@std@@QAE@XZ ENDP ; std::_Alloc_construct_ptr<std::allocator<std::_Tree_node<std::pair<std::basic_string<char,std::char_traits<char>,std::allocator<char> > const ,std::vector<std::basic_string<char,std::char_traits<char>,std::allocator<char> >,std::allocator<std::basic_string<char,std::char_traits<char>,std::allocator<char> > > > >,void *> > >::~_Alloc_construct_ptr<std::allocator<std::_Tree_node<std::pair<std::basic_string<char,std::char_traits<char>,std::allocator<char> > const ,std::vector<std::basic_string<char,std::char_traits<char>,std::allocator<char> >,std::allocator<std::basic_string<char,std::char_traits<char>,std::allocator<char> > > > >,void *> > >
_TEXT	ENDS
; Function compile flags: /Ogtp
; File C:\Program Files (x86)\Microsoft Visual Studio\2019\Professional\VC\Tools\MSVC\14.29.30133\include\xtree
; File C:\Program Files (x86)\Microsoft Visual Studio\2019\Professional\VC\Tools\MSVC\14.29.30133\include\xstddef
; File C:\Program Files (x86)\Microsoft Visual Studio\2019\Professional\VC\Tools\MSVC\14.29.30133\include\xtree
;	COMDAT ??$_Find_lower_bound@V?$basic_string@DU?$char_traits@D@std@@V?$allocator@D@2@@std@@@?$_Tree@V?$_Tmap_traits@V?$basic_string@DU?$char_traits@D@std@@V?$allocator@D@2@@std@@V?$vector@V?$basic_string@DU?$char_traits@D@std@@V?$allocator@D@2@@std@@V?$allocator@V?$basic_string@DU?$char_traits@D@std@@V?$allocator@D@2@@std@@@2@@2@U?$less@V?$basic_string@DU?$char_traits@D@std@@V?$allocator@D@2@@std@@@2@V?$allocator@U?$pair@$$CBV?$basic_string@DU?$char_traits@D@std@@V?$allocator@D@2@@std@@V?$vector@V?$basic_string@DU?$char_traits@D@std@@V?$allocator@D@2@@std@@V?$allocator@V?$basic_string@DU?$char_traits@D@std@@V?$allocator@D@2@@std@@@2@@2@@std@@@2@$0A@@std@@@std@@IBE?AU?$_Tree_find_result@PAU?$_Tree_node@U?$pair@$$CBV?$basic_string@DU?$char_traits@D@std@@V?$allocator@D@2@@std@@V?$vector@V?$basic_string@DU?$char_traits@D@std@@V?$allocator@D@2@@std@@V?$allocator@V?$basic_string@DU?$char_traits@D@std@@V?$allocator@D@2@@std@@@2@@2@@std@@PAX@std@@@1@ABV?$basic_string@DU?$char_traits@D@std@@V?$allocator@D@2@@1@@Z
_TEXT	SEGMENT
___$ReturnUdt$ = 8					; size = 4
__Keyval$ = 12						; size = 4
??$_Find_lower_bound@V?$basic_string@DU?$char_traits@D@std@@V?$allocator@D@2@@std@@@?$_Tree@V?$_Tmap_traits@V?$basic_string@DU?$char_traits@D@std@@V?$allocator@D@2@@std@@V?$vector@V?$basic_string@DU?$char_traits@D@std@@V?$allocator@D@2@@std@@V?$allocator@V?$basic_string@DU?$char_traits@D@std@@V?$allocator@D@2@@std@@@2@@2@U?$less@V?$basic_string@DU?$char_traits@D@std@@V?$allocator@D@2@@std@@@2@V?$allocator@U?$pair@$$CBV?$basic_string@DU?$char_traits@D@std@@V?$allocator@D@2@@std@@V?$vector@V?$basic_string@DU?$char_traits@D@std@@V?$allocator@D@2@@std@@V?$allocator@V?$basic_string@DU?$char_traits@D@std@@V?$allocator@D@2@@std@@@2@@2@@std@@@2@$0A@@std@@@std@@IBE?AU?$_Tree_find_result@PAU?$_Tree_node@U?$pair@$$CBV?$basic_string@DU?$char_traits@D@std@@V?$allocator@D@2@@std@@V?$vector@V?$basic_string@DU?$char_traits@D@std@@V?$allocator@D@2@@std@@V?$allocator@V?$basic_string@DU?$char_traits@D@std@@V?$allocator@D@2@@std@@@2@@2@@std@@PAX@std@@@1@ABV?$basic_string@DU?$char_traits@D@std@@V?$allocator@D@2@@1@@Z PROC ; std::_Tree<std::_Tmap_traits<std::basic_string<char,std::char_traits<char>,std::allocator<char> >,std::vector<std::basic_string<char,std::char_traits<char>,std::allocator<char> >,std::allocator<std::basic_string<char,std::char_traits<char>,std::allocator<char> > > >,std::less<std::basic_string<char,std::char_traits<char>,std::allocator<char> > >,std::allocator<std::pair<std::basic_string<char,std::char_traits<char>,std::allocator<char> > const ,std::vector<std::basic_string<char,std::char_traits<char>,std::allocator<char> >,std::allocator<std::basic_string<char,std::char_traits<char>,std::allocator<char> > > > > >,0> >::_Find_lower_bound<std::basic_string<char,std::char_traits<char>,std::allocator<char> > >, COMDAT
; _this$ = ecx

; 1603 :     _Tree_find_result<_Nodeptr> _Find_lower_bound(const _Keyty& _Keyval) const {

  00000	55		 push	 ebp
  00001	8b ec		 mov	 ebp, esp

; 1604 :         const auto _Scary = _Get_scary();
; 1605 :         _Tree_find_result<_Nodeptr> _Result{{_Scary->_Myhead->_Parent, _Tree_child::_Right}, _Scary->_Myhead};

  00003	8b 01		 mov	 eax, DWORD PTR [ecx]
  00005	56		 push	 esi
  00006	57		 push	 edi
  00007	8b 7d 08	 mov	 edi, DWORD PTR ___$ReturnUdt$[ebp]
  0000a	8b 70 04	 mov	 esi, DWORD PTR [eax+4]
  0000d	89 37		 mov	 DWORD PTR [edi], esi

; 1606 :         _Nodeptr _Trynode = _Result._Location._Parent;
; 1607 :         while (!_Trynode->_Isnil) {

  0000f	80 7e 0d 00	 cmp	 BYTE PTR [esi+13], 0
  00013	c7 47 04 00 00
	00 00		 mov	 DWORD PTR [edi+4], 0
  0001a	89 47 08	 mov	 DWORD PTR [edi+8], eax
  0001d	75 32		 jne	 SHORT $LN12@Find_lower
  0001f	53		 push	 ebx
  00020	8b 5d 0c	 mov	 ebx, DWORD PTR __Keyval$[ebp]
$LL2@Find_lower:

; 1609 :             if (_DEBUG_LT_PRED(_Getcomp(), _Traits::_Kfn(_Trynode->_Myval), _Keyval)) {

  00023	8d 46 10	 lea	 eax, DWORD PTR [esi+16]
  00026	89 37		 mov	 DWORD PTR [edi], esi
; File C:\Program Files (x86)\Microsoft Visual Studio\2019\Professional\VC\Tools\MSVC\14.29.30133\include\xstddef

; 127  :         return _Left < _Right;

  00028	53		 push	 ebx
  00029	50		 push	 eax
  0002a	e8 00 00 00 00	 call	 ??$?MDU?$char_traits@D@std@@V?$allocator@D@1@@std@@YA_NABV?$basic_string@DU?$char_traits@D@std@@V?$allocator@D@2@@0@0@Z ; std::operator<<char,std::char_traits<char>,std::allocator<char> >
  0002f	83 c4 08	 add	 esp, 8
; File C:\Program Files (x86)\Microsoft Visual Studio\2019\Professional\VC\Tools\MSVC\14.29.30133\include\xtree

; 1609 :             if (_DEBUG_LT_PRED(_Getcomp(), _Traits::_Kfn(_Trynode->_Myval), _Keyval)) {

  00032	84 c0		 test	 al, al
  00034	74 07		 je	 SHORT $LN4@Find_lower

; 1610 :                 _Result._Location._Child = _Tree_child::_Right;
; 1611 :                 _Trynode                 = _Trynode->_Right;

  00036	8b 76 08	 mov	 esi, DWORD PTR [esi+8]
  00039	33 c0		 xor	 eax, eax

; 1612 :             } else {

  0003b	eb 0a		 jmp	 SHORT $LN5@Find_lower
$LN4@Find_lower:

; 1613 :                 _Result._Location._Child = _Tree_child::_Left;
; 1614 :                 _Result._Bound           = _Trynode;

  0003d	89 77 08	 mov	 DWORD PTR [edi+8], esi

; 1615 :                 _Trynode                 = _Trynode->_Left;

  00040	b8 01 00 00 00	 mov	 eax, 1
  00045	8b 36		 mov	 esi, DWORD PTR [esi]
$LN5@Find_lower:

; 1606 :         _Nodeptr _Trynode = _Result._Location._Parent;
; 1607 :         while (!_Trynode->_Isnil) {

  00047	89 47 04	 mov	 DWORD PTR [edi+4], eax
  0004a	80 7e 0d 00	 cmp	 BYTE PTR [esi+13], 0
  0004e	74 d3		 je	 SHORT $LL2@Find_lower

; 1616 :             }
; 1617 :         }
; 1618 : 
; 1619 :         return _Result;

  00050	5b		 pop	 ebx
$LN12@Find_lower:

; 1620 :     }

  00051	8b c7		 mov	 eax, edi
  00053	5f		 pop	 edi
  00054	5e		 pop	 esi
  00055	5d		 pop	 ebp
  00056	c2 08 00	 ret	 8
??$_Find_lower_bound@V?$basic_string@DU?$char_traits@D@std@@V?$allocator@D@2@@std@@@?$_Tree@V?$_Tmap_traits@V?$basic_string@DU?$char_traits@D@std@@V?$allocator@D@2@@std@@V?$vector@V?$basic_string@DU?$char_traits@D@std@@V?$allocator@D@2@@std@@V?$allocator@V?$basic_string@DU?$char_traits@D@std@@V?$allocator@D@2@@std@@@2@@2@U?$less@V?$basic_string@DU?$char_traits@D@std@@V?$allocator@D@2@@std@@@2@V?$allocator@U?$pair@$$CBV?$basic_string@DU?$char_traits@D@std@@V?$allocator@D@2@@std@@V?$vector@V?$basic_string@DU?$char_traits@D@std@@V?$allocator@D@2@@std@@V?$allocator@V?$basic_string@DU?$char_traits@D@std@@V?$allocator@D@2@@std@@@2@@2@@std@@@2@$0A@@std@@@std@@IBE?AU?$_Tree_find_result@PAU?$_Tree_node@U?$pair@$$CBV?$basic_string@DU?$char_traits@D@std@@V?$allocator@D@2@@std@@V?$vector@V?$basic_string@DU?$char_traits@D@std@@V?$allocator@D@2@@std@@V?$allocator@V?$basic_string@DU?$char_traits@D@std@@V?$allocator@D@2@@std@@@2@@2@@std@@PAX@std@@@1@ABV?$basic_string@DU?$char_traits@D@std@@V?$allocator@D@2@@1@@Z ENDP ; std::_Tree<std::_Tmap_traits<std::basic_string<char,std::char_traits<char>,std::allocator<char> >,std::vector<std::basic_string<char,std::char_traits<char>,std::allocator<char> >,std::allocator<std::basic_string<char,std::char_traits<char>,std::allocator<char> > > >,std::less<std::basic_string<char,std::char_traits<char>,std::allocator<char> > >,std::allocator<std::pair<std::basic_string<char,std::char_traits<char>,std::allocator<char> > const ,std::vector<std::basic_string<char,std::char_traits<char>,std::allocator<char> >,std::allocator<std::basic_string<char,std::char_traits<char>,std::allocator<char> > > > > >,0> >::_Find_lower_bound<std::basic_string<char,std::char_traits<char>,std::allocator<char> > >
_TEXT	ENDS
; Function compile flags: /Ogtp
; File C:\Program Files (x86)\Microsoft Visual Studio\2019\Professional\VC\Tools\MSVC\14.29.30133\include\xstring
;	COMDAT ??$?9DU?$char_traits@D@std@@V?$allocator@D@1@@std@@YA_NABV?$basic_string@DU?$char_traits@D@std@@V?$allocator@D@2@@0@QBD@Z
_TEXT	SEGMENT
__Left$ = 8						; size = 4
__Right$ = 12						; size = 4
??$?9DU?$char_traits@D@std@@V?$allocator@D@1@@std@@YA_NABV?$basic_string@DU?$char_traits@D@std@@V?$allocator@D@2@@0@QBD@Z PROC ; std::operator!=<char,std::char_traits<char>,std::allocator<char> >, COMDAT

; 4836 : _NODISCARD bool operator!=(const basic_string<_Elem, _Traits, _Alloc>& _Left, _In_z_ const _Elem* const _Right) {

  00000	55		 push	 ebp
  00001	8b ec		 mov	 ebp, esp
  00003	56		 push	 esi

; 412  :         return _CSTD strlen(reinterpret_cast<const char*>(_First));

  00004	8b 75 0c	 mov	 esi, DWORD PTR __Right$[ebp]

; 4836 : _NODISCARD bool operator!=(const basic_string<_Elem, _Traits, _Alloc>& _Left, _In_z_ const _Elem* const _Right) {

  00007	57		 push	 edi

; 412  :         return _CSTD strlen(reinterpret_cast<const char*>(_First));

  00008	8b fe		 mov	 edi, esi
  0000a	8d 4f 01	 lea	 ecx, DWORD PTR [edi+1]
  0000d	0f 1f 00	 npad	 3
$LL20@operator:
  00010	8a 07		 mov	 al, BYTE PTR [edi]
  00012	47		 inc	 edi
  00013	84 c0		 test	 al, al
  00015	75 f9		 jne	 SHORT $LL20@operator

; 2305 :         const value_type* _Result = _Bx._Buf;

  00017	8b 55 08	 mov	 edx, DWORD PTR __Left$[ebp]

; 412  :         return _CSTD strlen(reinterpret_cast<const char*>(_First));

  0001a	2b f9		 sub	 edi, ecx

; 2305 :         const value_type* _Result = _Bx._Buf;

  0001c	8b ca		 mov	 ecx, edx

; 2319 :         return _BUF_SIZE <= _Myres;

  0001e	83 7a 14 10	 cmp	 DWORD PTR [edx+20], 16	; 00000010H

; 2306 :         if (_Large_string_engaged()) {

  00022	72 02		 jb	 SHORT $LN10@operator

; 2307 :             _Result = _Unfancy(_Bx._Ptr);

  00024	8b 0a		 mov	 ecx, DWORD PTR [edx]
$LN10@operator:

; 4378 :         return _Traits_equal<_Traits>(_Mypair._Myval2._Myptr(), _Mypair._Myval2._Mysize, _Ptr, _Traits::length(_Ptr));

  00026	8b 52 10	 mov	 edx, DWORD PTR [edx+16]

; 583  :     return _Left_size == _Right_size && _Traits::compare(_Left, _Right, _Left_size) == 0;

  00029	3b d7		 cmp	 edx, edi
  0002b	75 5b		 jne	 SHORT $LN16@operator

; 392  :         return _CSTD memcmp(_First1, _First2, _Count);

  0002d	83 ea 04	 sub	 edx, 4
  00030	72 11		 jb	 SHORT $LN23@operator
$LL24@operator:
  00032	8b 01		 mov	 eax, DWORD PTR [ecx]
  00034	3b 06		 cmp	 eax, DWORD PTR [esi]
  00036	75 10		 jne	 SHORT $LN22@operator
  00038	83 c1 04	 add	 ecx, 4
  0003b	83 c6 04	 add	 esi, 4
  0003e	83 ea 04	 sub	 edx, 4
  00041	73 ef		 jae	 SHORT $LL24@operator
$LN23@operator:
  00043	83 fa fc	 cmp	 edx, -4			; fffffffcH
  00046	74 34		 je	 SHORT $LN21@operator
$LN22@operator:
  00048	8a 01		 mov	 al, BYTE PTR [ecx]
  0004a	3a 06		 cmp	 al, BYTE PTR [esi]
  0004c	75 27		 jne	 SHORT $LN25@operator
  0004e	83 fa fd	 cmp	 edx, -3			; fffffffdH
  00051	74 29		 je	 SHORT $LN21@operator
  00053	8a 41 01	 mov	 al, BYTE PTR [ecx+1]
  00056	3a 46 01	 cmp	 al, BYTE PTR [esi+1]
  00059	75 1a		 jne	 SHORT $LN25@operator
  0005b	83 fa fe	 cmp	 edx, -2			; fffffffeH
  0005e	74 1c		 je	 SHORT $LN21@operator
  00060	8a 41 02	 mov	 al, BYTE PTR [ecx+2]
  00063	3a 46 02	 cmp	 al, BYTE PTR [esi+2]
  00066	75 0d		 jne	 SHORT $LN25@operator
  00068	83 fa ff	 cmp	 edx, -1
  0006b	74 0f		 je	 SHORT $LN21@operator
  0006d	8a 41 03	 mov	 al, BYTE PTR [ecx+3]
  00070	3a 46 03	 cmp	 al, BYTE PTR [esi+3]
  00073	74 07		 je	 SHORT $LN21@operator
$LN25@operator:
  00075	1b c0		 sbb	 eax, eax
  00077	83 c8 01	 or	 eax, 1
  0007a	eb 02		 jmp	 SHORT $LN26@operator
$LN21@operator:
  0007c	33 c0		 xor	 eax, eax
$LN26@operator:

; 583  :     return _Left_size == _Right_size && _Traits::compare(_Left, _Right, _Left_size) == 0;

  0007e	85 c0		 test	 eax, eax
  00080	75 06		 jne	 SHORT $LN16@operator
  00082	5f		 pop	 edi
  00083	32 c0		 xor	 al, al

; 4837 :     return !(_Left == _Right);
; 4838 : }

  00085	5e		 pop	 esi
  00086	5d		 pop	 ebp
  00087	c3		 ret	 0
$LN16@operator:
  00088	5f		 pop	 edi

; 583  :     return _Left_size == _Right_size && _Traits::compare(_Left, _Right, _Left_size) == 0;

  00089	b0 01		 mov	 al, 1

; 4837 :     return !(_Left == _Right);
; 4838 : }

  0008b	5e		 pop	 esi
  0008c	5d		 pop	 ebp
  0008d	c3		 ret	 0
??$?9DU?$char_traits@D@std@@V?$allocator@D@1@@std@@YA_NABV?$basic_string@DU?$char_traits@D@std@@V?$allocator@D@2@@0@QBD@Z ENDP ; std::operator!=<char,std::char_traits<char>,std::allocator<char> >
_TEXT	ENDS
; Function compile flags: /Ogtp
; File C:\Program Files (x86)\Microsoft Visual Studio\2019\Professional\VC\Tools\MSVC\14.29.30133\include\xtree
; File C:\Program Files (x86)\Microsoft Visual Studio\2019\Professional\VC\Tools\MSVC\14.29.30133\include\xmemory
;	COMDAT ??1?$map@V?$basic_string@DU?$char_traits@D@std@@V?$allocator@D@2@@std@@V?$vector@V?$basic_string@DU?$char_traits@D@std@@V?$allocator@D@2@@std@@V?$allocator@V?$basic_string@DU?$char_traits@D@std@@V?$allocator@D@2@@std@@@2@@2@U?$less@V?$basic_string@DU?$char_traits@D@std@@V?$allocator@D@2@@std@@@2@V?$allocator@U?$pair@$$CBV?$basic_string@DU?$char_traits@D@std@@V?$allocator@D@2@@std@@V?$vector@V?$basic_string@DU?$char_traits@D@std@@V?$allocator@D@2@@std@@V?$allocator@V?$basic_string@DU?$char_traits@D@std@@V?$allocator@D@2@@std@@@2@@2@@std@@@2@@std@@QAE@XZ
_TEXT	SEGMENT
??1?$map@V?$basic_string@DU?$char_traits@D@std@@V?$allocator@D@2@@std@@V?$vector@V?$basic_string@DU?$char_traits@D@std@@V?$allocator@D@2@@std@@V?$allocator@V?$basic_string@DU?$char_traits@D@std@@V?$allocator@D@2@@std@@@2@@2@U?$less@V?$basic_string@DU?$char_traits@D@std@@V?$allocator@D@2@@std@@@2@V?$allocator@U?$pair@$$CBV?$basic_string@DU?$char_traits@D@std@@V?$allocator@D@2@@std@@V?$vector@V?$basic_string@DU?$char_traits@D@std@@V?$allocator@D@2@@std@@V?$allocator@V?$basic_string@DU?$char_traits@D@std@@V?$allocator@D@2@@std@@@2@@2@@std@@@2@@std@@QAE@XZ PROC ; std::map<std::basic_string<char,std::char_traits<char>,std::allocator<char> >,std::vector<std::basic_string<char,std::char_traits<char>,std::allocator<char> >,std::allocator<std::basic_string<char,std::char_traits<char>,std::allocator<char> > > >,std::less<std::basic_string<char,std::char_traits<char>,std::allocator<char> > >,std::allocator<std::pair<std::basic_string<char,std::char_traits<char>,std::allocator<char> > const ,std::vector<std::basic_string<char,std::char_traits<char>,std::allocator<char> >,std::allocator<std::basic_string<char,std::char_traits<char>,std::allocator<char> > > > > > >::~map<std::basic_string<char,std::char_traits<char>,std::allocator<char> >,std::vector<std::basic_string<char,std::char_traits<char>,std::allocator<char> >,std::allocator<std::basic_string<char,std::char_traits<char>,std::allocator<char> > > >,std::less<std::basic_string<char,std::char_traits<char>,std::allocator<char> > >,std::allocator<std::pair<std::basic_string<char,std::char_traits<char>,std::allocator<char> > const ,std::vector<std::basic_string<char,std::char_traits<char>,std::allocator<char> >,std::allocator<std::basic_string<char,std::char_traits<char>,std::allocator<char> > > > > > >, COMDAT
; _this$ = ecx
; File C:\Program Files (x86)\Microsoft Visual Studio\2019\Professional\VC\Tools\MSVC\14.29.30133\include\xtree

; 758  :         _Erase_tree(_Al, _Myhead->_Parent);

  00000	56		 push	 esi
  00001	8b f1		 mov	 esi, ecx
  00003	8b 06		 mov	 eax, DWORD PTR [esi]
  00005	ff 70 04	 push	 DWORD PTR [eax+4]
  00008	56		 push	 esi
  00009	e8 00 00 00 00	 call	 ??$_Erase_tree@V?$allocator@U?$_Tree_node@U?$pair@$$CBV?$basic_string@DU?$char_traits@D@std@@V?$allocator@D@2@@std@@V?$vector@V?$basic_string@DU?$char_traits@D@std@@V?$allocator@D@2@@std@@V?$allocator@V?$basic_string@DU?$char_traits@D@std@@V?$allocator@D@2@@std@@@2@@2@@std@@PAX@std@@@std@@@?$_Tree_val@U?$_Tree_simple_types@U?$pair@$$CBV?$basic_string@DU?$char_traits@D@std@@V?$allocator@D@2@@std@@V?$vector@V?$basic_string@DU?$char_traits@D@std@@V?$allocator@D@2@@std@@V?$allocator@V?$basic_string@DU?$char_traits@D@std@@V?$allocator@D@2@@std@@@2@@2@@std@@@std@@@std@@QAEXAAV?$allocator@U?$_Tree_node@U?$pair@$$CBV?$basic_string@DU?$char_traits@D@std@@V?$allocator@D@2@@std@@V?$vector@V?$basic_string@DU?$char_traits@D@std@@V?$allocator@D@2@@std@@V?$allocator@V?$basic_string@DU?$char_traits@D@std@@V?$allocator@D@2@@std@@@2@@2@@std@@PAX@std@@@1@PAU?$_Tree_node@U?$pair@$$CBV?$basic_string@DU?$char_traits@D@std@@V?$allocator@D@2@@std@@V?$vector@V?$basic_string@DU?$char_traits@D@std@@V?$allocator@D@2@@std@@V?$allocator@V?$basic_string@DU?$char_traits@D@std@@V?$allocator@D@2@@std@@@2@@2@@std@@PAX@1@@Z ; std::_Tree_val<std::_Tree_simple_types<std::pair<std::basic_string<char,std::char_traits<char>,std::allocator<char> > const ,std::vector<std::basic_string<char,std::char_traits<char>,std::allocator<char> >,std::allocator<std::basic_string<char,std::char_traits<char>,std::allocator<char> > > > > > >::_Erase_tree<std::allocator<std::_Tree_node<std::pair<std::basic_string<char,std::char_traits<char>,std::allocator<char> > const ,std::vector<std::basic_string<char,std::char_traits<char>,std::allocator<char> >,std::allocator<std::basic_string<char,std::char_traits<char>,std::allocator<char> > > > >,void *> > >
; File C:\Program Files (x86)\Microsoft Visual Studio\2019\Professional\VC\Tools\MSVC\14.29.30133\include\xmemory

; 264  :         ::operator delete(_Ptr, _Bytes);

  0000e	6a 34		 push	 52			; 00000034H
  00010	ff 36		 push	 DWORD PTR [esi]
  00012	e8 00 00 00 00	 call	 ??3@YAXPAXI@Z		; operator delete
  00017	83 c4 08	 add	 esp, 8
  0001a	5e		 pop	 esi
  0001b	c3		 ret	 0
??1?$map@V?$basic_string@DU?$char_traits@D@std@@V?$allocator@D@2@@std@@V?$vector@V?$basic_string@DU?$char_traits@D@std@@V?$allocator@D@2@@std@@V?$allocator@V?$basic_string@DU?$char_traits@D@std@@V?$allocator@D@2@@std@@@2@@2@U?$less@V?$basic_string@DU?$char_traits@D@std@@V?$allocator@D@2@@std@@@2@V?$allocator@U?$pair@$$CBV?$basic_string@DU?$char_traits@D@std@@V?$allocator@D@2@@std@@V?$vector@V?$basic_string@DU?$char_traits@D@std@@V?$allocator@D@2@@std@@V?$allocator@V?$basic_string@DU?$char_traits@D@std@@V?$allocator@D@2@@std@@@2@@2@@std@@@2@@std@@QAE@XZ ENDP ; std::map<std::basic_string<char,std::char_traits<char>,std::allocator<char> >,std::vector<std::basic_string<char,std::char_traits<char>,std::allocator<char> >,std::allocator<std::basic_string<char,std::char_traits<char>,std::allocator<char> > > >,std::less<std::basic_string<char,std::char_traits<char>,std::allocator<char> > >,std::allocator<std::pair<std::basic_string<char,std::char_traits<char>,std::allocator<char> > const ,std::vector<std::basic_string<char,std::char_traits<char>,std::allocator<char> >,std::allocator<std::basic_string<char,std::char_traits<char>,std::allocator<char> > > > > > >::~map<std::basic_string<char,std::char_traits<char>,std::allocator<char> >,std::vector<std::basic_string<char,std::char_traits<char>,std::allocator<char> >,std::allocator<std::basic_string<char,std::char_traits<char>,std::allocator<char> > > >,std::less<std::basic_string<char,std::char_traits<char>,std::allocator<char> > >,std::allocator<std::pair<std::basic_string<char,std::char_traits<char>,std::allocator<char> > const ,std::vector<std::basic_string<char,std::char_traits<char>,std::allocator<char> >,std::allocator<std::basic_string<char,std::char_traits<char>,std::allocator<char> > > > > > >
_TEXT	ENDS
; Function compile flags: /Ogtp
; File C:\Program Files (x86)\Microsoft Visual Studio\2019\Professional\VC\Tools\MSVC\14.29.30133\include\map
; File C:\Program Files (x86)\Microsoft Visual Studio\2019\Professional\VC\Tools\MSVC\14.29.30133\include\xtree
; File C:\Program Files (x86)\Microsoft Visual Studio\2019\Professional\VC\Tools\MSVC\14.29.30133\include\xstddef
; File C:\Program Files (x86)\Microsoft Visual Studio\2019\Professional\VC\Tools\MSVC\14.29.30133\include\xtree
; File C:\Program Files (x86)\Microsoft Visual Studio\2019\Professional\VC\Tools\MSVC\14.29.30133\include\map
; File C:\Program Files (x86)\Microsoft Visual Studio\2019\Professional\VC\Tools\MSVC\14.29.30133\include\xmemory
; File C:\Program Files (x86)\Microsoft Visual Studio\2019\Professional\VC\Tools\MSVC\14.29.30133\include\xtree
; File C:\Program Files (x86)\Microsoft Visual Studio\2019\Professional\VC\Tools\MSVC\14.29.30133\include\xmemory
; File C:\Program Files (x86)\Microsoft Visual Studio\2019\Professional\VC\Tools\MSVC\14.29.30133\include\map
; File C:\Program Files (x86)\Microsoft Visual Studio\2019\Professional\VC\Tools\MSVC\14.29.30133\include\xmemory
; File C:\Program Files (x86)\Microsoft Visual Studio\2019\Professional\VC\Tools\MSVC\14.29.30133\include\xstring
; File C:\Program Files (x86)\Microsoft Visual Studio\2019\Professional\VC\Tools\MSVC\14.29.30133\include\map
; File C:\Program Files (x86)\Microsoft Visual Studio\2019\Professional\VC\Tools\MSVC\14.29.30133\include\xstring
; File C:\Program Files (x86)\Microsoft Visual Studio\2019\Professional\VC\Tools\MSVC\14.29.30133\include\map
; File C:\Program Files (x86)\Microsoft Visual Studio\2019\Professional\VC\Tools\MSVC\14.29.30133\include\xstring
; File C:\Program Files (x86)\Microsoft Visual Studio\2019\Professional\VC\Tools\MSVC\14.29.30133\include\vector
; File C:\Program Files (x86)\Microsoft Visual Studio\2019\Professional\VC\Tools\MSVC\14.29.30133\include\xtree
; File C:\Program Files (x86)\Microsoft Visual Studio\2019\Professional\VC\Tools\MSVC\14.29.30133\include\map
; File C:\Program Files (x86)\Microsoft Visual Studio\2019\Professional\VC\Tools\MSVC\14.29.30133\include\xtree
; File C:\Program Files (x86)\Microsoft Visual Studio\2019\Professional\VC\Tools\MSVC\14.29.30133\include\map
;	COMDAT ??A?$map@V?$basic_string@DU?$char_traits@D@std@@V?$allocator@D@2@@std@@V?$vector@V?$basic_string@DU?$char_traits@D@std@@V?$allocator@D@2@@std@@V?$allocator@V?$basic_string@DU?$char_traits@D@std@@V?$allocator@D@2@@std@@@2@@2@U?$less@V?$basic_string@DU?$char_traits@D@std@@V?$allocator@D@2@@std@@@2@V?$allocator@U?$pair@$$CBV?$basic_string@DU?$char_traits@D@std@@V?$allocator@D@2@@std@@V?$vector@V?$basic_string@DU?$char_traits@D@std@@V?$allocator@D@2@@std@@V?$allocator@V?$basic_string@DU?$char_traits@D@std@@V?$allocator@D@2@@std@@@2@@2@@std@@@2@@std@@QAEAAV?$vector@V?$basic_string@DU?$char_traits@D@std@@V?$allocator@D@2@@std@@V?$allocator@V?$basic_string@DU?$char_traits@D@std@@V?$allocator@D@2@@std@@@2@@1@$$QAV?$basic_string@DU?$char_traits@D@std@@V?$allocator@D@2@@1@@Z
_TEXT	SEGMENT
__Loc$3 = -36						; size = 12
$T4 = -24						; size = 8
_this$1$ = -16						; size = 4
__$EHRec$ = -12						; size = 12
__Keyval$ = 8						; size = 4
??A?$map@V?$basic_string@DU?$char_traits@D@std@@V?$allocator@D@2@@std@@V?$vector@V?$basic_string@DU?$char_traits@D@std@@V?$allocator@D@2@@std@@V?$allocator@V?$basic_string@DU?$char_traits@D@std@@V?$allocator@D@2@@std@@@2@@2@U?$less@V?$basic_string@DU?$char_traits@D@std@@V?$allocator@D@2@@std@@@2@V?$allocator@U?$pair@$$CBV?$basic_string@DU?$char_traits@D@std@@V?$allocator@D@2@@std@@V?$vector@V?$basic_string@DU?$char_traits@D@std@@V?$allocator@D@2@@std@@V?$allocator@V?$basic_string@DU?$char_traits@D@std@@V?$allocator@D@2@@std@@@2@@2@@std@@@2@@std@@QAEAAV?$vector@V?$basic_string@DU?$char_traits@D@std@@V?$allocator@D@2@@std@@V?$allocator@V?$basic_string@DU?$char_traits@D@std@@V?$allocator@D@2@@std@@@2@@1@$$QAV?$basic_string@DU?$char_traits@D@std@@V?$allocator@D@2@@1@@Z PROC ; std::map<std::basic_string<char,std::char_traits<char>,std::allocator<char> >,std::vector<std::basic_string<char,std::char_traits<char>,std::allocator<char> >,std::allocator<std::basic_string<char,std::char_traits<char>,std::allocator<char> > > >,std::less<std::basic_string<char,std::char_traits<char>,std::allocator<char> > >,std::allocator<std::pair<std::basic_string<char,std::char_traits<char>,std::allocator<char> > const ,std::vector<std::basic_string<char,std::char_traits<char>,std::allocator<char> >,std::allocator<std::basic_string<char,std::char_traits<char>,std::allocator<char> > > > > > >::operator[], COMDAT
; _this$ = ecx

; 153  :     mapped_type& operator[](key_type&& _Keyval) { // find element matching _Keyval or insert value-initialized value

  00000	55		 push	 ebp
  00001	8b ec		 mov	 ebp, esp
  00003	6a ff		 push	 -1
  00005	68 00 00 00 00	 push	 __ehhandler$??A?$map@V?$basic_string@DU?$char_traits@D@std@@V?$allocator@D@2@@std@@V?$vector@V?$basic_string@DU?$char_traits@D@std@@V?$allocator@D@2@@std@@V?$allocator@V?$basic_string@DU?$char_traits@D@std@@V?$allocator@D@2@@std@@@2@@2@U?$less@V?$basic_string@DU?$char_traits@D@std@@V?$allocator@D@2@@std@@@2@V?$allocator@U?$pair@$$CBV?$basic_string@DU?$char_traits@D@std@@V?$allocator@D@2@@std@@V?$vector@V?$basic_string@DU?$char_traits@D@std@@V?$allocator@D@2@@std@@V?$allocator@V?$basic_string@DU?$char_traits@D@std@@V?$allocator@D@2@@std@@@2@@2@@std@@@2@@std@@QAEAAV?$vector@V?$basic_string@DU?$char_traits@D@std@@V?$allocator@D@2@@std@@V?$allocator@V?$basic_string@DU?$char_traits@D@std@@V?$allocator@D@2@@std@@@2@@1@$$QAV?$basic_string@DU?$char_traits@D@std@@V?$allocator@D@2@@1@@Z
  0000a	64 a1 00 00 00
	00		 mov	 eax, DWORD PTR fs:0
  00010	50		 push	 eax
  00011	83 ec 18	 sub	 esp, 24			; 00000018H
  00014	56		 push	 esi
  00015	57		 push	 edi
  00016	a1 00 00 00 00	 mov	 eax, DWORD PTR ___security_cookie
  0001b	33 c5		 xor	 eax, ebp
  0001d	50		 push	 eax
  0001e	8d 45 f4	 lea	 eax, DWORD PTR __$EHRec$[ebp]
  00021	64 a3 00 00 00
	00		 mov	 DWORD PTR fs:0, eax
  00027	89 4d f0	 mov	 DWORD PTR _this$1$[ebp], ecx

; 176  :         const auto _Loc = _Mybase::_Find_lower_bound(_Keyval);

  0002a	8b 7d 08	 mov	 edi, DWORD PTR __Keyval$[ebp]
  0002d	8d 45 dc	 lea	 eax, DWORD PTR __Loc$3[ebp]
  00030	57		 push	 edi
  00031	50		 push	 eax
  00032	e8 00 00 00 00	 call	 ??$_Find_lower_bound@V?$basic_string@DU?$char_traits@D@std@@V?$allocator@D@2@@std@@@?$_Tree@V?$_Tmap_traits@V?$basic_string@DU?$char_traits@D@std@@V?$allocator@D@2@@std@@V?$vector@V?$basic_string@DU?$char_traits@D@std@@V?$allocator@D@2@@std@@V?$allocator@V?$basic_string@DU?$char_traits@D@std@@V?$allocator@D@2@@std@@@2@@2@U?$less@V?$basic_string@DU?$char_traits@D@std@@V?$allocator@D@2@@std@@@2@V?$allocator@U?$pair@$$CBV?$basic_string@DU?$char_traits@D@std@@V?$allocator@D@2@@std@@V?$vector@V?$basic_string@DU?$char_traits@D@std@@V?$allocator@D@2@@std@@V?$allocator@V?$basic_string@DU?$char_traits@D@std@@V?$allocator@D@2@@std@@@2@@2@@std@@@2@$0A@@std@@@std@@IBE?AU?$_Tree_find_result@PAU?$_Tree_node@U?$pair@$$CBV?$basic_string@DU?$char_traits@D@std@@V?$allocator@D@2@@std@@V?$vector@V?$basic_string@DU?$char_traits@D@std@@V?$allocator@D@2@@std@@V?$allocator@V?$basic_string@DU?$char_traits@D@std@@V?$allocator@D@2@@std@@@2@@2@@std@@PAX@std@@@1@ABV?$basic_string@DU?$char_traits@D@std@@V?$allocator@D@2@@1@@Z ; std::_Tree<std::_Tmap_traits<std::basic_string<char,std::char_traits<char>,std::allocator<char> >,std::vector<std::basic_string<char,std::char_traits<char>,std::allocator<char> >,std::allocator<std::basic_string<char,std::char_traits<char>,std::allocator<char> > > >,std::less<std::basic_string<char,std::char_traits<char>,std::allocator<char> > >,std::allocator<std::pair<std::basic_string<char,std::char_traits<char>,std::allocator<char> > const ,std::vector<std::basic_string<char,std::char_traits<char>,std::allocator<char> >,std::allocator<std::basic_string<char,std::char_traits<char>,std::allocator<char> > > > > >,0> >::_Find_lower_bound<std::basic_string<char,std::char_traits<char>,std::allocator<char> > >
; File C:\Program Files (x86)\Microsoft Visual Studio\2019\Professional\VC\Tools\MSVC\14.29.30133\include\xtree

; 1599 :         return !_Bound->_Isnil && !_DEBUG_LT_PRED(_Getcomp(), _Keyval, _Traits::_Kfn(_Bound->_Myval));

  00037	8b 75 e4	 mov	 esi, DWORD PTR __Loc$3[ebp+8]
  0003a	80 7e 0d 00	 cmp	 BYTE PTR [esi+13], 0
  0003e	75 15		 jne	 SHORT $LN4@operator
  00040	8d 46 10	 lea	 eax, DWORD PTR [esi+16]
; File C:\Program Files (x86)\Microsoft Visual Studio\2019\Professional\VC\Tools\MSVC\14.29.30133\include\xstddef

; 127  :         return _Left < _Right;

  00043	50		 push	 eax
  00044	57		 push	 edi
  00045	e8 00 00 00 00	 call	 ??$?MDU?$char_traits@D@std@@V?$allocator@D@1@@std@@YA_NABV?$basic_string@DU?$char_traits@D@std@@V?$allocator@D@2@@0@0@Z ; std::operator<<char,std::char_traits<char>,std::allocator<char> >
  0004a	83 c4 08	 add	 esp, 8
; File C:\Program Files (x86)\Microsoft Visual Studio\2019\Professional\VC\Tools\MSVC\14.29.30133\include\xtree

; 1599 :         return !_Bound->_Isnil && !_DEBUG_LT_PRED(_Getcomp(), _Keyval, _Traits::_Kfn(_Bound->_Myval));

  0004d	84 c0		 test	 al, al
  0004f	0f 84 98 00 00
	00		 je	 $LN3@operator
$LN4@operator:

; 1623 :         if (max_size() == _Get_scary()->_Mysize) {

  00055	8b 45 f0	 mov	 eax, DWORD PTR _this$1$[ebp]
  00058	81 78 04 c4 4e
	ec 04		 cmp	 DWORD PTR [eax+4], 82595524 ; 04ec4ec4H
  0005f	0f 84 9e 00 00
	00		 je	 $LN133@operator
; File C:\Program Files (x86)\Microsoft Visual Studio\2019\Professional\VC\Tools\MSVC\14.29.30133\include\map

; 184  :         const auto _Inserted = _Tree_temp_node<_Alnode>(_Mybase::_Getal(), _Scary->_Myhead, piecewise_construct,

  00065	8b 30		 mov	 esi, DWORD PTR [eax]
; File C:\Program Files (x86)\Microsoft Visual Studio\2019\Professional\VC\Tools\MSVC\14.29.30133\include\xmemory

; 1012 :     _CONSTEXPR20_DYNALLOC explicit _Alloc_construct_ptr(_Alloc& _Al_) : _Al(_Al_), _Ptr(nullptr) {}

  00067	89 45 e8	 mov	 DWORD PTR $T4[ebp], eax

; 85   :         return ::operator new(_Bytes);

  0006a	6a 34		 push	 52			; 00000034H
; File C:\Program Files (x86)\Microsoft Visual Studio\2019\Professional\VC\Tools\MSVC\14.29.30133\include\xtree

; 790  :     explicit _Tree_temp_node_alloc(_Alnode& _Al_) : _Alloc_construct_ptr<_Alnode>(_Al_) {

  0006c	c7 45 fc 00 00
	00 00		 mov	 DWORD PTR __$EHRec$[ebp+8], 0
; File C:\Program Files (x86)\Microsoft Visual Studio\2019\Professional\VC\Tools\MSVC\14.29.30133\include\xmemory

; 1019 :         _Ptr = nullptr; // if allocate throws, prevents double-free

  00073	c7 45 ec 00 00
	00 00		 mov	 DWORD PTR $T4[ebp+4], 0

; 85   :         return ::operator new(_Bytes);

  0007a	e8 00 00 00 00	 call	 ??2@YAPAXI@Z		; operator new
; File C:\Program Files (x86)\Microsoft Visual Studio\2019\Professional\VC\Tools\MSVC\14.29.30133\include\map

; 190  :         return {_Scary->_Insert_node(_Loc._Location, _Inserted), true};

  0007f	8b 4d f0	 mov	 ecx, DWORD PTR _this$1$[ebp]
; File C:\Program Files (x86)\Microsoft Visual Studio\2019\Professional\VC\Tools\MSVC\14.29.30133\include\xmemory

; 85   :         return ::operator new(_Bytes);

  00082	83 c4 04	 add	 esp, 4
; File C:\Program Files (x86)\Microsoft Visual Studio\2019\Professional\VC\Tools\MSVC\14.29.30133\include\xstring

; 2346 :         _CONSTEXPR20_CONTAINER _Bxty() noexcept : _Ptr() {} // user-provided, for fancy pointers

  00085	c7 40 10 00 00
	00 00		 mov	 DWORD PTR [eax+16], 0

; 2355 :     size_type _Mysize = 0; // current length of string

  0008c	c7 40 20 00 00
	00 00		 mov	 DWORD PTR [eax+32], 0

; 2356 :     size_type _Myres  = 0; // current storage reserved for string

  00093	c7 40 24 00 00
	00 00		 mov	 DWORD PTR [eax+36], 0

; 2869 :         _CSTD memcpy(_My_data_mem, _Right_data_mem, _Memcpy_val_size);

  0009a	0f 10 07	 movups	 xmm0, XMMWORD PTR [edi]
; File C:\Program Files (x86)\Microsoft Visual Studio\2019\Professional\VC\Tools\MSVC\14.29.30133\include\map

; 190  :         return {_Scary->_Insert_node(_Loc._Location, _Inserted), true};

  0009d	50		 push	 eax
  0009e	ff 75 e0	 push	 DWORD PTR __Loc$3[ebp+4]
; File C:\Program Files (x86)\Microsoft Visual Studio\2019\Professional\VC\Tools\MSVC\14.29.30133\include\xstring

; 2869 :         _CSTD memcpy(_My_data_mem, _Right_data_mem, _Memcpy_val_size);

  000a1	0f 11 40 10	 movups	 XMMWORD PTR [eax+16], xmm0
  000a5	f3 0f 7e 47 10	 movq	 xmm0, QWORD PTR [edi+16]
; File C:\Program Files (x86)\Microsoft Visual Studio\2019\Professional\VC\Tools\MSVC\14.29.30133\include\map

; 190  :         return {_Scary->_Insert_node(_Loc._Location, _Inserted), true};

  000aa	ff 75 dc	 push	 DWORD PTR __Loc$3[ebp]
; File C:\Program Files (x86)\Microsoft Visual Studio\2019\Professional\VC\Tools\MSVC\14.29.30133\include\xstring

; 2869 :         _CSTD memcpy(_My_data_mem, _Right_data_mem, _Memcpy_val_size);

  000ad	66 0f d6 40 20	 movq	 QWORD PTR [eax+32], xmm0

; 4596 :         _My_data._Mysize = 0;

  000b2	c7 47 10 00 00
	00 00		 mov	 DWORD PTR [edi+16], 0

; 4597 : 
; 4598 : #ifdef __cpp_lib_constexpr_string
; 4599 :         if (_STD is_constant_evaluated()) {
; 4600 :             _My_data._Myres        = _BUF_SIZE; // SSO disabled in constexpr context
; 4601 :             auto& _Al              = _Getal();
; 4602 :             const pointer _New_ptr = _Al.allocate(_BUF_SIZE + 1); // throws
; 4603 :             _My_data._Bx._Ptr      = _New_ptr;
; 4604 : 
; 4605 :             _Elem* const _Raw_new = _Unfancy(_New_ptr);
; 4606 :             _Traits::assign(_Raw_new, _BUF_SIZE + 1, _Elem());
; 4607 :         } else
; 4608 : #endif // __cpp_lib_constexpr_string
; 4609 :         {
; 4610 :             _My_data._Myres = _BUF_SIZE - 1;

  000b9	c7 47 14 0f 00
	00 00		 mov	 DWORD PTR [edi+20], 15	; 0000000fH

; 4611 :             // the _Traits::assign is last so the codegen doesn't think the char write can alias this
; 4612 :             _Traits::assign(_My_data._Bx._Buf[0], _Elem());

  000c0	c6 07 00	 mov	 BYTE PTR [edi], 0
; File C:\Program Files (x86)\Microsoft Visual Studio\2019\Professional\VC\Tools\MSVC\14.29.30133\include\vector

; 401  :     _CONSTEXPR20_CONTAINER _Vector_val() noexcept : _Myfirst(), _Mylast(), _Myend() {}

  000c3	c7 40 28 00 00
	00 00		 mov	 DWORD PTR [eax+40], 0
  000ca	c7 40 2c 00 00
	00 00		 mov	 DWORD PTR [eax+44], 0
  000d1	c7 40 30 00 00
	00 00		 mov	 DWORD PTR [eax+48], 0
; File C:\Program Files (x86)\Microsoft Visual Studio\2019\Professional\VC\Tools\MSVC\14.29.30133\include\xtree

; 813  :         _Construct_in_place(this->_Ptr->_Left, _Myhead);

  000d8	89 30		 mov	 DWORD PTR [eax], esi

; 814  :         _Construct_in_place(this->_Ptr->_Parent, _Myhead);

  000da	89 70 04	 mov	 DWORD PTR [eax+4], esi

; 815  :         _Construct_in_place(this->_Ptr->_Right, _Myhead);

  000dd	89 70 08	 mov	 DWORD PTR [eax+8], esi

; 816  :         this->_Ptr->_Color = _Red;

  000e0	66 c7 40 0c 00
	00		 mov	 WORD PTR [eax+12], 0
; File C:\Program Files (x86)\Microsoft Visual Studio\2019\Professional\VC\Tools\MSVC\14.29.30133\include\map

; 190  :         return {_Scary->_Insert_node(_Loc._Location, _Inserted), true};

  000e6	e8 00 00 00 00	 call	 ?_Insert_node@?$_Tree_val@U?$_Tree_simple_types@U?$pair@$$CBV?$basic_string@DU?$char_traits@D@std@@V?$allocator@D@2@@std@@V?$vector@V?$basic_string@DU?$char_traits@D@std@@V?$allocator@D@2@@std@@V?$allocator@V?$basic_string@DU?$char_traits@D@std@@V?$allocator@D@2@@std@@@2@@2@@std@@@std@@@std@@QAEPAU?$_Tree_node@U?$pair@$$CBV?$basic_string@DU?$char_traits@D@std@@V?$allocator@D@2@@std@@V?$vector@V?$basic_string@DU?$char_traits@D@std@@V?$allocator@D@2@@std@@V?$allocator@V?$basic_string@DU?$char_traits@D@std@@V?$allocator@D@2@@std@@@2@@2@@std@@PAX@2@U?$_Tree_id@PAU?$_Tree_node@U?$pair@$$CBV?$basic_string@DU?$char_traits@D@std@@V?$allocator@D@2@@std@@V?$vector@V?$basic_string@DU?$char_traits@D@std@@V?$allocator@D@2@@std@@V?$allocator@V?$basic_string@DU?$char_traits@D@std@@V?$allocator@D@2@@std@@@2@@2@@std@@PAX@std@@@2@QAU32@@Z ; std::_Tree_val<std::_Tree_simple_types<std::pair<std::basic_string<char,std::char_traits<char>,std::allocator<char> > const ,std::vector<std::basic_string<char,std::char_traits<char>,std::allocator<char> >,std::allocator<std::basic_string<char,std::char_traits<char>,std::allocator<char> > > > > > >::_Insert_node
  000eb	8b f0		 mov	 esi, eax
$LN3@operator:

; 154  :         return _Try_emplace(_STD move(_Keyval)).first->_Myval.second;

  000ed	8d 46 28	 lea	 eax, DWORD PTR [esi+40]

; 155  :     }

  000f0	8b 4d f4	 mov	 ecx, DWORD PTR __$EHRec$[ebp]
  000f3	64 89 0d 00 00
	00 00		 mov	 DWORD PTR fs:0, ecx
  000fa	59		 pop	 ecx
  000fb	5f		 pop	 edi
  000fc	5e		 pop	 esi
  000fd	8b e5		 mov	 esp, ebp
  000ff	5d		 pop	 ebp
  00100	c2 04 00	 ret	 4
$LN133@operator:
; File C:\Program Files (x86)\Microsoft Visual Studio\2019\Professional\VC\Tools\MSVC\14.29.30133\include\xtree

; 1624 :             _Throw_tree_length_error();

  00103	e8 00 00 00 00	 call	 ?_Throw_tree_length_error@std@@YAXXZ ; std::_Throw_tree_length_error
$LN131@operator:
  00108	cc		 int	 3
_TEXT	ENDS
;	COMDAT text$x
text$x	SEGMENT
__unwindfunclet$??A?$map@V?$basic_string@DU?$char_traits@D@std@@V?$allocator@D@2@@std@@V?$vector@V?$basic_string@DU?$char_traits@D@std@@V?$allocator@D@2@@std@@V?$allocator@V?$basic_string@DU?$char_traits@D@std@@V?$allocator@D@2@@std@@@2@@2@U?$less@V?$basic_string@DU?$char_traits@D@std@@V?$allocator@D@2@@std@@@2@V?$allocator@U?$pair@$$CBV?$basic_string@DU?$char_traits@D@std@@V?$allocator@D@2@@std@@V?$vector@V?$basic_string@DU?$char_traits@D@std@@V?$allocator@D@2@@std@@V?$allocator@V?$basic_string@DU?$char_traits@D@std@@V?$allocator@D@2@@std@@@2@@2@@std@@@2@@std@@QAEAAV?$vector@V?$basic_string@DU?$char_traits@D@std@@V?$allocator@D@2@@std@@V?$allocator@V?$basic_string@DU?$char_traits@D@std@@V?$allocator@D@2@@std@@@2@@1@$$QAV?$basic_string@DU?$char_traits@D@std@@V?$allocator@D@2@@1@@Z$2:
  00000	8d 4d e8	 lea	 ecx, DWORD PTR $T4[ebp]
  00003	e9 00 00 00 00	 jmp	 ??1?$_Alloc_construct_ptr@V?$allocator@U?$_Tree_node@U?$pair@$$CBV?$basic_string@DU?$char_traits@D@std@@V?$allocator@D@2@@std@@V?$vector@V?$basic_string@DU?$char_traits@D@std@@V?$allocator@D@2@@std@@V?$allocator@V?$basic_string@DU?$char_traits@D@std@@V?$allocator@D@2@@std@@@2@@2@@std@@PAX@std@@@std@@@std@@QAE@XZ ; std::_Alloc_construct_ptr<std::allocator<std::_Tree_node<std::pair<std::basic_string<char,std::char_traits<char>,std::allocator<char> > const ,std::vector<std::basic_string<char,std::char_traits<char>,std::allocator<char> >,std::allocator<std::basic_string<char,std::char_traits<char>,std::allocator<char> > > > >,void *> > >::~_Alloc_construct_ptr<std::allocator<std::_Tree_node<std::pair<std::basic_string<char,std::char_traits<char>,std::allocator<char> > const ,std::vector<std::basic_string<char,std::char_traits<char>,std::allocator<char> >,std::allocator<std::basic_string<char,std::char_traits<char>,std::allocator<char> > > > >,void *> > >
  00008	cc		 int	 3
  00009	cc		 int	 3
  0000a	cc		 int	 3
  0000b	cc		 int	 3
  0000c	cc		 int	 3
__ehhandler$??A?$map@V?$basic_string@DU?$char_traits@D@std@@V?$allocator@D@2@@std@@V?$vector@V?$basic_string@DU?$char_traits@D@std@@V?$allocator@D@2@@std@@V?$allocator@V?$basic_string@DU?$char_traits@D@std@@V?$allocator@D@2@@std@@@2@@2@U?$less@V?$basic_string@DU?$char_traits@D@std@@V?$allocator@D@2@@std@@@2@V?$allocator@U?$pair@$$CBV?$basic_string@DU?$char_traits@D@std@@V?$allocator@D@2@@std@@V?$vector@V?$basic_string@DU?$char_traits@D@std@@V?$allocator@D@2@@std@@V?$allocator@V?$basic_string@DU?$char_traits@D@std@@V?$allocator@D@2@@std@@@2@@2@@std@@@2@@std@@QAEAAV?$vector@V?$basic_string@DU?$char_traits@D@std@@V?$allocator@D@2@@std@@V?$allocator@V?$basic_string@DU?$char_traits@D@std@@V?$allocator@D@2@@std@@@2@@1@$$QAV?$basic_string@DU?$char_traits@D@std@@V?$allocator@D@2@@1@@Z:
  0000d	90		 npad	 1
  0000e	90		 npad	 1
  0000f	8b 54 24 08	 mov	 edx, DWORD PTR [esp+8]
  00013	8d 42 0c	 lea	 eax, DWORD PTR [edx+12]
  00016	8b 4a dc	 mov	 ecx, DWORD PTR [edx-36]
  00019	33 c8		 xor	 ecx, eax
  0001b	e8 00 00 00 00	 call	 @__security_check_cookie@4
  00020	b8 00 00 00 00	 mov	 eax, OFFSET __ehfuncinfo$??A?$map@V?$basic_string@DU?$char_traits@D@std@@V?$allocator@D@2@@std@@V?$vector@V?$basic_string@DU?$char_traits@D@std@@V?$allocator@D@2@@std@@V?$allocator@V?$basic_string@DU?$char_traits@D@std@@V?$allocator@D@2@@std@@@2@@2@U?$less@V?$basic_string@DU?$char_traits@D@std@@V?$allocator@D@2@@std@@@2@V?$allocator@U?$pair@$$CBV?$basic_string@DU?$char_traits@D@std@@V?$allocator@D@2@@std@@V?$vector@V?$basic_string@DU?$char_traits@D@std@@V?$allocator@D@2@@std@@V?$allocator@V?$basic_string@DU?$char_traits@D@std@@V?$allocator@D@2@@std@@@2@@2@@std@@@2@@std@@QAEAAV?$vector@V?$basic_string@DU?$char_traits@D@std@@V?$allocator@D@2@@std@@V?$allocator@V?$basic_string@DU?$char_traits@D@std@@V?$allocator@D@2@@std@@@2@@1@$$QAV?$basic_string@DU?$char_traits@D@std@@V?$allocator@D@2@@1@@Z
  00025	e9 00 00 00 00	 jmp	 ___CxxFrameHandler3
text$x	ENDS
??A?$map@V?$basic_string@DU?$char_traits@D@std@@V?$allocator@D@2@@std@@V?$vector@V?$basic_string@DU?$char_traits@D@std@@V?$allocator@D@2@@std@@V?$allocator@V?$basic_string@DU?$char_traits@D@std@@V?$allocator@D@2@@std@@@2@@2@U?$less@V?$basic_string@DU?$char_traits@D@std@@V?$allocator@D@2@@std@@@2@V?$allocator@U?$pair@$$CBV?$basic_string@DU?$char_traits@D@std@@V?$allocator@D@2@@std@@V?$vector@V?$basic_string@DU?$char_traits@D@std@@V?$allocator@D@2@@std@@V?$allocator@V?$basic_string@DU?$char_traits@D@std@@V?$allocator@D@2@@std@@@2@@2@@std@@@2@@std@@QAEAAV?$vector@V?$basic_string@DU?$char_traits@D@std@@V?$allocator@D@2@@std@@V?$allocator@V?$basic_string@DU?$char_traits@D@std@@V?$allocator@D@2@@std@@@2@@1@$$QAV?$basic_string@DU?$char_traits@D@std@@V?$allocator@D@2@@1@@Z ENDP ; std::map<std::basic_string<char,std::char_traits<char>,std::allocator<char> >,std::vector<std::basic_string<char,std::char_traits<char>,std::allocator<char> >,std::allocator<std::basic_string<char,std::char_traits<char>,std::allocator<char> > > >,std::less<std::basic_string<char,std::char_traits<char>,std::allocator<char> > >,std::allocator<std::pair<std::basic_string<char,std::char_traits<char>,std::allocator<char> > const ,std::vector<std::basic_string<char,std::char_traits<char>,std::allocator<char> >,std::allocator<std::basic_string<char,std::char_traits<char>,std::allocator<char> > > > > > >::operator[]
; Function compile flags: /Ogtp
; File C:\Program Files (x86)\Microsoft Visual Studio\2019\Professional\VC\Tools\MSVC\14.29.30133\include\xtree
;	COMDAT ?_Insert_node@?$_Tree_val@U?$_Tree_simple_types@U?$pair@$$CBV?$basic_string@DU?$char_traits@D@std@@V?$allocator@D@2@@std@@V?$vector@V?$basic_string@DU?$char_traits@D@std@@V?$allocator@D@2@@std@@V?$allocator@V?$basic_string@DU?$char_traits@D@std@@V?$allocator@D@2@@std@@@2@@2@@std@@@std@@@std@@QAEPAU?$_Tree_node@U?$pair@$$CBV?$basic_string@DU?$char_traits@D@std@@V?$allocator@D@2@@std@@V?$vector@V?$basic_string@DU?$char_traits@D@std@@V?$allocator@D@2@@std@@V?$allocator@V?$basic_string@DU?$char_traits@D@std@@V?$allocator@D@2@@std@@@2@@2@@std@@PAX@2@U?$_Tree_id@PAU?$_Tree_node@U?$pair@$$CBV?$basic_string@DU?$char_traits@D@std@@V?$allocator@D@2@@std@@V?$vector@V?$basic_string@DU?$char_traits@D@std@@V?$allocator@D@2@@std@@V?$allocator@V?$basic_string@DU?$char_traits@D@std@@V?$allocator@D@2@@std@@@2@@2@@std@@PAX@std@@@2@QAU32@@Z
_TEXT	SEGMENT
__Head$1$ = -8						; size = 4
_this$1$ = -4						; size = 4
__Loc$ = 8						; size = 8
__Newnode$ = 16						; size = 4
?_Insert_node@?$_Tree_val@U?$_Tree_simple_types@U?$pair@$$CBV?$basic_string@DU?$char_traits@D@std@@V?$allocator@D@2@@std@@V?$vector@V?$basic_string@DU?$char_traits@D@std@@V?$allocator@D@2@@std@@V?$allocator@V?$basic_string@DU?$char_traits@D@std@@V?$allocator@D@2@@std@@@2@@2@@std@@@std@@@std@@QAEPAU?$_Tree_node@U?$pair@$$CBV?$basic_string@DU?$char_traits@D@std@@V?$allocator@D@2@@std@@V?$vector@V?$basic_string@DU?$char_traits@D@std@@V?$allocator@D@2@@std@@V?$allocator@V?$basic_string@DU?$char_traits@D@std@@V?$allocator@D@2@@std@@@2@@2@@std@@PAX@2@U?$_Tree_id@PAU?$_Tree_node@U?$pair@$$CBV?$basic_string@DU?$char_traits@D@std@@V?$allocator@D@2@@std@@V?$vector@V?$basic_string@DU?$char_traits@D@std@@V?$allocator@D@2@@std@@V?$allocator@V?$basic_string@DU?$char_traits@D@std@@V?$allocator@D@2@@std@@@2@@2@@std@@PAX@std@@@2@QAU32@@Z PROC ; std::_Tree_val<std::_Tree_simple_types<std::pair<std::basic_string<char,std::char_traits<char>,std::allocator<char> > const ,std::vector<std::basic_string<char,std::char_traits<char>,std::allocator<char> >,std::allocator<std::basic_string<char,std::char_traits<char>,std::allocator<char> > > > > > >::_Insert_node, COMDAT
; _this$ = ecx

; 650  :     _Nodeptr _Insert_node(const _Tree_id<_Nodeptr> _Loc, const _Nodeptr _Newnode) noexcept {

  00000	55		 push	 ebp
  00001	8b ec		 mov	 ebp, esp
  00003	83 ec 08	 sub	 esp, 8

; 651  :         ++_Mysize;
; 652  :         const auto _Head  = _Myhead;
; 653  :         _Newnode->_Parent = _Loc._Parent;

  00006	8b 55 08	 mov	 edx, DWORD PTR __Loc$[ebp]
  00009	8b c1		 mov	 eax, ecx
  0000b	89 45 fc	 mov	 DWORD PTR _this$1$[ebp], eax
  0000e	8b 08		 mov	 ecx, DWORD PTR [eax]
  00010	ff 40 04	 inc	 DWORD PTR [eax+4]
  00013	8b 45 10	 mov	 eax, DWORD PTR __Newnode$[ebp]
  00016	89 4d f8	 mov	 DWORD PTR __Head$1$[ebp], ecx
  00019	89 50 04	 mov	 DWORD PTR [eax+4], edx

; 654  :         if (_Loc._Parent == _Head) { // first node in tree, just set head values

  0001c	3b d1		 cmp	 edx, ecx
  0001e	75 12		 jne	 SHORT $LN5@Insert_nod

; 655  :             _Head->_Left     = _Newnode;

  00020	89 01		 mov	 DWORD PTR [ecx], eax

; 656  :             _Head->_Parent   = _Newnode;

  00022	89 41 04	 mov	 DWORD PTR [ecx+4], eax

; 657  :             _Head->_Right    = _Newnode;

  00025	89 41 08	 mov	 DWORD PTR [ecx+8], eax

; 658  :             _Newnode->_Color = _Black; // the root is black

  00028	c6 40 0c 01	 mov	 BYTE PTR [eax+12], 1

; 717  :     }

  0002c	8b e5		 mov	 esp, ebp
  0002e	5d		 pop	 ebp
  0002f	c2 0c 00	 ret	 12			; 0000000cH
$LN5@Insert_nod:

; 659  :             return _Newnode;
; 660  :         }
; 661  : 
; 662  :         _STL_INTERNAL_CHECK(_Loc._Child != _Tree_child::_Unused);
; 663  :         if (_Loc._Child == _Tree_child::_Right) { // add to right of _Loc._Parent

  00032	83 7d 0c 00	 cmp	 DWORD PTR __Loc$[ebp+4], 0
  00036	75 0d		 jne	 SHORT $LN6@Insert_nod

; 664  :             _STL_INTERNAL_CHECK(_Loc._Parent->_Right->_Isnil);
; 665  :             _Loc._Parent->_Right = _Newnode;

  00038	89 42 08	 mov	 DWORD PTR [edx+8], eax

; 666  :             if (_Loc._Parent == _Head->_Right) { // remember rightmost node

  0003b	3b 51 08	 cmp	 edx, DWORD PTR [ecx+8]
  0003e	75 0d		 jne	 SHORT $LN9@Insert_nod

; 667  :                 _Head->_Right = _Newnode;

  00040	89 41 08	 mov	 DWORD PTR [ecx+8], eax

; 668  :             }
; 669  :         } else { // add to left of _Loc._Parent

  00043	eb 08		 jmp	 SHORT $LN9@Insert_nod
$LN6@Insert_nod:

; 670  :             _STL_INTERNAL_CHECK(_Loc._Parent->_Left->_Isnil);
; 671  :             _Loc._Parent->_Left = _Newnode;

  00045	89 02		 mov	 DWORD PTR [edx], eax

; 672  :             if (_Loc._Parent == _Head->_Left) { // remember leftmost node

  00047	3b 11		 cmp	 edx, DWORD PTR [ecx]
  00049	75 02		 jne	 SHORT $LN9@Insert_nod

; 673  :                 _Head->_Left = _Newnode;

  0004b	89 01		 mov	 DWORD PTR [ecx], eax
$LN9@Insert_nod:

; 674  :             }
; 675  :         }
; 676  : 
; 677  :         for (_Nodeptr _Pnode = _Newnode; _Pnode->_Parent->_Color == _Red;) {

  0004d	8b d0		 mov	 edx, eax
  0004f	8b 40 04	 mov	 eax, DWORD PTR [eax+4]
  00052	80 78 0c 00	 cmp	 BYTE PTR [eax+12], 0
  00056	0f 85 99 01 00
	00		 jne	 $LN3@Insert_nod
  0005c	53		 push	 ebx
  0005d	56		 push	 esi
  0005e	57		 push	 edi
  0005f	90		 npad	 1
$LL2@Insert_nod:

; 678  :             if (_Pnode->_Parent == _Pnode->_Parent->_Parent->_Left) { // fixup red-red in left subtree

  00060	8b 4a 04	 mov	 ecx, DWORD PTR [edx+4]
  00063	8d 7a 04	 lea	 edi, DWORD PTR [edx+4]
  00066	8b 71 04	 mov	 esi, DWORD PTR [ecx+4]
  00069	8d 59 04	 lea	 ebx, DWORD PTR [ecx+4]
  0006c	8b 06		 mov	 eax, DWORD PTR [esi]
  0006e	3b c8		 cmp	 ecx, eax
  00070	0f 85 ba 00 00
	00		 jne	 $LN10@Insert_nod

; 679  :                 const auto _Parent_sibling = _Pnode->_Parent->_Parent->_Right;

  00076	8b 46 08	 mov	 eax, DWORD PTR [esi+8]

; 680  :                 if (_Parent_sibling->_Color == _Red) { // parent's sibling has two red children, blacken both

  00079	80 78 0c 00	 cmp	 BYTE PTR [eax+12], 0
  0007d	0f 84 b3 00 00
	00		 je	 $LN53@Insert_nod

; 681  :                     _Pnode->_Parent->_Color          = _Black;
; 682  :                     _Parent_sibling->_Color          = _Black;
; 683  :                     _Pnode->_Parent->_Parent->_Color = _Red;
; 684  :                     _Pnode                           = _Pnode->_Parent->_Parent;
; 685  :                 } else { // parent's sibling has red and black children
; 686  :                     if (_Pnode == _Pnode->_Parent->_Right) { // rotate right child to left

  00083	8b 71 08	 mov	 esi, DWORD PTR [ecx+8]
  00086	3b d6		 cmp	 edx, esi
  00088	75 47		 jne	 SHORT $LN51@Insert_nod

; 466  :         _Wherenode->_Right = _Pnode->_Left;

  0008a	8b 06		 mov	 eax, DWORD PTR [esi]

; 687  :                         _Pnode = _Pnode->_Parent;

  0008c	8b d1		 mov	 edx, ecx

; 466  :         _Wherenode->_Right = _Pnode->_Left;

  0008e	89 42 08	 mov	 DWORD PTR [edx+8], eax

; 467  : 
; 468  :         if (!_Pnode->_Left->_Isnil) {

  00091	8b 06		 mov	 eax, DWORD PTR [esi]
  00093	80 78 0d 00	 cmp	 BYTE PTR [eax+13], 0
  00097	75 03		 jne	 SHORT $LN20@Insert_nod

; 469  :             _Pnode->_Left->_Parent = _Wherenode;

  00099	89 50 04	 mov	 DWORD PTR [eax+4], edx
$LN20@Insert_nod:

; 470  :         }
; 471  : 
; 472  :         _Pnode->_Parent = _Wherenode->_Parent;

  0009c	8b 03		 mov	 eax, DWORD PTR [ebx]
  0009e	89 46 04	 mov	 DWORD PTR [esi+4], eax

; 473  : 
; 474  :         if (_Wherenode == _Myhead->_Parent) {

  000a1	8b 45 fc	 mov	 eax, DWORD PTR _this$1$[ebp]
  000a4	8b 00		 mov	 eax, DWORD PTR [eax]
  000a6	3b 50 04	 cmp	 edx, DWORD PTR [eax+4]
  000a9	75 0b		 jne	 SHORT $LN21@Insert_nod

; 475  :             _Myhead->_Parent = _Pnode;

  000ab	89 70 04	 mov	 DWORD PTR [eax+4], esi

; 483  :         _Wherenode->_Parent = _Pnode;

  000ae	8b fb		 mov	 edi, ebx
  000b0	89 16		 mov	 DWORD PTR [esi], edx
  000b2	89 33		 mov	 DWORD PTR [ebx], esi
  000b4	eb 1d		 jmp	 SHORT $LN49@Insert_nod
$LN21@Insert_nod:

; 476  :         } else if (_Wherenode == _Wherenode->_Parent->_Left) {

  000b6	8b 03		 mov	 eax, DWORD PTR [ebx]
  000b8	3b 10		 cmp	 edx, DWORD PTR [eax]
  000ba	75 0a		 jne	 SHORT $LN23@Insert_nod

; 477  :             _Wherenode->_Parent->_Left = _Pnode;

  000bc	89 30		 mov	 DWORD PTR [eax], esi

; 483  :         _Wherenode->_Parent = _Pnode;

  000be	8b fb		 mov	 edi, ebx
  000c0	89 16		 mov	 DWORD PTR [esi], edx
  000c2	89 33		 mov	 DWORD PTR [ebx], esi
  000c4	eb 0d		 jmp	 SHORT $LN49@Insert_nod
$LN23@Insert_nod:

; 479  :             _Wherenode->_Parent->_Right = _Pnode;

  000c6	89 70 08	 mov	 DWORD PTR [eax+8], esi

; 483  :         _Wherenode->_Parent = _Pnode;

  000c9	8b fb		 mov	 edi, ebx
  000cb	89 16		 mov	 DWORD PTR [esi], edx
  000cd	89 33		 mov	 DWORD PTR [ebx], esi
  000cf	eb 02		 jmp	 SHORT $LN49@Insert_nod
$LN51@Insert_nod:
  000d1	8b f1		 mov	 esi, ecx
$LN49@Insert_nod:

; 688  :                         _Lrotate(_Pnode);
; 689  :                     }
; 690  : 
; 691  :                     _Pnode->_Parent->_Color          = _Black; // propagate red up

  000d3	c6 46 0c 01	 mov	 BYTE PTR [esi+12], 1

; 692  :                     _Pnode->_Parent->_Parent->_Color = _Red;

  000d7	8b 07		 mov	 eax, DWORD PTR [edi]
  000d9	8b 40 04	 mov	 eax, DWORD PTR [eax+4]
  000dc	c6 40 0c 00	 mov	 BYTE PTR [eax+12], 0

; 693  :                     _Rrotate(_Pnode->_Parent->_Parent);

  000e0	8b 07		 mov	 eax, DWORD PTR [edi]
  000e2	8b 48 04	 mov	 ecx, DWORD PTR [eax+4]

; 487  :         _Nodeptr _Pnode   = _Wherenode->_Left;

  000e5	8b 31		 mov	 esi, DWORD PTR [ecx]

; 488  :         _Wherenode->_Left = _Pnode->_Right;

  000e7	8b 46 08	 mov	 eax, DWORD PTR [esi+8]
  000ea	89 01		 mov	 DWORD PTR [ecx], eax

; 489  : 
; 490  :         if (!_Pnode->_Right->_Isnil) {

  000ec	8b 46 08	 mov	 eax, DWORD PTR [esi+8]
  000ef	80 78 0d 00	 cmp	 BYTE PTR [eax+13], 0
  000f3	75 03		 jne	 SHORT $LN27@Insert_nod

; 491  :             _Pnode->_Right->_Parent = _Wherenode;

  000f5	89 48 04	 mov	 DWORD PTR [eax+4], ecx
$LN27@Insert_nod:

; 492  :         }
; 493  : 
; 494  :         _Pnode->_Parent = _Wherenode->_Parent;

  000f8	8b 41 04	 mov	 eax, DWORD PTR [ecx+4]
  000fb	89 46 04	 mov	 DWORD PTR [esi+4], eax

; 495  : 
; 496  :         if (_Wherenode == _Myhead->_Parent) {

  000fe	8b 45 fc	 mov	 eax, DWORD PTR _this$1$[ebp]
  00101	8b 00		 mov	 eax, DWORD PTR [eax]
  00103	3b 48 04	 cmp	 ecx, DWORD PTR [eax+4]
  00106	75 0b		 jne	 SHORT $LN28@Insert_nod

; 497  :             _Myhead->_Parent = _Pnode;

  00108	89 70 04	 mov	 DWORD PTR [eax+4], esi

; 502  :         }
; 503  : 
; 504  :         _Pnode->_Right      = _Wherenode;

  0010b	89 4e 08	 mov	 DWORD PTR [esi+8], ecx

; 694  :                 }
; 695  :             } else { // fixup red-red in right subtree

  0010e	e9 cc 00 00 00	 jmp	 $LN52@Insert_nod
$LN28@Insert_nod:

; 498  :         } else if (_Wherenode == _Wherenode->_Parent->_Right) {

  00113	8b 41 04	 mov	 eax, DWORD PTR [ecx+4]
  00116	3b 48 08	 cmp	 ecx, DWORD PTR [eax+8]
  00119	75 0b		 jne	 SHORT $LN30@Insert_nod

; 499  :             _Wherenode->_Parent->_Right = _Pnode;

  0011b	89 70 08	 mov	 DWORD PTR [eax+8], esi

; 502  :         }
; 503  : 
; 504  :         _Pnode->_Right      = _Wherenode;

  0011e	89 4e 08	 mov	 DWORD PTR [esi+8], ecx

; 694  :                 }
; 695  :             } else { // fixup red-red in right subtree

  00121	e9 b9 00 00 00	 jmp	 $LN52@Insert_nod
$LN30@Insert_nod:

; 501  :             _Wherenode->_Parent->_Left = _Pnode;

  00126	89 30		 mov	 DWORD PTR [eax], esi

; 502  :         }
; 503  : 
; 504  :         _Pnode->_Right      = _Wherenode;

  00128	89 4e 08	 mov	 DWORD PTR [esi+8], ecx

; 694  :                 }
; 695  :             } else { // fixup red-red in right subtree

  0012b	e9 af 00 00 00	 jmp	 $LN52@Insert_nod
$LN10@Insert_nod:

; 696  :                 const auto _Parent_sibling = _Pnode->_Parent->_Parent->_Left;
; 697  :                 if (_Parent_sibling->_Color == _Red) { // parent's sibling has two red children, blacken both

  00130	80 78 0c 00	 cmp	 BYTE PTR [eax+12], 0
  00134	75 1b		 jne	 SHORT $LN15@Insert_nod
$LN53@Insert_nod:

; 674  :             }
; 675  :         }
; 676  : 
; 677  :         for (_Nodeptr _Pnode = _Newnode; _Pnode->_Parent->_Color == _Red;) {

  00136	c6 41 0c 01	 mov	 BYTE PTR [ecx+12], 1
  0013a	c6 40 0c 01	 mov	 BYTE PTR [eax+12], 1
  0013e	8b 07		 mov	 eax, DWORD PTR [edi]
  00140	8b 40 04	 mov	 eax, DWORD PTR [eax+4]
  00143	c6 40 0c 00	 mov	 BYTE PTR [eax+12], 0
  00147	8b 07		 mov	 eax, DWORD PTR [edi]
  00149	8b 50 04	 mov	 edx, DWORD PTR [eax+4]
  0014c	e9 91 00 00 00	 jmp	 $LN46@Insert_nod
$LN15@Insert_nod:

; 698  :                     _Pnode->_Parent->_Color          = _Black;
; 699  :                     _Parent_sibling->_Color          = _Black;
; 700  :                     _Pnode->_Parent->_Parent->_Color = _Red;
; 701  :                     _Pnode                           = _Pnode->_Parent->_Parent;
; 702  :                 } else { // parent's sibling has red and black children
; 703  :                     if (_Pnode == _Pnode->_Parent->_Left) { // rotate left child to right

  00151	8b 01		 mov	 eax, DWORD PTR [ecx]
  00153	3b d0		 cmp	 edx, eax
  00155	75 3e		 jne	 SHORT $LN39@Insert_nod

; 704  :                         _Pnode = _Pnode->_Parent;

  00157	8b d1		 mov	 edx, ecx

; 487  :         _Nodeptr _Pnode   = _Wherenode->_Left;

  00159	8b c8		 mov	 ecx, eax

; 488  :         _Wherenode->_Left = _Pnode->_Right;

  0015b	8b 41 08	 mov	 eax, DWORD PTR [ecx+8]
  0015e	89 02		 mov	 DWORD PTR [edx], eax

; 489  : 
; 490  :         if (!_Pnode->_Right->_Isnil) {

  00160	8b 41 08	 mov	 eax, DWORD PTR [ecx+8]
  00163	80 78 0d 00	 cmp	 BYTE PTR [eax+13], 0
  00167	75 03		 jne	 SHORT $LN34@Insert_nod

; 491  :             _Pnode->_Right->_Parent = _Wherenode;

  00169	89 50 04	 mov	 DWORD PTR [eax+4], edx
$LN34@Insert_nod:

; 492  :         }
; 493  : 
; 494  :         _Pnode->_Parent = _Wherenode->_Parent;

  0016c	8b 03		 mov	 eax, DWORD PTR [ebx]
  0016e	89 41 04	 mov	 DWORD PTR [ecx+4], eax

; 495  : 
; 496  :         if (_Wherenode == _Myhead->_Parent) {

  00171	8b 45 fc	 mov	 eax, DWORD PTR _this$1$[ebp]
  00174	8b 00		 mov	 eax, DWORD PTR [eax]
  00176	3b 50 04	 cmp	 edx, DWORD PTR [eax+4]
  00179	75 05		 jne	 SHORT $LN35@Insert_nod

; 497  :             _Myhead->_Parent = _Pnode;

  0017b	89 48 04	 mov	 DWORD PTR [eax+4], ecx
  0017e	eb 0e		 jmp	 SHORT $LN38@Insert_nod
$LN35@Insert_nod:

; 498  :         } else if (_Wherenode == _Wherenode->_Parent->_Right) {

  00180	8b 03		 mov	 eax, DWORD PTR [ebx]
  00182	3b 50 08	 cmp	 edx, DWORD PTR [eax+8]
  00185	75 05		 jne	 SHORT $LN37@Insert_nod

; 499  :             _Wherenode->_Parent->_Right = _Pnode;

  00187	89 48 08	 mov	 DWORD PTR [eax+8], ecx

; 500  :         } else {

  0018a	eb 02		 jmp	 SHORT $LN38@Insert_nod
$LN37@Insert_nod:

; 501  :             _Wherenode->_Parent->_Left = _Pnode;

  0018c	89 08		 mov	 DWORD PTR [eax], ecx
$LN38@Insert_nod:

; 502  :         }
; 503  : 
; 504  :         _Pnode->_Right      = _Wherenode;

  0018e	89 51 08	 mov	 DWORD PTR [ecx+8], edx

; 505  :         _Wherenode->_Parent = _Pnode;

  00191	8b fb		 mov	 edi, ebx
  00193	89 0b		 mov	 DWORD PTR [ebx], ecx
$LN39@Insert_nod:

; 705  :                         _Rrotate(_Pnode);
; 706  :                     }
; 707  : 
; 708  :                     _Pnode->_Parent->_Color          = _Black; // propagate red up

  00195	c6 41 0c 01	 mov	 BYTE PTR [ecx+12], 1

; 709  :                     _Pnode->_Parent->_Parent->_Color = _Red;

  00199	8b 07		 mov	 eax, DWORD PTR [edi]
  0019b	8b 40 04	 mov	 eax, DWORD PTR [eax+4]
  0019e	c6 40 0c 00	 mov	 BYTE PTR [eax+12], 0

; 710  :                     _Lrotate(_Pnode->_Parent->_Parent);

  001a2	8b 07		 mov	 eax, DWORD PTR [edi]
  001a4	8b 48 04	 mov	 ecx, DWORD PTR [eax+4]

; 465  :         _Nodeptr _Pnode    = _Wherenode->_Right;

  001a7	8b 71 08	 mov	 esi, DWORD PTR [ecx+8]

; 466  :         _Wherenode->_Right = _Pnode->_Left;

  001aa	8b 06		 mov	 eax, DWORD PTR [esi]
  001ac	89 41 08	 mov	 DWORD PTR [ecx+8], eax

; 467  : 
; 468  :         if (!_Pnode->_Left->_Isnil) {

  001af	8b 06		 mov	 eax, DWORD PTR [esi]
  001b1	80 78 0d 00	 cmp	 BYTE PTR [eax+13], 0
  001b5	75 03		 jne	 SHORT $LN41@Insert_nod

; 469  :             _Pnode->_Left->_Parent = _Wherenode;

  001b7	89 48 04	 mov	 DWORD PTR [eax+4], ecx
$LN41@Insert_nod:

; 470  :         }
; 471  : 
; 472  :         _Pnode->_Parent = _Wherenode->_Parent;

  001ba	8b 41 04	 mov	 eax, DWORD PTR [ecx+4]
  001bd	89 46 04	 mov	 DWORD PTR [esi+4], eax

; 473  : 
; 474  :         if (_Wherenode == _Myhead->_Parent) {

  001c0	8b 45 fc	 mov	 eax, DWORD PTR _this$1$[ebp]
  001c3	8b 00		 mov	 eax, DWORD PTR [eax]
  001c5	3b 48 04	 cmp	 ecx, DWORD PTR [eax+4]
  001c8	75 05		 jne	 SHORT $LN42@Insert_nod

; 475  :             _Myhead->_Parent = _Pnode;

  001ca	89 70 04	 mov	 DWORD PTR [eax+4], esi
  001cd	eb 0e		 jmp	 SHORT $LN45@Insert_nod
$LN42@Insert_nod:

; 476  :         } else if (_Wherenode == _Wherenode->_Parent->_Left) {

  001cf	8b 41 04	 mov	 eax, DWORD PTR [ecx+4]
  001d2	3b 08		 cmp	 ecx, DWORD PTR [eax]
  001d4	75 04		 jne	 SHORT $LN44@Insert_nod

; 477  :             _Wherenode->_Parent->_Left = _Pnode;

  001d6	89 30		 mov	 DWORD PTR [eax], esi

; 478  :         } else {

  001d8	eb 03		 jmp	 SHORT $LN45@Insert_nod
$LN44@Insert_nod:

; 479  :             _Wherenode->_Parent->_Right = _Pnode;

  001da	89 70 08	 mov	 DWORD PTR [eax+8], esi
$LN45@Insert_nod:

; 480  :         }
; 481  : 
; 482  :         _Pnode->_Left       = _Wherenode;

  001dd	89 0e		 mov	 DWORD PTR [esi], ecx
$LN52@Insert_nod:

; 674  :             }
; 675  :         }
; 676  : 
; 677  :         for (_Nodeptr _Pnode = _Newnode; _Pnode->_Parent->_Color == _Red;) {

  001df	89 71 04	 mov	 DWORD PTR [ecx+4], esi
$LN46@Insert_nod:
  001e2	8b 42 04	 mov	 eax, DWORD PTR [edx+4]
  001e5	80 78 0c 00	 cmp	 BYTE PTR [eax+12], 0
  001e9	0f 84 71 fe ff
	ff		 je	 $LL2@Insert_nod
  001ef	8b 4d f8	 mov	 ecx, DWORD PTR __Head$1$[ebp]
  001f2	5f		 pop	 edi
  001f3	5e		 pop	 esi
  001f4	5b		 pop	 ebx
$LN3@Insert_nod:

; 711  :                 }
; 712  :             }
; 713  :         }
; 714  : 
; 715  :         _Head->_Parent->_Color = _Black; // root is always black

  001f5	8b 41 04	 mov	 eax, DWORD PTR [ecx+4]
  001f8	c6 40 0c 01	 mov	 BYTE PTR [eax+12], 1

; 716  :         return _Newnode;

  001fc	8b 45 10	 mov	 eax, DWORD PTR __Newnode$[ebp]

; 717  :     }

  001ff	8b e5		 mov	 esp, ebp
  00201	5d		 pop	 ebp
  00202	c2 0c 00	 ret	 12			; 0000000cH
?_Insert_node@?$_Tree_val@U?$_Tree_simple_types@U?$pair@$$CBV?$basic_string@DU?$char_traits@D@std@@V?$allocator@D@2@@std@@V?$vector@V?$basic_string@DU?$char_traits@D@std@@V?$allocator@D@2@@std@@V?$allocator@V?$basic_string@DU?$char_traits@D@std@@V?$allocator@D@2@@std@@@2@@2@@std@@@std@@@std@@QAEPAU?$_Tree_node@U?$pair@$$CBV?$basic_string@DU?$char_traits@D@std@@V?$allocator@D@2@@std@@V?$vector@V?$basic_string@DU?$char_traits@D@std@@V?$allocator@D@2@@std@@V?$allocator@V?$basic_string@DU?$char_traits@D@std@@V?$allocator@D@2@@std@@@2@@2@@std@@PAX@2@U?$_Tree_id@PAU?$_Tree_node@U?$pair@$$CBV?$basic_string@DU?$char_traits@D@std@@V?$allocator@D@2@@std@@V?$vector@V?$basic_string@DU?$char_traits@D@std@@V?$allocator@D@2@@std@@V?$allocator@V?$basic_string@DU?$char_traits@D@std@@V?$allocator@D@2@@std@@@2@@2@@std@@PAX@std@@@2@QAU32@@Z ENDP ; std::_Tree_val<std::_Tree_simple_types<std::pair<std::basic_string<char,std::char_traits<char>,std::allocator<char> > const ,std::vector<std::basic_string<char,std::char_traits<char>,std::allocator<char> >,std::allocator<std::basic_string<char,std::char_traits<char>,std::allocator<char> > > > > > >::_Insert_node
_TEXT	ENDS
; Function compile flags: /Ogtp
; File C:\Program Files (x86)\Microsoft Visual Studio\2019\Professional\VC\Tools\MSVC\14.29.30133\include\xtree
; File C:\Program Files (x86)\Microsoft Visual Studio\2019\Professional\VC\Tools\MSVC\14.29.30133\include\xstddef
; File C:\Program Files (x86)\Microsoft Visual Studio\2019\Professional\VC\Tools\MSVC\14.29.30133\include\xtree
;	COMDAT ?find@?$_Tree@V?$_Tmap_traits@V?$basic_string@DU?$char_traits@D@std@@V?$allocator@D@2@@std@@V?$vector@V?$basic_string@DU?$char_traits@D@std@@V?$allocator@D@2@@std@@V?$allocator@V?$basic_string@DU?$char_traits@D@std@@V?$allocator@D@2@@std@@@2@@2@U?$less@V?$basic_string@DU?$char_traits@D@std@@V?$allocator@D@2@@std@@@2@V?$allocator@U?$pair@$$CBV?$basic_string@DU?$char_traits@D@std@@V?$allocator@D@2@@std@@V?$vector@V?$basic_string@DU?$char_traits@D@std@@V?$allocator@D@2@@std@@V?$allocator@V?$basic_string@DU?$char_traits@D@std@@V?$allocator@D@2@@std@@@2@@2@@std@@@2@$0A@@std@@@std@@QAE?AV?$_Tree_iterator@V?$_Tree_val@U?$_Tree_simple_types@U?$pair@$$CBV?$basic_string@DU?$char_traits@D@std@@V?$allocator@D@2@@std@@V?$vector@V?$basic_string@DU?$char_traits@D@std@@V?$allocator@D@2@@std@@V?$allocator@V?$basic_string@DU?$char_traits@D@std@@V?$allocator@D@2@@std@@@2@@2@@std@@@std@@@std@@@2@ABV?$basic_string@DU?$char_traits@D@std@@V?$allocator@D@2@@2@@Z
_TEXT	SEGMENT
__Loc$1 = -12						; size = 12
___$ReturnUdt$ = 8					; size = 4
__Keyval$ = 12						; size = 4
?find@?$_Tree@V?$_Tmap_traits@V?$basic_string@DU?$char_traits@D@std@@V?$allocator@D@2@@std@@V?$vector@V?$basic_string@DU?$char_traits@D@std@@V?$allocator@D@2@@std@@V?$allocator@V?$basic_string@DU?$char_traits@D@std@@V?$allocator@D@2@@std@@@2@@2@U?$less@V?$basic_string@DU?$char_traits@D@std@@V?$allocator@D@2@@std@@@2@V?$allocator@U?$pair@$$CBV?$basic_string@DU?$char_traits@D@std@@V?$allocator@D@2@@std@@V?$vector@V?$basic_string@DU?$char_traits@D@std@@V?$allocator@D@2@@std@@V?$allocator@V?$basic_string@DU?$char_traits@D@std@@V?$allocator@D@2@@std@@@2@@2@@std@@@2@$0A@@std@@@std@@QAE?AV?$_Tree_iterator@V?$_Tree_val@U?$_Tree_simple_types@U?$pair@$$CBV?$basic_string@DU?$char_traits@D@std@@V?$allocator@D@2@@std@@V?$vector@V?$basic_string@DU?$char_traits@D@std@@V?$allocator@D@2@@std@@V?$allocator@V?$basic_string@DU?$char_traits@D@std@@V?$allocator@D@2@@std@@@2@@2@@std@@@std@@@std@@@2@ABV?$basic_string@DU?$char_traits@D@std@@V?$allocator@D@2@@2@@Z PROC ; std::_Tree<std::_Tmap_traits<std::basic_string<char,std::char_traits<char>,std::allocator<char> >,std::vector<std::basic_string<char,std::char_traits<char>,std::allocator<char> >,std::allocator<std::basic_string<char,std::char_traits<char>,std::allocator<char> > > >,std::less<std::basic_string<char,std::char_traits<char>,std::allocator<char> > >,std::allocator<std::pair<std::basic_string<char,std::char_traits<char>,std::allocator<char> > const ,std::vector<std::basic_string<char,std::char_traits<char>,std::allocator<char> >,std::allocator<std::basic_string<char,std::char_traits<char>,std::allocator<char> > > > > >,0> >::find, COMDAT
; _this$ = ecx

; 1370 :     _NODISCARD iterator find(const key_type& _Keyval) {

  00000	55		 push	 ebp
  00001	8b ec		 mov	 ebp, esp
  00003	83 ec 0c	 sub	 esp, 12			; 0000000cH
  00006	56		 push	 esi
  00007	57		 push	 edi

; 1361 :         const _Tree_find_result<_Nodeptr> _Loc = _Find_lower_bound(_Keyval);

  00008	ff 75 0c	 push	 DWORD PTR __Keyval$[ebp]
  0000b	8d 45 f4	 lea	 eax, DWORD PTR __Loc$1[ebp]

; 1370 :     _NODISCARD iterator find(const key_type& _Keyval) {

  0000e	8b f9		 mov	 edi, ecx

; 1361 :         const _Tree_find_result<_Nodeptr> _Loc = _Find_lower_bound(_Keyval);

  00010	50		 push	 eax
  00011	e8 00 00 00 00	 call	 ??$_Find_lower_bound@V?$basic_string@DU?$char_traits@D@std@@V?$allocator@D@2@@std@@@?$_Tree@V?$_Tmap_traits@V?$basic_string@DU?$char_traits@D@std@@V?$allocator@D@2@@std@@V?$vector@V?$basic_string@DU?$char_traits@D@std@@V?$allocator@D@2@@std@@V?$allocator@V?$basic_string@DU?$char_traits@D@std@@V?$allocator@D@2@@std@@@2@@2@U?$less@V?$basic_string@DU?$char_traits@D@std@@V?$allocator@D@2@@std@@@2@V?$allocator@U?$pair@$$CBV?$basic_string@DU?$char_traits@D@std@@V?$allocator@D@2@@std@@V?$vector@V?$basic_string@DU?$char_traits@D@std@@V?$allocator@D@2@@std@@V?$allocator@V?$basic_string@DU?$char_traits@D@std@@V?$allocator@D@2@@std@@@2@@2@@std@@@2@$0A@@std@@@std@@IBE?AU?$_Tree_find_result@PAU?$_Tree_node@U?$pair@$$CBV?$basic_string@DU?$char_traits@D@std@@V?$allocator@D@2@@std@@V?$vector@V?$basic_string@DU?$char_traits@D@std@@V?$allocator@D@2@@std@@V?$allocator@V?$basic_string@DU?$char_traits@D@std@@V?$allocator@D@2@@std@@@2@@2@@std@@PAX@std@@@1@ABV?$basic_string@DU?$char_traits@D@std@@V?$allocator@D@2@@1@@Z ; std::_Tree<std::_Tmap_traits<std::basic_string<char,std::char_traits<char>,std::allocator<char> >,std::vector<std::basic_string<char,std::char_traits<char>,std::allocator<char> >,std::allocator<std::basic_string<char,std::char_traits<char>,std::allocator<char> > > >,std::less<std::basic_string<char,std::char_traits<char>,std::allocator<char> > >,std::allocator<std::pair<std::basic_string<char,std::char_traits<char>,std::allocator<char> > const ,std::vector<std::basic_string<char,std::char_traits<char>,std::allocator<char> >,std::allocator<std::basic_string<char,std::char_traits<char>,std::allocator<char> > > > > >,0> >::_Find_lower_bound<std::basic_string<char,std::char_traits<char>,std::allocator<char> > >

; 1599 :         return !_Bound->_Isnil && !_DEBUG_LT_PRED(_Getcomp(), _Keyval, _Traits::_Kfn(_Bound->_Myval));

  00016	8b 75 fc	 mov	 esi, DWORD PTR __Loc$1[ebp+8]
  00019	80 7e 0d 00	 cmp	 BYTE PTR [esi+13], 0
  0001d	75 20		 jne	 SHORT $LN4@find
  0001f	8d 46 10	 lea	 eax, DWORD PTR [esi+16]
; File C:\Program Files (x86)\Microsoft Visual Studio\2019\Professional\VC\Tools\MSVC\14.29.30133\include\xstddef

; 127  :         return _Left < _Right;

  00022	50		 push	 eax
  00023	ff 75 0c	 push	 DWORD PTR __Keyval$[ebp]
  00026	e8 00 00 00 00	 call	 ??$?MDU?$char_traits@D@std@@V?$allocator@D@1@@std@@YA_NABV?$basic_string@DU?$char_traits@D@std@@V?$allocator@D@2@@0@0@Z ; std::operator<<char,std::char_traits<char>,std::allocator<char> >
  0002b	83 c4 08	 add	 esp, 8
; File C:\Program Files (x86)\Microsoft Visual Studio\2019\Professional\VC\Tools\MSVC\14.29.30133\include\xtree

; 1599 :         return !_Bound->_Isnil && !_DEBUG_LT_PRED(_Getcomp(), _Keyval, _Traits::_Kfn(_Bound->_Myval));

  0002e	84 c0		 test	 al, al
  00030	75 0d		 jne	 SHORT $LN4@find

; 39   :     _Tree_unchecked_const_iterator(_Nodeptr _Pnode, const _Mytree* _Plist) noexcept : _Ptr(_Pnode) {

  00032	8b 45 08	 mov	 eax, DWORD PTR ___$ReturnUdt$[ebp]
  00035	5f		 pop	 edi
  00036	89 30		 mov	 DWORD PTR [eax], esi

; 1371 :         return iterator(_Find(_Keyval), _Get_scary());
; 1372 :     }

  00038	5e		 pop	 esi
  00039	8b e5		 mov	 esp, ebp
  0003b	5d		 pop	 ebp
  0003c	c2 08 00	 ret	 8
$LN4@find:

; 39   :     _Tree_unchecked_const_iterator(_Nodeptr _Pnode, const _Mytree* _Plist) noexcept : _Ptr(_Pnode) {

  0003f	8b 45 08	 mov	 eax, DWORD PTR ___$ReturnUdt$[ebp]

; 1366 :         return _Get_scary()->_Myhead;

  00042	8b 0f		 mov	 ecx, DWORD PTR [edi]
  00044	5f		 pop	 edi

; 1371 :         return iterator(_Find(_Keyval), _Get_scary());
; 1372 :     }

  00045	5e		 pop	 esi

; 39   :     _Tree_unchecked_const_iterator(_Nodeptr _Pnode, const _Mytree* _Plist) noexcept : _Ptr(_Pnode) {

  00046	89 08		 mov	 DWORD PTR [eax], ecx

; 1371 :         return iterator(_Find(_Keyval), _Get_scary());
; 1372 :     }

  00048	8b e5		 mov	 esp, ebp
  0004a	5d		 pop	 ebp
  0004b	c2 08 00	 ret	 8
?find@?$_Tree@V?$_Tmap_traits@V?$basic_string@DU?$char_traits@D@std@@V?$allocator@D@2@@std@@V?$vector@V?$basic_string@DU?$char_traits@D@std@@V?$allocator@D@2@@std@@V?$allocator@V?$basic_string@DU?$char_traits@D@std@@V?$allocator@D@2@@std@@@2@@2@U?$less@V?$basic_string@DU?$char_traits@D@std@@V?$allocator@D@2@@std@@@2@V?$allocator@U?$pair@$$CBV?$basic_string@DU?$char_traits@D@std@@V?$allocator@D@2@@std@@V?$vector@V?$basic_string@DU?$char_traits@D@std@@V?$allocator@D@2@@std@@V?$allocator@V?$basic_string@DU?$char_traits@D@std@@V?$allocator@D@2@@std@@@2@@2@@std@@@2@$0A@@std@@@std@@QAE?AV?$_Tree_iterator@V?$_Tree_val@U?$_Tree_simple_types@U?$pair@$$CBV?$basic_string@DU?$char_traits@D@std@@V?$allocator@D@2@@std@@V?$vector@V?$basic_string@DU?$char_traits@D@std@@V?$allocator@D@2@@std@@V?$allocator@V?$basic_string@DU?$char_traits@D@std@@V?$allocator@D@2@@std@@@2@@2@@std@@@std@@@std@@@2@ABV?$basic_string@DU?$char_traits@D@std@@V?$allocator@D@2@@2@@Z ENDP ; std::_Tree<std::_Tmap_traits<std::basic_string<char,std::char_traits<char>,std::allocator<char> >,std::vector<std::basic_string<char,std::char_traits<char>,std::allocator<char> >,std::allocator<std::basic_string<char,std::char_traits<char>,std::allocator<char> > > >,std::less<std::basic_string<char,std::char_traits<char>,std::allocator<char> > >,std::allocator<std::pair<std::basic_string<char,std::char_traits<char>,std::allocator<char> > const ,std::vector<std::basic_string<char,std::char_traits<char>,std::allocator<char> >,std::allocator<std::basic_string<char,std::char_traits<char>,std::allocator<char> > > > > >,0> >::find
_TEXT	ENDS
; Function compile flags: /Ogtp
;	COMDAT ??_GTEMP_CAreaLoaderThread@@UAEPAXI@Z
_TEXT	SEGMENT
___flags$ = 8						; size = 4
??_GTEMP_CAreaLoaderThread@@UAEPAXI@Z PROC		; TEMP_CAreaLoaderThread::`scalar deleting destructor', COMDAT
; _this$ = ecx
  00000	55		 push	 ebp
  00001	8b ec		 mov	 ebp, esp
  00003	56		 push	 esi
  00004	8b f1		 mov	 esi, ecx
  00006	e8 00 00 00 00	 call	 ??1TEMP_CAreaLoaderThread@@UAE@XZ ; TEMP_CAreaLoaderThread::~TEMP_CAreaLoaderThread
  0000b	f6 45 08 01	 test	 BYTE PTR ___flags$[ebp], 1
  0000f	74 0e		 je	 SHORT $LN4@scalar
  00011	68 cc 00 00 00	 push	 204			; 000000ccH
  00016	56		 push	 esi
  00017	e8 00 00 00 00	 call	 ??3@YAXPAXI@Z		; operator delete
  0001c	83 c4 08	 add	 esp, 8
$LN4@scalar:
  0001f	8b c6		 mov	 eax, esi
  00021	5e		 pop	 esi
  00022	5d		 pop	 ebp
  00023	c2 04 00	 ret	 4
??_GTEMP_CAreaLoaderThread@@UAEPAXI@Z ENDP		; TEMP_CAreaLoaderThread::`scalar deleting destructor'
_TEXT	ENDS
; Function compile flags: /Ogtp
; File C:\Program Files (x86)\Microsoft Visual Studio\2019\Professional\VC\Tools\MSVC\14.29.30133\include\deque
; File C:\Program Files (x86)\Microsoft Visual Studio\2019\Professional\VC\Tools\MSVC\14.29.30133\include\xmemory
; File C:\Program Files (x86)\Microsoft Visual Studio\2019\Professional\VC\Tools\MSVC\14.29.30133\include\deque
; File C:\Program Files (x86)\Microsoft Visual Studio\2019\Professional\VC\Tools\MSVC\14.29.30133\include\xmemory
; File C:\Program Files (x86)\Microsoft Visual Studio\2019\Professional\VC\Tools\MSVC\14.29.30133\include\deque
; File C:\Program Files (x86)\Microsoft Visual Studio\2019\Professional\VC\Tools\MSVC\14.29.30133\include\xmemory
; File C:\Program Files (x86)\Microsoft Visual Studio\2019\Professional\VC\Tools\MSVC\14.29.30133\include\deque
;	COMDAT ?_Growmap@?$deque@PAVCArea@@V?$allocator@PAVCArea@@@std@@@std@@AAEXI@Z
_TEXT	SEGMENT
tv483 = -4						; size = 4
$T1 = 8							; size = 4
__Count$ = 8						; size = 4
?_Growmap@?$deque@PAVCArea@@V?$allocator@PAVCArea@@@std@@@std@@AAEXI@Z PROC ; std::deque<CArea *,std::allocator<CArea *> >::_Growmap, COMDAT
; _this$ = ecx

; 1439 :     void _Growmap(size_type _Count) { // grow map by at least _Count pointers, _Mapsize() a power of 2

  00000	55		 push	 ebp
  00001	8b ec		 mov	 ebp, esp
  00003	51		 push	 ecx
  00004	53		 push	 ebx

; 1440 :         static_assert(1 < _Minimum_map_size, "The _Xlen() test should always be performed.");
; 1441 : 
; 1442 :         _Alpty _Almap(_Getal());
; 1443 :         size_type _Newsize = 0 < _Mapsize() ? _Mapsize() : 1;

  00005	8b 5d 08	 mov	 ebx, DWORD PTR __Count$[ebp]
  00008	b8 01 00 00 00	 mov	 eax, 1
  0000d	56		 push	 esi
  0000e	57		 push	 edi
  0000f	8b f9		 mov	 edi, ecx
  00011	8b 57 08	 mov	 edx, DWORD PTR [edi+8]
  00014	85 d2		 test	 edx, edx
  00016	0f 45 c2	 cmovne	 eax, edx
  00019	0f 1f 80 00 00
	00 00		 npad	 7
$LL2@Growmap:

; 1444 :         while (_Newsize - _Mapsize() < _Count || _Newsize < _Minimum_map_size) {

  00020	8b f0		 mov	 esi, eax
  00022	2b f2		 sub	 esi, edx
  00024	3b f3		 cmp	 esi, ebx
  00026	72 05		 jb	 SHORT $LN4@Growmap
  00028	83 f8 08	 cmp	 eax, 8
  0002b	73 13		 jae	 SHORT $LN3@Growmap
$LN4@Growmap:

; 1445 :             // scale _Newsize to 2^N >= _Mapsize() + _Count
; 1446 :             if (max_size() / _Block_size - _Newsize < _Newsize) {

  0002d	b9 ff ff ff 0f	 mov	 ecx, 268435455		; 0fffffffH
  00032	2b c8		 sub	 ecx, eax
  00034	3b c8		 cmp	 ecx, eax
  00036	0f 82 fe 00 00
	00		 jb	 $LN44@Growmap

; 1448 :             }
; 1449 : 
; 1450 :             _Newsize *= 2;

  0003c	03 c0		 add	 eax, eax

; 1451 :         }

  0003e	eb e0		 jmp	 SHORT $LL2@Growmap
$LN3@Growmap:

; 1452 :         _Count = _Newsize - _Mapsize();
; 1453 : 
; 1454 :         size_type _Myboff = _Myoff() / _Block_size;

  00040	8b 5f 0c	 mov	 ebx, DWORD PTR [edi+12]
  00043	c1 eb 02	 shr	 ebx, 2
  00046	89 5d 08	 mov	 DWORD PTR $T1[ebp], ebx
; File C:\Program Files (x86)\Microsoft Visual Studio\2019\Professional\VC\Tools\MSVC\14.29.30133\include\xmemory

; 64   :         if (_Count > _Max_possible) {

  00049	3d ff ff ff 3f	 cmp	 eax, 1073741823		; 3fffffffH
  0004e	0f 87 ed 00 00
	00		 ja	 $LN51@Growmap

; 66   :         }
; 67   :     }
; 68   : 
; 69   :     return _Count * _Ty_size;

  00054	c1 e0 02	 shl	 eax, 2

; 237  :         if (_Bytes >= _Big_allocation_threshold) { // boost the alignment of big allocations to help autovectorization

  00057	3d 00 10 00 00	 cmp	 eax, 4096		; 00001000H
  0005c	72 0d		 jb	 SHORT $LN19@Growmap

; 238  :             return _Allocate_manually_vector_aligned<_Traits>(_Bytes);

  0005e	50		 push	 eax
  0005f	e8 00 00 00 00	 call	 ??$_Allocate_manually_vector_aligned@U_Default_allocate_traits@std@@@std@@YAPAXI@Z ; std::_Allocate_manually_vector_aligned<std::_Default_allocate_traits>
  00064	83 c4 04	 add	 esp, 4
  00067	8b d8		 mov	 ebx, eax
  00069	eb 13		 jmp	 SHORT $LN18@Growmap
$LN19@Growmap:

; 239  :         }
; 240  :     }
; 241  : #endif // defined(_M_IX86) || defined(_M_X64)
; 242  : 
; 243  :     if (_Bytes != 0) {

  0006b	85 c0		 test	 eax, eax
  0006d	74 0d		 je	 SHORT $LN20@Growmap

; 85   :         return ::operator new(_Bytes);

  0006f	50		 push	 eax
  00070	e8 00 00 00 00	 call	 ??2@YAPAXI@Z		; operator new
  00075	83 c4 04	 add	 esp, 4

; 244  :         return _Traits::_Allocate(_Bytes);

  00078	8b d8		 mov	 ebx, eax
  0007a	eb 02		 jmp	 SHORT $LN18@Growmap
$LN20@Growmap:

; 245  :     }
; 246  : 
; 247  :     return nullptr;

  0007c	33 db		 xor	 ebx, ebx
$LN18@Growmap:
; File C:\Program Files (x86)\Microsoft Visual Studio\2019\Professional\VC\Tools\MSVC\14.29.30133\include\deque

; 1456 :         _Mapptr _Myptr    = _Newmap + _Myboff;

  0007e	8b 55 08	 mov	 edx, DWORD PTR $T1[ebp]

; 1457 : 
; 1458 :         _Myptr = _STD uninitialized_copy(_Map() + _Myboff, _Map() + _Mapsize(), _Myptr); // copy initial to end

  00081	8b 4f 04	 mov	 ecx, DWORD PTR [edi+4]
  00084	c1 e2 02	 shl	 edx, 2
  00087	89 55 fc	 mov	 DWORD PTR tv483[ebp], edx
  0008a	8d 04 1a	 lea	 eax, DWORD PTR [edx+ebx]
  0008d	50		 push	 eax
  0008e	8b 47 08	 mov	 eax, DWORD PTR [edi+8]
  00091	8d 04 81	 lea	 eax, DWORD PTR [ecx+eax*4]
  00094	50		 push	 eax
  00095	8d 04 11	 lea	 eax, DWORD PTR [ecx+edx]
  00098	50		 push	 eax
  00099	e8 00 00 00 00	 call	 ??$uninitialized_copy@PAPAPAVCArea@@PAPAPAV1@@std@@YAPAPAPAVCArea@@QAPAPAV1@0PAPAPAV1@@Z ; std::uninitialized_copy<CArea * * *,CArea * * *>
  0009e	8b 4f 04	 mov	 ecx, DWORD PTR [edi+4]
  000a1	83 c4 0c	 add	 esp, 12			; 0000000cH

; 1459 :         if (_Myboff <= _Count) { // increment greater than offset of initial block

  000a4	50		 push	 eax
  000a5	39 75 08	 cmp	 DWORD PTR $T1[ebp], esi
  000a8	77 22		 ja	 SHORT $LN6@Growmap

; 1460 :             _Myptr = _STD uninitialized_copy(_Map(), _Map() + _Myboff, _Myptr); // copy rest of old

  000aa	8b 45 fc	 mov	 eax, DWORD PTR tv483[ebp]
  000ad	03 c1		 add	 eax, ecx
  000af	50		 push	 eax
  000b0	51		 push	 ecx
  000b1	e8 00 00 00 00	 call	 ??$uninitialized_copy@PAPAPAVCArea@@PAPAPAV1@@std@@YAPAPAPAVCArea@@QAPAPAV1@0PAPAPAV1@@Z ; std::uninitialized_copy<CArea * * *,CArea * * *>

; 1461 :             _Uninitialized_value_construct_n_unchecked1(_Myptr, _Count - _Myboff); // clear suffix of new

  000b6	8b ce		 mov	 ecx, esi
  000b8	2b 4d 08	 sub	 ecx, DWORD PTR $T1[ebp]
  000bb	51		 push	 ecx
  000bc	50		 push	 eax
  000bd	e8 00 00 00 00	 call	 ??$_Uninitialized_value_construct_n_unchecked1@PAPAPAVCArea@@I@std@@YAPAPAPAVCArea@@PAPAPAV1@I@Z ; std::_Uninitialized_value_construct_n_unchecked1<CArea * * *,unsigned int>

; 1462 :             _Uninitialized_value_construct_n_unchecked1(_Newmap, _Myboff); // clear prefix of new
; 1463 :         } else { // increment not greater than offset of initial block

  000c2	8b 45 08	 mov	 eax, DWORD PTR $T1[ebp]
  000c5	83 c4 14	 add	 esp, 20			; 00000014H
  000c8	8b cb		 mov	 ecx, ebx
  000ca	eb 24		 jmp	 SHORT $LN7@Growmap
$LN6@Growmap:

; 1464 :             _STD uninitialized_copy(_Map(), _Map() + _Count, _Myptr); // copy more old

  000cc	8d 04 b1	 lea	 eax, DWORD PTR [ecx+esi*4]
  000cf	50		 push	 eax
  000d0	51		 push	 ecx
  000d1	e8 00 00 00 00	 call	 ??$uninitialized_copy@PAPAPAVCArea@@PAPAPAV1@@std@@YAPAPAPAVCArea@@QAPAPAV1@0PAPAPAV1@@Z ; std::uninitialized_copy<CArea * * *,CArea * * *>

; 1465 :             _Myptr = _STD uninitialized_copy(_Map() + _Count, _Map() + _Myboff, _Newmap); // copy rest of old

  000d6	8b 4f 04	 mov	 ecx, DWORD PTR [edi+4]
  000d9	8b 45 fc	 mov	 eax, DWORD PTR tv483[ebp]
  000dc	03 c1		 add	 eax, ecx
  000de	53		 push	 ebx
  000df	50		 push	 eax
  000e0	8d 04 b1	 lea	 eax, DWORD PTR [ecx+esi*4]
  000e3	50		 push	 eax
  000e4	e8 00 00 00 00	 call	 ??$uninitialized_copy@PAPAPAVCArea@@PAPAPAV1@@std@@YAPAPAPAVCArea@@QAPAPAV1@0PAPAPAV1@@Z ; std::uninitialized_copy<CArea * * *,CArea * * *>

; 1466 :             _Uninitialized_value_construct_n_unchecked1(_Myptr, _Count); // clear rest to initial block

  000e9	8b c8		 mov	 ecx, eax
  000eb	83 c4 18	 add	 esp, 24			; 00000018H
  000ee	8b c6		 mov	 eax, esi
$LN7@Growmap:

; 1467 :         }
; 1468 : 
; 1469 :         _Destroy_range(_Map() + _Myboff, _Map() + _Mapsize());
; 1470 :         if (_Map() != _Mapptr()) {

  000f0	50		 push	 eax
  000f1	51		 push	 ecx
  000f2	e8 00 00 00 00	 call	 ??$_Uninitialized_value_construct_n_unchecked1@PAPAPAVCArea@@I@std@@YAPAPAPAVCArea@@PAPAPAV1@I@Z ; std::_Uninitialized_value_construct_n_unchecked1<CArea * * *,unsigned int>
  000f7	8b 47 04	 mov	 eax, DWORD PTR [edi+4]
  000fa	83 c4 08	 add	 esp, 8
  000fd	85 c0		 test	 eax, eax
  000ff	74 2a		 je	 SHORT $LN29@Growmap
; File C:\Program Files (x86)\Microsoft Visual Studio\2019\Professional\VC\Tools\MSVC\14.29.30133\include\xmemory

; 835  :         _Deallocate<_New_alignof<_Ty>>(_Ptr, sizeof(_Ty) * _Count);

  00101	8b 4f 08	 mov	 ecx, DWORD PTR [edi+8]
  00104	c1 e1 02	 shl	 ecx, 2

; 260  :         if (_Bytes >= _Big_allocation_threshold) { // boost the alignment of big allocations to help autovectorization

  00107	81 f9 00 10 00
	00		 cmp	 ecx, 4096		; 00001000H
  0010d	72 12		 jb	 SHORT $LN39@Growmap

; 158  :     const uintptr_t _Ptr_container   = _Ptr_user[-1];

  0010f	8b 50 fc	 mov	 edx, DWORD PTR [eax-4]
  00112	83 c1 23	 add	 ecx, 35			; 00000023H

; 159  : 
; 160  :     // If the following asserts, it likely means that we are performing
; 161  :     // an aligned delete on memory coming from an unaligned allocation.
; 162  :     _STL_ASSERT(_Ptr_user[-2] == _Big_allocation_sentinel, "invalid argument");
; 163  : 
; 164  :     // Extra paranoia on aligned allocation/deallocation; ensure _Ptr_container is
; 165  :     // in range [_Min_back_shift, _Non_user_size]
; 166  : #ifdef _DEBUG
; 167  :     constexpr uintptr_t _Min_back_shift = 2 * sizeof(void*);
; 168  : #else // ^^^ _DEBUG ^^^ // vvv !_DEBUG vvv
; 169  :     constexpr uintptr_t _Min_back_shift = sizeof(void*);
; 170  : #endif // _DEBUG
; 171  :     const uintptr_t _Back_shift = reinterpret_cast<uintptr_t>(_Ptr) - _Ptr_container;

  00115	2b c2		 sub	 eax, edx

; 172  :     _STL_VERIFY(_Back_shift >= _Min_back_shift && _Back_shift <= _Non_user_size, "invalid argument");

  00117	83 c0 fc	 add	 eax, -4			; fffffffcH
  0011a	83 f8 1f	 cmp	 eax, 31			; 0000001fH
  0011d	77 27		 ja	 SHORT $LN36@Growmap

; 173  :     _Ptr = reinterpret_cast<void*>(_Ptr_container);

  0011f	8b c2		 mov	 eax, edx
$LN39@Growmap:

; 264  :         ::operator delete(_Ptr, _Bytes);

  00121	51		 push	 ecx
  00122	50		 push	 eax
  00123	e8 00 00 00 00	 call	 ??3@YAXPAXI@Z		; operator delete
  00128	83 c4 08	 add	 esp, 8
$LN29@Growmap:
; File C:\Program Files (x86)\Microsoft Visual Studio\2019\Professional\VC\Tools\MSVC\14.29.30133\include\deque

; 1475 :         _Mapsize() += _Count;

  0012b	01 77 08	 add	 DWORD PTR [edi+8], esi
  0012e	89 5f 04	 mov	 DWORD PTR [edi+4], ebx
  00131	5f		 pop	 edi
  00132	5e		 pop	 esi
  00133	5b		 pop	 ebx

; 1476 :     }

  00134	8b e5		 mov	 esp, ebp
  00136	5d		 pop	 ebp
  00137	c2 04 00	 ret	 4
$LN44@Growmap:

; 1447 :                 _Xlen(); // result too long

  0013a	8b cf		 mov	 ecx, edi
  0013c	e8 00 00 00 00	 call	 ?_Xlen@?$deque@PAVCArea@@V?$allocator@PAVCArea@@@std@@@std@@ABEXXZ ; std::deque<CArea *,std::allocator<CArea *> >::_Xlen
$LN51@Growmap:
; File C:\Program Files (x86)\Microsoft Visual Studio\2019\Professional\VC\Tools\MSVC\14.29.30133\include\xmemory

; 65   :             _Throw_bad_array_new_length(); // multiply overflow

  00141	e8 00 00 00 00	 call	 ?_Throw_bad_array_new_length@std@@YAXXZ ; std::_Throw_bad_array_new_length
$LN36@Growmap:

; 172  :     _STL_VERIFY(_Back_shift >= _Min_back_shift && _Back_shift <= _Non_user_size, "invalid argument");

  00146	e8 00 00 00 00	 call	 __invalid_parameter_noinfo_noreturn
$LN49@Growmap:
  0014b	cc		 int	 3
?_Growmap@?$deque@PAVCArea@@V?$allocator@PAVCArea@@@std@@@std@@AAEXI@Z ENDP ; std::deque<CArea *,std::allocator<CArea *> >::_Growmap
_TEXT	ENDS
; Function compile flags: /Ogtp
; File C:\Program Files (x86)\Microsoft Visual Studio\2019\Professional\VC\Tools\MSVC\14.29.30133\include\deque
;	COMDAT ?_Xlen@?$deque@PAVCArea@@V?$allocator@PAVCArea@@@std@@@std@@ABEXXZ
_TEXT	SEGMENT
?_Xlen@?$deque@PAVCArea@@V?$allocator@PAVCArea@@@std@@@std@@ABEXXZ PROC ; std::deque<CArea *,std::allocator<CArea *> >::_Xlen, COMDAT
; _this$ = ecx

; 1432 :         _Xlength_error("deque<T> too long");

  00000	68 00 00 00 00	 push	 OFFSET ??_C@_0BC@KBDMBKEH@deque?$DMT?$DO?5too?5long@
  00005	e8 00 00 00 00	 call	 ?_Xlength_error@std@@YAXPBD@Z ; std::_Xlength_error
$LN3@Xlen:
  0000a	cc		 int	 3
?_Xlen@?$deque@PAVCArea@@V?$allocator@PAVCArea@@@std@@@std@@ABEXXZ ENDP ; std::deque<CArea *,std::allocator<CArea *> >::_Xlen
_TEXT	ENDS
; Function compile flags: /Ogtp
; File C:\Program Files (x86)\Microsoft Visual Studio\2019\Professional\VC\Tools\MSVC\14.29.30133\include\deque
; File C:\Program Files (x86)\Microsoft Visual Studio\2019\Professional\VC\Tools\MSVC\14.29.30133\include\xmemory
; File C:\Program Files (x86)\Microsoft Visual Studio\2019\Professional\VC\Tools\MSVC\14.29.30133\include\deque
; File C:\Program Files (x86)\Microsoft Visual Studio\2019\Professional\VC\Tools\MSVC\14.29.30133\include\xmemory
; File C:\Program Files (x86)\Microsoft Visual Studio\2019\Professional\VC\Tools\MSVC\14.29.30133\include\deque
;	COMDAT ?push_back@?$deque@PAVCArea@@V?$allocator@PAVCArea@@@std@@@std@@QAEXABQAVCArea@@@Z
_TEXT	SEGMENT
__Val$ = 8						; size = 4
?push_back@?$deque@PAVCArea@@V?$allocator@PAVCArea@@@std@@@std@@QAEXABQAVCArea@@@Z PROC ; std::deque<CArea *,std::allocator<CArea *> >::push_back, COMDAT
; _this$ = ecx

; 1130 :     void push_back(const _Ty& _Val) {

  00000	55		 push	 ebp
  00001	8b ec		 mov	 ebp, esp
  00003	53		 push	 ebx
  00004	56		 push	 esi
  00005	8b f1		 mov	 esi, ecx
  00007	57		 push	 edi

; 1113 :         if ((_Myoff() + _Mysize()) % _Block_size == 0 && _Mapsize() <= (_Mysize() + _Block_size) / _Block_size) {

  00008	8b 4e 10	 mov	 ecx, DWORD PTR [esi+16]
  0000b	8b f9		 mov	 edi, ecx
  0000d	8b 56 0c	 mov	 edx, DWORD PTR [esi+12]
  00010	8d 04 0a	 lea	 eax, DWORD PTR [edx+ecx]
  00013	a8 03		 test	 al, 3
  00015	75 1a		 jne	 SHORT $LN4@push_back
  00017	8d 41 04	 lea	 eax, DWORD PTR [ecx+4]
  0001a	c1 e8 02	 shr	 eax, 2
  0001d	39 46 08	 cmp	 DWORD PTR [esi+8], eax
  00020	77 0f		 ja	 SHORT $LN4@push_back

; 1114 :             _Growmap(1);

  00022	6a 01		 push	 1
  00024	8b ce		 mov	 ecx, esi
  00026	e8 00 00 00 00	 call	 ?_Growmap@?$deque@PAVCArea@@V?$allocator@PAVCArea@@@std@@@std@@AAEXI@Z ; std::deque<CArea *,std::allocator<CArea *> >::_Growmap
  0002b	8b 56 0c	 mov	 edx, DWORD PTR [esi+12]
  0002e	8b 7e 10	 mov	 edi, DWORD PTR [esi+16]
$LN4@push_back:

; 1115 :         }
; 1116 :         _Myoff() &= _Mapsize() * _Block_size - 1;

  00031	8b 4e 08	 mov	 ecx, DWORD PTR [esi+8]
  00034	8d 04 8d ff ff
	ff ff		 lea	 eax, DWORD PTR [ecx*4-1]

; 565  :         return (_Off / _Block_size) & (_Mapsize - 1);

  0003b	49		 dec	 ecx

; 1116 :         _Myoff() &= _Mapsize() * _Block_size - 1;

  0003c	23 c2		 and	 eax, edx
  0003e	89 46 0c	 mov	 DWORD PTR [esi+12], eax

; 1117 :         size_type _Newoff = _Myoff() + _Mysize();

  00041	03 f8		 add	 edi, eax

; 565  :         return (_Off / _Block_size) & (_Mapsize - 1);

  00043	8b c7		 mov	 eax, edi
  00045	c1 e8 02	 shr	 eax, 2
  00048	23 c8		 and	 ecx, eax

; 1119 :         if (_Map()[_Block] == nullptr) {

  0004a	8d 1c 8d 00 00
	00 00		 lea	 ebx, DWORD PTR [ecx*4]
  00051	8b 4e 04	 mov	 ecx, DWORD PTR [esi+4]
  00054	83 3c 19 00	 cmp	 DWORD PTR [ecx+ebx], 0
  00058	75 13		 jne	 SHORT $LN5@push_back
; File C:\Program Files (x86)\Microsoft Visual Studio\2019\Professional\VC\Tools\MSVC\14.29.30133\include\xmemory

; 85   :         return ::operator new(_Bytes);

  0005a	6a 10		 push	 16			; 00000010H
  0005c	e8 00 00 00 00	 call	 ??2@YAPAXI@Z		; operator new
; File C:\Program Files (x86)\Microsoft Visual Studio\2019\Professional\VC\Tools\MSVC\14.29.30133\include\deque

; 1120 :             _Map()[_Block] = _Getal().allocate(_Block_size);

  00061	8b 4e 04	 mov	 ecx, DWORD PTR [esi+4]
; File C:\Program Files (x86)\Microsoft Visual Studio\2019\Professional\VC\Tools\MSVC\14.29.30133\include\xmemory

; 85   :         return ::operator new(_Bytes);

  00064	83 c4 04	 add	 esp, 4
; File C:\Program Files (x86)\Microsoft Visual Studio\2019\Professional\VC\Tools\MSVC\14.29.30133\include\deque

; 1120 :             _Map()[_Block] = _Getal().allocate(_Block_size);

  00067	89 04 0b	 mov	 DWORD PTR [ebx+ecx], eax
  0006a	8b 4e 04	 mov	 ecx, DWORD PTR [esi+4]
$LN5@push_back:

; 1121 :         }
; 1122 : 
; 1123 :         _Alty_traits::construct(

  0006d	8b 0c 0b	 mov	 ecx, DWORD PTR [ebx+ecx]
  00070	83 e7 03	 and	 edi, 3
  00073	8b 45 08	 mov	 eax, DWORD PTR __Val$[ebp]
  00076	8b 00		 mov	 eax, DWORD PTR [eax]
  00078	89 04 b9	 mov	 DWORD PTR [ecx+edi*4], eax

; 1124 :             _Getal(), _Unfancy(_Map()[_Block] + _Newoff % _Block_size), _STD forward<_Tys>(_Vals)...);
; 1125 : 
; 1126 :         ++_Mysize();

  0007b	ff 46 10	 inc	 DWORD PTR [esi+16]
  0007e	5f		 pop	 edi
  0007f	5e		 pop	 esi
  00080	5b		 pop	 ebx

; 1131 :         _Orphan_all();
; 1132 :         _Emplace_back_internal(_Val);
; 1133 :     }

  00081	5d		 pop	 ebp
  00082	c2 04 00	 ret	 4
?push_back@?$deque@PAVCArea@@V?$allocator@PAVCArea@@@std@@@std@@QAEXABQAVCArea@@@Z ENDP ; std::deque<CArea *,std::allocator<CArea *> >::push_back
_TEXT	ENDS
; Function compile flags: /Ogtp
; File C:\Program Files (x86)\Microsoft Visual Studio\2019\Professional\VC\Tools\MSVC\14.29.30133\include\deque
; File C:\Program Files (x86)\Microsoft Visual Studio\2019\Professional\VC\Tools\MSVC\14.29.30133\include\xmemory
; File C:\Program Files (x86)\Microsoft Visual Studio\2019\Professional\VC\Tools\MSVC\14.29.30133\include\deque
; File C:\Program Files (x86)\Microsoft Visual Studio\2019\Professional\VC\Tools\MSVC\14.29.30133\include\xmemory
; File C:\Program Files (x86)\Microsoft Visual Studio\2019\Professional\VC\Tools\MSVC\14.29.30133\include\utility
; File C:\Program Files (x86)\Microsoft Visual Studio\2019\Professional\VC\Tools\MSVC\14.29.30133\include\xmemory
; File C:\Program Files (x86)\Microsoft Visual Studio\2019\Professional\VC\Tools\MSVC\14.29.30133\include\deque
; File C:\Program Files (x86)\Microsoft Visual Studio\2019\Professional\VC\Tools\MSVC\14.29.30133\include\utility
; File C:\Program Files (x86)\Microsoft Visual Studio\2019\Professional\VC\Tools\MSVC\14.29.30133\include\xmemory
; File C:\Program Files (x86)\Microsoft Visual Studio\2019\Professional\VC\Tools\MSVC\14.29.30133\include\deque
; File C:\Program Files (x86)\Microsoft Visual Studio\2019\Professional\VC\Tools\MSVC\14.29.30133\include\xmemory
; File C:\Program Files (x86)\Microsoft Visual Studio\2019\Professional\VC\Tools\MSVC\14.29.30133\include\deque
;	COMDAT ??1?$deque@PAVCArea@@V?$allocator@PAVCArea@@@std@@@std@@QAE@XZ
_TEXT	SEGMENT
??1?$deque@PAVCArea@@V?$allocator@PAVCArea@@@std@@@std@@QAE@XZ PROC ; std::deque<CArea *,std::allocator<CArea *> >::~deque<CArea *,std::allocator<CArea *> >, COMDAT
; _this$ = ecx

; 867  :     ~deque() noexcept {

  00000	56		 push	 esi
  00001	8b f1		 mov	 esi, ecx

; 1009 :         return _Mysize() == 0;

  00003	8b 4e 10	 mov	 ecx, DWORD PTR [esi+16]
  00006	85 c9		 test	 ecx, ecx

; 1482 :         while (!empty()) {

  00008	74 15		 je	 SHORT $LN88@deque
  0000a	66 0f 1f 44 00
	00		 npad	 6
$LL4@deque:

; 1153 :         if (--_Mysize() == 0) {

  00010	8d 41 ff	 lea	 eax, DWORD PTR [ecx-1]
  00013	89 46 10	 mov	 DWORD PTR [esi+16], eax
  00016	8b c8		 mov	 ecx, eax
  00018	85 c0		 test	 eax, eax
  0001a	75 f4		 jne	 SHORT $LL4@deque

; 1154 :             _Myoff() = 0;

  0001c	89 46 0c	 mov	 DWORD PTR [esi+12], eax
$LN88@deque:
  0001f	57		 push	 edi

; 1486 :         for (size_type _Block = _Mapsize(); 0 < _Block;) { // free storage for a block and destroy pointer

  00020	8b 7e 08	 mov	 edi, DWORD PTR [esi+8]
  00023	85 ff		 test	 edi, edi
  00025	74 1a		 je	 SHORT $LN7@deque
$LL6@deque:

; 1487 :             if (_Map()[--_Block]) { // free block and destroy its pointer

  00027	8b 46 04	 mov	 eax, DWORD PTR [esi+4]
  0002a	4f		 dec	 edi
  0002b	8b 04 b8	 mov	 eax, DWORD PTR [eax+edi*4]
  0002e	85 c0		 test	 eax, eax
  00030	74 0b		 je	 SHORT $LN25@deque
; File C:\Program Files (x86)\Microsoft Visual Studio\2019\Professional\VC\Tools\MSVC\14.29.30133\include\xmemory

; 264  :         ::operator delete(_Ptr, _Bytes);

  00032	6a 10		 push	 16			; 00000010H
  00034	50		 push	 eax
  00035	e8 00 00 00 00	 call	 ??3@YAXPAXI@Z		; operator delete
  0003a	83 c4 08	 add	 esp, 8
$LN25@deque:
; File C:\Program Files (x86)\Microsoft Visual Studio\2019\Professional\VC\Tools\MSVC\14.29.30133\include\deque

; 1486 :         for (size_type _Block = _Mapsize(); 0 < _Block;) { // free storage for a block and destroy pointer

  0003d	85 ff		 test	 edi, edi
  0003f	75 e6		 jne	 SHORT $LL6@deque
$LN7@deque:

; 1488 :                 _Getal().deallocate(_Map()[_Block], _Block_size);
; 1489 :                 _Destroy_in_place(_Map()[_Block]);
; 1490 :             }
; 1491 :         }
; 1492 : 
; 1493 :         if (_Map() != _Mapptr()) {

  00041	8b 46 04	 mov	 eax, DWORD PTR [esi+4]
  00044	5f		 pop	 edi
  00045	85 c0		 test	 eax, eax
  00047	74 2a		 je	 SHORT $LN43@deque
; File C:\Program Files (x86)\Microsoft Visual Studio\2019\Professional\VC\Tools\MSVC\14.29.30133\include\xmemory

; 835  :         _Deallocate<_New_alignof<_Ty>>(_Ptr, sizeof(_Ty) * _Count);

  00049	8b 4e 08	 mov	 ecx, DWORD PTR [esi+8]
  0004c	c1 e1 02	 shl	 ecx, 2

; 260  :         if (_Bytes >= _Big_allocation_threshold) { // boost the alignment of big allocations to help autovectorization

  0004f	81 f9 00 10 00
	00		 cmp	 ecx, 4096		; 00001000H
  00055	72 12		 jb	 SHORT $LN53@deque

; 158  :     const uintptr_t _Ptr_container   = _Ptr_user[-1];

  00057	8b 50 fc	 mov	 edx, DWORD PTR [eax-4]
  0005a	83 c1 23	 add	 ecx, 35			; 00000023H

; 159  : 
; 160  :     // If the following asserts, it likely means that we are performing
; 161  :     // an aligned delete on memory coming from an unaligned allocation.
; 162  :     _STL_ASSERT(_Ptr_user[-2] == _Big_allocation_sentinel, "invalid argument");
; 163  : 
; 164  :     // Extra paranoia on aligned allocation/deallocation; ensure _Ptr_container is
; 165  :     // in range [_Min_back_shift, _Non_user_size]
; 166  : #ifdef _DEBUG
; 167  :     constexpr uintptr_t _Min_back_shift = 2 * sizeof(void*);
; 168  : #else // ^^^ _DEBUG ^^^ // vvv !_DEBUG vvv
; 169  :     constexpr uintptr_t _Min_back_shift = sizeof(void*);
; 170  : #endif // _DEBUG
; 171  :     const uintptr_t _Back_shift = reinterpret_cast<uintptr_t>(_Ptr) - _Ptr_container;

  0005d	2b c2		 sub	 eax, edx

; 172  :     _STL_VERIFY(_Back_shift >= _Min_back_shift && _Back_shift <= _Non_user_size, "invalid argument");

  0005f	83 c0 fc	 add	 eax, -4			; fffffffcH
  00062	83 f8 1f	 cmp	 eax, 31			; 0000001fH
  00065	77 2f		 ja	 SHORT $LN50@deque

; 173  :     _Ptr = reinterpret_cast<void*>(_Ptr_container);

  00067	8b c2		 mov	 eax, edx
$LN53@deque:

; 264  :         ::operator delete(_Ptr, _Bytes);

  00069	51		 push	 ecx
  0006a	50		 push	 eax
  0006b	e8 00 00 00 00	 call	 ??3@YAXPAXI@Z		; operator delete
  00070	83 c4 08	 add	 esp, 8
$LN43@deque:
; File C:\Program Files (x86)\Microsoft Visual Studio\2019\Professional\VC\Tools\MSVC\14.29.30133\include\utility

; 616  :     _Ty _Old_val = static_cast<_Ty&&>(_Val);

  00073	8b 06		 mov	 eax, DWORD PTR [esi]
; File C:\Program Files (x86)\Microsoft Visual Studio\2019\Professional\VC\Tools\MSVC\14.29.30133\include\xmemory

; 264  :         ::operator delete(_Ptr, _Bytes);

  00075	6a 08		 push	 8
  00077	50		 push	 eax
; File C:\Program Files (x86)\Microsoft Visual Studio\2019\Professional\VC\Tools\MSVC\14.29.30133\include\deque

; 1497 :         _Mapsize() = 0;

  00078	c7 46 08 00 00
	00 00		 mov	 DWORD PTR [esi+8], 0

; 1498 :         _Map()     = _Mapptr();

  0007f	c7 46 04 00 00
	00 00		 mov	 DWORD PTR [esi+4], 0
; File C:\Program Files (x86)\Microsoft Visual Studio\2019\Professional\VC\Tools\MSVC\14.29.30133\include\utility

; 617  :     _Val         = static_cast<_Other&&>(_New_val);

  00086	c7 06 00 00 00
	00		 mov	 DWORD PTR [esi], 0
; File C:\Program Files (x86)\Microsoft Visual Studio\2019\Professional\VC\Tools\MSVC\14.29.30133\include\xmemory

; 264  :         ::operator delete(_Ptr, _Bytes);

  0008c	e8 00 00 00 00	 call	 ??3@YAXPAXI@Z		; operator delete
  00091	83 c4 08	 add	 esp, 8
  00094	5e		 pop	 esi
; File C:\Program Files (x86)\Microsoft Visual Studio\2019\Professional\VC\Tools\MSVC\14.29.30133\include\deque

; 871  :     }

  00095	c3		 ret	 0
$LN50@deque:
; File C:\Program Files (x86)\Microsoft Visual Studio\2019\Professional\VC\Tools\MSVC\14.29.30133\include\xmemory

; 172  :     _STL_VERIFY(_Back_shift >= _Min_back_shift && _Back_shift <= _Non_user_size, "invalid argument");

  00096	e8 00 00 00 00	 call	 __invalid_parameter_noinfo_noreturn
$LN90@deque:
  0009b	cc		 int	 3
??1?$deque@PAVCArea@@V?$allocator@PAVCArea@@@std@@@std@@QAE@XZ ENDP ; std::deque<CArea *,std::allocator<CArea *> >::~deque<CArea *,std::allocator<CArea *> >
_TEXT	ENDS
; Function compile flags: /Ogtp
; File C:\Program Files (x86)\Microsoft Visual Studio\2019\Professional\VC\Tools\MSVC\14.29.30133\include\deque
; File C:\Program Files (x86)\Microsoft Visual Studio\2019\Professional\VC\Tools\MSVC\14.29.30133\include\xmemory
; File C:\Program Files (x86)\Microsoft Visual Studio\2019\Professional\VC\Tools\MSVC\14.29.30133\include\deque
; File C:\Program Files (x86)\Microsoft Visual Studio\2019\Professional\VC\Tools\MSVC\14.29.30133\include\xmemory
; File C:\Program Files (x86)\Microsoft Visual Studio\2019\Professional\VC\Tools\MSVC\14.29.30133\include\deque
; File C:\Program Files (x86)\Microsoft Visual Studio\2019\Professional\VC\Tools\MSVC\14.29.30133\include\xmemory
; File C:\Program Files (x86)\Microsoft Visual Studio\2019\Professional\VC\Tools\MSVC\14.29.30133\include\deque
;	COMDAT ?_Growmap@?$deque@PAVCTerrain@@V?$allocator@PAVCTerrain@@@std@@@std@@AAEXI@Z
_TEXT	SEGMENT
tv483 = -4						; size = 4
$T1 = 8							; size = 4
__Count$ = 8						; size = 4
?_Growmap@?$deque@PAVCTerrain@@V?$allocator@PAVCTerrain@@@std@@@std@@AAEXI@Z PROC ; std::deque<CTerrain *,std::allocator<CTerrain *> >::_Growmap, COMDAT
; _this$ = ecx

; 1439 :     void _Growmap(size_type _Count) { // grow map by at least _Count pointers, _Mapsize() a power of 2

  00000	55		 push	 ebp
  00001	8b ec		 mov	 ebp, esp
  00003	51		 push	 ecx
  00004	53		 push	 ebx

; 1440 :         static_assert(1 < _Minimum_map_size, "The _Xlen() test should always be performed.");
; 1441 : 
; 1442 :         _Alpty _Almap(_Getal());
; 1443 :         size_type _Newsize = 0 < _Mapsize() ? _Mapsize() : 1;

  00005	8b 5d 08	 mov	 ebx, DWORD PTR __Count$[ebp]
  00008	b8 01 00 00 00	 mov	 eax, 1
  0000d	56		 push	 esi
  0000e	57		 push	 edi
  0000f	8b f9		 mov	 edi, ecx
  00011	8b 57 08	 mov	 edx, DWORD PTR [edi+8]
  00014	85 d2		 test	 edx, edx
  00016	0f 45 c2	 cmovne	 eax, edx
  00019	0f 1f 80 00 00
	00 00		 npad	 7
$LL2@Growmap:

; 1444 :         while (_Newsize - _Mapsize() < _Count || _Newsize < _Minimum_map_size) {

  00020	8b f0		 mov	 esi, eax
  00022	2b f2		 sub	 esi, edx
  00024	3b f3		 cmp	 esi, ebx
  00026	72 05		 jb	 SHORT $LN4@Growmap
  00028	83 f8 08	 cmp	 eax, 8
  0002b	73 13		 jae	 SHORT $LN3@Growmap
$LN4@Growmap:

; 1445 :             // scale _Newsize to 2^N >= _Mapsize() + _Count
; 1446 :             if (max_size() / _Block_size - _Newsize < _Newsize) {

  0002d	b9 ff ff ff 0f	 mov	 ecx, 268435455		; 0fffffffH
  00032	2b c8		 sub	 ecx, eax
  00034	3b c8		 cmp	 ecx, eax
  00036	0f 82 fe 00 00
	00		 jb	 $LN44@Growmap

; 1448 :             }
; 1449 : 
; 1450 :             _Newsize *= 2;

  0003c	03 c0		 add	 eax, eax

; 1451 :         }

  0003e	eb e0		 jmp	 SHORT $LL2@Growmap
$LN3@Growmap:

; 1452 :         _Count = _Newsize - _Mapsize();
; 1453 : 
; 1454 :         size_type _Myboff = _Myoff() / _Block_size;

  00040	8b 5f 0c	 mov	 ebx, DWORD PTR [edi+12]
  00043	c1 eb 02	 shr	 ebx, 2
  00046	89 5d 08	 mov	 DWORD PTR $T1[ebp], ebx
; File C:\Program Files (x86)\Microsoft Visual Studio\2019\Professional\VC\Tools\MSVC\14.29.30133\include\xmemory

; 64   :         if (_Count > _Max_possible) {

  00049	3d ff ff ff 3f	 cmp	 eax, 1073741823		; 3fffffffH
  0004e	0f 87 ed 00 00
	00		 ja	 $LN51@Growmap

; 66   :         }
; 67   :     }
; 68   : 
; 69   :     return _Count * _Ty_size;

  00054	c1 e0 02	 shl	 eax, 2

; 237  :         if (_Bytes >= _Big_allocation_threshold) { // boost the alignment of big allocations to help autovectorization

  00057	3d 00 10 00 00	 cmp	 eax, 4096		; 00001000H
  0005c	72 0d		 jb	 SHORT $LN19@Growmap

; 238  :             return _Allocate_manually_vector_aligned<_Traits>(_Bytes);

  0005e	50		 push	 eax
  0005f	e8 00 00 00 00	 call	 ??$_Allocate_manually_vector_aligned@U_Default_allocate_traits@std@@@std@@YAPAXI@Z ; std::_Allocate_manually_vector_aligned<std::_Default_allocate_traits>
  00064	83 c4 04	 add	 esp, 4
  00067	8b d8		 mov	 ebx, eax
  00069	eb 13		 jmp	 SHORT $LN18@Growmap
$LN19@Growmap:

; 239  :         }
; 240  :     }
; 241  : #endif // defined(_M_IX86) || defined(_M_X64)
; 242  : 
; 243  :     if (_Bytes != 0) {

  0006b	85 c0		 test	 eax, eax
  0006d	74 0d		 je	 SHORT $LN20@Growmap

; 85   :         return ::operator new(_Bytes);

  0006f	50		 push	 eax
  00070	e8 00 00 00 00	 call	 ??2@YAPAXI@Z		; operator new
  00075	83 c4 04	 add	 esp, 4

; 244  :         return _Traits::_Allocate(_Bytes);

  00078	8b d8		 mov	 ebx, eax
  0007a	eb 02		 jmp	 SHORT $LN18@Growmap
$LN20@Growmap:

; 245  :     }
; 246  : 
; 247  :     return nullptr;

  0007c	33 db		 xor	 ebx, ebx
$LN18@Growmap:
; File C:\Program Files (x86)\Microsoft Visual Studio\2019\Professional\VC\Tools\MSVC\14.29.30133\include\deque

; 1456 :         _Mapptr _Myptr    = _Newmap + _Myboff;

  0007e	8b 55 08	 mov	 edx, DWORD PTR $T1[ebp]

; 1457 : 
; 1458 :         _Myptr = _STD uninitialized_copy(_Map() + _Myboff, _Map() + _Mapsize(), _Myptr); // copy initial to end

  00081	8b 4f 04	 mov	 ecx, DWORD PTR [edi+4]
  00084	c1 e2 02	 shl	 edx, 2
  00087	89 55 fc	 mov	 DWORD PTR tv483[ebp], edx
  0008a	8d 04 1a	 lea	 eax, DWORD PTR [edx+ebx]
  0008d	50		 push	 eax
  0008e	8b 47 08	 mov	 eax, DWORD PTR [edi+8]
  00091	8d 04 81	 lea	 eax, DWORD PTR [ecx+eax*4]
  00094	50		 push	 eax
  00095	8d 04 11	 lea	 eax, DWORD PTR [ecx+edx]
  00098	50		 push	 eax
  00099	e8 00 00 00 00	 call	 ??$uninitialized_copy@PAPAPAVCTerrain@@PAPAPAV1@@std@@YAPAPAPAVCTerrain@@QAPAPAV1@0PAPAPAV1@@Z ; std::uninitialized_copy<CTerrain * * *,CTerrain * * *>
  0009e	8b 4f 04	 mov	 ecx, DWORD PTR [edi+4]
  000a1	83 c4 0c	 add	 esp, 12			; 0000000cH

; 1459 :         if (_Myboff <= _Count) { // increment greater than offset of initial block

  000a4	50		 push	 eax
  000a5	39 75 08	 cmp	 DWORD PTR $T1[ebp], esi
  000a8	77 22		 ja	 SHORT $LN6@Growmap

; 1460 :             _Myptr = _STD uninitialized_copy(_Map(), _Map() + _Myboff, _Myptr); // copy rest of old

  000aa	8b 45 fc	 mov	 eax, DWORD PTR tv483[ebp]
  000ad	03 c1		 add	 eax, ecx
  000af	50		 push	 eax
  000b0	51		 push	 ecx
  000b1	e8 00 00 00 00	 call	 ??$uninitialized_copy@PAPAPAVCTerrain@@PAPAPAV1@@std@@YAPAPAPAVCTerrain@@QAPAPAV1@0PAPAPAV1@@Z ; std::uninitialized_copy<CTerrain * * *,CTerrain * * *>

; 1461 :             _Uninitialized_value_construct_n_unchecked1(_Myptr, _Count - _Myboff); // clear suffix of new

  000b6	8b ce		 mov	 ecx, esi
  000b8	2b 4d 08	 sub	 ecx, DWORD PTR $T1[ebp]
  000bb	51		 push	 ecx
  000bc	50		 push	 eax
  000bd	e8 00 00 00 00	 call	 ??$_Uninitialized_value_construct_n_unchecked1@PAPAPAVCTerrain@@I@std@@YAPAPAPAVCTerrain@@PAPAPAV1@I@Z ; std::_Uninitialized_value_construct_n_unchecked1<CTerrain * * *,unsigned int>

; 1462 :             _Uninitialized_value_construct_n_unchecked1(_Newmap, _Myboff); // clear prefix of new
; 1463 :         } else { // increment not greater than offset of initial block

  000c2	8b 45 08	 mov	 eax, DWORD PTR $T1[ebp]
  000c5	83 c4 14	 add	 esp, 20			; 00000014H
  000c8	8b cb		 mov	 ecx, ebx
  000ca	eb 24		 jmp	 SHORT $LN7@Growmap
$LN6@Growmap:

; 1464 :             _STD uninitialized_copy(_Map(), _Map() + _Count, _Myptr); // copy more old

  000cc	8d 04 b1	 lea	 eax, DWORD PTR [ecx+esi*4]
  000cf	50		 push	 eax
  000d0	51		 push	 ecx
  000d1	e8 00 00 00 00	 call	 ??$uninitialized_copy@PAPAPAVCTerrain@@PAPAPAV1@@std@@YAPAPAPAVCTerrain@@QAPAPAV1@0PAPAPAV1@@Z ; std::uninitialized_copy<CTerrain * * *,CTerrain * * *>

; 1465 :             _Myptr = _STD uninitialized_copy(_Map() + _Count, _Map() + _Myboff, _Newmap); // copy rest of old

  000d6	8b 4f 04	 mov	 ecx, DWORD PTR [edi+4]
  000d9	8b 45 fc	 mov	 eax, DWORD PTR tv483[ebp]
  000dc	03 c1		 add	 eax, ecx
  000de	53		 push	 ebx
  000df	50		 push	 eax
  000e0	8d 04 b1	 lea	 eax, DWORD PTR [ecx+esi*4]
  000e3	50		 push	 eax
  000e4	e8 00 00 00 00	 call	 ??$uninitialized_copy@PAPAPAVCTerrain@@PAPAPAV1@@std@@YAPAPAPAVCTerrain@@QAPAPAV1@0PAPAPAV1@@Z ; std::uninitialized_copy<CTerrain * * *,CTerrain * * *>

; 1466 :             _Uninitialized_value_construct_n_unchecked1(_Myptr, _Count); // clear rest to initial block

  000e9	8b c8		 mov	 ecx, eax
  000eb	83 c4 18	 add	 esp, 24			; 00000018H
  000ee	8b c6		 mov	 eax, esi
$LN7@Growmap:

; 1467 :         }
; 1468 : 
; 1469 :         _Destroy_range(_Map() + _Myboff, _Map() + _Mapsize());
; 1470 :         if (_Map() != _Mapptr()) {

  000f0	50		 push	 eax
  000f1	51		 push	 ecx
  000f2	e8 00 00 00 00	 call	 ??$_Uninitialized_value_construct_n_unchecked1@PAPAPAVCTerrain@@I@std@@YAPAPAPAVCTerrain@@PAPAPAV1@I@Z ; std::_Uninitialized_value_construct_n_unchecked1<CTerrain * * *,unsigned int>
  000f7	8b 47 04	 mov	 eax, DWORD PTR [edi+4]
  000fa	83 c4 08	 add	 esp, 8
  000fd	85 c0		 test	 eax, eax
  000ff	74 2a		 je	 SHORT $LN29@Growmap
; File C:\Program Files (x86)\Microsoft Visual Studio\2019\Professional\VC\Tools\MSVC\14.29.30133\include\xmemory

; 835  :         _Deallocate<_New_alignof<_Ty>>(_Ptr, sizeof(_Ty) * _Count);

  00101	8b 4f 08	 mov	 ecx, DWORD PTR [edi+8]
  00104	c1 e1 02	 shl	 ecx, 2

; 260  :         if (_Bytes >= _Big_allocation_threshold) { // boost the alignment of big allocations to help autovectorization

  00107	81 f9 00 10 00
	00		 cmp	 ecx, 4096		; 00001000H
  0010d	72 12		 jb	 SHORT $LN39@Growmap

; 158  :     const uintptr_t _Ptr_container   = _Ptr_user[-1];

  0010f	8b 50 fc	 mov	 edx, DWORD PTR [eax-4]
  00112	83 c1 23	 add	 ecx, 35			; 00000023H

; 159  : 
; 160  :     // If the following asserts, it likely means that we are performing
; 161  :     // an aligned delete on memory coming from an unaligned allocation.
; 162  :     _STL_ASSERT(_Ptr_user[-2] == _Big_allocation_sentinel, "invalid argument");
; 163  : 
; 164  :     // Extra paranoia on aligned allocation/deallocation; ensure _Ptr_container is
; 165  :     // in range [_Min_back_shift, _Non_user_size]
; 166  : #ifdef _DEBUG
; 167  :     constexpr uintptr_t _Min_back_shift = 2 * sizeof(void*);
; 168  : #else // ^^^ _DEBUG ^^^ // vvv !_DEBUG vvv
; 169  :     constexpr uintptr_t _Min_back_shift = sizeof(void*);
; 170  : #endif // _DEBUG
; 171  :     const uintptr_t _Back_shift = reinterpret_cast<uintptr_t>(_Ptr) - _Ptr_container;

  00115	2b c2		 sub	 eax, edx

; 172  :     _STL_VERIFY(_Back_shift >= _Min_back_shift && _Back_shift <= _Non_user_size, "invalid argument");

  00117	83 c0 fc	 add	 eax, -4			; fffffffcH
  0011a	83 f8 1f	 cmp	 eax, 31			; 0000001fH
  0011d	77 27		 ja	 SHORT $LN36@Growmap

; 173  :     _Ptr = reinterpret_cast<void*>(_Ptr_container);

  0011f	8b c2		 mov	 eax, edx
$LN39@Growmap:

; 264  :         ::operator delete(_Ptr, _Bytes);

  00121	51		 push	 ecx
  00122	50		 push	 eax
  00123	e8 00 00 00 00	 call	 ??3@YAXPAXI@Z		; operator delete
  00128	83 c4 08	 add	 esp, 8
$LN29@Growmap:
; File C:\Program Files (x86)\Microsoft Visual Studio\2019\Professional\VC\Tools\MSVC\14.29.30133\include\deque

; 1475 :         _Mapsize() += _Count;

  0012b	01 77 08	 add	 DWORD PTR [edi+8], esi
  0012e	89 5f 04	 mov	 DWORD PTR [edi+4], ebx
  00131	5f		 pop	 edi
  00132	5e		 pop	 esi
  00133	5b		 pop	 ebx

; 1476 :     }

  00134	8b e5		 mov	 esp, ebp
  00136	5d		 pop	 ebp
  00137	c2 04 00	 ret	 4
$LN44@Growmap:

; 1447 :                 _Xlen(); // result too long

  0013a	8b cf		 mov	 ecx, edi
  0013c	e8 00 00 00 00	 call	 ?_Xlen@?$deque@PAVCTerrain@@V?$allocator@PAVCTerrain@@@std@@@std@@ABEXXZ ; std::deque<CTerrain *,std::allocator<CTerrain *> >::_Xlen
$LN51@Growmap:
; File C:\Program Files (x86)\Microsoft Visual Studio\2019\Professional\VC\Tools\MSVC\14.29.30133\include\xmemory

; 65   :             _Throw_bad_array_new_length(); // multiply overflow

  00141	e8 00 00 00 00	 call	 ?_Throw_bad_array_new_length@std@@YAXXZ ; std::_Throw_bad_array_new_length
$LN36@Growmap:

; 172  :     _STL_VERIFY(_Back_shift >= _Min_back_shift && _Back_shift <= _Non_user_size, "invalid argument");

  00146	e8 00 00 00 00	 call	 __invalid_parameter_noinfo_noreturn
$LN49@Growmap:
  0014b	cc		 int	 3
?_Growmap@?$deque@PAVCTerrain@@V?$allocator@PAVCTerrain@@@std@@@std@@AAEXI@Z ENDP ; std::deque<CTerrain *,std::allocator<CTerrain *> >::_Growmap
_TEXT	ENDS
; Function compile flags: /Ogtp
; File C:\Program Files (x86)\Microsoft Visual Studio\2019\Professional\VC\Tools\MSVC\14.29.30133\include\deque
;	COMDAT ?_Xlen@?$deque@PAVCTerrain@@V?$allocator@PAVCTerrain@@@std@@@std@@ABEXXZ
_TEXT	SEGMENT
?_Xlen@?$deque@PAVCTerrain@@V?$allocator@PAVCTerrain@@@std@@@std@@ABEXXZ PROC ; std::deque<CTerrain *,std::allocator<CTerrain *> >::_Xlen, COMDAT
; _this$ = ecx

; 1432 :         _Xlength_error("deque<T> too long");

  00000	68 00 00 00 00	 push	 OFFSET ??_C@_0BC@KBDMBKEH@deque?$DMT?$DO?5too?5long@
  00005	e8 00 00 00 00	 call	 ?_Xlength_error@std@@YAXPBD@Z ; std::_Xlength_error
$LN3@Xlen:
  0000a	cc		 int	 3
?_Xlen@?$deque@PAVCTerrain@@V?$allocator@PAVCTerrain@@@std@@@std@@ABEXXZ ENDP ; std::deque<CTerrain *,std::allocator<CTerrain *> >::_Xlen
_TEXT	ENDS
; Function compile flags: /Ogtp
; File C:\Program Files (x86)\Microsoft Visual Studio\2019\Professional\VC\Tools\MSVC\14.29.30133\include\deque
; File C:\Program Files (x86)\Microsoft Visual Studio\2019\Professional\VC\Tools\MSVC\14.29.30133\include\xmemory
; File C:\Program Files (x86)\Microsoft Visual Studio\2019\Professional\VC\Tools\MSVC\14.29.30133\include\deque
; File C:\Program Files (x86)\Microsoft Visual Studio\2019\Professional\VC\Tools\MSVC\14.29.30133\include\xmemory
; File C:\Program Files (x86)\Microsoft Visual Studio\2019\Professional\VC\Tools\MSVC\14.29.30133\include\deque
;	COMDAT ?push_back@?$deque@PAVCTerrain@@V?$allocator@PAVCTerrain@@@std@@@std@@QAEXABQAVCTerrain@@@Z
_TEXT	SEGMENT
__Val$ = 8						; size = 4
?push_back@?$deque@PAVCTerrain@@V?$allocator@PAVCTerrain@@@std@@@std@@QAEXABQAVCTerrain@@@Z PROC ; std::deque<CTerrain *,std::allocator<CTerrain *> >::push_back, COMDAT
; _this$ = ecx

; 1130 :     void push_back(const _Ty& _Val) {

  00000	55		 push	 ebp
  00001	8b ec		 mov	 ebp, esp
  00003	53		 push	 ebx
  00004	56		 push	 esi
  00005	8b f1		 mov	 esi, ecx
  00007	57		 push	 edi

; 1113 :         if ((_Myoff() + _Mysize()) % _Block_size == 0 && _Mapsize() <= (_Mysize() + _Block_size) / _Block_size) {

  00008	8b 4e 10	 mov	 ecx, DWORD PTR [esi+16]
  0000b	8b f9		 mov	 edi, ecx
  0000d	8b 56 0c	 mov	 edx, DWORD PTR [esi+12]
  00010	8d 04 0a	 lea	 eax, DWORD PTR [edx+ecx]
  00013	a8 03		 test	 al, 3
  00015	75 1a		 jne	 SHORT $LN4@push_back
  00017	8d 41 04	 lea	 eax, DWORD PTR [ecx+4]
  0001a	c1 e8 02	 shr	 eax, 2
  0001d	39 46 08	 cmp	 DWORD PTR [esi+8], eax
  00020	77 0f		 ja	 SHORT $LN4@push_back

; 1114 :             _Growmap(1);

  00022	6a 01		 push	 1
  00024	8b ce		 mov	 ecx, esi
  00026	e8 00 00 00 00	 call	 ?_Growmap@?$deque@PAVCTerrain@@V?$allocator@PAVCTerrain@@@std@@@std@@AAEXI@Z ; std::deque<CTerrain *,std::allocator<CTerrain *> >::_Growmap
  0002b	8b 56 0c	 mov	 edx, DWORD PTR [esi+12]
  0002e	8b 7e 10	 mov	 edi, DWORD PTR [esi+16]
$LN4@push_back:

; 1115 :         }
; 1116 :         _Myoff() &= _Mapsize() * _Block_size - 1;

  00031	8b 4e 08	 mov	 ecx, DWORD PTR [esi+8]
  00034	8d 04 8d ff ff
	ff ff		 lea	 eax, DWORD PTR [ecx*4-1]

; 565  :         return (_Off / _Block_size) & (_Mapsize - 1);

  0003b	49		 dec	 ecx

; 1116 :         _Myoff() &= _Mapsize() * _Block_size - 1;

  0003c	23 c2		 and	 eax, edx
  0003e	89 46 0c	 mov	 DWORD PTR [esi+12], eax

; 1117 :         size_type _Newoff = _Myoff() + _Mysize();

  00041	03 f8		 add	 edi, eax

; 565  :         return (_Off / _Block_size) & (_Mapsize - 1);

  00043	8b c7		 mov	 eax, edi
  00045	c1 e8 02	 shr	 eax, 2
  00048	23 c8		 and	 ecx, eax

; 1119 :         if (_Map()[_Block] == nullptr) {

  0004a	8d 1c 8d 00 00
	00 00		 lea	 ebx, DWORD PTR [ecx*4]
  00051	8b 4e 04	 mov	 ecx, DWORD PTR [esi+4]
  00054	83 3c 19 00	 cmp	 DWORD PTR [ecx+ebx], 0
  00058	75 13		 jne	 SHORT $LN5@push_back
; File C:\Program Files (x86)\Microsoft Visual Studio\2019\Professional\VC\Tools\MSVC\14.29.30133\include\xmemory

; 85   :         return ::operator new(_Bytes);

  0005a	6a 10		 push	 16			; 00000010H
  0005c	e8 00 00 00 00	 call	 ??2@YAPAXI@Z		; operator new
; File C:\Program Files (x86)\Microsoft Visual Studio\2019\Professional\VC\Tools\MSVC\14.29.30133\include\deque

; 1120 :             _Map()[_Block] = _Getal().allocate(_Block_size);

  00061	8b 4e 04	 mov	 ecx, DWORD PTR [esi+4]
; File C:\Program Files (x86)\Microsoft Visual Studio\2019\Professional\VC\Tools\MSVC\14.29.30133\include\xmemory

; 85   :         return ::operator new(_Bytes);

  00064	83 c4 04	 add	 esp, 4
; File C:\Program Files (x86)\Microsoft Visual Studio\2019\Professional\VC\Tools\MSVC\14.29.30133\include\deque

; 1120 :             _Map()[_Block] = _Getal().allocate(_Block_size);

  00067	89 04 0b	 mov	 DWORD PTR [ebx+ecx], eax
  0006a	8b 4e 04	 mov	 ecx, DWORD PTR [esi+4]
$LN5@push_back:

; 1121 :         }
; 1122 : 
; 1123 :         _Alty_traits::construct(

  0006d	8b 0c 0b	 mov	 ecx, DWORD PTR [ebx+ecx]
  00070	83 e7 03	 and	 edi, 3
  00073	8b 45 08	 mov	 eax, DWORD PTR __Val$[ebp]
  00076	8b 00		 mov	 eax, DWORD PTR [eax]
  00078	89 04 b9	 mov	 DWORD PTR [ecx+edi*4], eax

; 1124 :             _Getal(), _Unfancy(_Map()[_Block] + _Newoff % _Block_size), _STD forward<_Tys>(_Vals)...);
; 1125 : 
; 1126 :         ++_Mysize();

  0007b	ff 46 10	 inc	 DWORD PTR [esi+16]
  0007e	5f		 pop	 edi
  0007f	5e		 pop	 esi
  00080	5b		 pop	 ebx

; 1131 :         _Orphan_all();
; 1132 :         _Emplace_back_internal(_Val);
; 1133 :     }

  00081	5d		 pop	 ebp
  00082	c2 04 00	 ret	 4
?push_back@?$deque@PAVCTerrain@@V?$allocator@PAVCTerrain@@@std@@@std@@QAEXABQAVCTerrain@@@Z ENDP ; std::deque<CTerrain *,std::allocator<CTerrain *> >::push_back
_TEXT	ENDS
; Function compile flags: /Ogtp
; File C:\Program Files (x86)\Microsoft Visual Studio\2019\Professional\VC\Tools\MSVC\14.29.30133\include\deque
; File C:\Program Files (x86)\Microsoft Visual Studio\2019\Professional\VC\Tools\MSVC\14.29.30133\include\xmemory
; File C:\Program Files (x86)\Microsoft Visual Studio\2019\Professional\VC\Tools\MSVC\14.29.30133\include\deque
; File C:\Program Files (x86)\Microsoft Visual Studio\2019\Professional\VC\Tools\MSVC\14.29.30133\include\xmemory
; File C:\Program Files (x86)\Microsoft Visual Studio\2019\Professional\VC\Tools\MSVC\14.29.30133\include\utility
; File C:\Program Files (x86)\Microsoft Visual Studio\2019\Professional\VC\Tools\MSVC\14.29.30133\include\xmemory
; File C:\Program Files (x86)\Microsoft Visual Studio\2019\Professional\VC\Tools\MSVC\14.29.30133\include\deque
; File C:\Program Files (x86)\Microsoft Visual Studio\2019\Professional\VC\Tools\MSVC\14.29.30133\include\utility
; File C:\Program Files (x86)\Microsoft Visual Studio\2019\Professional\VC\Tools\MSVC\14.29.30133\include\xmemory
; File C:\Program Files (x86)\Microsoft Visual Studio\2019\Professional\VC\Tools\MSVC\14.29.30133\include\deque
; File C:\Program Files (x86)\Microsoft Visual Studio\2019\Professional\VC\Tools\MSVC\14.29.30133\include\xmemory
; File C:\Program Files (x86)\Microsoft Visual Studio\2019\Professional\VC\Tools\MSVC\14.29.30133\include\deque
;	COMDAT ??1?$deque@PAVCTerrain@@V?$allocator@PAVCTerrain@@@std@@@std@@QAE@XZ
_TEXT	SEGMENT
??1?$deque@PAVCTerrain@@V?$allocator@PAVCTerrain@@@std@@@std@@QAE@XZ PROC ; std::deque<CTerrain *,std::allocator<CTerrain *> >::~deque<CTerrain *,std::allocator<CTerrain *> >, COMDAT
; _this$ = ecx

; 867  :     ~deque() noexcept {

  00000	56		 push	 esi
  00001	8b f1		 mov	 esi, ecx

; 1009 :         return _Mysize() == 0;

  00003	8b 4e 10	 mov	 ecx, DWORD PTR [esi+16]
  00006	85 c9		 test	 ecx, ecx

; 1482 :         while (!empty()) {

  00008	74 15		 je	 SHORT $LN88@deque
  0000a	66 0f 1f 44 00
	00		 npad	 6
$LL4@deque:

; 1153 :         if (--_Mysize() == 0) {

  00010	8d 41 ff	 lea	 eax, DWORD PTR [ecx-1]
  00013	89 46 10	 mov	 DWORD PTR [esi+16], eax
  00016	8b c8		 mov	 ecx, eax
  00018	85 c0		 test	 eax, eax
  0001a	75 f4		 jne	 SHORT $LL4@deque

; 1154 :             _Myoff() = 0;

  0001c	89 46 0c	 mov	 DWORD PTR [esi+12], eax
$LN88@deque:
  0001f	57		 push	 edi

; 1486 :         for (size_type _Block = _Mapsize(); 0 < _Block;) { // free storage for a block and destroy pointer

  00020	8b 7e 08	 mov	 edi, DWORD PTR [esi+8]
  00023	85 ff		 test	 edi, edi
  00025	74 1a		 je	 SHORT $LN7@deque
$LL6@deque:

; 1487 :             if (_Map()[--_Block]) { // free block and destroy its pointer

  00027	8b 46 04	 mov	 eax, DWORD PTR [esi+4]
  0002a	4f		 dec	 edi
  0002b	8b 04 b8	 mov	 eax, DWORD PTR [eax+edi*4]
  0002e	85 c0		 test	 eax, eax
  00030	74 0b		 je	 SHORT $LN25@deque
; File C:\Program Files (x86)\Microsoft Visual Studio\2019\Professional\VC\Tools\MSVC\14.29.30133\include\xmemory

; 264  :         ::operator delete(_Ptr, _Bytes);

  00032	6a 10		 push	 16			; 00000010H
  00034	50		 push	 eax
  00035	e8 00 00 00 00	 call	 ??3@YAXPAXI@Z		; operator delete
  0003a	83 c4 08	 add	 esp, 8
$LN25@deque:
; File C:\Program Files (x86)\Microsoft Visual Studio\2019\Professional\VC\Tools\MSVC\14.29.30133\include\deque

; 1486 :         for (size_type _Block = _Mapsize(); 0 < _Block;) { // free storage for a block and destroy pointer

  0003d	85 ff		 test	 edi, edi
  0003f	75 e6		 jne	 SHORT $LL6@deque
$LN7@deque:

; 1488 :                 _Getal().deallocate(_Map()[_Block], _Block_size);
; 1489 :                 _Destroy_in_place(_Map()[_Block]);
; 1490 :             }
; 1491 :         }
; 1492 : 
; 1493 :         if (_Map() != _Mapptr()) {

  00041	8b 46 04	 mov	 eax, DWORD PTR [esi+4]
  00044	5f		 pop	 edi
  00045	85 c0		 test	 eax, eax
  00047	74 2a		 je	 SHORT $LN43@deque
; File C:\Program Files (x86)\Microsoft Visual Studio\2019\Professional\VC\Tools\MSVC\14.29.30133\include\xmemory

; 835  :         _Deallocate<_New_alignof<_Ty>>(_Ptr, sizeof(_Ty) * _Count);

  00049	8b 4e 08	 mov	 ecx, DWORD PTR [esi+8]
  0004c	c1 e1 02	 shl	 ecx, 2

; 260  :         if (_Bytes >= _Big_allocation_threshold) { // boost the alignment of big allocations to help autovectorization

  0004f	81 f9 00 10 00
	00		 cmp	 ecx, 4096		; 00001000H
  00055	72 12		 jb	 SHORT $LN53@deque

; 158  :     const uintptr_t _Ptr_container   = _Ptr_user[-1];

  00057	8b 50 fc	 mov	 edx, DWORD PTR [eax-4]
  0005a	83 c1 23	 add	 ecx, 35			; 00000023H

; 159  : 
; 160  :     // If the following asserts, it likely means that we are performing
; 161  :     // an aligned delete on memory coming from an unaligned allocation.
; 162  :     _STL_ASSERT(_Ptr_user[-2] == _Big_allocation_sentinel, "invalid argument");
; 163  : 
; 164  :     // Extra paranoia on aligned allocation/deallocation; ensure _Ptr_container is
; 165  :     // in range [_Min_back_shift, _Non_user_size]
; 166  : #ifdef _DEBUG
; 167  :     constexpr uintptr_t _Min_back_shift = 2 * sizeof(void*);
; 168  : #else // ^^^ _DEBUG ^^^ // vvv !_DEBUG vvv
; 169  :     constexpr uintptr_t _Min_back_shift = sizeof(void*);
; 170  : #endif // _DEBUG
; 171  :     const uintptr_t _Back_shift = reinterpret_cast<uintptr_t>(_Ptr) - _Ptr_container;

  0005d	2b c2		 sub	 eax, edx

; 172  :     _STL_VERIFY(_Back_shift >= _Min_back_shift && _Back_shift <= _Non_user_size, "invalid argument");

  0005f	83 c0 fc	 add	 eax, -4			; fffffffcH
  00062	83 f8 1f	 cmp	 eax, 31			; 0000001fH
  00065	77 2f		 ja	 SHORT $LN50@deque

; 173  :     _Ptr = reinterpret_cast<void*>(_Ptr_container);

  00067	8b c2		 mov	 eax, edx
$LN53@deque:

; 264  :         ::operator delete(_Ptr, _Bytes);

  00069	51		 push	 ecx
  0006a	50		 push	 eax
  0006b	e8 00 00 00 00	 call	 ??3@YAXPAXI@Z		; operator delete
  00070	83 c4 08	 add	 esp, 8
$LN43@deque:
; File C:\Program Files (x86)\Microsoft Visual Studio\2019\Professional\VC\Tools\MSVC\14.29.30133\include\utility

; 616  :     _Ty _Old_val = static_cast<_Ty&&>(_Val);

  00073	8b 06		 mov	 eax, DWORD PTR [esi]
; File C:\Program Files (x86)\Microsoft Visual Studio\2019\Professional\VC\Tools\MSVC\14.29.30133\include\xmemory

; 264  :         ::operator delete(_Ptr, _Bytes);

  00075	6a 08		 push	 8
  00077	50		 push	 eax
; File C:\Program Files (x86)\Microsoft Visual Studio\2019\Professional\VC\Tools\MSVC\14.29.30133\include\deque

; 1497 :         _Mapsize() = 0;

  00078	c7 46 08 00 00
	00 00		 mov	 DWORD PTR [esi+8], 0

; 1498 :         _Map()     = _Mapptr();

  0007f	c7 46 04 00 00
	00 00		 mov	 DWORD PTR [esi+4], 0
; File C:\Program Files (x86)\Microsoft Visual Studio\2019\Professional\VC\Tools\MSVC\14.29.30133\include\utility

; 617  :     _Val         = static_cast<_Other&&>(_New_val);

  00086	c7 06 00 00 00
	00		 mov	 DWORD PTR [esi], 0
; File C:\Program Files (x86)\Microsoft Visual Studio\2019\Professional\VC\Tools\MSVC\14.29.30133\include\xmemory

; 264  :         ::operator delete(_Ptr, _Bytes);

  0008c	e8 00 00 00 00	 call	 ??3@YAXPAXI@Z		; operator delete
  00091	83 c4 08	 add	 esp, 8
  00094	5e		 pop	 esi
; File C:\Program Files (x86)\Microsoft Visual Studio\2019\Professional\VC\Tools\MSVC\14.29.30133\include\deque

; 871  :     }

  00095	c3		 ret	 0
$LN50@deque:
; File C:\Program Files (x86)\Microsoft Visual Studio\2019\Professional\VC\Tools\MSVC\14.29.30133\include\xmemory

; 172  :     _STL_VERIFY(_Back_shift >= _Min_back_shift && _Back_shift <= _Non_user_size, "invalid argument");

  00096	e8 00 00 00 00	 call	 __invalid_parameter_noinfo_noreturn
$LN90@deque:
  0009b	cc		 int	 3
??1?$deque@PAVCTerrain@@V?$allocator@PAVCTerrain@@@std@@@std@@QAE@XZ ENDP ; std::deque<CTerrain *,std::allocator<CTerrain *> >::~deque<CTerrain *,std::allocator<CTerrain *> >
_TEXT	ENDS
; Function compile flags: /Ogtp
; File C:\Users\murat\Desktop\Siveps2-1-99-Project\source\client\Client\GameLib\AreaLoaderThread.cpp
; File C:\Program Files (x86)\Microsoft Visual Studio\2019\Professional\VC\Tools\MSVC\14.29.30133\include\deque
; File C:\Users\murat\Desktop\Siveps2-1-99-Project\source\client\Client\GameLib\AreaLoaderThread.cpp
; File C:\Program Files (x86)\Microsoft Visual Studio\2019\Professional\VC\Tools\MSVC\14.29.30133\include\deque
; File C:\Users\murat\Desktop\Siveps2-1-99-Project\source\client\Client\GameLib\AreaLoaderThread.cpp
; File C:\Program Files (x86)\Microsoft Visual Studio\2019\Professional\VC\Tools\MSVC\14.29.30133\include\deque
; File C:\Users\murat\Desktop\Siveps2-1-99-Project\source\client\Client\GameLib\AreaLoaderThread.cpp
; File C:\Program Files (x86)\Microsoft Visual Studio\2019\Professional\VC\Tools\MSVC\14.29.30133\include\deque
; File C:\Users\murat\Desktop\Siveps2-1-99-Project\source\client\Client\GameLib\AreaLoaderThread.cpp
; File C:\Program Files (x86)\Microsoft Visual Studio\2019\Professional\VC\Tools\MSVC\14.29.30133\include\xstring
; File C:\Users\murat\Desktop\Siveps2-1-99-Project\source\client\Client\GameLib\AreaLoaderThread.cpp
;	COMDAT ?ProcessArea@TEMP_CAreaLoaderThread@@IAEXXZ
_TEXT	SEGMENT
_pArea$ = -88						; size = 4
_pArea$1$ = -84						; size = 4
_wAreaCoordY$ = -80					; size = 2
_wAreaCoordX$ = -76					; size = 2
_szAreaPathName$ = -72					; size = 65
__$ArrayPad$ = -4					; size = 4
?ProcessArea@TEMP_CAreaLoaderThread@@IAEXXZ PROC	; TEMP_CAreaLoaderThread::ProcessArea, COMDAT
; _this$ = ecx

; 210  : {

  00000	55		 push	 ebp
  00001	8b ec		 mov	 ebp, esp
  00003	83 ec 58	 sub	 esp, 88			; 00000058H
  00006	a1 00 00 00 00	 mov	 eax, DWORD PTR ___security_cookie
  0000b	33 c5		 xor	 eax, ebp
  0000d	89 45 fc	 mov	 DWORD PTR __$ArrayPad$[ebp], eax
  00010	53		 push	 ebx
  00011	56		 push	 esi
  00012	57		 push	 edi
  00013	8b f9		 mov	 edi, ecx

; 211  : 	m_AreaRequestMutex.Lock();

  00015	8d 4f 7c	 lea	 ecx, DWORD PTR [edi+124]
  00018	e8 00 00 00 00	 call	 ?Lock@Mutex@@QAEXXZ	; Mutex::Lock
; File C:\Program Files (x86)\Microsoft Visual Studio\2019\Professional\VC\Tools\MSVC\14.29.30133\include\deque

; 1009 :         return _Mysize() == 0;

  0001d	8b 5f 78	 mov	 ebx, DWORD PTR [edi+120]
  00020	85 db		 test	 ebx, ebx
; File C:\Users\murat\Desktop\Siveps2-1-99-Project\source\client\Client\GameLib\AreaLoaderThread.cpp

; 213  : 	if (m_pAreaRequestDeque.empty())

  00022	75 19		 jne	 SHORT $LN2@ProcessAre

; 214  : 	{
; 215  : 		m_AreaRequestMutex.Unlock();

  00024	8d 4f 7c	 lea	 ecx, DWORD PTR [edi+124]
  00027	e8 00 00 00 00	 call	 ?Unlock@Mutex@@QAEXXZ	; Mutex::Unlock
  0002c	5f		 pop	 edi

; 246  : }

  0002d	5e		 pop	 esi
  0002e	5b		 pop	 ebx
  0002f	8b 4d fc	 mov	 ecx, DWORD PTR __$ArrayPad$[ebp]
  00032	33 cd		 xor	 ecx, ebp
  00034	e8 00 00 00 00	 call	 @__security_check_cookie@4
  00039	8b e5		 mov	 esp, ebp
  0003b	5d		 pop	 ebp
  0003c	c3		 ret	 0
$LN2@ProcessAre:
; File C:\Program Files (x86)\Microsoft Visual Studio\2019\Professional\VC\Tools\MSVC\14.29.30133\include\deque

; 44   :         : _Mycont(static_cast<const _Mydeque*>(_Pdeque)), _Myoff(_Off) {}

  0003d	8b 57 74	 mov	 edx, DWORD PTR [edi+116]

; 565  :         return (_Off / _Block_size) & (_Mapsize - 1);

  00040	8b c2		 mov	 eax, edx
  00042	8b 4f 70	 mov	 ecx, DWORD PTR [edi+112]

; 48   :         _Size_type _Off   = _Myoff % _Block_size;

  00045	83 e2 03	 and	 edx, 3

; 565  :         return (_Off / _Block_size) & (_Mapsize - 1);

  00048	c1 e8 02	 shr	 eax, 2
  0004b	49		 dec	 ecx
  0004c	23 c8		 and	 ecx, eax
; File C:\Users\murat\Desktop\Siveps2-1-99-Project\source\client\Client\GameLib\AreaLoaderThread.cpp

; 219  : 	CArea * pArea = m_pAreaRequestDeque.front();

  0004e	8b 47 6c	 mov	 eax, DWORD PTR [edi+108]
; File C:\Program Files (x86)\Microsoft Visual Studio\2019\Professional\VC\Tools\MSVC\14.29.30133\include\deque

; 1102 :         if (--_Mysize() == 0) {

  00051	83 c3 ff	 add	 ebx, -1
; File C:\Users\murat\Desktop\Siveps2-1-99-Project\source\client\Client\GameLib\AreaLoaderThread.cpp

; 219  : 	CArea * pArea = m_pAreaRequestDeque.front();

  00054	8b 04 88	 mov	 eax, DWORD PTR [eax+ecx*4]
  00057	8b 04 90	 mov	 eax, DWORD PTR [eax+edx*4]
  0005a	89 45 ac	 mov	 DWORD PTR _pArea$1$[ebp], eax
  0005d	89 45 a8	 mov	 DWORD PTR _pArea$[ebp], eax
; File C:\Program Files (x86)\Microsoft Visual Studio\2019\Professional\VC\Tools\MSVC\14.29.30133\include\deque

; 1102 :         if (--_Mysize() == 0) {

  00060	89 5f 78	 mov	 DWORD PTR [edi+120], ebx
  00063	75 09		 jne	 SHORT $LN21@ProcessAre

; 1103 :             _Myoff() = 0;

  00065	c7 47 74 00 00
	00 00		 mov	 DWORD PTR [edi+116], 0

; 1104 :         } else {

  0006c	eb 03		 jmp	 SHORT $LN22@ProcessAre
$LN21@ProcessAre:

; 1105 :             ++_Myoff();

  0006e	ff 47 74	 inc	 DWORD PTR [edi+116]
$LN22@ProcessAre:
; File C:\Users\murat\Desktop\Siveps2-1-99-Project\source\client\Client\GameLib\AreaLoaderThread.cpp

; 222  : 	Tracef("TEMP_CAreaLoaderThread::ProcessArea() RequestDeque Size : %d\n", m_pAreaRequestDeque.size());

  00071	53		 push	 ebx
  00072	68 00 00 00 00	 push	 OFFSET ??_C@_0DO@MFBBOCDC@TEMP_CAreaLoaderThread?3?3Process@
  00077	e8 00 00 00 00	 call	 ?Tracef@@YAXPBDZZ	; Tracef
  0007c	83 c4 08	 add	 esp, 8

; 223  : 	m_AreaRequestMutex.Unlock();

  0007f	8d 4f 7c	 lea	 ecx, DWORD PTR [edi+124]
  00082	e8 00 00 00 00	 call	 ?Unlock@Mutex@@QAEXXZ	; Mutex::Unlock

; 224  : 
; 225  : 	DWORD dwStartTime = ELTimer_GetMSec();

  00087	e8 00 00 00 00	 call	 ?ELTimer_GetMSec@@YAKXZ	; ELTimer_GetMSec

; 226  : 
; 227  : 	// Area Load
; 228  : 	WORD wAreaCoordX, wAreaCoordY;
; 229  : 	pArea->GetCoordinate(&wAreaCoordX, &wAreaCoordY);

  0008c	8b 75 ac	 mov	 esi, DWORD PTR _pArea$1$[ebp]
  0008f	8b d8		 mov	 ebx, eax
  00091	8d 45 b0	 lea	 eax, DWORD PTR _wAreaCoordY$[ebp]
  00094	8b ce		 mov	 ecx, esi
  00096	50		 push	 eax
  00097	8d 45 b4	 lea	 eax, DWORD PTR _wAreaCoordX$[ebp]
  0009a	50		 push	 eax
  0009b	e8 00 00 00 00	 call	 ?GetCoordinate@CArea@@QAEXPAG0@Z ; CArea::GetCoordinate

; 230  : 	DWORD dwID = (DWORD) (wAreaCoordX) * 1000L + (DWORD) (wAreaCoordY);

  000a0	0f b7 4d b4	 movzx	 ecx, WORD PTR _wAreaCoordX$[ebp]

; 231  : 
; 232  : 	const std::string & c_rStrMapName = pArea->GetOwner()->GetName();

  000a4	8b 86 88 00 00
	00		 mov	 eax, DWORD PTR [esi+136]
  000aa	69 d1 e8 03 00
	00		 imul	 edx, ecx, 1000
  000b0	83 c0 08	 add	 eax, 8
  000b3	0f b7 4d b0	 movzx	 ecx, WORD PTR _wAreaCoordY$[ebp]
  000b7	03 d1		 add	 edx, ecx
; File C:\Program Files (x86)\Microsoft Visual Studio\2019\Professional\VC\Tools\MSVC\14.29.30133\include\xstring

; 2319 :         return _BUF_SIZE <= _Myres;

  000b9	83 78 14 10	 cmp	 DWORD PTR [eax+20], 16	; 00000010H

; 2306 :         if (_Large_string_engaged()) {

  000bd	72 02		 jb	 SHORT $LN31@ProcessAre

; 2307 :             _Result = _Unfancy(_Bx._Ptr);

  000bf	8b 00		 mov	 eax, DWORD PTR [eax]
$LN31@ProcessAre:
; File C:\Users\murat\Desktop\Siveps2-1-99-Project\source\client\Client\GameLib\AreaLoaderThread.cpp

; 235  : 	_snprintf(szAreaPathName, sizeof(szAreaPathName), "%s\\%06u\\", c_rStrMapName.c_str(), dwID);

  000c1	52		 push	 edx
  000c2	50		 push	 eax
  000c3	68 00 00 00 00	 push	 OFFSET ??_C@_08HAAOAKJA@?$CFs?2?$CF06u?2@
  000c8	8d 45 b8	 lea	 eax, DWORD PTR _szAreaPathName$[ebp]
  000cb	6a 41		 push	 65			; 00000041H
  000cd	50		 push	 eax
  000ce	e8 00 00 00 00	 call	 __snprintf
  000d3	83 c4 14	 add	 esp, 20			; 00000014H

; 236  : 
; 237  : 	pArea->Load(szAreaPathName);

  000d6	8d 45 b8	 lea	 eax, DWORD PTR _szAreaPathName$[ebp]
  000d9	8b ce		 mov	 ecx, esi
  000db	50		 push	 eax
  000dc	e8 00 00 00 00	 call	 ?Load@CArea@@QAE_NPBD@Z	; CArea::Load

; 238  : 
; 239  : 	Tracef("TEMP_CAreaLoaderThread::ProcessArea LoadArea : %d ms elapsed\n", ELTimer_GetMSec() - dwStartTime);

  000e1	e8 00 00 00 00	 call	 ?ELTimer_GetMSec@@YAKXZ	; ELTimer_GetMSec
  000e6	2b c3		 sub	 eax, ebx
  000e8	50		 push	 eax
  000e9	68 00 00 00 00	 push	 OFFSET ??_C@_0DO@IKNACHFC@TEMP_CAreaLoaderThread?3?3Process@
  000ee	e8 00 00 00 00	 call	 ?Tracef@@YAXPBDZZ	; Tracef
  000f3	83 c4 08	 add	 esp, 8

; 240  : 
; 241  : 	m_AreaCompleteMutex.Lock();

  000f6	8d 8f a8 00 00
	00		 lea	 ecx, DWORD PTR [edi+168]
  000fc	e8 00 00 00 00	 call	 ?Lock@Mutex@@QAEXXZ	; Mutex::Lock

; 242  : 	m_pAreaCompleteDeque.push_back(pArea);

  00101	8d 45 a8	 lea	 eax, DWORD PTR _pArea$[ebp]
  00104	50		 push	 eax
  00105	8d 8f 94 00 00
	00		 lea	 ecx, DWORD PTR [edi+148]
  0010b	e8 00 00 00 00	 call	 ?push_back@?$deque@PAVCArea@@V?$allocator@PAVCArea@@@std@@@std@@QAEXABQAVCArea@@@Z ; std::deque<CArea *,std::allocator<CArea *> >::push_back

; 243  : 	m_AreaCompleteMutex.Unlock();

  00110	8d 8f a8 00 00
	00		 lea	 ecx, DWORD PTR [edi+168]
  00116	e8 00 00 00 00	 call	 ?Unlock@Mutex@@QAEXXZ	; Mutex::Unlock

; 244  : 
; 245  : 	Sleep(g_iLoadingDelayTime);

  0011b	ff 35 00 00 00
	00		 push	 DWORD PTR ?g_iLoadingDelayTime@@3HA ; g_iLoadingDelayTime
  00121	ff 15 00 00 00
	00		 call	 DWORD PTR __imp__Sleep@4

; 246  : }

  00127	8b 4d fc	 mov	 ecx, DWORD PTR __$ArrayPad$[ebp]
  0012a	5f		 pop	 edi
  0012b	5e		 pop	 esi
  0012c	33 cd		 xor	 ecx, ebp
  0012e	5b		 pop	 ebx
  0012f	e8 00 00 00 00	 call	 @__security_check_cookie@4
  00134	8b e5		 mov	 esp, ebp
  00136	5d		 pop	 ebp
  00137	c3		 ret	 0
?ProcessArea@TEMP_CAreaLoaderThread@@IAEXXZ ENDP	; TEMP_CAreaLoaderThread::ProcessArea
_TEXT	ENDS
; Function compile flags: /Ogtp
; File C:\Users\murat\Desktop\Siveps2-1-99-Project\source\client\Client\GameLib\AreaLoaderThread.cpp
; File C:\Program Files (x86)\Microsoft Visual Studio\2019\Professional\VC\Tools\MSVC\14.29.30133\include\deque
; File C:\Users\murat\Desktop\Siveps2-1-99-Project\source\client\Client\GameLib\AreaLoaderThread.cpp
; File C:\Program Files (x86)\Microsoft Visual Studio\2019\Professional\VC\Tools\MSVC\14.29.30133\include\deque
; File C:\Users\murat\Desktop\Siveps2-1-99-Project\source\client\Client\GameLib\AreaLoaderThread.cpp
; File C:\Program Files (x86)\Microsoft Visual Studio\2019\Professional\VC\Tools\MSVC\14.29.30133\include\deque
; File C:\Users\murat\Desktop\Siveps2-1-99-Project\source\client\Client\GameLib\AreaLoaderThread.cpp
; File C:\Users\murat\Desktop\Siveps2-1-99-Project\source\client\Client\GameLib\AreaTerrain.h
; File C:\Users\murat\Desktop\Siveps2-1-99-Project\source\client\Client\GameLib\AreaLoaderThread.cpp
; File C:\Program Files (x86)\Microsoft Visual Studio\2019\Professional\VC\Tools\MSVC\14.29.30133\include\xstring
; File C:\Users\murat\Desktop\Siveps2-1-99-Project\source\client\Client\GameLib\AreaLoaderThread.cpp
; File C:\Program Files (x86)\Microsoft Visual Studio\2019\Professional\VC\Tools\MSVC\14.29.30133\include\xstring
; File C:\Users\murat\Desktop\Siveps2-1-99-Project\source\client\Client\GameLib\AreaLoaderThread.cpp
; File C:\Program Files (x86)\Microsoft Visual Studio\2019\Professional\VC\Tools\MSVC\14.29.30133\include\xmemory
; File C:\Program Files (x86)\Microsoft Visual Studio\2019\Professional\VC\Tools\MSVC\14.29.30133\include\xtree
; File C:\Program Files (x86)\Microsoft Visual Studio\2019\Professional\VC\Tools\MSVC\14.29.30133\include\xmemory
; File C:\Program Files (x86)\Microsoft Visual Studio\2019\Professional\VC\Tools\MSVC\14.29.30133\include\xtree
; File C:\Users\murat\Desktop\Siveps2-1-99-Project\source\client\Client\GameLib\AreaLoaderThread.cpp
; File C:\Program Files (x86)\Microsoft Visual Studio\2019\Professional\VC\Tools\MSVC\14.29.30133\include\xstring
; File C:\Program Files (x86)\Microsoft Visual Studio\2019\Professional\VC\Tools\MSVC\14.29.30133\include\xtree
; File C:\Program Files (x86)\Microsoft Visual Studio\2019\Professional\VC\Tools\MSVC\14.29.30133\include\xstring
; File C:\Program Files (x86)\Microsoft Visual Studio\2019\Professional\VC\Tools\MSVC\14.29.30133\include\xtree
; File C:\Program Files (x86)\Microsoft Visual Studio\2019\Professional\VC\Tools\MSVC\14.29.30133\include\xstring
; File C:\Program Files (x86)\Microsoft Visual Studio\2019\Professional\VC\Tools\MSVC\14.29.30133\include\xtree
; File C:\Program Files (x86)\Microsoft Visual Studio\2019\Professional\VC\Tools\MSVC\14.29.30133\include\xstring
; File C:\Program Files (x86)\Microsoft Visual Studio\2019\Professional\VC\Tools\MSVC\14.29.30133\include\xtree
; File C:\Program Files (x86)\Microsoft Visual Studio\2019\Professional\VC\Tools\MSVC\14.29.30133\include\xstddef
; File C:\Program Files (x86)\Microsoft Visual Studio\2019\Professional\VC\Tools\MSVC\14.29.30133\include\xtree
; File C:\Program Files (x86)\Microsoft Visual Studio\2019\Professional\VC\Tools\MSVC\14.29.30133\include\xstring
; File C:\Users\murat\Desktop\Siveps2-1-99-Project\source\client\Client\GameLib\AreaLoaderThread.cpp
; File C:\Program Files (x86)\Microsoft Visual Studio\2019\Professional\VC\Tools\MSVC\14.29.30133\include\xstring
; File C:\Program Files (x86)\Microsoft Visual Studio\2019\Professional\VC\Tools\MSVC\14.29.30133\include\xtree
; File C:\Users\murat\Desktop\Siveps2-1-99-Project\source\client\Client\GameLib\AreaLoaderThread.cpp
; File C:\Program Files (x86)\Microsoft Visual Studio\2019\Professional\VC\Tools\MSVC\14.29.30133\include\xstring
; File C:\Users\murat\Desktop\Siveps2-1-99-Project\source\client\Client\GameLib\AreaLoaderThread.cpp
; File C:\Program Files (x86)\Microsoft Visual Studio\2019\Professional\VC\Tools\MSVC\14.29.30133\include\xstring
; File C:\Users\murat\Desktop\Siveps2-1-99-Project\source\client\Client\GameLib\AreaLoaderThread.cpp
; File C:\Program Files (x86)\Microsoft Visual Studio\2019\Professional\VC\Tools\MSVC\14.29.30133\include\xstring
; File C:\Program Files (x86)\Microsoft Visual Studio\2019\Professional\VC\Tools\MSVC\14.29.30133\include\xtree
; File C:\Users\murat\Desktop\Siveps2-1-99-Project\source\client\Client\GameLib\AreaLoaderThread.cpp
; File C:\Program Files (x86)\Microsoft Visual Studio\2019\Professional\VC\Tools\MSVC\14.29.30133\include\xstring
; File C:\Users\murat\Desktop\Siveps2-1-99-Project\source\client\Client\GameLib\AreaLoaderThread.cpp
; File C:\Program Files (x86)\Microsoft Visual Studio\2019\Professional\VC\Tools\MSVC\14.29.30133\include\xstring
; File C:\Users\murat\Desktop\Siveps2-1-99-Project\source\client\Client\GameLib\AreaLoaderThread.cpp
; File C:\Program Files (x86)\Microsoft Visual Studio\2019\Professional\VC\Tools\MSVC\14.29.30133\include\vector
; File C:\Program Files (x86)\Microsoft Visual Studio\2019\Professional\VC\Tools\MSVC\14.29.30133\include\xstring
; File C:\Program Files (x86)\Microsoft Visual Studio\2019\Professional\VC\Tools\MSVC\14.29.30133\include\xmemory
; File C:\Program Files (x86)\Microsoft Visual Studio\2019\Professional\VC\Tools\MSVC\14.29.30133\include\xstring
; File C:\Program Files (x86)\Microsoft Visual Studio\2019\Professional\VC\Tools\MSVC\14.29.30133\include\xmemory
; File C:\Program Files (x86)\Microsoft Visual Studio\2019\Professional\VC\Tools\MSVC\14.29.30133\include\xstring
; File C:\Users\murat\Desktop\Siveps2-1-99-Project\source\client\Client\GameLib\AreaLoaderThread.cpp
; File C:\Program Files (x86)\Microsoft Visual Studio\2019\Professional\VC\Tools\MSVC\14.29.30133\include\xstring
; File C:\Users\murat\Desktop\Siveps2-1-99-Project\source\client\Client\GameLib\AreaLoaderThread.cpp
; File C:\Program Files (x86)\Microsoft Visual Studio\2019\Professional\VC\Tools\MSVC\14.29.30133\include\vector
; File C:\Program Files (x86)\Microsoft Visual Studio\2019\Professional\VC\Tools\MSVC\14.29.30133\include\xstring
; File C:\Program Files (x86)\Microsoft Visual Studio\2019\Professional\VC\Tools\MSVC\14.29.30133\include\xmemory
; File C:\Program Files (x86)\Microsoft Visual Studio\2019\Professional\VC\Tools\MSVC\14.29.30133\include\xstring
; File C:\Program Files (x86)\Microsoft Visual Studio\2019\Professional\VC\Tools\MSVC\14.29.30133\include\xmemory
; File C:\Users\murat\Desktop\Siveps2-1-99-Project\source\client\Client\GameLib\AreaLoaderThread.cpp
; File C:\Program Files (x86)\Microsoft Visual Studio\2019\Professional\VC\Tools\MSVC\14.29.30133\include\xstring
; File C:\Users\murat\Desktop\Siveps2-1-99-Project\source\client\Client\GameLib\AreaLoaderThread.cpp
; File C:\Program Files (x86)\Microsoft Visual Studio\2019\Professional\VC\Tools\MSVC\14.29.30133\include\xstring
; File C:\Users\murat\Desktop\Siveps2-1-99-Project\source\client\Client\GameLib\AreaLoaderThread.cpp
; File C:\Program Files (x86)\Microsoft Visual Studio\2019\Professional\VC\Tools\MSVC\14.29.30133\include\xstring
; File C:\Users\murat\Desktop\Siveps2-1-99-Project\source\client\Client\GameLib\AreaLoaderThread.cpp
; File C:\Program Files (x86)\Microsoft Visual Studio\2019\Professional\VC\Tools\MSVC\14.29.30133\include\xstring
; File C:\Users\murat\Desktop\Siveps2-1-99-Project\source\client\Client\GameLib\AreaLoaderThread.cpp
; File C:\Program Files (x86)\Microsoft Visual Studio\2019\Professional\VC\Tools\MSVC\14.29.30133\include\xstring
; File C:\Users\murat\Desktop\Siveps2-1-99-Project\source\client\Client\GameLib\AreaLoaderThread.cpp
; File C:\Program Files (x86)\Microsoft Visual Studio\2019\Professional\VC\Tools\MSVC\14.29.30133\include\xstring
; File C:\Users\murat\Desktop\Siveps2-1-99-Project\source\client\Client\GameLib\AreaLoaderThread.cpp
; File C:\Program Files (x86)\Microsoft Visual Studio\2019\Professional\VC\Tools\MSVC\14.29.30133\include\xstring
; File C:\Users\murat\Desktop\Siveps2-1-99-Project\source\client\Client\GameLib\AreaLoaderThread.cpp
; File C:\Program Files (x86)\Microsoft Visual Studio\2019\Professional\VC\Tools\MSVC\14.29.30133\include\xstring
; File C:\Users\murat\Desktop\Siveps2-1-99-Project\source\client\Client\GameLib\AreaLoaderThread.cpp
; File C:\Program Files (x86)\Microsoft Visual Studio\2019\Professional\VC\Tools\MSVC\14.29.30133\include\xstring
; File C:\Users\murat\Desktop\Siveps2-1-99-Project\source\client\Client\GameLib\AreaLoaderThread.cpp
; File C:\Users\murat\Desktop\Siveps2-1-99-Project\source\client\Client\GameLib\AreaTerrain.h
; File C:\Program Files (x86)\Microsoft Visual Studio\2019\Professional\VC\Tools\MSVC\14.29.30133\include\xstring
; File C:\Users\murat\Desktop\Siveps2-1-99-Project\source\client\Client\GameLib\AreaTerrain.h
; File C:\Program Files (x86)\Microsoft Visual Studio\2019\Professional\VC\Tools\MSVC\14.29.30133\include\xstring
; File C:\Program Files (x86)\Microsoft Visual Studio\2019\Professional\VC\Tools\MSVC\14.29.30133\include\xmemory
; File C:\Program Files (x86)\Microsoft Visual Studio\2019\Professional\VC\Tools\MSVC\14.29.30133\include\xstring
; File C:\Program Files (x86)\Microsoft Visual Studio\2019\Professional\VC\Tools\MSVC\14.29.30133\include\xmemory
; File C:\Users\murat\Desktop\Siveps2-1-99-Project\source\client\Client\GameLib\AreaLoaderThread.cpp
; File C:\Program Files (x86)\Microsoft Visual Studio\2019\Professional\VC\Tools\MSVC\14.29.30133\include\xtree
; File C:\Program Files (x86)\Microsoft Visual Studio\2019\Professional\VC\Tools\MSVC\14.29.30133\include\xmemory
; File C:\Users\murat\Desktop\Siveps2-1-99-Project\source\client\Client\GameLib\AreaLoaderThread.cpp
; File C:\Program Files (x86)\Microsoft Visual Studio\2019\Professional\VC\Tools\MSVC\14.29.30133\include\xmemory
; File C:\Users\murat\Desktop\Siveps2-1-99-Project\source\client\Client\GameLib\AreaLoaderThread.cpp
;	COMDAT ?ProcessTerrain@TEMP_CAreaLoaderThread@@IAEXXZ
_TEXT	SEGMENT
$T2 = -828						; size = 4
_pTerrain$ = -824					; size = 4
_dwStartTime$1$ = -820					; size = 4
_pTerrain$1$ = -816					; size = 4
tv3170 = -812						; size = 4
tv3164 = -812						; size = 4
_c_rstrType$1$ = -812					; size = 4
__Result$1$ = -808					; size = 4
tv3165 = -808						; size = 4
$T3 = -808						; size = 4
_stTokenVectorMap$ = -804				; size = 8
$T4 = -796						; size = 24
$T5 = -796						; size = 24
__Loc$6 = -784						; size = 12
$T7 = -772						; size = 24
$T8 = -772						; size = 24
$T9 = -772						; size = 24
_filename$ = -748					; size = 256
_szMiniMapTexName$ = -492				; size = 65
_szShadowMapName$ = -424				; size = 65
_szShadowTexName$ = -356				; size = 65
_szSplatName$ = -288					; size = 65
_szAttrMapName$ = -220					; size = 65
_szRawHeightFieldname$ = -152				; size = 65
_szWaterMapName$ = -84					; size = 65
__$ArrayPad$ = -16					; size = 4
__$EHRec$ = -12						; size = 12
?ProcessTerrain@TEMP_CAreaLoaderThread@@IAEXXZ PROC	; TEMP_CAreaLoaderThread::ProcessTerrain, COMDAT
; _this$ = ecx

; 249  : {

  00000	55		 push	 ebp
  00001	8b ec		 mov	 ebp, esp
  00003	6a ff		 push	 -1
  00005	68 00 00 00 00	 push	 __ehhandler$?ProcessTerrain@TEMP_CAreaLoaderThread@@IAEXXZ
  0000a	64 a1 00 00 00
	00		 mov	 eax, DWORD PTR fs:0
  00010	50		 push	 eax
  00011	81 ec 30 03 00
	00		 sub	 esp, 816		; 00000330H
  00017	a1 00 00 00 00	 mov	 eax, DWORD PTR ___security_cookie
  0001c	33 c5		 xor	 eax, ebp
  0001e	89 45 f0	 mov	 DWORD PTR __$ArrayPad$[ebp], eax
  00021	53		 push	 ebx
  00022	56		 push	 esi
  00023	57		 push	 edi
  00024	50		 push	 eax
  00025	8d 45 f4	 lea	 eax, DWORD PTR __$EHRec$[ebp]
  00028	64 a3 00 00 00
	00		 mov	 DWORD PTR fs:0, eax
  0002e	8b f9		 mov	 edi, ecx

; 250  : 	m_TerrainRequestMutex.Lock();

  00030	8d 4f 24	 lea	 ecx, DWORD PTR [edi+36]
  00033	e8 00 00 00 00	 call	 ?Lock@Mutex@@QAEXXZ	; Mutex::Lock

; 251  : 
; 252  : 	if (m_pTerrainRequestDeque.empty())

  00038	83 7f 20 00	 cmp	 DWORD PTR [edi+32], 0
  0003c	75 0d		 jne	 SHORT $LN2@ProcessTer

; 253  : 	{
; 254  : 		m_TerrainRequestMutex.Unlock();

  0003e	8d 4f 24	 lea	 ecx, DWORD PTR [edi+36]
  00041	e8 00 00 00 00	 call	 ?Unlock@Mutex@@QAEXXZ	; Mutex::Unlock

; 255  : 		return;

  00046	e9 12 06 00 00	 jmp	 $LN630@ProcessTer
$LN2@ProcessTer:
; File C:\Program Files (x86)\Microsoft Visual Studio\2019\Professional\VC\Tools\MSVC\14.29.30133\include\deque

; 912  :         return _Unchecked_iterator(_Myoff(), _STD addressof(_Get_data()));

  0004b	8b 57 1c	 mov	 edx, DWORD PTR [edi+28]

; 565  :         return (_Off / _Block_size) & (_Mapsize - 1);

  0004e	8b c2		 mov	 eax, edx
  00050	8b 4f 18	 mov	 ecx, DWORD PTR [edi+24]

; 48   :         _Size_type _Off   = _Myoff % _Block_size;

  00053	83 e2 03	 and	 edx, 3

; 565  :         return (_Off / _Block_size) & (_Mapsize - 1);

  00056	c1 e8 02	 shr	 eax, 2
  00059	49		 dec	 ecx
  0005a	23 c8		 and	 ecx, eax

; 49   :         return _Mycont->_Map[_Block][_Off];

  0005c	8b 47 14	 mov	 eax, DWORD PTR [edi+20]
  0005f	8b 04 88	 mov	 eax, DWORD PTR [eax+ecx*4]
; File C:\Users\murat\Desktop\Siveps2-1-99-Project\source\client\Client\GameLib\AreaLoaderThread.cpp

; 258  : 	CTerrain * pTerrain = m_pTerrainRequestDeque.front();

  00062	8b 34 90	 mov	 esi, DWORD PTR [eax+edx*4]
; File C:\Program Files (x86)\Microsoft Visual Studio\2019\Professional\VC\Tools\MSVC\14.29.30133\include\deque

; 1102 :         if (--_Mysize() == 0) {

  00065	8b 47 20	 mov	 eax, DWORD PTR [edi+32]
  00068	83 c0 ff	 add	 eax, -1
; File C:\Users\murat\Desktop\Siveps2-1-99-Project\source\client\Client\GameLib\AreaLoaderThread.cpp

; 258  : 	CTerrain * pTerrain = m_pTerrainRequestDeque.front();

  0006b	89 b5 d0 fc ff
	ff		 mov	 DWORD PTR _pTerrain$1$[ebp], esi
  00071	89 b5 c8 fc ff
	ff		 mov	 DWORD PTR _pTerrain$[ebp], esi
; File C:\Program Files (x86)\Microsoft Visual Studio\2019\Professional\VC\Tools\MSVC\14.29.30133\include\deque

; 1102 :         if (--_Mysize() == 0) {

  00077	89 47 20	 mov	 DWORD PTR [edi+32], eax
  0007a	75 09		 jne	 SHORT $LN35@ProcessTer

; 1103 :             _Myoff() = 0;

  0007c	c7 47 1c 00 00
	00 00		 mov	 DWORD PTR [edi+28], 0

; 1104 :         } else {

  00083	eb 03		 jmp	 SHORT $LN36@ProcessTer
$LN35@ProcessTer:

; 1105 :             ++_Myoff();

  00085	ff 47 1c	 inc	 DWORD PTR [edi+28]
$LN36@ProcessTer:
; File C:\Users\murat\Desktop\Siveps2-1-99-Project\source\client\Client\GameLib\AreaLoaderThread.cpp

; 261  : 	Tracef("TEMP_CAreaLoaderThread::ProcessTerrain() RequestDeque Size : %d\n", m_pTerrainRequestDeque.size());

  00088	50		 push	 eax
  00089	68 00 00 00 00	 push	 OFFSET ??_C@_0EB@FFIMHONH@TEMP_CAreaLoaderThread?3?3Process@
  0008e	e8 00 00 00 00	 call	 ?Tracef@@YAXPBDZZ	; Tracef
  00093	83 c4 08	 add	 esp, 8

; 262  : 	m_TerrainRequestMutex.Unlock();

  00096	8d 4f 24	 lea	 ecx, DWORD PTR [edi+36]
  00099	e8 00 00 00 00	 call	 ?Unlock@Mutex@@QAEXXZ	; Mutex::Unlock

; 263  : 
; 264  : 	DWORD dwStartTime = ELTimer_GetMSec();

  0009e	e8 00 00 00 00	 call	 ?ELTimer_GetMSec@@YAKXZ	; ELTimer_GetMSec
; File C:\Users\murat\Desktop\Siveps2-1-99-Project\source\client\Client\GameLib\AreaTerrain.h

; 92   : 			*usCoordX = m_wX;

  000a3	0f b7 8e 6c a5
	06 00		 movzx	 ecx, WORD PTR [esi+435564]

; 93   : 			*usCoordY = m_wY;

  000aa	0f b7 96 6e a5
	06 00		 movzx	 edx, WORD PTR [esi+435566]
; File C:\Users\murat\Desktop\Siveps2-1-99-Project\source\client\Client\GameLib\AreaLoaderThread.cpp

; 271  : 	const std::string & c_rStrMapName = pTerrain->GetOwner()->GetName();

  000b1	8b b6 b8 a5 06
	00		 mov	 esi, DWORD PTR [esi+435640]
  000b7	69 d9 e8 03 00
	00		 imul	 ebx, ecx, 1000
  000bd	83 c6 08	 add	 esi, 8
  000c0	89 85 cc fc ff
	ff		 mov	 DWORD PTR _dwStartTime$1$[ebp], eax
; File C:\Program Files (x86)\Microsoft Visual Studio\2019\Professional\VC\Tools\MSVC\14.29.30133\include\xstring

; 2305 :         const value_type* _Result = _Bx._Buf;

  000c6	8b c6		 mov	 eax, esi
; File C:\Users\murat\Desktop\Siveps2-1-99-Project\source\client\Client\GameLib\AreaLoaderThread.cpp

; 269  : 	DWORD dwID = (DWORD) (wCoordX) * 1000L + (DWORD) (wCoordY);

  000c8	03 da		 add	 ebx, edx
; File C:\Program Files (x86)\Microsoft Visual Studio\2019\Professional\VC\Tools\MSVC\14.29.30133\include\xstring

; 2306 :         if (_Large_string_engaged()) {

  000ca	83 7e 14 10	 cmp	 DWORD PTR [esi+20], 16	; 00000010H
  000ce	72 02		 jb	 SHORT $LN47@ProcessTer

; 2307 :             _Result = _Unfancy(_Bx._Ptr);

  000d0	8b 06		 mov	 eax, DWORD PTR [esi]
$LN47@ProcessTer:
; File C:\Users\murat\Desktop\Siveps2-1-99-Project\source\client\Client\GameLib\AreaLoaderThread.cpp

; 273  : 	sprintf(filename, "%s\\%06u\\AreaProperty.txt", c_rStrMapName.c_str(), dwID);

  000d2	53		 push	 ebx
  000d3	50		 push	 eax
  000d4	8d 85 14 fd ff
	ff		 lea	 eax, DWORD PTR _filename$[ebp]
  000da	68 00 00 00 00	 push	 OFFSET ??_C@_0BJ@PNPPDMHN@?$CFs?2?$CF06u?2AreaProperty?4txt@
  000df	50		 push	 eax
  000e0	e8 00 00 00 00	 call	 _sprintf
; File C:\Program Files (x86)\Microsoft Visual Studio\2019\Professional\VC\Tools\MSVC\14.29.30133\include\xmemory

; 85   :         return ::operator new(_Bytes);

  000e5	6a 34		 push	 52			; 00000034H
; File C:\Program Files (x86)\Microsoft Visual Studio\2019\Professional\VC\Tools\MSVC\14.29.30133\include\xtree

; 441  :     _Tree_val() noexcept : _Myhead(), _Mysize(0) {}

  000e7	c7 85 dc fc ff
	ff 00 00 00 00	 mov	 DWORD PTR _stTokenVectorMap$[ebp], 0
  000f1	c7 85 e0 fc ff
	ff 00 00 00 00	 mov	 DWORD PTR _stTokenVectorMap$[ebp+4], 0
; File C:\Program Files (x86)\Microsoft Visual Studio\2019\Professional\VC\Tools\MSVC\14.29.30133\include\xmemory

; 85   :         return ::operator new(_Bytes);

  000fb	e8 00 00 00 00	 call	 ??2@YAPAXI@Z		; operator new
; File C:\Program Files (x86)\Microsoft Visual Studio\2019\Professional\VC\Tools\MSVC\14.29.30133\include\xtree

; 350  :         _Construct_in_place(_Pnode->_Left, _Pnode);

  00100	89 00		 mov	 DWORD PTR [eax], eax

; 351  :         _Construct_in_place(_Pnode->_Parent, _Pnode);

  00102	89 40 04	 mov	 DWORD PTR [eax+4], eax

; 352  :         _Construct_in_place(_Pnode->_Right, _Pnode);

  00105	89 40 08	 mov	 DWORD PTR [eax+8], eax

; 353  :         _Pnode->_Color = _Black;

  00108	66 c7 40 0c 01
	01		 mov	 WORD PTR [eax+12], 257	; 00000101H

; 1925 :         _Scary->_Myhead = _Node::_Buyheadnode(_Getal());

  0010e	89 85 dc fc ff
	ff		 mov	 DWORD PTR _stTokenVectorMap$[ebp], eax
; File C:\Users\murat\Desktop\Siveps2-1-99-Project\source\client\Client\GameLib\AreaLoaderThread.cpp

; 277  : 	if (!LoadMultipleTextData(filename, stTokenVectorMap))

  00114	8d 85 dc fc ff
	ff		 lea	 eax, DWORD PTR _stTokenVectorMap$[ebp]
  0011a	c7 45 fc 00 00
	00 00		 mov	 DWORD PTR __$EHRec$[ebp+8], 0
  00121	50		 push	 eax
  00122	8d 85 14 fd ff
	ff		 lea	 eax, DWORD PTR _filename$[ebp]
  00128	50		 push	 eax
  00129	e8 00 00 00 00	 call	 ?LoadMultipleTextData@@YA_NPBDAAV?$map@V?$basic_string@DU?$char_traits@D@std@@V?$allocator@D@2@@std@@V?$vector@V?$basic_string@DU?$char_traits@D@std@@V?$allocator@D@2@@std@@V?$allocator@V?$basic_string@DU?$char_traits@D@std@@V?$allocator@D@2@@std@@@2@@2@U?$less@V?$basic_string@DU?$char_traits@D@std@@V?$allocator@D@2@@std@@@2@V?$allocator@U?$pair@$$CBV?$basic_string@DU?$char_traits@D@std@@V?$allocator@D@2@@std@@V?$vector@V?$basic_string@DU?$char_traits@D@std@@V?$allocator@D@2@@std@@V?$allocator@V?$basic_string@DU?$char_traits@D@std@@V?$allocator@D@2@@std@@@2@@2@@std@@@2@@std@@@Z ; LoadMultipleTextData
  0012e	83 c4 1c	 add	 esp, 28			; 0000001cH
  00131	84 c0		 test	 al, al
  00133	0f 84 fd 04 00
	00		 je	 $LN661@ProcessTer

; 278  : 		return;
; 279  : 
; 280  : 	Sleep(g_iLoadingDelayTime);

  00139	ff 35 00 00 00
	00		 push	 DWORD PTR ?g_iLoadingDelayTime@@3HA ; g_iLoadingDelayTime
  0013f	a1 00 00 00 00	 mov	 eax, DWORD PTR __imp__Sleep@4
  00144	ff d0		 call	 eax
; File C:\Program Files (x86)\Microsoft Visual Studio\2019\Professional\VC\Tools\MSVC\14.29.30133\include\xstring

; 122  :         _CSTD memmove(_First1, _First2, _Count * sizeof(_Elem));

  00146	66 a1 08 00 00
	00		 mov	 ax, WORD PTR ??_C@_0L@PCFMFEAG@scripttype@+8
; File C:\Program Files (x86)\Microsoft Visual Studio\2019\Professional\VC\Tools\MSVC\14.29.30133\include\xtree

; 1361 :         const _Tree_find_result<_Nodeptr> _Loc = _Find_lower_bound(_Keyval);

  0014c	8d 8d dc fc ff
	ff		 lea	 ecx, DWORD PTR _stTokenVectorMap$[ebp]
; File C:\Program Files (x86)\Microsoft Visual Studio\2019\Professional\VC\Tools\MSVC\14.29.30133\include\xstring

; 122  :         _CSTD memmove(_First1, _First2, _Count * sizeof(_Elem));

  00152	f3 0f 7e 05 00
	00 00 00	 movq	 xmm0, QWORD PTR ??_C@_0L@PCFMFEAG@scripttype@
  0015a	66 89 85 04 fd
	ff ff		 mov	 WORD PTR $T9[ebp+8], ax
; File C:\Program Files (x86)\Microsoft Visual Studio\2019\Professional\VC\Tools\MSVC\14.29.30133\include\xtree

; 1361 :         const _Tree_find_result<_Nodeptr> _Loc = _Find_lower_bound(_Keyval);

  00161	8d 85 fc fc ff
	ff		 lea	 eax, DWORD PTR $T9[ebp]
  00167	50		 push	 eax
  00168	8d 85 f0 fc ff
	ff		 lea	 eax, DWORD PTR __Loc$6[ebp]
; File C:\Program Files (x86)\Microsoft Visual Studio\2019\Professional\VC\Tools\MSVC\14.29.30133\include\xstring

; 4610 :             _My_data._Myres = _BUF_SIZE - 1;

  0016e	c7 85 10 fd ff
	ff 0f 00 00 00	 mov	 DWORD PTR $T9[ebp+20], 15 ; 0000000fH
; File C:\Program Files (x86)\Microsoft Visual Studio\2019\Professional\VC\Tools\MSVC\14.29.30133\include\xtree

; 1361 :         const _Tree_find_result<_Nodeptr> _Loc = _Find_lower_bound(_Keyval);

  00178	50		 push	 eax
; File C:\Program Files (x86)\Microsoft Visual Studio\2019\Professional\VC\Tools\MSVC\14.29.30133\include\xstring

; 3248 :             _Mypair._Myval2._Mysize = _Count;

  00179	c7 85 0c fd ff
	ff 0a 00 00 00	 mov	 DWORD PTR $T9[ebp+16], 10 ; 0000000aH

; 122  :         _CSTD memmove(_First1, _First2, _Count * sizeof(_Elem));

  00183	66 0f d6 85 fc
	fc ff ff	 movq	 QWORD PTR $T9[ebp], xmm0

; 3250 :             _Traits::assign(_Old_ptr[_Count], _Elem());

  0018b	c6 85 06 fd ff
	ff 00		 mov	 BYTE PTR $T9[ebp+10], 0
; File C:\Program Files (x86)\Microsoft Visual Studio\2019\Professional\VC\Tools\MSVC\14.29.30133\include\xtree

; 1361 :         const _Tree_find_result<_Nodeptr> _Loc = _Find_lower_bound(_Keyval);

  00192	e8 00 00 00 00	 call	 ??$_Find_lower_bound@V?$basic_string@DU?$char_traits@D@std@@V?$allocator@D@2@@std@@@?$_Tree@V?$_Tmap_traits@V?$basic_string@DU?$char_traits@D@std@@V?$allocator@D@2@@std@@V?$vector@V?$basic_string@DU?$char_traits@D@std@@V?$allocator@D@2@@std@@V?$allocator@V?$basic_string@DU?$char_traits@D@std@@V?$allocator@D@2@@std@@@2@@2@U?$less@V?$basic_string@DU?$char_traits@D@std@@V?$allocator@D@2@@std@@@2@V?$allocator@U?$pair@$$CBV?$basic_string@DU?$char_traits@D@std@@V?$allocator@D@2@@std@@V?$vector@V?$basic_string@DU?$char_traits@D@std@@V?$allocator@D@2@@std@@V?$allocator@V?$basic_string@DU?$char_traits@D@std@@V?$allocator@D@2@@std@@@2@@2@@std@@@2@$0A@@std@@@std@@IBE?AU?$_Tree_find_result@PAU?$_Tree_node@U?$pair@$$CBV?$basic_string@DU?$char_traits@D@std@@V?$allocator@D@2@@std@@V?$vector@V?$basic_string@DU?$char_traits@D@std@@V?$allocator@D@2@@std@@V?$allocator@V?$basic_string@DU?$char_traits@D@std@@V?$allocator@D@2@@std@@@2@@2@@std@@PAX@std@@@1@ABV?$basic_string@DU?$char_traits@D@std@@V?$allocator@D@2@@1@@Z ; std::_Tree<std::_Tmap_traits<std::basic_string<char,std::char_traits<char>,std::allocator<char> >,std::vector<std::basic_string<char,std::char_traits<char>,std::allocator<char> >,std::allocator<std::basic_string<char,std::char_traits<char>,std::allocator<char> > > >,std::less<std::basic_string<char,std::char_traits<char>,std::allocator<char> > >,std::allocator<std::pair<std::basic_string<char,std::char_traits<char>,std::allocator<char> > const ,std::vector<std::basic_string<char,std::char_traits<char>,std::allocator<char> >,std::allocator<std::basic_string<char,std::char_traits<char>,std::allocator<char> > > > > >,0> >::_Find_lower_bound<std::basic_string<char,std::char_traits<char>,std::allocator<char> > >

; 1599 :         return !_Bound->_Isnil && !_DEBUG_LT_PRED(_Getcomp(), _Keyval, _Traits::_Kfn(_Bound->_Myval));

  00197	8b 85 f8 fc ff
	ff		 mov	 eax, DWORD PTR __Loc$6[ebp+8]
  0019d	89 85 d8 fc ff
	ff		 mov	 DWORD PTR $T3[ebp], eax
  001a3	80 78 0d 00	 cmp	 BYTE PTR [eax+13], 0
  001a7	75 17		 jne	 SHORT $LN158@ProcessTer
  001a9	83 c0 10	 add	 eax, 16			; 00000010H
; File C:\Program Files (x86)\Microsoft Visual Studio\2019\Professional\VC\Tools\MSVC\14.29.30133\include\xstddef

; 127  :         return _Left < _Right;

  001ac	50		 push	 eax
  001ad	8d 85 fc fc ff
	ff		 lea	 eax, DWORD PTR $T9[ebp]
  001b3	50		 push	 eax
  001b4	e8 00 00 00 00	 call	 ??$?MDU?$char_traits@D@std@@V?$allocator@D@1@@std@@YA_NABV?$basic_string@DU?$char_traits@D@std@@V?$allocator@D@2@@0@0@Z ; std::operator<<char,std::char_traits<char>,std::allocator<char> >
  001b9	83 c4 08	 add	 esp, 8
; File C:\Program Files (x86)\Microsoft Visual Studio\2019\Professional\VC\Tools\MSVC\14.29.30133\include\xtree

; 1599 :         return !_Bound->_Isnil && !_DEBUG_LT_PRED(_Getcomp(), _Keyval, _Traits::_Kfn(_Bound->_Myval));

  001bc	84 c0		 test	 al, al
  001be	74 0c		 je	 SHORT $LN157@ProcessTer
$LN158@ProcessTer:

; 1366 :         return _Get_scary()->_Myhead;

  001c0	8b 85 dc fc ff
	ff		 mov	 eax, DWORD PTR _stTokenVectorMap$[ebp]
  001c6	89 85 d8 fc ff
	ff		 mov	 DWORD PTR $T3[ebp], eax
$LN157@ProcessTer:

; 39   :     _Tree_unchecked_const_iterator(_Nodeptr _Pnode, const _Mytree* _Plist) noexcept : _Ptr(_Pnode) {

  001cc	8b 85 dc fc ff
	ff		 mov	 eax, DWORD PTR _stTokenVectorMap$[ebp]
; File C:\Program Files (x86)\Microsoft Visual Studio\2019\Professional\VC\Tools\MSVC\14.29.30133\include\xstring

; 4618 :         if (_Mypair._Myval2._Large_string_engaged()) {

  001d2	ba 0f 00 00 00	 mov	 edx, 15			; 0000000fH
; File C:\Users\murat\Desktop\Siveps2-1-99-Project\source\client\Client\GameLib\AreaLoaderThread.cpp

; 282  : 	if (stTokenVectorMap.end() == stTokenVectorMap.find("scripttype"))

  001d7	3b 85 d8 fc ff
	ff		 cmp	 eax, DWORD PTR $T3[ebp]
  001dd	0f 84 53 04 00
	00		 je	 $LN661@ProcessTer
; File C:\Program Files (x86)\Microsoft Visual Studio\2019\Professional\VC\Tools\MSVC\14.29.30133\include\xstring

; 122  :         _CSTD memmove(_First1, _First2, _Count * sizeof(_Elem));

  001e3	a1 04 00 00 00	 mov	 eax, DWORD PTR ??_C@_08FLKAMJDN@areaname@+4
  001e8	8b 0d 00 00 00
	00		 mov	 ecx, DWORD PTR ??_C@_08FLKAMJDN@areaname@
  001ee	89 85 00 fd ff
	ff		 mov	 DWORD PTR $T8[ebp+4], eax
; File C:\Program Files (x86)\Microsoft Visual Studio\2019\Professional\VC\Tools\MSVC\14.29.30133\include\xtree

; 39   :     _Tree_unchecked_const_iterator(_Nodeptr _Pnode, const _Mytree* _Plist) noexcept : _Ptr(_Pnode) {

  001f4	8b 85 dc fc ff
	ff		 mov	 eax, DWORD PTR _stTokenVectorMap$[ebp]
  001fa	89 85 d8 fc ff
	ff		 mov	 DWORD PTR tv3165[ebp], eax
; File C:\Users\murat\Desktop\Siveps2-1-99-Project\source\client\Client\GameLib\AreaLoaderThread.cpp

; 285  : 	if (stTokenVectorMap.end() == stTokenVectorMap.find("areaname"))

  00200	8d 85 fc fc ff
	ff		 lea	 eax, DWORD PTR $T8[ebp]
  00206	50		 push	 eax
  00207	8d 85 c4 fc ff
	ff		 lea	 eax, DWORD PTR $T2[ebp]
; File C:\Program Files (x86)\Microsoft Visual Studio\2019\Professional\VC\Tools\MSVC\14.29.30133\include\xstring

; 122  :         _CSTD memmove(_First1, _First2, _Count * sizeof(_Elem));

  0020d	89 8d fc fc ff
	ff		 mov	 DWORD PTR $T8[ebp], ecx
; File C:\Users\murat\Desktop\Siveps2-1-99-Project\source\client\Client\GameLib\AreaLoaderThread.cpp

; 285  : 	if (stTokenVectorMap.end() == stTokenVectorMap.find("areaname"))

  00213	50		 push	 eax
  00214	8d 8d dc fc ff
	ff		 lea	 ecx, DWORD PTR _stTokenVectorMap$[ebp]
; File C:\Program Files (x86)\Microsoft Visual Studio\2019\Professional\VC\Tools\MSVC\14.29.30133\include\xstring

; 4610 :             _My_data._Myres = _BUF_SIZE - 1;

  0021a	89 95 10 fd ff
	ff		 mov	 DWORD PTR $T8[ebp+20], edx

; 3248 :             _Mypair._Myval2._Mysize = _Count;

  00220	c7 85 0c fd ff
	ff 08 00 00 00	 mov	 DWORD PTR $T8[ebp+16], 8

; 3249 :             _Traits::move(_Old_ptr, _Ptr, _Count);
; 3250 :             _Traits::assign(_Old_ptr[_Count], _Elem());

  0022a	c6 85 04 fd ff
	ff 00		 mov	 BYTE PTR $T8[ebp+8], 0
; File C:\Users\murat\Desktop\Siveps2-1-99-Project\source\client\Client\GameLib\AreaLoaderThread.cpp

; 285  : 	if (stTokenVectorMap.end() == stTokenVectorMap.find("areaname"))

  00231	e8 00 00 00 00	 call	 ?find@?$_Tree@V?$_Tmap_traits@V?$basic_string@DU?$char_traits@D@std@@V?$allocator@D@2@@std@@V?$vector@V?$basic_string@DU?$char_traits@D@std@@V?$allocator@D@2@@std@@V?$allocator@V?$basic_string@DU?$char_traits@D@std@@V?$allocator@D@2@@std@@@2@@2@U?$less@V?$basic_string@DU?$char_traits@D@std@@V?$allocator@D@2@@std@@@2@V?$allocator@U?$pair@$$CBV?$basic_string@DU?$char_traits@D@std@@V?$allocator@D@2@@std@@V?$vector@V?$basic_string@DU?$char_traits@D@std@@V?$allocator@D@2@@std@@V?$allocator@V?$basic_string@DU?$char_traits@D@std@@V?$allocator@D@2@@std@@@2@@2@@std@@@2@$0A@@std@@@std@@QAE?AV?$_Tree_iterator@V?$_Tree_val@U?$_Tree_simple_types@U?$pair@$$CBV?$basic_string@DU?$char_traits@D@std@@V?$allocator@D@2@@std@@V?$vector@V?$basic_string@DU?$char_traits@D@std@@V?$allocator@D@2@@std@@V?$allocator@V?$basic_string@DU?$char_traits@D@std@@V?$allocator@D@2@@std@@@2@@2@@std@@@std@@@std@@@2@ABV?$basic_string@DU?$char_traits@D@std@@V?$allocator@D@2@@2@@Z ; std::_Tree<std::_Tmap_traits<std::basic_string<char,std::char_traits<char>,std::allocator<char> >,std::vector<std::basic_string<char,std::char_traits<char>,std::allocator<char> >,std::allocator<std::basic_string<char,std::char_traits<char>,std::allocator<char> > > >,std::less<std::basic_string<char,std::char_traits<char>,std::allocator<char> > >,std::allocator<std::pair<std::basic_string<char,std::char_traits<char>,std::allocator<char> > const ,std::vector<std::basic_string<char,std::char_traits<char>,std::allocator<char> >,std::allocator<std::basic_string<char,std::char_traits<char>,std::allocator<char> > > > > >,0> >::find
; File C:\Program Files (x86)\Microsoft Visual Studio\2019\Professional\VC\Tools\MSVC\14.29.30133\include\xstring

; 4618 :         if (_Mypair._Myval2._Large_string_engaged()) {

  00236	ba 0f 00 00 00	 mov	 edx, 15			; 0000000fH
; File C:\Program Files (x86)\Microsoft Visual Studio\2019\Professional\VC\Tools\MSVC\14.29.30133\include\xtree

; 236  :         return this->_Ptr == _Right._Ptr;

  0023b	8b 00		 mov	 eax, DWORD PTR [eax]
; File C:\Users\murat\Desktop\Siveps2-1-99-Project\source\client\Client\GameLib\AreaLoaderThread.cpp

; 285  : 	if (stTokenVectorMap.end() == stTokenVectorMap.find("areaname"))

  0023d	39 85 d8 fc ff
	ff		 cmp	 DWORD PTR tv3165[ebp], eax
  00243	0f 84 ed 03 00
	00		 je	 $LN661@ProcessTer
; File C:\Program Files (x86)\Microsoft Visual Studio\2019\Professional\VC\Tools\MSVC\14.29.30133\include\xstring

; 122  :         _CSTD memmove(_First1, _First2, _Count * sizeof(_Elem));

  00249	f3 0f 7e 05 00
	00 00 00	 movq	 xmm0, QWORD PTR ??_C@_0L@PCFMFEAG@scripttype@
  00251	66 a1 08 00 00
	00		 mov	 ax, WORD PTR ??_C@_0L@PCFMFEAG@scripttype@+8

; 4610 :             _My_data._Myres = _BUF_SIZE - 1;

  00257	89 95 f8 fc ff
	ff		 mov	 DWORD PTR $T5[ebp+20], edx

; 3248 :             _Mypair._Myval2._Mysize = _Count;

  0025d	c7 85 f4 fc ff
	ff 0a 00 00 00	 mov	 DWORD PTR $T5[ebp+16], 10 ; 0000000aH

; 122  :         _CSTD memmove(_First1, _First2, _Count * sizeof(_Elem));

  00267	66 0f d6 85 e4
	fc ff ff	 movq	 QWORD PTR $T5[ebp], xmm0
  0026f	66 89 85 ec fc
	ff ff		 mov	 WORD PTR $T5[ebp+8], ax

; 3250 :             _Traits::assign(_Old_ptr[_Count], _Elem());

  00276	c6 85 ee fc ff
	ff 00		 mov	 BYTE PTR $T5[ebp+10], 0
; File C:\Users\murat\Desktop\Siveps2-1-99-Project\source\client\Client\GameLib\AreaLoaderThread.cpp

; 288  : 	const std::string & c_rstrType = stTokenVectorMap["scripttype"][0];

  0027d	8d 85 e4 fc ff
	ff		 lea	 eax, DWORD PTR $T5[ebp]
  00283	c6 45 fc 01	 mov	 BYTE PTR __$EHRec$[ebp+8], 1
  00287	50		 push	 eax
  00288	8d 8d dc fc ff
	ff		 lea	 ecx, DWORD PTR _stTokenVectorMap$[ebp]
  0028e	e8 00 00 00 00	 call	 ??A?$map@V?$basic_string@DU?$char_traits@D@std@@V?$allocator@D@2@@std@@V?$vector@V?$basic_string@DU?$char_traits@D@std@@V?$allocator@D@2@@std@@V?$allocator@V?$basic_string@DU?$char_traits@D@std@@V?$allocator@D@2@@std@@@2@@2@U?$less@V?$basic_string@DU?$char_traits@D@std@@V?$allocator@D@2@@std@@@2@V?$allocator@U?$pair@$$CBV?$basic_string@DU?$char_traits@D@std@@V?$allocator@D@2@@std@@V?$vector@V?$basic_string@DU?$char_traits@D@std@@V?$allocator@D@2@@std@@V?$allocator@V?$basic_string@DU?$char_traits@D@std@@V?$allocator@D@2@@std@@@2@@2@@std@@@2@@std@@QAEAAV?$vector@V?$basic_string@DU?$char_traits@D@std@@V?$allocator@D@2@@std@@V?$allocator@V?$basic_string@DU?$char_traits@D@std@@V?$allocator@D@2@@std@@@2@@1@$$QAV?$basic_string@DU?$char_traits@D@std@@V?$allocator@D@2@@1@@Z ; std::map<std::basic_string<char,std::char_traits<char>,std::allocator<char> >,std::vector<std::basic_string<char,std::char_traits<char>,std::allocator<char> >,std::allocator<std::basic_string<char,std::char_traits<char>,std::allocator<char> > > >,std::less<std::basic_string<char,std::char_traits<char>,std::allocator<char> > >,std::allocator<std::pair<std::basic_string<char,std::char_traits<char>,std::allocator<char> > const ,std::vector<std::basic_string<char,std::char_traits<char>,std::allocator<char> >,std::allocator<std::basic_string<char,std::char_traits<char>,std::allocator<char> > > > > > >::operator[]
; File C:\Program Files (x86)\Microsoft Visual Studio\2019\Professional\VC\Tools\MSVC\14.29.30133\include\xstring

; 4618 :         if (_Mypair._Myval2._Large_string_engaged()) {

  00293	8b 95 f8 fc ff
	ff		 mov	 edx, DWORD PTR $T5[ebp+20]
; File C:\Users\murat\Desktop\Siveps2-1-99-Project\source\client\Client\GameLib\AreaLoaderThread.cpp

; 288  : 	const std::string & c_rstrType = stTokenVectorMap["scripttype"][0];

  00299	c6 45 fc 00	 mov	 BYTE PTR __$EHRec$[ebp+8], 0
; File C:\Program Files (x86)\Microsoft Visual Studio\2019\Professional\VC\Tools\MSVC\14.29.30133\include\vector

; 1569 :         return _My_data._Myfirst[_Pos];

  0029d	8b 00		 mov	 eax, DWORD PTR [eax]
  0029f	89 85 d4 fc ff
	ff		 mov	 DWORD PTR _c_rstrType$1$[ebp], eax
; File C:\Program Files (x86)\Microsoft Visual Studio\2019\Professional\VC\Tools\MSVC\14.29.30133\include\xstring

; 4618 :         if (_Mypair._Myval2._Large_string_engaged()) {

  002a5	83 fa 10	 cmp	 edx, 16			; 00000010H
  002a8	72 2f		 jb	 SHORT $LN404@ProcessTer
; File C:\Program Files (x86)\Microsoft Visual Studio\2019\Professional\VC\Tools\MSVC\14.29.30133\include\xmemory

; 835  :         _Deallocate<_New_alignof<_Ty>>(_Ptr, sizeof(_Ty) * _Count);

  002aa	8b 8d e4 fc ff
	ff		 mov	 ecx, DWORD PTR $T5[ebp]
; File C:\Program Files (x86)\Microsoft Visual Studio\2019\Professional\VC\Tools\MSVC\14.29.30133\include\xstring

; 4622 :             _Al.deallocate(_Ptr, _Mypair._Myval2._Myres + 1);

  002b0	42		 inc	 edx
; File C:\Program Files (x86)\Microsoft Visual Studio\2019\Professional\VC\Tools\MSVC\14.29.30133\include\xmemory

; 835  :         _Deallocate<_New_alignof<_Ty>>(_Ptr, sizeof(_Ty) * _Count);

  002b1	8b c1		 mov	 eax, ecx

; 260  :         if (_Bytes >= _Big_allocation_threshold) { // boost the alignment of big allocations to help autovectorization

  002b3	81 fa 00 10 00
	00		 cmp	 edx, 4096		; 00001000H
  002b9	72 14		 jb	 SHORT $LN414@ProcessTer

; 158  :     const uintptr_t _Ptr_container   = _Ptr_user[-1];

  002bb	8b 49 fc	 mov	 ecx, DWORD PTR [ecx-4]
  002be	83 c2 23	 add	 edx, 35			; 00000023H
  002c1	2b c1		 sub	 eax, ecx

; 172  :     _STL_VERIFY(_Back_shift >= _Min_back_shift && _Back_shift <= _Non_user_size, "invalid argument");

  002c3	83 c0 fc	 add	 eax, -4			; fffffffcH
  002c6	83 f8 1f	 cmp	 eax, 31			; 0000001fH
  002c9	0f 87 aa 03 00
	00		 ja	 $LN665@ProcessTer
$LN414@ProcessTer:

; 264  :         ::operator delete(_Ptr, _Bytes);

  002cf	52		 push	 edx
  002d0	51		 push	 ecx
  002d1	e8 00 00 00 00	 call	 ??3@YAXPAXI@Z		; operator delete
  002d6	83 c4 08	 add	 esp, 8
$LN404@ProcessTer:
; File C:\Program Files (x86)\Microsoft Visual Studio\2019\Professional\VC\Tools\MSVC\14.29.30133\include\xstring

; 122  :         _CSTD memmove(_First1, _First2, _Count * sizeof(_Elem));

  002d9	a1 00 00 00 00	 mov	 eax, DWORD PTR ??_C@_08FLKAMJDN@areaname@
  002de	8b 0d 04 00 00
	00		 mov	 ecx, DWORD PTR ??_C@_08FLKAMJDN@areaname@+4

; 4633 :             _Mypair._Myval2._Mysize = 0;

  002e4	c7 85 f4 fc ff
	ff 00 00 00 00	 mov	 DWORD PTR $T5[ebp+16], 0

; 4634 :             _Mypair._Myval2._Myres  = _BUF_SIZE - 1;

  002ee	c7 85 f8 fc ff
	ff 0f 00 00 00	 mov	 DWORD PTR $T5[ebp+20], 15 ; 0000000fH

; 4635 :             // the _Traits::assign is last so the codegen doesn't think the char write can alias this
; 4636 :             _Traits::assign(_Mypair._Myval2._Bx._Buf[0], _Elem());

  002f8	c6 85 e4 fc ff
	ff 00		 mov	 BYTE PTR $T5[ebp], 0

; 4610 :             _My_data._Myres = _BUF_SIZE - 1;

  002ff	c7 85 10 fd ff
	ff 0f 00 00 00	 mov	 DWORD PTR $T7[ebp+20], 15 ; 0000000fH

; 3248 :             _Mypair._Myval2._Mysize = _Count;

  00309	c7 85 0c fd ff
	ff 08 00 00 00	 mov	 DWORD PTR $T7[ebp+16], 8

; 122  :         _CSTD memmove(_First1, _First2, _Count * sizeof(_Elem));

  00313	89 85 fc fc ff
	ff		 mov	 DWORD PTR $T7[ebp], eax
  00319	89 8d 00 fd ff
	ff		 mov	 DWORD PTR $T7[ebp+4], ecx

; 3250 :             _Traits::assign(_Old_ptr[_Count], _Elem());

  0031f	c6 85 04 fd ff
	ff 00		 mov	 BYTE PTR $T7[ebp+8], 0
; File C:\Users\murat\Desktop\Siveps2-1-99-Project\source\client\Client\GameLib\AreaLoaderThread.cpp

; 289  : 	const std::string & c_rstrAreaName = stTokenVectorMap["areaname"][0];

  00326	8d 85 fc fc ff
	ff		 lea	 eax, DWORD PTR $T7[ebp]
  0032c	c6 45 fc 02	 mov	 BYTE PTR __$EHRec$[ebp+8], 2
  00330	50		 push	 eax
  00331	8d 8d dc fc ff
	ff		 lea	 ecx, DWORD PTR _stTokenVectorMap$[ebp]
  00337	e8 00 00 00 00	 call	 ??A?$map@V?$basic_string@DU?$char_traits@D@std@@V?$allocator@D@2@@std@@V?$vector@V?$basic_string@DU?$char_traits@D@std@@V?$allocator@D@2@@std@@V?$allocator@V?$basic_string@DU?$char_traits@D@std@@V?$allocator@D@2@@std@@@2@@2@U?$less@V?$basic_string@DU?$char_traits@D@std@@V?$allocator@D@2@@std@@@2@V?$allocator@U?$pair@$$CBV?$basic_string@DU?$char_traits@D@std@@V?$allocator@D@2@@std@@V?$vector@V?$basic_string@DU?$char_traits@D@std@@V?$allocator@D@2@@std@@V?$allocator@V?$basic_string@DU?$char_traits@D@std@@V?$allocator@D@2@@std@@@2@@2@@std@@@2@@std@@QAEAAV?$vector@V?$basic_string@DU?$char_traits@D@std@@V?$allocator@D@2@@std@@V?$allocator@V?$basic_string@DU?$char_traits@D@std@@V?$allocator@D@2@@std@@@2@@1@$$QAV?$basic_string@DU?$char_traits@D@std@@V?$allocator@D@2@@1@@Z ; std::map<std::basic_string<char,std::char_traits<char>,std::allocator<char> >,std::vector<std::basic_string<char,std::char_traits<char>,std::allocator<char> >,std::allocator<std::basic_string<char,std::char_traits<char>,std::allocator<char> > > >,std::less<std::basic_string<char,std::char_traits<char>,std::allocator<char> > >,std::allocator<std::pair<std::basic_string<char,std::char_traits<char>,std::allocator<char> > const ,std::vector<std::basic_string<char,std::char_traits<char>,std::allocator<char> >,std::allocator<std::basic_string<char,std::char_traits<char>,std::allocator<char> > > > > > >::operator[]
; File C:\Program Files (x86)\Microsoft Visual Studio\2019\Professional\VC\Tools\MSVC\14.29.30133\include\xstring

; 4618 :         if (_Mypair._Myval2._Large_string_engaged()) {

  0033c	8b 95 10 fd ff
	ff		 mov	 edx, DWORD PTR $T7[ebp+20]
; File C:\Users\murat\Desktop\Siveps2-1-99-Project\source\client\Client\GameLib\AreaLoaderThread.cpp

; 289  : 	const std::string & c_rstrAreaName = stTokenVectorMap["areaname"][0];

  00342	c6 45 fc 00	 mov	 BYTE PTR __$EHRec$[ebp+8], 0
; File C:\Program Files (x86)\Microsoft Visual Studio\2019\Professional\VC\Tools\MSVC\14.29.30133\include\vector

; 1569 :         return _My_data._Myfirst[_Pos];

  00346	8b 00		 mov	 eax, DWORD PTR [eax]
  00348	89 85 d8 fc ff
	ff		 mov	 DWORD PTR __Result$1$[ebp], eax
; File C:\Program Files (x86)\Microsoft Visual Studio\2019\Professional\VC\Tools\MSVC\14.29.30133\include\xstring

; 4618 :         if (_Mypair._Myval2._Large_string_engaged()) {

  0034e	83 fa 10	 cmp	 edx, 16			; 00000010H
  00351	72 2f		 jb	 SHORT $LN505@ProcessTer
; File C:\Program Files (x86)\Microsoft Visual Studio\2019\Professional\VC\Tools\MSVC\14.29.30133\include\xmemory

; 835  :         _Deallocate<_New_alignof<_Ty>>(_Ptr, sizeof(_Ty) * _Count);

  00353	8b 8d fc fc ff
	ff		 mov	 ecx, DWORD PTR $T7[ebp]
; File C:\Program Files (x86)\Microsoft Visual Studio\2019\Professional\VC\Tools\MSVC\14.29.30133\include\xstring

; 4622 :             _Al.deallocate(_Ptr, _Mypair._Myval2._Myres + 1);

  00359	42		 inc	 edx
; File C:\Program Files (x86)\Microsoft Visual Studio\2019\Professional\VC\Tools\MSVC\14.29.30133\include\xmemory

; 835  :         _Deallocate<_New_alignof<_Ty>>(_Ptr, sizeof(_Ty) * _Count);

  0035a	8b c1		 mov	 eax, ecx

; 260  :         if (_Bytes >= _Big_allocation_threshold) { // boost the alignment of big allocations to help autovectorization

  0035c	81 fa 00 10 00
	00		 cmp	 edx, 4096		; 00001000H
  00362	72 14		 jb	 SHORT $LN515@ProcessTer

; 158  :     const uintptr_t _Ptr_container   = _Ptr_user[-1];

  00364	8b 49 fc	 mov	 ecx, DWORD PTR [ecx-4]
  00367	83 c2 23	 add	 edx, 35			; 00000023H
  0036a	2b c1		 sub	 eax, ecx

; 172  :     _STL_VERIFY(_Back_shift >= _Min_back_shift && _Back_shift <= _Non_user_size, "invalid argument");

  0036c	83 c0 fc	 add	 eax, -4			; fffffffcH
  0036f	83 f8 1f	 cmp	 eax, 31			; 0000001fH
  00372	0f 87 06 03 00
	00		 ja	 $LN666@ProcessTer
$LN515@ProcessTer:

; 264  :         ::operator delete(_Ptr, _Bytes);

  00378	52		 push	 edx
  00379	51		 push	 ecx
  0037a	e8 00 00 00 00	 call	 ??3@YAXPAXI@Z		; operator delete
  0037f	83 c4 08	 add	 esp, 8
$LN505@ProcessTer:
; File C:\Users\murat\Desktop\Siveps2-1-99-Project\source\client\Client\GameLib\AreaLoaderThread.cpp

; 291  : 	if (c_rstrType != "AreaProperty")

  00382	68 00 00 00 00	 push	 OFFSET ??_C@_0N@JAFNMPED@AreaProperty@
  00387	ff b5 d4 fc ff
	ff		 push	 DWORD PTR _c_rstrType$1$[ebp]
; File C:\Program Files (x86)\Microsoft Visual Studio\2019\Professional\VC\Tools\MSVC\14.29.30133\include\xstring

; 4633 :             _Mypair._Myval2._Mysize = 0;

  0038d	c7 85 0c fd ff
	ff 00 00 00 00	 mov	 DWORD PTR $T7[ebp+16], 0

; 4634 :             _Mypair._Myval2._Myres  = _BUF_SIZE - 1;

  00397	c7 85 10 fd ff
	ff 0f 00 00 00	 mov	 DWORD PTR $T7[ebp+20], 15 ; 0000000fH

; 4635 :             // the _Traits::assign is last so the codegen doesn't think the char write can alias this
; 4636 :             _Traits::assign(_Mypair._Myval2._Bx._Buf[0], _Elem());

  003a1	c6 85 fc fc ff
	ff 00		 mov	 BYTE PTR $T7[ebp], 0
; File C:\Users\murat\Desktop\Siveps2-1-99-Project\source\client\Client\GameLib\AreaLoaderThread.cpp

; 291  : 	if (c_rstrType != "AreaProperty")

  003a8	e8 00 00 00 00	 call	 ??$?9DU?$char_traits@D@std@@V?$allocator@D@1@@std@@YA_NABV?$basic_string@DU?$char_traits@D@std@@V?$allocator@D@2@@0@QBD@Z ; std::operator!=<char,std::char_traits<char>,std::allocator<char> >
  003ad	83 c4 08	 add	 esp, 8
  003b0	84 c0		 test	 al, al
  003b2	0f 85 7e 02 00
	00		 jne	 $LN661@ProcessTer
; File C:\Program Files (x86)\Microsoft Visual Studio\2019\Professional\VC\Tools\MSVC\14.29.30133\include\xstring

; 2306 :         if (_Large_string_engaged()) {

  003b8	83 7e 14 10	 cmp	 DWORD PTR [esi+20], 16	; 00000010H
  003bc	8b c6		 mov	 eax, esi
  003be	72 02		 jb	 SHORT $LN655@ProcessTer

; 2307 :             _Result = _Unfancy(_Bx._Ptr);

  003c0	8b 06		 mov	 eax, DWORD PTR [esi]
$LN655@ProcessTer:
; File C:\Users\murat\Desktop\Siveps2-1-99-Project\source\client\Client\GameLib\AreaLoaderThread.cpp

; 302  : 	_snprintf(szRawHeightFieldname, sizeof(szRawHeightFieldname), "%s\\%06u\\height.raw", c_rStrMapName.c_str(), dwID);

  003c2	53		 push	 ebx
  003c3	50		 push	 eax
  003c4	68 00 00 00 00	 push	 OFFSET ??_C@_0BD@OEBGBMHL@?$CFs?2?$CF06u?2height?4raw@
  003c9	8d 85 68 ff ff
	ff		 lea	 eax, DWORD PTR _szRawHeightFieldname$[ebp]
  003cf	6a 41		 push	 65			; 00000041H
  003d1	50		 push	 eax
  003d2	e8 00 00 00 00	 call	 __snprintf
  003d7	83 c4 14	 add	 esp, 20			; 00000014H
; File C:\Program Files (x86)\Microsoft Visual Studio\2019\Professional\VC\Tools\MSVC\14.29.30133\include\xstring

; 2305 :         const value_type* _Result = _Bx._Buf;

  003da	8b c6		 mov	 eax, esi

; 2306 :         if (_Large_string_engaged()) {

  003dc	83 7e 14 10	 cmp	 DWORD PTR [esi+20], 16	; 00000010H
  003e0	72 02		 jb	 SHORT $LN656@ProcessTer

; 2307 :             _Result = _Unfancy(_Bx._Ptr);

  003e2	8b 06		 mov	 eax, DWORD PTR [esi]
$LN656@ProcessTer:
; File C:\Users\murat\Desktop\Siveps2-1-99-Project\source\client\Client\GameLib\AreaLoaderThread.cpp

; 303  : 	_snprintf(szSplatName, sizeof(szSplatName), "%s\\%06u\\tile.raw", c_rStrMapName.c_str(), dwID);

  003e4	53		 push	 ebx
  003e5	50		 push	 eax
  003e6	68 00 00 00 00	 push	 OFFSET ??_C@_0BB@KIEAEMGF@?$CFs?2?$CF06u?2tile?4raw@
  003eb	8d 85 e0 fe ff
	ff		 lea	 eax, DWORD PTR _szSplatName$[ebp]
  003f1	6a 41		 push	 65			; 00000041H
  003f3	50		 push	 eax
  003f4	e8 00 00 00 00	 call	 __snprintf
  003f9	83 c4 14	 add	 esp, 20			; 00000014H
; File C:\Program Files (x86)\Microsoft Visual Studio\2019\Professional\VC\Tools\MSVC\14.29.30133\include\xstring

; 2305 :         const value_type* _Result = _Bx._Buf;

  003fc	8b c6		 mov	 eax, esi

; 2306 :         if (_Large_string_engaged()) {

  003fe	83 7e 14 10	 cmp	 DWORD PTR [esi+20], 16	; 00000010H
  00402	72 02		 jb	 SHORT $LN657@ProcessTer

; 2307 :             _Result = _Unfancy(_Bx._Ptr);

  00404	8b 06		 mov	 eax, DWORD PTR [esi]
$LN657@ProcessTer:
; File C:\Users\murat\Desktop\Siveps2-1-99-Project\source\client\Client\GameLib\AreaLoaderThread.cpp

; 304  : 	_snprintf(szAttrMapName, sizeof(szAttrMapName), "%s\\%06u\\attr.atr", c_rStrMapName.c_str(), dwID);

  00406	53		 push	 ebx
  00407	50		 push	 eax
  00408	68 00 00 00 00	 push	 OFFSET ??_C@_0BB@MGHNOCIE@?$CFs?2?$CF06u?2attr?4atr@
  0040d	8d 85 24 ff ff
	ff		 lea	 eax, DWORD PTR _szAttrMapName$[ebp]
  00413	6a 41		 push	 65			; 00000041H
  00415	50		 push	 eax
  00416	e8 00 00 00 00	 call	 __snprintf
  0041b	83 c4 14	 add	 esp, 20			; 00000014H
; File C:\Program Files (x86)\Microsoft Visual Studio\2019\Professional\VC\Tools\MSVC\14.29.30133\include\xstring

; 2305 :         const value_type* _Result = _Bx._Buf;

  0041e	8b c6		 mov	 eax, esi

; 2306 :         if (_Large_string_engaged()) {

  00420	83 7e 14 10	 cmp	 DWORD PTR [esi+20], 16	; 00000010H
  00424	72 02		 jb	 SHORT $LN658@ProcessTer

; 2307 :             _Result = _Unfancy(_Bx._Ptr);

  00426	8b 06		 mov	 eax, DWORD PTR [esi]
$LN658@ProcessTer:
; File C:\Users\murat\Desktop\Siveps2-1-99-Project\source\client\Client\GameLib\AreaLoaderThread.cpp

; 305  : 	_snprintf(szWaterMapName, sizeof(szWaterMapName), "%s\\%06u\\water.wtr", c_rStrMapName.c_str(), dwID);

  00428	53		 push	 ebx
  00429	50		 push	 eax
  0042a	68 00 00 00 00	 push	 OFFSET ??_C@_0BC@COFDKBDG@?$CFs?2?$CF06u?2water?4wtr@
  0042f	8d 45 ac	 lea	 eax, DWORD PTR _szWaterMapName$[ebp]
  00432	6a 41		 push	 65			; 00000041H
  00434	50		 push	 eax
  00435	e8 00 00 00 00	 call	 __snprintf
  0043a	83 c4 14	 add	 esp, 20			; 00000014H
; File C:\Program Files (x86)\Microsoft Visual Studio\2019\Professional\VC\Tools\MSVC\14.29.30133\include\xstring

; 2305 :         const value_type* _Result = _Bx._Buf;

  0043d	8b c6		 mov	 eax, esi

; 2306 :         if (_Large_string_engaged()) {

  0043f	83 7e 14 10	 cmp	 DWORD PTR [esi+20], 16	; 00000010H
  00443	72 02		 jb	 SHORT $LN659@ProcessTer

; 2307 :             _Result = _Unfancy(_Bx._Ptr);

  00445	8b 06		 mov	 eax, DWORD PTR [esi]
$LN659@ProcessTer:
; File C:\Users\murat\Desktop\Siveps2-1-99-Project\source\client\Client\GameLib\AreaLoaderThread.cpp

; 306  : 	_snprintf(szShadowTexName, sizeof(szShadowTexName), "%s\\%06u\\shadowmap.dds", c_rStrMapName.c_str(), dwID);

  00447	53		 push	 ebx
  00448	50		 push	 eax
  00449	68 00 00 00 00	 push	 OFFSET ??_C@_0BG@JDDLCJKB@?$CFs?2?$CF06u?2shadowmap?4dds@
  0044e	8d 85 9c fe ff
	ff		 lea	 eax, DWORD PTR _szShadowTexName$[ebp]
  00454	6a 41		 push	 65			; 00000041H
  00456	50		 push	 eax
  00457	e8 00 00 00 00	 call	 __snprintf
  0045c	83 c4 14	 add	 esp, 20			; 00000014H
; File C:\Program Files (x86)\Microsoft Visual Studio\2019\Professional\VC\Tools\MSVC\14.29.30133\include\xstring

; 2305 :         const value_type* _Result = _Bx._Buf;

  0045f	8b c6		 mov	 eax, esi

; 2306 :         if (_Large_string_engaged()) {

  00461	83 7e 14 10	 cmp	 DWORD PTR [esi+20], 16	; 00000010H
  00465	72 02		 jb	 SHORT $LN660@ProcessTer

; 2307 :             _Result = _Unfancy(_Bx._Ptr);

  00467	8b 06		 mov	 eax, DWORD PTR [esi]
$LN660@ProcessTer:
; File C:\Users\murat\Desktop\Siveps2-1-99-Project\source\client\Client\GameLib\AreaLoaderThread.cpp

; 307  : 	_snprintf(szShadowMapName, sizeof(szShadowMapName), "%s\\%06u\\shadowmap.raw", c_rStrMapName.c_str(), dwID);

  00469	53		 push	 ebx
  0046a	50		 push	 eax
  0046b	68 00 00 00 00	 push	 OFFSET ??_C@_0BG@IEOOCGAN@?$CFs?2?$CF06u?2shadowmap?4raw@
  00470	8d 85 58 fe ff
	ff		 lea	 eax, DWORD PTR _szShadowMapName$[ebp]
  00476	6a 41		 push	 65			; 00000041H
  00478	50		 push	 eax
  00479	e8 00 00 00 00	 call	 __snprintf
  0047e	83 c4 14	 add	 esp, 20			; 00000014H
; File C:\Program Files (x86)\Microsoft Visual Studio\2019\Professional\VC\Tools\MSVC\14.29.30133\include\xstring

; 2306 :         if (_Large_string_engaged()) {

  00481	83 7e 14 10	 cmp	 DWORD PTR [esi+20], 16	; 00000010H
  00485	72 02		 jb	 SHORT $LN565@ProcessTer

; 2307 :             _Result = _Unfancy(_Bx._Ptr);

  00487	8b 36		 mov	 esi, DWORD PTR [esi]
$LN565@ProcessTer:
; File C:\Users\murat\Desktop\Siveps2-1-99-Project\source\client\Client\GameLib\AreaLoaderThread.cpp

; 308  : 	_snprintf(szMiniMapTexName,	sizeof(szMiniMapTexName), "%s\\%06u\\minimap.dds", c_rStrMapName.c_str(), dwID);

  00489	53		 push	 ebx
  0048a	56		 push	 esi
  0048b	68 00 00 00 00	 push	 OFFSET ??_C@_0BE@OEFJKKPK@?$CFs?2?$CF06u?2minimap?4dds@
  00490	8d 85 14 fe ff
	ff		 lea	 eax, DWORD PTR _szMiniMapTexName$[ebp]
  00496	6a 41		 push	 65			; 00000041H
  00498	50		 push	 eax
  00499	e8 00 00 00 00	 call	 __snprintf

; 309  : 
; 310  : 	pTerrain->CopySettingFromGlobalSetting();

  0049e	8b 9d d0 fc ff
	ff		 mov	 ebx, DWORD PTR _pTerrain$1$[ebp]
  004a4	83 c4 14	 add	 esp, 20			; 00000014H
  004a7	8b cb		 mov	 ecx, ebx
  004a9	e8 00 00 00 00	 call	 ?CopySettingFromGlobalSetting@CTerrain@@QAEXXZ ; CTerrain::CopySettingFromGlobalSetting

; 311  : 
; 312  : 	pTerrain->LoadWaterMap(szWaterMapName);

  004ae	8d 45 ac	 lea	 eax, DWORD PTR _szWaterMapName$[ebp]
  004b1	8b cb		 mov	 ecx, ebx
  004b3	50		 push	 eax
  004b4	e8 00 00 00 00	 call	 ?LoadWaterMap@CTerrainImpl@@QAE_NPBD@Z ; CTerrainImpl::LoadWaterMap

; 313  : 	Sleep(g_iLoadingDelayTime);

  004b9	ff 35 00 00 00
	00		 push	 DWORD PTR ?g_iLoadingDelayTime@@3HA ; g_iLoadingDelayTime
  004bf	8b 35 00 00 00
	00		 mov	 esi, DWORD PTR __imp__Sleep@4
  004c5	ff d6		 call	 esi

; 314  : 	pTerrain->LoadHeightMap(szRawHeightFieldname);

  004c7	8d 85 68 ff ff
	ff		 lea	 eax, DWORD PTR _szRawHeightFieldname$[ebp]
  004cd	8b cb		 mov	 ecx, ebx
  004cf	50		 push	 eax
  004d0	e8 00 00 00 00	 call	 ?LoadHeightMap@CTerrain@@QAE_NPBD@Z ; CTerrain::LoadHeightMap

; 315  : 	Sleep(g_iLoadingDelayTime);

  004d5	ff 35 00 00 00
	00		 push	 DWORD PTR ?g_iLoadingDelayTime@@3HA ; g_iLoadingDelayTime
  004db	ff d6		 call	 esi

; 316  : 	pTerrain->LoadAttrMap(szAttrMapName);

  004dd	8d 85 24 ff ff
	ff		 lea	 eax, DWORD PTR _szAttrMapName$[ebp]
  004e3	8b cb		 mov	 ecx, ebx
  004e5	50		 push	 eax
  004e6	e8 00 00 00 00	 call	 ?LoadAttrMap@CTerrain@@QAE_NPBD@Z ; CTerrain::LoadAttrMap

; 317  : 	Sleep(g_iLoadingDelayTime);

  004eb	ff 35 00 00 00
	00		 push	 DWORD PTR ?g_iLoadingDelayTime@@3HA ; g_iLoadingDelayTime
  004f1	ff d6		 call	 esi

; 318  : 	pTerrain->RAW_LoadTileMap(szSplatName, true);

  004f3	6a 01		 push	 1
  004f5	8d 85 e0 fe ff
	ff		 lea	 eax, DWORD PTR _szSplatName$[ebp]
  004fb	8b cb		 mov	 ecx, ebx
  004fd	50		 push	 eax
  004fe	e8 00 00 00 00	 call	 ?RAW_LoadTileMap@CTerrain@@QAE_NPBD_N@Z ; CTerrain::RAW_LoadTileMap

; 319  : 	Sleep(g_iLoadingDelayTime);

  00503	ff 35 00 00 00
	00		 push	 DWORD PTR ?g_iLoadingDelayTime@@3HA ; g_iLoadingDelayTime
  00509	ff d6		 call	 esi

; 320  : 	pTerrain->LoadShadowTexture(szShadowTexName);

  0050b	8d 85 9c fe ff
	ff		 lea	 eax, DWORD PTR _szShadowTexName$[ebp]
  00511	8b cb		 mov	 ecx, ebx
  00513	50		 push	 eax
  00514	e8 00 00 00 00	 call	 ?LoadShadowTexture@CTerrain@@QAEXPBD@Z ; CTerrain::LoadShadowTexture

; 321  : 	Sleep(g_iLoadingDelayTime);

  00519	ff 35 00 00 00
	00		 push	 DWORD PTR ?g_iLoadingDelayTime@@3HA ; g_iLoadingDelayTime
  0051f	ff d6		 call	 esi

; 322  : 	pTerrain->LoadShadowMap(szShadowMapName);

  00521	8d 85 58 fe ff
	ff		 lea	 eax, DWORD PTR _szShadowMapName$[ebp]
  00527	8b cb		 mov	 ecx, ebx
  00529	50		 push	 eax
  0052a	e8 00 00 00 00	 call	 ?LoadShadowMap@CTerrain@@QAE_NPBD@Z ; CTerrain::LoadShadowMap

; 323  : 	Sleep(g_iLoadingDelayTime);

  0052f	ff 35 00 00 00
	00		 push	 DWORD PTR ?g_iLoadingDelayTime@@3HA ; g_iLoadingDelayTime
  00535	ff d6		 call	 esi

; 324  : 	pTerrain->LoadMiniMapTexture(szMiniMapTexName);

  00537	8d 85 14 fe ff
	ff		 lea	 eax, DWORD PTR _szMiniMapTexName$[ebp]
  0053d	8b cb		 mov	 ecx, ebx
  0053f	50		 push	 eax
  00540	e8 00 00 00 00	 call	 ?LoadMiniMapTexture@CTerrain@@QAEXPBD@Z ; CTerrain::LoadMiniMapTexture

; 325  : 	Sleep(g_iLoadingDelayTime);

  00545	ff 35 00 00 00
	00		 push	 DWORD PTR ?g_iLoadingDelayTime@@3HA ; g_iLoadingDelayTime
  0054b	ff d6		 call	 esi
; File C:\Program Files (x86)\Microsoft Visual Studio\2019\Professional\VC\Tools\MSVC\14.29.30133\include\xstring

; 2306 :         if (_Large_string_engaged()) {

  0054d	8b 85 d8 fc ff
	ff		 mov	 eax, DWORD PTR __Result$1$[ebp]
  00553	83 78 14 10	 cmp	 DWORD PTR [eax+20], 16	; 00000010H
  00557	72 02		 jb	 SHORT $LN572@ProcessTer

; 2307 :             _Result = _Unfancy(_Bx._Ptr);

  00559	8b 00		 mov	 eax, DWORD PTR [eax]
$LN572@ProcessTer:
; File C:\Users\murat\Desktop\Siveps2-1-99-Project\source\client\Client\GameLib\AreaLoaderThread.cpp

; 326  : 	pTerrain->SetName(c_rstrAreaName.c_str());

  0055b	50		 push	 eax
  0055c	8d 8d e4 fc ff
	ff		 lea	 ecx, DWORD PTR $T4[ebp]
  00562	e8 00 00 00 00	 call	 ??0?$basic_string@DU?$char_traits@D@std@@V?$allocator@D@2@@std@@QAE@QBD@Z ; std::basic_string<char,std::char_traits<char>,std::allocator<char> >::basic_string<char,std::char_traits<char>,std::allocator<char> >
; File C:\Users\murat\Desktop\Siveps2-1-99-Project\source\client\Client\GameLib\AreaTerrain.h

; 99   : 		void			SetName(const std::string c_strName) { m_strName = c_strName; }

  00567	8d 8b 54 a5 06
	00		 lea	 ecx, DWORD PTR [ebx+435540]
  0056d	c6 45 fc 03	 mov	 BYTE PTR __$EHRec$[ebp+8], 3
; File C:\Program Files (x86)\Microsoft Visual Studio\2019\Professional\VC\Tools\MSVC\14.29.30133\include\xstring

; 3077 :         if (this != _STD addressof(_Right)) {

  00571	8d 85 e4 fc ff
	ff		 lea	 eax, DWORD PTR $T4[ebp]
  00577	3b c8		 cmp	 ecx, eax
  00579	74 1a		 je	 SHORT $LN580@ProcessTer

; 2306 :         if (_Large_string_engaged()) {

  0057b	83 bd f8 fc ff
	ff 10		 cmp	 DWORD PTR $T4[ebp+20], 16 ; 00000010H

; 3035 :         assign(_Right._Mypair._Myval2._Myptr(), _Right._Mypair._Myval2._Mysize);

  00582	ff b5 f4 fc ff
	ff		 push	 DWORD PTR $T4[ebp+16]

; 2306 :         if (_Large_string_engaged()) {

  00588	0f 43 85 e4 fc
	ff ff		 cmovae	 eax, DWORD PTR $T4[ebp]

; 3035 :         assign(_Right._Mypair._Myval2._Myptr(), _Right._Mypair._Myval2._Mysize);

  0058f	50		 push	 eax
  00590	e8 00 00 00 00	 call	 ?assign@?$basic_string@DU?$char_traits@D@std@@V?$allocator@D@2@@std@@QAEAAV12@QBDI@Z ; std::basic_string<char,std::char_traits<char>,std::allocator<char> >::assign
$LN580@ProcessTer:

; 2319 :         return _BUF_SIZE <= _Myres;

  00595	8b 95 f8 fc ff
	ff		 mov	 edx, DWORD PTR $T4[ebp+20]
; File C:\Users\murat\Desktop\Siveps2-1-99-Project\source\client\Client\GameLib\AreaTerrain.h

; 99   : 		void			SetName(const std::string c_strName) { m_strName = c_strName; }

  0059b	c6 45 fc 00	 mov	 BYTE PTR __$EHRec$[ebp+8], 0
; File C:\Program Files (x86)\Microsoft Visual Studio\2019\Professional\VC\Tools\MSVC\14.29.30133\include\xstring

; 2319 :         return _BUF_SIZE <= _Myres;

  0059f	83 fa 10	 cmp	 edx, 16			; 00000010H

; 4618 :         if (_Mypair._Myval2._Large_string_engaged()) {

  005a2	72 2f		 jb	 SHORT $LN601@ProcessTer
; File C:\Program Files (x86)\Microsoft Visual Studio\2019\Professional\VC\Tools\MSVC\14.29.30133\include\xmemory

; 835  :         _Deallocate<_New_alignof<_Ty>>(_Ptr, sizeof(_Ty) * _Count);

  005a4	8b 8d e4 fc ff
	ff		 mov	 ecx, DWORD PTR $T4[ebp]
; File C:\Program Files (x86)\Microsoft Visual Studio\2019\Professional\VC\Tools\MSVC\14.29.30133\include\xstring

; 4622 :             _Al.deallocate(_Ptr, _Mypair._Myval2._Myres + 1);

  005aa	42		 inc	 edx
; File C:\Program Files (x86)\Microsoft Visual Studio\2019\Professional\VC\Tools\MSVC\14.29.30133\include\xmemory

; 835  :         _Deallocate<_New_alignof<_Ty>>(_Ptr, sizeof(_Ty) * _Count);

  005ab	8b c1		 mov	 eax, ecx

; 260  :         if (_Bytes >= _Big_allocation_threshold) { // boost the alignment of big allocations to help autovectorization

  005ad	81 fa 00 10 00
	00		 cmp	 edx, 4096		; 00001000H
  005b3	72 14		 jb	 SHORT $LN611@ProcessTer

; 158  :     const uintptr_t _Ptr_container   = _Ptr_user[-1];

  005b5	8b 49 fc	 mov	 ecx, DWORD PTR [ecx-4]
  005b8	83 c2 23	 add	 edx, 35			; 00000023H
  005bb	2b c1		 sub	 eax, ecx

; 172  :     _STL_VERIFY(_Back_shift >= _Min_back_shift && _Back_shift <= _Non_user_size, "invalid argument");

  005bd	83 c0 fc	 add	 eax, -4			; fffffffcH
  005c0	83 f8 1f	 cmp	 eax, 31			; 0000001fH
  005c3	0f 87 ba 00 00
	00		 ja	 $LN667@ProcessTer
$LN611@ProcessTer:

; 264  :         ::operator delete(_Ptr, _Bytes);

  005c9	52		 push	 edx
  005ca	51		 push	 ecx
  005cb	e8 00 00 00 00	 call	 ??3@YAXPAXI@Z		; operator delete
  005d0	83 c4 08	 add	 esp, 8
$LN601@ProcessTer:
; File C:\Users\murat\Desktop\Siveps2-1-99-Project\source\client\Client\GameLib\AreaLoaderThread.cpp

; 327  : 	Sleep(g_iLoadingDelayTime);

  005d3	ff 35 00 00 00
	00		 push	 DWORD PTR ?g_iLoadingDelayTime@@3HA ; g_iLoadingDelayTime
  005d9	ff d6		 call	 esi

; 328  : 	pTerrain->CalculateTerrainPatch();

  005db	8b cb		 mov	 ecx, ebx
  005dd	e8 00 00 00 00	 call	 ?CalculateTerrainPatch@CTerrain@@QAEXXZ ; CTerrain::CalculateTerrainPatch

; 329  : 	Sleep(g_iLoadingDelayTime);

  005e2	ff 35 00 00 00
	00		 push	 DWORD PTR ?g_iLoadingDelayTime@@3HA ; g_iLoadingDelayTime
  005e8	ff d6		 call	 esi

; 330  : 
; 331  : 	pTerrain->SetReady();

  005ea	c6 83 70 a5 06
	00 01		 mov	 BYTE PTR [ebx+435568], 1

; 332  : 
; 333  : 	Tracef("TEMP_CAreaLoaderThread::ProcessTerrain LoadTerrain : %d ms elapsed\n", ELTimer_GetMSec() - dwStartTime);

  005f1	e8 00 00 00 00	 call	 ?ELTimer_GetMSec@@YAKXZ	; ELTimer_GetMSec
  005f6	2b 85 cc fc ff
	ff		 sub	 eax, DWORD PTR _dwStartTime$1$[ebp]
  005fc	50		 push	 eax
  005fd	68 00 00 00 00	 push	 OFFSET ??_C@_0EE@GJPDLMNG@TEMP_CAreaLoaderThread?3?3Process@
  00602	e8 00 00 00 00	 call	 ?Tracef@@YAXPBDZZ	; Tracef
  00607	83 c4 08	 add	 esp, 8

; 334  : 
; 335  : 	m_TerrainCompleteMutex.Lock();

  0060a	8d 4f 50	 lea	 ecx, DWORD PTR [edi+80]
  0060d	e8 00 00 00 00	 call	 ?Lock@Mutex@@QAEXXZ	; Mutex::Lock

; 336  : 	m_pTerrainCompleteDeque.push_back(pTerrain);

  00612	8d 85 c8 fc ff
	ff		 lea	 eax, DWORD PTR _pTerrain$[ebp]
  00618	50		 push	 eax
  00619	8d 4f 3c	 lea	 ecx, DWORD PTR [edi+60]
  0061c	e8 00 00 00 00	 call	 ?push_back@?$deque@PAVCTerrain@@V?$allocator@PAVCTerrain@@@std@@@std@@QAEXABQAVCTerrain@@@Z ; std::deque<CTerrain *,std::allocator<CTerrain *> >::push_back

; 337  : 	m_TerrainCompleteMutex.Unlock();

  00621	8d 4f 50	 lea	 ecx, DWORD PTR [edi+80]
  00624	e8 00 00 00 00	 call	 ?Unlock@Mutex@@QAEXXZ	; Mutex::Unlock

; 338  : 
; 339  : 	Sleep(g_iLoadingDelayTime);

  00629	ff 35 00 00 00
	00		 push	 DWORD PTR ?g_iLoadingDelayTime@@3HA ; g_iLoadingDelayTime
  0062f	a1 00 00 00 00	 mov	 eax, DWORD PTR __imp__Sleep@4
  00634	ff d0		 call	 eax
$LN661@ProcessTer:
; File C:\Program Files (x86)\Microsoft Visual Studio\2019\Professional\VC\Tools\MSVC\14.29.30133\include\xtree

; 758  :         _Erase_tree(_Al, _Myhead->_Parent);

  00636	8b 85 dc fc ff
	ff		 mov	 eax, DWORD PTR _stTokenVectorMap$[ebp]
  0063c	ff 70 04	 push	 DWORD PTR [eax+4]
  0063f	8d 85 dc fc ff
	ff		 lea	 eax, DWORD PTR _stTokenVectorMap$[ebp]
  00645	50		 push	 eax
  00646	8b c8		 mov	 ecx, eax
  00648	e8 00 00 00 00	 call	 ??$_Erase_tree@V?$allocator@U?$_Tree_node@U?$pair@$$CBV?$basic_string@DU?$char_traits@D@std@@V?$allocator@D@2@@std@@V?$vector@V?$basic_string@DU?$char_traits@D@std@@V?$allocator@D@2@@std@@V?$allocator@V?$basic_string@DU?$char_traits@D@std@@V?$allocator@D@2@@std@@@2@@2@@std@@PAX@std@@@std@@@?$_Tree_val@U?$_Tree_simple_types@U?$pair@$$CBV?$basic_string@DU?$char_traits@D@std@@V?$allocator@D@2@@std@@V?$vector@V?$basic_string@DU?$char_traits@D@std@@V?$allocator@D@2@@std@@V?$allocator@V?$basic_string@DU?$char_traits@D@std@@V?$allocator@D@2@@std@@@2@@2@@std@@@std@@@std@@QAEXAAV?$allocator@U?$_Tree_node@U?$pair@$$CBV?$basic_string@DU?$char_traits@D@std@@V?$allocator@D@2@@std@@V?$vector@V?$basic_string@DU?$char_traits@D@std@@V?$allocator@D@2@@std@@V?$allocator@V?$basic_string@DU?$char_traits@D@std@@V?$allocator@D@2@@std@@@2@@2@@std@@PAX@std@@@1@PAU?$_Tree_node@U?$pair@$$CBV?$basic_string@DU?$char_traits@D@std@@V?$allocator@D@2@@std@@V?$vector@V?$basic_string@DU?$char_traits@D@std@@V?$allocator@D@2@@std@@V?$allocator@V?$basic_string@DU?$char_traits@D@std@@V?$allocator@D@2@@std@@@2@@2@@std@@PAX@1@@Z ; std::_Tree_val<std::_Tree_simple_types<std::pair<std::basic_string<char,std::char_traits<char>,std::allocator<char> > const ,std::vector<std::basic_string<char,std::char_traits<char>,std::allocator<char> >,std::allocator<std::basic_string<char,std::char_traits<char>,std::allocator<char> > > > > > >::_Erase_tree<std::allocator<std::_Tree_node<std::pair<std::basic_string<char,std::char_traits<char>,std::allocator<char> > const ,std::vector<std::basic_string<char,std::char_traits<char>,std::allocator<char> >,std::allocator<std::basic_string<char,std::char_traits<char>,std::allocator<char> > > > >,void *> > >
; File C:\Program Files (x86)\Microsoft Visual Studio\2019\Professional\VC\Tools\MSVC\14.29.30133\include\xmemory

; 264  :         ::operator delete(_Ptr, _Bytes);

  0064d	6a 34		 push	 52			; 00000034H
  0064f	ff b5 dc fc ff
	ff		 push	 DWORD PTR _stTokenVectorMap$[ebp]
  00655	e8 00 00 00 00	 call	 ??3@YAXPAXI@Z		; operator delete
  0065a	83 c4 08	 add	 esp, 8
$LN630@ProcessTer:
; File C:\Users\murat\Desktop\Siveps2-1-99-Project\source\client\Client\GameLib\AreaLoaderThread.cpp

; 340  : }

  0065d	8b 4d f4	 mov	 ecx, DWORD PTR __$EHRec$[ebp]
  00660	64 89 0d 00 00
	00 00		 mov	 DWORD PTR fs:0, ecx
  00667	59		 pop	 ecx
  00668	5f		 pop	 edi
  00669	5e		 pop	 esi
  0066a	5b		 pop	 ebx
  0066b	8b 4d f0	 mov	 ecx, DWORD PTR __$ArrayPad$[ebp]
  0066e	33 cd		 xor	 ecx, ebp
  00670	e8 00 00 00 00	 call	 @__security_check_cookie@4
  00675	8b e5		 mov	 esp, ebp
  00677	5d		 pop	 ebp
  00678	c3		 ret	 0
$LN665@ProcessTer:
; File C:\Program Files (x86)\Microsoft Visual Studio\2019\Professional\VC\Tools\MSVC\14.29.30133\include\xmemory

; 172  :     _STL_VERIFY(_Back_shift >= _Min_back_shift && _Back_shift <= _Non_user_size, "invalid argument");

  00679	e8 00 00 00 00	 call	 __invalid_parameter_noinfo_noreturn
$LN666@ProcessTer:
  0067e	e8 00 00 00 00	 call	 __invalid_parameter_noinfo_noreturn
$LN667@ProcessTer:
  00683	e8 00 00 00 00	 call	 __invalid_parameter_noinfo_noreturn
$LN663@ProcessTer:
  00688	cc		 int	 3
_TEXT	ENDS
;	COMDAT text$x
text$x	SEGMENT
__unwindfunclet$?ProcessTerrain@TEMP_CAreaLoaderThread@@IAEXXZ$0:
  00000	8d 8d dc fc ff
	ff		 lea	 ecx, DWORD PTR _stTokenVectorMap$[ebp]
  00006	e9 00 00 00 00	 jmp	 ??1?$map@V?$basic_string@DU?$char_traits@D@std@@V?$allocator@D@2@@std@@V?$vector@V?$basic_string@DU?$char_traits@D@std@@V?$allocator@D@2@@std@@V?$allocator@V?$basic_string@DU?$char_traits@D@std@@V?$allocator@D@2@@std@@@2@@2@U?$less@V?$basic_string@DU?$char_traits@D@std@@V?$allocator@D@2@@std@@@2@V?$allocator@U?$pair@$$CBV?$basic_string@DU?$char_traits@D@std@@V?$allocator@D@2@@std@@V?$vector@V?$basic_string@DU?$char_traits@D@std@@V?$allocator@D@2@@std@@V?$allocator@V?$basic_string@DU?$char_traits@D@std@@V?$allocator@D@2@@std@@@2@@2@@std@@@2@@std@@QAE@XZ
__unwindfunclet$?ProcessTerrain@TEMP_CAreaLoaderThread@@IAEXXZ$3:
  0000b	8d 8d e4 fc ff
	ff		 lea	 ecx, DWORD PTR $T5[ebp]
  00011	e9 00 00 00 00	 jmp	 ??1?$basic_string@DU?$char_traits@D@std@@V?$allocator@D@2@@std@@QAE@XZ ; std::basic_string<char,std::char_traits<char>,std::allocator<char> >::~basic_string<char,std::char_traits<char>,std::allocator<char> >
__unwindfunclet$?ProcessTerrain@TEMP_CAreaLoaderThread@@IAEXXZ$4:
  00016	8d 8d fc fc ff
	ff		 lea	 ecx, DWORD PTR $T7[ebp]
  0001c	e9 00 00 00 00	 jmp	 ??1?$basic_string@DU?$char_traits@D@std@@V?$allocator@D@2@@std@@QAE@XZ ; std::basic_string<char,std::char_traits<char>,std::allocator<char> >::~basic_string<char,std::char_traits<char>,std::allocator<char> >
__unwindfunclet$?ProcessTerrain@TEMP_CAreaLoaderThread@@IAEXXZ$19:
  00021	8d 8d e4 fc ff
	ff		 lea	 ecx, DWORD PTR $T4[ebp]
  00027	e9 00 00 00 00	 jmp	 ??1?$basic_string@DU?$char_traits@D@std@@V?$allocator@D@2@@std@@QAE@XZ ; std::basic_string<char,std::char_traits<char>,std::allocator<char> >::~basic_string<char,std::char_traits<char>,std::allocator<char> >
  0002c	cc		 int	 3
  0002d	cc		 int	 3
  0002e	cc		 int	 3
  0002f	cc		 int	 3
  00030	cc		 int	 3
__ehhandler$?ProcessTerrain@TEMP_CAreaLoaderThread@@IAEXXZ:
  00031	90		 npad	 1
  00032	90		 npad	 1
  00033	8b 54 24 08	 mov	 edx, DWORD PTR [esp+8]
  00037	8d 42 0c	 lea	 eax, DWORD PTR [edx+12]
  0003a	8b 8a c0 fc ff
	ff		 mov	 ecx, DWORD PTR [edx-832]
  00040	33 c8		 xor	 ecx, eax
  00042	e8 00 00 00 00	 call	 @__security_check_cookie@4
  00047	8b 4a fc	 mov	 ecx, DWORD PTR [edx-4]
  0004a	33 c8		 xor	 ecx, eax
  0004c	e8 00 00 00 00	 call	 @__security_check_cookie@4
  00051	b8 00 00 00 00	 mov	 eax, OFFSET __ehfuncinfo$?ProcessTerrain@TEMP_CAreaLoaderThread@@IAEXXZ
  00056	e9 00 00 00 00	 jmp	 ___CxxFrameHandler3
text$x	ENDS
?ProcessTerrain@TEMP_CAreaLoaderThread@@IAEXXZ ENDP	; TEMP_CAreaLoaderThread::ProcessTerrain
; Function compile flags: /Ogtp
; File C:\Users\murat\Desktop\Siveps2-1-99-Project\source\client\Client\GameLib\AreaLoaderThread.cpp
;	COMDAT ?Destroy@TEMP_CAreaLoaderThread@@IAEXXZ
_TEXT	SEGMENT
?Destroy@TEMP_CAreaLoaderThread@@IAEXXZ PROC		; TEMP_CAreaLoaderThread::Destroy, COMDAT
; _this$ = ecx

; 56   : {

  00000	56		 push	 esi
  00001	8b f1		 mov	 esi, ecx

; 57   : 	if (m_hSemaphore)

  00003	8b 86 c0 00 00
	00		 mov	 eax, DWORD PTR [esi+192]
  00009	85 c0		 test	 eax, eax
  0000b	74 11		 je	 SHORT $LN2@Destroy

; 58   : 	{
; 59   : 		CloseHandle(m_hSemaphore);

  0000d	50		 push	 eax
  0000e	ff 15 00 00 00
	00		 call	 DWORD PTR __imp__CloseHandle@4

; 60   : 		m_hSemaphore = NULL;

  00014	c7 86 c0 00 00
	00 00 00 00 00	 mov	 DWORD PTR [esi+192], 0
$LN2@Destroy:

; 61   : 	}
; 62   : 
; 63   : /*
; 64   : 	while(!m_pTerrainRequestDeque.empty())
; 65   : 	{
; 66   : 		CTerrain * pTerrain = m_pTerrainRequestDeque.front();
; 67   : 		delete pTerrain;
; 68   : 		pTerrain = NULL;
; 69   : 		m_pTerrainRequestDeque.pop_front();
; 70   : 	}
; 71   : 
; 72   : 	while(!m_pTerrainCompleteDeque.empty())
; 73   : 	{
; 74   : 		CTerrain * pTerrain = m_pTerrainCompleteDeque.front();
; 75   : 		delete pTerrain;
; 76   : 		pTerrain = NULL;
; 77   : 		m_pTerrainCompleteDeque.pop_front();
; 78   : 	}
; 79   : */
; 80   : 
; 81   : 	/*stl_wipe(m_pTerrainRequestDeque);
; 82   : 	stl_wipe(m_pTerrainCompleteDeque);
; 83   : 	stl_wipe(m_pAreaRequestDeque);
; 84   : 	stl_wipe(m_pAreaCompleteDeque);*/
; 85   : }

  0001e	5e		 pop	 esi
  0001f	c3		 ret	 0
?Destroy@TEMP_CAreaLoaderThread@@IAEXXZ ENDP		; TEMP_CAreaLoaderThread::Destroy
_TEXT	ENDS
; Function compile flags: /Ogtp
; File C:\Users\murat\Desktop\Siveps2-1-99-Project\source\client\Client\GameLib\AreaLoaderThread.cpp
;	COMDAT ?Execute@TEMP_CAreaLoaderThread@@IAEIPAX@Z
_TEXT	SEGMENT
_pvArg$ = 8						; size = 4
?Execute@TEMP_CAreaLoaderThread@@IAEIPAX@Z PROC		; TEMP_CAreaLoaderThread::Execute, COMDAT
; _this$ = ecx

; 118  : {

  00000	56		 push	 esi
  00001	8b f1		 mov	 esi, ecx

; 119  : 	bool bProcessTerrain = true;
; 120  : 	while (!m_bShutdowned)

  00003	80 be c8 00 00
	00 00		 cmp	 BYTE PTR [esi+200], 0
  0000a	75 45		 jne	 SHORT $LN17@Execute
  0000c	57		 push	 edi
  0000d	8b 3d 00 00 00
	00		 mov	 edi, DWORD PTR __imp__WaitForSingleObject@8
$LL2@Execute:

; 121  : 	{
; 122  : 		DWORD dwWaitResult;
; 123  : 
; 124  : 		dwWaitResult = WaitForSingleObject(m_hSemaphore, INFINITE);

  00013	6a ff		 push	 -1
  00015	ff b6 c0 00 00
	00		 push	 DWORD PTR [esi+192]
  0001b	ff d7		 call	 edi

; 125  : 
; 126  : 		if (m_bShutdowned)

  0001d	80 be c8 00 00
	00 00		 cmp	 BYTE PTR [esi+200], 0
  00024	75 2a		 jne	 SHORT $LN18@Execute

; 127  : 			break;
; 128  : 
; 129  : 		switch (dwWaitResult)

  00026	85 c0		 test	 eax, eax
  00028	74 16		 je	 SHORT $LN16@Execute
  0002a	3d 02 01 00 00	 cmp	 eax, 258		; 00000102H
  0002f	75 16		 jne	 SHORT $LN9@Execute

; 134  : 				else
; 135  : 					ProcessArea();
; 136  : 				break;
; 137  : 			case WAIT_TIMEOUT:
; 138  : 				TraceError("TEMP_CAreaLoaderThread::Execute: Timeout occured while time-out interval is INIFITE");

  00031	68 00 00 00 00	 push	 OFFSET ??_C@_0FE@BAIIJAJL@TEMP_CAreaLoaderThread?3?3Execute@
  00036	e8 00 00 00 00	 call	 ?TraceError@@YAXPBDZZ	; TraceError
  0003b	83 c4 04	 add	 esp, 4
  0003e	eb 07		 jmp	 SHORT $LN9@Execute
$LN16@Execute:

; 130  : 		{
; 131  : 			case WAIT_OBJECT_0:
; 132  : 				if (bProcessTerrain)
; 133  : 					ProcessTerrain();

  00040	8b ce		 mov	 ecx, esi
  00042	e8 00 00 00 00	 call	 ?ProcessTerrain@TEMP_CAreaLoaderThread@@IAEXXZ ; TEMP_CAreaLoaderThread::ProcessTerrain
$LN9@Execute:

; 119  : 	bool bProcessTerrain = true;
; 120  : 	while (!m_bShutdowned)

  00047	80 be c8 00 00
	00 00		 cmp	 BYTE PTR [esi+200], 0
  0004e	74 c3		 je	 SHORT $LL2@Execute
$LN18@Execute:
  00050	5f		 pop	 edi
$LN17@Execute:

; 139  : 				break;
; 140  : 		}
; 141  : 	}
; 142  : 
; 143  : 	Destroy();

  00051	8b ce		 mov	 ecx, esi
  00053	e8 00 00 00 00	 call	 ?Destroy@TEMP_CAreaLoaderThread@@IAEXXZ ; TEMP_CAreaLoaderThread::Destroy

; 144  : 	return 1;

  00058	b8 01 00 00 00	 mov	 eax, 1
  0005d	5e		 pop	 esi

; 145  : }

  0005e	c2 04 00	 ret	 4
?Execute@TEMP_CAreaLoaderThread@@IAEIPAX@Z ENDP		; TEMP_CAreaLoaderThread::Execute
_TEXT	ENDS
; Function compile flags: /Ogtp
; File C:\Users\murat\Desktop\Siveps2-1-99-Project\source\client\Client\GameLib\AreaLoaderThread.cpp
;	COMDAT ?Setup@TEMP_CAreaLoaderThread@@IAEIXZ
_TEXT	SEGMENT
?Setup@TEMP_CAreaLoaderThread@@IAEIXZ PROC		; TEMP_CAreaLoaderThread::Setup, COMDAT
; _this$ = ecx

; 88   : {

  00000	56		 push	 esi

; 89   : 	m_hSemaphore = CreateSemaphore(NULL,		// no security attributes

  00001	6a 00		 push	 0
  00003	68 ff ff 00 00	 push	 65535			; 0000ffffH
  00008	6a 00		 push	 0
  0000a	6a 00		 push	 0
  0000c	8b f1		 mov	 esi, ecx
  0000e	ff 15 00 00 00
	00		 call	 DWORD PTR __imp__CreateSemaphoreA@16

; 90   : 								   0,			// initial count
; 91   : 								   65535,		// maximum count
; 92   : 								   NULL);		// unnamed semaphore
; 93   : 	if (!m_hSemaphore)

  00014	33 c9		 xor	 ecx, ecx
  00016	89 86 c0 00 00
	00		 mov	 DWORD PTR [esi+192], eax
  0001c	85 c0		 test	 eax, eax
  0001e	5e		 pop	 esi
  0001f	0f 95 c1	 setne	 cl
  00022	8b c1		 mov	 eax, ecx

; 94   : 		return 0;
; 95   : 
; 96   : 	return 1;
; 97   : }

  00024	c3		 ret	 0
?Setup@TEMP_CAreaLoaderThread@@IAEIXZ ENDP		; TEMP_CAreaLoaderThread::Setup
_TEXT	ENDS
; Function compile flags: /Ogtp
; File C:\Users\murat\Desktop\Siveps2-1-99-Project\source\client\Client\GameLib\AreaLoaderThread.cpp
;	COMDAT ?Run@TEMP_CAreaLoaderThread@@IAEIPAX@Z
_TEXT	SEGMENT
_arg$ = 8						; size = 4
?Run@TEMP_CAreaLoaderThread@@IAEIPAX@Z PROC		; TEMP_CAreaLoaderThread::Run, COMDAT
; _this$ = ecx

; 40   : {

  00000	55		 push	 ebp
  00001	8b ec		 mov	 ebp, esp
  00003	56		 push	 esi
  00004	8b f1		 mov	 esi, ecx

; 41   : 	if (!Setup())

  00006	e8 00 00 00 00	 call	 ?Setup@TEMP_CAreaLoaderThread@@IAEIXZ ; TEMP_CAreaLoaderThread::Setup
  0000b	85 c0		 test	 eax, eax
  0000d	75 05		 jne	 SHORT $LN2@Run
  0000f	5e		 pop	 esi

; 45   : }

  00010	5d		 pop	 ebp
  00011	c2 04 00	 ret	 4
$LN2@Run:

; 42   : 		return 0;
; 43   : 
; 44   : 	return (Execute(arg));

  00014	ff 75 08	 push	 DWORD PTR _arg$[ebp]
  00017	8b ce		 mov	 ecx, esi
  00019	e8 00 00 00 00	 call	 ?Execute@TEMP_CAreaLoaderThread@@IAEIPAX@Z ; TEMP_CAreaLoaderThread::Execute
  0001e	5e		 pop	 esi

; 45   : }

  0001f	5d		 pop	 ebp
  00020	c2 04 00	 ret	 4
?Run@TEMP_CAreaLoaderThread@@IAEIPAX@Z ENDP		; TEMP_CAreaLoaderThread::Run
_TEXT	ENDS
; Function compile flags: /Ogtp
; File C:\Users\murat\Desktop\Siveps2-1-99-Project\source\client\Client\GameLib\AreaLoaderThread.cpp
;	COMDAT ?EntryPoint@TEMP_CAreaLoaderThread@@KGIPAX@Z
_TEXT	SEGMENT
_pThis$ = 8						; size = 4
?EntryPoint@TEMP_CAreaLoaderThread@@KGIPAX@Z PROC	; TEMP_CAreaLoaderThread::EntryPoint, COMDAT

; 49   : {

  00000	55		 push	 ebp
  00001	8b ec		 mov	 ebp, esp

; 50   : 	TEMP_CAreaLoaderThread * pThread = (TEMP_CAreaLoaderThread *) pThis;
; 51   : 	return pThread->Run(pThread->Arg());

  00003	8b 4d 08	 mov	 ecx, DWORD PTR _pThis$[ebp]
  00006	ff 71 08	 push	 DWORD PTR [ecx+8]
  00009	e8 00 00 00 00	 call	 ?Run@TEMP_CAreaLoaderThread@@IAEIPAX@Z ; TEMP_CAreaLoaderThread::Run

; 52   : }

  0000e	5d		 pop	 ebp
  0000f	c2 04 00	 ret	 4
?EntryPoint@TEMP_CAreaLoaderThread@@KGIPAX@Z ENDP	; TEMP_CAreaLoaderThread::EntryPoint
_TEXT	ENDS
; Function compile flags: /Ogtp
; File C:\Users\murat\Desktop\Siveps2-1-99-Project\source\client\Client\GameLib\AreaLoaderThread.cpp
; File C:\Program Files (x86)\Microsoft Visual Studio\2019\Professional\VC\Tools\MSVC\14.29.30133\include\deque
; File C:\Users\murat\Desktop\Siveps2-1-99-Project\source\client\Client\GameLib\AreaLoaderThread.cpp
; File C:\Program Files (x86)\Microsoft Visual Studio\2019\Professional\VC\Tools\MSVC\14.29.30133\include\deque
; File C:\Users\murat\Desktop\Siveps2-1-99-Project\source\client\Client\GameLib\AreaLoaderThread.cpp
; File C:\Program Files (x86)\Microsoft Visual Studio\2019\Professional\VC\Tools\MSVC\14.29.30133\include\deque
; File C:\Users\murat\Desktop\Siveps2-1-99-Project\source\client\Client\GameLib\AreaLoaderThread.cpp
; File C:\Program Files (x86)\Microsoft Visual Studio\2019\Professional\VC\Tools\MSVC\14.29.30133\include\deque
; File C:\Users\murat\Desktop\Siveps2-1-99-Project\source\client\Client\GameLib\AreaLoaderThread.cpp
; File C:\Program Files (x86)\Microsoft Visual Studio\2019\Professional\VC\Tools\MSVC\14.29.30133\include\deque
; File C:\Users\murat\Desktop\Siveps2-1-99-Project\source\client\Client\GameLib\AreaLoaderThread.cpp
;	COMDAT ?Fetch@TEMP_CAreaLoaderThread@@QAE_NPAPAVCArea@@@Z
_TEXT	SEGMENT
_ppArea$ = 8						; size = 4
?Fetch@TEMP_CAreaLoaderThread@@QAE_NPAPAVCArea@@@Z PROC	; TEMP_CAreaLoaderThread::Fetch, COMDAT
; _this$ = ecx

; 193  : {

  00000	55		 push	 ebp
  00001	8b ec		 mov	 ebp, esp
  00003	56		 push	 esi
  00004	8b f1		 mov	 esi, ecx
  00006	57		 push	 edi

; 194  : 	m_AreaCompleteMutex.Lock();

  00007	8d 8e a8 00 00
	00		 lea	 ecx, DWORD PTR [esi+168]
  0000d	e8 00 00 00 00	 call	 ?Lock@Mutex@@QAEXXZ	; Mutex::Lock
; File C:\Program Files (x86)\Microsoft Visual Studio\2019\Professional\VC\Tools\MSVC\14.29.30133\include\deque

; 1009 :         return _Mysize() == 0;

  00012	83 be a4 00 00
	00 00		 cmp	 DWORD PTR [esi+164], 0
; File C:\Users\murat\Desktop\Siveps2-1-99-Project\source\client\Client\GameLib\AreaLoaderThread.cpp

; 196  : 	if (m_pAreaCompleteDeque.empty())

  00019	75 13		 jne	 SHORT $LN2@Fetch

; 197  : 	{
; 198  : 		m_AreaCompleteMutex.Unlock();

  0001b	8d 8e a8 00 00
	00		 lea	 ecx, DWORD PTR [esi+168]
  00021	e8 00 00 00 00	 call	 ?Unlock@Mutex@@QAEXXZ	; Mutex::Unlock
  00026	5f		 pop	 edi

; 199  : 		return false;

  00027	32 c0		 xor	 al, al

; 207  : }

  00029	5e		 pop	 esi
  0002a	5d		 pop	 ebp
  0002b	c2 04 00	 ret	 4
$LN2@Fetch:
; File C:\Program Files (x86)\Microsoft Visual Studio\2019\Professional\VC\Tools\MSVC\14.29.30133\include\deque

; 44   :         : _Mycont(static_cast<const _Mydeque*>(_Pdeque)), _Myoff(_Off) {}

  0002e	8b 96 a0 00 00
	00		 mov	 edx, DWORD PTR [esi+160]

; 565  :         return (_Off / _Block_size) & (_Mapsize - 1);

  00034	8b c2		 mov	 eax, edx
  00036	8b 8e 9c 00 00
	00		 mov	 ecx, DWORD PTR [esi+156]

; 48   :         _Size_type _Off   = _Myoff % _Block_size;

  0003c	83 e2 03	 and	 edx, 3

; 565  :         return (_Off / _Block_size) & (_Mapsize - 1);

  0003f	c1 e8 02	 shr	 eax, 2
  00042	49		 dec	 ecx
  00043	23 c8		 and	 ecx, eax
; File C:\Users\murat\Desktop\Siveps2-1-99-Project\source\client\Client\GameLib\AreaLoaderThread.cpp

; 202  : 	*ppArea = m_pAreaCompleteDeque.front();

  00045	8b 86 98 00 00
	00		 mov	 eax, DWORD PTR [esi+152]
  0004b	8b 04 88	 mov	 eax, DWORD PTR [eax+ecx*4]
  0004e	8b 0c 90	 mov	 ecx, DWORD PTR [eax+edx*4]
  00051	8b 45 08	 mov	 eax, DWORD PTR _ppArea$[ebp]
  00054	89 08		 mov	 DWORD PTR [eax], ecx
; File C:\Program Files (x86)\Microsoft Visual Studio\2019\Professional\VC\Tools\MSVC\14.29.30133\include\deque

; 1102 :         if (--_Mysize() == 0) {

  00056	83 86 a4 00 00
	00 ff		 add	 DWORD PTR [esi+164], -1
  0005d	75 1d		 jne	 SHORT $LN21@Fetch
; File C:\Users\murat\Desktop\Siveps2-1-99-Project\source\client\Client\GameLib\AreaLoaderThread.cpp

; 205  : 	m_AreaCompleteMutex.Unlock();

  0005f	8d 8e a8 00 00
	00		 lea	 ecx, DWORD PTR [esi+168]
; File C:\Program Files (x86)\Microsoft Visual Studio\2019\Professional\VC\Tools\MSVC\14.29.30133\include\deque

; 1103 :             _Myoff() = 0;

  00065	c7 86 a0 00 00
	00 00 00 00 00	 mov	 DWORD PTR [esi+160], 0
; File C:\Users\murat\Desktop\Siveps2-1-99-Project\source\client\Client\GameLib\AreaLoaderThread.cpp

; 205  : 	m_AreaCompleteMutex.Unlock();

  0006f	e8 00 00 00 00	 call	 ?Unlock@Mutex@@QAEXXZ	; Mutex::Unlock
  00074	5f		 pop	 edi

; 206  : 	return true;

  00075	b0 01		 mov	 al, 1

; 207  : }

  00077	5e		 pop	 esi
  00078	5d		 pop	 ebp
  00079	c2 04 00	 ret	 4
$LN21@Fetch:
; File C:\Program Files (x86)\Microsoft Visual Studio\2019\Professional\VC\Tools\MSVC\14.29.30133\include\deque

; 1105 :             ++_Myoff();

  0007c	ff 86 a0 00 00
	00		 inc	 DWORD PTR [esi+160]
; File C:\Users\murat\Desktop\Siveps2-1-99-Project\source\client\Client\GameLib\AreaLoaderThread.cpp

; 205  : 	m_AreaCompleteMutex.Unlock();

  00082	8d 8e a8 00 00
	00		 lea	 ecx, DWORD PTR [esi+168]
  00088	e8 00 00 00 00	 call	 ?Unlock@Mutex@@QAEXXZ	; Mutex::Unlock
  0008d	5f		 pop	 edi

; 206  : 	return true;

  0008e	b0 01		 mov	 al, 1

; 207  : }

  00090	5e		 pop	 esi
  00091	5d		 pop	 ebp
  00092	c2 04 00	 ret	 4
?Fetch@TEMP_CAreaLoaderThread@@QAE_NPAPAVCArea@@@Z ENDP	; TEMP_CAreaLoaderThread::Fetch
_TEXT	ENDS
; Function compile flags: /Ogtp
; File C:\Users\murat\Desktop\Siveps2-1-99-Project\source\client\Client\GameLib\AreaLoaderThread.cpp
;	COMDAT ?Request@TEMP_CAreaLoaderThread@@QAEXPAVCArea@@@Z
_TEXT	SEGMENT
_pArea$ = 8						; size = 4
?Request@TEMP_CAreaLoaderThread@@QAEXPAVCArea@@@Z PROC	; TEMP_CAreaLoaderThread::Request, COMDAT
; _this$ = ecx

; 179  : {

  00000	55		 push	 ebp
  00001	8b ec		 mov	 ebp, esp
  00003	56		 push	 esi
  00004	57		 push	 edi
  00005	8b f9		 mov	 edi, ecx

; 180  : 	m_AreaRequestMutex.Lock();

  00007	8d 4f 7c	 lea	 ecx, DWORD PTR [edi+124]
  0000a	e8 00 00 00 00	 call	 ?Lock@Mutex@@QAEXXZ	; Mutex::Lock

; 181  : 	m_pAreaRequestDeque.push_back(pArea);

  0000f	8d 45 08	 lea	 eax, DWORD PTR _pArea$[ebp]
  00012	50		 push	 eax
  00013	8d 4f 68	 lea	 ecx, DWORD PTR [edi+104]
  00016	e8 00 00 00 00	 call	 ?push_back@?$deque@PAVCArea@@V?$allocator@PAVCArea@@@std@@@std@@QAEXABQAVCArea@@@Z ; std::deque<CArea *,std::allocator<CArea *> >::push_back

; 182  : 	m_AreaRequestMutex.Unlock();

  0001b	8d 4f 7c	 lea	 ecx, DWORD PTR [edi+124]
  0001e	e8 00 00 00 00	 call	 ?Unlock@Mutex@@QAEXXZ	; Mutex::Unlock

; 183  : 
; 184  : 	++m_iRestSemCount;

  00023	ff 87 c4 00 00
	00		 inc	 DWORD PTR [edi+196]

; 185  : 
; 186  : 	if (!ReleaseSemaphore(m_hSemaphore, m_iRestSemCount, NULL))

  00029	6a 00		 push	 0
  0002b	ff b7 c4 00 00
	00		 push	 DWORD PTR [edi+196]
  00031	ff b7 c0 00 00
	00		 push	 DWORD PTR [edi+192]
  00037	ff 15 00 00 00
	00		 call	 DWORD PTR __imp__ReleaseSemaphore@12
  0003d	85 c0		 test	 eax, eax
  0003f	75 0d		 jne	 SHORT $LN4@Request

; 187  : 		TraceError("TEMP_CAreaLoaderThread::Request: ReleaseSemaphore error");

  00041	68 00 00 00 00	 push	 OFFSET ??_C@_0DI@ILGIOFFC@TEMP_CAreaLoaderThread?3?3Request@
  00046	e8 00 00 00 00	 call	 ?TraceError@@YAXPBDZZ	; TraceError
  0004b	83 c4 04	 add	 esp, 4
$LN4@Request:

; 188  : 
; 189  : 	--m_iRestSemCount;
; 190  : }

  0004e	ff 8f c4 00 00
	00		 dec	 DWORD PTR [edi+196]
  00054	5f		 pop	 edi
  00055	5e		 pop	 esi
  00056	5d		 pop	 ebp
  00057	c2 04 00	 ret	 4
?Request@TEMP_CAreaLoaderThread@@QAEXPAVCArea@@@Z ENDP	; TEMP_CAreaLoaderThread::Request
_TEXT	ENDS
; Function compile flags: /Ogtp
; File C:\Users\murat\Desktop\Siveps2-1-99-Project\source\client\Client\GameLib\AreaLoaderThread.cpp
; File C:\Program Files (x86)\Microsoft Visual Studio\2019\Professional\VC\Tools\MSVC\14.29.30133\include\deque
; File C:\Users\murat\Desktop\Siveps2-1-99-Project\source\client\Client\GameLib\AreaLoaderThread.cpp
; File C:\Program Files (x86)\Microsoft Visual Studio\2019\Professional\VC\Tools\MSVC\14.29.30133\include\deque
; File C:\Users\murat\Desktop\Siveps2-1-99-Project\source\client\Client\GameLib\AreaLoaderThread.cpp
; File C:\Program Files (x86)\Microsoft Visual Studio\2019\Professional\VC\Tools\MSVC\14.29.30133\include\deque
; File C:\Users\murat\Desktop\Siveps2-1-99-Project\source\client\Client\GameLib\AreaLoaderThread.cpp
; File C:\Program Files (x86)\Microsoft Visual Studio\2019\Professional\VC\Tools\MSVC\14.29.30133\include\deque
; File C:\Users\murat\Desktop\Siveps2-1-99-Project\source\client\Client\GameLib\AreaLoaderThread.cpp
; File C:\Program Files (x86)\Microsoft Visual Studio\2019\Professional\VC\Tools\MSVC\14.29.30133\include\deque
; File C:\Users\murat\Desktop\Siveps2-1-99-Project\source\client\Client\GameLib\AreaLoaderThread.cpp
;	COMDAT ?Fetch@TEMP_CAreaLoaderThread@@QAE_NPAPAVCTerrain@@@Z
_TEXT	SEGMENT
_ppTerrain$ = 8						; size = 4
?Fetch@TEMP_CAreaLoaderThread@@QAE_NPAPAVCTerrain@@@Z PROC ; TEMP_CAreaLoaderThread::Fetch, COMDAT
; _this$ = ecx

; 162  : {

  00000	55		 push	 ebp
  00001	8b ec		 mov	 ebp, esp
  00003	56		 push	 esi
  00004	8b f1		 mov	 esi, ecx
  00006	57		 push	 edi

; 163  : 	m_TerrainCompleteMutex.Lock();

  00007	8d 4e 50	 lea	 ecx, DWORD PTR [esi+80]
  0000a	e8 00 00 00 00	 call	 ?Lock@Mutex@@QAEXXZ	; Mutex::Lock
; File C:\Program Files (x86)\Microsoft Visual Studio\2019\Professional\VC\Tools\MSVC\14.29.30133\include\deque

; 1009 :         return _Mysize() == 0;

  0000f	83 7e 4c 00	 cmp	 DWORD PTR [esi+76], 0
; File C:\Users\murat\Desktop\Siveps2-1-99-Project\source\client\Client\GameLib\AreaLoaderThread.cpp

; 165  : 	if (m_pTerrainCompleteDeque.empty())

  00013	75 10		 jne	 SHORT $LN2@Fetch

; 166  : 	{
; 167  : 		m_TerrainCompleteMutex.Unlock();

  00015	8d 4e 50	 lea	 ecx, DWORD PTR [esi+80]
  00018	e8 00 00 00 00	 call	 ?Unlock@Mutex@@QAEXXZ	; Mutex::Unlock
  0001d	5f		 pop	 edi

; 168  : 		return false;

  0001e	32 c0		 xor	 al, al

; 176  : }

  00020	5e		 pop	 esi
  00021	5d		 pop	 ebp
  00022	c2 04 00	 ret	 4
$LN2@Fetch:
; File C:\Program Files (x86)\Microsoft Visual Studio\2019\Professional\VC\Tools\MSVC\14.29.30133\include\deque

; 44   :         : _Mycont(static_cast<const _Mydeque*>(_Pdeque)), _Myoff(_Off) {}

  00025	8b 56 48	 mov	 edx, DWORD PTR [esi+72]

; 565  :         return (_Off / _Block_size) & (_Mapsize - 1);

  00028	8b c2		 mov	 eax, edx
  0002a	8b 4e 44	 mov	 ecx, DWORD PTR [esi+68]

; 48   :         _Size_type _Off   = _Myoff % _Block_size;

  0002d	83 e2 03	 and	 edx, 3

; 565  :         return (_Off / _Block_size) & (_Mapsize - 1);

  00030	c1 e8 02	 shr	 eax, 2
  00033	49		 dec	 ecx
  00034	23 c8		 and	 ecx, eax
; File C:\Users\murat\Desktop\Siveps2-1-99-Project\source\client\Client\GameLib\AreaLoaderThread.cpp

; 171  : 	*ppTerrain = m_pTerrainCompleteDeque.front();

  00036	8b 46 40	 mov	 eax, DWORD PTR [esi+64]
  00039	8b 04 88	 mov	 eax, DWORD PTR [eax+ecx*4]
  0003c	8b 0c 90	 mov	 ecx, DWORD PTR [eax+edx*4]
  0003f	8b 45 08	 mov	 eax, DWORD PTR _ppTerrain$[ebp]
  00042	89 08		 mov	 DWORD PTR [eax], ecx
; File C:\Program Files (x86)\Microsoft Visual Studio\2019\Professional\VC\Tools\MSVC\14.29.30133\include\deque

; 1102 :         if (--_Mysize() == 0) {

  00044	83 46 4c ff	 add	 DWORD PTR [esi+76], -1
  00048	75 17		 jne	 SHORT $LN21@Fetch
; File C:\Users\murat\Desktop\Siveps2-1-99-Project\source\client\Client\GameLib\AreaLoaderThread.cpp

; 174  : 	m_TerrainCompleteMutex.Unlock();

  0004a	8d 4e 50	 lea	 ecx, DWORD PTR [esi+80]
; File C:\Program Files (x86)\Microsoft Visual Studio\2019\Professional\VC\Tools\MSVC\14.29.30133\include\deque

; 1103 :             _Myoff() = 0;

  0004d	c7 46 48 00 00
	00 00		 mov	 DWORD PTR [esi+72], 0
; File C:\Users\murat\Desktop\Siveps2-1-99-Project\source\client\Client\GameLib\AreaLoaderThread.cpp

; 174  : 	m_TerrainCompleteMutex.Unlock();

  00054	e8 00 00 00 00	 call	 ?Unlock@Mutex@@QAEXXZ	; Mutex::Unlock
  00059	5f		 pop	 edi

; 175  : 	return true;

  0005a	b0 01		 mov	 al, 1

; 176  : }

  0005c	5e		 pop	 esi
  0005d	5d		 pop	 ebp
  0005e	c2 04 00	 ret	 4
$LN21@Fetch:
; File C:\Program Files (x86)\Microsoft Visual Studio\2019\Professional\VC\Tools\MSVC\14.29.30133\include\deque

; 1105 :             ++_Myoff();

  00061	ff 46 48	 inc	 DWORD PTR [esi+72]
; File C:\Users\murat\Desktop\Siveps2-1-99-Project\source\client\Client\GameLib\AreaLoaderThread.cpp

; 174  : 	m_TerrainCompleteMutex.Unlock();

  00064	8d 4e 50	 lea	 ecx, DWORD PTR [esi+80]
  00067	e8 00 00 00 00	 call	 ?Unlock@Mutex@@QAEXXZ	; Mutex::Unlock
  0006c	5f		 pop	 edi

; 175  : 	return true;

  0006d	b0 01		 mov	 al, 1

; 176  : }

  0006f	5e		 pop	 esi
  00070	5d		 pop	 ebp
  00071	c2 04 00	 ret	 4
?Fetch@TEMP_CAreaLoaderThread@@QAE_NPAPAVCTerrain@@@Z ENDP ; TEMP_CAreaLoaderThread::Fetch
_TEXT	ENDS
; Function compile flags: /Ogtp
; File C:\Users\murat\Desktop\Siveps2-1-99-Project\source\client\Client\GameLib\AreaLoaderThread.cpp
;	COMDAT ?Request@TEMP_CAreaLoaderThread@@QAEXPAVCTerrain@@@Z
_TEXT	SEGMENT
_pTerrain$ = 8						; size = 4
?Request@TEMP_CAreaLoaderThread@@QAEXPAVCTerrain@@@Z PROC ; TEMP_CAreaLoaderThread::Request, COMDAT
; _this$ = ecx

; 148  : {

  00000	55		 push	 ebp
  00001	8b ec		 mov	 ebp, esp
  00003	56		 push	 esi
  00004	57		 push	 edi
  00005	8b f9		 mov	 edi, ecx

; 149  : 	m_TerrainRequestMutex.Lock();

  00007	8d 4f 24	 lea	 ecx, DWORD PTR [edi+36]
  0000a	e8 00 00 00 00	 call	 ?Lock@Mutex@@QAEXXZ	; Mutex::Lock

; 150  : 	m_pTerrainRequestDeque.push_back(pTerrain);

  0000f	8d 45 08	 lea	 eax, DWORD PTR _pTerrain$[ebp]
  00012	50		 push	 eax
  00013	8d 4f 10	 lea	 ecx, DWORD PTR [edi+16]
  00016	e8 00 00 00 00	 call	 ?push_back@?$deque@PAVCTerrain@@V?$allocator@PAVCTerrain@@@std@@@std@@QAEXABQAVCTerrain@@@Z ; std::deque<CTerrain *,std::allocator<CTerrain *> >::push_back

; 151  : 	m_TerrainRequestMutex.Unlock();

  0001b	8d 4f 24	 lea	 ecx, DWORD PTR [edi+36]
  0001e	e8 00 00 00 00	 call	 ?Unlock@Mutex@@QAEXXZ	; Mutex::Unlock

; 152  : 
; 153  : 	++m_iRestSemCount;

  00023	ff 87 c4 00 00
	00		 inc	 DWORD PTR [edi+196]

; 154  : 
; 155  : 	if (!ReleaseSemaphore(m_hSemaphore, m_iRestSemCount, NULL))

  00029	6a 00		 push	 0
  0002b	ff b7 c4 00 00
	00		 push	 DWORD PTR [edi+196]
  00031	ff b7 c0 00 00
	00		 push	 DWORD PTR [edi+192]
  00037	ff 15 00 00 00
	00		 call	 DWORD PTR __imp__ReleaseSemaphore@12
  0003d	85 c0		 test	 eax, eax
  0003f	75 0d		 jne	 SHORT $LN4@Request

; 156  : 		TraceError("TEMP_CAreaLoaderThread::Request: ReleaseSemaphore error");

  00041	68 00 00 00 00	 push	 OFFSET ??_C@_0DI@ILGIOFFC@TEMP_CAreaLoaderThread?3?3Request@
  00046	e8 00 00 00 00	 call	 ?TraceError@@YAXPBDZZ	; TraceError
  0004b	83 c4 04	 add	 esp, 4
$LN4@Request:

; 157  : 
; 158  : 	--m_iRestSemCount;
; 159  : }

  0004e	ff 8f c4 00 00
	00		 dec	 DWORD PTR [edi+196]
  00054	5f		 pop	 edi
  00055	5e		 pop	 esi
  00056	5d		 pop	 ebp
  00057	c2 04 00	 ret	 4
?Request@TEMP_CAreaLoaderThread@@QAEXPAVCTerrain@@@Z ENDP ; TEMP_CAreaLoaderThread::Request
_TEXT	ENDS
; Function compile flags: /Ogtp
; File C:\Users\murat\Desktop\Siveps2-1-99-Project\source\client\Client\GameLib\AreaLoaderThread.cpp
;	COMDAT ?Shutdown@TEMP_CAreaLoaderThread@@QAEXXZ
_TEXT	SEGMENT
?Shutdown@TEMP_CAreaLoaderThread@@QAEXXZ PROC		; TEMP_CAreaLoaderThread::Shutdown, COMDAT
; _this$ = ecx

; 100  : {

  00000	56		 push	 esi
  00001	8b f1		 mov	 esi, ecx

; 101  : 	if (!m_hSemaphore)

  00003	83 be c0 00 00
	00 00		 cmp	 DWORD PTR [esi+192], 0
  0000a	74 33		 je	 SHORT $LN1@Shutdown

; 102  : 		return;
; 103  : 
; 104  : 	BOOL bRet;
; 105  : 
; 106  : 	m_bShutdowned = true;

  0000c	57		 push	 edi
  0000d	8b 3d 00 00 00
	00		 mov	 edi, DWORD PTR __imp__ReleaseSemaphore@12
  00013	c6 86 c8 00 00
	00 01		 mov	 BYTE PTR [esi+200], 1
  0001a	66 0f 1f 44 00
	00		 npad	 6
$LL4@Shutdown:

; 107  : 
; 108  : 	do
; 109  : 	{
; 110  : 		bRet = ReleaseSemaphore(m_hSemaphore, 1, NULL);

  00020	6a 00		 push	 0
  00022	6a 01		 push	 1
  00024	ff b6 c0 00 00
	00		 push	 DWORD PTR [esi+192]
  0002a	ff d7		 call	 edi

; 111  : 	}
; 112  : 	while (!bRet);

  0002c	85 c0		 test	 eax, eax
  0002e	74 f0		 je	 SHORT $LL4@Shutdown

; 113  : 
; 114  : 	WaitForSingleObject(m_hThread, 10000);	//    10 

  00030	68 10 27 00 00	 push	 10000			; 00002710H
  00035	ff 76 04	 push	 DWORD PTR [esi+4]
  00038	ff 15 00 00 00
	00		 call	 DWORD PTR __imp__WaitForSingleObject@8
  0003e	5f		 pop	 edi
$LN1@Shutdown:

; 115  : }

  0003f	5e		 pop	 esi
  00040	c3		 ret	 0
?Shutdown@TEMP_CAreaLoaderThread@@QAEXXZ ENDP		; TEMP_CAreaLoaderThread::Shutdown
_TEXT	ENDS
; Function compile flags: /Ogtp
; File C:\Users\murat\Desktop\Siveps2-1-99-Project\source\client\Client\GameLib\AreaLoaderThread.cpp
;	COMDAT ?Create@TEMP_CAreaLoaderThread@@QAE_NPAX@Z
_TEXT	SEGMENT
_arg$ = 8						; size = 4
?Create@TEMP_CAreaLoaderThread@@QAE_NPAX@Z PROC		; TEMP_CAreaLoaderThread::Create, COMDAT
; _this$ = ecx

; 28   : {

  00000	55		 push	 ebp
  00001	8b ec		 mov	 ebp, esp

; 29   : 	Arg(arg);

  00003	8b 45 08	 mov	 eax, DWORD PTR _arg$[ebp]
  00006	56		 push	 esi
  00007	8b f1		 mov	 esi, ecx
  00009	89 46 08	 mov	 DWORD PTR [esi+8], eax

; 30   : 	m_hThread = (HANDLE) _beginthreadex(NULL, 0, EntryPoint, this, 0, &m_uThreadID);

  0000c	8d 46 0c	 lea	 eax, DWORD PTR [esi+12]
  0000f	50		 push	 eax
  00010	6a 00		 push	 0
  00012	56		 push	 esi
  00013	68 00 00 00 00	 push	 OFFSET ?EntryPoint@TEMP_CAreaLoaderThread@@KGIPAX@Z ; TEMP_CAreaLoaderThread::EntryPoint
  00018	6a 00		 push	 0
  0001a	6a 00		 push	 0
  0001c	e8 00 00 00 00	 call	 __beginthreadex
  00021	83 c4 18	 add	 esp, 24			; 00000018H
  00024	89 46 04	 mov	 DWORD PTR [esi+4], eax
  00027	5e		 pop	 esi

; 31   : 
; 32   : 	if (!m_hThread)

  00028	85 c0		 test	 eax, eax
  0002a	75 06		 jne	 SHORT $LN2@Create

; 33   : 		return false;

  0002c	32 c0		 xor	 al, al

; 37   : }

  0002e	5d		 pop	 ebp
  0002f	c2 04 00	 ret	 4
$LN2@Create:

; 34   : 
; 35   : 	SetThreadPriority(m_hThread, THREAD_PRIORITY_NORMAL);

  00032	6a 00		 push	 0
  00034	50		 push	 eax
  00035	ff 15 00 00 00
	00		 call	 DWORD PTR __imp__SetThreadPriority@8

; 36   : 	return true;

  0003b	b0 01		 mov	 al, 1

; 37   : }

  0003d	5d		 pop	 ebp
  0003e	c2 04 00	 ret	 4
?Create@TEMP_CAreaLoaderThread@@QAE_NPAX@Z ENDP		; TEMP_CAreaLoaderThread::Create
_TEXT	ENDS
; Function compile flags: /Ogtp
; File C:\Users\murat\Desktop\Siveps2-1-99-Project\source\client\Client\GameLib\AreaLoaderThread.cpp
;	COMDAT ??1TEMP_CAreaLoaderThread@@UAE@XZ
_TEXT	SEGMENT
??1TEMP_CAreaLoaderThread@@UAE@XZ PROC			; TEMP_CAreaLoaderThread::~TEMP_CAreaLoaderThread, COMDAT
; _this$ = ecx

; 23   : {

  00000	56		 push	 esi
  00001	8b f1		 mov	 esi, ecx
  00003	c7 06 00 00 00
	00		 mov	 DWORD PTR [esi], OFFSET ??_7TEMP_CAreaLoaderThread@@6B@

; 24   : 	Destroy();

  00009	e8 00 00 00 00	 call	 ?Destroy@TEMP_CAreaLoaderThread@@IAEXXZ ; TEMP_CAreaLoaderThread::Destroy

; 25   : }

  0000e	8d 8e a8 00 00
	00		 lea	 ecx, DWORD PTR [esi+168]
  00014	e8 00 00 00 00	 call	 ??1Mutex@@QAE@XZ	; Mutex::~Mutex
  00019	8d 8e 94 00 00
	00		 lea	 ecx, DWORD PTR [esi+148]
  0001f	e8 00 00 00 00	 call	 ??1?$deque@PAVCArea@@V?$allocator@PAVCArea@@@std@@@std@@QAE@XZ ; std::deque<CArea *,std::allocator<CArea *> >::~deque<CArea *,std::allocator<CArea *> >
  00024	8d 4e 7c	 lea	 ecx, DWORD PTR [esi+124]
  00027	e8 00 00 00 00	 call	 ??1Mutex@@QAE@XZ	; Mutex::~Mutex
  0002c	8d 4e 68	 lea	 ecx, DWORD PTR [esi+104]
  0002f	e8 00 00 00 00	 call	 ??1?$deque@PAVCArea@@V?$allocator@PAVCArea@@@std@@@std@@QAE@XZ ; std::deque<CArea *,std::allocator<CArea *> >::~deque<CArea *,std::allocator<CArea *> >
  00034	8d 4e 50	 lea	 ecx, DWORD PTR [esi+80]
  00037	e8 00 00 00 00	 call	 ??1Mutex@@QAE@XZ	; Mutex::~Mutex
  0003c	8d 4e 3c	 lea	 ecx, DWORD PTR [esi+60]
  0003f	e8 00 00 00 00	 call	 ??1?$deque@PAVCTerrain@@V?$allocator@PAVCTerrain@@@std@@@std@@QAE@XZ ; std::deque<CTerrain *,std::allocator<CTerrain *> >::~deque<CTerrain *,std::allocator<CTerrain *> >
  00044	8d 4e 24	 lea	 ecx, DWORD PTR [esi+36]
  00047	e8 00 00 00 00	 call	 ??1Mutex@@QAE@XZ	; Mutex::~Mutex
  0004c	8d 4e 10	 lea	 ecx, DWORD PTR [esi+16]
  0004f	5e		 pop	 esi
  00050	e9 00 00 00 00	 jmp	 ??1?$deque@PAVCTerrain@@V?$allocator@PAVCTerrain@@@std@@@std@@QAE@XZ ; std::deque<CTerrain *,std::allocator<CTerrain *> >::~deque<CTerrain *,std::allocator<CTerrain *> >
??1TEMP_CAreaLoaderThread@@UAE@XZ ENDP			; TEMP_CAreaLoaderThread::~TEMP_CAreaLoaderThread
_TEXT	ENDS
; Function compile flags: /Ogtp
; File C:\Users\murat\Desktop\Siveps2-1-99-Project\source\client\Client\GameLib\AreaLoaderThread.cpp
; File C:\Program Files (x86)\Microsoft Visual Studio\2019\Professional\VC\Tools\MSVC\14.29.30133\include\xmemory
; File C:\Program Files (x86)\Microsoft Visual Studio\2019\Professional\VC\Tools\MSVC\14.29.30133\include\deque
; File C:\Program Files (x86)\Microsoft Visual Studio\2019\Professional\VC\Tools\MSVC\14.29.30133\include\xmemory
; File C:\Users\murat\Desktop\Siveps2-1-99-Project\source\client\Client\GameLib\AreaLoaderThread.cpp
; File C:\Program Files (x86)\Microsoft Visual Studio\2019\Professional\VC\Tools\MSVC\14.29.30133\include\xmemory
; File C:\Program Files (x86)\Microsoft Visual Studio\2019\Professional\VC\Tools\MSVC\14.29.30133\include\deque
; File C:\Program Files (x86)\Microsoft Visual Studio\2019\Professional\VC\Tools\MSVC\14.29.30133\include\xmemory
; File C:\Users\murat\Desktop\Siveps2-1-99-Project\source\client\Client\GameLib\AreaLoaderThread.cpp
; File C:\Program Files (x86)\Microsoft Visual Studio\2019\Professional\VC\Tools\MSVC\14.29.30133\include\xmemory
; File C:\Program Files (x86)\Microsoft Visual Studio\2019\Professional\VC\Tools\MSVC\14.29.30133\include\deque
; File C:\Program Files (x86)\Microsoft Visual Studio\2019\Professional\VC\Tools\MSVC\14.29.30133\include\xmemory
; File C:\Users\murat\Desktop\Siveps2-1-99-Project\source\client\Client\GameLib\AreaLoaderThread.cpp
; File C:\Program Files (x86)\Microsoft Visual Studio\2019\Professional\VC\Tools\MSVC\14.29.30133\include\xmemory
; File C:\Program Files (x86)\Microsoft Visual Studio\2019\Professional\VC\Tools\MSVC\14.29.30133\include\deque
; File C:\Program Files (x86)\Microsoft Visual Studio\2019\Professional\VC\Tools\MSVC\14.29.30133\include\xmemory
; File C:\Users\murat\Desktop\Siveps2-1-99-Project\source\client\Client\GameLib\AreaLoaderThread.cpp
;	COMDAT ??0TEMP_CAreaLoaderThread@@QAE@XZ
_TEXT	SEGMENT
_this$ = -16						; size = 4
__$EHRec$ = -12						; size = 12
??0TEMP_CAreaLoaderThread@@QAE@XZ PROC			; TEMP_CAreaLoaderThread::TEMP_CAreaLoaderThread, COMDAT
; _this$ = ecx

; 18   : {

  00000	55		 push	 ebp
  00001	8b ec		 mov	 ebp, esp
  00003	6a ff		 push	 -1
  00005	68 00 00 00 00	 push	 __ehhandler$??0TEMP_CAreaLoaderThread@@QAE@XZ
  0000a	64 a1 00 00 00
	00		 mov	 eax, DWORD PTR fs:0
  00010	50		 push	 eax
  00011	51		 push	 ecx
  00012	56		 push	 esi
  00013	57		 push	 edi
  00014	a1 00 00 00 00	 mov	 eax, DWORD PTR ___security_cookie
  00019	33 c5		 xor	 eax, ebp
  0001b	50		 push	 eax
  0001c	8d 45 f4	 lea	 eax, DWORD PTR __$EHRec$[ebp]
  0001f	64 a3 00 00 00
	00		 mov	 DWORD PTR fs:0, eax
  00025	8b f9		 mov	 edi, ecx
  00027	89 7d f0	 mov	 DWORD PTR _this$[ebp], edi
  0002a	c7 07 00 00 00
	00		 mov	 DWORD PTR [edi], OFFSET ??_7TEMP_CAreaLoaderThread@@6B@
  00030	8d 77 10	 lea	 esi, DWORD PTR [edi+16]
  00033	c7 47 04 00 00
	00 00		 mov	 DWORD PTR [edi+4], 0
  0003a	c7 47 08 00 00
	00 00		 mov	 DWORD PTR [edi+8], 0
  00041	c7 47 0c 00 00
	00 00		 mov	 DWORD PTR [edi+12], 0
; File C:\Program Files (x86)\Microsoft Visual Studio\2019\Professional\VC\Tools\MSVC\14.29.30133\include\xmemory

; 85   :         return ::operator new(_Bytes);

  00048	6a 08		 push	 8

; 1089 :     _Container_proxy* _Myproxy = nullptr;

  0004a	c7 06 00 00 00
	00		 mov	 DWORD PTR [esi], 0
; File C:\Program Files (x86)\Microsoft Visual Studio\2019\Professional\VC\Tools\MSVC\14.29.30133\include\deque

; 561  :     _Deque_val() noexcept : _Map(), _Mapsize(0), _Myoff(0), _Mysize(0) {}

  00050	c7 46 04 00 00
	00 00		 mov	 DWORD PTR [esi+4], 0
  00057	c7 46 08 00 00
	00 00		 mov	 DWORD PTR [esi+8], 0
  0005e	c7 46 0c 00 00
	00 00		 mov	 DWORD PTR [esi+12], 0
  00065	c7 46 10 00 00
	00 00		 mov	 DWORD PTR [esi+16], 0
; File C:\Program Files (x86)\Microsoft Visual Studio\2019\Professional\VC\Tools\MSVC\14.29.30133\include\xmemory

; 85   :         return ::operator new(_Bytes);

  0006c	e8 00 00 00 00	 call	 ??2@YAPAXI@Z		; operator new
  00071	83 c4 04	 add	 esp, 4

; 1059 :     mutable _Iterator_base12* _Myfirstiter = nullptr;

  00074	c7 40 04 00 00
	00 00		 mov	 DWORD PTR [eax+4], 0

; 1076 :         _Myproxy            = _New_proxy;

  0007b	89 06		 mov	 DWORD PTR [esi], eax

; 1077 :         _New_proxy->_Mycont = this;

  0007d	89 30		 mov	 DWORD PTR [eax], esi
; File C:\Users\murat\Desktop\Siveps2-1-99-Project\source\client\Client\GameLib\AreaLoaderThread.cpp

; 18   : {

  0007f	8d 4f 24	 lea	 ecx, DWORD PTR [edi+36]
  00082	c7 45 fc 00 00
	00 00		 mov	 DWORD PTR __$EHRec$[ebp+8], 0
  00089	e8 00 00 00 00	 call	 ??0Mutex@@QAE@XZ	; Mutex::Mutex
  0008e	8d 77 3c	 lea	 esi, DWORD PTR [edi+60]
  00091	c6 45 fc 01	 mov	 BYTE PTR __$EHRec$[ebp+8], 1
; File C:\Program Files (x86)\Microsoft Visual Studio\2019\Professional\VC\Tools\MSVC\14.29.30133\include\xmemory

; 85   :         return ::operator new(_Bytes);

  00095	6a 08		 push	 8

; 1089 :     _Container_proxy* _Myproxy = nullptr;

  00097	c7 06 00 00 00
	00		 mov	 DWORD PTR [esi], 0
; File C:\Program Files (x86)\Microsoft Visual Studio\2019\Professional\VC\Tools\MSVC\14.29.30133\include\deque

; 561  :     _Deque_val() noexcept : _Map(), _Mapsize(0), _Myoff(0), _Mysize(0) {}

  0009d	c7 46 04 00 00
	00 00		 mov	 DWORD PTR [esi+4], 0
  000a4	c7 46 08 00 00
	00 00		 mov	 DWORD PTR [esi+8], 0
  000ab	c7 46 0c 00 00
	00 00		 mov	 DWORD PTR [esi+12], 0
  000b2	c7 46 10 00 00
	00 00		 mov	 DWORD PTR [esi+16], 0
; File C:\Program Files (x86)\Microsoft Visual Studio\2019\Professional\VC\Tools\MSVC\14.29.30133\include\xmemory

; 85   :         return ::operator new(_Bytes);

  000b9	e8 00 00 00 00	 call	 ??2@YAPAXI@Z		; operator new
  000be	83 c4 04	 add	 esp, 4

; 1059 :     mutable _Iterator_base12* _Myfirstiter = nullptr;

  000c1	c7 40 04 00 00
	00 00		 mov	 DWORD PTR [eax+4], 0

; 1076 :         _Myproxy            = _New_proxy;

  000c8	89 06		 mov	 DWORD PTR [esi], eax

; 1077 :         _New_proxy->_Mycont = this;

  000ca	89 30		 mov	 DWORD PTR [eax], esi
; File C:\Users\murat\Desktop\Siveps2-1-99-Project\source\client\Client\GameLib\AreaLoaderThread.cpp

; 18   : {

  000cc	8d 4f 50	 lea	 ecx, DWORD PTR [edi+80]
  000cf	c6 45 fc 02	 mov	 BYTE PTR __$EHRec$[ebp+8], 2
  000d3	e8 00 00 00 00	 call	 ??0Mutex@@QAE@XZ	; Mutex::Mutex
  000d8	8d 77 68	 lea	 esi, DWORD PTR [edi+104]
  000db	c6 45 fc 03	 mov	 BYTE PTR __$EHRec$[ebp+8], 3
; File C:\Program Files (x86)\Microsoft Visual Studio\2019\Professional\VC\Tools\MSVC\14.29.30133\include\xmemory

; 85   :         return ::operator new(_Bytes);

  000df	6a 08		 push	 8

; 1089 :     _Container_proxy* _Myproxy = nullptr;

  000e1	c7 06 00 00 00
	00		 mov	 DWORD PTR [esi], 0
; File C:\Program Files (x86)\Microsoft Visual Studio\2019\Professional\VC\Tools\MSVC\14.29.30133\include\deque

; 561  :     _Deque_val() noexcept : _Map(), _Mapsize(0), _Myoff(0), _Mysize(0) {}

  000e7	c7 46 04 00 00
	00 00		 mov	 DWORD PTR [esi+4], 0
  000ee	c7 46 08 00 00
	00 00		 mov	 DWORD PTR [esi+8], 0
  000f5	c7 46 0c 00 00
	00 00		 mov	 DWORD PTR [esi+12], 0
  000fc	c7 46 10 00 00
	00 00		 mov	 DWORD PTR [esi+16], 0
; File C:\Program Files (x86)\Microsoft Visual Studio\2019\Professional\VC\Tools\MSVC\14.29.30133\include\xmemory

; 85   :         return ::operator new(_Bytes);

  00103	e8 00 00 00 00	 call	 ??2@YAPAXI@Z		; operator new
  00108	83 c4 04	 add	 esp, 4

; 1059 :     mutable _Iterator_base12* _Myfirstiter = nullptr;

  0010b	c7 40 04 00 00
	00 00		 mov	 DWORD PTR [eax+4], 0

; 1076 :         _Myproxy            = _New_proxy;

  00112	89 06		 mov	 DWORD PTR [esi], eax

; 1077 :         _New_proxy->_Mycont = this;

  00114	89 30		 mov	 DWORD PTR [eax], esi
; File C:\Users\murat\Desktop\Siveps2-1-99-Project\source\client\Client\GameLib\AreaLoaderThread.cpp

; 18   : {

  00116	8d 4f 7c	 lea	 ecx, DWORD PTR [edi+124]
  00119	c6 45 fc 04	 mov	 BYTE PTR __$EHRec$[ebp+8], 4
  0011d	e8 00 00 00 00	 call	 ??0Mutex@@QAE@XZ	; Mutex::Mutex
  00122	8d b7 94 00 00
	00		 lea	 esi, DWORD PTR [edi+148]
  00128	c6 45 fc 05	 mov	 BYTE PTR __$EHRec$[ebp+8], 5
; File C:\Program Files (x86)\Microsoft Visual Studio\2019\Professional\VC\Tools\MSVC\14.29.30133\include\xmemory

; 85   :         return ::operator new(_Bytes);

  0012c	6a 08		 push	 8

; 1089 :     _Container_proxy* _Myproxy = nullptr;

  0012e	c7 06 00 00 00
	00		 mov	 DWORD PTR [esi], 0
; File C:\Program Files (x86)\Microsoft Visual Studio\2019\Professional\VC\Tools\MSVC\14.29.30133\include\deque

; 561  :     _Deque_val() noexcept : _Map(), _Mapsize(0), _Myoff(0), _Mysize(0) {}

  00134	c7 46 04 00 00
	00 00		 mov	 DWORD PTR [esi+4], 0
  0013b	c7 46 08 00 00
	00 00		 mov	 DWORD PTR [esi+8], 0
  00142	c7 46 0c 00 00
	00 00		 mov	 DWORD PTR [esi+12], 0
  00149	c7 46 10 00 00
	00 00		 mov	 DWORD PTR [esi+16], 0
; File C:\Program Files (x86)\Microsoft Visual Studio\2019\Professional\VC\Tools\MSVC\14.29.30133\include\xmemory

; 85   :         return ::operator new(_Bytes);

  00150	e8 00 00 00 00	 call	 ??2@YAPAXI@Z		; operator new
  00155	83 c4 04	 add	 esp, 4

; 1059 :     mutable _Iterator_base12* _Myfirstiter = nullptr;

  00158	c7 40 04 00 00
	00 00		 mov	 DWORD PTR [eax+4], 0

; 1076 :         _Myproxy            = _New_proxy;

  0015f	89 06		 mov	 DWORD PTR [esi], eax

; 1077 :         _New_proxy->_Mycont = this;

  00161	89 30		 mov	 DWORD PTR [eax], esi
; File C:\Users\murat\Desktop\Siveps2-1-99-Project\source\client\Client\GameLib\AreaLoaderThread.cpp

; 18   : {

  00163	8d 8f a8 00 00
	00		 lea	 ecx, DWORD PTR [edi+168]
  00169	c6 45 fc 06	 mov	 BYTE PTR __$EHRec$[ebp+8], 6
  0016d	e8 00 00 00 00	 call	 ??0Mutex@@QAE@XZ	; Mutex::Mutex

; 17   : TEMP_CAreaLoaderThread::TEMP_CAreaLoaderThread() : m_bShutdowned(false), m_pArg(NULL), m_hThread(NULL), m_uThreadID(0)

  00172	c6 87 c8 00 00
	00 00		 mov	 BYTE PTR [edi+200], 0

; 19   : 
; 20   : }

  00179	8b c7		 mov	 eax, edi
  0017b	8b 4d f4	 mov	 ecx, DWORD PTR __$EHRec$[ebp]
  0017e	64 89 0d 00 00
	00 00		 mov	 DWORD PTR fs:0, ecx
  00185	59		 pop	 ecx
  00186	5f		 pop	 edi
  00187	5e		 pop	 esi
  00188	8b e5		 mov	 esp, ebp
  0018a	5d		 pop	 ebp
  0018b	c3		 ret	 0
_TEXT	ENDS
;	COMDAT text$x
text$x	SEGMENT
__unwindfunclet$??0TEMP_CAreaLoaderThread@@QAE@XZ$0:
  00000	8b 4d f0	 mov	 ecx, DWORD PTR _this$[ebp]
  00003	83 c1 10	 add	 ecx, 16			; 00000010H
  00006	e9 00 00 00 00	 jmp	 ??1?$deque@PAVCTerrain@@V?$allocator@PAVCTerrain@@@std@@@std@@QAE@XZ ; std::deque<CTerrain *,std::allocator<CTerrain *> >::~deque<CTerrain *,std::allocator<CTerrain *> >
__unwindfunclet$??0TEMP_CAreaLoaderThread@@QAE@XZ$1:
  0000b	8b 4d f0	 mov	 ecx, DWORD PTR _this$[ebp]
  0000e	83 c1 24	 add	 ecx, 36			; 00000024H
  00011	e9 00 00 00 00	 jmp	 ??1Mutex@@QAE@XZ	; Mutex::~Mutex
__unwindfunclet$??0TEMP_CAreaLoaderThread@@QAE@XZ$2:
  00016	8b 4d f0	 mov	 ecx, DWORD PTR _this$[ebp]
  00019	83 c1 3c	 add	 ecx, 60			; 0000003cH
  0001c	e9 00 00 00 00	 jmp	 ??1?$deque@PAVCTerrain@@V?$allocator@PAVCTerrain@@@std@@@std@@QAE@XZ ; std::deque<CTerrain *,std::allocator<CTerrain *> >::~deque<CTerrain *,std::allocator<CTerrain *> >
__unwindfunclet$??0TEMP_CAreaLoaderThread@@QAE@XZ$3:
  00021	8b 4d f0	 mov	 ecx, DWORD PTR _this$[ebp]
  00024	83 c1 50	 add	 ecx, 80			; 00000050H
  00027	e9 00 00 00 00	 jmp	 ??1Mutex@@QAE@XZ	; Mutex::~Mutex
__unwindfunclet$??0TEMP_CAreaLoaderThread@@QAE@XZ$4:
  0002c	8b 4d f0	 mov	 ecx, DWORD PTR _this$[ebp]
  0002f	83 c1 68	 add	 ecx, 104		; 00000068H
  00032	e9 00 00 00 00	 jmp	 ??1?$deque@PAVCArea@@V?$allocator@PAVCArea@@@std@@@std@@QAE@XZ ; std::deque<CArea *,std::allocator<CArea *> >::~deque<CArea *,std::allocator<CArea *> >
__unwindfunclet$??0TEMP_CAreaLoaderThread@@QAE@XZ$5:
  00037	8b 4d f0	 mov	 ecx, DWORD PTR _this$[ebp]
  0003a	83 c1 7c	 add	 ecx, 124		; 0000007cH
  0003d	e9 00 00 00 00	 jmp	 ??1Mutex@@QAE@XZ	; Mutex::~Mutex
__unwindfunclet$??0TEMP_CAreaLoaderThread@@QAE@XZ$6:
  00042	8b 4d f0	 mov	 ecx, DWORD PTR _this$[ebp]
  00045	81 c1 94 00 00
	00		 add	 ecx, 148		; 00000094H
  0004b	e9 00 00 00 00	 jmp	 ??1?$deque@PAVCArea@@V?$allocator@PAVCArea@@@std@@@std@@QAE@XZ ; std::deque<CArea *,std::allocator<CArea *> >::~deque<CArea *,std::allocator<CArea *> >
  00050	cc		 int	 3
  00051	cc		 int	 3
  00052	cc		 int	 3
  00053	cc		 int	 3
  00054	cc		 int	 3
__ehhandler$??0TEMP_CAreaLoaderThread@@QAE@XZ:
  00055	90		 npad	 1
  00056	90		 npad	 1
  00057	8b 54 24 08	 mov	 edx, DWORD PTR [esp+8]
  0005b	8d 42 0c	 lea	 eax, DWORD PTR [edx+12]
  0005e	8b 4a f0	 mov	 ecx, DWORD PTR [edx-16]
  00061	33 c8		 xor	 ecx, eax
  00063	e8 00 00 00 00	 call	 @__security_check_cookie@4
  00068	b8 00 00 00 00	 mov	 eax, OFFSET __ehfuncinfo$??0TEMP_CAreaLoaderThread@@QAE@XZ
  0006d	e9 00 00 00 00	 jmp	 ___CxxFrameHandler3
text$x	ENDS
??0TEMP_CAreaLoaderThread@@QAE@XZ ENDP			; TEMP_CAreaLoaderThread::TEMP_CAreaLoaderThread
; Function compile flags: /Ogtp
; File C:\Program Files (x86)\Microsoft Visual Studio\2019\Professional\VC\Tools\MSVC\14.29.30133\include\xmemory
;	COMDAT ??$_Allocate_manually_vector_aligned@U_Default_allocate_traits@std@@@std@@YAPAXI@Z
_TEXT	SEGMENT
__Bytes$ = 8						; size = 4
??$_Allocate_manually_vector_aligned@U_Default_allocate_traits@std@@@std@@YAPAXI@Z PROC ; std::_Allocate_manually_vector_aligned<std::_Default_allocate_traits>, COMDAT

; 134  : __declspec(allocator) void* _Allocate_manually_vector_aligned(const size_t _Bytes) {

  00000	55		 push	 ebp
  00001	8b ec		 mov	 ebp, esp

; 135  :     // allocate _Bytes manually aligned to at least _Big_allocation_alignment
; 136  :     const size_t _Block_size = _Non_user_size + _Bytes;

  00003	8b 45 08	 mov	 eax, DWORD PTR __Bytes$[ebp]
  00006	8d 48 23	 lea	 ecx, DWORD PTR [eax+35]

; 137  :     if (_Block_size <= _Bytes) {

  00009	3b c8		 cmp	 ecx, eax
  0000b	0f 86 00 00 00
	00		 jbe	 ?_Throw_bad_array_new_length@std@@YAXXZ ; std::_Throw_bad_array_new_length

; 85   :         return ::operator new(_Bytes);

  00011	51		 push	 ecx
  00012	e8 00 00 00 00	 call	 ??2@YAPAXI@Z		; operator new

; 138  :         _Throw_bad_array_new_length(); // add overflow
; 139  :     }
; 140  : 
; 141  :     const uintptr_t _Ptr_container = reinterpret_cast<uintptr_t>(_Traits::_Allocate(_Block_size));

  00017	8b c8		 mov	 ecx, eax

; 85   :         return ::operator new(_Bytes);

  00019	83 c4 04	 add	 esp, 4

; 142  :     _STL_VERIFY(_Ptr_container != 0, "invalid argument"); // validate even in release since we're doing p[-1]

  0001c	85 c9		 test	 ecx, ecx
  0001e	74 0b		 je	 SHORT $LN7@Allocate_m

; 143  :     void* const _Ptr = reinterpret_cast<void*>((_Ptr_container + _Non_user_size) & ~(_Big_allocation_alignment - 1));

  00020	8d 41 23	 lea	 eax, DWORD PTR [ecx+35]
  00023	83 e0 e0	 and	 eax, -32		; ffffffe0H

; 144  :     static_cast<uintptr_t*>(_Ptr)[-1] = _Ptr_container;

  00026	89 48 fc	 mov	 DWORD PTR [eax-4], ecx

; 145  : 
; 146  : #ifdef _DEBUG
; 147  :     static_cast<uintptr_t*>(_Ptr)[-2] = _Big_allocation_sentinel;
; 148  : #endif // _DEBUG
; 149  :     return _Ptr;
; 150  : }

  00029	5d		 pop	 ebp
  0002a	c3		 ret	 0
$LN7@Allocate_m:

; 142  :     _STL_VERIFY(_Ptr_container != 0, "invalid argument"); // validate even in release since we're doing p[-1]

  0002b	e9 00 00 00 00	 jmp	 __invalid_parameter_noinfo_noreturn
??$_Allocate_manually_vector_aligned@U_Default_allocate_traits@std@@@std@@YAPAXI@Z ENDP ; std::_Allocate_manually_vector_aligned<std::_Default_allocate_traits>
_TEXT	ENDS
; Function compile flags: /Ogtp
; File C:\Program Files (x86)\Microsoft Visual Studio\2019\Professional\VC\Tools\MSVC\14.29.30133\include\vector
; File C:\Program Files (x86)\Microsoft Visual Studio\2019\Professional\VC\Tools\MSVC\14.29.30133\include\xmemory
; File C:\Program Files (x86)\Microsoft Visual Studio\2019\Professional\VC\Tools\MSVC\14.29.30133\include\xstring
; File C:\Program Files (x86)\Microsoft Visual Studio\2019\Professional\VC\Tools\MSVC\14.29.30133\include\xmemory
; File C:\Program Files (x86)\Microsoft Visual Studio\2019\Professional\VC\Tools\MSVC\14.29.30133\include\xstring
; File C:\Program Files (x86)\Microsoft Visual Studio\2019\Professional\VC\Tools\MSVC\14.29.30133\include\xmemory
; File C:\Program Files (x86)\Microsoft Visual Studio\2019\Professional\VC\Tools\MSVC\14.29.30133\include\xstring
; File C:\Program Files (x86)\Microsoft Visual Studio\2019\Professional\VC\Tools\MSVC\14.29.30133\include\xmemory
; File C:\Program Files (x86)\Microsoft Visual Studio\2019\Professional\VC\Tools\MSVC\14.29.30133\include\vector
; File C:\Program Files (x86)\Microsoft Visual Studio\2019\Professional\VC\Tools\MSVC\14.29.30133\include\xmemory
; File C:\Program Files (x86)\Microsoft Visual Studio\2019\Professional\VC\Tools\MSVC\14.29.30133\include\vector
; File C:\Program Files (x86)\Microsoft Visual Studio\2019\Professional\VC\Tools\MSVC\14.29.30133\include\xmemory
; File C:\Program Files (x86)\Microsoft Visual Studio\2019\Professional\VC\Tools\MSVC\14.29.30133\include\vector
; File C:\Program Files (x86)\Microsoft Visual Studio\2019\Professional\VC\Tools\MSVC\14.29.30133\include\xmemory
; File C:\Program Files (x86)\Microsoft Visual Studio\2019\Professional\VC\Tools\MSVC\14.29.30133\include\vector
; File C:\Program Files (x86)\Microsoft Visual Studio\2019\Professional\VC\Tools\MSVC\14.29.30133\include\xmemory
; File C:\Program Files (x86)\Microsoft Visual Studio\2019\Professional\VC\Tools\MSVC\14.29.30133\include\vector
;	COMDAT ??1?$vector@V?$basic_string@DU?$char_traits@D@std@@V?$allocator@D@2@@std@@V?$allocator@V?$basic_string@DU?$char_traits@D@std@@V?$allocator@D@2@@std@@@2@@std@@QAE@XZ
_TEXT	SEGMENT
??1?$vector@V?$basic_string@DU?$char_traits@D@std@@V?$allocator@D@2@@std@@V?$allocator@V?$basic_string@DU?$char_traits@D@std@@V?$allocator@D@2@@std@@@2@@std@@QAE@XZ PROC ; std::vector<std::basic_string<char,std::char_traits<char>,std::allocator<char> >,std::allocator<std::basic_string<char,std::char_traits<char>,std::allocator<char> > > >::~vector<std::basic_string<char,std::char_traits<char>,std::allocator<char> >,std::allocator<std::basic_string<char,std::char_traits<char>,std::allocator<char> > > >, COMDAT
; _this$ = ecx

; 711  :     _CONSTEXPR20_CONTAINER ~vector() noexcept {

  00000	56		 push	 esi
  00001	57		 push	 edi
  00002	8b f9		 mov	 edi, ecx

; 1763 :         if (_Myfirst) { // destroy and deallocate old array

  00004	8b 37		 mov	 esi, DWORD PTR [edi]
  00006	85 f6		 test	 esi, esi
  00008	0f 84 a5 00 00
	00		 je	 $LN4@vector

; 1764 :             _Destroy(_Myfirst, _Mylast);

  0000e	53		 push	 ebx
  0000f	8b 5f 04	 mov	 ebx, DWORD PTR [edi+4]
; File C:\Program Files (x86)\Microsoft Visual Studio\2019\Professional\VC\Tools\MSVC\14.29.30133\include\xmemory

; 949  :         for (; _First != _Last; ++_First) {

  00012	3b f3		 cmp	 esi, ebx
  00014	74 49		 je	 SHORT $LN10@vector
$LL11@vector:
; File C:\Program Files (x86)\Microsoft Visual Studio\2019\Professional\VC\Tools\MSVC\14.29.30133\include\xstring

; 2319 :         return _BUF_SIZE <= _Myres;

  00016	8b 4e 14	 mov	 ecx, DWORD PTR [esi+20]
  00019	83 f9 10	 cmp	 ecx, 16			; 00000010H

; 4618 :         if (_Mypair._Myval2._Large_string_engaged()) {

  0001c	72 27		 jb	 SHORT $LN30@vector
; File C:\Program Files (x86)\Microsoft Visual Studio\2019\Professional\VC\Tools\MSVC\14.29.30133\include\xmemory

; 835  :         _Deallocate<_New_alignof<_Ty>>(_Ptr, sizeof(_Ty) * _Count);

  0001e	8b 06		 mov	 eax, DWORD PTR [esi]
; File C:\Program Files (x86)\Microsoft Visual Studio\2019\Professional\VC\Tools\MSVC\14.29.30133\include\xstring

; 4622 :             _Al.deallocate(_Ptr, _Mypair._Myval2._Myres + 1);

  00020	41		 inc	 ecx
; File C:\Program Files (x86)\Microsoft Visual Studio\2019\Professional\VC\Tools\MSVC\14.29.30133\include\xmemory

; 260  :         if (_Bytes >= _Big_allocation_threshold) { // boost the alignment of big allocations to help autovectorization

  00021	81 f9 00 10 00
	00		 cmp	 ecx, 4096		; 00001000H
  00027	72 12		 jb	 SHORT $LN40@vector

; 158  :     const uintptr_t _Ptr_container   = _Ptr_user[-1];

  00029	8b 50 fc	 mov	 edx, DWORD PTR [eax-4]
  0002c	83 c1 23	 add	 ecx, 35			; 00000023H

; 159  : 
; 160  :     // If the following asserts, it likely means that we are performing
; 161  :     // an aligned delete on memory coming from an unaligned allocation.
; 162  :     _STL_ASSERT(_Ptr_user[-2] == _Big_allocation_sentinel, "invalid argument");
; 163  : 
; 164  :     // Extra paranoia on aligned allocation/deallocation; ensure _Ptr_container is
; 165  :     // in range [_Min_back_shift, _Non_user_size]
; 166  : #ifdef _DEBUG
; 167  :     constexpr uintptr_t _Min_back_shift = 2 * sizeof(void*);
; 168  : #else // ^^^ _DEBUG ^^^ // vvv !_DEBUG vvv
; 169  :     constexpr uintptr_t _Min_back_shift = sizeof(void*);
; 170  : #endif // _DEBUG
; 171  :     const uintptr_t _Back_shift = reinterpret_cast<uintptr_t>(_Ptr) - _Ptr_container;

  0002f	2b c2		 sub	 eax, edx

; 172  :     _STL_VERIFY(_Back_shift >= _Min_back_shift && _Back_shift <= _Non_user_size, "invalid argument");

  00031	83 c0 fc	 add	 eax, -4			; fffffffcH
  00034	83 f8 1f	 cmp	 eax, 31			; 0000001fH
  00037	77 7d		 ja	 SHORT $LN61@vector

; 173  :     _Ptr = reinterpret_cast<void*>(_Ptr_container);

  00039	8b c2		 mov	 eax, edx
$LN40@vector:

; 264  :         ::operator delete(_Ptr, _Bytes);

  0003b	51		 push	 ecx
  0003c	50		 push	 eax
  0003d	e8 00 00 00 00	 call	 ??3@YAXPAXI@Z		; operator delete
  00042	83 c4 08	 add	 esp, 8
$LN30@vector:
; File C:\Program Files (x86)\Microsoft Visual Studio\2019\Professional\VC\Tools\MSVC\14.29.30133\include\xstring

; 4633 :             _Mypair._Myval2._Mysize = 0;

  00045	c7 46 10 00 00
	00 00		 mov	 DWORD PTR [esi+16], 0

; 4634 :             _Mypair._Myval2._Myres  = _BUF_SIZE - 1;

  0004c	c7 46 14 0f 00
	00 00		 mov	 DWORD PTR [esi+20], 15	; 0000000fH

; 4635 :             // the _Traits::assign is last so the codegen doesn't think the char write can alias this
; 4636 :             _Traits::assign(_Mypair._Myval2._Bx._Buf[0], _Elem());

  00053	c6 06 00	 mov	 BYTE PTR [esi], 0
; File C:\Program Files (x86)\Microsoft Visual Studio\2019\Professional\VC\Tools\MSVC\14.29.30133\include\xmemory

; 949  :         for (; _First != _Last; ++_First) {

  00056	83 c6 18	 add	 esi, 24			; 00000018H
  00059	3b f3		 cmp	 esi, ebx
  0005b	75 b9		 jne	 SHORT $LL11@vector

; 173  :     _Ptr = reinterpret_cast<void*>(_Ptr_container);

  0005d	8b 37		 mov	 esi, DWORD PTR [edi]
$LN10@vector:
; File C:\Program Files (x86)\Microsoft Visual Studio\2019\Professional\VC\Tools\MSVC\14.29.30133\include\vector

; 1765 :             _Getal().deallocate(_Myfirst, static_cast<size_type>(_Myend - _Myfirst));

  0005f	8b 4f 08	 mov	 ecx, DWORD PTR [edi+8]
  00062	b8 ab aa aa 2a	 mov	 eax, 715827883		; 2aaaaaabH
  00067	2b ce		 sub	 ecx, esi
  00069	f7 e9		 imul	 ecx
; File C:\Program Files (x86)\Microsoft Visual Studio\2019\Professional\VC\Tools\MSVC\14.29.30133\include\xmemory

; 835  :         _Deallocate<_New_alignof<_Ty>>(_Ptr, sizeof(_Ty) * _Count);

  0006b	5b		 pop	 ebx
; File C:\Program Files (x86)\Microsoft Visual Studio\2019\Professional\VC\Tools\MSVC\14.29.30133\include\vector

; 1765 :             _Getal().deallocate(_Myfirst, static_cast<size_type>(_Myend - _Myfirst));

  0006c	c1 fa 02	 sar	 edx, 2
  0006f	8b c2		 mov	 eax, edx
  00071	c1 e8 1f	 shr	 eax, 31			; 0000001fH
  00074	03 c2		 add	 eax, edx
; File C:\Program Files (x86)\Microsoft Visual Studio\2019\Professional\VC\Tools\MSVC\14.29.30133\include\xmemory

; 835  :         _Deallocate<_New_alignof<_Ty>>(_Ptr, sizeof(_Ty) * _Count);

  00076	8d 04 40	 lea	 eax, DWORD PTR [eax+eax*2]
  00079	c1 e0 03	 shl	 eax, 3

; 260  :         if (_Bytes >= _Big_allocation_threshold) { // boost the alignment of big allocations to help autovectorization

  0007c	3d 00 10 00 00	 cmp	 eax, 4096		; 00001000H
  00081	72 12		 jb	 SHORT $LN64@vector

; 158  :     const uintptr_t _Ptr_container   = _Ptr_user[-1];

  00083	8b 4e fc	 mov	 ecx, DWORD PTR [esi-4]
  00086	83 c0 23	 add	 eax, 35			; 00000023H

; 159  : 
; 160  :     // If the following asserts, it likely means that we are performing
; 161  :     // an aligned delete on memory coming from an unaligned allocation.
; 162  :     _STL_ASSERT(_Ptr_user[-2] == _Big_allocation_sentinel, "invalid argument");
; 163  : 
; 164  :     // Extra paranoia on aligned allocation/deallocation; ensure _Ptr_container is
; 165  :     // in range [_Min_back_shift, _Non_user_size]
; 166  : #ifdef _DEBUG
; 167  :     constexpr uintptr_t _Min_back_shift = 2 * sizeof(void*);
; 168  : #else // ^^^ _DEBUG ^^^ // vvv !_DEBUG vvv
; 169  :     constexpr uintptr_t _Min_back_shift = sizeof(void*);
; 170  : #endif // _DEBUG
; 171  :     const uintptr_t _Back_shift = reinterpret_cast<uintptr_t>(_Ptr) - _Ptr_container;

  00089	2b f1		 sub	 esi, ecx

; 172  :     _STL_VERIFY(_Back_shift >= _Min_back_shift && _Back_shift <= _Non_user_size, "invalid argument");

  0008b	83 c6 fc	 add	 esi, -4			; fffffffcH
  0008e	83 fe 1f	 cmp	 esi, 31			; 0000001fH
  00091	77 23		 ja	 SHORT $LN61@vector

; 173  :     _Ptr = reinterpret_cast<void*>(_Ptr_container);

  00093	8b f1		 mov	 esi, ecx
$LN64@vector:

; 264  :         ::operator delete(_Ptr, _Bytes);

  00095	50		 push	 eax
  00096	56		 push	 esi
  00097	e8 00 00 00 00	 call	 ??3@YAXPAXI@Z		; operator delete
; File C:\Program Files (x86)\Microsoft Visual Studio\2019\Professional\VC\Tools\MSVC\14.29.30133\include\vector

; 1767 :             _Myfirst = nullptr;

  0009c	c7 07 00 00 00
	00		 mov	 DWORD PTR [edi], 0
; File C:\Program Files (x86)\Microsoft Visual Studio\2019\Professional\VC\Tools\MSVC\14.29.30133\include\xmemory

; 264  :         ::operator delete(_Ptr, _Bytes);

  000a2	83 c4 08	 add	 esp, 8
; File C:\Program Files (x86)\Microsoft Visual Studio\2019\Professional\VC\Tools\MSVC\14.29.30133\include\vector

; 1768 :             _Mylast  = nullptr;

  000a5	c7 47 04 00 00
	00 00		 mov	 DWORD PTR [edi+4], 0

; 1769 :             _Myend   = nullptr;

  000ac	c7 47 08 00 00
	00 00		 mov	 DWORD PTR [edi+8], 0
$LN4@vector:
  000b3	5f		 pop	 edi

; 717  :     }

  000b4	5e		 pop	 esi
  000b5	c3		 ret	 0
$LN61@vector:
; File C:\Program Files (x86)\Microsoft Visual Studio\2019\Professional\VC\Tools\MSVC\14.29.30133\include\xmemory

; 172  :     _STL_VERIFY(_Back_shift >= _Min_back_shift && _Back_shift <= _Non_user_size, "invalid argument");

  000b6	e8 00 00 00 00	 call	 __invalid_parameter_noinfo_noreturn
$LN72@vector:
  000bb	cc		 int	 3
??1?$vector@V?$basic_string@DU?$char_traits@D@std@@V?$allocator@D@2@@std@@V?$allocator@V?$basic_string@DU?$char_traits@D@std@@V?$allocator@D@2@@std@@@2@@std@@QAE@XZ ENDP ; std::vector<std::basic_string<char,std::char_traits<char>,std::allocator<char> >,std::allocator<std::basic_string<char,std::char_traits<char>,std::allocator<char> > > >::~vector<std::basic_string<char,std::char_traits<char>,std::allocator<char> >,std::allocator<std::basic_string<char,std::char_traits<char>,std::allocator<char> > > >
_TEXT	ENDS
; Function compile flags: /Ogtp
; File C:\Program Files (x86)\Microsoft Visual Studio\2019\Professional\VC\Tools\MSVC\14.29.30133\include\xtree
;	COMDAT ?_Throw_tree_length_error@std@@YAXXZ
_TEXT	SEGMENT
?_Throw_tree_length_error@std@@YAXXZ PROC		; std::_Throw_tree_length_error, COMDAT

; 421  :     _Xlength_error("map/set too long");

  00000	68 00 00 00 00	 push	 OFFSET ??_C@_0BB@GCADKGJO@map?1set?5too?5long@
  00005	e8 00 00 00 00	 call	 ?_Xlength_error@std@@YAXPBD@Z ; std::_Xlength_error
$LN3@Throw_tree:
  0000a	cc		 int	 3
?_Throw_tree_length_error@std@@YAXXZ ENDP		; std::_Throw_tree_length_error
_TEXT	ENDS
; Function compile flags: /Ogtp
; File C:\Program Files (x86)\Microsoft Visual Studio\2019\Professional\VC\Tools\MSVC\14.29.30133\include\xstring
; File C:\Program Files (x86)\Microsoft Visual Studio\2019\Professional\VC\Tools\MSVC\14.29.30133\include\xmemory
; File C:\Program Files (x86)\Microsoft Visual Studio\2019\Professional\VC\Tools\MSVC\14.29.30133\include\xstring
; File C:\Program Files (x86)\Microsoft Visual Studio\2019\Professional\VC\Tools\MSVC\14.29.30133\include\xmemory
; File C:\Program Files (x86)\Microsoft Visual Studio\2019\Professional\VC\Tools\MSVC\14.29.30133\include\xstring
; File C:\Program Files (x86)\Microsoft Visual Studio\2019\Professional\VC\Tools\MSVC\14.29.30133\include\utility
; File C:\Program Files (x86)\Microsoft Visual Studio\2019\Professional\VC\Tools\MSVC\14.29.30133\include\xstring
; File C:\Program Files (x86)\Microsoft Visual Studio\2019\Professional\VC\Tools\MSVC\14.29.30133\include\xmemory
; File C:\Program Files (x86)\Microsoft Visual Studio\2019\Professional\VC\Tools\MSVC\14.29.30133\include\xstring
; File C:\Program Files (x86)\Microsoft Visual Studio\2019\Professional\VC\Tools\MSVC\14.29.30133\include\xmemory
; File C:\Program Files (x86)\Microsoft Visual Studio\2019\Professional\VC\Tools\MSVC\14.29.30133\include\xstring
; File C:\Program Files (x86)\Microsoft Visual Studio\2019\Professional\VC\Tools\MSVC\14.29.30133\include\xmemory
; File C:\Program Files (x86)\Microsoft Visual Studio\2019\Professional\VC\Tools\MSVC\14.29.30133\include\xstring
;	COMDAT ?assign@?$basic_string@DU?$char_traits@D@std@@V?$allocator@D@2@@std@@QAEAAV12@QBDI@Z
_TEXT	SEGMENT
__Old$1$ = -4						; size = 4
__Ptr$ = 8						; size = 4
$T1 = 12						; size = 4
__Count$ = 12						; size = 4
?assign@?$basic_string@DU?$char_traits@D@std@@V?$allocator@D@2@@std@@QAEAAV12@QBDI@Z PROC ; std::basic_string<char,std::char_traits<char>,std::allocator<char> >::assign, COMDAT
; _this$ = ecx

; 3244 :         _In_reads_(_Count) const _Elem* const _Ptr, _CRT_GUARDOVERFLOW const size_type _Count) {

  00000	55		 push	 ebp
  00001	8b ec		 mov	 ebp, esp
  00003	51		 push	 ecx
  00004	53		 push	 ebx

; 3245 :         // assign [_Ptr, _Ptr + _Count)
; 3246 :         if (_Count <= _Mypair._Myval2._Myres) {

  00005	8b 5d 0c	 mov	 ebx, DWORD PTR __Count$[ebp]
  00008	56		 push	 esi
  00009	8b f1		 mov	 esi, ecx
  0000b	57		 push	 edi
  0000c	8b 4e 14	 mov	 ecx, DWORD PTR [esi+20]
  0000f	89 4d fc	 mov	 DWORD PTR __Old$1$[ebp], ecx
  00012	3b d9		 cmp	 ebx, ecx
  00014	77 28		 ja	 SHORT $LN2@assign

; 2296 :         value_type* _Result = _Bx._Buf;

  00016	8b fe		 mov	 edi, esi

; 2319 :         return _BUF_SIZE <= _Myres;

  00018	83 f9 10	 cmp	 ecx, 16			; 00000010H

; 2297 :         if (_Large_string_engaged()) {

  0001b	72 02		 jb	 SHORT $LN5@assign

; 2298 :             _Result = _Unfancy(_Bx._Ptr);

  0001d	8b 3e		 mov	 edi, DWORD PTR [esi]
$LN5@assign:

; 122  :         _CSTD memmove(_First1, _First2, _Count * sizeof(_Elem));

  0001f	53		 push	 ebx
  00020	ff 75 08	 push	 DWORD PTR __Ptr$[ebp]

; 3247 :             _Elem* const _Old_ptr   = _Mypair._Myval2._Myptr();
; 3248 :             _Mypair._Myval2._Mysize = _Count;

  00023	89 5e 10	 mov	 DWORD PTR [esi+16], ebx

; 122  :         _CSTD memmove(_First1, _First2, _Count * sizeof(_Elem));

  00026	57		 push	 edi
  00027	e8 00 00 00 00	 call	 _memmove
  0002c	83 c4 0c	 add	 esp, 12			; 0000000cH

; 3249 :             _Traits::move(_Old_ptr, _Ptr, _Count);
; 3250 :             _Traits::assign(_Old_ptr[_Count], _Elem());

  0002f	c6 04 1f 00	 mov	 BYTE PTR [edi+ebx], 0

; 3259 :             },
; 3260 :             _Ptr);
; 3261 :     }

  00033	8b c6		 mov	 eax, esi
  00035	5f		 pop	 edi
  00036	5e		 pop	 esi
  00037	5b		 pop	 ebx
  00038	8b e5		 mov	 esp, ebp
  0003a	5d		 pop	 ebp
  0003b	c2 08 00	 ret	 8
$LN2@assign:

; 4508 :         if (_New_size > max_size()) {

  0003e	81 fb ff ff ff
	7f		 cmp	 ebx, 2147483647		; 7fffffffH
  00044	0f 87 d4 00 00
	00		 ja	 $LN60@assign

; 4488 :         const size_type _Masked = _Requested | _ALLOC_MASK;

  0004a	8b fb		 mov	 edi, ebx
  0004c	83 cf 0f	 or	 edi, 15			; 0000000fH
  0004f	81 ff ff ff ff
	7f		 cmp	 edi, 2147483647		; 7fffffffH

; 4489 :         if (_Masked > _Max) { // the mask overflows, settle for max_size()

  00055	76 15		 jbe	 SHORT $LN19@assign

; 4490 :             return _Max;

  00057	b8 00 00 00 80	 mov	 eax, -2147483648	; 80000000H
  0005c	bf ff ff ff 7f	 mov	 edi, 2147483647		; 7fffffffH
; File C:\Program Files (x86)\Microsoft Visual Studio\2019\Professional\VC\Tools\MSVC\14.29.30133\include\xmemory

; 238  :             return _Allocate_manually_vector_aligned<_Traits>(_Bytes);

  00061	50		 push	 eax
  00062	e8 00 00 00 00	 call	 ??$_Allocate_manually_vector_aligned@U_Default_allocate_traits@std@@@std@@YAPAXI@Z ; std::_Allocate_manually_vector_aligned<std::_Default_allocate_traits>
  00067	83 c4 04	 add	 esp, 4
  0006a	eb 52		 jmp	 SHORT $LN58@assign
$LN19@assign:
; File C:\Program Files (x86)\Microsoft Visual Studio\2019\Professional\VC\Tools\MSVC\14.29.30133\include\xstring

; 4493 :         if (_Old > _Max - _Old / 2) { // similarly, geometric overflows

  0006c	8b d1		 mov	 edx, ecx
  0006e	b8 ff ff ff 7f	 mov	 eax, 2147483647		; 7fffffffH
  00073	d1 ea		 shr	 edx, 1
  00075	2b c2		 sub	 eax, edx
  00077	3b c8		 cmp	 ecx, eax
  00079	76 15		 jbe	 SHORT $LN20@assign

; 4494 :             return _Max;

  0007b	b8 00 00 00 80	 mov	 eax, -2147483648	; 80000000H
  00080	bf ff ff ff 7f	 mov	 edi, 2147483647		; 7fffffffH
; File C:\Program Files (x86)\Microsoft Visual Studio\2019\Professional\VC\Tools\MSVC\14.29.30133\include\xmemory

; 238  :             return _Allocate_manually_vector_aligned<_Traits>(_Bytes);

  00085	50		 push	 eax
  00086	e8 00 00 00 00	 call	 ??$_Allocate_manually_vector_aligned@U_Default_allocate_traits@std@@@std@@YAPAXI@Z ; std::_Allocate_manually_vector_aligned<std::_Default_allocate_traits>
  0008b	83 c4 04	 add	 esp, 4
  0008e	eb 2e		 jmp	 SHORT $LN58@assign
$LN20@assign:
; File C:\Program Files (x86)\Microsoft Visual Studio\2019\Professional\VC\Tools\MSVC\14.29.30133\include\xstring

; 4497 :         return (_STD max)(_Masked, _Old + _Old / 2);

  00090	8d 04 0a	 lea	 eax, DWORD PTR [edx+ecx]
; File C:\Program Files (x86)\Microsoft Visual Studio\2019\Professional\VC\Tools\MSVC\14.29.30133\include\utility

; 44   :     return _Left < _Right ? _Right : _Left;

  00093	3b f8		 cmp	 edi, eax
  00095	0f 42 f8	 cmovb	 edi, eax
; File C:\Program Files (x86)\Microsoft Visual Studio\2019\Professional\VC\Tools\MSVC\14.29.30133\include\xstring

; 4515 :         const pointer _New_ptr        = _Al.allocate(_New_capacity + 1); // throws

  00098	8d 47 01	 lea	 eax, DWORD PTR [edi+1]
; File C:\Program Files (x86)\Microsoft Visual Studio\2019\Professional\VC\Tools\MSVC\14.29.30133\include\xmemory

; 237  :         if (_Bytes >= _Big_allocation_threshold) { // boost the alignment of big allocations to help autovectorization

  0009b	3d 00 10 00 00	 cmp	 eax, 4096		; 00001000H
  000a0	72 0b		 jb	 SHORT $LN27@assign

; 238  :             return _Allocate_manually_vector_aligned<_Traits>(_Bytes);

  000a2	50		 push	 eax
  000a3	e8 00 00 00 00	 call	 ??$_Allocate_manually_vector_aligned@U_Default_allocate_traits@std@@@std@@YAPAXI@Z ; std::_Allocate_manually_vector_aligned<std::_Default_allocate_traits>
  000a8	83 c4 04	 add	 esp, 4
  000ab	eb 11		 jmp	 SHORT $LN58@assign
$LN27@assign:

; 239  :         }
; 240  :     }
; 241  : #endif // defined(_M_IX86) || defined(_M_X64)
; 242  : 
; 243  :     if (_Bytes != 0) {

  000ad	85 c0		 test	 eax, eax
  000af	74 0b		 je	 SHORT $LN28@assign

; 85   :         return ::operator new(_Bytes);

  000b1	50		 push	 eax
  000b2	e8 00 00 00 00	 call	 ??2@YAPAXI@Z		; operator new
  000b7	83 c4 04	 add	 esp, 4

; 244  :         return _Traits::_Allocate(_Bytes);

  000ba	eb 02		 jmp	 SHORT $LN58@assign
$LN28@assign:

; 245  :     }
; 246  : 
; 247  :     return nullptr;

  000bc	33 c0		 xor	 eax, eax
$LN58@assign:
; File C:\Program Files (x86)\Microsoft Visual Studio\2019\Professional\VC\Tools\MSVC\14.29.30133\include\xstring

; 65   :         _CSTD memcpy(_First1, _First2, _Count * sizeof(_Elem));

  000be	53		 push	 ebx
  000bf	ff 75 08	 push	 DWORD PTR __Ptr$[ebp]

; 4523 :         _Mypair._Myval2._Mysize = _New_size;

  000c2	89 45 0c	 mov	 DWORD PTR $T1[ebp], eax

; 65   :         _CSTD memcpy(_First1, _First2, _Count * sizeof(_Elem));

  000c5	50		 push	 eax

; 4523 :         _Mypair._Myval2._Mysize = _New_size;

  000c6	89 5e 10	 mov	 DWORD PTR [esi+16], ebx

; 4524 :         _Mypair._Myval2._Myres  = _New_capacity;

  000c9	89 7e 14	 mov	 DWORD PTR [esi+20], edi

; 65   :         _CSTD memcpy(_First1, _First2, _Count * sizeof(_Elem));

  000cc	e8 00 00 00 00	 call	 _memcpy

; 3258 :                 _Traits::assign(_New_ptr[_Count], _Elem());

  000d1	8b 7d 0c	 mov	 edi, DWORD PTR $T1[ebp]

; 65   :         _CSTD memcpy(_First1, _First2, _Count * sizeof(_Elem));

  000d4	83 c4 0c	 add	 esp, 12			; 0000000cH

; 4526 :         if (_BUF_SIZE <= _Old_capacity) {

  000d7	8b 45 fc	 mov	 eax, DWORD PTR __Old$1$[ebp]

; 3258 :                 _Traits::assign(_New_ptr[_Count], _Elem());

  000da	c6 04 1f 00	 mov	 BYTE PTR [edi+ebx], 0

; 4526 :         if (_BUF_SIZE <= _Old_capacity) {

  000de	83 f8 10	 cmp	 eax, 16			; 00000010H
  000e1	72 29		 jb	 SHORT $LN13@assign

; 4527 :             _Al.deallocate(_Mypair._Myval2._Bx._Ptr, _Old_capacity + 1);

  000e3	8d 48 01	 lea	 ecx, DWORD PTR [eax+1]
; File C:\Program Files (x86)\Microsoft Visual Studio\2019\Professional\VC\Tools\MSVC\14.29.30133\include\xmemory

; 835  :         _Deallocate<_New_alignof<_Ty>>(_Ptr, sizeof(_Ty) * _Count);

  000e6	8b 06		 mov	 eax, DWORD PTR [esi]

; 260  :         if (_Bytes >= _Big_allocation_threshold) { // boost the alignment of big allocations to help autovectorization

  000e8	81 f9 00 10 00
	00		 cmp	 ecx, 4096		; 00001000H
  000ee	72 12		 jb	 SHORT $LN50@assign

; 158  :     const uintptr_t _Ptr_container   = _Ptr_user[-1];

  000f0	8b 50 fc	 mov	 edx, DWORD PTR [eax-4]
  000f3	83 c1 23	 add	 ecx, 35			; 00000023H

; 159  : 
; 160  :     // If the following asserts, it likely means that we are performing
; 161  :     // an aligned delete on memory coming from an unaligned allocation.
; 162  :     _STL_ASSERT(_Ptr_user[-2] == _Big_allocation_sentinel, "invalid argument");
; 163  : 
; 164  :     // Extra paranoia on aligned allocation/deallocation; ensure _Ptr_container is
; 165  :     // in range [_Min_back_shift, _Non_user_size]
; 166  : #ifdef _DEBUG
; 167  :     constexpr uintptr_t _Min_back_shift = 2 * sizeof(void*);
; 168  : #else // ^^^ _DEBUG ^^^ // vvv !_DEBUG vvv
; 169  :     constexpr uintptr_t _Min_back_shift = sizeof(void*);
; 170  : #endif // _DEBUG
; 171  :     const uintptr_t _Back_shift = reinterpret_cast<uintptr_t>(_Ptr) - _Ptr_container;

  000f6	2b c2		 sub	 eax, edx

; 172  :     _STL_VERIFY(_Back_shift >= _Min_back_shift && _Back_shift <= _Non_user_size, "invalid argument");

  000f8	83 c0 fc	 add	 eax, -4			; fffffffcH
  000fb	83 f8 1f	 cmp	 eax, 31			; 0000001fH
  000fe	77 19		 ja	 SHORT $LN47@assign

; 173  :     _Ptr = reinterpret_cast<void*>(_Ptr_container);

  00100	8b c2		 mov	 eax, edx
$LN50@assign:

; 264  :         ::operator delete(_Ptr, _Bytes);

  00102	51		 push	 ecx
  00103	50		 push	 eax
  00104	e8 00 00 00 00	 call	 ??3@YAXPAXI@Z		; operator delete
  00109	83 c4 08	 add	 esp, 8
$LN13@assign:
; File C:\Program Files (x86)\Microsoft Visual Studio\2019\Professional\VC\Tools\MSVC\14.29.30133\include\xstring

; 3254 :         return _Reallocate_for(

  0010c	89 3e		 mov	 DWORD PTR [esi], edi

; 3259 :             },
; 3260 :             _Ptr);
; 3261 :     }

  0010e	8b c6		 mov	 eax, esi
  00110	5f		 pop	 edi
  00111	5e		 pop	 esi
  00112	5b		 pop	 ebx
  00113	8b e5		 mov	 esp, ebp
  00115	5d		 pop	 ebp
  00116	c2 08 00	 ret	 8
$LN47@assign:
; File C:\Program Files (x86)\Microsoft Visual Studio\2019\Professional\VC\Tools\MSVC\14.29.30133\include\xmemory

; 172  :     _STL_VERIFY(_Back_shift >= _Min_back_shift && _Back_shift <= _Non_user_size, "invalid argument");

  00119	e8 00 00 00 00	 call	 __invalid_parameter_noinfo_noreturn
$LN60@assign:
; File C:\Program Files (x86)\Microsoft Visual Studio\2019\Professional\VC\Tools\MSVC\14.29.30133\include\xstring

; 4509 :             _Xlen_string(); // result too long

  0011e	e8 00 00 00 00	 call	 ?_Xlen_string@std@@YAXXZ ; std::_Xlen_string
$LN56@assign:
  00123	cc		 int	 3
?assign@?$basic_string@DU?$char_traits@D@std@@V?$allocator@D@2@@std@@QAEAAV12@QBDI@Z ENDP ; std::basic_string<char,std::char_traits<char>,std::allocator<char> >::assign
_TEXT	ENDS
; Function compile flags: /Ogtp
; File C:\Program Files (x86)\Microsoft Visual Studio\2019\Professional\VC\Tools\MSVC\14.29.30133\include\xstring
; File C:\Program Files (x86)\Microsoft Visual Studio\2019\Professional\VC\Tools\MSVC\14.29.30133\include\xmemory
; File C:\Program Files (x86)\Microsoft Visual Studio\2019\Professional\VC\Tools\MSVC\14.29.30133\include\xstring
; File C:\Program Files (x86)\Microsoft Visual Studio\2019\Professional\VC\Tools\MSVC\14.29.30133\include\xmemory
; File C:\Program Files (x86)\Microsoft Visual Studio\2019\Professional\VC\Tools\MSVC\14.29.30133\include\xstring
; File C:\Program Files (x86)\Microsoft Visual Studio\2019\Professional\VC\Tools\MSVC\14.29.30133\include\xmemory
; File C:\Program Files (x86)\Microsoft Visual Studio\2019\Professional\VC\Tools\MSVC\14.29.30133\include\xstring
;	COMDAT ??1?$basic_string@DU?$char_traits@D@std@@V?$allocator@D@2@@std@@QAE@XZ
_TEXT	SEGMENT
??1?$basic_string@DU?$char_traits@D@std@@V?$allocator@D@2@@std@@QAE@XZ PROC ; std::basic_string<char,std::char_traits<char>,std::allocator<char> >::~basic_string<char,std::char_traits<char>,std::allocator<char> >, COMDAT
; _this$ = ecx

; 3002 :     _CONSTEXPR20_CONTAINER ~basic_string() noexcept {

  00000	56		 push	 esi
  00001	8b f1		 mov	 esi, ecx

; 2319 :         return _BUF_SIZE <= _Myres;

  00003	8b 4e 14	 mov	 ecx, DWORD PTR [esi+20]
  00006	83 f9 10	 cmp	 ecx, 16			; 00000010H

; 4618 :         if (_Mypair._Myval2._Large_string_engaged()) {

  00009	72 27		 jb	 SHORT $LN12@basic_stri
; File C:\Program Files (x86)\Microsoft Visual Studio\2019\Professional\VC\Tools\MSVC\14.29.30133\include\xmemory

; 835  :         _Deallocate<_New_alignof<_Ty>>(_Ptr, sizeof(_Ty) * _Count);

  0000b	8b 06		 mov	 eax, DWORD PTR [esi]
; File C:\Program Files (x86)\Microsoft Visual Studio\2019\Professional\VC\Tools\MSVC\14.29.30133\include\xstring

; 4622 :             _Al.deallocate(_Ptr, _Mypair._Myval2._Myres + 1);

  0000d	41		 inc	 ecx
; File C:\Program Files (x86)\Microsoft Visual Studio\2019\Professional\VC\Tools\MSVC\14.29.30133\include\xmemory

; 260  :         if (_Bytes >= _Big_allocation_threshold) { // boost the alignment of big allocations to help autovectorization

  0000e	81 f9 00 10 00
	00		 cmp	 ecx, 4096		; 00001000H
  00014	72 12		 jb	 SHORT $LN22@basic_stri

; 158  :     const uintptr_t _Ptr_container   = _Ptr_user[-1];

  00016	8b 50 fc	 mov	 edx, DWORD PTR [eax-4]
  00019	83 c1 23	 add	 ecx, 35			; 00000023H

; 159  : 
; 160  :     // If the following asserts, it likely means that we are performing
; 161  :     // an aligned delete on memory coming from an unaligned allocation.
; 162  :     _STL_ASSERT(_Ptr_user[-2] == _Big_allocation_sentinel, "invalid argument");
; 163  : 
; 164  :     // Extra paranoia on aligned allocation/deallocation; ensure _Ptr_container is
; 165  :     // in range [_Min_back_shift, _Non_user_size]
; 166  : #ifdef _DEBUG
; 167  :     constexpr uintptr_t _Min_back_shift = 2 * sizeof(void*);
; 168  : #else // ^^^ _DEBUG ^^^ // vvv !_DEBUG vvv
; 169  :     constexpr uintptr_t _Min_back_shift = sizeof(void*);
; 170  : #endif // _DEBUG
; 171  :     const uintptr_t _Back_shift = reinterpret_cast<uintptr_t>(_Ptr) - _Ptr_container;

  0001c	2b c2		 sub	 eax, edx

; 172  :     _STL_VERIFY(_Back_shift >= _Min_back_shift && _Back_shift <= _Non_user_size, "invalid argument");

  0001e	83 c0 fc	 add	 eax, -4			; fffffffcH
  00021	83 f8 1f	 cmp	 eax, 31			; 0000001fH
  00024	77 1f		 ja	 SHORT $LN19@basic_stri

; 173  :     _Ptr = reinterpret_cast<void*>(_Ptr_container);

  00026	8b c2		 mov	 eax, edx
$LN22@basic_stri:

; 264  :         ::operator delete(_Ptr, _Bytes);

  00028	51		 push	 ecx
  00029	50		 push	 eax
  0002a	e8 00 00 00 00	 call	 ??3@YAXPAXI@Z		; operator delete
  0002f	83 c4 08	 add	 esp, 8
$LN12@basic_stri:
; File C:\Program Files (x86)\Microsoft Visual Studio\2019\Professional\VC\Tools\MSVC\14.29.30133\include\xstring

; 4633 :             _Mypair._Myval2._Mysize = 0;

  00032	c7 46 10 00 00
	00 00		 mov	 DWORD PTR [esi+16], 0

; 4634 :             _Mypair._Myval2._Myres  = _BUF_SIZE - 1;

  00039	c7 46 14 0f 00
	00 00		 mov	 DWORD PTR [esi+20], 15	; 0000000fH

; 4635 :             // the _Traits::assign is last so the codegen doesn't think the char write can alias this
; 4636 :             _Traits::assign(_Mypair._Myval2._Bx._Buf[0], _Elem());

  00040	c6 06 00	 mov	 BYTE PTR [esi], 0
  00043	5e		 pop	 esi

; 3010 :     }

  00044	c3		 ret	 0
$LN19@basic_stri:
; File C:\Program Files (x86)\Microsoft Visual Studio\2019\Professional\VC\Tools\MSVC\14.29.30133\include\xmemory

; 172  :     _STL_VERIFY(_Back_shift >= _Min_back_shift && _Back_shift <= _Non_user_size, "invalid argument");

  00045	e8 00 00 00 00	 call	 __invalid_parameter_noinfo_noreturn
$LN27@basic_stri:
  0004a	cc		 int	 3
??1?$basic_string@DU?$char_traits@D@std@@V?$allocator@D@2@@std@@QAE@XZ ENDP ; std::basic_string<char,std::char_traits<char>,std::allocator<char> >::~basic_string<char,std::char_traits<char>,std::allocator<char> >
_TEXT	ENDS
; Function compile flags: /Ogtp
; File C:\Program Files (x86)\Microsoft Visual Studio\2019\Professional\VC\Tools\MSVC\14.29.30133\include\xstring
;	COMDAT ??0?$basic_string@DU?$char_traits@D@std@@V?$allocator@D@2@@std@@QAE@QBD@Z
_TEXT	SEGMENT
__Ptr$ = 8						; size = 4
??0?$basic_string@DU?$char_traits@D@std@@V?$allocator@D@2@@std@@QAE@QBD@Z PROC ; std::basic_string<char,std::char_traits<char>,std::allocator<char> >::basic_string<char,std::char_traits<char>,std::allocator<char> >, COMDAT
; _this$ = ecx

; 2517 :     _CONSTEXPR20_CONTAINER basic_string(_In_z_ const _Elem* const _Ptr) : _Mypair(_Zero_then_variadic_args_t{}) {

  00000	55		 push	 ebp
  00001	8b ec		 mov	 ebp, esp

; 412  :         return _CSTD strlen(reinterpret_cast<const char*>(_First));

  00003	8b 55 08	 mov	 edx, DWORD PTR __Ptr$[ebp]
  00006	8b c2		 mov	 eax, edx

; 2517 :     _CONSTEXPR20_CONTAINER basic_string(_In_z_ const _Elem* const _Ptr) : _Mypair(_Zero_then_variadic_args_t{}) {

  00008	56		 push	 esi
  00009	8b f1		 mov	 esi, ecx
  0000b	57		 push	 edi

; 412  :         return _CSTD strlen(reinterpret_cast<const char*>(_First));

  0000c	8d 78 01	 lea	 edi, DWORD PTR [eax+1]

; 2346 :         _CONSTEXPR20_CONTAINER _Bxty() noexcept : _Ptr() {} // user-provided, for fancy pointers

  0000f	c7 06 00 00 00
	00		 mov	 DWORD PTR [esi], 0

; 4596 :         _My_data._Mysize = 0;

  00015	c7 46 10 00 00
	00 00		 mov	 DWORD PTR [esi+16], 0

; 4597 : 
; 4598 : #ifdef __cpp_lib_constexpr_string
; 4599 :         if (_STD is_constant_evaluated()) {
; 4600 :             _My_data._Myres        = _BUF_SIZE; // SSO disabled in constexpr context
; 4601 :             auto& _Al              = _Getal();
; 4602 :             const pointer _New_ptr = _Al.allocate(_BUF_SIZE + 1); // throws
; 4603 :             _My_data._Bx._Ptr      = _New_ptr;
; 4604 : 
; 4605 :             _Elem* const _Raw_new = _Unfancy(_New_ptr);
; 4606 :             _Traits::assign(_Raw_new, _BUF_SIZE + 1, _Elem());
; 4607 :         } else
; 4608 : #endif // __cpp_lib_constexpr_string
; 4609 :         {
; 4610 :             _My_data._Myres = _BUF_SIZE - 1;

  0001c	c7 46 14 0f 00
	00 00		 mov	 DWORD PTR [esi+20], 15	; 0000000fH
$LL17@basic_stri:

; 412  :         return _CSTD strlen(reinterpret_cast<const char*>(_First));

  00023	8a 08		 mov	 cl, BYTE PTR [eax]
  00025	40		 inc	 eax
  00026	84 c9		 test	 cl, cl
  00028	75 f9		 jne	 SHORT $LL17@basic_stri
  0002a	2b c7		 sub	 eax, edi

; 3264 :         return assign(_Ptr, _Convert_size<size_type>(_Traits::length(_Ptr)));

  0002c	8b ce		 mov	 ecx, esi
  0002e	50		 push	 eax
  0002f	52		 push	 edx
  00030	e8 00 00 00 00	 call	 ?assign@?$basic_string@DU?$char_traits@D@std@@V?$allocator@D@2@@std@@QAEAAV12@QBDI@Z ; std::basic_string<char,std::char_traits<char>,std::allocator<char> >::assign

; 2518 :         auto&& _Alproxy = _GET_PROXY_ALLOCATOR(_Alty, _Getal());
; 2519 :         _Container_proxy_ptr<_Alty> _Proxy(_Alproxy, _Mypair._Myval2);
; 2520 :         _Tidy_init();
; 2521 :         assign(_Ptr);
; 2522 :         _Proxy._Release();
; 2523 :     }

  00035	5f		 pop	 edi
  00036	8b c6		 mov	 eax, esi
  00038	5e		 pop	 esi
  00039	5d		 pop	 ebp
  0003a	c2 04 00	 ret	 4
??0?$basic_string@DU?$char_traits@D@std@@V?$allocator@D@2@@std@@QAE@QBD@Z ENDP ; std::basic_string<char,std::char_traits<char>,std::allocator<char> >::basic_string<char,std::char_traits<char>,std::allocator<char> >
_TEXT	ENDS
; Function compile flags: /Ogtp
; File C:\Program Files (x86)\Microsoft Visual Studio\2019\Professional\VC\Tools\MSVC\14.29.30133\include\xstring
;	COMDAT ?_Xlen_string@std@@YAXXZ
_TEXT	SEGMENT
?_Xlen_string@std@@YAXXZ PROC				; std::_Xlen_string, COMDAT

; 2374 :     _Xlength_error("string too long");

  00000	68 00 00 00 00	 push	 OFFSET ??_C@_0BA@JFNIOLAK@string?5too?5long@
  00005	e8 00 00 00 00	 call	 ?_Xlength_error@std@@YAXPBD@Z ; std::_Xlength_error
$LN3@Xlen_strin:
  0000a	cc		 int	 3
?_Xlen_string@std@@YAXXZ ENDP				; std::_Xlen_string
_TEXT	ENDS
; Function compile flags: /Ogtp
; File C:\Program Files (x86)\Microsoft Visual Studio\2019\Professional\VC\Tools\MSVC\14.29.30133\include\exception
;	COMDAT ?_Throw_bad_array_new_length@std@@YAXXZ
_TEXT	SEGMENT
$T1 = -12						; size = 12
?_Throw_bad_array_new_length@std@@YAXXZ PROC		; std::_Throw_bad_array_new_length, COMDAT

; 320  : [[noreturn]] inline void _Throw_bad_array_new_length() {

  00000	55		 push	 ebp
  00001	8b ec		 mov	 ebp, esp
  00003	83 ec 0c	 sub	 esp, 12			; 0000000cH

; 321  :     _THROW(bad_array_new_length{});

  00006	8d 4d f4	 lea	 ecx, DWORD PTR $T1[ebp]
  00009	e8 00 00 00 00	 call	 ??0bad_array_new_length@std@@QAE@XZ ; std::bad_array_new_length::bad_array_new_length
  0000e	68 00 00 00 00	 push	 OFFSET __TI3?AVbad_array_new_length@std@@
  00013	8d 45 f4	 lea	 eax, DWORD PTR $T1[ebp]
  00016	50		 push	 eax
  00017	e8 00 00 00 00	 call	 __CxxThrowException@8
$LN3@Throw_bad_:
  0001c	cc		 int	 3
?_Throw_bad_array_new_length@std@@YAXXZ ENDP		; std::_Throw_bad_array_new_length
_TEXT	ENDS
; Function compile flags: /Ogtp
; File C:\Program Files (x86)\Microsoft Visual Studio\2019\Professional\VC\Tools\MSVC\14.29.30133\include\vcruntime_exception.h
;	COMDAT ??_Gbad_array_new_length@std@@UAEPAXI@Z
_TEXT	SEGMENT
___flags$ = 8						; size = 4
??_Gbad_array_new_length@std@@UAEPAXI@Z PROC		; std::bad_array_new_length::`scalar deleting destructor', COMDAT
; _this$ = ecx
  00000	55		 push	 ebp
  00001	8b ec		 mov	 ebp, esp

; 89   :     {

  00003	56		 push	 esi
  00004	8b f1		 mov	 esi, ecx

; 90   :         __std_exception_destroy(&_Data);

  00006	8d 46 04	 lea	 eax, DWORD PTR [esi+4]
  00009	c7 06 00 00 00
	00		 mov	 DWORD PTR [esi], OFFSET ??_7exception@std@@6B@
  0000f	50		 push	 eax
  00010	e8 00 00 00 00	 call	 ___std_exception_destroy
  00015	83 c4 04	 add	 esp, 4
  00018	f6 45 08 01	 test	 BYTE PTR ___flags$[ebp], 1
  0001c	74 0b		 je	 SHORT $LN12@scalar
  0001e	6a 0c		 push	 12			; 0000000cH
  00020	56		 push	 esi
  00021	e8 00 00 00 00	 call	 ??3@YAXPAXI@Z		; operator delete
  00026	83 c4 08	 add	 esp, 8
$LN12@scalar:
  00029	8b c6		 mov	 eax, esi
  0002b	5e		 pop	 esi
  0002c	5d		 pop	 ebp
  0002d	c2 04 00	 ret	 4
??_Gbad_array_new_length@std@@UAEPAXI@Z ENDP		; std::bad_array_new_length::`scalar deleting destructor'
_TEXT	ENDS
; Function compile flags: /Ogtp
; File C:\Program Files (x86)\Microsoft Visual Studio\2019\Professional\VC\Tools\MSVC\14.29.30133\include\vcruntime_exception.h
;	COMDAT ??0bad_array_new_length@std@@QAE@ABV01@@Z
_TEXT	SEGMENT
___that$ = 8						; size = 4
??0bad_array_new_length@std@@QAE@ABV01@@Z PROC		; std::bad_array_new_length::bad_array_new_length, COMDAT
; _this$ = ecx
  00000	55		 push	 ebp
  00001	8b ec		 mov	 ebp, esp

; 72   :     {

  00003	56		 push	 esi
  00004	8b f1		 mov	 esi, ecx
  00006	0f 57 c0	 xorps	 xmm0, xmm0

; 71   :         : _Data()

  00009	8d 46 04	 lea	 eax, DWORD PTR [esi+4]

; 73   :         __std_exception_copy(&_Other._Data, &_Data);

  0000c	50		 push	 eax
  0000d	c7 06 00 00 00
	00		 mov	 DWORD PTR [esi], OFFSET ??_7exception@std@@6B@
  00013	66 0f d6 00	 movq	 QWORD PTR [eax], xmm0
  00017	8b 45 08	 mov	 eax, DWORD PTR ___that$[ebp]
  0001a	83 c0 04	 add	 eax, 4
  0001d	50		 push	 eax
  0001e	e8 00 00 00 00	 call	 ___std_exception_copy
  00023	83 c4 08	 add	 esp, 8
  00026	c7 06 00 00 00
	00		 mov	 DWORD PTR [esi], OFFSET ??_7bad_array_new_length@std@@6B@
  0002c	8b c6		 mov	 eax, esi
  0002e	5e		 pop	 esi
  0002f	5d		 pop	 ebp
  00030	c2 04 00	 ret	 4
??0bad_array_new_length@std@@QAE@ABV01@@Z ENDP		; std::bad_array_new_length::bad_array_new_length
_TEXT	ENDS
; Function compile flags: /Ogtp
; File C:\Program Files (x86)\Microsoft Visual Studio\2019\Professional\VC\Tools\MSVC\14.29.30133\include\vcruntime_exception.h
;	COMDAT ??1bad_array_new_length@std@@UAE@XZ
_TEXT	SEGMENT
??1bad_array_new_length@std@@UAE@XZ PROC		; std::bad_array_new_length::~bad_array_new_length, COMDAT
; _this$ = ecx

; 90   :         __std_exception_destroy(&_Data);

  00000	8d 41 04	 lea	 eax, DWORD PTR [ecx+4]
  00003	c7 01 00 00 00
	00		 mov	 DWORD PTR [ecx], OFFSET ??_7exception@std@@6B@
  00009	50		 push	 eax
  0000a	e8 00 00 00 00	 call	 ___std_exception_destroy
  0000f	59		 pop	 ecx
  00010	c3		 ret	 0
??1bad_array_new_length@std@@UAE@XZ ENDP		; std::bad_array_new_length::~bad_array_new_length
_TEXT	ENDS
; Function compile flags: /Ogtp
; File C:\Program Files (x86)\Microsoft Visual Studio\2019\Professional\VC\Tools\MSVC\14.29.30133\include\vcruntime_exception.h
;	COMDAT ??0bad_array_new_length@std@@QAE@XZ
_TEXT	SEGMENT
??0bad_array_new_length@std@@QAE@XZ PROC		; std::bad_array_new_length::bad_array_new_length, COMDAT
; _this$ = ecx

; 141  :     {

  00000	0f 57 c0	 xorps	 xmm0, xmm0

; 142  :     }

  00003	8b c1		 mov	 eax, ecx

; 65   :         : _Data()

  00005	66 0f d6 41 04	 movq	 QWORD PTR [ecx+4], xmm0

; 66   :     {
; 67   :         _Data._What = _Message;

  0000a	c7 41 04 00 00
	00 00		 mov	 DWORD PTR [ecx+4], OFFSET ??_C@_0BF@KINCDENJ@bad?5array?5new?5length@

; 141  :     {

  00011	c7 01 00 00 00
	00		 mov	 DWORD PTR [ecx], OFFSET ??_7bad_array_new_length@std@@6B@

; 142  :     }

  00017	c3		 ret	 0
??0bad_array_new_length@std@@QAE@XZ ENDP		; std::bad_array_new_length::bad_array_new_length
_TEXT	ENDS
; Function compile flags: /Ogtp
; File C:\Program Files (x86)\Microsoft Visual Studio\2019\Professional\VC\Tools\MSVC\14.29.30133\include\vcruntime_exception.h
;	COMDAT ??_Gbad_alloc@std@@UAEPAXI@Z
_TEXT	SEGMENT
___flags$ = 8						; size = 4
??_Gbad_alloc@std@@UAEPAXI@Z PROC			; std::bad_alloc::`scalar deleting destructor', COMDAT
; _this$ = ecx
  00000	55		 push	 ebp
  00001	8b ec		 mov	 ebp, esp

; 89   :     {

  00003	56		 push	 esi
  00004	8b f1		 mov	 esi, ecx

; 90   :         __std_exception_destroy(&_Data);

  00006	8d 46 04	 lea	 eax, DWORD PTR [esi+4]
  00009	c7 06 00 00 00
	00		 mov	 DWORD PTR [esi], OFFSET ??_7exception@std@@6B@
  0000f	50		 push	 eax
  00010	e8 00 00 00 00	 call	 ___std_exception_destroy
  00015	83 c4 04	 add	 esp, 4
  00018	f6 45 08 01	 test	 BYTE PTR ___flags$[ebp], 1
  0001c	74 0b		 je	 SHORT $LN9@scalar
  0001e	6a 0c		 push	 12			; 0000000cH
  00020	56		 push	 esi
  00021	e8 00 00 00 00	 call	 ??3@YAXPAXI@Z		; operator delete
  00026	83 c4 08	 add	 esp, 8
$LN9@scalar:
  00029	8b c6		 mov	 eax, esi
  0002b	5e		 pop	 esi
  0002c	5d		 pop	 ebp
  0002d	c2 04 00	 ret	 4
??_Gbad_alloc@std@@UAEPAXI@Z ENDP			; std::bad_alloc::`scalar deleting destructor'
_TEXT	ENDS
; Function compile flags: /Ogtp
; File C:\Program Files (x86)\Microsoft Visual Studio\2019\Professional\VC\Tools\MSVC\14.29.30133\include\vcruntime_exception.h
;	COMDAT ??0bad_alloc@std@@QAE@ABV01@@Z
_TEXT	SEGMENT
___that$ = 8						; size = 4
??0bad_alloc@std@@QAE@ABV01@@Z PROC			; std::bad_alloc::bad_alloc, COMDAT
; _this$ = ecx
  00000	55		 push	 ebp
  00001	8b ec		 mov	 ebp, esp

; 72   :     {

  00003	56		 push	 esi
  00004	8b f1		 mov	 esi, ecx
  00006	0f 57 c0	 xorps	 xmm0, xmm0

; 71   :         : _Data()

  00009	8d 46 04	 lea	 eax, DWORD PTR [esi+4]

; 73   :         __std_exception_copy(&_Other._Data, &_Data);

  0000c	50		 push	 eax
  0000d	c7 06 00 00 00
	00		 mov	 DWORD PTR [esi], OFFSET ??_7exception@std@@6B@
  00013	66 0f d6 00	 movq	 QWORD PTR [eax], xmm0
  00017	8b 45 08	 mov	 eax, DWORD PTR ___that$[ebp]
  0001a	83 c0 04	 add	 eax, 4
  0001d	50		 push	 eax
  0001e	e8 00 00 00 00	 call	 ___std_exception_copy
  00023	83 c4 08	 add	 esp, 8
  00026	c7 06 00 00 00
	00		 mov	 DWORD PTR [esi], OFFSET ??_7bad_alloc@std@@6B@
  0002c	8b c6		 mov	 eax, esi
  0002e	5e		 pop	 esi
  0002f	5d		 pop	 ebp
  00030	c2 04 00	 ret	 4
??0bad_alloc@std@@QAE@ABV01@@Z ENDP			; std::bad_alloc::bad_alloc
_TEXT	ENDS
; Function compile flags: /Ogtp
; File C:\Program Files (x86)\Microsoft Visual Studio\2019\Professional\VC\Tools\MSVC\14.29.30133\include\vcruntime_exception.h
;	COMDAT ??_Gexception@std@@UAEPAXI@Z
_TEXT	SEGMENT
___flags$ = 8						; size = 4
??_Gexception@std@@UAEPAXI@Z PROC			; std::exception::`scalar deleting destructor', COMDAT
; _this$ = ecx
  00000	55		 push	 ebp
  00001	8b ec		 mov	 ebp, esp

; 89   :     {

  00003	56		 push	 esi
  00004	8b f1		 mov	 esi, ecx

; 90   :         __std_exception_destroy(&_Data);

  00006	8d 46 04	 lea	 eax, DWORD PTR [esi+4]
  00009	c7 06 00 00 00
	00		 mov	 DWORD PTR [esi], OFFSET ??_7exception@std@@6B@
  0000f	50		 push	 eax
  00010	e8 00 00 00 00	 call	 ___std_exception_destroy
  00015	83 c4 04	 add	 esp, 4
  00018	f6 45 08 01	 test	 BYTE PTR ___flags$[ebp], 1
  0001c	74 0b		 je	 SHORT $LN6@scalar
  0001e	6a 0c		 push	 12			; 0000000cH
  00020	56		 push	 esi
  00021	e8 00 00 00 00	 call	 ??3@YAXPAXI@Z		; operator delete
  00026	83 c4 08	 add	 esp, 8
$LN6@scalar:
  00029	8b c6		 mov	 eax, esi
  0002b	5e		 pop	 esi
  0002c	5d		 pop	 ebp
  0002d	c2 04 00	 ret	 4
??_Gexception@std@@UAEPAXI@Z ENDP			; std::exception::`scalar deleting destructor'
_TEXT	ENDS
; Function compile flags: /Ogtp
; File C:\Program Files (x86)\Microsoft Visual Studio\2019\Professional\VC\Tools\MSVC\14.29.30133\include\vcruntime_exception.h
;	COMDAT ?what@exception@std@@UBEPBDXZ
_TEXT	SEGMENT
?what@exception@std@@UBEPBDXZ PROC			; std::exception::what, COMDAT
; _this$ = ecx

; 95   :         return _Data._What ? _Data._What : "Unknown exception";

  00000	8b 49 04	 mov	 ecx, DWORD PTR [ecx+4]
  00003	b8 00 00 00 00	 mov	 eax, OFFSET ??_C@_0BC@EOODALEL@Unknown?5exception@
  00008	85 c9		 test	 ecx, ecx
  0000a	0f 45 c1	 cmovne	 eax, ecx

; 96   :     }

  0000d	c3		 ret	 0
?what@exception@std@@UBEPBDXZ ENDP			; std::exception::what
_TEXT	ENDS
; Function compile flags: /Ogtp
; File C:\Program Files (x86)\Microsoft Visual Studio\2019\Professional\VC\Tools\MSVC\14.29.30133\include\vcruntime_exception.h
;	COMDAT ??1exception@std@@UAE@XZ
_TEXT	SEGMENT
??1exception@std@@UAE@XZ PROC				; std::exception::~exception, COMDAT
; _this$ = ecx

; 90   :         __std_exception_destroy(&_Data);

  00000	8d 41 04	 lea	 eax, DWORD PTR [ecx+4]
  00003	c7 01 00 00 00
	00		 mov	 DWORD PTR [ecx], OFFSET ??_7exception@std@@6B@
  00009	50		 push	 eax
  0000a	e8 00 00 00 00	 call	 ___std_exception_destroy
  0000f	59		 pop	 ecx

; 91   :     }

  00010	c3		 ret	 0
??1exception@std@@UAE@XZ ENDP				; std::exception::~exception
_TEXT	ENDS
; Function compile flags: /Ogtp
; File C:\Program Files (x86)\Microsoft Visual Studio\2019\Professional\VC\Tools\MSVC\14.29.30133\include\vcruntime_exception.h
;	COMDAT ??0exception@std@@QAE@ABV01@@Z
_TEXT	SEGMENT
__Other$ = 8						; size = 4
??0exception@std@@QAE@ABV01@@Z PROC			; std::exception::exception, COMDAT
; _this$ = ecx

; 72   :     {

  00000	55		 push	 ebp
  00001	8b ec		 mov	 ebp, esp
  00003	56		 push	 esi
  00004	8b f1		 mov	 esi, ecx
  00006	0f 57 c0	 xorps	 xmm0, xmm0
  00009	8d 46 04	 lea	 eax, DWORD PTR [esi+4]

; 73   :         __std_exception_copy(&_Other._Data, &_Data);

  0000c	50		 push	 eax
  0000d	c7 06 00 00 00
	00		 mov	 DWORD PTR [esi], OFFSET ??_7exception@std@@6B@
  00013	66 0f d6 00	 movq	 QWORD PTR [eax], xmm0
  00017	8b 45 08	 mov	 eax, DWORD PTR __Other$[ebp]
  0001a	83 c0 04	 add	 eax, 4
  0001d	50		 push	 eax
  0001e	e8 00 00 00 00	 call	 ___std_exception_copy
  00023	83 c4 08	 add	 esp, 8

; 74   :     }

  00026	8b c6		 mov	 eax, esi
  00028	5e		 pop	 esi
  00029	5d		 pop	 ebp
  0002a	c2 04 00	 ret	 4
??0exception@std@@QAE@ABV01@@Z ENDP			; std::exception::exception
_TEXT	ENDS
; Function compile flags: /Ogtp
; File C:\Program Files (x86)\Windows Kits\10\Include\10.0.19041.0\ucrt\stdio.h
;	COMDAT __snprintf
_TEXT	SEGMENT
__Buffer$ = 8						; size = 4
__BufferCount$ = 12					; size = 4
__Format$ = 16						; size = 4
__snprintf PROC						; COMDAT

; 1947 :     {

  00000	55		 push	 ebp
  00001	8b ec		 mov	 ebp, esp

; 1392 :         int const _Result = __stdio_common_vsprintf(

  00003	8d 45 14	 lea	 eax, DWORD PTR __Format$[ebp+4]
  00006	50		 push	 eax
  00007	6a 00		 push	 0
  00009	ff 75 10	 push	 DWORD PTR __Format$[ebp]
  0000c	ff 75 0c	 push	 DWORD PTR __BufferCount$[ebp]
  0000f	ff 75 08	 push	 DWORD PTR __Buffer$[ebp]
  00012	e8 00 00 00 00	 call	 ___local_stdio_printf_options
  00017	8b 08		 mov	 ecx, DWORD PTR [eax]
  00019	ff 70 04	 push	 DWORD PTR [eax+4]
  0001c	83 c9 01	 or	 ecx, 1
  0001f	51		 push	 ecx
  00020	e8 00 00 00 00	 call	 ___stdio_common_vsprintf

; 1393 :             _CRT_INTERNAL_LOCAL_PRINTF_OPTIONS | _CRT_INTERNAL_PRINTF_LEGACY_VSPRINTF_NULL_TERMINATION,
; 1394 :             _Buffer, _BufferCount, _Format, _Locale, _ArgList);
; 1395 : 
; 1396 :         return _Result < 0 ? -1 : _Result;

  00025	83 c9 ff	 or	 ecx, -1
  00028	83 c4 1c	 add	 esp, 28			; 0000001cH
  0002b	85 c0		 test	 eax, eax
  0002d	0f 48 c1	 cmovs	 eax, ecx

; 1948 :         int _Result;
; 1949 :         va_list _ArgList;
; 1950 :         __crt_va_start(_ArgList, _Format);
; 1951 :         _Result = _vsnprintf(_Buffer, _BufferCount, _Format, _ArgList);
; 1952 :         __crt_va_end(_ArgList);
; 1953 :         return _Result;
; 1954 :     }

  00030	5d		 pop	 ebp
  00031	c3		 ret	 0
__snprintf ENDP
_TEXT	ENDS
; Function compile flags: /Ogtp
; File C:\Program Files (x86)\Windows Kits\10\Include\10.0.19041.0\ucrt\stdio.h
;	COMDAT _sprintf
_TEXT	SEGMENT
__Buffer$ = 8						; size = 4
__Format$ = 12						; size = 4
_sprintf PROC						; COMDAT

; 1771 :     {

  00000	55		 push	 ebp
  00001	8b ec		 mov	 ebp, esp

; 1392 :         int const _Result = __stdio_common_vsprintf(

  00003	8d 45 10	 lea	 eax, DWORD PTR __Format$[ebp+4]
  00006	50		 push	 eax
  00007	6a 00		 push	 0
  00009	ff 75 0c	 push	 DWORD PTR __Format$[ebp]
  0000c	6a ff		 push	 -1
  0000e	ff 75 08	 push	 DWORD PTR __Buffer$[ebp]
  00011	e8 00 00 00 00	 call	 ___local_stdio_printf_options
  00016	8b 08		 mov	 ecx, DWORD PTR [eax]
  00018	ff 70 04	 push	 DWORD PTR [eax+4]
  0001b	83 c9 01	 or	 ecx, 1
  0001e	51		 push	 ecx
  0001f	e8 00 00 00 00	 call	 ___stdio_common_vsprintf

; 1393 :             _CRT_INTERNAL_LOCAL_PRINTF_OPTIONS | _CRT_INTERNAL_PRINTF_LEGACY_VSPRINTF_NULL_TERMINATION,
; 1394 :             _Buffer, _BufferCount, _Format, _Locale, _ArgList);
; 1395 : 
; 1396 :         return _Result < 0 ? -1 : _Result;

  00024	83 c9 ff	 or	 ecx, -1
  00027	83 c4 1c	 add	 esp, 28			; 0000001cH
  0002a	85 c0		 test	 eax, eax
  0002c	0f 48 c1	 cmovs	 eax, ecx

; 1772 :         int _Result;
; 1773 :         va_list _ArgList;
; 1774 :         __crt_va_start(_ArgList, _Format);
; 1775 : 
; 1776 :         _Result = _vsprintf_l(_Buffer, _Format, NULL, _ArgList);
; 1777 : 
; 1778 :         __crt_va_end(_ArgList);
; 1779 :         return _Result;
; 1780 :     }

  0002f	5d		 pop	 ebp
  00030	c3		 ret	 0
_sprintf ENDP
_TEXT	ENDS
; Function compile flags: /Ogtp
; File C:\Program Files (x86)\Windows Kits\10\Include\10.0.19041.0\ucrt\corecrt_stdio_config.h
;	COMDAT ___local_stdio_printf_options
_TEXT	SEGMENT
___local_stdio_printf_options PROC			; COMDAT

; 91   :         static unsigned __int64 _OptionsStorage;
; 92   :         return &_OptionsStorage;

  00000	b8 00 00 00 00	 mov	 eax, OFFSET ?_OptionsStorage@?1??__local_stdio_printf_options@@9@4_KA ; `__local_stdio_printf_options'::`2'::_OptionsStorage

; 93   :     }

  00005	c3		 ret	 0
___local_stdio_printf_options ENDP
_TEXT	ENDS
END
