; Listing generated by Microsoft (R) Optimizing Compiler Version 19.29.30137.0 

	TITLE	C:\Users\murat\Desktop\Siveps2-1-99-Project\source\client\Client\GameLib\Distribute\FlyingInstance.obj
	.686P
	.XMM
	include listing.inc
	.model	flat

INCLUDELIB LIBCMT
INCLUDELIB OLDNAMES

PUBLIC	??_7?$CDynamicPoolEx@VCTextureAnimationRandomDecorator@NEffectUpdateDecorator@@@@6B@ ; CDynamicPoolEx<NEffectUpdateDecorator::CTextureAnimationRandomDecorator>::`vftable'
PUBLIC	??_G?$CDynamicPoolEx@VCTextureAnimationRandomDecorator@NEffectUpdateDecorator@@@@UAEPAXI@Z ; CDynamicPoolEx<NEffectUpdateDecorator::CTextureAnimationRandomDecorator>::`scalar deleting destructor'
PUBLIC	??_7?$CDynamicPoolEx@VCTextureAnimationCCWDecorator@NEffectUpdateDecorator@@@@6B@ ; CDynamicPoolEx<NEffectUpdateDecorator::CTextureAnimationCCWDecorator>::`vftable'
PUBLIC	??_G?$CDynamicPoolEx@VCTextureAnimationCCWDecorator@NEffectUpdateDecorator@@@@UAEPAXI@Z ; CDynamicPoolEx<NEffectUpdateDecorator::CTextureAnimationCCWDecorator>::`scalar deleting destructor'
PUBLIC	??_7?$CDynamicPoolEx@VCTextureAnimationCWDecorator@NEffectUpdateDecorator@@@@6B@ ; CDynamicPoolEx<NEffectUpdateDecorator::CTextureAnimationCWDecorator>::`vftable'
PUBLIC	??_G?$CDynamicPoolEx@VCTextureAnimationCWDecorator@NEffectUpdateDecorator@@@@UAEPAXI@Z ; CDynamicPoolEx<NEffectUpdateDecorator::CTextureAnimationCWDecorator>::`scalar deleting destructor'
PUBLIC	??_7?$CDynamicPool@VCFlyingInstance@@@@6B@	; CDynamicPool<CFlyingInstance>::`vftable'
PUBLIC	??_G?$CDynamicPool@VCFlyingInstance@@@@UAEPAXI@Z ; CDynamicPool<CFlyingInstance>::`scalar deleting destructor'
PUBLIC	??_7?$CDynamicPoolEx@VCNullDecorator@NEffectUpdateDecorator@@@@6B@ ; CDynamicPoolEx<NEffectUpdateDecorator::CNullDecorator>::`vftable'
PUBLIC	??_G?$CDynamicPoolEx@VCNullDecorator@NEffectUpdateDecorator@@@@UAEPAXI@Z ; CDynamicPoolEx<NEffectUpdateDecorator::CNullDecorator>::`scalar deleting destructor'
PUBLIC	??_7?$CDynamicPoolEx@VCHeaderDecorator@NEffectUpdateDecorator@@@@6B@ ; CDynamicPoolEx<NEffectUpdateDecorator::CHeaderDecorator>::`vftable'
PUBLIC	??_G?$CDynamicPoolEx@VCHeaderDecorator@NEffectUpdateDecorator@@@@UAEPAXI@Z ; CDynamicPoolEx<NEffectUpdateDecorator::CHeaderDecorator>::`scalar deleting destructor'
PUBLIC	??_R4?$CDynamicPoolEx@VCHeaderDecorator@NEffectUpdateDecorator@@@@6B@ ; CDynamicPoolEx<NEffectUpdateDecorator::CHeaderDecorator>::`RTTI Complete Object Locator'
PUBLIC	??_R0?AV?$CDynamicPoolEx@VCHeaderDecorator@NEffectUpdateDecorator@@@@@8 ; CDynamicPoolEx<NEffectUpdateDecorator::CHeaderDecorator> `RTTI Type Descriptor'
PUBLIC	??_R3?$CDynamicPoolEx@VCHeaderDecorator@NEffectUpdateDecorator@@@@8 ; CDynamicPoolEx<NEffectUpdateDecorator::CHeaderDecorator>::`RTTI Class Hierarchy Descriptor'
PUBLIC	??_R2?$CDynamicPoolEx@VCHeaderDecorator@NEffectUpdateDecorator@@@@8 ; CDynamicPoolEx<NEffectUpdateDecorator::CHeaderDecorator>::`RTTI Base Class Array'
PUBLIC	??_R1A@?0A@EA@?$CDynamicPoolEx@VCHeaderDecorator@NEffectUpdateDecorator@@@@8 ; CDynamicPoolEx<NEffectUpdateDecorator::CHeaderDecorator>::`RTTI Base Class Descriptor at (0,-1,0,64)'
PUBLIC	??_R4?$CDynamicPoolEx@VCNullDecorator@NEffectUpdateDecorator@@@@6B@ ; CDynamicPoolEx<NEffectUpdateDecorator::CNullDecorator>::`RTTI Complete Object Locator'
PUBLIC	??_R0?AV?$CDynamicPoolEx@VCNullDecorator@NEffectUpdateDecorator@@@@@8 ; CDynamicPoolEx<NEffectUpdateDecorator::CNullDecorator> `RTTI Type Descriptor'
PUBLIC	??_R3?$CDynamicPoolEx@VCNullDecorator@NEffectUpdateDecorator@@@@8 ; CDynamicPoolEx<NEffectUpdateDecorator::CNullDecorator>::`RTTI Class Hierarchy Descriptor'
PUBLIC	??_R2?$CDynamicPoolEx@VCNullDecorator@NEffectUpdateDecorator@@@@8 ; CDynamicPoolEx<NEffectUpdateDecorator::CNullDecorator>::`RTTI Base Class Array'
PUBLIC	??_R1A@?0A@EA@?$CDynamicPoolEx@VCNullDecorator@NEffectUpdateDecorator@@@@8 ; CDynamicPoolEx<NEffectUpdateDecorator::CNullDecorator>::`RTTI Base Class Descriptor at (0,-1,0,64)'
PUBLIC	??_R4?$CDynamicPoolEx@VCTextureAnimationCWDecorator@NEffectUpdateDecorator@@@@6B@ ; CDynamicPoolEx<NEffectUpdateDecorator::CTextureAnimationCWDecorator>::`RTTI Complete Object Locator'
PUBLIC	??_R0?AV?$CDynamicPoolEx@VCTextureAnimationCWDecorator@NEffectUpdateDecorator@@@@@8 ; CDynamicPoolEx<NEffectUpdateDecorator::CTextureAnimationCWDecorator> `RTTI Type Descriptor'
PUBLIC	??_R3?$CDynamicPoolEx@VCTextureAnimationCWDecorator@NEffectUpdateDecorator@@@@8 ; CDynamicPoolEx<NEffectUpdateDecorator::CTextureAnimationCWDecorator>::`RTTI Class Hierarchy Descriptor'
PUBLIC	??_R2?$CDynamicPoolEx@VCTextureAnimationCWDecorator@NEffectUpdateDecorator@@@@8 ; CDynamicPoolEx<NEffectUpdateDecorator::CTextureAnimationCWDecorator>::`RTTI Base Class Array'
PUBLIC	??_R1A@?0A@EA@?$CDynamicPoolEx@VCTextureAnimationCWDecorator@NEffectUpdateDecorator@@@@8 ; CDynamicPoolEx<NEffectUpdateDecorator::CTextureAnimationCWDecorator>::`RTTI Base Class Descriptor at (0,-1,0,64)'
PUBLIC	??_R4?$CDynamicPoolEx@VCTextureAnimationCCWDecorator@NEffectUpdateDecorator@@@@6B@ ; CDynamicPoolEx<NEffectUpdateDecorator::CTextureAnimationCCWDecorator>::`RTTI Complete Object Locator'
PUBLIC	??_R0?AV?$CDynamicPoolEx@VCTextureAnimationCCWDecorator@NEffectUpdateDecorator@@@@@8 ; CDynamicPoolEx<NEffectUpdateDecorator::CTextureAnimationCCWDecorator> `RTTI Type Descriptor'
PUBLIC	??_R3?$CDynamicPoolEx@VCTextureAnimationCCWDecorator@NEffectUpdateDecorator@@@@8 ; CDynamicPoolEx<NEffectUpdateDecorator::CTextureAnimationCCWDecorator>::`RTTI Class Hierarchy Descriptor'
PUBLIC	??_R2?$CDynamicPoolEx@VCTextureAnimationCCWDecorator@NEffectUpdateDecorator@@@@8 ; CDynamicPoolEx<NEffectUpdateDecorator::CTextureAnimationCCWDecorator>::`RTTI Base Class Array'
PUBLIC	??_R1A@?0A@EA@?$CDynamicPoolEx@VCTextureAnimationCCWDecorator@NEffectUpdateDecorator@@@@8 ; CDynamicPoolEx<NEffectUpdateDecorator::CTextureAnimationCCWDecorator>::`RTTI Base Class Descriptor at (0,-1,0,64)'
PUBLIC	??_R4?$CDynamicPoolEx@VCTextureAnimationRandomDecorator@NEffectUpdateDecorator@@@@6B@ ; CDynamicPoolEx<NEffectUpdateDecorator::CTextureAnimationRandomDecorator>::`RTTI Complete Object Locator'
PUBLIC	??_R0?AV?$CDynamicPoolEx@VCTextureAnimationRandomDecorator@NEffectUpdateDecorator@@@@@8 ; CDynamicPoolEx<NEffectUpdateDecorator::CTextureAnimationRandomDecorator> `RTTI Type Descriptor'
PUBLIC	??_R3?$CDynamicPoolEx@VCTextureAnimationRandomDecorator@NEffectUpdateDecorator@@@@8 ; CDynamicPoolEx<NEffectUpdateDecorator::CTextureAnimationRandomDecorator>::`RTTI Class Hierarchy Descriptor'
PUBLIC	??_R2?$CDynamicPoolEx@VCTextureAnimationRandomDecorator@NEffectUpdateDecorator@@@@8 ; CDynamicPoolEx<NEffectUpdateDecorator::CTextureAnimationRandomDecorator>::`RTTI Base Class Array'
PUBLIC	??_R1A@?0A@EA@?$CDynamicPoolEx@VCTextureAnimationRandomDecorator@NEffectUpdateDecorator@@@@8 ; CDynamicPoolEx<NEffectUpdateDecorator::CTextureAnimationRandomDecorator>::`RTTI Base Class Descriptor at (0,-1,0,64)'
PUBLIC	??_R4?$CDynamicPoolEx@VCAirResistanceDecorator@NEffectUpdateDecorator@@@@6B@ ; CDynamicPoolEx<NEffectUpdateDecorator::CAirResistanceDecorator>::`RTTI Complete Object Locator'
PUBLIC	??_R0?AV?$CDynamicPoolEx@VCAirResistanceDecorator@NEffectUpdateDecorator@@@@@8 ; CDynamicPoolEx<NEffectUpdateDecorator::CAirResistanceDecorator> `RTTI Type Descriptor'
PUBLIC	??_R3?$CDynamicPoolEx@VCAirResistanceDecorator@NEffectUpdateDecorator@@@@8 ; CDynamicPoolEx<NEffectUpdateDecorator::CAirResistanceDecorator>::`RTTI Class Hierarchy Descriptor'
PUBLIC	??_R2?$CDynamicPoolEx@VCAirResistanceDecorator@NEffectUpdateDecorator@@@@8 ; CDynamicPoolEx<NEffectUpdateDecorator::CAirResistanceDecorator>::`RTTI Base Class Array'
PUBLIC	??_R1A@?0A@EA@?$CDynamicPoolEx@VCAirResistanceDecorator@NEffectUpdateDecorator@@@@8 ; CDynamicPoolEx<NEffectUpdateDecorator::CAirResistanceDecorator>::`RTTI Base Class Descriptor at (0,-1,0,64)'
PUBLIC	??_R4?$CDynamicPoolEx@VCGravityDecorator@NEffectUpdateDecorator@@@@6B@ ; CDynamicPoolEx<NEffectUpdateDecorator::CGravityDecorator>::`RTTI Complete Object Locator'
PUBLIC	??_R0?AV?$CDynamicPoolEx@VCGravityDecorator@NEffectUpdateDecorator@@@@@8 ; CDynamicPoolEx<NEffectUpdateDecorator::CGravityDecorator> `RTTI Type Descriptor'
PUBLIC	??_R3?$CDynamicPoolEx@VCGravityDecorator@NEffectUpdateDecorator@@@@8 ; CDynamicPoolEx<NEffectUpdateDecorator::CGravityDecorator>::`RTTI Class Hierarchy Descriptor'
PUBLIC	??_R2?$CDynamicPoolEx@VCGravityDecorator@NEffectUpdateDecorator@@@@8 ; CDynamicPoolEx<NEffectUpdateDecorator::CGravityDecorator>::`RTTI Base Class Array'
PUBLIC	??_R1A@?0A@EA@?$CDynamicPoolEx@VCGravityDecorator@NEffectUpdateDecorator@@@@8 ; CDynamicPoolEx<NEffectUpdateDecorator::CGravityDecorator>::`RTTI Base Class Descriptor at (0,-1,0,64)'
PUBLIC	??_R4?$CDynamicPoolEx@VCRotationDecorator@NEffectUpdateDecorator@@@@6B@ ; CDynamicPoolEx<NEffectUpdateDecorator::CRotationDecorator>::`RTTI Complete Object Locator'
PUBLIC	??_R0?AV?$CDynamicPoolEx@VCRotationDecorator@NEffectUpdateDecorator@@@@@8 ; CDynamicPoolEx<NEffectUpdateDecorator::CRotationDecorator> `RTTI Type Descriptor'
PUBLIC	??_R3?$CDynamicPoolEx@VCRotationDecorator@NEffectUpdateDecorator@@@@8 ; CDynamicPoolEx<NEffectUpdateDecorator::CRotationDecorator>::`RTTI Class Hierarchy Descriptor'
PUBLIC	??_R2?$CDynamicPoolEx@VCRotationDecorator@NEffectUpdateDecorator@@@@8 ; CDynamicPoolEx<NEffectUpdateDecorator::CRotationDecorator>::`RTTI Base Class Array'
PUBLIC	??_R1A@?0A@EA@?$CDynamicPoolEx@VCRotationDecorator@NEffectUpdateDecorator@@@@8 ; CDynamicPoolEx<NEffectUpdateDecorator::CRotationDecorator>::`RTTI Base Class Descriptor at (0,-1,0,64)'
PUBLIC	??_7?$CDynamicPoolEx@VCRotationDecorator@NEffectUpdateDecorator@@@@6B@ ; CDynamicPoolEx<NEffectUpdateDecorator::CRotationDecorator>::`vftable'
PUBLIC	??_G?$CDynamicPoolEx@VCRotationDecorator@NEffectUpdateDecorator@@@@UAEPAXI@Z ; CDynamicPoolEx<NEffectUpdateDecorator::CRotationDecorator>::`scalar deleting destructor'
PUBLIC	??_R4?$CDynamicPool@VCFlyingInstance@@@@6B@	; CDynamicPool<CFlyingInstance>::`RTTI Complete Object Locator'
PUBLIC	??_R0?AV?$CDynamicPool@VCFlyingInstance@@@@@8	; CDynamicPool<CFlyingInstance> `RTTI Type Descriptor'
PUBLIC	??_R3?$CDynamicPool@VCFlyingInstance@@@@8	; CDynamicPool<CFlyingInstance>::`RTTI Class Hierarchy Descriptor'
PUBLIC	??_R2?$CDynamicPool@VCFlyingInstance@@@@8	; CDynamicPool<CFlyingInstance>::`RTTI Base Class Array'
PUBLIC	??_R1A@?0A@EA@?$CDynamicPool@VCFlyingInstance@@@@8 ; CDynamicPool<CFlyingInstance>::`RTTI Base Class Descriptor at (0,-1,0,64)'
PUBLIC	??_7?$CDynamicPoolEx@VCGravityDecorator@NEffectUpdateDecorator@@@@6B@ ; CDynamicPoolEx<NEffectUpdateDecorator::CGravityDecorator>::`vftable'
PUBLIC	??_G?$CDynamicPoolEx@VCGravityDecorator@NEffectUpdateDecorator@@@@UAEPAXI@Z ; CDynamicPoolEx<NEffectUpdateDecorator::CGravityDecorator>::`scalar deleting destructor'
PUBLIC	??_7?$CDynamicPoolEx@VCAirResistanceDecorator@NEffectUpdateDecorator@@@@6B@ ; CDynamicPoolEx<NEffectUpdateDecorator::CAirResistanceDecorator>::`vftable'
PUBLIC	??_G?$CDynamicPoolEx@VCAirResistanceDecorator@NEffectUpdateDecorator@@@@UAEPAXI@Z ; CDynamicPoolEx<NEffectUpdateDecorator::CAirResistanceDecorator>::`scalar deleting destructor'
EXTRN	??_E?$CDynamicPoolEx@VCTextureAnimationRandomDecorator@NEffectUpdateDecorator@@@@UAEPAXI@Z:PROC ; CDynamicPoolEx<NEffectUpdateDecorator::CTextureAnimationRandomDecorator>::`vector deleting destructor'
EXTRN	??_E?$CDynamicPoolEx@VCTextureAnimationCCWDecorator@NEffectUpdateDecorator@@@@UAEPAXI@Z:PROC ; CDynamicPoolEx<NEffectUpdateDecorator::CTextureAnimationCCWDecorator>::`vector deleting destructor'
EXTRN	??_7type_info@@6B@:QWORD			; type_info::`vftable'
EXTRN	??_E?$CDynamicPoolEx@VCTextureAnimationCWDecorator@NEffectUpdateDecorator@@@@UAEPAXI@Z:PROC ; CDynamicPoolEx<NEffectUpdateDecorator::CTextureAnimationCWDecorator>::`vector deleting destructor'
EXTRN	??_E?$CDynamicPool@VCFlyingInstance@@@@UAEPAXI@Z:PROC ; CDynamicPool<CFlyingInstance>::`vector deleting destructor'
EXTRN	??_E?$CDynamicPoolEx@VCNullDecorator@NEffectUpdateDecorator@@@@UAEPAXI@Z:PROC ; CDynamicPoolEx<NEffectUpdateDecorator::CNullDecorator>::`vector deleting destructor'
EXTRN	??_E?$CDynamicPoolEx@VCHeaderDecorator@NEffectUpdateDecorator@@@@UAEPAXI@Z:PROC ; CDynamicPoolEx<NEffectUpdateDecorator::CHeaderDecorator>::`vector deleting destructor'
EXTRN	??_E?$CDynamicPoolEx@VCRotationDecorator@NEffectUpdateDecorator@@@@UAEPAXI@Z:PROC ; CDynamicPoolEx<NEffectUpdateDecorator::CRotationDecorator>::`vector deleting destructor'
EXTRN	??_E?$CDynamicPoolEx@VCGravityDecorator@NEffectUpdateDecorator@@@@UAEPAXI@Z:PROC ; CDynamicPoolEx<NEffectUpdateDecorator::CGravityDecorator>::`vector deleting destructor'
EXTRN	??_E?$CDynamicPoolEx@VCAirResistanceDecorator@NEffectUpdateDecorator@@@@UAEPAXI@Z:PROC ; CDynamicPoolEx<NEffectUpdateDecorator::CAirResistanceDecorator>::`vector deleting destructor'
;	COMDAT ??_7?$CDynamicPoolEx@VCAirResistanceDecorator@NEffectUpdateDecorator@@@@6B@
CONST	SEGMENT
??_7?$CDynamicPoolEx@VCAirResistanceDecorator@NEffectUpdateDecorator@@@@6B@ DD FLAT:??_R4?$CDynamicPoolEx@VCAirResistanceDecorator@NEffectUpdateDecorator@@@@6B@ ; CDynamicPoolEx<NEffectUpdateDecorator::CAirResistanceDecorator>::`vftable'
	DD	FLAT:??_E?$CDynamicPoolEx@VCAirResistanceDecorator@NEffectUpdateDecorator@@@@UAEPAXI@Z
CONST	ENDS
;	COMDAT ??_7?$CDynamicPoolEx@VCGravityDecorator@NEffectUpdateDecorator@@@@6B@
CONST	SEGMENT
??_7?$CDynamicPoolEx@VCGravityDecorator@NEffectUpdateDecorator@@@@6B@ DD FLAT:??_R4?$CDynamicPoolEx@VCGravityDecorator@NEffectUpdateDecorator@@@@6B@ ; CDynamicPoolEx<NEffectUpdateDecorator::CGravityDecorator>::`vftable'
	DD	FLAT:??_E?$CDynamicPoolEx@VCGravityDecorator@NEffectUpdateDecorator@@@@UAEPAXI@Z
CONST	ENDS
;	COMDAT ??_R1A@?0A@EA@?$CDynamicPool@VCFlyingInstance@@@@8
rdata$r	SEGMENT
??_R1A@?0A@EA@?$CDynamicPool@VCFlyingInstance@@@@8 DD FLAT:??_R0?AV?$CDynamicPool@VCFlyingInstance@@@@@8 ; CDynamicPool<CFlyingInstance>::`RTTI Base Class Descriptor at (0,-1,0,64)'
	DD	00H
	DD	00H
	DD	0ffffffffH
	DD	00H
	DD	040H
	DD	FLAT:??_R3?$CDynamicPool@VCFlyingInstance@@@@8
rdata$r	ENDS
;	COMDAT ??_R2?$CDynamicPool@VCFlyingInstance@@@@8
rdata$r	SEGMENT
??_R2?$CDynamicPool@VCFlyingInstance@@@@8 DD FLAT:??_R1A@?0A@EA@?$CDynamicPool@VCFlyingInstance@@@@8 ; CDynamicPool<CFlyingInstance>::`RTTI Base Class Array'
rdata$r	ENDS
;	COMDAT ??_R3?$CDynamicPool@VCFlyingInstance@@@@8
rdata$r	SEGMENT
??_R3?$CDynamicPool@VCFlyingInstance@@@@8 DD 00H	; CDynamicPool<CFlyingInstance>::`RTTI Class Hierarchy Descriptor'
	DD	00H
	DD	01H
	DD	FLAT:??_R2?$CDynamicPool@VCFlyingInstance@@@@8
rdata$r	ENDS
;	COMDAT ??_R0?AV?$CDynamicPool@VCFlyingInstance@@@@@8
data$rs	SEGMENT
??_R0?AV?$CDynamicPool@VCFlyingInstance@@@@@8 DD FLAT:??_7type_info@@6B@ ; CDynamicPool<CFlyingInstance> `RTTI Type Descriptor'
	DD	00H
	DB	'.?AV?$CDynamicPool@VCFlyingInstance@@@@', 00H
data$rs	ENDS
;	COMDAT ??_R4?$CDynamicPool@VCFlyingInstance@@@@6B@
rdata$r	SEGMENT
??_R4?$CDynamicPool@VCFlyingInstance@@@@6B@ DD 00H	; CDynamicPool<CFlyingInstance>::`RTTI Complete Object Locator'
	DD	00H
	DD	00H
	DD	FLAT:??_R0?AV?$CDynamicPool@VCFlyingInstance@@@@@8
	DD	FLAT:??_R3?$CDynamicPool@VCFlyingInstance@@@@8
rdata$r	ENDS
;	COMDAT ??_7?$CDynamicPoolEx@VCRotationDecorator@NEffectUpdateDecorator@@@@6B@
CONST	SEGMENT
??_7?$CDynamicPoolEx@VCRotationDecorator@NEffectUpdateDecorator@@@@6B@ DD FLAT:??_R4?$CDynamicPoolEx@VCRotationDecorator@NEffectUpdateDecorator@@@@6B@ ; CDynamicPoolEx<NEffectUpdateDecorator::CRotationDecorator>::`vftable'
	DD	FLAT:??_E?$CDynamicPoolEx@VCRotationDecorator@NEffectUpdateDecorator@@@@UAEPAXI@Z
CONST	ENDS
;	COMDAT ??_R1A@?0A@EA@?$CDynamicPoolEx@VCRotationDecorator@NEffectUpdateDecorator@@@@8
rdata$r	SEGMENT
??_R1A@?0A@EA@?$CDynamicPoolEx@VCRotationDecorator@NEffectUpdateDecorator@@@@8 DD FLAT:??_R0?AV?$CDynamicPoolEx@VCRotationDecorator@NEffectUpdateDecorator@@@@@8 ; CDynamicPoolEx<NEffectUpdateDecorator::CRotationDecorator>::`RTTI Base Class Descriptor at (0,-1,0,64)'
	DD	00H
	DD	00H
	DD	0ffffffffH
	DD	00H
	DD	040H
	DD	FLAT:??_R3?$CDynamicPoolEx@VCRotationDecorator@NEffectUpdateDecorator@@@@8
rdata$r	ENDS
;	COMDAT ??_R2?$CDynamicPoolEx@VCRotationDecorator@NEffectUpdateDecorator@@@@8
rdata$r	SEGMENT
??_R2?$CDynamicPoolEx@VCRotationDecorator@NEffectUpdateDecorator@@@@8 DD FLAT:??_R1A@?0A@EA@?$CDynamicPoolEx@VCRotationDecorator@NEffectUpdateDecorator@@@@8 ; CDynamicPoolEx<NEffectUpdateDecorator::CRotationDecorator>::`RTTI Base Class Array'
rdata$r	ENDS
;	COMDAT ??_R3?$CDynamicPoolEx@VCRotationDecorator@NEffectUpdateDecorator@@@@8
rdata$r	SEGMENT
??_R3?$CDynamicPoolEx@VCRotationDecorator@NEffectUpdateDecorator@@@@8 DD 00H ; CDynamicPoolEx<NEffectUpdateDecorator::CRotationDecorator>::`RTTI Class Hierarchy Descriptor'
	DD	00H
	DD	01H
	DD	FLAT:??_R2?$CDynamicPoolEx@VCRotationDecorator@NEffectUpdateDecorator@@@@8
rdata$r	ENDS
;	COMDAT ??_R0?AV?$CDynamicPoolEx@VCRotationDecorator@NEffectUpdateDecorator@@@@@8
data$rs	SEGMENT
??_R0?AV?$CDynamicPoolEx@VCRotationDecorator@NEffectUpdateDecorator@@@@@8 DD FLAT:??_7type_info@@6B@ ; CDynamicPoolEx<NEffectUpdateDecorator::CRotationDecorator> `RTTI Type Descriptor'
	DD	00H
	DB	'.?AV?$CDynamicPoolEx@VCRotationDecorator@NEffectUpdateDe'
	DB	'corator@@@@', 00H
data$rs	ENDS
;	COMDAT ??_R4?$CDynamicPoolEx@VCRotationDecorator@NEffectUpdateDecorator@@@@6B@
rdata$r	SEGMENT
??_R4?$CDynamicPoolEx@VCRotationDecorator@NEffectUpdateDecorator@@@@6B@ DD 00H ; CDynamicPoolEx<NEffectUpdateDecorator::CRotationDecorator>::`RTTI Complete Object Locator'
	DD	00H
	DD	00H
	DD	FLAT:??_R0?AV?$CDynamicPoolEx@VCRotationDecorator@NEffectUpdateDecorator@@@@@8
	DD	FLAT:??_R3?$CDynamicPoolEx@VCRotationDecorator@NEffectUpdateDecorator@@@@8
rdata$r	ENDS
;	COMDAT ??_R1A@?0A@EA@?$CDynamicPoolEx@VCGravityDecorator@NEffectUpdateDecorator@@@@8
rdata$r	SEGMENT
??_R1A@?0A@EA@?$CDynamicPoolEx@VCGravityDecorator@NEffectUpdateDecorator@@@@8 DD FLAT:??_R0?AV?$CDynamicPoolEx@VCGravityDecorator@NEffectUpdateDecorator@@@@@8 ; CDynamicPoolEx<NEffectUpdateDecorator::CGravityDecorator>::`RTTI Base Class Descriptor at (0,-1,0,64)'
	DD	00H
	DD	00H
	DD	0ffffffffH
	DD	00H
	DD	040H
	DD	FLAT:??_R3?$CDynamicPoolEx@VCGravityDecorator@NEffectUpdateDecorator@@@@8
rdata$r	ENDS
;	COMDAT ??_R2?$CDynamicPoolEx@VCGravityDecorator@NEffectUpdateDecorator@@@@8
rdata$r	SEGMENT
??_R2?$CDynamicPoolEx@VCGravityDecorator@NEffectUpdateDecorator@@@@8 DD FLAT:??_R1A@?0A@EA@?$CDynamicPoolEx@VCGravityDecorator@NEffectUpdateDecorator@@@@8 ; CDynamicPoolEx<NEffectUpdateDecorator::CGravityDecorator>::`RTTI Base Class Array'
rdata$r	ENDS
;	COMDAT ??_R3?$CDynamicPoolEx@VCGravityDecorator@NEffectUpdateDecorator@@@@8
rdata$r	SEGMENT
??_R3?$CDynamicPoolEx@VCGravityDecorator@NEffectUpdateDecorator@@@@8 DD 00H ; CDynamicPoolEx<NEffectUpdateDecorator::CGravityDecorator>::`RTTI Class Hierarchy Descriptor'
	DD	00H
	DD	01H
	DD	FLAT:??_R2?$CDynamicPoolEx@VCGravityDecorator@NEffectUpdateDecorator@@@@8
rdata$r	ENDS
;	COMDAT ??_R0?AV?$CDynamicPoolEx@VCGravityDecorator@NEffectUpdateDecorator@@@@@8
data$rs	SEGMENT
??_R0?AV?$CDynamicPoolEx@VCGravityDecorator@NEffectUpdateDecorator@@@@@8 DD FLAT:??_7type_info@@6B@ ; CDynamicPoolEx<NEffectUpdateDecorator::CGravityDecorator> `RTTI Type Descriptor'
	DD	00H
	DB	'.?AV?$CDynamicPoolEx@VCGravityDecorator@NEffectUpdateDec'
	DB	'orator@@@@', 00H
data$rs	ENDS
;	COMDAT ??_R4?$CDynamicPoolEx@VCGravityDecorator@NEffectUpdateDecorator@@@@6B@
rdata$r	SEGMENT
??_R4?$CDynamicPoolEx@VCGravityDecorator@NEffectUpdateDecorator@@@@6B@ DD 00H ; CDynamicPoolEx<NEffectUpdateDecorator::CGravityDecorator>::`RTTI Complete Object Locator'
	DD	00H
	DD	00H
	DD	FLAT:??_R0?AV?$CDynamicPoolEx@VCGravityDecorator@NEffectUpdateDecorator@@@@@8
	DD	FLAT:??_R3?$CDynamicPoolEx@VCGravityDecorator@NEffectUpdateDecorator@@@@8
rdata$r	ENDS
;	COMDAT ??_R1A@?0A@EA@?$CDynamicPoolEx@VCAirResistanceDecorator@NEffectUpdateDecorator@@@@8
rdata$r	SEGMENT
??_R1A@?0A@EA@?$CDynamicPoolEx@VCAirResistanceDecorator@NEffectUpdateDecorator@@@@8 DD FLAT:??_R0?AV?$CDynamicPoolEx@VCAirResistanceDecorator@NEffectUpdateDecorator@@@@@8 ; CDynamicPoolEx<NEffectUpdateDecorator::CAirResistanceDecorator>::`RTTI Base Class Descriptor at (0,-1,0,64)'
	DD	00H
	DD	00H
	DD	0ffffffffH
	DD	00H
	DD	040H
	DD	FLAT:??_R3?$CDynamicPoolEx@VCAirResistanceDecorator@NEffectUpdateDecorator@@@@8
rdata$r	ENDS
;	COMDAT ??_R2?$CDynamicPoolEx@VCAirResistanceDecorator@NEffectUpdateDecorator@@@@8
rdata$r	SEGMENT
??_R2?$CDynamicPoolEx@VCAirResistanceDecorator@NEffectUpdateDecorator@@@@8 DD FLAT:??_R1A@?0A@EA@?$CDynamicPoolEx@VCAirResistanceDecorator@NEffectUpdateDecorator@@@@8 ; CDynamicPoolEx<NEffectUpdateDecorator::CAirResistanceDecorator>::`RTTI Base Class Array'
rdata$r	ENDS
;	COMDAT ??_R3?$CDynamicPoolEx@VCAirResistanceDecorator@NEffectUpdateDecorator@@@@8
rdata$r	SEGMENT
??_R3?$CDynamicPoolEx@VCAirResistanceDecorator@NEffectUpdateDecorator@@@@8 DD 00H ; CDynamicPoolEx<NEffectUpdateDecorator::CAirResistanceDecorator>::`RTTI Class Hierarchy Descriptor'
	DD	00H
	DD	01H
	DD	FLAT:??_R2?$CDynamicPoolEx@VCAirResistanceDecorator@NEffectUpdateDecorator@@@@8
rdata$r	ENDS
;	COMDAT ??_R0?AV?$CDynamicPoolEx@VCAirResistanceDecorator@NEffectUpdateDecorator@@@@@8
data$rs	SEGMENT
??_R0?AV?$CDynamicPoolEx@VCAirResistanceDecorator@NEffectUpdateDecorator@@@@@8 DD FLAT:??_7type_info@@6B@ ; CDynamicPoolEx<NEffectUpdateDecorator::CAirResistanceDecorator> `RTTI Type Descriptor'
	DD	00H
	DB	'.?AV?$CDynamicPoolEx@VCAirResistanceDecorator@NEffectUpd'
	DB	'ateDecorator@@@@', 00H
data$rs	ENDS
;	COMDAT ??_R4?$CDynamicPoolEx@VCAirResistanceDecorator@NEffectUpdateDecorator@@@@6B@
rdata$r	SEGMENT
??_R4?$CDynamicPoolEx@VCAirResistanceDecorator@NEffectUpdateDecorator@@@@6B@ DD 00H ; CDynamicPoolEx<NEffectUpdateDecorator::CAirResistanceDecorator>::`RTTI Complete Object Locator'
	DD	00H
	DD	00H
	DD	FLAT:??_R0?AV?$CDynamicPoolEx@VCAirResistanceDecorator@NEffectUpdateDecorator@@@@@8
	DD	FLAT:??_R3?$CDynamicPoolEx@VCAirResistanceDecorator@NEffectUpdateDecorator@@@@8
rdata$r	ENDS
;	COMDAT ??_R1A@?0A@EA@?$CDynamicPoolEx@VCTextureAnimationRandomDecorator@NEffectUpdateDecorator@@@@8
rdata$r	SEGMENT
??_R1A@?0A@EA@?$CDynamicPoolEx@VCTextureAnimationRandomDecorator@NEffectUpdateDecorator@@@@8 DD FLAT:??_R0?AV?$CDynamicPoolEx@VCTextureAnimationRandomDecorator@NEffectUpdateDecorator@@@@@8 ; CDynamicPoolEx<NEffectUpdateDecorator::CTextureAnimationRandomDecorator>::`RTTI Base Class Descriptor at (0,-1,0,64)'
	DD	00H
	DD	00H
	DD	0ffffffffH
	DD	00H
	DD	040H
	DD	FLAT:??_R3?$CDynamicPoolEx@VCTextureAnimationRandomDecorator@NEffectUpdateDecorator@@@@8
rdata$r	ENDS
;	COMDAT ??_R2?$CDynamicPoolEx@VCTextureAnimationRandomDecorator@NEffectUpdateDecorator@@@@8
rdata$r	SEGMENT
??_R2?$CDynamicPoolEx@VCTextureAnimationRandomDecorator@NEffectUpdateDecorator@@@@8 DD FLAT:??_R1A@?0A@EA@?$CDynamicPoolEx@VCTextureAnimationRandomDecorator@NEffectUpdateDecorator@@@@8 ; CDynamicPoolEx<NEffectUpdateDecorator::CTextureAnimationRandomDecorator>::`RTTI Base Class Array'
rdata$r	ENDS
;	COMDAT ??_R3?$CDynamicPoolEx@VCTextureAnimationRandomDecorator@NEffectUpdateDecorator@@@@8
rdata$r	SEGMENT
??_R3?$CDynamicPoolEx@VCTextureAnimationRandomDecorator@NEffectUpdateDecorator@@@@8 DD 00H ; CDynamicPoolEx<NEffectUpdateDecorator::CTextureAnimationRandomDecorator>::`RTTI Class Hierarchy Descriptor'
	DD	00H
	DD	01H
	DD	FLAT:??_R2?$CDynamicPoolEx@VCTextureAnimationRandomDecorator@NEffectUpdateDecorator@@@@8
rdata$r	ENDS
;	COMDAT ??_R0?AV?$CDynamicPoolEx@VCTextureAnimationRandomDecorator@NEffectUpdateDecorator@@@@@8
data$rs	SEGMENT
??_R0?AV?$CDynamicPoolEx@VCTextureAnimationRandomDecorator@NEffectUpdateDecorator@@@@@8 DD FLAT:??_7type_info@@6B@ ; CDynamicPoolEx<NEffectUpdateDecorator::CTextureAnimationRandomDecorator> `RTTI Type Descriptor'
	DD	00H
	DB	'.?AV?$CDynamicPoolEx@VCTextureAnimationRandomDecorator@N'
	DB	'EffectUpdateDecorator@@@@', 00H
data$rs	ENDS
;	COMDAT ??_R4?$CDynamicPoolEx@VCTextureAnimationRandomDecorator@NEffectUpdateDecorator@@@@6B@
rdata$r	SEGMENT
??_R4?$CDynamicPoolEx@VCTextureAnimationRandomDecorator@NEffectUpdateDecorator@@@@6B@ DD 00H ; CDynamicPoolEx<NEffectUpdateDecorator::CTextureAnimationRandomDecorator>::`RTTI Complete Object Locator'
	DD	00H
	DD	00H
	DD	FLAT:??_R0?AV?$CDynamicPoolEx@VCTextureAnimationRandomDecorator@NEffectUpdateDecorator@@@@@8
	DD	FLAT:??_R3?$CDynamicPoolEx@VCTextureAnimationRandomDecorator@NEffectUpdateDecorator@@@@8
rdata$r	ENDS
;	COMDAT ??_R1A@?0A@EA@?$CDynamicPoolEx@VCTextureAnimationCCWDecorator@NEffectUpdateDecorator@@@@8
rdata$r	SEGMENT
??_R1A@?0A@EA@?$CDynamicPoolEx@VCTextureAnimationCCWDecorator@NEffectUpdateDecorator@@@@8 DD FLAT:??_R0?AV?$CDynamicPoolEx@VCTextureAnimationCCWDecorator@NEffectUpdateDecorator@@@@@8 ; CDynamicPoolEx<NEffectUpdateDecorator::CTextureAnimationCCWDecorator>::`RTTI Base Class Descriptor at (0,-1,0,64)'
	DD	00H
	DD	00H
	DD	0ffffffffH
	DD	00H
	DD	040H
	DD	FLAT:??_R3?$CDynamicPoolEx@VCTextureAnimationCCWDecorator@NEffectUpdateDecorator@@@@8
rdata$r	ENDS
;	COMDAT ??_R2?$CDynamicPoolEx@VCTextureAnimationCCWDecorator@NEffectUpdateDecorator@@@@8
rdata$r	SEGMENT
??_R2?$CDynamicPoolEx@VCTextureAnimationCCWDecorator@NEffectUpdateDecorator@@@@8 DD FLAT:??_R1A@?0A@EA@?$CDynamicPoolEx@VCTextureAnimationCCWDecorator@NEffectUpdateDecorator@@@@8 ; CDynamicPoolEx<NEffectUpdateDecorator::CTextureAnimationCCWDecorator>::`RTTI Base Class Array'
rdata$r	ENDS
;	COMDAT ??_R3?$CDynamicPoolEx@VCTextureAnimationCCWDecorator@NEffectUpdateDecorator@@@@8
rdata$r	SEGMENT
??_R3?$CDynamicPoolEx@VCTextureAnimationCCWDecorator@NEffectUpdateDecorator@@@@8 DD 00H ; CDynamicPoolEx<NEffectUpdateDecorator::CTextureAnimationCCWDecorator>::`RTTI Class Hierarchy Descriptor'
	DD	00H
	DD	01H
	DD	FLAT:??_R2?$CDynamicPoolEx@VCTextureAnimationCCWDecorator@NEffectUpdateDecorator@@@@8
rdata$r	ENDS
;	COMDAT ??_R0?AV?$CDynamicPoolEx@VCTextureAnimationCCWDecorator@NEffectUpdateDecorator@@@@@8
data$rs	SEGMENT
??_R0?AV?$CDynamicPoolEx@VCTextureAnimationCCWDecorator@NEffectUpdateDecorator@@@@@8 DD FLAT:??_7type_info@@6B@ ; CDynamicPoolEx<NEffectUpdateDecorator::CTextureAnimationCCWDecorator> `RTTI Type Descriptor'
	DD	00H
	DB	'.?AV?$CDynamicPoolEx@VCTextureAnimationCCWDecorator@NEff'
	DB	'ectUpdateDecorator@@@@', 00H
data$rs	ENDS
;	COMDAT ??_R4?$CDynamicPoolEx@VCTextureAnimationCCWDecorator@NEffectUpdateDecorator@@@@6B@
rdata$r	SEGMENT
??_R4?$CDynamicPoolEx@VCTextureAnimationCCWDecorator@NEffectUpdateDecorator@@@@6B@ DD 00H ; CDynamicPoolEx<NEffectUpdateDecorator::CTextureAnimationCCWDecorator>::`RTTI Complete Object Locator'
	DD	00H
	DD	00H
	DD	FLAT:??_R0?AV?$CDynamicPoolEx@VCTextureAnimationCCWDecorator@NEffectUpdateDecorator@@@@@8
	DD	FLAT:??_R3?$CDynamicPoolEx@VCTextureAnimationCCWDecorator@NEffectUpdateDecorator@@@@8
rdata$r	ENDS
;	COMDAT ??_R1A@?0A@EA@?$CDynamicPoolEx@VCTextureAnimationCWDecorator@NEffectUpdateDecorator@@@@8
rdata$r	SEGMENT
??_R1A@?0A@EA@?$CDynamicPoolEx@VCTextureAnimationCWDecorator@NEffectUpdateDecorator@@@@8 DD FLAT:??_R0?AV?$CDynamicPoolEx@VCTextureAnimationCWDecorator@NEffectUpdateDecorator@@@@@8 ; CDynamicPoolEx<NEffectUpdateDecorator::CTextureAnimationCWDecorator>::`RTTI Base Class Descriptor at (0,-1,0,64)'
	DD	00H
	DD	00H
	DD	0ffffffffH
	DD	00H
	DD	040H
	DD	FLAT:??_R3?$CDynamicPoolEx@VCTextureAnimationCWDecorator@NEffectUpdateDecorator@@@@8
rdata$r	ENDS
;	COMDAT ??_R2?$CDynamicPoolEx@VCTextureAnimationCWDecorator@NEffectUpdateDecorator@@@@8
rdata$r	SEGMENT
??_R2?$CDynamicPoolEx@VCTextureAnimationCWDecorator@NEffectUpdateDecorator@@@@8 DD FLAT:??_R1A@?0A@EA@?$CDynamicPoolEx@VCTextureAnimationCWDecorator@NEffectUpdateDecorator@@@@8 ; CDynamicPoolEx<NEffectUpdateDecorator::CTextureAnimationCWDecorator>::`RTTI Base Class Array'
rdata$r	ENDS
;	COMDAT ??_R3?$CDynamicPoolEx@VCTextureAnimationCWDecorator@NEffectUpdateDecorator@@@@8
rdata$r	SEGMENT
??_R3?$CDynamicPoolEx@VCTextureAnimationCWDecorator@NEffectUpdateDecorator@@@@8 DD 00H ; CDynamicPoolEx<NEffectUpdateDecorator::CTextureAnimationCWDecorator>::`RTTI Class Hierarchy Descriptor'
	DD	00H
	DD	01H
	DD	FLAT:??_R2?$CDynamicPoolEx@VCTextureAnimationCWDecorator@NEffectUpdateDecorator@@@@8
rdata$r	ENDS
;	COMDAT ??_R0?AV?$CDynamicPoolEx@VCTextureAnimationCWDecorator@NEffectUpdateDecorator@@@@@8
data$rs	SEGMENT
??_R0?AV?$CDynamicPoolEx@VCTextureAnimationCWDecorator@NEffectUpdateDecorator@@@@@8 DD FLAT:??_7type_info@@6B@ ; CDynamicPoolEx<NEffectUpdateDecorator::CTextureAnimationCWDecorator> `RTTI Type Descriptor'
	DD	00H
	DB	'.?AV?$CDynamicPoolEx@VCTextureAnimationCWDecorator@NEffe'
	DB	'ctUpdateDecorator@@@@', 00H
data$rs	ENDS
;	COMDAT ??_R4?$CDynamicPoolEx@VCTextureAnimationCWDecorator@NEffectUpdateDecorator@@@@6B@
rdata$r	SEGMENT
??_R4?$CDynamicPoolEx@VCTextureAnimationCWDecorator@NEffectUpdateDecorator@@@@6B@ DD 00H ; CDynamicPoolEx<NEffectUpdateDecorator::CTextureAnimationCWDecorator>::`RTTI Complete Object Locator'
	DD	00H
	DD	00H
	DD	FLAT:??_R0?AV?$CDynamicPoolEx@VCTextureAnimationCWDecorator@NEffectUpdateDecorator@@@@@8
	DD	FLAT:??_R3?$CDynamicPoolEx@VCTextureAnimationCWDecorator@NEffectUpdateDecorator@@@@8
rdata$r	ENDS
;	COMDAT ??_R1A@?0A@EA@?$CDynamicPoolEx@VCNullDecorator@NEffectUpdateDecorator@@@@8
rdata$r	SEGMENT
??_R1A@?0A@EA@?$CDynamicPoolEx@VCNullDecorator@NEffectUpdateDecorator@@@@8 DD FLAT:??_R0?AV?$CDynamicPoolEx@VCNullDecorator@NEffectUpdateDecorator@@@@@8 ; CDynamicPoolEx<NEffectUpdateDecorator::CNullDecorator>::`RTTI Base Class Descriptor at (0,-1,0,64)'
	DD	00H
	DD	00H
	DD	0ffffffffH
	DD	00H
	DD	040H
	DD	FLAT:??_R3?$CDynamicPoolEx@VCNullDecorator@NEffectUpdateDecorator@@@@8
rdata$r	ENDS
;	COMDAT ??_R2?$CDynamicPoolEx@VCNullDecorator@NEffectUpdateDecorator@@@@8
rdata$r	SEGMENT
??_R2?$CDynamicPoolEx@VCNullDecorator@NEffectUpdateDecorator@@@@8 DD FLAT:??_R1A@?0A@EA@?$CDynamicPoolEx@VCNullDecorator@NEffectUpdateDecorator@@@@8 ; CDynamicPoolEx<NEffectUpdateDecorator::CNullDecorator>::`RTTI Base Class Array'
rdata$r	ENDS
;	COMDAT ??_R3?$CDynamicPoolEx@VCNullDecorator@NEffectUpdateDecorator@@@@8
rdata$r	SEGMENT
??_R3?$CDynamicPoolEx@VCNullDecorator@NEffectUpdateDecorator@@@@8 DD 00H ; CDynamicPoolEx<NEffectUpdateDecorator::CNullDecorator>::`RTTI Class Hierarchy Descriptor'
	DD	00H
	DD	01H
	DD	FLAT:??_R2?$CDynamicPoolEx@VCNullDecorator@NEffectUpdateDecorator@@@@8
rdata$r	ENDS
;	COMDAT ??_R0?AV?$CDynamicPoolEx@VCNullDecorator@NEffectUpdateDecorator@@@@@8
data$rs	SEGMENT
??_R0?AV?$CDynamicPoolEx@VCNullDecorator@NEffectUpdateDecorator@@@@@8 DD FLAT:??_7type_info@@6B@ ; CDynamicPoolEx<NEffectUpdateDecorator::CNullDecorator> `RTTI Type Descriptor'
	DD	00H
	DB	'.?AV?$CDynamicPoolEx@VCNullDecorator@NEffectUpdateDecora'
	DB	'tor@@@@', 00H
data$rs	ENDS
;	COMDAT ??_R4?$CDynamicPoolEx@VCNullDecorator@NEffectUpdateDecorator@@@@6B@
rdata$r	SEGMENT
??_R4?$CDynamicPoolEx@VCNullDecorator@NEffectUpdateDecorator@@@@6B@ DD 00H ; CDynamicPoolEx<NEffectUpdateDecorator::CNullDecorator>::`RTTI Complete Object Locator'
	DD	00H
	DD	00H
	DD	FLAT:??_R0?AV?$CDynamicPoolEx@VCNullDecorator@NEffectUpdateDecorator@@@@@8
	DD	FLAT:??_R3?$CDynamicPoolEx@VCNullDecorator@NEffectUpdateDecorator@@@@8
rdata$r	ENDS
;	COMDAT ??_R1A@?0A@EA@?$CDynamicPoolEx@VCHeaderDecorator@NEffectUpdateDecorator@@@@8
rdata$r	SEGMENT
??_R1A@?0A@EA@?$CDynamicPoolEx@VCHeaderDecorator@NEffectUpdateDecorator@@@@8 DD FLAT:??_R0?AV?$CDynamicPoolEx@VCHeaderDecorator@NEffectUpdateDecorator@@@@@8 ; CDynamicPoolEx<NEffectUpdateDecorator::CHeaderDecorator>::`RTTI Base Class Descriptor at (0,-1,0,64)'
	DD	00H
	DD	00H
	DD	0ffffffffH
	DD	00H
	DD	040H
	DD	FLAT:??_R3?$CDynamicPoolEx@VCHeaderDecorator@NEffectUpdateDecorator@@@@8
rdata$r	ENDS
;	COMDAT ??_R2?$CDynamicPoolEx@VCHeaderDecorator@NEffectUpdateDecorator@@@@8
rdata$r	SEGMENT
??_R2?$CDynamicPoolEx@VCHeaderDecorator@NEffectUpdateDecorator@@@@8 DD FLAT:??_R1A@?0A@EA@?$CDynamicPoolEx@VCHeaderDecorator@NEffectUpdateDecorator@@@@8 ; CDynamicPoolEx<NEffectUpdateDecorator::CHeaderDecorator>::`RTTI Base Class Array'
rdata$r	ENDS
;	COMDAT ??_R3?$CDynamicPoolEx@VCHeaderDecorator@NEffectUpdateDecorator@@@@8
rdata$r	SEGMENT
??_R3?$CDynamicPoolEx@VCHeaderDecorator@NEffectUpdateDecorator@@@@8 DD 00H ; CDynamicPoolEx<NEffectUpdateDecorator::CHeaderDecorator>::`RTTI Class Hierarchy Descriptor'
	DD	00H
	DD	01H
	DD	FLAT:??_R2?$CDynamicPoolEx@VCHeaderDecorator@NEffectUpdateDecorator@@@@8
rdata$r	ENDS
;	COMDAT ??_R0?AV?$CDynamicPoolEx@VCHeaderDecorator@NEffectUpdateDecorator@@@@@8
data$rs	SEGMENT
??_R0?AV?$CDynamicPoolEx@VCHeaderDecorator@NEffectUpdateDecorator@@@@@8 DD FLAT:??_7type_info@@6B@ ; CDynamicPoolEx<NEffectUpdateDecorator::CHeaderDecorator> `RTTI Type Descriptor'
	DD	00H
	DB	'.?AV?$CDynamicPoolEx@VCHeaderDecorator@NEffectUpdateDeco'
	DB	'rator@@@@', 00H
data$rs	ENDS
;	COMDAT ??_R4?$CDynamicPoolEx@VCHeaderDecorator@NEffectUpdateDecorator@@@@6B@
rdata$r	SEGMENT
??_R4?$CDynamicPoolEx@VCHeaderDecorator@NEffectUpdateDecorator@@@@6B@ DD 00H ; CDynamicPoolEx<NEffectUpdateDecorator::CHeaderDecorator>::`RTTI Complete Object Locator'
	DD	00H
	DD	00H
	DD	FLAT:??_R0?AV?$CDynamicPoolEx@VCHeaderDecorator@NEffectUpdateDecorator@@@@@8
	DD	FLAT:??_R3?$CDynamicPoolEx@VCHeaderDecorator@NEffectUpdateDecorator@@@@8
rdata$r	ENDS
CONST	SEGMENT
?_Fake_alloc@std@@3U_Fake_allocator@1@B	ORG $+1		; std::_Fake_alloc
CONST	ENDS
;	COMDAT ??_7?$CDynamicPoolEx@VCHeaderDecorator@NEffectUpdateDecorator@@@@6B@
CONST	SEGMENT
??_7?$CDynamicPoolEx@VCHeaderDecorator@NEffectUpdateDecorator@@@@6B@ DD FLAT:??_R4?$CDynamicPoolEx@VCHeaderDecorator@NEffectUpdateDecorator@@@@6B@ ; CDynamicPoolEx<NEffectUpdateDecorator::CHeaderDecorator>::`vftable'
	DD	FLAT:??_E?$CDynamicPoolEx@VCHeaderDecorator@NEffectUpdateDecorator@@@@UAEPAXI@Z
CONST	ENDS
;	COMDAT ??_7?$CDynamicPoolEx@VCNullDecorator@NEffectUpdateDecorator@@@@6B@
CONST	SEGMENT
??_7?$CDynamicPoolEx@VCNullDecorator@NEffectUpdateDecorator@@@@6B@ DD FLAT:??_R4?$CDynamicPoolEx@VCNullDecorator@NEffectUpdateDecorator@@@@6B@ ; CDynamicPoolEx<NEffectUpdateDecorator::CNullDecorator>::`vftable'
	DD	FLAT:??_E?$CDynamicPoolEx@VCNullDecorator@NEffectUpdateDecorator@@@@UAEPAXI@Z
CONST	ENDS
;	COMDAT ??_7?$CDynamicPool@VCFlyingInstance@@@@6B@
CONST	SEGMENT
??_7?$CDynamicPool@VCFlyingInstance@@@@6B@ DD FLAT:??_R4?$CDynamicPool@VCFlyingInstance@@@@6B@ ; CDynamicPool<CFlyingInstance>::`vftable'
	DD	FLAT:??_E?$CDynamicPool@VCFlyingInstance@@@@UAEPAXI@Z
CONST	ENDS
;	COMDAT ??_7?$CDynamicPoolEx@VCTextureAnimationCWDecorator@NEffectUpdateDecorator@@@@6B@
CONST	SEGMENT
??_7?$CDynamicPoolEx@VCTextureAnimationCWDecorator@NEffectUpdateDecorator@@@@6B@ DD FLAT:??_R4?$CDynamicPoolEx@VCTextureAnimationCWDecorator@NEffectUpdateDecorator@@@@6B@ ; CDynamicPoolEx<NEffectUpdateDecorator::CTextureAnimationCWDecorator>::`vftable'
	DD	FLAT:??_E?$CDynamicPoolEx@VCTextureAnimationCWDecorator@NEffectUpdateDecorator@@@@UAEPAXI@Z
CONST	ENDS
;	COMDAT ??_7?$CDynamicPoolEx@VCTextureAnimationCCWDecorator@NEffectUpdateDecorator@@@@6B@
CONST	SEGMENT
??_7?$CDynamicPoolEx@VCTextureAnimationCCWDecorator@NEffectUpdateDecorator@@@@6B@ DD FLAT:??_R4?$CDynamicPoolEx@VCTextureAnimationCCWDecorator@NEffectUpdateDecorator@@@@6B@ ; CDynamicPoolEx<NEffectUpdateDecorator::CTextureAnimationCCWDecorator>::`vftable'
	DD	FLAT:??_E?$CDynamicPoolEx@VCTextureAnimationCCWDecorator@NEffectUpdateDecorator@@@@UAEPAXI@Z
CONST	ENDS
;	COMDAT ??_7?$CDynamicPoolEx@VCTextureAnimationRandomDecorator@NEffectUpdateDecorator@@@@6B@
CONST	SEGMENT
??_7?$CDynamicPoolEx@VCTextureAnimationRandomDecorator@NEffectUpdateDecorator@@@@6B@ DD FLAT:??_R4?$CDynamicPoolEx@VCTextureAnimationRandomDecorator@NEffectUpdateDecorator@@@@6B@ ; CDynamicPoolEx<NEffectUpdateDecorator::CTextureAnimationRandomDecorator>::`vftable'
	DD	FLAT:??_E?$CDynamicPoolEx@VCTextureAnimationRandomDecorator@NEffectUpdateDecorator@@@@UAEPAXI@Z
CONST	ENDS
PUBLIC	??_H@YGXPAXIIP6EPAX0@Z@Z			; `vector constructor iterator'
PUBLIC	?__empty_global_delete@@YAXPAX@Z		; __empty_global_delete
PUBLIC	?__empty_global_delete@@YAXPAXI@Z		; __empty_global_delete
PUBLIC	??0exception@std@@QAE@ABV01@@Z			; std::exception::exception
PUBLIC	??1exception@std@@UAE@XZ			; std::exception::~exception
PUBLIC	?what@exception@std@@UBEPBDXZ			; std::exception::what
PUBLIC	??_Gexception@std@@UAEPAXI@Z			; std::exception::`scalar deleting destructor'
PUBLIC	??0bad_alloc@std@@QAE@ABV01@@Z			; std::bad_alloc::bad_alloc
PUBLIC	??_Gbad_alloc@std@@UAEPAXI@Z			; std::bad_alloc::`scalar deleting destructor'
PUBLIC	??0bad_array_new_length@std@@QAE@XZ		; std::bad_array_new_length::bad_array_new_length
PUBLIC	??1bad_array_new_length@std@@UAE@XZ		; std::bad_array_new_length::~bad_array_new_length
PUBLIC	??0bad_array_new_length@std@@QAE@ABV01@@Z	; std::bad_array_new_length::bad_array_new_length
PUBLIC	??_Gbad_array_new_length@std@@UAEPAXI@Z		; std::bad_array_new_length::`scalar deleting destructor'
PUBLIC	?_Throw_bad_array_new_length@std@@YAXXZ		; std::_Throw_bad_array_new_length
PUBLIC	??0D3DXMATRIX@@QAE@XZ				; D3DXMATRIX::D3DXMATRIX
PUBLIC	?_Throw_tree_length_error@std@@YAXXZ		; std::_Throw_tree_length_error
PUBLIC	??$_Allocate_manually_vector_aligned@U_Default_allocate_traits@std@@@std@@YAPAXI@Z ; std::_Allocate_manually_vector_aligned<std::_Default_allocate_traits>
PUBLIC	?SafeRotationNormalizedArc@@YA?AUD3DXQUATERNION@@ABUD3DXVECTOR3@@0@Z ; SafeRotationNormalizedArc
PUBLIC	?square_distance_between_linesegment_and_point@@YAMABUD3DXVECTOR3@@00@Z ; square_distance_between_linesegment_and_point
PUBLIC	??1SpherePackCallback@@UAE@XZ			; SpherePackCallback::~SpherePackCallback
PUBLIC	?VisibilityCallback@SpherePackCallback@@UAEXABVFrustum@@PAVSpherePack@@W4ViewState@@@Z ; SpherePackCallback::VisibilityCallback
PUBLIC	?RayTraceCallback@SpherePackCallback@@UAEXABVVector3d@@0M0PAVSpherePack@@@Z ; SpherePackCallback::RayTraceCallback
PUBLIC	?RangeTestCallback@SpherePackCallback@@UAEXABVVector3d@@MPAVSpherePack@@W4ViewState@@@Z ; SpherePackCallback::RangeTestCallback
PUBLIC	?PointTest2dCallback@SpherePackCallback@@UAEXABVVector3d@@PAVSpherePack@@W4ViewState@@@Z ; SpherePackCallback::PointTest2dCallback
PUBLIC	??_GSpherePackCallback@@UAEPAXI@Z		; SpherePackCallback::`scalar deleting destructor'
PUBLIC	?Clear@CFlyingInstance@@QAEXXZ			; CFlyingInstance::Clear
PUBLIC	?SetDataPointer@CFlyingInstance@@QAEXPAVCFlyingData@@ABUD3DXVECTOR3@@@Z ; CFlyingInstance::SetDataPointer
PUBLIC	?SetFlyTarget@CFlyingInstance@@QAEXABVCFlyTarget@@@Z ; CFlyingInstance::SetFlyTarget
PUBLIC	??0CFlyingInstance@@QAE@XZ			; CFlyingInstance::CFlyingInstance
PUBLIC	??1CFlyingInstance@@UAE@XZ			; CFlyingInstance::~CFlyingInstance
PUBLIC	?Destroy@CFlyingInstance@@QAEXXZ		; CFlyingInstance::Destroy
PUBLIC	?Create@CFlyingInstance@@QAEXPAVCFlyingData@@ABUD3DXVECTOR3@@ABVCFlyTarget@@_N@Z ; CFlyingInstance::Create
PUBLIC	?Update@CFlyingInstance@@QAE_NXZ		; CFlyingInstance::Update
PUBLIC	?Render@CFlyingInstance@@QAEXXZ			; CFlyingInstance::Render
PUBLIC	?AdjustDirectionForHoming@CFlyingInstance@@QAEXABUD3DXVECTOR3@@@Z ; CFlyingInstance::AdjustDirectionForHoming
PUBLIC	?BuildAttachInstance@CFlyingInstance@@QAEXXZ	; CFlyingInstance::BuildAttachInstance
PUBLIC	?UpdateAttachInstance@CFlyingInstance@@QAEXXZ	; CFlyingInstance::UpdateAttachInstance
PUBLIC	?RenderAttachInstance@CFlyingInstance@@QAEXXZ	; CFlyingInstance::RenderAttachInstance
PUBLIC	?ClearAttachInstance@CFlyingInstance@@QAEXXZ	; CFlyingInstance::ClearAttachInstance
PUBLIC	?__Explode@CFlyingInstance@@QAEX_N@Z		; CFlyingInstance::__Explode
PUBLIC	?__Bomb@CFlyingInstance@@QAEXXZ			; CFlyingInstance::__Bomb
PUBLIC	?__Initialize@CFlyingInstance@@IAEXXZ		; CFlyingInstance::__Initialize
PUBLIC	?__SetDataPointer@CFlyingInstance@@IAEXPAVCFlyingData@@ABUD3DXVECTOR3@@@Z ; CFlyingInstance::__SetDataPointer
PUBLIC	?__SetTargetDirection@CFlyingInstance@@IAEXABVCFlyTarget@@@Z ; CFlyingInstance::__SetTargetDirection
PUBLIC	?__SetTargetNormalizedDirection@CFlyingInstance@@IAEXABUD3DXVECTOR3@@@Z ; CFlyingInstance::__SetTargetNormalizedDirection
PUBLIC	??1?$vector@UTAttachEffectInstance@CFlyingInstance@@V?$allocator@UTAttachEffectInstance@CFlyingInstance@@@std@@@std@@QAE@XZ ; std::vector<CFlyingInstance::TAttachEffectInstance,std::allocator<CFlyingInstance::TAttachEffectInstance> >::~vector<CFlyingInstance::TAttachEffectInstance,std::allocator<CFlyingInstance::TAttachEffectInstance> >
PUBLIC	?_Xlength@?$vector@UTAttachEffectInstance@CFlyingInstance@@V?$allocator@UTAttachEffectInstance@CFlyingInstance@@@std@@@std@@CAXXZ ; std::vector<CFlyingInstance::TAttachEffectInstance,std::allocator<CFlyingInstance::TAttachEffectInstance> >::_Xlength
PUBLIC	??1?$_Tree@V?$_Tset_traits@PAVIActorInstance@@U?$less@PAVIActorInstance@@@std@@V?$allocator@PAVIActorInstance@@@3@$0A@@std@@@std@@QAE@XZ ; std::_Tree<std::_Tset_traits<IActorInstance *,std::less<IActorInstance *>,std::allocator<IActorInstance *>,0> >::~_Tree<std::_Tset_traits<IActorInstance *,std::less<IActorInstance *>,std::allocator<IActorInstance *>,0> >
PUBLIC	?_Insert_node@?$_Tree_val@U?$_Tree_simple_types@PAVIActorInstance@@@std@@@std@@QAEPAU?$_Tree_node@PAVIActorInstance@@PAX@2@U?$_Tree_id@PAU?$_Tree_node@PAVIActorInstance@@PAX@std@@@2@QAU32@@Z ; std::_Tree_val<std::_Tree_simple_types<IActorInstance *> >::_Insert_node
PUBLIC	??_GCFlyingInstance@@UAEPAXI@Z			; CFlyingInstance::`scalar deleting destructor'
PUBLIC	??1?$CDynamicPool@VCFlyingInstance@@@@UAE@XZ	; CDynamicPool<CFlyingInstance>::~CDynamicPool<CFlyingInstance>
PUBLIC	??$_Erase_tree@V?$allocator@U?$_Tree_node@PAVIActorInstance@@PAX@std@@@std@@@?$_Tree_val@U?$_Tree_simple_types@PAVIActorInstance@@@std@@@std@@QAEXAAV?$allocator@U?$_Tree_node@PAVIActorInstance@@PAX@std@@@1@PAU?$_Tree_node@PAVIActorInstance@@PAX@1@@Z ; std::_Tree_val<std::_Tree_simple_types<IActorInstance *> >::_Erase_tree<std::allocator<std::_Tree_node<IActorInstance *,void *> > >
PUBLIC	??$_Emplace_reallocate@ABUTAttachEffectInstance@CFlyingInstance@@@?$vector@UTAttachEffectInstance@CFlyingInstance@@V?$allocator@UTAttachEffectInstance@CFlyingInstance@@@std@@@std@@QAEPAUTAttachEffectInstance@CFlyingInstance@@QAU23@ABU23@@Z ; std::vector<CFlyingInstance::TAttachEffectInstance,std::allocator<CFlyingInstance::TAttachEffectInstance> >::_Emplace_reallocate<CFlyingInstance::TAttachEffectInstance const &>
PUBLIC	??1?$CDynamicPoolEx@VCRotationDecorator@NEffectUpdateDecorator@@@@UAE@XZ ; CDynamicPoolEx<NEffectUpdateDecorator::CRotationDecorator>::~CDynamicPoolEx<NEffectUpdateDecorator::CRotationDecorator>
PUBLIC	?Delete@?$CDynamicPoolEx@VCRotationDecorator@NEffectUpdateDecorator@@@@KAXPAVCRotationDecorator@NEffectUpdateDecorator@@@Z ; CDynamicPoolEx<NEffectUpdateDecorator::CRotationDecorator>::Delete
PUBLIC	??1?$CDynamicPoolEx@VCGravityDecorator@NEffectUpdateDecorator@@@@UAE@XZ ; CDynamicPoolEx<NEffectUpdateDecorator::CGravityDecorator>::~CDynamicPoolEx<NEffectUpdateDecorator::CGravityDecorator>
PUBLIC	?Delete@?$CDynamicPoolEx@VCGravityDecorator@NEffectUpdateDecorator@@@@KAXPAVCGravityDecorator@NEffectUpdateDecorator@@@Z ; CDynamicPoolEx<NEffectUpdateDecorator::CGravityDecorator>::Delete
PUBLIC	??1?$CDynamicPoolEx@VCAirResistanceDecorator@NEffectUpdateDecorator@@@@UAE@XZ ; CDynamicPoolEx<NEffectUpdateDecorator::CAirResistanceDecorator>::~CDynamicPoolEx<NEffectUpdateDecorator::CAirResistanceDecorator>
PUBLIC	?Delete@?$CDynamicPoolEx@VCAirResistanceDecorator@NEffectUpdateDecorator@@@@KAXPAVCAirResistanceDecorator@NEffectUpdateDecorator@@@Z ; CDynamicPoolEx<NEffectUpdateDecorator::CAirResistanceDecorator>::Delete
PUBLIC	??1?$CDynamicPoolEx@VCTextureAnimationRandomDecorator@NEffectUpdateDecorator@@@@UAE@XZ ; CDynamicPoolEx<NEffectUpdateDecorator::CTextureAnimationRandomDecorator>::~CDynamicPoolEx<NEffectUpdateDecorator::CTextureAnimationRandomDecorator>
PUBLIC	?Delete@?$CDynamicPoolEx@VCTextureAnimationRandomDecorator@NEffectUpdateDecorator@@@@KAXPAVCTextureAnimationRandomDecorator@NEffectUpdateDecorator@@@Z ; CDynamicPoolEx<NEffectUpdateDecorator::CTextureAnimationRandomDecorator>::Delete
PUBLIC	??1?$CDynamicPoolEx@VCTextureAnimationCCWDecorator@NEffectUpdateDecorator@@@@UAE@XZ ; CDynamicPoolEx<NEffectUpdateDecorator::CTextureAnimationCCWDecorator>::~CDynamicPoolEx<NEffectUpdateDecorator::CTextureAnimationCCWDecorator>
PUBLIC	?Delete@?$CDynamicPoolEx@VCTextureAnimationCCWDecorator@NEffectUpdateDecorator@@@@KAXPAVCTextureAnimationCCWDecorator@NEffectUpdateDecorator@@@Z ; CDynamicPoolEx<NEffectUpdateDecorator::CTextureAnimationCCWDecorator>::Delete
PUBLIC	??1?$CDynamicPoolEx@VCTextureAnimationCWDecorator@NEffectUpdateDecorator@@@@UAE@XZ ; CDynamicPoolEx<NEffectUpdateDecorator::CTextureAnimationCWDecorator>::~CDynamicPoolEx<NEffectUpdateDecorator::CTextureAnimationCWDecorator>
PUBLIC	?Delete@?$CDynamicPoolEx@VCTextureAnimationCWDecorator@NEffectUpdateDecorator@@@@KAXPAVCTextureAnimationCWDecorator@NEffectUpdateDecorator@@@Z ; CDynamicPoolEx<NEffectUpdateDecorator::CTextureAnimationCWDecorator>::Delete
PUBLIC	??1?$CDynamicPoolEx@VCNullDecorator@NEffectUpdateDecorator@@@@UAE@XZ ; CDynamicPoolEx<NEffectUpdateDecorator::CNullDecorator>::~CDynamicPoolEx<NEffectUpdateDecorator::CNullDecorator>
PUBLIC	?Delete@?$CDynamicPoolEx@VCNullDecorator@NEffectUpdateDecorator@@@@KAXPAVCNullDecorator@NEffectUpdateDecorator@@@Z ; CDynamicPoolEx<NEffectUpdateDecorator::CNullDecorator>::Delete
PUBLIC	??1?$CDynamicPoolEx@VCHeaderDecorator@NEffectUpdateDecorator@@@@UAE@XZ ; CDynamicPoolEx<NEffectUpdateDecorator::CHeaderDecorator>::~CDynamicPoolEx<NEffectUpdateDecorator::CHeaderDecorator>
PUBLIC	?Delete@?$CDynamicPoolEx@VCHeaderDecorator@NEffectUpdateDecorator@@@@KAXPAVCHeaderDecorator@NEffectUpdateDecorator@@@Z ; CDynamicPoolEx<NEffectUpdateDecorator::CHeaderDecorator>::Delete
PUBLIC	??1?$RangeTester@UFCheckAnotherMonsterDuringFlying@@@@UAE@XZ ; RangeTester<FCheckAnotherMonsterDuringFlying>::~RangeTester<FCheckAnotherMonsterDuringFlying>
PUBLIC	?RayTraceCallback@?$RangeTester@UFCheckAnotherMonsterDuringFlying@@@@UAEXABVVector3d@@0M0PAVSpherePack@@@Z ; RangeTester<FCheckAnotherMonsterDuringFlying>::RayTraceCallback
PUBLIC	?VisibilityCallback@?$RangeTester@UFCheckAnotherMonsterDuringFlying@@@@UAEXABVFrustum@@PAVSpherePack@@W4ViewState@@@Z ; RangeTester<FCheckAnotherMonsterDuringFlying>::VisibilityCallback
PUBLIC	?RangeTestCallback@?$RangeTester@UFCheckAnotherMonsterDuringFlying@@@@UAEXABVVector3d@@MPAVSpherePack@@W4ViewState@@@Z ; RangeTester<FCheckAnotherMonsterDuringFlying>::RangeTestCallback
PUBLIC	?PointTest2dCallback@?$RangeTester@UFCheckAnotherMonsterDuringFlying@@@@UAEXABVVector3d@@PAVSpherePack@@W4ViewState@@@Z ; RangeTester<FCheckAnotherMonsterDuringFlying>::PointTest2dCallback
PUBLIC	??_G?$RangeTester@UFCheckAnotherMonsterDuringFlying@@@@UAEPAXI@Z ; RangeTester<FCheckAnotherMonsterDuringFlying>::`scalar deleting destructor'
PUBLIC	??1?$RangeTester@UFCheckBackgroundDuringFlying@@@@UAE@XZ ; RangeTester<FCheckBackgroundDuringFlying>::~RangeTester<FCheckBackgroundDuringFlying>
PUBLIC	?RayTraceCallback@?$RangeTester@UFCheckBackgroundDuringFlying@@@@UAEXABVVector3d@@0M0PAVSpherePack@@@Z ; RangeTester<FCheckBackgroundDuringFlying>::RayTraceCallback
PUBLIC	?VisibilityCallback@?$RangeTester@UFCheckBackgroundDuringFlying@@@@UAEXABVFrustum@@PAVSpherePack@@W4ViewState@@@Z ; RangeTester<FCheckBackgroundDuringFlying>::VisibilityCallback
PUBLIC	?RangeTestCallback@?$RangeTester@UFCheckBackgroundDuringFlying@@@@UAEXABVVector3d@@MPAVSpherePack@@W4ViewState@@@Z ; RangeTester<FCheckBackgroundDuringFlying>::RangeTestCallback
PUBLIC	?PointTest2dCallback@?$RangeTester@UFCheckBackgroundDuringFlying@@@@UAEXABVVector3d@@PAVSpherePack@@W4ViewState@@@Z ; RangeTester<FCheckBackgroundDuringFlying>::PointTest2dCallback
PUBLIC	??_G?$RangeTester@UFCheckBackgroundDuringFlying@@@@UAEPAXI@Z ; RangeTester<FCheckBackgroundDuringFlying>::`scalar deleting destructor'
PUBLIC	??$_Find_lower_bound@PAVIActorInstance@@@?$_Tree@V?$_Tset_traits@PAVIActorInstance@@U?$less@PAVIActorInstance@@@std@@V?$allocator@PAVIActorInstance@@@3@$0A@@std@@@std@@IBE?AU?$_Tree_find_result@PAU?$_Tree_node@PAVIActorInstance@@PAX@std@@@1@ABQAVIActorInstance@@@Z ; std::_Tree<std::_Tset_traits<IActorInstance *,std::less<IActorInstance *>,std::allocator<IActorInstance *>,0> >::_Find_lower_bound<IActorInstance *>
PUBLIC	??1?$_Alloc_construct_ptr@V?$allocator@U?$_Tree_node@PAVIActorInstance@@PAX@std@@@std@@@std@@QAE@XZ ; std::_Alloc_construct_ptr<std::allocator<std::_Tree_node<IActorInstance *,void *> > >::~_Alloc_construct_ptr<std::allocator<std::_Tree_node<IActorInstance *,void *> > >
PUBLIC	??$_Copy_memmove@PAUTAttachEffectInstance@CFlyingInstance@@PAU12@@std@@YAPAUTAttachEffectInstance@CFlyingInstance@@PAU12@00@Z ; std::_Copy_memmove<CFlyingInstance::TAttachEffectInstance *,CFlyingInstance::TAttachEffectInstance *>
PUBLIC	??_7exception@std@@6B@				; std::exception::`vftable'
PUBLIC	??_C@_0BC@EOODALEL@Unknown?5exception@		; `string'
PUBLIC	??_7bad_alloc@std@@6B@				; std::bad_alloc::`vftable'
PUBLIC	??_7bad_array_new_length@std@@6B@		; std::bad_array_new_length::`vftable'
PUBLIC	??_C@_0BF@KINCDENJ@bad?5array?5new?5length@	; `string'
PUBLIC	__TI3?AVbad_array_new_length@std@@
PUBLIC	__CTA3?AVbad_array_new_length@std@@
PUBLIC	??_R0?AVbad_array_new_length@std@@@8		; std::bad_array_new_length `RTTI Type Descriptor'
PUBLIC	__CT??_R0?AVbad_array_new_length@std@@@8??0bad_array_new_length@std@@QAE@ABV01@@Z12
PUBLIC	??_R0?AVbad_alloc@std@@@8			; std::bad_alloc `RTTI Type Descriptor'
PUBLIC	__CT??_R0?AVbad_alloc@std@@@8??0bad_alloc@std@@QAE@ABV01@@Z12
PUBLIC	??_R0?AVexception@std@@@8			; std::exception `RTTI Type Descriptor'
PUBLIC	__CT??_R0?AVexception@std@@@8??0exception@std@@QAE@ABV01@@Z12
PUBLIC	??_C@_0BB@GCADKGJO@map?1set?5too?5long@		; `string'
PUBLIC	?ms_singleton@?$CSingleton@VCTimer@@@@0PAVCTimer@@A ; CSingleton<CTimer>::ms_singleton
PUBLIC	??_R4exception@std@@6B@				; std::exception::`RTTI Complete Object Locator'
PUBLIC	??_R3exception@std@@8				; std::exception::`RTTI Class Hierarchy Descriptor'
PUBLIC	??_R2exception@std@@8				; std::exception::`RTTI Base Class Array'
PUBLIC	??_R1A@?0A@EA@exception@std@@8			; std::exception::`RTTI Base Class Descriptor at (0,-1,0,64)'
PUBLIC	??_R4bad_alloc@std@@6B@				; std::bad_alloc::`RTTI Complete Object Locator'
PUBLIC	??_R3bad_alloc@std@@8				; std::bad_alloc::`RTTI Class Hierarchy Descriptor'
PUBLIC	??_R2bad_alloc@std@@8				; std::bad_alloc::`RTTI Base Class Array'
PUBLIC	??_R1A@?0A@EA@bad_alloc@std@@8			; std::bad_alloc::`RTTI Base Class Descriptor at (0,-1,0,64)'
PUBLIC	??_R4bad_array_new_length@std@@6B@		; std::bad_array_new_length::`RTTI Complete Object Locator'
PUBLIC	??_R3bad_array_new_length@std@@8		; std::bad_array_new_length::`RTTI Class Hierarchy Descriptor'
PUBLIC	??_R2bad_array_new_length@std@@8		; std::bad_array_new_length::`RTTI Base Class Array'
PUBLIC	??_R1A@?0A@EA@bad_array_new_length@std@@8	; std::bad_array_new_length::`RTTI Base Class Descriptor at (0,-1,0,64)'
PUBLIC	??_7SpherePackCallback@@6B@			; SpherePackCallback::`vftable'
PUBLIC	?ms_singleton@?$CSingleton@VCCullingManager@@@@0PAVCCullingManager@@A ; CSingleton<CCullingManager>::ms_singleton
PUBLIC	?ms_kPool@?$CPooledObject@VCHeaderDecorator@NEffectUpdateDecorator@@@@1V?$CDynamicPoolEx@VCHeaderDecorator@NEffectUpdateDecorator@@@@A ; CPooledObject<NEffectUpdateDecorator::CHeaderDecorator>::ms_kPool
PUBLIC	?ms_kPool@?$CPooledObject@VCNullDecorator@NEffectUpdateDecorator@@@@1V?$CDynamicPoolEx@VCNullDecorator@NEffectUpdateDecorator@@@@A ; CPooledObject<NEffectUpdateDecorator::CNullDecorator>::ms_kPool
PUBLIC	?ms_kPool@?$CPooledObject@VCTextureAnimationCWDecorator@NEffectUpdateDecorator@@@@1V?$CDynamicPoolEx@VCTextureAnimationCWDecorator@NEffectUpdateDecorator@@@@A ; CPooledObject<NEffectUpdateDecorator::CTextureAnimationCWDecorator>::ms_kPool
PUBLIC	?ms_kPool@?$CPooledObject@VCTextureAnimationCCWDecorator@NEffectUpdateDecorator@@@@1V?$CDynamicPoolEx@VCTextureAnimationCCWDecorator@NEffectUpdateDecorator@@@@A ; CPooledObject<NEffectUpdateDecorator::CTextureAnimationCCWDecorator>::ms_kPool
PUBLIC	?ms_kPool@?$CPooledObject@VCTextureAnimationRandomDecorator@NEffectUpdateDecorator@@@@1V?$CDynamicPoolEx@VCTextureAnimationRandomDecorator@NEffectUpdateDecorator@@@@A ; CPooledObject<NEffectUpdateDecorator::CTextureAnimationRandomDecorator>::ms_kPool
PUBLIC	?ms_kPool@?$CPooledObject@VCAirResistanceDecorator@NEffectUpdateDecorator@@@@1V?$CDynamicPoolEx@VCAirResistanceDecorator@NEffectUpdateDecorator@@@@A ; CPooledObject<NEffectUpdateDecorator::CAirResistanceDecorator>::ms_kPool
PUBLIC	?ms_kPool@?$CPooledObject@VCGravityDecorator@NEffectUpdateDecorator@@@@1V?$CDynamicPoolEx@VCGravityDecorator@NEffectUpdateDecorator@@@@A ; CPooledObject<NEffectUpdateDecorator::CGravityDecorator>::ms_kPool
PUBLIC	?ms_kPool@?$CPooledObject@VCRotationDecorator@NEffectUpdateDecorator@@@@1V?$CDynamicPoolEx@VCRotationDecorator@NEffectUpdateDecorator@@@@A ; CPooledObject<NEffectUpdateDecorator::CRotationDecorator>::ms_kPool
PUBLIC	?ms_singleton@?$CSingleton@VCEffectManager@@@@0PAVCEffectManager@@A ; CSingleton<CEffectManager>::ms_singleton
PUBLIC	?ms_kPool@CFlyingInstance@@2V?$CDynamicPool@VCFlyingInstance@@@@A ; CFlyingInstance::ms_kPool
PUBLIC	??_7CFlyingInstance@@6B@			; CFlyingInstance::`vftable'
PUBLIC	?ms_singleton@?$CSingleton@VCFlyingManager@@@@0PAVCFlyingManager@@A ; CSingleton<CFlyingManager>::ms_singleton
PUBLIC	??_7?$RangeTester@UFCheckAnotherMonsterDuringFlying@@@@6B@ ; RangeTester<FCheckAnotherMonsterDuringFlying>::`vftable'
PUBLIC	??_7?$RangeTester@UFCheckBackgroundDuringFlying@@@@6B@ ; RangeTester<FCheckBackgroundDuringFlying>::`vftable'
PUBLIC	??_C@_0BA@FOIKENOD@vector?5too?5long@		; `string'
PUBLIC	??_R4SpherePackCallback@@6B@			; SpherePackCallback::`RTTI Complete Object Locator'
PUBLIC	??_R0?AVSpherePackCallback@@@8			; SpherePackCallback `RTTI Type Descriptor'
PUBLIC	??_R3SpherePackCallback@@8			; SpherePackCallback::`RTTI Class Hierarchy Descriptor'
PUBLIC	??_R2SpherePackCallback@@8			; SpherePackCallback::`RTTI Base Class Array'
PUBLIC	??_R1A@?0A@EA@SpherePackCallback@@8		; SpherePackCallback::`RTTI Base Class Descriptor at (0,-1,0,64)'
PUBLIC	??_R4CFlyingInstance@@6B@			; CFlyingInstance::`RTTI Complete Object Locator'
PUBLIC	??_R0?AVCFlyingInstance@@@8			; CFlyingInstance `RTTI Type Descriptor'
PUBLIC	??_R3CFlyingInstance@@8				; CFlyingInstance::`RTTI Class Hierarchy Descriptor'
PUBLIC	??_R2CFlyingInstance@@8				; CFlyingInstance::`RTTI Base Class Array'
PUBLIC	??_R1A@?0A@EA@CFlyingInstance@@8		; CFlyingInstance::`RTTI Base Class Descriptor at (0,-1,0,64)'
PUBLIC	??_R4?$RangeTester@UFCheckAnotherMonsterDuringFlying@@@@6B@ ; RangeTester<FCheckAnotherMonsterDuringFlying>::`RTTI Complete Object Locator'
PUBLIC	??_R0?AU?$RangeTester@UFCheckAnotherMonsterDuringFlying@@@@@8 ; RangeTester<FCheckAnotherMonsterDuringFlying> `RTTI Type Descriptor'
PUBLIC	??_R3?$RangeTester@UFCheckAnotherMonsterDuringFlying@@@@8 ; RangeTester<FCheckAnotherMonsterDuringFlying>::`RTTI Class Hierarchy Descriptor'
PUBLIC	??_R2?$RangeTester@UFCheckAnotherMonsterDuringFlying@@@@8 ; RangeTester<FCheckAnotherMonsterDuringFlying>::`RTTI Base Class Array'
PUBLIC	??_R1A@?0A@EA@?$RangeTester@UFCheckAnotherMonsterDuringFlying@@@@8 ; RangeTester<FCheckAnotherMonsterDuringFlying>::`RTTI Base Class Descriptor at (0,-1,0,64)'
PUBLIC	??_R4?$RangeTester@UFCheckBackgroundDuringFlying@@@@6B@ ; RangeTester<FCheckBackgroundDuringFlying>::`RTTI Complete Object Locator'
PUBLIC	??_R0?AU?$RangeTester@UFCheckBackgroundDuringFlying@@@@@8 ; RangeTester<FCheckBackgroundDuringFlying> `RTTI Type Descriptor'
PUBLIC	??_R3?$RangeTester@UFCheckBackgroundDuringFlying@@@@8 ; RangeTester<FCheckBackgroundDuringFlying>::`RTTI Class Hierarchy Descriptor'
PUBLIC	??_R2?$RangeTester@UFCheckBackgroundDuringFlying@@@@8 ; RangeTester<FCheckBackgroundDuringFlying>::`RTTI Base Class Array'
PUBLIC	??_R1A@?0A@EA@?$RangeTester@UFCheckBackgroundDuringFlying@@@@8 ; RangeTester<FCheckBackgroundDuringFlying>::`RTTI Base Class Descriptor at (0,-1,0,64)'
PUBLIC	__real@00000000
PUBLIC	__real@3a83126f
PUBLIC	__real@3c8efa35
PUBLIC	__real@3f000000
PUBLIC	__real@3f7ff972
PUBLIC	__real@3f800000
PUBLIC	__real@40490fdb
PUBLIC	__real@42480000
PUBLIC	__real@42b40000
PUBLIC	__real@43340000
PUBLIC	__real@bf7ff972
PUBLIC	__real@c0000000
PUBLIC	__xmm@3f800000000000000000000000000000
PUBLIC	__xmm@80000000800000008000000080000000
EXTRN	??2@YAPAXI@Z:PROC				; operator new
EXTRN	??3@YAXPAX@Z:PROC				; operator delete
EXTRN	??3@YAXPAXI@Z:PROC				; operator delete
EXTRN	_atexit:PROC
EXTRN	__invalid_parameter_noinfo_noreturn:PROC
EXTRN	___std_exception_copy:PROC
EXTRN	___std_exception_destroy:PROC
EXTRN	??_Eexception@std@@UAEPAXI@Z:PROC		; std::exception::`vector deleting destructor'
EXTRN	??_Ebad_alloc@std@@UAEPAXI@Z:PROC		; std::bad_alloc::`vector deleting destructor'
EXTRN	??_Ebad_array_new_length@std@@UAEPAXI@Z:PROC	; std::bad_array_new_length::`vector deleting destructor'
EXTRN	?_Xlength_error@std@@YAXPBD@Z:PROC		; std::_Xlength_error
EXTRN	?GetCaseCRC32@@YAKPBDI@Z:PROC			; GetCaseCRC32
EXTRN	?frandom@@YAMMM@Z:PROC				; frandom
EXTRN	_D3DXVec3Normalize@8:PROC
EXTRN	_D3DXMatrixRotationQuaternion@8:PROC
EXTRN	_D3DXQuaternionRotationAxis@12:PROC
EXTRN	_D3DXQuaternionRotationYawPitchRoll@16:PROC
EXTRN	_D3DXQuaternionMultiply@12:PROC
EXTRN	?GetCurrentSecond@CTimer@@QAEMXZ:PROC		; CTimer::GetCurrentSecond
EXTRN	?GetElapsedSecond@CTimer@@QAEMXZ:PROC		; CTimer::GetElapsedSecond
EXTRN	??_ESpherePackCallback@@UAEPAXI@Z:PROC		; SpherePackCallback::`vector deleting destructor'
EXTRN	?RangeTest@SpherePackFactory@@QAEXABVVector3d@@MPAVSpherePackCallback@@@Z:PROC ; SpherePackFactory::RangeTest
EXTRN	?CollisionDynamicSphere@CGraphicObjectInstance@@QBE_NABUCDynamicSphereInstance@@@Z:PROC ; CGraphicObjectInstance::CollisionDynamicSphere
EXTRN	?CreateEffectInstance@CEffectManager@@QAEXKK@Z:PROC ; CEffectManager::CreateEffectInstance
EXTRN	?SelectEffectInstance@CEffectManager@@QAEHK@Z:PROC ; CEffectManager::SelectEffectInstance
EXTRN	?DestroyEffectInstance@CEffectManager@@QAE_NK@Z:PROC ; CEffectManager::DestroyEffectInstance
EXTRN	?SetEffectInstanceGlobalMatrix@CEffectManager@@QAEXABUD3DXMATRIX@@@Z:PROC ; CEffectManager::SetEffectInstanceGlobalMatrix
EXTRN	?GetEmptyIndex@CEffectManager@@QAEHXZ:PROC	; CEffectManager::GetEmptyIndex
EXTRN	?GetTerrainHeight@CMapManager@@QAEMMM@Z:PROC	; CMapManager::GetTerrainHeight
EXTRN	?GetAttachDataReference@CFlyingData@@QAEAAUTFlyingAttachData@1@H@Z:PROC ; CFlyingData::GetAttachDataReference
EXTRN	?Create@CFlyTrace@@QAEXABUTFlyingAttachData@CFlyingData@@@Z:PROC ; CFlyTrace::Create
EXTRN	?UpdateNewPosition@CFlyTrace@@QAEXABUD3DXVECTOR3@@@Z:PROC ; CFlyTrace::UpdateNewPosition
EXTRN	?Render@CFlyTrace@@QAEXXZ:PROC			; CFlyTrace::Render
EXTRN	?New@CFlyTrace@@SAPAV1@XZ:PROC			; CFlyTrace::New
EXTRN	?Delete@CFlyTrace@@SAXPAV1@@Z:PROC		; CFlyTrace::Delete
EXTRN	??0CFlyTarget@@QAE@XZ:PROC			; CFlyTarget::CFlyTarget
EXTRN	??1CFlyTarget@@UAE@XZ:PROC			; CFlyTarget::~CFlyTarget
EXTRN	?Clear@CFlyTarget@@QAEXXZ:PROC			; CFlyTarget::Clear
EXTRN	?IsObject@CFlyTarget@@QAE_NXZ:PROC		; CFlyTarget::IsObject
EXTRN	?IsPosition@CFlyTarget@@QAE_NXZ:PROC		; CFlyTarget::IsPosition
EXTRN	?GetFlyTargetPosition@CFlyTarget@@QBEABUD3DXVECTOR3@@XZ:PROC ; CFlyTarget::GetFlyTargetPosition
EXTRN	?GetFlyTarget@CFlyTarget@@QAEPAVIFlyTargetableObject@@XZ:PROC ; CFlyTarget::GetFlyTarget
EXTRN	??4CFlyTarget@@QAEAAV0@ABV0@@Z:PROC		; CFlyTarget::operator=
EXTRN	??_ECFlyingInstance@@UAEPAXI@Z:PROC		; CFlyingInstance::`vector deleting destructor'
EXTRN	??_E?$RangeTester@UFCheckAnotherMonsterDuringFlying@@@@UAEPAXI@Z:PROC ; RangeTester<FCheckAnotherMonsterDuringFlying>::`vector deleting destructor'
EXTRN	??_E?$RangeTester@UFCheckBackgroundDuringFlying@@@@UAEPAXI@Z:PROC ; RangeTester<FCheckBackgroundDuringFlying>::`vector deleting destructor'
EXTRN	@__security_check_cookie@4:PROC
EXTRN	__CxxThrowException@8:PROC
EXTRN	___CxxFrameHandler3:PROC
EXTRN	__libm_sse2_cos_precise:PROC
EXTRN	__libm_sse2_exp_precise:PROC
EXTRN	__libm_sse2_sin_precise:PROC
EXTRN	__libm_sse2_sqrt_precise:PROC
EXTRN	_memmove:PROC
EXTRN	___security_cookie:DWORD
EXTRN	__fltused:DWORD
;	COMDAT ?ms_singleton@?$CSingleton@VCTimer@@@@0PAVCTimer@@A
_BSS	SEGMENT
?ms_singleton@?$CSingleton@VCTimer@@@@0PAVCTimer@@A DD 01H DUP (?) ; CSingleton<CTimer>::ms_singleton
_BSS	ENDS
;	COMDAT ?ms_singleton@?$CSingleton@VCCullingManager@@@@0PAVCCullingManager@@A
_BSS	SEGMENT
?ms_singleton@?$CSingleton@VCCullingManager@@@@0PAVCCullingManager@@A DD 01H DUP (?) ; CSingleton<CCullingManager>::ms_singleton
_BSS	ENDS
;	COMDAT ?ms_singleton@?$CSingleton@VCEffectManager@@@@0PAVCEffectManager@@A
_BSS	SEGMENT
?ms_singleton@?$CSingleton@VCEffectManager@@@@0PAVCEffectManager@@A DD 01H DUP (?) ; CSingleton<CEffectManager>::ms_singleton
_BSS	ENDS
;	COMDAT ?ms_singleton@?$CSingleton@VCFlyingManager@@@@0PAVCFlyingManager@@A
_BSS	SEGMENT
?ms_singleton@?$CSingleton@VCFlyingManager@@@@0PAVCFlyingManager@@A DD 01H DUP (?) ; CSingleton<CFlyingManager>::ms_singleton
_BSS	ENDS
CRT$XCU	SEGMENT
??ms_kPool$initializer$@CFlyingInstance@@2P6AXXZA@@3P6AXXZA DD FLAT:??__E?ms_kPool@CFlyingInstance@@2V?$CDynamicPool@VCFlyingInstance@@@@A@@YAXXZ ; ??ms_kPool$initializer$@CFlyingInstance@@2P6AXXZA@@3P6AXXZA
CRT$XCU	ENDS
;	COMDAT __xmm@80000000800000008000000080000000
CONST	SEGMENT
__xmm@80000000800000008000000080000000 DB 00H, 00H, 00H, 080H, 00H, 00H, 00H
	DB	080H, 00H, 00H, 00H, 080H, 00H, 00H, 00H, 080H
CONST	ENDS
;	COMDAT __xmm@3f800000000000000000000000000000
CONST	SEGMENT
__xmm@3f800000000000000000000000000000 DB 00H, 00H, 00H, 00H, 00H, 00H, 00H
	DB	00H, 00H, 00H, 00H, 00H, 00H, 00H, 080H, '?'
CONST	ENDS
;	COMDAT __real@c0000000
CONST	SEGMENT
__real@c0000000 DD 0c0000000r			; -2
CONST	ENDS
;	COMDAT __real@bf7ff972
CONST	SEGMENT
__real@bf7ff972 DD 0bf7ff972r			; -0.9999
CONST	ENDS
;	COMDAT __real@43340000
CONST	SEGMENT
__real@43340000 DD 043340000r			; 180
CONST	ENDS
;	COMDAT __real@42b40000
CONST	SEGMENT
__real@42b40000 DD 042b40000r			; 90
CONST	ENDS
;	COMDAT __real@42480000
CONST	SEGMENT
__real@42480000 DD 042480000r			; 50
CONST	ENDS
;	COMDAT __real@40490fdb
CONST	SEGMENT
__real@40490fdb DD 040490fdbr			; 3.14159
CONST	ENDS
;	COMDAT __real@3f800000
CONST	SEGMENT
__real@3f800000 DD 03f800000r			; 1
CONST	ENDS
;	COMDAT __real@3f7ff972
CONST	SEGMENT
__real@3f7ff972 DD 03f7ff972r			; 0.9999
CONST	ENDS
;	COMDAT __real@3f000000
CONST	SEGMENT
__real@3f000000 DD 03f000000r			; 0.5
CONST	ENDS
;	COMDAT __real@3c8efa35
CONST	SEGMENT
__real@3c8efa35 DD 03c8efa35r			; 0.0174533
CONST	ENDS
;	COMDAT __real@3a83126f
CONST	SEGMENT
__real@3a83126f DD 03a83126fr			; 0.001
CONST	ENDS
;	COMDAT __real@00000000
CONST	SEGMENT
__real@00000000 DD 000000000r			; 0
CONST	ENDS
;	COMDAT ??_R1A@?0A@EA@?$RangeTester@UFCheckBackgroundDuringFlying@@@@8
rdata$r	SEGMENT
??_R1A@?0A@EA@?$RangeTester@UFCheckBackgroundDuringFlying@@@@8 DD FLAT:??_R0?AU?$RangeTester@UFCheckBackgroundDuringFlying@@@@@8 ; RangeTester<FCheckBackgroundDuringFlying>::`RTTI Base Class Descriptor at (0,-1,0,64)'
	DD	01H
	DD	00H
	DD	0ffffffffH
	DD	00H
	DD	040H
	DD	FLAT:??_R3?$RangeTester@UFCheckBackgroundDuringFlying@@@@8
rdata$r	ENDS
;	COMDAT ??_R2?$RangeTester@UFCheckBackgroundDuringFlying@@@@8
rdata$r	SEGMENT
??_R2?$RangeTester@UFCheckBackgroundDuringFlying@@@@8 DD FLAT:??_R1A@?0A@EA@?$RangeTester@UFCheckBackgroundDuringFlying@@@@8 ; RangeTester<FCheckBackgroundDuringFlying>::`RTTI Base Class Array'
	DD	FLAT:??_R1A@?0A@EA@SpherePackCallback@@8
rdata$r	ENDS
;	COMDAT ??_R3?$RangeTester@UFCheckBackgroundDuringFlying@@@@8
rdata$r	SEGMENT
??_R3?$RangeTester@UFCheckBackgroundDuringFlying@@@@8 DD 00H ; RangeTester<FCheckBackgroundDuringFlying>::`RTTI Class Hierarchy Descriptor'
	DD	00H
	DD	02H
	DD	FLAT:??_R2?$RangeTester@UFCheckBackgroundDuringFlying@@@@8
rdata$r	ENDS
;	COMDAT ??_R0?AU?$RangeTester@UFCheckBackgroundDuringFlying@@@@@8
data$rs	SEGMENT
??_R0?AU?$RangeTester@UFCheckBackgroundDuringFlying@@@@@8 DD FLAT:??_7type_info@@6B@ ; RangeTester<FCheckBackgroundDuringFlying> `RTTI Type Descriptor'
	DD	00H
	DB	'.?AU?$RangeTester@UFCheckBackgroundDuringFlying@@@@', 00H
data$rs	ENDS
;	COMDAT ??_R4?$RangeTester@UFCheckBackgroundDuringFlying@@@@6B@
rdata$r	SEGMENT
??_R4?$RangeTester@UFCheckBackgroundDuringFlying@@@@6B@ DD 00H ; RangeTester<FCheckBackgroundDuringFlying>::`RTTI Complete Object Locator'
	DD	00H
	DD	00H
	DD	FLAT:??_R0?AU?$RangeTester@UFCheckBackgroundDuringFlying@@@@@8
	DD	FLAT:??_R3?$RangeTester@UFCheckBackgroundDuringFlying@@@@8
rdata$r	ENDS
;	COMDAT ??_R1A@?0A@EA@?$RangeTester@UFCheckAnotherMonsterDuringFlying@@@@8
rdata$r	SEGMENT
??_R1A@?0A@EA@?$RangeTester@UFCheckAnotherMonsterDuringFlying@@@@8 DD FLAT:??_R0?AU?$RangeTester@UFCheckAnotherMonsterDuringFlying@@@@@8 ; RangeTester<FCheckAnotherMonsterDuringFlying>::`RTTI Base Class Descriptor at (0,-1,0,64)'
	DD	01H
	DD	00H
	DD	0ffffffffH
	DD	00H
	DD	040H
	DD	FLAT:??_R3?$RangeTester@UFCheckAnotherMonsterDuringFlying@@@@8
rdata$r	ENDS
;	COMDAT ??_R2?$RangeTester@UFCheckAnotherMonsterDuringFlying@@@@8
rdata$r	SEGMENT
??_R2?$RangeTester@UFCheckAnotherMonsterDuringFlying@@@@8 DD FLAT:??_R1A@?0A@EA@?$RangeTester@UFCheckAnotherMonsterDuringFlying@@@@8 ; RangeTester<FCheckAnotherMonsterDuringFlying>::`RTTI Base Class Array'
	DD	FLAT:??_R1A@?0A@EA@SpherePackCallback@@8
rdata$r	ENDS
;	COMDAT ??_R3?$RangeTester@UFCheckAnotherMonsterDuringFlying@@@@8
rdata$r	SEGMENT
??_R3?$RangeTester@UFCheckAnotherMonsterDuringFlying@@@@8 DD 00H ; RangeTester<FCheckAnotherMonsterDuringFlying>::`RTTI Class Hierarchy Descriptor'
	DD	00H
	DD	02H
	DD	FLAT:??_R2?$RangeTester@UFCheckAnotherMonsterDuringFlying@@@@8
rdata$r	ENDS
;	COMDAT ??_R0?AU?$RangeTester@UFCheckAnotherMonsterDuringFlying@@@@@8
data$rs	SEGMENT
??_R0?AU?$RangeTester@UFCheckAnotherMonsterDuringFlying@@@@@8 DD FLAT:??_7type_info@@6B@ ; RangeTester<FCheckAnotherMonsterDuringFlying> `RTTI Type Descriptor'
	DD	00H
	DB	'.?AU?$RangeTester@UFCheckAnotherMonsterDuringFlying@@@@', 00H
data$rs	ENDS
;	COMDAT ??_R4?$RangeTester@UFCheckAnotherMonsterDuringFlying@@@@6B@
rdata$r	SEGMENT
??_R4?$RangeTester@UFCheckAnotherMonsterDuringFlying@@@@6B@ DD 00H ; RangeTester<FCheckAnotherMonsterDuringFlying>::`RTTI Complete Object Locator'
	DD	00H
	DD	00H
	DD	FLAT:??_R0?AU?$RangeTester@UFCheckAnotherMonsterDuringFlying@@@@@8
	DD	FLAT:??_R3?$RangeTester@UFCheckAnotherMonsterDuringFlying@@@@8
rdata$r	ENDS
;	COMDAT ??_R1A@?0A@EA@CFlyingInstance@@8
rdata$r	SEGMENT
??_R1A@?0A@EA@CFlyingInstance@@8 DD FLAT:??_R0?AVCFlyingInstance@@@8 ; CFlyingInstance::`RTTI Base Class Descriptor at (0,-1,0,64)'
	DD	00H
	DD	00H
	DD	0ffffffffH
	DD	00H
	DD	040H
	DD	FLAT:??_R3CFlyingInstance@@8
rdata$r	ENDS
;	COMDAT ??_R2CFlyingInstance@@8
rdata$r	SEGMENT
??_R2CFlyingInstance@@8 DD FLAT:??_R1A@?0A@EA@CFlyingInstance@@8 ; CFlyingInstance::`RTTI Base Class Array'
rdata$r	ENDS
;	COMDAT ??_R3CFlyingInstance@@8
rdata$r	SEGMENT
??_R3CFlyingInstance@@8 DD 00H				; CFlyingInstance::`RTTI Class Hierarchy Descriptor'
	DD	00H
	DD	01H
	DD	FLAT:??_R2CFlyingInstance@@8
rdata$r	ENDS
;	COMDAT ??_R0?AVCFlyingInstance@@@8
data$rs	SEGMENT
??_R0?AVCFlyingInstance@@@8 DD FLAT:??_7type_info@@6B@	; CFlyingInstance `RTTI Type Descriptor'
	DD	00H
	DB	'.?AVCFlyingInstance@@', 00H
data$rs	ENDS
;	COMDAT ??_R4CFlyingInstance@@6B@
rdata$r	SEGMENT
??_R4CFlyingInstance@@6B@ DD 00H			; CFlyingInstance::`RTTI Complete Object Locator'
	DD	00H
	DD	00H
	DD	FLAT:??_R0?AVCFlyingInstance@@@8
	DD	FLAT:??_R3CFlyingInstance@@8
rdata$r	ENDS
;	COMDAT ??_R1A@?0A@EA@SpherePackCallback@@8
rdata$r	SEGMENT
??_R1A@?0A@EA@SpherePackCallback@@8 DD FLAT:??_R0?AVSpherePackCallback@@@8 ; SpherePackCallback::`RTTI Base Class Descriptor at (0,-1,0,64)'
	DD	00H
	DD	00H
	DD	0ffffffffH
	DD	00H
	DD	040H
	DD	FLAT:??_R3SpherePackCallback@@8
rdata$r	ENDS
;	COMDAT ??_R2SpherePackCallback@@8
rdata$r	SEGMENT
??_R2SpherePackCallback@@8 DD FLAT:??_R1A@?0A@EA@SpherePackCallback@@8 ; SpherePackCallback::`RTTI Base Class Array'
rdata$r	ENDS
;	COMDAT ??_R3SpherePackCallback@@8
rdata$r	SEGMENT
??_R3SpherePackCallback@@8 DD 00H			; SpherePackCallback::`RTTI Class Hierarchy Descriptor'
	DD	00H
	DD	01H
	DD	FLAT:??_R2SpherePackCallback@@8
rdata$r	ENDS
;	COMDAT ??_R0?AVSpherePackCallback@@@8
data$rs	SEGMENT
??_R0?AVSpherePackCallback@@@8 DD FLAT:??_7type_info@@6B@ ; SpherePackCallback `RTTI Type Descriptor'
	DD	00H
	DB	'.?AVSpherePackCallback@@', 00H
data$rs	ENDS
;	COMDAT ??_R4SpherePackCallback@@6B@
rdata$r	SEGMENT
??_R4SpherePackCallback@@6B@ DD 00H			; SpherePackCallback::`RTTI Complete Object Locator'
	DD	00H
	DD	00H
	DD	FLAT:??_R0?AVSpherePackCallback@@@8
	DD	FLAT:??_R3SpherePackCallback@@8
rdata$r	ENDS
;	COMDAT ??_C@_0BA@FOIKENOD@vector?5too?5long@
CONST	SEGMENT
??_C@_0BA@FOIKENOD@vector?5too?5long@ DB 'vector too long', 00H ; `string'
CONST	ENDS
;	COMDAT ??_7?$RangeTester@UFCheckBackgroundDuringFlying@@@@6B@
CONST	SEGMENT
??_7?$RangeTester@UFCheckBackgroundDuringFlying@@@@6B@ DD FLAT:??_R4?$RangeTester@UFCheckBackgroundDuringFlying@@@@6B@ ; RangeTester<FCheckBackgroundDuringFlying>::`vftable'
	DD	FLAT:??_E?$RangeTester@UFCheckBackgroundDuringFlying@@@@UAEPAXI@Z
	DD	FLAT:?VisibilityCallback@?$RangeTester@UFCheckBackgroundDuringFlying@@@@UAEXABVFrustum@@PAVSpherePack@@W4ViewState@@@Z
	DD	FLAT:?RayTraceCallback@?$RangeTester@UFCheckBackgroundDuringFlying@@@@UAEXABVVector3d@@0M0PAVSpherePack@@@Z
	DD	FLAT:?RangeTestCallback@?$RangeTester@UFCheckBackgroundDuringFlying@@@@UAEXABVVector3d@@MPAVSpherePack@@W4ViewState@@@Z
	DD	FLAT:?PointTest2dCallback@?$RangeTester@UFCheckBackgroundDuringFlying@@@@UAEXABVVector3d@@PAVSpherePack@@W4ViewState@@@Z
CONST	ENDS
;	COMDAT ??_7?$RangeTester@UFCheckAnotherMonsterDuringFlying@@@@6B@
CONST	SEGMENT
??_7?$RangeTester@UFCheckAnotherMonsterDuringFlying@@@@6B@ DD FLAT:??_R4?$RangeTester@UFCheckAnotherMonsterDuringFlying@@@@6B@ ; RangeTester<FCheckAnotherMonsterDuringFlying>::`vftable'
	DD	FLAT:??_E?$RangeTester@UFCheckAnotherMonsterDuringFlying@@@@UAEPAXI@Z
	DD	FLAT:?VisibilityCallback@?$RangeTester@UFCheckAnotherMonsterDuringFlying@@@@UAEXABVFrustum@@PAVSpherePack@@W4ViewState@@@Z
	DD	FLAT:?RayTraceCallback@?$RangeTester@UFCheckAnotherMonsterDuringFlying@@@@UAEXABVVector3d@@0M0PAVSpherePack@@@Z
	DD	FLAT:?RangeTestCallback@?$RangeTester@UFCheckAnotherMonsterDuringFlying@@@@UAEXABVVector3d@@MPAVSpherePack@@W4ViewState@@@Z
	DD	FLAT:?PointTest2dCallback@?$RangeTester@UFCheckAnotherMonsterDuringFlying@@@@UAEXABVVector3d@@PAVSpherePack@@W4ViewState@@@Z
CONST	ENDS
;	COMDAT ??_7CFlyingInstance@@6B@
CONST	SEGMENT
??_7CFlyingInstance@@6B@ DD FLAT:??_R4CFlyingInstance@@6B@ ; CFlyingInstance::`vftable'
	DD	FLAT:??_ECFlyingInstance@@UAEPAXI@Z
CONST	ENDS
_DATA	SEGMENT
?ms_kPool@CFlyingInstance@@2V?$CDynamicPool@VCFlyingInstance@@@@A DD FLAT:??_7?$CDynamicPool@VCFlyingInstance@@@@6B@ ; CFlyingInstance::ms_kPool
	DD	00H
	DD	00H
	DD	00H
	DD	00H
	DD	00H
	DD	00H
	DD	00H
	DD	00H
_DATA	ENDS
;	COMDAT ?ms_kPool@?$CPooledObject@VCRotationDecorator@NEffectUpdateDecorator@@@@1V?$CDynamicPoolEx@VCRotationDecorator@NEffectUpdateDecorator@@@@A
_DATA	SEGMENT
?ms_kPool@?$CPooledObject@VCRotationDecorator@NEffectUpdateDecorator@@@@1V?$CDynamicPoolEx@VCRotationDecorator@NEffectUpdateDecorator@@@@A DD FLAT:??_7?$CDynamicPoolEx@VCRotationDecorator@NEffectUpdateDecorator@@@@6B@ ; CPooledObject<NEffectUpdateDecorator::CRotationDecorator>::ms_kPool
	DD	00H
	DD	00H
	DD	00H
	DD	00H
	DD	00H
	DD	00H
	DD	00H
	DD	00H
_DATA	ENDS
;	COMDAT ?ms_kPool@?$CPooledObject@VCGravityDecorator@NEffectUpdateDecorator@@@@1V?$CDynamicPoolEx@VCGravityDecorator@NEffectUpdateDecorator@@@@A
_DATA	SEGMENT
?ms_kPool@?$CPooledObject@VCGravityDecorator@NEffectUpdateDecorator@@@@1V?$CDynamicPoolEx@VCGravityDecorator@NEffectUpdateDecorator@@@@A DD FLAT:??_7?$CDynamicPoolEx@VCGravityDecorator@NEffectUpdateDecorator@@@@6B@ ; CPooledObject<NEffectUpdateDecorator::CGravityDecorator>::ms_kPool
	DD	00H
	DD	00H
	DD	00H
	DD	00H
	DD	00H
	DD	00H
	DD	00H
	DD	00H
_DATA	ENDS
;	COMDAT ?ms_kPool@?$CPooledObject@VCAirResistanceDecorator@NEffectUpdateDecorator@@@@1V?$CDynamicPoolEx@VCAirResistanceDecorator@NEffectUpdateDecorator@@@@A
_DATA	SEGMENT
?ms_kPool@?$CPooledObject@VCAirResistanceDecorator@NEffectUpdateDecorator@@@@1V?$CDynamicPoolEx@VCAirResistanceDecorator@NEffectUpdateDecorator@@@@A DD FLAT:??_7?$CDynamicPoolEx@VCAirResistanceDecorator@NEffectUpdateDecorator@@@@6B@ ; CPooledObject<NEffectUpdateDecorator::CAirResistanceDecorator>::ms_kPool
	DD	00H
	DD	00H
	DD	00H
	DD	00H
	DD	00H
	DD	00H
	DD	00H
	DD	00H
_DATA	ENDS
;	COMDAT ?ms_kPool@?$CPooledObject@VCTextureAnimationRandomDecorator@NEffectUpdateDecorator@@@@1V?$CDynamicPoolEx@VCTextureAnimationRandomDecorator@NEffectUpdateDecorator@@@@A
_DATA	SEGMENT
?ms_kPool@?$CPooledObject@VCTextureAnimationRandomDecorator@NEffectUpdateDecorator@@@@1V?$CDynamicPoolEx@VCTextureAnimationRandomDecorator@NEffectUpdateDecorator@@@@A DD FLAT:??_7?$CDynamicPoolEx@VCTextureAnimationRandomDecorator@NEffectUpdateDecorator@@@@6B@ ; CPooledObject<NEffectUpdateDecorator::CTextureAnimationRandomDecorator>::ms_kPool
	DD	00H
	DD	00H
	DD	00H
	DD	00H
	DD	00H
	DD	00H
	DD	00H
	DD	00H
_DATA	ENDS
;	COMDAT ?ms_kPool@?$CPooledObject@VCTextureAnimationCCWDecorator@NEffectUpdateDecorator@@@@1V?$CDynamicPoolEx@VCTextureAnimationCCWDecorator@NEffectUpdateDecorator@@@@A
_DATA	SEGMENT
?ms_kPool@?$CPooledObject@VCTextureAnimationCCWDecorator@NEffectUpdateDecorator@@@@1V?$CDynamicPoolEx@VCTextureAnimationCCWDecorator@NEffectUpdateDecorator@@@@A DD FLAT:??_7?$CDynamicPoolEx@VCTextureAnimationCCWDecorator@NEffectUpdateDecorator@@@@6B@ ; CPooledObject<NEffectUpdateDecorator::CTextureAnimationCCWDecorator>::ms_kPool
	DD	00H
	DD	00H
	DD	00H
	DD	00H
	DD	00H
	DD	00H
	DD	00H
	DD	00H
_DATA	ENDS
;	COMDAT ?ms_kPool@?$CPooledObject@VCTextureAnimationCWDecorator@NEffectUpdateDecorator@@@@1V?$CDynamicPoolEx@VCTextureAnimationCWDecorator@NEffectUpdateDecorator@@@@A
_DATA	SEGMENT
?ms_kPool@?$CPooledObject@VCTextureAnimationCWDecorator@NEffectUpdateDecorator@@@@1V?$CDynamicPoolEx@VCTextureAnimationCWDecorator@NEffectUpdateDecorator@@@@A DD FLAT:??_7?$CDynamicPoolEx@VCTextureAnimationCWDecorator@NEffectUpdateDecorator@@@@6B@ ; CPooledObject<NEffectUpdateDecorator::CTextureAnimationCWDecorator>::ms_kPool
	DD	00H
	DD	00H
	DD	00H
	DD	00H
	DD	00H
	DD	00H
	DD	00H
	DD	00H
_DATA	ENDS
;	COMDAT ?ms_kPool@?$CPooledObject@VCNullDecorator@NEffectUpdateDecorator@@@@1V?$CDynamicPoolEx@VCNullDecorator@NEffectUpdateDecorator@@@@A
_DATA	SEGMENT
?ms_kPool@?$CPooledObject@VCNullDecorator@NEffectUpdateDecorator@@@@1V?$CDynamicPoolEx@VCNullDecorator@NEffectUpdateDecorator@@@@A DD FLAT:??_7?$CDynamicPoolEx@VCNullDecorator@NEffectUpdateDecorator@@@@6B@ ; CPooledObject<NEffectUpdateDecorator::CNullDecorator>::ms_kPool
	DD	00H
	DD	00H
	DD	00H
	DD	00H
	DD	00H
	DD	00H
	DD	00H
	DD	00H
_DATA	ENDS
;	COMDAT ?ms_kPool@?$CPooledObject@VCHeaderDecorator@NEffectUpdateDecorator@@@@1V?$CDynamicPoolEx@VCHeaderDecorator@NEffectUpdateDecorator@@@@A
_DATA	SEGMENT
?ms_kPool@?$CPooledObject@VCHeaderDecorator@NEffectUpdateDecorator@@@@1V?$CDynamicPoolEx@VCHeaderDecorator@NEffectUpdateDecorator@@@@A DD FLAT:??_7?$CDynamicPoolEx@VCHeaderDecorator@NEffectUpdateDecorator@@@@6B@ ; CPooledObject<NEffectUpdateDecorator::CHeaderDecorator>::ms_kPool
	DD	00H
	DD	00H
	DD	00H
	DD	00H
	DD	00H
	DD	00H
	DD	00H
	DD	00H
_DATA	ENDS
;	COMDAT ??_7SpherePackCallback@@6B@
CONST	SEGMENT
??_7SpherePackCallback@@6B@ DD FLAT:??_R4SpherePackCallback@@6B@ ; SpherePackCallback::`vftable'
	DD	FLAT:??_ESpherePackCallback@@UAEPAXI@Z
	DD	FLAT:?VisibilityCallback@SpherePackCallback@@UAEXABVFrustum@@PAVSpherePack@@W4ViewState@@@Z
	DD	FLAT:?RayTraceCallback@SpherePackCallback@@UAEXABVVector3d@@0M0PAVSpherePack@@@Z
	DD	FLAT:?RangeTestCallback@SpherePackCallback@@UAEXABVVector3d@@MPAVSpherePack@@W4ViewState@@@Z
	DD	FLAT:?PointTest2dCallback@SpherePackCallback@@UAEXABVVector3d@@PAVSpherePack@@W4ViewState@@@Z
CONST	ENDS
;	COMDAT ??_R1A@?0A@EA@bad_array_new_length@std@@8
rdata$r	SEGMENT
??_R1A@?0A@EA@bad_array_new_length@std@@8 DD FLAT:??_R0?AVbad_array_new_length@std@@@8 ; std::bad_array_new_length::`RTTI Base Class Descriptor at (0,-1,0,64)'
	DD	02H
	DD	00H
	DD	0ffffffffH
	DD	00H
	DD	040H
	DD	FLAT:??_R3bad_array_new_length@std@@8
rdata$r	ENDS
;	COMDAT ??_R2bad_array_new_length@std@@8
rdata$r	SEGMENT
??_R2bad_array_new_length@std@@8 DD FLAT:??_R1A@?0A@EA@bad_array_new_length@std@@8 ; std::bad_array_new_length::`RTTI Base Class Array'
	DD	FLAT:??_R1A@?0A@EA@bad_alloc@std@@8
	DD	FLAT:??_R1A@?0A@EA@exception@std@@8
rdata$r	ENDS
;	COMDAT ??_R3bad_array_new_length@std@@8
rdata$r	SEGMENT
??_R3bad_array_new_length@std@@8 DD 00H			; std::bad_array_new_length::`RTTI Class Hierarchy Descriptor'
	DD	00H
	DD	03H
	DD	FLAT:??_R2bad_array_new_length@std@@8
rdata$r	ENDS
;	COMDAT ??_R4bad_array_new_length@std@@6B@
rdata$r	SEGMENT
??_R4bad_array_new_length@std@@6B@ DD 00H		; std::bad_array_new_length::`RTTI Complete Object Locator'
	DD	00H
	DD	00H
	DD	FLAT:??_R0?AVbad_array_new_length@std@@@8
	DD	FLAT:??_R3bad_array_new_length@std@@8
rdata$r	ENDS
;	COMDAT ??_R1A@?0A@EA@bad_alloc@std@@8
rdata$r	SEGMENT
??_R1A@?0A@EA@bad_alloc@std@@8 DD FLAT:??_R0?AVbad_alloc@std@@@8 ; std::bad_alloc::`RTTI Base Class Descriptor at (0,-1,0,64)'
	DD	01H
	DD	00H
	DD	0ffffffffH
	DD	00H
	DD	040H
	DD	FLAT:??_R3bad_alloc@std@@8
rdata$r	ENDS
;	COMDAT ??_R2bad_alloc@std@@8
rdata$r	SEGMENT
??_R2bad_alloc@std@@8 DD FLAT:??_R1A@?0A@EA@bad_alloc@std@@8 ; std::bad_alloc::`RTTI Base Class Array'
	DD	FLAT:??_R1A@?0A@EA@exception@std@@8
rdata$r	ENDS
;	COMDAT ??_R3bad_alloc@std@@8
rdata$r	SEGMENT
??_R3bad_alloc@std@@8 DD 00H				; std::bad_alloc::`RTTI Class Hierarchy Descriptor'
	DD	00H
	DD	02H
	DD	FLAT:??_R2bad_alloc@std@@8
rdata$r	ENDS
;	COMDAT ??_R4bad_alloc@std@@6B@
rdata$r	SEGMENT
??_R4bad_alloc@std@@6B@ DD 00H				; std::bad_alloc::`RTTI Complete Object Locator'
	DD	00H
	DD	00H
	DD	FLAT:??_R0?AVbad_alloc@std@@@8
	DD	FLAT:??_R3bad_alloc@std@@8
rdata$r	ENDS
;	COMDAT ??_R1A@?0A@EA@exception@std@@8
rdata$r	SEGMENT
??_R1A@?0A@EA@exception@std@@8 DD FLAT:??_R0?AVexception@std@@@8 ; std::exception::`RTTI Base Class Descriptor at (0,-1,0,64)'
	DD	00H
	DD	00H
	DD	0ffffffffH
	DD	00H
	DD	040H
	DD	FLAT:??_R3exception@std@@8
rdata$r	ENDS
;	COMDAT ??_R2exception@std@@8
rdata$r	SEGMENT
??_R2exception@std@@8 DD FLAT:??_R1A@?0A@EA@exception@std@@8 ; std::exception::`RTTI Base Class Array'
rdata$r	ENDS
;	COMDAT ??_R3exception@std@@8
rdata$r	SEGMENT
??_R3exception@std@@8 DD 00H				; std::exception::`RTTI Class Hierarchy Descriptor'
	DD	00H
	DD	01H
	DD	FLAT:??_R2exception@std@@8
rdata$r	ENDS
;	COMDAT ??_R4exception@std@@6B@
rdata$r	SEGMENT
??_R4exception@std@@6B@ DD 00H				; std::exception::`RTTI Complete Object Locator'
	DD	00H
	DD	00H
	DD	FLAT:??_R0?AVexception@std@@@8
	DD	FLAT:??_R3exception@std@@8
rdata$r	ENDS
;	COMDAT ??_C@_0BB@GCADKGJO@map?1set?5too?5long@
CONST	SEGMENT
??_C@_0BB@GCADKGJO@map?1set?5too?5long@ DB 'map/set too long', 00H ; `string'
CONST	ENDS
;	COMDAT __CT??_R0?AVexception@std@@@8??0exception@std@@QAE@ABV01@@Z12
xdata$x	SEGMENT
__CT??_R0?AVexception@std@@@8??0exception@std@@QAE@ABV01@@Z12 DD 00H
	DD	FLAT:??_R0?AVexception@std@@@8
	DD	00H
	DD	0ffffffffH
	ORG $+4
	DD	0cH
	DD	FLAT:??0exception@std@@QAE@ABV01@@Z
xdata$x	ENDS
;	COMDAT ??_R0?AVexception@std@@@8
data$r	SEGMENT
??_R0?AVexception@std@@@8 DD FLAT:??_7type_info@@6B@	; std::exception `RTTI Type Descriptor'
	DD	00H
	DB	'.?AVexception@std@@', 00H
data$r	ENDS
;	COMDAT __CT??_R0?AVbad_alloc@std@@@8??0bad_alloc@std@@QAE@ABV01@@Z12
xdata$x	SEGMENT
__CT??_R0?AVbad_alloc@std@@@8??0bad_alloc@std@@QAE@ABV01@@Z12 DD 010H
	DD	FLAT:??_R0?AVbad_alloc@std@@@8
	DD	00H
	DD	0ffffffffH
	ORG $+4
	DD	0cH
	DD	FLAT:??0bad_alloc@std@@QAE@ABV01@@Z
xdata$x	ENDS
;	COMDAT ??_R0?AVbad_alloc@std@@@8
data$r	SEGMENT
??_R0?AVbad_alloc@std@@@8 DD FLAT:??_7type_info@@6B@	; std::bad_alloc `RTTI Type Descriptor'
	DD	00H
	DB	'.?AVbad_alloc@std@@', 00H
data$r	ENDS
;	COMDAT __CT??_R0?AVbad_array_new_length@std@@@8??0bad_array_new_length@std@@QAE@ABV01@@Z12
xdata$x	SEGMENT
__CT??_R0?AVbad_array_new_length@std@@@8??0bad_array_new_length@std@@QAE@ABV01@@Z12 DD 00H
	DD	FLAT:??_R0?AVbad_array_new_length@std@@@8
	DD	00H
	DD	0ffffffffH
	ORG $+4
	DD	0cH
	DD	FLAT:??0bad_array_new_length@std@@QAE@ABV01@@Z
xdata$x	ENDS
;	COMDAT ??_R0?AVbad_array_new_length@std@@@8
data$r	SEGMENT
??_R0?AVbad_array_new_length@std@@@8 DD FLAT:??_7type_info@@6B@ ; std::bad_array_new_length `RTTI Type Descriptor'
	DD	00H
	DB	'.?AVbad_array_new_length@std@@', 00H
data$r	ENDS
;	COMDAT __CTA3?AVbad_array_new_length@std@@
xdata$x	SEGMENT
__CTA3?AVbad_array_new_length@std@@ DD 03H
	DD	FLAT:__CT??_R0?AVbad_array_new_length@std@@@8??0bad_array_new_length@std@@QAE@ABV01@@Z12
	DD	FLAT:__CT??_R0?AVbad_alloc@std@@@8??0bad_alloc@std@@QAE@ABV01@@Z12
	DD	FLAT:__CT??_R0?AVexception@std@@@8??0exception@std@@QAE@ABV01@@Z12
xdata$x	ENDS
;	COMDAT __TI3?AVbad_array_new_length@std@@
xdata$x	SEGMENT
__TI3?AVbad_array_new_length@std@@ DD 00H
	DD	FLAT:??1bad_array_new_length@std@@UAE@XZ
	DD	00H
	DD	FLAT:__CTA3?AVbad_array_new_length@std@@
xdata$x	ENDS
;	COMDAT ??_C@_0BF@KINCDENJ@bad?5array?5new?5length@
CONST	SEGMENT
??_C@_0BF@KINCDENJ@bad?5array?5new?5length@ DB 'bad array new length', 00H ; `string'
CONST	ENDS
;	COMDAT ??_7bad_array_new_length@std@@6B@
CONST	SEGMENT
??_7bad_array_new_length@std@@6B@ DD FLAT:??_R4bad_array_new_length@std@@6B@ ; std::bad_array_new_length::`vftable'
	DD	FLAT:??_Ebad_array_new_length@std@@UAEPAXI@Z
	DD	FLAT:?what@exception@std@@UBEPBDXZ
CONST	ENDS
;	COMDAT ??_7bad_alloc@std@@6B@
CONST	SEGMENT
??_7bad_alloc@std@@6B@ DD FLAT:??_R4bad_alloc@std@@6B@	; std::bad_alloc::`vftable'
	DD	FLAT:??_Ebad_alloc@std@@UAEPAXI@Z
	DD	FLAT:?what@exception@std@@UBEPBDXZ
CONST	ENDS
;	COMDAT ??_C@_0BC@EOODALEL@Unknown?5exception@
CONST	SEGMENT
??_C@_0BC@EOODALEL@Unknown?5exception@ DB 'Unknown exception', 00H ; `string'
CONST	ENDS
;	COMDAT ??_7exception@std@@6B@
CONST	SEGMENT
??_7exception@std@@6B@ DD FLAT:??_R4exception@std@@6B@	; std::exception::`vftable'
	DD	FLAT:??_Eexception@std@@UAEPAXI@Z
	DD	FLAT:?what@exception@std@@UBEPBDXZ
CONST	ENDS
;	COMDAT xdata$x
xdata$x	SEGMENT
__unwindtable$??$?0ABQAVIActorInstance@@@?$_Tree_temp_node@V?$allocator@U?$_Tree_node@PAVIActorInstance@@PAX@std@@@std@@@std@@QAE@AAV?$allocator@U?$_Tree_node@PAVIActorInstance@@PAX@std@@@1@PAU?$_Tree_node@PAVIActorInstance@@PAX@1@ABQAVIActorInstance@@@Z DD 0ffffffffH
	DD	FLAT:__unwindfunclet$??$?0ABQAVIActorInstance@@@?$_Tree_temp_node@V?$allocator@U?$_Tree_node@PAVIActorInstance@@PAX@std@@@std@@@std@@QAE@AAV?$allocator@U?$_Tree_node@PAVIActorInstance@@PAX@std@@@1@PAU?$_Tree_node@PAVIActorInstance@@PAX@1@ABQAVIActorInstance@@@Z$1
__ehfuncinfo$??$?0ABQAVIActorInstance@@@?$_Tree_temp_node@V?$allocator@U?$_Tree_node@PAVIActorInstance@@PAX@std@@@std@@@std@@QAE@AAV?$allocator@U?$_Tree_node@PAVIActorInstance@@PAX@std@@@1@PAU?$_Tree_node@PAVIActorInstance@@PAX@1@ABQAVIActorInstance@@@Z DD 019930522H
	DD	01H
	DD	FLAT:__unwindtable$??$?0ABQAVIActorInstance@@@?$_Tree_temp_node@V?$allocator@U?$_Tree_node@PAVIActorInstance@@PAX@std@@@std@@@std@@QAE@AAV?$allocator@U?$_Tree_node@PAVIActorInstance@@PAX@std@@@1@PAU?$_Tree_node@PAVIActorInstance@@PAX@1@ABQAVIActorInstance@@@Z
	DD	2 DUP(00H)
	DD	2 DUP(00H)
	DD	00H
	DD	01H
xdata$x	ENDS
;	COMDAT xdata$x
xdata$x	SEGMENT
__unwindtable$??0?$_Tree_temp_node_alloc@V?$allocator@U?$_Tree_node@PAVIActorInstance@@PAX@std@@@std@@@std@@QAE@AAV?$allocator@U?$_Tree_node@PAVIActorInstance@@PAX@std@@@1@@Z DD 0ffffffffH
	DD	FLAT:__unwindfunclet$??0?$_Tree_temp_node_alloc@V?$allocator@U?$_Tree_node@PAVIActorInstance@@PAX@std@@@std@@@std@@QAE@AAV?$allocator@U?$_Tree_node@PAVIActorInstance@@PAX@std@@@1@@Z$0
__ehfuncinfo$??0?$_Tree_temp_node_alloc@V?$allocator@U?$_Tree_node@PAVIActorInstance@@PAX@std@@@std@@@std@@QAE@AAV?$allocator@U?$_Tree_node@PAVIActorInstance@@PAX@std@@@1@@Z DD 019930522H
	DD	01H
	DD	FLAT:__unwindtable$??0?$_Tree_temp_node_alloc@V?$allocator@U?$_Tree_node@PAVIActorInstance@@PAX@std@@@std@@@std@@QAE@AAV?$allocator@U?$_Tree_node@PAVIActorInstance@@PAX@std@@@1@@Z
	DD	2 DUP(00H)
	DD	2 DUP(00H)
	DD	00H
	DD	01H
xdata$x	ENDS
;	COMDAT xdata$x
xdata$x	SEGMENT
__unwindtable$??$_Emplace@ABQAVIActorInstance@@@?$_Tree@V?$_Tset_traits@PAVIActorInstance@@U?$less@PAVIActorInstance@@@std@@V?$allocator@PAVIActorInstance@@@3@$0A@@std@@@std@@IAE?AU?$pair@PAU?$_Tree_node@PAVIActorInstance@@PAX@std@@_N@1@ABQAVIActorInstance@@@Z DD 0ffffffffH
	DD	FLAT:__unwindfunclet$??$_Emplace@ABQAVIActorInstance@@@?$_Tree@V?$_Tset_traits@PAVIActorInstance@@U?$less@PAVIActorInstance@@@std@@V?$allocator@PAVIActorInstance@@@3@$0A@@std@@@std@@IAE?AU?$pair@PAU?$_Tree_node@PAVIActorInstance@@PAX@std@@_N@1@ABQAVIActorInstance@@@Z$2
__ehfuncinfo$??$_Emplace@ABQAVIActorInstance@@@?$_Tree@V?$_Tset_traits@PAVIActorInstance@@U?$less@PAVIActorInstance@@@std@@V?$allocator@PAVIActorInstance@@@3@$0A@@std@@@std@@IAE?AU?$pair@PAU?$_Tree_node@PAVIActorInstance@@PAX@std@@_N@1@ABQAVIActorInstance@@@Z DD 019930522H
	DD	01H
	DD	FLAT:__unwindtable$??$_Emplace@ABQAVIActorInstance@@@?$_Tree@V?$_Tset_traits@PAVIActorInstance@@U?$less@PAVIActorInstance@@@std@@V?$allocator@PAVIActorInstance@@@3@$0A@@std@@@std@@IAE?AU?$pair@PAU?$_Tree_node@PAVIActorInstance@@PAX@std@@_N@1@ABQAVIActorInstance@@@Z
	DD	2 DUP(00H)
	DD	2 DUP(00H)
	DD	00H
	DD	01H
xdata$x	ENDS
;	COMDAT xdata$x
xdata$x	SEGMENT
__unwindtable$??$ForInRange@UFCheckBackgroundDuringFlying@@@CCullingManager@@QAEXABVVector3d@@MPAUFCheckBackgroundDuringFlying@@@Z DD 0ffffffffH
	DD	FLAT:__unwindfunclet$??$ForInRange@UFCheckBackgroundDuringFlying@@@CCullingManager@@QAEXABVVector3d@@MPAUFCheckBackgroundDuringFlying@@@Z$0
__ehfuncinfo$??$ForInRange@UFCheckBackgroundDuringFlying@@@CCullingManager@@QAEXABVVector3d@@MPAUFCheckBackgroundDuringFlying@@@Z DD 019930522H
	DD	01H
	DD	FLAT:__unwindtable$??$ForInRange@UFCheckBackgroundDuringFlying@@@CCullingManager@@QAEXABVVector3d@@MPAUFCheckBackgroundDuringFlying@@@Z
	DD	2 DUP(00H)
	DD	2 DUP(00H)
	DD	00H
	DD	01H
xdata$x	ENDS
;	COMDAT xdata$x
xdata$x	SEGMENT
__unwindtable$??$insert@$0A@$0A@@?$_Tree@V?$_Tset_traits@PAVIActorInstance@@U?$less@PAVIActorInstance@@@std@@V?$allocator@PAVIActorInstance@@@3@$0A@@std@@@std@@QAE?AU?$pair@V?$_Tree_const_iterator@V?$_Tree_val@U?$_Tree_simple_types@PAVIActorInstance@@@std@@@std@@@std@@_N@1@ABQAVIActorInstance@@@Z DD 0ffffffffH
	DD	FLAT:__unwindfunclet$??$insert@$0A@$0A@@?$_Tree@V?$_Tset_traits@PAVIActorInstance@@U?$less@PAVIActorInstance@@@std@@V?$allocator@PAVIActorInstance@@@3@$0A@@std@@@std@@QAE?AU?$pair@V?$_Tree_const_iterator@V?$_Tree_val@U?$_Tree_simple_types@PAVIActorInstance@@@std@@@std@@@std@@_N@1@ABQAVIActorInstance@@@Z$2
__ehfuncinfo$??$insert@$0A@$0A@@?$_Tree@V?$_Tset_traits@PAVIActorInstance@@U?$less@PAVIActorInstance@@@std@@V?$allocator@PAVIActorInstance@@@3@$0A@@std@@@std@@QAE?AU?$pair@V?$_Tree_const_iterator@V?$_Tree_val@U?$_Tree_simple_types@PAVIActorInstance@@@std@@@std@@@std@@_N@1@ABQAVIActorInstance@@@Z DD 019930522H
	DD	01H
	DD	FLAT:__unwindtable$??$insert@$0A@$0A@@?$_Tree@V?$_Tset_traits@PAVIActorInstance@@U?$less@PAVIActorInstance@@@std@@V?$allocator@PAVIActorInstance@@@3@$0A@@std@@@std@@QAE?AU?$pair@V?$_Tree_const_iterator@V?$_Tree_val@U?$_Tree_simple_types@PAVIActorInstance@@@std@@@std@@@std@@_N@1@ABQAVIActorInstance@@@Z
	DD	2 DUP(00H)
	DD	2 DUP(00H)
	DD	00H
	DD	01H
xdata$x	ENDS
;	COMDAT xdata$x
xdata$x	SEGMENT
__unwindtable$??$ForInRange@UFCheckAnotherMonsterDuringFlying@@@CCullingManager@@QAEXABVVector3d@@MPAUFCheckAnotherMonsterDuringFlying@@@Z DD 0ffffffffH
	DD	FLAT:__unwindfunclet$??$ForInRange@UFCheckAnotherMonsterDuringFlying@@@CCullingManager@@QAEXABVVector3d@@MPAUFCheckAnotherMonsterDuringFlying@@@Z$0
__ehfuncinfo$??$ForInRange@UFCheckAnotherMonsterDuringFlying@@@CCullingManager@@QAEXABVVector3d@@MPAUFCheckAnotherMonsterDuringFlying@@@Z DD 019930522H
	DD	01H
	DD	FLAT:__unwindtable$??$ForInRange@UFCheckAnotherMonsterDuringFlying@@@CCullingManager@@QAEXABVVector3d@@MPAUFCheckAnotherMonsterDuringFlying@@@Z
	DD	2 DUP(00H)
	DD	2 DUP(00H)
	DD	00H
	DD	01H
xdata$x	ENDS
;	COMDAT xdata$x
xdata$x	SEGMENT
__unwindtable$?Update@CFlyingInstance@@QAE_NXZ DD 0ffffffffH
	DD	FLAT:__unwindfunclet$?Update@CFlyingInstance@@QAE_NXZ$0
	DD	0ffffffffH
	DD	FLAT:__unwindfunclet$?Update@CFlyingInstance@@QAE_NXZ$3
	DD	0ffffffffH
	DD	FLAT:__unwindfunclet$?Update@CFlyingInstance@@QAE_NXZ$6
__ehfuncinfo$?Update@CFlyingInstance@@QAE_NXZ DD 019930522H
	DD	03H
	DD	FLAT:__unwindtable$?Update@CFlyingInstance@@QAE_NXZ
	DD	2 DUP(00H)
	DD	2 DUP(00H)
	DD	00H
	DD	01H
xdata$x	ENDS
;	COMDAT xdata$x
xdata$x	SEGMENT
__ehfuncinfo$??1CFlyingInstance@@UAE@XZ DD 019930522H
	DD	00H
	DD	00H
	DD	2 DUP(00H)
	DD	2 DUP(00H)
	DD	00H
	DD	05H
xdata$x	ENDS
;	COMDAT xdata$x
xdata$x	SEGMENT
__unwindtable$??0CFlyingInstance@@QAE@XZ DD 0ffffffffH
	DD	FLAT:__unwindfunclet$??0CFlyingInstance@@QAE@XZ$0
	DD	00H
	DD	FLAT:__unwindfunclet$??0CFlyingInstance@@QAE@XZ$1
__ehfuncinfo$??0CFlyingInstance@@QAE@XZ DD 019930522H
	DD	02H
	DD	FLAT:__unwindtable$??0CFlyingInstance@@QAE@XZ
	DD	2 DUP(00H)
	DD	2 DUP(00H)
	DD	00H
	DD	01H
xdata$x	ENDS
;	COMDAT CRT$XCU
CRT$XCU	SEGMENT
??ms_kPool$initializer$@?$CPooledObject@VCHeaderDecorator@NEffectUpdateDecorator@@@@1P6AXXZA@@3P6AXXZA DD FLAT:??__E?ms_kPool@?$CPooledObject@VCHeaderDecorator@NEffectUpdateDecorator@@@@1V?$CDynamicPoolEx@VCHeaderDecorator@NEffectUpdateDecorator@@@@A@@YAXXZ ; ??ms_kPool$initializer$@?$CPooledObject@VCHeaderDecorator@NEffectUpdateDecorator@@@@1P6AXXZA@@3P6AXXZA
CRT$XCU	ENDS
;	COMDAT CRT$XCU
CRT$XCU	SEGMENT
??ms_kPool$initializer$@?$CPooledObject@VCNullDecorator@NEffectUpdateDecorator@@@@1P6AXXZA@@3P6AXXZA DD FLAT:??__E?ms_kPool@?$CPooledObject@VCNullDecorator@NEffectUpdateDecorator@@@@1V?$CDynamicPoolEx@VCNullDecorator@NEffectUpdateDecorator@@@@A@@YAXXZ ; ??ms_kPool$initializer$@?$CPooledObject@VCNullDecorator@NEffectUpdateDecorator@@@@1P6AXXZA@@3P6AXXZA
CRT$XCU	ENDS
;	COMDAT CRT$XCU
CRT$XCU	SEGMENT
??ms_kPool$initializer$@?$CPooledObject@VCTextureAnimationCWDecorator@NEffectUpdateDecorator@@@@1P6AXXZA@@3P6AXXZA DD FLAT:??__E?ms_kPool@?$CPooledObject@VCTextureAnimationCWDecorator@NEffectUpdateDecorator@@@@1V?$CDynamicPoolEx@VCTextureAnimationCWDecorator@NEffectUpdateDecorator@@@@A@@YAXXZ ; ??ms_kPool$initializer$@?$CPooledObject@VCTextureAnimationCWDecorator@NEffectUpdateDecorator@@@@1P6AXXZA@@3P6AXXZA
CRT$XCU	ENDS
;	COMDAT CRT$XCU
CRT$XCU	SEGMENT
??ms_kPool$initializer$@?$CPooledObject@VCTextureAnimationCCWDecorator@NEffectUpdateDecorator@@@@1P6AXXZA@@3P6AXXZA DD FLAT:??__E?ms_kPool@?$CPooledObject@VCTextureAnimationCCWDecorator@NEffectUpdateDecorator@@@@1V?$CDynamicPoolEx@VCTextureAnimationCCWDecorator@NEffectUpdateDecorator@@@@A@@YAXXZ ; ??ms_kPool$initializer$@?$CPooledObject@VCTextureAnimationCCWDecorator@NEffectUpdateDecorator@@@@1P6AXXZA@@3P6AXXZA
CRT$XCU	ENDS
;	COMDAT CRT$XCU
CRT$XCU	SEGMENT
??ms_kPool$initializer$@?$CPooledObject@VCTextureAnimationRandomDecorator@NEffectUpdateDecorator@@@@1P6AXXZA@@3P6AXXZA DD FLAT:??__E?ms_kPool@?$CPooledObject@VCTextureAnimationRandomDecorator@NEffectUpdateDecorator@@@@1V?$CDynamicPoolEx@VCTextureAnimationRandomDecorator@NEffectUpdateDecorator@@@@A@@YAXXZ ; ??ms_kPool$initializer$@?$CPooledObject@VCTextureAnimationRandomDecorator@NEffectUpdateDecorator@@@@1P6AXXZA@@3P6AXXZA
CRT$XCU	ENDS
;	COMDAT CRT$XCU
CRT$XCU	SEGMENT
??ms_kPool$initializer$@?$CPooledObject@VCAirResistanceDecorator@NEffectUpdateDecorator@@@@1P6AXXZA@@3P6AXXZA DD FLAT:??__E?ms_kPool@?$CPooledObject@VCAirResistanceDecorator@NEffectUpdateDecorator@@@@1V?$CDynamicPoolEx@VCAirResistanceDecorator@NEffectUpdateDecorator@@@@A@@YAXXZ ; ??ms_kPool$initializer$@?$CPooledObject@VCAirResistanceDecorator@NEffectUpdateDecorator@@@@1P6AXXZA@@3P6AXXZA
CRT$XCU	ENDS
;	COMDAT CRT$XCU
CRT$XCU	SEGMENT
??ms_kPool$initializer$@?$CPooledObject@VCGravityDecorator@NEffectUpdateDecorator@@@@1P6AXXZA@@3P6AXXZA DD FLAT:??__E?ms_kPool@?$CPooledObject@VCGravityDecorator@NEffectUpdateDecorator@@@@1V?$CDynamicPoolEx@VCGravityDecorator@NEffectUpdateDecorator@@@@A@@YAXXZ ; ??ms_kPool$initializer$@?$CPooledObject@VCGravityDecorator@NEffectUpdateDecorator@@@@1P6AXXZA@@3P6AXXZA
CRT$XCU	ENDS
;	COMDAT CRT$XCU
CRT$XCU	SEGMENT
??ms_kPool$initializer$@?$CPooledObject@VCRotationDecorator@NEffectUpdateDecorator@@@@1P6AXXZA@@3P6AXXZA DD FLAT:??__E?ms_kPool@?$CPooledObject@VCRotationDecorator@NEffectUpdateDecorator@@@@1V?$CDynamicPoolEx@VCRotationDecorator@NEffectUpdateDecorator@@@@A@@YAXXZ ; ??ms_kPool$initializer$@?$CPooledObject@VCRotationDecorator@NEffectUpdateDecorator@@@@1P6AXXZA@@3P6AXXZA
CRT$XCU	ENDS
; Function compile flags: /Ogtp
; File C:\Program Files (x86)\Microsoft Visual Studio\2019\Professional\VC\Tools\MSVC\14.29.30133\include\xutility
;	COMDAT ??$_Copy_memmove@PAUTAttachEffectInstance@CFlyingInstance@@PAU12@@std@@YAPAUTAttachEffectInstance@CFlyingInstance@@PAU12@00@Z
_TEXT	SEGMENT
__First$ = 8						; size = 4
__Last$ = 12						; size = 4
__Dest$ = 16						; size = 4
??$_Copy_memmove@PAUTAttachEffectInstance@CFlyingInstance@@PAU12@@std@@YAPAUTAttachEffectInstance@CFlyingInstance@@PAU12@00@Z PROC ; std::_Copy_memmove<CFlyingInstance::TAttachEffectInstance *,CFlyingInstance::TAttachEffectInstance *>, COMDAT

; 4159 : _OutCtgIt _Copy_memmove(_CtgIt _First, _CtgIt _Last, _OutCtgIt _Dest) {

  00000	55		 push	 ebp
  00001	8b ec		 mov	 ebp, esp

; 4160 :     auto _FirstPtr              = _To_address(_First);
; 4161 :     auto _LastPtr               = _To_address(_Last);
; 4162 :     auto _DestPtr               = _To_address(_Dest);
; 4163 :     const char* const _First_ch = const_cast<const char*>(reinterpret_cast<const volatile char*>(_FirstPtr));
; 4164 :     const char* const _Last_ch  = const_cast<const char*>(reinterpret_cast<const volatile char*>(_LastPtr));
; 4165 :     char* const _Dest_ch        = const_cast<char*>(reinterpret_cast<const volatile char*>(_DestPtr));
; 4166 :     const auto _Count           = static_cast<size_t>(_Last_ch - _First_ch);

  00003	8b 45 08	 mov	 eax, DWORD PTR __First$[ebp]
  00006	56		 push	 esi

; 4167 :     _CSTD memmove(_Dest_ch, _First_ch, _Count);

  00007	8b 75 10	 mov	 esi, DWORD PTR __Dest$[ebp]
  0000a	57		 push	 edi
  0000b	8b 7d 0c	 mov	 edi, DWORD PTR __Last$[ebp]
  0000e	2b f8		 sub	 edi, eax
  00010	57		 push	 edi
  00011	50		 push	 eax
  00012	56		 push	 esi
  00013	e8 00 00 00 00	 call	 _memmove
  00018	83 c4 0c	 add	 esp, 12			; 0000000cH

; 4168 :     if constexpr (is_pointer_v<_OutCtgIt>) {
; 4169 :         return reinterpret_cast<_OutCtgIt>(_Dest_ch + _Count);

  0001b	8d 04 37	 lea	 eax, DWORD PTR [edi+esi]
  0001e	5f		 pop	 edi
  0001f	5e		 pop	 esi

; 4170 :     } else {
; 4171 :         return _Dest + (_LastPtr - _FirstPtr);
; 4172 :     }
; 4173 : }

  00020	5d		 pop	 ebp
  00021	c3		 ret	 0
??$_Copy_memmove@PAUTAttachEffectInstance@CFlyingInstance@@PAU12@@std@@YAPAUTAttachEffectInstance@CFlyingInstance@@PAU12@00@Z ENDP ; std::_Copy_memmove<CFlyingInstance::TAttachEffectInstance *,CFlyingInstance::TAttachEffectInstance *>
_TEXT	ENDS
; Function compile flags: /Ogtp
; File C:\Program Files (x86)\Microsoft Visual Studio\2019\Professional\VC\Tools\MSVC\14.29.30133\include\xmemory
;	COMDAT ??1?$_Alloc_construct_ptr@V?$allocator@U?$_Tree_node@PAVIActorInstance@@PAX@std@@@std@@@std@@QAE@XZ
_TEXT	SEGMENT
??1?$_Alloc_construct_ptr@V?$allocator@U?$_Tree_node@PAVIActorInstance@@PAX@std@@@std@@@std@@QAE@XZ PROC ; std::_Alloc_construct_ptr<std::allocator<std::_Tree_node<IActorInstance *,void *> > >::~_Alloc_construct_ptr<std::allocator<std::_Tree_node<IActorInstance *,void *> > >, COMDAT
; _this$ = ecx

; 1024 :         if (_Ptr) {

  00000	8b 41 04	 mov	 eax, DWORD PTR [ecx+4]
  00003	85 c0		 test	 eax, eax
  00005	74 0b		 je	 SHORT $LN8@Alloc_cons

; 264  :         ::operator delete(_Ptr, _Bytes);

  00007	6a 14		 push	 20			; 00000014H
  00009	50		 push	 eax
  0000a	e8 00 00 00 00	 call	 ??3@YAXPAXI@Z		; operator delete
  0000f	83 c4 08	 add	 esp, 8
$LN8@Alloc_cons:

; 1025 :             _Al.deallocate(_Ptr, 1);
; 1026 :         }
; 1027 :     }

  00012	c3		 ret	 0
??1?$_Alloc_construct_ptr@V?$allocator@U?$_Tree_node@PAVIActorInstance@@PAX@std@@@std@@@std@@QAE@XZ ENDP ; std::_Alloc_construct_ptr<std::allocator<std::_Tree_node<IActorInstance *,void *> > >::~_Alloc_construct_ptr<std::allocator<std::_Tree_node<IActorInstance *,void *> > >
_TEXT	ENDS
; Function compile flags: /Ogtp
; File C:\Program Files (x86)\Microsoft Visual Studio\2019\Professional\VC\Tools\MSVC\14.29.30133\include\xtree
; File C:\Program Files (x86)\Microsoft Visual Studio\2019\Professional\VC\Tools\MSVC\14.29.30133\include\xstddef
; File C:\Program Files (x86)\Microsoft Visual Studio\2019\Professional\VC\Tools\MSVC\14.29.30133\include\xtree
; File C:\Program Files (x86)\Microsoft Visual Studio\2019\Professional\VC\Tools\MSVC\14.29.30133\include\xstddef
; File C:\Program Files (x86)\Microsoft Visual Studio\2019\Professional\VC\Tools\MSVC\14.29.30133\include\xtree
;	COMDAT ??$_Find_lower_bound@PAVIActorInstance@@@?$_Tree@V?$_Tset_traits@PAVIActorInstance@@U?$less@PAVIActorInstance@@@std@@V?$allocator@PAVIActorInstance@@@3@$0A@@std@@@std@@IBE?AU?$_Tree_find_result@PAU?$_Tree_node@PAVIActorInstance@@PAX@std@@@1@ABQAVIActorInstance@@@Z
_TEXT	SEGMENT
___$ReturnUdt$ = 8					; size = 4
__Keyval$ = 12						; size = 4
??$_Find_lower_bound@PAVIActorInstance@@@?$_Tree@V?$_Tset_traits@PAVIActorInstance@@U?$less@PAVIActorInstance@@@std@@V?$allocator@PAVIActorInstance@@@3@$0A@@std@@@std@@IBE?AU?$_Tree_find_result@PAU?$_Tree_node@PAVIActorInstance@@PAX@std@@@1@ABQAVIActorInstance@@@Z PROC ; std::_Tree<std::_Tset_traits<IActorInstance *,std::less<IActorInstance *>,std::allocator<IActorInstance *>,0> >::_Find_lower_bound<IActorInstance *>, COMDAT
; _this$ = ecx

; 1603 :     _Tree_find_result<_Nodeptr> _Find_lower_bound(const _Keyty& _Keyval) const {

  00000	55		 push	 ebp
  00001	8b ec		 mov	 ebp, esp

; 1604 :         const auto _Scary = _Get_scary();
; 1605 :         _Tree_find_result<_Nodeptr> _Result{{_Scary->_Myhead->_Parent, _Tree_child::_Right}, _Scary->_Myhead};

  00003	8b 09		 mov	 ecx, DWORD PTR [ecx]
  00005	8b 55 08	 mov	 edx, DWORD PTR ___$ReturnUdt$[ebp]
  00008	8b 41 04	 mov	 eax, DWORD PTR [ecx+4]
  0000b	89 02		 mov	 DWORD PTR [edx], eax
  0000d	c7 42 04 00 00
	00 00		 mov	 DWORD PTR [edx+4], 0
  00014	89 4a 08	 mov	 DWORD PTR [edx+8], ecx

; 1606 :         _Nodeptr _Trynode = _Result._Location._Parent;
; 1607 :         while (!_Trynode->_Isnil) {

  00017	80 78 0d 00	 cmp	 BYTE PTR [eax+13], 0
  0001b	75 28		 jne	 SHORT $LN12@Find_lower
; File C:\Program Files (x86)\Microsoft Visual Studio\2019\Professional\VC\Tools\MSVC\14.29.30133\include\xstddef

; 127  :         return _Left < _Right;

  0001d	8b 4d 0c	 mov	 ecx, DWORD PTR __Keyval$[ebp]
  00020	56		 push	 esi
  00021	8b 31		 mov	 esi, DWORD PTR [ecx]
$LL2@Find_lower:
; File C:\Program Files (x86)\Microsoft Visual Studio\2019\Professional\VC\Tools\MSVC\14.29.30133\include\xtree

; 1608 :             _Result._Location._Parent = _Trynode;

  00023	89 02		 mov	 DWORD PTR [edx], eax
; File C:\Program Files (x86)\Microsoft Visual Studio\2019\Professional\VC\Tools\MSVC\14.29.30133\include\xstddef

; 127  :         return _Left < _Right;

  00025	39 70 10	 cmp	 DWORD PTR [eax+16], esi
; File C:\Program Files (x86)\Microsoft Visual Studio\2019\Professional\VC\Tools\MSVC\14.29.30133\include\xtree

; 1609 :             if (_DEBUG_LT_PRED(_Getcomp(), _Traits::_Kfn(_Trynode->_Myval), _Keyval)) {

  00028	73 07		 jae	 SHORT $LN4@Find_lower

; 1610 :                 _Result._Location._Child = _Tree_child::_Right;
; 1611 :                 _Trynode                 = _Trynode->_Right;

  0002a	8b 40 08	 mov	 eax, DWORD PTR [eax+8]
  0002d	33 c9		 xor	 ecx, ecx

; 1612 :             } else {

  0002f	eb 0a		 jmp	 SHORT $LN5@Find_lower
$LN4@Find_lower:

; 1613 :                 _Result._Location._Child = _Tree_child::_Left;
; 1614 :                 _Result._Bound           = _Trynode;

  00031	89 42 08	 mov	 DWORD PTR [edx+8], eax

; 1615 :                 _Trynode                 = _Trynode->_Left;

  00034	b9 01 00 00 00	 mov	 ecx, 1
  00039	8b 00		 mov	 eax, DWORD PTR [eax]
$LN5@Find_lower:

; 1606 :         _Nodeptr _Trynode = _Result._Location._Parent;
; 1607 :         while (!_Trynode->_Isnil) {

  0003b	89 4a 04	 mov	 DWORD PTR [edx+4], ecx
  0003e	80 78 0d 00	 cmp	 BYTE PTR [eax+13], 0
  00042	74 df		 je	 SHORT $LL2@Find_lower

; 1616 :             }
; 1617 :         }
; 1618 : 
; 1619 :         return _Result;

  00044	5e		 pop	 esi
$LN12@Find_lower:

; 1620 :     }

  00045	8b c2		 mov	 eax, edx
  00047	5d		 pop	 ebp
  00048	c2 08 00	 ret	 8
??$_Find_lower_bound@PAVIActorInstance@@@?$_Tree@V?$_Tset_traits@PAVIActorInstance@@U?$less@PAVIActorInstance@@@std@@V?$allocator@PAVIActorInstance@@@3@$0A@@std@@@std@@IBE?AU?$_Tree_find_result@PAU?$_Tree_node@PAVIActorInstance@@PAX@std@@@1@ABQAVIActorInstance@@@Z ENDP ; std::_Tree<std::_Tset_traits<IActorInstance *,std::less<IActorInstance *>,std::allocator<IActorInstance *>,0> >::_Find_lower_bound<IActorInstance *>
_TEXT	ENDS
; Function compile flags: /Ogtp
;	COMDAT ??_G?$RangeTester@UFCheckBackgroundDuringFlying@@@@UAEPAXI@Z
_TEXT	SEGMENT
___flags$ = 8						; size = 4
??_G?$RangeTester@UFCheckBackgroundDuringFlying@@@@UAEPAXI@Z PROC ; RangeTester<FCheckBackgroundDuringFlying>::`scalar deleting destructor', COMDAT
; _this$ = ecx
  00000	55		 push	 ebp
  00001	8b ec		 mov	 ebp, esp
  00003	f6 45 08 01	 test	 BYTE PTR ___flags$[ebp], 1
  00007	56		 push	 esi
  00008	8b f1		 mov	 esi, ecx
  0000a	c7 06 00 00 00
	00		 mov	 DWORD PTR [esi], OFFSET ??_7SpherePackCallback@@6B@
  00010	74 0b		 je	 SHORT $LN4@scalar
  00012	6a 0c		 push	 12			; 0000000cH
  00014	56		 push	 esi
  00015	e8 00 00 00 00	 call	 ??3@YAXPAXI@Z		; operator delete
  0001a	83 c4 08	 add	 esp, 8
$LN4@scalar:
  0001d	8b c6		 mov	 eax, esi
  0001f	5e		 pop	 esi
  00020	5d		 pop	 ebp
  00021	c2 04 00	 ret	 4
??_G?$RangeTester@UFCheckBackgroundDuringFlying@@@@UAEPAXI@Z ENDP ; RangeTester<FCheckBackgroundDuringFlying>::`scalar deleting destructor'
_TEXT	ENDS
; Function compile flags: /Ogtp
; File C:\Users\murat\Desktop\Siveps2-1-99-Project\source\client\Client\eterlib\CullingManager.h
; File C:\Users\murat\Desktop\Siveps2-1-99-Project\source\client\Client\GameLib\FlyingInstance.cpp
; File C:\Users\murat\Desktop\Siveps2-1-99-Project\source\client\Client\eterlib\CullingManager.h
; File C:\Users\murat\Desktop\Siveps2-1-99-Project\source\client\Client\GameLib\FlyingInstance.cpp
; File C:\Users\murat\Desktop\Siveps2-1-99-Project\source\client\Client\eterlib\CullingManager.h
;	COMDAT ?PointTest2dCallback@?$RangeTester@UFCheckBackgroundDuringFlying@@@@UAEXABVVector3d@@PAVSpherePack@@W4ViewState@@@Z
_TEXT	SEGMENT
_p$ = 8							; size = 4
_sphere$ = 12						; size = 4
_state$ = 16						; size = 4
?PointTest2dCallback@?$RangeTester@UFCheckBackgroundDuringFlying@@@@UAEXABVVector3d@@PAVSpherePack@@W4ViewState@@@Z PROC ; RangeTester<FCheckBackgroundDuringFlying>::PointTest2dCallback, COMDAT
; _this$ = ecx

; 50   : 	{

  00000	55		 push	 ebp
  00001	8b ec		 mov	 ebp, esp

; 51   : #ifdef SPHERELIB_STRICT
; 52   : 		if (sphere->IS_SPHERE)
; 53   : 			puts("RangeTester::PointTest2dCallback");
; 54   : #endif
; 55   : 		if (state!=VS_OUTSIDE)

  00003	83 7d 10 02	 cmp	 DWORD PTR _state$[ebp], 2
  00007	74 35		 je	 SHORT $LN7@PointTest2

; 60   : 			(*f)((CGraphicObjectInstance *)sphere->GetUserData());

  00009	8b 45 0c	 mov	 eax, DWORD PTR _sphere$[ebp]
  0000c	56		 push	 esi
  0000d	8b 70 44	 mov	 esi, DWORD PTR [eax+68]
; File C:\Users\murat\Desktop\Siveps2-1-99-Project\source\client\Client\GameLib\FlyingInstance.cpp

; 292  : 		if (!p)

  00010	85 f6		 test	 esi, esi
  00012	74 29		 je	 SHORT $LN9@PointTest2
; File C:\Users\murat\Desktop\Siveps2-1-99-Project\source\client\Client\eterlib\CullingManager.h

; 60   : 			(*f)((CGraphicObjectInstance *)sphere->GetUserData());

  00014	57		 push	 edi
  00015	8b 79 04	 mov	 edi, DWORD PTR [ecx+4]
; File C:\Users\murat\Desktop\Siveps2-1-99-Project\source\client\Client\GameLib\FlyingInstance.cpp

; 295  : 		if (!bHit && p->GetType() != ACTOR_OBJECT)

  00018	80 7f 1c 00	 cmp	 BYTE PTR [edi+28], 0
  0001c	75 1e		 jne	 SHORT $LN10@PointTest2
  0001e	8b 06		 mov	 eax, DWORD PTR [esi]
  00020	8b ce		 mov	 ecx, esi
  00022	ff 50 04	 call	 DWORD PTR [eax+4]
  00025	3d 24 6c a7 29	 cmp	 eax, 698838052		; 29a76c24H
  0002a	74 10		 je	 SHORT $LN10@PointTest2

; 296  : 		{
; 297  : 			if (p->CollisionDynamicSphere(s))

  0002c	57		 push	 edi
  0002d	8b ce		 mov	 ecx, esi
  0002f	e8 00 00 00 00	 call	 ?CollisionDynamicSphere@CGraphicObjectInstance@@QBE_NABUCDynamicSphereInstance@@@Z ; CGraphicObjectInstance::CollisionDynamicSphere
  00034	84 c0		 test	 al, al
  00036	74 04		 je	 SHORT $LN10@PointTest2

; 298  : 			{
; 299  : 				bHit = true;

  00038	c6 47 1c 01	 mov	 BYTE PTR [edi+28], 1
$LN10@PointTest2:
  0003c	5f		 pop	 edi
$LN9@PointTest2:
  0003d	5e		 pop	 esi
$LN7@PointTest2:
; File C:\Users\murat\Desktop\Siveps2-1-99-Project\source\client\Client\eterlib\CullingManager.h

; 62   : 	}

  0003e	5d		 pop	 ebp
  0003f	c2 0c 00	 ret	 12			; 0000000cH
?PointTest2dCallback@?$RangeTester@UFCheckBackgroundDuringFlying@@@@UAEXABVVector3d@@PAVSpherePack@@W4ViewState@@@Z ENDP ; RangeTester<FCheckBackgroundDuringFlying>::PointTest2dCallback
_TEXT	ENDS
; Function compile flags: /Ogtp
; File C:\Users\murat\Desktop\Siveps2-1-99-Project\source\client\Client\eterlib\CullingManager.h
; File C:\Users\murat\Desktop\Siveps2-1-99-Project\source\client\Client\GameLib\FlyingInstance.cpp
; File C:\Users\murat\Desktop\Siveps2-1-99-Project\source\client\Client\eterlib\CullingManager.h
; File C:\Users\murat\Desktop\Siveps2-1-99-Project\source\client\Client\GameLib\FlyingInstance.cpp
; File C:\Users\murat\Desktop\Siveps2-1-99-Project\source\client\Client\eterlib\CullingManager.h
;	COMDAT ?RangeTestCallback@?$RangeTester@UFCheckBackgroundDuringFlying@@@@UAEXABVVector3d@@MPAVSpherePack@@W4ViewState@@@Z
_TEXT	SEGMENT
_p$ = 8							; size = 4
_distance$ = 12						; size = 4
_sphere$ = 16						; size = 4
_state$ = 20						; size = 4
?RangeTestCallback@?$RangeTester@UFCheckBackgroundDuringFlying@@@@UAEXABVVector3d@@MPAVSpherePack@@W4ViewState@@@Z PROC ; RangeTester<FCheckBackgroundDuringFlying>::RangeTestCallback, COMDAT
; _this$ = ecx

; 40   : 	{

  00000	55		 push	 ebp
  00001	8b ec		 mov	 ebp, esp

; 41   : #ifdef SPHERELIB_STRICT
; 42   : 		if (sphere->IS_SPHERE)
; 43   : 			puts("RangeTester::RangeTestCallback");
; 44   : #endif
; 45   : 		if (state!=VS_OUTSIDE)

  00003	83 7d 14 02	 cmp	 DWORD PTR _state$[ebp], 2
  00007	74 35		 je	 SHORT $LN7@RangeTestC

; 46   : 			(*f)((CGraphicObjectInstance *)sphere->GetUserData());

  00009	8b 45 10	 mov	 eax, DWORD PTR _sphere$[ebp]
  0000c	56		 push	 esi
  0000d	8b 70 44	 mov	 esi, DWORD PTR [eax+68]
; File C:\Users\murat\Desktop\Siveps2-1-99-Project\source\client\Client\GameLib\FlyingInstance.cpp

; 292  : 		if (!p)

  00010	85 f6		 test	 esi, esi
  00012	74 29		 je	 SHORT $LN9@RangeTestC
; File C:\Users\murat\Desktop\Siveps2-1-99-Project\source\client\Client\eterlib\CullingManager.h

; 46   : 			(*f)((CGraphicObjectInstance *)sphere->GetUserData());

  00014	57		 push	 edi
  00015	8b 79 04	 mov	 edi, DWORD PTR [ecx+4]
; File C:\Users\murat\Desktop\Siveps2-1-99-Project\source\client\Client\GameLib\FlyingInstance.cpp

; 295  : 		if (!bHit && p->GetType() != ACTOR_OBJECT)

  00018	80 7f 1c 00	 cmp	 BYTE PTR [edi+28], 0
  0001c	75 1e		 jne	 SHORT $LN10@RangeTestC
  0001e	8b 06		 mov	 eax, DWORD PTR [esi]
  00020	8b ce		 mov	 ecx, esi
  00022	ff 50 04	 call	 DWORD PTR [eax+4]
  00025	3d 24 6c a7 29	 cmp	 eax, 698838052		; 29a76c24H
  0002a	74 10		 je	 SHORT $LN10@RangeTestC

; 296  : 		{
; 297  : 			if (p->CollisionDynamicSphere(s))

  0002c	57		 push	 edi
  0002d	8b ce		 mov	 ecx, esi
  0002f	e8 00 00 00 00	 call	 ?CollisionDynamicSphere@CGraphicObjectInstance@@QBE_NABUCDynamicSphereInstance@@@Z ; CGraphicObjectInstance::CollisionDynamicSphere
  00034	84 c0		 test	 al, al
  00036	74 04		 je	 SHORT $LN10@RangeTestC

; 298  : 			{
; 299  : 				bHit = true;

  00038	c6 47 1c 01	 mov	 BYTE PTR [edi+28], 1
$LN10@RangeTestC:
  0003c	5f		 pop	 edi
$LN9@RangeTestC:
  0003d	5e		 pop	 esi
$LN7@RangeTestC:
; File C:\Users\murat\Desktop\Siveps2-1-99-Project\source\client\Client\eterlib\CullingManager.h

; 47   : 	}

  0003e	5d		 pop	 ebp
  0003f	c2 10 00	 ret	 16			; 00000010H
?RangeTestCallback@?$RangeTester@UFCheckBackgroundDuringFlying@@@@UAEXABVVector3d@@MPAVSpherePack@@W4ViewState@@@Z ENDP ; RangeTester<FCheckBackgroundDuringFlying>::RangeTestCallback
_TEXT	ENDS
; Function compile flags: /Ogtp
; File C:\Users\murat\Desktop\Siveps2-1-99-Project\source\client\Client\eterlib\CullingManager.h
;	COMDAT ?VisibilityCallback@?$RangeTester@UFCheckBackgroundDuringFlying@@@@UAEXABVFrustum@@PAVSpherePack@@W4ViewState@@@Z
_TEXT	SEGMENT
_f$ = 8							; size = 4
_sphere$ = 12						; size = 4
_state$ = 16						; size = 4
?VisibilityCallback@?$RangeTester@UFCheckBackgroundDuringFlying@@@@UAEXABVFrustum@@PAVSpherePack@@W4ViewState@@@Z PROC ; RangeTester<FCheckBackgroundDuringFlying>::VisibilityCallback, COMDAT
; _this$ = ecx

; 37   : 	virtual void VisibilityCallback(const Frustum &f,SpherePack *sphere,ViewState state){};

  00000	c2 0c 00	 ret	 12			; 0000000cH
?VisibilityCallback@?$RangeTester@UFCheckBackgroundDuringFlying@@@@UAEXABVFrustum@@PAVSpherePack@@W4ViewState@@@Z ENDP ; RangeTester<FCheckBackgroundDuringFlying>::VisibilityCallback
_TEXT	ENDS
; Function compile flags: /Ogtp
; File C:\Users\murat\Desktop\Siveps2-1-99-Project\source\client\Client\eterlib\CullingManager.h
; File C:\Users\murat\Desktop\Siveps2-1-99-Project\source\client\Client\GameLib\FlyingInstance.cpp
; File C:\Users\murat\Desktop\Siveps2-1-99-Project\source\client\Client\eterlib\CullingManager.h
; File C:\Users\murat\Desktop\Siveps2-1-99-Project\source\client\Client\GameLib\FlyingInstance.cpp
; File C:\Users\murat\Desktop\Siveps2-1-99-Project\source\client\Client\eterlib\CullingManager.h
;	COMDAT ?RayTraceCallback@?$RangeTester@UFCheckBackgroundDuringFlying@@@@UAEXABVVector3d@@0M0PAVSpherePack@@@Z
_TEXT	SEGMENT
_p1$ = 8						; size = 4
_dir$ = 12						; size = 4
_distance$ = 16						; size = 4
_sect$ = 20						; size = 4
_sphere$ = 24						; size = 4
?RayTraceCallback@?$RangeTester@UFCheckBackgroundDuringFlying@@@@UAEXABVVector3d@@0M0PAVSpherePack@@@Z PROC ; RangeTester<FCheckBackgroundDuringFlying>::RayTraceCallback, COMDAT
; _this$ = ecx

; 27   : 	{

  00000	55		 push	 ebp
  00001	8b ec		 mov	 ebp, esp

; 28   : #ifdef SPHERELIB_STRICT
; 29   : 		if (sphere->IS_SPHERE)
; 30   : 			puts("RangeTester::RayTraceCallback");
; 31   : #endif
; 32   : 		if (dist<=0.0f || dist>=distance)

  00003	f3 0f 10 49 08	 movss	 xmm1, DWORD PTR [ecx+8]
  00008	0f 57 c0	 xorps	 xmm0, xmm0
  0000b	0f 2f c1	 comiss	 xmm0, xmm1
  0000e	73 06		 jae	 SHORT $LN3@RayTraceCa
  00010	0f 2f 4d 10	 comiss	 xmm1, DWORD PTR _distance$[ebp]
  00014	72 35		 jb	 SHORT $LN8@RayTraceCa
$LN3@RayTraceCa:

; 33   : 			(*f)((CGraphicObjectInstance *)sphere->GetUserData());

  00016	8b 45 18	 mov	 eax, DWORD PTR _sphere$[ebp]
  00019	56		 push	 esi
  0001a	8b 70 44	 mov	 esi, DWORD PTR [eax+68]
; File C:\Users\murat\Desktop\Siveps2-1-99-Project\source\client\Client\GameLib\FlyingInstance.cpp

; 292  : 		if (!p)

  0001d	85 f6		 test	 esi, esi
  0001f	74 29		 je	 SHORT $LN10@RayTraceCa
; File C:\Users\murat\Desktop\Siveps2-1-99-Project\source\client\Client\eterlib\CullingManager.h

; 33   : 			(*f)((CGraphicObjectInstance *)sphere->GetUserData());

  00021	57		 push	 edi
  00022	8b 79 04	 mov	 edi, DWORD PTR [ecx+4]
; File C:\Users\murat\Desktop\Siveps2-1-99-Project\source\client\Client\GameLib\FlyingInstance.cpp

; 295  : 		if (!bHit && p->GetType() != ACTOR_OBJECT)

  00025	80 7f 1c 00	 cmp	 BYTE PTR [edi+28], 0
  00029	75 1e		 jne	 SHORT $LN11@RayTraceCa
  0002b	8b 06		 mov	 eax, DWORD PTR [esi]
  0002d	8b ce		 mov	 ecx, esi
  0002f	ff 50 04	 call	 DWORD PTR [eax+4]
  00032	3d 24 6c a7 29	 cmp	 eax, 698838052		; 29a76c24H
  00037	74 10		 je	 SHORT $LN11@RayTraceCa

; 296  : 		{
; 297  : 			if (p->CollisionDynamicSphere(s))

  00039	57		 push	 edi
  0003a	8b ce		 mov	 ecx, esi
  0003c	e8 00 00 00 00	 call	 ?CollisionDynamicSphere@CGraphicObjectInstance@@QBE_NABUCDynamicSphereInstance@@@Z ; CGraphicObjectInstance::CollisionDynamicSphere
  00041	84 c0		 test	 al, al
  00043	74 04		 je	 SHORT $LN11@RayTraceCa

; 298  : 			{
; 299  : 				bHit = true;

  00045	c6 47 1c 01	 mov	 BYTE PTR [edi+28], 1
$LN11@RayTraceCa:
  00049	5f		 pop	 edi
$LN10@RayTraceCa:
  0004a	5e		 pop	 esi
$LN8@RayTraceCa:
; File C:\Users\murat\Desktop\Siveps2-1-99-Project\source\client\Client\eterlib\CullingManager.h

; 34   : 	};

  0004b	5d		 pop	 ebp
  0004c	c2 14 00	 ret	 20			; 00000014H
?RayTraceCallback@?$RangeTester@UFCheckBackgroundDuringFlying@@@@UAEXABVVector3d@@0M0PAVSpherePack@@@Z ENDP ; RangeTester<FCheckBackgroundDuringFlying>::RayTraceCallback
_TEXT	ENDS
; Function compile flags: /Ogtp
; File C:\Users\murat\Desktop\Siveps2-1-99-Project\source\client\Client\eterlib\CullingManager.h
;	COMDAT ??1?$RangeTester@UFCheckBackgroundDuringFlying@@@@UAE@XZ
_TEXT	SEGMENT
??1?$RangeTester@UFCheckBackgroundDuringFlying@@@@UAE@XZ PROC ; RangeTester<FCheckBackgroundDuringFlying>::~RangeTester<FCheckBackgroundDuringFlying>, COMDAT
; _this$ = ecx

; 19   : 	{}

  00000	c7 01 00 00 00
	00		 mov	 DWORD PTR [ecx], OFFSET ??_7SpherePackCallback@@6B@
  00006	c3		 ret	 0
??1?$RangeTester@UFCheckBackgroundDuringFlying@@@@UAE@XZ ENDP ; RangeTester<FCheckBackgroundDuringFlying>::~RangeTester<FCheckBackgroundDuringFlying>
_TEXT	ENDS
; Function compile flags: /Ogtp
;	COMDAT ??_G?$RangeTester@UFCheckAnotherMonsterDuringFlying@@@@UAEPAXI@Z
_TEXT	SEGMENT
___flags$ = 8						; size = 4
??_G?$RangeTester@UFCheckAnotherMonsterDuringFlying@@@@UAEPAXI@Z PROC ; RangeTester<FCheckAnotherMonsterDuringFlying>::`scalar deleting destructor', COMDAT
; _this$ = ecx
  00000	55		 push	 ebp
  00001	8b ec		 mov	 ebp, esp
  00003	f6 45 08 01	 test	 BYTE PTR ___flags$[ebp], 1
  00007	56		 push	 esi
  00008	8b f1		 mov	 esi, ecx
  0000a	c7 06 00 00 00
	00		 mov	 DWORD PTR [esi], OFFSET ??_7SpherePackCallback@@6B@
  00010	74 0b		 je	 SHORT $LN4@scalar
  00012	6a 0c		 push	 12			; 0000000cH
  00014	56		 push	 esi
  00015	e8 00 00 00 00	 call	 ??3@YAXPAXI@Z		; operator delete
  0001a	83 c4 08	 add	 esp, 8
$LN4@scalar:
  0001d	8b c6		 mov	 eax, esi
  0001f	5e		 pop	 esi
  00020	5d		 pop	 ebp
  00021	c2 04 00	 ret	 4
??_G?$RangeTester@UFCheckAnotherMonsterDuringFlying@@@@UAEPAXI@Z ENDP ; RangeTester<FCheckAnotherMonsterDuringFlying>::`scalar deleting destructor'
_TEXT	ENDS
; Function compile flags: /Ogtp
; File C:\Users\murat\Desktop\Siveps2-1-99-Project\source\client\Client\eterlib\CullingManager.h
; File C:\Users\murat\Desktop\Siveps2-1-99-Project\source\client\Client\GameLib\FlyingInstance.cpp
; File C:\Users\murat\Desktop\Siveps2-1-99-Project\source\client\Client\eterlib\CullingManager.h
; File C:\Users\murat\Desktop\Siveps2-1-99-Project\source\client\Client\GameLib\FlyingInstance.cpp
; File C:\Users\murat\Desktop\Siveps2-1-99-Project\source\client\Client\eterlib\CullingManager.h
;	COMDAT ?PointTest2dCallback@?$RangeTester@UFCheckAnotherMonsterDuringFlying@@@@UAEXABVVector3d@@PAVSpherePack@@W4ViewState@@@Z
_TEXT	SEGMENT
_p$ = 8							; size = 4
_sphere$ = 12						; size = 4
_state$ = 16						; size = 4
?PointTest2dCallback@?$RangeTester@UFCheckAnotherMonsterDuringFlying@@@@UAEXABVVector3d@@PAVSpherePack@@W4ViewState@@@Z PROC ; RangeTester<FCheckAnotherMonsterDuringFlying>::PointTest2dCallback, COMDAT
; _this$ = ecx

; 50   : 	{

  00000	55		 push	 ebp
  00001	8b ec		 mov	 ebp, esp

; 51   : #ifdef SPHERELIB_STRICT
; 52   : 		if (sphere->IS_SPHERE)
; 53   : 			puts("RangeTester::PointTest2dCallback");
; 54   : #endif
; 55   : 		if (state!=VS_OUTSIDE)

  00003	83 7d 10 02	 cmp	 DWORD PTR _state$[ebp], 2
  00007	74 3b		 je	 SHORT $LN7@PointTest2

; 60   : 			(*f)((CGraphicObjectInstance *)sphere->GetUserData());

  00009	8b 45 0c	 mov	 eax, DWORD PTR _sphere$[ebp]
  0000c	56		 push	 esi
  0000d	8b 70 44	 mov	 esi, DWORD PTR [eax+68]
; File C:\Users\murat\Desktop\Siveps2-1-99-Project\source\client\Client\GameLib\FlyingInstance.cpp

; 323  : 		if (!p)

  00010	85 f6		 test	 esi, esi
  00012	74 2f		 je	 SHORT $LN9@PointTest2
; File C:\Users\murat\Desktop\Siveps2-1-99-Project\source\client\Client\eterlib\CullingManager.h

; 60   : 			(*f)((CGraphicObjectInstance *)sphere->GetUserData());

  00014	57		 push	 edi
  00015	8b 79 04	 mov	 edi, DWORD PTR [ecx+4]
; File C:\Users\murat\Desktop\Siveps2-1-99-Project\source\client\Client\GameLib\FlyingInstance.cpp

; 326  : 		if (!pInst && p->GetType() == ACTOR_OBJECT)

  00018	83 7f 1c 00	 cmp	 DWORD PTR [edi+28], 0
  0001c	75 24		 jne	 SHORT $LN10@PointTest2
  0001e	8b 06		 mov	 eax, DWORD PTR [esi]
  00020	8b ce		 mov	 ecx, esi
  00022	ff 50 04	 call	 DWORD PTR [eax+4]
  00025	3d 24 6c a7 29	 cmp	 eax, 698838052		; 29a76c24H
  0002a	75 16		 jne	 SHORT $LN10@PointTest2

; 327  : 		{
; 328  : 			IActorInstance * pa = (IActorInstance*) p;
; 329  : 			if (pa != pOwner && pa->TestCollisionWithDynamicSphere(s))

  0002c	3b 77 20	 cmp	 esi, DWORD PTR [edi+32]
  0002f	74 11		 je	 SHORT $LN10@PointTest2
  00031	8b 06		 mov	 eax, DWORD PTR [esi]
  00033	8b ce		 mov	 ecx, esi
  00035	57		 push	 edi
  00036	8b 40 44	 mov	 eax, DWORD PTR [eax+68]
  00039	ff d0		 call	 eax
  0003b	84 c0		 test	 al, al
  0003d	74 03		 je	 SHORT $LN10@PointTest2

; 330  : 			{
; 331  : 				pInst = p;

  0003f	89 77 1c	 mov	 DWORD PTR [edi+28], esi
$LN10@PointTest2:
  00042	5f		 pop	 edi
$LN9@PointTest2:
  00043	5e		 pop	 esi
$LN7@PointTest2:
; File C:\Users\murat\Desktop\Siveps2-1-99-Project\source\client\Client\eterlib\CullingManager.h

; 62   : 	}

  00044	5d		 pop	 ebp
  00045	c2 0c 00	 ret	 12			; 0000000cH
?PointTest2dCallback@?$RangeTester@UFCheckAnotherMonsterDuringFlying@@@@UAEXABVVector3d@@PAVSpherePack@@W4ViewState@@@Z ENDP ; RangeTester<FCheckAnotherMonsterDuringFlying>::PointTest2dCallback
_TEXT	ENDS
; Function compile flags: /Ogtp
; File C:\Users\murat\Desktop\Siveps2-1-99-Project\source\client\Client\eterlib\CullingManager.h
; File C:\Users\murat\Desktop\Siveps2-1-99-Project\source\client\Client\GameLib\FlyingInstance.cpp
; File C:\Users\murat\Desktop\Siveps2-1-99-Project\source\client\Client\eterlib\CullingManager.h
; File C:\Users\murat\Desktop\Siveps2-1-99-Project\source\client\Client\GameLib\FlyingInstance.cpp
; File C:\Users\murat\Desktop\Siveps2-1-99-Project\source\client\Client\eterlib\CullingManager.h
;	COMDAT ?RangeTestCallback@?$RangeTester@UFCheckAnotherMonsterDuringFlying@@@@UAEXABVVector3d@@MPAVSpherePack@@W4ViewState@@@Z
_TEXT	SEGMENT
_p$ = 8							; size = 4
_distance$ = 12						; size = 4
_sphere$ = 16						; size = 4
_state$ = 20						; size = 4
?RangeTestCallback@?$RangeTester@UFCheckAnotherMonsterDuringFlying@@@@UAEXABVVector3d@@MPAVSpherePack@@W4ViewState@@@Z PROC ; RangeTester<FCheckAnotherMonsterDuringFlying>::RangeTestCallback, COMDAT
; _this$ = ecx

; 40   : 	{

  00000	55		 push	 ebp
  00001	8b ec		 mov	 ebp, esp

; 41   : #ifdef SPHERELIB_STRICT
; 42   : 		if (sphere->IS_SPHERE)
; 43   : 			puts("RangeTester::RangeTestCallback");
; 44   : #endif
; 45   : 		if (state!=VS_OUTSIDE)

  00003	83 7d 14 02	 cmp	 DWORD PTR _state$[ebp], 2
  00007	74 3b		 je	 SHORT $LN7@RangeTestC

; 46   : 			(*f)((CGraphicObjectInstance *)sphere->GetUserData());

  00009	8b 45 10	 mov	 eax, DWORD PTR _sphere$[ebp]
  0000c	56		 push	 esi
  0000d	8b 70 44	 mov	 esi, DWORD PTR [eax+68]
; File C:\Users\murat\Desktop\Siveps2-1-99-Project\source\client\Client\GameLib\FlyingInstance.cpp

; 323  : 		if (!p)

  00010	85 f6		 test	 esi, esi
  00012	74 2f		 je	 SHORT $LN9@RangeTestC
; File C:\Users\murat\Desktop\Siveps2-1-99-Project\source\client\Client\eterlib\CullingManager.h

; 46   : 			(*f)((CGraphicObjectInstance *)sphere->GetUserData());

  00014	57		 push	 edi
  00015	8b 79 04	 mov	 edi, DWORD PTR [ecx+4]
; File C:\Users\murat\Desktop\Siveps2-1-99-Project\source\client\Client\GameLib\FlyingInstance.cpp

; 326  : 		if (!pInst && p->GetType() == ACTOR_OBJECT)

  00018	83 7f 1c 00	 cmp	 DWORD PTR [edi+28], 0
  0001c	75 24		 jne	 SHORT $LN10@RangeTestC
  0001e	8b 06		 mov	 eax, DWORD PTR [esi]
  00020	8b ce		 mov	 ecx, esi
  00022	ff 50 04	 call	 DWORD PTR [eax+4]
  00025	3d 24 6c a7 29	 cmp	 eax, 698838052		; 29a76c24H
  0002a	75 16		 jne	 SHORT $LN10@RangeTestC

; 327  : 		{
; 328  : 			IActorInstance * pa = (IActorInstance*) p;
; 329  : 			if (pa != pOwner && pa->TestCollisionWithDynamicSphere(s))

  0002c	3b 77 20	 cmp	 esi, DWORD PTR [edi+32]
  0002f	74 11		 je	 SHORT $LN10@RangeTestC
  00031	8b 06		 mov	 eax, DWORD PTR [esi]
  00033	8b ce		 mov	 ecx, esi
  00035	57		 push	 edi
  00036	8b 40 44	 mov	 eax, DWORD PTR [eax+68]
  00039	ff d0		 call	 eax
  0003b	84 c0		 test	 al, al
  0003d	74 03		 je	 SHORT $LN10@RangeTestC

; 330  : 			{
; 331  : 				pInst = p;

  0003f	89 77 1c	 mov	 DWORD PTR [edi+28], esi
$LN10@RangeTestC:
  00042	5f		 pop	 edi
$LN9@RangeTestC:
  00043	5e		 pop	 esi
$LN7@RangeTestC:
; File C:\Users\murat\Desktop\Siveps2-1-99-Project\source\client\Client\eterlib\CullingManager.h

; 47   : 	}

  00044	5d		 pop	 ebp
  00045	c2 10 00	 ret	 16			; 00000010H
?RangeTestCallback@?$RangeTester@UFCheckAnotherMonsterDuringFlying@@@@UAEXABVVector3d@@MPAVSpherePack@@W4ViewState@@@Z ENDP ; RangeTester<FCheckAnotherMonsterDuringFlying>::RangeTestCallback
_TEXT	ENDS
; Function compile flags: /Ogtp
; File C:\Users\murat\Desktop\Siveps2-1-99-Project\source\client\Client\eterlib\CullingManager.h
;	COMDAT ?VisibilityCallback@?$RangeTester@UFCheckAnotherMonsterDuringFlying@@@@UAEXABVFrustum@@PAVSpherePack@@W4ViewState@@@Z
_TEXT	SEGMENT
_f$ = 8							; size = 4
_sphere$ = 12						; size = 4
_state$ = 16						; size = 4
?VisibilityCallback@?$RangeTester@UFCheckAnotherMonsterDuringFlying@@@@UAEXABVFrustum@@PAVSpherePack@@W4ViewState@@@Z PROC ; RangeTester<FCheckAnotherMonsterDuringFlying>::VisibilityCallback, COMDAT
; _this$ = ecx

; 37   : 	virtual void VisibilityCallback(const Frustum &f,SpherePack *sphere,ViewState state){};

  00000	c2 0c 00	 ret	 12			; 0000000cH
?VisibilityCallback@?$RangeTester@UFCheckAnotherMonsterDuringFlying@@@@UAEXABVFrustum@@PAVSpherePack@@W4ViewState@@@Z ENDP ; RangeTester<FCheckAnotherMonsterDuringFlying>::VisibilityCallback
_TEXT	ENDS
; Function compile flags: /Ogtp
; File C:\Users\murat\Desktop\Siveps2-1-99-Project\source\client\Client\eterlib\CullingManager.h
; File C:\Users\murat\Desktop\Siveps2-1-99-Project\source\client\Client\GameLib\FlyingInstance.cpp
; File C:\Users\murat\Desktop\Siveps2-1-99-Project\source\client\Client\eterlib\CullingManager.h
; File C:\Users\murat\Desktop\Siveps2-1-99-Project\source\client\Client\GameLib\FlyingInstance.cpp
; File C:\Users\murat\Desktop\Siveps2-1-99-Project\source\client\Client\eterlib\CullingManager.h
;	COMDAT ?RayTraceCallback@?$RangeTester@UFCheckAnotherMonsterDuringFlying@@@@UAEXABVVector3d@@0M0PAVSpherePack@@@Z
_TEXT	SEGMENT
_p1$ = 8						; size = 4
_dir$ = 12						; size = 4
_distance$ = 16						; size = 4
_sect$ = 20						; size = 4
_sphere$ = 24						; size = 4
?RayTraceCallback@?$RangeTester@UFCheckAnotherMonsterDuringFlying@@@@UAEXABVVector3d@@0M0PAVSpherePack@@@Z PROC ; RangeTester<FCheckAnotherMonsterDuringFlying>::RayTraceCallback, COMDAT
; _this$ = ecx

; 27   : 	{

  00000	55		 push	 ebp
  00001	8b ec		 mov	 ebp, esp

; 28   : #ifdef SPHERELIB_STRICT
; 29   : 		if (sphere->IS_SPHERE)
; 30   : 			puts("RangeTester::RayTraceCallback");
; 31   : #endif
; 32   : 		if (dist<=0.0f || dist>=distance)

  00003	f3 0f 10 49 08	 movss	 xmm1, DWORD PTR [ecx+8]
  00008	0f 57 c0	 xorps	 xmm0, xmm0
  0000b	0f 2f c1	 comiss	 xmm0, xmm1
  0000e	73 06		 jae	 SHORT $LN3@RayTraceCa
  00010	0f 2f 4d 10	 comiss	 xmm1, DWORD PTR _distance$[ebp]
  00014	72 3b		 jb	 SHORT $LN8@RayTraceCa
$LN3@RayTraceCa:

; 33   : 			(*f)((CGraphicObjectInstance *)sphere->GetUserData());

  00016	8b 45 18	 mov	 eax, DWORD PTR _sphere$[ebp]
  00019	56		 push	 esi
  0001a	8b 70 44	 mov	 esi, DWORD PTR [eax+68]
; File C:\Users\murat\Desktop\Siveps2-1-99-Project\source\client\Client\GameLib\FlyingInstance.cpp

; 323  : 		if (!p)

  0001d	85 f6		 test	 esi, esi
  0001f	74 2f		 je	 SHORT $LN10@RayTraceCa
; File C:\Users\murat\Desktop\Siveps2-1-99-Project\source\client\Client\eterlib\CullingManager.h

; 33   : 			(*f)((CGraphicObjectInstance *)sphere->GetUserData());

  00021	57		 push	 edi
  00022	8b 79 04	 mov	 edi, DWORD PTR [ecx+4]
; File C:\Users\murat\Desktop\Siveps2-1-99-Project\source\client\Client\GameLib\FlyingInstance.cpp

; 326  : 		if (!pInst && p->GetType() == ACTOR_OBJECT)

  00025	83 7f 1c 00	 cmp	 DWORD PTR [edi+28], 0
  00029	75 24		 jne	 SHORT $LN11@RayTraceCa
  0002b	8b 06		 mov	 eax, DWORD PTR [esi]
  0002d	8b ce		 mov	 ecx, esi
  0002f	ff 50 04	 call	 DWORD PTR [eax+4]
  00032	3d 24 6c a7 29	 cmp	 eax, 698838052		; 29a76c24H
  00037	75 16		 jne	 SHORT $LN11@RayTraceCa

; 327  : 		{
; 328  : 			IActorInstance * pa = (IActorInstance*) p;
; 329  : 			if (pa != pOwner && pa->TestCollisionWithDynamicSphere(s))

  00039	3b 77 20	 cmp	 esi, DWORD PTR [edi+32]
  0003c	74 11		 je	 SHORT $LN11@RayTraceCa
  0003e	8b 06		 mov	 eax, DWORD PTR [esi]
  00040	8b ce		 mov	 ecx, esi
  00042	57		 push	 edi
  00043	8b 40 44	 mov	 eax, DWORD PTR [eax+68]
  00046	ff d0		 call	 eax
  00048	84 c0		 test	 al, al
  0004a	74 03		 je	 SHORT $LN11@RayTraceCa

; 330  : 			{
; 331  : 				pInst = p;

  0004c	89 77 1c	 mov	 DWORD PTR [edi+28], esi
$LN11@RayTraceCa:
  0004f	5f		 pop	 edi
$LN10@RayTraceCa:
  00050	5e		 pop	 esi
$LN8@RayTraceCa:
; File C:\Users\murat\Desktop\Siveps2-1-99-Project\source\client\Client\eterlib\CullingManager.h

; 34   : 	};

  00051	5d		 pop	 ebp
  00052	c2 14 00	 ret	 20			; 00000014H
?RayTraceCallback@?$RangeTester@UFCheckAnotherMonsterDuringFlying@@@@UAEXABVVector3d@@0M0PAVSpherePack@@@Z ENDP ; RangeTester<FCheckAnotherMonsterDuringFlying>::RayTraceCallback
_TEXT	ENDS
; Function compile flags: /Ogtp
; File C:\Users\murat\Desktop\Siveps2-1-99-Project\source\client\Client\eterlib\CullingManager.h
;	COMDAT ??1?$RangeTester@UFCheckAnotherMonsterDuringFlying@@@@UAE@XZ
_TEXT	SEGMENT
??1?$RangeTester@UFCheckAnotherMonsterDuringFlying@@@@UAE@XZ PROC ; RangeTester<FCheckAnotherMonsterDuringFlying>::~RangeTester<FCheckAnotherMonsterDuringFlying>, COMDAT
; _this$ = ecx

; 19   : 	{}

  00000	c7 01 00 00 00
	00		 mov	 DWORD PTR [ecx], OFFSET ??_7SpherePackCallback@@6B@
  00006	c3		 ret	 0
??1?$RangeTester@UFCheckAnotherMonsterDuringFlying@@@@UAE@XZ ENDP ; RangeTester<FCheckAnotherMonsterDuringFlying>::~RangeTester<FCheckAnotherMonsterDuringFlying>
_TEXT	ENDS
; Function compile flags: /Ogtp
;	COMDAT ??__F?ms_kPool@?$CPooledObject@VCRotationDecorator@NEffectUpdateDecorator@@@@1V?$CDynamicPoolEx@VCRotationDecorator@NEffectUpdateDecorator@@@@A@@YAXXZ
text$yd	SEGMENT
??__F?ms_kPool@?$CPooledObject@VCRotationDecorator@NEffectUpdateDecorator@@@@1V?$CDynamicPoolEx@VCRotationDecorator@NEffectUpdateDecorator@@@@A@@YAXXZ PROC ; `dynamic atexit destructor for 'CPooledObject<NEffectUpdateDecorator::CRotationDecorator>::ms_kPool'', COMDAT
  00000	b9 00 00 00 00	 mov	 ecx, OFFSET ?ms_kPool@?$CPooledObject@VCRotationDecorator@NEffectUpdateDecorator@@@@1V?$CDynamicPoolEx@VCRotationDecorator@NEffectUpdateDecorator@@@@A ; CPooledObject<NEffectUpdateDecorator::CRotationDecorator>::ms_kPool
  00005	e9 00 00 00 00	 jmp	 ??1?$CDynamicPoolEx@VCRotationDecorator@NEffectUpdateDecorator@@@@UAE@XZ ; CDynamicPoolEx<NEffectUpdateDecorator::CRotationDecorator>::~CDynamicPoolEx<NEffectUpdateDecorator::CRotationDecorator>
??__F?ms_kPool@?$CPooledObject@VCRotationDecorator@NEffectUpdateDecorator@@@@1V?$CDynamicPoolEx@VCRotationDecorator@NEffectUpdateDecorator@@@@A@@YAXXZ ENDP ; `dynamic atexit destructor for 'CPooledObject<NEffectUpdateDecorator::CRotationDecorator>::ms_kPool''
text$yd	ENDS
; Function compile flags: /Ogtp
; File C:\Users\murat\Desktop\Siveps2-1-99-Project\source\client\Client\eterLib\Pool.h
;	COMDAT ??__E?ms_kPool@?$CPooledObject@VCRotationDecorator@NEffectUpdateDecorator@@@@1V?$CDynamicPoolEx@VCRotationDecorator@NEffectUpdateDecorator@@@@A@@YAXXZ
text$di	SEGMENT
??__E?ms_kPool@?$CPooledObject@VCRotationDecorator@NEffectUpdateDecorator@@@@1V?$CDynamicPoolEx@VCRotationDecorator@NEffectUpdateDecorator@@@@A@@YAXXZ PROC ; `dynamic initializer for 'CPooledObject<NEffectUpdateDecorator::CRotationDecorator>::ms_kPool'', COMDAT

; 272  : template <class T> CDynamicPoolEx<T> CPooledObject<T>::ms_kPool;

  00000	68 00 00 00 00	 push	 OFFSET ??__F?ms_kPool@?$CPooledObject@VCRotationDecorator@NEffectUpdateDecorator@@@@1V?$CDynamicPoolEx@VCRotationDecorator@NEffectUpdateDecorator@@@@A@@YAXXZ ; `dynamic atexit destructor for 'CPooledObject<NEffectUpdateDecorator::CRotationDecorator>::ms_kPool''
  00005	e8 00 00 00 00	 call	 _atexit
  0000a	59		 pop	 ecx
  0000b	c3		 ret	 0
??__E?ms_kPool@?$CPooledObject@VCRotationDecorator@NEffectUpdateDecorator@@@@1V?$CDynamicPoolEx@VCRotationDecorator@NEffectUpdateDecorator@@@@A@@YAXXZ ENDP ; `dynamic initializer for 'CPooledObject<NEffectUpdateDecorator::CRotationDecorator>::ms_kPool''
text$di	ENDS
; Function compile flags: /Ogtp
;	COMDAT ??__F?ms_kPool@?$CPooledObject@VCGravityDecorator@NEffectUpdateDecorator@@@@1V?$CDynamicPoolEx@VCGravityDecorator@NEffectUpdateDecorator@@@@A@@YAXXZ
text$yd	SEGMENT
??__F?ms_kPool@?$CPooledObject@VCGravityDecorator@NEffectUpdateDecorator@@@@1V?$CDynamicPoolEx@VCGravityDecorator@NEffectUpdateDecorator@@@@A@@YAXXZ PROC ; `dynamic atexit destructor for 'CPooledObject<NEffectUpdateDecorator::CGravityDecorator>::ms_kPool'', COMDAT
  00000	b9 00 00 00 00	 mov	 ecx, OFFSET ?ms_kPool@?$CPooledObject@VCGravityDecorator@NEffectUpdateDecorator@@@@1V?$CDynamicPoolEx@VCGravityDecorator@NEffectUpdateDecorator@@@@A ; CPooledObject<NEffectUpdateDecorator::CGravityDecorator>::ms_kPool
  00005	e9 00 00 00 00	 jmp	 ??1?$CDynamicPoolEx@VCGravityDecorator@NEffectUpdateDecorator@@@@UAE@XZ ; CDynamicPoolEx<NEffectUpdateDecorator::CGravityDecorator>::~CDynamicPoolEx<NEffectUpdateDecorator::CGravityDecorator>
??__F?ms_kPool@?$CPooledObject@VCGravityDecorator@NEffectUpdateDecorator@@@@1V?$CDynamicPoolEx@VCGravityDecorator@NEffectUpdateDecorator@@@@A@@YAXXZ ENDP ; `dynamic atexit destructor for 'CPooledObject<NEffectUpdateDecorator::CGravityDecorator>::ms_kPool''
text$yd	ENDS
; Function compile flags: /Ogtp
; File C:\Users\murat\Desktop\Siveps2-1-99-Project\source\client\Client\eterLib\Pool.h
;	COMDAT ??__E?ms_kPool@?$CPooledObject@VCGravityDecorator@NEffectUpdateDecorator@@@@1V?$CDynamicPoolEx@VCGravityDecorator@NEffectUpdateDecorator@@@@A@@YAXXZ
text$di	SEGMENT
??__E?ms_kPool@?$CPooledObject@VCGravityDecorator@NEffectUpdateDecorator@@@@1V?$CDynamicPoolEx@VCGravityDecorator@NEffectUpdateDecorator@@@@A@@YAXXZ PROC ; `dynamic initializer for 'CPooledObject<NEffectUpdateDecorator::CGravityDecorator>::ms_kPool'', COMDAT

; 272  : template <class T> CDynamicPoolEx<T> CPooledObject<T>::ms_kPool;

  00000	68 00 00 00 00	 push	 OFFSET ??__F?ms_kPool@?$CPooledObject@VCGravityDecorator@NEffectUpdateDecorator@@@@1V?$CDynamicPoolEx@VCGravityDecorator@NEffectUpdateDecorator@@@@A@@YAXXZ ; `dynamic atexit destructor for 'CPooledObject<NEffectUpdateDecorator::CGravityDecorator>::ms_kPool''
  00005	e8 00 00 00 00	 call	 _atexit
  0000a	59		 pop	 ecx
  0000b	c3		 ret	 0
??__E?ms_kPool@?$CPooledObject@VCGravityDecorator@NEffectUpdateDecorator@@@@1V?$CDynamicPoolEx@VCGravityDecorator@NEffectUpdateDecorator@@@@A@@YAXXZ ENDP ; `dynamic initializer for 'CPooledObject<NEffectUpdateDecorator::CGravityDecorator>::ms_kPool''
text$di	ENDS
; Function compile flags: /Ogtp
;	COMDAT ??__F?ms_kPool@?$CPooledObject@VCAirResistanceDecorator@NEffectUpdateDecorator@@@@1V?$CDynamicPoolEx@VCAirResistanceDecorator@NEffectUpdateDecorator@@@@A@@YAXXZ
text$yd	SEGMENT
??__F?ms_kPool@?$CPooledObject@VCAirResistanceDecorator@NEffectUpdateDecorator@@@@1V?$CDynamicPoolEx@VCAirResistanceDecorator@NEffectUpdateDecorator@@@@A@@YAXXZ PROC ; `dynamic atexit destructor for 'CPooledObject<NEffectUpdateDecorator::CAirResistanceDecorator>::ms_kPool'', COMDAT
  00000	b9 00 00 00 00	 mov	 ecx, OFFSET ?ms_kPool@?$CPooledObject@VCAirResistanceDecorator@NEffectUpdateDecorator@@@@1V?$CDynamicPoolEx@VCAirResistanceDecorator@NEffectUpdateDecorator@@@@A ; CPooledObject<NEffectUpdateDecorator::CAirResistanceDecorator>::ms_kPool
  00005	e9 00 00 00 00	 jmp	 ??1?$CDynamicPoolEx@VCAirResistanceDecorator@NEffectUpdateDecorator@@@@UAE@XZ ; CDynamicPoolEx<NEffectUpdateDecorator::CAirResistanceDecorator>::~CDynamicPoolEx<NEffectUpdateDecorator::CAirResistanceDecorator>
??__F?ms_kPool@?$CPooledObject@VCAirResistanceDecorator@NEffectUpdateDecorator@@@@1V?$CDynamicPoolEx@VCAirResistanceDecorator@NEffectUpdateDecorator@@@@A@@YAXXZ ENDP ; `dynamic atexit destructor for 'CPooledObject<NEffectUpdateDecorator::CAirResistanceDecorator>::ms_kPool''
text$yd	ENDS
; Function compile flags: /Ogtp
; File C:\Users\murat\Desktop\Siveps2-1-99-Project\source\client\Client\eterLib\Pool.h
;	COMDAT ??__E?ms_kPool@?$CPooledObject@VCAirResistanceDecorator@NEffectUpdateDecorator@@@@1V?$CDynamicPoolEx@VCAirResistanceDecorator@NEffectUpdateDecorator@@@@A@@YAXXZ
text$di	SEGMENT
??__E?ms_kPool@?$CPooledObject@VCAirResistanceDecorator@NEffectUpdateDecorator@@@@1V?$CDynamicPoolEx@VCAirResistanceDecorator@NEffectUpdateDecorator@@@@A@@YAXXZ PROC ; `dynamic initializer for 'CPooledObject<NEffectUpdateDecorator::CAirResistanceDecorator>::ms_kPool'', COMDAT

; 272  : template <class T> CDynamicPoolEx<T> CPooledObject<T>::ms_kPool;

  00000	68 00 00 00 00	 push	 OFFSET ??__F?ms_kPool@?$CPooledObject@VCAirResistanceDecorator@NEffectUpdateDecorator@@@@1V?$CDynamicPoolEx@VCAirResistanceDecorator@NEffectUpdateDecorator@@@@A@@YAXXZ ; `dynamic atexit destructor for 'CPooledObject<NEffectUpdateDecorator::CAirResistanceDecorator>::ms_kPool''
  00005	e8 00 00 00 00	 call	 _atexit
  0000a	59		 pop	 ecx
  0000b	c3		 ret	 0
??__E?ms_kPool@?$CPooledObject@VCAirResistanceDecorator@NEffectUpdateDecorator@@@@1V?$CDynamicPoolEx@VCAirResistanceDecorator@NEffectUpdateDecorator@@@@A@@YAXXZ ENDP ; `dynamic initializer for 'CPooledObject<NEffectUpdateDecorator::CAirResistanceDecorator>::ms_kPool''
text$di	ENDS
; Function compile flags: /Ogtp
;	COMDAT ??__F?ms_kPool@?$CPooledObject@VCTextureAnimationRandomDecorator@NEffectUpdateDecorator@@@@1V?$CDynamicPoolEx@VCTextureAnimationRandomDecorator@NEffectUpdateDecorator@@@@A@@YAXXZ
text$yd	SEGMENT
??__F?ms_kPool@?$CPooledObject@VCTextureAnimationRandomDecorator@NEffectUpdateDecorator@@@@1V?$CDynamicPoolEx@VCTextureAnimationRandomDecorator@NEffectUpdateDecorator@@@@A@@YAXXZ PROC ; `dynamic atexit destructor for 'CPooledObject<NEffectUpdateDecorator::CTextureAnimationRandomDecorator>::ms_kPool'', COMDAT
  00000	b9 00 00 00 00	 mov	 ecx, OFFSET ?ms_kPool@?$CPooledObject@VCTextureAnimationRandomDecorator@NEffectUpdateDecorator@@@@1V?$CDynamicPoolEx@VCTextureAnimationRandomDecorator@NEffectUpdateDecorator@@@@A ; CPooledObject<NEffectUpdateDecorator::CTextureAnimationRandomDecorator>::ms_kPool
  00005	e9 00 00 00 00	 jmp	 ??1?$CDynamicPoolEx@VCTextureAnimationRandomDecorator@NEffectUpdateDecorator@@@@UAE@XZ ; CDynamicPoolEx<NEffectUpdateDecorator::CTextureAnimationRandomDecorator>::~CDynamicPoolEx<NEffectUpdateDecorator::CTextureAnimationRandomDecorator>
??__F?ms_kPool@?$CPooledObject@VCTextureAnimationRandomDecorator@NEffectUpdateDecorator@@@@1V?$CDynamicPoolEx@VCTextureAnimationRandomDecorator@NEffectUpdateDecorator@@@@A@@YAXXZ ENDP ; `dynamic atexit destructor for 'CPooledObject<NEffectUpdateDecorator::CTextureAnimationRandomDecorator>::ms_kPool''
text$yd	ENDS
; Function compile flags: /Ogtp
; File C:\Users\murat\Desktop\Siveps2-1-99-Project\source\client\Client\eterLib\Pool.h
;	COMDAT ??__E?ms_kPool@?$CPooledObject@VCTextureAnimationRandomDecorator@NEffectUpdateDecorator@@@@1V?$CDynamicPoolEx@VCTextureAnimationRandomDecorator@NEffectUpdateDecorator@@@@A@@YAXXZ
text$di	SEGMENT
??__E?ms_kPool@?$CPooledObject@VCTextureAnimationRandomDecorator@NEffectUpdateDecorator@@@@1V?$CDynamicPoolEx@VCTextureAnimationRandomDecorator@NEffectUpdateDecorator@@@@A@@YAXXZ PROC ; `dynamic initializer for 'CPooledObject<NEffectUpdateDecorator::CTextureAnimationRandomDecorator>::ms_kPool'', COMDAT

; 272  : template <class T> CDynamicPoolEx<T> CPooledObject<T>::ms_kPool;

  00000	68 00 00 00 00	 push	 OFFSET ??__F?ms_kPool@?$CPooledObject@VCTextureAnimationRandomDecorator@NEffectUpdateDecorator@@@@1V?$CDynamicPoolEx@VCTextureAnimationRandomDecorator@NEffectUpdateDecorator@@@@A@@YAXXZ ; `dynamic atexit destructor for 'CPooledObject<NEffectUpdateDecorator::CTextureAnimationRandomDecorator>::ms_kPool''
  00005	e8 00 00 00 00	 call	 _atexit
  0000a	59		 pop	 ecx
  0000b	c3		 ret	 0
??__E?ms_kPool@?$CPooledObject@VCTextureAnimationRandomDecorator@NEffectUpdateDecorator@@@@1V?$CDynamicPoolEx@VCTextureAnimationRandomDecorator@NEffectUpdateDecorator@@@@A@@YAXXZ ENDP ; `dynamic initializer for 'CPooledObject<NEffectUpdateDecorator::CTextureAnimationRandomDecorator>::ms_kPool''
text$di	ENDS
; Function compile flags: /Ogtp
;	COMDAT ??__F?ms_kPool@?$CPooledObject@VCTextureAnimationCCWDecorator@NEffectUpdateDecorator@@@@1V?$CDynamicPoolEx@VCTextureAnimationCCWDecorator@NEffectUpdateDecorator@@@@A@@YAXXZ
text$yd	SEGMENT
??__F?ms_kPool@?$CPooledObject@VCTextureAnimationCCWDecorator@NEffectUpdateDecorator@@@@1V?$CDynamicPoolEx@VCTextureAnimationCCWDecorator@NEffectUpdateDecorator@@@@A@@YAXXZ PROC ; `dynamic atexit destructor for 'CPooledObject<NEffectUpdateDecorator::CTextureAnimationCCWDecorator>::ms_kPool'', COMDAT
  00000	b9 00 00 00 00	 mov	 ecx, OFFSET ?ms_kPool@?$CPooledObject@VCTextureAnimationCCWDecorator@NEffectUpdateDecorator@@@@1V?$CDynamicPoolEx@VCTextureAnimationCCWDecorator@NEffectUpdateDecorator@@@@A ; CPooledObject<NEffectUpdateDecorator::CTextureAnimationCCWDecorator>::ms_kPool
  00005	e9 00 00 00 00	 jmp	 ??1?$CDynamicPoolEx@VCTextureAnimationCCWDecorator@NEffectUpdateDecorator@@@@UAE@XZ ; CDynamicPoolEx<NEffectUpdateDecorator::CTextureAnimationCCWDecorator>::~CDynamicPoolEx<NEffectUpdateDecorator::CTextureAnimationCCWDecorator>
??__F?ms_kPool@?$CPooledObject@VCTextureAnimationCCWDecorator@NEffectUpdateDecorator@@@@1V?$CDynamicPoolEx@VCTextureAnimationCCWDecorator@NEffectUpdateDecorator@@@@A@@YAXXZ ENDP ; `dynamic atexit destructor for 'CPooledObject<NEffectUpdateDecorator::CTextureAnimationCCWDecorator>::ms_kPool''
text$yd	ENDS
; Function compile flags: /Ogtp
; File C:\Users\murat\Desktop\Siveps2-1-99-Project\source\client\Client\eterLib\Pool.h
;	COMDAT ??__E?ms_kPool@?$CPooledObject@VCTextureAnimationCCWDecorator@NEffectUpdateDecorator@@@@1V?$CDynamicPoolEx@VCTextureAnimationCCWDecorator@NEffectUpdateDecorator@@@@A@@YAXXZ
text$di	SEGMENT
??__E?ms_kPool@?$CPooledObject@VCTextureAnimationCCWDecorator@NEffectUpdateDecorator@@@@1V?$CDynamicPoolEx@VCTextureAnimationCCWDecorator@NEffectUpdateDecorator@@@@A@@YAXXZ PROC ; `dynamic initializer for 'CPooledObject<NEffectUpdateDecorator::CTextureAnimationCCWDecorator>::ms_kPool'', COMDAT

; 272  : template <class T> CDynamicPoolEx<T> CPooledObject<T>::ms_kPool;

  00000	68 00 00 00 00	 push	 OFFSET ??__F?ms_kPool@?$CPooledObject@VCTextureAnimationCCWDecorator@NEffectUpdateDecorator@@@@1V?$CDynamicPoolEx@VCTextureAnimationCCWDecorator@NEffectUpdateDecorator@@@@A@@YAXXZ ; `dynamic atexit destructor for 'CPooledObject<NEffectUpdateDecorator::CTextureAnimationCCWDecorator>::ms_kPool''
  00005	e8 00 00 00 00	 call	 _atexit
  0000a	59		 pop	 ecx
  0000b	c3		 ret	 0
??__E?ms_kPool@?$CPooledObject@VCTextureAnimationCCWDecorator@NEffectUpdateDecorator@@@@1V?$CDynamicPoolEx@VCTextureAnimationCCWDecorator@NEffectUpdateDecorator@@@@A@@YAXXZ ENDP ; `dynamic initializer for 'CPooledObject<NEffectUpdateDecorator::CTextureAnimationCCWDecorator>::ms_kPool''
text$di	ENDS
; Function compile flags: /Ogtp
;	COMDAT ??__F?ms_kPool@?$CPooledObject@VCTextureAnimationCWDecorator@NEffectUpdateDecorator@@@@1V?$CDynamicPoolEx@VCTextureAnimationCWDecorator@NEffectUpdateDecorator@@@@A@@YAXXZ
text$yd	SEGMENT
??__F?ms_kPool@?$CPooledObject@VCTextureAnimationCWDecorator@NEffectUpdateDecorator@@@@1V?$CDynamicPoolEx@VCTextureAnimationCWDecorator@NEffectUpdateDecorator@@@@A@@YAXXZ PROC ; `dynamic atexit destructor for 'CPooledObject<NEffectUpdateDecorator::CTextureAnimationCWDecorator>::ms_kPool'', COMDAT
  00000	b9 00 00 00 00	 mov	 ecx, OFFSET ?ms_kPool@?$CPooledObject@VCTextureAnimationCWDecorator@NEffectUpdateDecorator@@@@1V?$CDynamicPoolEx@VCTextureAnimationCWDecorator@NEffectUpdateDecorator@@@@A ; CPooledObject<NEffectUpdateDecorator::CTextureAnimationCWDecorator>::ms_kPool
  00005	e9 00 00 00 00	 jmp	 ??1?$CDynamicPoolEx@VCTextureAnimationCWDecorator@NEffectUpdateDecorator@@@@UAE@XZ ; CDynamicPoolEx<NEffectUpdateDecorator::CTextureAnimationCWDecorator>::~CDynamicPoolEx<NEffectUpdateDecorator::CTextureAnimationCWDecorator>
??__F?ms_kPool@?$CPooledObject@VCTextureAnimationCWDecorator@NEffectUpdateDecorator@@@@1V?$CDynamicPoolEx@VCTextureAnimationCWDecorator@NEffectUpdateDecorator@@@@A@@YAXXZ ENDP ; `dynamic atexit destructor for 'CPooledObject<NEffectUpdateDecorator::CTextureAnimationCWDecorator>::ms_kPool''
text$yd	ENDS
; Function compile flags: /Ogtp
; File C:\Users\murat\Desktop\Siveps2-1-99-Project\source\client\Client\eterLib\Pool.h
;	COMDAT ??__E?ms_kPool@?$CPooledObject@VCTextureAnimationCWDecorator@NEffectUpdateDecorator@@@@1V?$CDynamicPoolEx@VCTextureAnimationCWDecorator@NEffectUpdateDecorator@@@@A@@YAXXZ
text$di	SEGMENT
??__E?ms_kPool@?$CPooledObject@VCTextureAnimationCWDecorator@NEffectUpdateDecorator@@@@1V?$CDynamicPoolEx@VCTextureAnimationCWDecorator@NEffectUpdateDecorator@@@@A@@YAXXZ PROC ; `dynamic initializer for 'CPooledObject<NEffectUpdateDecorator::CTextureAnimationCWDecorator>::ms_kPool'', COMDAT

; 272  : template <class T> CDynamicPoolEx<T> CPooledObject<T>::ms_kPool;

  00000	68 00 00 00 00	 push	 OFFSET ??__F?ms_kPool@?$CPooledObject@VCTextureAnimationCWDecorator@NEffectUpdateDecorator@@@@1V?$CDynamicPoolEx@VCTextureAnimationCWDecorator@NEffectUpdateDecorator@@@@A@@YAXXZ ; `dynamic atexit destructor for 'CPooledObject<NEffectUpdateDecorator::CTextureAnimationCWDecorator>::ms_kPool''
  00005	e8 00 00 00 00	 call	 _atexit
  0000a	59		 pop	 ecx
  0000b	c3		 ret	 0
??__E?ms_kPool@?$CPooledObject@VCTextureAnimationCWDecorator@NEffectUpdateDecorator@@@@1V?$CDynamicPoolEx@VCTextureAnimationCWDecorator@NEffectUpdateDecorator@@@@A@@YAXXZ ENDP ; `dynamic initializer for 'CPooledObject<NEffectUpdateDecorator::CTextureAnimationCWDecorator>::ms_kPool''
text$di	ENDS
; Function compile flags: /Ogtp
;	COMDAT ??__F?ms_kPool@?$CPooledObject@VCNullDecorator@NEffectUpdateDecorator@@@@1V?$CDynamicPoolEx@VCNullDecorator@NEffectUpdateDecorator@@@@A@@YAXXZ
text$yd	SEGMENT
??__F?ms_kPool@?$CPooledObject@VCNullDecorator@NEffectUpdateDecorator@@@@1V?$CDynamicPoolEx@VCNullDecorator@NEffectUpdateDecorator@@@@A@@YAXXZ PROC ; `dynamic atexit destructor for 'CPooledObject<NEffectUpdateDecorator::CNullDecorator>::ms_kPool'', COMDAT
  00000	b9 00 00 00 00	 mov	 ecx, OFFSET ?ms_kPool@?$CPooledObject@VCNullDecorator@NEffectUpdateDecorator@@@@1V?$CDynamicPoolEx@VCNullDecorator@NEffectUpdateDecorator@@@@A ; CPooledObject<NEffectUpdateDecorator::CNullDecorator>::ms_kPool
  00005	e9 00 00 00 00	 jmp	 ??1?$CDynamicPoolEx@VCNullDecorator@NEffectUpdateDecorator@@@@UAE@XZ ; CDynamicPoolEx<NEffectUpdateDecorator::CNullDecorator>::~CDynamicPoolEx<NEffectUpdateDecorator::CNullDecorator>
??__F?ms_kPool@?$CPooledObject@VCNullDecorator@NEffectUpdateDecorator@@@@1V?$CDynamicPoolEx@VCNullDecorator@NEffectUpdateDecorator@@@@A@@YAXXZ ENDP ; `dynamic atexit destructor for 'CPooledObject<NEffectUpdateDecorator::CNullDecorator>::ms_kPool''
text$yd	ENDS
; Function compile flags: /Ogtp
; File C:\Users\murat\Desktop\Siveps2-1-99-Project\source\client\Client\eterLib\Pool.h
;	COMDAT ??__E?ms_kPool@?$CPooledObject@VCNullDecorator@NEffectUpdateDecorator@@@@1V?$CDynamicPoolEx@VCNullDecorator@NEffectUpdateDecorator@@@@A@@YAXXZ
text$di	SEGMENT
??__E?ms_kPool@?$CPooledObject@VCNullDecorator@NEffectUpdateDecorator@@@@1V?$CDynamicPoolEx@VCNullDecorator@NEffectUpdateDecorator@@@@A@@YAXXZ PROC ; `dynamic initializer for 'CPooledObject<NEffectUpdateDecorator::CNullDecorator>::ms_kPool'', COMDAT

; 272  : template <class T> CDynamicPoolEx<T> CPooledObject<T>::ms_kPool;

  00000	68 00 00 00 00	 push	 OFFSET ??__F?ms_kPool@?$CPooledObject@VCNullDecorator@NEffectUpdateDecorator@@@@1V?$CDynamicPoolEx@VCNullDecorator@NEffectUpdateDecorator@@@@A@@YAXXZ ; `dynamic atexit destructor for 'CPooledObject<NEffectUpdateDecorator::CNullDecorator>::ms_kPool''
  00005	e8 00 00 00 00	 call	 _atexit
  0000a	59		 pop	 ecx
  0000b	c3		 ret	 0
??__E?ms_kPool@?$CPooledObject@VCNullDecorator@NEffectUpdateDecorator@@@@1V?$CDynamicPoolEx@VCNullDecorator@NEffectUpdateDecorator@@@@A@@YAXXZ ENDP ; `dynamic initializer for 'CPooledObject<NEffectUpdateDecorator::CNullDecorator>::ms_kPool''
text$di	ENDS
; Function compile flags: /Ogtp
;	COMDAT ??__F?ms_kPool@?$CPooledObject@VCHeaderDecorator@NEffectUpdateDecorator@@@@1V?$CDynamicPoolEx@VCHeaderDecorator@NEffectUpdateDecorator@@@@A@@YAXXZ
text$yd	SEGMENT
??__F?ms_kPool@?$CPooledObject@VCHeaderDecorator@NEffectUpdateDecorator@@@@1V?$CDynamicPoolEx@VCHeaderDecorator@NEffectUpdateDecorator@@@@A@@YAXXZ PROC ; `dynamic atexit destructor for 'CPooledObject<NEffectUpdateDecorator::CHeaderDecorator>::ms_kPool'', COMDAT
  00000	b9 00 00 00 00	 mov	 ecx, OFFSET ?ms_kPool@?$CPooledObject@VCHeaderDecorator@NEffectUpdateDecorator@@@@1V?$CDynamicPoolEx@VCHeaderDecorator@NEffectUpdateDecorator@@@@A ; CPooledObject<NEffectUpdateDecorator::CHeaderDecorator>::ms_kPool
  00005	e9 00 00 00 00	 jmp	 ??1?$CDynamicPoolEx@VCHeaderDecorator@NEffectUpdateDecorator@@@@UAE@XZ ; CDynamicPoolEx<NEffectUpdateDecorator::CHeaderDecorator>::~CDynamicPoolEx<NEffectUpdateDecorator::CHeaderDecorator>
??__F?ms_kPool@?$CPooledObject@VCHeaderDecorator@NEffectUpdateDecorator@@@@1V?$CDynamicPoolEx@VCHeaderDecorator@NEffectUpdateDecorator@@@@A@@YAXXZ ENDP ; `dynamic atexit destructor for 'CPooledObject<NEffectUpdateDecorator::CHeaderDecorator>::ms_kPool''
text$yd	ENDS
; Function compile flags: /Ogtp
; File C:\Users\murat\Desktop\Siveps2-1-99-Project\source\client\Client\eterLib\Pool.h
;	COMDAT ??__E?ms_kPool@?$CPooledObject@VCHeaderDecorator@NEffectUpdateDecorator@@@@1V?$CDynamicPoolEx@VCHeaderDecorator@NEffectUpdateDecorator@@@@A@@YAXXZ
text$di	SEGMENT
??__E?ms_kPool@?$CPooledObject@VCHeaderDecorator@NEffectUpdateDecorator@@@@1V?$CDynamicPoolEx@VCHeaderDecorator@NEffectUpdateDecorator@@@@A@@YAXXZ PROC ; `dynamic initializer for 'CPooledObject<NEffectUpdateDecorator::CHeaderDecorator>::ms_kPool'', COMDAT

; 272  : template <class T> CDynamicPoolEx<T> CPooledObject<T>::ms_kPool;

  00000	68 00 00 00 00	 push	 OFFSET ??__F?ms_kPool@?$CPooledObject@VCHeaderDecorator@NEffectUpdateDecorator@@@@1V?$CDynamicPoolEx@VCHeaderDecorator@NEffectUpdateDecorator@@@@A@@YAXXZ ; `dynamic atexit destructor for 'CPooledObject<NEffectUpdateDecorator::CHeaderDecorator>::ms_kPool''
  00005	e8 00 00 00 00	 call	 _atexit
  0000a	59		 pop	 ecx
  0000b	c3		 ret	 0
??__E?ms_kPool@?$CPooledObject@VCHeaderDecorator@NEffectUpdateDecorator@@@@1V?$CDynamicPoolEx@VCHeaderDecorator@NEffectUpdateDecorator@@@@A@@YAXXZ ENDP ; `dynamic initializer for 'CPooledObject<NEffectUpdateDecorator::CHeaderDecorator>::ms_kPool''
text$di	ENDS
; Function compile flags: /Ogtp
;	COMDAT ??_G?$CDynamicPoolEx@VCHeaderDecorator@NEffectUpdateDecorator@@@@UAEPAXI@Z
_TEXT	SEGMENT
___flags$ = 8						; size = 4
??_G?$CDynamicPoolEx@VCHeaderDecorator@NEffectUpdateDecorator@@@@UAEPAXI@Z PROC ; CDynamicPoolEx<NEffectUpdateDecorator::CHeaderDecorator>::`scalar deleting destructor', COMDAT
; _this$ = ecx
  00000	55		 push	 ebp
  00001	8b ec		 mov	 ebp, esp
  00003	56		 push	 esi
  00004	8b f1		 mov	 esi, ecx
  00006	e8 00 00 00 00	 call	 ??1?$CDynamicPoolEx@VCHeaderDecorator@NEffectUpdateDecorator@@@@UAE@XZ ; CDynamicPoolEx<NEffectUpdateDecorator::CHeaderDecorator>::~CDynamicPoolEx<NEffectUpdateDecorator::CHeaderDecorator>
  0000b	f6 45 08 01	 test	 BYTE PTR ___flags$[ebp], 1
  0000f	74 0b		 je	 SHORT $LN4@scalar
  00011	6a 24		 push	 36			; 00000024H
  00013	56		 push	 esi
  00014	e8 00 00 00 00	 call	 ??3@YAXPAXI@Z		; operator delete
  00019	83 c4 08	 add	 esp, 8
$LN4@scalar:
  0001c	8b c6		 mov	 eax, esi
  0001e	5e		 pop	 esi
  0001f	5d		 pop	 ebp
  00020	c2 04 00	 ret	 4
??_G?$CDynamicPoolEx@VCHeaderDecorator@NEffectUpdateDecorator@@@@UAEPAXI@Z ENDP ; CDynamicPoolEx<NEffectUpdateDecorator::CHeaderDecorator>::`scalar deleting destructor'
_TEXT	ENDS
; Function compile flags: /Ogtp
; File C:\Users\murat\Desktop\Siveps2-1-99-Project\source\client\Client\eterLib\Pool.h
;	COMDAT ?Delete@?$CDynamicPoolEx@VCHeaderDecorator@NEffectUpdateDecorator@@@@KAXPAVCHeaderDecorator@NEffectUpdateDecorator@@@Z
_TEXT	SEGMENT
_pkData$ = 8						; size = 4
?Delete@?$CDynamicPoolEx@VCHeaderDecorator@NEffectUpdateDecorator@@@@KAXPAVCHeaderDecorator@NEffectUpdateDecorator@@@Z PROC ; CDynamicPoolEx<NEffectUpdateDecorator::CHeaderDecorator>::Delete, COMDAT

; 224  : 			::operator delete(pkData);

  00000	e9 00 00 00 00	 jmp	 ??3@YAXPAX@Z		; operator delete
?Delete@?$CDynamicPoolEx@VCHeaderDecorator@NEffectUpdateDecorator@@@@KAXPAVCHeaderDecorator@NEffectUpdateDecorator@@@Z ENDP ; CDynamicPoolEx<NEffectUpdateDecorator::CHeaderDecorator>::Delete
_TEXT	ENDS
; Function compile flags: /Ogtp
; File C:\Users\murat\Desktop\Siveps2-1-99-Project\source\client\Client\eterLib\Pool.h
; File C:\Program Files (x86)\Microsoft Visual Studio\2019\Professional\VC\Tools\MSVC\14.29.30133\include\vector
; File C:\Program Files (x86)\Microsoft Visual Studio\2019\Professional\VC\Tools\MSVC\14.29.30133\include\algorithm
; File C:\Users\murat\Desktop\Siveps2-1-99-Project\source\client\Client\eterLib\Pool.h
; File C:\Program Files (x86)\Microsoft Visual Studio\2019\Professional\VC\Tools\MSVC\14.29.30133\include\algorithm
; File C:\Users\murat\Desktop\Siveps2-1-99-Project\source\client\Client\eterLib\Pool.h
; File C:\Program Files (x86)\Microsoft Visual Studio\2019\Professional\VC\Tools\MSVC\14.29.30133\include\algorithm
; File C:\Users\murat\Desktop\Siveps2-1-99-Project\source\client\Client\eterLib\Pool.h
; File C:\Program Files (x86)\Microsoft Visual Studio\2019\Professional\VC\Tools\MSVC\14.29.30133\include\vector
; File C:\Program Files (x86)\Microsoft Visual Studio\2019\Professional\VC\Tools\MSVC\14.29.30133\include\xmemory
; File C:\Program Files (x86)\Microsoft Visual Studio\2019\Professional\VC\Tools\MSVC\14.29.30133\include\vector
; File C:\Program Files (x86)\Microsoft Visual Studio\2019\Professional\VC\Tools\MSVC\14.29.30133\include\xmemory
; File C:\Program Files (x86)\Microsoft Visual Studio\2019\Professional\VC\Tools\MSVC\14.29.30133\include\vector
; File C:\Program Files (x86)\Microsoft Visual Studio\2019\Professional\VC\Tools\MSVC\14.29.30133\include\xmemory
; File C:\Program Files (x86)\Microsoft Visual Studio\2019\Professional\VC\Tools\MSVC\14.29.30133\include\vector
; File C:\Program Files (x86)\Microsoft Visual Studio\2019\Professional\VC\Tools\MSVC\14.29.30133\include\xmemory
; File C:\Program Files (x86)\Microsoft Visual Studio\2019\Professional\VC\Tools\MSVC\14.29.30133\include\vector
; File C:\Users\murat\Desktop\Siveps2-1-99-Project\source\client\Client\eterLib\Pool.h
; File C:\Program Files (x86)\Microsoft Visual Studio\2019\Professional\VC\Tools\MSVC\14.29.30133\include\xmemory
; File C:\Users\murat\Desktop\Siveps2-1-99-Project\source\client\Client\eterLib\Pool.h
;	COMDAT ??1?$CDynamicPoolEx@VCHeaderDecorator@NEffectUpdateDecorator@@@@UAE@XZ
_TEXT	SEGMENT
??1?$CDynamicPoolEx@VCHeaderDecorator@NEffectUpdateDecorator@@@@UAE@XZ PROC ; CDynamicPoolEx<NEffectUpdateDecorator::CHeaderDecorator>::~CDynamicPoolEx<NEffectUpdateDecorator::CHeaderDecorator>, COMDAT
; _this$ = ecx

; 132  : 		{

  00000	53		 push	 ebx
  00001	56		 push	 esi
  00002	57		 push	 edi
  00003	8b f9		 mov	 edi, ecx
  00005	c7 07 00 00 00
	00		 mov	 DWORD PTR [edi], OFFSET ??_7?$CDynamicPoolEx@VCHeaderDecorator@NEffectUpdateDecorator@@@@6B@
; File C:\Program Files (x86)\Microsoft Visual Studio\2019\Professional\VC\Tools\MSVC\14.29.30133\include\vector

; 42   :     _CONSTEXPR20_CONTAINER _Vector_const_iterator(_Tptr _Parg, const _Container_base* _Pvector) noexcept : _Ptr(_Parg) {

  0000b	8b 5f 08	 mov	 ebx, DWORD PTR [edi+8]
  0000e	8b 77 04	 mov	 esi, DWORD PTR [edi+4]
; File C:\Program Files (x86)\Microsoft Visual Studio\2019\Professional\VC\Tools\MSVC\14.29.30133\include\algorithm

; 270  :     for (; _UFirst != _ULast; ++_UFirst) {

  00011	3b f3		 cmp	 esi, ebx
  00013	74 14		 je	 SHORT $LN19@CDynamicPo
$LL20@CDynamicPo:
; File C:\Users\murat\Desktop\Siveps2-1-99-Project\source\client\Client\eterLib\Pool.h

; 224  : 			::operator delete(pkData);

  00015	ff 36		 push	 DWORD PTR [esi]
  00017	e8 00 00 00 00	 call	 ??3@YAXPAX@Z		; operator delete
; File C:\Program Files (x86)\Microsoft Visual Studio\2019\Professional\VC\Tools\MSVC\14.29.30133\include\algorithm

; 270  :     for (; _UFirst != _ULast; ++_UFirst) {

  0001c	83 c6 04	 add	 esi, 4
; File C:\Users\murat\Desktop\Siveps2-1-99-Project\source\client\Client\eterLib\Pool.h

; 224  : 			::operator delete(pkData);

  0001f	83 c4 04	 add	 esp, 4
; File C:\Program Files (x86)\Microsoft Visual Studio\2019\Professional\VC\Tools\MSVC\14.29.30133\include\algorithm

; 270  :     for (; _UFirst != _ULast; ++_UFirst) {

  00022	3b f3		 cmp	 esi, ebx
  00024	75 ef		 jne	 SHORT $LL20@CDynamicPo
  00026	8b 77 04	 mov	 esi, DWORD PTR [edi+4]
$LN19@CDynamicPo:
; File C:\Users\murat\Desktop\Siveps2-1-99-Project\source\client\Client\eterLib\Pool.h

; 162  : 			m_kVct_pkFree.clear();

  00029	8b 47 10	 mov	 eax, DWORD PTR [edi+16]
  0002c	89 77 08	 mov	 DWORD PTR [edi+8], esi
  0002f	89 47 14	 mov	 DWORD PTR [edi+20], eax
; File C:\Program Files (x86)\Microsoft Visual Studio\2019\Professional\VC\Tools\MSVC\14.29.30133\include\vector

; 1763 :         if (_Myfirst) { // destroy and deallocate old array

  00032	85 c0		 test	 eax, eax
  00034	74 41		 je	 SHORT $LN27@CDynamicPo

; 1764 :             _Destroy(_Myfirst, _Mylast);
; 1765 :             _Getal().deallocate(_Myfirst, static_cast<size_type>(_Myend - _Myfirst));

  00036	8b 4f 18	 mov	 ecx, DWORD PTR [edi+24]
  00039	2b c8		 sub	 ecx, eax
; File C:\Program Files (x86)\Microsoft Visual Studio\2019\Professional\VC\Tools\MSVC\14.29.30133\include\xmemory

; 835  :         _Deallocate<_New_alignof<_Ty>>(_Ptr, sizeof(_Ty) * _Count);

  0003b	83 e1 fc	 and	 ecx, -4			; fffffffcH

; 260  :         if (_Bytes >= _Big_allocation_threshold) { // boost the alignment of big allocations to help autovectorization

  0003e	81 f9 00 10 00
	00		 cmp	 ecx, 4096		; 00001000H
  00044	72 12		 jb	 SHORT $LN43@CDynamicPo

; 158  :     const uintptr_t _Ptr_container   = _Ptr_user[-1];

  00046	8b 50 fc	 mov	 edx, DWORD PTR [eax-4]
  00049	83 c1 23	 add	 ecx, 35			; 00000023H

; 159  : 
; 160  :     // If the following asserts, it likely means that we are performing
; 161  :     // an aligned delete on memory coming from an unaligned allocation.
; 162  :     _STL_ASSERT(_Ptr_user[-2] == _Big_allocation_sentinel, "invalid argument");
; 163  : 
; 164  :     // Extra paranoia on aligned allocation/deallocation; ensure _Ptr_container is
; 165  :     // in range [_Min_back_shift, _Non_user_size]
; 166  : #ifdef _DEBUG
; 167  :     constexpr uintptr_t _Min_back_shift = 2 * sizeof(void*);
; 168  : #else // ^^^ _DEBUG ^^^ // vvv !_DEBUG vvv
; 169  :     constexpr uintptr_t _Min_back_shift = sizeof(void*);
; 170  : #endif // _DEBUG
; 171  :     const uintptr_t _Back_shift = reinterpret_cast<uintptr_t>(_Ptr) - _Ptr_container;

  0004c	2b c2		 sub	 eax, edx

; 172  :     _STL_VERIFY(_Back_shift >= _Min_back_shift && _Back_shift <= _Non_user_size, "invalid argument");

  0004e	83 c0 fc	 add	 eax, -4			; fffffffcH
  00051	83 f8 1f	 cmp	 eax, 31			; 0000001fH
  00054	77 6d		 ja	 SHORT $LN65@CDynamicPo

; 173  :     _Ptr = reinterpret_cast<void*>(_Ptr_container);

  00056	8b c2		 mov	 eax, edx
$LN43@CDynamicPo:

; 264  :         ::operator delete(_Ptr, _Bytes);

  00058	51		 push	 ecx
  00059	50		 push	 eax
  0005a	e8 00 00 00 00	 call	 ??3@YAXPAXI@Z		; operator delete
; File C:\Program Files (x86)\Microsoft Visual Studio\2019\Professional\VC\Tools\MSVC\14.29.30133\include\vector

; 1767 :             _Myfirst = nullptr;

  0005f	c7 47 10 00 00
	00 00		 mov	 DWORD PTR [edi+16], 0
; File C:\Program Files (x86)\Microsoft Visual Studio\2019\Professional\VC\Tools\MSVC\14.29.30133\include\xmemory

; 264  :         ::operator delete(_Ptr, _Bytes);

  00066	83 c4 08	 add	 esp, 8
; File C:\Program Files (x86)\Microsoft Visual Studio\2019\Professional\VC\Tools\MSVC\14.29.30133\include\vector

; 1768 :             _Mylast  = nullptr;

  00069	c7 47 14 00 00
	00 00		 mov	 DWORD PTR [edi+20], 0

; 1769 :             _Myend   = nullptr;

  00070	c7 47 18 00 00
	00 00		 mov	 DWORD PTR [edi+24], 0
$LN27@CDynamicPo:

; 1763 :         if (_Myfirst) { // destroy and deallocate old array

  00077	8b 47 04	 mov	 eax, DWORD PTR [edi+4]
  0007a	85 c0		 test	 eax, eax
  0007c	74 41		 je	 SHORT $LN52@CDynamicPo

; 1764 :             _Destroy(_Myfirst, _Mylast);
; 1765 :             _Getal().deallocate(_Myfirst, static_cast<size_type>(_Myend - _Myfirst));

  0007e	8b 4f 0c	 mov	 ecx, DWORD PTR [edi+12]
  00081	2b c8		 sub	 ecx, eax
; File C:\Program Files (x86)\Microsoft Visual Studio\2019\Professional\VC\Tools\MSVC\14.29.30133\include\xmemory

; 835  :         _Deallocate<_New_alignof<_Ty>>(_Ptr, sizeof(_Ty) * _Count);

  00083	83 e1 fc	 and	 ecx, -4			; fffffffcH

; 260  :         if (_Bytes >= _Big_allocation_threshold) { // boost the alignment of big allocations to help autovectorization

  00086	81 f9 00 10 00
	00		 cmp	 ecx, 4096		; 00001000H
  0008c	72 12		 jb	 SHORT $LN68@CDynamicPo

; 158  :     const uintptr_t _Ptr_container   = _Ptr_user[-1];

  0008e	8b 50 fc	 mov	 edx, DWORD PTR [eax-4]
  00091	83 c1 23	 add	 ecx, 35			; 00000023H

; 159  : 
; 160  :     // If the following asserts, it likely means that we are performing
; 161  :     // an aligned delete on memory coming from an unaligned allocation.
; 162  :     _STL_ASSERT(_Ptr_user[-2] == _Big_allocation_sentinel, "invalid argument");
; 163  : 
; 164  :     // Extra paranoia on aligned allocation/deallocation; ensure _Ptr_container is
; 165  :     // in range [_Min_back_shift, _Non_user_size]
; 166  : #ifdef _DEBUG
; 167  :     constexpr uintptr_t _Min_back_shift = 2 * sizeof(void*);
; 168  : #else // ^^^ _DEBUG ^^^ // vvv !_DEBUG vvv
; 169  :     constexpr uintptr_t _Min_back_shift = sizeof(void*);
; 170  : #endif // _DEBUG
; 171  :     const uintptr_t _Back_shift = reinterpret_cast<uintptr_t>(_Ptr) - _Ptr_container;

  00094	2b c2		 sub	 eax, edx

; 172  :     _STL_VERIFY(_Back_shift >= _Min_back_shift && _Back_shift <= _Non_user_size, "invalid argument");

  00096	83 c0 fc	 add	 eax, -4			; fffffffcH
  00099	83 f8 1f	 cmp	 eax, 31			; 0000001fH
  0009c	77 25		 ja	 SHORT $LN65@CDynamicPo

; 173  :     _Ptr = reinterpret_cast<void*>(_Ptr_container);

  0009e	8b c2		 mov	 eax, edx
$LN68@CDynamicPo:

; 264  :         ::operator delete(_Ptr, _Bytes);

  000a0	51		 push	 ecx
  000a1	50		 push	 eax
  000a2	e8 00 00 00 00	 call	 ??3@YAXPAXI@Z		; operator delete
; File C:\Program Files (x86)\Microsoft Visual Studio\2019\Professional\VC\Tools\MSVC\14.29.30133\include\vector

; 1767 :             _Myfirst = nullptr;

  000a7	c7 47 04 00 00
	00 00		 mov	 DWORD PTR [edi+4], 0
; File C:\Program Files (x86)\Microsoft Visual Studio\2019\Professional\VC\Tools\MSVC\14.29.30133\include\xmemory

; 264  :         ::operator delete(_Ptr, _Bytes);

  000ae	83 c4 08	 add	 esp, 8
; File C:\Program Files (x86)\Microsoft Visual Studio\2019\Professional\VC\Tools\MSVC\14.29.30133\include\vector

; 1768 :             _Mylast  = nullptr;

  000b1	c7 47 08 00 00
	00 00		 mov	 DWORD PTR [edi+8], 0

; 1769 :             _Myend   = nullptr;

  000b8	c7 47 0c 00 00
	00 00		 mov	 DWORD PTR [edi+12], 0
$LN52@CDynamicPo:
  000bf	5f		 pop	 edi
; File C:\Users\murat\Desktop\Siveps2-1-99-Project\source\client\Client\eterLib\Pool.h

; 142  : 		}

  000c0	5e		 pop	 esi
  000c1	5b		 pop	 ebx
  000c2	c3		 ret	 0
$LN65@CDynamicPo:
; File C:\Program Files (x86)\Microsoft Visual Studio\2019\Professional\VC\Tools\MSVC\14.29.30133\include\xmemory

; 172  :     _STL_VERIFY(_Back_shift >= _Min_back_shift && _Back_shift <= _Non_user_size, "invalid argument");

  000c3	e8 00 00 00 00	 call	 __invalid_parameter_noinfo_noreturn
$LN77@CDynamicPo:
  000c8	cc		 int	 3
??1?$CDynamicPoolEx@VCHeaderDecorator@NEffectUpdateDecorator@@@@UAE@XZ ENDP ; CDynamicPoolEx<NEffectUpdateDecorator::CHeaderDecorator>::~CDynamicPoolEx<NEffectUpdateDecorator::CHeaderDecorator>
_TEXT	ENDS
; Function compile flags: /Ogtp
;	COMDAT ??_G?$CDynamicPoolEx@VCNullDecorator@NEffectUpdateDecorator@@@@UAEPAXI@Z
_TEXT	SEGMENT
___flags$ = 8						; size = 4
??_G?$CDynamicPoolEx@VCNullDecorator@NEffectUpdateDecorator@@@@UAEPAXI@Z PROC ; CDynamicPoolEx<NEffectUpdateDecorator::CNullDecorator>::`scalar deleting destructor', COMDAT
; _this$ = ecx
  00000	55		 push	 ebp
  00001	8b ec		 mov	 ebp, esp
  00003	56		 push	 esi
  00004	8b f1		 mov	 esi, ecx
  00006	e8 00 00 00 00	 call	 ??1?$CDynamicPoolEx@VCNullDecorator@NEffectUpdateDecorator@@@@UAE@XZ ; CDynamicPoolEx<NEffectUpdateDecorator::CNullDecorator>::~CDynamicPoolEx<NEffectUpdateDecorator::CNullDecorator>
  0000b	f6 45 08 01	 test	 BYTE PTR ___flags$[ebp], 1
  0000f	74 0b		 je	 SHORT $LN4@scalar
  00011	6a 24		 push	 36			; 00000024H
  00013	56		 push	 esi
  00014	e8 00 00 00 00	 call	 ??3@YAXPAXI@Z		; operator delete
  00019	83 c4 08	 add	 esp, 8
$LN4@scalar:
  0001c	8b c6		 mov	 eax, esi
  0001e	5e		 pop	 esi
  0001f	5d		 pop	 ebp
  00020	c2 04 00	 ret	 4
??_G?$CDynamicPoolEx@VCNullDecorator@NEffectUpdateDecorator@@@@UAEPAXI@Z ENDP ; CDynamicPoolEx<NEffectUpdateDecorator::CNullDecorator>::`scalar deleting destructor'
_TEXT	ENDS
; Function compile flags: /Ogtp
; File C:\Users\murat\Desktop\Siveps2-1-99-Project\source\client\Client\eterLib\Pool.h
;	COMDAT ?Delete@?$CDynamicPoolEx@VCNullDecorator@NEffectUpdateDecorator@@@@KAXPAVCNullDecorator@NEffectUpdateDecorator@@@Z
_TEXT	SEGMENT
_pkData$ = 8						; size = 4
?Delete@?$CDynamicPoolEx@VCNullDecorator@NEffectUpdateDecorator@@@@KAXPAVCNullDecorator@NEffectUpdateDecorator@@@Z PROC ; CDynamicPoolEx<NEffectUpdateDecorator::CNullDecorator>::Delete, COMDAT

; 224  : 			::operator delete(pkData);

  00000	e9 00 00 00 00	 jmp	 ??3@YAXPAX@Z		; operator delete
?Delete@?$CDynamicPoolEx@VCNullDecorator@NEffectUpdateDecorator@@@@KAXPAVCNullDecorator@NEffectUpdateDecorator@@@Z ENDP ; CDynamicPoolEx<NEffectUpdateDecorator::CNullDecorator>::Delete
_TEXT	ENDS
; Function compile flags: /Ogtp
; File C:\Users\murat\Desktop\Siveps2-1-99-Project\source\client\Client\eterLib\Pool.h
; File C:\Program Files (x86)\Microsoft Visual Studio\2019\Professional\VC\Tools\MSVC\14.29.30133\include\vector
; File C:\Program Files (x86)\Microsoft Visual Studio\2019\Professional\VC\Tools\MSVC\14.29.30133\include\algorithm
; File C:\Users\murat\Desktop\Siveps2-1-99-Project\source\client\Client\eterLib\Pool.h
; File C:\Program Files (x86)\Microsoft Visual Studio\2019\Professional\VC\Tools\MSVC\14.29.30133\include\algorithm
; File C:\Users\murat\Desktop\Siveps2-1-99-Project\source\client\Client\eterLib\Pool.h
; File C:\Program Files (x86)\Microsoft Visual Studio\2019\Professional\VC\Tools\MSVC\14.29.30133\include\algorithm
; File C:\Users\murat\Desktop\Siveps2-1-99-Project\source\client\Client\eterLib\Pool.h
; File C:\Program Files (x86)\Microsoft Visual Studio\2019\Professional\VC\Tools\MSVC\14.29.30133\include\vector
; File C:\Program Files (x86)\Microsoft Visual Studio\2019\Professional\VC\Tools\MSVC\14.29.30133\include\xmemory
; File C:\Program Files (x86)\Microsoft Visual Studio\2019\Professional\VC\Tools\MSVC\14.29.30133\include\vector
; File C:\Program Files (x86)\Microsoft Visual Studio\2019\Professional\VC\Tools\MSVC\14.29.30133\include\xmemory
; File C:\Program Files (x86)\Microsoft Visual Studio\2019\Professional\VC\Tools\MSVC\14.29.30133\include\vector
; File C:\Program Files (x86)\Microsoft Visual Studio\2019\Professional\VC\Tools\MSVC\14.29.30133\include\xmemory
; File C:\Program Files (x86)\Microsoft Visual Studio\2019\Professional\VC\Tools\MSVC\14.29.30133\include\vector
; File C:\Program Files (x86)\Microsoft Visual Studio\2019\Professional\VC\Tools\MSVC\14.29.30133\include\xmemory
; File C:\Program Files (x86)\Microsoft Visual Studio\2019\Professional\VC\Tools\MSVC\14.29.30133\include\vector
; File C:\Users\murat\Desktop\Siveps2-1-99-Project\source\client\Client\eterLib\Pool.h
; File C:\Program Files (x86)\Microsoft Visual Studio\2019\Professional\VC\Tools\MSVC\14.29.30133\include\xmemory
; File C:\Users\murat\Desktop\Siveps2-1-99-Project\source\client\Client\eterLib\Pool.h
;	COMDAT ??1?$CDynamicPoolEx@VCNullDecorator@NEffectUpdateDecorator@@@@UAE@XZ
_TEXT	SEGMENT
??1?$CDynamicPoolEx@VCNullDecorator@NEffectUpdateDecorator@@@@UAE@XZ PROC ; CDynamicPoolEx<NEffectUpdateDecorator::CNullDecorator>::~CDynamicPoolEx<NEffectUpdateDecorator::CNullDecorator>, COMDAT
; _this$ = ecx

; 132  : 		{

  00000	53		 push	 ebx
  00001	56		 push	 esi
  00002	57		 push	 edi
  00003	8b f9		 mov	 edi, ecx
  00005	c7 07 00 00 00
	00		 mov	 DWORD PTR [edi], OFFSET ??_7?$CDynamicPoolEx@VCNullDecorator@NEffectUpdateDecorator@@@@6B@
; File C:\Program Files (x86)\Microsoft Visual Studio\2019\Professional\VC\Tools\MSVC\14.29.30133\include\vector

; 42   :     _CONSTEXPR20_CONTAINER _Vector_const_iterator(_Tptr _Parg, const _Container_base* _Pvector) noexcept : _Ptr(_Parg) {

  0000b	8b 5f 08	 mov	 ebx, DWORD PTR [edi+8]
  0000e	8b 77 04	 mov	 esi, DWORD PTR [edi+4]
; File C:\Program Files (x86)\Microsoft Visual Studio\2019\Professional\VC\Tools\MSVC\14.29.30133\include\algorithm

; 270  :     for (; _UFirst != _ULast; ++_UFirst) {

  00011	3b f3		 cmp	 esi, ebx
  00013	74 14		 je	 SHORT $LN19@CDynamicPo
$LL20@CDynamicPo:
; File C:\Users\murat\Desktop\Siveps2-1-99-Project\source\client\Client\eterLib\Pool.h

; 224  : 			::operator delete(pkData);

  00015	ff 36		 push	 DWORD PTR [esi]
  00017	e8 00 00 00 00	 call	 ??3@YAXPAX@Z		; operator delete
; File C:\Program Files (x86)\Microsoft Visual Studio\2019\Professional\VC\Tools\MSVC\14.29.30133\include\algorithm

; 270  :     for (; _UFirst != _ULast; ++_UFirst) {

  0001c	83 c6 04	 add	 esi, 4
; File C:\Users\murat\Desktop\Siveps2-1-99-Project\source\client\Client\eterLib\Pool.h

; 224  : 			::operator delete(pkData);

  0001f	83 c4 04	 add	 esp, 4
; File C:\Program Files (x86)\Microsoft Visual Studio\2019\Professional\VC\Tools\MSVC\14.29.30133\include\algorithm

; 270  :     for (; _UFirst != _ULast; ++_UFirst) {

  00022	3b f3		 cmp	 esi, ebx
  00024	75 ef		 jne	 SHORT $LL20@CDynamicPo
  00026	8b 77 04	 mov	 esi, DWORD PTR [edi+4]
$LN19@CDynamicPo:
; File C:\Users\murat\Desktop\Siveps2-1-99-Project\source\client\Client\eterLib\Pool.h

; 162  : 			m_kVct_pkFree.clear();

  00029	8b 47 10	 mov	 eax, DWORD PTR [edi+16]
  0002c	89 77 08	 mov	 DWORD PTR [edi+8], esi
  0002f	89 47 14	 mov	 DWORD PTR [edi+20], eax
; File C:\Program Files (x86)\Microsoft Visual Studio\2019\Professional\VC\Tools\MSVC\14.29.30133\include\vector

; 1763 :         if (_Myfirst) { // destroy and deallocate old array

  00032	85 c0		 test	 eax, eax
  00034	74 41		 je	 SHORT $LN27@CDynamicPo

; 1764 :             _Destroy(_Myfirst, _Mylast);
; 1765 :             _Getal().deallocate(_Myfirst, static_cast<size_type>(_Myend - _Myfirst));

  00036	8b 4f 18	 mov	 ecx, DWORD PTR [edi+24]
  00039	2b c8		 sub	 ecx, eax
; File C:\Program Files (x86)\Microsoft Visual Studio\2019\Professional\VC\Tools\MSVC\14.29.30133\include\xmemory

; 835  :         _Deallocate<_New_alignof<_Ty>>(_Ptr, sizeof(_Ty) * _Count);

  0003b	83 e1 fc	 and	 ecx, -4			; fffffffcH

; 260  :         if (_Bytes >= _Big_allocation_threshold) { // boost the alignment of big allocations to help autovectorization

  0003e	81 f9 00 10 00
	00		 cmp	 ecx, 4096		; 00001000H
  00044	72 12		 jb	 SHORT $LN43@CDynamicPo

; 158  :     const uintptr_t _Ptr_container   = _Ptr_user[-1];

  00046	8b 50 fc	 mov	 edx, DWORD PTR [eax-4]
  00049	83 c1 23	 add	 ecx, 35			; 00000023H

; 159  : 
; 160  :     // If the following asserts, it likely means that we are performing
; 161  :     // an aligned delete on memory coming from an unaligned allocation.
; 162  :     _STL_ASSERT(_Ptr_user[-2] == _Big_allocation_sentinel, "invalid argument");
; 163  : 
; 164  :     // Extra paranoia on aligned allocation/deallocation; ensure _Ptr_container is
; 165  :     // in range [_Min_back_shift, _Non_user_size]
; 166  : #ifdef _DEBUG
; 167  :     constexpr uintptr_t _Min_back_shift = 2 * sizeof(void*);
; 168  : #else // ^^^ _DEBUG ^^^ // vvv !_DEBUG vvv
; 169  :     constexpr uintptr_t _Min_back_shift = sizeof(void*);
; 170  : #endif // _DEBUG
; 171  :     const uintptr_t _Back_shift = reinterpret_cast<uintptr_t>(_Ptr) - _Ptr_container;

  0004c	2b c2		 sub	 eax, edx

; 172  :     _STL_VERIFY(_Back_shift >= _Min_back_shift && _Back_shift <= _Non_user_size, "invalid argument");

  0004e	83 c0 fc	 add	 eax, -4			; fffffffcH
  00051	83 f8 1f	 cmp	 eax, 31			; 0000001fH
  00054	77 6d		 ja	 SHORT $LN65@CDynamicPo

; 173  :     _Ptr = reinterpret_cast<void*>(_Ptr_container);

  00056	8b c2		 mov	 eax, edx
$LN43@CDynamicPo:

; 264  :         ::operator delete(_Ptr, _Bytes);

  00058	51		 push	 ecx
  00059	50		 push	 eax
  0005a	e8 00 00 00 00	 call	 ??3@YAXPAXI@Z		; operator delete
; File C:\Program Files (x86)\Microsoft Visual Studio\2019\Professional\VC\Tools\MSVC\14.29.30133\include\vector

; 1767 :             _Myfirst = nullptr;

  0005f	c7 47 10 00 00
	00 00		 mov	 DWORD PTR [edi+16], 0
; File C:\Program Files (x86)\Microsoft Visual Studio\2019\Professional\VC\Tools\MSVC\14.29.30133\include\xmemory

; 264  :         ::operator delete(_Ptr, _Bytes);

  00066	83 c4 08	 add	 esp, 8
; File C:\Program Files (x86)\Microsoft Visual Studio\2019\Professional\VC\Tools\MSVC\14.29.30133\include\vector

; 1768 :             _Mylast  = nullptr;

  00069	c7 47 14 00 00
	00 00		 mov	 DWORD PTR [edi+20], 0

; 1769 :             _Myend   = nullptr;

  00070	c7 47 18 00 00
	00 00		 mov	 DWORD PTR [edi+24], 0
$LN27@CDynamicPo:

; 1763 :         if (_Myfirst) { // destroy and deallocate old array

  00077	8b 47 04	 mov	 eax, DWORD PTR [edi+4]
  0007a	85 c0		 test	 eax, eax
  0007c	74 41		 je	 SHORT $LN52@CDynamicPo

; 1764 :             _Destroy(_Myfirst, _Mylast);
; 1765 :             _Getal().deallocate(_Myfirst, static_cast<size_type>(_Myend - _Myfirst));

  0007e	8b 4f 0c	 mov	 ecx, DWORD PTR [edi+12]
  00081	2b c8		 sub	 ecx, eax
; File C:\Program Files (x86)\Microsoft Visual Studio\2019\Professional\VC\Tools\MSVC\14.29.30133\include\xmemory

; 835  :         _Deallocate<_New_alignof<_Ty>>(_Ptr, sizeof(_Ty) * _Count);

  00083	83 e1 fc	 and	 ecx, -4			; fffffffcH

; 260  :         if (_Bytes >= _Big_allocation_threshold) { // boost the alignment of big allocations to help autovectorization

  00086	81 f9 00 10 00
	00		 cmp	 ecx, 4096		; 00001000H
  0008c	72 12		 jb	 SHORT $LN68@CDynamicPo

; 158  :     const uintptr_t _Ptr_container   = _Ptr_user[-1];

  0008e	8b 50 fc	 mov	 edx, DWORD PTR [eax-4]
  00091	83 c1 23	 add	 ecx, 35			; 00000023H

; 159  : 
; 160  :     // If the following asserts, it likely means that we are performing
; 161  :     // an aligned delete on memory coming from an unaligned allocation.
; 162  :     _STL_ASSERT(_Ptr_user[-2] == _Big_allocation_sentinel, "invalid argument");
; 163  : 
; 164  :     // Extra paranoia on aligned allocation/deallocation; ensure _Ptr_container is
; 165  :     // in range [_Min_back_shift, _Non_user_size]
; 166  : #ifdef _DEBUG
; 167  :     constexpr uintptr_t _Min_back_shift = 2 * sizeof(void*);
; 168  : #else // ^^^ _DEBUG ^^^ // vvv !_DEBUG vvv
; 169  :     constexpr uintptr_t _Min_back_shift = sizeof(void*);
; 170  : #endif // _DEBUG
; 171  :     const uintptr_t _Back_shift = reinterpret_cast<uintptr_t>(_Ptr) - _Ptr_container;

  00094	2b c2		 sub	 eax, edx

; 172  :     _STL_VERIFY(_Back_shift >= _Min_back_shift && _Back_shift <= _Non_user_size, "invalid argument");

  00096	83 c0 fc	 add	 eax, -4			; fffffffcH
  00099	83 f8 1f	 cmp	 eax, 31			; 0000001fH
  0009c	77 25		 ja	 SHORT $LN65@CDynamicPo

; 173  :     _Ptr = reinterpret_cast<void*>(_Ptr_container);

  0009e	8b c2		 mov	 eax, edx
$LN68@CDynamicPo:

; 264  :         ::operator delete(_Ptr, _Bytes);

  000a0	51		 push	 ecx
  000a1	50		 push	 eax
  000a2	e8 00 00 00 00	 call	 ??3@YAXPAXI@Z		; operator delete
; File C:\Program Files (x86)\Microsoft Visual Studio\2019\Professional\VC\Tools\MSVC\14.29.30133\include\vector

; 1767 :             _Myfirst = nullptr;

  000a7	c7 47 04 00 00
	00 00		 mov	 DWORD PTR [edi+4], 0
; File C:\Program Files (x86)\Microsoft Visual Studio\2019\Professional\VC\Tools\MSVC\14.29.30133\include\xmemory

; 264  :         ::operator delete(_Ptr, _Bytes);

  000ae	83 c4 08	 add	 esp, 8
; File C:\Program Files (x86)\Microsoft Visual Studio\2019\Professional\VC\Tools\MSVC\14.29.30133\include\vector

; 1768 :             _Mylast  = nullptr;

  000b1	c7 47 08 00 00
	00 00		 mov	 DWORD PTR [edi+8], 0

; 1769 :             _Myend   = nullptr;

  000b8	c7 47 0c 00 00
	00 00		 mov	 DWORD PTR [edi+12], 0
$LN52@CDynamicPo:
  000bf	5f		 pop	 edi
; File C:\Users\murat\Desktop\Siveps2-1-99-Project\source\client\Client\eterLib\Pool.h

; 142  : 		}

  000c0	5e		 pop	 esi
  000c1	5b		 pop	 ebx
  000c2	c3		 ret	 0
$LN65@CDynamicPo:
; File C:\Program Files (x86)\Microsoft Visual Studio\2019\Professional\VC\Tools\MSVC\14.29.30133\include\xmemory

; 172  :     _STL_VERIFY(_Back_shift >= _Min_back_shift && _Back_shift <= _Non_user_size, "invalid argument");

  000c3	e8 00 00 00 00	 call	 __invalid_parameter_noinfo_noreturn
$LN77@CDynamicPo:
  000c8	cc		 int	 3
??1?$CDynamicPoolEx@VCNullDecorator@NEffectUpdateDecorator@@@@UAE@XZ ENDP ; CDynamicPoolEx<NEffectUpdateDecorator::CNullDecorator>::~CDynamicPoolEx<NEffectUpdateDecorator::CNullDecorator>
_TEXT	ENDS
; Function compile flags: /Ogtp
;	COMDAT ??_G?$CDynamicPoolEx@VCTextureAnimationCWDecorator@NEffectUpdateDecorator@@@@UAEPAXI@Z
_TEXT	SEGMENT
___flags$ = 8						; size = 4
??_G?$CDynamicPoolEx@VCTextureAnimationCWDecorator@NEffectUpdateDecorator@@@@UAEPAXI@Z PROC ; CDynamicPoolEx<NEffectUpdateDecorator::CTextureAnimationCWDecorator>::`scalar deleting destructor', COMDAT
; _this$ = ecx
  00000	55		 push	 ebp
  00001	8b ec		 mov	 ebp, esp
  00003	56		 push	 esi
  00004	8b f1		 mov	 esi, ecx
  00006	e8 00 00 00 00	 call	 ??1?$CDynamicPoolEx@VCTextureAnimationCWDecorator@NEffectUpdateDecorator@@@@UAE@XZ ; CDynamicPoolEx<NEffectUpdateDecorator::CTextureAnimationCWDecorator>::~CDynamicPoolEx<NEffectUpdateDecorator::CTextureAnimationCWDecorator>
  0000b	f6 45 08 01	 test	 BYTE PTR ___flags$[ebp], 1
  0000f	74 0b		 je	 SHORT $LN4@scalar
  00011	6a 24		 push	 36			; 00000024H
  00013	56		 push	 esi
  00014	e8 00 00 00 00	 call	 ??3@YAXPAXI@Z		; operator delete
  00019	83 c4 08	 add	 esp, 8
$LN4@scalar:
  0001c	8b c6		 mov	 eax, esi
  0001e	5e		 pop	 esi
  0001f	5d		 pop	 ebp
  00020	c2 04 00	 ret	 4
??_G?$CDynamicPoolEx@VCTextureAnimationCWDecorator@NEffectUpdateDecorator@@@@UAEPAXI@Z ENDP ; CDynamicPoolEx<NEffectUpdateDecorator::CTextureAnimationCWDecorator>::`scalar deleting destructor'
_TEXT	ENDS
; Function compile flags: /Ogtp
; File C:\Users\murat\Desktop\Siveps2-1-99-Project\source\client\Client\eterLib\Pool.h
;	COMDAT ?Delete@?$CDynamicPoolEx@VCTextureAnimationCWDecorator@NEffectUpdateDecorator@@@@KAXPAVCTextureAnimationCWDecorator@NEffectUpdateDecorator@@@Z
_TEXT	SEGMENT
_pkData$ = 8						; size = 4
?Delete@?$CDynamicPoolEx@VCTextureAnimationCWDecorator@NEffectUpdateDecorator@@@@KAXPAVCTextureAnimationCWDecorator@NEffectUpdateDecorator@@@Z PROC ; CDynamicPoolEx<NEffectUpdateDecorator::CTextureAnimationCWDecorator>::Delete, COMDAT

; 224  : 			::operator delete(pkData);

  00000	e9 00 00 00 00	 jmp	 ??3@YAXPAX@Z		; operator delete
?Delete@?$CDynamicPoolEx@VCTextureAnimationCWDecorator@NEffectUpdateDecorator@@@@KAXPAVCTextureAnimationCWDecorator@NEffectUpdateDecorator@@@Z ENDP ; CDynamicPoolEx<NEffectUpdateDecorator::CTextureAnimationCWDecorator>::Delete
_TEXT	ENDS
; Function compile flags: /Ogtp
; File C:\Users\murat\Desktop\Siveps2-1-99-Project\source\client\Client\eterLib\Pool.h
; File C:\Program Files (x86)\Microsoft Visual Studio\2019\Professional\VC\Tools\MSVC\14.29.30133\include\vector
; File C:\Program Files (x86)\Microsoft Visual Studio\2019\Professional\VC\Tools\MSVC\14.29.30133\include\algorithm
; File C:\Users\murat\Desktop\Siveps2-1-99-Project\source\client\Client\eterLib\Pool.h
; File C:\Program Files (x86)\Microsoft Visual Studio\2019\Professional\VC\Tools\MSVC\14.29.30133\include\algorithm
; File C:\Users\murat\Desktop\Siveps2-1-99-Project\source\client\Client\eterLib\Pool.h
; File C:\Program Files (x86)\Microsoft Visual Studio\2019\Professional\VC\Tools\MSVC\14.29.30133\include\algorithm
; File C:\Users\murat\Desktop\Siveps2-1-99-Project\source\client\Client\eterLib\Pool.h
; File C:\Program Files (x86)\Microsoft Visual Studio\2019\Professional\VC\Tools\MSVC\14.29.30133\include\vector
; File C:\Program Files (x86)\Microsoft Visual Studio\2019\Professional\VC\Tools\MSVC\14.29.30133\include\xmemory
; File C:\Program Files (x86)\Microsoft Visual Studio\2019\Professional\VC\Tools\MSVC\14.29.30133\include\vector
; File C:\Program Files (x86)\Microsoft Visual Studio\2019\Professional\VC\Tools\MSVC\14.29.30133\include\xmemory
; File C:\Program Files (x86)\Microsoft Visual Studio\2019\Professional\VC\Tools\MSVC\14.29.30133\include\vector
; File C:\Program Files (x86)\Microsoft Visual Studio\2019\Professional\VC\Tools\MSVC\14.29.30133\include\xmemory
; File C:\Program Files (x86)\Microsoft Visual Studio\2019\Professional\VC\Tools\MSVC\14.29.30133\include\vector
; File C:\Program Files (x86)\Microsoft Visual Studio\2019\Professional\VC\Tools\MSVC\14.29.30133\include\xmemory
; File C:\Program Files (x86)\Microsoft Visual Studio\2019\Professional\VC\Tools\MSVC\14.29.30133\include\vector
; File C:\Users\murat\Desktop\Siveps2-1-99-Project\source\client\Client\eterLib\Pool.h
; File C:\Program Files (x86)\Microsoft Visual Studio\2019\Professional\VC\Tools\MSVC\14.29.30133\include\xmemory
; File C:\Users\murat\Desktop\Siveps2-1-99-Project\source\client\Client\eterLib\Pool.h
;	COMDAT ??1?$CDynamicPoolEx@VCTextureAnimationCWDecorator@NEffectUpdateDecorator@@@@UAE@XZ
_TEXT	SEGMENT
??1?$CDynamicPoolEx@VCTextureAnimationCWDecorator@NEffectUpdateDecorator@@@@UAE@XZ PROC ; CDynamicPoolEx<NEffectUpdateDecorator::CTextureAnimationCWDecorator>::~CDynamicPoolEx<NEffectUpdateDecorator::CTextureAnimationCWDecorator>, COMDAT
; _this$ = ecx

; 132  : 		{

  00000	53		 push	 ebx
  00001	56		 push	 esi
  00002	57		 push	 edi
  00003	8b f9		 mov	 edi, ecx
  00005	c7 07 00 00 00
	00		 mov	 DWORD PTR [edi], OFFSET ??_7?$CDynamicPoolEx@VCTextureAnimationCWDecorator@NEffectUpdateDecorator@@@@6B@
; File C:\Program Files (x86)\Microsoft Visual Studio\2019\Professional\VC\Tools\MSVC\14.29.30133\include\vector

; 42   :     _CONSTEXPR20_CONTAINER _Vector_const_iterator(_Tptr _Parg, const _Container_base* _Pvector) noexcept : _Ptr(_Parg) {

  0000b	8b 5f 08	 mov	 ebx, DWORD PTR [edi+8]
  0000e	8b 77 04	 mov	 esi, DWORD PTR [edi+4]
; File C:\Program Files (x86)\Microsoft Visual Studio\2019\Professional\VC\Tools\MSVC\14.29.30133\include\algorithm

; 270  :     for (; _UFirst != _ULast; ++_UFirst) {

  00011	3b f3		 cmp	 esi, ebx
  00013	74 14		 je	 SHORT $LN19@CDynamicPo
$LL20@CDynamicPo:
; File C:\Users\murat\Desktop\Siveps2-1-99-Project\source\client\Client\eterLib\Pool.h

; 224  : 			::operator delete(pkData);

  00015	ff 36		 push	 DWORD PTR [esi]
  00017	e8 00 00 00 00	 call	 ??3@YAXPAX@Z		; operator delete
; File C:\Program Files (x86)\Microsoft Visual Studio\2019\Professional\VC\Tools\MSVC\14.29.30133\include\algorithm

; 270  :     for (; _UFirst != _ULast; ++_UFirst) {

  0001c	83 c6 04	 add	 esi, 4
; File C:\Users\murat\Desktop\Siveps2-1-99-Project\source\client\Client\eterLib\Pool.h

; 224  : 			::operator delete(pkData);

  0001f	83 c4 04	 add	 esp, 4
; File C:\Program Files (x86)\Microsoft Visual Studio\2019\Professional\VC\Tools\MSVC\14.29.30133\include\algorithm

; 270  :     for (; _UFirst != _ULast; ++_UFirst) {

  00022	3b f3		 cmp	 esi, ebx
  00024	75 ef		 jne	 SHORT $LL20@CDynamicPo
  00026	8b 77 04	 mov	 esi, DWORD PTR [edi+4]
$LN19@CDynamicPo:
; File C:\Users\murat\Desktop\Siveps2-1-99-Project\source\client\Client\eterLib\Pool.h

; 162  : 			m_kVct_pkFree.clear();

  00029	8b 47 10	 mov	 eax, DWORD PTR [edi+16]
  0002c	89 77 08	 mov	 DWORD PTR [edi+8], esi
  0002f	89 47 14	 mov	 DWORD PTR [edi+20], eax
; File C:\Program Files (x86)\Microsoft Visual Studio\2019\Professional\VC\Tools\MSVC\14.29.30133\include\vector

; 1763 :         if (_Myfirst) { // destroy and deallocate old array

  00032	85 c0		 test	 eax, eax
  00034	74 41		 je	 SHORT $LN27@CDynamicPo

; 1764 :             _Destroy(_Myfirst, _Mylast);
; 1765 :             _Getal().deallocate(_Myfirst, static_cast<size_type>(_Myend - _Myfirst));

  00036	8b 4f 18	 mov	 ecx, DWORD PTR [edi+24]
  00039	2b c8		 sub	 ecx, eax
; File C:\Program Files (x86)\Microsoft Visual Studio\2019\Professional\VC\Tools\MSVC\14.29.30133\include\xmemory

; 835  :         _Deallocate<_New_alignof<_Ty>>(_Ptr, sizeof(_Ty) * _Count);

  0003b	83 e1 fc	 and	 ecx, -4			; fffffffcH

; 260  :         if (_Bytes >= _Big_allocation_threshold) { // boost the alignment of big allocations to help autovectorization

  0003e	81 f9 00 10 00
	00		 cmp	 ecx, 4096		; 00001000H
  00044	72 12		 jb	 SHORT $LN43@CDynamicPo

; 158  :     const uintptr_t _Ptr_container   = _Ptr_user[-1];

  00046	8b 50 fc	 mov	 edx, DWORD PTR [eax-4]
  00049	83 c1 23	 add	 ecx, 35			; 00000023H

; 159  : 
; 160  :     // If the following asserts, it likely means that we are performing
; 161  :     // an aligned delete on memory coming from an unaligned allocation.
; 162  :     _STL_ASSERT(_Ptr_user[-2] == _Big_allocation_sentinel, "invalid argument");
; 163  : 
; 164  :     // Extra paranoia on aligned allocation/deallocation; ensure _Ptr_container is
; 165  :     // in range [_Min_back_shift, _Non_user_size]
; 166  : #ifdef _DEBUG
; 167  :     constexpr uintptr_t _Min_back_shift = 2 * sizeof(void*);
; 168  : #else // ^^^ _DEBUG ^^^ // vvv !_DEBUG vvv
; 169  :     constexpr uintptr_t _Min_back_shift = sizeof(void*);
; 170  : #endif // _DEBUG
; 171  :     const uintptr_t _Back_shift = reinterpret_cast<uintptr_t>(_Ptr) - _Ptr_container;

  0004c	2b c2		 sub	 eax, edx

; 172  :     _STL_VERIFY(_Back_shift >= _Min_back_shift && _Back_shift <= _Non_user_size, "invalid argument");

  0004e	83 c0 fc	 add	 eax, -4			; fffffffcH
  00051	83 f8 1f	 cmp	 eax, 31			; 0000001fH
  00054	77 6d		 ja	 SHORT $LN65@CDynamicPo

; 173  :     _Ptr = reinterpret_cast<void*>(_Ptr_container);

  00056	8b c2		 mov	 eax, edx
$LN43@CDynamicPo:

; 264  :         ::operator delete(_Ptr, _Bytes);

  00058	51		 push	 ecx
  00059	50		 push	 eax
  0005a	e8 00 00 00 00	 call	 ??3@YAXPAXI@Z		; operator delete
; File C:\Program Files (x86)\Microsoft Visual Studio\2019\Professional\VC\Tools\MSVC\14.29.30133\include\vector

; 1767 :             _Myfirst = nullptr;

  0005f	c7 47 10 00 00
	00 00		 mov	 DWORD PTR [edi+16], 0
; File C:\Program Files (x86)\Microsoft Visual Studio\2019\Professional\VC\Tools\MSVC\14.29.30133\include\xmemory

; 264  :         ::operator delete(_Ptr, _Bytes);

  00066	83 c4 08	 add	 esp, 8
; File C:\Program Files (x86)\Microsoft Visual Studio\2019\Professional\VC\Tools\MSVC\14.29.30133\include\vector

; 1768 :             _Mylast  = nullptr;

  00069	c7 47 14 00 00
	00 00		 mov	 DWORD PTR [edi+20], 0

; 1769 :             _Myend   = nullptr;

  00070	c7 47 18 00 00
	00 00		 mov	 DWORD PTR [edi+24], 0
$LN27@CDynamicPo:

; 1763 :         if (_Myfirst) { // destroy and deallocate old array

  00077	8b 47 04	 mov	 eax, DWORD PTR [edi+4]
  0007a	85 c0		 test	 eax, eax
  0007c	74 41		 je	 SHORT $LN52@CDynamicPo

; 1764 :             _Destroy(_Myfirst, _Mylast);
; 1765 :             _Getal().deallocate(_Myfirst, static_cast<size_type>(_Myend - _Myfirst));

  0007e	8b 4f 0c	 mov	 ecx, DWORD PTR [edi+12]
  00081	2b c8		 sub	 ecx, eax
; File C:\Program Files (x86)\Microsoft Visual Studio\2019\Professional\VC\Tools\MSVC\14.29.30133\include\xmemory

; 835  :         _Deallocate<_New_alignof<_Ty>>(_Ptr, sizeof(_Ty) * _Count);

  00083	83 e1 fc	 and	 ecx, -4			; fffffffcH

; 260  :         if (_Bytes >= _Big_allocation_threshold) { // boost the alignment of big allocations to help autovectorization

  00086	81 f9 00 10 00
	00		 cmp	 ecx, 4096		; 00001000H
  0008c	72 12		 jb	 SHORT $LN68@CDynamicPo

; 158  :     const uintptr_t _Ptr_container   = _Ptr_user[-1];

  0008e	8b 50 fc	 mov	 edx, DWORD PTR [eax-4]
  00091	83 c1 23	 add	 ecx, 35			; 00000023H

; 159  : 
; 160  :     // If the following asserts, it likely means that we are performing
; 161  :     // an aligned delete on memory coming from an unaligned allocation.
; 162  :     _STL_ASSERT(_Ptr_user[-2] == _Big_allocation_sentinel, "invalid argument");
; 163  : 
; 164  :     // Extra paranoia on aligned allocation/deallocation; ensure _Ptr_container is
; 165  :     // in range [_Min_back_shift, _Non_user_size]
; 166  : #ifdef _DEBUG
; 167  :     constexpr uintptr_t _Min_back_shift = 2 * sizeof(void*);
; 168  : #else // ^^^ _DEBUG ^^^ // vvv !_DEBUG vvv
; 169  :     constexpr uintptr_t _Min_back_shift = sizeof(void*);
; 170  : #endif // _DEBUG
; 171  :     const uintptr_t _Back_shift = reinterpret_cast<uintptr_t>(_Ptr) - _Ptr_container;

  00094	2b c2		 sub	 eax, edx

; 172  :     _STL_VERIFY(_Back_shift >= _Min_back_shift && _Back_shift <= _Non_user_size, "invalid argument");

  00096	83 c0 fc	 add	 eax, -4			; fffffffcH
  00099	83 f8 1f	 cmp	 eax, 31			; 0000001fH
  0009c	77 25		 ja	 SHORT $LN65@CDynamicPo

; 173  :     _Ptr = reinterpret_cast<void*>(_Ptr_container);

  0009e	8b c2		 mov	 eax, edx
$LN68@CDynamicPo:

; 264  :         ::operator delete(_Ptr, _Bytes);

  000a0	51		 push	 ecx
  000a1	50		 push	 eax
  000a2	e8 00 00 00 00	 call	 ??3@YAXPAXI@Z		; operator delete
; File C:\Program Files (x86)\Microsoft Visual Studio\2019\Professional\VC\Tools\MSVC\14.29.30133\include\vector

; 1767 :             _Myfirst = nullptr;

  000a7	c7 47 04 00 00
	00 00		 mov	 DWORD PTR [edi+4], 0
; File C:\Program Files (x86)\Microsoft Visual Studio\2019\Professional\VC\Tools\MSVC\14.29.30133\include\xmemory

; 264  :         ::operator delete(_Ptr, _Bytes);

  000ae	83 c4 08	 add	 esp, 8
; File C:\Program Files (x86)\Microsoft Visual Studio\2019\Professional\VC\Tools\MSVC\14.29.30133\include\vector

; 1768 :             _Mylast  = nullptr;

  000b1	c7 47 08 00 00
	00 00		 mov	 DWORD PTR [edi+8], 0

; 1769 :             _Myend   = nullptr;

  000b8	c7 47 0c 00 00
	00 00		 mov	 DWORD PTR [edi+12], 0
$LN52@CDynamicPo:
  000bf	5f		 pop	 edi
; File C:\Users\murat\Desktop\Siveps2-1-99-Project\source\client\Client\eterLib\Pool.h

; 142  : 		}

  000c0	5e		 pop	 esi
  000c1	5b		 pop	 ebx
  000c2	c3		 ret	 0
$LN65@CDynamicPo:
; File C:\Program Files (x86)\Microsoft Visual Studio\2019\Professional\VC\Tools\MSVC\14.29.30133\include\xmemory

; 172  :     _STL_VERIFY(_Back_shift >= _Min_back_shift && _Back_shift <= _Non_user_size, "invalid argument");

  000c3	e8 00 00 00 00	 call	 __invalid_parameter_noinfo_noreturn
$LN77@CDynamicPo:
  000c8	cc		 int	 3
??1?$CDynamicPoolEx@VCTextureAnimationCWDecorator@NEffectUpdateDecorator@@@@UAE@XZ ENDP ; CDynamicPoolEx<NEffectUpdateDecorator::CTextureAnimationCWDecorator>::~CDynamicPoolEx<NEffectUpdateDecorator::CTextureAnimationCWDecorator>
_TEXT	ENDS
; Function compile flags: /Ogtp
;	COMDAT ??_G?$CDynamicPoolEx@VCTextureAnimationCCWDecorator@NEffectUpdateDecorator@@@@UAEPAXI@Z
_TEXT	SEGMENT
___flags$ = 8						; size = 4
??_G?$CDynamicPoolEx@VCTextureAnimationCCWDecorator@NEffectUpdateDecorator@@@@UAEPAXI@Z PROC ; CDynamicPoolEx<NEffectUpdateDecorator::CTextureAnimationCCWDecorator>::`scalar deleting destructor', COMDAT
; _this$ = ecx
  00000	55		 push	 ebp
  00001	8b ec		 mov	 ebp, esp
  00003	56		 push	 esi
  00004	8b f1		 mov	 esi, ecx
  00006	e8 00 00 00 00	 call	 ??1?$CDynamicPoolEx@VCTextureAnimationCCWDecorator@NEffectUpdateDecorator@@@@UAE@XZ ; CDynamicPoolEx<NEffectUpdateDecorator::CTextureAnimationCCWDecorator>::~CDynamicPoolEx<NEffectUpdateDecorator::CTextureAnimationCCWDecorator>
  0000b	f6 45 08 01	 test	 BYTE PTR ___flags$[ebp], 1
  0000f	74 0b		 je	 SHORT $LN4@scalar
  00011	6a 24		 push	 36			; 00000024H
  00013	56		 push	 esi
  00014	e8 00 00 00 00	 call	 ??3@YAXPAXI@Z		; operator delete
  00019	83 c4 08	 add	 esp, 8
$LN4@scalar:
  0001c	8b c6		 mov	 eax, esi
  0001e	5e		 pop	 esi
  0001f	5d		 pop	 ebp
  00020	c2 04 00	 ret	 4
??_G?$CDynamicPoolEx@VCTextureAnimationCCWDecorator@NEffectUpdateDecorator@@@@UAEPAXI@Z ENDP ; CDynamicPoolEx<NEffectUpdateDecorator::CTextureAnimationCCWDecorator>::`scalar deleting destructor'
_TEXT	ENDS
; Function compile flags: /Ogtp
; File C:\Users\murat\Desktop\Siveps2-1-99-Project\source\client\Client\eterLib\Pool.h
;	COMDAT ?Delete@?$CDynamicPoolEx@VCTextureAnimationCCWDecorator@NEffectUpdateDecorator@@@@KAXPAVCTextureAnimationCCWDecorator@NEffectUpdateDecorator@@@Z
_TEXT	SEGMENT
_pkData$ = 8						; size = 4
?Delete@?$CDynamicPoolEx@VCTextureAnimationCCWDecorator@NEffectUpdateDecorator@@@@KAXPAVCTextureAnimationCCWDecorator@NEffectUpdateDecorator@@@Z PROC ; CDynamicPoolEx<NEffectUpdateDecorator::CTextureAnimationCCWDecorator>::Delete, COMDAT

; 224  : 			::operator delete(pkData);

  00000	e9 00 00 00 00	 jmp	 ??3@YAXPAX@Z		; operator delete
?Delete@?$CDynamicPoolEx@VCTextureAnimationCCWDecorator@NEffectUpdateDecorator@@@@KAXPAVCTextureAnimationCCWDecorator@NEffectUpdateDecorator@@@Z ENDP ; CDynamicPoolEx<NEffectUpdateDecorator::CTextureAnimationCCWDecorator>::Delete
_TEXT	ENDS
; Function compile flags: /Ogtp
; File C:\Users\murat\Desktop\Siveps2-1-99-Project\source\client\Client\eterLib\Pool.h
; File C:\Program Files (x86)\Microsoft Visual Studio\2019\Professional\VC\Tools\MSVC\14.29.30133\include\vector
; File C:\Program Files (x86)\Microsoft Visual Studio\2019\Professional\VC\Tools\MSVC\14.29.30133\include\algorithm
; File C:\Users\murat\Desktop\Siveps2-1-99-Project\source\client\Client\eterLib\Pool.h
; File C:\Program Files (x86)\Microsoft Visual Studio\2019\Professional\VC\Tools\MSVC\14.29.30133\include\algorithm
; File C:\Users\murat\Desktop\Siveps2-1-99-Project\source\client\Client\eterLib\Pool.h
; File C:\Program Files (x86)\Microsoft Visual Studio\2019\Professional\VC\Tools\MSVC\14.29.30133\include\algorithm
; File C:\Users\murat\Desktop\Siveps2-1-99-Project\source\client\Client\eterLib\Pool.h
; File C:\Program Files (x86)\Microsoft Visual Studio\2019\Professional\VC\Tools\MSVC\14.29.30133\include\vector
; File C:\Program Files (x86)\Microsoft Visual Studio\2019\Professional\VC\Tools\MSVC\14.29.30133\include\xmemory
; File C:\Program Files (x86)\Microsoft Visual Studio\2019\Professional\VC\Tools\MSVC\14.29.30133\include\vector
; File C:\Program Files (x86)\Microsoft Visual Studio\2019\Professional\VC\Tools\MSVC\14.29.30133\include\xmemory
; File C:\Program Files (x86)\Microsoft Visual Studio\2019\Professional\VC\Tools\MSVC\14.29.30133\include\vector
; File C:\Program Files (x86)\Microsoft Visual Studio\2019\Professional\VC\Tools\MSVC\14.29.30133\include\xmemory
; File C:\Program Files (x86)\Microsoft Visual Studio\2019\Professional\VC\Tools\MSVC\14.29.30133\include\vector
; File C:\Program Files (x86)\Microsoft Visual Studio\2019\Professional\VC\Tools\MSVC\14.29.30133\include\xmemory
; File C:\Program Files (x86)\Microsoft Visual Studio\2019\Professional\VC\Tools\MSVC\14.29.30133\include\vector
; File C:\Users\murat\Desktop\Siveps2-1-99-Project\source\client\Client\eterLib\Pool.h
; File C:\Program Files (x86)\Microsoft Visual Studio\2019\Professional\VC\Tools\MSVC\14.29.30133\include\xmemory
; File C:\Users\murat\Desktop\Siveps2-1-99-Project\source\client\Client\eterLib\Pool.h
;	COMDAT ??1?$CDynamicPoolEx@VCTextureAnimationCCWDecorator@NEffectUpdateDecorator@@@@UAE@XZ
_TEXT	SEGMENT
??1?$CDynamicPoolEx@VCTextureAnimationCCWDecorator@NEffectUpdateDecorator@@@@UAE@XZ PROC ; CDynamicPoolEx<NEffectUpdateDecorator::CTextureAnimationCCWDecorator>::~CDynamicPoolEx<NEffectUpdateDecorator::CTextureAnimationCCWDecorator>, COMDAT
; _this$ = ecx

; 132  : 		{

  00000	53		 push	 ebx
  00001	56		 push	 esi
  00002	57		 push	 edi
  00003	8b f9		 mov	 edi, ecx
  00005	c7 07 00 00 00
	00		 mov	 DWORD PTR [edi], OFFSET ??_7?$CDynamicPoolEx@VCTextureAnimationCCWDecorator@NEffectUpdateDecorator@@@@6B@
; File C:\Program Files (x86)\Microsoft Visual Studio\2019\Professional\VC\Tools\MSVC\14.29.30133\include\vector

; 42   :     _CONSTEXPR20_CONTAINER _Vector_const_iterator(_Tptr _Parg, const _Container_base* _Pvector) noexcept : _Ptr(_Parg) {

  0000b	8b 5f 08	 mov	 ebx, DWORD PTR [edi+8]
  0000e	8b 77 04	 mov	 esi, DWORD PTR [edi+4]
; File C:\Program Files (x86)\Microsoft Visual Studio\2019\Professional\VC\Tools\MSVC\14.29.30133\include\algorithm

; 270  :     for (; _UFirst != _ULast; ++_UFirst) {

  00011	3b f3		 cmp	 esi, ebx
  00013	74 14		 je	 SHORT $LN19@CDynamicPo
$LL20@CDynamicPo:
; File C:\Users\murat\Desktop\Siveps2-1-99-Project\source\client\Client\eterLib\Pool.h

; 224  : 			::operator delete(pkData);

  00015	ff 36		 push	 DWORD PTR [esi]
  00017	e8 00 00 00 00	 call	 ??3@YAXPAX@Z		; operator delete
; File C:\Program Files (x86)\Microsoft Visual Studio\2019\Professional\VC\Tools\MSVC\14.29.30133\include\algorithm

; 270  :     for (; _UFirst != _ULast; ++_UFirst) {

  0001c	83 c6 04	 add	 esi, 4
; File C:\Users\murat\Desktop\Siveps2-1-99-Project\source\client\Client\eterLib\Pool.h

; 224  : 			::operator delete(pkData);

  0001f	83 c4 04	 add	 esp, 4
; File C:\Program Files (x86)\Microsoft Visual Studio\2019\Professional\VC\Tools\MSVC\14.29.30133\include\algorithm

; 270  :     for (; _UFirst != _ULast; ++_UFirst) {

  00022	3b f3		 cmp	 esi, ebx
  00024	75 ef		 jne	 SHORT $LL20@CDynamicPo
  00026	8b 77 04	 mov	 esi, DWORD PTR [edi+4]
$LN19@CDynamicPo:
; File C:\Users\murat\Desktop\Siveps2-1-99-Project\source\client\Client\eterLib\Pool.h

; 162  : 			m_kVct_pkFree.clear();

  00029	8b 47 10	 mov	 eax, DWORD PTR [edi+16]
  0002c	89 77 08	 mov	 DWORD PTR [edi+8], esi
  0002f	89 47 14	 mov	 DWORD PTR [edi+20], eax
; File C:\Program Files (x86)\Microsoft Visual Studio\2019\Professional\VC\Tools\MSVC\14.29.30133\include\vector

; 1763 :         if (_Myfirst) { // destroy and deallocate old array

  00032	85 c0		 test	 eax, eax
  00034	74 41		 je	 SHORT $LN27@CDynamicPo

; 1764 :             _Destroy(_Myfirst, _Mylast);
; 1765 :             _Getal().deallocate(_Myfirst, static_cast<size_type>(_Myend - _Myfirst));

  00036	8b 4f 18	 mov	 ecx, DWORD PTR [edi+24]
  00039	2b c8		 sub	 ecx, eax
; File C:\Program Files (x86)\Microsoft Visual Studio\2019\Professional\VC\Tools\MSVC\14.29.30133\include\xmemory

; 835  :         _Deallocate<_New_alignof<_Ty>>(_Ptr, sizeof(_Ty) * _Count);

  0003b	83 e1 fc	 and	 ecx, -4			; fffffffcH

; 260  :         if (_Bytes >= _Big_allocation_threshold) { // boost the alignment of big allocations to help autovectorization

  0003e	81 f9 00 10 00
	00		 cmp	 ecx, 4096		; 00001000H
  00044	72 12		 jb	 SHORT $LN43@CDynamicPo

; 158  :     const uintptr_t _Ptr_container   = _Ptr_user[-1];

  00046	8b 50 fc	 mov	 edx, DWORD PTR [eax-4]
  00049	83 c1 23	 add	 ecx, 35			; 00000023H

; 159  : 
; 160  :     // If the following asserts, it likely means that we are performing
; 161  :     // an aligned delete on memory coming from an unaligned allocation.
; 162  :     _STL_ASSERT(_Ptr_user[-2] == _Big_allocation_sentinel, "invalid argument");
; 163  : 
; 164  :     // Extra paranoia on aligned allocation/deallocation; ensure _Ptr_container is
; 165  :     // in range [_Min_back_shift, _Non_user_size]
; 166  : #ifdef _DEBUG
; 167  :     constexpr uintptr_t _Min_back_shift = 2 * sizeof(void*);
; 168  : #else // ^^^ _DEBUG ^^^ // vvv !_DEBUG vvv
; 169  :     constexpr uintptr_t _Min_back_shift = sizeof(void*);
; 170  : #endif // _DEBUG
; 171  :     const uintptr_t _Back_shift = reinterpret_cast<uintptr_t>(_Ptr) - _Ptr_container;

  0004c	2b c2		 sub	 eax, edx

; 172  :     _STL_VERIFY(_Back_shift >= _Min_back_shift && _Back_shift <= _Non_user_size, "invalid argument");

  0004e	83 c0 fc	 add	 eax, -4			; fffffffcH
  00051	83 f8 1f	 cmp	 eax, 31			; 0000001fH
  00054	77 6d		 ja	 SHORT $LN65@CDynamicPo

; 173  :     _Ptr = reinterpret_cast<void*>(_Ptr_container);

  00056	8b c2		 mov	 eax, edx
$LN43@CDynamicPo:

; 264  :         ::operator delete(_Ptr, _Bytes);

  00058	51		 push	 ecx
  00059	50		 push	 eax
  0005a	e8 00 00 00 00	 call	 ??3@YAXPAXI@Z		; operator delete
; File C:\Program Files (x86)\Microsoft Visual Studio\2019\Professional\VC\Tools\MSVC\14.29.30133\include\vector

; 1767 :             _Myfirst = nullptr;

  0005f	c7 47 10 00 00
	00 00		 mov	 DWORD PTR [edi+16], 0
; File C:\Program Files (x86)\Microsoft Visual Studio\2019\Professional\VC\Tools\MSVC\14.29.30133\include\xmemory

; 264  :         ::operator delete(_Ptr, _Bytes);

  00066	83 c4 08	 add	 esp, 8
; File C:\Program Files (x86)\Microsoft Visual Studio\2019\Professional\VC\Tools\MSVC\14.29.30133\include\vector

; 1768 :             _Mylast  = nullptr;

  00069	c7 47 14 00 00
	00 00		 mov	 DWORD PTR [edi+20], 0

; 1769 :             _Myend   = nullptr;

  00070	c7 47 18 00 00
	00 00		 mov	 DWORD PTR [edi+24], 0
$LN27@CDynamicPo:

; 1763 :         if (_Myfirst) { // destroy and deallocate old array

  00077	8b 47 04	 mov	 eax, DWORD PTR [edi+4]
  0007a	85 c0		 test	 eax, eax
  0007c	74 41		 je	 SHORT $LN52@CDynamicPo

; 1764 :             _Destroy(_Myfirst, _Mylast);
; 1765 :             _Getal().deallocate(_Myfirst, static_cast<size_type>(_Myend - _Myfirst));

  0007e	8b 4f 0c	 mov	 ecx, DWORD PTR [edi+12]
  00081	2b c8		 sub	 ecx, eax
; File C:\Program Files (x86)\Microsoft Visual Studio\2019\Professional\VC\Tools\MSVC\14.29.30133\include\xmemory

; 835  :         _Deallocate<_New_alignof<_Ty>>(_Ptr, sizeof(_Ty) * _Count);

  00083	83 e1 fc	 and	 ecx, -4			; fffffffcH

; 260  :         if (_Bytes >= _Big_allocation_threshold) { // boost the alignment of big allocations to help autovectorization

  00086	81 f9 00 10 00
	00		 cmp	 ecx, 4096		; 00001000H
  0008c	72 12		 jb	 SHORT $LN68@CDynamicPo

; 158  :     const uintptr_t _Ptr_container   = _Ptr_user[-1];

  0008e	8b 50 fc	 mov	 edx, DWORD PTR [eax-4]
  00091	83 c1 23	 add	 ecx, 35			; 00000023H

; 159  : 
; 160  :     // If the following asserts, it likely means that we are performing
; 161  :     // an aligned delete on memory coming from an unaligned allocation.
; 162  :     _STL_ASSERT(_Ptr_user[-2] == _Big_allocation_sentinel, "invalid argument");
; 163  : 
; 164  :     // Extra paranoia on aligned allocation/deallocation; ensure _Ptr_container is
; 165  :     // in range [_Min_back_shift, _Non_user_size]
; 166  : #ifdef _DEBUG
; 167  :     constexpr uintptr_t _Min_back_shift = 2 * sizeof(void*);
; 168  : #else // ^^^ _DEBUG ^^^ // vvv !_DEBUG vvv
; 169  :     constexpr uintptr_t _Min_back_shift = sizeof(void*);
; 170  : #endif // _DEBUG
; 171  :     const uintptr_t _Back_shift = reinterpret_cast<uintptr_t>(_Ptr) - _Ptr_container;

  00094	2b c2		 sub	 eax, edx

; 172  :     _STL_VERIFY(_Back_shift >= _Min_back_shift && _Back_shift <= _Non_user_size, "invalid argument");

  00096	83 c0 fc	 add	 eax, -4			; fffffffcH
  00099	83 f8 1f	 cmp	 eax, 31			; 0000001fH
  0009c	77 25		 ja	 SHORT $LN65@CDynamicPo

; 173  :     _Ptr = reinterpret_cast<void*>(_Ptr_container);

  0009e	8b c2		 mov	 eax, edx
$LN68@CDynamicPo:

; 264  :         ::operator delete(_Ptr, _Bytes);

  000a0	51		 push	 ecx
  000a1	50		 push	 eax
  000a2	e8 00 00 00 00	 call	 ??3@YAXPAXI@Z		; operator delete
; File C:\Program Files (x86)\Microsoft Visual Studio\2019\Professional\VC\Tools\MSVC\14.29.30133\include\vector

; 1767 :             _Myfirst = nullptr;

  000a7	c7 47 04 00 00
	00 00		 mov	 DWORD PTR [edi+4], 0
; File C:\Program Files (x86)\Microsoft Visual Studio\2019\Professional\VC\Tools\MSVC\14.29.30133\include\xmemory

; 264  :         ::operator delete(_Ptr, _Bytes);

  000ae	83 c4 08	 add	 esp, 8
; File C:\Program Files (x86)\Microsoft Visual Studio\2019\Professional\VC\Tools\MSVC\14.29.30133\include\vector

; 1768 :             _Mylast  = nullptr;

  000b1	c7 47 08 00 00
	00 00		 mov	 DWORD PTR [edi+8], 0

; 1769 :             _Myend   = nullptr;

  000b8	c7 47 0c 00 00
	00 00		 mov	 DWORD PTR [edi+12], 0
$LN52@CDynamicPo:
  000bf	5f		 pop	 edi
; File C:\Users\murat\Desktop\Siveps2-1-99-Project\source\client\Client\eterLib\Pool.h

; 142  : 		}

  000c0	5e		 pop	 esi
  000c1	5b		 pop	 ebx
  000c2	c3		 ret	 0
$LN65@CDynamicPo:
; File C:\Program Files (x86)\Microsoft Visual Studio\2019\Professional\VC\Tools\MSVC\14.29.30133\include\xmemory

; 172  :     _STL_VERIFY(_Back_shift >= _Min_back_shift && _Back_shift <= _Non_user_size, "invalid argument");

  000c3	e8 00 00 00 00	 call	 __invalid_parameter_noinfo_noreturn
$LN77@CDynamicPo:
  000c8	cc		 int	 3
??1?$CDynamicPoolEx@VCTextureAnimationCCWDecorator@NEffectUpdateDecorator@@@@UAE@XZ ENDP ; CDynamicPoolEx<NEffectUpdateDecorator::CTextureAnimationCCWDecorator>::~CDynamicPoolEx<NEffectUpdateDecorator::CTextureAnimationCCWDecorator>
_TEXT	ENDS
; Function compile flags: /Ogtp
;	COMDAT ??_G?$CDynamicPoolEx@VCTextureAnimationRandomDecorator@NEffectUpdateDecorator@@@@UAEPAXI@Z
_TEXT	SEGMENT
___flags$ = 8						; size = 4
??_G?$CDynamicPoolEx@VCTextureAnimationRandomDecorator@NEffectUpdateDecorator@@@@UAEPAXI@Z PROC ; CDynamicPoolEx<NEffectUpdateDecorator::CTextureAnimationRandomDecorator>::`scalar deleting destructor', COMDAT
; _this$ = ecx
  00000	55		 push	 ebp
  00001	8b ec		 mov	 ebp, esp
  00003	56		 push	 esi
  00004	8b f1		 mov	 esi, ecx
  00006	e8 00 00 00 00	 call	 ??1?$CDynamicPoolEx@VCTextureAnimationRandomDecorator@NEffectUpdateDecorator@@@@UAE@XZ ; CDynamicPoolEx<NEffectUpdateDecorator::CTextureAnimationRandomDecorator>::~CDynamicPoolEx<NEffectUpdateDecorator::CTextureAnimationRandomDecorator>
  0000b	f6 45 08 01	 test	 BYTE PTR ___flags$[ebp], 1
  0000f	74 0b		 je	 SHORT $LN4@scalar
  00011	6a 24		 push	 36			; 00000024H
  00013	56		 push	 esi
  00014	e8 00 00 00 00	 call	 ??3@YAXPAXI@Z		; operator delete
  00019	83 c4 08	 add	 esp, 8
$LN4@scalar:
  0001c	8b c6		 mov	 eax, esi
  0001e	5e		 pop	 esi
  0001f	5d		 pop	 ebp
  00020	c2 04 00	 ret	 4
??_G?$CDynamicPoolEx@VCTextureAnimationRandomDecorator@NEffectUpdateDecorator@@@@UAEPAXI@Z ENDP ; CDynamicPoolEx<NEffectUpdateDecorator::CTextureAnimationRandomDecorator>::`scalar deleting destructor'
_TEXT	ENDS
; Function compile flags: /Ogtp
; File C:\Users\murat\Desktop\Siveps2-1-99-Project\source\client\Client\eterLib\Pool.h
;	COMDAT ?Delete@?$CDynamicPoolEx@VCTextureAnimationRandomDecorator@NEffectUpdateDecorator@@@@KAXPAVCTextureAnimationRandomDecorator@NEffectUpdateDecorator@@@Z
_TEXT	SEGMENT
_pkData$ = 8						; size = 4
?Delete@?$CDynamicPoolEx@VCTextureAnimationRandomDecorator@NEffectUpdateDecorator@@@@KAXPAVCTextureAnimationRandomDecorator@NEffectUpdateDecorator@@@Z PROC ; CDynamicPoolEx<NEffectUpdateDecorator::CTextureAnimationRandomDecorator>::Delete, COMDAT

; 224  : 			::operator delete(pkData);

  00000	e9 00 00 00 00	 jmp	 ??3@YAXPAX@Z		; operator delete
?Delete@?$CDynamicPoolEx@VCTextureAnimationRandomDecorator@NEffectUpdateDecorator@@@@KAXPAVCTextureAnimationRandomDecorator@NEffectUpdateDecorator@@@Z ENDP ; CDynamicPoolEx<NEffectUpdateDecorator::CTextureAnimationRandomDecorator>::Delete
_TEXT	ENDS
; Function compile flags: /Ogtp
; File C:\Users\murat\Desktop\Siveps2-1-99-Project\source\client\Client\eterLib\Pool.h
; File C:\Program Files (x86)\Microsoft Visual Studio\2019\Professional\VC\Tools\MSVC\14.29.30133\include\vector
; File C:\Program Files (x86)\Microsoft Visual Studio\2019\Professional\VC\Tools\MSVC\14.29.30133\include\algorithm
; File C:\Users\murat\Desktop\Siveps2-1-99-Project\source\client\Client\eterLib\Pool.h
; File C:\Program Files (x86)\Microsoft Visual Studio\2019\Professional\VC\Tools\MSVC\14.29.30133\include\algorithm
; File C:\Users\murat\Desktop\Siveps2-1-99-Project\source\client\Client\eterLib\Pool.h
; File C:\Program Files (x86)\Microsoft Visual Studio\2019\Professional\VC\Tools\MSVC\14.29.30133\include\algorithm
; File C:\Users\murat\Desktop\Siveps2-1-99-Project\source\client\Client\eterLib\Pool.h
; File C:\Program Files (x86)\Microsoft Visual Studio\2019\Professional\VC\Tools\MSVC\14.29.30133\include\vector
; File C:\Program Files (x86)\Microsoft Visual Studio\2019\Professional\VC\Tools\MSVC\14.29.30133\include\xmemory
; File C:\Program Files (x86)\Microsoft Visual Studio\2019\Professional\VC\Tools\MSVC\14.29.30133\include\vector
; File C:\Program Files (x86)\Microsoft Visual Studio\2019\Professional\VC\Tools\MSVC\14.29.30133\include\xmemory
; File C:\Program Files (x86)\Microsoft Visual Studio\2019\Professional\VC\Tools\MSVC\14.29.30133\include\vector
; File C:\Program Files (x86)\Microsoft Visual Studio\2019\Professional\VC\Tools\MSVC\14.29.30133\include\xmemory
; File C:\Program Files (x86)\Microsoft Visual Studio\2019\Professional\VC\Tools\MSVC\14.29.30133\include\vector
; File C:\Program Files (x86)\Microsoft Visual Studio\2019\Professional\VC\Tools\MSVC\14.29.30133\include\xmemory
; File C:\Program Files (x86)\Microsoft Visual Studio\2019\Professional\VC\Tools\MSVC\14.29.30133\include\vector
; File C:\Users\murat\Desktop\Siveps2-1-99-Project\source\client\Client\eterLib\Pool.h
; File C:\Program Files (x86)\Microsoft Visual Studio\2019\Professional\VC\Tools\MSVC\14.29.30133\include\xmemory
; File C:\Users\murat\Desktop\Siveps2-1-99-Project\source\client\Client\eterLib\Pool.h
;	COMDAT ??1?$CDynamicPoolEx@VCTextureAnimationRandomDecorator@NEffectUpdateDecorator@@@@UAE@XZ
_TEXT	SEGMENT
??1?$CDynamicPoolEx@VCTextureAnimationRandomDecorator@NEffectUpdateDecorator@@@@UAE@XZ PROC ; CDynamicPoolEx<NEffectUpdateDecorator::CTextureAnimationRandomDecorator>::~CDynamicPoolEx<NEffectUpdateDecorator::CTextureAnimationRandomDecorator>, COMDAT
; _this$ = ecx

; 132  : 		{

  00000	53		 push	 ebx
  00001	56		 push	 esi
  00002	57		 push	 edi
  00003	8b f9		 mov	 edi, ecx
  00005	c7 07 00 00 00
	00		 mov	 DWORD PTR [edi], OFFSET ??_7?$CDynamicPoolEx@VCTextureAnimationRandomDecorator@NEffectUpdateDecorator@@@@6B@
; File C:\Program Files (x86)\Microsoft Visual Studio\2019\Professional\VC\Tools\MSVC\14.29.30133\include\vector

; 42   :     _CONSTEXPR20_CONTAINER _Vector_const_iterator(_Tptr _Parg, const _Container_base* _Pvector) noexcept : _Ptr(_Parg) {

  0000b	8b 5f 08	 mov	 ebx, DWORD PTR [edi+8]
  0000e	8b 77 04	 mov	 esi, DWORD PTR [edi+4]
; File C:\Program Files (x86)\Microsoft Visual Studio\2019\Professional\VC\Tools\MSVC\14.29.30133\include\algorithm

; 270  :     for (; _UFirst != _ULast; ++_UFirst) {

  00011	3b f3		 cmp	 esi, ebx
  00013	74 14		 je	 SHORT $LN19@CDynamicPo
$LL20@CDynamicPo:
; File C:\Users\murat\Desktop\Siveps2-1-99-Project\source\client\Client\eterLib\Pool.h

; 224  : 			::operator delete(pkData);

  00015	ff 36		 push	 DWORD PTR [esi]
  00017	e8 00 00 00 00	 call	 ??3@YAXPAX@Z		; operator delete
; File C:\Program Files (x86)\Microsoft Visual Studio\2019\Professional\VC\Tools\MSVC\14.29.30133\include\algorithm

; 270  :     for (; _UFirst != _ULast; ++_UFirst) {

  0001c	83 c6 04	 add	 esi, 4
; File C:\Users\murat\Desktop\Siveps2-1-99-Project\source\client\Client\eterLib\Pool.h

; 224  : 			::operator delete(pkData);

  0001f	83 c4 04	 add	 esp, 4
; File C:\Program Files (x86)\Microsoft Visual Studio\2019\Professional\VC\Tools\MSVC\14.29.30133\include\algorithm

; 270  :     for (; _UFirst != _ULast; ++_UFirst) {

  00022	3b f3		 cmp	 esi, ebx
  00024	75 ef		 jne	 SHORT $LL20@CDynamicPo
  00026	8b 77 04	 mov	 esi, DWORD PTR [edi+4]
$LN19@CDynamicPo:
; File C:\Users\murat\Desktop\Siveps2-1-99-Project\source\client\Client\eterLib\Pool.h

; 162  : 			m_kVct_pkFree.clear();

  00029	8b 47 10	 mov	 eax, DWORD PTR [edi+16]
  0002c	89 77 08	 mov	 DWORD PTR [edi+8], esi
  0002f	89 47 14	 mov	 DWORD PTR [edi+20], eax
; File C:\Program Files (x86)\Microsoft Visual Studio\2019\Professional\VC\Tools\MSVC\14.29.30133\include\vector

; 1763 :         if (_Myfirst) { // destroy and deallocate old array

  00032	85 c0		 test	 eax, eax
  00034	74 41		 je	 SHORT $LN27@CDynamicPo

; 1764 :             _Destroy(_Myfirst, _Mylast);
; 1765 :             _Getal().deallocate(_Myfirst, static_cast<size_type>(_Myend - _Myfirst));

  00036	8b 4f 18	 mov	 ecx, DWORD PTR [edi+24]
  00039	2b c8		 sub	 ecx, eax
; File C:\Program Files (x86)\Microsoft Visual Studio\2019\Professional\VC\Tools\MSVC\14.29.30133\include\xmemory

; 835  :         _Deallocate<_New_alignof<_Ty>>(_Ptr, sizeof(_Ty) * _Count);

  0003b	83 e1 fc	 and	 ecx, -4			; fffffffcH

; 260  :         if (_Bytes >= _Big_allocation_threshold) { // boost the alignment of big allocations to help autovectorization

  0003e	81 f9 00 10 00
	00		 cmp	 ecx, 4096		; 00001000H
  00044	72 12		 jb	 SHORT $LN43@CDynamicPo

; 158  :     const uintptr_t _Ptr_container   = _Ptr_user[-1];

  00046	8b 50 fc	 mov	 edx, DWORD PTR [eax-4]
  00049	83 c1 23	 add	 ecx, 35			; 00000023H

; 159  : 
; 160  :     // If the following asserts, it likely means that we are performing
; 161  :     // an aligned delete on memory coming from an unaligned allocation.
; 162  :     _STL_ASSERT(_Ptr_user[-2] == _Big_allocation_sentinel, "invalid argument");
; 163  : 
; 164  :     // Extra paranoia on aligned allocation/deallocation; ensure _Ptr_container is
; 165  :     // in range [_Min_back_shift, _Non_user_size]
; 166  : #ifdef _DEBUG
; 167  :     constexpr uintptr_t _Min_back_shift = 2 * sizeof(void*);
; 168  : #else // ^^^ _DEBUG ^^^ // vvv !_DEBUG vvv
; 169  :     constexpr uintptr_t _Min_back_shift = sizeof(void*);
; 170  : #endif // _DEBUG
; 171  :     const uintptr_t _Back_shift = reinterpret_cast<uintptr_t>(_Ptr) - _Ptr_container;

  0004c	2b c2		 sub	 eax, edx

; 172  :     _STL_VERIFY(_Back_shift >= _Min_back_shift && _Back_shift <= _Non_user_size, "invalid argument");

  0004e	83 c0 fc	 add	 eax, -4			; fffffffcH
  00051	83 f8 1f	 cmp	 eax, 31			; 0000001fH
  00054	77 6d		 ja	 SHORT $LN65@CDynamicPo

; 173  :     _Ptr = reinterpret_cast<void*>(_Ptr_container);

  00056	8b c2		 mov	 eax, edx
$LN43@CDynamicPo:

; 264  :         ::operator delete(_Ptr, _Bytes);

  00058	51		 push	 ecx
  00059	50		 push	 eax
  0005a	e8 00 00 00 00	 call	 ??3@YAXPAXI@Z		; operator delete
; File C:\Program Files (x86)\Microsoft Visual Studio\2019\Professional\VC\Tools\MSVC\14.29.30133\include\vector

; 1767 :             _Myfirst = nullptr;

  0005f	c7 47 10 00 00
	00 00		 mov	 DWORD PTR [edi+16], 0
; File C:\Program Files (x86)\Microsoft Visual Studio\2019\Professional\VC\Tools\MSVC\14.29.30133\include\xmemory

; 264  :         ::operator delete(_Ptr, _Bytes);

  00066	83 c4 08	 add	 esp, 8
; File C:\Program Files (x86)\Microsoft Visual Studio\2019\Professional\VC\Tools\MSVC\14.29.30133\include\vector

; 1768 :             _Mylast  = nullptr;

  00069	c7 47 14 00 00
	00 00		 mov	 DWORD PTR [edi+20], 0

; 1769 :             _Myend   = nullptr;

  00070	c7 47 18 00 00
	00 00		 mov	 DWORD PTR [edi+24], 0
$LN27@CDynamicPo:

; 1763 :         if (_Myfirst) { // destroy and deallocate old array

  00077	8b 47 04	 mov	 eax, DWORD PTR [edi+4]
  0007a	85 c0		 test	 eax, eax
  0007c	74 41		 je	 SHORT $LN52@CDynamicPo

; 1764 :             _Destroy(_Myfirst, _Mylast);
; 1765 :             _Getal().deallocate(_Myfirst, static_cast<size_type>(_Myend - _Myfirst));

  0007e	8b 4f 0c	 mov	 ecx, DWORD PTR [edi+12]
  00081	2b c8		 sub	 ecx, eax
; File C:\Program Files (x86)\Microsoft Visual Studio\2019\Professional\VC\Tools\MSVC\14.29.30133\include\xmemory

; 835  :         _Deallocate<_New_alignof<_Ty>>(_Ptr, sizeof(_Ty) * _Count);

  00083	83 e1 fc	 and	 ecx, -4			; fffffffcH

; 260  :         if (_Bytes >= _Big_allocation_threshold) { // boost the alignment of big allocations to help autovectorization

  00086	81 f9 00 10 00
	00		 cmp	 ecx, 4096		; 00001000H
  0008c	72 12		 jb	 SHORT $LN68@CDynamicPo

; 158  :     const uintptr_t _Ptr_container   = _Ptr_user[-1];

  0008e	8b 50 fc	 mov	 edx, DWORD PTR [eax-4]
  00091	83 c1 23	 add	 ecx, 35			; 00000023H

; 159  : 
; 160  :     // If the following asserts, it likely means that we are performing
; 161  :     // an aligned delete on memory coming from an unaligned allocation.
; 162  :     _STL_ASSERT(_Ptr_user[-2] == _Big_allocation_sentinel, "invalid argument");
; 163  : 
; 164  :     // Extra paranoia on aligned allocation/deallocation; ensure _Ptr_container is
; 165  :     // in range [_Min_back_shift, _Non_user_size]
; 166  : #ifdef _DEBUG
; 167  :     constexpr uintptr_t _Min_back_shift = 2 * sizeof(void*);
; 168  : #else // ^^^ _DEBUG ^^^ // vvv !_DEBUG vvv
; 169  :     constexpr uintptr_t _Min_back_shift = sizeof(void*);
; 170  : #endif // _DEBUG
; 171  :     const uintptr_t _Back_shift = reinterpret_cast<uintptr_t>(_Ptr) - _Ptr_container;

  00094	2b c2		 sub	 eax, edx

; 172  :     _STL_VERIFY(_Back_shift >= _Min_back_shift && _Back_shift <= _Non_user_size, "invalid argument");

  00096	83 c0 fc	 add	 eax, -4			; fffffffcH
  00099	83 f8 1f	 cmp	 eax, 31			; 0000001fH
  0009c	77 25		 ja	 SHORT $LN65@CDynamicPo

; 173  :     _Ptr = reinterpret_cast<void*>(_Ptr_container);

  0009e	8b c2		 mov	 eax, edx
$LN68@CDynamicPo:

; 264  :         ::operator delete(_Ptr, _Bytes);

  000a0	51		 push	 ecx
  000a1	50		 push	 eax
  000a2	e8 00 00 00 00	 call	 ??3@YAXPAXI@Z		; operator delete
; File C:\Program Files (x86)\Microsoft Visual Studio\2019\Professional\VC\Tools\MSVC\14.29.30133\include\vector

; 1767 :             _Myfirst = nullptr;

  000a7	c7 47 04 00 00
	00 00		 mov	 DWORD PTR [edi+4], 0
; File C:\Program Files (x86)\Microsoft Visual Studio\2019\Professional\VC\Tools\MSVC\14.29.30133\include\xmemory

; 264  :         ::operator delete(_Ptr, _Bytes);

  000ae	83 c4 08	 add	 esp, 8
; File C:\Program Files (x86)\Microsoft Visual Studio\2019\Professional\VC\Tools\MSVC\14.29.30133\include\vector

; 1768 :             _Mylast  = nullptr;

  000b1	c7 47 08 00 00
	00 00		 mov	 DWORD PTR [edi+8], 0

; 1769 :             _Myend   = nullptr;

  000b8	c7 47 0c 00 00
	00 00		 mov	 DWORD PTR [edi+12], 0
$LN52@CDynamicPo:
  000bf	5f		 pop	 edi
; File C:\Users\murat\Desktop\Siveps2-1-99-Project\source\client\Client\eterLib\Pool.h

; 142  : 		}

  000c0	5e		 pop	 esi
  000c1	5b		 pop	 ebx
  000c2	c3		 ret	 0
$LN65@CDynamicPo:
; File C:\Program Files (x86)\Microsoft Visual Studio\2019\Professional\VC\Tools\MSVC\14.29.30133\include\xmemory

; 172  :     _STL_VERIFY(_Back_shift >= _Min_back_shift && _Back_shift <= _Non_user_size, "invalid argument");

  000c3	e8 00 00 00 00	 call	 __invalid_parameter_noinfo_noreturn
$LN77@CDynamicPo:
  000c8	cc		 int	 3
??1?$CDynamicPoolEx@VCTextureAnimationRandomDecorator@NEffectUpdateDecorator@@@@UAE@XZ ENDP ; CDynamicPoolEx<NEffectUpdateDecorator::CTextureAnimationRandomDecorator>::~CDynamicPoolEx<NEffectUpdateDecorator::CTextureAnimationRandomDecorator>
_TEXT	ENDS
; Function compile flags: /Ogtp
;	COMDAT ??_G?$CDynamicPoolEx@VCAirResistanceDecorator@NEffectUpdateDecorator@@@@UAEPAXI@Z
_TEXT	SEGMENT
___flags$ = 8						; size = 4
??_G?$CDynamicPoolEx@VCAirResistanceDecorator@NEffectUpdateDecorator@@@@UAEPAXI@Z PROC ; CDynamicPoolEx<NEffectUpdateDecorator::CAirResistanceDecorator>::`scalar deleting destructor', COMDAT
; _this$ = ecx
  00000	55		 push	 ebp
  00001	8b ec		 mov	 ebp, esp
  00003	56		 push	 esi
  00004	8b f1		 mov	 esi, ecx
  00006	e8 00 00 00 00	 call	 ??1?$CDynamicPoolEx@VCAirResistanceDecorator@NEffectUpdateDecorator@@@@UAE@XZ ; CDynamicPoolEx<NEffectUpdateDecorator::CAirResistanceDecorator>::~CDynamicPoolEx<NEffectUpdateDecorator::CAirResistanceDecorator>
  0000b	f6 45 08 01	 test	 BYTE PTR ___flags$[ebp], 1
  0000f	74 0b		 je	 SHORT $LN4@scalar
  00011	6a 24		 push	 36			; 00000024H
  00013	56		 push	 esi
  00014	e8 00 00 00 00	 call	 ??3@YAXPAXI@Z		; operator delete
  00019	83 c4 08	 add	 esp, 8
$LN4@scalar:
  0001c	8b c6		 mov	 eax, esi
  0001e	5e		 pop	 esi
  0001f	5d		 pop	 ebp
  00020	c2 04 00	 ret	 4
??_G?$CDynamicPoolEx@VCAirResistanceDecorator@NEffectUpdateDecorator@@@@UAEPAXI@Z ENDP ; CDynamicPoolEx<NEffectUpdateDecorator::CAirResistanceDecorator>::`scalar deleting destructor'
_TEXT	ENDS
; Function compile flags: /Ogtp
; File C:\Users\murat\Desktop\Siveps2-1-99-Project\source\client\Client\eterLib\Pool.h
;	COMDAT ?Delete@?$CDynamicPoolEx@VCAirResistanceDecorator@NEffectUpdateDecorator@@@@KAXPAVCAirResistanceDecorator@NEffectUpdateDecorator@@@Z
_TEXT	SEGMENT
_pkData$ = 8						; size = 4
?Delete@?$CDynamicPoolEx@VCAirResistanceDecorator@NEffectUpdateDecorator@@@@KAXPAVCAirResistanceDecorator@NEffectUpdateDecorator@@@Z PROC ; CDynamicPoolEx<NEffectUpdateDecorator::CAirResistanceDecorator>::Delete, COMDAT

; 224  : 			::operator delete(pkData);

  00000	e9 00 00 00 00	 jmp	 ??3@YAXPAX@Z		; operator delete
?Delete@?$CDynamicPoolEx@VCAirResistanceDecorator@NEffectUpdateDecorator@@@@KAXPAVCAirResistanceDecorator@NEffectUpdateDecorator@@@Z ENDP ; CDynamicPoolEx<NEffectUpdateDecorator::CAirResistanceDecorator>::Delete
_TEXT	ENDS
; Function compile flags: /Ogtp
; File C:\Users\murat\Desktop\Siveps2-1-99-Project\source\client\Client\eterLib\Pool.h
; File C:\Program Files (x86)\Microsoft Visual Studio\2019\Professional\VC\Tools\MSVC\14.29.30133\include\vector
; File C:\Program Files (x86)\Microsoft Visual Studio\2019\Professional\VC\Tools\MSVC\14.29.30133\include\algorithm
; File C:\Users\murat\Desktop\Siveps2-1-99-Project\source\client\Client\eterLib\Pool.h
; File C:\Program Files (x86)\Microsoft Visual Studio\2019\Professional\VC\Tools\MSVC\14.29.30133\include\algorithm
; File C:\Users\murat\Desktop\Siveps2-1-99-Project\source\client\Client\eterLib\Pool.h
; File C:\Program Files (x86)\Microsoft Visual Studio\2019\Professional\VC\Tools\MSVC\14.29.30133\include\algorithm
; File C:\Users\murat\Desktop\Siveps2-1-99-Project\source\client\Client\eterLib\Pool.h
; File C:\Program Files (x86)\Microsoft Visual Studio\2019\Professional\VC\Tools\MSVC\14.29.30133\include\vector
; File C:\Program Files (x86)\Microsoft Visual Studio\2019\Professional\VC\Tools\MSVC\14.29.30133\include\xmemory
; File C:\Program Files (x86)\Microsoft Visual Studio\2019\Professional\VC\Tools\MSVC\14.29.30133\include\vector
; File C:\Program Files (x86)\Microsoft Visual Studio\2019\Professional\VC\Tools\MSVC\14.29.30133\include\xmemory
; File C:\Program Files (x86)\Microsoft Visual Studio\2019\Professional\VC\Tools\MSVC\14.29.30133\include\vector
; File C:\Program Files (x86)\Microsoft Visual Studio\2019\Professional\VC\Tools\MSVC\14.29.30133\include\xmemory
; File C:\Program Files (x86)\Microsoft Visual Studio\2019\Professional\VC\Tools\MSVC\14.29.30133\include\vector
; File C:\Program Files (x86)\Microsoft Visual Studio\2019\Professional\VC\Tools\MSVC\14.29.30133\include\xmemory
; File C:\Program Files (x86)\Microsoft Visual Studio\2019\Professional\VC\Tools\MSVC\14.29.30133\include\vector
; File C:\Users\murat\Desktop\Siveps2-1-99-Project\source\client\Client\eterLib\Pool.h
; File C:\Program Files (x86)\Microsoft Visual Studio\2019\Professional\VC\Tools\MSVC\14.29.30133\include\xmemory
; File C:\Users\murat\Desktop\Siveps2-1-99-Project\source\client\Client\eterLib\Pool.h
;	COMDAT ??1?$CDynamicPoolEx@VCAirResistanceDecorator@NEffectUpdateDecorator@@@@UAE@XZ
_TEXT	SEGMENT
??1?$CDynamicPoolEx@VCAirResistanceDecorator@NEffectUpdateDecorator@@@@UAE@XZ PROC ; CDynamicPoolEx<NEffectUpdateDecorator::CAirResistanceDecorator>::~CDynamicPoolEx<NEffectUpdateDecorator::CAirResistanceDecorator>, COMDAT
; _this$ = ecx

; 132  : 		{

  00000	53		 push	 ebx
  00001	56		 push	 esi
  00002	57		 push	 edi
  00003	8b f9		 mov	 edi, ecx
  00005	c7 07 00 00 00
	00		 mov	 DWORD PTR [edi], OFFSET ??_7?$CDynamicPoolEx@VCAirResistanceDecorator@NEffectUpdateDecorator@@@@6B@
; File C:\Program Files (x86)\Microsoft Visual Studio\2019\Professional\VC\Tools\MSVC\14.29.30133\include\vector

; 42   :     _CONSTEXPR20_CONTAINER _Vector_const_iterator(_Tptr _Parg, const _Container_base* _Pvector) noexcept : _Ptr(_Parg) {

  0000b	8b 5f 08	 mov	 ebx, DWORD PTR [edi+8]
  0000e	8b 77 04	 mov	 esi, DWORD PTR [edi+4]
; File C:\Program Files (x86)\Microsoft Visual Studio\2019\Professional\VC\Tools\MSVC\14.29.30133\include\algorithm

; 270  :     for (; _UFirst != _ULast; ++_UFirst) {

  00011	3b f3		 cmp	 esi, ebx
  00013	74 14		 je	 SHORT $LN19@CDynamicPo
$LL20@CDynamicPo:
; File C:\Users\murat\Desktop\Siveps2-1-99-Project\source\client\Client\eterLib\Pool.h

; 224  : 			::operator delete(pkData);

  00015	ff 36		 push	 DWORD PTR [esi]
  00017	e8 00 00 00 00	 call	 ??3@YAXPAX@Z		; operator delete
; File C:\Program Files (x86)\Microsoft Visual Studio\2019\Professional\VC\Tools\MSVC\14.29.30133\include\algorithm

; 270  :     for (; _UFirst != _ULast; ++_UFirst) {

  0001c	83 c6 04	 add	 esi, 4
; File C:\Users\murat\Desktop\Siveps2-1-99-Project\source\client\Client\eterLib\Pool.h

; 224  : 			::operator delete(pkData);

  0001f	83 c4 04	 add	 esp, 4
; File C:\Program Files (x86)\Microsoft Visual Studio\2019\Professional\VC\Tools\MSVC\14.29.30133\include\algorithm

; 270  :     for (; _UFirst != _ULast; ++_UFirst) {

  00022	3b f3		 cmp	 esi, ebx
  00024	75 ef		 jne	 SHORT $LL20@CDynamicPo
  00026	8b 77 04	 mov	 esi, DWORD PTR [edi+4]
$LN19@CDynamicPo:
; File C:\Users\murat\Desktop\Siveps2-1-99-Project\source\client\Client\eterLib\Pool.h

; 162  : 			m_kVct_pkFree.clear();

  00029	8b 47 10	 mov	 eax, DWORD PTR [edi+16]
  0002c	89 77 08	 mov	 DWORD PTR [edi+8], esi
  0002f	89 47 14	 mov	 DWORD PTR [edi+20], eax
; File C:\Program Files (x86)\Microsoft Visual Studio\2019\Professional\VC\Tools\MSVC\14.29.30133\include\vector

; 1763 :         if (_Myfirst) { // destroy and deallocate old array

  00032	85 c0		 test	 eax, eax
  00034	74 41		 je	 SHORT $LN27@CDynamicPo

; 1764 :             _Destroy(_Myfirst, _Mylast);
; 1765 :             _Getal().deallocate(_Myfirst, static_cast<size_type>(_Myend - _Myfirst));

  00036	8b 4f 18	 mov	 ecx, DWORD PTR [edi+24]
  00039	2b c8		 sub	 ecx, eax
; File C:\Program Files (x86)\Microsoft Visual Studio\2019\Professional\VC\Tools\MSVC\14.29.30133\include\xmemory

; 835  :         _Deallocate<_New_alignof<_Ty>>(_Ptr, sizeof(_Ty) * _Count);

  0003b	83 e1 fc	 and	 ecx, -4			; fffffffcH

; 260  :         if (_Bytes >= _Big_allocation_threshold) { // boost the alignment of big allocations to help autovectorization

  0003e	81 f9 00 10 00
	00		 cmp	 ecx, 4096		; 00001000H
  00044	72 12		 jb	 SHORT $LN43@CDynamicPo

; 158  :     const uintptr_t _Ptr_container   = _Ptr_user[-1];

  00046	8b 50 fc	 mov	 edx, DWORD PTR [eax-4]
  00049	83 c1 23	 add	 ecx, 35			; 00000023H

; 159  : 
; 160  :     // If the following asserts, it likely means that we are performing
; 161  :     // an aligned delete on memory coming from an unaligned allocation.
; 162  :     _STL_ASSERT(_Ptr_user[-2] == _Big_allocation_sentinel, "invalid argument");
; 163  : 
; 164  :     // Extra paranoia on aligned allocation/deallocation; ensure _Ptr_container is
; 165  :     // in range [_Min_back_shift, _Non_user_size]
; 166  : #ifdef _DEBUG
; 167  :     constexpr uintptr_t _Min_back_shift = 2 * sizeof(void*);
; 168  : #else // ^^^ _DEBUG ^^^ // vvv !_DEBUG vvv
; 169  :     constexpr uintptr_t _Min_back_shift = sizeof(void*);
; 170  : #endif // _DEBUG
; 171  :     const uintptr_t _Back_shift = reinterpret_cast<uintptr_t>(_Ptr) - _Ptr_container;

  0004c	2b c2		 sub	 eax, edx

; 172  :     _STL_VERIFY(_Back_shift >= _Min_back_shift && _Back_shift <= _Non_user_size, "invalid argument");

  0004e	83 c0 fc	 add	 eax, -4			; fffffffcH
  00051	83 f8 1f	 cmp	 eax, 31			; 0000001fH
  00054	77 6d		 ja	 SHORT $LN65@CDynamicPo

; 173  :     _Ptr = reinterpret_cast<void*>(_Ptr_container);

  00056	8b c2		 mov	 eax, edx
$LN43@CDynamicPo:

; 264  :         ::operator delete(_Ptr, _Bytes);

  00058	51		 push	 ecx
  00059	50		 push	 eax
  0005a	e8 00 00 00 00	 call	 ??3@YAXPAXI@Z		; operator delete
; File C:\Program Files (x86)\Microsoft Visual Studio\2019\Professional\VC\Tools\MSVC\14.29.30133\include\vector

; 1767 :             _Myfirst = nullptr;

  0005f	c7 47 10 00 00
	00 00		 mov	 DWORD PTR [edi+16], 0
; File C:\Program Files (x86)\Microsoft Visual Studio\2019\Professional\VC\Tools\MSVC\14.29.30133\include\xmemory

; 264  :         ::operator delete(_Ptr, _Bytes);

  00066	83 c4 08	 add	 esp, 8
; File C:\Program Files (x86)\Microsoft Visual Studio\2019\Professional\VC\Tools\MSVC\14.29.30133\include\vector

; 1768 :             _Mylast  = nullptr;

  00069	c7 47 14 00 00
	00 00		 mov	 DWORD PTR [edi+20], 0

; 1769 :             _Myend   = nullptr;

  00070	c7 47 18 00 00
	00 00		 mov	 DWORD PTR [edi+24], 0
$LN27@CDynamicPo:

; 1763 :         if (_Myfirst) { // destroy and deallocate old array

  00077	8b 47 04	 mov	 eax, DWORD PTR [edi+4]
  0007a	85 c0		 test	 eax, eax
  0007c	74 41		 je	 SHORT $LN52@CDynamicPo

; 1764 :             _Destroy(_Myfirst, _Mylast);
; 1765 :             _Getal().deallocate(_Myfirst, static_cast<size_type>(_Myend - _Myfirst));

  0007e	8b 4f 0c	 mov	 ecx, DWORD PTR [edi+12]
  00081	2b c8		 sub	 ecx, eax
; File C:\Program Files (x86)\Microsoft Visual Studio\2019\Professional\VC\Tools\MSVC\14.29.30133\include\xmemory

; 835  :         _Deallocate<_New_alignof<_Ty>>(_Ptr, sizeof(_Ty) * _Count);

  00083	83 e1 fc	 and	 ecx, -4			; fffffffcH

; 260  :         if (_Bytes >= _Big_allocation_threshold) { // boost the alignment of big allocations to help autovectorization

  00086	81 f9 00 10 00
	00		 cmp	 ecx, 4096		; 00001000H
  0008c	72 12		 jb	 SHORT $LN68@CDynamicPo

; 158  :     const uintptr_t _Ptr_container   = _Ptr_user[-1];

  0008e	8b 50 fc	 mov	 edx, DWORD PTR [eax-4]
  00091	83 c1 23	 add	 ecx, 35			; 00000023H

; 159  : 
; 160  :     // If the following asserts, it likely means that we are performing
; 161  :     // an aligned delete on memory coming from an unaligned allocation.
; 162  :     _STL_ASSERT(_Ptr_user[-2] == _Big_allocation_sentinel, "invalid argument");
; 163  : 
; 164  :     // Extra paranoia on aligned allocation/deallocation; ensure _Ptr_container is
; 165  :     // in range [_Min_back_shift, _Non_user_size]
; 166  : #ifdef _DEBUG
; 167  :     constexpr uintptr_t _Min_back_shift = 2 * sizeof(void*);
; 168  : #else // ^^^ _DEBUG ^^^ // vvv !_DEBUG vvv
; 169  :     constexpr uintptr_t _Min_back_shift = sizeof(void*);
; 170  : #endif // _DEBUG
; 171  :     const uintptr_t _Back_shift = reinterpret_cast<uintptr_t>(_Ptr) - _Ptr_container;

  00094	2b c2		 sub	 eax, edx

; 172  :     _STL_VERIFY(_Back_shift >= _Min_back_shift && _Back_shift <= _Non_user_size, "invalid argument");

  00096	83 c0 fc	 add	 eax, -4			; fffffffcH
  00099	83 f8 1f	 cmp	 eax, 31			; 0000001fH
  0009c	77 25		 ja	 SHORT $LN65@CDynamicPo

; 173  :     _Ptr = reinterpret_cast<void*>(_Ptr_container);

  0009e	8b c2		 mov	 eax, edx
$LN68@CDynamicPo:

; 264  :         ::operator delete(_Ptr, _Bytes);

  000a0	51		 push	 ecx
  000a1	50		 push	 eax
  000a2	e8 00 00 00 00	 call	 ??3@YAXPAXI@Z		; operator delete
; File C:\Program Files (x86)\Microsoft Visual Studio\2019\Professional\VC\Tools\MSVC\14.29.30133\include\vector

; 1767 :             _Myfirst = nullptr;

  000a7	c7 47 04 00 00
	00 00		 mov	 DWORD PTR [edi+4], 0
; File C:\Program Files (x86)\Microsoft Visual Studio\2019\Professional\VC\Tools\MSVC\14.29.30133\include\xmemory

; 264  :         ::operator delete(_Ptr, _Bytes);

  000ae	83 c4 08	 add	 esp, 8
; File C:\Program Files (x86)\Microsoft Visual Studio\2019\Professional\VC\Tools\MSVC\14.29.30133\include\vector

; 1768 :             _Mylast  = nullptr;

  000b1	c7 47 08 00 00
	00 00		 mov	 DWORD PTR [edi+8], 0

; 1769 :             _Myend   = nullptr;

  000b8	c7 47 0c 00 00
	00 00		 mov	 DWORD PTR [edi+12], 0
$LN52@CDynamicPo:
  000bf	5f		 pop	 edi
; File C:\Users\murat\Desktop\Siveps2-1-99-Project\source\client\Client\eterLib\Pool.h

; 142  : 		}

  000c0	5e		 pop	 esi
  000c1	5b		 pop	 ebx
  000c2	c3		 ret	 0
$LN65@CDynamicPo:
; File C:\Program Files (x86)\Microsoft Visual Studio\2019\Professional\VC\Tools\MSVC\14.29.30133\include\xmemory

; 172  :     _STL_VERIFY(_Back_shift >= _Min_back_shift && _Back_shift <= _Non_user_size, "invalid argument");

  000c3	e8 00 00 00 00	 call	 __invalid_parameter_noinfo_noreturn
$LN77@CDynamicPo:
  000c8	cc		 int	 3
??1?$CDynamicPoolEx@VCAirResistanceDecorator@NEffectUpdateDecorator@@@@UAE@XZ ENDP ; CDynamicPoolEx<NEffectUpdateDecorator::CAirResistanceDecorator>::~CDynamicPoolEx<NEffectUpdateDecorator::CAirResistanceDecorator>
_TEXT	ENDS
; Function compile flags: /Ogtp
;	COMDAT ??_G?$CDynamicPoolEx@VCGravityDecorator@NEffectUpdateDecorator@@@@UAEPAXI@Z
_TEXT	SEGMENT
___flags$ = 8						; size = 4
??_G?$CDynamicPoolEx@VCGravityDecorator@NEffectUpdateDecorator@@@@UAEPAXI@Z PROC ; CDynamicPoolEx<NEffectUpdateDecorator::CGravityDecorator>::`scalar deleting destructor', COMDAT
; _this$ = ecx
  00000	55		 push	 ebp
  00001	8b ec		 mov	 ebp, esp
  00003	56		 push	 esi
  00004	8b f1		 mov	 esi, ecx
  00006	e8 00 00 00 00	 call	 ??1?$CDynamicPoolEx@VCGravityDecorator@NEffectUpdateDecorator@@@@UAE@XZ ; CDynamicPoolEx<NEffectUpdateDecorator::CGravityDecorator>::~CDynamicPoolEx<NEffectUpdateDecorator::CGravityDecorator>
  0000b	f6 45 08 01	 test	 BYTE PTR ___flags$[ebp], 1
  0000f	74 0b		 je	 SHORT $LN4@scalar
  00011	6a 24		 push	 36			; 00000024H
  00013	56		 push	 esi
  00014	e8 00 00 00 00	 call	 ??3@YAXPAXI@Z		; operator delete
  00019	83 c4 08	 add	 esp, 8
$LN4@scalar:
  0001c	8b c6		 mov	 eax, esi
  0001e	5e		 pop	 esi
  0001f	5d		 pop	 ebp
  00020	c2 04 00	 ret	 4
??_G?$CDynamicPoolEx@VCGravityDecorator@NEffectUpdateDecorator@@@@UAEPAXI@Z ENDP ; CDynamicPoolEx<NEffectUpdateDecorator::CGravityDecorator>::`scalar deleting destructor'
_TEXT	ENDS
; Function compile flags: /Ogtp
; File C:\Users\murat\Desktop\Siveps2-1-99-Project\source\client\Client\eterLib\Pool.h
;	COMDAT ?Delete@?$CDynamicPoolEx@VCGravityDecorator@NEffectUpdateDecorator@@@@KAXPAVCGravityDecorator@NEffectUpdateDecorator@@@Z
_TEXT	SEGMENT
_pkData$ = 8						; size = 4
?Delete@?$CDynamicPoolEx@VCGravityDecorator@NEffectUpdateDecorator@@@@KAXPAVCGravityDecorator@NEffectUpdateDecorator@@@Z PROC ; CDynamicPoolEx<NEffectUpdateDecorator::CGravityDecorator>::Delete, COMDAT

; 224  : 			::operator delete(pkData);

  00000	e9 00 00 00 00	 jmp	 ??3@YAXPAX@Z		; operator delete
?Delete@?$CDynamicPoolEx@VCGravityDecorator@NEffectUpdateDecorator@@@@KAXPAVCGravityDecorator@NEffectUpdateDecorator@@@Z ENDP ; CDynamicPoolEx<NEffectUpdateDecorator::CGravityDecorator>::Delete
_TEXT	ENDS
; Function compile flags: /Ogtp
; File C:\Users\murat\Desktop\Siveps2-1-99-Project\source\client\Client\eterLib\Pool.h
; File C:\Program Files (x86)\Microsoft Visual Studio\2019\Professional\VC\Tools\MSVC\14.29.30133\include\vector
; File C:\Program Files (x86)\Microsoft Visual Studio\2019\Professional\VC\Tools\MSVC\14.29.30133\include\algorithm
; File C:\Users\murat\Desktop\Siveps2-1-99-Project\source\client\Client\eterLib\Pool.h
; File C:\Program Files (x86)\Microsoft Visual Studio\2019\Professional\VC\Tools\MSVC\14.29.30133\include\algorithm
; File C:\Users\murat\Desktop\Siveps2-1-99-Project\source\client\Client\eterLib\Pool.h
; File C:\Program Files (x86)\Microsoft Visual Studio\2019\Professional\VC\Tools\MSVC\14.29.30133\include\algorithm
; File C:\Users\murat\Desktop\Siveps2-1-99-Project\source\client\Client\eterLib\Pool.h
; File C:\Program Files (x86)\Microsoft Visual Studio\2019\Professional\VC\Tools\MSVC\14.29.30133\include\vector
; File C:\Program Files (x86)\Microsoft Visual Studio\2019\Professional\VC\Tools\MSVC\14.29.30133\include\xmemory
; File C:\Program Files (x86)\Microsoft Visual Studio\2019\Professional\VC\Tools\MSVC\14.29.30133\include\vector
; File C:\Program Files (x86)\Microsoft Visual Studio\2019\Professional\VC\Tools\MSVC\14.29.30133\include\xmemory
; File C:\Program Files (x86)\Microsoft Visual Studio\2019\Professional\VC\Tools\MSVC\14.29.30133\include\vector
; File C:\Program Files (x86)\Microsoft Visual Studio\2019\Professional\VC\Tools\MSVC\14.29.30133\include\xmemory
; File C:\Program Files (x86)\Microsoft Visual Studio\2019\Professional\VC\Tools\MSVC\14.29.30133\include\vector
; File C:\Program Files (x86)\Microsoft Visual Studio\2019\Professional\VC\Tools\MSVC\14.29.30133\include\xmemory
; File C:\Program Files (x86)\Microsoft Visual Studio\2019\Professional\VC\Tools\MSVC\14.29.30133\include\vector
; File C:\Users\murat\Desktop\Siveps2-1-99-Project\source\client\Client\eterLib\Pool.h
; File C:\Program Files (x86)\Microsoft Visual Studio\2019\Professional\VC\Tools\MSVC\14.29.30133\include\xmemory
; File C:\Users\murat\Desktop\Siveps2-1-99-Project\source\client\Client\eterLib\Pool.h
;	COMDAT ??1?$CDynamicPoolEx@VCGravityDecorator@NEffectUpdateDecorator@@@@UAE@XZ
_TEXT	SEGMENT
??1?$CDynamicPoolEx@VCGravityDecorator@NEffectUpdateDecorator@@@@UAE@XZ PROC ; CDynamicPoolEx<NEffectUpdateDecorator::CGravityDecorator>::~CDynamicPoolEx<NEffectUpdateDecorator::CGravityDecorator>, COMDAT
; _this$ = ecx

; 132  : 		{

  00000	53		 push	 ebx
  00001	56		 push	 esi
  00002	57		 push	 edi
  00003	8b f9		 mov	 edi, ecx
  00005	c7 07 00 00 00
	00		 mov	 DWORD PTR [edi], OFFSET ??_7?$CDynamicPoolEx@VCGravityDecorator@NEffectUpdateDecorator@@@@6B@
; File C:\Program Files (x86)\Microsoft Visual Studio\2019\Professional\VC\Tools\MSVC\14.29.30133\include\vector

; 42   :     _CONSTEXPR20_CONTAINER _Vector_const_iterator(_Tptr _Parg, const _Container_base* _Pvector) noexcept : _Ptr(_Parg) {

  0000b	8b 5f 08	 mov	 ebx, DWORD PTR [edi+8]
  0000e	8b 77 04	 mov	 esi, DWORD PTR [edi+4]
; File C:\Program Files (x86)\Microsoft Visual Studio\2019\Professional\VC\Tools\MSVC\14.29.30133\include\algorithm

; 270  :     for (; _UFirst != _ULast; ++_UFirst) {

  00011	3b f3		 cmp	 esi, ebx
  00013	74 14		 je	 SHORT $LN19@CDynamicPo
$LL20@CDynamicPo:
; File C:\Users\murat\Desktop\Siveps2-1-99-Project\source\client\Client\eterLib\Pool.h

; 224  : 			::operator delete(pkData);

  00015	ff 36		 push	 DWORD PTR [esi]
  00017	e8 00 00 00 00	 call	 ??3@YAXPAX@Z		; operator delete
; File C:\Program Files (x86)\Microsoft Visual Studio\2019\Professional\VC\Tools\MSVC\14.29.30133\include\algorithm

; 270  :     for (; _UFirst != _ULast; ++_UFirst) {

  0001c	83 c6 04	 add	 esi, 4
; File C:\Users\murat\Desktop\Siveps2-1-99-Project\source\client\Client\eterLib\Pool.h

; 224  : 			::operator delete(pkData);

  0001f	83 c4 04	 add	 esp, 4
; File C:\Program Files (x86)\Microsoft Visual Studio\2019\Professional\VC\Tools\MSVC\14.29.30133\include\algorithm

; 270  :     for (; _UFirst != _ULast; ++_UFirst) {

  00022	3b f3		 cmp	 esi, ebx
  00024	75 ef		 jne	 SHORT $LL20@CDynamicPo
  00026	8b 77 04	 mov	 esi, DWORD PTR [edi+4]
$LN19@CDynamicPo:
; File C:\Users\murat\Desktop\Siveps2-1-99-Project\source\client\Client\eterLib\Pool.h

; 162  : 			m_kVct_pkFree.clear();

  00029	8b 47 10	 mov	 eax, DWORD PTR [edi+16]
  0002c	89 77 08	 mov	 DWORD PTR [edi+8], esi
  0002f	89 47 14	 mov	 DWORD PTR [edi+20], eax
; File C:\Program Files (x86)\Microsoft Visual Studio\2019\Professional\VC\Tools\MSVC\14.29.30133\include\vector

; 1763 :         if (_Myfirst) { // destroy and deallocate old array

  00032	85 c0		 test	 eax, eax
  00034	74 41		 je	 SHORT $LN27@CDynamicPo

; 1764 :             _Destroy(_Myfirst, _Mylast);
; 1765 :             _Getal().deallocate(_Myfirst, static_cast<size_type>(_Myend - _Myfirst));

  00036	8b 4f 18	 mov	 ecx, DWORD PTR [edi+24]
  00039	2b c8		 sub	 ecx, eax
; File C:\Program Files (x86)\Microsoft Visual Studio\2019\Professional\VC\Tools\MSVC\14.29.30133\include\xmemory

; 835  :         _Deallocate<_New_alignof<_Ty>>(_Ptr, sizeof(_Ty) * _Count);

  0003b	83 e1 fc	 and	 ecx, -4			; fffffffcH

; 260  :         if (_Bytes >= _Big_allocation_threshold) { // boost the alignment of big allocations to help autovectorization

  0003e	81 f9 00 10 00
	00		 cmp	 ecx, 4096		; 00001000H
  00044	72 12		 jb	 SHORT $LN43@CDynamicPo

; 158  :     const uintptr_t _Ptr_container   = _Ptr_user[-1];

  00046	8b 50 fc	 mov	 edx, DWORD PTR [eax-4]
  00049	83 c1 23	 add	 ecx, 35			; 00000023H

; 159  : 
; 160  :     // If the following asserts, it likely means that we are performing
; 161  :     // an aligned delete on memory coming from an unaligned allocation.
; 162  :     _STL_ASSERT(_Ptr_user[-2] == _Big_allocation_sentinel, "invalid argument");
; 163  : 
; 164  :     // Extra paranoia on aligned allocation/deallocation; ensure _Ptr_container is
; 165  :     // in range [_Min_back_shift, _Non_user_size]
; 166  : #ifdef _DEBUG
; 167  :     constexpr uintptr_t _Min_back_shift = 2 * sizeof(void*);
; 168  : #else // ^^^ _DEBUG ^^^ // vvv !_DEBUG vvv
; 169  :     constexpr uintptr_t _Min_back_shift = sizeof(void*);
; 170  : #endif // _DEBUG
; 171  :     const uintptr_t _Back_shift = reinterpret_cast<uintptr_t>(_Ptr) - _Ptr_container;

  0004c	2b c2		 sub	 eax, edx

; 172  :     _STL_VERIFY(_Back_shift >= _Min_back_shift && _Back_shift <= _Non_user_size, "invalid argument");

  0004e	83 c0 fc	 add	 eax, -4			; fffffffcH
  00051	83 f8 1f	 cmp	 eax, 31			; 0000001fH
  00054	77 6d		 ja	 SHORT $LN65@CDynamicPo

; 173  :     _Ptr = reinterpret_cast<void*>(_Ptr_container);

  00056	8b c2		 mov	 eax, edx
$LN43@CDynamicPo:

; 264  :         ::operator delete(_Ptr, _Bytes);

  00058	51		 push	 ecx
  00059	50		 push	 eax
  0005a	e8 00 00 00 00	 call	 ??3@YAXPAXI@Z		; operator delete
; File C:\Program Files (x86)\Microsoft Visual Studio\2019\Professional\VC\Tools\MSVC\14.29.30133\include\vector

; 1767 :             _Myfirst = nullptr;

  0005f	c7 47 10 00 00
	00 00		 mov	 DWORD PTR [edi+16], 0
; File C:\Program Files (x86)\Microsoft Visual Studio\2019\Professional\VC\Tools\MSVC\14.29.30133\include\xmemory

; 264  :         ::operator delete(_Ptr, _Bytes);

  00066	83 c4 08	 add	 esp, 8
; File C:\Program Files (x86)\Microsoft Visual Studio\2019\Professional\VC\Tools\MSVC\14.29.30133\include\vector

; 1768 :             _Mylast  = nullptr;

  00069	c7 47 14 00 00
	00 00		 mov	 DWORD PTR [edi+20], 0

; 1769 :             _Myend   = nullptr;

  00070	c7 47 18 00 00
	00 00		 mov	 DWORD PTR [edi+24], 0
$LN27@CDynamicPo:

; 1763 :         if (_Myfirst) { // destroy and deallocate old array

  00077	8b 47 04	 mov	 eax, DWORD PTR [edi+4]
  0007a	85 c0		 test	 eax, eax
  0007c	74 41		 je	 SHORT $LN52@CDynamicPo

; 1764 :             _Destroy(_Myfirst, _Mylast);
; 1765 :             _Getal().deallocate(_Myfirst, static_cast<size_type>(_Myend - _Myfirst));

  0007e	8b 4f 0c	 mov	 ecx, DWORD PTR [edi+12]
  00081	2b c8		 sub	 ecx, eax
; File C:\Program Files (x86)\Microsoft Visual Studio\2019\Professional\VC\Tools\MSVC\14.29.30133\include\xmemory

; 835  :         _Deallocate<_New_alignof<_Ty>>(_Ptr, sizeof(_Ty) * _Count);

  00083	83 e1 fc	 and	 ecx, -4			; fffffffcH

; 260  :         if (_Bytes >= _Big_allocation_threshold) { // boost the alignment of big allocations to help autovectorization

  00086	81 f9 00 10 00
	00		 cmp	 ecx, 4096		; 00001000H
  0008c	72 12		 jb	 SHORT $LN68@CDynamicPo

; 158  :     const uintptr_t _Ptr_container   = _Ptr_user[-1];

  0008e	8b 50 fc	 mov	 edx, DWORD PTR [eax-4]
  00091	83 c1 23	 add	 ecx, 35			; 00000023H

; 159  : 
; 160  :     // If the following asserts, it likely means that we are performing
; 161  :     // an aligned delete on memory coming from an unaligned allocation.
; 162  :     _STL_ASSERT(_Ptr_user[-2] == _Big_allocation_sentinel, "invalid argument");
; 163  : 
; 164  :     // Extra paranoia on aligned allocation/deallocation; ensure _Ptr_container is
; 165  :     // in range [_Min_back_shift, _Non_user_size]
; 166  : #ifdef _DEBUG
; 167  :     constexpr uintptr_t _Min_back_shift = 2 * sizeof(void*);
; 168  : #else // ^^^ _DEBUG ^^^ // vvv !_DEBUG vvv
; 169  :     constexpr uintptr_t _Min_back_shift = sizeof(void*);
; 170  : #endif // _DEBUG
; 171  :     const uintptr_t _Back_shift = reinterpret_cast<uintptr_t>(_Ptr) - _Ptr_container;

  00094	2b c2		 sub	 eax, edx

; 172  :     _STL_VERIFY(_Back_shift >= _Min_back_shift && _Back_shift <= _Non_user_size, "invalid argument");

  00096	83 c0 fc	 add	 eax, -4			; fffffffcH
  00099	83 f8 1f	 cmp	 eax, 31			; 0000001fH
  0009c	77 25		 ja	 SHORT $LN65@CDynamicPo

; 173  :     _Ptr = reinterpret_cast<void*>(_Ptr_container);

  0009e	8b c2		 mov	 eax, edx
$LN68@CDynamicPo:

; 264  :         ::operator delete(_Ptr, _Bytes);

  000a0	51		 push	 ecx
  000a1	50		 push	 eax
  000a2	e8 00 00 00 00	 call	 ??3@YAXPAXI@Z		; operator delete
; File C:\Program Files (x86)\Microsoft Visual Studio\2019\Professional\VC\Tools\MSVC\14.29.30133\include\vector

; 1767 :             _Myfirst = nullptr;

  000a7	c7 47 04 00 00
	00 00		 mov	 DWORD PTR [edi+4], 0
; File C:\Program Files (x86)\Microsoft Visual Studio\2019\Professional\VC\Tools\MSVC\14.29.30133\include\xmemory

; 264  :         ::operator delete(_Ptr, _Bytes);

  000ae	83 c4 08	 add	 esp, 8
; File C:\Program Files (x86)\Microsoft Visual Studio\2019\Professional\VC\Tools\MSVC\14.29.30133\include\vector

; 1768 :             _Mylast  = nullptr;

  000b1	c7 47 08 00 00
	00 00		 mov	 DWORD PTR [edi+8], 0

; 1769 :             _Myend   = nullptr;

  000b8	c7 47 0c 00 00
	00 00		 mov	 DWORD PTR [edi+12], 0
$LN52@CDynamicPo:
  000bf	5f		 pop	 edi
; File C:\Users\murat\Desktop\Siveps2-1-99-Project\source\client\Client\eterLib\Pool.h

; 142  : 		}

  000c0	5e		 pop	 esi
  000c1	5b		 pop	 ebx
  000c2	c3		 ret	 0
$LN65@CDynamicPo:
; File C:\Program Files (x86)\Microsoft Visual Studio\2019\Professional\VC\Tools\MSVC\14.29.30133\include\xmemory

; 172  :     _STL_VERIFY(_Back_shift >= _Min_back_shift && _Back_shift <= _Non_user_size, "invalid argument");

  000c3	e8 00 00 00 00	 call	 __invalid_parameter_noinfo_noreturn
$LN77@CDynamicPo:
  000c8	cc		 int	 3
??1?$CDynamicPoolEx@VCGravityDecorator@NEffectUpdateDecorator@@@@UAE@XZ ENDP ; CDynamicPoolEx<NEffectUpdateDecorator::CGravityDecorator>::~CDynamicPoolEx<NEffectUpdateDecorator::CGravityDecorator>
_TEXT	ENDS
; Function compile flags: /Ogtp
;	COMDAT ??_G?$CDynamicPoolEx@VCRotationDecorator@NEffectUpdateDecorator@@@@UAEPAXI@Z
_TEXT	SEGMENT
___flags$ = 8						; size = 4
??_G?$CDynamicPoolEx@VCRotationDecorator@NEffectUpdateDecorator@@@@UAEPAXI@Z PROC ; CDynamicPoolEx<NEffectUpdateDecorator::CRotationDecorator>::`scalar deleting destructor', COMDAT
; _this$ = ecx
  00000	55		 push	 ebp
  00001	8b ec		 mov	 ebp, esp
  00003	56		 push	 esi
  00004	8b f1		 mov	 esi, ecx
  00006	e8 00 00 00 00	 call	 ??1?$CDynamicPoolEx@VCRotationDecorator@NEffectUpdateDecorator@@@@UAE@XZ ; CDynamicPoolEx<NEffectUpdateDecorator::CRotationDecorator>::~CDynamicPoolEx<NEffectUpdateDecorator::CRotationDecorator>
  0000b	f6 45 08 01	 test	 BYTE PTR ___flags$[ebp], 1
  0000f	74 0b		 je	 SHORT $LN4@scalar
  00011	6a 24		 push	 36			; 00000024H
  00013	56		 push	 esi
  00014	e8 00 00 00 00	 call	 ??3@YAXPAXI@Z		; operator delete
  00019	83 c4 08	 add	 esp, 8
$LN4@scalar:
  0001c	8b c6		 mov	 eax, esi
  0001e	5e		 pop	 esi
  0001f	5d		 pop	 ebp
  00020	c2 04 00	 ret	 4
??_G?$CDynamicPoolEx@VCRotationDecorator@NEffectUpdateDecorator@@@@UAEPAXI@Z ENDP ; CDynamicPoolEx<NEffectUpdateDecorator::CRotationDecorator>::`scalar deleting destructor'
_TEXT	ENDS
; Function compile flags: /Ogtp
; File C:\Users\murat\Desktop\Siveps2-1-99-Project\source\client\Client\eterLib\Pool.h
;	COMDAT ?Delete@?$CDynamicPoolEx@VCRotationDecorator@NEffectUpdateDecorator@@@@KAXPAVCRotationDecorator@NEffectUpdateDecorator@@@Z
_TEXT	SEGMENT
_pkData$ = 8						; size = 4
?Delete@?$CDynamicPoolEx@VCRotationDecorator@NEffectUpdateDecorator@@@@KAXPAVCRotationDecorator@NEffectUpdateDecorator@@@Z PROC ; CDynamicPoolEx<NEffectUpdateDecorator::CRotationDecorator>::Delete, COMDAT

; 224  : 			::operator delete(pkData);

  00000	e9 00 00 00 00	 jmp	 ??3@YAXPAX@Z		; operator delete
?Delete@?$CDynamicPoolEx@VCRotationDecorator@NEffectUpdateDecorator@@@@KAXPAVCRotationDecorator@NEffectUpdateDecorator@@@Z ENDP ; CDynamicPoolEx<NEffectUpdateDecorator::CRotationDecorator>::Delete
_TEXT	ENDS
; Function compile flags: /Ogtp
; File C:\Users\murat\Desktop\Siveps2-1-99-Project\source\client\Client\eterLib\Pool.h
; File C:\Program Files (x86)\Microsoft Visual Studio\2019\Professional\VC\Tools\MSVC\14.29.30133\include\vector
; File C:\Program Files (x86)\Microsoft Visual Studio\2019\Professional\VC\Tools\MSVC\14.29.30133\include\algorithm
; File C:\Users\murat\Desktop\Siveps2-1-99-Project\source\client\Client\eterLib\Pool.h
; File C:\Program Files (x86)\Microsoft Visual Studio\2019\Professional\VC\Tools\MSVC\14.29.30133\include\algorithm
; File C:\Users\murat\Desktop\Siveps2-1-99-Project\source\client\Client\eterLib\Pool.h
; File C:\Program Files (x86)\Microsoft Visual Studio\2019\Professional\VC\Tools\MSVC\14.29.30133\include\algorithm
; File C:\Users\murat\Desktop\Siveps2-1-99-Project\source\client\Client\eterLib\Pool.h
; File C:\Program Files (x86)\Microsoft Visual Studio\2019\Professional\VC\Tools\MSVC\14.29.30133\include\vector
; File C:\Program Files (x86)\Microsoft Visual Studio\2019\Professional\VC\Tools\MSVC\14.29.30133\include\xmemory
; File C:\Program Files (x86)\Microsoft Visual Studio\2019\Professional\VC\Tools\MSVC\14.29.30133\include\vector
; File C:\Program Files (x86)\Microsoft Visual Studio\2019\Professional\VC\Tools\MSVC\14.29.30133\include\xmemory
; File C:\Program Files (x86)\Microsoft Visual Studio\2019\Professional\VC\Tools\MSVC\14.29.30133\include\vector
; File C:\Program Files (x86)\Microsoft Visual Studio\2019\Professional\VC\Tools\MSVC\14.29.30133\include\xmemory
; File C:\Program Files (x86)\Microsoft Visual Studio\2019\Professional\VC\Tools\MSVC\14.29.30133\include\vector
; File C:\Program Files (x86)\Microsoft Visual Studio\2019\Professional\VC\Tools\MSVC\14.29.30133\include\xmemory
; File C:\Program Files (x86)\Microsoft Visual Studio\2019\Professional\VC\Tools\MSVC\14.29.30133\include\vector
; File C:\Users\murat\Desktop\Siveps2-1-99-Project\source\client\Client\eterLib\Pool.h
; File C:\Program Files (x86)\Microsoft Visual Studio\2019\Professional\VC\Tools\MSVC\14.29.30133\include\xmemory
; File C:\Users\murat\Desktop\Siveps2-1-99-Project\source\client\Client\eterLib\Pool.h
;	COMDAT ??1?$CDynamicPoolEx@VCRotationDecorator@NEffectUpdateDecorator@@@@UAE@XZ
_TEXT	SEGMENT
??1?$CDynamicPoolEx@VCRotationDecorator@NEffectUpdateDecorator@@@@UAE@XZ PROC ; CDynamicPoolEx<NEffectUpdateDecorator::CRotationDecorator>::~CDynamicPoolEx<NEffectUpdateDecorator::CRotationDecorator>, COMDAT
; _this$ = ecx

; 132  : 		{

  00000	53		 push	 ebx
  00001	56		 push	 esi
  00002	57		 push	 edi
  00003	8b f9		 mov	 edi, ecx
  00005	c7 07 00 00 00
	00		 mov	 DWORD PTR [edi], OFFSET ??_7?$CDynamicPoolEx@VCRotationDecorator@NEffectUpdateDecorator@@@@6B@
; File C:\Program Files (x86)\Microsoft Visual Studio\2019\Professional\VC\Tools\MSVC\14.29.30133\include\vector

; 42   :     _CONSTEXPR20_CONTAINER _Vector_const_iterator(_Tptr _Parg, const _Container_base* _Pvector) noexcept : _Ptr(_Parg) {

  0000b	8b 5f 08	 mov	 ebx, DWORD PTR [edi+8]
  0000e	8b 77 04	 mov	 esi, DWORD PTR [edi+4]
; File C:\Program Files (x86)\Microsoft Visual Studio\2019\Professional\VC\Tools\MSVC\14.29.30133\include\algorithm

; 270  :     for (; _UFirst != _ULast; ++_UFirst) {

  00011	3b f3		 cmp	 esi, ebx
  00013	74 14		 je	 SHORT $LN19@CDynamicPo
$LL20@CDynamicPo:
; File C:\Users\murat\Desktop\Siveps2-1-99-Project\source\client\Client\eterLib\Pool.h

; 224  : 			::operator delete(pkData);

  00015	ff 36		 push	 DWORD PTR [esi]
  00017	e8 00 00 00 00	 call	 ??3@YAXPAX@Z		; operator delete
; File C:\Program Files (x86)\Microsoft Visual Studio\2019\Professional\VC\Tools\MSVC\14.29.30133\include\algorithm

; 270  :     for (; _UFirst != _ULast; ++_UFirst) {

  0001c	83 c6 04	 add	 esi, 4
; File C:\Users\murat\Desktop\Siveps2-1-99-Project\source\client\Client\eterLib\Pool.h

; 224  : 			::operator delete(pkData);

  0001f	83 c4 04	 add	 esp, 4
; File C:\Program Files (x86)\Microsoft Visual Studio\2019\Professional\VC\Tools\MSVC\14.29.30133\include\algorithm

; 270  :     for (; _UFirst != _ULast; ++_UFirst) {

  00022	3b f3		 cmp	 esi, ebx
  00024	75 ef		 jne	 SHORT $LL20@CDynamicPo
  00026	8b 77 04	 mov	 esi, DWORD PTR [edi+4]
$LN19@CDynamicPo:
; File C:\Users\murat\Desktop\Siveps2-1-99-Project\source\client\Client\eterLib\Pool.h

; 162  : 			m_kVct_pkFree.clear();

  00029	8b 47 10	 mov	 eax, DWORD PTR [edi+16]
  0002c	89 77 08	 mov	 DWORD PTR [edi+8], esi
  0002f	89 47 14	 mov	 DWORD PTR [edi+20], eax
; File C:\Program Files (x86)\Microsoft Visual Studio\2019\Professional\VC\Tools\MSVC\14.29.30133\include\vector

; 1763 :         if (_Myfirst) { // destroy and deallocate old array

  00032	85 c0		 test	 eax, eax
  00034	74 41		 je	 SHORT $LN27@CDynamicPo

; 1764 :             _Destroy(_Myfirst, _Mylast);
; 1765 :             _Getal().deallocate(_Myfirst, static_cast<size_type>(_Myend - _Myfirst));

  00036	8b 4f 18	 mov	 ecx, DWORD PTR [edi+24]
  00039	2b c8		 sub	 ecx, eax
; File C:\Program Files (x86)\Microsoft Visual Studio\2019\Professional\VC\Tools\MSVC\14.29.30133\include\xmemory

; 835  :         _Deallocate<_New_alignof<_Ty>>(_Ptr, sizeof(_Ty) * _Count);

  0003b	83 e1 fc	 and	 ecx, -4			; fffffffcH

; 260  :         if (_Bytes >= _Big_allocation_threshold) { // boost the alignment of big allocations to help autovectorization

  0003e	81 f9 00 10 00
	00		 cmp	 ecx, 4096		; 00001000H
  00044	72 12		 jb	 SHORT $LN43@CDynamicPo

; 158  :     const uintptr_t _Ptr_container   = _Ptr_user[-1];

  00046	8b 50 fc	 mov	 edx, DWORD PTR [eax-4]
  00049	83 c1 23	 add	 ecx, 35			; 00000023H

; 159  : 
; 160  :     // If the following asserts, it likely means that we are performing
; 161  :     // an aligned delete on memory coming from an unaligned allocation.
