; Listing generated by Microsoft (R) Optimizing Compiler Version 19.29.30137.0 

	TITLE	C:\Users\murat\Desktop\Siveps2-1-99-Project\source\client\Client\GameLib\Distribute\MapManager.obj
	.686P
	.XMM
	include listing.inc
	.model	flat

INCLUDELIB LIBCMT
INCLUDELIB OLDNAMES

CONST	SEGMENT
?_Fake_alloc@std@@3U_Fake_allocator@1@B	ORG $+1		; std::_Fake_alloc
CONST	ENDS
PUBLIC	??_H@YGXPAXIIP6EPAX0@Z@Z			; `vector constructor iterator'
PUBLIC	___local_stdio_scanf_options
PUBLIC	_sscanf
PUBLIC	??0exception@std@@QAE@ABV01@@Z			; std::exception::exception
PUBLIC	??1exception@std@@UAE@XZ			; std::exception::~exception
PUBLIC	?what@exception@std@@UBEPBDXZ			; std::exception::what
PUBLIC	??_Gexception@std@@UAEPAXI@Z			; std::exception::`scalar deleting destructor'
PUBLIC	??0bad_alloc@std@@QAE@ABV01@@Z			; std::bad_alloc::bad_alloc
PUBLIC	??_Gbad_alloc@std@@UAEPAXI@Z			; std::bad_alloc::`scalar deleting destructor'
PUBLIC	??0bad_array_new_length@std@@QAE@XZ		; std::bad_array_new_length::bad_array_new_length
PUBLIC	??1bad_array_new_length@std@@UAE@XZ		; std::bad_array_new_length::~bad_array_new_length
PUBLIC	??0bad_array_new_length@std@@QAE@ABV01@@Z	; std::bad_array_new_length::bad_array_new_length
PUBLIC	??_Gbad_array_new_length@std@@UAEPAXI@Z		; std::bad_array_new_length::`scalar deleting destructor'
PUBLIC	?_Throw_bad_array_new_length@std@@YAXXZ		; std::_Throw_bad_array_new_length
PUBLIC	?_Xlen_string@std@@YAXXZ			; std::_Xlen_string
PUBLIC	??0?$basic_string@DU?$char_traits@D@std@@V?$allocator@D@2@@std@@QAE@XZ ; std::basic_string<char,std::char_traits<char>,std::allocator<char> >::basic_string<char,std::char_traits<char>,std::allocator<char> >
PUBLIC	??1?$basic_string@DU?$char_traits@D@std@@V?$allocator@D@2@@std@@QAE@XZ ; std::basic_string<char,std::char_traits<char>,std::allocator<char> >::~basic_string<char,std::char_traits<char>,std::allocator<char> >
PUBLIC	?assign@?$basic_string@DU?$char_traits@D@std@@V?$allocator@D@2@@std@@QAEAAV12@QBDI@Z ; std::basic_string<char,std::char_traits<char>,std::allocator<char> >::assign
PUBLIC	?_Throw_tree_length_error@std@@YAXXZ		; std::_Throw_tree_length_error
PUBLIC	??_GSEnvironmentData@@QAEPAXI@Z			; SEnvironmentData::`scalar deleting destructor'
PUBLIC	??$_Allocate_manually_vector_aligned@U_Default_allocate_traits@std@@@std@@YAPAXI@Z ; std::_Allocate_manually_vector_aligned<std::_Default_allocate_traits>
PUBLIC	??$_Traits_equal@U?$char_traits@D@std@@@std@@YA_NQBDI0I@Z ; std::_Traits_equal<std::char_traits<char> >
PUBLIC	??1IPhysicsWorld@@UAE@XZ			; IPhysicsWorld::~IPhysicsWorld
PUBLIC	??_GIPhysicsWorld@@UAEPAXI@Z			; IPhysicsWorld::`scalar deleting destructor'
PUBLIC	??0CMapManager@@QAE@XZ				; CMapManager::CMapManager
PUBLIC	??1CMapManager@@UAE@XZ				; CMapManager::~CMapManager
PUBLIC	?IsMapOutdoor@CMapManager@@QAE_NXZ		; CMapManager::IsMapOutdoor
PUBLIC	?GetMapOutdoorRef@CMapManager@@QAEAAVCMapOutdoor@@XZ ; CMapManager::GetMapOutdoorRef
PUBLIC	?IsSoftwareTilingEnable@CMapManager@@QAE_NXZ	; CMapManager::IsSoftwareTilingEnable
PUBLIC	?ReserveSoftwareTilingEnable@CMapManager@@QAEX_N@Z ; CMapManager::ReserveSoftwareTilingEnable
PUBLIC	?Initialize@CMapManager@@QAEXXZ			; CMapManager::Initialize
PUBLIC	?Destroy@CMapManager@@QAEXXZ			; CMapManager::Destroy
PUBLIC	?Create@CMapManager@@QAEXXZ			; CMapManager::Create
PUBLIC	?Clear@CMapManager@@UAEXXZ			; CMapManager::Clear
PUBLIC	?AllocMap@CMapManager@@UAEPAVCMapBase@@XZ	; CMapManager::AllocMap
PUBLIC	?IsMapReady@CMapManager@@QAE_NXZ		; CMapManager::IsMapReady
PUBLIC	?LoadMap@CMapManager@@UAE_NABV?$basic_string@DU?$char_traits@D@std@@V?$allocator@D@2@@std@@MMM@Z ; CMapManager::LoadMap
PUBLIC	?UnloadMap@CMapManager@@QAE_NV?$basic_string@DU?$char_traits@D@std@@V?$allocator@D@2@@std@@@Z ; CMapManager::UnloadMap
PUBLIC	?UpdateMap@CMapManager@@QAE_NMMM@Z		; CMapManager::UpdateMap
PUBLIC	?UpdateAroundAmbience@CMapManager@@QAEXMMM@Z	; CMapManager::UpdateAroundAmbience
PUBLIC	?GetHeight@CMapManager@@QAEMMM@Z		; CMapManager::GetHeight
PUBLIC	?GetTerrainHeight@CMapManager@@QAEMMM@Z		; CMapManager::GetTerrainHeight
PUBLIC	?GetWaterHeight@CMapManager@@QAE_NHHPAJ@Z	; CMapManager::GetWaterHeight
PUBLIC	?GetNormal@CMapManager@@QAE_NHHPAUD3DXVECTOR3@@@Z ; CMapManager::GetNormal
PUBLIC	?SetEnvironmentDataPtr@CMapManager@@QAEXPBUSEnvironmentData@@@Z ; CMapManager::SetEnvironmentDataPtr
PUBLIC	?ResetEnvironmentDataPtr@CMapManager@@QAEXPBUSEnvironmentData@@@Z ; CMapManager::ResetEnvironmentDataPtr
PUBLIC	?SetEnvironmentData@CMapManager@@QAEXH@Z	; CMapManager::SetEnvironmentData
PUBLIC	?BeginEnvironment@CMapManager@@QAEXXZ		; CMapManager::BeginEnvironment
PUBLIC	?EndEnvironment@CMapManager@@QAEXXZ		; CMapManager::EndEnvironment
PUBLIC	?BlendEnvironmentData@CMapManager@@QAEXPBUSEnvironmentData@@H@Z ; CMapManager::BlendEnvironmentData
PUBLIC	?GetCurrentEnvironmentData@CMapManager@@QAEXPAPBUSEnvironmentData@@@Z ; CMapManager::GetCurrentEnvironmentData
PUBLIC	?RegisterEnvironmentData@CMapManager@@QAE_NKPBD@Z ; CMapManager::RegisterEnvironmentData
PUBLIC	?GetEnvironmentData@CMapManager@@QAE_NKPAPBUSEnvironmentData@@@Z ; CMapManager::GetEnvironmentData
PUBLIC	?RefreshPortal@CMapManager@@QAEXXZ		; CMapManager::RefreshPortal
PUBLIC	?ClearPortal@CMapManager@@QAEXXZ		; CMapManager::ClearPortal
PUBLIC	?AddShowingPortalID@CMapManager@@QAEXH@Z	; CMapManager::AddShowingPortalID
PUBLIC	?LoadProperty@CMapManager@@QAEXXZ		; CMapManager::LoadProperty
PUBLIC	?GetShadowMapColor@CMapManager@@QAEKMM@Z	; CMapManager::GetShadowMapColor
PUBLIC	?isPhysicalCollision@CMapManager@@UAE_NABUD3DXVECTOR3@@@Z ; CMapManager::isPhysicalCollision
PUBLIC	?isAttrOn@CMapManager@@QAE_NMME@Z		; CMapManager::isAttrOn
PUBLIC	?GetAttr@CMapManager@@QAE_NMMPAE@Z		; CMapManager::GetAttr
PUBLIC	?isAttrOn@CMapManager@@QAE_NHHE@Z		; CMapManager::isAttrOn
PUBLIC	?GetAttr@CMapManager@@QAE_NHHPAE@Z		; CMapManager::GetAttr
PUBLIC	?GetRenderedSplatNum@CMapManager@@QAEAAV?$vector@HV?$allocator@H@std@@@std@@PAH0PAM@Z ; CMapManager::GetRenderedSplatNum
PUBLIC	?GetRenderedGraphicThingInstanceNum@CMapManager@@QAEAAV?$vector@USCRCWithNumber@CArea@@V?$allocator@USCRCWithNumber@CArea@@@std@@@std@@PAK0@Z ; CMapManager::GetRenderedGraphicThingInstanceNum
PUBLIC	?AllocEnvironmentData@CMapManager@@IAEPAUSEnvironmentData@@XZ ; CMapManager::AllocEnvironmentData
PUBLIC	?DeleteEnvironmentData@CMapManager@@IAEXPAUSEnvironmentData@@@Z ; CMapManager::DeleteEnvironmentData
PUBLIC	?LoadEnvironmentData@CMapManager@@IAEHPBDPAUSEnvironmentData@@@Z ; CMapManager::LoadEnvironmentData
PUBLIC	??1?$_Tree@V?$_Tmap_traits@KPAUSEnvironmentData@@U?$less@K@std@@V?$allocator@U?$pair@$$CBKPAUSEnvironmentData@@@std@@@3@$0A@@std@@@std@@QAE@XZ ; std::_Tree<std::_Tmap_traits<unsigned long,SEnvironmentData *,std::less<unsigned long>,std::allocator<std::pair<unsigned long const ,SEnvironmentData *> >,0> >::~_Tree<std::_Tmap_traits<unsigned long,SEnvironmentData *,std::less<unsigned long>,std::allocator<std::pair<unsigned long const ,SEnvironmentData *> >,0> >
PUBLIC	?_Insert_node@?$_Tree_val@U?$_Tree_simple_types@U?$pair@$$CBKPAUSEnvironmentData@@@std@@@std@@@std@@QAEPAU?$_Tree_node@U?$pair@$$CBKPAUSEnvironmentData@@@std@@PAX@2@U?$_Tree_id@PAU?$_Tree_node@U?$pair@$$CBKPAUSEnvironmentData@@@std@@PAX@std@@@2@QAU32@@Z ; std::_Tree_val<std::_Tree_simple_types<std::pair<unsigned long const ,SEnvironmentData *> > >::_Insert_node
PUBLIC	??1?$map@KPAUSEnvironmentData@@U?$less@K@std@@V?$allocator@U?$pair@$$CBKPAUSEnvironmentData@@@std@@@3@@std@@QAE@XZ ; std::map<unsigned long,SEnvironmentData *,std::less<unsigned long>,std::allocator<std::pair<unsigned long const ,SEnvironmentData *> > >::~map<unsigned long,SEnvironmentData *,std::less<unsigned long>,std::allocator<std::pair<unsigned long const ,SEnvironmentData *> > >
PUBLIC	?SetTerrainRenderSort@CMapManager@@QAEXW4ETerrainRenderSort@CMapOutdoor@@@Z ; CMapManager::SetTerrainRenderSort
PUBLIC	?GetTerrainRenderSort@CMapManager@@QAE?AW4ETerrainRenderSort@CMapOutdoor@@XZ ; CMapManager::GetTerrainRenderSort
PUBLIC	?GetBaseXY@CMapManager@@QAEXPAK0@Z		; CMapManager::GetBaseXY
PUBLIC	?SetTransparentTree@CMapManager@@QAEX_N@Z	; CMapManager::SetTransparentTree
PUBLIC	??1TMapInfo@CMapManager@@QAE@XZ			; CMapManager::TMapInfo::~TMapInfo
PUBLIC	?deallocate@?$allocator@UTMapInfo@CMapManager@@@std@@QAEXQAUTMapInfo@CMapManager@@I@Z ; std::allocator<CMapManager::TMapInfo>::deallocate
PUBLIC	??1?$vector@UTMapInfo@CMapManager@@V?$allocator@UTMapInfo@CMapManager@@@std@@@std@@QAE@XZ ; std::vector<CMapManager::TMapInfo,std::allocator<CMapManager::TMapInfo> >::~vector<CMapManager::TMapInfo,std::allocator<CMapManager::TMapInfo> >
PUBLIC	?_Destroy@?$vector@UTMapInfo@CMapManager@@V?$allocator@UTMapInfo@CMapManager@@@std@@@std@@AAEXPAUTMapInfo@CMapManager@@0@Z ; std::vector<CMapManager::TMapInfo,std::allocator<CMapManager::TMapInfo> >::_Destroy
PUBLIC	?_Xlength@?$vector@UTMapInfo@CMapManager@@V?$allocator@UTMapInfo@CMapManager@@@std@@@std@@CAXXZ ; std::vector<CMapManager::TMapInfo,std::allocator<CMapManager::TMapInfo> >::_Xlength
PUBLIC	?__LoadMapInfoVector@CMapManager@@IAEXXZ	; CMapManager::__LoadMapInfoVector
PUBLIC	??_GCMapManager@@UAEPAXI@Z			; CMapManager::`scalar deleting destructor'
PUBLIC	??$stl_wipe_second@V?$map@KPAUSEnvironmentData@@U?$less@K@std@@V?$allocator@U?$pair@$$CBKPAUSEnvironmentData@@@std@@@3@@std@@@@YAXAAV?$map@KPAUSEnvironmentData@@U?$less@K@std@@V?$allocator@U?$pair@$$CBKPAUSEnvironmentData@@@std@@@3@@std@@@Z ; stl_wipe_second<std::map<unsigned long,SEnvironmentData *,std::less<unsigned long>,std::allocator<std::pair<unsigned long const ,SEnvironmentData *> > > >
PUBLIC	??$?9DU?$char_traits@D@std@@V?$allocator@D@1@@std@@YA_NABV?$basic_string@DU?$char_traits@D@std@@V?$allocator@D@2@@0@0@Z ; std::operator!=<char,std::char_traits<char>,std::allocator<char> >
PUBLIC	??$?9DU?$char_traits@D@std@@V?$allocator@D@1@@std@@YA_NQBDABV?$basic_string@DU?$char_traits@D@std@@V?$allocator@D@2@@0@@Z ; std::operator!=<char,std::char_traits<char>,std::allocator<char> >
PUBLIC	??$construct@UTMapInfo@CMapManager@@ABU12@@?$_Default_allocator_traits@V?$allocator@UTMapInfo@CMapManager@@@std@@@std@@SAXAAV?$allocator@UTMapInfo@CMapManager@@@1@QAUTMapInfo@CMapManager@@ABU34@@Z ; std::_Default_allocator_traits<std::allocator<CMapManager::TMapInfo> >::construct<CMapManager::TMapInfo,CMapManager::TMapInfo const &>
PUBLIC	??$_Emplace_reallocate@ABUTMapInfo@CMapManager@@@?$vector@UTMapInfo@CMapManager@@V?$allocator@UTMapInfo@CMapManager@@@std@@@std@@QAEPAUTMapInfo@CMapManager@@QAU23@ABU23@@Z ; std::vector<CMapManager::TMapInfo,std::allocator<CMapManager::TMapInfo> >::_Emplace_reallocate<CMapManager::TMapInfo const &>
PUBLIC	??$_Destroy_range@V?$allocator@UTMapInfo@CMapManager@@@std@@@std@@YAXPAUTMapInfo@CMapManager@@QAU12@AAV?$allocator@UTMapInfo@CMapManager@@@0@@Z ; std::_Destroy_range<std::allocator<CMapManager::TMapInfo> >
PUBLIC	??$?8DU?$char_traits@D@std@@V?$allocator@D@1@@std@@YA_NQBDABV?$basic_string@DU?$char_traits@D@std@@V?$allocator@D@2@@0@@Z ; std::operator==<char,std::char_traits<char>,std::allocator<char> >
PUBLIC	??$_Find_lower_bound@K@?$_Tree@V?$_Tmap_traits@KPAUSEnvironmentData@@U?$less@K@std@@V?$allocator@U?$pair@$$CBKPAUSEnvironmentData@@@std@@@3@$0A@@std@@@std@@IBE?AU?$_Tree_find_result@PAU?$_Tree_node@U?$pair@$$CBKPAUSEnvironmentData@@@std@@PAX@std@@@1@ABK@Z ; std::_Tree<std::_Tmap_traits<unsigned long,SEnvironmentData *,std::less<unsigned long>,std::allocator<std::pair<unsigned long const ,SEnvironmentData *> >,0> >::_Find_lower_bound<unsigned long>
PUBLIC	??$_Erase_tree@V?$allocator@U?$_Tree_node@U?$pair@$$CBKPAUSEnvironmentData@@@std@@PAX@std@@@std@@@?$_Tree_val@U?$_Tree_simple_types@U?$pair@$$CBKPAUSEnvironmentData@@@std@@@std@@@std@@QAEXAAV?$allocator@U?$_Tree_node@U?$pair@$$CBKPAUSEnvironmentData@@@std@@PAX@std@@@1@PAU?$_Tree_node@U?$pair@$$CBKPAUSEnvironmentData@@@std@@PAX@1@@Z ; std::_Tree_val<std::_Tree_simple_types<std::pair<unsigned long const ,SEnvironmentData *> > >::_Erase_tree<std::allocator<std::_Tree_node<std::pair<unsigned long const ,SEnvironmentData *>,void *> > >
PUBLIC	??$_Uninitialized_move@PAUTMapInfo@CMapManager@@V?$allocator@UTMapInfo@CMapManager@@@std@@@std@@YAPAUTMapInfo@CMapManager@@QAU12@0PAU12@AAV?$allocator@UTMapInfo@CMapManager@@@0@@Z ; std::_Uninitialized_move<CMapManager::TMapInfo *,std::allocator<CMapManager::TMapInfo> >
PUBLIC	??1?$_Alloc_construct_ptr@V?$allocator@U?$_Tree_node@U?$pair@$$CBKPAUSEnvironmentData@@@std@@PAX@std@@@std@@@std@@QAE@XZ ; std::_Alloc_construct_ptr<std::allocator<std::_Tree_node<std::pair<unsigned long const ,SEnvironmentData *>,void *> > >::~_Alloc_construct_ptr<std::allocator<std::_Tree_node<std::pair<unsigned long const ,SEnvironmentData *>,void *> > >
PUBLIC	??_ECMapManager@@W3AEPAXI@Z			; [thunk]:CMapManager::`vector deleting destructor'
PUBLIC	?_OptionsStorage@?1??__local_stdio_scanf_options@@9@4_KA ; `__local_stdio_scanf_options'::`2'::_OptionsStorage
PUBLIC	??_7exception@std@@6B@				; std::exception::`vftable'
PUBLIC	??_C@_0BC@EOODALEL@Unknown?5exception@		; `string'
PUBLIC	??_7bad_alloc@std@@6B@				; std::bad_alloc::`vftable'
PUBLIC	??_7bad_array_new_length@std@@6B@		; std::bad_array_new_length::`vftable'
PUBLIC	??_C@_0BF@KINCDENJ@bad?5array?5new?5length@	; `string'
PUBLIC	__TI3?AVbad_array_new_length@std@@
PUBLIC	__CTA3?AVbad_array_new_length@std@@
PUBLIC	??_R0?AVbad_array_new_length@std@@@8		; std::bad_array_new_length `RTTI Type Descriptor'
PUBLIC	__CT??_R0?AVbad_array_new_length@std@@@8??0bad_array_new_length@std@@QAE@ABV01@@Z12
PUBLIC	??_R0?AVbad_alloc@std@@@8			; std::bad_alloc `RTTI Type Descriptor'
PUBLIC	__CT??_R0?AVbad_alloc@std@@@8??0bad_alloc@std@@QAE@ABV01@@Z12
PUBLIC	??_R0?AVexception@std@@@8			; std::exception `RTTI Type Descriptor'
PUBLIC	__CT??_R0?AVexception@std@@@8??0exception@std@@QAE@ABV01@@Z12
PUBLIC	??_C@_0BA@JFNIOLAK@string?5too?5long@		; `string'
PUBLIC	??_C@_0BB@GCADKGJO@map?1set?5too?5long@		; `string'
PUBLIC	??_C@_00CNPNBAHC@@				; `string'
PUBLIC	??_R4exception@std@@6B@				; std::exception::`RTTI Complete Object Locator'
PUBLIC	??_R3exception@std@@8				; std::exception::`RTTI Class Hierarchy Descriptor'
PUBLIC	??_R2exception@std@@8				; std::exception::`RTTI Base Class Array'
PUBLIC	??_R1A@?0A@EA@exception@std@@8			; std::exception::`RTTI Base Class Descriptor at (0,-1,0,64)'
PUBLIC	??_R4bad_alloc@std@@6B@				; std::bad_alloc::`RTTI Complete Object Locator'
PUBLIC	??_R3bad_alloc@std@@8				; std::bad_alloc::`RTTI Class Hierarchy Descriptor'
PUBLIC	??_R2bad_alloc@std@@8				; std::bad_alloc::`RTTI Base Class Array'
PUBLIC	??_R1A@?0A@EA@bad_alloc@std@@8			; std::bad_alloc::`RTTI Base Class Descriptor at (0,-1,0,64)'
PUBLIC	??_R4bad_array_new_length@std@@6B@		; std::bad_array_new_length::`RTTI Complete Object Locator'
PUBLIC	??_R3bad_array_new_length@std@@8		; std::bad_array_new_length::`RTTI Class Hierarchy Descriptor'
PUBLIC	??_R2bad_array_new_length@std@@8		; std::bad_array_new_length::`RTTI Base Class Array'
PUBLIC	??_R1A@?0A@EA@bad_array_new_length@std@@8	; std::bad_array_new_length::`RTTI Base Class Descriptor at (0,-1,0,64)'
PUBLIC	?ms_singleton@?$CSingleton@VCStateManager@@@@0PAVCStateManager@@A ; CSingleton<CStateManager>::ms_singleton
PUBLIC	?ms_singleton@?$CSingleton@VCEterPackManager@@@@0PAVCEterPackManager@@A ; CSingleton<CEterPackManager>::ms_singleton
PUBLIC	?ms_singleton@?$CSingleton@VCSpeedTreeForestDirectX8@@@@0PAVCSpeedTreeForestDirectX8@@A ; CSingleton<CSpeedTreeForestDirectX8>::ms_singleton
PUBLIC	??_7IPhysicsWorld@@6B@				; IPhysicsWorld::`vftable'
PUBLIC	??_7CMapManager@@6BCScreen@@@			; CMapManager::`vftable'
PUBLIC	??_7CMapManager@@6BIPhysicsWorld@@@		; CMapManager::`vftable'
PUBLIC	??_C@_08MOOMJPBO@Property@			; `string'
PUBLIC	??_C@_03EMIMMIHL@?$CK?4?$CK@			; `string'
PUBLIC	??_C@_0CO@NOKMKMGJ@CMapManager?3?3LoadMap?$CI?$CJ?5Indoor?5M@ ; `string'
PUBLIC	??_C@_0CP@DDEONFBH@CMapManager?3?3LoadMap?$CI?$CJ?5Outdoor?5@ ; `string'
PUBLIC	??_C@_0CI@JGDAGOMB@CMapManager?3?3LoadMap?$CI?$CJ?5Invalid?5@ ; `string'
PUBLIC	??_C@_0BG@CFNBDNBB@?$CFs?3?5Unload?5Map?5Failed@ ; `string'
PUBLIC	??_C@_0EE@MJBLHJKJ@CMapManager?3?3GetHeight?$CI?$CFf?0?5?$CFf?$CJ?5@ ; `string'
PUBLIC	??_C@_0EL@GOMDBDNM@CMapManager?3?3GetTerrainHeight?$CI?$CF@ ; `string'
PUBLIC	??_C@_0BG@GDDCGLNK@null?5environment?5data@	; `string'
PUBLIC	??_C@_0O@EEKDAHG@AtlasInfo?4txt@		; `string'
PUBLIC	??_C@_0P@GOFAHLEL@?$CFs?5?$CFd?5?$CFd?5?$CFd?5?$CFd@ ; `string'
PUBLIC	??_C@_0BA@FOIKENOD@vector?5too?5long@		; `string'
PUBLIC	??_R1A@?0A@EA@CScreen@@8			; CScreen::`RTTI Base Class Descriptor at (0,-1,0,64)'
PUBLIC	??_R0?AVCScreen@@@8				; CScreen `RTTI Type Descriptor'
PUBLIC	??_R3CScreen@@8					; CScreen::`RTTI Class Hierarchy Descriptor'
PUBLIC	??_R2CScreen@@8					; CScreen::`RTTI Base Class Array'
PUBLIC	??_R1A@?0A@EA@CGraphicCollisionObject@@8	; CGraphicCollisionObject::`RTTI Base Class Descriptor at (0,-1,0,64)'
PUBLIC	??_R0?AVCGraphicCollisionObject@@@8		; CGraphicCollisionObject `RTTI Type Descriptor'
PUBLIC	??_R3CGraphicCollisionObject@@8			; CGraphicCollisionObject::`RTTI Class Hierarchy Descriptor'
PUBLIC	??_R2CGraphicCollisionObject@@8			; CGraphicCollisionObject::`RTTI Base Class Array'
PUBLIC	??_R1A@?0A@EA@CGraphicBase@@8			; CGraphicBase::`RTTI Base Class Descriptor at (0,-1,0,64)'
PUBLIC	??_R0?AVCGraphicBase@@@8			; CGraphicBase `RTTI Type Descriptor'
PUBLIC	??_R3CGraphicBase@@8				; CGraphicBase::`RTTI Class Hierarchy Descriptor'
PUBLIC	??_R2CGraphicBase@@8				; CGraphicBase::`RTTI Base Class Array'
PUBLIC	??_R4IPhysicsWorld@@6B@				; IPhysicsWorld::`RTTI Complete Object Locator'
PUBLIC	??_R0?AVIPhysicsWorld@@@8			; IPhysicsWorld `RTTI Type Descriptor'
PUBLIC	??_R3IPhysicsWorld@@8				; IPhysicsWorld::`RTTI Class Hierarchy Descriptor'
PUBLIC	??_R2IPhysicsWorld@@8				; IPhysicsWorld::`RTTI Base Class Array'
PUBLIC	??_R1A@?0A@EA@IPhysicsWorld@@8			; IPhysicsWorld::`RTTI Base Class Descriptor at (0,-1,0,64)'
PUBLIC	??_R4CMapManager@@6BCScreen@@@			; CMapManager::`RTTI Complete Object Locator'
PUBLIC	??_R0?AVCMapManager@@@8				; CMapManager `RTTI Type Descriptor'
PUBLIC	??_R3CMapManager@@8				; CMapManager::`RTTI Class Hierarchy Descriptor'
PUBLIC	??_R2CMapManager@@8				; CMapManager::`RTTI Base Class Array'
PUBLIC	??_R1A@?0A@EA@CMapManager@@8			; CMapManager::`RTTI Base Class Descriptor at (0,-1,0,64)'
PUBLIC	??_R13?0A@EA@IPhysicsWorld@@8			; IPhysicsWorld::`RTTI Base Class Descriptor at (4,-1,0,64)'
PUBLIC	??_R4CMapManager@@6BIPhysicsWorld@@@		; CMapManager::`RTTI Complete Object Locator'
PUBLIC	__real@00000000
PUBLIC	__real@3f000000
PUBLIC	__real@3f800000
PUBLIC	__real@437f0000
PUBLIC	__xmm@80000000800000008000000080000000
EXTRN	??_L@YGXPAXIIP6EX0@Z1@Z:PROC			; `eh vector constructor iterator'
EXTRN	??_M@YGXPAXIIP6EX0@Z@Z:PROC			; `eh vector destructor iterator'
EXTRN	__purecall:PROC
EXTRN	??2@YAPAXI@Z:PROC				; operator new
EXTRN	??3@YAXPAXI@Z:PROC				; operator delete
EXTRN	_atexit:PROC
EXTRN	__Init_thread_header:PROC
EXTRN	__Init_thread_footer:PROC
EXTRN	___std_terminate:PROC
EXTRN	__invalid_parameter_noinfo_noreturn:PROC
EXTRN	___stdio_common_vsscanf:PROC
EXTRN	___std_exception_copy:PROC
EXTRN	___std_exception_destroy:PROC
EXTRN	??_Eexception@std@@UAEPAXI@Z:PROC		; std::exception::`vector deleting destructor'
EXTRN	??_Ebad_alloc@std@@UAEPAXI@Z:PROC		; std::bad_alloc::`vector deleting destructor'
EXTRN	??_Ebad_array_new_length@std@@UAEPAXI@Z:PROC	; std::bad_array_new_length::`vector deleting destructor'
EXTRN	?_Xlength_error@std@@YAXPBD@Z:PROC		; std::_Xlength_error
EXTRN	?TraceError@@YAXPBDZZ:PROC			; TraceError
EXTRN	?LogBoxf@@YAXPBDZZ:PROC				; LogBoxf
EXTRN	??0CMemoryTextFileLoader@@QAE@XZ:PROC		; CMemoryTextFileLoader::CMemoryTextFileLoader
EXTRN	??1CMemoryTextFileLoader@@UAE@XZ:PROC		; CMemoryTextFileLoader::~CMemoryTextFileLoader
EXTRN	?Bind@CMemoryTextFileLoader@@QAEXHPBX@Z:PROC	; CMemoryTextFileLoader::Bind
EXTRN	?GetLineCount@CMemoryTextFileLoader@@QAEKXZ:PROC ; CMemoryTextFileLoader::GetLineCount
EXTRN	?GetLineString@CMemoryTextFileLoader@@QAEABV?$basic_string@DU?$char_traits@D@std@@V?$allocator@D@2@@std@@K@Z:PROC ; CMemoryTextFileLoader::GetLineString
EXTRN	??0CMappedFile@@QAE@XZ:PROC			; CMappedFile::CMappedFile
EXTRN	??1CMappedFile@@UAE@XZ:PROC			; CMappedFile::~CMappedFile
EXTRN	?Size@CMappedFile@@QAEKXZ:PROC			; CMappedFile::Size
EXTRN	??0CScreen@@QAE@XZ:PROC				; CScreen::CScreen
EXTRN	??1CScreen@@UAE@XZ:PROC				; CScreen::~CScreen
EXTRN	?GetFogNearDistance@SEnvironmentData@@QBEMXZ:PROC ; SEnvironmentData::GetFogNearDistance
EXTRN	?GetFogFarDistance@SEnvironmentData@@QBEMXZ:PROC ; SEnvironmentData::GetFogFarDistance
EXTRN	?Environment_Init@@YAXAAUSEnvironmentData@@@Z:PROC ; Environment_Init
EXTRN	?Environment_Load@@YA_NAAUSEnvironmentData@@PBD@Z:PROC ; Environment_Load
EXTRN	?SetMaterial@CStateManager@@QAEXPBU_D3DMATERIAL8@@@Z:PROC ; CStateManager::SetMaterial
EXTRN	?SaveRenderState@CStateManager@@QAEXW4_D3DRENDERSTATETYPE@@K@Z:PROC ; CStateManager::SaveRenderState
EXTRN	?RestoreRenderState@CStateManager@@QAEXW4_D3DRENDERSTATETYPE@@@Z:PROC ; CStateManager::RestoreRenderState
EXTRN	?SetRenderState@CStateManager@@QAEXW4_D3DRENDERSTATETYPE@@K@Z:PROC ; CStateManager::SetRenderState
EXTRN	?Get@CEterPackManager@@QAE_NAAVCMappedFile@@PBDPAPBX@Z:PROC ; CEterPackManager::Get
EXTRN	?SetFog@CSpeedTreeForest@@QAEXMM@Z:PROC		; CSpeedTreeForest::SetFog
EXTRN	??0CSpeedTreeForestDirectX8@@QAE@XZ:PROC	; CSpeedTreeForestDirectX8::CSpeedTreeForestDirectX8
EXTRN	??1CSpeedTreeForestDirectX8@@UAE@XZ:PROC	; CSpeedTreeForestDirectX8::~CSpeedTreeForestDirectX8
EXTRN	?SetEnvironmentDataPtr@CMapBase@@QAEXPBUSEnvironmentData@@@Z:PROC ; CMapBase::SetEnvironmentDataPtr
EXTRN	?ResetEnvironmentDataPtr@CMapBase@@QAEXPBUSEnvironmentData@@@Z:PROC ; CMapBase::ResetEnvironmentDataPtr
EXTRN	?Enter@CMapBase@@QAE_NXZ:PROC			; CMapBase::Enter
EXTRN	?Leave@CMapBase@@QAE_NXZ:PROC			; CMapBase::Leave
EXTRN	?LoadProperty@CMapBase@@QAE_NXZ:PROC		; CMapBase::LoadProperty
EXTRN	?ClearPortal@CArea@@QAEXXZ:PROC			; CArea::ClearPortal
EXTRN	?AddShowingPortalID@CArea@@QAEXH@Z:PROC		; CArea::AddShowingPortalID
EXTRN	?RefreshPortal@CArea@@QAEXXZ:PROC		; CArea::RefreshPortal
EXTRN	??0CMapOutdoor@@QAE@XZ:PROC			; CMapOutdoor::CMapOutdoor
EXTRN	?GetRenderedSplatNum@CMapOutdoor@@QAEAAV?$vector@HV?$allocator@H@std@@@std@@PAH0PAM@Z:PROC ; CMapOutdoor::GetRenderedSplatNum
EXTRN	?GetRenderedGraphicThingInstanceNum@CMapOutdoor@@QAEAAV?$vector@USCRCWithNumber@CArea@@V?$allocator@USCRCWithNumber@CArea@@@std@@@std@@PAK0@Z:PROC ; CMapOutdoor::GetRenderedGraphicThingInstanceNum
EXTRN	?GetShadowMapColor@CMapOutdoor@@QAEKMM@Z:PROC	; CMapOutdoor::GetShadowMapColor
EXTRN	?GetTerrainHeight@CMapOutdoor@@QAEMMM@Z:PROC	; CMapOutdoor::GetTerrainHeight
EXTRN	?GetWaterHeight@CMapOutdoor@@QAE_NHHPAJ@Z:PROC	; CMapOutdoor::GetWaterHeight
EXTRN	?GetNormal@CMapOutdoor@@QAE_NHHPAUD3DXVECTOR3@@@Z:PROC ; CMapOutdoor::GetNormal
EXTRN	?GetAreaPointer@CMapOutdoor@@QAEHEPAPAVCArea@@@Z:PROC ; CMapOutdoor::GetAreaPointer
EXTRN	?isAttrOn@CMapOutdoor@@QAE_NMME@Z:PROC		; CMapOutdoor::isAttrOn
EXTRN	?GetAttr@CMapOutdoor@@QAE_NMMPAE@Z:PROC		; CMapOutdoor::GetAttr
EXTRN	?isAttrOn@CMapOutdoor@@QAE_NHHE@Z:PROC		; CMapOutdoor::isAttrOn
EXTRN	?GetAttr@CMapOutdoor@@QAE_NHHPAE@Z:PROC		; CMapOutdoor::GetAttr
EXTRN	?GetBaseXY@CMapOutdoor@@QAEXPAK0@Z:PROC		; CMapOutdoor::GetBaseXY
EXTRN	?GetEnvironmentDataName@CMapOutdoor@@QAEAAV?$basic_string@DU?$char_traits@D@std@@V?$allocator@D@2@@std@@XZ:PROC ; CMapOutdoor::GetEnvironmentDataName
EXTRN	??0CPropertyManager@@QAE@XZ:PROC		; CPropertyManager::CPropertyManager
EXTRN	??1CPropertyManager@@UAE@XZ:PROC		; CPropertyManager::~CPropertyManager
EXTRN	??_EIPhysicsWorld@@UAEPAXI@Z:PROC		; IPhysicsWorld::`vector deleting destructor'
EXTRN	??_ECMapManager@@UAEPAXI@Z:PROC			; CMapManager::`vector deleting destructor'
EXTRN	?Create@CDir@@QAE_NPBD0H@Z:PROC			; CDir::Create
EXTRN	??0CPropertyLoader@@QAE@XZ:PROC			; CPropertyLoader::CPropertyLoader
EXTRN	??1CPropertyLoader@@UAE@XZ:PROC			; CPropertyLoader::~CPropertyLoader
EXTRN	?SetPropertyManager@CPropertyLoader@@QAEXPAVCPropertyManager@@@Z:PROC ; CPropertyLoader::SetPropertyManager
EXTRN	@__security_check_cookie@4:PROC
EXTRN	__CxxThrowException@8:PROC
EXTRN	___CxxFrameHandler3:PROC
EXTRN	__ftoui3:PROC
EXTRN	_memcpy:PROC
EXTRN	_memmove:PROC
EXTRN	__Init_thread_epoch:DWORD
EXTRN	??_7type_info@@6B@:QWORD			; type_info::`vftable'
EXTRN	?ms_lpd3dDevice@CGraphicBase@@1PAUIDirect3DDevice8@@A:DWORD ; CGraphicBase::ms_lpd3dDevice
EXTRN	?SOFTWARE_TRANSFORM_PATCH_ENABLE@CTerrainPatch@@2_NA:BYTE ; CTerrainPatch::SOFTWARE_TRANSFORM_PATCH_ENABLE
EXTRN	?ms_pWorld@IPhysicsWorld@@0PAV1@A:DWORD		; IPhysicsWorld::ms_pWorld
EXTRN	___security_cookie:DWORD
EXTRN	__fltused:DWORD
EXTRN	__tls_array:DWORD
EXTRN	__tls_index:DWORD
;	COMDAT ?_OptionsStorage@?1??__local_stdio_scanf_options@@9@4_KA
_BSS	SEGMENT
?_OptionsStorage@?1??__local_stdio_scanf_options@@9@4_KA DQ 01H DUP (?) ; `__local_stdio_scanf_options'::`2'::_OptionsStorage
_BSS	ENDS
;	COMDAT ?ms_singleton@?$CSingleton@VCStateManager@@@@0PAVCStateManager@@A
_BSS	SEGMENT
?ms_singleton@?$CSingleton@VCStateManager@@@@0PAVCStateManager@@A DD 01H DUP (?) ; CSingleton<CStateManager>::ms_singleton
_BSS	ENDS
;	COMDAT ?ms_singleton@?$CSingleton@VCEterPackManager@@@@0PAVCEterPackManager@@A
_BSS	SEGMENT
?ms_singleton@?$CSingleton@VCEterPackManager@@@@0PAVCEterPackManager@@A DD 01H DUP (?) ; CSingleton<CEterPackManager>::ms_singleton
_BSS	ENDS
;	COMDAT ?ms_singleton@?$CSingleton@VCSpeedTreeForestDirectX8@@@@0PAVCSpeedTreeForestDirectX8@@A
_BSS	SEGMENT
?ms_singleton@?$CSingleton@VCSpeedTreeForestDirectX8@@@@0PAVCSpeedTreeForestDirectX8@@A DD 01H DUP (?) ; CSingleton<CSpeedTreeForestDirectX8>::ms_singleton
_BSS	ENDS
;	COMDAT ?s_emptyVector@?4??GetRenderedSplatNum@CMapManager@@QAEAAV?$vector@HV?$allocator@H@std@@@std@@PAH0PAM@Z@4V34@A
_BSS	SEGMENT
?s_emptyVector@?4??GetRenderedSplatNum@CMapManager@@QAEAAV?$vector@HV?$allocator@H@std@@@std@@PAH0PAM@Z@4V34@A DB 0cH DUP (?) ; `CMapManager::GetRenderedSplatNum'::`5'::s_emptyVector
_BSS	ENDS
;	COMDAT ?$TSS0@?4??GetRenderedSplatNum@CMapManager@@QAEAAV?$vector@HV?$allocator@H@std@@@std@@PAH0PAM@Z@4HA
_BSS	SEGMENT
?$TSS0@?4??GetRenderedSplatNum@CMapManager@@QAEAAV?$vector@HV?$allocator@H@std@@@std@@PAH0PAM@Z@4HA DD 01H DUP (?) ; `CMapManager::GetRenderedSplatNum'::`5'::$TSS0
_BSS	ENDS
;	COMDAT ?s_emptyVector@?4??GetRenderedGraphicThingInstanceNum@CMapManager@@QAEAAV?$vector@USCRCWithNumber@CArea@@V?$allocator@USCRCWithNumber@CArea@@@std@@@std@@PAK0@Z@4V34@A
_BSS	SEGMENT
?s_emptyVector@?4??GetRenderedGraphicThingInstanceNum@CMapManager@@QAEAAV?$vector@USCRCWithNumber@CArea@@V?$allocator@USCRCWithNumber@CArea@@@std@@@std@@PAK0@Z@4V34@A DB 0cH DUP (?) ; `CMapManager::GetRenderedGraphicThingInstanceNum'::`5'::s_emptyVector
_BSS	ENDS
;	COMDAT ?$TSS0@?4??GetRenderedGraphicThingInstanceNum@CMapManager@@QAEAAV?$vector@USCRCWithNumber@CArea@@V?$allocator@USCRCWithNumber@CArea@@@std@@@std@@PAK0@Z@4HA
_BSS	SEGMENT
?$TSS0@?4??GetRenderedGraphicThingInstanceNum@CMapManager@@QAEAAV?$vector@USCRCWithNumber@CArea@@V?$allocator@USCRCWithNumber@CArea@@@std@@@std@@PAK0@Z@4HA DD 01H DUP (?) ; `CMapManager::GetRenderedGraphicThingInstanceNum'::`5'::$TSS0
_BSS	ENDS
;	COMDAT __xmm@80000000800000008000000080000000
CONST	SEGMENT
__xmm@80000000800000008000000080000000 DB 00H, 00H, 00H, 080H, 00H, 00H, 00H
	DB	080H, 00H, 00H, 00H, 080H, 00H, 00H, 00H, 080H
CONST	ENDS
;	COMDAT __real@437f0000
CONST	SEGMENT
__real@437f0000 DD 0437f0000r			; 255
CONST	ENDS
;	COMDAT __real@3f800000
CONST	SEGMENT
__real@3f800000 DD 03f800000r			; 1
CONST	ENDS
;	COMDAT __real@3f000000
CONST	SEGMENT
__real@3f000000 DD 03f000000r			; 0.5
CONST	ENDS
;	COMDAT __real@00000000
CONST	SEGMENT
__real@00000000 DD 000000000r			; 0
CONST	ENDS
;	COMDAT ??_R4CMapManager@@6BIPhysicsWorld@@@
rdata$r	SEGMENT
??_R4CMapManager@@6BIPhysicsWorld@@@ DD 00H		; CMapManager::`RTTI Complete Object Locator'
	DD	04H
	DD	00H
	DD	FLAT:??_R0?AVCMapManager@@@8
	DD	FLAT:??_R3CMapManager@@8
rdata$r	ENDS
;	COMDAT ??_R13?0A@EA@IPhysicsWorld@@8
rdata$r	SEGMENT
??_R13?0A@EA@IPhysicsWorld@@8 DD FLAT:??_R0?AVIPhysicsWorld@@@8 ; IPhysicsWorld::`RTTI Base Class Descriptor at (4,-1,0,64)'
	DD	00H
	DD	04H
	DD	0ffffffffH
	DD	00H
	DD	040H
	DD	FLAT:??_R3IPhysicsWorld@@8
rdata$r	ENDS
;	COMDAT ??_R1A@?0A@EA@CMapManager@@8
rdata$r	SEGMENT
??_R1A@?0A@EA@CMapManager@@8 DD FLAT:??_R0?AVCMapManager@@@8 ; CMapManager::`RTTI Base Class Descriptor at (0,-1,0,64)'
	DD	04H
	DD	00H
	DD	0ffffffffH
	DD	00H
	DD	040H
	DD	FLAT:??_R3CMapManager@@8
rdata$r	ENDS
;	COMDAT ??_R2CMapManager@@8
rdata$r	SEGMENT
??_R2CMapManager@@8 DD FLAT:??_R1A@?0A@EA@CMapManager@@8 ; CMapManager::`RTTI Base Class Array'
	DD	FLAT:??_R1A@?0A@EA@CScreen@@8
	DD	FLAT:??_R1A@?0A@EA@CGraphicCollisionObject@@8
	DD	FLAT:??_R1A@?0A@EA@CGraphicBase@@8
	DD	FLAT:??_R13?0A@EA@IPhysicsWorld@@8
rdata$r	ENDS
;	COMDAT ??_R3CMapManager@@8
rdata$r	SEGMENT
??_R3CMapManager@@8 DD 00H				; CMapManager::`RTTI Class Hierarchy Descriptor'
	DD	01H
	DD	05H
	DD	FLAT:??_R2CMapManager@@8
rdata$r	ENDS
;	COMDAT ??_R0?AVCMapManager@@@8
data$rs	SEGMENT
??_R0?AVCMapManager@@@8 DD FLAT:??_7type_info@@6B@	; CMapManager `RTTI Type Descriptor'
	DD	00H
	DB	'.?AVCMapManager@@', 00H
data$rs	ENDS
;	COMDAT ??_R4CMapManager@@6BCScreen@@@
rdata$r	SEGMENT
??_R4CMapManager@@6BCScreen@@@ DD 00H			; CMapManager::`RTTI Complete Object Locator'
	DD	00H
	DD	00H
	DD	FLAT:??_R0?AVCMapManager@@@8
	DD	FLAT:??_R3CMapManager@@8
rdata$r	ENDS
;	COMDAT ??_R1A@?0A@EA@IPhysicsWorld@@8
rdata$r	SEGMENT
??_R1A@?0A@EA@IPhysicsWorld@@8 DD FLAT:??_R0?AVIPhysicsWorld@@@8 ; IPhysicsWorld::`RTTI Base Class Descriptor at (0,-1,0,64)'
	DD	00H
	DD	00H
	DD	0ffffffffH
	DD	00H
	DD	040H
	DD	FLAT:??_R3IPhysicsWorld@@8
rdata$r	ENDS
;	COMDAT ??_R2IPhysicsWorld@@8
rdata$r	SEGMENT
??_R2IPhysicsWorld@@8 DD FLAT:??_R1A@?0A@EA@IPhysicsWorld@@8 ; IPhysicsWorld::`RTTI Base Class Array'
rdata$r	ENDS
;	COMDAT ??_R3IPhysicsWorld@@8
rdata$r	SEGMENT
??_R3IPhysicsWorld@@8 DD 00H				; IPhysicsWorld::`RTTI Class Hierarchy Descriptor'
	DD	00H
	DD	01H
	DD	FLAT:??_R2IPhysicsWorld@@8
rdata$r	ENDS
;	COMDAT ??_R0?AVIPhysicsWorld@@@8
data$rs	SEGMENT
??_R0?AVIPhysicsWorld@@@8 DD FLAT:??_7type_info@@6B@	; IPhysicsWorld `RTTI Type Descriptor'
	DD	00H
	DB	'.?AVIPhysicsWorld@@', 00H
data$rs	ENDS
;	COMDAT ??_R4IPhysicsWorld@@6B@
rdata$r	SEGMENT
??_R4IPhysicsWorld@@6B@ DD 00H				; IPhysicsWorld::`RTTI Complete Object Locator'
	DD	00H
	DD	00H
	DD	FLAT:??_R0?AVIPhysicsWorld@@@8
	DD	FLAT:??_R3IPhysicsWorld@@8
rdata$r	ENDS
;	COMDAT ??_R2CGraphicBase@@8
rdata$r	SEGMENT
??_R2CGraphicBase@@8 DD FLAT:??_R1A@?0A@EA@CGraphicBase@@8 ; CGraphicBase::`RTTI Base Class Array'
rdata$r	ENDS
;	COMDAT ??_R3CGraphicBase@@8
rdata$r	SEGMENT
??_R3CGraphicBase@@8 DD 00H				; CGraphicBase::`RTTI Class Hierarchy Descriptor'
	DD	00H
	DD	01H
	DD	FLAT:??_R2CGraphicBase@@8
rdata$r	ENDS
;	COMDAT ??_R0?AVCGraphicBase@@@8
data$rs	SEGMENT
??_R0?AVCGraphicBase@@@8 DD FLAT:??_7type_info@@6B@	; CGraphicBase `RTTI Type Descriptor'
	DD	00H
	DB	'.?AVCGraphicBase@@', 00H
data$rs	ENDS
;	COMDAT ??_R1A@?0A@EA@CGraphicBase@@8
rdata$r	SEGMENT
??_R1A@?0A@EA@CGraphicBase@@8 DD FLAT:??_R0?AVCGraphicBase@@@8 ; CGraphicBase::`RTTI Base Class Descriptor at (0,-1,0,64)'
	DD	00H
	DD	00H
	DD	0ffffffffH
	DD	00H
	DD	040H
	DD	FLAT:??_R3CGraphicBase@@8
rdata$r	ENDS
;	COMDAT ??_R2CGraphicCollisionObject@@8
rdata$r	SEGMENT
??_R2CGraphicCollisionObject@@8 DD FLAT:??_R1A@?0A@EA@CGraphicCollisionObject@@8 ; CGraphicCollisionObject::`RTTI Base Class Array'
	DD	FLAT:??_R1A@?0A@EA@CGraphicBase@@8
rdata$r	ENDS
;	COMDAT ??_R3CGraphicCollisionObject@@8
rdata$r	SEGMENT
??_R3CGraphicCollisionObject@@8 DD 00H			; CGraphicCollisionObject::`RTTI Class Hierarchy Descriptor'
	DD	00H
	DD	02H
	DD	FLAT:??_R2CGraphicCollisionObject@@8
rdata$r	ENDS
;	COMDAT ??_R0?AVCGraphicCollisionObject@@@8
data$rs	SEGMENT
??_R0?AVCGraphicCollisionObject@@@8 DD FLAT:??_7type_info@@6B@ ; CGraphicCollisionObject `RTTI Type Descriptor'
	DD	00H
	DB	'.?AVCGraphicCollisionObject@@', 00H
data$rs	ENDS
;	COMDAT ??_R1A@?0A@EA@CGraphicCollisionObject@@8
rdata$r	SEGMENT
??_R1A@?0A@EA@CGraphicCollisionObject@@8 DD FLAT:??_R0?AVCGraphicCollisionObject@@@8 ; CGraphicCollisionObject::`RTTI Base Class Descriptor at (0,-1,0,64)'
	DD	01H
	DD	00H
	DD	0ffffffffH
	DD	00H
	DD	040H
	DD	FLAT:??_R3CGraphicCollisionObject@@8
rdata$r	ENDS
;	COMDAT ??_R2CScreen@@8
rdata$r	SEGMENT
??_R2CScreen@@8 DD FLAT:??_R1A@?0A@EA@CScreen@@8	; CScreen::`RTTI Base Class Array'
	DD	FLAT:??_R1A@?0A@EA@CGraphicCollisionObject@@8
	DD	FLAT:??_R1A@?0A@EA@CGraphicBase@@8
rdata$r	ENDS
;	COMDAT ??_R3CScreen@@8
rdata$r	SEGMENT
??_R3CScreen@@8 DD 00H					; CScreen::`RTTI Class Hierarchy Descriptor'
	DD	00H
	DD	03H
	DD	FLAT:??_R2CScreen@@8
rdata$r	ENDS
;	COMDAT ??_R0?AVCScreen@@@8
data$rs	SEGMENT
??_R0?AVCScreen@@@8 DD FLAT:??_7type_info@@6B@		; CScreen `RTTI Type Descriptor'
	DD	00H
	DB	'.?AVCScreen@@', 00H
data$rs	ENDS
;	COMDAT ??_R1A@?0A@EA@CScreen@@8
rdata$r	SEGMENT
??_R1A@?0A@EA@CScreen@@8 DD FLAT:??_R0?AVCScreen@@@8	; CScreen::`RTTI Base Class Descriptor at (0,-1,0,64)'
	DD	02H
	DD	00H
	DD	0ffffffffH
	DD	00H
	DD	040H
	DD	FLAT:??_R3CScreen@@8
rdata$r	ENDS
;	COMDAT ??_C@_0BA@FOIKENOD@vector?5too?5long@
CONST	SEGMENT
??_C@_0BA@FOIKENOD@vector?5too?5long@ DB 'vector too long', 00H ; `string'
CONST	ENDS
;	COMDAT ??_C@_0P@GOFAHLEL@?$CFs?5?$CFd?5?$CFd?5?$CFd?5?$CFd@
CONST	SEGMENT
??_C@_0P@GOFAHLEL@?$CFs?5?$CFd?5?$CFd?5?$CFd?5?$CFd@ DB '%s %d %d %d %d', 00H ; `string'
CONST	ENDS
;	COMDAT ??_C@_0O@EEKDAHG@AtlasInfo?4txt@
CONST	SEGMENT
??_C@_0O@EEKDAHG@AtlasInfo?4txt@ DB 'AtlasInfo.txt', 00H ; `string'
CONST	ENDS
;	COMDAT ??_C@_0BG@GDDCGLNK@null?5environment?5data@
CONST	SEGMENT
??_C@_0BG@GDDCGLNK@null?5environment?5data@ DB 'null environment data', 00H ; `string'
CONST	ENDS
;	COMDAT ??_C@_0EL@GOMDBDNM@CMapManager?3?3GetTerrainHeight?$CI?$CF@
CONST	SEGMENT
??_C@_0EL@GOMDBDNM@CMapManager?3?3GetTerrainHeight?$CI?$CF@ DB 'CMapManag'
	DB	'er::GetTerrainHeight(%f, %f) - Accessing in a not initialized'
	DB	' map', 00H					; `string'
CONST	ENDS
;	COMDAT ??_C@_0EE@MJBLHJKJ@CMapManager?3?3GetHeight?$CI?$CFf?0?5?$CFf?$CJ?5@
CONST	SEGMENT
??_C@_0EE@MJBLHJKJ@CMapManager?3?3GetHeight?$CI?$CFf?0?5?$CFf?$CJ?5@ DB 'C'
	DB	'MapManager::GetHeight(%f, %f) - Accessing in a not initialize'
	DB	'd map', 00H					; `string'
CONST	ENDS
;	COMDAT ??_C@_0BG@CFNBDNBB@?$CFs?3?5Unload?5Map?5Failed@
CONST	SEGMENT
??_C@_0BG@CFNBDNBB@?$CFs?3?5Unload?5Map?5Failed@ DB '%s: Unload Map Faile'
	DB	'd', 00H					; `string'
CONST	ENDS
;	COMDAT ??_C@_0CI@JGDAGOMB@CMapManager?3?3LoadMap?$CI?$CJ?5Invalid?5@
CONST	SEGMENT
??_C@_0CI@JGDAGOMB@CMapManager?3?3LoadMap?$CI?$CJ?5Invalid?5@ DB 'CMapMan'
	DB	'ager::LoadMap() Invalid Map Type', 00H	; `string'
CONST	ENDS
;	COMDAT ??_C@_0CP@DDEONFBH@CMapManager?3?3LoadMap?$CI?$CJ?5Outdoor?5@
CONST	SEGMENT
??_C@_0CP@DDEONFBH@CMapManager?3?3LoadMap?$CI?$CJ?5Outdoor?5@ DB 'CMapMan'
	DB	'ager::LoadMap() Outdoor Map Load Failed', 00H ; `string'
CONST	ENDS
;	COMDAT ??_C@_0CO@NOKMKMGJ@CMapManager?3?3LoadMap?$CI?$CJ?5Indoor?5M@
CONST	SEGMENT
??_C@_0CO@NOKMKMGJ@CMapManager?3?3LoadMap?$CI?$CJ?5Indoor?5M@ DB 'CMapMan'
	DB	'ager::LoadMap() Indoor Map Load Failed', 00H ; `string'
CONST	ENDS
;	COMDAT ??_C@_03EMIMMIHL@?$CK?4?$CK@
CONST	SEGMENT
??_C@_03EMIMMIHL@?$CK?4?$CK@ DB '*.*', 00H		; `string'
CONST	ENDS
;	COMDAT ??_C@_08MOOMJPBO@Property@
CONST	SEGMENT
??_C@_08MOOMJPBO@Property@ DB 'Property', 00H		; `string'
CONST	ENDS
;	COMDAT ??_7CMapManager@@6BIPhysicsWorld@@@
CONST	SEGMENT
??_7CMapManager@@6BIPhysicsWorld@@@ DD FLAT:??_R4CMapManager@@6BIPhysicsWorld@@@ ; CMapManager::`vftable'
	DD	FLAT:??_ECMapManager@@W3AEPAXI@Z
	DD	FLAT:?isPhysicalCollision@CMapManager@@UAE_NABUD3DXVECTOR3@@@Z
CONST	ENDS
;	COMDAT ??_7CMapManager@@6BCScreen@@@
CONST	SEGMENT
??_7CMapManager@@6BCScreen@@@ DD FLAT:??_R4CMapManager@@6BCScreen@@@ ; CMapManager::`vftable'
	DD	FLAT:??_ECMapManager@@UAEPAXI@Z
	DD	FLAT:?Clear@CMapManager@@UAEXXZ
	DD	FLAT:?AllocMap@CMapManager@@UAEPAVCMapBase@@XZ
	DD	FLAT:?LoadMap@CMapManager@@UAE_NABV?$basic_string@DU?$char_traits@D@std@@V?$allocator@D@2@@std@@MMM@Z
CONST	ENDS
;	COMDAT ??_7IPhysicsWorld@@6B@
CONST	SEGMENT
??_7IPhysicsWorld@@6B@ DD FLAT:??_R4IPhysicsWorld@@6B@	; IPhysicsWorld::`vftable'
	DD	FLAT:??_EIPhysicsWorld@@UAEPAXI@Z
	DD	FLAT:__purecall
CONST	ENDS
;	COMDAT ??_R1A@?0A@EA@bad_array_new_length@std@@8
rdata$r	SEGMENT
??_R1A@?0A@EA@bad_array_new_length@std@@8 DD FLAT:??_R0?AVbad_array_new_length@std@@@8 ; std::bad_array_new_length::`RTTI Base Class Descriptor at (0,-1,0,64)'
	DD	02H
	DD	00H
	DD	0ffffffffH
	DD	00H
	DD	040H
	DD	FLAT:??_R3bad_array_new_length@std@@8
rdata$r	ENDS
;	COMDAT ??_R2bad_array_new_length@std@@8
rdata$r	SEGMENT
??_R2bad_array_new_length@std@@8 DD FLAT:??_R1A@?0A@EA@bad_array_new_length@std@@8 ; std::bad_array_new_length::`RTTI Base Class Array'
	DD	FLAT:??_R1A@?0A@EA@bad_alloc@std@@8
	DD	FLAT:??_R1A@?0A@EA@exception@std@@8
rdata$r	ENDS
;	COMDAT ??_R3bad_array_new_length@std@@8
rdata$r	SEGMENT
??_R3bad_array_new_length@std@@8 DD 00H			; std::bad_array_new_length::`RTTI Class Hierarchy Descriptor'
	DD	00H
	DD	03H
	DD	FLAT:??_R2bad_array_new_length@std@@8
rdata$r	ENDS
;	COMDAT ??_R4bad_array_new_length@std@@6B@
rdata$r	SEGMENT
??_R4bad_array_new_length@std@@6B@ DD 00H		; std::bad_array_new_length::`RTTI Complete Object Locator'
	DD	00H
	DD	00H
	DD	FLAT:??_R0?AVbad_array_new_length@std@@@8
	DD	FLAT:??_R3bad_array_new_length@std@@8
rdata$r	ENDS
;	COMDAT ??_R1A@?0A@EA@bad_alloc@std@@8
rdata$r	SEGMENT
??_R1A@?0A@EA@bad_alloc@std@@8 DD FLAT:??_R0?AVbad_alloc@std@@@8 ; std::bad_alloc::`RTTI Base Class Descriptor at (0,-1,0,64)'
	DD	01H
	DD	00H
	DD	0ffffffffH
	DD	00H
	DD	040H
	DD	FLAT:??_R3bad_alloc@std@@8
rdata$r	ENDS
;	COMDAT ??_R2bad_alloc@std@@8
rdata$r	SEGMENT
??_R2bad_alloc@std@@8 DD FLAT:??_R1A@?0A@EA@bad_alloc@std@@8 ; std::bad_alloc::`RTTI Base Class Array'
	DD	FLAT:??_R1A@?0A@EA@exception@std@@8
rdata$r	ENDS
;	COMDAT ??_R3bad_alloc@std@@8
rdata$r	SEGMENT
??_R3bad_alloc@std@@8 DD 00H				; std::bad_alloc::`RTTI Class Hierarchy Descriptor'
	DD	00H
	DD	02H
	DD	FLAT:??_R2bad_alloc@std@@8
rdata$r	ENDS
;	COMDAT ??_R4bad_alloc@std@@6B@
rdata$r	SEGMENT
??_R4bad_alloc@std@@6B@ DD 00H				; std::bad_alloc::`RTTI Complete Object Locator'
	DD	00H
	DD	00H
	DD	FLAT:??_R0?AVbad_alloc@std@@@8
	DD	FLAT:??_R3bad_alloc@std@@8
rdata$r	ENDS
;	COMDAT ??_R1A@?0A@EA@exception@std@@8
rdata$r	SEGMENT
??_R1A@?0A@EA@exception@std@@8 DD FLAT:??_R0?AVexception@std@@@8 ; std::exception::`RTTI Base Class Descriptor at (0,-1,0,64)'
	DD	00H
	DD	00H
	DD	0ffffffffH
	DD	00H
	DD	040H
	DD	FLAT:??_R3exception@std@@8
rdata$r	ENDS
;	COMDAT ??_R2exception@std@@8
rdata$r	SEGMENT
??_R2exception@std@@8 DD FLAT:??_R1A@?0A@EA@exception@std@@8 ; std::exception::`RTTI Base Class Array'
rdata$r	ENDS
;	COMDAT ??_R3exception@std@@8
rdata$r	SEGMENT
??_R3exception@std@@8 DD 00H				; std::exception::`RTTI Class Hierarchy Descriptor'
	DD	00H
	DD	01H
	DD	FLAT:??_R2exception@std@@8
rdata$r	ENDS
;	COMDAT ??_R4exception@std@@6B@
rdata$r	SEGMENT
??_R4exception@std@@6B@ DD 00H				; std::exception::`RTTI Complete Object Locator'
	DD	00H
	DD	00H
	DD	FLAT:??_R0?AVexception@std@@@8
	DD	FLAT:??_R3exception@std@@8
rdata$r	ENDS
;	COMDAT ??_C@_00CNPNBAHC@@
CONST	SEGMENT
??_C@_00CNPNBAHC@@ DB 00H				; `string'
CONST	ENDS
;	COMDAT ??_C@_0BB@GCADKGJO@map?1set?5too?5long@
CONST	SEGMENT
??_C@_0BB@GCADKGJO@map?1set?5too?5long@ DB 'map/set too long', 00H ; `string'
CONST	ENDS
;	COMDAT ??_C@_0BA@JFNIOLAK@string?5too?5long@
CONST	SEGMENT
??_C@_0BA@JFNIOLAK@string?5too?5long@ DB 'string too long', 00H ; `string'
CONST	ENDS
;	COMDAT __CT??_R0?AVexception@std@@@8??0exception@std@@QAE@ABV01@@Z12
xdata$x	SEGMENT
__CT??_R0?AVexception@std@@@8??0exception@std@@QAE@ABV01@@Z12 DD 00H
	DD	FLAT:??_R0?AVexception@std@@@8
	DD	00H
	DD	0ffffffffH
	ORG $+4
	DD	0cH
	DD	FLAT:??0exception@std@@QAE@ABV01@@Z
xdata$x	ENDS
;	COMDAT ??_R0?AVexception@std@@@8
data$r	SEGMENT
??_R0?AVexception@std@@@8 DD FLAT:??_7type_info@@6B@	; std::exception `RTTI Type Descriptor'
	DD	00H
	DB	'.?AVexception@std@@', 00H
data$r	ENDS
;	COMDAT __CT??_R0?AVbad_alloc@std@@@8??0bad_alloc@std@@QAE@ABV01@@Z12
xdata$x	SEGMENT
__CT??_R0?AVbad_alloc@std@@@8??0bad_alloc@std@@QAE@ABV01@@Z12 DD 010H
	DD	FLAT:??_R0?AVbad_alloc@std@@@8
	DD	00H
	DD	0ffffffffH
	ORG $+4
	DD	0cH
	DD	FLAT:??0bad_alloc@std@@QAE@ABV01@@Z
xdata$x	ENDS
;	COMDAT ??_R0?AVbad_alloc@std@@@8
data$r	SEGMENT
??_R0?AVbad_alloc@std@@@8 DD FLAT:??_7type_info@@6B@	; std::bad_alloc `RTTI Type Descriptor'
	DD	00H
	DB	'.?AVbad_alloc@std@@', 00H
data$r	ENDS
;	COMDAT __CT??_R0?AVbad_array_new_length@std@@@8??0bad_array_new_length@std@@QAE@ABV01@@Z12
xdata$x	SEGMENT
__CT??_R0?AVbad_array_new_length@std@@@8??0bad_array_new_length@std@@QAE@ABV01@@Z12 DD 00H
	DD	FLAT:??_R0?AVbad_array_new_length@std@@@8
	DD	00H
	DD	0ffffffffH
	ORG $+4
	DD	0cH
	DD	FLAT:??0bad_array_new_length@std@@QAE@ABV01@@Z
xdata$x	ENDS
;	COMDAT ??_R0?AVbad_array_new_length@std@@@8
data$r	SEGMENT
??_R0?AVbad_array_new_length@std@@@8 DD FLAT:??_7type_info@@6B@ ; std::bad_array_new_length `RTTI Type Descriptor'
	DD	00H
	DB	'.?AVbad_array_new_length@std@@', 00H
data$r	ENDS
;	COMDAT __CTA3?AVbad_array_new_length@std@@
xdata$x	SEGMENT
__CTA3?AVbad_array_new_length@std@@ DD 03H
	DD	FLAT:__CT??_R0?AVbad_array_new_length@std@@@8??0bad_array_new_length@std@@QAE@ABV01@@Z12
	DD	FLAT:__CT??_R0?AVbad_alloc@std@@@8??0bad_alloc@std@@QAE@ABV01@@Z12
	DD	FLAT:__CT??_R0?AVexception@std@@@8??0exception@std@@QAE@ABV01@@Z12
xdata$x	ENDS
;	COMDAT __TI3?AVbad_array_new_length@std@@
xdata$x	SEGMENT
__TI3?AVbad_array_new_length@std@@ DD 00H
	DD	FLAT:??1bad_array_new_length@std@@UAE@XZ
	DD	00H
	DD	FLAT:__CTA3?AVbad_array_new_length@std@@
xdata$x	ENDS
;	COMDAT ??_C@_0BF@KINCDENJ@bad?5array?5new?5length@
CONST	SEGMENT
??_C@_0BF@KINCDENJ@bad?5array?5new?5length@ DB 'bad array new length', 00H ; `string'
CONST	ENDS
;	COMDAT ??_7bad_array_new_length@std@@6B@
CONST	SEGMENT
??_7bad_array_new_length@std@@6B@ DD FLAT:??_R4bad_array_new_length@std@@6B@ ; std::bad_array_new_length::`vftable'
	DD	FLAT:??_Ebad_array_new_length@std@@UAEPAXI@Z
	DD	FLAT:?what@exception@std@@UBEPBDXZ
CONST	ENDS
;	COMDAT ??_7bad_alloc@std@@6B@
CONST	SEGMENT
??_7bad_alloc@std@@6B@ DD FLAT:??_R4bad_alloc@std@@6B@	; std::bad_alloc::`vftable'
	DD	FLAT:??_Ebad_alloc@std@@UAEPAXI@Z
	DD	FLAT:?what@exception@std@@UBEPBDXZ
CONST	ENDS
;	COMDAT ??_C@_0BC@EOODALEL@Unknown?5exception@
CONST	SEGMENT
??_C@_0BC@EOODALEL@Unknown?5exception@ DB 'Unknown exception', 00H ; `string'
CONST	ENDS
;	COMDAT ??_7exception@std@@6B@
CONST	SEGMENT
??_7exception@std@@6B@ DD FLAT:??_R4exception@std@@6B@	; std::exception::`vftable'
	DD	FLAT:??_Eexception@std@@UAEPAXI@Z
	DD	FLAT:?what@exception@std@@UBEPBDXZ
CONST	ENDS
;	COMDAT xdata$x
xdata$x	SEGMENT
__unwindtable$??$?0U?$pair@$$CBKPAUSEnvironmentData@@@std@@@?$_Tree_temp_node@V?$allocator@U?$_Tree_node@U?$pair@$$CBKPAUSEnvironmentData@@@std@@PAX@std@@@std@@@std@@QAE@AAV?$allocator@U?$_Tree_node@U?$pair@$$CBKPAUSEnvironmentData@@@std@@PAX@std@@@1@PAU?$_Tree_node@U?$pair@$$CBKPAUSEnvironmentData@@@std@@PAX@1@$$QAU?$pair@$$CBKPAUSEnvironmentData@@@1@@Z DD 0ffffffffH
	DD	FLAT:__unwindfunclet$??$?0U?$pair@$$CBKPAUSEnvironmentData@@@std@@@?$_Tree_temp_node@V?$allocator@U?$_Tree_node@U?$pair@$$CBKPAUSEnvironmentData@@@std@@PAX@std@@@std@@@std@@QAE@AAV?$allocator@U?$_Tree_node@U?$pair@$$CBKPAUSEnvironmentData@@@std@@PAX@std@@@1@PAU?$_Tree_node@U?$pair@$$CBKPAUSEnvironmentData@@@std@@PAX@1@$$QAU?$pair@$$CBKPAUSEnvironmentData@@@1@@Z$1
__ehfuncinfo$??$?0U?$pair@$$CBKPAUSEnvironmentData@@@std@@@?$_Tree_temp_node@V?$allocator@U?$_Tree_node@U?$pair@$$CBKPAUSEnvironmentData@@@std@@PAX@std@@@std@@@std@@QAE@AAV?$allocator@U?$_Tree_node@U?$pair@$$CBKPAUSEnvironmentData@@@std@@PAX@std@@@1@PAU?$_Tree_node@U?$pair@$$CBKPAUSEnvironmentData@@@std@@PAX@1@$$QAU?$pair@$$CBKPAUSEnvironmentData@@@1@@Z DD 019930522H
	DD	01H
	DD	FLAT:__unwindtable$??$?0U?$pair@$$CBKPAUSEnvironmentData@@@std@@@?$_Tree_temp_node@V?$allocator@U?$_Tree_node@U?$pair@$$CBKPAUSEnvironmentData@@@std@@PAX@std@@@std@@@std@@QAE@AAV?$allocator@U?$_Tree_node@U?$pair@$$CBKPAUSEnvironmentData@@@std@@PAX@std@@@1@PAU?$_Tree_node@U?$pair@$$CBKPAUSEnvironmentData@@@std@@PAX@1@$$QAU?$pair@$$CBKPAUSEnvironmentData@@@1@@Z
	DD	2 DUP(00H)
	DD	2 DUP(00H)
	DD	00H
	DD	01H
xdata$x	ENDS
;	COMDAT xdata$x
xdata$x	SEGMENT
__unwindtable$??0?$_Tree_temp_node_alloc@V?$allocator@U?$_Tree_node@U?$pair@$$CBKPAUSEnvironmentData@@@std@@PAX@std@@@std@@@std@@QAE@AAV?$allocator@U?$_Tree_node@U?$pair@$$CBKPAUSEnvironmentData@@@std@@PAX@std@@@1@@Z DD 0ffffffffH
	DD	FLAT:__unwindfunclet$??0?$_Tree_temp_node_alloc@V?$allocator@U?$_Tree_node@U?$pair@$$CBKPAUSEnvironmentData@@@std@@PAX@std@@@std@@@std@@QAE@AAV?$allocator@U?$_Tree_node@U?$pair@$$CBKPAUSEnvironmentData@@@std@@PAX@std@@@1@@Z$0
__ehfuncinfo$??0?$_Tree_temp_node_alloc@V?$allocator@U?$_Tree_node@U?$pair@$$CBKPAUSEnvironmentData@@@std@@PAX@std@@@std@@@std@@QAE@AAV?$allocator@U?$_Tree_node@U?$pair@$$CBKPAUSEnvironmentData@@@std@@PAX@std@@@1@@Z DD 019930522H
	DD	01H
	DD	FLAT:__unwindtable$??0?$_Tree_temp_node_alloc@V?$allocator@U?$_Tree_node@U?$pair@$$CBKPAUSEnvironmentData@@@std@@PAX@std@@@std@@@std@@QAE@AAV?$allocator@U?$_Tree_node@U?$pair@$$CBKPAUSEnvironmentData@@@std@@PAX@std@@@1@@Z
	DD	2 DUP(00H)
	DD	2 DUP(00H)
	DD	00H
	DD	01H
xdata$x	ENDS
;	COMDAT xdata$x
xdata$x	SEGMENT
__unwindtable$??$_Emplace@U?$pair@$$CBKPAUSEnvironmentData@@@std@@@?$_Tree@V?$_Tmap_traits@KPAUSEnvironmentData@@U?$less@K@std@@V?$allocator@U?$pair@$$CBKPAUSEnvironmentData@@@std@@@3@$0A@@std@@@std@@IAE?AU?$pair@PAU?$_Tree_node@U?$pair@$$CBKPAUSEnvironmentData@@@std@@PAX@std@@_N@1@$$QAU?$pair@$$CBKPAUSEnvironmentData@@@1@@Z DD 0ffffffffH
	DD	FLAT:__unwindfunclet$??$_Emplace@U?$pair@$$CBKPAUSEnvironmentData@@@std@@@?$_Tree@V?$_Tmap_traits@KPAUSEnvironmentData@@U?$less@K@std@@V?$allocator@U?$pair@$$CBKPAUSEnvironmentData@@@std@@@3@$0A@@std@@@std@@IAE?AU?$pair@PAU?$_Tree_node@U?$pair@$$CBKPAUSEnvironmentData@@@std@@PAX@std@@_N@1@$$QAU?$pair@$$CBKPAUSEnvironmentData@@@1@@Z$2
__ehfuncinfo$??$_Emplace@U?$pair@$$CBKPAUSEnvironmentData@@@std@@@?$_Tree@V?$_Tmap_traits@KPAUSEnvironmentData@@U?$less@K@std@@V?$allocator@U?$pair@$$CBKPAUSEnvironmentData@@@std@@@3@$0A@@std@@@std@@IAE?AU?$pair@PAU?$_Tree_node@U?$pair@$$CBKPAUSEnvironmentData@@@std@@PAX@std@@_N@1@$$QAU?$pair@$$CBKPAUSEnvironmentData@@@1@@Z DD 019930522H
	DD	01H
	DD	FLAT:__unwindtable$??$_Emplace@U?$pair@$$CBKPAUSEnvironmentData@@@std@@@?$_Tree@V?$_Tmap_traits@KPAUSEnvironmentData@@U?$less@K@std@@V?$allocator@U?$pair@$$CBKPAUSEnvironmentData@@@std@@@3@$0A@@std@@@std@@IAE?AU?$pair@PAU?$_Tree_node@U?$pair@$$CBKPAUSEnvironmentData@@@std@@PAX@std@@_N@1@$$QAU?$pair@$$CBKPAUSEnvironmentData@@@1@@Z
	DD	2 DUP(00H)
	DD	2 DUP(00H)
	DD	00H
	DD	01H
xdata$x	ENDS
;	COMDAT xdata$x
xdata$x	SEGMENT
__catchsym$??$_Emplace_reallocate@ABUTMapInfo@CMapManager@@@?$vector@UTMapInfo@CMapManager@@V?$allocator@UTMapInfo@CMapManager@@@std@@@std@@QAEPAUTMapInfo@CMapManager@@QAU23@ABU23@@Z$2 DD 040H
	DD	00H
	DD	00H
	DD	FLAT:__catch$??$_Emplace_reallocate@ABUTMapInfo@CMapManager@@@?$vector@UTMapInfo@CMapManager@@V?$allocator@UTMapInfo@CMapManager@@@std@@@std@@QAEPAUTMapInfo@CMapManager@@QAU23@ABU23@@Z$0
__unwindtable$??$_Emplace_reallocate@ABUTMapInfo@CMapManager@@@?$vector@UTMapInfo@CMapManager@@V?$allocator@UTMapInfo@CMapManager@@@std@@@std@@QAEPAUTMapInfo@CMapManager@@QAU23@ABU23@@Z DD 0ffffffffH
	DD	00H
	DD	0ffffffffH
	DD	00H
__tryblocktable$??$_Emplace_reallocate@ABUTMapInfo@CMapManager@@@?$vector@UTMapInfo@CMapManager@@V?$allocator@UTMapInfo@CMapManager@@@std@@@std@@QAEPAUTMapInfo@CMapManager@@QAU23@ABU23@@Z DD 00H
	DD	00H
	DD	01H
	DD	01H
	DD	FLAT:__catchsym$??$_Emplace_reallocate@ABUTMapInfo@CMapManager@@@?$vector@UTMapInfo@CMapManager@@V?$allocator@UTMapInfo@CMapManager@@@std@@@std@@QAEPAUTMapInfo@CMapManager@@QAU23@ABU23@@Z$2
__ehfuncinfo$??$_Emplace_reallocate@ABUTMapInfo@CMapManager@@@?$vector@UTMapInfo@CMapManager@@V?$allocator@UTMapInfo@CMapManager@@@std@@@std@@QAEPAUTMapInfo@CMapManager@@QAU23@ABU23@@Z DD 019930522H
	DD	02H
	DD	FLAT:__unwindtable$??$_Emplace_reallocate@ABUTMapInfo@CMapManager@@@?$vector@UTMapInfo@CMapManager@@V?$allocator@UTMapInfo@CMapManager@@@std@@@std@@QAEPAUTMapInfo@CMapManager@@QAU23@ABU23@@Z
	DD	01H
	DD	FLAT:__tryblocktable$??$_Emplace_reallocate@ABUTMapInfo@CMapManager@@@?$vector@UTMapInfo@CMapManager@@V?$allocator@UTMapInfo@CMapManager@@@std@@@std@@QAEPAUTMapInfo@CMapManager@@QAU23@ABU23@@Z
	DD	2 DUP(00H)
	DD	00H
	DD	01H
xdata$x	ENDS
;	COMDAT xdata$x
xdata$x	SEGMENT
__unwindtable$??$insert@$0A@$0A@@?$_Tree@V?$_Tmap_traits@KPAUSEnvironmentData@@U?$less@K@std@@V?$allocator@U?$pair@$$CBKPAUSEnvironmentData@@@std@@@3@$0A@@std@@@std@@QAE?AU?$pair@V?$_Tree_iterator@V?$_Tree_val@U?$_Tree_simple_types@U?$pair@$$CBKPAUSEnvironmentData@@@std@@@std@@@std@@@std@@_N@1@$$QAU?$pair@$$CBKPAUSEnvironmentData@@@1@@Z DD 0ffffffffH
	DD	FLAT:__unwindfunclet$??$insert@$0A@$0A@@?$_Tree@V?$_Tmap_traits@KPAUSEnvironmentData@@U?$less@K@std@@V?$allocator@U?$pair@$$CBKPAUSEnvironmentData@@@std@@@3@$0A@@std@@@std@@QAE?AU?$pair@V?$_Tree_iterator@V?$_Tree_val@U?$_Tree_simple_types@U?$pair@$$CBKPAUSEnvironmentData@@@std@@@std@@@std@@@std@@_N@1@$$QAU?$pair@$$CBKPAUSEnvironmentData@@@1@@Z$2
__ehfuncinfo$??$insert@$0A@$0A@@?$_Tree@V?$_Tmap_traits@KPAUSEnvironmentData@@U?$less@K@std@@V?$allocator@U?$pair@$$CBKPAUSEnvironmentData@@@std@@@3@$0A@@std@@@std@@QAE?AU?$pair@V?$_Tree_iterator@V?$_Tree_val@U?$_Tree_simple_types@U?$pair@$$CBKPAUSEnvironmentData@@@std@@@std@@@std@@@std@@_N@1@$$QAU?$pair@$$CBKPAUSEnvironmentData@@@1@@Z DD 019930522H
	DD	01H
	DD	FLAT:__unwindtable$??$insert@$0A@$0A@@?$_Tree@V?$_Tmap_traits@KPAUSEnvironmentData@@U?$less@K@std@@V?$allocator@U?$pair@$$CBKPAUSEnvironmentData@@@std@@@3@$0A@@std@@@std@@QAE?AU?$pair@V?$_Tree_iterator@V?$_Tree_val@U?$_Tree_simple_types@U?$pair@$$CBKPAUSEnvironmentData@@@std@@@std@@@std@@@std@@_N@1@$$QAU?$pair@$$CBKPAUSEnvironmentData@@@1@@Z
	DD	2 DUP(00H)
	DD	2 DUP(00H)
	DD	00H
	DD	01H
xdata$x	ENDS
;	COMDAT xdata$x
xdata$x	SEGMENT
__unwindtable$??$stl_wipe_second@V?$map@KPAUSEnvironmentData@@U?$less@K@std@@V?$allocator@U?$pair@$$CBKPAUSEnvironmentData@@@std@@@3@@std@@@@YAXAAV?$map@KPAUSEnvironmentData@@U?$less@K@std@@V?$allocator@U?$pair@$$CBKPAUSEnvironmentData@@@std@@@3@@std@@@Z DD 0ffffffffH
	DD	FLAT:___std_terminate
__ehfuncinfo$??$stl_wipe_second@V?$map@KPAUSEnvironmentData@@U?$less@K@std@@V?$allocator@U?$pair@$$CBKPAUSEnvironmentData@@@std@@@3@@std@@@@YAXAAV?$map@KPAUSEnvironmentData@@U?$less@K@std@@V?$allocator@U?$pair@$$CBKPAUSEnvironmentData@@@std@@@3@@std@@@Z DD 019930522H
	DD	01H
	DD	FLAT:__unwindtable$??$stl_wipe_second@V?$map@KPAUSEnvironmentData@@U?$less@K@std@@V?$allocator@U?$pair@$$CBKPAUSEnvironmentData@@@std@@@3@@std@@@@YAXAAV?$map@KPAUSEnvironmentData@@U?$less@K@std@@V?$allocator@U?$pair@$$CBKPAUSEnvironmentData@@@std@@@3@@std@@@Z
	DD	2 DUP(00H)
	DD	2 DUP(00H)
	DD	00H
	DD	01H
xdata$x	ENDS
;	COMDAT xdata$x
xdata$x	SEGMENT
__unwindtable$?__LoadMapInfoVector@CMapManager@@IAEXXZ DD 0ffffffffH
	DD	FLAT:__unwindfunclet$?__LoadMapInfoVector@CMapManager@@IAEXXZ$0
	DD	00H
	DD	FLAT:__unwindfunclet$?__LoadMapInfoVector@CMapManager@@IAEXXZ$1
	DD	01H
	DD	FLAT:__unwindfunclet$?__LoadMapInfoVector@CMapManager@@IAEXXZ$2
__ehfuncinfo$?__LoadMapInfoVector@CMapManager@@IAEXXZ DD 019930522H
	DD	03H
	DD	FLAT:__unwindtable$?__LoadMapInfoVector@CMapManager@@IAEXXZ
	DD	2 DUP(00H)
	DD	2 DUP(00H)
	DD	00H
	DD	01H
xdata$x	ENDS
;	COMDAT xdata$x
xdata$x	SEGMENT
__unwindtable$?AllocEnvironmentData@CMapManager@@IAEPAUSEnvironmentData@@XZ DD 0ffffffffH
	DD	FLAT:__unwindfunclet$?AllocEnvironmentData@CMapManager@@IAEPAUSEnvironmentData@@XZ$0
__ehfuncinfo$?AllocEnvironmentData@CMapManager@@IAEPAUSEnvironmentData@@XZ DD 019930522H
	DD	01H
	DD	FLAT:__unwindtable$?AllocEnvironmentData@CMapManager@@IAEPAUSEnvironmentData@@XZ
	DD	2 DUP(00H)
	DD	2 DUP(00H)
	DD	00H
	DD	01H
xdata$x	ENDS
;	COMDAT xdata$x
xdata$x	SEGMENT
__unwindtable$?LoadProperty@CMapManager@@QAEXXZ DD 0ffffffffH
	DD	FLAT:__unwindfunclet$?LoadProperty@CMapManager@@QAEXXZ$0
__ehfuncinfo$?LoadProperty@CMapManager@@QAEXXZ DD 019930522H
	DD	01H
	DD	FLAT:__unwindtable$?LoadProperty@CMapManager@@QAEXXZ
	DD	2 DUP(00H)
	DD	2 DUP(00H)
	DD	00H
	DD	01H
xdata$x	ENDS
;	COMDAT xdata$x
xdata$x	SEGMENT
__unwindtable$?RegisterEnvironmentData@CMapManager@@QAE_NKPBD@Z DD 0ffffffffH
	DD	FLAT:__unwindfunclet$?RegisterEnvironmentData@CMapManager@@QAE_NKPBD@Z$2
__ehfuncinfo$?RegisterEnvironmentData@CMapManager@@QAE_NKPBD@Z DD 019930522H
	DD	01H
	DD	FLAT:__unwindtable$?RegisterEnvironmentData@CMapManager@@QAE_NKPBD@Z
	DD	2 DUP(00H)
	DD	2 DUP(00H)
	DD	00H
	DD	01H
xdata$x	ENDS
;	COMDAT xdata$x
xdata$x	SEGMENT
__unwindtable$?UnloadMap@CMapManager@@QAE_NV?$basic_string@DU?$char_traits@D@std@@V?$allocator@D@2@@std@@@Z DD 0ffffffffH
	DD	FLAT:__unwindfunclet$?UnloadMap@CMapManager@@QAE_NV?$basic_string@DU?$char_traits@D@std@@V?$allocator@D@2@@std@@@Z$0
__ehfuncinfo$?UnloadMap@CMapManager@@QAE_NV?$basic_string@DU?$char_traits@D@std@@V?$allocator@D@2@@std@@@Z DD 019930522H
	DD	01H
	DD	FLAT:__unwindtable$?UnloadMap@CMapManager@@QAE_NV?$basic_string@DU?$char_traits@D@std@@V?$allocator@D@2@@std@@@Z
	DD	2 DUP(00H)
	DD	2 DUP(00H)
	DD	00H
	DD	01H
xdata$x	ENDS
;	COMDAT xdata$x
xdata$x	SEGMENT
__unwindtable$?AllocMap@CMapManager@@UAEPAVCMapBase@@XZ DD 0ffffffffH
	DD	FLAT:__unwindfunclet$?AllocMap@CMapManager@@UAEPAVCMapBase@@XZ$0
__ehfuncinfo$?AllocMap@CMapManager@@UAEPAVCMapBase@@XZ DD 019930522H
	DD	01H
	DD	FLAT:__unwindtable$?AllocMap@CMapManager@@UAEPAVCMapBase@@XZ
	DD	2 DUP(00H)
	DD	2 DUP(00H)
	DD	00H
	DD	01H
xdata$x	ENDS
;	COMDAT xdata$x
xdata$x	SEGMENT
__ehfuncinfo$??1CMapManager@@UAE@XZ DD 019930522H
	DD	00H
	DD	00H
	DD	2 DUP(00H)
	DD	2 DUP(00H)
	DD	00H
	DD	05H
xdata$x	ENDS
;	COMDAT xdata$x
xdata$x	SEGMENT
__unwindtable$??0CMapManager@@QAE@XZ DD 0ffffffffH
	DD	FLAT:__unwindfunclet$??0CMapManager@@QAE@XZ$0
	DD	00H
	DD	FLAT:__unwindfunclet$??0CMapManager@@QAE@XZ$1
	DD	01H
	DD	FLAT:__unwindfunclet$??0CMapManager@@QAE@XZ$2
	DD	02H
	DD	FLAT:__unwindfunclet$??0CMapManager@@QAE@XZ$3
__ehfuncinfo$??0CMapManager@@QAE@XZ DD 019930522H
	DD	04H
	DD	FLAT:__unwindtable$??0CMapManager@@QAE@XZ
	DD	2 DUP(00H)
	DD	2 DUP(00H)
	DD	00H
	DD	01H
xdata$x	ENDS
;	COMDAT xdata$x
xdata$x	SEGMENT
__unwindtable$??_GSEnvironmentData@@QAEPAXI@Z DD 0ffffffffH
	DD	FLAT:___std_terminate
__ehfuncinfo$??_GSEnvironmentData@@QAEPAXI@Z DD 019930522H
	DD	01H
	DD	FLAT:__unwindtable$??_GSEnvironmentData@@QAEPAXI@Z
	DD	2 DUP(00H)
	DD	2 DUP(00H)
	DD	00H
	DD	05H
xdata$x	ENDS
;	COMDAT xdata$x
xdata$x	SEGMENT
__ehfuncinfo$??1SEnvironmentData@@QAE@XZ DD 019930522H
	DD	00H
	DD	00H
	DD	2 DUP(00H)
	DD	2 DUP(00H)
	DD	00H
	DD	05H
xdata$x	ENDS
; Function compile flags: /Odsp
;	COMDAT ??_ECMapManager@@W3AEPAXI@Z
_TEXT	SEGMENT
??_ECMapManager@@W3AEPAXI@Z PROC			; [thunk]:CMapManager::`vector deleting destructor', COMDAT
  00000	83 e9 04	 sub	 ecx, 4
  00003	e9 00 00 00 00	 jmp	 ??_ECMapManager@@UAEPAXI@Z
??_ECMapManager@@W3AEPAXI@Z ENDP			; [thunk]:CMapManager::`vector deleting destructor'
_TEXT	ENDS
; Function compile flags: /Ogtp
; File C:\Program Files (x86)\Microsoft Visual Studio\2019\Professional\VC\Tools\MSVC\14.29.30133\include\xmemory
;	COMDAT ??1?$_Alloc_construct_ptr@V?$allocator@U?$_Tree_node@U?$pair@$$CBKPAUSEnvironmentData@@@std@@PAX@std@@@std@@@std@@QAE@XZ
_TEXT	SEGMENT
??1?$_Alloc_construct_ptr@V?$allocator@U?$_Tree_node@U?$pair@$$CBKPAUSEnvironmentData@@@std@@PAX@std@@@std@@@std@@QAE@XZ PROC ; std::_Alloc_construct_ptr<std::allocator<std::_Tree_node<std::pair<unsigned long const ,SEnvironmentData *>,void *> > >::~_Alloc_construct_ptr<std::allocator<std::_Tree_node<std::pair<unsigned long const ,SEnvironmentData *>,void *> > >, COMDAT
; _this$ = ecx

; 1024 :         if (_Ptr) {

  00000	8b 41 04	 mov	 eax, DWORD PTR [ecx+4]
  00003	85 c0		 test	 eax, eax
  00005	74 0b		 je	 SHORT $LN8@Alloc_cons

; 264  :         ::operator delete(_Ptr, _Bytes);

  00007	6a 18		 push	 24			; 00000018H
  00009	50		 push	 eax
  0000a	e8 00 00 00 00	 call	 ??3@YAXPAXI@Z		; operator delete
  0000f	83 c4 08	 add	 esp, 8
$LN8@Alloc_cons:

; 1025 :             _Al.deallocate(_Ptr, 1);
; 1026 :         }
; 1027 :     }

  00012	c3		 ret	 0
??1?$_Alloc_construct_ptr@V?$allocator@U?$_Tree_node@U?$pair@$$CBKPAUSEnvironmentData@@@std@@PAX@std@@@std@@@std@@QAE@XZ ENDP ; std::_Alloc_construct_ptr<std::allocator<std::_Tree_node<std::pair<unsigned long const ,SEnvironmentData *>,void *> > >::~_Alloc_construct_ptr<std::allocator<std::_Tree_node<std::pair<unsigned long const ,SEnvironmentData *>,void *> > >
_TEXT	ENDS
; Function compile flags: /Ogtp
; File C:\Program Files (x86)\Microsoft Visual Studio\2019\Professional\VC\Tools\MSVC\14.29.30133\include\xmemory
; File C:\Program Files (x86)\Microsoft Visual Studio\2019\Professional\VC\Tools\MSVC\14.29.30133\include\xstring
; File C:\Program Files (x86)\Microsoft Visual Studio\2019\Professional\VC\Tools\MSVC\14.29.30133\include\xmemory
; File C:\Program Files (x86)\Microsoft Visual Studio\2019\Professional\VC\Tools\MSVC\14.29.30133\include\xstring
; File C:\Program Files (x86)\Microsoft Visual Studio\2019\Professional\VC\Tools\MSVC\14.29.30133\include\xmemory
;	COMDAT ??$_Uninitialized_move@PAUTMapInfo@CMapManager@@V?$allocator@UTMapInfo@CMapManager@@@std@@@std@@YAPAUTMapInfo@CMapManager@@QAU12@0PAU12@AAV?$allocator@UTMapInfo@CMapManager@@@0@@Z
_TEXT	SEGMENT
__First$ = 8						; size = 4
__Last$ = 12						; size = 4
__Dest$ = 16						; size = 4
__Al$ = 20						; size = 4
??$_Uninitialized_move@PAUTMapInfo@CMapManager@@V?$allocator@UTMapInfo@CMapManager@@@std@@@std@@YAPAUTMapInfo@CMapManager@@QAU12@0PAU12@AAV?$allocator@UTMapInfo@CMapManager@@@0@@Z PROC ; std::_Uninitialized_move<CMapManager::TMapInfo *,std::allocator<CMapManager::TMapInfo> >, COMDAT

; 1713 :     const _InIt _First, const _InIt _Last, _Alloc_ptr_t<_Alloc> _Dest, _Alloc& _Al) {

  00000	55		 push	 ebp
  00001	8b ec		 mov	 ebp, esp

; 1731 :     for (; _UFirst != _ULast; ++_UFirst) {

  00003	8b 45 08	 mov	 eax, DWORD PTR __First$[ebp]
  00006	56		 push	 esi

; 1620 :         : _First(_Dest), _Last(_Dest), _Al(_Al_) {}

  00007	8b 75 10	 mov	 esi, DWORD PTR __Dest$[ebp]

; 1713 :     const _InIt _First, const _InIt _Last, _Alloc_ptr_t<_Alloc> _Dest, _Alloc& _Al) {

  0000a	57		 push	 edi

; 1731 :     for (; _UFirst != _ULast; ++_UFirst) {

  0000b	8b 7d 0c	 mov	 edi, DWORD PTR __Last$[ebp]
  0000e	3b c7		 cmp	 eax, edi
  00010	74 77		 je	 SHORT $LN3@Uninitiali

; 1620 :         : _First(_Dest), _Last(_Dest), _Al(_Al_) {}

  00012	8b d6		 mov	 edx, esi
  00014	8d 48 14	 lea	 ecx, DWORD PTR [eax+20]
  00017	2b d0		 sub	 edx, eax
  00019	0f 1f 80 00 00
	00 00		 npad	 7
$LL4@Uninitiali:
; File C:\Program Files (x86)\Microsoft Visual Studio\2019\Professional\VC\Tools\MSVC\14.29.30133\include\xstring

; 2346 :         _CONSTEXPR20_CONTAINER _Bxty() noexcept : _Ptr() {} // user-provided, for fancy pointers

  00020	c7 06 00 00 00
	00		 mov	 DWORD PTR [esi], 0
; File C:\Program Files (x86)\Microsoft Visual Studio\2019\Professional\VC\Tools\MSVC\14.29.30133\include\xmemory

; 1632 :         ++_Last;

  00026	8d 49 30	 lea	 ecx, DWORD PTR [ecx+48]
; File C:\Program Files (x86)\Microsoft Visual Studio\2019\Professional\VC\Tools\MSVC\14.29.30133\include\xstring

; 2355 :     size_type _Mysize = 0; // current length of string

  00029	c7 46 10 00 00
	00 00		 mov	 DWORD PTR [esi+16], 0

; 2356 :     size_type _Myres  = 0; // current storage reserved for string

  00030	c7 44 0a d0 00
	00 00 00	 mov	 DWORD PTR [edx+ecx-48], 0

; 2869 :         _CSTD memcpy(_My_data_mem, _Right_data_mem, _Memcpy_val_size);

  00038	0f 10 41 bc	 movups	 xmm0, XMMWORD PTR [ecx-68]
  0003c	0f 11 06	 movups	 XMMWORD PTR [esi], xmm0
  0003f	f3 0f 7e 41 cc	 movq	 xmm0, QWORD PTR [ecx-52]
  00044	66 0f d6 46 10	 movq	 QWORD PTR [esi+16], xmm0

; 4596 :         _My_data._Mysize = 0;

  00049	c7 41 cc 00 00
	00 00		 mov	 DWORD PTR [ecx-52], 0

; 4597 : 
; 4598 : #ifdef __cpp_lib_constexpr_string
; 4599 :         if (_STD is_constant_evaluated()) {
; 4600 :             _My_data._Myres        = _BUF_SIZE; // SSO disabled in constexpr context
; 4601 :             auto& _Al              = _Getal();
; 4602 :             const pointer _New_ptr = _Al.allocate(_BUF_SIZE + 1); // throws
; 4603 :             _My_data._Bx._Ptr      = _New_ptr;
; 4604 : 
; 4605 :             _Elem* const _Raw_new = _Unfancy(_New_ptr);
; 4606 :             _Traits::assign(_Raw_new, _BUF_SIZE + 1, _Elem());
; 4607 :         } else
; 4608 : #endif // __cpp_lib_constexpr_string
; 4609 :         {
; 4610 :             _My_data._Myres = _BUF_SIZE - 1;

  00050	c7 41 d0 0f 00
	00 00		 mov	 DWORD PTR [ecx-48], 15	; 0000000fH

; 4611 :             // the _Traits::assign is last so the codegen doesn't think the char write can alias this
; 4612 :             _Traits::assign(_My_data._Bx._Buf[0], _Elem());

  00057	c6 41 bc 00	 mov	 BYTE PTR [ecx-68], 0
  0005b	8b 41 d4	 mov	 eax, DWORD PTR [ecx-44]
  0005e	89 46 18	 mov	 DWORD PTR [esi+24], eax
  00061	8b 41 d8	 mov	 eax, DWORD PTR [ecx-40]
  00064	89 46 1c	 mov	 DWORD PTR [esi+28], eax
  00067	8b 41 dc	 mov	 eax, DWORD PTR [ecx-36]
  0006a	89 46 20	 mov	 DWORD PTR [esi+32], eax
  0006d	8b 41 e0	 mov	 eax, DWORD PTR [ecx-32]
  00070	89 46 24	 mov	 DWORD PTR [esi+36], eax
  00073	8b 41 e4	 mov	 eax, DWORD PTR [ecx-28]
  00076	89 46 28	 mov	 DWORD PTR [esi+40], eax
  00079	8b 41 e8	 mov	 eax, DWORD PTR [ecx-24]
  0007c	89 46 2c	 mov	 DWORD PTR [esi+44], eax
; File C:\Program Files (x86)\Microsoft Visual Studio\2019\Professional\VC\Tools\MSVC\14.29.30133\include\xmemory

; 1731 :     for (; _UFirst != _ULast; ++_UFirst) {

  0007f	8d 41 ec	 lea	 eax, DWORD PTR [ecx-20]

; 1632 :         ++_Last;

  00082	83 c6 30	 add	 esi, 48			; 00000030H

; 1731 :     for (; _UFirst != _ULast; ++_UFirst) {

  00085	3b c7		 cmp	 eax, edi
  00087	75 97		 jne	 SHORT $LL4@Uninitiali
$LN3@Uninitiali:

; 1626 :         _Destroy_range(_First, _Last, _Al);

  00089	ff 75 14	 push	 DWORD PTR __Al$[ebp]
  0008c	56		 push	 esi
  0008d	56		 push	 esi
  0008e	e8 00 00 00 00	 call	 ??$_Destroy_range@V?$allocator@UTMapInfo@CMapManager@@@std@@@std@@YAXPAUTMapInfo@CMapManager@@QAU12@AAV?$allocator@UTMapInfo@CMapManager@@@0@@Z ; std::_Destroy_range<std::allocator<CMapManager::TMapInfo> >
  00093	83 c4 0c	 add	 esp, 12			; 0000000cH

; 1732 :         _Backout._Emplace_back(_STD move(*_UFirst));
; 1733 :     }
; 1734 : 
; 1735 :     return _Backout._Release();

  00096	8b c6		 mov	 eax, esi
  00098	5f		 pop	 edi
  00099	5e		 pop	 esi

; 1736 : }

  0009a	5d		 pop	 ebp
  0009b	c3		 ret	 0
??$_Uninitialized_move@PAUTMapInfo@CMapManager@@V?$allocator@UTMapInfo@CMapManager@@@std@@@std@@YAPAUTMapInfo@CMapManager@@QAU12@0PAU12@AAV?$allocator@UTMapInfo@CMapManager@@@0@@Z ENDP ; std::_Uninitialized_move<CMapManager::TMapInfo *,std::allocator<CMapManager::TMapInfo> >
_TEXT	ENDS
; Function compile flags: /Ogtp
; File C:\Program Files (x86)\Microsoft Visual Studio\2019\Professional\VC\Tools\MSVC\14.29.30133\include\xtree
; File C:\Program Files (x86)\Microsoft Visual Studio\2019\Professional\VC\Tools\MSVC\14.29.30133\include\utility
; File C:\Program Files (x86)\Microsoft Visual Studio\2019\Professional\VC\Tools\MSVC\14.29.30133\include\xmemory
; File C:\Program Files (x86)\Microsoft Visual Studio\2019\Professional\VC\Tools\MSVC\14.29.30133\include\xtree
;	COMDAT ??$_Erase_tree@V?$allocator@U?$_Tree_node@U?$pair@$$CBKPAUSEnvironmentData@@@std@@PAX@std@@@std@@@?$_Tree_val@U?$_Tree_simple_types@U?$pair@$$CBKPAUSEnvironmentData@@@std@@@std@@@std@@QAEXAAV?$allocator@U?$_Tree_node@U?$pair@$$CBKPAUSEnvironmentData@@@std@@PAX@std@@@1@PAU?$_Tree_node@U?$pair@$$CBKPAUSEnvironmentData@@@std@@PAX@1@@Z
_TEXT	SEGMENT
__Al$ = 8						; size = 4
__Rootnode$ = 12					; size = 4
??$_Erase_tree@V?$allocator@U?$_Tree_node@U?$pair@$$CBKPAUSEnvironmentData@@@std@@PAX@std@@@std@@@?$_Tree_val@U?$_Tree_simple_types@U?$pair@$$CBKPAUSEnvironmentData@@@std@@@std@@@std@@QAEXAAV?$allocator@U?$_Tree_node@U?$pair@$$CBKPAUSEnvironmentData@@@std@@PAX@std@@@1@PAU?$_Tree_node@U?$pair@$$CBKPAUSEnvironmentData@@@std@@PAX@1@@Z PROC ; std::_Tree_val<std::_Tree_simple_types<std::pair<unsigned long const ,SEnvironmentData *> > >::_Erase_tree<std::allocator<std::_Tree_node<std::pair<unsigned long const ,SEnvironmentData *>,void *> > >, COMDAT
; _this$ = ecx

; 748  :     void _Erase_tree(_Alnode& _Al, _Nodeptr _Rootnode) noexcept {

  00000	55		 push	 ebp
  00001	8b ec		 mov	 ebp, esp
  00003	53		 push	 ebx
  00004	56		 push	 esi

; 749  :         while (!_Rootnode->_Isnil) { // free subtrees, then node

  00005	8b 75 0c	 mov	 esi, DWORD PTR __Rootnode$[ebp]
  00008	8b d9		 mov	 ebx, ecx
  0000a	80 7e 0d 00	 cmp	 BYTE PTR [esi+13], 0
  0000e	75 25		 jne	 SHORT $LN3@Erase_tree
  00010	57		 push	 edi
  00011	8b 7d 08	 mov	 edi, DWORD PTR __Al$[ebp]
$LL2@Erase_tree:

; 750  :             _Erase_tree(_Al, _Rootnode->_Right);

  00014	ff 76 08	 push	 DWORD PTR [esi+8]
  00017	8b cb		 mov	 ecx, ebx
  00019	57		 push	 edi
  0001a	e8 00 00 00 00	 call	 ??$_Erase_tree@V?$allocator@U?$_Tree_node@U?$pair@$$CBKPAUSEnvironmentData@@@std@@PAX@std@@@std@@@?$_Tree_val@U?$_Tree_simple_types@U?$pair@$$CBKPAUSEnvironmentData@@@std@@@std@@@std@@QAEXAAV?$allocator@U?$_Tree_node@U?$pair@$$CBKPAUSEnvironmentData@@@std@@PAX@std@@@1@PAU?$_Tree_node@U?$pair@$$CBKPAUSEnvironmentData@@@std@@PAX@1@@Z ; std::_Tree_val<std::_Tree_simple_types<std::pair<unsigned long const ,SEnvironmentData *> > >::_Erase_tree<std::allocator<std::_Tree_node<std::pair<unsigned long const ,SEnvironmentData *>,void *> > >
; File C:\Program Files (x86)\Microsoft Visual Studio\2019\Professional\VC\Tools\MSVC\14.29.30133\include\utility

; 616  :     _Ty _Old_val = static_cast<_Ty&&>(_Val);

  0001f	8b c6		 mov	 eax, esi

; 617  :     _Val         = static_cast<_Other&&>(_New_val);

  00021	8b 36		 mov	 esi, DWORD PTR [esi]
; File C:\Program Files (x86)\Microsoft Visual Studio\2019\Professional\VC\Tools\MSVC\14.29.30133\include\xmemory

; 264  :         ::operator delete(_Ptr, _Bytes);

  00023	6a 18		 push	 24			; 00000018H
  00025	50		 push	 eax
  00026	e8 00 00 00 00	 call	 ??3@YAXPAXI@Z		; operator delete
  0002b	83 c4 08	 add	 esp, 8
; File C:\Program Files (x86)\Microsoft Visual Studio\2019\Professional\VC\Tools\MSVC\14.29.30133\include\xtree

; 749  :         while (!_Rootnode->_Isnil) { // free subtrees, then node

  0002e	80 7e 0d 00	 cmp	 BYTE PTR [esi+13], 0
  00032	74 e0		 je	 SHORT $LL2@Erase_tree
  00034	5f		 pop	 edi
$LN3@Erase_tree:
  00035	5e		 pop	 esi

; 751  :             _Alnode::value_type::_Freenode(_Al, _STD exchange(_Rootnode, _Rootnode->_Left));
; 752  :         }
; 753  :     }

  00036	5b		 pop	 ebx
  00037	5d		 pop	 ebp
  00038	c2 08 00	 ret	 8
??$_Erase_tree@V?$allocator@U?$_Tree_node@U?$pair@$$CBKPAUSEnvironmentData@@@std@@PAX@std@@@std@@@?$_Tree_val@U?$_Tree_simple_types@U?$pair@$$CBKPAUSEnvironmentData@@@std@@@std@@@std@@QAEXAAV?$allocator@U?$_Tree_node@U?$pair@$$CBKPAUSEnvironmentData@@@std@@PAX@std@@@1@PAU?$_Tree_node@U?$pair@$$CBKPAUSEnvironmentData@@@std@@PAX@1@@Z ENDP ; std::_Tree_val<std::_Tree_simple_types<std::pair<unsigned long const ,SEnvironmentData *> > >::_Erase_tree<std::allocator<std::_Tree_node<std::pair<unsigned long const ,SEnvironmentData *>,void *> > >
_TEXT	ENDS
; Function compile flags: /Ogtp
; File C:\Program Files (x86)\Microsoft Visual Studio\2019\Professional\VC\Tools\MSVC\14.29.30133\include\xtree
; File C:\Program Files (x86)\Microsoft Visual Studio\2019\Professional\VC\Tools\MSVC\14.29.30133\include\xstddef
; File C:\Program Files (x86)\Microsoft Visual Studio\2019\Professional\VC\Tools\MSVC\14.29.30133\include\xtree
; File C:\Program Files (x86)\Microsoft Visual Studio\2019\Professional\VC\Tools\MSVC\14.29.30133\include\xstddef
; File C:\Program Files (x86)\Microsoft Visual Studio\2019\Professional\VC\Tools\MSVC\14.29.30133\include\xtree
;	COMDAT ??$_Find_lower_bound@K@?$_Tree@V?$_Tmap_traits@KPAUSEnvironmentData@@U?$less@K@std@@V?$allocator@U?$pair@$$CBKPAUSEnvironmentData@@@std@@@3@$0A@@std@@@std@@IBE?AU?$_Tree_find_result@PAU?$_Tree_node@U?$pair@$$CBKPAUSEnvironmentData@@@std@@PAX@std@@@1@ABK@Z
_TEXT	SEGMENT
___$ReturnUdt$ = 8					; size = 4
__Keyval$ = 12						; size = 4
??$_Find_lower_bound@K@?$_Tree@V?$_Tmap_traits@KPAUSEnvironmentData@@U?$less@K@std@@V?$allocator@U?$pair@$$CBKPAUSEnvironmentData@@@std@@@3@$0A@@std@@@std@@IBE?AU?$_Tree_find_result@PAU?$_Tree_node@U?$pair@$$CBKPAUSEnvironmentData@@@std@@PAX@std@@@1@ABK@Z PROC ; std::_Tree<std::_Tmap_traits<unsigned long,SEnvironmentData *,std::less<unsigned long>,std::allocator<std::pair<unsigned long const ,SEnvironmentData *> >,0> >::_Find_lower_bound<unsigned long>, COMDAT
; _this$ = ecx

; 1603 :     _Tree_find_result<_Nodeptr> _Find_lower_bound(const _Keyty& _Keyval) const {

  00000	55		 push	 ebp
  00001	8b ec		 mov	 ebp, esp

; 1604 :         const auto _Scary = _Get_scary();
; 1605 :         _Tree_find_result<_Nodeptr> _Result{{_Scary->_Myhead->_Parent, _Tree_child::_Right}, _Scary->_Myhead};

  00003	8b 09		 mov	 ecx, DWORD PTR [ecx]
  00005	8b 55 08	 mov	 edx, DWORD PTR ___$ReturnUdt$[ebp]
  00008	8b 41 04	 mov	 eax, DWORD PTR [ecx+4]
  0000b	89 02		 mov	 DWORD PTR [edx], eax
  0000d	c7 42 04 00 00
	00 00		 mov	 DWORD PTR [edx+4], 0
  00014	89 4a 08	 mov	 DWORD PTR [edx+8], ecx

; 1606 :         _Nodeptr _Trynode = _Result._Location._Parent;
; 1607 :         while (!_Trynode->_Isnil) {

  00017	80 78 0d 00	 cmp	 BYTE PTR [eax+13], 0
  0001b	75 28		 jne	 SHORT $LN12@Find_lower
; File C:\Program Files (x86)\Microsoft Visual Studio\2019\Professional\VC\Tools\MSVC\14.29.30133\include\xstddef

; 127  :         return _Left < _Right;

  0001d	8b 4d 0c	 mov	 ecx, DWORD PTR __Keyval$[ebp]
  00020	56		 push	 esi
  00021	8b 31		 mov	 esi, DWORD PTR [ecx]
$LL2@Find_lower:
; File C:\Program Files (x86)\Microsoft Visual Studio\2019\Professional\VC\Tools\MSVC\14.29.30133\include\xtree

; 1608 :             _Result._Location._Parent = _Trynode;

  00023	89 02		 mov	 DWORD PTR [edx], eax
; File C:\Program Files (x86)\Microsoft Visual Studio\2019\Professional\VC\Tools\MSVC\14.29.30133\include\xstddef

; 127  :         return _Left < _Right;

  00025	39 70 10	 cmp	 DWORD PTR [eax+16], esi
; File C:\Program Files (x86)\Microsoft Visual Studio\2019\Professional\VC\Tools\MSVC\14.29.30133\include\xtree

; 1609 :             if (_DEBUG_LT_PRED(_Getcomp(), _Traits::_Kfn(_Trynode->_Myval), _Keyval)) {

  00028	73 07		 jae	 SHORT $LN4@Find_lower

; 1610 :                 _Result._Location._Child = _Tree_child::_Right;
; 1611 :                 _Trynode                 = _Trynode->_Right;

  0002a	8b 40 08	 mov	 eax, DWORD PTR [eax+8]
  0002d	33 c9		 xor	 ecx, ecx

; 1612 :             } else {

  0002f	eb 0a		 jmp	 SHORT $LN5@Find_lower
$LN4@Find_lower:

; 1613 :                 _Result._Location._Child = _Tree_child::_Left;
; 1614 :                 _Result._Bound           = _Trynode;

  00031	89 42 08	 mov	 DWORD PTR [edx+8], eax

; 1615 :                 _Trynode                 = _Trynode->_Left;

  00034	b9 01 00 00 00	 mov	 ecx, 1
  00039	8b 00		 mov	 eax, DWORD PTR [eax]
$LN5@Find_lower:

; 1606 :         _Nodeptr _Trynode = _Result._Location._Parent;
; 1607 :         while (!_Trynode->_Isnil) {

  0003b	89 4a 04	 mov	 DWORD PTR [edx+4], ecx
  0003e	80 78 0d 00	 cmp	 BYTE PTR [eax+13], 0
  00042	74 df		 je	 SHORT $LL2@Find_lower

; 1616 :             }
; 1617 :         }
; 1618 : 
; 1619 :         return _Result;

  00044	5e		 pop	 esi
$LN12@Find_lower:

; 1620 :     }

  00045	8b c2		 mov	 eax, edx
  00047	5d		 pop	 ebp
  00048	c2 08 00	 ret	 8
??$_Find_lower_bound@K@?$_Tree@V?$_Tmap_traits@KPAUSEnvironmentData@@U?$less@K@std@@V?$allocator@U?$pair@$$CBKPAUSEnvironmentData@@@std@@@3@$0A@@std@@@std@@IBE?AU?$_Tree_find_result@PAU?$_Tree_node@U?$pair@$$CBKPAUSEnvironmentData@@@std@@PAX@std@@@1@ABK@Z ENDP ; std::_Tree<std::_Tmap_traits<unsigned long,SEnvironmentData *,std::less<unsigned long>,std::allocator<std::pair<unsigned long const ,SEnvironmentData *> >,0> >::_Find_lower_bound<unsigned long>
_TEXT	ENDS
; Function compile flags: /Ogtp
; File C:\Program Files (x86)\Microsoft Visual Studio\2019\Professional\VC\Tools\MSVC\14.29.30133\include\xstring
;	COMDAT ??$?8DU?$char_traits@D@std@@V?$allocator@D@1@@std@@YA_NQBDABV?$basic_string@DU?$char_traits@D@std@@V?$allocator@D@2@@0@@Z
_TEXT	SEGMENT
__Left$ = 8						; size = 4
__Right$ = 12						; size = 4
??$?8DU?$char_traits@D@std@@V?$allocator@D@1@@std@@YA_NQBDABV?$basic_string@DU?$char_traits@D@std@@V?$allocator@D@2@@0@@Z PROC ; std::operator==<char,std::char_traits<char>,std::allocator<char> >, COMDAT

; 4820 : _NODISCARD bool operator==(_In_z_ const _Elem* const _Left, const basic_string<_Elem, _Traits, _Alloc>& _Right) {

  00000	55		 push	 ebp
  00001	8b ec		 mov	 ebp, esp

; 412  :         return _CSTD strlen(reinterpret_cast<const char*>(_First));

  00003	8b 4d 08	 mov	 ecx, DWORD PTR __Left$[ebp]
  00006	8d 51 01	 lea	 edx, DWORD PTR [ecx+1]
  00009	0f 1f 80 00 00
	00 00		 npad	 7
$LL12@operator:
  00010	8a 01		 mov	 al, BYTE PTR [ecx]
  00012	41		 inc	 ecx
  00013	84 c0		 test	 al, al
  00015	75 f9		 jne	 SHORT $LL12@operator

; 2305 :         const value_type* _Result = _Bx._Buf;

  00017	8b 45 0c	 mov	 eax, DWORD PTR __Right$[ebp]

; 412  :         return _CSTD strlen(reinterpret_cast<const char*>(_First));

  0001a	2b ca		 sub	 ecx, edx

; 2305 :         const value_type* _Result = _Bx._Buf;

  0001c	8b d0		 mov	 edx, eax

; 2319 :         return _BUF_SIZE <= _Myres;

  0001e	83 78 14 10	 cmp	 DWORD PTR [eax+20], 16	; 00000010H

; 2306 :         if (_Large_string_engaged()) {

  00022	72 02		 jb	 SHORT $LN8@operator

; 2307 :             _Result = _Unfancy(_Bx._Ptr);

  00024	8b 10		 mov	 edx, DWORD PTR [eax]
$LN8@operator:

; 4378 :         return _Traits_equal<_Traits>(_Mypair._Myval2._Myptr(), _Mypair._Myval2._Mysize, _Ptr, _Traits::length(_Ptr));

  00026	51		 push	 ecx
  00027	ff 75 08	 push	 DWORD PTR __Left$[ebp]
  0002a	ff 70 10	 push	 DWORD PTR [eax+16]
  0002d	52		 push	 edx
  0002e	e8 00 00 00 00	 call	 ??$_Traits_equal@U?$char_traits@D@std@@@std@@YA_NQBDI0I@Z ; std::_Traits_equal<std::char_traits<char> >
  00033	83 c4 10	 add	 esp, 16			; 00000010H

; 4821 :     return _Right._Equal(_Left);
; 4822 : }

  00036	5d		 pop	 ebp
  00037	c3		 ret	 0
??$?8DU?$char_traits@D@std@@V?$allocator@D@1@@std@@YA_NQBDABV?$basic_string@DU?$char_traits@D@std@@V?$allocator@D@2@@0@@Z ENDP ; std::operator==<char,std::char_traits<char>,std::allocator<char> >
_TEXT	ENDS
; Function compile flags: /Ogtp
; File C:\Program Files (x86)\Microsoft Visual Studio\2019\Professional\VC\Tools\MSVC\14.29.30133\include\xmemory
; File C:\Program Files (x86)\Microsoft Visual Studio\2019\Professional\VC\Tools\MSVC\14.29.30133\include\xstring
; File C:\Program Files (x86)\Microsoft Visual Studio\2019\Professional\VC\Tools\MSVC\14.29.30133\include\xmemory
; File C:\Program Files (x86)\Microsoft Visual Studio\2019\Professional\VC\Tools\MSVC\14.29.30133\include\xstring
; File C:\Program Files (x86)\Microsoft Visual Studio\2019\Professional\VC\Tools\MSVC\14.29.30133\include\xmemory
; File C:\Program Files (x86)\Microsoft Visual Studio\2019\Professional\VC\Tools\MSVC\14.29.30133\include\xstring
; File C:\Program Files (x86)\Microsoft Visual Studio\2019\Professional\VC\Tools\MSVC\14.29.30133\include\xmemory
;	COMDAT ??$_Destroy_range@V?$allocator@UTMapInfo@CMapManager@@@std@@@std@@YAXPAUTMapInfo@CMapManager@@QAU12@AAV?$allocator@UTMapInfo@CMapManager@@@0@@Z
_TEXT	SEGMENT
__First$ = 8						; size = 4
__Last$ = 12						; size = 4
__Al$ = 16						; size = 4
??$_Destroy_range@V?$allocator@UTMapInfo@CMapManager@@@std@@@std@@YAXPAUTMapInfo@CMapManager@@QAU12@AAV?$allocator@UTMapInfo@CMapManager@@@0@@Z PROC ; std::_Destroy_range<std::allocator<CMapManager::TMapInfo> >, COMDAT

; 945  :     _Alloc_ptr_t<_Alloc> _First, const _Alloc_ptr_t<_Alloc> _Last, _Alloc& _Al) noexcept {

  00000	55		 push	 ebp
  00001	8b ec		 mov	 ebp, esp
  00003	56		 push	 esi

; 949  :         for (; _First != _Last; ++_First) {

  00004	8b 75 08	 mov	 esi, DWORD PTR __First$[ebp]
  00007	57		 push	 edi
  00008	8b 7d 0c	 mov	 edi, DWORD PTR __Last$[ebp]
  0000b	3b f7		 cmp	 esi, edi
  0000d	74 48		 je	 SHORT $LN49@Destroy_ra
  0000f	90		 npad	 1
$LL4@Destroy_ra:
; File C:\Program Files (x86)\Microsoft Visual Studio\2019\Professional\VC\Tools\MSVC\14.29.30133\include\xstring

; 2319 :         return _BUF_SIZE <= _Myres;

  00010	8b 4e 14	 mov	 ecx, DWORD PTR [esi+20]
  00013	83 f9 10	 cmp	 ecx, 16			; 00000010H

; 4618 :         if (_Mypair._Myval2._Large_string_engaged()) {

  00016	72 27		 jb	 SHORT $LN26@Destroy_ra
; File C:\Program Files (x86)\Microsoft Visual Studio\2019\Professional\VC\Tools\MSVC\14.29.30133\include\xmemory

; 835  :         _Deallocate<_New_alignof<_Ty>>(_Ptr, sizeof(_Ty) * _Count);

  00018	8b 06		 mov	 eax, DWORD PTR [esi]
; File C:\Program Files (x86)\Microsoft Visual Studio\2019\Professional\VC\Tools\MSVC\14.29.30133\include\xstring

; 4622 :             _Al.deallocate(_Ptr, _Mypair._Myval2._Myres + 1);

  0001a	41		 inc	 ecx
; File C:\Program Files (x86)\Microsoft Visual Studio\2019\Professional\VC\Tools\MSVC\14.29.30133\include\xmemory

; 260  :         if (_Bytes >= _Big_allocation_threshold) { // boost the alignment of big allocations to help autovectorization

  0001b	81 f9 00 10 00
	00		 cmp	 ecx, 4096		; 00001000H
  00021	72 12		 jb	 SHORT $LN36@Destroy_ra

; 158  :     const uintptr_t _Ptr_container   = _Ptr_user[-1];

  00023	8b 50 fc	 mov	 edx, DWORD PTR [eax-4]
  00026	83 c1 23	 add	 ecx, 35			; 00000023H

; 159  : 
; 160  :     // If the following asserts, it likely means that we are performing
; 161  :     // an aligned delete on memory coming from an unaligned allocation.
; 162  :     _STL_ASSERT(_Ptr_user[-2] == _Big_allocation_sentinel, "invalid argument");
; 163  : 
; 164  :     // Extra paranoia on aligned allocation/deallocation; ensure _Ptr_container is
; 165  :     // in range [_Min_back_shift, _Non_user_size]
; 166  : #ifdef _DEBUG
; 167  :     constexpr uintptr_t _Min_back_shift = 2 * sizeof(void*);
; 168  : #else // ^^^ _DEBUG ^^^ // vvv !_DEBUG vvv
; 169  :     constexpr uintptr_t _Min_back_shift = sizeof(void*);
; 170  : #endif // _DEBUG
; 171  :     const uintptr_t _Back_shift = reinterpret_cast<uintptr_t>(_Ptr) - _Ptr_container;

  00029	2b c2		 sub	 eax, edx

; 172  :     _STL_VERIFY(_Back_shift >= _Min_back_shift && _Back_shift <= _Non_user_size, "invalid argument");

  0002b	83 c0 fc	 add	 eax, -4			; fffffffcH
  0002e	83 f8 1f	 cmp	 eax, 31			; 0000001fH
  00031	77 28		 ja	 SHORT $LN33@Destroy_ra

; 173  :     _Ptr = reinterpret_cast<void*>(_Ptr_container);

  00033	8b c2		 mov	 eax, edx
$LN36@Destroy_ra:

; 264  :         ::operator delete(_Ptr, _Bytes);

  00035	51		 push	 ecx
  00036	50		 push	 eax
  00037	e8 00 00 00 00	 call	 ??3@YAXPAXI@Z		; operator delete
  0003c	83 c4 08	 add	 esp, 8
$LN26@Destroy_ra:
; File C:\Program Files (x86)\Microsoft Visual Studio\2019\Professional\VC\Tools\MSVC\14.29.30133\include\xstring

; 4633 :             _Mypair._Myval2._Mysize = 0;

  0003f	c7 46 10 00 00
	00 00		 mov	 DWORD PTR [esi+16], 0

; 4634 :             _Mypair._Myval2._Myres  = _BUF_SIZE - 1;

  00046	c7 46 14 0f 00
	00 00		 mov	 DWORD PTR [esi+20], 15	; 0000000fH

; 4635 :             // the _Traits::assign is last so the codegen doesn't think the char write can alias this
; 4636 :             _Traits::assign(_Mypair._Myval2._Bx._Buf[0], _Elem());

  0004d	c6 06 00	 mov	 BYTE PTR [esi], 0
; File C:\Program Files (x86)\Microsoft Visual Studio\2019\Professional\VC\Tools\MSVC\14.29.30133\include\xmemory

; 949  :         for (; _First != _Last; ++_First) {

  00050	83 c6 30	 add	 esi, 48			; 00000030H
  00053	3b f7		 cmp	 esi, edi
  00055	75 b9		 jne	 SHORT $LL4@Destroy_ra
$LN49@Destroy_ra:
  00057	5f		 pop	 edi

; 950  :             allocator_traits<_Alloc>::destroy(_Al, _Unfancy(_First));
; 951  :         }
; 952  :     }
; 953  : }

  00058	5e		 pop	 esi
  00059	5d		 pop	 ebp
  0005a	c3		 ret	 0
$LN33@Destroy_ra:

; 172  :     _STL_VERIFY(_Back_shift >= _Min_back_shift && _Back_shift <= _Non_user_size, "invalid argument");

  0005b	e8 00 00 00 00	 call	 __invalid_parameter_noinfo_noreturn
$LN50@Destroy_ra:
  00060	cc		 int	 3
??$_Destroy_range@V?$allocator@UTMapInfo@CMapManager@@@std@@@std@@YAXPAUTMapInfo@CMapManager@@QAU12@AAV?$allocator@UTMapInfo@CMapManager@@@0@@Z ENDP ; std::_Destroy_range<std::allocator<CMapManager::TMapInfo> >
_TEXT	ENDS
; Function compile flags: /Ogtp
; File C:\Program Files (x86)\Microsoft Visual Studio\2019\Professional\VC\Tools\MSVC\14.29.30133\include\vector
; File C:\Program Files (x86)\Microsoft Visual Studio\2019\Professional\VC\Tools\MSVC\14.29.30133\include\xmemory
; File C:\Program Files (x86)\Microsoft Visual Studio\2019\Professional\VC\Tools\MSVC\14.29.30133\include\vector
; File C:\Program Files (x86)\Microsoft Visual Studio\2019\Professional\VC\Tools\MSVC\14.29.30133\include\xmemory
; File C:\Program Files (x86)\Microsoft Visual Studio\2019\Professional\VC\Tools\MSVC\14.29.30133\include\vector
; File C:\Program Files (x86)\Microsoft Visual Studio\2019\Professional\VC\Tools\MSVC\14.29.30133\include\xmemory
; File C:\Program Files (x86)\Microsoft Visual Studio\2019\Professional\VC\Tools\MSVC\14.29.30133\include\vector
; File C:\Program Files (x86)\Microsoft Visual Studio\2019\Professional\VC\Tools\MSVC\14.29.30133\include\xmemory
; File C:\Program Files (x86)\Microsoft Visual Studio\2019\Professional\VC\Tools\MSVC\14.29.30133\include\vector
;	COMDAT ??$_Emplace_reallocate@ABUTMapInfo@CMapManager@@@?$vector@UTMapInfo@CMapManager@@V?$allocator@UTMapInfo@CMapManager@@@std@@@std@@QAEPAUTMapInfo@CMapManager@@QAU23@ABU23@@Z
_TEXT	SEGMENT
_this$ = -40						; size = 4
__Oldsize$1$ = -36					; size = 4
tv464 = -32						; size = 4
__Whereoff$1$ = -32					; size = 4
tv475 = -28						; size = 4
__Constructed_last$ = -28				; size = 4
$T2 = -24						; size = 4
__Newcapacity$ = -20					; size = 4
__$EHRec$ = -16						; size = 16
__Whereptr$ = 8						; size = 4
_<_Val_0>$ = 12						; size = 4
??$_Emplace_reallocate@ABUTMapInfo@CMapManager@@@?$vector@UTMapInfo@CMapManager@@V?$allocator@UTMapInfo@CMapManager@@@std@@@std@@QAEPAUTMapInfo@CMapManager@@QAU23@ABU23@@Z PROC ; std::vector<CMapManager::TMapInfo,std::allocator<CMapManager::TMapInfo> >::_Emplace_reallocate<CMapManager::TMapInfo const &>, COMDAT
; _this$ = ecx

; 765  :     _CONSTEXPR20_CONTAINER pointer _Emplace_reallocate(const pointer _Whereptr, _Valty&&... _Val) {

  00000	55		 push	 ebp
  00001	8b ec		 mov	 ebp, esp
  00003	6a ff		 push	 -1
  00005	68 00 00 00 00	 push	 __ehhandler$??$_Emplace_reallocate@ABUTMapInfo@CMapManager@@@?$vector@UTMapInfo@CMapManager@@V?$allocator@UTMapInfo@CMapManager@@@std@@@std@@QAEPAUTMapInfo@CMapManager@@QAU23@ABU23@@Z
  0000a	64 a1 00 00 00
	00		 mov	 eax, DWORD PTR fs:0
  00010	50		 push	 eax
  00011	83 ec 1c	 sub	 esp, 28			; 0000001cH
  00014	53		 push	 ebx
  00015	56		 push	 esi
  00016	57		 push	 edi
  00017	a1 00 00 00 00	 mov	 eax, DWORD PTR ___security_cookie
  0001c	33 c5		 xor	 eax, ebp
  0001e	50		 push	 eax
  0001f	8d 45 f4	 lea	 eax, DWORD PTR __$EHRec$[ebp+4]
  00022	64 a3 00 00 00
	00		 mov	 DWORD PTR fs:0, eax
  00028	89 65 f0	 mov	 DWORD PTR __$EHRec$[ebp], esp
  0002b	8b f9		 mov	 edi, ecx
  0002d	89 7d d8	 mov	 DWORD PTR _this$[ebp], edi

; 766  :         // reallocate and insert by perfectly forwarding _Val at _Whereptr
; 767  :         _Alty& _Al        = _Getal();
; 768  :         auto& _My_data    = _Mypair._Myval2;
; 769  :         pointer& _Myfirst = _My_data._Myfirst;
; 770  :         pointer& _Mylast  = _My_data._Mylast;
; 771  : 
; 772  :         _STL_INTERNAL_CHECK(_Mylast == _My_data._Myend); // check that we have no unused capacity
; 773  : 
; 774  :         const auto _Whereoff = static_cast<size_type>(_Whereptr - _Myfirst);

  00030	8b 37		 mov	 esi, DWORD PTR [edi]
  00032	b8 ab aa aa 2a	 mov	 eax, 715827883		; 2aaaaaabH
  00037	8b 55 08	 mov	 edx, DWORD PTR __Whereptr$[ebp]

; 775  :         const auto _Oldsize  = static_cast<size_type>(_Mylast - _Myfirst);

  0003a	8b 4f 04	 mov	 ecx, DWORD PTR [edi+4]
  0003d	2b d6		 sub	 edx, esi
  0003f	f7 ea		 imul	 edx
  00041	2b ce		 sub	 ecx, esi
  00043	c1 fa 03	 sar	 edx, 3
  00046	8b c2		 mov	 eax, edx
  00048	c1 e8 1f	 shr	 eax, 31			; 0000001fH
  0004b	03 c2		 add	 eax, edx
  0004d	89 45 e0	 mov	 DWORD PTR __Whereoff$1$[ebp], eax
  00050	b8 ab aa aa 2a	 mov	 eax, 715827883		; 2aaaaaabH
  00055	f7 e9		 imul	 ecx
  00057	c1 fa 03	 sar	 edx, 3
  0005a	8b c2		 mov	 eax, edx
  0005c	c1 e8 1f	 shr	 eax, 31			; 0000001fH
  0005f	03 c2		 add	 eax, edx
  00061	89 45 dc	 mov	 DWORD PTR __Oldsize$1$[ebp], eax

; 776  : 
; 777  :         if (_Oldsize == max_size()) {

  00064	3d 55 55 55 05	 cmp	 eax, 89478485		; 05555555H
  00069	0f 84 97 01 00
	00		 je	 $LN68@Emplace_re

; 1559 :         return static_cast<size_type>(_My_data._Myend - _My_data._Myfirst);

  0006f	8b 4f 08	 mov	 ecx, DWORD PTR [edi+8]

; 779  :         }
; 780  : 
; 781  :         const size_type _Newsize     = _Oldsize + 1;

  00072	8d 58 01	 lea	 ebx, DWORD PTR [eax+1]

; 1559 :         return static_cast<size_type>(_My_data._Myend - _My_data._Myfirst);

  00075	2b ce		 sub	 ecx, esi
  00077	b8 ab aa aa 2a	 mov	 eax, 715827883		; 2aaaaaabH
  0007c	f7 e9		 imul	 ecx

; 1688 :         if (_Oldcapacity > _Max - _Oldcapacity / 2) {

  0007e	b8 55 55 55 05	 mov	 eax, 89478485		; 05555555H

; 1559 :         return static_cast<size_type>(_My_data._Myend - _My_data._Myfirst);

  00083	c1 fa 03	 sar	 edx, 3
  00086	8b ca		 mov	 ecx, edx
  00088	c1 e9 1f	 shr	 ecx, 31			; 0000001fH
  0008b	03 ca		 add	 ecx, edx

; 1688 :         if (_Oldcapacity > _Max - _Oldcapacity / 2) {

  0008d	8b d1		 mov	 edx, ecx
  0008f	d1 ea		 shr	 edx, 1
  00091	2b c2		 sub	 eax, edx
  00093	3b c8		 cmp	 ecx, eax
  00095	76 19		 jbe	 SHORT $LN12@Emplace_re

; 1689 :             return _Max; // geometric growth would overflow

  00097	bb f0 ff ff ff	 mov	 ebx, -16		; fffffff0H
  0009c	c7 45 ec 55 55
	55 05		 mov	 DWORD PTR __Newcapacity$[ebp], 89478485 ; 05555555H
; File C:\Program Files (x86)\Microsoft Visual Studio\2019\Professional\VC\Tools\MSVC\14.29.30133\include\xmemory

; 238  :             return _Allocate_manually_vector_aligned<_Traits>(_Bytes);

  000a3	53		 push	 ebx
  000a4	e8 00 00 00 00	 call	 ??$_Allocate_manually_vector_aligned@U_Default_allocate_traits@std@@@std@@YAPAXI@Z ; std::_Allocate_manually_vector_aligned<std::_Default_allocate_traits>
  000a9	83 c4 04	 add	 esp, 4
  000ac	8b f0		 mov	 esi, eax
  000ae	eb 53		 jmp	 SHORT $LN66@Emplace_re
$LN12@Emplace_re:
; File C:\Program Files (x86)\Microsoft Visual Studio\2019\Professional\VC\Tools\MSVC\14.29.30133\include\vector

; 1692 :         const size_type _Geometric = _Oldcapacity + _Oldcapacity / 2;

  000b0	8d 04 0a	 lea	 eax, DWORD PTR [edx+ecx]
; File C:\Program Files (x86)\Microsoft Visual Studio\2019\Professional\VC\Tools\MSVC\14.29.30133\include\xmemory

; 64   :         if (_Count > _Max_possible) {

  000b3	8b cb		 mov	 ecx, ebx
  000b5	3b c3		 cmp	 eax, ebx
  000b7	0f 43 c8	 cmovae	 ecx, eax
  000ba	89 4d e4	 mov	 DWORD PTR tv475[ebp], ecx
  000bd	81 f9 55 55 55
	05		 cmp	 ecx, 89478485		; 05555555H
  000c3	0f 87 42 01 00
	00		 ja	 $LN69@Emplace_re

; 66   :         }
; 67   :     }
; 68   : 
; 69   :     return _Count * _Ty_size;

  000c9	8d 1c 49	 lea	 ebx, DWORD PTR [ecx+ecx*2]
  000cc	89 4d ec	 mov	 DWORD PTR __Newcapacity$[ebp], ecx
  000cf	c1 e3 04	 shl	 ebx, 4

; 237  :         if (_Bytes >= _Big_allocation_threshold) { // boost the alignment of big allocations to help autovectorization

  000d2	81 fb 00 10 00
	00		 cmp	 ebx, 4096		; 00001000H
  000d8	72 0d		 jb	 SHORT $LN24@Emplace_re

; 238  :             return _Allocate_manually_vector_aligned<_Traits>(_Bytes);

  000da	53		 push	 ebx
  000db	e8 00 00 00 00	 call	 ??$_Allocate_manually_vector_aligned@U_Default_allocate_traits@std@@@std@@YAPAXI@Z ; std::_Allocate_manually_vector_aligned<std::_Default_allocate_traits>
  000e0	83 c4 04	 add	 esp, 4
  000e3	8b f0		 mov	 esi, eax
  000e5	eb 1c		 jmp	 SHORT $LN66@Emplace_re
$LN24@Emplace_re:

; 239  :         }
; 240  :     }
; 241  : #endif // defined(_M_IX86) || defined(_M_X64)
; 242  : 
; 243  :     if (_Bytes != 0) {

  000e7	85 db		 test	 ebx, ebx
  000e9	74 13		 je	 SHORT $LN25@Emplace_re

; 85   :         return ::operator new(_Bytes);

  000eb	53		 push	 ebx
  000ec	e8 00 00 00 00	 call	 ??2@YAPAXI@Z		; operator new

; 244  :         return _Traits::_Allocate(_Bytes);

  000f1	8b f0		 mov	 esi, eax

; 85   :         return ::operator new(_Bytes);

  000f3	83 c4 04	 add	 esp, 4

; 244  :         return _Traits::_Allocate(_Bytes);

  000f6	8b 45 e4	 mov	 eax, DWORD PTR tv475[ebp]
  000f9	89 45 ec	 mov	 DWORD PTR __Newcapacity$[ebp], eax
  000fc	eb 05		 jmp	 SHORT $LN66@Emplace_re
$LN25@Emplace_re:

; 245  :     }
; 246  : 
; 247  :     return nullptr;

  000fe	33 f6		 xor	 esi, esi
  00100	89 4d ec	 mov	 DWORD PTR __Newcapacity$[ebp], ecx
$LN66@Emplace_re:
; File C:\Program Files (x86)\Microsoft Visual Studio\2019\Professional\VC\Tools\MSVC\14.29.30133\include\vector

; 785  :         const pointer _Constructed_last = _Newvec + _Whereoff + 1;

  00103	8b 45 e0	 mov	 eax, DWORD PTR __Whereoff$1$[ebp]

; 786  :         pointer _Constructed_first      = _Constructed_last;
; 787  : 
; 788  :         _TRY_BEGIN
; 789  :         _Alty_traits::construct(_Al, _Unfancy(_Newvec + _Whereoff), _STD forward<_Valty>(_Val)...);

  00106	ff 75 0c	 push	 DWORD PTR _<_Val_0>$[ebp]
  00109	89 75 e8	 mov	 DWORD PTR $T2[ebp], esi
  0010c	c7 45 fc 00 00
	00 00		 mov	 DWORD PTR __$EHRec$[ebp+12], 0
  00113	8d 0c 40	 lea	 ecx, DWORD PTR [eax+eax*2]
  00116	c1 e1 04	 shl	 ecx, 4
  00119	03 ce		 add	 ecx, esi
  0011b	51		 push	 ecx
  0011c	57		 push	 edi
  0011d	89 4d e0	 mov	 DWORD PTR tv464[ebp], ecx
  00120	8d 41 30	 lea	 eax, DWORD PTR [ecx+48]
  00123	89 45 e4	 mov	 DWORD PTR __Constructed_last$[ebp], eax
  00126	e8 00 00 00 00	 call	 ??$construct@UTMapInfo@CMapManager@@ABU12@@?$_Default_allocator_traits@V?$allocator@UTMapInfo@CMapManager@@@std@@@std@@SAXAAV?$allocator@UTMapInfo@CMapManager@@@1@QAUTMapInfo@CMapManager@@ABU34@@Z ; std::_Default_allocator_traits<std::allocator<CMapManager::TMapInfo> >::construct<CMapManager::TMapInfo,CMapManager::TMapInfo const &>

; 790  :         _Constructed_first = _Newvec + _Whereoff;
; 791  : 
; 792  :         if (_Whereptr == _Mylast) { // at back, provide strong guarantee

  0012b	8b 47 04	 mov	 eax, DWORD PTR [edi+4]
  0012e	83 c4 0c	 add	 esp, 12			; 0000000cH
  00131	8b 55 08	 mov	 edx, DWORD PTR __Whereptr$[ebp]
  00134	8b 0f		 mov	 ecx, DWORD PTR [edi]
  00136	3b d0		 cmp	 edx, eax
  00138	75 04		 jne	 SHORT $LN4@Emplace_re

; 1664 :         _Uninitialized_move(_First, _Last, _Dest, _Getal());

  0013a	8b d6		 mov	 edx, esi

; 793  :             _Umove_if_noexcept(_Myfirst, _Mylast, _Newvec);
; 794  :         } else { // provide basic guarantee

  0013c	eb 15		 jmp	 SHORT $LN5@Emplace_re
$LN4@Emplace_re:

; 1659 :         return _Uninitialized_move(_First, _Last, _Dest, _Getal());

  0013e	57		 push	 edi
  0013f	56		 push	 esi
  00140	52		 push	 edx
  00141	51		 push	 ecx
  00142	e8 00 00 00 00	 call	 ??$_Uninitialized_move@PAUTMapInfo@CMapManager@@V?$allocator@UTMapInfo@CMapManager@@@std@@@std@@YAPAUTMapInfo@CMapManager@@QAU12@0PAU12@AAV?$allocator@UTMapInfo@CMapManager@@@0@@Z ; std::_Uninitialized_move<CMapManager::TMapInfo *,std::allocator<CMapManager::TMapInfo> >
  00147	8b 4d 08	 mov	 ecx, DWORD PTR __Whereptr$[ebp]
  0014a	83 c4 10	 add	 esp, 16			; 00000010H
  0014d	8b 47 04	 mov	 eax, DWORD PTR [edi+4]
  00150	8b 55 e4	 mov	 edx, DWORD PTR __Constructed_last$[ebp]
$LN5@Emplace_re:

; 795  :             _Umove(_Myfirst, _Whereptr, _Newvec);
; 796  :             _Constructed_first = _Newvec;
; 797  :             _Umove(_Whereptr, _Mylast, _Newvec + _Whereoff + 1);

  00153	57		 push	 edi
  00154	52		 push	 edx
  00155	50		 push	 eax
  00156	51		 push	 ecx
  00157	e8 00 00 00 00	 call	 ??$_Uninitialized_move@PAUTMapInfo@CMapManager@@V?$allocator@UTMapInfo@CMapManager@@@std@@@std@@YAPAUTMapInfo@CMapManager@@QAU12@0PAU12@AAV?$allocator@UTMapInfo@CMapManager@@@0@@Z ; std::_Uninitialized_move<CMapManager::TMapInfo *,std::allocator<CMapManager::TMapInfo> >

; 1745 :         if (_Myfirst) { // destroy and deallocate old array

  0015c	8b 0f		 mov	 ecx, DWORD PTR [edi]

; 795  :             _Umove(_Myfirst, _Whereptr, _Newvec);
; 796  :             _Constructed_first = _Newvec;
; 797  :             _Umove(_Whereptr, _Mylast, _Newvec + _Whereoff + 1);

  0015e	83 c4 10	 add	 esp, 16			; 00000010H

; 1745 :         if (_Myfirst) { // destroy and deallocate old array

  00161	85 c9		 test	 ecx, ecx
  00163	74 4f		 je	 SHORT $LN47@Emplace_re

; 1680 :         _Destroy_range(_First, _Last, _Getal());

  00165	57		 push	 edi
  00166	ff 77 04	 push	 DWORD PTR [edi+4]
  00169	51		 push	 ecx
  0016a	e8 00 00 00 00	 call	 ??$_Destroy_range@V?$allocator@UTMapInfo@CMapManager@@@std@@@std@@YAXPAUTMapInfo@CMapManager@@QAU12@AAV?$allocator@UTMapInfo@CMapManager@@@0@@Z ; std::_Destroy_range<std::allocator<CMapManager::TMapInfo> >

; 1747 :             _Getal().deallocate(_Myfirst, static_cast<size_type>(_Myend - _Myfirst));

  0016f	8b 4f 08	 mov	 ecx, DWORD PTR [edi+8]
  00172	b8 ab aa aa 2a	 mov	 eax, 715827883		; 2aaaaaabH
  00177	2b 0f		 sub	 ecx, DWORD PTR [edi]

; 1680 :         _Destroy_range(_First, _Last, _Getal());

  00179	83 c4 0c	 add	 esp, 12			; 0000000cH

; 1747 :             _Getal().deallocate(_Myfirst, static_cast<size_type>(_Myend - _Myfirst));

  0017c	f7 e9		 imul	 ecx
  0017e	c1 fa 03	 sar	 edx, 3
  00181	8b c2		 mov	 eax, edx
  00183	c1 e8 1f	 shr	 eax, 31			; 0000001fH
  00186	03 c2		 add	 eax, edx
; File C:\Program Files (x86)\Microsoft Visual Studio\2019\Professional\VC\Tools\MSVC\14.29.30133\include\xmemory

; 835  :         _Deallocate<_New_alignof<_Ty>>(_Ptr, sizeof(_Ty) * _Count);

  00188	8d 0c 40	 lea	 ecx, DWORD PTR [eax+eax*2]

; 260  :         if (_Bytes >= _Big_allocation_threshold) { // boost the alignment of big allocations to help autovectorization

  0018b	8b 07		 mov	 eax, DWORD PTR [edi]

; 835  :         _Deallocate<_New_alignof<_Ty>>(_Ptr, sizeof(_Ty) * _Count);

  0018d	c1 e1 04	 shl	 ecx, 4

; 260  :         if (_Bytes >= _Big_allocation_threshold) { // boost the alignment of big allocations to help autovectorization

  00190	81 f9 00 10 00
	00		 cmp	 ecx, 4096		; 00001000H
  00196	72 12		 jb	 SHORT $LN57@Emplace_re

; 158  :     const uintptr_t _Ptr_container   = _Ptr_user[-1];

  00198	8b 50 fc	 mov	 edx, DWORD PTR [eax-4]
  0019b	83 c1 23	 add	 ecx, 35			; 00000023H

; 159  : 
; 160  :     // If the following asserts, it likely means that we are performing
; 161  :     // an aligned delete on memory coming from an unaligned allocation.
; 162  :     _STL_ASSERT(_Ptr_user[-2] == _Big_allocation_sentinel, "invalid argument");
; 163  : 
; 164  :     // Extra paranoia on aligned allocation/deallocation; ensure _Ptr_container is
; 165  :     // in range [_Min_back_shift, _Non_user_size]
; 166  : #ifdef _DEBUG
; 167  :     constexpr uintptr_t _Min_back_shift = 2 * sizeof(void*);
; 168  : #else // ^^^ _DEBUG ^^^ // vvv !_DEBUG vvv
; 169  :     constexpr uintptr_t _Min_back_shift = sizeof(void*);
; 170  : #endif // _DEBUG
; 171  :     const uintptr_t _Back_shift = reinterpret_cast<uintptr_t>(_Ptr) - _Ptr_container;

  0019e	2b c2		 sub	 eax, edx

; 172  :     _STL_VERIFY(_Back_shift >= _Min_back_shift && _Back_shift <= _Non_user_size, "invalid argument");

  001a0	83 c0 fc	 add	 eax, -4			; fffffffcH
  001a3	83 f8 1f	 cmp	 eax, 31			; 0000001fH
  001a6	77 68		 ja	 SHORT $LN54@Emplace_re

; 173  :     _Ptr = reinterpret_cast<void*>(_Ptr_container);

  001a8	8b c2		 mov	 eax, edx
$LN57@Emplace_re:

; 264  :         ::operator delete(_Ptr, _Bytes);

  001aa	51		 push	 ecx
  001ab	50		 push	 eax
  001ac	e8 00 00 00 00	 call	 ??3@YAXPAXI@Z		; operator delete
  001b1	83 c4 08	 add	 esp, 8
$LN47@Emplace_re:
; File C:\Program Files (x86)\Microsoft Visual Studio\2019\Professional\VC\Tools\MSVC\14.29.30133\include\vector

; 1751 :         _Mylast  = _Newvec + _Newsize;

  001b4	8b 45 dc	 mov	 eax, DWORD PTR __Oldsize$1$[ebp]
  001b7	40		 inc	 eax
  001b8	89 37		 mov	 DWORD PTR [edi], esi
  001ba	8d 0c 40	 lea	 ecx, DWORD PTR [eax+eax*2]

; 803  :         _CATCH_END
; 804  : 
; 805  :         _Change_array(_Newvec, _Newsize, _Newcapacity);
; 806  :         return _Newvec + _Whereoff;

  001bd	8b 45 e0	 mov	 eax, DWORD PTR tv464[ebp]

; 1751 :         _Mylast  = _Newvec + _Newsize;

  001c0	c1 e1 04	 shl	 ecx, 4
  001c3	03 ce		 add	 ecx, esi
  001c5	89 4f 04	 mov	 DWORD PTR [edi+4], ecx

; 1752 :         _Myend   = _Newvec + _Newcapacity;

  001c8	8d 0c 33	 lea	 ecx, DWORD PTR [ebx+esi]
  001cb	89 4f 08	 mov	 DWORD PTR [edi+8], ecx

; 807  :     }

  001ce	8b 4d f4	 mov	 ecx, DWORD PTR __$EHRec$[ebp+4]
  001d1	64 89 0d 00 00
	00 00		 mov	 DWORD PTR fs:0, ecx
  001d8	59		 pop	 ecx
  001d9	5f		 pop	 edi
  001da	5e		 pop	 esi
  001db	5b		 pop	 ebx
  001dc	8b e5		 mov	 esp, ebp
  001de	5d		 pop	 ebp
  001df	c2 08 00	 ret	 8
__catch$??$_Emplace_reallocate@ABUTMapInfo@CMapManager@@@?$vector@UTMapInfo@CMapManager@@V?$allocator@UTMapInfo@CMapManager@@@std@@@std@@QAEPAUTMapInfo@CMapManager@@QAU23@ABU23@@Z$0:

; 798  :         }
; 799  :         _CATCH_ALL
; 800  :         _Destroy(_Constructed_first, _Constructed_last);

  001e2	8b 45 e4	 mov	 eax, DWORD PTR __Constructed_last$[ebp]
  001e5	8b 4d d8	 mov	 ecx, DWORD PTR _this$[ebp]
  001e8	50		 push	 eax
  001e9	50		 push	 eax
  001ea	e8 00 00 00 00	 call	 ?_Destroy@?$vector@UTMapInfo@CMapManager@@V?$allocator@UTMapInfo@CMapManager@@@std@@@std@@AAEXPAUTMapInfo@CMapManager@@0@Z ; std::vector<CMapManager::TMapInfo,std::allocator<CMapManager::TMapInfo> >::_Destroy

; 801  :         _Al.deallocate(_Newvec, _Newcapacity);

  001ef	ff 75 ec	 push	 DWORD PTR __Newcapacity$[ebp]
  001f2	8b 4d d8	 mov	 ecx, DWORD PTR _this$[ebp]
  001f5	ff 75 e8	 push	 DWORD PTR $T2[ebp]
  001f8	e8 00 00 00 00	 call	 ?deallocate@?$allocator@UTMapInfo@CMapManager@@@std@@QAEXQAUTMapInfo@CMapManager@@I@Z ; std::allocator<CMapManager::TMapInfo>::deallocate

; 802  :         _RERAISE;

  001fd	6a 00		 push	 0
  001ff	6a 00		 push	 0
  00201	e8 00 00 00 00	 call	 __CxxThrowException@8
$LN68@Emplace_re:

; 778  :             _Xlength();

  00206	e8 00 00 00 00	 call	 ?_Xlength@?$vector@UTMapInfo@CMapManager@@V?$allocator@UTMapInfo@CMapManager@@@std@@@std@@CAXXZ ; std::vector<CMapManager::TMapInfo,std::allocator<CMapManager::TMapInfo> >::_Xlength
$LN69@Emplace_re:
; File C:\Program Files (x86)\Microsoft Visual Studio\2019\Professional\VC\Tools\MSVC\14.29.30133\include\xmemory

; 65   :             _Throw_bad_array_new_length(); // multiply overflow

  0020b	e8 00 00 00 00	 call	 ?_Throw_bad_array_new_length@std@@YAXXZ ; std::_Throw_bad_array_new_length
$LN54@Emplace_re:

; 172  :     _STL_VERIFY(_Back_shift >= _Min_back_shift && _Back_shift <= _Non_user_size, "invalid argument");

  00210	e8 00 00 00 00	 call	 __invalid_parameter_noinfo_noreturn
$LN65@Emplace_re:
  00215	cc		 int	 3
  00216	cc		 int	 3
  00217	cc		 int	 3
  00218	cc		 int	 3
  00219	cc		 int	 3
  0021a	cc		 int	 3
_TEXT	ENDS
;	COMDAT text$x
text$x	SEGMENT
__ehhandler$??$_Emplace_reallocate@ABUTMapInfo@CMapManager@@@?$vector@UTMapInfo@CMapManager@@V?$allocator@UTMapInfo@CMapManager@@@std@@@std@@QAEPAUTMapInfo@CMapManager@@QAU23@ABU23@@Z:
  00000	90		 npad	 1
  00001	90		 npad	 1
  00002	8b 54 24 08	 mov	 edx, DWORD PTR [esp+8]
  00006	8d 42 0c	 lea	 eax, DWORD PTR [edx+12]
  00009	8b 4a d4	 mov	 ecx, DWORD PTR [edx-44]
  0000c	33 c8		 xor	 ecx, eax
  0000e	e8 00 00 00 00	 call	 @__security_check_cookie@4
  00013	b8 00 00 00 00	 mov	 eax, OFFSET __ehfuncinfo$??$_Emplace_reallocate@ABUTMapInfo@CMapManager@@@?$vector@UTMapInfo@CMapManager@@V?$allocator@UTMapInfo@CMapManager@@@std@@@std@@QAEPAUTMapInfo@CMapManager@@QAU23@ABU23@@Z
  00018	e9 00 00 00 00	 jmp	 ___CxxFrameHandler3
text$x	ENDS
??$_Emplace_reallocate@ABUTMapInfo@CMapManager@@@?$vector@UTMapInfo@CMapManager@@V?$allocator@UTMapInfo@CMapManager@@@std@@@std@@QAEPAUTMapInfo@CMapManager@@QAU23@ABU23@@Z ENDP ; std::vector<CMapManager::TMapInfo,std::allocator<CMapManager::TMapInfo> >::_Emplace_reallocate<CMapManager::TMapInfo const &>
; Function compile flags: /Ogtp
; File C:\Program Files (x86)\Microsoft Visual Studio\2019\Professional\VC\Tools\MSVC\14.29.30133\include\xmemory
; File C:\Program Files (x86)\Microsoft Visual Studio\2019\Professional\VC\Tools\MSVC\14.29.30133\include\xstring
; File C:\Program Files (x86)\Microsoft Visual Studio\2019\Professional\VC\Tools\MSVC\14.29.30133\include\xmemory
; File C:\Program Files (x86)\Microsoft Visual Studio\2019\Professional\VC\Tools\MSVC\14.29.30133\include\xstring
; File C:\Program Files (x86)\Microsoft Visual Studio\2019\Professional\VC\Tools\MSVC\14.29.30133\include\utility
; File C:\Program Files (x86)\Microsoft Visual Studio\2019\Professional\VC\Tools\MSVC\14.29.30133\include\xstring
; File C:\Program Files (x86)\Microsoft Visual Studio\2019\Professional\VC\Tools\MSVC\14.29.30133\include\utility
; File C:\Program Files (x86)\Microsoft Visual Studio\2019\Professional\VC\Tools\MSVC\14.29.30133\include\xstring
; File C:\Program Files (x86)\Microsoft Visual Studio\2019\Professional\VC\Tools\MSVC\14.29.30133\include\xmemory
; File C:\Program Files (x86)\Microsoft Visual Studio\2019\Professional\VC\Tools\MSVC\14.29.30133\include\xstring
; File C:\Program Files (x86)\Microsoft Visual Studio\2019\Professional\VC\Tools\MSVC\14.29.30133\include\xmemory
;	COMDAT ??$construct@UTMapInfo@CMapManager@@ABU12@@?$_Default_allocator_traits@V?$allocator@UTMapInfo@CMapManager@@@std@@@std@@SAXAAV?$allocator@UTMapInfo@CMapManager@@@1@QAUTMapInfo@CMapManager@@ABU34@@Z
_TEXT	SEGMENT
___formal$ = 8						; size = 4
__Result$1$ = 12					; size = 4
__Ptr$ = 12						; size = 4
__Right_size$1$ = 16					; size = 4
_<_Args_0>$ = 16					; size = 4
??$construct@UTMapInfo@CMapManager@@ABU12@@?$_Default_allocator_traits@V?$allocator@UTMapInfo@CMapManager@@@std@@@std@@SAXAAV?$allocator@UTMapInfo@CMapManager@@@1@QAUTMapInfo@CMapManager@@ABU34@@Z PROC ; std::_Default_allocator_traits<std::allocator<CMapManager::TMapInfo> >::construct<CMapManager::TMapInfo,CMapManager::TMapInfo const &>, COMDAT

; 707  :     static _CONSTEXPR20_DYNALLOC void construct(_Alloc&, _Objty* const _Ptr, _Types&&... _Args) {

  00000	55		 push	 ebp
  00001	8b ec		 mov	 ebp, esp
  00003	53		 push	 ebx
  00004	56		 push	 esi
; File C:\Program Files (x86)\Microsoft Visual Studio\2019\Professional\VC\Tools\MSVC\14.29.30133\include\xstring

; 2346 :         _CONSTEXPR20_CONTAINER _Bxty() noexcept : _Ptr() {} // user-provided, for fancy pointers

  00005	8b 75 0c	 mov	 esi, DWORD PTR __Ptr$[ebp]
; File C:\Program Files (x86)\Microsoft Visual Studio\2019\Professional\VC\Tools\MSVC\14.29.30133\include\xmemory

; 707  :     static _CONSTEXPR20_DYNALLOC void construct(_Alloc&, _Objty* const _Ptr, _Types&&... _Args) {

  00008	57		 push	 edi
; File C:\Program Files (x86)\Microsoft Visual Studio\2019\Professional\VC\Tools\MSVC\14.29.30133\include\xstring

; 2921 :         const size_type _Right_size   = _Right_data._Mysize;

  00009	8b 7d 10	 mov	 edi, DWORD PTR _<_Args_0>$[ebp]

; 2305 :         const value_type* _Result = _Bx._Buf;

  0000c	8b cf		 mov	 ecx, edi
  0000e	89 7d 0c	 mov	 DWORD PTR __Result$1$[ebp], edi

; 2346 :         _CONSTEXPR20_CONTAINER _Bxty() noexcept : _Ptr() {} // user-provided, for fancy pointers

  00011	c7 06 00 00 00
	00		 mov	 DWORD PTR [esi], 0

; 2355 :     size_type _Mysize = 0; // current length of string

  00017	c7 46 10 00 00
	00 00		 mov	 DWORD PTR [esi+16], 0

; 2356 :     size_type _Myres  = 0; // current storage reserved for string

  0001e	c7 46 14 00 00
	00 00		 mov	 DWORD PTR [esi+20], 0

; 2319 :         return _BUF_SIZE <= _Myres;

  00025	83 7f 14 10	 cmp	 DWORD PTR [edi+20], 16	; 00000010H

; 2921 :         const size_type _Right_size   = _Right_data._Mysize;

  00029	8b 47 10	 mov	 eax, DWORD PTR [edi+16]
  0002c	89 45 10	 mov	 DWORD PTR __Right_size$1$[ebp], eax

; 2306 :         if (_Large_string_engaged()) {

  0002f	72 05		 jb	 SHORT $LN20@construct

; 2307 :             _Result = _Unfancy(_Bx._Ptr);

  00031	8b 0f		 mov	 ecx, DWORD PTR [edi]
  00033	89 4d 0c	 mov	 DWORD PTR __Result$1$[ebp], ecx
$LN20@construct:

; 2928 :         const bool _Stay_small = _Right_size < _BUF_SIZE;

  00036	83 f8 10	 cmp	 eax, 16			; 00000010H

; 2929 : #endif // __cpp_lib_constexpr_string
; 2930 : 
; 2931 :         // NOTE: even if _Right is in large mode, we only go into large mode ourselves if the actual size of _Right
; 2932 :         // requires it
; 2933 :         if (_Stay_small) { // stay small, don't allocate

  00039	73 0d		 jae	 SHORT $LN17@construct

; 65   :         _CSTD memcpy(_First1, _First2, _Count * sizeof(_Elem));

  0003b	0f 10 01	 movups	 xmm0, XMMWORD PTR [ecx]

; 2936 :             _My_data._Myres  = _BUF_SIZE - 1;

  0003e	bb 0f 00 00 00	 mov	 ebx, 15			; 0000000fH

; 65   :         _CSTD memcpy(_First1, _First2, _Count * sizeof(_Elem));

  00043	0f 11 06	 movups	 XMMWORD PTR [esi], xmm0

; 2937 :             return;

  00046	eb 4f		 jmp	 SHORT $LN16@construct
$LN17@construct:

; 2941 :         const size_type _New_capacity = (_STD min)(_Right_size | _ALLOC_MASK, max_size());

  00048	8b d8		 mov	 ebx, eax
; File C:\Program Files (x86)\Microsoft Visual Studio\2019\Professional\VC\Tools\MSVC\14.29.30133\include\utility

; 68   :     return _Right < _Left ? _Right : _Left;

  0004a	b8 ff ff ff 7f	 mov	 eax, 2147483647		; 7fffffffH
; File C:\Program Files (x86)\Microsoft Visual Studio\2019\Professional\VC\Tools\MSVC\14.29.30133\include\xstring

; 2941 :         const size_type _New_capacity = (_STD min)(_Right_size | _ALLOC_MASK, max_size());

  0004f	83 cb 0f	 or	 ebx, 15			; 0000000fH
; File C:\Program Files (x86)\Microsoft Visual Studio\2019\Professional\VC\Tools\MSVC\14.29.30133\include\utility

; 68   :     return _Right < _Left ? _Right : _Left;

  00052	3b d8		 cmp	 ebx, eax
  00054	0f 47 d8	 cmova	 ebx, eax
; File C:\Program Files (x86)\Microsoft Visual Studio\2019\Professional\VC\Tools\MSVC\14.29.30133\include\xstring

; 2942 :         const pointer _New_array      = _Al.allocate(_New_capacity + 1); // throws

  00057	8d 43 01	 lea	 eax, DWORD PTR [ebx+1]
; File C:\Program Files (x86)\Microsoft Visual Studio\2019\Professional\VC\Tools\MSVC\14.29.30133\include\xmemory

; 237  :         if (_Bytes >= _Big_allocation_threshold) { // boost the alignment of big allocations to help autovectorization

  0005a	3d 00 10 00 00	 cmp	 eax, 4096		; 00001000H
  0005f	72 0d		 jb	 SHORT $LN31@construct

; 238  :             return _Allocate_manually_vector_aligned<_Traits>(_Bytes);

  00061	50		 push	 eax
  00062	e8 00 00 00 00	 call	 ??$_Allocate_manually_vector_aligned@U_Default_allocate_traits@std@@@std@@YAPAXI@Z ; std::_Allocate_manually_vector_aligned<std::_Default_allocate_traits>
  00067	83 c4 04	 add	 esp, 4
  0006a	8b c8		 mov	 ecx, eax
  0006c	eb 13		 jmp	 SHORT $LN30@construct
$LN31@construct:

; 239  :         }
; 240  :     }
; 241  : #endif // defined(_M_IX86) || defined(_M_X64)
; 242  : 
; 243  :     if (_Bytes != 0) {

  0006e	85 c0		 test	 eax, eax
  00070	74 0d		 je	 SHORT $LN32@construct

; 85   :         return ::operator new(_Bytes);

  00072	50		 push	 eax
  00073	e8 00 00 00 00	 call	 ??2@YAPAXI@Z		; operator new
  00078	83 c4 04	 add	 esp, 4

; 244  :         return _Traits::_Allocate(_Bytes);

  0007b	8b c8		 mov	 ecx, eax
  0007d	eb 02		 jmp	 SHORT $LN30@construct
$LN32@construct:

; 245  :     }
; 246  : 
; 247  :     return nullptr;

  0007f	33 c9		 xor	 ecx, ecx
$LN30@construct:
; File C:\Program Files (x86)\Microsoft Visual Studio\2019\Professional\VC\Tools\MSVC\14.29.30133\include\xstring

; 2950 :         _Traits::copy(_Unfancy(_New_array), _Right_ptr, _Right_size + 1);

  00081	8b 45 10	 mov	 eax, DWORD PTR __Right_size$1$[ebp]
  00084	40		 inc	 eax
  00085	89 0e		 mov	 DWORD PTR [esi], ecx

; 65   :         _CSTD memcpy(_First1, _First2, _Count * sizeof(_Elem));

  00087	50		 push	 eax
  00088	ff 75 0c	 push	 DWORD PTR __Result$1$[ebp]
  0008b	51		 push	 ecx
  0008c	e8 00 00 00 00	 call	 _memcpy
  00091	8b 45 10	 mov	 eax, DWORD PTR __Right_size$1$[ebp]
  00094	83 c4 0c	 add	 esp, 12			; 0000000cH
$LN16@construct:
; File C:\Program Files (x86)\Microsoft Visual Studio\2019\Professional\VC\Tools\MSVC\14.29.30133\include\xmemory

; 716  :     }

  00097	89 46 10	 mov	 DWORD PTR [esi+16], eax
  0009a	89 5e 14	 mov	 DWORD PTR [esi+20], ebx
  0009d	8b 47 18	 mov	 eax, DWORD PTR [edi+24]
  000a0	89 46 18	 mov	 DWORD PTR [esi+24], eax
  000a3	8b 47 1c	 mov	 eax, DWORD PTR [edi+28]
  000a6	89 46 1c	 mov	 DWORD PTR [esi+28], eax
  000a9	8b 47 20	 mov	 eax, DWORD PTR [edi+32]
  000ac	89 46 20	 mov	 DWORD PTR [esi+32], eax
  000af	8b 47 24	 mov	 eax, DWORD PTR [edi+36]
  000b2	89 46 24	 mov	 DWORD PTR [esi+36], eax
  000b5	8b 47 28	 mov	 eax, DWORD PTR [edi+40]
  000b8	89 46 28	 mov	 DWORD PTR [esi+40], eax
  000bb	8b 47 2c	 mov	 eax, DWORD PTR [edi+44]
  000be	5f		 pop	 edi
  000bf	89 46 2c	 mov	 DWORD PTR [esi+44], eax
  000c2	5e		 pop	 esi
  000c3	5b		 pop	 ebx
  000c4	5d		 pop	 ebp
  000c5	c3		 ret	 0
??$construct@UTMapInfo@CMapManager@@ABU12@@?$_Default_allocator_traits@V?$allocator@UTMapInfo@CMapManager@@@std@@@std@@SAXAAV?$allocator@UTMapInfo@CMapManager@@@1@QAUTMapInfo@CMapManager@@ABU34@@Z ENDP ; std::_Default_allocator_traits<std::allocator<CMapManager::TMapInfo> >::construct<CMapManager::TMapInfo,CMapManager::TMapInfo const &>
_TEXT	ENDS
; Function compile flags: /Ogtp
; File C:\Program Files (x86)\Microsoft Visual Studio\2019\Professional\VC\Tools\MSVC\14.29.30133\include\vector
; File C:\Program Files (x86)\Microsoft Visual Studio\2019\Professional\VC\Tools\MSVC\14.29.30133\include\xmemory
; File C:\Program Files (x86)\Microsoft Visual Studio\2019\Professional\VC\Tools\MSVC\14.29.30133\include\vector
; File C:\Program Files (x86)\Microsoft Visual Studio\2019\Professional\VC\Tools\MSVC\14.29.30133\include\xmemory
; File C:\Program Files (x86)\Microsoft Visual Studio\2019\Professional\VC\Tools\MSVC\14.29.30133\include\vector
;	COMDAT ??__Fs_emptyVector@?4??GetRenderedGraphicThingInstanceNum@CMapManager@@QAEAAV?$vector@USCRCWithNumber@CArea@@V?$allocator@USCRCWithNumber@CArea@@@std@@@std@@PAK0@Z@YAXXZ
text$yd	SEGMENT
??__Fs_emptyVector@?4??GetRenderedGraphicThingInstanceNum@CMapManager@@QAEAAV?$vector@USCRCWithNumber@CArea@@V?$allocator@USCRCWithNumber@CArea@@@std@@@std@@PAK0@Z@YAXXZ PROC ; `CMapManager::GetRenderedGraphicThingInstanceNum'::`5'::`dynamic atexit destructor for 's_emptyVector'', COMDAT

; 1763 :         if (_Myfirst) { // destroy and deallocate old array

  00000	8b 15 00 00 00
	00		 mov	 edx, DWORD PTR ?s_emptyVector@?4??GetRenderedGraphicThingInstanceNum@CMapManager@@QAEAAV?$vector@USCRCWithNumber@CArea@@V?$allocator@USCRCWithNumber@CArea@@@std@@@std@@PAK0@Z@4V34@A
  00006	85 d2		 test	 edx, edx
  00008	74 51		 je	 SHORT $LN6@dynamic

; 1765 :             _Getal().deallocate(_Myfirst, static_cast<size_type>(_Myend - _Myfirst));

  0000a	8b 0d 08 00 00
	00		 mov	 ecx, DWORD PTR ?s_emptyVector@?4??GetRenderedGraphicThingInstanceNum@CMapManager@@QAEAAV?$vector@USCRCWithNumber@CArea@@V?$allocator@USCRCWithNumber@CArea@@@std@@@std@@PAK0@Z@4V34@A+8
; File C:\Program Files (x86)\Microsoft Visual Studio\2019\Professional\VC\Tools\MSVC\14.29.30133\include\xmemory

; 835  :         _Deallocate<_New_alignof<_Ty>>(_Ptr, sizeof(_Ty) * _Count);

  00010	8b c2		 mov	 eax, edx
; File C:\Program Files (x86)\Microsoft Visual Studio\2019\Professional\VC\Tools\MSVC\14.29.30133\include\vector

; 1765 :             _Getal().deallocate(_Myfirst, static_cast<size_type>(_Myend - _Myfirst));

  00012	2b ca		 sub	 ecx, edx
; File C:\Program Files (x86)\Microsoft Visual Studio\2019\Professional\VC\Tools\MSVC\14.29.30133\include\xmemory

; 835  :         _Deallocate<_New_alignof<_Ty>>(_Ptr, sizeof(_Ty) * _Count);

  00014	83 e1 f8	 and	 ecx, -8			; fffffff8H

; 260  :         if (_Bytes >= _Big_allocation_threshold) { // boost the alignment of big allocations to help autovectorization

  00017	81 f9 00 10 00
	00		 cmp	 ecx, 4096		; 00001000H
  0001d	72 14		 jb	 SHORT $LN22@dynamic

; 158  :     const uintptr_t _Ptr_container   = _Ptr_user[-1];

  0001f	8b 52 fc	 mov	 edx, DWORD PTR [edx-4]
  00022	83 c1 23	 add	 ecx, 35			; 00000023H
  00025	2b c2		 sub	 eax, edx

; 159  : 
; 160  :     // If the following asserts, it likely means that we are performing
; 161  :     // an aligned delete on memory coming from an unaligned allocation.
; 162  :     _STL_ASSERT(_Ptr_user[-2] == _Big_allocation_sentinel, "invalid argument");
; 163  : 
; 164  :     // Extra paranoia on aligned allocation/deallocation; ensure _Ptr_container is
; 165  :     // in range [_Min_back_shift, _Non_user_size]
; 166  : #ifdef _DEBUG
; 167  :     constexpr uintptr_t _Min_back_shift = 2 * sizeof(void*);
; 168  : #else // ^^^ _DEBUG ^^^ // vvv !_DEBUG vvv
; 169  :     constexpr uintptr_t _Min_back_shift = sizeof(void*);
; 170  : #endif // _DEBUG
; 171  :     const uintptr_t _Back_shift = reinterpret_cast<uintptr_t>(_Ptr) - _Ptr_container;
; 172  :     _STL_VERIFY(_Back_shift >= _Min_back_shift && _Back_shift <= _Non_user_size, "invalid argument");

  00027	83 c0 fc	 add	 eax, -4			; fffffffcH
  0002a	83 f8 1f	 cmp	 eax, 31			; 0000001fH
  0002d	0f 87 00 00 00
	00		 ja	 __invalid_parameter_noinfo_noreturn
$LN22@dynamic:

; 264  :         ::operator delete(_Ptr, _Bytes);

  00033	51		 push	 ecx
  00034	52		 push	 edx
  00035	e8 00 00 00 00	 call	 ??3@YAXPAXI@Z		; operator delete
  0003a	83 c4 08	 add	 esp, 8
; File C:\Program Files (x86)\Microsoft Visual Studio\2019\Professional\VC\Tools\MSVC\14.29.30133\include\vector

; 1767 :             _Myfirst = nullptr;

  0003d	c7 05 00 00 00
	00 00 00 00 00	 mov	 DWORD PTR ?s_emptyVector@?4??GetRenderedGraphicThingInstanceNum@CMapManager@@QAEAAV?$vector@USCRCWithNumber@CArea@@V?$allocator@USCRCWithNumber@CArea@@@std@@@std@@PAK0@Z@4V34@A, 0

; 1768 :             _Mylast  = nullptr;

  00047	c7 05 04 00 00
	00 00 00 00 00	 mov	 DWORD PTR ?s_emptyVector@?4??GetRenderedGraphicThingInstanceNum@CMapManager@@QAEAAV?$vector@USCRCWithNumber@CArea@@V?$allocator@USCRCWithNumber@CArea@@@std@@@std@@PAK0@Z@4V34@A+4, 0

; 1769 :             _Myend   = nullptr;

  00051	c7 05 08 00 00
	00 00 00 00 00	 mov	 DWORD PTR ?s_emptyVector@?4??GetRenderedGraphicThingInstanceNum@CMapManager@@QAEAAV?$vector@USCRCWithNumber@CArea@@V?$allocator@USCRCWithNumber@CArea@@@std@@@std@@PAK0@Z@4V34@A+8, 0
$LN6@dynamic:
  0005b	c3		 ret	 0
??__Fs_emptyVector@?4??GetRenderedGraphicThingInstanceNum@CMapManager@@QAEAAV?$vector@USCRCWithNumber@CArea@@V?$allocator@USCRCWithNumber@CArea@@@std@@@std@@PAK0@Z@YAXXZ ENDP ; `CMapManager::GetRenderedGraphicThingInstanceNum'::`5'::`dynamic atexit destructor for 's_emptyVector''
text$yd	ENDS
; Function compile flags: /Ogtp
; File C:\Program Files (x86)\Microsoft Visual Studio\2019\Professional\VC\Tools\MSVC\14.29.30133\include\vector
; File C:\Program Files (x86)\Microsoft Visual Studio\2019\Professional\VC\Tools\MSVC\14.29.30133\include\xmemory
; File C:\Program Files (x86)\Microsoft Visual Studio\2019\Professional\VC\Tools\MSVC\14.29.30133\include\vector
; File C:\Program Files (x86)\Microsoft Visual Studio\2019\Professional\VC\Tools\MSVC\14.29.30133\include\xmemory
; File C:\Program Files (x86)\Microsoft Visual Studio\2019\Professional\VC\Tools\MSVC\14.29.30133\include\vector
;	COMDAT ??__Fs_emptyVector@?4??GetRenderedSplatNum@CMapManager@@QAEAAV?$vector@HV?$allocator@H@std@@@std@@PAH0PAM@Z@YAXXZ
text$yd	SEGMENT
??__Fs_emptyVector@?4??GetRenderedSplatNum@CMapManager@@QAEAAV?$vector@HV?$allocator@H@std@@@std@@PAH0PAM@Z@YAXXZ PROC ; `CMapManager::GetRenderedSplatNum'::`5'::`dynamic atexit destructor for 's_emptyVector'', COMDAT

; 1763 :         if (_Myfirst) { // destroy and deallocate old array

  00000	8b 15 00 00 00
	00		 mov	 edx, DWORD PTR ?s_emptyVector@?4??GetRenderedSplatNum@CMapManager@@QAEAAV?$vector@HV?$allocator@H@std@@@std@@PAH0PAM@Z@4V34@A
  00006	85 d2		 test	 edx, edx
  00008	74 51		 je	 SHORT $LN6@dynamic

; 1765 :             _Getal().deallocate(_Myfirst, static_cast<size_type>(_Myend - _Myfirst));

  0000a	8b 0d 08 00 00
	00		 mov	 ecx, DWORD PTR ?s_emptyVector@?4??GetRenderedSplatNum@CMapManager@@QAEAAV?$vector@HV?$allocator@H@std@@@std@@PAH0PAM@Z@4V34@A+8
; File C:\Program Files (x86)\Microsoft Visual Studio\2019\Professional\VC\Tools\MSVC\14.29.30133\include\xmemory

; 835  :         _Deallocate<_New_alignof<_Ty>>(_Ptr, sizeof(_Ty) * _Count);

  00010	8b c2		 mov	 eax, edx
; File C:\Program Files (x86)\Microsoft Visual Studio\2019\Professional\VC\Tools\MSVC\14.29.30133\include\vector

; 1765 :             _Getal().deallocate(_Myfirst, static_cast<size_type>(_Myend - _Myfirst));

  00012	2b ca		 sub	 ecx, edx
; File C:\Program Files (x86)\Microsoft Visual Studio\2019\Professional\VC\Tools\MSVC\14.29.30133\include\xmemory

; 835  :         _Deallocate<_New_alignof<_Ty>>(_Ptr, sizeof(_Ty) * _Count);

  00014	83 e1 fc	 and	 ecx, -4			; fffffffcH

; 260  :         if (_Bytes >= _Big_allocation_threshold) { // boost the alignment of big allocations to help autovectorization

  00017	81 f9 00 10 00
	00		 cmp	 ecx, 4096		; 00001000H
  0001d	72 14		 jb	 SHORT $LN22@dynamic

; 158  :     const uintptr_t _Ptr_container   = _Ptr_user[-1];

  0001f	8b 52 fc	 mov	 edx, DWORD PTR [edx-4]
  00022	83 c1 23	 add	 ecx, 35			; 00000023H
  00025	2b c2		 sub	 eax, edx

; 159  : 
; 160  :     // If the following asserts, it likely means that we are performing
; 161  :     // an aligned delete on memory coming from an unaligned allocation.
; 162  :     _STL_ASSERT(_Ptr_user[-2] == _Big_allocation_sentinel, "invalid argument");
; 163  : 
; 164  :     // Extra paranoia on aligned allocation/deallocation; ensure _Ptr_container is
; 165  :     // in range [_Min_back_shift, _Non_user_size]
; 166  : #ifdef _DEBUG
; 167  :     constexpr uintptr_t _Min_back_shift = 2 * sizeof(void*);
; 168  : #else // ^^^ _DEBUG ^^^ // vvv !_DEBUG vvv
; 169  :     constexpr uintptr_t _Min_back_shift = sizeof(void*);
; 170  : #endif // _DEBUG
; 171  :     const uintptr_t _Back_shift = reinterpret_cast<uintptr_t>(_Ptr) - _Ptr_container;
; 172  :     _STL_VERIFY(_Back_shift >= _Min_back_shift && _Back_shift <= _Non_user_size, "invalid argument");

  00027	83 c0 fc	 add	 eax, -4			; fffffffcH
  0002a	83 f8 1f	 cmp	 eax, 31			; 0000001fH
  0002d	0f 87 00 00 00
	00		 ja	 __invalid_parameter_noinfo_noreturn
$LN22@dynamic:

; 264  :         ::operator delete(_Ptr, _Bytes);

  00033	51		 push	 ecx
  00034	52		 push	 edx
  00035	e8 00 00 00 00	 call	 ??3@YAXPAXI@Z		; operator delete
  0003a	83 c4 08	 add	 esp, 8
; File C:\Program Files (x86)\Microsoft Visual Studio\2019\Professional\VC\Tools\MSVC\14.29.30133\include\vector

; 1767 :             _Myfirst = nullptr;

  0003d	c7 05 00 00 00
	00 00 00 00 00	 mov	 DWORD PTR ?s_emptyVector@?4??GetRenderedSplatNum@CMapManager@@QAEAAV?$vector@HV?$allocator@H@std@@@std@@PAH0PAM@Z@4V34@A, 0

; 1768 :             _Mylast  = nullptr;

  00047	c7 05 04 00 00
	00 00 00 00 00	 mov	 DWORD PTR ?s_emptyVector@?4??GetRenderedSplatNum@CMapManager@@QAEAAV?$vector@HV?$allocator@H@std@@@std@@PAH0PAM@Z@4V34@A+4, 0

; 1769 :             _Myend   = nullptr;

  00051	c7 05 08 00 00
	00 00 00 00 00	 mov	 DWORD PTR ?s_emptyVector@?4??GetRenderedSplatNum@CMapManager@@QAEAAV?$vector@HV?$allocator@H@std@@@std@@PAH0PAM@Z@4V34@A+8, 0
$LN6@dynamic:
  0005b	c3		 ret	 0
??__Fs_emptyVector@?4??GetRenderedSplatNum@CMapManager@@QAEAAV?$vector@HV?$allocator@H@std@@@std@@PAH0PAM@Z@YAXXZ ENDP ; `CMapManager::GetRenderedSplatNum'::`5'::`dynamic atexit destructor for 's_emptyVector''
text$yd	ENDS
; Function compile flags: /Ogtp
; File C:\Program Files (x86)\Microsoft Visual Studio\2019\Professional\VC\Tools\MSVC\14.29.30133\include\xstring
;	COMDAT ??$?9DU?$char_traits@D@std@@V?$allocator@D@1@@std@@YA_NQBDABV?$basic_string@DU?$char_traits@D@std@@V?$allocator@D@2@@0@@Z
_TEXT	SEGMENT
__Left$ = 8						; size = 4
__Right$ = 12						; size = 4
??$?9DU?$char_traits@D@std@@V?$allocator@D@1@@std@@YA_NQBDABV?$basic_string@DU?$char_traits@D@std@@V?$allocator@D@2@@0@@Z PROC ; std::operator!=<char,std::char_traits<char>,std::allocator<char> >, COMDAT

; 4831 : _NODISCARD bool operator!=(_In_z_ const _Elem* const _Left, const basic_string<_Elem, _Traits, _Alloc>& _Right) {

  00000	55		 push	 ebp
  00001	8b ec		 mov	 ebp, esp

; 4832 :     return !(_Left == _Right);

  00003	ff 75 0c	 push	 DWORD PTR __Right$[ebp]
  00006	ff 75 08	 push	 DWORD PTR __Left$[ebp]
  00009	e8 00 00 00 00	 call	 ??$?8DU?$char_traits@D@std@@V?$allocator@D@1@@std@@YA_NQBDABV?$basic_string@DU?$char_traits@D@std@@V?$allocator@D@2@@0@@Z ; std::operator==<char,std::char_traits<char>,std::allocator<char> >
  0000e	83 c4 08	 add	 esp, 8
  00011	34 01		 xor	 al, 1

; 4833 : }

  00013	5d		 pop	 ebp
  00014	c3		 ret	 0
??$?9DU?$char_traits@D@std@@V?$allocator@D@1@@std@@YA_NQBDABV?$basic_string@DU?$char_traits@D@std@@V?$allocator@D@2@@0@@Z ENDP ; std::operator!=<char,std::char_traits<char>,std::allocator<char> >
_TEXT	ENDS
; Function compile flags: /Ogtp
; File C:\Program Files (x86)\Microsoft Visual Studio\2019\Professional\VC\Tools\MSVC\14.29.30133\include\xstring
;	COMDAT ??$?9DU?$char_traits@D@std@@V?$allocator@D@1@@std@@YA_NABV?$basic_string@DU?$char_traits@D@std@@V?$allocator@D@2@@0@0@Z
_TEXT	SEGMENT
__Left$ = 8						; size = 4
__Right$ = 12						; size = 4
??$?9DU?$char_traits@D@std@@V?$allocator@D@1@@std@@YA_NABV?$basic_string@DU?$char_traits@D@std@@V?$allocator@D@2@@0@0@Z PROC ; std::operator!=<char,std::char_traits<char>,std::allocator<char> >, COMDAT

; 4826 :     const basic_string<_Elem, _Traits, _Alloc>& _Left, const basic_string<_Elem, _Traits, _Alloc>& _Right) noexcept {

  00000	55		 push	 ebp
  00001	8b ec		 mov	 ebp, esp

; 2305 :         const value_type* _Result = _Bx._Buf;

  00003	8b 45 0c	 mov	 eax, DWORD PTR __Right$[ebp]
  00006	8b d0		 mov	 edx, eax

; 2319 :         return _BUF_SIZE <= _Myres;

  00008	83 78 14 10	 cmp	 DWORD PTR [eax+20], 16	; 00000010H

; 2306 :         if (_Large_string_engaged()) {

  0000c	72 02		 jb	 SHORT $LN8@operator

; 2307 :             _Result = _Unfancy(_Bx._Ptr);

  0000e	8b 10		 mov	 edx, DWORD PTR [eax]
$LN8@operator:

; 2305 :         const value_type* _Result = _Bx._Buf;

  00010	8b 4d 08	 mov	 ecx, DWORD PTR __Left$[ebp]
  00013	56		 push	 esi
  00014	8b f1		 mov	 esi, ecx

; 2319 :         return _BUF_SIZE <= _Myres;

  00016	83 79 14 10	 cmp	 DWORD PTR [ecx+20], 16	; 00000010H

; 2306 :         if (_Large_string_engaged()) {

  0001a	72 02		 jb	 SHORT $LN13@operator

; 2307 :             _Result = _Unfancy(_Bx._Ptr);

  0001c	8b 31		 mov	 esi, DWORD PTR [ecx]
$LN13@operator:

; 4372 :         return _Traits_equal<_Traits>(_Mypair._Myval2._Myptr(), _Mypair._Myval2._Mysize,

  0001e	ff 70 10	 push	 DWORD PTR [eax+16]
  00021	52		 push	 edx
  00022	ff 71 10	 push	 DWORD PTR [ecx+16]
  00025	56		 push	 esi
  00026	e8 00 00 00 00	 call	 ??$_Traits_equal@U?$char_traits@D@std@@@std@@YA_NQBDI0I@Z ; std::_Traits_equal<std::char_traits<char> >
  0002b	83 c4 10	 add	 esp, 16			; 00000010H

; 4827 :     return !(_Left == _Right);

  0002e	34 01		 xor	 al, 1
  00030	5e		 pop	 esi

; 4828 : }

  00031	5d		 pop	 ebp
  00032	c3		 ret	 0
??$?9DU?$char_traits@D@std@@V?$allocator@D@1@@std@@YA_NABV?$basic_string@DU?$char_traits@D@std@@V?$allocator@D@2@@0@0@Z ENDP ; std::operator!=<char,std::char_traits<char>,std::allocator<char> >
_TEXT	ENDS
; Function compile flags: /Ogtp
; File C:\Users\murat\Desktop\Siveps2-1-99-Project\source\client\Client\eterBase\Stl.h
; File C:\Program Files (x86)\Microsoft Visual Studio\2019\Professional\VC\Tools\MSVC\14.29.30133\include\xtree
; File C:\Users\murat\Desktop\Siveps2-1-99-Project\source\client\Client\eterBase\Stl.h
; File C:\Program Files (x86)\Microsoft Visual Studio\2019\Professional\VC\Tools\MSVC\14.29.30133\include\xstring
; File C:\Program Files (x86)\Microsoft Visual Studio\2019\Professional\VC\Tools\MSVC\14.29.30133\include\xmemory
; File C:\Program Files (x86)\Microsoft Visual Studio\2019\Professional\VC\Tools\MSVC\14.29.30133\include\xstring
; File C:\Program Files (x86)\Microsoft Visual Studio\2019\Professional\VC\Tools\MSVC\14.29.30133\include\vector
; File C:\Program Files (x86)\Microsoft Visual Studio\2019\Professional\VC\Tools\MSVC\14.29.30133\include\xmemory
; File C:\Program Files (x86)\Microsoft Visual Studio\2019\Professional\VC\Tools\MSVC\14.29.30133\include\vector
; File C:\Program Files (x86)\Microsoft Visual Studio\2019\Professional\VC\Tools\MSVC\14.29.30133\include\xmemory
; File C:\Program Files (x86)\Microsoft Visual Studio\2019\Professional\VC\Tools\MSVC\14.29.30133\include\vector
; File C:\Program Files (x86)\Microsoft Visual Studio\2019\Professional\VC\Tools\MSVC\14.29.30133\include\xstring
; File C:\Program Files (x86)\Microsoft Visual Studio\2019\Professional\VC\Tools\MSVC\14.29.30133\include\xmemory
; File C:\Program Files (x86)\Microsoft Visual Studio\2019\Professional\VC\Tools\MSVC\14.29.30133\include\xstring
; File C:\Program Files (x86)\Microsoft Visual Studio\2019\Professional\VC\Tools\MSVC\14.29.30133\include\xtree
; File C:\Users\murat\Desktop\Siveps2-1-99-Project\source\client\Client\eterBase\Stl.h
; File C:\Program Files (x86)\Microsoft Visual Studio\2019\Professional\VC\Tools\MSVC\14.29.30133\include\xtree
; File C:\Program Files (x86)\Microsoft Visual Studio\2019\Professional\VC\Tools\MSVC\14.29.30133\include\utility
; File C:\Program Files (x86)\Microsoft Visual Studio\2019\Professional\VC\Tools\MSVC\14.29.30133\include\xmemory
; File C:\Program Files (x86)\Microsoft Visual Studio\2019\Professional\VC\Tools\MSVC\14.29.30133\include\xtree
; File C:\Users\murat\Desktop\Siveps2-1-99-Project\source\client\Client\eterBase\Stl.h
; File C:\Program Files (x86)\Microsoft Visual Studio\2019\Professional\VC\Tools\MSVC\14.29.30133\include\xmemory
; File C:\Users\murat\Desktop\Siveps2-1-99-Project\source\client\Client\eterBase\Stl.h
;	COMDAT ??$stl_wipe_second@V?$map@KPAUSEnvironmentData@@U?$less@K@std@@V?$allocator@U?$pair@$$CBKPAUSEnvironmentData@@@std@@@3@@std@@@@YAXAAV?$map@KPAUSEnvironmentData@@U?$less@K@std@@V?$allocator@U?$pair@$$CBKPAUSEnvironmentData@@@std@@@3@@std@@@Z
_TEXT	SEGMENT
__$EHRec$ = -12						; size = 12
_container$ = 8						; size = 4
??$stl_wipe_second@V?$map@KPAUSEnvironmentData@@U?$less@K@std@@V?$allocator@U?$pair@$$CBKPAUSEnvironmentData@@@std@@@3@@std@@@@YAXAAV?$map@KPAUSEnvironmentData@@U?$less@K@std@@V?$allocator@U?$pair@$$CBKPAUSEnvironmentData@@@std@@@3@@std@@@Z PROC ; stl_wipe_second<std::map<unsigned long,SEnvironmentData *,std::less<unsigned long>,std::allocator<std::pair<unsigned long const ,SEnvironmentData *> > > >, COMDAT

; 126  : {

  00000	55		 push	 ebp
  00001	8b ec		 mov	 ebp, esp
  00003	6a ff		 push	 -1
  00005	68 00 00 00 00	 push	 __ehhandler$??$stl_wipe_second@V?$map@KPAUSEnvironmentData@@U?$less@K@std@@V?$allocator@U?$pair@$$CBKPAUSEnvironmentData@@@std@@@3@@std@@@@YAXAAV?$map@KPAUSEnvironmentData@@U?$less@K@std@@V?$allocator@U?$pair@$$CBKPAUSEnvironmentData@@@std@@@3@@std@@@Z
  0000a	64 a1 00 00 00
	00		 mov	 eax, DWORD PTR fs:0
  00010	50		 push	 eax
  00011	53		 push	 ebx
  00012	56		 push	 esi
  00013	57		 push	 edi
  00014	a1 00 00 00 00	 mov	 eax, DWORD PTR ___security_cookie
  00019	33 c5		 xor	 eax, ebp
  0001b	50		 push	 eax
  0001c	8d 45 f4	 lea	 eax, DWORD PTR __$EHRec$[ebp]
  0001f	64 a3 00 00 00
	00		 mov	 DWORD PTR fs:0, eax
; File C:\Program Files (x86)\Microsoft Visual Studio\2019\Professional\VC\Tools\MSVC\14.29.30133\include\xtree

; 1143 :         return iterator(_Scary->_Myhead->_Left, _Scary);

  00025	8b 5d 08	 mov	 ebx, DWORD PTR _container$[ebp]
  00028	8b 3b		 mov	 edi, DWORD PTR [ebx]

; 39   :     _Tree_unchecked_const_iterator(_Nodeptr _Pnode, const _Mytree* _Plist) noexcept : _Ptr(_Pnode) {

  0002a	8b 37		 mov	 esi, DWORD PTR [edi]
; File C:\Users\murat\Desktop\Siveps2-1-99-Project\source\client\Client\eterBase\Stl.h

; 127  : 	for (TContainer::iterator i = container.begin(); i != container.end(); ++i)

  0002c	3b f7		 cmp	 esi, edi
  0002e	0f 84 87 01 00
	00		 je	 $LN3@stl_wipe_s
$LL24@stl_wipe_s:

; 128  : 	{
; 129  : 		delete i->second;

  00034	8b 7e 14	 mov	 edi, DWORD PTR [esi+20]
  00037	85 ff		 test	 edi, edi
  00039	0f 84 36 01 00
	00		 je	 $LN2@stl_wipe_s
; File C:\Program Files (x86)\Microsoft Visual Studio\2019\Professional\VC\Tools\MSVC\14.29.30133\include\xstring

; 2319 :         return _BUF_SIZE <= _Myres;

  0003f	8b 8f 90 02 00
	00		 mov	 ecx, DWORD PTR [edi+656]
  00045	c7 45 fc 00 00
	00 00		 mov	 DWORD PTR __$EHRec$[ebp+8], 0

; 4618 :         if (_Mypair._Myval2._Large_string_engaged()) {

  0004c	83 f9 10	 cmp	 ecx, 16			; 00000010H
  0004f	72 2f		 jb	 SHORT $LN66@stl_wipe_s

; 4619 :             const pointer _Ptr = _Mypair._Myval2._Bx._Ptr;

  00051	8b 87 7c 02 00
	00		 mov	 eax, DWORD PTR [edi+636]

; 4620 :             auto& _Al          = _Getal();
; 4621 :             _Destroy_in_place(_Mypair._Myval2._Bx._Ptr);
; 4622 :             _Al.deallocate(_Ptr, _Mypair._Myval2._Myres + 1);

  00057	41		 inc	 ecx
; File C:\Program Files (x86)\Microsoft Visual Studio\2019\Professional\VC\Tools\MSVC\14.29.30133\include\xmemory

; 260  :         if (_Bytes >= _Big_allocation_threshold) { // boost the alignment of big allocations to help autovectorization

  00058	81 f9 00 10 00
	00		 cmp	 ecx, 4096		; 00001000H
  0005e	72 16		 jb	 SHORT $LN76@stl_wipe_s

; 158  :     const uintptr_t _Ptr_container   = _Ptr_user[-1];

  00060	8b 50 fc	 mov	 edx, DWORD PTR [eax-4]
  00063	83 c1 23	 add	 ecx, 35			; 00000023H

; 159  : 
; 160  :     // If the following asserts, it likely means that we are performing
; 161  :     // an aligned delete on memory coming from an unaligned allocation.
; 162  :     _STL_ASSERT(_Ptr_user[-2] == _Big_allocation_sentinel, "invalid argument");
; 163  : 
; 164  :     // Extra paranoia on aligned allocation/deallocation; ensure _Ptr_container is
; 165  :     // in range [_Min_back_shift, _Non_user_size]
; 166  : #ifdef _DEBUG
; 167  :     constexpr uintptr_t _Min_back_shift = 2 * sizeof(void*);
; 168  : #else // ^^^ _DEBUG ^^^ // vvv !_DEBUG vvv
; 169  :     constexpr uintptr_t _Min_back_shift = sizeof(void*);
; 170  : #endif // _DEBUG
; 171  :     const uintptr_t _Back_shift = reinterpret_cast<uintptr_t>(_Ptr) - _Ptr_container;

  00066	2b c2		 sub	 eax, edx

; 172  :     _STL_VERIFY(_Back_shift >= _Min_back_shift && _Back_shift <= _Non_user_size, "invalid argument");

  00068	83 c0 fc	 add	 eax, -4			; fffffffcH
  0006b	83 f8 1f	 cmp	 eax, 31			; 0000001fH
  0006e	0f 87 91 01 00
	00		 ja	 $LN125@stl_wipe_s

; 173  :     _Ptr = reinterpret_cast<void*>(_Ptr_container);

  00074	8b c2		 mov	 eax, edx
$LN76@stl_wipe_s:

; 264  :         ::operator delete(_Ptr, _Bytes);

  00076	51		 push	 ecx
  00077	50		 push	 eax
  00078	e8 00 00 00 00	 call	 ??3@YAXPAXI@Z		; operator delete
  0007d	83 c4 08	 add	 esp, 8
$LN66@stl_wipe_s:
; File C:\Program Files (x86)\Microsoft Visual Studio\2019\Professional\VC\Tools\MSVC\14.29.30133\include\xstring

; 4633 :             _Mypair._Myval2._Mysize = 0;

  00080	c7 87 8c 02 00
	00 00 00 00 00	 mov	 DWORD PTR [edi+652], 0

; 4634 :             _Mypair._Myval2._Myres  = _BUF_SIZE - 1;

  0008a	c7 87 90 02 00
	00 0f 00 00 00	 mov	 DWORD PTR [edi+656], 15	; 0000000fH

; 4635 :             // the _Traits::assign is last so the codegen doesn't think the char write can alias this
; 4636 :             _Traits::assign(_Mypair._Myval2._Bx._Buf[0], _Elem());

  00094	c6 87 7c 02 00
	00 00		 mov	 BYTE PTR [edi+636], 0
; File C:\Program Files (x86)\Microsoft Visual Studio\2019\Professional\VC\Tools\MSVC\14.29.30133\include\vector

; 1763 :         if (_Myfirst) { // destroy and deallocate old array

  0009b	8b 87 54 02 00
	00		 mov	 eax, DWORD PTR [edi+596]
  000a1	85 c0		 test	 eax, eax
  000a3	74 51		 je	 SHORT $LN85@stl_wipe_s

; 1764 :             _Destroy(_Myfirst, _Mylast);
; 1765 :             _Getal().deallocate(_Myfirst, static_cast<size_type>(_Myend - _Myfirst));

  000a5	8b 8f 5c 02 00
	00		 mov	 ecx, DWORD PTR [edi+604]
  000ab	2b c8		 sub	 ecx, eax
; File C:\Program Files (x86)\Microsoft Visual Studio\2019\Professional\VC\Tools\MSVC\14.29.30133\include\xmemory

; 835  :         _Deallocate<_New_alignof<_Ty>>(_Ptr, sizeof(_Ty) * _Count);

  000ad	83 e1 e0	 and	 ecx, -32		; ffffffe0H

; 260  :         if (_Bytes >= _Big_allocation_threshold) { // boost the alignment of big allocations to help autovectorization

  000b0	81 f9 00 10 00
	00		 cmp	 ecx, 4096		; 00001000H
  000b6	72 16		 jb	 SHORT $LN101@stl_wipe_s

; 158  :     const uintptr_t _Ptr_container   = _Ptr_user[-1];

  000b8	8b 50 fc	 mov	 edx, DWORD PTR [eax-4]
  000bb	83 c1 23	 add	 ecx, 35			; 00000023H

; 159  : 
; 160  :     // If the following asserts, it likely means that we are performing
; 161  :     // an aligned delete on memory coming from an unaligned allocation.
; 162  :     _STL_ASSERT(_Ptr_user[-2] == _Big_allocation_sentinel, "invalid argument");
; 163  : 
; 164  :     // Extra paranoia on aligned allocation/deallocation; ensure _Ptr_container is
; 165  :     // in range [_Min_back_shift, _Non_user_size]
; 166  : #ifdef _DEBUG
; 167  :     constexpr uintptr_t _Min_back_shift = 2 * sizeof(void*);
; 168  : #else // ^^^ _DEBUG ^^^ // vvv !_DEBUG vvv
; 169  :     constexpr uintptr_t _Min_back_shift = sizeof(void*);
; 170  : #endif // _DEBUG
; 171  :     const uintptr_t _Back_shift = reinterpret_cast<uintptr_t>(_Ptr) - _Ptr_container;

  000be	2b c2		 sub	 eax, edx

; 172  :     _STL_VERIFY(_Back_shift >= _Min_back_shift && _Back_shift <= _Non_user_size, "invalid argument");

  000c0	83 c0 fc	 add	 eax, -4			; fffffffcH
  000c3	83 f8 1f	 cmp	 eax, 31			; 0000001fH
  000c6	0f 87 39 01 00
	00		 ja	 $LN125@stl_wipe_s

; 173  :     _Ptr = reinterpret_cast<void*>(_Ptr_container);

  000cc	8b c2		 mov	 eax, edx
$LN101@stl_wipe_s:

; 264  :         ::operator delete(_Ptr, _Bytes);

  000ce	51		 push	 ecx
  000cf	50		 push	 eax
  000d0	e8 00 00 00 00	 call	 ??3@YAXPAXI@Z		; operator delete
; File C:\Program Files (x86)\Microsoft Visual Studio\2019\Professional\VC\Tools\MSVC\14.29.30133\include\vector

; 1767 :             _Myfirst = nullptr;

  000d5	c7 87 54 02 00
	00 00 00 00 00	 mov	 DWORD PTR [edi+596], 0
; File C:\Program Files (x86)\Microsoft Visual Studio\2019\Professional\VC\Tools\MSVC\14.29.30133\include\xmemory

; 264  :         ::operator delete(_Ptr, _Bytes);

  000df	83 c4 08	 add	 esp, 8
; File C:\Program Files (x86)\Microsoft Visual Studio\2019\Professional\VC\Tools\MSVC\14.29.30133\include\vector

; 1768 :             _Mylast  = nullptr;

  000e2	c7 87 58 02 00
	00 00 00 00 00	 mov	 DWORD PTR [edi+600], 0

; 1769 :             _Myend   = nullptr;

  000ec	c7 87 5c 02 00
	00 00 00 00 00	 mov	 DWORD PTR [edi+604], 0
$LN85@stl_wipe_s:
; File C:\Program Files (x86)\Microsoft Visual Studio\2019\Professional\VC\Tools\MSVC\14.29.30133\include\xstring

; 2319 :         return _BUF_SIZE <= _Myres;

  000f6	8b 8f 30 02 00
	00		 mov	 ecx, DWORD PTR [edi+560]

; 4618 :         if (_Mypair._Myval2._Large_string_engaged()) {

  000fc	83 f9 10	 cmp	 ecx, 16			; 00000010H
  000ff	72 2f		 jb	 SHORT $LN118@stl_wipe_s

; 4619 :             const pointer _Ptr = _Mypair._Myval2._Bx._Ptr;

  00101	8b 87 1c 02 00
	00		 mov	 eax, DWORD PTR [edi+540]

; 4620 :             auto& _Al          = _Getal();
; 4621 :             _Destroy_in_place(_Mypair._Myval2._Bx._Ptr);
; 4622 :             _Al.deallocate(_Ptr, _Mypair._Myval2._Myres + 1);

  00107	41		 inc	 ecx
; File C:\Program Files (x86)\Microsoft Visual Studio\2019\Professional\VC\Tools\MSVC\14.29.30133\include\xmemory

; 260  :         if (_Bytes >= _Big_allocation_threshold) { // boost the alignment of big allocations to help autovectorization

  00108	81 f9 00 10 00
	00		 cmp	 ecx, 4096		; 00001000H
  0010e	72 16		 jb	 SHORT $LN128@stl_wipe_s

; 158  :     const uintptr_t _Ptr_container   = _Ptr_user[-1];

  00110	8b 50 fc	 mov	 edx, DWORD PTR [eax-4]
  00113	83 c1 23	 add	 ecx, 35			; 00000023H

; 159  : 
; 160  :     // If the following asserts, it likely means that we are performing
; 161  :     // an aligned delete on memory coming from an unaligned allocation.
; 162  :     _STL_ASSERT(_Ptr_user[-2] == _Big_allocation_sentinel, "invalid argument");
; 163  : 
; 164  :     // Extra paranoia on aligned allocation/deallocation; ensure _Ptr_container is
; 165  :     // in range [_Min_back_shift, _Non_user_size]
; 166  : #ifdef _DEBUG
; 167  :     constexpr uintptr_t _Min_back_shift = 2 * sizeof(void*);
; 168  : #else // ^^^ _DEBUG ^^^ // vvv !_DEBUG vvv
; 169  :     constexpr uintptr_t _Min_back_shift = sizeof(void*);
; 170  : #endif // _DEBUG
; 171  :     const uintptr_t _Back_shift = reinterpret_cast<uintptr_t>(_Ptr) - _Ptr_container;

  00116	2b c2		 sub	 eax, edx

; 172  :     _STL_VERIFY(_Back_shift >= _Min_back_shift && _Back_shift <= _Non_user_size, "invalid argument");

  00118	83 c0 fc	 add	 eax, -4			; fffffffcH
  0011b	83 f8 1f	 cmp	 eax, 31			; 0000001fH
  0011e	0f 87 e1 00 00
	00		 ja	 $LN125@stl_wipe_s

; 173  :     _Ptr = reinterpret_cast<void*>(_Ptr_container);

  00124	8b c2		 mov	 eax, edx
$LN128@stl_wipe_s:

; 264  :         ::operator delete(_Ptr, _Bytes);

  00126	51		 push	 ecx
  00127	50		 push	 eax
  00128	e8 00 00 00 00	 call	 ??3@YAXPAXI@Z		; operator delete
  0012d	83 c4 08	 add	 esp, 8
$LN118@stl_wipe_s:
  00130	68 00 00 00 00	 push	 OFFSET ??1?$basic_string@DU?$char_traits@D@std@@V?$allocator@D@2@@std@@QAE@XZ ; std::basic_string<char,std::char_traits<char>,std::allocator<char> >::~basic_string<char,std::char_traits<char>,std::allocator<char> >
  00135	6a 06		 push	 6
  00137	6a 18		 push	 24			; 00000018H
  00139	8d 87 70 01 00
	00		 lea	 eax, DWORD PTR [edi+368]
; File C:\Program Files (x86)\Microsoft Visual Studio\2019\Professional\VC\Tools\MSVC\14.29.30133\include\xstring

; 4633 :             _Mypair._Myval2._Mysize = 0;

  0013f	c7 87 2c 02 00
	00 00 00 00 00	 mov	 DWORD PTR [edi+556], 0
  00149	50		 push	 eax

; 4634 :             _Mypair._Myval2._Myres  = _BUF_SIZE - 1;

  0014a	c7 87 30 02 00
	00 0f 00 00 00	 mov	 DWORD PTR [edi+560], 15	; 0000000fH

; 4635 :             // the _Traits::assign is last so the codegen doesn't think the char write can alias this
; 4636 :             _Traits::assign(_Mypair._Myval2._Bx._Buf[0], _Elem());

  00154	c6 87 1c 02 00
	00 00		 mov	 BYTE PTR [edi+540], 0
  0015b	e8 00 00 00 00	 call	 ??_M@YGXPAXIIP6EX0@Z@Z
  00160	68 9c 02 00 00	 push	 668			; 0000029cH
  00165	57		 push	 edi
  00166	c7 45 fc ff ff
	ff ff		 mov	 DWORD PTR __$EHRec$[ebp+8], -1
  0016d	e8 00 00 00 00	 call	 ??3@YAXPAXI@Z		; operator delete
  00172	83 c4 08	 add	 esp, 8
$LN2@stl_wipe_s:
; File C:\Program Files (x86)\Microsoft Visual Studio\2019\Professional\VC\Tools\MSVC\14.29.30133\include\xtree

; 52   :         if (_Ptr->_Right->_Isnil) { // climb looking for right subtree

  00175	8b 46 08	 mov	 eax, DWORD PTR [esi+8]
  00178	80 78 0d 00	 cmp	 BYTE PTR [eax+13], 0
  0017c	74 1d		 je	 SHORT $LN23@stl_wipe_s

; 53   :             _Nodeptr _Pnode;
; 54   :             while (!(_Pnode = _Ptr->_Parent)->_Isnil && _Ptr == _Pnode->_Right) {

  0017e	8b 46 04	 mov	 eax, DWORD PTR [esi+4]
  00181	80 78 0d 00	 cmp	 BYTE PTR [eax+13], 0
  00185	75 10		 jne	 SHORT $LN22@stl_wipe_s
$LL21@stl_wipe_s:
  00187	3b 70 08	 cmp	 esi, DWORD PTR [eax+8]
  0018a	75 0b		 jne	 SHORT $LN22@stl_wipe_s

; 55   :                 _Ptr = _Pnode; // ==> parent while right subtree

  0018c	8b f0		 mov	 esi, eax
  0018e	8b 40 04	 mov	 eax, DWORD PTR [eax+4]
  00191	80 78 0d 00	 cmp	 BYTE PTR [eax+13], 0
  00195	74 f0		 je	 SHORT $LL21@stl_wipe_s
$LN22@stl_wipe_s:

; 56   :             }
; 57   : 
; 58   :             _Ptr = _Pnode; // ==> parent (head if end())

  00197	8b f0		 mov	 esi, eax

; 59   :         } else {

  00199	eb 16		 jmp	 SHORT $LN174@stl_wipe_s
$LN23@stl_wipe_s:

; 60   :             _Ptr = _Mytree::_Min(_Ptr->_Right); // ==> smallest of right subtree

  0019b	8b f0		 mov	 esi, eax

; 457  :         while (!_Pnode->_Left->_Isnil) {

  0019d	8b 0e		 mov	 ecx, DWORD PTR [esi]
  0019f	80 79 0d 00	 cmp	 BYTE PTR [ecx+13], 0
  001a3	75 0c		 jne	 SHORT $LN174@stl_wipe_s
$LL27@stl_wipe_s:
  001a5	8b 01		 mov	 eax, DWORD PTR [ecx]

; 458  :             _Pnode = _Pnode->_Left;

  001a7	8b f1		 mov	 esi, ecx
  001a9	8b c8		 mov	 ecx, eax
  001ab	80 78 0d 00	 cmp	 BYTE PTR [eax+13], 0
  001af	74 f4		 je	 SHORT $LL27@stl_wipe_s
$LN174@stl_wipe_s:

; 39   :     _Tree_unchecked_const_iterator(_Nodeptr _Pnode, const _Mytree* _Plist) noexcept : _Ptr(_Pnode) {

  001b1	8b 3b		 mov	 edi, DWORD PTR [ebx]

; 236  :         return this->_Ptr == _Right._Ptr;

  001b3	3b f7		 cmp	 esi, edi
; File C:\Users\murat\Desktop\Siveps2-1-99-Project\source\client\Client\eterBase\Stl.h

; 127  : 	for (TContainer::iterator i = container.begin(); i != container.end(); ++i)

  001b5	0f 85 79 fe ff
	ff		 jne	 $LL24@stl_wipe_s
$LN3@stl_wipe_s:
; File C:\Program Files (x86)\Microsoft Visual Studio\2019\Professional\VC\Tools\MSVC\14.29.30133\include\xtree

; 1351 :         _Scary->_Erase_tree(_Getal(), _Head->_Parent);

  001bb	8b 77 04	 mov	 esi, DWORD PTR [edi+4]

; 749  :         while (!_Rootnode->_Isnil) { // free subtrees, then node

  001be	80 7e 0d 00	 cmp	 BYTE PTR [esi+13], 0
  001c2	75 20		 jne	 SHORT $LN139@stl_wipe_s
$LL138@stl_wipe_s:

; 750  :             _Erase_tree(_Al, _Rootnode->_Right);

  001c4	ff 76 08	 push	 DWORD PTR [esi+8]
  001c7	8b cb		 mov	 ecx, ebx
  001c9	53		 push	 ebx
  001ca	e8 00 00 00 00	 call	 ??$_Erase_tree@V?$allocator@U?$_Tree_node@U?$pair@$$CBKPAUSEnvironmentData@@@std@@PAX@std@@@std@@@?$_Tree_val@U?$_Tree_simple_types@U?$pair@$$CBKPAUSEnvironmentData@@@std@@@std@@@std@@QAEXAAV?$allocator@U?$_Tree_node@U?$pair@$$CBKPAUSEnvironmentData@@@std@@PAX@std@@@1@PAU?$_Tree_node@U?$pair@$$CBKPAUSEnvironmentData@@@std@@PAX@1@@Z ; std::_Tree_val<std::_Tree_simple_types<std::pair<unsigned long const ,SEnvironmentData *> > >::_Erase_tree<std::allocator<std::_Tree_node<std::pair<unsigned long const ,SEnvironmentData *>,void *> > >
; File C:\Program Files (x86)\Microsoft Visual Studio\2019\Professional\VC\Tools\MSVC\14.29.30133\include\utility

; 616  :     _Ty _Old_val = static_cast<_Ty&&>(_Val);

  001cf	8b c6		 mov	 eax, esi

; 617  :     _Val         = static_cast<_Other&&>(_New_val);

  001d1	8b 36		 mov	 esi, DWORD PTR [esi]
; File C:\Program Files (x86)\Microsoft Visual Studio\2019\Professional\VC\Tools\MSVC\14.29.30133\include\xmemory

; 264  :         ::operator delete(_Ptr, _Bytes);

  001d3	6a 18		 push	 24			; 00000018H
  001d5	50		 push	 eax
  001d6	e8 00 00 00 00	 call	 ??3@YAXPAXI@Z		; operator delete
  001db	83 c4 08	 add	 esp, 8
; File C:\Program Files (x86)\Microsoft Visual Studio\2019\Professional\VC\Tools\MSVC\14.29.30133\include\xtree

; 749  :         while (!_Rootnode->_Isnil) { // free subtrees, then node

  001de	80 7e 0d 00	 cmp	 BYTE PTR [esi+13], 0
  001e2	74 e0		 je	 SHORT $LL138@stl_wipe_s
$LN139@stl_wipe_s:

; 1352 :         _Head->_Parent  = _Head;

  001e4	89 7f 04	 mov	 DWORD PTR [edi+4], edi

; 1353 :         _Head->_Left    = _Head;

  001e7	89 3f		 mov	 DWORD PTR [edi], edi

; 1354 :         _Head->_Right   = _Head;

  001e9	89 7f 08	 mov	 DWORD PTR [edi+8], edi

; 1355 :         _Scary->_Mysize = 0;

  001ec	c7 43 04 00 00
	00 00		 mov	 DWORD PTR [ebx+4], 0
; File C:\Users\murat\Desktop\Siveps2-1-99-Project\source\client\Client\eterBase\Stl.h

; 133  : }

  001f3	8b 4d f4	 mov	 ecx, DWORD PTR __$EHRec$[ebp]
  001f6	64 89 0d 00 00
	00 00		 mov	 DWORD PTR fs:0, ecx
  001fd	59		 pop	 ecx
  001fe	5f		 pop	 edi
  001ff	5e		 pop	 esi
  00200	5b		 pop	 ebx
  00201	8b e5		 mov	 esp, ebp
  00203	5d		 pop	 ebp
  00204	c3		 ret	 0
$LN125@stl_wipe_s:
; File C:\Program Files (x86)\Microsoft Visual Studio\2019\Professional\VC\Tools\MSVC\14.29.30133\include\xmemory

; 172  :     _STL_VERIFY(_Back_shift >= _Min_back_shift && _Back_shift <= _Non_user_size, "invalid argument");

  00205	e8 00 00 00 00	 call	 __invalid_parameter_noinfo_noreturn
$LN187@stl_wipe_s:
  0020a	cc		 int	 3
  0020b	cc		 int	 3
  0020c	cc		 int	 3
  0020d	cc		 int	 3
  0020e	cc		 int	 3
  0020f	cc		 int	 3
_TEXT	ENDS
;	COMDAT text$x
text$x	SEGMENT
__ehhandler$??$stl_wipe_second@V?$map@KPAUSEnvironmentData@@U?$less@K@std@@V?$allocator@U?$pair@$$CBKPAUSEnvironmentData@@@std@@@3@@std@@@@YAXAAV?$map@KPAUSEnvironmentData@@U?$less@K@std@@V?$allocator@U?$pair@$$CBKPAUSEnvironmentData@@@std@@@3@@std@@@Z:
  00000	90		 npad	 1
  00001	90		 npad	 1
  00002	8b 54 24 08	 mov	 edx, DWORD PTR [esp+8]
  00006	8d 42 0c	 lea	 eax, DWORD PTR [edx+12]
  00009	8b 4a f0	 mov	 ecx, DWORD PTR [edx-16]
  0000c	33 c8		 xor	 ecx, eax
  0000e	e8 00 00 00 00	 call	 @__security_check_cookie@4
  00013	b8 00 00 00 00	 mov	 eax, OFFSET __ehfuncinfo$??$stl_wipe_second@V?$map@KPAUSEnvironmentData@@U?$less@K@std@@V?$allocator@U?$pair@$$CBKPAUSEnvironmentData@@@std@@@3@@std@@@@YAXAAV?$map@KPAUSEnvironmentData@@U?$less@K@std@@V?$allocator@U?$pair@$$CBKPAUSEnvironmentData@@@std@@@3@@std@@@Z
  00018	e9 00 00 00 00	 jmp	 ___CxxFrameHandler3
text$x	ENDS
??$stl_wipe_second@V?$map@KPAUSEnvironmentData@@U?$less@K@std@@V?$allocator@U?$pair@$$CBKPAUSEnvironmentData@@@std@@@3@@std@@@@YAXAAV?$map@KPAUSEnvironmentData@@U?$less@K@std@@V?$allocator@U?$pair@$$CBKPAUSEnvironmentData@@@std@@@3@@std@@@Z ENDP ; stl_wipe_second<std::map<unsigned long,SEnvironmentData *,std::less<unsigned long>,std::allocator<std::pair<unsigned long const ,SEnvironmentData *> > > >
; Function compile flags: /Ogtp
;	COMDAT ??_GCMapManager@@UAEPAXI@Z
_TEXT	SEGMENT
___flags$ = 8						; size = 4
??_GCMapManager@@UAEPAXI@Z PROC				; CMapManager::`scalar deleting destructor', COMDAT
; _this$ = ecx
  00000	55		 push	 ebp
  00001	8b ec		 mov	 ebp, esp
  00003	56		 push	 esi
  00004	8b f1		 mov	 esi, ecx
  00006	e8 00 00 00 00	 call	 ??1CMapManager@@UAE@XZ	; CMapManager::~CMapManager
  0000b	f6 45 08 01	 test	 BYTE PTR ___flags$[ebp], 1
  0000f	74 0e		 je	 SHORT $LN4@scalar
  00011	68 dc 14 00 00	 push	 5340			; 000014dcH
  00016	56		 push	 esi
  00017	e8 00 00 00 00	 call	 ??3@YAXPAXI@Z		; operator delete
  0001c	83 c4 08	 add	 esp, 8
$LN4@scalar:
  0001f	8b c6		 mov	 eax, esi
  00021	5e		 pop	 esi
  00022	5d		 pop	 ebp
  00023	c2 04 00	 ret	 4
??_GCMapManager@@UAEPAXI@Z ENDP				; CMapManager::`scalar deleting destructor'
_TEXT	ENDS
; Function compile flags: /Ogtp
; File C:\Users\murat\Desktop\Siveps2-1-99-Project\source\client\Client\GameLib\MapManager.cpp
; File C:\Program Files (x86)\Microsoft Visual Studio\2019\Professional\VC\Tools\MSVC\14.29.30133\include\xstring
; File C:\Users\murat\Desktop\Siveps2-1-99-Project\source\client\Client\GameLib\MapManager.cpp
; File C:\Program Files (x86)\Microsoft Visual Studio\2019\Professional\VC\Tools\MSVC\14.29.30133\include\xstring
; File C:\Users\murat\Desktop\Siveps2-1-99-Project\source\client\Client\GameLib\MapManager.cpp
; File C:\Program Files (x86)\Microsoft Visual Studio\2019\Professional\VC\Tools\MSVC\14.29.30133\include\xstring
; File C:\Users\murat\Desktop\Siveps2-1-99-Project\source\client\Client\GameLib\MapManager.cpp
; File C:\Program Files (x86)\Microsoft Visual Studio\2019\Professional\VC\Tools\MSVC\14.29.30133\include\xstring
; File C:\Users\murat\Desktop\Siveps2-1-99-Project\source\client\Client\GameLib\MapManager.cpp
; File C:\Program Files (x86)\Microsoft Visual Studio\2019\Professional\VC\Tools\MSVC\14.29.30133\include\xstring
; File C:\Users\murat\Desktop\Siveps2-1-99-Project\source\client\Client\GameLib\MapManager.cpp
; File C:\Program Files (x86)\Microsoft Visual Studio\2019\Professional\VC\Tools\MSVC\14.29.30133\include\vector
; File C:\Users\murat\Desktop\Siveps2-1-99-Project\source\client\Client\GameLib\MapManager.cpp
; File C:\Program Files (x86)\Microsoft Visual Studio\2019\Professional\VC\Tools\MSVC\14.29.30133\include\vector
; File C:\Program Files (x86)\Microsoft Visual Studio\2019\Professional\VC\Tools\MSVC\14.29.30133\include\xstring
; File C:\Users\murat\Desktop\Siveps2-1-99-Project\source\client\Client\GameLib\MapManager.cpp
; File C:\Program Files (x86)\Microsoft Visual Studio\2019\Professional\VC\Tools\MSVC\14.29.30133\include\xstring
; File C:\Program Files (x86)\Microsoft Visual Studio\2019\Professional\VC\Tools\MSVC\14.29.30133\include\xmemory
; File C:\Program Files (x86)\Microsoft Visual Studio\2019\Professional\VC\Tools\MSVC\14.29.30133\include\xstring
; File C:\Program Files (x86)\Microsoft Visual Studio\2019\Professional\VC\Tools\MSVC\14.29.30133\include\xmemory
; File C:\Users\murat\Desktop\Siveps2-1-99-Project\source\client\Client\GameLib\MapManager.cpp
; File C:\Program Files (x86)\Microsoft Visual Studio\2019\Professional\VC\Tools\MSVC\14.29.30133\include\xmemory
; File C:\Users\murat\Desktop\Siveps2-1-99-Project\source\client\Client\GameLib\MapManager.cpp
;	COMDAT ?__LoadMapInfoVector@CMapManager@@IAEXXZ
_TEXT	SEGMENT
_textFileLoader$ = -680					; size = 16
_height$ = -664						; size = 4
_width$ = -660						; size = 4
_y$ = -656						; size = 4
_x$ = -652						; size = 4
_pData$ = -648						; size = 4
_kFile$ = -644						; size = 324
_kMapInfo$2 = -320					; size = 48
_szMapName$ = -272					; size = 256
__$ArrayPad$ = -16					; size = 4
__$EHRec$ = -12						; size = 12
?__LoadMapInfoVector@CMapManager@@IAEXXZ PROC		; CMapManager::__LoadMapInfoVector, COMDAT
; _this$ = ecx

; 600  : {

  00000	55		 push	 ebp
  00001	8b ec		 mov	 ebp, esp
  00003	6a ff		 push	 -1
  00005	68 00 00 00 00	 push	 __ehhandler$?__LoadMapInfoVector@CMapManager@@IAEXXZ
  0000a	64 a1 00 00 00
	00		 mov	 eax, DWORD PTR fs:0
  00010	50		 push	 eax
  00011	81 ec 9c 02 00
	00		 sub	 esp, 668		; 0000029cH
  00017	a1 00 00 00 00	 mov	 eax, DWORD PTR ___security_cookie
  0001c	33 c5		 xor	 eax, ebp
  0001e	89 45 f0	 mov	 DWORD PTR __$ArrayPad$[ebp], eax
  00021	53		 push	 ebx
  00022	56		 push	 esi
  00023	57		 push	 edi
  00024	50		 push	 eax
  00025	8d 45 f4	 lea	 eax, DWORD PTR __$EHRec$[ebp]
  00028	64 a3 00 00 00
	00		 mov	 DWORD PTR fs:0, eax
  0002e	8b d9		 mov	 ebx, ecx

; 601  : 	CMappedFile kFile;

  00030	8d 8d 7c fd ff
	ff		 lea	 ecx, DWORD PTR _kFile$[ebp]
  00036	e8 00 00 00 00	 call	 ??0CMappedFile@@QAE@XZ	; CMappedFile::CMappedFile
; File C:\Program Files (x86)\Microsoft Visual Studio\2019\Professional\VC\Tools\MSVC\14.29.30133\include\xstring

; 2306 :         if (_Large_string_engaged()) {

  0003b	83 bb d8 14 00
	00 10		 cmp	 DWORD PTR [ebx+5336], 16 ; 00000010H

; 3922 :         return _Mypair._Myval2._Myptr();

  00042	8d 83 c4 14 00
	00		 lea	 eax, DWORD PTR [ebx+5316]
; File C:\Users\murat\Desktop\Siveps2-1-99-Project\source\client\Client\GameLib\MapManager.cpp

; 601  : 	CMappedFile kFile;

  00048	c7 45 fc 00 00
	00 00		 mov	 DWORD PTR __$EHRec$[ebp+8], 0
; File C:\Program Files (x86)\Microsoft Visual Studio\2019\Professional\VC\Tools\MSVC\14.29.30133\include\xstring

; 2306 :         if (_Large_string_engaged()) {

  0004f	72 02		 jb	 SHORT $LN16@LoadMapInf

; 2307 :             _Result = _Unfancy(_Bx._Ptr);

  00051	8b 00		 mov	 eax, DWORD PTR [eax]
$LN16@LoadMapInf:
; File C:\Users\murat\Desktop\Siveps2-1-99-Project\source\client\Client\GameLib\MapManager.cpp

; 603  : 	if (!CEterPackManager::Instance().Get(kFile, m_stAtlasInfoFileName.c_str(), &pData))

  00053	8d 8d 78 fd ff
	ff		 lea	 ecx, DWORD PTR _pData$[ebp]
  00059	51		 push	 ecx
  0005a	8b 0d 00 00 00
	00		 mov	 ecx, DWORD PTR ?ms_singleton@?$CSingleton@VCEterPackManager@@@@0PAVCEterPackManager@@A ; CSingleton<CEterPackManager>::ms_singleton
  00060	50		 push	 eax
  00061	8d 85 7c fd ff
	ff		 lea	 eax, DWORD PTR _kFile$[ebp]
  00067	50		 push	 eax
  00068	e8 00 00 00 00	 call	 ?Get@CEterPackManager@@QAE_NAAVCMappedFile@@PBDPAPBX@Z ; CEterPackManager::Get
  0006d	84 c0		 test	 al, al
  0006f	75 26		 jne	 SHORT $LN6@LoadMapInf

; 604  : 		if (!CEterPackManager::Instance().Get(kFile, "AtlasInfo.txt", &pData))

  00071	8b 0d 00 00 00
	00		 mov	 ecx, DWORD PTR ?ms_singleton@?$CSingleton@VCEterPackManager@@@@0PAVCEterPackManager@@A ; CSingleton<CEterPackManager>::ms_singleton
  00077	8d 85 78 fd ff
	ff		 lea	 eax, DWORD PTR _pData$[ebp]
  0007d	50		 push	 eax
  0007e	68 00 00 00 00	 push	 OFFSET ??_C@_0O@EEKDAHG@AtlasInfo?4txt@
  00083	8d 85 7c fd ff
	ff		 lea	 eax, DWORD PTR _kFile$[ebp]
  00089	50		 push	 eax
  0008a	e8 00 00 00 00	 call	 ?Get@CEterPackManager@@QAE_NAAVCMappedFile@@PBDPAPBX@Z ; CEterPackManager::Get
  0008f	84 c0		 test	 al, al
  00091	0f 84 ba 01 00
	00		 je	 $LN12@LoadMapInf
$LN6@LoadMapInf:

; 605  : 			return;
; 606  : 
; 607  : 	CMemoryTextFileLoader textFileLoader;

  00097	8d 8d 58 fd ff
	ff		 lea	 ecx, DWORD PTR _textFileLoader$[ebp]
  0009d	e8 00 00 00 00	 call	 ??0CMemoryTextFileLoader@@QAE@XZ ; CMemoryTextFileLoader::CMemoryTextFileLoader

; 608  : 	textFileLoader.Bind(kFile.Size(), pData);

  000a2	ff b5 78 fd ff
	ff		 push	 DWORD PTR _pData$[ebp]
  000a8	8d 8d 7c fd ff
	ff		 lea	 ecx, DWORD PTR _kFile$[ebp]
  000ae	c6 45 fc 01	 mov	 BYTE PTR __$EHRec$[ebp+8], 1
  000b2	e8 00 00 00 00	 call	 ?Size@CMappedFile@@QAEKXZ ; CMappedFile::Size
  000b7	50		 push	 eax
  000b8	8d 8d 58 fd ff
	ff		 lea	 ecx, DWORD PTR _textFileLoader$[ebp]
  000be	e8 00 00 00 00	 call	 ?Bind@CMemoryTextFileLoader@@QAEXHPBX@Z ; CMemoryTextFileLoader::Bind

; 613  : 	for (UINT uLineIndex=0; uLineIndex<textFileLoader.GetLineCount(); ++uLineIndex)

  000c3	8d 8d 58 fd ff
	ff		 lea	 ecx, DWORD PTR _textFileLoader$[ebp]
  000c9	33 ff		 xor	 edi, edi
  000cb	e8 00 00 00 00	 call	 ?GetLineCount@CMemoryTextFileLoader@@QAEKXZ ; CMemoryTextFileLoader::GetLineCount
  000d0	85 c0		 test	 eax, eax
  000d2	0f 84 6e 01 00
	00		 je	 $LN92@LoadMapInf
  000d8	0f 1f 84 00 00
	00 00 00	 npad	 8
$LL4@LoadMapInf:

; 614  : 	{
; 615  : 		const std::string& c_rstLine=textFileLoader.GetLineString(uLineIndex);

  000e0	57		 push	 edi
  000e1	8d 8d 58 fd ff
	ff		 lea	 ecx, DWORD PTR _textFileLoader$[ebp]
  000e7	e8 00 00 00 00	 call	 ?GetLineString@CMemoryTextFileLoader@@QAEABV?$basic_string@DU?$char_traits@D@std@@V?$allocator@D@2@@std@@K@Z ; CMemoryTextFileLoader::GetLineString
; File C:\Program Files (x86)\Microsoft Visual Studio\2019\Professional\VC\Tools\MSVC\14.29.30133\include\xstring

; 2306 :         if (_Large_string_engaged()) {

  000ec	83 78 14 10	 cmp	 DWORD PTR [eax+20], 16	; 00000010H
  000f0	72 02		 jb	 SHORT $LN23@LoadMapInf

; 2307 :             _Result = _Unfancy(_Bx._Ptr);

  000f2	8b 00		 mov	 eax, DWORD PTR [eax]
$LN23@LoadMapInf:
; File C:\Users\murat\Desktop\Siveps2-1-99-Project\source\client\Client\GameLib\MapManager.cpp

; 616  : 		sscanf(c_rstLine.c_str(), "%s %d %d %d %d",

  000f4	8d 8d 68 fd ff
	ff		 lea	 ecx, DWORD PTR _height$[ebp]
  000fa	51		 push	 ecx
  000fb	8d 8d 6c fd ff
	ff		 lea	 ecx, DWORD PTR _width$[ebp]
  00101	51		 push	 ecx
  00102	8d 8d 70 fd ff
	ff		 lea	 ecx, DWORD PTR _y$[ebp]
  00108	51		 push	 ecx
  00109	8d 8d 74 fd ff
	ff		 lea	 ecx, DWORD PTR _x$[ebp]
  0010f	51		 push	 ecx
  00110	8d 8d f0 fe ff
	ff		 lea	 ecx, DWORD PTR _szMapName$[ebp]
  00116	51		 push	 ecx
  00117	68 00 00 00 00	 push	 OFFSET ??_C@_0P@GOFAHLEL@?$CFs?5?$CFd?5?$CFd?5?$CFd?5?$CFd@
  0011c	50		 push	 eax
  0011d	e8 00 00 00 00	 call	 _sscanf
  00122	83 c4 1c	 add	 esp, 28			; 0000001cH

; 617  : 			szMapName,
; 618  : 			&x, &y, &width, &height);
; 619  : 
; 620  : 		if ('\0'==szMapName[0])

  00125	80 bd f0 fe ff
	ff 00		 cmp	 BYTE PTR _szMapName$[ebp], 0
  0012c	0f 84 00 01 00
	00		 je	 $LN2@LoadMapInf
; File C:\Program Files (x86)\Microsoft Visual Studio\2019\Professional\VC\Tools\MSVC\14.29.30133\include\xstring

; 2346 :         _CONSTEXPR20_CONTAINER _Bxty() noexcept : _Ptr() {} // user-provided, for fancy pointers

  00132	c7 85 c0 fe ff
	ff 00 00 00 00	 mov	 DWORD PTR _kMapInfo$2[ebp], 0

; 4596 :         _My_data._Mysize = 0;

  0013c	c7 85 d0 fe ff
	ff 00 00 00 00	 mov	 DWORD PTR _kMapInfo$2[ebp+16], 0

; 4597 : 
; 4598 : #ifdef __cpp_lib_constexpr_string
; 4599 :         if (_STD is_constant_evaluated()) {
; 4600 :             _My_data._Myres        = _BUF_SIZE; // SSO disabled in constexpr context
; 4601 :             auto& _Al              = _Getal();
; 4602 :             const pointer _New_ptr = _Al.allocate(_BUF_SIZE + 1); // throws
; 4603 :             _My_data._Bx._Ptr      = _New_ptr;
; 4604 : 
; 4605 :             _Elem* const _Raw_new = _Unfancy(_New_ptr);
; 4606 :             _Traits::assign(_Raw_new, _BUF_SIZE + 1, _Elem());
; 4607 :         } else
; 4608 : #endif // __cpp_lib_constexpr_string
; 4609 :         {
; 4610 :             _My_data._Myres = _BUF_SIZE - 1;

  00146	c7 85 d4 fe ff
	ff 0f 00 00 00	 mov	 DWORD PTR _kMapInfo$2[ebp+20], 15 ; 0000000fH

; 4611 :             // the _Traits::assign is last so the codegen doesn't think the char write can alias this
; 4612 :             _Traits::assign(_My_data._Bx._Buf[0], _Elem());

  00150	c6 85 c0 fe ff
	ff 00		 mov	 BYTE PTR _kMapInfo$2[ebp], 0

; 412  :         return _CSTD strlen(reinterpret_cast<const char*>(_First));

  00157	8d 85 f0 fe ff
	ff		 lea	 eax, DWORD PTR _szMapName$[ebp]
; File C:\Users\murat\Desktop\Siveps2-1-99-Project\source\client\Client\GameLib\MapManager.cpp

; 623  : 		TMapInfo kMapInfo;

  0015d	c6 45 fc 02	 mov	 BYTE PTR __$EHRec$[ebp+8], 2
; File C:\Program Files (x86)\Microsoft Visual Studio\2019\Professional\VC\Tools\MSVC\14.29.30133\include\xstring

; 412  :         return _CSTD strlen(reinterpret_cast<const char*>(_First));

  00161	8d 50 01	 lea	 edx, DWORD PTR [eax+1]
$LL93@LoadMapInf:
  00164	8a 08		 mov	 cl, BYTE PTR [eax]
  00166	40		 inc	 eax
  00167	84 c9		 test	 cl, cl
  00169	75 f9		 jne	 SHORT $LL93@LoadMapInf
  0016b	2b c2		 sub	 eax, edx

; 3264 :         return assign(_Ptr, _Convert_size<size_type>(_Traits::length(_Ptr)));

  0016d	8d 8d c0 fe ff
	ff		 lea	 ecx, DWORD PTR _kMapInfo$2[ebp]
  00173	50		 push	 eax
  00174	8d 85 f0 fe ff
	ff		 lea	 eax, DWORD PTR _szMapName$[ebp]
  0017a	50		 push	 eax
  0017b	e8 00 00 00 00	 call	 ?assign@?$basic_string@DU?$char_traits@D@std@@V?$allocator@D@2@@std@@QAEAAV12@QBDI@Z ; std::basic_string<char,std::char_traits<char>,std::allocator<char> >::assign
; File C:\Users\murat\Desktop\Siveps2-1-99-Project\source\client\Client\GameLib\MapManager.cpp

; 628  : 		kMapInfo.m_dwSizeX = width;

  00180	8b 85 6c fd ff
	ff		 mov	 eax, DWORD PTR _width$[ebp]
  00186	8b 95 74 fd ff
	ff		 mov	 edx, DWORD PTR _x$[ebp]

; 629  : 		kMapInfo.m_dwSizeY = height;

  0018c	8b 8d 68 fd ff
	ff		 mov	 ecx, DWORD PTR _height$[ebp]
  00192	8b b5 70 fd ff
	ff		 mov	 esi, DWORD PTR _y$[ebp]
  00198	89 85 e0 fe ff
	ff		 mov	 DWORD PTR _kMapInfo$2[ebp+32], eax

; 630  : 
; 631  : 		kMapInfo.m_dwEndX = kMapInfo.m_dwBaseX + kMapInfo.m_dwSizeX * CTerrainImpl::TERRAIN_XSIZE;

  0019e	69 c0 00 64 00
	00		 imul	 eax, eax, 25600
  001a4	89 b5 dc fe ff
	ff		 mov	 DWORD PTR _kMapInfo$2[ebp+28], esi
  001aa	89 8d e4 fe ff
	ff		 mov	 DWORD PTR _kMapInfo$2[ebp+36], ecx
  001b0	89 95 d8 fe ff
	ff		 mov	 DWORD PTR _kMapInfo$2[ebp+24], edx
  001b6	03 c2		 add	 eax, edx
  001b8	89 85 e8 fe ff
	ff		 mov	 DWORD PTR _kMapInfo$2[ebp+40], eax

; 632  : 		kMapInfo.m_dwEndY = kMapInfo.m_dwBaseY + kMapInfo.m_dwSizeY * CTerrainImpl::TERRAIN_YSIZE;

  001be	69 c1 00 64 00
	00		 imul	 eax, ecx, 25600
; File C:\Program Files (x86)\Microsoft Visual Studio\2019\Professional\VC\Tools\MSVC\14.29.30133\include\vector

; 743  :         if (_Mylast != _My_data._Myend) {

  001c4	8d 8d c0 fe ff
	ff		 lea	 ecx, DWORD PTR _kMapInfo$2[ebp]
  001ca	51		 push	 ecx
; File C:\Users\murat\Desktop\Siveps2-1-99-Project\source\client\Client\GameLib\MapManager.cpp

; 632  : 		kMapInfo.m_dwEndY = kMapInfo.m_dwBaseY + kMapInfo.m_dwSizeY * CTerrainImpl::TERRAIN_YSIZE;

  001cb	03 c6		 add	 eax, esi

; 633  : 
; 634  : 		m_kVct_kMapInfo.push_back(kMapInfo);

  001cd	8d b3 b4 14 00
	00		 lea	 esi, DWORD PTR [ebx+5300]
  001d3	89 85 ec fe ff
	ff		 mov	 DWORD PTR _kMapInfo$2[ebp+44], eax
; File C:\Program Files (x86)\Microsoft Visual Studio\2019\Professional\VC\Tools\MSVC\14.29.30133\include\vector

; 743  :         if (_Mylast != _My_data._Myend) {

  001d9	8b 46 04	 mov	 eax, DWORD PTR [esi+4]
  001dc	50		 push	 eax
  001dd	3b 46 08	 cmp	 eax, DWORD PTR [esi+8]
  001e0	74 0f		 je	 SHORT $LN52@LoadMapInf

; 726  :         _Alty_traits::construct(_Getal(), _Unfancy(_Mylast), _STD forward<_Valty>(_Val)...);

  001e2	56		 push	 esi
  001e3	e8 00 00 00 00	 call	 ??$construct@UTMapInfo@CMapManager@@ABU12@@?$_Default_allocator_traits@V?$allocator@UTMapInfo@CMapManager@@@std@@@std@@SAXAAV?$allocator@UTMapInfo@CMapManager@@@1@QAUTMapInfo@CMapManager@@ABU34@@Z ; std::_Default_allocator_traits<std::allocator<CMapManager::TMapInfo> >::construct<CMapManager::TMapInfo,CMapManager::TMapInfo const &>
  001e8	83 c4 0c	 add	 esp, 12			; 0000000cH

; 727  :         _Orphan_range(_Mylast, _Mylast);
; 728  :         _Ty& _Result = *_Mylast;
; 729  :         ++_Mylast;

  001eb	83 46 04 30	 add	 DWORD PTR [esi+4], 48	; 00000030H

; 744  :             return _Emplace_back_with_unused_capacity(_STD forward<_Valty>(_Val)...);

  001ef	eb 07		 jmp	 SHORT $LN51@LoadMapInf
$LN52@LoadMapInf:

; 745  :         }
; 746  : 
; 747  :         _Ty& _Result = *_Emplace_reallocate(_Mylast, _STD forward<_Valty>(_Val)...);

  001f1	8b ce		 mov	 ecx, esi
  001f3	e8 00 00 00 00	 call	 ??$_Emplace_reallocate@ABUTMapInfo@CMapManager@@@?$vector@UTMapInfo@CMapManager@@V?$allocator@UTMapInfo@CMapManager@@@std@@@std@@QAEPAUTMapInfo@CMapManager@@QAU23@ABU23@@Z ; std::vector<CMapManager::TMapInfo,std::allocator<CMapManager::TMapInfo> >::_Emplace_reallocate<CMapManager::TMapInfo const &>
$LN51@LoadMapInf:
; File C:\Program Files (x86)\Microsoft Visual Studio\2019\Professional\VC\Tools\MSVC\14.29.30133\include\xstring

; 2319 :         return _BUF_SIZE <= _Myres;

  001f8	8b 95 d4 fe ff
	ff		 mov	 edx, DWORD PTR _kMapInfo$2[ebp+20]
; File C:\Users\murat\Desktop\Siveps2-1-99-Project\source\client\Client\GameLib\MapManager.cpp

; 635  : 	}

  001fe	c6 45 fc 01	 mov	 BYTE PTR __$EHRec$[ebp+8], 1
; File C:\Program Files (x86)\Microsoft Visual Studio\2019\Professional\VC\Tools\MSVC\14.29.30133\include\xstring

; 2319 :         return _BUF_SIZE <= _Myres;

  00202	83 fa 10	 cmp	 edx, 16			; 00000010H

; 4618 :         if (_Mypair._Myval2._Large_string_engaged()) {

  00205	72 2b		 jb	 SHORT $LN2@LoadMapInf
; File C:\Program Files (x86)\Microsoft Visual Studio\2019\Professional\VC\Tools\MSVC\14.29.30133\include\xmemory

; 835  :         _Deallocate<_New_alignof<_Ty>>(_Ptr, sizeof(_Ty) * _Count);

  00207	8b 8d c0 fe ff
	ff		 mov	 ecx, DWORD PTR _kMapInfo$2[ebp]
; File C:\Program Files (x86)\Microsoft Visual Studio\2019\Professional\VC\Tools\MSVC\14.29.30133\include\xstring

; 4622 :             _Al.deallocate(_Ptr, _Mypair._Myval2._Myres + 1);

  0020d	42		 inc	 edx
; File C:\Program Files (x86)\Microsoft Visual Studio\2019\Professional\VC\Tools\MSVC\14.29.30133\include\xmemory

; 835  :         _Deallocate<_New_alignof<_Ty>>(_Ptr, sizeof(_Ty) * _Count);

  0020e	8b c1		 mov	 eax, ecx

; 260  :         if (_Bytes >= _Big_allocation_threshold) { // boost the alignment of big allocations to help autovectorization

  00210	81 fa 00 10 00
	00		 cmp	 edx, 4096		; 00001000H
  00216	72 10		 jb	 SHORT $LN81@LoadMapInf

; 158  :     const uintptr_t _Ptr_container   = _Ptr_user[-1];

  00218	8b 49 fc	 mov	 ecx, DWORD PTR [ecx-4]
  0021b	83 c2 23	 add	 edx, 35			; 00000023H
  0021e	2b c1		 sub	 eax, ecx

; 172  :     _STL_VERIFY(_Back_shift >= _Min_back_shift && _Back_shift <= _Non_user_size, "invalid argument");

  00220	83 c0 fc	 add	 eax, -4			; fffffffcH
  00223	83 f8 1f	 cmp	 eax, 31			; 0000001fH
  00226	77 50		 ja	 SHORT $LN78@LoadMapInf
$LN81@LoadMapInf:

; 264  :         ::operator delete(_Ptr, _Bytes);

  00228	52		 push	 edx
  00229	51		 push	 ecx
  0022a	e8 00 00 00 00	 call	 ??3@YAXPAXI@Z		; operator delete
  0022f	83 c4 08	 add	 esp, 8
$LN2@LoadMapInf:
; File C:\Users\murat\Desktop\Siveps2-1-99-Project\source\client\Client\GameLib\MapManager.cpp

; 613  : 	for (UINT uLineIndex=0; uLineIndex<textFileLoader.GetLineCount(); ++uLineIndex)

  00232	8d 8d 58 fd ff
	ff		 lea	 ecx, DWORD PTR _textFileLoader$[ebp]
  00238	47		 inc	 edi
  00239	e8 00 00 00 00	 call	 ?GetLineCount@CMemoryTextFileLoader@@QAEKXZ ; CMemoryTextFileLoader::GetLineCount
  0023e	3b f8		 cmp	 edi, eax
  00240	0f 82 9a fe ff
	ff		 jb	 $LL4@LoadMapInf
$LN92@LoadMapInf:

; 636  : 
; 637  : 	return;

  00246	8d 8d 58 fd ff
	ff		 lea	 ecx, DWORD PTR _textFileLoader$[ebp]
  0024c	e8 00 00 00 00	 call	 ??1CMemoryTextFileLoader@@UAE@XZ ; CMemoryTextFileLoader::~CMemoryTextFileLoader
$LN12@LoadMapInf:
  00251	8d 8d 7c fd ff
	ff		 lea	 ecx, DWORD PTR _kFile$[ebp]
  00257	e8 00 00 00 00	 call	 ??1CMappedFile@@UAE@XZ	; CMappedFile::~CMappedFile

; 638  : }

  0025c	8b 4d f4	 mov	 ecx, DWORD PTR __$EHRec$[ebp]
  0025f	64 89 0d 00 00
	00 00		 mov	 DWORD PTR fs:0, ecx
  00266	59		 pop	 ecx
  00267	5f		 pop	 edi
  00268	5e		 pop	 esi
  00269	5b		 pop	 ebx
  0026a	8b 4d f0	 mov	 ecx, DWORD PTR __$ArrayPad$[ebp]
  0026d	33 cd		 xor	 ecx, ebp
  0026f	e8 00 00 00 00	 call	 @__security_check_cookie@4
  00274	8b e5		 mov	 esp, ebp
  00276	5d		 pop	 ebp
  00277	c3		 ret	 0
$LN78@LoadMapInf:
; File C:\Program Files (x86)\Microsoft Visual Studio\2019\Professional\VC\Tools\MSVC\14.29.30133\include\xmemory

; 172  :     _STL_VERIFY(_Back_shift >= _Min_back_shift && _Back_shift <= _Non_user_size, "invalid argument");

  00278	e8 00 00 00 00	 call	 __invalid_parameter_noinfo_noreturn
$LN95@LoadMapInf:
  0027d	cc		 int	 3
_TEXT	ENDS
;	COMDAT text$x
text$x	SEGMENT
__unwindfunclet$?__LoadMapInfoVector@CMapManager@@IAEXXZ$0:
  00000	8d 8d 7c fd ff
	ff		 lea	 ecx, DWORD PTR _kFile$[ebp]
  00006	e9 00 00 00 00	 jmp	 ??1CMappedFile@@UAE@XZ	; CMappedFile::~CMappedFile
__unwindfunclet$?__LoadMapInfoVector@CMapManager@@IAEXXZ$1:
  0000b	8d 8d 58 fd ff
	ff		 lea	 ecx, DWORD PTR _textFileLoader$[ebp]
  00011	e9 00 00 00 00	 jmp	 ??1CMemoryTextFileLoader@@UAE@XZ ; CMemoryTextFileLoader::~CMemoryTextFileLoader
__unwindfunclet$?__LoadMapInfoVector@CMapManager@@IAEXXZ$2:
  00016	8d 8d c0 fe ff
	ff		 lea	 ecx, DWORD PTR _kMapInfo$2[ebp]
  0001c	e9 00 00 00 00	 jmp	 ??1TMapInfo@CMapManager@@QAE@XZ
  00021	cc		 int	 3
  00022	cc		 int	 3
  00023	cc		 int	 3
  00024	cc		 int	 3
  00025	cc		 int	 3
__ehhandler$?__LoadMapInfoVector@CMapManager@@IAEXXZ:
  00026	90		 npad	 1
  00027	90		 npad	 1
  00028	8b 54 24 08	 mov	 edx, DWORD PTR [esp+8]
  0002c	8d 42 0c	 lea	 eax, DWORD PTR [edx+12]
  0002f	8b 8a 54 fd ff
	ff		 mov	 ecx, DWORD PTR [edx-684]
  00035	33 c8		 xor	 ecx, eax
  00037	e8 00 00 00 00	 call	 @__security_check_cookie@4
  0003c	8b 4a fc	 mov	 ecx, DWORD PTR [edx-4]
  0003f	33 c8		 xor	 ecx, eax
  00041	e8 00 00 00 00	 call	 @__security_check_cookie@4
  00046	b8 00 00 00 00	 mov	 eax, OFFSET __ehfuncinfo$?__LoadMapInfoVector@CMapManager@@IAEXXZ
  0004b	e9 00 00 00 00	 jmp	 ___CxxFrameHandler3
text$x	ENDS
?__LoadMapInfoVector@CMapManager@@IAEXXZ ENDP		; CMapManager::__LoadMapInfoVector
; Function compile flags: /Ogtp
; File C:\Program Files (x86)\Microsoft Visual Studio\2019\Professional\VC\Tools\MSVC\14.29.30133\include\vector
;	COMDAT ?_Xlength@?$vector@UTMapInfo@CMapManager@@V?$allocator@UTMapInfo@CMapManager@@@std@@@std@@CAXXZ
_TEXT	SEGMENT
?_Xlength@?$vector@UTMapInfo@CMapManager@@V?$allocator@UTMapInfo@CMapManager@@@std@@@std@@CAXXZ PROC ; std::vector<CMapManager::TMapInfo,std::allocator<CMapManager::TMapInfo> >::_Xlength, COMDAT

; 1774 :         _Xlength_error("vector too long");

  00000	68 00 00 00 00	 push	 OFFSET ??_C@_0BA@FOIKENOD@vector?5too?5long@
  00005	e8 00 00 00 00	 call	 ?_Xlength_error@std@@YAXPBD@Z ; std::_Xlength_error
$LN3@Xlength:
  0000a	cc		 int	 3
?_Xlength@?$vector@UTMapInfo@CMapManager@@V?$allocator@UTMapInfo@CMapManager@@@std@@@std@@CAXXZ ENDP ; std::vector<CMapManager::TMapInfo,std::allocator<CMapManager::TMapInfo> >::_Xlength
_TEXT	ENDS
; Function compile flags: /Ogtp
; File C:\Program Files (x86)\Microsoft Visual Studio\2019\Professional\VC\Tools\MSVC\14.29.30133\include\vector
;	COMDAT ?_Destroy@?$vector@UTMapInfo@CMapManager@@V?$allocator@UTMapInfo@CMapManager@@@std@@@std@@AAEXPAUTMapInfo@CMapManager@@0@Z
_TEXT	SEGMENT
__First$ = 8						; size = 4
__Last$ = 12						; size = 4
?_Destroy@?$vector@UTMapInfo@CMapManager@@V?$allocator@UTMapInfo@CMapManager@@@std@@@std@@AAEXPAUTMapInfo@CMapManager@@0@Z PROC ; std::vector<CMapManager::TMapInfo,std::allocator<CMapManager::TMapInfo> >::_Destroy, COMDAT
; _this$ = ecx

; 1678 :     _CONSTEXPR20_CONTAINER void _Destroy(pointer _First, pointer _Last) {

  00000	55		 push	 ebp
  00001	8b ec		 mov	 ebp, esp

; 1679 :         // destroy [_First, _Last) using allocator
; 1680 :         _Destroy_range(_First, _Last, _Getal());

  00003	51		 push	 ecx
  00004	ff 75 0c	 push	 DWORD PTR __Last$[ebp]
  00007	ff 75 08	 push	 DWORD PTR __First$[ebp]
  0000a	e8 00 00 00 00	 call	 ??$_Destroy_range@V?$allocator@UTMapInfo@CMapManager@@@std@@@std@@YAXPAUTMapInfo@CMapManager@@QAU12@AAV?$allocator@UTMapInfo@CMapManager@@@0@@Z ; std::_Destroy_range<std::allocator<CMapManager::TMapInfo> >
  0000f	83 c4 0c	 add	 esp, 12			; 0000000cH

; 1681 :     }

  00012	5d		 pop	 ebp
  00013	c2 08 00	 ret	 8
?_Destroy@?$vector@UTMapInfo@CMapManager@@V?$allocator@UTMapInfo@CMapManager@@@std@@@std@@AAEXPAUTMapInfo@CMapManager@@0@Z ENDP ; std::vector<CMapManager::TMapInfo,std::allocator<CMapManager::TMapInfo> >::_Destroy
_TEXT	ENDS
; Function compile flags: /Ogtp
; File C:\Program Files (x86)\Microsoft Visual Studio\2019\Professional\VC\Tools\MSVC\14.29.30133\include\vector
; File C:\Program Files (x86)\Microsoft Visual Studio\2019\Professional\VC\Tools\MSVC\14.29.30133\include\xmemory
; File C:\Program Files (x86)\Microsoft Visual Studio\2019\Professional\VC\Tools\MSVC\14.29.30133\include\vector
; File C:\Program Files (x86)\Microsoft Visual Studio\2019\Professional\VC\Tools\MSVC\14.29.30133\include\xmemory
; File C:\Program Files (x86)\Microsoft Visual Studio\2019\Professional\VC\Tools\MSVC\14.29.30133\include\vector
;	COMDAT ??1?$vector@UTMapInfo@CMapManager@@V?$allocator@UTMapInfo@CMapManager@@@std@@@std@@QAE@XZ
_TEXT	SEGMENT
??1?$vector@UTMapInfo@CMapManager@@V?$allocator@UTMapInfo@CMapManager@@@std@@@std@@QAE@XZ PROC ; std::vector<CMapManager::TMapInfo,std::allocator<CMapManager::TMapInfo> >::~vector<CMapManager::TMapInfo,std::allocator<CMapManager::TMapInfo> >, COMDAT
; _this$ = ecx

; 711  :     _CONSTEXPR20_CONTAINER ~vector() noexcept {

  00000	56		 push	 esi
  00001	8b f1		 mov	 esi, ecx

; 1763 :         if (_Myfirst) { // destroy and deallocate old array

  00003	8b 06		 mov	 eax, DWORD PTR [esi]
  00005	85 c0		 test	 eax, eax
  00007	74 65		 je	 SHORT $LN4@vector

; 1680 :         _Destroy_range(_First, _Last, _Getal());

  00009	57		 push	 edi
  0000a	56		 push	 esi
  0000b	ff 76 04	 push	 DWORD PTR [esi+4]
  0000e	50		 push	 eax
  0000f	e8 00 00 00 00	 call	 ??$_Destroy_range@V?$allocator@UTMapInfo@CMapManager@@@std@@@std@@YAXPAUTMapInfo@CMapManager@@QAU12@AAV?$allocator@UTMapInfo@CMapManager@@@0@@Z ; std::_Destroy_range<std::allocator<CMapManager::TMapInfo> >

; 1765 :             _Getal().deallocate(_Myfirst, static_cast<size_type>(_Myend - _Myfirst));

  00014	8b 4e 08	 mov	 ecx, DWORD PTR [esi+8]
  00017	b8 ab aa aa 2a	 mov	 eax, 715827883		; 2aaaaaabH
  0001c	8b 3e		 mov	 edi, DWORD PTR [esi]

; 1680 :         _Destroy_range(_First, _Last, _Getal());

  0001e	83 c4 0c	 add	 esp, 12			; 0000000cH

; 1765 :             _Getal().deallocate(_Myfirst, static_cast<size_type>(_Myend - _Myfirst));

  00021	2b cf		 sub	 ecx, edi
  00023	f7 e9		 imul	 ecx
  00025	c1 fa 03	 sar	 edx, 3
  00028	8b c2		 mov	 eax, edx
  0002a	c1 e8 1f	 shr	 eax, 31			; 0000001fH
  0002d	03 c2		 add	 eax, edx
; File C:\Program Files (x86)\Microsoft Visual Studio\2019\Professional\VC\Tools\MSVC\14.29.30133\include\xmemory

; 835  :         _Deallocate<_New_alignof<_Ty>>(_Ptr, sizeof(_Ty) * _Count);

  0002f	8d 0c 40	 lea	 ecx, DWORD PTR [eax+eax*2]
  00032	c1 e1 04	 shl	 ecx, 4

; 260  :         if (_Bytes >= _Big_allocation_threshold) { // boost the alignment of big allocations to help autovectorization

  00035	81 f9 00 10 00
	00		 cmp	 ecx, 4096		; 00001000H
  0003b	72 12		 jb	 SHORT $LN22@vector

; 158  :     const uintptr_t _Ptr_container   = _Ptr_user[-1];

  0003d	8b 57 fc	 mov	 edx, DWORD PTR [edi-4]
  00040	83 c1 23	 add	 ecx, 35			; 00000023H

; 159  : 
; 160  :     // If the following asserts, it likely means that we are performing
; 161  :     // an aligned delete on memory coming from an unaligned allocation.
; 162  :     _STL_ASSERT(_Ptr_user[-2] == _Big_allocation_sentinel, "invalid argument");
; 163  : 
; 164  :     // Extra paranoia on aligned allocation/deallocation; ensure _Ptr_container is
; 165  :     // in range [_Min_back_shift, _Non_user_size]
; 166  : #ifdef _DEBUG
; 167  :     constexpr uintptr_t _Min_back_shift = 2 * sizeof(void*);
; 168  : #else // ^^^ _DEBUG ^^^ // vvv !_DEBUG vvv
; 169  :     constexpr uintptr_t _Min_back_shift = sizeof(void*);
; 170  : #endif // _DEBUG
; 171  :     const uintptr_t _Back_shift = reinterpret_cast<uintptr_t>(_Ptr) - _Ptr_container;

  00043	2b fa		 sub	 edi, edx

; 172  :     _STL_VERIFY(_Back_shift >= _Min_back_shift && _Back_shift <= _Non_user_size, "invalid argument");

  00045	8d 47 fc	 lea	 eax, DWORD PTR [edi-4]
  00048	83 f8 1f	 cmp	 eax, 31			; 0000001fH
  0004b	77 23		 ja	 SHORT $LN19@vector

; 173  :     _Ptr = reinterpret_cast<void*>(_Ptr_container);

  0004d	8b fa		 mov	 edi, edx
$LN22@vector:

; 264  :         ::operator delete(_Ptr, _Bytes);

  0004f	51		 push	 ecx
  00050	57		 push	 edi
  00051	e8 00 00 00 00	 call	 ??3@YAXPAXI@Z		; operator delete
  00056	83 c4 08	 add	 esp, 8
; File C:\Program Files (x86)\Microsoft Visual Studio\2019\Professional\VC\Tools\MSVC\14.29.30133\include\vector

; 1767 :             _Myfirst = nullptr;

  00059	c7 06 00 00 00
	00		 mov	 DWORD PTR [esi], 0

; 1768 :             _Mylast  = nullptr;

  0005f	c7 46 04 00 00
	00 00		 mov	 DWORD PTR [esi+4], 0

; 1769 :             _Myend   = nullptr;

  00066	c7 46 08 00 00
	00 00		 mov	 DWORD PTR [esi+8], 0
  0006d	5f		 pop	 edi
$LN4@vector:
  0006e	5e		 pop	 esi

; 717  :     }

  0006f	c3		 ret	 0
$LN19@vector:
; File C:\Program Files (x86)\Microsoft Visual Studio\2019\Professional\VC\Tools\MSVC\14.29.30133\include\xmemory

; 172  :     _STL_VERIFY(_Back_shift >= _Min_back_shift && _Back_shift <= _Non_user_size, "invalid argument");

  00070	e8 00 00 00 00	 call	 __invalid_parameter_noinfo_noreturn
$LN27@vector:
  00075	cc		 int	 3
??1?$vector@UTMapInfo@CMapManager@@V?$allocator@UTMapInfo@CMapManager@@@std@@@std@@QAE@XZ ENDP ; std::vector<CMapManager::TMapInfo,std::allocator<CMapManager::TMapInfo> >::~vector<CMapManager::TMapInfo,std::allocator<CMapManager::TMapInfo> >
_TEXT	ENDS
; Function compile flags: /Ogtp
; File C:\Program Files (x86)\Microsoft Visual Studio\2019\Professional\VC\Tools\MSVC\14.29.30133\include\xmemory
;	COMDAT ?deallocate@?$allocator@UTMapInfo@CMapManager@@@std@@QAEXQAUTMapInfo@CMapManager@@I@Z
_TEXT	SEGMENT
__Ptr$ = 8						; size = 4
__Count$ = 12						; size = 4
?deallocate@?$allocator@UTMapInfo@CMapManager@@@std@@QAEXQAUTMapInfo@CMapManager@@I@Z PROC ; std::allocator<CMapManager::TMapInfo>::deallocate, COMDAT
; _this$ = ecx

; 833  :     _CONSTEXPR20_DYNALLOC void deallocate(_Ty* const _Ptr, const size_t _Count) {

  00000	55		 push	 ebp
  00001	8b ec		 mov	 ebp, esp

; 834  :         // no overflow check on the following multiply; we assume _Allocate did that check
; 835  :         _Deallocate<_New_alignof<_Ty>>(_Ptr, sizeof(_Ty) * _Count);

  00003	8b 45 0c	 mov	 eax, DWORD PTR __Count$[ebp]
  00006	8d 0c 40	 lea	 ecx, DWORD PTR [eax+eax*2]
  00009	8b 45 08	 mov	 eax, DWORD PTR __Ptr$[ebp]
  0000c	c1 e1 04	 shl	 ecx, 4

; 260  :         if (_Bytes >= _Big_allocation_threshold) { // boost the alignment of big allocations to help autovectorization

  0000f	81 f9 00 10 00
	00		 cmp	 ecx, 4096		; 00001000H
  00015	72 12		 jb	 SHORT $LN15@deallocate

; 158  :     const uintptr_t _Ptr_container   = _Ptr_user[-1];

  00017	8b 50 fc	 mov	 edx, DWORD PTR [eax-4]
  0001a	83 c1 23	 add	 ecx, 35			; 00000023H

; 159  : 
; 160  :     // If the following asserts, it likely means that we are performing
; 161  :     // an aligned delete on memory coming from an unaligned allocation.
; 162  :     _STL_ASSERT(_Ptr_user[-2] == _Big_allocation_sentinel, "invalid argument");
; 163  : 
; 164  :     // Extra paranoia on aligned allocation/deallocation; ensure _Ptr_container is
; 165  :     // in range [_Min_back_shift, _Non_user_size]
; 166  : #ifdef _DEBUG
; 167  :     constexpr uintptr_t _Min_back_shift = 2 * sizeof(void*);
; 168  : #else // ^^^ _DEBUG ^^^ // vvv !_DEBUG vvv
; 169  :     constexpr uintptr_t _Min_back_shift = sizeof(void*);
; 170  : #endif // _DEBUG
; 171  :     const uintptr_t _Back_shift = reinterpret_cast<uintptr_t>(_Ptr) - _Ptr_container;

  0001d	2b c2		 sub	 eax, edx

; 172  :     _STL_VERIFY(_Back_shift >= _Min_back_shift && _Back_shift <= _Non_user_size, "invalid argument");

  0001f	83 c0 fc	 add	 eax, -4			; fffffffcH
  00022	83 f8 1f	 cmp	 eax, 31			; 0000001fH
  00025	77 10		 ja	 SHORT $LN12@deallocate

; 173  :     _Ptr = reinterpret_cast<void*>(_Ptr_container);

  00027	8b c2		 mov	 eax, edx
$LN15@deallocate:

; 264  :         ::operator delete(_Ptr, _Bytes);

  00029	51		 push	 ecx
  0002a	50		 push	 eax
  0002b	e8 00 00 00 00	 call	 ??3@YAXPAXI@Z		; operator delete
  00030	83 c4 08	 add	 esp, 8

; 836  :     }

  00033	5d		 pop	 ebp
  00034	c2 08 00	 ret	 8
$LN12@deallocate:

; 172  :     _STL_VERIFY(_Back_shift >= _Min_back_shift && _Back_shift <= _Non_user_size, "invalid argument");

  00037	e8 00 00 00 00	 call	 __invalid_parameter_noinfo_noreturn
$LN18@deallocate:
  0003c	cc		 int	 3
?deallocate@?$allocator@UTMapInfo@CMapManager@@@std@@QAEXQAUTMapInfo@CMapManager@@I@Z ENDP ; std::allocator<CMapManager::TMapInfo>::deallocate
_TEXT	ENDS
; Function compile flags: /Ogtp
; File C:\Program Files (x86)\Microsoft Visual Studio\2019\Professional\VC\Tools\MSVC\14.29.30133\include\xstring
; File C:\Program Files (x86)\Microsoft Visual Studio\2019\Professional\VC\Tools\MSVC\14.29.30133\include\xmemory
; File C:\Program Files (x86)\Microsoft Visual Studio\2019\Professional\VC\Tools\MSVC\14.29.30133\include\xstring
; File C:\Program Files (x86)\Microsoft Visual Studio\2019\Professional\VC\Tools\MSVC\14.29.30133\include\xmemory
; File C:\Program Files (x86)\Microsoft Visual Studio\2019\Professional\VC\Tools\MSVC\14.29.30133\include\xstring
; File C:\Program Files (x86)\Microsoft Visual Studio\2019\Professional\VC\Tools\MSVC\14.29.30133\include\xmemory
;	COMDAT ??1TMapInfo@CMapManager@@QAE@XZ
_TEXT	SEGMENT
??1TMapInfo@CMapManager@@QAE@XZ PROC			; CMapManager::TMapInfo::~TMapInfo, COMDAT
; _this$ = ecx
; File C:\Program Files (x86)\Microsoft Visual Studio\2019\Professional\VC\Tools\MSVC\14.29.30133\include\xstring

; 2319 :         return _BUF_SIZE <= _Myres;

  00000	56		 push	 esi
  00001	8b f1		 mov	 esi, ecx
  00003	8b 4e 14	 mov	 ecx, DWORD PTR [esi+20]
  00006	83 f9 10	 cmp	 ecx, 16			; 00000010H

; 4618 :         if (_Mypair._Myval2._Large_string_engaged()) {

  00009	72 27		 jb	 SHORT $LN15@TMapInfo
; File C:\Program Files (x86)\Microsoft Visual Studio\2019\Professional\VC\Tools\MSVC\14.29.30133\include\xmemory

; 835  :         _Deallocate<_New_alignof<_Ty>>(_Ptr, sizeof(_Ty) * _Count);

  0000b	8b 06		 mov	 eax, DWORD PTR [esi]
; File C:\Program Files (x86)\Microsoft Visual Studio\2019\Professional\VC\Tools\MSVC\14.29.30133\include\xstring

; 4622 :             _Al.deallocate(_Ptr, _Mypair._Myval2._Myres + 1);

  0000d	41		 inc	 ecx
; File C:\Program Files (x86)\Microsoft Visual Studio\2019\Professional\VC\Tools\MSVC\14.29.30133\include\xmemory

; 260  :         if (_Bytes >= _Big_allocation_threshold) { // boost the alignment of big allocations to help autovectorization

  0000e	81 f9 00 10 00
	00		 cmp	 ecx, 4096		; 00001000H
  00014	72 12		 jb	 SHORT $LN25@TMapInfo

; 158  :     const uintptr_t _Ptr_container   = _Ptr_user[-1];

  00016	8b 50 fc	 mov	 edx, DWORD PTR [eax-4]
  00019	83 c1 23	 add	 ecx, 35			; 00000023H

; 159  : 
; 160  :     // If the following asserts, it likely means that we are performing
; 161  :     // an aligned delete on memory coming from an unaligned allocation.
; 162  :     _STL_ASSERT(_Ptr_user[-2] == _Big_allocation_sentinel, "invalid argument");
; 163  : 
; 164  :     // Extra paranoia on aligned allocation/deallocation; ensure _Ptr_container is
; 165  :     // in range [_Min_back_shift, _Non_user_size]
; 166  : #ifdef _DEBUG
; 167  :     constexpr uintptr_t _Min_back_shift = 2 * sizeof(void*);
; 168  : #else // ^^^ _DEBUG ^^^ // vvv !_DEBUG vvv
; 169  :     constexpr uintptr_t _Min_back_shift = sizeof(void*);
; 170  : #endif // _DEBUG
; 171  :     const uintptr_t _Back_shift = reinterpret_cast<uintptr_t>(_Ptr) - _Ptr_container;

  0001c	2b c2		 sub	 eax, edx

; 172  :     _STL_VERIFY(_Back_shift >= _Min_back_shift && _Back_shift <= _Non_user_size, "invalid argument");

  0001e	83 c0 fc	 add	 eax, -4			; fffffffcH
  00021	83 f8 1f	 cmp	 eax, 31			; 0000001fH
  00024	77 1f		 ja	 SHORT $LN22@TMapInfo

; 173  :     _Ptr = reinterpret_cast<void*>(_Ptr_container);

  00026	8b c2		 mov	 eax, edx
$LN25@TMapInfo:

; 264  :         ::operator delete(_Ptr, _Bytes);

  00028	51		 push	 ecx
  00029	50		 push	 eax
  0002a	e8 00 00 00 00	 call	 ??3@YAXPAXI@Z		; operator delete
  0002f	83 c4 08	 add	 esp, 8
$LN15@TMapInfo:
; File C:\Program Files (x86)\Microsoft Visual Studio\2019\Professional\VC\Tools\MSVC\14.29.30133\include\xstring

; 4633 :             _Mypair._Myval2._Mysize = 0;

  00032	c7 46 10 00 00
	00 00		 mov	 DWORD PTR [esi+16], 0

; 4634 :             _Mypair._Myval2._Myres  = _BUF_SIZE - 1;

  00039	c7 46 14 0f 00
	00 00		 mov	 DWORD PTR [esi+20], 15	; 0000000fH

; 4635 :             // the _Traits::assign is last so the codegen doesn't think the char write can alias this
; 4636 :             _Traits::assign(_Mypair._Myval2._Bx._Buf[0], _Elem());

  00040	c6 06 00	 mov	 BYTE PTR [esi], 0
  00043	5e		 pop	 esi
  00044	c3		 ret	 0
$LN22@TMapInfo:
; File C:\Program Files (x86)\Microsoft Visual Studio\2019\Professional\VC\Tools\MSVC\14.29.30133\include\xmemory

; 172  :     _STL_VERIFY(_Back_shift >= _Min_back_shift && _Back_shift <= _Non_user_size, "invalid argument");

  00045	e8 00 00 00 00	 call	 __invalid_parameter_noinfo_noreturn
$LN31@TMapInfo:
  0004a	cc		 int	 3
??1TMapInfo@CMapManager@@QAE@XZ ENDP			; CMapManager::TMapInfo::~TMapInfo
_TEXT	ENDS
; Function compile flags: /Ogtp
; File C:\Users\murat\Desktop\Siveps2-1-99-Project\source\client\Client\GameLib\MapManager.cpp
;	COMDAT ?SetTransparentTree@CMapManager@@QAEX_N@Z
_TEXT	SEGMENT
_bTransparenTree$ = 8					; size = 1
?SetTransparentTree@CMapManager@@QAEX_N@Z PROC		; CMapManager::SetTransparentTree, COMDAT
; _this$ = ecx

; 570  : {

  00000	55		 push	 ebp
  00001	8b ec		 mov	 ebp, esp
  00003	56		 push	 esi
  00004	8b f1		 mov	 esi, ecx

; 571  : 	if (!IsMapReady())

  00006	e8 00 00 00 00	 call	 ?IsMapReady@CMapManager@@QAE_NXZ ; CMapManager::IsMapReady
  0000b	84 c0		 test	 al, al
  0000d	74 10		 je	 SHORT $LN1@SetTranspa

; 572  : 		return;
; 573  : 
; 574  : 	CMapOutdoor& rkMap=GetMapOutdoorRef();

  0000f	8b ce		 mov	 ecx, esi
  00011	e8 00 00 00 00	 call	 ?GetMapOutdoorRef@CMapManager@@QAEAAVCMapOutdoor@@XZ ; CMapManager::GetMapOutdoorRef

; 575  : 	rkMap.SetTransparentTree(bTransparenTree);

  00016	8a 4d 08	 mov	 cl, BYTE PTR _bTransparenTree$[ebp]
  00019	88 88 b5 0e 00
	00		 mov	 BYTE PTR [eax+3765], cl
$LN1@SetTranspa:
  0001f	5e		 pop	 esi

; 576  : }

  00020	5d		 pop	 ebp
  00021	c2 04 00	 ret	 4
?SetTransparentTree@CMapManager@@QAEX_N@Z ENDP		; CMapManager::SetTransparentTree
_TEXT	ENDS
; Function compile flags: /Ogtp
; File C:\Users\murat\Desktop\Siveps2-1-99-Project\source\client\Client\GameLib\MapManager.cpp
;	COMDAT ?GetBaseXY@CMapManager@@QAEXPAK0@Z
_TEXT	SEGMENT
_pdwBaseX$ = 8						; size = 4
_pdwBaseY$ = 12						; size = 4
?GetBaseXY@CMapManager@@QAEXPAK0@Z PROC			; CMapManager::GetBaseXY, COMDAT
; _this$ = ecx

; 588  : {

  00000	55		 push	 ebp
  00001	8b ec		 mov	 ebp, esp
  00003	53		 push	 ebx
  00004	56		 push	 esi
  00005	57		 push	 edi
  00006	8b d9		 mov	 ebx, ecx

; 589  : 	if (!IsMapReady())

  00008	e8 00 00 00 00	 call	 ?IsMapReady@CMapManager@@QAE_NXZ ; CMapManager::IsMapReady
  0000d	8b 75 0c	 mov	 esi, DWORD PTR _pdwBaseY$[ebp]
  00010	8b 7d 08	 mov	 edi, DWORD PTR _pdwBaseX$[ebp]
  00013	84 c0		 test	 al, al
  00015	75 0c		 jne	 SHORT $LN2@GetBaseXY

; 590  : 	{
; 591  : 		*pdwBaseX = 0;

  00017	c7 07 00 00 00
	00		 mov	 DWORD PTR [edi], 0

; 592  : 		*pdwBaseY = 0;

  0001d	c7 06 00 00 00
	00		 mov	 DWORD PTR [esi], 0
$LN2@GetBaseXY:

; 593  : 	}
; 594  : 
; 595  : 	CMapOutdoor& rkMap=GetMapOutdoorRef();

  00023	8b cb		 mov	 ecx, ebx
  00025	e8 00 00 00 00	 call	 ?GetMapOutdoorRef@CMapManager@@QAEAAVCMapOutdoor@@XZ ; CMapManager::GetMapOutdoorRef

; 596  : 	rkMap.GetBaseXY(pdwBaseX, pdwBaseY);

  0002a	56		 push	 esi
  0002b	57		 push	 edi
  0002c	8b c8		 mov	 ecx, eax
  0002e	e8 00 00 00 00	 call	 ?GetBaseXY@CMapOutdoor@@QAEXPAK0@Z ; CMapOutdoor::GetBaseXY
  00033	5f		 pop	 edi
  00034	5e		 pop	 esi
  00035	5b		 pop	 ebx

; 597  : }

  00036	5d		 pop	 ebp
  00037	c2 08 00	 ret	 8
?GetBaseXY@CMapManager@@QAEXPAK0@Z ENDP			; CMapManager::GetBaseXY
_TEXT	ENDS
; Function compile flags: /Ogtp
; File C:\Users\murat\Desktop\Siveps2-1-99-Project\source\client\Client\GameLib\MapManager.cpp
;	COMDAT ?GetTerrainRenderSort@CMapManager@@QAE?AW4ETerrainRenderSort@CMapOutdoor@@XZ
_TEXT	SEGMENT
?GetTerrainRenderSort@CMapManager@@QAE?AW4ETerrainRenderSort@CMapOutdoor@@XZ PROC ; CMapManager::GetTerrainRenderSort, COMDAT
; _this$ = ecx

; 579  : {

  00000	56		 push	 esi
  00001	8b f1		 mov	 esi, ecx

; 580  : 	if (!IsMapReady())

  00003	e8 00 00 00 00	 call	 ?IsMapReady@CMapManager@@QAE_NXZ ; CMapManager::IsMapReady
  00008	84 c0		 test	 al, al
  0000a	75 04		 jne	 SHORT $LN2@GetTerrain

; 581  : 		return CMapOutdoor::DISTANCE_SORT;

  0000c	33 c0		 xor	 eax, eax
  0000e	5e		 pop	 esi

; 585  : }

  0000f	c3		 ret	 0
$LN2@GetTerrain:

; 582  : 
; 583  : 	CMapOutdoor& rkMap=GetMapOutdoorRef();

  00010	8b ce		 mov	 ecx, esi
  00012	e8 00 00 00 00	 call	 ?GetMapOutdoorRef@CMapManager@@QAEAAVCMapOutdoor@@XZ ; CMapManager::GetMapOutdoorRef
  00017	5e		 pop	 esi

; 584  : 	return rkMap.GetTerrainRenderSort();

  00018	8b 80 e8 0d 00
	00		 mov	 eax, DWORD PTR [eax+3560]

; 585  : }

  0001e	c3		 ret	 0
?GetTerrainRenderSort@CMapManager@@QAE?AW4ETerrainRenderSort@CMapOutdoor@@XZ ENDP ; CMapManager::GetTerrainRenderSort
_TEXT	ENDS
; Function compile flags: /Ogtp
; File C:\Users\murat\Desktop\Siveps2-1-99-Project\source\client\Client\GameLib\MapManager.cpp
;	COMDAT ?SetTerrainRenderSort@CMapManager@@QAEXW4ETerrainRenderSort@CMapOutdoor@@@Z
_TEXT	SEGMENT
_eTerrainRenderSort$ = 8				; size = 4
?SetTerrainRenderSort@CMapManager@@QAEXW4ETerrainRenderSort@CMapOutdoor@@@Z PROC ; CMapManager::SetTerrainRenderSort, COMDAT
; _this$ = ecx

; 561  : {

  00000	55		 push	 ebp
  00001	8b ec		 mov	 ebp, esp
  00003	56		 push	 esi
  00004	8b f1		 mov	 esi, ecx

; 562  : 	if (!IsMapReady())

  00006	e8 00 00 00 00	 call	 ?IsMapReady@CMapManager@@QAE_NXZ ; CMapManager::IsMapReady
  0000b	84 c0		 test	 al, al
  0000d	74 10		 je	 SHORT $LN1@SetTerrain

; 563  : 		return;
; 564  : 
; 565  : 	CMapOutdoor& rkMap=GetMapOutdoorRef();

  0000f	8b ce		 mov	 ecx, esi
  00011	e8 00 00 00 00	 call	 ?GetMapOutdoorRef@CMapManager@@QAEAAVCMapOutdoor@@XZ ; CMapManager::GetMapOutdoorRef

; 566  : 	rkMap.SetTerrainRenderSort(eTerrainRenderSort);

  00016	8b 4d 08	 mov	 ecx, DWORD PTR _eTerrainRenderSort$[ebp]
  00019	89 88 e8 0d 00
	00		 mov	 DWORD PTR [eax+3560], ecx
$LN1@SetTerrain:
  0001f	5e		 pop	 esi

; 567  : }

  00020	5d		 pop	 ebp
  00021	c2 04 00	 ret	 4
?SetTerrainRenderSort@CMapManager@@QAEXW4ETerrainRenderSort@CMapOutdoor@@@Z ENDP ; CMapManager::SetTerrainRenderSort
_TEXT	ENDS
; Function compile flags: /Ogtp
;	COMDAT ??1?$map@KPAUSEnvironmentData@@U?$less@K@std@@V?$allocator@U?$pair@$$CBKPAUSEnvironmentData@@@std@@@3@@std@@QAE@XZ
_TEXT	SEGMENT
??1?$map@KPAUSEnvironmentData@@U?$less@K@std@@V?$allocator@U?$pair@$$CBKPAUSEnvironmentData@@@std@@@3@@std@@QAE@XZ PROC ; std::map<unsigned long,SEnvironmentData *,std::less<unsigned long>,std::allocator<std::pair<unsigned long const ,SEnvironmentData *> > >::~map<unsigned long,SEnvironmentData *,std::less<unsigned long>,std::allocator<std::pair<unsigned long const ,SEnvironmentData *> > >, COMDAT
; _this$ = ecx
  00000	e9 00 00 00 00	 jmp	 ??1?$_Tree@V?$_Tmap_traits@KPAUSEnvironmentData@@U?$less@K@std@@V?$allocator@U?$pair@$$CBKPAUSEnvironmentData@@@std@@@3@$0A@@std@@@std@@QAE@XZ ; std::_Tree<std::_Tmap_traits<unsigned long,SEnvironmentData *,std::less<unsigned long>,std::allocator<std::pair<unsigned long const ,SEnvironmentData *> >,0> >::~_Tree<std::_Tmap_traits<unsigned long,SEnvironmentData *,std::less<unsigned long>,std::allocator<std::pair<unsigned long const ,SEnvironmentData *> >,0> >
??1?$map@KPAUSEnvironmentData@@U?$less@K@std@@V?$allocator@U?$pair@$$CBKPAUSEnvironmentData@@@std@@@3@@std@@QAE@XZ ENDP ; std::map<unsigned long,SEnvironmentData *,std::less<unsigned long>,std::allocator<std::pair<unsigned long const ,SEnvironmentData *> > >::~map<unsigned long,SEnvironmentData *,std::less<unsigned long>,std::allocator<std::pair<unsigned long const ,SEnvironmentData *> > >
_TEXT	ENDS
; Function compile flags: /Ogtp
; File C:\Program Files (x86)\Microsoft Visual Studio\2019\Professional\VC\Tools\MSVC\14.29.30133\include\xtree
;	COMDAT ?_Insert_node@?$_Tree_val@U?$_Tree_simple_types@U?$pair@$$CBKPAUSEnvironmentData@@@std@@@std@@@std@@QAEPAU?$_Tree_node@U?$pair@$$CBKPAUSEnvironmentData@@@std@@PAX@2@U?$_Tree_id@PAU?$_Tree_node@U?$pair@$$CBKPAUSEnvironmentData@@@std@@PAX@std@@@2@QAU32@@Z
_TEXT	SEGMENT
__Head$1$ = -8						; size = 4
_this$1$ = -4						; size = 4
__Loc$ = 8						; size = 8
__Newnode$ = 16						; size = 4
?_Insert_node@?$_Tree_val@U?$_Tree_simple_types@U?$pair@$$CBKPAUSEnvironmentData@@@std@@@std@@@std@@QAEPAU?$_Tree_node@U?$pair@$$CBKPAUSEnvironmentData@@@std@@PAX@2@U?$_Tree_id@PAU?$_Tree_node@U?$pair@$$CBKPAUSEnvironmentData@@@std@@PAX@std@@@2@QAU32@@Z PROC ; std::_Tree_val<std::_Tree_simple_types<std::pair<unsigned long const ,SEnvironmentData *> > >::_Insert_node, COMDAT
; _this$ = ecx

; 650  :     _Nodeptr _Insert_node(const _Tree_id<_Nodeptr> _Loc, const _Nodeptr _Newnode) noexcept {

  00000	55		 push	 ebp
  00001	8b ec		 mov	 ebp, esp
  00003	83 ec 08	 sub	 esp, 8

; 651  :         ++_Mysize;
; 652  :         const auto _Head  = _Myhead;
; 653  :         _Newnode->_Parent = _Loc._Parent;

  00006	8b 55 08	 mov	 edx, DWORD PTR __Loc$[ebp]
  00009	8b c1		 mov	 eax, ecx
  0000b	89 45 fc	 mov	 DWORD PTR _this$1$[ebp], eax
  0000e	8b 08		 mov	 ecx, DWORD PTR [eax]
  00010	ff 40 04	 inc	 DWORD PTR [eax+4]
  00013	8b 45 10	 mov	 eax, DWORD PTR __Newnode$[ebp]
  00016	89 4d f8	 mov	 DWORD PTR __Head$1$[ebp], ecx
  00019	89 50 04	 mov	 DWORD PTR [eax+4], edx

; 654  :         if (_Loc._Parent == _Head) { // first node in tree, just set head values

  0001c	3b d1		 cmp	 edx, ecx
  0001e	75 12		 jne	 SHORT $LN5@Insert_nod

; 655  :             _Head->_Left     = _Newnode;

  00020	89 01		 mov	 DWORD PTR [ecx], eax

; 656  :             _Head->_Parent   = _Newnode;

  00022	89 41 04	 mov	 DWORD PTR [ecx+4], eax

; 657  :             _Head->_Right    = _Newnode;

  00025	89 41 08	 mov	 DWORD PTR [ecx+8], eax

; 658  :             _Newnode->_Color = _Black; // the root is black

  00028	c6 40 0c 01	 mov	 BYTE PTR [eax+12], 1

; 717  :     }

  0002c	8b e5		 mov	 esp, ebp
  0002e	5d		 pop	 ebp
  0002f	c2 0c 00	 ret	 12			; 0000000cH
$LN5@Insert_nod:

; 659  :             return _Newnode;
; 660  :         }
; 661  : 
; 662  :         _STL_INTERNAL_CHECK(_Loc._Child != _Tree_child::_Unused);
; 663  :         if (_Loc._Child == _Tree_child::_Right) { // add to right of _Loc._Parent

  00032	83 7d 0c 00	 cmp	 DWORD PTR __Loc$[ebp+4], 0
  00036	75 0d		 jne	 SHORT $LN6@Insert_nod

; 664  :             _STL_INTERNAL_CHECK(_Loc._Parent->_Right->_Isnil);
; 665  :             _Loc._Parent->_Right = _Newnode;

  00038	89 42 08	 mov	 DWORD PTR [edx+8], eax

; 666  :             if (_Loc._Parent == _Head->_Right) { // remember rightmost node

  0003b	3b 51 08	 cmp	 edx, DWORD PTR [ecx+8]
  0003e	75 0d		 jne	 SHORT $LN9@Insert_nod

; 667  :                 _Head->_Right = _Newnode;

  00040	89 41 08	 mov	 DWORD PTR [ecx+8], eax

; 668  :             }
; 669  :         } else { // add to left of _Loc._Parent

  00043	eb 08		 jmp	 SHORT $LN9@Insert_nod
$LN6@Insert_nod:

; 670  :             _STL_INTERNAL_CHECK(_Loc._Parent->_Left->_Isnil);
; 671  :             _Loc._Parent->_Left = _Newnode;

  00045	89 02		 mov	 DWORD PTR [edx], eax

; 672  :             if (_Loc._Parent == _Head->_Left) { // remember leftmost node

  00047	3b 11		 cmp	 edx, DWORD PTR [ecx]
  00049	75 02		 jne	 SHORT $LN9@Insert_nod

; 673  :                 _Head->_Left = _Newnode;

  0004b	89 01		 mov	 DWORD PTR [ecx], eax
$LN9@Insert_nod:

; 674  :             }
; 675  :         }
; 676  : 
; 677  :         for (_Nodeptr _Pnode = _Newnode; _Pnode->_Parent->_Color == _Red;) {

  0004d	8b d0		 mov	 edx, eax
  0004f	8b 40 04	 mov	 eax, DWORD PTR [eax+4]
  00052	80 78 0c 00	 cmp	 BYTE PTR [eax+12], 0
  00056	0f 85 99 01 00
	00		 jne	 $LN3@Insert_nod
  0005c	53		 push	 ebx
  0005d	56		 push	 esi
  0005e	57		 push	 edi
  0005f	90		 npad	 1
$LL2@Insert_nod:

; 678  :             if (_Pnode->_Parent == _Pnode->_Parent->_Parent->_Left) { // fixup red-red in left subtree

  00060	8b 4a 04	 mov	 ecx, DWORD PTR [edx+4]
  00063	8d 7a 04	 lea	 edi, DWORD PTR [edx+4]
  00066	8b 71 04	 mov	 esi, DWORD PTR [ecx+4]
  00069	8d 59 04	 lea	 ebx, DWORD PTR [ecx+4]
  0006c	8b 06		 mov	 eax, DWORD PTR [esi]
  0006e	3b c8		 cmp	 ecx, eax
  00070	0f 85 ba 00 00
	00		 jne	 $LN10@Insert_nod

; 679  :                 const auto _Parent_sibling = _Pnode->_Parent->_Parent->_Right;

  00076	8b 46 08	 mov	 eax, DWORD PTR [esi+8]

; 680  :                 if (_Parent_sibling->_Color == _Red) { // parent's sibling has two red children, blacken both

  00079	80 78 0c 00	 cmp	 BYTE PTR [eax+12], 0
  0007d	0f 84 b3 00 00
	00		 je	 $LN53@Insert_nod

; 681  :                     _Pnode->_Parent->_Color          = _Black;
; 682  :                     _Parent_sibling->_Color          = _Black;
; 683  :                     _Pnode->_Parent->_Parent->_Color = _Red;
; 684  :                     _Pnode                           = _Pnode->_Parent->_Parent;
; 685  :                 } else { // parent's sibling has red and black children
; 686  :                     if (_Pnode == _Pnode->_Parent->_Right) { // rotate right child to left

  00083	8b 71 08	 mov	 esi, DWORD PTR [ecx+8]
  00086	3b d6		 cmp	 edx, esi
  00088	75 47		 jne	 SHORT $LN51@Insert_nod

; 466  :         _Wherenode->_Right = _Pnode->_Left;

  0008a	8b 06		 mov	 eax, DWORD PTR [esi]

; 687  :                         _Pnode = _Pnode->_Parent;

  0008c	8b d1		 mov	 edx, ecx

; 466  :         _Wherenode->_Right = _Pnode->_Left;

  0008e	89 42 08	 mov	 DWORD PTR [edx+8], eax

; 467  : 
; 468  :         if (!_Pnode->_Left->_Isnil) {

  00091	8b 06		 mov	 eax, DWORD PTR [esi]
  00093	80 78 0d 00	 cmp	 BYTE PTR [eax+13], 0
  00097	75 03		 jne	 SHORT $LN20@Insert_nod

; 469  :             _Pnode->_Left->_Parent = _Wherenode;

  00099	89 50 04	 mov	 DWORD PTR [eax+4], edx
$LN20@Insert_nod:

; 470  :         }
; 471  : 
; 472  :         _Pnode->_Parent = _Wherenode->_Parent;

  0009c	8b 03		 mov	 eax, DWORD PTR [ebx]
  0009e	89 46 04	 mov	 DWORD PTR [esi+4], eax

; 473  : 
; 474  :         if (_Wherenode == _Myhead->_Parent) {

  000a1	8b 45 fc	 mov	 eax, DWORD PTR _this$1$[ebp]
  000a4	8b 00		 mov	 eax, DWORD PTR [eax]
  000a6	3b 50 04	 cmp	 edx, DWORD PTR [eax+4]
  000a9	75 0b		 jne	 SHORT $LN21@Insert_nod

; 475  :             _Myhead->_Parent = _Pnode;

  000ab	89 70 04	 mov	 DWORD PTR [eax+4], esi

; 483  :         _Wherenode->_Parent = _Pnode;

  000ae	8b fb		 mov	 edi, ebx
  000b0	89 16		 mov	 DWORD PTR [esi], edx
  000b2	89 33		 mov	 DWORD PTR [ebx], esi
  000b4	eb 1d		 jmp	 SHORT $LN49@Insert_nod
$LN21@Insert_nod:

; 476  :         } else if (_Wherenode == _Wherenode->_Parent->_Left) {

  000b6	8b 03		 mov	 eax, DWORD PTR [ebx]
  000b8	3b 10		 cmp	 edx, DWORD PTR [eax]
  000ba	75 0a		 jne	 SHORT $LN23@Insert_nod

; 477  :             _Wherenode->_Parent->_Left = _Pnode;

  000bc	89 30		 mov	 DWORD PTR [eax], esi

; 483  :         _Wherenode->_Parent = _Pnode;

  000be	8b fb		 mov	 edi, ebx
  000c0	89 16		 mov	 DWORD PTR [esi], edx
  000c2	89 33		 mov	 DWORD PTR [ebx], esi
  000c4	eb 0d		 jmp	 SHORT $LN49@Insert_nod
$LN23@Insert_nod:

; 479  :             _Wherenode->_Parent->_Right = _Pnode;

  000c6	89 70 08	 mov	 DWORD PTR [eax+8], esi

; 483  :         _Wherenode->_Parent = _Pnode;

  000c9	8b fb		 mov	 edi, ebx
  000cb	89 16		 mov	 DWORD PTR [esi], edx
  000cd	89 33		 mov	 DWORD PTR [ebx], esi
  000cf	eb 02		 jmp	 SHORT $LN49@Insert_nod
$LN51@Insert_nod:
  000d1	8b f1		 mov	 esi, ecx
$LN49@Insert_nod:

; 688  :                         _Lrotate(_Pnode);
; 689  :                     }
; 690  : 
; 691  :                     _Pnode->_Parent->_Color          = _Black; // propagate red up

  000d3	c6 46 0c 01	 mov	 BYTE PTR [esi+12], 1

; 692  :                     _Pnode->_Parent->_Parent->_Color = _Red;

  000d7	8b 07		 mov	 eax, DWORD PTR [edi]
  000d9	8b 40 04	 mov	 eax, DWORD PTR [eax+4]
  000dc	c6 40 0c 00	 mov	 BYTE PTR [eax+12], 0

; 693  :                     _Rrotate(_Pnode->_Parent->_Parent);

  000e0	8b 07		 mov	 eax, DWORD PTR [edi]
  000e2	8b 48 04	 mov	 ecx, DWORD PTR [eax+4]

; 487  :         _Nodeptr _Pnode   = _Wherenode->_Left;

  000e5	8b 31		 mov	 esi, DWORD PTR [ecx]

; 488  :         _Wherenode->_Left = _Pnode->_Right;

  000e7	8b 46 08	 mov	 eax, DWORD PTR [esi+8]
  000ea	89 01		 mov	 DWORD PTR [ecx], eax

; 489  : 
; 490  :         if (!_Pnode->_Right->_Isnil) {

  000ec	8b 46 08	 mov	 eax, DWORD PTR [esi+8]
  000ef	80 78 0d 00	 cmp	 BYTE PTR [eax+13], 0
  000f3	75 03		 jne	 SHORT $LN27@Insert_nod

; 491  :             _Pnode->_Right->_Parent = _Wherenode;

  000f5	89 48 04	 mov	 DWORD PTR [eax+4], ecx
$LN27@Insert_nod:

; 492  :         }
; 493  : 
; 494  :         _Pnode->_Parent = _Wherenode->_Parent;

  000f8	8b 41 04	 mov	 eax, DWORD PTR [ecx+4]
  000fb	89 46 04	 mov	 DWORD PTR [esi+4], eax

; 495  : 
; 496  :         if (_Wherenode == _Myhead->_Parent) {

  000fe	8b 45 fc	 mov	 eax, DWORD PTR _this$1$[ebp]
  00101	8b 00		 mov	 eax, DWORD PTR [eax]
  00103	3b 48 04	 cmp	 ecx, DWORD PTR [eax+4]
  00106	75 0b		 jne	 SHORT $LN28@Insert_nod

; 497  :             _Myhead->_Parent = _Pnode;

  00108	89 70 04	 mov	 DWORD PTR [eax+4], esi

; 502  :         }
; 503  : 
; 504  :         _Pnode->_Right      = _Wherenode;

  0010b	89 4e 08	 mov	 DWORD PTR [esi+8], ecx

; 694  :                 }
; 695  :             } else { // fixup red-red in right subtree

  0010e	e9 cc 00 00 00	 jmp	 $LN52@Insert_nod
$LN28@Insert_nod:

; 498  :         } else if (_Wherenode == _Wherenode->_Parent->_Right) {

  00113	8b 41 04	 mov	 eax, DWORD PTR [ecx+4]
  00116	3b 48 08	 cmp	 ecx, DWORD PTR [eax+8]
  00119	75 0b		 jne	 SHORT $LN30@Insert_nod

; 499  :             _Wherenode->_Parent->_Right = _Pnode;

  0011b	89 70 08	 mov	 DWORD PTR [eax+8], esi

; 502  :         }
; 503  : 
; 504  :         _Pnode->_Right      = _Wherenode;

  0011e	89 4e 08	 mov	 DWORD PTR [esi+8], ecx

; 694  :                 }
; 695  :             } else { // fixup red-red in right subtree

  00121	e9 b9 00 00 00	 jmp	 $LN52@Insert_nod
$LN30@Insert_nod:

; 501  :             _Wherenode->_Parent->_Left = _Pnode;

  00126	89 30		 mov	 DWORD PTR [eax], esi

; 502  :         }
; 503  : 
; 504  :         _Pnode->_Right      = _Wherenode;

  00128	89 4e 08	 mov	 DWORD PTR [esi+8], ecx

; 694  :                 }
; 695  :             } else { // fixup red-red in right subtree

  0012b	e9 af 00 00 00	 jmp	 $LN52@Insert_nod
$LN10@Insert_nod:

; 696  :                 const auto _Parent_sibling = _Pnode->_Parent->_Parent->_Left;
; 697  :                 if (_Parent_sibling->_Color == _Red) { // parent's sibling has two red children, blacken both

  00130	80 78 0c 00	 cmp	 BYTE PTR [eax+12], 0
  00134	75 1b		 jne	 SHORT $LN15@Insert_nod
$LN53@Insert_nod:

; 674  :             }
; 675  :         }
; 676  : 
; 677  :         for (_Nodeptr _Pnode = _Newnode; _Pnode->_Parent->_Color == _Red;) {

  00136	c6 41 0c 01	 mov	 BYTE PTR [ecx+12], 1
  0013a	c6 40 0c 01	 mov	 BYTE PTR [eax+12], 1
  0013e	8b 07		 mov	 eax, DWORD PTR [edi]
  00140	8b 40 04	 mov	 eax, DWORD PTR [eax+4]
  00143	c6 40 0c 00	 mov	 BYTE PTR [eax+12], 0
  00147	8b 07		 mov	 eax, DWORD PTR [edi]
  00149	8b 50 04	 mov	 edx, DWORD PTR [eax+4]
  0014c	e9 91 00 00 00	 jmp	 $LN46@Insert_nod
$LN15@Insert_nod:

; 698  :                     _Pnode->_Parent->_Color          = _Black;
; 699  :                     _Parent_sibling->_Color          = _Black;
; 700  :                     _Pnode->_Parent->_Parent->_Color = _Red;
; 701  :                     _Pnode                           = _Pnode->_Parent->_Parent;
; 702  :                 } else { // parent's sibling has red and black children
; 703  :                     if (_Pnode == _Pnode->_Parent->_Left) { // rotate left child to right

  00151	8b 01		 mov	 eax, DWORD PTR [ecx]
  00153	3b d0		 cmp	 edx, eax
  00155	75 3e		 jne	 SHORT $LN39@Insert_nod

; 704  :                         _Pnode = _Pnode->_Parent;

  00157	8b d1		 mov	 edx, ecx

; 487  :         _Nodeptr _Pnode   = _Wherenode->_Left;

  00159	8b c8		 mov	 ecx, eax

; 488  :         _Wherenode->_Left = _Pnode->_Right;

  0015b	8b 41 08	 mov	 eax, DWORD PTR [ecx+8]
  0015e	89 02		 mov	 DWORD PTR [edx], eax

; 489  : 
; 490  :         if (!_Pnode->_Right->_Isnil) {

  00160	8b 41 08	 mov	 eax, DWORD PTR [ecx+8]
  00163	80 78 0d 00	 cmp	 BYTE PTR [eax+13], 0
  00167	75 03		 jne	 SHORT $LN34@Insert_nod

; 491  :             _Pnode->_Right->_Parent = _Wherenode;

  00169	89 50 04	 mov	 DWORD PTR [eax+4], edx
$LN34@Insert_nod:

; 492  :         }
; 493  : 
; 494  :         _Pnode->_Parent = _Wherenode->_Parent;

  0016c	8b 03		 mov	 eax, DWORD PTR [ebx]
  0016e	89 41 04	 mov	 DWORD PTR [ecx+4], eax

; 495  : 
; 496  :         if (_Wherenode == _Myhead->_Parent) {

  00171	8b 45 fc	 mov	 eax, DWORD PTR _this$1$[ebp]
  00174	8b 00		 mov	 eax, DWORD PTR [eax]
  00176	3b 50 04	 cmp	 edx, DWORD PTR [eax+4]
  00179	75 05		 jne	 SHORT $LN35@Insert_nod

; 497  :             _Myhead->_Parent = _Pnode;

  0017b	89 48 04	 mov	 DWORD PTR [eax+4], ecx
  0017e	eb 0e		 jmp	 SHORT $LN38@Insert_nod
$LN35@Insert_nod:

; 498  :         } else if (_Wherenode == _Wherenode->_Parent->_Right) {

  00180	8b 03		 mov	 eax, DWORD PTR [ebx]
  00182	3b 50 08	 cmp	 edx, DWORD PTR [eax+8]
  00185	75 05		 jne	 SHORT $LN37@Insert_nod

; 499  :             _Wherenode->_Parent->_Right = _Pnode;

  00187	89 48 08	 mov	 DWORD PTR [eax+8], ecx

; 500  :         } else {

  0018a	eb 02		 jmp	 SHORT $LN38@Insert_nod
$LN37@Insert_nod:

; 501  :             _Wherenode->_Parent->_Left = _Pnode;

  0018c	89 08		 mov	 DWORD PTR [eax], ecx
$LN38@Insert_nod:

; 502  :         }
; 503  : 
; 504  :         _Pnode->_Right      = _Wherenode;

  0018e	89 51 08	 mov	 DWORD PTR [ecx+8], edx

; 505  :         _Wherenode->_Parent = _Pnode;

  00191	8b fb		 mov	 edi, ebx
  00193	89 0b		 mov	 DWORD PTR [ebx], ecx
$LN39@Insert_nod:

; 705  :                         _Rrotate(_Pnode);
; 706  :                     }
; 707  : 
; 708  :                     _Pnode->_Parent->_Color          = _Black; // propagate red up

  00195	c6 41 0c 01	 mov	 BYTE PTR [ecx+12], 1

; 709  :                     _Pnode->_Parent->_Parent->_Color = _Red;

  00199	8b 07		 mov	 eax, DWORD PTR [edi]
  0019b	8b 40 04	 mov	 eax, DWORD PTR [eax+4]
  0019e	c6 40 0c 00	 mov	 BYTE PTR [eax+12], 0

; 710  :                     _Lrotate(_Pnode->_Parent->_Parent);

  001a2	8b 07		 mov	 eax, DWORD PTR [edi]
  001a4	8b 48 04	 mov	 ecx, DWORD PTR [eax+4]

; 465  :         _Nodeptr _Pnode    = _Wherenode->_Right;

  001a7	8b 71 08	 mov	 esi, DWORD PTR [ecx+8]

; 466  :         _Wherenode->_Right = _Pnode->_Left;

  001aa	8b 06		 mov	 eax, DWORD PTR [esi]
  001ac	89 41 08	 mov	 DWORD PTR [ecx+8], eax

; 467  : 
; 468  :         if (!_Pnode->_Left->_Isnil) {

  001af	8b 06		 mov	 eax, DWORD PTR [esi]
  001b1	80 78 0d 00	 cmp	 BYTE PTR [eax+13], 0
  001b5	75 03		 jne	 SHORT $LN41@Insert_nod

; 469  :             _Pnode->_Left->_Parent = _Wherenode;

  001b7	89 48 04	 mov	 DWORD PTR [eax+4], ecx
$LN41@Insert_nod:

; 470  :         }
; 471  : 
; 472  :         _Pnode->_Parent = _Wherenode->_Parent;

  001ba	8b 41 04	 mov	 eax, DWORD PTR [ecx+4]
  001bd	89 46 04	 mov	 DWORD PTR [esi+4], eax

; 473  : 
; 474  :         if (_Wherenode == _Myhead->_Parent) {

  001c0	8b 45 fc	 mov	 eax, DWORD PTR _this$1$[ebp]
  001c3	8b 00		 mov	 eax, DWORD PTR [eax]
  001c5	3b 48 04	 cmp	 ecx, DWORD PTR [eax+4]
  001c8	75 05		 jne	 SHORT $LN42@Insert_nod

; 475  :             _Myhead->_Parent = _Pnode;

  001ca	89 70 04	 mov	 DWORD PTR [eax+4], esi
  001cd	eb 0e		 jmp	 SHORT $LN45@Insert_nod
$LN42@Insert_nod:

; 476  :         } else if (_Wherenode == _Wherenode->_Parent->_Left) {

  001cf	8b 41 04	 mov	 eax, DWORD PTR [ecx+4]
  001d2	3b 08		 cmp	 ecx, DWORD PTR [eax]
  001d4	75 04		 jne	 SHORT $LN44@Insert_nod

; 477  :             _Wherenode->_Parent->_Left = _Pnode;

  001d6	89 30		 mov	 DWORD PTR [eax], esi

; 478  :         } else {

  001d8	eb 03		 jmp	 SHORT $LN45@Insert_nod
$LN44@Insert_nod:

; 479  :             _Wherenode->_Parent->_Right = _Pnode;

  001da	89 70 08	 mov	 DWORD PTR [eax+8], esi
$LN45@Insert_nod:

; 480  :         }
; 481  : 
; 482  :         _Pnode->_Left       = _Wherenode;

  001dd	89 0e		 mov	 DWORD PTR [esi], ecx
$LN52@Insert_nod:

; 674  :             }
; 675  :         }
; 676  : 
; 677  :         for (_Nodeptr _Pnode = _Newnode; _Pnode->_Parent->_Color == _Red;) {

  001df	89 71 04	 mov	 DWORD PTR [ecx+4], esi
$LN46@Insert_nod:
  001e2	8b 42 04	 mov	 eax, DWORD PTR [edx+4]
  001e5	80 78 0c 00	 cmp	 BYTE PTR [eax+12], 0
  001e9	0f 84 71 fe ff
	ff		 je	 $LL2@Insert_nod
  001ef	8b 4d f8	 mov	 ecx, DWORD PTR __Head$1$[ebp]
  001f2	5f		 pop	 edi
  001f3	5e		 pop	 esi
  001f4	5b		 pop	 ebx
$LN3@Insert_nod:

; 711  :                 }
; 712  :             }
; 713  :         }
; 714  : 
; 715  :         _Head->_Parent->_Color = _Black; // root is always black

  001f5	8b 41 04	 mov	 eax, DWORD PTR [ecx+4]
  001f8	c6 40 0c 01	 mov	 BYTE PTR [eax+12], 1

; 716  :         return _Newnode;

  001fc	8b 45 10	 mov	 eax, DWORD PTR __Newnode$[ebp]

; 717  :     }

  001ff	8b e5		 mov	 esp, ebp
  00201	5d		 pop	 ebp
  00202	c2 0c 00	 ret	 12			; 0000000cH
?_Insert_node@?$_Tree_val@U?$_Tree_simple_types@U?$pair@$$CBKPAUSEnvironmentData@@@std@@@std@@@std@@QAEPAU?$_Tree_node@U?$pair@$$CBKPAUSEnvironmentData@@@std@@PAX@2@U?$_Tree_id@PAU?$_Tree_node@U?$pair@$$CBKPAUSEnvironmentData@@@std@@PAX@std@@@2@QAU32@@Z ENDP ; std::_Tree_val<std::_Tree_simple_types<std::pair<unsigned long const ,SEnvironmentData *> > >::_Insert_node
_TEXT	ENDS
; Function compile flags: /Ogtp
; File C:\Program Files (x86)\Microsoft Visual Studio\2019\Professional\VC\Tools\MSVC\14.29.30133\include\xtree
; File C:\Program Files (x86)\Microsoft Visual Studio\2019\Professional\VC\Tools\MSVC\14.29.30133\include\utility
; File C:\Program Files (x86)\Microsoft Visual Studio\2019\Professional\VC\Tools\MSVC\14.29.30133\include\xmemory
; File C:\Program Files (x86)\Microsoft Visual Studio\2019\Professional\VC\Tools\MSVC\14.29.30133\include\xtree
; File C:\Program Files (x86)\Microsoft Visual Studio\2019\Professional\VC\Tools\MSVC\14.29.30133\include\xmemory
; File C:\Program Files (x86)\Microsoft Visual Studio\2019\Professional\VC\Tools\MSVC\14.29.30133\include\xtree
;	COMDAT ??1?$_Tree@V?$_Tmap_traits@KPAUSEnvironmentData@@U?$less@K@std@@V?$allocator@U?$pair@$$CBKPAUSEnvironmentData@@@std@@@3@$0A@@std@@@std@@QAE@XZ
_TEXT	SEGMENT
??1?$_Tree@V?$_Tmap_traits@KPAUSEnvironmentData@@U?$less@K@std@@V?$allocator@U?$pair@$$CBKPAUSEnvironmentData@@@std@@@3@$0A@@std@@@std@@QAE@XZ PROC ; std::_Tree<std::_Tmap_traits<unsigned long,SEnvironmentData *,std::less<unsigned long>,std::allocator<std::pair<unsigned long const ,SEnvironmentData *> >,0> >::~_Tree<std::_Tmap_traits<unsigned long,SEnvironmentData *,std::less<unsigned long>,std::allocator<std::pair<unsigned long const ,SEnvironmentData *> >,0> >, COMDAT
; _this$ = ecx

; 1092 :     ~_Tree() noexcept {

  00000	56		 push	 esi
  00001	57		 push	 edi
  00002	8b f9		 mov	 edi, ecx

; 758  :         _Erase_tree(_Al, _Myhead->_Parent);

  00004	8b 07		 mov	 eax, DWORD PTR [edi]
  00006	8b 70 04	 mov	 esi, DWORD PTR [eax+4]

; 749  :         while (!_Rootnode->_Isnil) { // free subtrees, then node

  00009	80 7e 0d 00	 cmp	 BYTE PTR [esi+13], 0
  0000d	75 23		 jne	 SHORT $LN7@Tree
  0000f	90		 npad	 1
$LL6@Tree:

; 750  :             _Erase_tree(_Al, _Rootnode->_Right);

  00010	ff 76 08	 push	 DWORD PTR [esi+8]
  00013	8b cf		 mov	 ecx, edi
  00015	57		 push	 edi
  00016	e8 00 00 00 00	 call	 ??$_Erase_tree@V?$allocator@U?$_Tree_node@U?$pair@$$CBKPAUSEnvironmentData@@@std@@PAX@std@@@std@@@?$_Tree_val@U?$_Tree_simple_types@U?$pair@$$CBKPAUSEnvironmentData@@@std@@@std@@@std@@QAEXAAV?$allocator@U?$_Tree_node@U?$pair@$$CBKPAUSEnvironmentData@@@std@@PAX@std@@@1@PAU?$_Tree_node@U?$pair@$$CBKPAUSEnvironmentData@@@std@@PAX@1@@Z ; std::_Tree_val<std::_Tree_simple_types<std::pair<unsigned long const ,SEnvironmentData *> > >::_Erase_tree<std::allocator<std::_Tree_node<std::pair<unsigned long const ,SEnvironmentData *>,void *> > >
; File C:\Program Files (x86)\Microsoft Visual Studio\2019\Professional\VC\Tools\MSVC\14.29.30133\include\utility

; 616  :     _Ty _Old_val = static_cast<_Ty&&>(_Val);

  0001b	8b c6		 mov	 eax, esi

; 617  :     _Val         = static_cast<_Other&&>(_New_val);

  0001d	8b 36		 mov	 esi, DWORD PTR [esi]
; File C:\Program Files (x86)\Microsoft Visual Studio\2019\Professional\VC\Tools\MSVC\14.29.30133\include\xmemory

; 264  :         ::operator delete(_Ptr, _Bytes);

  0001f	6a 18		 push	 24			; 00000018H
  00021	50		 push	 eax
  00022	e8 00 00 00 00	 call	 ??3@YAXPAXI@Z		; operator delete
  00027	83 c4 08	 add	 esp, 8
; File C:\Program Files (x86)\Microsoft Visual Studio\2019\Professional\VC\Tools\MSVC\14.29.30133\include\xtree

; 749  :         while (!_Rootnode->_Isnil) { // free subtrees, then node

  0002a	80 7e 0d 00	 cmp	 BYTE PTR [esi+13], 0
  0002e	74 e0		 je	 SHORT $LL6@Tree
; File C:\Program Files (x86)\Microsoft Visual Studio\2019\Professional\VC\Tools\MSVC\14.29.30133\include\xmemory

; 173  :     _Ptr = reinterpret_cast<void*>(_Ptr_container);

  00030	8b 07		 mov	 eax, DWORD PTR [edi]
$LN7@Tree:

; 264  :         ::operator delete(_Ptr, _Bytes);

  00032	6a 18		 push	 24			; 00000018H
  00034	50		 push	 eax
  00035	e8 00 00 00 00	 call	 ??3@YAXPAXI@Z		; operator delete
  0003a	83 c4 08	 add	 esp, 8
  0003d	5f		 pop	 edi
  0003e	5e		 pop	 esi
; File C:\Program Files (x86)\Microsoft Visual Studio\2019\Professional\VC\Tools\MSVC\14.29.30133\include\xtree

; 1099 :     }

  0003f	c3		 ret	 0
??1?$_Tree@V?$_Tmap_traits@KPAUSEnvironmentData@@U?$less@K@std@@V?$allocator@U?$pair@$$CBKPAUSEnvironmentData@@@std@@@3@$0A@@std@@@std@@QAE@XZ ENDP ; std::_Tree<std::_Tmap_traits<unsigned long,SEnvironmentData *,std::less<unsigned long>,std::allocator<std::pair<unsigned long const ,SEnvironmentData *> >,0> >::~_Tree<std::_Tmap_traits<unsigned long,SEnvironmentData *,std::less<unsigned long>,std::allocator<std::pair<unsigned long const ,SEnvironmentData *> >,0> >
_TEXT	ENDS
; Function compile flags: /Ogtp
; File C:\Users\murat\Desktop\Siveps2-1-99-Project\source\client\Client\GameLib\MapManager.cpp
;	COMDAT ?LoadEnvironmentData@CMapManager@@IAEHPBDPAUSEnvironmentData@@@Z
_TEXT	SEGMENT
_c_szFileName$ = 8					; size = 4
_pEnvironmentData$ = 12					; size = 4
?LoadEnvironmentData@CMapManager@@IAEHPBDPAUSEnvironmentData@@@Z PROC ; CMapManager::LoadEnvironmentData, COMDAT
; _this$ = ecx

; 445  : {

  00000	55		 push	 ebp
  00001	8b ec		 mov	 ebp, esp

; 446  : 	if (!pEnvironmentData)

  00003	8b 45 0c	 mov	 eax, DWORD PTR _pEnvironmentData$[ebp]
  00006	85 c0		 test	 eax, eax
  00008	75 04		 jne	 SHORT $LN2@LoadEnviro

; 450  : }

  0000a	5d		 pop	 ebp
  0000b	c2 08 00	 ret	 8
$LN2@LoadEnviro:

; 447  : 		return FALSE;
; 448  : 
; 449  : 	return (BOOL)Environment_Load(*pEnvironmentData, c_szFileName);

  0000e	ff 75 08	 push	 DWORD PTR _c_szFileName$[ebp]
  00011	50		 push	 eax
  00012	e8 00 00 00 00	 call	 ?Environment_Load@@YA_NAAUSEnvironmentData@@PBD@Z ; Environment_Load
  00017	83 c4 08	 add	 esp, 8
  0001a	0f b6 c0	 movzx	 eax, al

; 450  : }

  0001d	5d		 pop	 ebp
  0001e	c2 08 00	 ret	 8
?LoadEnvironmentData@CMapManager@@IAEHPBDPAUSEnvironmentData@@@Z ENDP ; CMapManager::LoadEnvironmentData
_TEXT	ENDS
; Function compile flags: /Ogtp
; File C:\Users\murat\Desktop\Siveps2-1-99-Project\source\client\Client\GameLib\MapManager.cpp
;	COMDAT ?DeleteEnvironmentData@CMapManager@@IAEXPAUSEnvironmentData@@@Z
_TEXT	SEGMENT
_pEnvironmentData$ = 8					; size = 4
?DeleteEnvironmentData@CMapManager@@IAEXPAUSEnvironmentData@@@Z PROC ; CMapManager::DeleteEnvironmentData, COMDAT
; _this$ = ecx

; 439  : {

  00000	55		 push	 ebp
  00001	8b ec		 mov	 ebp, esp

; 440  : 	delete pEnvironmentData;

  00003	8b 4d 08	 mov	 ecx, DWORD PTR _pEnvironmentData$[ebp]
  00006	85 c9		 test	 ecx, ecx
  00008	74 0d		 je	 SHORT $LN3@DeleteEnvi
  0000a	c7 45 08 01 00
	00 00		 mov	 DWORD PTR _pEnvironmentData$[ebp], 1

; 441  : 	pEnvironmentData = NULL;
; 442  : }

  00011	5d		 pop	 ebp

; 440  : 	delete pEnvironmentData;

  00012	e9 00 00 00 00	 jmp	 ??_GSEnvironmentData@@QAEPAXI@Z
$LN3@DeleteEnvi:

; 441  : 	pEnvironmentData = NULL;
; 442  : }

  00017	5d		 pop	 ebp
  00018	c2 04 00	 ret	 4
?DeleteEnvironmentData@CMapManager@@IAEXPAUSEnvironmentData@@@Z ENDP ; CMapManager::DeleteEnvironmentData
_TEXT	ENDS
; Function compile flags: /Ogtp
; File C:\Users\murat\Desktop\Siveps2-1-99-Project\source\client\Client\GameLib\MapManager.cpp
; File C:\Program Files (x86)\Microsoft Visual Studio\2019\Professional\VC\Tools\MSVC\14.29.30133\include\xstring
; File C:\Program Files (x86)\Microsoft Visual Studio\2019\Professional\VC\Tools\MSVC\14.29.30133\include\vector
; File C:\Users\murat\Desktop\Siveps2-1-99-Project\source\client\Client\eterLib\SkyBox.h
; File C:\Program Files (x86)\Microsoft Visual Studio\2019\Professional\VC\Tools\MSVC\14.29.30133\include\xstring
; File C:\Users\murat\Desktop\Siveps2-1-99-Project\source\client\Client\GameLib\MapManager.cpp
;	COMDAT ?AllocEnvironmentData@CMapManager@@IAEPAUSEnvironmentData@@XZ
_TEXT	SEGMENT
$T2 = -16						; size = 4
__$EHRec$ = -12						; size = 12
?AllocEnvironmentData@CMapManager@@IAEPAUSEnvironmentData@@XZ PROC ; CMapManager::AllocEnvironmentData, COMDAT
; _this$ = ecx

; 432  : {

  00000	55		 push	 ebp
  00001	8b ec		 mov	 ebp, esp
  00003	6a ff		 push	 -1
  00005	68 00 00 00 00	 push	 __ehhandler$?AllocEnvironmentData@CMapManager@@IAEPAUSEnvironmentData@@XZ
  0000a	64 a1 00 00 00
	00		 mov	 eax, DWORD PTR fs:0
  00010	50		 push	 eax
  00011	51		 push	 ecx
  00012	56		 push	 esi
  00013	a1 00 00 00 00	 mov	 eax, DWORD PTR ___security_cookie
  00018	33 c5		 xor	 eax, ebp
  0001a	50		 push	 eax
  0001b	8d 45 f4	 lea	 eax, DWORD PTR __$EHRec$[ebp]
  0001e	64 a3 00 00 00
	00		 mov	 DWORD PTR fs:0, eax

; 433  : 	TEnvironmentData * pEnvironmentData = new TEnvironmentData;

  00024	68 9c 02 00 00	 push	 668			; 0000029cH
  00029	e8 00 00 00 00	 call	 ??2@YAPAXI@Z		; operator new
  0002e	8b f0		 mov	 esi, eax
  00030	83 c4 04	 add	 esp, 4
  00033	89 75 f0	 mov	 DWORD PTR $T2[ebp], esi
  00036	c7 45 fc 00 00
	00 00		 mov	 DWORD PTR __$EHRec$[ebp+8], 0
  0003d	85 f6		 test	 esi, esi
  0003f	0f 84 d4 00 00
	00		 je	 $LN3@AllocEnvir
  00045	68 00 00 00 00	 push	 OFFSET ??1?$basic_string@DU?$char_traits@D@std@@V?$allocator@D@2@@std@@QAE@XZ ; std::basic_string<char,std::char_traits<char>,std::allocator<char> >::~basic_string<char,std::char_traits<char>,std::allocator<char> >
  0004a	68 00 00 00 00	 push	 OFFSET ??0?$basic_string@DU?$char_traits@D@std@@V?$allocator@D@2@@std@@QAE@XZ ; std::basic_string<char,std::char_traits<char>,std::allocator<char> >::basic_string<char,std::char_traits<char>,std::allocator<char> >
  0004f	6a 06		 push	 6
  00051	6a 18		 push	 24			; 00000018H
  00053	8d 86 70 01 00
	00		 lea	 eax, DWORD PTR [esi+368]
  00059	50		 push	 eax
  0005a	e8 00 00 00 00	 call	 ??_L@YGXPAXIIP6EX0@Z1@Z
; File C:\Program Files (x86)\Microsoft Visual Studio\2019\Professional\VC\Tools\MSVC\14.29.30133\include\xstring

; 4596 :         _My_data._Mysize = 0;

  0005f	c7 86 2c 02 00
	00 00 00 00 00	 mov	 DWORD PTR [esi+556], 0

; 4597 : 
; 4598 : #ifdef __cpp_lib_constexpr_string
; 4599 :         if (_STD is_constant_evaluated()) {
; 4600 :             _My_data._Myres        = _BUF_SIZE; // SSO disabled in constexpr context
; 4601 :             auto& _Al              = _Getal();
; 4602 :             const pointer _New_ptr = _Al.allocate(_BUF_SIZE + 1); // throws
; 4603 :             _My_data._Bx._Ptr      = _New_ptr;
; 4604 : 
; 4605 :             _Elem* const _Raw_new = _Unfancy(_New_ptr);
; 4606 :             _Traits::assign(_Raw_new, _BUF_SIZE + 1, _Elem());
; 4607 :         } else
; 4608 : #endif // __cpp_lib_constexpr_string
; 4609 :         {
; 4610 :             _My_data._Myres = _BUF_SIZE - 1;

  00069	c7 86 30 02 00
	00 0f 00 00 00	 mov	 DWORD PTR [esi+560], 15	; 0000000fH

; 2346 :         _CONSTEXPR20_CONTAINER _Bxty() noexcept : _Ptr() {} // user-provided, for fancy pointers

  00073	c7 86 1c 02 00
	00 00 00 00 00	 mov	 DWORD PTR [esi+540], 0

; 4612 :             _Traits::assign(_My_data._Bx._Buf[0], _Elem());

  0007d	c6 86 1c 02 00
	00 00		 mov	 BYTE PTR [esi+540], 0
; File C:\Program Files (x86)\Microsoft Visual Studio\2019\Professional\VC\Tools\MSVC\14.29.30133\include\vector

; 401  :     _CONSTEXPR20_CONTAINER _Vector_val() noexcept : _Myfirst(), _Mylast(), _Myend() {}

  00084	c7 86 54 02 00
	00 00 00 00 00	 mov	 DWORD PTR [esi+596], 0
  0008e	c7 86 58 02 00
	00 00 00 00 00	 mov	 DWORD PTR [esi+600], 0
  00098	c7 86 5c 02 00
	00 00 00 00 00	 mov	 DWORD PTR [esi+604], 0
; File C:\Users\murat\Desktop\Siveps2-1-99-Project\source\client\Client\eterLib\SkyBox.h

; 22   : 	SColor(float _r = 0.0f, float _g = 0.0f, float _b = 0.0f, float _a = 0.0f) : r(_r), g(_g), b(_b), a(_a){}

  000a2	c7 86 34 02 00
	00 00 00 00 00	 mov	 DWORD PTR [esi+564], 0
  000ac	c7 86 38 02 00
	00 00 00 00 00	 mov	 DWORD PTR [esi+568], 0
  000b6	c7 86 3c 02 00
	00 00 00 00 00	 mov	 DWORD PTR [esi+572], 0
  000c0	c7 86 40 02 00
	00 00 00 00 00	 mov	 DWORD PTR [esi+576], 0
  000ca	c7 86 44 02 00
	00 00 00 00 00	 mov	 DWORD PTR [esi+580], 0
  000d4	c7 86 48 02 00
	00 00 00 00 00	 mov	 DWORD PTR [esi+584], 0
  000de	c7 86 4c 02 00
	00 00 00 00 00	 mov	 DWORD PTR [esi+588], 0
  000e8	c7 86 50 02 00
	00 00 00 00 00	 mov	 DWORD PTR [esi+592], 0
; File C:\Program Files (x86)\Microsoft Visual Studio\2019\Professional\VC\Tools\MSVC\14.29.30133\include\xstring

; 2346 :         _CONSTEXPR20_CONTAINER _Bxty() noexcept : _Ptr() {} // user-provided, for fancy pointers

  000f2	c7 86 7c 02 00
	00 00 00 00 00	 mov	 DWORD PTR [esi+636], 0

; 4596 :         _My_data._Mysize = 0;

  000fc	c7 86 8c 02 00
	00 00 00 00 00	 mov	 DWORD PTR [esi+652], 0

; 4597 : 
; 4598 : #ifdef __cpp_lib_constexpr_string
; 4599 :         if (_STD is_constant_evaluated()) {
; 4600 :             _My_data._Myres        = _BUF_SIZE; // SSO disabled in constexpr context
; 4601 :             auto& _Al              = _Getal();
; 4602 :             const pointer _New_ptr = _Al.allocate(_BUF_SIZE + 1); // throws
; 4603 :             _My_data._Bx._Ptr      = _New_ptr;
; 4604 : 
; 4605 :             _Elem* const _Raw_new = _Unfancy(_New_ptr);
; 4606 :             _Traits::assign(_Raw_new, _BUF_SIZE + 1, _Elem());
; 4607 :         } else
; 4608 : #endif // __cpp_lib_constexpr_string
; 4609 :         {
; 4610 :             _My_data._Myres = _BUF_SIZE - 1;

  00106	c7 86 90 02 00
	00 0f 00 00 00	 mov	 DWORD PTR [esi+656], 15	; 0000000fH

; 4611 :             // the _Traits::assign is last so the codegen doesn't think the char write can alias this
; 4612 :             _Traits::assign(_My_data._Bx._Buf[0], _Elem());

  00110	c6 86 7c 02 00
	00 00		 mov	 BYTE PTR [esi+636], 0
; File C:\Users\murat\Desktop\Siveps2-1-99-Project\source\client\Client\GameLib\MapManager.cpp

; 433  : 	TEnvironmentData * pEnvironmentData = new TEnvironmentData;

  00117	eb 02		 jmp	 SHORT $LN4@AllocEnvir
$LN3@AllocEnvir:
  00119	33 f6		 xor	 esi, esi
$LN4@AllocEnvir:

; 434  : 	Environment_Init(*pEnvironmentData);

  0011b	56		 push	 esi
  0011c	c7 45 fc ff ff
	ff ff		 mov	 DWORD PTR __$EHRec$[ebp+8], -1
  00123	e8 00 00 00 00	 call	 ?Environment_Init@@YAXAAUSEnvironmentData@@@Z ; Environment_Init
  00128	83 c4 04	 add	 esp, 4

; 435  : 	return pEnvironmentData;

  0012b	8b c6		 mov	 eax, esi

; 436  : }

  0012d	8b 4d f4	 mov	 ecx, DWORD PTR __$EHRec$[ebp]
  00130	64 89 0d 00 00
	00 00		 mov	 DWORD PTR fs:0, ecx
  00137	59		 pop	 ecx
  00138	5e		 pop	 esi
  00139	8b e5		 mov	 esp, ebp
  0013b	5d		 pop	 ebp
  0013c	c3		 ret	 0
_TEXT	ENDS
;	COMDAT text$x
text$x	SEGMENT
__unwindfunclet$?AllocEnvironmentData@CMapManager@@IAEPAUSEnvironmentData@@XZ$0:
  00000	68 9c 02 00 00	 push	 668			; 0000029cH
  00005	8b 45 f0	 mov	 eax, DWORD PTR $T2[ebp]
  00008	50		 push	 eax
  00009	e8 00 00 00 00	 call	 ??3@YAXPAXI@Z		; operator delete
  0000e	83 c4 08	 add	 esp, 8
  00011	c3		 ret	 0
  00012	cc		 int	 3
  00013	cc		 int	 3
  00014	cc		 int	 3
  00015	cc		 int	 3
  00016	cc		 int	 3
__ehhandler$?AllocEnvironmentData@CMapManager@@IAEPAUSEnvironmentData@@XZ:
  00017	90		 npad	 1
  00018	90		 npad	 1
  00019	8b 54 24 08	 mov	 edx, DWORD PTR [esp+8]
  0001d	8d 42 0c	 lea	 eax, DWORD PTR [edx+12]
  00020	8b 4a f4	 mov	 ecx, DWORD PTR [edx-12]
  00023	33 c8		 xor	 ecx, eax
  00025	e8 00 00 00 00	 call	 @__security_check_cookie@4
  0002a	b8 00 00 00 00	 mov	 eax, OFFSET __ehfuncinfo$?AllocEnvironmentData@CMapManager@@IAEPAUSEnvironmentData@@XZ
  0002f	e9 00 00 00 00	 jmp	 ___CxxFrameHandler3
text$x	ENDS
?AllocEnvironmentData@CMapManager@@IAEPAUSEnvironmentData@@XZ ENDP ; CMapManager::AllocEnvironmentData
; Function compile flags: /Ogtp
; File C:\Users\murat\Desktop\Siveps2-1-99-Project\source\client\Client\GameLib\MapManager.cpp
;	COMDAT ?GetRenderedGraphicThingInstanceNum@CMapManager@@QAEAAV?$vector@USCRCWithNumber@CArea@@V?$allocator@USCRCWithNumber@CArea@@@std@@@std@@PAK0@Z
_TEXT	SEGMENT
_pdwGraphicThingInstanceNum$ = 8			; size = 4
_pdwCRCNum$ = 12					; size = 4
?GetRenderedGraphicThingInstanceNum@CMapManager@@QAEAAV?$vector@USCRCWithNumber@CArea@@V?$allocator@USCRCWithNumber@CArea@@@std@@@std@@PAK0@Z PROC ; CMapManager::GetRenderedGraphicThingInstanceNum, COMDAT
; _this$ = ecx

; 476  : {

  00000	55		 push	 ebp
  00001	8b ec		 mov	 ebp, esp

; 477  : 	if (!m_pkMap)

  00003	83 b9 30 14 00
	00 00		 cmp	 DWORD PTR [ecx+5168], 0
  0000a	75 37		 jne	 SHORT $LN3@GetRendere

; 478  : 	{
; 479  : 		static CArea::TCRCWithNumberVector s_emptyVector;

  0000c	64 a1 00 00 00
	00		 mov	 eax, DWORD PTR fs:__tls_array
  00012	8b 0d 00 00 00
	00		 mov	 ecx, DWORD PTR __tls_index
  00018	8b 0c 88	 mov	 ecx, DWORD PTR [eax+ecx*4]
  0001b	a1 00 00 00 00	 mov	 eax, DWORD PTR ?$TSS0@?4??GetRenderedGraphicThingInstanceNum@CMapManager@@QAEAAV?$vector@USCRCWithNumber@CArea@@V?$allocator@USCRCWithNumber@CArea@@@std@@@std@@PAK0@Z@4HA
  00020	3b 81 00 00 00
	00		 cmp	 eax, DWORD PTR __Init_thread_epoch[ecx]
  00026	7f 28		 jg	 SHORT $LN14@GetRendere
$LN2@GetRendere:

; 480  : 		*pdwGraphicThingInstanceNum = 0;

  00028	8b 45 08	 mov	 eax, DWORD PTR _pdwGraphicThingInstanceNum$[ebp]
  0002b	c7 00 00 00 00
	00		 mov	 DWORD PTR [eax], 0

; 481  : 		*pdwCRCNum = 0;

  00031	8b 45 0c	 mov	 eax, DWORD PTR _pdwCRCNum$[ebp]
  00034	c7 00 00 00 00
	00		 mov	 DWORD PTR [eax], 0

; 482  : 		return s_emptyVector;

  0003a	b8 00 00 00 00	 mov	 eax, OFFSET ?s_emptyVector@?4??GetRenderedGraphicThingInstanceNum@CMapManager@@QAEAAV?$vector@USCRCWithNumber@CArea@@V?$allocator@USCRCWithNumber@CArea@@@std@@@std@@PAK0@Z@4V34@A

; 487  : }

  0003f	5d		 pop	 ebp
  00040	c2 08 00	 ret	 8
$LN3@GetRendere:

; 483  : 	}
; 484  : 
; 485  : 	CMapOutdoor& rkMap=GetMapOutdoorRef();

  00043	e8 00 00 00 00	 call	 ?GetMapOutdoorRef@CMapManager@@QAEAAVCMapOutdoor@@XZ ; CMapManager::GetMapOutdoorRef

; 486  : 	return rkMap.GetRenderedGraphicThingInstanceNum(pdwGraphicThingInstanceNum, pdwCRCNum);

  00048	8b c8		 mov	 ecx, eax

; 487  : }

  0004a	5d		 pop	 ebp

; 486  : 	return rkMap.GetRenderedGraphicThingInstanceNum(pdwGraphicThingInstanceNum, pdwCRCNum);

  0004b	e9 00 00 00 00	 jmp	 ?GetRenderedGraphicThingInstanceNum@CMapOutdoor@@QAEAAV?$vector@USCRCWithNumber@CArea@@V?$allocator@USCRCWithNumber@CArea@@@std@@@std@@PAK0@Z ; CMapOutdoor::GetRenderedGraphicThingInstanceNum
$LN14@GetRendere:

; 478  : 	{
; 479  : 		static CArea::TCRCWithNumberVector s_emptyVector;

  00050	68 00 00 00 00	 push	 OFFSET ?$TSS0@?4??GetRenderedGraphicThingInstanceNum@CMapManager@@QAEAAV?$vector@USCRCWithNumber@CArea@@V?$allocator@USCRCWithNumber@CArea@@@std@@@std@@PAK0@Z@4HA
  00055	e8 00 00 00 00	 call	 __Init_thread_header
  0005a	83 c4 04	 add	 esp, 4
  0005d	83 3d 00 00 00
	00 ff		 cmp	 DWORD PTR ?$TSS0@?4??GetRenderedGraphicThingInstanceNum@CMapManager@@QAEAAV?$vector@USCRCWithNumber@CArea@@V?$allocator@USCRCWithNumber@CArea@@@std@@@std@@PAK0@Z@4HA, -1
  00064	75 c2		 jne	 SHORT $LN2@GetRendere
  00066	68 00 00 00 00	 push	 OFFSET ??__Fs_emptyVector@?4??GetRenderedGraphicThingInstanceNum@CMapManager@@QAEAAV?$vector@USCRCWithNumber@CArea@@V?$allocator@USCRCWithNumber@CArea@@@std@@@std@@PAK0@Z@YAXXZ ; `CMapManager::GetRenderedGraphicThingInstanceNum'::`5'::`dynamic atexit destructor for 's_emptyVector''
  0006b	e8 00 00 00 00	 call	 _atexit
  00070	68 00 00 00 00	 push	 OFFSET ?$TSS0@?4??GetRenderedGraphicThingInstanceNum@CMapManager@@QAEAAV?$vector@USCRCWithNumber@CArea@@V?$allocator@USCRCWithNumber@CArea@@@std@@@std@@PAK0@Z@4HA
  00075	e8 00 00 00 00	 call	 __Init_thread_footer
  0007a	83 c4 08	 add	 esp, 8
  0007d	eb a9		 jmp	 SHORT $LN2@GetRendere
?GetRenderedGraphicThingInstanceNum@CMapManager@@QAEAAV?$vector@USCRCWithNumber@CArea@@V?$allocator@USCRCWithNumber@CArea@@@std@@@std@@PAK0@Z ENDP ; CMapManager::GetRenderedGraphicThingInstanceNum
_TEXT	ENDS
; Function compile flags: /Ogtp
; File C:\Users\murat\Desktop\Siveps2-1-99-Project\source\client\Client\GameLib\MapManager.cpp
;	COMDAT ?GetRenderedSplatNum@CMapManager@@QAEAAV?$vector@HV?$allocator@H@std@@@std@@PAH0PAM@Z
_TEXT	SEGMENT
_piPatch$ = 8						; size = 4
_piSplat$ = 12						; size = 4
_pfSplatRatio$ = 16					; size = 4
?GetRenderedSplatNum@CMapManager@@QAEAAV?$vector@HV?$allocator@H@std@@@std@@PAH0PAM@Z PROC ; CMapManager::GetRenderedSplatNum, COMDAT
; _this$ = ecx

; 462  : {

  00000	55		 push	 ebp
  00001	8b ec		 mov	 ebp, esp

; 463  : 	if (!m_pkMap)

  00003	83 b9 30 14 00
	00 00		 cmp	 DWORD PTR [ecx+5168], 0
  0000a	75 37		 jne	 SHORT $LN3@GetRendere

; 464  : 	{
; 465  : 		static std::vector<int> s_emptyVector;

  0000c	64 a1 00 00 00
	00		 mov	 eax, DWORD PTR fs:__tls_array
  00012	8b 0d 00 00 00
	00		 mov	 ecx, DWORD PTR __tls_index
  00018	8b 0c 88	 mov	 ecx, DWORD PTR [eax+ecx*4]
  0001b	a1 00 00 00 00	 mov	 eax, DWORD PTR ?$TSS0@?4??GetRenderedSplatNum@CMapManager@@QAEAAV?$vector@HV?$allocator@H@std@@@std@@PAH0PAM@Z@4HA
  00020	3b 81 00 00 00
	00		 cmp	 eax, DWORD PTR __Init_thread_epoch[ecx]
  00026	7f 28		 jg	 SHORT $LN14@GetRendere
$LN2@GetRendere:

; 466  : 		*piPatch = 0;

  00028	8b 45 08	 mov	 eax, DWORD PTR _piPatch$[ebp]
  0002b	c7 00 00 00 00
	00		 mov	 DWORD PTR [eax], 0

; 467  : 		*piSplat = 0;

  00031	8b 45 0c	 mov	 eax, DWORD PTR _piSplat$[ebp]
  00034	c7 00 00 00 00
	00		 mov	 DWORD PTR [eax], 0

; 468  : 		return s_emptyVector;

  0003a	b8 00 00 00 00	 mov	 eax, OFFSET ?s_emptyVector@?4??GetRenderedSplatNum@CMapManager@@QAEAAV?$vector@HV?$allocator@H@std@@@std@@PAH0PAM@Z@4V34@A

; 473  : }

  0003f	5d		 pop	 ebp
  00040	c2 0c 00	 ret	 12			; 0000000cH
$LN3@GetRendere:

; 469  : 	}
; 470  : 
; 471  : 	CMapOutdoor& rkMap=GetMapOutdoorRef();

  00043	e8 00 00 00 00	 call	 ?GetMapOutdoorRef@CMapManager@@QAEAAVCMapOutdoor@@XZ ; CMapManager::GetMapOutdoorRef

; 472  : 	return rkMap.GetRenderedSplatNum(piPatch, piSplat, pfSplatRatio);

  00048	8b c8		 mov	 ecx, eax

; 473  : }

  0004a	5d		 pop	 ebp

; 472  : 	return rkMap.GetRenderedSplatNum(piPatch, piSplat, pfSplatRatio);

  0004b	e9 00 00 00 00	 jmp	 ?GetRenderedSplatNum@CMapOutdoor@@QAEAAV?$vector@HV?$allocator@H@std@@@std@@PAH0PAM@Z ; CMapOutdoor::GetRenderedSplatNum
$LN14@GetRendere:

; 464  : 	{
; 465  : 		static std::vector<int> s_emptyVector;

  00050	68 00 00 00 00	 push	 OFFSET ?$TSS0@?4??GetRenderedSplatNum@CMapManager@@QAEAAV?$vector@HV?$allocator@H@std@@@std@@PAH0PAM@Z@4HA
  00055	e8 00 00 00 00	 call	 __Init_thread_header
  0005a	83 c4 04	 add	 esp, 4
  0005d	83 3d 00 00 00
	00 ff		 cmp	 DWORD PTR ?$TSS0@?4??GetRenderedSplatNum@CMapManager@@QAEAAV?$vector@HV?$allocator@H@std@@@std@@PAH0PAM@Z@4HA, -1
  00064	75 c2		 jne	 SHORT $LN2@GetRendere
  00066	68 00 00 00 00	 push	 OFFSET ??__Fs_emptyVector@?4??GetRenderedSplatNum@CMapManager@@QAEAAV?$vector@HV?$allocator@H@std@@@std@@PAH0PAM@Z@YAXXZ ; `CMapManager::GetRenderedSplatNum'::`5'::`dynamic atexit destructor for 's_emptyVector''
  0006b	e8 00 00 00 00	 call	 _atexit
  00070	68 00 00 00 00	 push	 OFFSET ?$TSS0@?4??GetRenderedSplatNum@CMapManager@@QAEAAV?$vector@HV?$allocator@H@std@@@std@@PAH0PAM@Z@4HA
  00075	e8 00 00 00 00	 call	 __Init_thread_footer
  0007a	83 c4 08	 add	 esp, 8
  0007d	eb a9		 jmp	 SHORT $LN2@GetRendere
?GetRenderedSplatNum@CMapManager@@QAEAAV?$vector@HV?$allocator@H@std@@@std@@PAH0PAM@Z ENDP ; CMapManager::GetRenderedSplatNum
_TEXT	ENDS
; Function compile flags: /Ogtp
; File C:\Users\murat\Desktop\Siveps2-1-99-Project\source\client\Client\GameLib\MapManager.cpp
;	COMDAT ?GetAttr@CMapManager@@QAE_NHHPAE@Z
_TEXT	SEGMENT
_iX$ = 8						; size = 4
_iY$ = 12						; size = 4
_pbyAttr$ = 16						; size = 4
?GetAttr@CMapManager@@QAE_NHHPAE@Z PROC			; CMapManager::GetAttr, COMDAT
; _this$ = ecx

; 535  : {

  00000	55		 push	 ebp
  00001	8b ec		 mov	 ebp, esp
  00003	56		 push	 esi
  00004	8b f1		 mov	 esi, ecx

; 536  : 	if (!IsMapReady())

  00006	e8 00 00 00 00	 call	 ?IsMapReady@CMapManager@@QAE_NXZ ; CMapManager::IsMapReady
  0000b	84 c0		 test	 al, al
  0000d	75 05		 jne	 SHORT $LN2@GetAttr
  0000f	5e		 pop	 esi

; 541  : }

  00010	5d		 pop	 ebp
  00011	c2 0c 00	 ret	 12			; 0000000cH
$LN2@GetAttr:

; 537  : 		return false;
; 538  : 
; 539  : 	CMapOutdoor& rkMap=GetMapOutdoorRef();

  00014	8b ce		 mov	 ecx, esi
  00016	e8 00 00 00 00	 call	 ?GetMapOutdoorRef@CMapManager@@QAEAAVCMapOutdoor@@XZ ; CMapManager::GetMapOutdoorRef
  0001b	5e		 pop	 esi

; 540  : 	return rkMap.GetAttr(iX, iY, pbyAttr);

  0001c	8b c8		 mov	 ecx, eax

; 541  : }

  0001e	5d		 pop	 ebp

; 540  : 	return rkMap.GetAttr(iX, iY, pbyAttr);

  0001f	e9 00 00 00 00	 jmp	 ?GetAttr@CMapOutdoor@@QAE_NHHPAE@Z ; CMapOutdoor::GetAttr
?GetAttr@CMapManager@@QAE_NHHPAE@Z ENDP			; CMapManager::GetAttr
_TEXT	ENDS
; Function compile flags: /Ogtp
; File C:\Users\murat\Desktop\Siveps2-1-99-Project\source\client\Client\GameLib\MapManager.cpp
;	COMDAT ?isAttrOn@CMapManager@@QAE_NHHE@Z
_TEXT	SEGMENT
_iX$ = 8						; size = 4
_iY$ = 12						; size = 4
_byAttr$ = 16						; size = 1
?isAttrOn@CMapManager@@QAE_NHHE@Z PROC			; CMapManager::isAttrOn, COMDAT
; _this$ = ecx

; 526  : {

  00000	55		 push	 ebp
  00001	8b ec		 mov	 ebp, esp
  00003	56		 push	 esi
  00004	8b f1		 mov	 esi, ecx

; 527  : 	if (!IsMapReady())

  00006	e8 00 00 00 00	 call	 ?IsMapReady@CMapManager@@QAE_NXZ ; CMapManager::IsMapReady
  0000b	84 c0		 test	 al, al
  0000d	75 05		 jne	 SHORT $LN2@isAttrOn
  0000f	5e		 pop	 esi

; 532  : }

  00010	5d		 pop	 ebp
  00011	c2 0c 00	 ret	 12			; 0000000cH
$LN2@isAttrOn:

; 528  : 		return false;
; 529  : 
; 530  : 	CMapOutdoor& rkMap=GetMapOutdoorRef();

  00014	8b ce		 mov	 ecx, esi
  00016	e8 00 00 00 00	 call	 ?GetMapOutdoorRef@CMapManager@@QAEAAVCMapOutdoor@@XZ ; CMapManager::GetMapOutdoorRef
  0001b	5e		 pop	 esi

; 531  : 	return rkMap.isAttrOn(iX, iY, byAttr);

  0001c	8b c8		 mov	 ecx, eax

; 532  : }

  0001e	5d		 pop	 ebp

; 531  : 	return rkMap.isAttrOn(iX, iY, byAttr);

  0001f	e9 00 00 00 00	 jmp	 ?isAttrOn@CMapOutdoor@@QAE_NHHE@Z ; CMapOutdoor::isAttrOn
?isAttrOn@CMapManager@@QAE_NHHE@Z ENDP			; CMapManager::isAttrOn
_TEXT	ENDS
; Function compile flags: /Ogtp
; File C:\Users\murat\Desktop\Siveps2-1-99-Project\source\client\Client\GameLib\MapManager.cpp
;	COMDAT ?GetAttr@CMapManager@@QAE_NMMPAE@Z
_TEXT	SEGMENT
_fX$ = 8						; size = 4
_fY$ = 12						; size = 4
_pbyAttr$ = 16						; size = 4
?GetAttr@CMapManager@@QAE_NMMPAE@Z PROC			; CMapManager::GetAttr, COMDAT
; _this$ = ecx

; 517  : {

  00000	55		 push	 ebp
  00001	8b ec		 mov	 ebp, esp
  00003	56		 push	 esi
  00004	8b f1		 mov	 esi, ecx

; 518  : 	if (!IsMapReady())

  00006	e8 00 00 00 00	 call	 ?IsMapReady@CMapManager@@QAE_NXZ ; CMapManager::IsMapReady
  0000b	84 c0		 test	 al, al
  0000d	75 05		 jne	 SHORT $LN2@GetAttr
  0000f	5e		 pop	 esi

; 523  : }

  00010	5d		 pop	 ebp
  00011	c2 0c 00	 ret	 12			; 0000000cH
$LN2@GetAttr:

; 519  : 		return false;
; 520  : 
; 521  : 	CMapOutdoor& rkMap=GetMapOutdoorRef();

  00014	8b ce		 mov	 ecx, esi
  00016	e8 00 00 00 00	 call	 ?GetMapOutdoorRef@CMapManager@@QAEAAVCMapOutdoor@@XZ ; CMapManager::GetMapOutdoorRef

; 522  : 	return rkMap.GetAttr(fX, fY, pbyAttr);

  0001b	ff 75 10	 push	 DWORD PTR _pbyAttr$[ebp]
  0001e	f3 0f 10 45 0c	 movss	 xmm0, DWORD PTR _fY$[ebp]
  00023	8b c8		 mov	 ecx, eax
  00025	83 ec 08	 sub	 esp, 8
  00028	f3 0f 11 44 24
	04		 movss	 DWORD PTR [esp+4], xmm0
  0002e	f3 0f 10 45 08	 movss	 xmm0, DWORD PTR _fX$[ebp]
  00033	f3 0f 11 04 24	 movss	 DWORD PTR [esp], xmm0
  00038	e8 00 00 00 00	 call	 ?GetAttr@CMapOutdoor@@QAE_NMMPAE@Z ; CMapOutdoor::GetAttr
  0003d	5e		 pop	 esi

; 523  : }

  0003e	5d		 pop	 ebp
  0003f	c2 0c 00	 ret	 12			; 0000000cH
?GetAttr@CMapManager@@QAE_NMMPAE@Z ENDP			; CMapManager::GetAttr
_TEXT	ENDS
; Function compile flags: /Ogtp
; File C:\Users\murat\Desktop\Siveps2-1-99-Project\source\client\Client\GameLib\MapManager.cpp
;	COMDAT ?isAttrOn@CMapManager@@QAE_NMME@Z
_TEXT	SEGMENT
_fX$ = 8						; size = 4
_fY$ = 12						; size = 4
_byAttr$ = 16						; size = 1
?isAttrOn@CMapManager@@QAE_NMME@Z PROC			; CMapManager::isAttrOn, COMDAT
; _this$ = ecx

; 508  : {

  00000	55		 push	 ebp
  00001	8b ec		 mov	 ebp, esp
  00003	56		 push	 esi
  00004	8b f1		 mov	 esi, ecx

; 509  : 	if (!IsMapReady())

  00006	e8 00 00 00 00	 call	 ?IsMapReady@CMapManager@@QAE_NXZ ; CMapManager::IsMapReady
  0000b	84 c0		 test	 al, al
  0000d	75 05		 jne	 SHORT $LN2@isAttrOn
  0000f	5e		 pop	 esi

; 514  : }

  00010	5d		 pop	 ebp
  00011	c2 0c 00	 ret	 12			; 0000000cH
$LN2@isAttrOn:

; 510  : 		return false;
; 511  : 
; 512  : 	CMapOutdoor& rkMap=GetMapOutdoorRef();

  00014	8b ce		 mov	 ecx, esi
  00016	e8 00 00 00 00	 call	 ?GetMapOutdoorRef@CMapManager@@QAEAAVCMapOutdoor@@XZ ; CMapManager::GetMapOutdoorRef

; 513  : 	return rkMap.isAttrOn(fX, fY, byAttr);

  0001b	ff 75 10	 push	 DWORD PTR _byAttr$[ebp]
  0001e	f3 0f 10 45 0c	 movss	 xmm0, DWORD PTR _fY$[ebp]
  00023	8b c8		 mov	 ecx, eax
  00025	83 ec 08	 sub	 esp, 8
  00028	f3 0f 11 44 24
	04		 movss	 DWORD PTR [esp+4], xmm0
  0002e	f3 0f 10 45 08	 movss	 xmm0, DWORD PTR _fX$[ebp]
  00033	f3 0f 11 04 24	 movss	 DWORD PTR [esp], xmm0
  00038	e8 00 00 00 00	 call	 ?isAttrOn@CMapOutdoor@@QAE_NMME@Z ; CMapOutdoor::isAttrOn
  0003d	5e		 pop	 esi

; 514  : }

  0003e	5d		 pop	 ebp
  0003f	c2 0c 00	 ret	 12			; 0000000cH
?isAttrOn@CMapManager@@QAE_NMME@Z ENDP			; CMapManager::isAttrOn
_TEXT	ENDS
; Function compile flags: /Ogtp
; File C:\Users\murat\Desktop\Siveps2-1-99-Project\source\client\Client\GameLib\MapManager.cpp
;	COMDAT ?isPhysicalCollision@CMapManager@@UAE_NABUD3DXVECTOR3@@@Z
_TEXT	SEGMENT
_c_rvCheckPosition$ = 8					; size = 4
?isPhysicalCollision@CMapManager@@UAE_NABUD3DXVECTOR3@@@Z PROC ; CMapManager::isPhysicalCollision, COMDAT
; _this$ = ecx

; 499  : {

  00000	55		 push	 ebp
  00001	8b ec		 mov	 ebp, esp
  00003	56		 push	 esi

; 500  : 	if (!IsMapReady())

  00004	8d 71 fc	 lea	 esi, DWORD PTR [ecx-4]
  00007	8b ce		 mov	 ecx, esi
  00009	e8 00 00 00 00	 call	 ?IsMapReady@CMapManager@@QAE_NXZ ; CMapManager::IsMapReady
  0000e	84 c0		 test	 al, al
  00010	75 05		 jne	 SHORT $LN2@isPhysical
  00012	5e		 pop	 esi

; 505  : }

  00013	5d		 pop	 ebp
  00014	c2 04 00	 ret	 4
$LN2@isPhysical:

; 501  : 		return false;
; 502  : 
; 503  : 	CMapOutdoor& rkMap=GetMapOutdoorRef();

  00017	8b ce		 mov	 ecx, esi
  00019	e8 00 00 00 00	 call	 ?GetMapOutdoorRef@CMapManager@@QAEAAVCMapOutdoor@@XZ ; CMapManager::GetMapOutdoorRef

; 504  : 	return rkMap.isAttrOn(c_rvCheckPosition.x, -c_rvCheckPosition.y, CTerrainImpl::ATTRIBUTE_BLOCK);

  0001e	8b 4d 08	 mov	 ecx, DWORD PTR _c_rvCheckPosition$[ebp]
  00021	6a 01		 push	 1
  00023	83 ec 08	 sub	 esp, 8
  00026	f3 0f 10 41 04	 movss	 xmm0, DWORD PTR [ecx+4]
  0002b	0f 57 05 00 00
	00 00		 xorps	 xmm0, DWORD PTR __xmm@80000000800000008000000080000000
  00032	f3 0f 11 44 24
	04		 movss	 DWORD PTR [esp+4], xmm0
  00038	f3 0f 10 01	 movss	 xmm0, DWORD PTR [ecx]
  0003c	8b c8		 mov	 ecx, eax
  0003e	f3 0f 11 04 24	 movss	 DWORD PTR [esp], xmm0
  00043	e8 00 00 00 00	 call	 ?isAttrOn@CMapOutdoor@@QAE_NMME@Z ; CMapOutdoor::isAttrOn
  00048	5e		 pop	 esi

; 505  : }

  00049	5d		 pop	 ebp
  0004a	c2 04 00	 ret	 4
?isPhysicalCollision@CMapManager@@UAE_NABUD3DXVECTOR3@@@Z ENDP ; CMapManager::isPhysicalCollision
_TEXT	ENDS
; Function compile flags: /Ogtp
; File C:\Users\murat\Desktop\Siveps2-1-99-Project\source\client\Client\GameLib\MapManager.cpp
;	COMDAT ?GetShadowMapColor@CMapManager@@QAEKMM@Z
_TEXT	SEGMENT
_fx$ = 8						; size = 4
_fy$ = 12						; size = 4
?GetShadowMapColor@CMapManager@@QAEKMM@Z PROC		; CMapManager::GetShadowMapColor, COMDAT
; _this$ = ecx

; 453  : {

  00000	55		 push	 ebp
  00001	8b ec		 mov	 ebp, esp
  00003	56		 push	 esi
  00004	8b f1		 mov	 esi, ecx

; 454  : 	if (!IsMapReady())

  00006	e8 00 00 00 00	 call	 ?IsMapReady@CMapManager@@QAE_NXZ ; CMapManager::IsMapReady
  0000b	84 c0		 test	 al, al
  0000d	75 08		 jne	 SHORT $LN2@GetShadowM

; 455  : 		return 0xFFFFFFFF;

  0000f	83 c8 ff	 or	 eax, -1
  00012	5e		 pop	 esi

; 459  : }

  00013	5d		 pop	 ebp
  00014	c2 08 00	 ret	 8
$LN2@GetShadowM:

; 456  : 
; 457  : 	CMapOutdoor& rkMap=GetMapOutdoorRef();

  00017	8b ce		 mov	 ecx, esi
  00019	e8 00 00 00 00	 call	 ?GetMapOutdoorRef@CMapManager@@QAEAAVCMapOutdoor@@XZ ; CMapManager::GetMapOutdoorRef

; 458  : 	return rkMap.GetShadowMapColor(fx, fy);

  0001e	f3 0f 10 45 0c	 movss	 xmm0, DWORD PTR _fy$[ebp]
  00023	83 ec 08	 sub	 esp, 8
  00026	8b c8		 mov	 ecx, eax
  00028	f3 0f 11 44 24
	04		 movss	 DWORD PTR [esp+4], xmm0
  0002e	f3 0f 10 45 08	 movss	 xmm0, DWORD PTR _fx$[ebp]
  00033	f3 0f 11 04 24	 movss	 DWORD PTR [esp], xmm0
  00038	e8 00 00 00 00	 call	 ?GetShadowMapColor@CMapOutdoor@@QAEKMM@Z ; CMapOutdoor::GetShadowMapColor
  0003d	5e		 pop	 esi

; 459  : }

  0003e	5d		 pop	 ebp
  0003f	c2 08 00	 ret	 8
?GetShadowMapColor@CMapManager@@QAEKMM@Z ENDP		; CMapManager::GetShadowMapColor
_TEXT	ENDS
; Function compile flags: /Ogtp
; File C:\Users\murat\Desktop\Siveps2-1-99-Project\source\client\Client\GameLib\MapManager.cpp
;	COMDAT ?LoadProperty@CMapManager@@QAEXXZ
_TEXT	SEGMENT
_PropertyLoader$ = -348					; size = 332
__$ArrayPad$ = -16					; size = 4
__$EHRec$ = -12						; size = 12
?LoadProperty@CMapManager@@QAEXXZ PROC			; CMapManager::LoadProperty, COMDAT
; _this$ = ecx

; 104  : {

  00000	55		 push	 ebp
  00001	8b ec		 mov	 ebp, esp
  00003	6a ff		 push	 -1
  00005	68 00 00 00 00	 push	 __ehhandler$?LoadProperty@CMapManager@@QAEXXZ
  0000a	64 a1 00 00 00
	00		 mov	 eax, DWORD PTR fs:0
  00010	50		 push	 eax
  00011	81 ec 50 01 00
	00		 sub	 esp, 336		; 00000150H
  00017	a1 00 00 00 00	 mov	 eax, DWORD PTR ___security_cookie
  0001c	33 c5		 xor	 eax, ebp
  0001e	89 45 f0	 mov	 DWORD PTR __$ArrayPad$[ebp], eax
  00021	56		 push	 esi
  00022	50		 push	 eax
  00023	8d 45 f4	 lea	 eax, DWORD PTR __$EHRec$[ebp]
  00026	64 a3 00 00 00
	00		 mov	 DWORD PTR fs:0, eax
  0002c	8b f1		 mov	 esi, ecx

; 105  : 	CPropertyLoader PropertyLoader;

  0002e	8d 8d a4 fe ff
	ff		 lea	 ecx, DWORD PTR _PropertyLoader$[ebp]
  00034	e8 00 00 00 00	 call	 ??0CPropertyLoader@@QAE@XZ ; CPropertyLoader::CPropertyLoader

; 106  : 	PropertyLoader.SetPropertyManager(&m_PropertyManager);

  00039	8d 46 08	 lea	 eax, DWORD PTR [esi+8]
  0003c	c7 45 fc 00 00
	00 00		 mov	 DWORD PTR __$EHRec$[ebp+8], 0
  00043	50		 push	 eax
  00044	8d 8d a4 fe ff
	ff		 lea	 ecx, DWORD PTR _PropertyLoader$[ebp]
  0004a	e8 00 00 00 00	 call	 ?SetPropertyManager@CPropertyLoader@@QAEXPAVCPropertyManager@@@Z ; CPropertyLoader::SetPropertyManager

; 107  : 	PropertyLoader.Create("*.*", "Property");

  0004f	6a 00		 push	 0
  00051	68 00 00 00 00	 push	 OFFSET ??_C@_08MOOMJPBO@Property@
  00056	68 00 00 00 00	 push	 OFFSET ??_C@_03EMIMMIHL@?$CK?4?$CK@
  0005b	8d 8d a4 fe ff
	ff		 lea	 ecx, DWORD PTR _PropertyLoader$[ebp]
  00061	e8 00 00 00 00	 call	 ?Create@CDir@@QAE_NPBD0H@Z ; CDir::Create

; 108  : }

  00066	8d 8d a4 fe ff
	ff		 lea	 ecx, DWORD PTR _PropertyLoader$[ebp]
  0006c	e8 00 00 00 00	 call	 ??1CPropertyLoader@@UAE@XZ ; CPropertyLoader::~CPropertyLoader
  00071	8b 4d f4	 mov	 ecx, DWORD PTR __$EHRec$[ebp]
  00074	64 89 0d 00 00
	00 00		 mov	 DWORD PTR fs:0, ecx
  0007b	59		 pop	 ecx
  0007c	5e		 pop	 esi
  0007d	8b 4d f0	 mov	 ecx, DWORD PTR __$ArrayPad$[ebp]
  00080	33 cd		 xor	 ecx, ebp
  00082	e8 00 00 00 00	 call	 @__security_check_cookie@4
  00087	8b e5		 mov	 esp, ebp
  00089	5d		 pop	 ebp
  0008a	c3		 ret	 0
_TEXT	ENDS
;	COMDAT text$x
text$x	SEGMENT
__unwindfunclet$?LoadProperty@CMapManager@@QAEXXZ$0:
  00000	8d 8d a4 fe ff
	ff		 lea	 ecx, DWORD PTR _PropertyLoader$[ebp]
  00006	e9 00 00 00 00	 jmp	 ??1CPropertyLoader@@UAE@XZ ; CPropertyLoader::~CPropertyLoader
  0000b	cc		 int	 3
  0000c	cc		 int	 3
  0000d	cc		 int	 3
  0000e	cc		 int	 3
  0000f	cc		 int	 3
__ehhandler$?LoadProperty@CMapManager@@QAEXXZ:
  00010	90		 npad	 1
  00011	90		 npad	 1
  00012	8b 54 24 08	 mov	 edx, DWORD PTR [esp+8]
  00016	8d 42 0c	 lea	 eax, DWORD PTR [edx+12]
  00019	8b 8a a8 fe ff
	ff		 mov	 ecx, DWORD PTR [edx-344]
  0001f	33 c8		 xor	 ecx, eax
  00021	e8 00 00 00 00	 call	 @__security_check_cookie@4
  00026	8b 4a fc	 mov	 ecx, DWORD PTR [edx-4]
  00029	33 c8		 xor	 ecx, eax
  0002b	e8 00 00 00 00	 call	 @__security_check_cookie@4
  00030	b8 00 00 00 00	 mov	 eax, OFFSET __ehfuncinfo$?LoadProperty@CMapManager@@QAEXXZ
  00035	e9 00 00 00 00	 jmp	 ___CxxFrameHandler3
text$x	ENDS
?LoadProperty@CMapManager@@QAEXXZ ENDP			; CMapManager::LoadProperty
; Function compile flags: /Ogtp
; File C:\Users\murat\Desktop\Siveps2-1-99-Project\source\client\Client\GameLib\MapManager.cpp
;	COMDAT ?AddShowingPortalID@CMapManager@@QAEXH@Z
_TEXT	SEGMENT
_pArea$1 = 8						; size = 4
_iID$ = 8						; size = 4
?AddShowingPortalID@CMapManager@@QAEXH@Z PROC		; CMapManager::AddShowingPortalID, COMDAT
; _this$ = ecx

; 416  : {

  00000	55		 push	 ebp
  00001	8b ec		 mov	 ebp, esp
  00003	56		 push	 esi
  00004	8b f1		 mov	 esi, ecx

; 417  : 	if (!IsMapReady())

  00006	e8 00 00 00 00	 call	 ?IsMapReady@CMapManager@@QAE_NXZ ; CMapManager::IsMapReady
  0000b	84 c0		 test	 al, al
  0000d	74 32		 je	 SHORT $LN3@AddShowing

; 418  : 		return;
; 419  : 
; 420  : 	CMapOutdoor & rMap = GetMapOutdoorRef();

  0000f	53		 push	 ebx
  00010	57		 push	 edi
  00011	8b ce		 mov	 ecx, esi
  00013	e8 00 00 00 00	 call	 ?GetMapOutdoorRef@CMapManager@@QAEAAVCMapOutdoor@@XZ ; CMapManager::GetMapOutdoorRef

; 421  : 	for (int i = 0; i < AROUND_AREA_NUM; ++i)

  00018	8b 7d 08	 mov	 edi, DWORD PTR _iID$[ebp]
  0001b	8b d8		 mov	 ebx, eax
  0001d	33 f6		 xor	 esi, esi
  0001f	90		 npad	 1
$LL4@AddShowing:

; 422  : 	{
; 423  : 		CArea * pArea;
; 424  : 		if (!rMap.GetAreaPointer(i, &pArea))

  00020	8d 45 08	 lea	 eax, DWORD PTR _pArea$1[ebp]
  00023	8b cb		 mov	 ecx, ebx
  00025	50		 push	 eax
  00026	56		 push	 esi
  00027	e8 00 00 00 00	 call	 ?GetAreaPointer@CMapOutdoor@@QAEHEPAPAVCArea@@@Z ; CMapOutdoor::GetAreaPointer
  0002c	85 c0		 test	 eax, eax
  0002e	74 09		 je	 SHORT $LN2@AddShowing

; 425  : 			continue;
; 426  : 
; 427  : 		pArea->AddShowingPortalID(iID);

  00030	8b 4d 08	 mov	 ecx, DWORD PTR _pArea$1[ebp]
  00033	57		 push	 edi
  00034	e8 00 00 00 00	 call	 ?AddShowingPortalID@CArea@@QAEXH@Z ; CArea::AddShowingPortalID
$LN2@AddShowing:

; 421  : 	for (int i = 0; i < AROUND_AREA_NUM; ++i)

  00039	46		 inc	 esi
  0003a	83 fe 09	 cmp	 esi, 9
  0003d	7c e1		 jl	 SHORT $LL4@AddShowing
  0003f	5f		 pop	 edi
  00040	5b		 pop	 ebx
$LN3@AddShowing:
  00041	5e		 pop	 esi

; 428  : 	}
; 429  : }

  00042	5d		 pop	 ebp
  00043	c2 04 00	 ret	 4
?AddShowingPortalID@CMapManager@@QAEXH@Z ENDP		; CMapManager::AddShowingPortalID
_TEXT	ENDS
; Function compile flags: /Ogtp
; File C:\Users\murat\Desktop\Siveps2-1-99-Project\source\client\Client\GameLib\MapManager.cpp
;	COMDAT ?ClearPortal@CMapManager@@QAEXXZ
_TEXT	SEGMENT
_pArea$1 = -4						; size = 4
?ClearPortal@CMapManager@@QAEXXZ PROC			; CMapManager::ClearPortal, COMDAT
; _this$ = ecx

; 400  : {

  00000	55		 push	 ebp
  00001	8b ec		 mov	 ebp, esp
  00003	51		 push	 ecx
  00004	56		 push	 esi
  00005	8b f1		 mov	 esi, ecx

; 401  : 	if (!IsMapReady())

  00007	e8 00 00 00 00	 call	 ?IsMapReady@CMapManager@@QAE_NXZ ; CMapManager::IsMapReady
  0000c	84 c0		 test	 al, al
  0000e	74 2f		 je	 SHORT $LN3@ClearPorta

; 402  : 		return;
; 403  : 
; 404  : 	CMapOutdoor & rMap = GetMapOutdoorRef();

  00010	57		 push	 edi
  00011	8b ce		 mov	 ecx, esi
  00013	e8 00 00 00 00	 call	 ?GetMapOutdoorRef@CMapManager@@QAEAAVCMapOutdoor@@XZ ; CMapManager::GetMapOutdoorRef
  00018	8b f8		 mov	 edi, eax

; 405  : 	for (int i = 0; i < AROUND_AREA_NUM; ++i)

  0001a	33 f6		 xor	 esi, esi
  0001c	0f 1f 40 00	 npad	 4
$LL4@ClearPorta:

; 406  : 	{
; 407  : 		CArea * pArea;
; 408  : 		if (!rMap.GetAreaPointer(i, &pArea))

  00020	8d 45 fc	 lea	 eax, DWORD PTR _pArea$1[ebp]
  00023	8b cf		 mov	 ecx, edi
  00025	50		 push	 eax
  00026	56		 push	 esi
  00027	e8 00 00 00 00	 call	 ?GetAreaPointer@CMapOutdoor@@QAEHEPAPAVCArea@@@Z ; CMapOutdoor::GetAreaPointer
  0002c	85 c0		 test	 eax, eax
  0002e	74 08		 je	 SHORT $LN2@ClearPorta

; 409  : 			continue;
; 410  : 
; 411  : 		pArea->ClearPortal();

  00030	8b 4d fc	 mov	 ecx, DWORD PTR _pArea$1[ebp]
  00033	e8 00 00 00 00	 call	 ?ClearPortal@CArea@@QAEXXZ ; CArea::ClearPortal
$LN2@ClearPorta:

; 405  : 	for (int i = 0; i < AROUND_AREA_NUM; ++i)

  00038	46		 inc	 esi
  00039	83 fe 09	 cmp	 esi, 9
  0003c	7c e2		 jl	 SHORT $LL4@ClearPorta
  0003e	5f		 pop	 edi
$LN3@ClearPorta:
  0003f	5e		 pop	 esi

; 412  : 	}
; 413  : }

  00040	8b e5		 mov	 esp, ebp
  00042	5d		 pop	 ebp
  00043	c3		 ret	 0
?ClearPortal@CMapManager@@QAEXXZ ENDP			; CMapManager::ClearPortal
_TEXT	ENDS
; Function compile flags: /Ogtp
; File C:\Users\murat\Desktop\Siveps2-1-99-Project\source\client\Client\GameLib\MapManager.cpp
;	COMDAT ?RefreshPortal@CMapManager@@QAEXXZ
_TEXT	SEGMENT
_pArea$1 = -4						; size = 4
?RefreshPortal@CMapManager@@QAEXXZ PROC			; CMapManager::RefreshPortal, COMDAT
; _this$ = ecx

; 384  : {

  00000	55		 push	 ebp
  00001	8b ec		 mov	 ebp, esp
  00003	51		 push	 ecx
  00004	56		 push	 esi
  00005	8b f1		 mov	 esi, ecx

; 385  : 	if (!IsMapReady())

  00007	e8 00 00 00 00	 call	 ?IsMapReady@CMapManager@@QAE_NXZ ; CMapManager::IsMapReady
  0000c	84 c0		 test	 al, al
  0000e	74 2f		 je	 SHORT $LN3@RefreshPor

; 386  : 		return;
; 387  : 
; 388  : 	CMapOutdoor & rMap = GetMapOutdoorRef();

  00010	57		 push	 edi
  00011	8b ce		 mov	 ecx, esi
  00013	e8 00 00 00 00	 call	 ?GetMapOutdoorRef@CMapManager@@QAEAAVCMapOutdoor@@XZ ; CMapManager::GetMapOutdoorRef
  00018	8b f8		 mov	 edi, eax

; 389  : 	for (int i = 0; i < AROUND_AREA_NUM; ++i)

  0001a	33 f6		 xor	 esi, esi
  0001c	0f 1f 40 00	 npad	 4
$LL4@RefreshPor:

; 390  : 	{
; 391  : 		CArea * pArea;
; 392  : 		if (!rMap.GetAreaPointer(i, &pArea))

  00020	8d 45 fc	 lea	 eax, DWORD PTR _pArea$1[ebp]
  00023	8b cf		 mov	 ecx, edi
  00025	50		 push	 eax
  00026	56		 push	 esi
  00027	e8 00 00 00 00	 call	 ?GetAreaPointer@CMapOutdoor@@QAEHEPAPAVCArea@@@Z ; CMapOutdoor::GetAreaPointer
  0002c	85 c0		 test	 eax, eax
  0002e	74 08		 je	 SHORT $LN2@RefreshPor

; 393  : 			continue;
; 394  : 
; 395  : 		pArea->RefreshPortal();

  00030	8b 4d fc	 mov	 ecx, DWORD PTR _pArea$1[ebp]
  00033	e8 00 00 00 00	 call	 ?RefreshPortal@CArea@@QAEXXZ ; CArea::RefreshPortal
$LN2@RefreshPor:

; 389  : 	for (int i = 0; i < AROUND_AREA_NUM; ++i)

  00038	46		 inc	 esi
  00039	83 fe 09	 cmp	 esi, 9
  0003c	7c e2		 jl	 SHORT $LL4@RefreshPor
  0003e	5f		 pop	 edi
$LN3@RefreshPor:
  0003f	5e		 pop	 esi

; 396  : 	}
; 397  : }

  00040	8b e5		 mov	 esp, ebp
  00042	5d		 pop	 ebp
  00043	c3		 ret	 0
?RefreshPortal@CMapManager@@QAEXXZ ENDP			; CMapManager::RefreshPortal
_TEXT	ENDS
; Function compile flags: /Ogtp
; File C:\Users\murat\Desktop\Siveps2-1-99-Project\source\client\Client\GameLib\MapManager.cpp
; File C:\Program Files (x86)\Microsoft Visual Studio\2019\Professional\VC\Tools\MSVC\14.29.30133\include\xtree
; File C:\Users\murat\Desktop\Siveps2-1-99-Project\source\client\Client\GameLib\MapManager.cpp
; File C:\Program Files (x86)\Microsoft Visual Studio\2019\Professional\VC\Tools\MSVC\14.29.30133\include\xtree
; File C:\Program Files (x86)\Microsoft Visual Studio\2019\Professional\VC\Tools\MSVC\14.29.30133\include\xstddef
; File C:\Program Files (x86)\Microsoft Visual Studio\2019\Professional\VC\Tools\MSVC\14.29.30133\include\xtree
; File C:\Users\murat\Desktop\Siveps2-1-99-Project\source\client\Client\GameLib\MapManager.cpp
;	COMDAT ?GetEnvironmentData@CMapManager@@QAE_NKPAPBUSEnvironmentData@@@Z
_TEXT	SEGMENT
__Loc$1 = -12						; size = 12
_dwIndex$ = 8						; size = 4
_c_ppEnvironmentData$ = 12				; size = 4
?GetEnvironmentData@CMapManager@@QAE_NKPAPBUSEnvironmentData@@@Z PROC ; CMapManager::GetEnvironmentData, COMDAT
; _this$ = ecx

; 370  : {

  00000	55		 push	 ebp
  00001	8b ec		 mov	 ebp, esp
  00003	83 ec 0c	 sub	 esp, 12			; 0000000cH
  00006	56		 push	 esi
; File C:\Program Files (x86)\Microsoft Visual Studio\2019\Professional\VC\Tools\MSVC\14.29.30133\include\xtree

; 1361 :         const _Tree_find_result<_Nodeptr> _Loc = _Find_lower_bound(_Keyval);

  00007	8d 45 08	 lea	 eax, DWORD PTR _dwIndex$[ebp]
  0000a	50		 push	 eax
; File C:\Users\murat\Desktop\Siveps2-1-99-Project\source\client\Client\GameLib\MapManager.cpp

; 371  : 	TEnvironmentDataMap::iterator itor = m_EnvironmentDataMap.find(dwIndex);

  0000b	8d b1 24 14 00
	00		 lea	 esi, DWORD PTR [ecx+5156]
; File C:\Program Files (x86)\Microsoft Visual Studio\2019\Professional\VC\Tools\MSVC\14.29.30133\include\xtree

; 1361 :         const _Tree_find_result<_Nodeptr> _Loc = _Find_lower_bound(_Keyval);

  00011	8d 45 f4	 lea	 eax, DWORD PTR __Loc$1[ebp]
  00014	8b ce		 mov	 ecx, esi
  00016	50		 push	 eax
  00017	e8 00 00 00 00	 call	 ??$_Find_lower_bound@K@?$_Tree@V?$_Tmap_traits@KPAUSEnvironmentData@@U?$less@K@std@@V?$allocator@U?$pair@$$CBKPAUSEnvironmentData@@@std@@@3@$0A@@std@@@std@@IBE?AU?$_Tree_find_result@PAU?$_Tree_node@U?$pair@$$CBKPAUSEnvironmentData@@@std@@PAX@std@@@1@ABK@Z ; std::_Tree<std::_Tmap_traits<unsigned long,SEnvironmentData *,std::less<unsigned long>,std::allocator<std::pair<unsigned long const ,SEnvironmentData *> >,0> >::_Find_lower_bound<unsigned long>

; 1599 :         return !_Bound->_Isnil && !_DEBUG_LT_PRED(_Getcomp(), _Keyval, _Traits::_Kfn(_Bound->_Myval));

  0001c	8b 4d fc	 mov	 ecx, DWORD PTR __Loc$1[ebp+8]
  0001f	80 79 0d 00	 cmp	 BYTE PTR [ecx+13], 0
  00023	75 1d		 jne	 SHORT $LN38@GetEnviron
; File C:\Program Files (x86)\Microsoft Visual Studio\2019\Professional\VC\Tools\MSVC\14.29.30133\include\xstddef

; 127  :         return _Left < _Right;

  00025	8b 45 08	 mov	 eax, DWORD PTR _dwIndex$[ebp]
  00028	3b 41 10	 cmp	 eax, DWORD PTR [ecx+16]
; File C:\Program Files (x86)\Microsoft Visual Studio\2019\Professional\VC\Tools\MSVC\14.29.30133\include\xtree

; 1599 :         return !_Bound->_Isnil && !_DEBUG_LT_PRED(_Getcomp(), _Keyval, _Traits::_Kfn(_Bound->_Myval));

  0002b	72 15		 jb	 SHORT $LN38@GetEnviron

; 236  :         return this->_Ptr == _Right._Ptr;

  0002d	39 0e		 cmp	 DWORD PTR [esi], ecx
; File C:\Users\murat\Desktop\Siveps2-1-99-Project\source\client\Client\GameLib\MapManager.cpp

; 373  : 	if (m_EnvironmentDataMap.end() == itor)

  0002f	74 11		 je	 SHORT $LN38@GetEnviron

; 377  : 	}
; 378  : 
; 379  : 	*c_ppEnvironmentData = itor->second;

  00031	8b 45 0c	 mov	 eax, DWORD PTR _c_ppEnvironmentData$[ebp]
  00034	8b 49 14	 mov	 ecx, DWORD PTR [ecx+20]
  00037	5e		 pop	 esi
  00038	89 08		 mov	 DWORD PTR [eax], ecx

; 380  : 	return true;

  0003a	b0 01		 mov	 al, 1

; 381  : }

  0003c	8b e5		 mov	 esp, ebp
  0003e	5d		 pop	 ebp
  0003f	c2 08 00	 ret	 8
$LN38@GetEnviron:

; 374  : 	{
; 375  : 		*c_ppEnvironmentData = NULL;

  00042	8b 45 0c	 mov	 eax, DWORD PTR _c_ppEnvironmentData$[ebp]
  00045	5e		 pop	 esi
  00046	c7 00 00 00 00
	00		 mov	 DWORD PTR [eax], 0

; 376  : 		return false;

  0004c	32 c0		 xor	 al, al

; 381  : }

  0004e	8b e5		 mov	 esp, ebp
  00050	5d		 pop	 ebp
  00051	c2 08 00	 ret	 8
?GetEnvironmentData@CMapManager@@QAE_NKPAPBUSEnvironmentData@@@Z ENDP ; CMapManager::GetEnvironmentData
_TEXT	ENDS
; Function compile flags: /Ogtp
; File C:\Users\murat\Desktop\Siveps2-1-99-Project\source\client\Client\GameLib\MapManager.cpp
; File C:\Program Files (x86)\Microsoft Visual Studio\2019\Professional\VC\Tools\MSVC\14.29.30133\include\xtree
; File C:\Users\murat\Desktop\Siveps2-1-99-Project\source\client\Client\GameLib\MapManager.cpp
; File C:\Program Files (x86)\Microsoft Visual Studio\2019\Professional\VC\Tools\MSVC\14.29.30133\include\xtree
; File C:\Program Files (x86)\Microsoft Visual Studio\2019\Professional\VC\Tools\MSVC\14.29.30133\include\xstddef
; File C:\Program Files (x86)\Microsoft Visual Studio\2019\Professional\VC\Tools\MSVC\14.29.30133\include\xtree
; File C:\Users\murat\Desktop\Siveps2-1-99-Project\source\client\Client\GameLib\MapManager.cpp
; File C:\Program Files (x86)\Microsoft Visual Studio\2019\Professional\VC\Tools\MSVC\14.29.30133\include\utility
; File C:\Program Files (x86)\Microsoft Visual Studio\2019\Professional\VC\Tools\MSVC\14.29.30133\include\xtree
; File C:\Program Files (x86)\Microsoft Visual Studio\2019\Professional\VC\Tools\MSVC\14.29.30133\include\utility
; File C:\Program Files (x86)\Microsoft Visual Studio\2019\Professional\VC\Tools\MSVC\14.29.30133\include\xtree
; File C:\Program Files (x86)\Microsoft Visual Studio\2019\Professional\VC\Tools\MSVC\14.29.30133\include\utility
; File C:\Program Files (x86)\Microsoft Visual Studio\2019\Professional\VC\Tools\MSVC\14.29.30133\include\xtree
; File C:\Program Files (x86)\Microsoft Visual Studio\2019\Professional\VC\Tools\MSVC\14.29.30133\include\xstddef
; File C:\Program Files (x86)\Microsoft Visual Studio\2019\Professional\VC\Tools\MSVC\14.29.30133\include\xtree
; File C:\Program Files (x86)\Microsoft Visual Studio\2019\Professional\VC\Tools\MSVC\14.29.30133\include\xmemory
; File C:\Program Files (x86)\Microsoft Visual Studio\2019\Professional\VC\Tools\MSVC\14.29.30133\include\xtree
; File C:\Program Files (x86)\Microsoft Visual Studio\2019\Professional\VC\Tools\MSVC\14.29.30133\include\xmemory
; File C:\Program Files (x86)\Microsoft Visual Studio\2019\Professional\VC\Tools\MSVC\14.29.30133\include\xtree
; File C:\Program Files (x86)\Microsoft Visual Studio\2019\Professional\VC\Tools\MSVC\14.29.30133\include\xmemory
; File C:\Program Files (x86)\Microsoft Visual Studio\2019\Professional\VC\Tools\MSVC\14.29.30133\include\xtree
; File C:\Users\murat\Desktop\Siveps2-1-99-Project\source\client\Client\GameLib\MapManager.cpp
; File C:\Program Files (x86)\Microsoft Visual Studio\2019\Professional\VC\Tools\MSVC\14.29.30133\include\xtree
; File C:\Users\murat\Desktop\Siveps2-1-99-Project\source\client\Client\GameLib\MapManager.cpp
;	COMDAT ?RegisterEnvironmentData@CMapManager@@QAE_NKPBD@Z
_TEXT	SEGMENT
$T2 = -44						; size = 12
__Loc$3 = -32						; size = 12
__Loc$4 = -32						; size = 12
$T5 = -20						; size = 8
$T6 = -20						; size = 8
__$EHRec$ = -12						; size = 12
_dwIndex$ = 8						; size = 4
__Myhead$1$ = 12					; size = 4
_c_szFileName$ = 12					; size = 4
?RegisterEnvironmentData@CMapManager@@QAE_NKPBD@Z PROC	; CMapManager::RegisterEnvironmentData, COMDAT
; _this$ = ecx

; 342  : {

  00000	55		 push	 ebp
  00001	8b ec		 mov	 ebp, esp
  00003	6a ff		 push	 -1
  00005	68 00 00 00 00	 push	 __ehhandler$?RegisterEnvironmentData@CMapManager@@QAE_NKPBD@Z
  0000a	64 a1 00 00 00
	00		 mov	 eax, DWORD PTR fs:0
  00010	50		 push	 eax
  00011	83 ec 20	 sub	 esp, 32			; 00000020H
  00014	53		 push	 ebx
  00015	56		 push	 esi
  00016	57		 push	 edi
  00017	a1 00 00 00 00	 mov	 eax, DWORD PTR ___security_cookie
  0001c	33 c5		 xor	 eax, ebp
  0001e	50		 push	 eax
  0001f	8d 45 f4	 lea	 eax, DWORD PTR __$EHRec$[ebp]
  00022	64 a3 00 00 00
	00		 mov	 DWORD PTR fs:0, eax
  00028	8b f9		 mov	 edi, ecx

; 343  : 	TEnvironmentData * pEnvironmentData = AllocEnvironmentData();

  0002a	e8 00 00 00 00	 call	 ?AllocEnvironmentData@CMapManager@@IAEPAUSEnvironmentData@@XZ ; CMapManager::AllocEnvironmentData
  0002f	8b d8		 mov	 ebx, eax

; 344  : 
; 345  : 	if (!LoadEnvironmentData(c_szFileName, pEnvironmentData))

  00031	8b cf		 mov	 ecx, edi
  00033	53		 push	 ebx
  00034	ff 75 0c	 push	 DWORD PTR _c_szFileName$[ebp]
  00037	e8 00 00 00 00	 call	 ?LoadEnvironmentData@CMapManager@@IAEHPBDPAUSEnvironmentData@@@Z ; CMapManager::LoadEnvironmentData
  0003c	85 c0		 test	 eax, eax
  0003e	75 1e		 jne	 SHORT $LN2@RegisterEn

; 346  : 	{
; 347  : 		DeleteEnvironmentData(pEnvironmentData);

  00040	53		 push	 ebx
  00041	8b cf		 mov	 ecx, edi
  00043	e8 00 00 00 00	 call	 ?DeleteEnvironmentData@CMapManager@@IAEXPAUSEnvironmentData@@@Z ; CMapManager::DeleteEnvironmentData

; 348  : 		return false;

  00048	32 c0		 xor	 al, al

; 362  : }

  0004a	8b 4d f4	 mov	 ecx, DWORD PTR __$EHRec$[ebp]
  0004d	64 89 0d 00 00
	00 00		 mov	 DWORD PTR fs:0, ecx
  00054	59		 pop	 ecx
  00055	5f		 pop	 edi
  00056	5e		 pop	 esi
  00057	5b		 pop	 ebx
  00058	8b e5		 mov	 esp, ebp
  0005a	5d		 pop	 ebp
  0005b	c2 08 00	 ret	 8
$LN2@RegisterEn:
; File C:\Program Files (x86)\Microsoft Visual Studio\2019\Professional\VC\Tools\MSVC\14.29.30133\include\xtree

; 1361 :         const _Tree_find_result<_Nodeptr> _Loc = _Find_lower_bound(_Keyval);

  0005e	8d 45 08	 lea	 eax, DWORD PTR _dwIndex$[ebp]
; File C:\Users\murat\Desktop\Siveps2-1-99-Project\source\client\Client\GameLib\MapManager.cpp

; 351  : 	TEnvironmentDataMap::iterator f=m_EnvironmentDataMap.find(dwIndex);

  00061	81 c7 24 14 00
	00		 add	 edi, 5156		; 00001424H
; File C:\Program Files (x86)\Microsoft Visual Studio\2019\Professional\VC\Tools\MSVC\14.29.30133\include\xtree

; 1361 :         const _Tree_find_result<_Nodeptr> _Loc = _Find_lower_bound(_Keyval);

  00067	50		 push	 eax
  00068	8d 45 e0	 lea	 eax, DWORD PTR __Loc$4[ebp]
  0006b	8b cf		 mov	 ecx, edi
  0006d	50		 push	 eax
  0006e	e8 00 00 00 00	 call	 ??$_Find_lower_bound@K@?$_Tree@V?$_Tmap_traits@KPAUSEnvironmentData@@U?$less@K@std@@V?$allocator@U?$pair@$$CBKPAUSEnvironmentData@@@std@@@3@$0A@@std@@@std@@IBE?AU?$_Tree_find_result@PAU?$_Tree_node@U?$pair@$$CBKPAUSEnvironmentData@@@std@@PAX@std@@@1@ABK@Z ; std::_Tree<std::_Tmap_traits<unsigned long,SEnvironmentData *,std::less<unsigned long>,std::allocator<std::pair<unsigned long const ,SEnvironmentData *> >,0> >::_Find_lower_bound<unsigned long>

; 1599 :         return !_Bound->_Isnil && !_DEBUG_LT_PRED(_Getcomp(), _Keyval, _Traits::_Kfn(_Bound->_Myval));

  00073	8b 75 e8	 mov	 esi, DWORD PTR __Loc$4[ebp+8]
  00076	80 7e 0d 00	 cmp	 BYTE PTR [esi+13], 0
  0007a	75 08		 jne	 SHORT $LN11@RegisterEn
; File C:\Program Files (x86)\Microsoft Visual Studio\2019\Professional\VC\Tools\MSVC\14.29.30133\include\xstddef

; 127  :         return _Left < _Right;

  0007c	8b 45 08	 mov	 eax, DWORD PTR _dwIndex$[ebp]
  0007f	3b 46 10	 cmp	 eax, DWORD PTR [esi+16]
; File C:\Program Files (x86)\Microsoft Visual Studio\2019\Professional\VC\Tools\MSVC\14.29.30133\include\xtree

; 1599 :         return !_Bound->_Isnil && !_DEBUG_LT_PRED(_Getcomp(), _Keyval, _Traits::_Kfn(_Bound->_Myval));

  00082	73 02		 jae	 SHORT $LN10@RegisterEn
$LN11@RegisterEn:

; 1366 :         return _Get_scary()->_Myhead;

  00084	8b 37		 mov	 esi, DWORD PTR [edi]
$LN10@RegisterEn:

; 39   :     _Tree_unchecked_const_iterator(_Nodeptr _Pnode, const _Mytree* _Plist) noexcept : _Ptr(_Pnode) {

  00086	8b 07		 mov	 eax, DWORD PTR [edi]
  00088	89 45 0c	 mov	 DWORD PTR __Myhead$1$[ebp], eax
; File C:\Users\murat\Desktop\Siveps2-1-99-Project\source\client\Client\GameLib\MapManager.cpp

; 352  : 	if (m_EnvironmentDataMap.end()==f)

  0008b	3b c6		 cmp	 eax, esi
  0008d	75 7a		 jne	 SHORT $LN3@RegisterEn
; File C:\Program Files (x86)\Microsoft Visual Studio\2019\Professional\VC\Tools\MSVC\14.29.30133\include\utility

; 193  :         : first(_STD forward<_Other1>(_Val1)), second(_STD forward<_Other2>(_Val2)) {}

  0008f	8b 75 08	 mov	 esi, DWORD PTR _dwIndex$[ebp]
; File C:\Program Files (x86)\Microsoft Visual Studio\2019\Professional\VC\Tools\MSVC\14.29.30133\include\xtree

; 1014 :             _Loc                = _Find_lower_bound(_Keyval);

  00092	8d 45 ec	 lea	 eax, DWORD PTR $T6[ebp]
  00095	50		 push	 eax
  00096	8d 45 d4	 lea	 eax, DWORD PTR $T2[ebp]
; File C:\Program Files (x86)\Microsoft Visual Studio\2019\Professional\VC\Tools\MSVC\14.29.30133\include\utility

; 193  :         : first(_STD forward<_Other1>(_Val1)), second(_STD forward<_Other2>(_Val2)) {}

  00099	89 75 ec	 mov	 DWORD PTR $T6[ebp], esi
; File C:\Program Files (x86)\Microsoft Visual Studio\2019\Professional\VC\Tools\MSVC\14.29.30133\include\xtree

; 1014 :             _Loc                = _Find_lower_bound(_Keyval);

  0009c	50		 push	 eax
  0009d	8b cf		 mov	 ecx, edi
; File C:\Program Files (x86)\Microsoft Visual Studio\2019\Professional\VC\Tools\MSVC\14.29.30133\include\utility

; 193  :         : first(_STD forward<_Other1>(_Val1)), second(_STD forward<_Other2>(_Val2)) {}

  0009f	89 5d f0	 mov	 DWORD PTR $T6[ebp+4], ebx
; File C:\Program Files (x86)\Microsoft Visual Studio\2019\Professional\VC\Tools\MSVC\14.29.30133\include\xtree

; 1014 :             _Loc                = _Find_lower_bound(_Keyval);

  000a2	e8 00 00 00 00	 call	 ??$_Find_lower_bound@K@?$_Tree@V?$_Tmap_traits@KPAUSEnvironmentData@@U?$less@K@std@@V?$allocator@U?$pair@$$CBKPAUSEnvironmentData@@@std@@@3@$0A@@std@@@std@@IBE?AU?$_Tree_find_result@PAU?$_Tree_node@U?$pair@$$CBKPAUSEnvironmentData@@@std@@PAX@std@@@1@ABK@Z ; std::_Tree<std::_Tmap_traits<unsigned long,SEnvironmentData *,std::less<unsigned long>,std::allocator<std::pair<unsigned long const ,SEnvironmentData *> >,0> >::_Find_lower_bound<unsigned long>
  000a7	f3 0f 7e 00	 movq	 xmm0, QWORD PTR [eax]
  000ab	8b 40 08	 mov	 eax, DWORD PTR [eax+8]
  000ae	66 0f d6 45 e0	 movq	 QWORD PTR __Loc$3[ebp], xmm0

; 1599 :         return !_Bound->_Isnil && !_DEBUG_LT_PRED(_Getcomp(), _Keyval, _Traits::_Kfn(_Bound->_Myval));

  000b3	80 78 0d 00	 cmp	 BYTE PTR [eax+13], 0
  000b7	75 05		 jne	 SHORT $LN45@RegisterEn
; File C:\Program Files (x86)\Microsoft Visual Studio\2019\Professional\VC\Tools\MSVC\14.29.30133\include\xstddef

; 127  :         return _Left < _Right;

  000b9	3b 70 10	 cmp	 esi, DWORD PTR [eax+16]
; File C:\Program Files (x86)\Microsoft Visual Studio\2019\Professional\VC\Tools\MSVC\14.29.30133\include\xtree

; 1599 :         return !_Bound->_Isnil && !_DEBUG_LT_PRED(_Getcomp(), _Keyval, _Traits::_Kfn(_Bound->_Myval));

  000bc	73 5c		 jae	 SHORT $LN4@RegisterEn
$LN45@RegisterEn:

; 1623 :         if (max_size() == _Get_scary()->_Mysize) {

  000be	81 7f 04 aa aa
	aa 0a		 cmp	 DWORD PTR [edi+4], 178956970 ; 0aaaaaaaH
  000c5	74 69		 je	 SHORT $LN144@RegisterEn
; File C:\Program Files (x86)\Microsoft Visual Studio\2019\Professional\VC\Tools\MSVC\14.29.30133\include\xmemory

; 1012 :     _CONSTEXPR20_DYNALLOC explicit _Alloc_construct_ptr(_Alloc& _Al_) : _Al(_Al_), _Ptr(nullptr) {}

  000c7	89 7d ec	 mov	 DWORD PTR $T5[ebp], edi

; 85   :         return ::operator new(_Bytes);

  000ca	6a 18		 push	 24			; 00000018H
; File C:\Program Files (x86)\Microsoft Visual Studio\2019\Professional\VC\Tools\MSVC\14.29.30133\include\xtree

; 790  :     explicit _Tree_temp_node_alloc(_Alnode& _Al_) : _Alloc_construct_ptr<_Alnode>(_Al_) {

  000cc	c7 45 fc 00 00
	00 00		 mov	 DWORD PTR __$EHRec$[ebp+8], 0
; File C:\Program Files (x86)\Microsoft Visual Studio\2019\Professional\VC\Tools\MSVC\14.29.30133\include\xmemory

; 1019 :         _Ptr = nullptr; // if allocate throws, prevents double-free

  000d3	c7 45 f0 00 00
	00 00		 mov	 DWORD PTR $T5[ebp+4], 0

; 85   :         return ::operator new(_Bytes);

  000da	e8 00 00 00 00	 call	 ??2@YAPAXI@Z		; operator new
; File C:\Program Files (x86)\Microsoft Visual Studio\2019\Professional\VC\Tools\MSVC\14.29.30133\include\xtree

; 813  :         _Construct_in_place(this->_Ptr->_Left, _Myhead);

  000df	8b 4d 0c	 mov	 ecx, DWORD PTR __Myhead$1$[ebp]
; File C:\Program Files (x86)\Microsoft Visual Studio\2019\Professional\VC\Tools\MSVC\14.29.30133\include\xmemory

; 85   :         return ::operator new(_Bytes);

  000e2	83 c4 04	 add	 esp, 4
; File C:\Program Files (x86)\Microsoft Visual Studio\2019\Professional\VC\Tools\MSVC\14.29.30133\include\xtree

; 812  :         _Alnode_traits::construct(this->_Al, _STD addressof(this->_Ptr->_Myval), _STD forward<_Valtys>(_Vals)...);

  000e5	89 70 10	 mov	 DWORD PTR [eax+16], esi
  000e8	89 58 14	 mov	 DWORD PTR [eax+20], ebx

; 1039 :         return {_Scary->_Insert_node(_Loc._Location, _Inserted), true};

  000eb	50		 push	 eax
  000ec	ff 75 e4	 push	 DWORD PTR __Loc$3[ebp+4]

; 813  :         _Construct_in_place(this->_Ptr->_Left, _Myhead);

  000ef	89 08		 mov	 DWORD PTR [eax], ecx

; 1039 :         return {_Scary->_Insert_node(_Loc._Location, _Inserted), true};

  000f1	ff 75 e0	 push	 DWORD PTR __Loc$3[ebp]

; 814  :         _Construct_in_place(this->_Ptr->_Parent, _Myhead);

  000f4	89 48 04	 mov	 DWORD PTR [eax+4], ecx

; 815  :         _Construct_in_place(this->_Ptr->_Right, _Myhead);

  000f7	89 48 08	 mov	 DWORD PTR [eax+8], ecx

; 1039 :         return {_Scary->_Insert_node(_Loc._Location, _Inserted), true};

  000fa	8b cf		 mov	 ecx, edi

; 816  :         this->_Ptr->_Color = _Red;

  000fc	66 c7 40 0c 00
	00		 mov	 WORD PTR [eax+12], 0

; 1039 :         return {_Scary->_Insert_node(_Loc._Location, _Inserted), true};

  00102	e8 00 00 00 00	 call	 ?_Insert_node@?$_Tree_val@U?$_Tree_simple_types@U?$pair@$$CBKPAUSEnvironmentData@@@std@@@std@@@std@@QAEPAU?$_Tree_node@U?$pair@$$CBKPAUSEnvironmentData@@@std@@PAX@2@U?$_Tree_id@PAU?$_Tree_node@U?$pair@$$CBKPAUSEnvironmentData@@@std@@PAX@std@@@2@QAU32@@Z ; std::_Tree_val<std::_Tree_simple_types<std::pair<unsigned long const ,SEnvironmentData *> > >::_Insert_node
; File C:\Users\murat\Desktop\Siveps2-1-99-Project\source\client\Client\GameLib\MapManager.cpp

; 355  : 	}

  00107	eb 11		 jmp	 SHORT $LN4@RegisterEn
$LN3@RegisterEn:

; 356  : 	else
; 357  : 	{
; 358  : 		delete f->second;

  00109	8b 4e 14	 mov	 ecx, DWORD PTR [esi+20]
  0010c	85 c9		 test	 ecx, ecx
  0010e	74 07		 je	 SHORT $LN6@RegisterEn
  00110	6a 01		 push	 1
  00112	e8 00 00 00 00	 call	 ??_GSEnvironmentData@@QAEPAXI@Z
$LN6@RegisterEn:

; 359  : 		f->second=pEnvironmentData;

  00117	89 5e 14	 mov	 DWORD PTR [esi+20], ebx
$LN4@RegisterEn:

; 360  : 	}
; 361  : 	return true;

  0011a	b0 01		 mov	 al, 1

; 362  : }

  0011c	8b 4d f4	 mov	 ecx, DWORD PTR __$EHRec$[ebp]
  0011f	64 89 0d 00 00
	00 00		 mov	 DWORD PTR fs:0, ecx
  00126	59		 pop	 ecx
  00127	5f		 pop	 edi
  00128	5e		 pop	 esi
  00129	5b		 pop	 ebx
  0012a	8b e5		 mov	 esp, ebp
  0012c	5d		 pop	 ebp
  0012d	c2 08 00	 ret	 8
$LN144@RegisterEn:
; File C:\Program Files (x86)\Microsoft Visual Studio\2019\Professional\VC\Tools\MSVC\14.29.30133\include\xtree

; 1624 :             _Throw_tree_length_error();

  00130	e8 00 00 00 00	 call	 ?_Throw_tree_length_error@std@@YAXXZ ; std::_Throw_tree_length_error
$LN142@RegisterEn:
  00135	cc		 int	 3
_TEXT	ENDS
;	COMDAT text$x
text$x	SEGMENT
__unwindfunclet$?RegisterEnvironmentData@CMapManager@@QAE_NKPBD@Z$2:
  00000	8d 4d ec	 lea	 ecx, DWORD PTR $T5[ebp]
  00003	e9 00 00 00 00	 jmp	 ??1?$_Alloc_construct_ptr@V?$allocator@U?$_Tree_node@U?$pair@$$CBKPAUSEnvironmentData@@@std@@PAX@std@@@std@@@std@@QAE@XZ ; std::_Alloc_construct_ptr<std::allocator<std::_Tree_node<std::pair<unsigned long const ,SEnvironmentData *>,void *> > >::~_Alloc_construct_ptr<std::allocator<std::_Tree_node<std::pair<unsigned long const ,SEnvironmentData *>,void *> > >
  00008	cc		 int	 3
  00009	cc		 int	 3
  0000a	cc		 int	 3
  0000b	cc		 int	 3
  0000c	cc		 int	 3
__ehhandler$?RegisterEnvironmentData@CMapManager@@QAE_NKPBD@Z:
  0000d	90		 npad	 1
  0000e	90		 npad	 1
  0000f	8b 54 24 08	 mov	 edx, DWORD PTR [esp+8]
  00013	8d 42 0c	 lea	 eax, DWORD PTR [edx+12]
  00016	8b 4a d0	 mov	 ecx, DWORD PTR [edx-48]
  00019	33 c8		 xor	 ecx, eax
  0001b	e8 00 00 00 00	 call	 @__security_check_cookie@4
  00020	b8 00 00 00 00	 mov	 eax, OFFSET __ehfuncinfo$?RegisterEnvironmentData@CMapManager@@QAE_NKPBD@Z
  00025	e9 00 00 00 00	 jmp	 ___CxxFrameHandler3
text$x	ENDS
?RegisterEnvironmentData@CMapManager@@QAE_NKPBD@Z ENDP	; CMapManager::RegisterEnvironmentData
; Function compile flags: /Ogtp
; File C:\Users\murat\Desktop\Siveps2-1-99-Project\source\client\Client\GameLib\MapManager.cpp
;	COMDAT ?GetCurrentEnvironmentData@CMapManager@@QAEXPAPBUSEnvironmentData@@@Z
_TEXT	SEGMENT
_c_ppEnvironmentData$ = 8				; size = 4
?GetCurrentEnvironmentData@CMapManager@@QAEXPAPBUSEnvironmentData@@@Z PROC ; CMapManager::GetCurrentEnvironmentData, COMDAT
; _this$ = ecx

; 365  : {

  00000	55		 push	 ebp
  00001	8b ec		 mov	 ebp, esp

; 366  : 	*c_ppEnvironmentData = mc_pcurEnvironmentData;

  00003	8b 45 08	 mov	 eax, DWORD PTR _c_ppEnvironmentData$[ebp]
  00006	8b 89 2c 14 00
	00		 mov	 ecx, DWORD PTR [ecx+5164]
  0000c	89 08		 mov	 DWORD PTR [eax], ecx

; 367  : }

  0000e	5d		 pop	 ebp
  0000f	c2 04 00	 ret	 4
?GetCurrentEnvironmentData@CMapManager@@QAEXPAPBUSEnvironmentData@@@Z ENDP ; CMapManager::GetCurrentEnvironmentData
_TEXT	ENDS
; Function compile flags: /Ogtp
; File C:\Users\murat\Desktop\Siveps2-1-99-Project\source\client\Client\GameLib\MapManager.cpp
;	COMDAT ?BlendEnvironmentData@CMapManager@@QAEXPBUSEnvironmentData@@H@Z
_TEXT	SEGMENT
_c_pEnvironmentData$ = 8				; size = 4
_iTransitionTime$ = 12					; size = 4
?BlendEnvironmentData@CMapManager@@QAEXPBUSEnvironmentData@@H@Z PROC ; CMapManager::BlendEnvironmentData, COMDAT
; _this$ = ecx

; 339  : }

  00000	c2 08 00	 ret	 8
?BlendEnvironmentData@CMapManager@@QAEXPBUSEnvironmentData@@H@Z ENDP ; CMapManager::BlendEnvironmentData
_TEXT	ENDS
; Function compile flags: /Ogtp
; File C:\Users\murat\Desktop\Siveps2-1-99-Project\source\client\Client\GameLib\MapManager.cpp
;	COMDAT ?EndEnvironment@CMapManager@@QAEXXZ
_TEXT	SEGMENT
?EndEnvironment@CMapManager@@QAEXXZ PROC		; CMapManager::EndEnvironment, COMDAT
; _this$ = ecx

; 283  : 	if (!mc_pcurEnvironmentData)

  00000	83 b9 2c 14 00
	00 00		 cmp	 DWORD PTR [ecx+5164], 0
  00007	74 1d		 je	 SHORT $LN1@EndEnviron

; 284  : 		return;
; 285  : 
; 286  : 	STATEMANAGER.RestoreRenderState(D3DRS_LIGHTING);

  00009	8b 0d 00 00 00
	00		 mov	 ecx, DWORD PTR ?ms_singleton@?$CSingleton@VCStateManager@@@@0PAVCStateManager@@A ; CSingleton<CStateManager>::ms_singleton
  0000f	68 89 00 00 00	 push	 137			; 00000089H
  00014	e8 00 00 00 00	 call	 ?RestoreRenderState@CStateManager@@QAEXW4_D3DRENDERSTATETYPE@@@Z ; CStateManager::RestoreRenderState

; 287  : 	STATEMANAGER.RestoreRenderState(D3DRS_FOGENABLE);

  00019	8b 0d 00 00 00
	00		 mov	 ecx, DWORD PTR ?ms_singleton@?$CSingleton@VCStateManager@@@@0PAVCStateManager@@A ; CSingleton<CStateManager>::ms_singleton
  0001f	6a 1c		 push	 28			; 0000001cH
  00021	e8 00 00 00 00	 call	 ?RestoreRenderState@CStateManager@@QAEXW4_D3DRENDERSTATETYPE@@@Z ; CStateManager::RestoreRenderState
$LN1@EndEnviron:

; 288  : }

  00026	c3		 ret	 0
?EndEnvironment@CMapManager@@QAEXXZ ENDP		; CMapManager::EndEnvironment
_TEXT	ENDS
; Function compile flags: /Ogtp
; File C:\Users\murat\Desktop\Siveps2-1-99-Project\source\client\Client\GameLib\MapManager.cpp
; File C:\Users\murat\Desktop\Siveps2-1-99-Project\source\client\extern\include\d3dx8math.inl
; File C:\Users\murat\Desktop\Siveps2-1-99-Project\source\client\Client\GameLib\MapManager.cpp
; File C:\Users\murat\Desktop\Siveps2-1-99-Project\source\client\extern\include\d3dx8math.inl
; File C:\Users\murat\Desktop\Siveps2-1-99-Project\source\client\Client\GameLib\MapManager.cpp
;	COMDAT ?BeginEnvironment@CMapManager@@QAEXXZ
_TEXT	SEGMENT
_dwB$1$ = -12						; size = 4
_fFogNear$1 = -12					; size = 4
_fDensity$2 = -12					; size = 4
_dwG$1$ = -8						; size = 4
_fFogFar$3 = -8						; size = 4
_dwR$1$ = -4						; size = 4
?BeginEnvironment@CMapManager@@QAEXXZ PROC		; CMapManager::BeginEnvironment, COMDAT
; _this$ = ecx

; 222  : {

  00000	55		 push	 ebp
  00001	8b ec		 mov	 ebp, esp
  00003	83 ec 0c	 sub	 esp, 12			; 0000000cH
  00006	57		 push	 edi
  00007	8b f9		 mov	 edi, ecx

; 223  : 	if (!m_pkMap)

  00009	83 bf 30 14 00
	00 00		 cmp	 DWORD PTR [edi+5168], 0
  00010	0f 84 93 02 00
	00		 je	 $LN1@BeginEnvir

; 224  : 		return;
; 225  : 
; 226  : 	if (!mc_pcurEnvironmentData)

  00016	83 bf 2c 14 00
	00 00		 cmp	 DWORD PTR [edi+5164], 0
  0001d	0f 84 86 02 00
	00		 je	 $LN1@BeginEnvir

; 227  : 		return;
; 228  : 
; 229  : 	CMapOutdoor& rkMap=GetMapOutdoorRef();

  00023	53		 push	 ebx
  00024	56		 push	 esi
  00025	e8 00 00 00 00	 call	 ?GetMapOutdoorRef@CMapManager@@QAEAAVCMapOutdoor@@XZ ; CMapManager::GetMapOutdoorRef

; 230  : 
; 231  : 	// Light always on
; 232  :  	STATEMANAGER.SaveRenderState(D3DRS_LIGHTING, TRUE);

  0002a	8b 0d 00 00 00
	00		 mov	 ecx, DWORD PTR ?ms_singleton@?$CSingleton@VCStateManager@@@@0PAVCStateManager@@A ; CSingleton<CStateManager>::ms_singleton
  00030	8b d8		 mov	 ebx, eax
  00032	6a 01		 push	 1
  00034	68 89 00 00 00	 push	 137			; 00000089H
  00039	e8 00 00 00 00	 call	 ?SaveRenderState@CStateManager@@QAEXW4_D3DRENDERSTATETYPE@@K@Z ; CStateManager::SaveRenderState

; 233  : 
; 234  : 	// Fog
; 235  :  	STATEMANAGER.SaveRenderState(D3DRS_FOGENABLE, mc_pcurEnvironmentData->bFogEnable);

  0003e	8b 8f 2c 14 00
	00		 mov	 ecx, DWORD PTR [edi+5164]
  00044	ff b1 1c 01 00
	00		 push	 DWORD PTR [ecx+284]
  0004a	8b 0d 00 00 00
	00		 mov	 ecx, DWORD PTR ?ms_singleton@?$CSingleton@VCStateManager@@@@0PAVCStateManager@@A ; CSingleton<CStateManager>::ms_singleton
  00050	6a 1c		 push	 28			; 0000001cH
  00052	e8 00 00 00 00	 call	 ?SaveRenderState@CStateManager@@QAEXW4_D3DRENDERSTATETYPE@@K@Z ; CStateManager::SaveRenderState

; 236  : 
; 237  : 	// Material
; 238  : 	STATEMANAGER.SetMaterial(&mc_pcurEnvironmentData->Material);

  00057	8b 87 2c 14 00
	00		 mov	 eax, DWORD PTR [edi+5164]
  0005d	8b 0d 00 00 00
	00		 mov	 ecx, DWORD PTR ?ms_singleton@?$CSingleton@VCStateManager@@@@0PAVCStateManager@@A ; CSingleton<CStateManager>::ms_singleton
  00063	05 d8 00 00 00	 add	 eax, 216		; 000000d8H
  00068	50		 push	 eax
  00069	e8 00 00 00 00	 call	 ?SetMaterial@CStateManager@@QAEXPBU_D3DMATERIAL8@@@Z ; CStateManager::SetMaterial

; 239  : 
; 240  : 	// Directional Light
; 241  : 	if (mc_pcurEnvironmentData->bDirLightsEnable[ENV_DIRLIGHT_BACKGROUND])

  0006e	8b 87 2c 14 00
	00		 mov	 eax, DWORD PTR [edi+5164]
  00074	83 38 00	 cmp	 DWORD PTR [eax], 0
  00077	a1 00 00 00 00	 mov	 eax, DWORD PTR ?ms_lpd3dDevice@CGraphicBase@@1PAUIDirect3DDevice8@@A ; CGraphicBase::ms_lpd3dDevice
  0007c	8b 08		 mov	 ecx, DWORD PTR [eax]
  0007e	74 1f		 je	 SHORT $LN4@BeginEnvir

; 242  : 	{
; 243  : 		ms_lpd3dDevice->LightEnable(0, TRUE);

  00080	6a 01		 push	 1
  00082	6a 00		 push	 0
  00084	50		 push	 eax
  00085	ff 91 b8 00 00
	00		 call	 DWORD PTR [ecx+184]

; 244  : 
; 245  : 		rkMap.ApplyLight((DWORD)mc_pcurEnvironmentData, mc_pcurEnvironmentData->DirLights[ENV_DIRLIGHT_BACKGROUND]);

  0008b	8b 8f 2c 14 00
	00		 mov	 ecx, DWORD PTR [edi+5164]
  00091	8b 13		 mov	 edx, DWORD PTR [ebx]
  00093	8d 41 08	 lea	 eax, DWORD PTR [ecx+8]
  00096	50		 push	 eax
  00097	51		 push	 ecx
  00098	8b cb		 mov	 ecx, ebx
  0009a	ff 52 24	 call	 DWORD PTR [edx+36]

; 246  : 	}

  0009d	eb 0b		 jmp	 SHORT $LN5@BeginEnvir
$LN4@BeginEnvir:

; 247  : 	else
; 248  : 		ms_lpd3dDevice->LightEnable(0, FALSE);

  0009f	6a 00		 push	 0
  000a1	6a 00		 push	 0
  000a3	50		 push	 eax
  000a4	ff 91 b8 00 00
	00		 call	 DWORD PTR [ecx+184]
$LN5@BeginEnvir:

; 249  : 
; 250  : 	if (mc_pcurEnvironmentData->bFogEnable)

  000aa	8b b7 2c 14 00
	00		 mov	 esi, DWORD PTR [edi+5164]
  000b0	83 be 1c 01 00
	00 00		 cmp	 DWORD PTR [esi+284], 0
  000b7	0f 84 e3 01 00
	00		 je	 $LN8@BeginEnvir
; File C:\Users\murat\Desktop\Siveps2-1-99-Project\source\client\extern\include\d3dx8math.inl

; 931  :     DWORD dwR = r >= 1.0f ? 0xff : r <= 0.0f ? 0x00 : (DWORD) (r * 255.0f + 0.5f);

  000bd	f3 0f 10 86 2c
	01 00 00	 movss	 xmm0, DWORD PTR [esi+300]
  000c5	0f 57 c9	 xorps	 xmm1, xmm1
  000c8	0f 2f 05 00 00
	00 00		 comiss	 xmm0, DWORD PTR __real@3f800000
  000cf	f3 0f 10 1d 00
	00 00 00	 movss	 xmm3, DWORD PTR __real@437f0000
  000d7	f3 0f 10 25 00
	00 00 00	 movss	 xmm4, DWORD PTR __real@3f000000
  000df	72 09		 jb	 SHORT $LN14@BeginEnvir
  000e1	c7 45 fc ff 00
	00 00		 mov	 DWORD PTR _dwR$1$[ebp], 255 ; 000000ffH
  000e8	eb 31		 jmp	 SHORT $LN13@BeginEnvir
$LN14@BeginEnvir:
  000ea	0f 2f c8	 comiss	 xmm1, xmm0
  000ed	72 09		 jb	 SHORT $LN12@BeginEnvir
  000ef	c7 45 fc 00 00
	00 00		 mov	 DWORD PTR _dwR$1$[ebp], 0
  000f6	eb 23		 jmp	 SHORT $LN13@BeginEnvir
$LN12@BeginEnvir:
  000f8	f3 0f 59 c3	 mulss	 xmm0, xmm3
  000fc	f3 0f 58 c4	 addss	 xmm0, xmm4
  00100	e8 00 00 00 00	 call	 __ftoui3
  00105	f3 0f 10 1d 00
	00 00 00	 movss	 xmm3, DWORD PTR __real@437f0000
  0010d	0f 57 c9	 xorps	 xmm1, xmm1
  00110	f3 0f 10 25 00
	00 00 00	 movss	 xmm4, DWORD PTR __real@3f000000
  00118	89 45 fc	 mov	 DWORD PTR _dwR$1$[ebp], eax
$LN13@BeginEnvir:

; 932  :     DWORD dwG = g >= 1.0f ? 0xff : g <= 0.0f ? 0x00 : (DWORD) (g * 255.0f + 0.5f);

  0011b	f3 0f 10 86 30
	01 00 00	 movss	 xmm0, DWORD PTR [esi+304]
  00123	0f 2f 05 00 00
	00 00		 comiss	 xmm0, DWORD PTR __real@3f800000
  0012a	72 09		 jb	 SHORT $LN18@BeginEnvir
  0012c	c7 45 f8 ff 00
	00 00		 mov	 DWORD PTR _dwG$1$[ebp], 255 ; 000000ffH
  00133	eb 1e		 jmp	 SHORT $LN17@BeginEnvir
$LN18@BeginEnvir:
  00135	0f 2f c8	 comiss	 xmm1, xmm0
  00138	72 09		 jb	 SHORT $LN16@BeginEnvir
  0013a	c7 45 f8 00 00
	00 00		 mov	 DWORD PTR _dwG$1$[ebp], 0
  00141	eb 10		 jmp	 SHORT $LN17@BeginEnvir
$LN16@BeginEnvir:
  00143	f3 0f 59 c3	 mulss	 xmm0, xmm3
  00147	f3 0f 58 c4	 addss	 xmm0, xmm4
  0014b	e8 00 00 00 00	 call	 __ftoui3
  00150	89 45 f8	 mov	 DWORD PTR _dwG$1$[ebp], eax
$LN17@BeginEnvir:

; 933  :     DWORD dwB = b >= 1.0f ? 0xff : b <= 0.0f ? 0x00 : (DWORD) (b * 255.0f + 0.5f);

  00153	f3 0f 10 86 34
	01 00 00	 movss	 xmm0, DWORD PTR [esi+308]
  0015b	0f 57 c9	 xorps	 xmm1, xmm1
  0015e	0f 2f 05 00 00
	00 00		 comiss	 xmm0, DWORD PTR __real@3f800000
  00165	72 09		 jb	 SHORT $LN22@BeginEnvir
  00167	c7 45 f4 ff 00
	00 00		 mov	 DWORD PTR _dwB$1$[ebp], 255 ; 000000ffH
  0016e	eb 29		 jmp	 SHORT $LN21@BeginEnvir
$LN22@BeginEnvir:
  00170	0f 2f c8	 comiss	 xmm1, xmm0
  00173	72 09		 jb	 SHORT $LN20@BeginEnvir
  00175	c7 45 f4 00 00
	00 00		 mov	 DWORD PTR _dwB$1$[ebp], 0
  0017c	eb 1b		 jmp	 SHORT $LN21@BeginEnvir
$LN20@BeginEnvir:
  0017e	f3 0f 59 05 00
	00 00 00	 mulss	 xmm0, DWORD PTR __real@437f0000
  00186	f3 0f 58 05 00
	00 00 00	 addss	 xmm0, DWORD PTR __real@3f000000
  0018e	e8 00 00 00 00	 call	 __ftoui3
  00193	89 45 f4	 mov	 DWORD PTR _dwB$1$[ebp], eax
  00196	0f 57 c9	 xorps	 xmm1, xmm1
$LN21@BeginEnvir:

; 934  :     DWORD dwA = a >= 1.0f ? 0xff : a <= 0.0f ? 0x00 : (DWORD) (a * 255.0f + 0.5f);

  00199	f3 0f 10 86 38
	01 00 00	 movss	 xmm0, DWORD PTR [esi+312]
  001a1	0f 2f 05 00 00
	00 00		 comiss	 xmm0, DWORD PTR __real@3f800000
  001a8	72 07		 jb	 SHORT $LN26@BeginEnvir
  001aa	b8 ff 00 00 00	 mov	 eax, 255		; 000000ffH
  001af	eb 1e		 jmp	 SHORT $LN25@BeginEnvir
$LN26@BeginEnvir:
  001b1	0f 2f c8	 comiss	 xmm1, xmm0
  001b4	72 04		 jb	 SHORT $LN24@BeginEnvir
  001b6	33 c0		 xor	 eax, eax
  001b8	eb 15		 jmp	 SHORT $LN25@BeginEnvir
$LN24@BeginEnvir:
  001ba	f3 0f 59 05 00
	00 00 00	 mulss	 xmm0, DWORD PTR __real@437f0000
  001c2	f3 0f 58 05 00
	00 00 00	 addss	 xmm0, DWORD PTR __real@3f000000
  001ca	e8 00 00 00 00	 call	 __ftoui3
$LN25@BeginEnvir:
; File C:\Users\murat\Desktop\Siveps2-1-99-Project\source\client\Client\GameLib\MapManager.cpp

; 253  : 		STATEMANAGER.SetRenderState(D3DRS_FOGCOLOR, dwFogColor);

  001cf	8b 0d 00 00 00
	00		 mov	 ecx, DWORD PTR ?ms_singleton@?$CSingleton@VCStateManager@@@@0PAVCStateManager@@A ; CSingleton<CStateManager>::ms_singleton
; File C:\Users\murat\Desktop\Siveps2-1-99-Project\source\client\extern\include\d3dx8math.inl

; 936  :     return (dwA << 24) | (dwR << 16) | (dwG << 8) | dwB;

  001d5	c1 e0 08	 shl	 eax, 8
  001d8	0b 45 fc	 or	 eax, DWORD PTR _dwR$1$[ebp]
  001db	c1 e0 08	 shl	 eax, 8
  001de	0b 45 f8	 or	 eax, DWORD PTR _dwG$1$[ebp]
  001e1	c1 e0 08	 shl	 eax, 8
  001e4	0b 45 f4	 or	 eax, DWORD PTR _dwB$1$[ebp]
; File C:\Users\murat\Desktop\Siveps2-1-99-Project\source\client\Client\GameLib\MapManager.cpp

; 253  : 		STATEMANAGER.SetRenderState(D3DRS_FOGCOLOR, dwFogColor);

  001e7	50		 push	 eax
  001e8	6a 22		 push	 34			; 00000022H
  001ea	e8 00 00 00 00	 call	 ?SetRenderState@CStateManager@@QAEXW4_D3DRENDERSTATETYPE@@K@Z ; CStateManager::SetRenderState

; 254  : 
; 255  : 		if (mc_pcurEnvironmentData->bDensityFog)

  001ef	8b 8f 2c 14 00
	00		 mov	 ecx, DWORD PTR [edi+5164]
  001f5	83 b9 20 01 00
	00 00		 cmp	 DWORD PTR [ecx+288], 0
  001fc	74 20		 je	 SHORT $LN7@BeginEnvir

; 256  : 		{
; 257  : 			float fDensity = 0.00015f;
; 258  : 			STATEMANAGER.SetRenderState(D3DRS_FOGVERTEXMODE, D3DFOG_EXP);					// pixel fog

  001fe	8b 0d 00 00 00
	00		 mov	 ecx, DWORD PTR ?ms_singleton@?$CSingleton@VCStateManager@@@@0PAVCStateManager@@A ; CSingleton<CStateManager>::ms_singleton
  00204	6a 01		 push	 1
  00206	68 8c 00 00 00	 push	 140			; 0000008cH
  0020b	c7 45 f4 52 49
	1d 39		 mov	 DWORD PTR _fDensity$2[ebp], 958220626 ; 391d4952H
  00212	e8 00 00 00 00	 call	 ?SetRenderState@CStateManager@@QAEXW4_D3DRENDERSTATETYPE@@K@Z ; CStateManager::SetRenderState

; 259  : 			STATEMANAGER.SetRenderState(D3DRS_FOGDENSITY, *((DWORD *) &fDensity));			// vertex fog

  00217	ff 75 f4	 push	 DWORD PTR _fDensity$2[ebp]
  0021a	6a 26		 push	 38			; 00000026H

; 260  : 		}

  0021c	eb 77		 jmp	 SHORT $LN28@BeginEnvir
$LN7@BeginEnvir:

; 261  : 		else
; 262  : 		{
; 263  : 			CSpeedTreeForestDirectX8& rkForest=CSpeedTreeForestDirectX8::Instance();

  0021e	8b 35 00 00 00
	00		 mov	 esi, DWORD PTR ?ms_singleton@?$CSingleton@VCSpeedTreeForestDirectX8@@@@0PAVCSpeedTreeForestDirectX8@@A ; CSingleton<CSpeedTreeForestDirectX8>::ms_singleton

; 264  : 			rkForest.SetFog(

  00224	e8 00 00 00 00	 call	 ?GetFogFarDistance@SEnvironmentData@@QBEMXZ ; SEnvironmentData::GetFogFarDistance
  00229	51		 push	 ecx
  0022a	8b 8f 2c 14 00
	00		 mov	 ecx, DWORD PTR [edi+5164]
  00230	d9 1c 24	 fstp	 DWORD PTR [esp]
  00233	e8 00 00 00 00	 call	 ?GetFogNearDistance@SEnvironmentData@@QBEMXZ ; SEnvironmentData::GetFogNearDistance
  00238	51		 push	 ecx
  00239	8b ce		 mov	 ecx, esi
  0023b	d9 1c 24	 fstp	 DWORD PTR [esp]
  0023e	e8 00 00 00 00	 call	 ?SetFog@CSpeedTreeForest@@QAEXMM@Z ; CSpeedTreeForest::SetFog

; 265  : 				mc_pcurEnvironmentData->GetFogNearDistance(),
; 266  : 				mc_pcurEnvironmentData->GetFogFarDistance()
; 267  : 			);
; 268  : 
; 269  : 			float fFogNear=mc_pcurEnvironmentData->GetFogNearDistance();

  00243	8b 8f 2c 14 00
	00		 mov	 ecx, DWORD PTR [edi+5164]
  00249	e8 00 00 00 00	 call	 ?GetFogNearDistance@SEnvironmentData@@QBEMXZ ; SEnvironmentData::GetFogNearDistance

; 270  : 			float fFogFar=mc_pcurEnvironmentData->GetFogFarDistance();

  0024e	8b 8f 2c 14 00
	00		 mov	 ecx, DWORD PTR [edi+5164]
  00254	d9 5d f4	 fstp	 DWORD PTR _fFogNear$1[ebp]
  00257	e8 00 00 00 00	 call	 ?GetFogFarDistance@SEnvironmentData@@QBEMXZ ; SEnvironmentData::GetFogFarDistance

; 271  : 			STATEMANAGER.SetRenderState(D3DRS_FOGVERTEXMODE, D3DFOG_LINEAR);								// vertex fox

  0025c	8b 0d 00 00 00
	00		 mov	 ecx, DWORD PTR ?ms_singleton@?$CSingleton@VCStateManager@@@@0PAVCStateManager@@A ; CSingleton<CStateManager>::ms_singleton
  00262	6a 03		 push	 3
  00264	68 8c 00 00 00	 push	 140			; 0000008cH
  00269	d9 5d f8	 fstp	 DWORD PTR _fFogFar$3[ebp]
  0026c	e8 00 00 00 00	 call	 ?SetRenderState@CStateManager@@QAEXW4_D3DRENDERSTATETYPE@@K@Z ; CStateManager::SetRenderState

; 272  : 			STATEMANAGER.SetRenderState(D3DRS_RANGEFOGENABLE, TRUE);											// vertex fox

  00271	8b 0d 00 00 00
	00		 mov	 ecx, DWORD PTR ?ms_singleton@?$CSingleton@VCStateManager@@@@0PAVCStateManager@@A ; CSingleton<CStateManager>::ms_singleton
  00277	6a 01		 push	 1
  00279	6a 30		 push	 48			; 00000030H
  0027b	e8 00 00 00 00	 call	 ?SetRenderState@CStateManager@@QAEXW4_D3DRENDERSTATETYPE@@K@Z ; CStateManager::SetRenderState

; 273  : 			STATEMANAGER.SetRenderState(D3DRS_FOGSTART, *((DWORD *) &fFogNear));	// USED BY D3DFOG_LINEAR

  00280	ff 75 f4	 push	 DWORD PTR _fFogNear$1[ebp]
  00283	8b 0d 00 00 00
	00		 mov	 ecx, DWORD PTR ?ms_singleton@?$CSingleton@VCStateManager@@@@0PAVCStateManager@@A ; CSingleton<CStateManager>::ms_singleton
  00289	6a 24		 push	 36			; 00000024H
  0028b	e8 00 00 00 00	 call	 ?SetRenderState@CStateManager@@QAEXW4_D3DRENDERSTATETYPE@@K@Z ; CStateManager::SetRenderState

; 274  : 			STATEMANAGER.SetRenderState(D3DRS_FOGEND, *((DWORD *) &fFogFar));		// USED BY D3DFOG_LINEAR

  00290	ff 75 f8	 push	 DWORD PTR _fFogFar$3[ebp]
  00293	6a 25		 push	 37			; 00000025H
$LN28@BeginEnvir:

; 275  : 		}
; 276  : 	}
; 277  : 
; 278  : 	rkMap.OnBeginEnvironment();

  00295	8b 0d 00 00 00
	00		 mov	 ecx, DWORD PTR ?ms_singleton@?$CSingleton@VCStateManager@@@@0PAVCStateManager@@A ; CSingleton<CStateManager>::ms_singleton
  0029b	e8 00 00 00 00	 call	 ?SetRenderState@CStateManager@@QAEXW4_D3DRENDERSTATETYPE@@K@Z ; CStateManager::SetRenderState
$LN8@BeginEnvir:
  002a0	8b 03		 mov	 eax, DWORD PTR [ebx]
  002a2	8b cb		 mov	 ecx, ebx
  002a4	ff 50 20	 call	 DWORD PTR [eax+32]
  002a7	5e		 pop	 esi
  002a8	5b		 pop	 ebx
$LN1@BeginEnvir:
  002a9	5f		 pop	 edi

; 279  : }

  002aa	8b e5		 mov	 esp, ebp
  002ac	5d		 pop	 ebp
  002ad	c3		 ret	 0
?BeginEnvironment@CMapManager@@QAEXXZ ENDP		; CMapManager::BeginEnvironment
_TEXT	ENDS
; Function compile flags: /Ogtp
; File C:\Users\murat\Desktop\Siveps2-1-99-Project\source\client\Client\GameLib\MapManager.cpp
;	COMDAT ?SetEnvironmentData@CMapManager@@QAEXH@Z
_TEXT	SEGMENT
_c_pEnvironmenData$ = -4				; size = 4
_nEnvDataIndex$ = 8					; size = 4
?SetEnvironmentData@CMapManager@@QAEXH@Z PROC		; CMapManager::SetEnvironmentData, COMDAT
; _this$ = ecx

; 291  : {

  00000	55		 push	 ebp
  00001	8b ec		 mov	 ebp, esp
  00003	51		 push	 ecx
  00004	56		 push	 esi

; 292  : 	const TEnvironmentData * c_pEnvironmenData;
; 293  : 
; 294  : 	if (GetEnvironmentData(nEnvDataIndex, &c_pEnvironmenData))

  00005	8d 45 fc	 lea	 eax, DWORD PTR _c_pEnvironmenData$[ebp]
  00008	8b f1		 mov	 esi, ecx
  0000a	50		 push	 eax
  0000b	ff 75 08	 push	 DWORD PTR _nEnvDataIndex$[ebp]
  0000e	e8 00 00 00 00	 call	 ?GetEnvironmentData@CMapManager@@QAE_NKPAPBUSEnvironmentData@@@Z ; CMapManager::GetEnvironmentData
  00013	84 c0		 test	 al, al
  00015	74 0a		 je	 SHORT $LN2@SetEnviron

; 295  : 		SetEnvironmentDataPtr(c_pEnvironmenData);

  00017	ff 75 fc	 push	 DWORD PTR _c_pEnvironmenData$[ebp]
  0001a	8b ce		 mov	 ecx, esi
  0001c	e8 00 00 00 00	 call	 ?SetEnvironmentDataPtr@CMapManager@@QAEXPBUSEnvironmentData@@@Z ; CMapManager::SetEnvironmentDataPtr
$LN2@SetEnviron:
  00021	5e		 pop	 esi

; 296  : }

  00022	8b e5		 mov	 esp, ebp
  00024	5d		 pop	 ebp
  00025	c2 04 00	 ret	 4
?SetEnvironmentData@CMapManager@@QAEXH@Z ENDP		; CMapManager::SetEnvironmentData
_TEXT	ENDS
; Function compile flags: /Ogtp
; File C:\Users\murat\Desktop\Siveps2-1-99-Project\source\client\Client\GameLib\MapManager.cpp
;	COMDAT ?ResetEnvironmentDataPtr@CMapManager@@QAEXPBUSEnvironmentData@@@Z
_TEXT	SEGMENT
_c_pEnvironmentData$ = 8				; size = 4
?ResetEnvironmentDataPtr@CMapManager@@QAEXPBUSEnvironmentData@@@Z PROC ; CMapManager::ResetEnvironmentDataPtr, COMDAT
; _this$ = ecx

; 320  : {

  00000	55		 push	 ebp
  00001	8b ec		 mov	 ebp, esp
  00003	57		 push	 edi
  00004	8b f9		 mov	 edi, ecx

; 321  : 	if (!m_pkMap)

  00006	83 bf 30 14 00
	00 00		 cmp	 DWORD PTR [edi+5168], 0
  0000d	74 2f		 je	 SHORT $LN1@ResetEnvir

; 322  : 		return;
; 323  : 
; 324  : 	if (!c_pEnvironmentData)

  0000f	56		 push	 esi
  00010	8b 75 08	 mov	 esi, DWORD PTR _c_pEnvironmentData$[ebp]
  00013	85 f6		 test	 esi, esi
  00015	75 13		 jne	 SHORT $LN3@ResetEnvir

; 325  : 	{
; 326  : 		assert(!"null environment data");
; 327  : 		TraceError("null environment data");

  00017	68 00 00 00 00	 push	 OFFSET ??_C@_0BG@GDDCGLNK@null?5environment?5data@
  0001c	e8 00 00 00 00	 call	 ?TraceError@@YAXPBDZZ	; TraceError
  00021	83 c4 04	 add	 esp, 4
  00024	5e		 pop	 esi
  00025	5f		 pop	 edi

; 335  : }

  00026	5d		 pop	 ebp
  00027	c2 04 00	 ret	 4
$LN3@ResetEnvir:

; 328  : 		return;
; 329  : 	}
; 330  : 
; 331  : 	CMapOutdoor& rkMap=GetMapOutdoorRef();

  0002a	e8 00 00 00 00	 call	 ?GetMapOutdoorRef@CMapManager@@QAEAAVCMapOutdoor@@XZ ; CMapManager::GetMapOutdoorRef

; 332  : 
; 333  : 	mc_pcurEnvironmentData = c_pEnvironmentData;
; 334  : 	rkMap.ResetEnvironmentDataPtr(mc_pcurEnvironmentData);

  0002f	56		 push	 esi
  00030	8b c8		 mov	 ecx, eax
  00032	89 b7 2c 14 00
	00		 mov	 DWORD PTR [edi+5164], esi
  00038	e8 00 00 00 00	 call	 ?ResetEnvironmentDataPtr@CMapBase@@QAEXPBUSEnvironmentData@@@Z ; CMapBase::ResetEnvironmentDataPtr
  0003d	5e		 pop	 esi
$LN1@ResetEnvir:
  0003e	5f		 pop	 edi

; 335  : }

  0003f	5d		 pop	 ebp
  00040	c2 04 00	 ret	 4
?ResetEnvironmentDataPtr@CMapManager@@QAEXPBUSEnvironmentData@@@Z ENDP ; CMapManager::ResetEnvironmentDataPtr
_TEXT	ENDS
; Function compile flags: /Ogtp
; File C:\Users\murat\Desktop\Siveps2-1-99-Project\source\client\Client\GameLib\MapManager.cpp
;	COMDAT ?SetEnvironmentDataPtr@CMapManager@@QAEXPBUSEnvironmentData@@@Z
_TEXT	SEGMENT
_c_pEnvironmentData$ = 8				; size = 4
?SetEnvironmentDataPtr@CMapManager@@QAEXPBUSEnvironmentData@@@Z PROC ; CMapManager::SetEnvironmentDataPtr, COMDAT
; _this$ = ecx

; 299  : {

  00000	55		 push	 ebp
  00001	8b ec		 mov	 ebp, esp
  00003	57		 push	 edi
  00004	8b f9		 mov	 edi, ecx

; 300  : 	if (!m_pkMap)

  00006	83 bf 30 14 00
	00 00		 cmp	 DWORD PTR [edi+5168], 0
  0000d	74 2f		 je	 SHORT $LN1@SetEnviron

; 301  : 		return;
; 302  : 
; 303  : 	if (!c_pEnvironmentData)

  0000f	56		 push	 esi
  00010	8b 75 08	 mov	 esi, DWORD PTR _c_pEnvironmentData$[ebp]
  00013	85 f6		 test	 esi, esi
  00015	75 13		 jne	 SHORT $LN3@SetEnviron

; 304  : 	{
; 305  : 		assert(!"null environment data");
; 306  : 		TraceError("null environment data");

  00017	68 00 00 00 00	 push	 OFFSET ??_C@_0BG@GDDCGLNK@null?5environment?5data@
  0001c	e8 00 00 00 00	 call	 ?TraceError@@YAXPBDZZ	; TraceError
  00021	83 c4 04	 add	 esp, 4
  00024	5e		 pop	 esi
  00025	5f		 pop	 edi

; 317  : }

  00026	5d		 pop	 ebp
  00027	c2 04 00	 ret	 4
$LN3@SetEnviron:

; 307  : 		return;
; 308  : 	}
; 309  : 
; 310  : 	CMapOutdoor& rkMap=GetMapOutdoorRef();

  0002a	e8 00 00 00 00	 call	 ?GetMapOutdoorRef@CMapManager@@QAEAAVCMapOutdoor@@XZ ; CMapManager::GetMapOutdoorRef

; 311  : 
; 312  : 
; 313  : 	mc_pcurEnvironmentData = c_pEnvironmentData;
; 314  : 
; 315  : 
; 316  : 	rkMap.SetEnvironmentDataPtr(mc_pcurEnvironmentData);

  0002f	56		 push	 esi
  00030	8b c8		 mov	 ecx, eax
  00032	89 b7 2c 14 00
	00		 mov	 DWORD PTR [edi+5164], esi
  00038	e8 00 00 00 00	 call	 ?SetEnvironmentDataPtr@CMapBase@@QAEXPBUSEnvironmentData@@@Z ; CMapBase::SetEnvironmentDataPtr
  0003d	5e		 pop	 esi
$LN1@SetEnviron:
  0003e	5f		 pop	 edi

; 317  : }

  0003f	5d		 pop	 ebp
  00040	c2 04 00	 ret	 4
?SetEnvironmentDataPtr@CMapManager@@QAEXPBUSEnvironmentData@@@Z ENDP ; CMapManager::SetEnvironmentDataPtr
_TEXT	ENDS
; Function compile flags: /Ogtp
; File C:\Users\murat\Desktop\Siveps2-1-99-Project\source\client\Client\GameLib\MapManager.cpp
;	COMDAT ?GetNormal@CMapManager@@QAE_NHHPAUD3DXVECTOR3@@@Z
_TEXT	SEGMENT
_ix$ = 8						; size = 4
_iy$ = 12						; size = 4
_pv3Normal$ = 16					; size = 4
?GetNormal@CMapManager@@QAE_NHHPAUD3DXVECTOR3@@@Z PROC	; CMapManager::GetNormal, COMDAT
; _this$ = ecx

; 490  : {

  00000	55		 push	 ebp
  00001	8b ec		 mov	 ebp, esp
  00003	56		 push	 esi
  00004	8b f1		 mov	 esi, ecx

; 491  : 	if (!IsMapReady())

  00006	e8 00 00 00 00	 call	 ?IsMapReady@CMapManager@@QAE_NXZ ; CMapManager::IsMapReady
  0000b	84 c0		 test	 al, al
  0000d	75 05		 jne	 SHORT $LN2@GetNormal
  0000f	5e		 pop	 esi

; 496  : }

  00010	5d		 pop	 ebp
  00011	c2 0c 00	 ret	 12			; 0000000cH
$LN2@GetNormal:

; 492  : 		return false;
; 493  : 
; 494  : 	CMapOutdoor& rkMap=GetMapOutdoorRef();

  00014	8b ce		 mov	 ecx, esi
  00016	e8 00 00 00 00	 call	 ?GetMapOutdoorRef@CMapManager@@QAEAAVCMapOutdoor@@XZ ; CMapManager::GetMapOutdoorRef
  0001b	5e		 pop	 esi

; 495  : 	return rkMap.GetNormal(ix, iy, pv3Normal);

  0001c	8b c8		 mov	 ecx, eax

; 496  : }

  0001e	5d		 pop	 ebp

; 495  : 	return rkMap.GetNormal(ix, iy, pv3Normal);

  0001f	e9 00 00 00 00	 jmp	 ?GetNormal@CMapOutdoor@@QAE_NHHPAUD3DXVECTOR3@@@Z ; CMapOutdoor::GetNormal
?GetNormal@CMapManager@@QAE_NHHPAUD3DXVECTOR3@@@Z ENDP	; CMapManager::GetNormal
_TEXT	ENDS
; Function compile flags: /Ogtp
; File C:\Users\murat\Desktop\Siveps2-1-99-Project\source\client\Client\GameLib\MapManager.cpp
;	COMDAT ?GetWaterHeight@CMapManager@@QAE_NHHPAJ@Z
_TEXT	SEGMENT
_iX$ = 8						; size = 4
_iY$ = 12						; size = 4
_plWaterHeight$ = 16					; size = 4
?GetWaterHeight@CMapManager@@QAE_NHHPAJ@Z PROC		; CMapManager::GetWaterHeight, COMDAT
; _this$ = ecx

; 207  : {

  00000	55		 push	 ebp
  00001	8b ec		 mov	 ebp, esp

; 208  : 	if (!m_pkMap)

  00003	83 b9 30 14 00
	00 00		 cmp	 DWORD PTR [ecx+5168], 0
  0000a	75 19		 jne	 SHORT $LN2@GetWaterHe

; 209  : 	{
; 210  : 		TraceError("CMapManager::GetTerrainHeight(%f, %f) - Accessing in a not initialized map", iX, iY);

  0000c	ff 75 0c	 push	 DWORD PTR _iY$[ebp]
  0000f	ff 75 08	 push	 DWORD PTR _iX$[ebp]
  00012	68 00 00 00 00	 push	 OFFSET ??_C@_0EL@GOMDBDNM@CMapManager?3?3GetTerrainHeight?$CI?$CF@
  00017	e8 00 00 00 00	 call	 ?TraceError@@YAXPBDZZ	; TraceError
  0001c	83 c4 0c	 add	 esp, 12			; 0000000cH

; 211  : 		return false;

  0001f	32 c0		 xor	 al, al

; 216  : }

  00021	5d		 pop	 ebp
  00022	c2 0c 00	 ret	 12			; 0000000cH
$LN2@GetWaterHe:

; 212  : 	}
; 213  : 
; 214  : 	CMapOutdoor& rkMap=GetMapOutdoorRef();

  00025	e8 00 00 00 00	 call	 ?GetMapOutdoorRef@CMapManager@@QAEAAVCMapOutdoor@@XZ ; CMapManager::GetMapOutdoorRef

; 215  : 	return rkMap.GetWaterHeight(iX, iY, plWaterHeight);

  0002a	8b c8		 mov	 ecx, eax

; 216  : }

  0002c	5d		 pop	 ebp

; 215  : 	return rkMap.GetWaterHeight(iX, iY, plWaterHeight);

  0002d	e9 00 00 00 00	 jmp	 ?GetWaterHeight@CMapOutdoor@@QAE_NHHPAJ@Z ; CMapOutdoor::GetWaterHeight
?GetWaterHeight@CMapManager@@QAE_NHHPAJ@Z ENDP		; CMapManager::GetWaterHeight
_TEXT	ENDS
; Function compile flags: /Ogtp
; File C:\Users\murat\Desktop\Siveps2-1-99-Project\source\client\Client\GameLib\MapManager.cpp
;	COMDAT ?GetTerrainHeight@CMapManager@@QAEMMM@Z
_TEXT	SEGMENT
_fx$ = 8						; size = 4
_fy$ = 12						; size = 4
?GetTerrainHeight@CMapManager@@QAEMMM@Z PROC		; CMapManager::GetTerrainHeight, COMDAT
; _this$ = ecx

; 196  : {

  00000	55		 push	 ebp
  00001	8b ec		 mov	 ebp, esp

; 197  : 	if (!m_pkMap)

  00003	83 b9 30 14 00
	00 00		 cmp	 DWORD PTR [ecx+5168], 0
  0000a	75 31		 jne	 SHORT $LN2@GetTerrain

; 198  : 	{
; 199  : 		TraceError("CMapManager::GetTerrainHeight(%f, %f) - Accessing in a not initialized map", fx, fy);

  0000c	f3 0f 10 45 0c	 movss	 xmm0, DWORD PTR _fy$[ebp]
  00011	83 ec 10	 sub	 esp, 16			; 00000010H
  00014	0f 5a c0	 cvtps2pd xmm0, xmm0
  00017	f2 0f 11 44 24
	08		 movsd	 QWORD PTR [esp+8], xmm0
  0001d	f3 0f 10 45 08	 movss	 xmm0, DWORD PTR _fx$[ebp]
  00022	0f 5a c0	 cvtps2pd xmm0, xmm0
  00025	f2 0f 11 04 24	 movsd	 QWORD PTR [esp], xmm0
  0002a	68 00 00 00 00	 push	 OFFSET ??_C@_0EL@GOMDBDNM@CMapManager?3?3GetTerrainHeight?$CI?$CF@
  0002f	e8 00 00 00 00	 call	 ?TraceError@@YAXPBDZZ	; TraceError

; 200  : 		return 0.0f;

  00034	d9 ee		 fldz
  00036	83 c4 14	 add	 esp, 20			; 00000014H

; 204  : }

  00039	5d		 pop	 ebp
  0003a	c2 08 00	 ret	 8
$LN2@GetTerrain:

; 201  : 	}
; 202  : 	CMapOutdoor& rkMap=GetMapOutdoorRef();

  0003d	e8 00 00 00 00	 call	 ?GetMapOutdoorRef@CMapManager@@QAEAAVCMapOutdoor@@XZ ; CMapManager::GetMapOutdoorRef

; 203  : 	return rkMap.GetTerrainHeight(fx, fy);

  00042	f3 0f 10 45 0c	 movss	 xmm0, DWORD PTR _fy$[ebp]
  00047	83 ec 08	 sub	 esp, 8
  0004a	8b c8		 mov	 ecx, eax
  0004c	f3 0f 11 44 24
	04		 movss	 DWORD PTR [esp+4], xmm0
  00052	f3 0f 10 45 08	 movss	 xmm0, DWORD PTR _fx$[ebp]
  00057	f3 0f 11 04 24	 movss	 DWORD PTR [esp], xmm0
  0005c	e8 00 00 00 00	 call	 ?GetTerrainHeight@CMapOutdoor@@QAEMMM@Z ; CMapOutdoor::GetTerrainHeight

; 204  : }

  00061	5d		 pop	 ebp
  00062	c2 08 00	 ret	 8
?GetTerrainHeight@CMapManager@@QAEMMM@Z ENDP		; CMapManager::GetTerrainHeight
_TEXT	ENDS
; Function compile flags: /Ogtp
; File C:\Users\murat\Desktop\Siveps2-1-99-Project\source\client\Client\GameLib\MapManager.cpp
;	COMDAT ?GetHeight@CMapManager@@QAEMMM@Z
_TEXT	SEGMENT
_fx$ = 8						; size = 4
_fy$ = 12						; size = 4
?GetHeight@CMapManager@@QAEMMM@Z PROC			; CMapManager::GetHeight, COMDAT
; _this$ = ecx

; 185  : {

  00000	55		 push	 ebp
  00001	8b ec		 mov	 ebp, esp

; 186  : 	if (!m_pkMap)

  00003	83 b9 30 14 00
	00 00		 cmp	 DWORD PTR [ecx+5168], 0
  0000a	75 31		 jne	 SHORT $LN2@GetHeight

; 187  : 	{
; 188  : 		TraceError("CMapManager::GetHeight(%f, %f) - Accessing in a not initialized map", fx, fy);

  0000c	f3 0f 10 45 0c	 movss	 xmm0, DWORD PTR _fy$[ebp]
  00011	83 ec 10	 sub	 esp, 16			; 00000010H
  00014	0f 5a c0	 cvtps2pd xmm0, xmm0
  00017	f2 0f 11 44 24
	08		 movsd	 QWORD PTR [esp+8], xmm0
  0001d	f3 0f 10 45 08	 movss	 xmm0, DWORD PTR _fx$[ebp]
  00022	0f 5a c0	 cvtps2pd xmm0, xmm0
  00025	f2 0f 11 04 24	 movsd	 QWORD PTR [esp], xmm0
  0002a	68 00 00 00 00	 push	 OFFSET ??_C@_0EE@MJBLHJKJ@CMapManager?3?3GetHeight?$CI?$CFf?0?5?$CFf?$CJ?5@
  0002f	e8 00 00 00 00	 call	 ?TraceError@@YAXPBDZZ	; TraceError

; 189  : 		return 0.0f;

  00034	d9 ee		 fldz
  00036	83 c4 14	 add	 esp, 20			; 00000014H

; 193  : }

  00039	5d		 pop	 ebp
  0003a	c2 08 00	 ret	 8
$LN2@GetHeight:

; 190  : 	}
; 191  : 	CMapOutdoor& rkMap=GetMapOutdoorRef();

  0003d	e8 00 00 00 00	 call	 ?GetMapOutdoorRef@CMapManager@@QAEAAVCMapOutdoor@@XZ ; CMapManager::GetMapOutdoorRef

; 192  : 	return rkMap.GetHeight(fx, fy);

  00042	f3 0f 10 45 0c	 movss	 xmm0, DWORD PTR _fy$[ebp]
  00047	83 ec 08	 sub	 esp, 8
  0004a	8b c8		 mov	 ecx, eax
  0004c	8b 10		 mov	 edx, DWORD PTR [eax]
  0004e	f3 0f 11 44 24
	04		 movss	 DWORD PTR [esp+4], xmm0
  00054	f3 0f 10 45 08	 movss	 xmm0, DWORD PTR _fx$[ebp]
  00059	f3 0f 11 04 24	 movss	 DWORD PTR [esp], xmm0
  0005e	8b 42 1c	 mov	 eax, DWORD PTR [edx+28]
  00061	ff d0		 call	 eax

; 193  : }

  00063	5d		 pop	 ebp
  00064	c2 08 00	 ret	 8
?GetHeight@CMapManager@@QAEMMM@Z ENDP			; CMapManager::GetHeight
_TEXT	ENDS
; Function compile flags: /Ogtp
; File C:\Users\murat\Desktop\Siveps2-1-99-Project\source\client\Client\GameLib\MapManager.cpp
;	COMDAT ?UpdateAroundAmbience@CMapManager@@QAEXMMM@Z
_TEXT	SEGMENT
_fx$ = 8						; size = 4
_fy$ = 12						; size = 4
_fz$ = 16						; size = 4
?UpdateAroundAmbience@CMapManager@@QAEXMMM@Z PROC	; CMapManager::UpdateAroundAmbience, COMDAT
; _this$ = ecx

; 176  : {

  00000	55		 push	 ebp
  00001	8b ec		 mov	 ebp, esp

; 177  : 	if (!m_pkMap)

  00003	83 b9 30 14 00
	00 00		 cmp	 DWORD PTR [ecx+5168], 0
  0000a	74 36		 je	 SHORT $LN1@UpdateArou

; 178  : 		return;
; 179  : 
; 180  : 	CMapOutdoor& rkMap=GetMapOutdoorRef();

  0000c	e8 00 00 00 00	 call	 ?GetMapOutdoorRef@CMapManager@@QAEAAVCMapOutdoor@@XZ ; CMapManager::GetMapOutdoorRef

; 181  : 	rkMap.UpdateAroundAmbience(fx, -fy, fz);

  00011	f3 0f 10 45 10	 movss	 xmm0, DWORD PTR _fz$[ebp]
  00016	83 ec 0c	 sub	 esp, 12			; 0000000cH
  00019	8b c8		 mov	 ecx, eax
  0001b	8b 10		 mov	 edx, DWORD PTR [eax]
  0001d	f3 0f 11 44 24
	08		 movss	 DWORD PTR [esp+8], xmm0
  00023	f3 0f 10 45 0c	 movss	 xmm0, DWORD PTR _fy$[ebp]
  00028	0f 57 05 00 00
	00 00		 xorps	 xmm0, DWORD PTR __xmm@80000000800000008000000080000000
  0002f	f3 0f 11 44 24
	04		 movss	 DWORD PTR [esp+4], xmm0
  00035	f3 0f 10 45 08	 movss	 xmm0, DWORD PTR _fx$[ebp]
  0003a	f3 0f 11 04 24	 movss	 DWORD PTR [esp], xmm0
  0003f	ff 52 18	 call	 DWORD PTR [edx+24]
$LN1@UpdateArou:

; 182  : }

  00042	5d		 pop	 ebp
  00043	c2 0c 00	 ret	 12			; 0000000cH
?UpdateAroundAmbience@CMapManager@@QAEXMMM@Z ENDP	; CMapManager::UpdateAroundAmbience
_TEXT	ENDS
; Function compile flags: /Ogtp
; File C:\Users\murat\Desktop\Siveps2-1-99-Project\source\client\Client\GameLib\MapManager.cpp
;	COMDAT ?UpdateMap@CMapManager@@QAE_NMMM@Z
_TEXT	SEGMENT
_fx$ = 8						; size = 4
_fy$ = 12						; size = 4
_fz$ = 16						; size = 4
?UpdateMap@CMapManager@@QAE_NMMM@Z PROC			; CMapManager::UpdateMap, COMDAT
; _this$ = ecx

; 167  : {

  00000	55		 push	 ebp
  00001	8b ec		 mov	 ebp, esp

; 168  : 	if (!m_pkMap)

  00003	83 b9 30 14 00
	00 00		 cmp	 DWORD PTR [ecx+5168], 0
  0000a	75 06		 jne	 SHORT $LN2@UpdateMap

; 169  : 		return false;

  0000c	32 c0		 xor	 al, al

; 173  : }

  0000e	5d		 pop	 ebp
  0000f	c2 0c 00	 ret	 12			; 0000000cH
$LN2@UpdateMap:

; 170  : 
; 171  : 	CMapOutdoor& rkMap=GetMapOutdoorRef();

  00012	e8 00 00 00 00	 call	 ?GetMapOutdoorRef@CMapManager@@QAEAAVCMapOutdoor@@XZ ; CMapManager::GetMapOutdoorRef

; 172  : 	return rkMap.Update(fx, -fy, fz);

  00017	f3 0f 10 45 10	 movss	 xmm0, DWORD PTR _fz$[ebp]
  0001c	83 ec 0c	 sub	 esp, 12			; 0000000cH
  0001f	8b c8		 mov	 ecx, eax
  00021	8b 10		 mov	 edx, DWORD PTR [eax]
  00023	f3 0f 11 44 24
	08		 movss	 DWORD PTR [esp+8], xmm0
  00029	f3 0f 10 45 0c	 movss	 xmm0, DWORD PTR _fy$[ebp]
  0002e	0f 57 05 00 00
	00 00		 xorps	 xmm0, DWORD PTR __xmm@80000000800000008000000080000000
  00035	8b 42 14	 mov	 eax, DWORD PTR [edx+20]
  00038	f3 0f 11 44 24
	04		 movss	 DWORD PTR [esp+4], xmm0
  0003e	f3 0f 10 45 08	 movss	 xmm0, DWORD PTR _fx$[ebp]
  00043	f3 0f 11 04 24	 movss	 DWORD PTR [esp], xmm0
  00048	ff d0		 call	 eax

; 173  : }

  0004a	5d		 pop	 ebp
  0004b	c2 0c 00	 ret	 12			; 0000000cH
?UpdateMap@CMapManager@@QAE_NMMM@Z ENDP			; CMapManager::UpdateMap
_TEXT	ENDS
; Function compile flags: /Ogtp
; File C:\Users\murat\Desktop\Siveps2-1-99-Project\source\client\Client\GameLib\MapManager.cpp
; File C:\Program Files (x86)\Microsoft Visual Studio\2019\Professional\VC\Tools\MSVC\14.29.30133\include\xstring
; File C:\Users\murat\Desktop\Siveps2-1-99-Project\source\client\Client\GameLib\MapManager.cpp
; File C:\Program Files (x86)\Microsoft Visual Studio\2019\Professional\VC\Tools\MSVC\14.29.30133\include\xstring
; File C:\Program Files (x86)\Microsoft Visual Studio\2019\Professional\VC\Tools\MSVC\14.29.30133\include\xmemory
; File C:\Program Files (x86)\Microsoft Visual Studio\2019\Professional\VC\Tools\MSVC\14.29.30133\include\xstring
; File C:\Program Files (x86)\Microsoft Visual Studio\2019\Professional\VC\Tools\MSVC\14.29.30133\include\xmemory
; File C:\Users\murat\Desktop\Siveps2-1-99-Project\source\client\Client\GameLib\MapManager.cpp
; File C:\Program Files (x86)\Microsoft Visual Studio\2019\Professional\VC\Tools\MSVC\14.29.30133\include\xmemory
; File C:\Users\murat\Desktop\Siveps2-1-99-Project\source\client\Client\GameLib\MapManager.cpp
;	COMDAT ?UnloadMap@CMapManager@@QAE_NV?$basic_string@DU?$char_traits@D@std@@V?$allocator@D@2@@std@@@Z
_TEXT	SEGMENT
__$EHRec$ = -12						; size = 12
_c_strMapName$ = 8					; size = 24
?UnloadMap@CMapManager@@QAE_NV?$basic_string@DU?$char_traits@D@std@@V?$allocator@D@2@@std@@@Z PROC ; CMapManager::UnloadMap, COMDAT
; _this$ = ecx

; 154  : {

  00000	55		 push	 ebp
  00001	8b ec		 mov	 ebp, esp
  00003	6a ff		 push	 -1
  00005	68 00 00 00 00	 push	 __ehhandler$?UnloadMap@CMapManager@@QAE_NV?$basic_string@DU?$char_traits@D@std@@V?$allocator@D@2@@std@@@Z
  0000a	64 a1 00 00 00
	00		 mov	 eax, DWORD PTR fs:0
  00010	50		 push	 eax
  00011	53		 push	 ebx
  00012	56		 push	 esi
  00013	57		 push	 edi
  00014	a1 00 00 00 00	 mov	 eax, DWORD PTR ___security_cookie
  00019	33 c5		 xor	 eax, ebp
  0001b	50		 push	 eax
  0001c	8d 45 f4	 lea	 eax, DWORD PTR __$EHRec$[ebp]
  0001f	64 a3 00 00 00
	00		 mov	 DWORD PTR fs:0, eax
  00025	8b f1		 mov	 esi, ecx
  00027	c7 45 fc 00 00
	00 00		 mov	 DWORD PTR __$EHRec$[ebp+8], 0

; 155  : 	CMapOutdoor& rkMap=GetMapOutdoorRef();

  0002e	e8 00 00 00 00	 call	 ?GetMapOutdoorRef@CMapManager@@QAEAAVCMapOutdoor@@XZ ; CMapManager::GetMapOutdoorRef

; 156  : 	if (c_strMapName != rkMap.GetName() && "" != rkMap.GetName())

  00033	8d 78 08	 lea	 edi, DWORD PTR [eax+8]
  00036	8d 45 08	 lea	 eax, DWORD PTR _c_strMapName$[ebp]
  00039	57		 push	 edi
  0003a	50		 push	 eax
  0003b	e8 00 00 00 00	 call	 ??$?9DU?$char_traits@D@std@@V?$allocator@D@1@@std@@YA_NABV?$basic_string@DU?$char_traits@D@std@@V?$allocator@D@2@@0@0@Z ; std::operator!=<char,std::char_traits<char>,std::allocator<char> >
  00040	83 c4 08	 add	 esp, 8
  00043	84 c0		 test	 al, al
  00045	74 2f		 je	 SHORT $LN2@UnloadMap
  00047	57		 push	 edi
  00048	68 00 00 00 00	 push	 OFFSET ??_C@_00CNPNBAHC@@
  0004d	e8 00 00 00 00	 call	 ??$?9DU?$char_traits@D@std@@V?$allocator@D@1@@std@@YA_NQBDABV?$basic_string@DU?$char_traits@D@std@@V?$allocator@D@2@@0@@Z ; std::operator!=<char,std::char_traits<char>,std::allocator<char> >
  00052	83 c4 08	 add	 esp, 8
  00055	84 c0		 test	 al, al
  00057	74 1d		 je	 SHORT $LN2@UnloadMap
; File C:\Program Files (x86)\Microsoft Visual Studio\2019\Professional\VC\Tools\MSVC\14.29.30133\include\xstring

; 2319 :         return _BUF_SIZE <= _Myres;

  00059	83 7d 1c 10	 cmp	 DWORD PTR _c_strMapName$[ebp+20], 16 ; 00000010H

; 2305 :         const value_type* _Result = _Bx._Buf;

  0005d	8d 45 08	 lea	 eax, DWORD PTR _c_strMapName$[ebp]

; 2306 :         if (_Large_string_engaged()) {

  00060	0f 43 45 08	 cmovae	 eax, DWORD PTR _c_strMapName$[ebp]
; File C:\Users\murat\Desktop\Siveps2-1-99-Project\source\client\Client\GameLib\MapManager.cpp

; 158  : 		LogBoxf("%s: Unload Map Failed", c_strMapName.c_str());

  00064	50		 push	 eax
  00065	68 00 00 00 00	 push	 OFFSET ??_C@_0BG@CFNBDNBB@?$CFs?3?5Unload?5Map?5Failed@
  0006a	e8 00 00 00 00	 call	 ?LogBoxf@@YAXPBDZZ	; LogBoxf
  0006f	83 c4 08	 add	 esp, 8
  00072	32 db		 xor	 bl, bl
  00074	eb 09		 jmp	 SHORT $LN5@UnloadMap
$LN2@UnloadMap:

; 159  : 		return false;
; 160  : 	}
; 161  : 
; 162  : 	Clear();

  00076	8b 06		 mov	 eax, DWORD PTR [esi]
  00078	8b ce		 mov	 ecx, esi
  0007a	ff 50 04	 call	 DWORD PTR [eax+4]

; 163  : 	return true;

  0007d	b3 01		 mov	 bl, 1
$LN5@UnloadMap:
; File C:\Program Files (x86)\Microsoft Visual Studio\2019\Professional\VC\Tools\MSVC\14.29.30133\include\xstring

; 2319 :         return _BUF_SIZE <= _Myres;

  0007f	8b 55 1c	 mov	 edx, DWORD PTR _c_strMapName$[ebp+20]
  00082	83 fa 10	 cmp	 edx, 16			; 00000010H

; 4618 :         if (_Mypair._Myval2._Large_string_engaged()) {

  00085	72 28		 jb	 SHORT $LN25@UnloadMap
; File C:\Program Files (x86)\Microsoft Visual Studio\2019\Professional\VC\Tools\MSVC\14.29.30133\include\xmemory

; 835  :         _Deallocate<_New_alignof<_Ty>>(_Ptr, sizeof(_Ty) * _Count);

  00087	8b 4d 08	 mov	 ecx, DWORD PTR _c_strMapName$[ebp]
; File C:\Program Files (x86)\Microsoft Visual Studio\2019\Professional\VC\Tools\MSVC\14.29.30133\include\xstring

; 4622 :             _Al.deallocate(_Ptr, _Mypair._Myval2._Myres + 1);

  0008a	42		 inc	 edx
; File C:\Program Files (x86)\Microsoft Visual Studio\2019\Professional\VC\Tools\MSVC\14.29.30133\include\xmemory

; 835  :         _Deallocate<_New_alignof<_Ty>>(_Ptr, sizeof(_Ty) * _Count);

  0008b	8b c1		 mov	 eax, ecx

; 260  :         if (_Bytes >= _Big_allocation_threshold) { // boost the alignment of big allocations to help autovectorization

  0008d	81 fa 00 10 00
	00		 cmp	 edx, 4096		; 00001000H
  00093	72 10		 jb	 SHORT $LN35@UnloadMap

; 158  :     const uintptr_t _Ptr_container   = _Ptr_user[-1];

  00095	8b 49 fc	 mov	 ecx, DWORD PTR [ecx-4]
  00098	83 c2 23	 add	 edx, 35			; 00000023H
  0009b	2b c1		 sub	 eax, ecx

; 172  :     _STL_VERIFY(_Back_shift >= _Min_back_shift && _Back_shift <= _Non_user_size, "invalid argument");

  0009d	83 c0 fc	 add	 eax, -4			; fffffffcH
  000a0	83 f8 1f	 cmp	 eax, 31			; 0000001fH
  000a3	77 20		 ja	 SHORT $LN44@UnloadMap
$LN35@UnloadMap:

; 264  :         ::operator delete(_Ptr, _Bytes);

  000a5	52		 push	 edx
  000a6	51		 push	 ecx
  000a7	e8 00 00 00 00	 call	 ??3@YAXPAXI@Z		; operator delete
  000ac	83 c4 08	 add	 esp, 8
$LN25@UnloadMap:
; File C:\Users\murat\Desktop\Siveps2-1-99-Project\source\client\Client\GameLib\MapManager.cpp

; 163  : 	return true;

  000af	8a c3		 mov	 al, bl

; 164  : }

  000b1	8b 4d f4	 mov	 ecx, DWORD PTR __$EHRec$[ebp]
  000b4	64 89 0d 00 00
	00 00		 mov	 DWORD PTR fs:0, ecx
  000bb	59		 pop	 ecx
  000bc	5f		 pop	 edi
  000bd	5e		 pop	 esi
  000be	5b		 pop	 ebx
  000bf	8b e5		 mov	 esp, ebp
  000c1	5d		 pop	 ebp
  000c2	c2 18 00	 ret	 24			; 00000018H
$LN44@UnloadMap:
; File C:\Program Files (x86)\Microsoft Visual Studio\2019\Professional\VC\Tools\MSVC\14.29.30133\include\xmemory

; 172  :     _STL_VERIFY(_Back_shift >= _Min_back_shift && _Back_shift <= _Non_user_size, "invalid argument");

  000c5	e8 00 00 00 00	 call	 __invalid_parameter_noinfo_noreturn
$LN42@UnloadMap:
  000ca	cc		 int	 3
_TEXT	ENDS
;	COMDAT text$x
text$x	SEGMENT
__unwindfunclet$?UnloadMap@CMapManager@@QAE_NV?$basic_string@DU?$char_traits@D@std@@V?$allocator@D@2@@std@@@Z$0:
  00000	8d 4d 08	 lea	 ecx, DWORD PTR _c_strMapName$[ebp]
  00003	e9 00 00 00 00	 jmp	 ??1?$basic_string@DU?$char_traits@D@std@@V?$allocator@D@2@@std@@QAE@XZ ; std::basic_string<char,std::char_traits<char>,std::allocator<char> >::~basic_string<char,std::char_traits<char>,std::allocator<char> >
  00008	cc		 int	 3
  00009	cc		 int	 3
  0000a	cc		 int	 3
  0000b	cc		 int	 3
  0000c	cc		 int	 3
__ehhandler$?UnloadMap@CMapManager@@QAE_NV?$basic_string@DU?$char_traits@D@std@@V?$allocator@D@2@@std@@@Z:
  0000d	90		 npad	 1
  0000e	90		 npad	 1
  0000f	8b 54 24 08	 mov	 edx, DWORD PTR [esp+8]
  00013	8d 42 0c	 lea	 eax, DWORD PTR [edx+12]
  00016	8b 4a f0	 mov	 ecx, DWORD PTR [edx-16]
  00019	33 c8		 xor	 ecx, eax
  0001b	e8 00 00 00 00	 call	 @__security_check_cookie@4
  00020	b8 00 00 00 00	 mov	 eax, OFFSET __ehfuncinfo$?UnloadMap@CMapManager@@QAE_NV?$basic_string@DU?$char_traits@D@std@@V?$allocator@D@2@@std@@@Z
  00025	e9 00 00 00 00	 jmp	 ___CxxFrameHandler3
text$x	ENDS
?UnloadMap@CMapManager@@QAE_NV?$basic_string@DU?$char_traits@D@std@@V?$allocator@D@2@@std@@@Z ENDP ; CMapManager::UnloadMap
; Function compile flags: /Ogtp
; File C:\Users\murat\Desktop\Siveps2-1-99-Project\source\client\Client\GameLib\MapManager.cpp
; File C:\Program Files (x86)\Microsoft Visual Studio\2019\Professional\VC\Tools\MSVC\14.29.30133\include\xstring
; File C:\Users\murat\Desktop\Siveps2-1-99-Project\source\client\Client\GameLib\MapBase.h
; File C:\Program Files (x86)\Microsoft Visual Studio\2019\Professional\VC\Tools\MSVC\14.29.30133\include\xstring
; File C:\Users\murat\Desktop\Siveps2-1-99-Project\source\client\Client\GameLib\MapManager.cpp
; File C:\Program Files (x86)\Microsoft Visual Studio\2019\Professional\VC\Tools\MSVC\14.29.30133\include\xstring
; File C:\Users\murat\Desktop\Siveps2-1-99-Project\source\client\Client\GameLib\MapManager.cpp
;	COMDAT ?LoadMap@CMapManager@@UAE_NABV?$basic_string@DU?$char_traits@D@std@@V?$allocator@D@2@@std@@MMM@Z
_TEXT	SEGMENT
_c_rstrMapName$ = 8					; size = 4
_x$ = 12						; size = 4
_y$ = 16						; size = 4
_z$ = 20						; size = 4
?LoadMap@CMapManager@@UAE_NABV?$basic_string@DU?$char_traits@D@std@@V?$allocator@D@2@@std@@MMM@Z PROC ; CMapManager::LoadMap, COMDAT
; _this$ = ecx

; 111  : {

  00000	55		 push	 ebp
  00001	8b ec		 mov	 ebp, esp
  00003	56		 push	 esi
  00004	57		 push	 edi
  00005	8b f9		 mov	 edi, ecx

; 112  : 	CMapOutdoor& rkMap = GetMapOutdoorRef();

  00007	e8 00 00 00 00	 call	 ?GetMapOutdoorRef@CMapManager@@QAEAAVCMapOutdoor@@XZ ; CMapManager::GetMapOutdoorRef
  0000c	8b f0		 mov	 esi, eax

; 113  : 
; 114  : 	rkMap.Leave();

  0000e	8b ce		 mov	 ecx, esi
  00010	e8 00 00 00 00	 call	 ?Leave@CMapBase@@QAE_NXZ ; CMapBase::Leave
; File C:\Program Files (x86)\Microsoft Visual Studio\2019\Professional\VC\Tools\MSVC\14.29.30133\include\xstring

; 3077 :         if (this != _STD addressof(_Right)) {

  00015	8b 45 08	 mov	 eax, DWORD PTR _c_rstrMapName$[ebp]
; File C:\Users\murat\Desktop\Siveps2-1-99-Project\source\client\Client\GameLib\MapBase.h

; 51   : 		void SetName(const std::string & cr_strName) { m_strName = cr_strName; }

  00018	8d 4e 08	 lea	 ecx, DWORD PTR [esi+8]
; File C:\Program Files (x86)\Microsoft Visual Studio\2019\Professional\VC\Tools\MSVC\14.29.30133\include\xstring

; 3077 :         if (this != _STD addressof(_Right)) {

  0001b	3b c8		 cmp	 ecx, eax
  0001d	74 13		 je	 SHORT $LN11@LoadMap

; 2319 :         return _BUF_SIZE <= _Myres;

  0001f	83 78 14 10	 cmp	 DWORD PTR [eax+20], 16	; 00000010H

; 2305 :         const value_type* _Result = _Bx._Buf;

  00023	8b d0		 mov	 edx, eax

; 2306 :         if (_Large_string_engaged()) {

  00025	72 02		 jb	 SHORT $LN16@LoadMap

; 2307 :             _Result = _Unfancy(_Bx._Ptr);

  00027	8b 10		 mov	 edx, DWORD PTR [eax]
$LN16@LoadMap:

; 3035 :         assign(_Right._Mypair._Myval2._Myptr(), _Right._Mypair._Myval2._Mysize);

  00029	ff 70 10	 push	 DWORD PTR [eax+16]
  0002c	52		 push	 edx
  0002d	e8 00 00 00 00	 call	 ?assign@?$basic_string@DU?$char_traits@D@std@@V?$allocator@D@2@@std@@QAEAAV12@QBDI@Z ; std::basic_string<char,std::char_traits<char>,std::allocator<char> >::assign
$LN11@LoadMap:
; File C:\Users\murat\Desktop\Siveps2-1-99-Project\source\client\Client\GameLib\MapManager.cpp

; 116  : 	rkMap.LoadProperty();

  00032	8b ce		 mov	 ecx, esi
  00034	e8 00 00 00 00	 call	 ?LoadProperty@CMapBase@@QAE_NXZ ; CMapBase::LoadProperty

; 117  : 
; 118  : 	if ( CMapBase::MAPTYPE_INDOOR == rkMap.GetType())

  00039	8b 46 04	 mov	 eax, DWORD PTR [esi+4]
  0003c	83 f8 01	 cmp	 eax, 1
  0003f	75 15		 jne	 SHORT $LN2@LoadMap

; 119  : 	{
; 120  : 		TraceError("CMapManager::LoadMap() Indoor Map Load Failed");

  00041	68 00 00 00 00	 push	 OFFSET ??_C@_0CO@NOKMKMGJ@CMapManager?3?3LoadMap?$CI?$CJ?5Indoor?5M@

; 143  : }

  00046	e8 00 00 00 00	 call	 ?TraceError@@YAXPBDZZ	; TraceError
  0004b	83 c4 04	 add	 esp, 4
  0004e	32 c0		 xor	 al, al
  00050	5f		 pop	 edi
  00051	5e		 pop	 esi
  00052	5d		 pop	 ebp
  00053	c2 10 00	 ret	 16			; 00000010H
$LN2@LoadMap:

; 121  : 		return false;
; 122  : 	}
; 123  : 	else if (CMapBase::MAPTYPE_OUTDOOR == rkMap.GetType())

  00056	83 f8 02	 cmp	 eax, 2
  00059	75 76		 jne	 SHORT $LN4@LoadMap

; 124  : 	{
; 125  : 		if (!rkMap.Load(x, y, z))

  0005b	f3 0f 10 45 14	 movss	 xmm0, DWORD PTR _z$[ebp]
  00060	83 ec 0c	 sub	 esp, 12			; 0000000cH
  00063	8b 06		 mov	 eax, DWORD PTR [esi]
  00065	8b ce		 mov	 ecx, esi
  00067	f3 0f 11 44 24
	08		 movss	 DWORD PTR [esp+8], xmm0
  0006d	f3 0f 10 45 10	 movss	 xmm0, DWORD PTR _y$[ebp]
  00072	8b 40 10	 mov	 eax, DWORD PTR [eax+16]
  00075	f3 0f 11 44 24
	04		 movss	 DWORD PTR [esp+4], xmm0
  0007b	f3 0f 10 45 0c	 movss	 xmm0, DWORD PTR _x$[ebp]
  00080	f3 0f 11 04 24	 movss	 DWORD PTR [esp], xmm0
  00085	ff d0		 call	 eax
  00087	84 c0		 test	 al, al
  00089	75 15		 jne	 SHORT $LN6@LoadMap

; 126  : 		{
; 127  : 			TraceError("CMapManager::LoadMap() Outdoor Map Load Failed");

  0008b	68 00 00 00 00	 push	 OFFSET ??_C@_0CP@DDEONFBH@CMapManager?3?3LoadMap?$CI?$CJ?5Outdoor?5@

; 143  : }

  00090	e8 00 00 00 00	 call	 ?TraceError@@YAXPBDZZ	; TraceError
  00095	83 c4 04	 add	 esp, 4
  00098	32 c0		 xor	 al, al
  0009a	5f		 pop	 edi
  0009b	5e		 pop	 esi
  0009c	5d		 pop	 ebp
  0009d	c2 10 00	 ret	 16			; 00000010H
$LN6@LoadMap:

; 131  : 		RegisterEnvironmentData(0, rkMap.GetEnvironmentDataName().c_str());

  000a0	8b ce		 mov	 ecx, esi
  000a2	e8 00 00 00 00	 call	 ?GetEnvironmentDataName@CMapOutdoor@@QAEAAV?$basic_string@DU?$char_traits@D@std@@V?$allocator@D@2@@std@@XZ ; CMapOutdoor::GetEnvironmentDataName
; File C:\Program Files (x86)\Microsoft Visual Studio\2019\Professional\VC\Tools\MSVC\14.29.30133\include\xstring

; 2319 :         return _BUF_SIZE <= _Myres;

  000a7	83 78 14 10	 cmp	 DWORD PTR [eax+20], 16	; 00000010H

; 2306 :         if (_Large_string_engaged()) {

  000ab	72 02		 jb	 SHORT $LN23@LoadMap

; 2307 :             _Result = _Unfancy(_Bx._Ptr);

  000ad	8b 00		 mov	 eax, DWORD PTR [eax]
$LN23@LoadMap:
; File C:\Users\murat\Desktop\Siveps2-1-99-Project\source\client\Client\GameLib\MapManager.cpp

; 131  : 		RegisterEnvironmentData(0, rkMap.GetEnvironmentDataName().c_str());

  000af	50		 push	 eax
  000b0	6a 00		 push	 0
  000b2	8b cf		 mov	 ecx, edi
  000b4	e8 00 00 00 00	 call	 ?RegisterEnvironmentData@CMapManager@@QAE_NKPBD@Z ; CMapManager::RegisterEnvironmentData

; 132  : 
; 133  : 		SetEnvironmentData(0);

  000b9	6a 00		 push	 0
  000bb	8b cf		 mov	 ecx, edi
  000bd	e8 00 00 00 00	 call	 ?SetEnvironmentData@CMapManager@@QAEXH@Z ; CMapManager::SetEnvironmentData

; 138  : 		return false;
; 139  : 	}
; 140  : 
; 141  : 	rkMap.Enter();

  000c2	8b ce		 mov	 ecx, esi
  000c4	e8 00 00 00 00	 call	 ?Enter@CMapBase@@QAE_NXZ ; CMapBase::Enter
  000c9	5f		 pop	 edi

; 142  : 	return true;

  000ca	b0 01		 mov	 al, 1

; 143  : }

  000cc	5e		 pop	 esi
  000cd	5d		 pop	 ebp
  000ce	c2 10 00	 ret	 16			; 00000010H
$LN4@LoadMap:

; 134  : 	}
; 135  : 	else
; 136  : 	{
; 137  : 		TraceError("CMapManager::LoadMap() Invalid Map Type");

  000d1	68 00 00 00 00	 push	 OFFSET ??_C@_0CI@JGDAGOMB@CMapManager?3?3LoadMap?$CI?$CJ?5Invalid?5@

; 143  : }

  000d6	e8 00 00 00 00	 call	 ?TraceError@@YAXPBDZZ	; TraceError
  000db	83 c4 04	 add	 esp, 4
  000de	32 c0		 xor	 al, al
  000e0	5f		 pop	 edi
  000e1	5e		 pop	 esi
  000e2	5d		 pop	 ebp
  000e3	c2 10 00	 ret	 16			; 00000010H
?LoadMap@CMapManager@@UAE_NABV?$basic_string@DU?$char_traits@D@std@@V?$allocator@D@2@@std@@MMM@Z ENDP ; CMapManager::LoadMap
_TEXT	ENDS
; Function compile flags: /Ogtp
; File C:\Users\murat\Desktop\Siveps2-1-99-Project\source\client\Client\GameLib\MapManager.cpp
;	COMDAT ?IsMapReady@CMapManager@@QAE_NXZ
_TEXT	SEGMENT
?IsMapReady@CMapManager@@QAE_NXZ PROC			; CMapManager::IsMapReady, COMDAT
; _this$ = ecx

; 147  : 	if (!m_pkMap)

  00000	8b 81 30 14 00
	00		 mov	 eax, DWORD PTR [ecx+5168]
  00006	85 c0		 test	 eax, eax
  00008	75 03		 jne	 SHORT $LN2@IsMapReady

; 148  : 		return false;

  0000a	32 c0		 xor	 al, al

; 151  : }

  0000c	c3		 ret	 0
$LN2@IsMapReady:

; 149  : 
; 150  : 	return m_pkMap->IsReady();

  0000d	8a 40 38	 mov	 al, BYTE PTR [eax+56]

; 151  : }

  00010	c3		 ret	 0
?IsMapReady@CMapManager@@QAE_NXZ ENDP			; CMapManager::IsMapReady
_TEXT	ENDS
; Function compile flags: /Ogtp
; File C:\Users\murat\Desktop\Siveps2-1-99-Project\source\client\Client\GameLib\MapManager.cpp
;	COMDAT ?AllocMap@CMapManager@@UAEPAVCMapBase@@XZ
_TEXT	SEGMENT
$T2 = -16						; size = 4
__$EHRec$ = -12						; size = 12
?AllocMap@CMapManager@@UAEPAVCMapBase@@XZ PROC		; CMapManager::AllocMap, COMDAT
; _this$ = ecx

; 96   : {

  00000	55		 push	 ebp
  00001	8b ec		 mov	 ebp, esp
  00003	6a ff		 push	 -1
  00005	68 00 00 00 00	 push	 __ehhandler$?AllocMap@CMapManager@@UAEPAVCMapBase@@XZ
  0000a	64 a1 00 00 00
	00		 mov	 eax, DWORD PTR fs:0
  00010	50		 push	 eax
  00011	51		 push	 ecx
  00012	a1 00 00 00 00	 mov	 eax, DWORD PTR ___security_cookie
  00017	33 c5		 xor	 eax, ebp
  00019	50		 push	 eax
  0001a	8d 45 f4	 lea	 eax, DWORD PTR __$EHRec$[ebp]
  0001d	64 a3 00 00 00
	00		 mov	 DWORD PTR fs:0, eax

; 97   : 	return new CMapOutdoor;

  00023	68 b0 13 00 00	 push	 5040			; 000013b0H
  00028	e8 00 00 00 00	 call	 ??2@YAPAXI@Z		; operator new
  0002d	83 c4 04	 add	 esp, 4
  00030	89 45 f0	 mov	 DWORD PTR $T2[ebp], eax
  00033	c7 45 fc 00 00
	00 00		 mov	 DWORD PTR __$EHRec$[ebp+8], 0
  0003a	85 c0		 test	 eax, eax
  0003c	74 16		 je	 SHORT $LN3@AllocMap
  0003e	8b c8		 mov	 ecx, eax
  00040	e8 00 00 00 00	 call	 ??0CMapOutdoor@@QAE@XZ	; CMapOutdoor::CMapOutdoor

; 98   : }

  00045	8b 4d f4	 mov	 ecx, DWORD PTR __$EHRec$[ebp]
  00048	64 89 0d 00 00
	00 00		 mov	 DWORD PTR fs:0, ecx
  0004f	59		 pop	 ecx
  00050	8b e5		 mov	 esp, ebp
  00052	5d		 pop	 ebp
  00053	c3		 ret	 0
$LN3@AllocMap:

; 97   : 	return new CMapOutdoor;

  00054	33 c0		 xor	 eax, eax

; 98   : }

  00056	8b 4d f4	 mov	 ecx, DWORD PTR __$EHRec$[ebp]
  00059	64 89 0d 00 00
	00 00		 mov	 DWORD PTR fs:0, ecx
  00060	59		 pop	 ecx
  00061	8b e5		 mov	 esp, ebp
  00063	5d		 pop	 ebp
  00064	c3		 ret	 0
_TEXT	ENDS
;	COMDAT text$x
text$x	SEGMENT
__unwindfunclet$?AllocMap@CMapManager@@UAEPAVCMapBase@@XZ$0:
  00000	68 b0 13 00 00	 push	 5040			; 000013b0H
  00005	8b 45 f0	 mov	 eax, DWORD PTR $T2[ebp]
  00008	50		 push	 eax
  00009	e8 00 00 00 00	 call	 ??3@YAXPAXI@Z		; operator delete
  0000e	83 c4 08	 add	 esp, 8
  00011	c3		 ret	 0
  00012	cc		 int	 3
  00013	cc		 int	 3
  00014	cc		 int	 3
  00015	cc		 int	 3
  00016	cc		 int	 3
__ehhandler$?AllocMap@CMapManager@@UAEPAVCMapBase@@XZ:
  00017	90		 npad	 1
  00018	90		 npad	 1
  00019	8b 54 24 08	 mov	 edx, DWORD PTR [esp+8]
  0001d	8d 42 0c	 lea	 eax, DWORD PTR [edx+12]
  00020	8b 4a f8	 mov	 ecx, DWORD PTR [edx-8]
  00023	33 c8		 xor	 ecx, eax
  00025	e8 00 00 00 00	 call	 @__security_check_cookie@4
  0002a	b8 00 00 00 00	 mov	 eax, OFFSET __ehfuncinfo$?AllocMap@CMapManager@@UAEPAVCMapBase@@XZ
  0002f	e9 00 00 00 00	 jmp	 ___CxxFrameHandler3
text$x	ENDS
?AllocMap@CMapManager@@UAEPAVCMapBase@@XZ ENDP		; CMapManager::AllocMap
; Function compile flags: /Ogtp
; File C:\Users\murat\Desktop\Siveps2-1-99-Project\source\client\Client\GameLib\MapManager.cpp
;	COMDAT ?Clear@CMapManager@@UAEXXZ
_TEXT	SEGMENT
?Clear@CMapManager@@UAEXXZ PROC				; CMapManager::Clear, COMDAT
; _this$ = ecx

; 91   : 	if (m_pkMap)

  00000	8b 89 30 14 00
	00		 mov	 ecx, DWORD PTR [ecx+5168]
  00006	85 c9		 test	 ecx, ecx
  00008	74 05		 je	 SHORT $LN2@Clear

; 92   : 		m_pkMap->Clear();

  0000a	8b 01		 mov	 eax, DWORD PTR [ecx]
  0000c	ff 60 04	 jmp	 DWORD PTR [eax+4]
$LN2@Clear:

; 93   : }

  0000f	c3		 ret	 0
?Clear@CMapManager@@UAEXXZ ENDP				; CMapManager::Clear
_TEXT	ENDS
; Function compile flags: /Ogtp
; File C:\Users\murat\Desktop\Siveps2-1-99-Project\source\client\Client\GameLib\MapManager.cpp
;	COMDAT ?Create@CMapManager@@QAEXXZ
_TEXT	SEGMENT
?Create@CMapManager@@QAEXXZ PROC			; CMapManager::Create, COMDAT
; _this$ = ecx

; 61   : {

  00000	56		 push	 esi
  00001	8b f1		 mov	 esi, ecx

; 62   : 	assert(NULL==m_pkMap && "CMapManager::Create");
; 63   : 	if (m_pkMap)

  00003	83 be 30 14 00
	00 00		 cmp	 DWORD PTR [esi+5168], 0
  0000a	74 06		 je	 SHORT $LN2@Create

; 64   : 	{
; 65   : 		Clear();

  0000c	8b 06		 mov	 eax, DWORD PTR [esi]
  0000e	5e		 pop	 esi
  0000f	ff 60 04	 jmp	 DWORD PTR [eax+4]
$LN2@Create:

; 66   : 		return;
; 67   : 	}
; 68   : 
; 69   : 	CTerrainPatch::SOFTWARE_TRANSFORM_PATCH_ENABLE=m_isSoftwareTilingEnableReserved;

  00012	8a 86 c0 14 00
	00		 mov	 al, BYTE PTR [esi+5312]
  00018	a2 00 00 00 00	 mov	 BYTE PTR ?SOFTWARE_TRANSFORM_PATCH_ENABLE@CTerrainPatch@@2_NA, al ; CTerrainPatch::SOFTWARE_TRANSFORM_PATCH_ENABLE

; 70   : 
; 71   : 	m_pkMap = (CMapOutdoor*)AllocMap();

  0001d	8b 06		 mov	 eax, DWORD PTR [esi]
  0001f	ff 50 08	 call	 DWORD PTR [eax+8]
  00022	89 86 30 14 00
	00		 mov	 DWORD PTR [esi+5168], eax
  00028	5e		 pop	 esi

; 72   : 
; 73   : 	assert(NULL!=m_pkMap && "CMapManager::Create MAP is NULL");
; 74   : 
; 75   : }

  00029	c3		 ret	 0
?Create@CMapManager@@QAEXXZ ENDP			; CMapManager::Create
_TEXT	ENDS
; Function compile flags: /Ogtp
; File C:\Users\murat\Desktop\Siveps2-1-99-Project\source\client\Client\GameLib\MapManager.cpp
;	COMDAT ?Destroy@CMapManager@@QAEXXZ
_TEXT	SEGMENT
?Destroy@CMapManager@@QAEXXZ PROC			; CMapManager::Destroy, COMDAT
; _this$ = ecx

; 78   : {

  00000	56		 push	 esi
  00001	8b f1		 mov	 esi, ecx

; 79   : 	stl_wipe_second(m_EnvironmentDataMap);

  00003	8d 86 24 14 00
	00		 lea	 eax, DWORD PTR [esi+5156]
  00009	50		 push	 eax
  0000a	e8 00 00 00 00	 call	 ??$stl_wipe_second@V?$map@KPAUSEnvironmentData@@U?$less@K@std@@V?$allocator@U?$pair@$$CBKPAUSEnvironmentData@@@std@@@3@@std@@@@YAXAAV?$map@KPAUSEnvironmentData@@U?$less@K@std@@V?$allocator@U?$pair@$$CBKPAUSEnvironmentData@@@std@@@3@@std@@@Z ; stl_wipe_second<std::map<unsigned long,SEnvironmentData *,std::less<unsigned long>,std::allocator<std::pair<unsigned long const ,SEnvironmentData *> > > >

; 80   : 
; 81   : 	if (m_pkMap)

  0000f	8b 8e 30 14 00
	00		 mov	 ecx, DWORD PTR [esi+5168]
  00015	83 c4 04	 add	 esp, 4
  00018	85 c9		 test	 ecx, ecx
  0001a	74 1f		 je	 SHORT $LN2@Destroy

; 82   : 	{
; 83   : 		m_pkMap->Clear();

  0001c	8b 01		 mov	 eax, DWORD PTR [ecx]
  0001e	ff 50 04	 call	 DWORD PTR [eax+4]

; 84   : 		delete m_pkMap;

  00021	8b 8e 30 14 00
	00		 mov	 ecx, DWORD PTR [esi+5168]
  00027	85 c9		 test	 ecx, ecx
  00029	74 06		 je	 SHORT $LN4@Destroy
  0002b	8b 01		 mov	 eax, DWORD PTR [ecx]
  0002d	6a 01		 push	 1
  0002f	ff 10		 call	 DWORD PTR [eax]
$LN4@Destroy:

; 85   : 		m_pkMap = NULL;

  00031	c7 86 30 14 00
	00 00 00 00 00	 mov	 DWORD PTR [esi+5168], 0
$LN2@Destroy:
  0003b	5e		 pop	 esi

; 86   : 	}
; 87   : }

  0003c	c3		 ret	 0
?Destroy@CMapManager@@QAEXXZ ENDP			; CMapManager::Destroy
_TEXT	ENDS
; Function compile flags: /Ogtp
; File C:\Users\murat\Desktop\Siveps2-1-99-Project\source\client\Client\GameLib\MapManager.cpp
;	COMDAT ?Initialize@CMapManager@@QAEXXZ
_TEXT	SEGMENT
?Initialize@CMapManager@@QAEXXZ PROC			; CMapManager::Initialize, COMDAT
; _this$ = ecx

; 56   : 	mc_pcurEnvironmentData = NULL;

  00000	c7 81 2c 14 00
	00 00 00 00 00	 mov	 DWORD PTR [ecx+5164], 0

; 57   : 	__LoadMapInfoVector();

  0000a	e9 00 00 00 00	 jmp	 ?__LoadMapInfoVector@CMapManager@@IAEXXZ ; CMapManager::__LoadMapInfoVector
?Initialize@CMapManager@@QAEXXZ ENDP			; CMapManager::Initialize
_TEXT	ENDS
; Function compile flags: /Ogtp
; File C:\Users\murat\Desktop\Siveps2-1-99-Project\source\client\Client\GameLib\MapManager.cpp
;	COMDAT ?ReserveSoftwareTilingEnable@CMapManager@@QAEX_N@Z
_TEXT	SEGMENT
_isEnable$ = 8						; size = 1
?ReserveSoftwareTilingEnable@CMapManager@@QAEX_N@Z PROC	; CMapManager::ReserveSoftwareTilingEnable, COMDAT
; _this$ = ecx

; 49   : {

  00000	55		 push	 ebp
  00001	8b ec		 mov	 ebp, esp

; 50   : 	m_isSoftwareTilingEnableReserved=isEnable;

  00003	8a 45 08	 mov	 al, BYTE PTR _isEnable$[ebp]
  00006	88 81 c0 14 00
	00		 mov	 BYTE PTR [ecx+5312], al

; 51   : }

  0000c	5d		 pop	 ebp
  0000d	c2 04 00	 ret	 4
?ReserveSoftwareTilingEnable@CMapManager@@QAEX_N@Z ENDP	; CMapManager::ReserveSoftwareTilingEnable
_TEXT	ENDS
; Function compile flags: /Ogtp
; File C:\Users\murat\Desktop\Siveps2-1-99-Project\source\client\Client\GameLib\MapManager.cpp
;	COMDAT ?IsSoftwareTilingEnable@CMapManager@@QAE_NXZ
_TEXT	SEGMENT
?IsSoftwareTilingEnable@CMapManager@@QAE_NXZ PROC	; CMapManager::IsSoftwareTilingEnable, COMDAT
; _this$ = ecx

; 45   : 	return CTerrainPatch::SOFTWARE_TRANSFORM_PATCH_ENABLE;

  00000	a0 00 00 00 00	 mov	 al, BYTE PTR ?SOFTWARE_TRANSFORM_PATCH_ENABLE@CTerrainPatch@@2_NA ; CTerrainPatch::SOFTWARE_TRANSFORM_PATCH_ENABLE

; 46   : }

  00005	c3		 ret	 0
?IsSoftwareTilingEnable@CMapManager@@QAE_NXZ ENDP	; CMapManager::IsSoftwareTilingEnable
_TEXT	ENDS
; Function compile flags: /Ogtp
; File C:\Users\murat\Desktop\Siveps2-1-99-Project\source\client\Client\GameLib\MapManager.cpp
;	COMDAT ?GetMapOutdoorRef@CMapManager@@QAEAAVCMapOutdoor@@XZ
_TEXT	SEGMENT
?GetMapOutdoorRef@CMapManager@@QAEAAVCMapOutdoor@@XZ PROC ; CMapManager::GetMapOutdoorRef, COMDAT
; _this$ = ecx

; 25   : 	assert(NULL!=m_pkMap);
; 26   : 	return *m_pkMap;

  00000	8b 81 30 14 00
	00		 mov	 eax, DWORD PTR [ecx+5168]

; 27   : }

  00006	c3		 ret	 0
?GetMapOutdoorRef@CMapManager@@QAEAAVCMapOutdoor@@XZ ENDP ; CMapManager::GetMapOutdoorRef
_TEXT	ENDS
; Function compile flags: /Ogtp
; File C:\Users\murat\Desktop\Siveps2-1-99-Project\source\client\Client\GameLib\MapManager.cpp
;	COMDAT ?IsMapOutdoor@CMapManager@@QAE_NXZ
_TEXT	SEGMENT
?IsMapOutdoor@CMapManager@@QAE_NXZ PROC			; CMapManager::IsMapOutdoor, COMDAT
; _this$ = ecx

; 17   : 	if (m_pkMap)

  00000	83 b9 30 14 00
	00 00		 cmp	 DWORD PTR [ecx+5168], 0
  00007	0f 95 c0	 setne	 al

; 18   : 		return true;
; 19   : 
; 20   : 	return false;
; 21   : }

  0000a	c3		 ret	 0
?IsMapOutdoor@CMapManager@@QAE_NXZ ENDP			; CMapManager::IsMapOutdoor
_TEXT	ENDS
; Function compile flags: /Ogtp
; File C:\Users\murat\Desktop\Siveps2-1-99-Project\source\client\Client\GameLib\MapManager.cpp
; File C:\Program Files (x86)\Microsoft Visual Studio\2019\Professional\VC\Tools\MSVC\14.29.30133\include\xstring
; File C:\Program Files (x86)\Microsoft Visual Studio\2019\Professional\VC\Tools\MSVC\14.29.30133\include\xmemory
; File C:\Program Files (x86)\Microsoft Visual Studio\2019\Professional\VC\Tools\MSVC\14.29.30133\include\xstring
; File C:\Program Files (x86)\Microsoft Visual Studio\2019\Professional\VC\Tools\MSVC\14.29.30133\include\xmemory
; File C:\Users\murat\Desktop\Siveps2-1-99-Project\source\client\Client\GameLib\MapManager.cpp
; File C:\Program Files (x86)\Microsoft Visual Studio\2019\Professional\VC\Tools\MSVC\14.29.30133\include\xstring
; File C:\Users\murat\Desktop\Siveps2-1-99-Project\source\client\Client\GameLib\MapManager.cpp
; File C:\Users\murat\Desktop\Siveps2-1-99-Project\source\client\Client\GameLib\PhysicsObject.h
; File C:\Users\murat\Desktop\Siveps2-1-99-Project\source\client\Client\GameLib\MapManager.cpp
; File C:\Users\murat\Desktop\Siveps2-1-99-Project\source\client\Client\GameLib\PhysicsObject.h
; File C:\Users\murat\Desktop\Siveps2-1-99-Project\source\client\Client\GameLib\MapManager.cpp
; File C:\Program Files (x86)\Microsoft Visual Studio\2019\Professional\VC\Tools\MSVC\14.29.30133\include\xmemory
; File C:\Users\murat\Desktop\Siveps2-1-99-Project\source\client\Client\GameLib\MapManager.cpp
;	COMDAT ??1CMapManager@@UAE@XZ
_TEXT	SEGMENT
__$EHRec$ = -12						; size = 12
??1CMapManager@@UAE@XZ PROC				; CMapManager::~CMapManager, COMDAT
; _this$ = ecx

; 39   : {

  00000	55		 push	 ebp
  00001	8b ec		 mov	 ebp, esp
  00003	6a ff		 push	 -1
  00005	68 00 00 00 00	 push	 __ehhandler$??1CMapManager@@UAE@XZ
  0000a	64 a1 00 00 00
	00		 mov	 eax, DWORD PTR fs:0
  00010	50		 push	 eax
  00011	56		 push	 esi
  00012	57		 push	 edi
  00013	a1 00 00 00 00	 mov	 eax, DWORD PTR ___security_cookie
  00018	33 c5		 xor	 eax, ebp
  0001a	50		 push	 eax
  0001b	8d 45 f4	 lea	 eax, DWORD PTR __$EHRec$[ebp]
  0001e	64 a3 00 00 00
	00		 mov	 DWORD PTR fs:0, eax
  00024	8b f1		 mov	 esi, ecx
  00026	8d 7e 04	 lea	 edi, DWORD PTR [esi+4]
  00029	c7 06 00 00 00
	00		 mov	 DWORD PTR [esi], OFFSET ??_7CMapManager@@6BCScreen@@@
  0002f	c7 07 00 00 00
	00		 mov	 DWORD PTR [edi], OFFSET ??_7CMapManager@@6BIPhysicsWorld@@@

; 40   : 	Destroy();

  00035	e8 00 00 00 00	 call	 ?Destroy@CMapManager@@QAEXXZ ; CMapManager::Destroy
; File C:\Program Files (x86)\Microsoft Visual Studio\2019\Professional\VC\Tools\MSVC\14.29.30133\include\xstring

; 2319 :         return _BUF_SIZE <= _Myres;

  0003a	8b 8e d8 14 00
	00		 mov	 ecx, DWORD PTR [esi+5336]
  00040	83 f9 10	 cmp	 ecx, 16			; 00000010H

; 4618 :         if (_Mypair._Myval2._Large_string_engaged()) {

  00043	72 2b		 jb	 SHORT $LN15@CMapManage
; File C:\Program Files (x86)\Microsoft Visual Studio\2019\Professional\VC\Tools\MSVC\14.29.30133\include\xmemory

; 835  :         _Deallocate<_New_alignof<_Ty>>(_Ptr, sizeof(_Ty) * _Count);

  00045	8b 86 c4 14 00
	00		 mov	 eax, DWORD PTR [esi+5316]
; File C:\Program Files (x86)\Microsoft Visual Studio\2019\Professional\VC\Tools\MSVC\14.29.30133\include\xstring

; 4622 :             _Al.deallocate(_Ptr, _Mypair._Myval2._Myres + 1);

  0004b	41		 inc	 ecx
; File C:\Program Files (x86)\Microsoft Visual Studio\2019\Professional\VC\Tools\MSVC\14.29.30133\include\xmemory

; 260  :         if (_Bytes >= _Big_allocation_threshold) { // boost the alignment of big allocations to help autovectorization

  0004c	81 f9 00 10 00
	00		 cmp	 ecx, 4096		; 00001000H
  00052	72 12		 jb	 SHORT $LN25@CMapManage

; 158  :     const uintptr_t _Ptr_container   = _Ptr_user[-1];

  00054	8b 50 fc	 mov	 edx, DWORD PTR [eax-4]
  00057	83 c1 23	 add	 ecx, 35			; 00000023H

; 159  : 
; 160  :     // If the following asserts, it likely means that we are performing
; 161  :     // an aligned delete on memory coming from an unaligned allocation.
; 162  :     _STL_ASSERT(_Ptr_user[-2] == _Big_allocation_sentinel, "invalid argument");
; 163  : 
; 164  :     // Extra paranoia on aligned allocation/deallocation; ensure _Ptr_container is
; 165  :     // in range [_Min_back_shift, _Non_user_size]
; 166  : #ifdef _DEBUG
; 167  :     constexpr uintptr_t _Min_back_shift = 2 * sizeof(void*);
; 168  : #else // ^^^ _DEBUG ^^^ // vvv !_DEBUG vvv
; 169  :     constexpr uintptr_t _Min_back_shift = sizeof(void*);
; 170  : #endif // _DEBUG
; 171  :     const uintptr_t _Back_shift = reinterpret_cast<uintptr_t>(_Ptr) - _Ptr_container;

  0005a	2b c2		 sub	 eax, edx

; 172  :     _STL_VERIFY(_Back_shift >= _Min_back_shift && _Back_shift <= _Non_user_size, "invalid argument");

  0005c	83 c0 fc	 add	 eax, -4			; fffffffcH
  0005f	83 f8 1f	 cmp	 eax, 31			; 0000001fH
  00062	77 7f		 ja	 SHORT $LN22@CMapManage

; 173  :     _Ptr = reinterpret_cast<void*>(_Ptr_container);

  00064	8b c2		 mov	 eax, edx
$LN25@CMapManage:

; 264  :         ::operator delete(_Ptr, _Bytes);

  00066	51		 push	 ecx
  00067	50		 push	 eax
  00068	e8 00 00 00 00	 call	 ??3@YAXPAXI@Z		; operator delete
  0006d	83 c4 08	 add	 esp, 8
$LN15@CMapManage:
; File C:\Users\murat\Desktop\Siveps2-1-99-Project\source\client\Client\GameLib\MapManager.cpp

; 41   : }

  00070	8d 8e b4 14 00
	00		 lea	 ecx, DWORD PTR [esi+5300]
; File C:\Program Files (x86)\Microsoft Visual Studio\2019\Professional\VC\Tools\MSVC\14.29.30133\include\xstring

; 4633 :             _Mypair._Myval2._Mysize = 0;

  00076	c7 86 d4 14 00
	00 00 00 00 00	 mov	 DWORD PTR [esi+5332], 0

; 4634 :             _Mypair._Myval2._Myres  = _BUF_SIZE - 1;

  00080	c7 86 d8 14 00
	00 0f 00 00 00	 mov	 DWORD PTR [esi+5336], 15 ; 0000000fH

; 4635 :             // the _Traits::assign is last so the codegen doesn't think the char write can alias this
; 4636 :             _Traits::assign(_Mypair._Myval2._Bx._Buf[0], _Elem());

  0008a	c6 86 c4 14 00
	00 00		 mov	 BYTE PTR [esi+5316], 0
; File C:\Users\murat\Desktop\Siveps2-1-99-Project\source\client\Client\GameLib\MapManager.cpp

; 41   : }

  00091	e8 00 00 00 00	 call	 ??1?$vector@UTMapInfo@CMapManager@@V?$allocator@UTMapInfo@CMapManager@@@std@@@std@@QAE@XZ ; std::vector<CMapManager::TMapInfo,std::allocator<CMapManager::TMapInfo> >::~vector<CMapManager::TMapInfo,std::allocator<CMapManager::TMapInfo> >
  00096	8d 8e 34 14 00
	00		 lea	 ecx, DWORD PTR [esi+5172]
  0009c	e8 00 00 00 00	 call	 ??1CSpeedTreeForestDirectX8@@UAE@XZ ; CSpeedTreeForestDirectX8::~CSpeedTreeForestDirectX8
  000a1	8d 8e 24 14 00
	00		 lea	 ecx, DWORD PTR [esi+5156]
  000a7	e8 00 00 00 00	 call	 ??1?$_Tree@V?$_Tmap_traits@KPAUSEnvironmentData@@U?$less@K@std@@V?$allocator@U?$pair@$$CBKPAUSEnvironmentData@@@std@@@3@$0A@@std@@@std@@QAE@XZ ; std::_Tree<std::_Tmap_traits<unsigned long,SEnvironmentData *,std::less<unsigned long>,std::allocator<std::pair<unsigned long const ,SEnvironmentData *> >,0> >::~_Tree<std::_Tmap_traits<unsigned long,SEnvironmentData *,std::less<unsigned long>,std::allocator<std::pair<unsigned long const ,SEnvironmentData *> >,0> >
  000ac	8d 4e 08	 lea	 ecx, DWORD PTR [esi+8]
  000af	e8 00 00 00 00	 call	 ??1CPropertyManager@@UAE@XZ ; CPropertyManager::~CPropertyManager
; File C:\Users\murat\Desktop\Siveps2-1-99-Project\source\client\Client\GameLib\PhysicsObject.h

; 15   : 	{

  000b4	c7 07 00 00 00
	00		 mov	 DWORD PTR [edi], OFFSET ??_7IPhysicsWorld@@6B@

; 16   : 		if (this == ms_pWorld)

  000ba	33 c9		 xor	 ecx, ecx
  000bc	a1 00 00 00 00	 mov	 eax, DWORD PTR ?ms_pWorld@IPhysicsWorld@@0PAV1@A ; IPhysicsWorld::ms_pWorld
  000c1	3b f8		 cmp	 edi, eax
  000c3	0f 44 c1	 cmove	 eax, ecx
; File C:\Users\murat\Desktop\Siveps2-1-99-Project\source\client\Client\GameLib\MapManager.cpp

; 41   : }

  000c6	8b ce		 mov	 ecx, esi
; File C:\Users\murat\Desktop\Siveps2-1-99-Project\source\client\Client\GameLib\PhysicsObject.h

; 16   : 		if (this == ms_pWorld)

  000c8	a3 00 00 00 00	 mov	 DWORD PTR ?ms_pWorld@IPhysicsWorld@@0PAV1@A, eax ; IPhysicsWorld::ms_pWorld
; File C:\Users\murat\Desktop\Siveps2-1-99-Project\source\client\Client\GameLib\MapManager.cpp

; 41   : }

  000cd	e8 00 00 00 00	 call	 ??1CScreen@@UAE@XZ	; CScreen::~CScreen
  000d2	8b 4d f4	 mov	 ecx, DWORD PTR __$EHRec$[ebp]
  000d5	64 89 0d 00 00
	00 00		 mov	 DWORD PTR fs:0, ecx
  000dc	59		 pop	 ecx
  000dd	5f		 pop	 edi
  000de	5e		 pop	 esi
  000df	8b e5		 mov	 esp, ebp
  000e1	5d		 pop	 ebp
  000e2	c3		 ret	 0
$LN22@CMapManage:
; File C:\Program Files (x86)\Microsoft Visual Studio\2019\Professional\VC\Tools\MSVC\14.29.30133\include\xmemory

; 172  :     _STL_VERIFY(_Back_shift >= _Min_back_shift && _Back_shift <= _Non_user_size, "invalid argument");

  000e3	e8 00 00 00 00	 call	 __invalid_parameter_noinfo_noreturn
$LN38@CMapManage:
  000e8	cc		 int	 3
  000e9	cc		 int	 3
  000ea	cc		 int	 3
  000eb	cc		 int	 3
  000ec	cc		 int	 3
  000ed	cc		 int	 3
_TEXT	ENDS
;	COMDAT text$x
text$x	SEGMENT
__ehhandler$??1CMapManager@@UAE@XZ:
  00000	90		 npad	 1
  00001	90		 npad	 1
  00002	8b 54 24 08	 mov	 edx, DWORD PTR [esp+8]
  00006	8d 42 0c	 lea	 eax, DWORD PTR [edx+12]
  00009	8b 4a f4	 mov	 ecx, DWORD PTR [edx-12]
  0000c	33 c8		 xor	 ecx, eax
  0000e	e8 00 00 00 00	 call	 @__security_check_cookie@4
  00013	b8 00 00 00 00	 mov	 eax, OFFSET __ehfuncinfo$??1CMapManager@@UAE@XZ
  00018	e9 00 00 00 00	 jmp	 ___CxxFrameHandler3
text$x	ENDS
??1CMapManager@@UAE@XZ ENDP				; CMapManager::~CMapManager
; Function compile flags: /Ogtp
; File C:\Users\murat\Desktop\Siveps2-1-99-Project\source\client\Client\GameLib\MapManager.cpp
; File C:\Users\murat\Desktop\Siveps2-1-99-Project\source\client\Client\GameLib\PhysicsObject.h
; File C:\Users\murat\Desktop\Siveps2-1-99-Project\source\client\Client\GameLib\MapManager.cpp
; File C:\Program Files (x86)\Microsoft Visual Studio\2019\Professional\VC\Tools\MSVC\14.29.30133\include\xmemory
; File C:\Users\murat\Desktop\Siveps2-1-99-Project\source\client\Client\GameLib\MapManager.cpp
; File C:\Program Files (x86)\Microsoft Visual Studio\2019\Professional\VC\Tools\MSVC\14.29.30133\include\xtree
; File C:\Program Files (x86)\Microsoft Visual Studio\2019\Professional\VC\Tools\MSVC\14.29.30133\include\xmemory
; File C:\Program Files (x86)\Microsoft Visual Studio\2019\Professional\VC\Tools\MSVC\14.29.30133\include\xtree
; File C:\Users\murat\Desktop\Siveps2-1-99-Project\source\client\Client\GameLib\MapManager.cpp
; File C:\Program Files (x86)\Microsoft Visual Studio\2019\Professional\VC\Tools\MSVC\14.29.30133\include\vector
; File C:\Users\murat\Desktop\Siveps2-1-99-Project\source\client\Client\GameLib\MapManager.cpp
; File C:\Program Files (x86)\Microsoft Visual Studio\2019\Professional\VC\Tools\MSVC\14.29.30133\include\vector
; File C:\Program Files (x86)\Microsoft Visual Studio\2019\Professional\VC\Tools\MSVC\14.29.30133\include\xstring
; File C:\Users\murat\Desktop\Siveps2-1-99-Project\source\client\Client\GameLib\MapManager.cpp
;	COMDAT ??0CMapManager@@QAE@XZ
_TEXT	SEGMENT
_this$ = -20						; size = 4
_this$ = -16						; size = 4
__$EHRec$ = -12						; size = 12
??0CMapManager@@QAE@XZ PROC				; CMapManager::CMapManager, COMDAT
; _this$ = ecx

; 31   : {

  00000	55		 push	 ebp
  00001	8b ec		 mov	 ebp, esp
  00003	6a ff		 push	 -1
  00005	68 00 00 00 00	 push	 __ehhandler$??0CMapManager@@QAE@XZ
  0000a	64 a1 00 00 00
	00		 mov	 eax, DWORD PTR fs:0
  00010	50		 push	 eax
  00011	83 ec 08	 sub	 esp, 8
  00014	56		 push	 esi
  00015	57		 push	 edi
  00016	a1 00 00 00 00	 mov	 eax, DWORD PTR ___security_cookie
  0001b	33 c5		 xor	 eax, ebp
  0001d	50		 push	 eax
  0001e	8d 45 f4	 lea	 eax, DWORD PTR __$EHRec$[ebp]
  00021	64 a3 00 00 00
	00		 mov	 DWORD PTR fs:0, eax
  00027	8b f9		 mov	 edi, ecx
  00029	89 7d f0	 mov	 DWORD PTR _this$[ebp], edi
  0002c	e8 00 00 00 00	 call	 ??0CScreen@@QAE@XZ	; CScreen::CScreen
  00031	8d 47 04	 lea	 eax, DWORD PTR [edi+4]
  00034	c7 45 fc 00 00
	00 00		 mov	 DWORD PTR __$EHRec$[ebp+8], 0
; File C:\Users\murat\Desktop\Siveps2-1-99-Project\source\client\Client\GameLib\PhysicsObject.h

; 8    : 	IPhysicsWorld()

  0003b	c7 00 00 00 00
	00		 mov	 DWORD PTR [eax], OFFSET ??_7IPhysicsWorld@@6B@

; 9    : 	{
; 10   : 		assert(ms_pWorld == NULL);
; 11   : 		ms_pWorld = this;

  00041	a3 00 00 00 00	 mov	 DWORD PTR ?ms_pWorld@IPhysicsWorld@@0PAV1@A, eax ; IPhysicsWorld::ms_pWorld
; File C:\Users\murat\Desktop\Siveps2-1-99-Project\source\client\Client\GameLib\MapManager.cpp

; 31   : {

  00046	8d 4f 08	 lea	 ecx, DWORD PTR [edi+8]
  00049	c6 45 fc 01	 mov	 BYTE PTR __$EHRec$[ebp+8], 1
  0004d	c7 07 00 00 00
	00		 mov	 DWORD PTR [edi], OFFSET ??_7CMapManager@@6BCScreen@@@
  00053	c7 00 00 00 00
	00		 mov	 DWORD PTR [eax], OFFSET ??_7CMapManager@@6BIPhysicsWorld@@@
  00059	e8 00 00 00 00	 call	 ??0CPropertyManager@@QAE@XZ ; CPropertyManager::CPropertyManager
  0005e	8d b7 24 14 00
	00		 lea	 esi, DWORD PTR [edi+5156]
  00064	c6 45 fc 02	 mov	 BYTE PTR __$EHRec$[ebp+8], 2
; File C:\Program Files (x86)\Microsoft Visual Studio\2019\Professional\VC\Tools\MSVC\14.29.30133\include\xmemory

; 85   :         return ::operator new(_Bytes);

  00068	6a 18		 push	 24			; 00000018H
; File C:\Users\murat\Desktop\Siveps2-1-99-Project\source\client\Client\GameLib\MapManager.cpp

; 31   : {

  0006a	89 75 ec	 mov	 DWORD PTR _this$[ebp], esi
; File C:\Program Files (x86)\Microsoft Visual Studio\2019\Professional\VC\Tools\MSVC\14.29.30133\include\xtree

; 441  :     _Tree_val() noexcept : _Myhead(), _Mysize(0) {}

  0006d	c7 06 00 00 00
	00		 mov	 DWORD PTR [esi], 0
  00073	c7 46 04 00 00
	00 00		 mov	 DWORD PTR [esi+4], 0
; File C:\Program Files (x86)\Microsoft Visual Studio\2019\Professional\VC\Tools\MSVC\14.29.30133\include\xmemory

; 85   :         return ::operator new(_Bytes);

  0007a	e8 00 00 00 00	 call	 ??2@YAPAXI@Z		; operator new
  0007f	83 c4 04	 add	 esp, 4
; File C:\Program Files (x86)\Microsoft Visual Studio\2019\Professional\VC\Tools\MSVC\14.29.30133\include\xtree

; 350  :         _Construct_in_place(_Pnode->_Left, _Pnode);

  00082	89 00		 mov	 DWORD PTR [eax], eax

; 351  :         _Construct_in_place(_Pnode->_Parent, _Pnode);

  00084	89 40 04	 mov	 DWORD PTR [eax+4], eax

; 352  :         _Construct_in_place(_Pnode->_Right, _Pnode);

  00087	89 40 08	 mov	 DWORD PTR [eax+8], eax

; 353  :         _Pnode->_Color = _Black;

  0008a	66 c7 40 0c 01
	01		 mov	 WORD PTR [eax+12], 257	; 00000101H

; 1925 :         _Scary->_Myhead = _Node::_Buyheadnode(_Getal());

  00090	89 06		 mov	 DWORD PTR [esi], eax
; File C:\Users\murat\Desktop\Siveps2-1-99-Project\source\client\Client\GameLib\MapManager.cpp

; 31   : {

  00092	8d 8f 34 14 00
	00		 lea	 ecx, DWORD PTR [edi+5172]
  00098	c6 45 fc 03	 mov	 BYTE PTR __$EHRec$[ebp+8], 3
  0009c	c7 87 2c 14 00
	00 00 00 00 00	 mov	 DWORD PTR [edi+5164], 0
  000a6	e8 00 00 00 00	 call	 ??0CSpeedTreeForestDirectX8@@QAE@XZ ; CSpeedTreeForestDirectX8::CSpeedTreeForestDirectX8
; File C:\Program Files (x86)\Microsoft Visual Studio\2019\Professional\VC\Tools\MSVC\14.29.30133\include\vector

; 401  :     _CONSTEXPR20_CONTAINER _Vector_val() noexcept : _Myfirst(), _Mylast(), _Myend() {}

  000ab	c7 87 b4 14 00
	00 00 00 00 00	 mov	 DWORD PTR [edi+5300], 0
; File C:\Users\murat\Desktop\Siveps2-1-99-Project\source\client\Client\GameLib\MapManager.cpp

; 36   : }

  000b5	8b c7		 mov	 eax, edi
; File C:\Program Files (x86)\Microsoft Visual Studio\2019\Professional\VC\Tools\MSVC\14.29.30133\include\vector

; 401  :     _CONSTEXPR20_CONTAINER _Vector_val() noexcept : _Myfirst(), _Mylast(), _Myend() {}

  000b7	c7 87 b8 14 00
	00 00 00 00 00	 mov	 DWORD PTR [edi+5304], 0
  000c1	c7 87 bc 14 00
	00 00 00 00 00	 mov	 DWORD PTR [edi+5308], 0
; File C:\Program Files (x86)\Microsoft Visual Studio\2019\Professional\VC\Tools\MSVC\14.29.30133\include\xstring

; 2346 :         _CONSTEXPR20_CONTAINER _Bxty() noexcept : _Ptr() {} // user-provided, for fancy pointers

  000cb	c7 87 c4 14 00
	00 00 00 00 00	 mov	 DWORD PTR [edi+5316], 0

; 4596 :         _My_data._Mysize = 0;

  000d5	c7 87 d4 14 00
	00 00 00 00 00	 mov	 DWORD PTR [edi+5332], 0

; 4597 : 
; 4598 : #ifdef __cpp_lib_constexpr_string
; 4599 :         if (_STD is_constant_evaluated()) {
; 4600 :             _My_data._Myres        = _BUF_SIZE; // SSO disabled in constexpr context
; 4601 :             auto& _Al              = _Getal();
; 4602 :             const pointer _New_ptr = _Al.allocate(_BUF_SIZE + 1); // throws
; 4603 :             _My_data._Bx._Ptr      = _New_ptr;
; 4604 : 
; 4605 :             _Elem* const _Raw_new = _Unfancy(_New_ptr);
; 4606 :             _Traits::assign(_Raw_new, _BUF_SIZE + 1, _Elem());
; 4607 :         } else
; 4608 : #endif // __cpp_lib_constexpr_string
; 4609 :         {
; 4610 :             _My_data._Myres = _BUF_SIZE - 1;

  000df	c7 87 d8 14 00
	00 0f 00 00 00	 mov	 DWORD PTR [edi+5336], 15 ; 0000000fH

; 4611 :             // the _Traits::assign is last so the codegen doesn't think the char write can alias this
; 4612 :             _Traits::assign(_My_data._Bx._Buf[0], _Elem());

  000e9	c6 87 c4 14 00
	00 00		 mov	 BYTE PTR [edi+5316], 0
; File C:\Users\murat\Desktop\Siveps2-1-99-Project\source\client\Client\GameLib\MapManager.cpp

; 32   : 	m_pkMap = NULL;

  000f0	c7 87 30 14 00
	00 00 00 00 00	 mov	 DWORD PTR [edi+5168], 0

; 33   : 	m_isSoftwareTilingEnableReserved=false;

  000fa	c6 87 c0 14 00
	00 00		 mov	 BYTE PTR [edi+5312], 0

; 36   : }

  00101	8b 4d f4	 mov	 ecx, DWORD PTR __$EHRec$[ebp]
  00104	64 89 0d 00 00
	00 00		 mov	 DWORD PTR fs:0, ecx
  0010b	59		 pop	 ecx
  0010c	5f		 pop	 edi
  0010d	5e		 pop	 esi
  0010e	8b e5		 mov	 esp, ebp
  00110	5d		 pop	 ebp
  00111	c3		 ret	 0
_TEXT	ENDS
;	COMDAT text$x
text$x	SEGMENT
__unwindfunclet$??0CMapManager@@QAE@XZ$0:
  00000	8b 4d f0	 mov	 ecx, DWORD PTR _this$[ebp]
  00003	e9 00 00 00 00	 jmp	 ??1CScreen@@UAE@XZ	; CScreen::~CScreen
__unwindfunclet$??0CMapManager@@QAE@XZ$1:
  00008	8b 4d f0	 mov	 ecx, DWORD PTR _this$[ebp]
  0000b	83 c1 04	 add	 ecx, 4
  0000e	e9 00 00 00 00	 jmp	 ??1IPhysicsWorld@@UAE@XZ ; IPhysicsWorld::~IPhysicsWorld
__unwindfunclet$??0CMapManager@@QAE@XZ$2:
  00013	8b 4d f0	 mov	 ecx, DWORD PTR _this$[ebp]
  00016	83 c1 08	 add	 ecx, 8
  00019	e9 00 00 00 00	 jmp	 ??1CPropertyManager@@UAE@XZ ; CPropertyManager::~CPropertyManager
__unwindfunclet$??0CMapManager@@QAE@XZ$3:
  0001e	8b 4d f0	 mov	 ecx, DWORD PTR _this$[ebp]
  00021	81 c1 24 14 00
	00		 add	 ecx, 5156		; 00001424H
  00027	e9 00 00 00 00	 jmp	 ??1?$map@KPAUSEnvironmentData@@U?$less@K@std@@V?$allocator@U?$pair@$$CBKPAUSEnvironmentData@@@std@@@3@@std@@QAE@XZ
  0002c	cc		 int	 3
  0002d	cc		 int	 3
  0002e	cc		 int	 3
  0002f	cc		 int	 3
  00030	cc		 int	 3
__ehhandler$??0CMapManager@@QAE@XZ:
  00031	90		 npad	 1
  00032	90		 npad	 1
  00033	8b 54 24 08	 mov	 edx, DWORD PTR [esp+8]
  00037	8d 42 0c	 lea	 eax, DWORD PTR [edx+12]
  0003a	8b 4a ec	 mov	 ecx, DWORD PTR [edx-20]
  0003d	33 c8		 xor	 ecx, eax
  0003f	e8 00 00 00 00	 call	 @__security_check_cookie@4
  00044	b8 00 00 00 00	 mov	 eax, OFFSET __ehfuncinfo$??0CMapManager@@QAE@XZ
  00049	e9 00 00 00 00	 jmp	 ___CxxFrameHandler3
text$x	ENDS
??0CMapManager@@QAE@XZ ENDP				; CMapManager::CMapManager
; Function compile flags: /Ogtp
; File C:\Users\murat\Desktop\Siveps2-1-99-Project\source\client\Client\GameLib\PhysicsObject.h
;	COMDAT ??_GIPhysicsWorld@@UAEPAXI@Z
_TEXT	SEGMENT
___flags$ = 8						; size = 4
??_GIPhysicsWorld@@UAEPAXI@Z PROC			; IPhysicsWorld::`scalar deleting destructor', COMDAT
; _this$ = ecx
  00000	55		 push	 ebp
  00001	8b ec		 mov	 ebp, esp

; 15   : 	{

  00003	56		 push	 esi
  00004	8b f1		 mov	 esi, ecx

; 16   : 		if (this == ms_pWorld)

  00006	33 c9		 xor	 ecx, ecx
  00008	c7 06 00 00 00
	00		 mov	 DWORD PTR [esi], OFFSET ??_7IPhysicsWorld@@6B@
  0000e	a1 00 00 00 00	 mov	 eax, DWORD PTR ?ms_pWorld@IPhysicsWorld@@0PAV1@A ; IPhysicsWorld::ms_pWorld
  00013	3b f0		 cmp	 esi, eax
  00015	0f 44 c1	 cmove	 eax, ecx
  00018	f6 45 08 01	 test	 BYTE PTR ___flags$[ebp], 1
  0001c	a3 00 00 00 00	 mov	 DWORD PTR ?ms_pWorld@IPhysicsWorld@@0PAV1@A, eax ; IPhysicsWorld::ms_pWorld
  00021	74 0b		 je	 SHORT $LN7@scalar
  00023	6a 04		 push	 4
  00025	56		 push	 esi
  00026	e8 00 00 00 00	 call	 ??3@YAXPAXI@Z		; operator delete
  0002b	83 c4 08	 add	 esp, 8
$LN7@scalar:
  0002e	8b c6		 mov	 eax, esi
  00030	5e		 pop	 esi
  00031	5d		 pop	 ebp
  00032	c2 04 00	 ret	 4
??_GIPhysicsWorld@@UAEPAXI@Z ENDP			; IPhysicsWorld::`scalar deleting destructor'
_TEXT	ENDS
; Function compile flags: /Ogtp
; File C:\Users\murat\Desktop\Siveps2-1-99-Project\source\client\Client\GameLib\PhysicsObject.h
;	COMDAT ??1IPhysicsWorld@@UAE@XZ
_TEXT	SEGMENT
??1IPhysicsWorld@@UAE@XZ PROC				; IPhysicsWorld::~IPhysicsWorld, COMDAT
; _this$ = ecx

; 15   : 	{

  00000	c7 01 00 00 00
	00		 mov	 DWORD PTR [ecx], OFFSET ??_7IPhysicsWorld@@6B@

; 16   : 		if (this == ms_pWorld)

  00006	33 d2		 xor	 edx, edx
  00008	a1 00 00 00 00	 mov	 eax, DWORD PTR ?ms_pWorld@IPhysicsWorld@@0PAV1@A ; IPhysicsWorld::ms_pWorld
  0000d	3b c8		 cmp	 ecx, eax
  0000f	0f 44 c2	 cmove	 eax, edx
  00012	a3 00 00 00 00	 mov	 DWORD PTR ?ms_pWorld@IPhysicsWorld@@0PAV1@A, eax ; IPhysicsWorld::ms_pWorld

; 17   : 			ms_pWorld = NULL;
; 18   : 	}

  00017	c3		 ret	 0
??1IPhysicsWorld@@UAE@XZ ENDP				; IPhysicsWorld::~IPhysicsWorld
_TEXT	ENDS
; Function compile flags: /Ogtp
; File C:\Program Files (x86)\Microsoft Visual Studio\2019\Professional\VC\Tools\MSVC\14.29.30133\include\xstring
;	COMDAT ??$_Traits_equal@U?$char_traits@D@std@@@std@@YA_NQBDI0I@Z
_TEXT	SEGMENT
__Left$ = 8						; size = 4
__Left_size$ = 12					; size = 4
__Right$ = 16						; size = 4
__Right_size$ = 20					; size = 4
??$_Traits_equal@U?$char_traits@D@std@@@std@@YA_NQBDI0I@Z PROC ; std::_Traits_equal<std::char_traits<char> >, COMDAT

; 581  :     _In_reads_(_Right_size) const _Traits_ptr_t<_Traits> _Right, const size_t _Right_size) noexcept {

  00000	55		 push	 ebp
  00001	8b ec		 mov	 ebp, esp

; 582  :     // compare [_Left, _Left + _Left_size) to [_Right, _Right + _Right_size) for equality using _Traits
; 583  :     return _Left_size == _Right_size && _Traits::compare(_Left, _Right, _Left_size) == 0;

  00003	8b 4d 0c	 mov	 ecx, DWORD PTR __Left_size$[ebp]
  00006	3b 4d 14	 cmp	 ecx, DWORD PTR __Right_size$[ebp]
  00009	75 61		 jne	 SHORT $LN3@Traits_equ

; 392  :         return _CSTD memcmp(_First1, _First2, _Count);

  0000b	8b 55 08	 mov	 edx, DWORD PTR __Left$[ebp]
  0000e	56		 push	 esi
  0000f	8b 75 10	 mov	 esi, DWORD PTR __Right$[ebp]
  00012	83 e9 04	 sub	 ecx, 4
  00015	72 11		 jb	 SHORT $LN9@Traits_equ
$LL10@Traits_equ:
  00017	8b 02		 mov	 eax, DWORD PTR [edx]
  00019	3b 06		 cmp	 eax, DWORD PTR [esi]
  0001b	75 10		 jne	 SHORT $LN8@Traits_equ
  0001d	83 c2 04	 add	 edx, 4
  00020	83 c6 04	 add	 esi, 4
  00023	83 e9 04	 sub	 ecx, 4
  00026	73 ef		 jae	 SHORT $LL10@Traits_equ
$LN9@Traits_equ:
  00028	83 f9 fc	 cmp	 ecx, -4			; fffffffcH
  0002b	74 34		 je	 SHORT $LN7@Traits_equ
$LN8@Traits_equ:
  0002d	8a 02		 mov	 al, BYTE PTR [edx]
  0002f	3a 06		 cmp	 al, BYTE PTR [esi]
  00031	75 27		 jne	 SHORT $LN11@Traits_equ
  00033	83 f9 fd	 cmp	 ecx, -3			; fffffffdH
  00036	74 29		 je	 SHORT $LN7@Traits_equ
  00038	8a 42 01	 mov	 al, BYTE PTR [edx+1]
  0003b	3a 46 01	 cmp	 al, BYTE PTR [esi+1]
  0003e	75 1a		 jne	 SHORT $LN11@Traits_equ
  00040	83 f9 fe	 cmp	 ecx, -2			; fffffffeH
  00043	74 1c		 je	 SHORT $LN7@Traits_equ
  00045	8a 42 02	 mov	 al, BYTE PTR [edx+2]
  00048	3a 46 02	 cmp	 al, BYTE PTR [esi+2]
  0004b	75 0d		 jne	 SHORT $LN11@Traits_equ
  0004d	83 f9 ff	 cmp	 ecx, -1
  00050	74 0f		 je	 SHORT $LN7@Traits_equ
  00052	8a 42 03	 mov	 al, BYTE PTR [edx+3]
  00055	3a 46 03	 cmp	 al, BYTE PTR [esi+3]
  00058	74 07		 je	 SHORT $LN7@Traits_equ
$LN11@Traits_equ:
  0005a	1b c0		 sbb	 eax, eax
  0005c	83 c8 01	 or	 eax, 1
  0005f	eb 02		 jmp	 SHORT $LN12@Traits_equ
$LN7@Traits_equ:
  00061	33 c0		 xor	 eax, eax
$LN12@Traits_equ:
  00063	5e		 pop	 esi

; 582  :     // compare [_Left, _Left + _Left_size) to [_Right, _Right + _Right_size) for equality using _Traits
; 583  :     return _Left_size == _Right_size && _Traits::compare(_Left, _Right, _Left_size) == 0;

  00064	85 c0		 test	 eax, eax
  00066	75 04		 jne	 SHORT $LN3@Traits_equ
  00068	b0 01		 mov	 al, 1

; 584  : }

  0006a	5d		 pop	 ebp
  0006b	c3		 ret	 0
$LN3@Traits_equ:

; 582  :     // compare [_Left, _Left + _Left_size) to [_Right, _Right + _Right_size) for equality using _Traits
; 583  :     return _Left_size == _Right_size && _Traits::compare(_Left, _Right, _Left_size) == 0;

  0006c	32 c0		 xor	 al, al

; 584  : }

  0006e	5d		 pop	 ebp
  0006f	c3		 ret	 0
??$_Traits_equal@U?$char_traits@D@std@@@std@@YA_NQBDI0I@Z ENDP ; std::_Traits_equal<std::char_traits<char> >
_TEXT	ENDS
; Function compile flags: /Ogtp
; File C:\Program Files (x86)\Microsoft Visual Studio\2019\Professional\VC\Tools\MSVC\14.29.30133\include\xmemory
;	COMDAT ??$_Allocate_manually_vector_aligned@U_Default_allocate_traits@std@@@std@@YAPAXI@Z
_TEXT	SEGMENT
__Bytes$ = 8						; size = 4
??$_Allocate_manually_vector_aligned@U_Default_allocate_traits@std@@@std@@YAPAXI@Z PROC ; std::_Allocate_manually_vector_aligned<std::_Default_allocate_traits>, COMDAT

; 134  : __declspec(allocator) void* _Allocate_manually_vector_aligned(const size_t _Bytes) {

  00000	55		 push	 ebp
  00001	8b ec		 mov	 ebp, esp

; 135  :     // allocate _Bytes manually aligned to at least _Big_allocation_alignment
; 136  :     const size_t _Block_size = _Non_user_size + _Bytes;

  00003	8b 45 08	 mov	 eax, DWORD PTR __Bytes$[ebp]
  00006	8d 48 23	 lea	 ecx, DWORD PTR [eax+35]

; 137  :     if (_Block_size <= _Bytes) {

  00009	3b c8		 cmp	 ecx, eax
  0000b	0f 86 00 00 00
	00		 jbe	 ?_Throw_bad_array_new_length@std@@YAXXZ ; std::_Throw_bad_array_new_length

; 85   :         return ::operator new(_Bytes);

  00011	51		 push	 ecx
  00012	e8 00 00 00 00	 call	 ??2@YAPAXI@Z		; operator new

; 138  :         _Throw_bad_array_new_length(); // add overflow
; 139  :     }
; 140  : 
; 141  :     const uintptr_t _Ptr_container = reinterpret_cast<uintptr_t>(_Traits::_Allocate(_Block_size));

  00017	8b c8		 mov	 ecx, eax

; 85   :         return ::operator new(_Bytes);

  00019	83 c4 04	 add	 esp, 4

; 142  :     _STL_VERIFY(_Ptr_container != 0, "invalid argument"); // validate even in release since we're doing p[-1]

  0001c	85 c9		 test	 ecx, ecx
  0001e	74 0b		 je	 SHORT $LN7@Allocate_m

; 143  :     void* const _Ptr = reinterpret_cast<void*>((_Ptr_container + _Non_user_size) & ~(_Big_allocation_alignment - 1));

  00020	8d 41 23	 lea	 eax, DWORD PTR [ecx+35]
  00023	83 e0 e0	 and	 eax, -32		; ffffffe0H

; 144  :     static_cast<uintptr_t*>(_Ptr)[-1] = _Ptr_container;

  00026	89 48 fc	 mov	 DWORD PTR [eax-4], ecx

; 145  : 
; 146  : #ifdef _DEBUG
; 147  :     static_cast<uintptr_t*>(_Ptr)[-2] = _Big_allocation_sentinel;
; 148  : #endif // _DEBUG
; 149  :     return _Ptr;
; 150  : }

  00029	5d		 pop	 ebp
  0002a	c3		 ret	 0
$LN7@Allocate_m:

; 142  :     _STL_VERIFY(_Ptr_container != 0, "invalid argument"); // validate even in release since we're doing p[-1]

  0002b	e9 00 00 00 00	 jmp	 __invalid_parameter_noinfo_noreturn
??$_Allocate_manually_vector_aligned@U_Default_allocate_traits@std@@@std@@YAPAXI@Z ENDP ; std::_Allocate_manually_vector_aligned<std::_Default_allocate_traits>
_TEXT	ENDS
; Function compile flags: /Ogtp
; File C:\Program Files (x86)\Microsoft Visual Studio\2019\Professional\VC\Tools\MSVC\14.29.30133\include\xstring
; File C:\Program Files (x86)\Microsoft Visual Studio\2019\Professional\VC\Tools\MSVC\14.29.30133\include\xmemory
; File C:\Program Files (x86)\Microsoft Visual Studio\2019\Professional\VC\Tools\MSVC\14.29.30133\include\xstring
; File C:\Program Files (x86)\Microsoft Visual Studio\2019\Professional\VC\Tools\MSVC\14.29.30133\include\xmemory
; File C:\Program Files (x86)\Microsoft Visual Studio\2019\Professional\VC\Tools\MSVC\14.29.30133\include\xstring
; File C:\Program Files (x86)\Microsoft Visual Studio\2019\Professional\VC\Tools\MSVC\14.29.30133\include\vector
; File C:\Program Files (x86)\Microsoft Visual Studio\2019\Professional\VC\Tools\MSVC\14.29.30133\include\xmemory
; File C:\Program Files (x86)\Microsoft Visual Studio\2019\Professional\VC\Tools\MSVC\14.29.30133\include\vector
; File C:\Program Files (x86)\Microsoft Visual Studio\2019\Professional\VC\Tools\MSVC\14.29.30133\include\xmemory
; File C:\Program Files (x86)\Microsoft Visual Studio\2019\Professional\VC\Tools\MSVC\14.29.30133\include\vector
; File C:\Program Files (x86)\Microsoft Visual Studio\2019\Professional\VC\Tools\MSVC\14.29.30133\include\xstring
; File C:\Program Files (x86)\Microsoft Visual Studio\2019\Professional\VC\Tools\MSVC\14.29.30133\include\xmemory
; File C:\Program Files (x86)\Microsoft Visual Studio\2019\Professional\VC\Tools\MSVC\14.29.30133\include\xstring
; File C:\Program Files (x86)\Microsoft Visual Studio\2019\Professional\VC\Tools\MSVC\14.29.30133\include\xmemory
; File C:\Program Files (x86)\Microsoft Visual Studio\2019\Professional\VC\Tools\MSVC\14.29.30133\include\xstring
; File C:\Program Files (x86)\Microsoft Visual Studio\2019\Professional\VC\Tools\MSVC\14.29.30133\include\xmemory
;	COMDAT ??_GSEnvironmentData@@QAEPAXI@Z
_TEXT	SEGMENT
__$EHRec$ = -12						; size = 12
___flags$ = 8						; size = 4
??_GSEnvironmentData@@QAEPAXI@Z PROC			; SEnvironmentData::`scalar deleting destructor', COMDAT
; _this$ = ecx
  00000	55		 push	 ebp
  00001	8b ec		 mov	 ebp, esp
  00003	6a ff		 push	 -1
  00005	68 00 00 00 00	 push	 __ehhandler$??_GSEnvironmentData@@QAEPAXI@Z
  0000a	64 a1 00 00 00
	00		 mov	 eax, DWORD PTR fs:0
  00010	50		 push	 eax
  00011	56		 push	 esi
  00012	a1 00 00 00 00	 mov	 eax, DWORD PTR ___security_cookie
  00017	33 c5		 xor	 eax, ebp
  00019	50		 push	 eax
  0001a	8d 45 f4	 lea	 eax, DWORD PTR __$EHRec$[ebp]
  0001d	64 a3 00 00 00
	00		 mov	 DWORD PTR fs:0, eax
  00023	8b f1		 mov	 esi, ecx
; File C:\Program Files (x86)\Microsoft Visual Studio\2019\Professional\VC\Tools\MSVC\14.29.30133\include\xstring

; 2319 :         return _BUF_SIZE <= _Myres;

  00025	8b 8e 90 02 00
	00		 mov	 ecx, DWORD PTR [esi+656]
  0002b	c7 45 fc 00 00
	00 00		 mov	 DWORD PTR __$EHRec$[ebp+8], 0
  00032	83 f9 10	 cmp	 ecx, 16			; 00000010H

; 4618 :         if (_Mypair._Myval2._Large_string_engaged()) {

  00035	72 2f		 jb	 SHORT $LN19@scalar
; File C:\Program Files (x86)\Microsoft Visual Studio\2019\Professional\VC\Tools\MSVC\14.29.30133\include\xmemory

; 835  :         _Deallocate<_New_alignof<_Ty>>(_Ptr, sizeof(_Ty) * _Count);

  00037	8b 86 7c 02 00
	00		 mov	 eax, DWORD PTR [esi+636]
; File C:\Program Files (x86)\Microsoft Visual Studio\2019\Professional\VC\Tools\MSVC\14.29.30133\include\xstring

; 4622 :             _Al.deallocate(_Ptr, _Mypair._Myval2._Myres + 1);

  0003d	41		 inc	 ecx
; File C:\Program Files (x86)\Microsoft Visual Studio\2019\Professional\VC\Tools\MSVC\14.29.30133\include\xmemory

; 260  :         if (_Bytes >= _Big_allocation_threshold) { // boost the alignment of big allocations to help autovectorization

  0003e	81 f9 00 10 00
	00		 cmp	 ecx, 4096		; 00001000H
  00044	72 16		 jb	 SHORT $LN29@scalar

; 158  :     const uintptr_t _Ptr_container   = _Ptr_user[-1];

  00046	8b 50 fc	 mov	 edx, DWORD PTR [eax-4]
  00049	83 c1 23	 add	 ecx, 35			; 00000023H

; 159  : 
; 160  :     // If the following asserts, it likely means that we are performing
; 161  :     // an aligned delete on memory coming from an unaligned allocation.
; 162  :     _STL_ASSERT(_Ptr_user[-2] == _Big_allocation_sentinel, "invalid argument");
; 163  : 
; 164  :     // Extra paranoia on aligned allocation/deallocation; ensure _Ptr_container is
; 165  :     // in range [_Min_back_shift, _Non_user_size]
; 166  : #ifdef _DEBUG
; 167  :     constexpr uintptr_t _Min_back_shift = 2 * sizeof(void*);
; 168  : #else // ^^^ _DEBUG ^^^ // vvv !_DEBUG vvv
; 169  :     constexpr uintptr_t _Min_back_shift = sizeof(void*);
; 170  : #endif // _DEBUG
; 171  :     const uintptr_t _Back_shift = reinterpret_cast<uintptr_t>(_Ptr) - _Ptr_container;

  0004c	2b c2		 sub	 eax, edx

; 172  :     _STL_VERIFY(_Back_shift >= _Min_back_shift && _Back_shift <= _Non_user_size, "invalid argument");

  0004e	83 c0 fc	 add	 eax, -4			; fffffffcH
  00051	83 f8 1f	 cmp	 eax, 31			; 0000001fH
  00054	0f 87 10 01 00
	00		 ja	 $LN78@scalar

; 173  :     _Ptr = reinterpret_cast<void*>(_Ptr_container);

  0005a	8b c2		 mov	 eax, edx
$LN29@scalar:

; 264  :         ::operator delete(_Ptr, _Bytes);

  0005c	51		 push	 ecx
  0005d	50		 push	 eax
  0005e	e8 00 00 00 00	 call	 ??3@YAXPAXI@Z		; operator delete
  00063	83 c4 08	 add	 esp, 8
$LN19@scalar:
; File C:\Program Files (x86)\Microsoft Visual Studio\2019\Professional\VC\Tools\MSVC\14.29.30133\include\xstring

; 4633 :             _Mypair._Myval2._Mysize = 0;

  00066	c7 86 8c 02 00
	00 00 00 00 00	 mov	 DWORD PTR [esi+652], 0

; 4634 :             _Mypair._Myval2._Myres  = _BUF_SIZE - 1;

  00070	c7 86 90 02 00
	00 0f 00 00 00	 mov	 DWORD PTR [esi+656], 15	; 0000000fH

; 4635 :             // the _Traits::assign is last so the codegen doesn't think the char write can alias this
; 4636 :             _Traits::assign(_Mypair._Myval2._Bx._Buf[0], _Elem());

  0007a	c6 86 7c 02 00
	00 00		 mov	 BYTE PTR [esi+636], 0
; File C:\Program Files (x86)\Microsoft Visual Studio\2019\Professional\VC\Tools\MSVC\14.29.30133\include\vector

; 1763 :         if (_Myfirst) { // destroy and deallocate old array

  00081	8b 86 54 02 00
	00		 mov	 eax, DWORD PTR [esi+596]
  00087	85 c0		 test	 eax, eax
  00089	74 51		 je	 SHORT $LN38@scalar

; 1764 :             _Destroy(_Myfirst, _Mylast);
; 1765 :             _Getal().deallocate(_Myfirst, static_cast<size_type>(_Myend - _Myfirst));

  0008b	8b 8e 5c 02 00
	00		 mov	 ecx, DWORD PTR [esi+604]
  00091	2b c8		 sub	 ecx, eax
; File C:\Program Files (x86)\Microsoft Visual Studio\2019\Professional\VC\Tools\MSVC\14.29.30133\include\xmemory

; 835  :         _Deallocate<_New_alignof<_Ty>>(_Ptr, sizeof(_Ty) * _Count);

  00093	83 e1 e0	 and	 ecx, -32		; ffffffe0H

; 260  :         if (_Bytes >= _Big_allocation_threshold) { // boost the alignment of big allocations to help autovectorization

  00096	81 f9 00 10 00
	00		 cmp	 ecx, 4096		; 00001000H
  0009c	72 16		 jb	 SHORT $LN54@scalar

; 158  :     const uintptr_t _Ptr_container   = _Ptr_user[-1];

  0009e	8b 50 fc	 mov	 edx, DWORD PTR [eax-4]
  000a1	83 c1 23	 add	 ecx, 35			; 00000023H

; 159  : 
; 160  :     // If the following asserts, it likely means that we are performing
; 161  :     // an aligned delete on memory coming from an unaligned allocation.
; 162  :     _STL_ASSERT(_Ptr_user[-2] == _Big_allocation_sentinel, "invalid argument");
; 163  : 
; 164  :     // Extra paranoia on aligned allocation/deallocation; ensure _Ptr_container is
; 165  :     // in range [_Min_back_shift, _Non_user_size]
; 166  : #ifdef _DEBUG
; 167  :     constexpr uintptr_t _Min_back_shift = 2 * sizeof(void*);
; 168  : #else // ^^^ _DEBUG ^^^ // vvv !_DEBUG vvv
; 169  :     constexpr uintptr_t _Min_back_shift = sizeof(void*);
; 170  : #endif // _DEBUG
; 171  :     const uintptr_t _Back_shift = reinterpret_cast<uintptr_t>(_Ptr) - _Ptr_container;

  000a4	2b c2		 sub	 eax, edx

; 172  :     _STL_VERIFY(_Back_shift >= _Min_back_shift && _Back_shift <= _Non_user_size, "invalid argument");

  000a6	83 c0 fc	 add	 eax, -4			; fffffffcH
  000a9	83 f8 1f	 cmp	 eax, 31			; 0000001fH
  000ac	0f 87 b8 00 00
	00		 ja	 $LN78@scalar

; 173  :     _Ptr = reinterpret_cast<void*>(_Ptr_container);

  000b2	8b c2		 mov	 eax, edx
$LN54@scalar:

; 264  :         ::operator delete(_Ptr, _Bytes);

  000b4	51		 push	 ecx
  000b5	50		 push	 eax
  000b6	e8 00 00 00 00	 call	 ??3@YAXPAXI@Z		; operator delete
; File C:\Program Files (x86)\Microsoft Visual Studio\2019\Professional\VC\Tools\MSVC\14.29.30133\include\vector

; 1767 :             _Myfirst = nullptr;

  000bb	c7 86 54 02 00
	00 00 00 00 00	 mov	 DWORD PTR [esi+596], 0
; File C:\Program Files (x86)\Microsoft Visual Studio\2019\Professional\VC\Tools\MSVC\14.29.30133\include\xmemory

; 264  :         ::operator delete(_Ptr, _Bytes);

  000c5	83 c4 08	 add	 esp, 8
; File C:\Program Files (x86)\Microsoft Visual Studio\2019\Professional\VC\Tools\MSVC\14.29.30133\include\vector

; 1768 :             _Mylast  = nullptr;

  000c8	c7 86 58 02 00
	00 00 00 00 00	 mov	 DWORD PTR [esi+600], 0

; 1769 :             _Myend   = nullptr;

  000d2	c7 86 5c 02 00
	00 00 00 00 00	 mov	 DWORD PTR [esi+604], 0
$LN38@scalar:
; File C:\Program Files (x86)\Microsoft Visual Studio\2019\Professional\VC\Tools\MSVC\14.29.30133\include\xstring

; 2319 :         return _BUF_SIZE <= _Myres;

  000dc	8b 8e 30 02 00
	00		 mov	 ecx, DWORD PTR [esi+560]
  000e2	83 f9 10	 cmp	 ecx, 16			; 00000010H

; 4618 :         if (_Mypair._Myval2._Large_string_engaged()) {

  000e5	72 2b		 jb	 SHORT $LN71@scalar
; File C:\Program Files (x86)\Microsoft Visual Studio\2019\Professional\VC\Tools\MSVC\14.29.30133\include\xmemory

; 835  :         _Deallocate<_New_alignof<_Ty>>(_Ptr, sizeof(_Ty) * _Count);

  000e7	8b 86 1c 02 00
	00		 mov	 eax, DWORD PTR [esi+540]
; File C:\Program Files (x86)\Microsoft Visual Studio\2019\Professional\VC\Tools\MSVC\14.29.30133\include\xstring

; 4622 :             _Al.deallocate(_Ptr, _Mypair._Myval2._Myres + 1);

  000ed	41		 inc	 ecx
; File C:\Program Files (x86)\Microsoft Visual Studio\2019\Professional\VC\Tools\MSVC\14.29.30133\include\xmemory

; 260  :         if (_Bytes >= _Big_allocation_threshold) { // boost the alignment of big allocations to help autovectorization

  000ee	81 f9 00 10 00
	00		 cmp	 ecx, 4096		; 00001000H
  000f4	72 12		 jb	 SHORT $LN81@scalar

; 158  :     const uintptr_t _Ptr_container   = _Ptr_user[-1];

  000f6	8b 50 fc	 mov	 edx, DWORD PTR [eax-4]
  000f9	83 c1 23	 add	 ecx, 35			; 00000023H

; 159  : 
; 160  :     // If the following asserts, it likely means that we are performing
; 161  :     // an aligned delete on memory coming from an unaligned allocation.
; 162  :     _STL_ASSERT(_Ptr_user[-2] == _Big_allocation_sentinel, "invalid argument");
; 163  : 
; 164  :     // Extra paranoia on aligned allocation/deallocation; ensure _Ptr_container is
; 165  :     // in range [_Min_back_shift, _Non_user_size]
; 166  : #ifdef _DEBUG
; 167  :     constexpr uintptr_t _Min_back_shift = 2 * sizeof(void*);
; 168  : #else // ^^^ _DEBUG ^^^ // vvv !_DEBUG vvv
; 169  :     constexpr uintptr_t _Min_back_shift = sizeof(void*);
; 170  : #endif // _DEBUG
; 171  :     const uintptr_t _Back_shift = reinterpret_cast<uintptr_t>(_Ptr) - _Ptr_container;

  000fc	2b c2		 sub	 eax, edx

; 172  :     _STL_VERIFY(_Back_shift >= _Min_back_shift && _Back_shift <= _Non_user_size, "invalid argument");

  000fe	83 c0 fc	 add	 eax, -4			; fffffffcH
  00101	83 f8 1f	 cmp	 eax, 31			; 0000001fH
  00104	77 64		 ja	 SHORT $LN78@scalar

; 173  :     _Ptr = reinterpret_cast<void*>(_Ptr_container);

  00106	8b c2		 mov	 eax, edx
$LN81@scalar:

; 264  :         ::operator delete(_Ptr, _Bytes);

  00108	51		 push	 ecx
  00109	50		 push	 eax
  0010a	e8 00 00 00 00	 call	 ??3@YAXPAXI@Z		; operator delete
  0010f	83 c4 08	 add	 esp, 8
$LN71@scalar:
  00112	68 00 00 00 00	 push	 OFFSET ??1?$basic_string@DU?$char_traits@D@std@@V?$allocator@D@2@@std@@QAE@XZ ; std::basic_string<char,std::char_traits<char>,std::allocator<char> >::~basic_string<char,std::char_traits<char>,std::allocator<char> >
  00117	6a 06		 push	 6
  00119	6a 18		 push	 24			; 00000018H
  0011b	8d 86 70 01 00
	00		 lea	 eax, DWORD PTR [esi+368]
; File C:\Program Files (x86)\Microsoft Visual Studio\2019\Professional\VC\Tools\MSVC\14.29.30133\include\xstring

; 4633 :             _Mypair._Myval2._Mysize = 0;

  00121	c7 86 2c 02 00
	00 00 00 00 00	 mov	 DWORD PTR [esi+556], 0
  0012b	50		 push	 eax

; 4634 :             _Mypair._Myval2._Myres  = _BUF_SIZE - 1;

  0012c	c7 86 30 02 00
	00 0f 00 00 00	 mov	 DWORD PTR [esi+560], 15	; 0000000fH

; 4635 :             // the _Traits::assign is last so the codegen doesn't think the char write can alias this
; 4636 :             _Traits::assign(_Mypair._Myval2._Bx._Buf[0], _Elem());

  00136	c6 86 1c 02 00
	00 00		 mov	 BYTE PTR [esi+540], 0
  0013d	e8 00 00 00 00	 call	 ??_M@YGXPAXIIP6EX0@Z@Z
  00142	f6 45 08 01	 test	 BYTE PTR ___flags$[ebp], 1
  00146	74 0e		 je	 SHORT $LN2@scalar
  00148	68 9c 02 00 00	 push	 668			; 0000029cH
  0014d	56		 push	 esi
  0014e	e8 00 00 00 00	 call	 ??3@YAXPAXI@Z		; operator delete
  00153	83 c4 08	 add	 esp, 8
$LN2@scalar:
  00156	8b c6		 mov	 eax, esi
  00158	8b 4d f4	 mov	 ecx, DWORD PTR __$EHRec$[ebp]
  0015b	64 89 0d 00 00
	00 00		 mov	 DWORD PTR fs:0, ecx
  00162	59		 pop	 ecx
  00163	5e		 pop	 esi
  00164	8b e5		 mov	 esp, ebp
  00166	5d		 pop	 ebp
  00167	c2 04 00	 ret	 4
$LN78@scalar:
; File C:\Program Files (x86)\Microsoft Visual Studio\2019\Professional\VC\Tools\MSVC\14.29.30133\include\xmemory

; 172  :     _STL_VERIFY(_Back_shift >= _Min_back_shift && _Back_shift <= _Non_user_size, "invalid argument");

  0016a	e8 00 00 00 00	 call	 __invalid_parameter_noinfo_noreturn
$LN88@scalar:
  0016f	cc		 int	 3
  00170	cc		 int	 3
  00171	cc		 int	 3
  00172	cc		 int	 3
  00173	cc		 int	 3
  00174	cc		 int	 3
_TEXT	ENDS
;	COMDAT text$x
text$x	SEGMENT
__ehhandler$??_GSEnvironmentData@@QAEPAXI@Z:
  00000	90		 npad	 1
  00001	90		 npad	 1
  00002	8b 54 24 08	 mov	 edx, DWORD PTR [esp+8]
  00006	8d 42 0c	 lea	 eax, DWORD PTR [edx+12]
  00009	8b 4a f8	 mov	 ecx, DWORD PTR [edx-8]
  0000c	33 c8		 xor	 ecx, eax
  0000e	e8 00 00 00 00	 call	 @__security_check_cookie@4
  00013	b8 00 00 00 00	 mov	 eax, OFFSET __ehfuncinfo$??_GSEnvironmentData@@QAEPAXI@Z
  00018	e9 00 00 00 00	 jmp	 ___CxxFrameHandler3
text$x	ENDS
??_GSEnvironmentData@@QAEPAXI@Z ENDP			; SEnvironmentData::`scalar deleting destructor'
; Function compile flags: /Ogtp
; File C:\Program Files (x86)\Microsoft Visual Studio\2019\Professional\VC\Tools\MSVC\14.29.30133\include\xtree
;	COMDAT ?_Throw_tree_length_error@std@@YAXXZ
_TEXT	SEGMENT
?_Throw_tree_length_error@std@@YAXXZ PROC		; std::_Throw_tree_length_error, COMDAT

; 421  :     _Xlength_error("map/set too long");

  00000	68 00 00 00 00	 push	 OFFSET ??_C@_0BB@GCADKGJO@map?1set?5too?5long@
  00005	e8 00 00 00 00	 call	 ?_Xlength_error@std@@YAXPBD@Z ; std::_Xlength_error
$LN3@Throw_tree:
  0000a	cc		 int	 3
?_Throw_tree_length_error@std@@YAXXZ ENDP		; std::_Throw_tree_length_error
_TEXT	ENDS
; Function compile flags: /Ogtp
; File C:\Program Files (x86)\Microsoft Visual Studio\2019\Professional\VC\Tools\MSVC\14.29.30133\include\xstring
; File C:\Program Files (x86)\Microsoft Visual Studio\2019\Professional\VC\Tools\MSVC\14.29.30133\include\xmemory
; File C:\Program Files (x86)\Microsoft Visual Studio\2019\Professional\VC\Tools\MSVC\14.29.30133\include\xstring
; File C:\Program Files (x86)\Microsoft Visual Studio\2019\Professional\VC\Tools\MSVC\14.29.30133\include\xmemory
; File C:\Program Files (x86)\Microsoft Visual Studio\2019\Professional\VC\Tools\MSVC\14.29.30133\include\xstring
; File C:\Program Files (x86)\Microsoft Visual Studio\2019\Professional\VC\Tools\MSVC\14.29.30133\include\utility
; File C:\Program Files (x86)\Microsoft Visual Studio\2019\Professional\VC\Tools\MSVC\14.29.30133\include\xstring
; File C:\Program Files (x86)\Microsoft Visual Studio\2019\Professional\VC\Tools\MSVC\14.29.30133\include\xmemory
; File C:\Program Files (x86)\Microsoft Visual Studio\2019\Professional\VC\Tools\MSVC\14.29.30133\include\xstring
; File C:\Program Files (x86)\Microsoft Visual Studio\2019\Professional\VC\Tools\MSVC\14.29.30133\include\xmemory
; File C:\Program Files (x86)\Microsoft Visual Studio\2019\Professional\VC\Tools\MSVC\14.29.30133\include\xstring
; File C:\Program Files (x86)\Microsoft Visual Studio\2019\Professional\VC\Tools\MSVC\14.29.30133\include\xmemory
; File C:\Program Files (x86)\Microsoft Visual Studio\2019\Professional\VC\Tools\MSVC\14.29.30133\include\xstring
;	COMDAT ?assign@?$basic_string@DU?$char_traits@D@std@@V?$allocator@D@2@@std@@QAEAAV12@QBDI@Z
_TEXT	SEGMENT
__Old$1$ = -4						; size = 4
__Ptr$ = 8						; size = 4
$T1 = 12						; size = 4
__Count$ = 12						; size = 4
?assign@?$basic_string@DU?$char_traits@D@std@@V?$allocator@D@2@@std@@QAEAAV12@QBDI@Z PROC ; std::basic_string<char,std::char_traits<char>,std::allocator<char> >::assign, COMDAT
; _this$ = ecx

; 3244 :         _In_reads_(_Count) const _Elem* const _Ptr, _CRT_GUARDOVERFLOW const size_type _Count) {

  00000	55		 push	 ebp
  00001	8b ec		 mov	 ebp, esp
  00003	51		 push	 ecx
  00004	53		 push	 ebx

; 3245 :         // assign [_Ptr, _Ptr + _Count)
; 3246 :         if (_Count <= _Mypair._Myval2._Myres) {

  00005	8b 5d 0c	 mov	 ebx, DWORD PTR __Count$[ebp]
  00008	56		 push	 esi
  00009	8b f1		 mov	 esi, ecx
  0000b	57		 push	 edi
  0000c	8b 4e 14	 mov	 ecx, DWORD PTR [esi+20]
  0000f	89 4d fc	 mov	 DWORD PTR __Old$1$[ebp], ecx
  00012	3b d9		 cmp	 ebx, ecx
  00014	77 28		 ja	 SHORT $LN2@assign

; 2296 :         value_type* _Result = _Bx._Buf;

  00016	8b fe		 mov	 edi, esi

; 2319 :         return _BUF_SIZE <= _Myres;

  00018	83 f9 10	 cmp	 ecx, 16			; 00000010H

; 2297 :         if (_Large_string_engaged()) {

  0001b	72 02		 jb	 SHORT $LN5@assign

; 2298 :             _Result = _Unfancy(_Bx._Ptr);

  0001d	8b 3e		 mov	 edi, DWORD PTR [esi]
$LN5@assign:

; 122  :         _CSTD memmove(_First1, _First2, _Count * sizeof(_Elem));

  0001f	53		 push	 ebx
  00020	ff 75 08	 push	 DWORD PTR __Ptr$[ebp]

; 3247 :             _Elem* const _Old_ptr   = _Mypair._Myval2._Myptr();
; 3248 :             _Mypair._Myval2._Mysize = _Count;

  00023	89 5e 10	 mov	 DWORD PTR [esi+16], ebx

; 122  :         _CSTD memmove(_First1, _First2, _Count * sizeof(_Elem));

  00026	57		 push	 edi
  00027	e8 00 00 00 00	 call	 _memmove
  0002c	83 c4 0c	 add	 esp, 12			; 0000000cH

; 3249 :             _Traits::move(_Old_ptr, _Ptr, _Count);
; 3250 :             _Traits::assign(_Old_ptr[_Count], _Elem());

  0002f	c6 04 1f 00	 mov	 BYTE PTR [edi+ebx], 0

; 3259 :             },
; 3260 :             _Ptr);
; 3261 :     }

  00033	8b c6		 mov	 eax, esi
  00035	5f		 pop	 edi
  00036	5e		 pop	 esi
  00037	5b		 pop	 ebx
  00038	8b e5		 mov	 esp, ebp
  0003a	5d		 pop	 ebp
  0003b	c2 08 00	 ret	 8
$LN2@assign:

; 4508 :         if (_New_size > max_size()) {

  0003e	81 fb ff ff ff
	7f		 cmp	 ebx, 2147483647		; 7fffffffH
  00044	0f 87 d4 00 00
	00		 ja	 $LN60@assign

; 4488 :         const size_type _Masked = _Requested | _ALLOC_MASK;

  0004a	8b fb		 mov	 edi, ebx
  0004c	83 cf 0f	 or	 edi, 15			; 0000000fH
  0004f	81 ff ff ff ff
	7f		 cmp	 edi, 2147483647		; 7fffffffH

; 4489 :         if (_Masked > _Max) { // the mask overflows, settle for max_size()

  00055	76 15		 jbe	 SHORT $LN19@assign

; 4490 :             return _Max;

  00057	b8 00 00 00 80	 mov	 eax, -2147483648	; 80000000H
  0005c	bf ff ff ff 7f	 mov	 edi, 2147483647		; 7fffffffH
; File C:\Program Files (x86)\Microsoft Visual Studio\2019\Professional\VC\Tools\MSVC\14.29.30133\include\xmemory

; 238  :             return _Allocate_manually_vector_aligned<_Traits>(_Bytes);

  00061	50		 push	 eax
  00062	e8 00 00 00 00	 call	 ??$_Allocate_manually_vector_aligned@U_Default_allocate_traits@std@@@std@@YAPAXI@Z ; std::_Allocate_manually_vector_aligned<std::_Default_allocate_traits>
  00067	83 c4 04	 add	 esp, 4
  0006a	eb 52		 jmp	 SHORT $LN58@assign
$LN19@assign:
; File C:\Program Files (x86)\Microsoft Visual Studio\2019\Professional\VC\Tools\MSVC\14.29.30133\include\xstring

; 4493 :         if (_Old > _Max - _Old / 2) { // similarly, geometric overflows

  0006c	8b d1		 mov	 edx, ecx
  0006e	b8 ff ff ff 7f	 mov	 eax, 2147483647		; 7fffffffH
  00073	d1 ea		 shr	 edx, 1
  00075	2b c2		 sub	 eax, edx
  00077	3b c8		 cmp	 ecx, eax
  00079	76 15		 jbe	 SHORT $LN20@assign

; 4494 :             return _Max;

  0007b	b8 00 00 00 80	 mov	 eax, -2147483648	; 80000000H
  00080	bf ff ff ff 7f	 mov	 edi, 2147483647		; 7fffffffH
; File C:\Program Files (x86)\Microsoft Visual Studio\2019\Professional\VC\Tools\MSVC\14.29.30133\include\xmemory

; 238  :             return _Allocate_manually_vector_aligned<_Traits>(_Bytes);

  00085	50		 push	 eax
  00086	e8 00 00 00 00	 call	 ??$_Allocate_manually_vector_aligned@U_Default_allocate_traits@std@@@std@@YAPAXI@Z ; std::_Allocate_manually_vector_aligned<std::_Default_allocate_traits>
  0008b	83 c4 04	 add	 esp, 4
  0008e	eb 2e		 jmp	 SHORT $LN58@assign
$LN20@assign:
; File C:\Program Files (x86)\Microsoft Visual Studio\2019\Professional\VC\Tools\MSVC\14.29.30133\include\xstring

; 4497 :         return (_STD max)(_Masked, _Old + _Old / 2);

  00090	8d 04 0a	 lea	 eax, DWORD PTR [edx+ecx]
; File C:\Program Files (x86)\Microsoft Visual Studio\2019\Professional\VC\Tools\MSVC\14.29.30133\include\utility

; 44   :     return _Left < _Right ? _Right : _Left;

  00093	3b f8		 cmp	 edi, eax
  00095	0f 42 f8	 cmovb	 edi, eax
; File C:\Program Files (x86)\Microsoft Visual Studio\2019\Professional\VC\Tools\MSVC\14.29.30133\include\xstring

; 4515 :         const pointer _New_ptr        = _Al.allocate(_New_capacity + 1); // throws

  00098	8d 47 01	 lea	 eax, DWORD PTR [edi+1]
; File C:\Program Files (x86)\Microsoft Visual Studio\2019\Professional\VC\Tools\MSVC\14.29.30133\include\xmemory

; 237  :         if (_Bytes >= _Big_allocation_threshold) { // boost the alignment of big allocations to help autovectorization

  0009b	3d 00 10 00 00	 cmp	 eax, 4096		; 00001000H
  000a0	72 0b		 jb	 SHORT $LN27@assign

; 238  :             return _Allocate_manually_vector_aligned<_Traits>(_Bytes);

  000a2	50		 push	 eax
  000a3	e8 00 00 00 00	 call	 ??$_Allocate_manually_vector_aligned@U_Default_allocate_traits@std@@@std@@YAPAXI@Z ; std::_Allocate_manually_vector_aligned<std::_Default_allocate_traits>
  000a8	83 c4 04	 add	 esp, 4
  000ab	eb 11		 jmp	 SHORT $LN58@assign
$LN27@assign:

; 239  :         }
; 240  :     }
; 241  : #endif // defined(_M_IX86) || defined(_M_X64)
; 242  : 
; 243  :     if (_Bytes != 0) {

  000ad	85 c0		 test	 eax, eax
  000af	74 0b		 je	 SHORT $LN28@assign

; 85   :         return ::operator new(_Bytes);

  000b1	50		 push	 eax
  000b2	e8 00 00 00 00	 call	 ??2@YAPAXI@Z		; operator new
  000b7	83 c4 04	 add	 esp, 4

; 244  :         return _Traits::_Allocate(_Bytes);

  000ba	eb 02		 jmp	 SHORT $LN58@assign
$LN28@assign:

; 245  :     }
; 246  : 
; 247  :     return nullptr;

  000bc	33 c0		 xor	 eax, eax
$LN58@assign:
; File C:\Program Files (x86)\Microsoft Visual Studio\2019\Professional\VC\Tools\MSVC\14.29.30133\include\xstring

; 65   :         _CSTD memcpy(_First1, _First2, _Count * sizeof(_Elem));

  000be	53		 push	 ebx
  000bf	ff 75 08	 push	 DWORD PTR __Ptr$[ebp]

; 4523 :         _Mypair._Myval2._Mysize = _New_size;

  000c2	89 45 0c	 mov	 DWORD PTR $T1[ebp], eax

; 65   :         _CSTD memcpy(_First1, _First2, _Count * sizeof(_Elem));

  000c5	50		 push	 eax

; 4523 :         _Mypair._Myval2._Mysize = _New_size;

  000c6	89 5e 10	 mov	 DWORD PTR [esi+16], ebx

; 4524 :         _Mypair._Myval2._Myres  = _New_capacity;

  000c9	89 7e 14	 mov	 DWORD PTR [esi+20], edi

; 65   :         _CSTD memcpy(_First1, _First2, _Count * sizeof(_Elem));

  000cc	e8 00 00 00 00	 call	 _memcpy

; 3258 :                 _Traits::assign(_New_ptr[_Count], _Elem());

  000d1	8b 7d 0c	 mov	 edi, DWORD PTR $T1[ebp]

; 65   :         _CSTD memcpy(_First1, _First2, _Count * sizeof(_Elem));

  000d4	83 c4 0c	 add	 esp, 12			; 0000000cH

; 4526 :         if (_BUF_SIZE <= _Old_capacity) {

  000d7	8b 45 fc	 mov	 eax, DWORD PTR __Old$1$[ebp]

; 3258 :                 _Traits::assign(_New_ptr[_Count], _Elem());

  000da	c6 04 1f 00	 mov	 BYTE PTR [edi+ebx], 0

; 4526 :         if (_BUF_SIZE <= _Old_capacity) {

  000de	83 f8 10	 cmp	 eax, 16			; 00000010H
  000e1	72 29		 jb	 SHORT $LN13@assign

; 4527 :             _Al.deallocate(_Mypair._Myval2._Bx._Ptr, _Old_capacity + 1);

  000e3	8d 48 01	 lea	 ecx, DWORD PTR [eax+1]
; File C:\Program Files (x86)\Microsoft Visual Studio\2019\Professional\VC\Tools\MSVC\14.29.30133\include\xmemory

; 835  :         _Deallocate<_New_alignof<_Ty>>(_Ptr, sizeof(_Ty) * _Count);

  000e6	8b 06		 mov	 eax, DWORD PTR [esi]

; 260  :         if (_Bytes >= _Big_allocation_threshold) { // boost the alignment of big allocations to help autovectorization

  000e8	81 f9 00 10 00
	00		 cmp	 ecx, 4096		; 00001000H
  000ee	72 12		 jb	 SHORT $LN50@assign

; 158  :     const uintptr_t _Ptr_container   = _Ptr_user[-1];

  000f0	8b 50 fc	 mov	 edx, DWORD PTR [eax-4]
  000f3	83 c1 23	 add	 ecx, 35			; 00000023H

; 159  : 
; 160  :     // If the following asserts, it likely means that we are performing
; 161  :     // an aligned delete on memory coming from an unaligned allocation.
; 162  :     _STL_ASSERT(_Ptr_user[-2] == _Big_allocation_sentinel, "invalid argument");
; 163  : 
; 164  :     // Extra paranoia on aligned allocation/deallocation; ensure _Ptr_container is
; 165  :     // in range [_Min_back_shift, _Non_user_size]
; 166  : #ifdef _DEBUG
; 167  :     constexpr uintptr_t _Min_back_shift = 2 * sizeof(void*);
; 168  : #else // ^^^ _DEBUG ^^^ // vvv !_DEBUG vvv
; 169  :     constexpr uintptr_t _Min_back_shift = sizeof(void*);
; 170  : #endif // _DEBUG
; 171  :     const uintptr_t _Back_shift = reinterpret_cast<uintptr_t>(_Ptr) - _Ptr_container;

  000f6	2b c2		 sub	 eax, edx

; 172  :     _STL_VERIFY(_Back_shift >= _Min_back_shift && _Back_shift <= _Non_user_size, "invalid argument");

  000f8	83 c0 fc	 add	 eax, -4			; fffffffcH
  000fb	83 f8 1f	 cmp	 eax, 31			; 0000001fH
  000fe	77 19		 ja	 SHORT $LN47@assign

; 173  :     _Ptr = reinterpret_cast<void*>(_Ptr_container);

  00100	8b c2		 mov	 eax, edx
$LN50@assign:

; 264  :         ::operator delete(_Ptr, _Bytes);

  00102	51		 push	 ecx
  00103	50		 push	 eax
  00104	e8 00 00 00 00	 call	 ??3@YAXPAXI@Z		; operator delete
  00109	83 c4 08	 add	 esp, 8
$LN13@assign:
; File C:\Program Files (x86)\Microsoft Visual Studio\2019\Professional\VC\Tools\MSVC\14.29.30133\include\xstring

; 3254 :         return _Reallocate_for(

  0010c	89 3e		 mov	 DWORD PTR [esi], edi

; 3259 :             },
; 3260 :             _Ptr);
; 3261 :     }

  0010e	8b c6		 mov	 eax, esi
  00110	5f		 pop	 edi
  00111	5e		 pop	 esi
  00112	5b		 pop	 ebx
  00113	8b e5		 mov	 esp, ebp
  00115	5d		 pop	 ebp
  00116	c2 08 00	 ret	 8
$LN47@assign:
; File C:\Program Files (x86)\Microsoft Visual Studio\2019\Professional\VC\Tools\MSVC\14.29.30133\include\xmemory

; 172  :     _STL_VERIFY(_Back_shift >= _Min_back_shift && _Back_shift <= _Non_user_size, "invalid argument");

  00119	e8 00 00 00 00	 call	 __invalid_parameter_noinfo_noreturn
$LN60@assign:
; File C:\Program Files (x86)\Microsoft Visual Studio\2019\Professional\VC\Tools\MSVC\14.29.30133\include\xstring

; 4509 :             _Xlen_string(); // result too long

  0011e	e8 00 00 00 00	 call	 ?_Xlen_string@std@@YAXXZ ; std::_Xlen_string
$LN56@assign:
  00123	cc		 int	 3
?assign@?$basic_string@DU?$char_traits@D@std@@V?$allocator@D@2@@std@@QAEAAV12@QBDI@Z ENDP ; std::basic_string<char,std::char_traits<char>,std::allocator<char> >::assign
_TEXT	ENDS
; Function compile flags: /Ogtp
; File C:\Program Files (x86)\Microsoft Visual Studio\2019\Professional\VC\Tools\MSVC\14.29.30133\include\xstring
; File C:\Program Files (x86)\Microsoft Visual Studio\2019\Professional\VC\Tools\MSVC\14.29.30133\include\xmemory
; File C:\Program Files (x86)\Microsoft Visual Studio\2019\Professional\VC\Tools\MSVC\14.29.30133\include\xstring
; File C:\Program Files (x86)\Microsoft Visual Studio\2019\Professional\VC\Tools\MSVC\14.29.30133\include\xmemory
; File C:\Program Files (x86)\Microsoft Visual Studio\2019\Professional\VC\Tools\MSVC\14.29.30133\include\xstring
; File C:\Program Files (x86)\Microsoft Visual Studio\2019\Professional\VC\Tools\MSVC\14.29.30133\include\xmemory
; File C:\Program Files (x86)\Microsoft Visual Studio\2019\Professional\VC\Tools\MSVC\14.29.30133\include\xstring
;	COMDAT ??1?$basic_string@DU?$char_traits@D@std@@V?$allocator@D@2@@std@@QAE@XZ
_TEXT	SEGMENT
??1?$basic_string@DU?$char_traits@D@std@@V?$allocator@D@2@@std@@QAE@XZ PROC ; std::basic_string<char,std::char_traits<char>,std::allocator<char> >::~basic_string<char,std::char_traits<char>,std::allocator<char> >, COMDAT
; _this$ = ecx

; 3002 :     _CONSTEXPR20_CONTAINER ~basic_string() noexcept {

  00000	56		 push	 esi
  00001	8b f1		 mov	 esi, ecx

; 2319 :         return _BUF_SIZE <= _Myres;

  00003	8b 4e 14	 mov	 ecx, DWORD PTR [esi+20]
  00006	83 f9 10	 cmp	 ecx, 16			; 00000010H

; 4618 :         if (_Mypair._Myval2._Large_string_engaged()) {

  00009	72 27		 jb	 SHORT $LN12@basic_stri
; File C:\Program Files (x86)\Microsoft Visual Studio\2019\Professional\VC\Tools\MSVC\14.29.30133\include\xmemory

; 835  :         _Deallocate<_New_alignof<_Ty>>(_Ptr, sizeof(_Ty) * _Count);

  0000b	8b 06		 mov	 eax, DWORD PTR [esi]
; File C:\Program Files (x86)\Microsoft Visual Studio\2019\Professional\VC\Tools\MSVC\14.29.30133\include\xstring

; 4622 :             _Al.deallocate(_Ptr, _Mypair._Myval2._Myres + 1);

  0000d	41		 inc	 ecx
; File C:\Program Files (x86)\Microsoft Visual Studio\2019\Professional\VC\Tools\MSVC\14.29.30133\include\xmemory

; 260  :         if (_Bytes >= _Big_allocation_threshold) { // boost the alignment of big allocations to help autovectorization

  0000e	81 f9 00 10 00
	00		 cmp	 ecx, 4096		; 00001000H
  00014	72 12		 jb	 SHORT $LN22@basic_stri

; 158  :     const uintptr_t _Ptr_container   = _Ptr_user[-1];

  00016	8b 50 fc	 mov	 edx, DWORD PTR [eax-4]
  00019	83 c1 23	 add	 ecx, 35			; 00000023H

; 159  : 
; 160  :     // If the following asserts, it likely means that we are performing
; 161  :     // an aligned delete on memory coming from an unaligned allocation.
; 162  :     _STL_ASSERT(_Ptr_user[-2] == _Big_allocation_sentinel, "invalid argument");
; 163  : 
; 164  :     // Extra paranoia on aligned allocation/deallocation; ensure _Ptr_container is
; 165  :     // in range [_Min_back_shift, _Non_user_size]
; 166  : #ifdef _DEBUG
; 167  :     constexpr uintptr_t _Min_back_shift = 2 * sizeof(void*);
; 168  : #else // ^^^ _DEBUG ^^^ // vvv !_DEBUG vvv
; 169  :     constexpr uintptr_t _Min_back_shift = sizeof(void*);
; 170  : #endif // _DEBUG
; 171  :     const uintptr_t _Back_shift = reinterpret_cast<uintptr_t>(_Ptr) - _Ptr_container;

  0001c	2b c2		 sub	 eax, edx

; 172  :     _STL_VERIFY(_Back_shift >= _Min_back_shift && _Back_shift <= _Non_user_size, "invalid argument");

  0001e	83 c0 fc	 add	 eax, -4			; fffffffcH
  00021	83 f8 1f	 cmp	 eax, 31			; 0000001fH
  00024	77 1f		 ja	 SHORT $LN19@basic_stri

; 173  :     _Ptr = reinterpret_cast<void*>(_Ptr_container);

  00026	8b c2		 mov	 eax, edx
$LN22@basic_stri:

; 264  :         ::operator delete(_Ptr, _Bytes);

  00028	51		 push	 ecx
  00029	50		 push	 eax
  0002a	e8 00 00 00 00	 call	 ??3@YAXPAXI@Z		; operator delete
  0002f	83 c4 08	 add	 esp, 8
$LN12@basic_stri:
; File C:\Program Files (x86)\Microsoft Visual Studio\2019\Professional\VC\Tools\MSVC\14.29.30133\include\xstring

; 4633 :             _Mypair._Myval2._Mysize = 0;

  00032	c7 46 10 00 00
	00 00		 mov	 DWORD PTR [esi+16], 0

; 4634 :             _Mypair._Myval2._Myres  = _BUF_SIZE - 1;

  00039	c7 46 14 0f 00
	00 00		 mov	 DWORD PTR [esi+20], 15	; 0000000fH

; 4635 :             // the _Traits::assign is last so the codegen doesn't think the char write can alias this
; 4636 :             _Traits::assign(_Mypair._Myval2._Bx._Buf[0], _Elem());

  00040	c6 06 00	 mov	 BYTE PTR [esi], 0
  00043	5e		 pop	 esi

; 3010 :     }

  00044	c3		 ret	 0
$LN19@basic_stri:
; File C:\Program Files (x86)\Microsoft Visual Studio\2019\Professional\VC\Tools\MSVC\14.29.30133\include\xmemory

; 172  :     _STL_VERIFY(_Back_shift >= _Min_back_shift && _Back_shift <= _Non_user_size, "invalid argument");

  00045	e8 00 00 00 00	 call	 __invalid_parameter_noinfo_noreturn
$LN27@basic_stri:
  0004a	cc		 int	 3
??1?$basic_string@DU?$char_traits@D@std@@V?$allocator@D@2@@std@@QAE@XZ ENDP ; std::basic_string<char,std::char_traits<char>,std::allocator<char> >::~basic_string<char,std::char_traits<char>,std::allocator<char> >
_TEXT	ENDS
; Function compile flags: /Ogtp
; File C:\Program Files (x86)\Microsoft Visual Studio\2019\Professional\VC\Tools\MSVC\14.29.30133\include\xstring
;	COMDAT ??0?$basic_string@DU?$char_traits@D@std@@V?$allocator@D@2@@std@@QAE@XZ
_TEXT	SEGMENT
??0?$basic_string@DU?$char_traits@D@std@@V?$allocator@D@2@@std@@QAE@XZ PROC ; std::basic_string<char,std::char_traits<char>,std::allocator<char> >::basic_string<char,std::char_traits<char>,std::allocator<char> >, COMDAT
; _this$ = ecx

; 2346 :         _CONSTEXPR20_CONTAINER _Bxty() noexcept : _Ptr() {} // user-provided, for fancy pointers

  00000	c7 01 00 00 00
	00		 mov	 DWORD PTR [ecx], 0

; 2468 :         _Mypair._Myval2._Alloc_proxy(_GET_PROXY_ALLOCATOR(_Alty, _Getal()));
; 2469 :         _Tidy_init();
; 2470 :     }

  00006	8b c1		 mov	 eax, ecx

; 4596 :         _My_data._Mysize = 0;

  00008	c7 41 10 00 00
	00 00		 mov	 DWORD PTR [ecx+16], 0

; 4597 : 
; 4598 : #ifdef __cpp_lib_constexpr_string
; 4599 :         if (_STD is_constant_evaluated()) {
; 4600 :             _My_data._Myres        = _BUF_SIZE; // SSO disabled in constexpr context
; 4601 :             auto& _Al              = _Getal();
; 4602 :             const pointer _New_ptr = _Al.allocate(_BUF_SIZE + 1); // throws
; 4603 :             _My_data._Bx._Ptr      = _New_ptr;
; 4604 : 
; 4605 :             _Elem* const _Raw_new = _Unfancy(_New_ptr);
; 4606 :             _Traits::assign(_Raw_new, _BUF_SIZE + 1, _Elem());
; 4607 :         } else
; 4608 : #endif // __cpp_lib_constexpr_string
; 4609 :         {
; 4610 :             _My_data._Myres = _BUF_SIZE - 1;

  0000f	c7 41 14 0f 00
	00 00		 mov	 DWORD PTR [ecx+20], 15	; 0000000fH

; 2468 :         _Mypair._Myval2._Alloc_proxy(_GET_PROXY_ALLOCATOR(_Alty, _Getal()));
; 2469 :         _Tidy_init();
; 2470 :     }

  00016	c3		 ret	 0
??0?$basic_string@DU?$char_traits@D@std@@V?$allocator@D@2@@std@@QAE@XZ ENDP ; std::basic_string<char,std::char_traits<char>,std::allocator<char> >::basic_string<char,std::char_traits<char>,std::allocator<char> >
_TEXT	ENDS
; Function compile flags: /Ogtp
; File C:\Program Files (x86)\Microsoft Visual Studio\2019\Professional\VC\Tools\MSVC\14.29.30133\include\xstring
;	COMDAT ?_Xlen_string@std@@YAXXZ
_TEXT	SEGMENT
?_Xlen_string@std@@YAXXZ PROC				; std::_Xlen_string, COMDAT

; 2374 :     _Xlength_error("string too long");

  00000	68 00 00 00 00	 push	 OFFSET ??_C@_0BA@JFNIOLAK@string?5too?5long@
  00005	e8 00 00 00 00	 call	 ?_Xlength_error@std@@YAXPBD@Z ; std::_Xlength_error
$LN3@Xlen_strin:
  0000a	cc		 int	 3
?_Xlen_string@std@@YAXXZ ENDP				; std::_Xlen_string
_TEXT	ENDS
; Function compile flags: /Ogtp
; File C:\Program Files (x86)\Microsoft Visual Studio\2019\Professional\VC\Tools\MSVC\14.29.30133\include\exception
;	COMDAT ?_Throw_bad_array_new_length@std@@YAXXZ
_TEXT	SEGMENT
$T1 = -12						; size = 12
?_Throw_bad_array_new_length@std@@YAXXZ PROC		; std::_Throw_bad_array_new_length, COMDAT

; 320  : [[noreturn]] inline void _Throw_bad_array_new_length() {

  00000	55		 push	 ebp
  00001	8b ec		 mov	 ebp, esp
  00003	83 ec 0c	 sub	 esp, 12			; 0000000cH

; 321  :     _THROW(bad_array_new_length{});

  00006	8d 4d f4	 lea	 ecx, DWORD PTR $T1[ebp]
  00009	e8 00 00 00 00	 call	 ??0bad_array_new_length@std@@QAE@XZ ; std::bad_array_new_length::bad_array_new_length
  0000e	68 00 00 00 00	 push	 OFFSET __TI3?AVbad_array_new_length@std@@
  00013	8d 45 f4	 lea	 eax, DWORD PTR $T1[ebp]
  00016	50		 push	 eax
  00017	e8 00 00 00 00	 call	 __CxxThrowException@8
$LN3@Throw_bad_:
  0001c	cc		 int	 3
?_Throw_bad_array_new_length@std@@YAXXZ ENDP		; std::_Throw_bad_array_new_length
_TEXT	ENDS
; Function compile flags: /Ogtp
; File C:\Program Files (x86)\Microsoft Visual Studio\2019\Professional\VC\Tools\MSVC\14.29.30133\include\vcruntime_exception.h
;	COMDAT ??_Gbad_array_new_length@std@@UAEPAXI@Z
_TEXT	SEGMENT
___flags$ = 8						; size = 4
??_Gbad_array_new_length@std@@UAEPAXI@Z PROC		; std::bad_array_new_length::`scalar deleting destructor', COMDAT
; _this$ = ecx
  00000	55		 push	 ebp
  00001	8b ec		 mov	 ebp, esp

; 89   :     {

  00003	56		 push	 esi
  00004	8b f1		 mov	 esi, ecx

; 90   :         __std_exception_destroy(&_Data);

  00006	8d 46 04	 lea	 eax, DWORD PTR [esi+4]
  00009	c7 06 00 00 00
	00		 mov	 DWORD PTR [esi], OFFSET ??_7exception@std@@6B@
  0000f	50		 push	 eax
  00010	e8 00 00 00 00	 call	 ___std_exception_destroy
  00015	83 c4 04	 add	 esp, 4
  00018	f6 45 08 01	 test	 BYTE PTR ___flags$[ebp], 1
  0001c	74 0b		 je	 SHORT $LN12@scalar
  0001e	6a 0c		 push	 12			; 0000000cH
  00020	56		 push	 esi
  00021	e8 00 00 00 00	 call	 ??3@YAXPAXI@Z		; operator delete
  00026	83 c4 08	 add	 esp, 8
$LN12@scalar:
  00029	8b c6		 mov	 eax, esi
  0002b	5e		 pop	 esi
  0002c	5d		 pop	 ebp
  0002d	c2 04 00	 ret	 4
??_Gbad_array_new_length@std@@UAEPAXI@Z ENDP		; std::bad_array_new_length::`scalar deleting destructor'
_TEXT	ENDS
; Function compile flags: /Ogtp
; File C:\Program Files (x86)\Microsoft Visual Studio\2019\Professional\VC\Tools\MSVC\14.29.30133\include\vcruntime_exception.h
;	COMDAT ??0bad_array_new_length@std@@QAE@ABV01@@Z
_TEXT	SEGMENT
___that$ = 8						; size = 4
??0bad_array_new_length@std@@QAE@ABV01@@Z PROC		; std::bad_array_new_length::bad_array_new_length, COMDAT
; _this$ = ecx
  00000	55		 push	 ebp
  00001	8b ec		 mov	 ebp, esp

; 72   :     {

  00003	56		 push	 esi
  00004	8b f1		 mov	 esi, ecx
  00006	0f 57 c0	 xorps	 xmm0, xmm0

; 71   :         : _Data()

  00009	8d 46 04	 lea	 eax, DWORD PTR [esi+4]

; 73   :         __std_exception_copy(&_Other._Data, &_Data);

  0000c	50		 push	 eax
  0000d	c7 06 00 00 00
	00		 mov	 DWORD PTR [esi], OFFSET ??_7exception@std@@6B@
  00013	66 0f d6 00	 movq	 QWORD PTR [eax], xmm0
  00017	8b 45 08	 mov	 eax, DWORD PTR ___that$[ebp]
  0001a	83 c0 04	 add	 eax, 4
  0001d	50		 push	 eax
  0001e	e8 00 00 00 00	 call	 ___std_exception_copy
  00023	83 c4 08	 add	 esp, 8
  00026	c7 06 00 00 00
	00		 mov	 DWORD PTR [esi], OFFSET ??_7bad_array_new_length@std@@6B@
  0002c	8b c6		 mov	 eax, esi
  0002e	5e		 pop	 esi
  0002f	5d		 pop	 ebp
  00030	c2 04 00	 ret	 4
??0bad_array_new_length@std@@QAE@ABV01@@Z ENDP		; std::bad_array_new_length::bad_array_new_length
_TEXT	ENDS
; Function compile flags: /Ogtp
; File C:\Program Files (x86)\Microsoft Visual Studio\2019\Professional\VC\Tools\MSVC\14.29.30133\include\vcruntime_exception.h
;	COMDAT ??1bad_array_new_length@std@@UAE@XZ
_TEXT	SEGMENT
??1bad_array_new_length@std@@UAE@XZ PROC		; std::bad_array_new_length::~bad_array_new_length, COMDAT
; _this$ = ecx

; 90   :         __std_exception_destroy(&_Data);

  00000	8d 41 04	 lea	 eax, DWORD PTR [ecx+4]
  00003	c7 01 00 00 00
	00		 mov	 DWORD PTR [ecx], OFFSET ??_7exception@std@@6B@
  00009	50		 push	 eax
  0000a	e8 00 00 00 00	 call	 ___std_exception_destroy
  0000f	59		 pop	 ecx
  00010	c3		 ret	 0
??1bad_array_new_length@std@@UAE@XZ ENDP		; std::bad_array_new_length::~bad_array_new_length
_TEXT	ENDS
; Function compile flags: /Ogtp
; File C:\Program Files (x86)\Microsoft Visual Studio\2019\Professional\VC\Tools\MSVC\14.29.30133\include\vcruntime_exception.h
;	COMDAT ??0bad_array_new_length@std@@QAE@XZ
_TEXT	SEGMENT
??0bad_array_new_length@std@@QAE@XZ PROC		; std::bad_array_new_length::bad_array_new_length, COMDAT
; _this$ = ecx

; 141  :     {

  00000	0f 57 c0	 xorps	 xmm0, xmm0

; 142  :     }

  00003	8b c1		 mov	 eax, ecx

; 65   :         : _Data()

  00005	66 0f d6 41 04	 movq	 QWORD PTR [ecx+4], xmm0

; 66   :     {
; 67   :         _Data._What = _Message;

  0000a	c7 41 04 00 00
	00 00		 mov	 DWORD PTR [ecx+4], OFFSET ??_C@_0BF@KINCDENJ@bad?5array?5new?5length@

; 141  :     {

  00011	c7 01 00 00 00
	00		 mov	 DWORD PTR [ecx], OFFSET ??_7bad_array_new_length@std@@6B@

; 142  :     }

  00017	c3		 ret	 0
??0bad_array_new_length@std@@QAE@XZ ENDP		; std::bad_array_new_length::bad_array_new_length
_TEXT	ENDS
; Function compile flags: /Ogtp
; File C:\Program Files (x86)\Microsoft Visual Studio\2019\Professional\VC\Tools\MSVC\14.29.30133\include\vcruntime_exception.h
;	COMDAT ??_Gbad_alloc@std@@UAEPAXI@Z
_TEXT	SEGMENT
___flags$ = 8						; size = 4
??_Gbad_alloc@std@@UAEPAXI@Z PROC			; std::bad_alloc::`scalar deleting destructor', COMDAT
; _this$ = ecx
  00000	55		 push	 ebp
  00001	8b ec		 mov	 ebp, esp

; 89   :     {

  00003	56		 push	 esi
  00004	8b f1		 mov	 esi, ecx

; 90   :         __std_exception_destroy(&_Data);

  00006	8d 46 04	 lea	 eax, DWORD PTR [esi+4]
  00009	c7 06 00 00 00
	00		 mov	 DWORD PTR [esi], OFFSET ??_7exception@std@@6B@
  0000f	50		 push	 eax
  00010	e8 00 00 00 00	 call	 ___std_exception_destroy
  00015	83 c4 04	 add	 esp, 4
  00018	f6 45 08 01	 test	 BYTE PTR ___flags$[ebp], 1
  0001c	74 0b		 je	 SHORT $LN9@scalar
  0001e	6a 0c		 push	 12			; 0000000cH
  00020	56		 push	 esi
  00021	e8 00 00 00 00	 call	 ??3@YAXPAXI@Z		; operator delete
  00026	83 c4 08	 add	 esp, 8
$LN9@scalar:
  00029	8b c6		 mov	 eax, esi
  0002b	5e		 pop	 esi
  0002c	5d		 pop	 ebp
  0002d	c2 04 00	 ret	 4
??_Gbad_alloc@std@@UAEPAXI@Z ENDP			; std::bad_alloc::`scalar deleting destructor'
_TEXT	ENDS
; Function compile flags: /Ogtp
; File C:\Program Files (x86)\Microsoft Visual Studio\2019\Professional\VC\Tools\MSVC\14.29.30133\include\vcruntime_exception.h
;	COMDAT ??0bad_alloc@std@@QAE@ABV01@@Z
_TEXT	SEGMENT
___that$ = 8						; size = 4
??0bad_alloc@std@@QAE@ABV01@@Z PROC			; std::bad_alloc::bad_alloc, COMDAT
; _this$ = ecx
  00000	55		 push	 ebp
  00001	8b ec		 mov	 ebp, esp

; 72   :     {

  00003	56		 push	 esi
  00004	8b f1		 mov	 esi, ecx
  00006	0f 57 c0	 xorps	 xmm0, xmm0

; 71   :         : _Data()

  00009	8d 46 04	 lea	 eax, DWORD PTR [esi+4]

; 73   :         __std_exception_copy(&_Other._Data, &_Data);

  0000c	50		 push	 eax
  0000d	c7 06 00 00 00
	00		 mov	 DWORD PTR [esi], OFFSET ??_7exception@std@@6B@
  00013	66 0f d6 00	 movq	 QWORD PTR [eax], xmm0
  00017	8b 45 08	 mov	 eax, DWORD PTR ___that$[ebp]
  0001a	83 c0 04	 add	 eax, 4
  0001d	50		 push	 eax
  0001e	e8 00 00 00 00	 call	 ___std_exception_copy
  00023	83 c4 08	 add	 esp, 8
  00026	c7 06 00 00 00
	00		 mov	 DWORD PTR [esi], OFFSET ??_7bad_alloc@std@@6B@
  0002c	8b c6		 mov	 eax, esi
  0002e	5e		 pop	 esi
  0002f	5d		 pop	 ebp
  00030	c2 04 00	 ret	 4
??0bad_alloc@std@@QAE@ABV01@@Z ENDP			; std::bad_alloc::bad_alloc
_TEXT	ENDS
; Function compile flags: /Ogtp
; File C:\Program Files (x86)\Microsoft Visual Studio\2019\Professional\VC\Tools\MSVC\14.29.30133\include\vcruntime_exception.h
;	COMDAT ??_Gexception@std@@UAEPAXI@Z
_TEXT	SEGMENT
___flags$ = 8						; size = 4
??_Gexception@std@@UAEPAXI@Z PROC			; std::exception::`scalar deleting destructor', COMDAT
; _this$ = ecx
  00000	55		 push	 ebp
  00001	8b ec		 mov	 ebp, esp

; 89   :     {

  00003	56		 push	 esi
  00004	8b f1		 mov	 esi, ecx

; 90   :         __std_exception_destroy(&_Data);

  00006	8d 46 04	 lea	 eax, DWORD PTR [esi+4]
  00009	c7 06 00 00 00
	00		 mov	 DWORD PTR [esi], OFFSET ??_7exception@std@@6B@
  0000f	50		 push	 eax
  00010	e8 00 00 00 00	 call	 ___std_exception_destroy
  00015	83 c4 04	 add	 esp, 4
  00018	f6 45 08 01	 test	 BYTE PTR ___flags$[ebp], 1
  0001c	74 0b		 je	 SHORT $LN6@scalar
  0001e	6a 0c		 push	 12			; 0000000cH
  00020	56		 push	 esi
  00021	e8 00 00 00 00	 call	 ??3@YAXPAXI@Z		; operator delete
  00026	83 c4 08	 add	 esp, 8
$LN6@scalar:
  00029	8b c6		 mov	 eax, esi
  0002b	5e		 pop	 esi
  0002c	5d		 pop	 ebp
  0002d	c2 04 00	 ret	 4
??_Gexception@std@@UAEPAXI@Z ENDP			; std::exception::`scalar deleting destructor'
_TEXT	ENDS
; Function compile flags: /Ogtp
; File C:\Program Files (x86)\Microsoft Visual Studio\2019\Professional\VC\Tools\MSVC\14.29.30133\include\vcruntime_exception.h
;	COMDAT ?what@exception@std@@UBEPBDXZ
_TEXT	SEGMENT
?what@exception@std@@UBEPBDXZ PROC			; std::exception::what, COMDAT
; _this$ = ecx

; 95   :         return _Data._What ? _Data._What : "Unknown exception";

  00000	8b 49 04	 mov	 ecx, DWORD PTR [ecx+4]
  00003	b8 00 00 00 00	 mov	 eax, OFFSET ??_C@_0BC@EOODALEL@Unknown?5exception@
  00008	85 c9		 test	 ecx, ecx
  0000a	0f 45 c1	 cmovne	 eax, ecx

; 96   :     }

  0000d	c3		 ret	 0
?what@exception@std@@UBEPBDXZ ENDP			; std::exception::what
_TEXT	ENDS
; Function compile flags: /Ogtp
; File C:\Program Files (x86)\Microsoft Visual Studio\2019\Professional\VC\Tools\MSVC\14.29.30133\include\vcruntime_exception.h
;	COMDAT ??1exception@std@@UAE@XZ
_TEXT	SEGMENT
??1exception@std@@UAE@XZ PROC				; std::exception::~exception, COMDAT
; _this$ = ecx

; 90   :         __std_exception_destroy(&_Data);

  00000	8d 41 04	 lea	 eax, DWORD PTR [ecx+4]
  00003	c7 01 00 00 00
	00		 mov	 DWORD PTR [ecx], OFFSET ??_7exception@std@@6B@
  00009	50		 push	 eax
  0000a	e8 00 00 00 00	 call	 ___std_exception_destroy
  0000f	59		 pop	 ecx

; 91   :     }

  00010	c3		 ret	 0
??1exception@std@@UAE@XZ ENDP				; std::exception::~exception
_TEXT	ENDS
; Function compile flags: /Ogtp
; File C:\Program Files (x86)\Microsoft Visual Studio\2019\Professional\VC\Tools\MSVC\14.29.30133\include\vcruntime_exception.h
;	COMDAT ??0exception@std@@QAE@ABV01@@Z
_TEXT	SEGMENT
__Other$ = 8						; size = 4
??0exception@std@@QAE@ABV01@@Z PROC			; std::exception::exception, COMDAT
; _this$ = ecx

; 72   :     {

  00000	55		 push	 ebp
  00001	8b ec		 mov	 ebp, esp
  00003	56		 push	 esi
  00004	8b f1		 mov	 esi, ecx
  00006	0f 57 c0	 xorps	 xmm0, xmm0
  00009	8d 46 04	 lea	 eax, DWORD PTR [esi+4]

; 73   :         __std_exception_copy(&_Other._Data, &_Data);

  0000c	50		 push	 eax
  0000d	c7 06 00 00 00
	00		 mov	 DWORD PTR [esi], OFFSET ??_7exception@std@@6B@
  00013	66 0f d6 00	 movq	 QWORD PTR [eax], xmm0
  00017	8b 45 08	 mov	 eax, DWORD PTR __Other$[ebp]
  0001a	83 c0 04	 add	 eax, 4
  0001d	50		 push	 eax
  0001e	e8 00 00 00 00	 call	 ___std_exception_copy
  00023	83 c4 08	 add	 esp, 8

; 74   :     }

  00026	8b c6		 mov	 eax, esi
  00028	5e		 pop	 esi
  00029	5d		 pop	 ebp
  0002a	c2 04 00	 ret	 4
??0exception@std@@QAE@ABV01@@Z ENDP			; std::exception::exception
_TEXT	ENDS
; Function compile flags: /Ogtp
; File C:\Program Files (x86)\Windows Kits\10\Include\10.0.19041.0\ucrt\stdio.h
;	COMDAT _sscanf
_TEXT	SEGMENT
__Buffer$ = 8						; size = 4
__Format$ = 12						; size = 4
_sscanf	PROC						; COMDAT

; 2247 :     {

  00000	55		 push	 ebp
  00001	8b ec		 mov	 ebp, esp

; 2153 :         return __stdio_common_vsscanf(

  00003	8d 45 10	 lea	 eax, DWORD PTR __Format$[ebp+4]
  00006	50		 push	 eax
  00007	6a 00		 push	 0
  00009	ff 75 0c	 push	 DWORD PTR __Format$[ebp]
  0000c	6a ff		 push	 -1
  0000e	ff 75 08	 push	 DWORD PTR __Buffer$[ebp]
  00011	e8 00 00 00 00	 call	 ___local_stdio_scanf_options
  00016	ff 70 04	 push	 DWORD PTR [eax+4]
  00019	ff 30		 push	 DWORD PTR [eax]
  0001b	e8 00 00 00 00	 call	 ___stdio_common_vsscanf
  00020	83 c4 1c	 add	 esp, 28			; 0000001cH

; 2248 :         int _Result;
; 2249 :         va_list _ArgList;
; 2250 :         __crt_va_start(_ArgList, _Format);
; 2251 :         _Result = _vsscanf_l(_Buffer, _Format, NULL, _ArgList);
; 2252 :         __crt_va_end(_ArgList);
; 2253 :         return _Result;
; 2254 :     }

  00023	5d		 pop	 ebp
  00024	c3		 ret	 0
_sscanf	ENDP
_TEXT	ENDS
; Function compile flags: /Ogtp
; File C:\Program Files (x86)\Windows Kits\10\Include\10.0.19041.0\ucrt\corecrt_stdio_config.h
;	COMDAT ___local_stdio_scanf_options
_TEXT	SEGMENT
___local_stdio_scanf_options PROC			; COMDAT

; 101  :         static unsigned __int64 _OptionsStorage;
; 102  :         return &_OptionsStorage;

  00000	b8 00 00 00 00	 mov	 eax, OFFSET ?_OptionsStorage@?1??__local_stdio_scanf_options@@9@4_KA ; `__local_stdio_scanf_options'::`2'::_OptionsStorage

; 103  :     }

  00005	c3		 ret	 0
___local_stdio_scanf_options ENDP
_TEXT	ENDS
; Function compile flags: /Ogtp
;	COMDAT ??_H@YGXPAXIIP6EPAX0@Z@Z
_TEXT	SEGMENT
___t$ = 8						; size = 4
___s$ = 12						; size = 4
___n$ = 16						; size = 4
___f$ = 20						; size = 4
??_H@YGXPAXIIP6EPAX0@Z@Z PROC				; `vector constructor iterator', COMDAT
  00000	55		 push	 ebp
  00001	8b ec		 mov	 ebp, esp
  00003	56		 push	 esi
  00004	8b 75 10	 mov	 esi, DWORD PTR ___n$[ebp]
  00007	85 f6		 test	 esi, esi
  00009	74 16		 je	 SHORT $LN6@vector
  0000b	53		 push	 ebx
  0000c	8b 5d 14	 mov	 ebx, DWORD PTR ___f$[ebp]
  0000f	57		 push	 edi
  00010	8b 7d 08	 mov	 edi, DWORD PTR ___t$[ebp]
$LL2@vector:
  00013	8b cf		 mov	 ecx, edi
  00015	ff d3		 call	 ebx
  00017	03 7d 0c	 add	 edi, DWORD PTR ___s$[ebp]
  0001a	83 ee 01	 sub	 esi, 1
  0001d	75 f4		 jne	 SHORT $LL2@vector
  0001f	5f		 pop	 edi
  00020	5b		 pop	 ebx
$LN6@vector:
  00021	5e		 pop	 esi
  00022	5d		 pop	 ebp
  00023	c2 10 00	 ret	 16			; 00000010H
??_H@YGXPAXIIP6EPAX0@Z@Z ENDP				; `vector constructor iterator'
_TEXT	ENDS
END
