; Listing generated by Microsoft (R) Optimizing Compiler Version 19.29.30137.0 

	TITLE	C:\Users\murat\Desktop\Siveps2-1-99-Project\source\client\Client\GameLib\Distribute\MapOutdoorLoad.obj
	.686P
	.XMM
	include listing.inc
	.model	flat

INCLUDELIB LIBCMT
INCLUDELIB OLDNAMES

CONST	SEGMENT
?piecewise_construct@std@@3Upiecewise_construct_t@1@B	ORG $+1 ; std::piecewise_construct
?_Fake_alloc@std@@3U_Fake_allocator@1@B	ORG $+1		; std::_Fake_alloc
CONST	ENDS
PUBLIC	___local_stdio_printf_options
PUBLIC	_sprintf
PUBLIC	__snprintf
PUBLIC	??0exception@std@@QAE@ABV01@@Z			; std::exception::exception
PUBLIC	??1exception@std@@UAE@XZ			; std::exception::~exception
PUBLIC	?what@exception@std@@UBEPBDXZ			; std::exception::what
PUBLIC	??_Gexception@std@@UAEPAXI@Z			; std::exception::`scalar deleting destructor'
PUBLIC	??0bad_alloc@std@@QAE@ABV01@@Z			; std::bad_alloc::bad_alloc
PUBLIC	??_Gbad_alloc@std@@UAEPAXI@Z			; std::bad_alloc::`scalar deleting destructor'
PUBLIC	??0bad_array_new_length@std@@QAE@XZ		; std::bad_array_new_length::bad_array_new_length
PUBLIC	??1bad_array_new_length@std@@UAE@XZ		; std::bad_array_new_length::~bad_array_new_length
PUBLIC	??0bad_array_new_length@std@@QAE@ABV01@@Z	; std::bad_array_new_length::bad_array_new_length
PUBLIC	??_Gbad_array_new_length@std@@UAEPAXI@Z		; std::bad_array_new_length::`scalar deleting destructor'
PUBLIC	?_Throw_bad_array_new_length@std@@YAXXZ		; std::_Throw_bad_array_new_length
PUBLIC	?_Xlen_string@std@@YAXXZ			; std::_Xlen_string
PUBLIC	?_Xran@?$_String_val@U?$_Simple_types@D@std@@@std@@SAXXZ ; std::_String_val<std::_Simple_types<char> >::_Xran
PUBLIC	??0?$basic_string@DU?$char_traits@D@std@@V?$allocator@D@2@@std@@QAE@QBD@Z ; std::basic_string<char,std::char_traits<char>,std::allocator<char> >::basic_string<char,std::char_traits<char>,std::allocator<char> >
PUBLIC	??0?$basic_string@DU?$char_traits@D@std@@V?$allocator@D@2@@std@@QAE@U_String_constructor_concat_tag@1@ABV01@QBDI2I@Z ; std::basic_string<char,std::char_traits<char>,std::allocator<char> >::basic_string<char,std::char_traits<char>,std::allocator<char> >
PUBLIC	??4?$basic_string@DU?$char_traits@D@std@@V?$allocator@D@2@@std@@QAEAAV01@$$QAV01@@Z ; std::basic_string<char,std::char_traits<char>,std::allocator<char> >::operator=
PUBLIC	??1?$basic_string@DU?$char_traits@D@std@@V?$allocator@D@2@@std@@QAE@XZ ; std::basic_string<char,std::char_traits<char>,std::allocator<char> >::~basic_string<char,std::char_traits<char>,std::allocator<char> >
PUBLIC	??4?$basic_string@DU?$char_traits@D@std@@V?$allocator@D@2@@std@@QAEAAV01@ABV01@@Z ; std::basic_string<char,std::char_traits<char>,std::allocator<char> >::operator=
PUBLIC	?append@?$basic_string@DU?$char_traits@D@std@@V?$allocator@D@2@@std@@QAEAAV12@QBDI@Z ; std::basic_string<char,std::char_traits<char>,std::allocator<char> >::append
PUBLIC	?assign@?$basic_string@DU?$char_traits@D@std@@V?$allocator@D@2@@std@@QAEAAV12@QBDI@Z ; std::basic_string<char,std::char_traits<char>,std::allocator<char> >::assign
PUBLIC	?_Throw_tree_length_error@std@@YAXXZ		; std::_Throw_tree_length_error
PUBLIC	??1?$vector@V?$basic_string@DU?$char_traits@D@std@@V?$allocator@D@2@@std@@V?$allocator@V?$basic_string@DU?$char_traits@D@std@@V?$allocator@D@2@@std@@@2@@std@@QAE@XZ ; std::vector<std::basic_string<char,std::char_traits<char>,std::allocator<char> >,std::allocator<std::basic_string<char,std::char_traits<char>,std::allocator<char> > > >::~vector<std::basic_string<char,std::char_traits<char>,std::allocator<char> >,std::allocator<std::basic_string<char,std::char_traits<char>,std::allocator<char> > > >
PUBLIC	??$_Traits_compare@U?$char_traits@D@std@@@std@@YAHQBDI0I@Z ; std::_Traits_compare<std::char_traits<char> >
PUBLIC	??$_Allocate_manually_vector_aligned@U_Default_allocate_traits@std@@@std@@YAPAXI@Z ; std::_Allocate_manually_vector_aligned<std::_Default_allocate_traits>
PUBLIC	?Load@CMapOutdoor@@UAE_NMMM@Z			; CMapOutdoor::Load
PUBLIC	?LoadSetting@CMapOutdoor@@QAE_NPBD@Z		; CMapOutdoor::LoadSetting
PUBLIC	?LoadTerrain@CMapOutdoor@@MAE_NGGGG@Z		; CMapOutdoor::LoadTerrain
PUBLIC	?LoadArea@CMapOutdoor@@MAE_NGGGG@Z		; CMapOutdoor::LoadArea
PUBLIC	?isTerrainLoaded@CMapOutdoor@@IAE_NGG@Z		; CMapOutdoor::isTerrainLoaded
PUBLIC	?isAreaLoaded@CMapOutdoor@@IAE_NGG@Z		; CMapOutdoor::isAreaLoaded
PUBLIC	?AssignTerrainPtr@CMapOutdoor@@IAEXXZ		; CMapOutdoor::AssignTerrainPtr
PUBLIC	?_Xlength@?$vector@PAVCTerrain@@V?$allocator@PAVCTerrain@@@std@@@std@@CAXXZ ; std::vector<CTerrain *,std::allocator<CTerrain *> >::_Xlength
PUBLIC	?_Xlength@?$vector@PAVCArea@@V?$allocator@PAVCArea@@@std@@@std@@CAXXZ ; std::vector<CArea *,std::allocator<CArea *> >::_Xlength
PUBLIC	?LoadMonsterAreaInfo@CMapOutdoor@@QAE_NXZ	; CMapOutdoor::LoadMonsterAreaInfo
PUBLIC	?GetEnvironmentDataName@CMapOutdoor@@QAEAAV?$basic_string@DU?$char_traits@D@std@@V?$allocator@D@2@@std@@XZ ; CMapOutdoor::GetEnvironmentDataName
PUBLIC	?find@?$_Tree@V?$_Tmap_traits@V?$basic_string@DU?$char_traits@D@std@@V?$allocator@D@2@@std@@V?$vector@V?$basic_string@DU?$char_traits@D@std@@V?$allocator@D@2@@std@@V?$allocator@V?$basic_string@DU?$char_traits@D@std@@V?$allocator@D@2@@std@@@2@@2@U?$less@V?$basic_string@DU?$char_traits@D@std@@V?$allocator@D@2@@std@@@2@V?$allocator@U?$pair@$$CBV?$basic_string@DU?$char_traits@D@std@@V?$allocator@D@2@@std@@V?$vector@V?$basic_string@DU?$char_traits@D@std@@V?$allocator@D@2@@std@@V?$allocator@V?$basic_string@DU?$char_traits@D@std@@V?$allocator@D@2@@std@@@2@@2@@std@@@2@$0A@@std@@@std@@QAE?AV?$_Tree_iterator@V?$_Tree_val@U?$_Tree_simple_types@U?$pair@$$CBV?$basic_string@DU?$char_traits@D@std@@V?$allocator@D@2@@std@@V?$vector@V?$basic_string@DU?$char_traits@D@std@@V?$allocator@D@2@@std@@V?$allocator@V?$basic_string@DU?$char_traits@D@std@@V?$allocator@D@2@@std@@@2@@2@@std@@@std@@@std@@@2@ABV?$basic_string@DU?$char_traits@D@std@@V?$allocator@D@2@@2@@Z ; std::_Tree<std::_Tmap_traits<std::basic_string<char,std::char_traits<char>,std::allocator<char> >,std::vector<std::basic_string<char,std::char_traits<char>,std::allocator<char> >,std::allocator<std::basic_string<char,std::char_traits<char>,std::allocator<char> > > >,std::less<std::basic_string<char,std::char_traits<char>,std::allocator<char> > >,std::allocator<std::pair<std::basic_string<char,std::char_traits<char>,std::allocator<char> > const ,std::vector<std::basic_string<char,std::char_traits<char>,std::allocator<char> >,std::allocator<std::basic_string<char,std::char_traits<char>,std::allocator<char> > > > > >,0> >::find
PUBLIC	?_Insert_node@?$_Tree_val@U?$_Tree_simple_types@U?$pair@$$CBV?$basic_string@DU?$char_traits@D@std@@V?$allocator@D@2@@std@@V?$vector@V?$basic_string@DU?$char_traits@D@std@@V?$allocator@D@2@@std@@V?$allocator@V?$basic_string@DU?$char_traits@D@std@@V?$allocator@D@2@@std@@@2@@2@@std@@@std@@@std@@QAEPAU?$_Tree_node@U?$pair@$$CBV?$basic_string@DU?$char_traits@D@std@@V?$allocator@D@2@@std@@V?$vector@V?$basic_string@DU?$char_traits@D@std@@V?$allocator@D@2@@std@@V?$allocator@V?$basic_string@DU?$char_traits@D@std@@V?$allocator@D@2@@std@@@2@@2@@std@@PAX@2@U?$_Tree_id@PAU?$_Tree_node@U?$pair@$$CBV?$basic_string@DU?$char_traits@D@std@@V?$allocator@D@2@@std@@V?$vector@V?$basic_string@DU?$char_traits@D@std@@V?$allocator@D@2@@std@@V?$allocator@V?$basic_string@DU?$char_traits@D@std@@V?$allocator@D@2@@std@@@2@@2@@std@@PAX@std@@@2@QAU32@@Z ; std::_Tree_val<std::_Tree_simple_types<std::pair<std::basic_string<char,std::char_traits<char>,std::allocator<char> > const ,std::vector<std::basic_string<char,std::char_traits<char>,std::allocator<char> >,std::allocator<std::basic_string<char,std::char_traits<char>,std::allocator<char> > > > > > >::_Insert_node
PUBLIC	??A?$map@V?$basic_string@DU?$char_traits@D@std@@V?$allocator@D@2@@std@@V?$vector@V?$basic_string@DU?$char_traits@D@std@@V?$allocator@D@2@@std@@V?$allocator@V?$basic_string@DU?$char_traits@D@std@@V?$allocator@D@2@@std@@@2@@2@U?$less@V?$basic_string@DU?$char_traits@D@std@@V?$allocator@D@2@@std@@@2@V?$allocator@U?$pair@$$CBV?$basic_string@DU?$char_traits@D@std@@V?$allocator@D@2@@std@@V?$vector@V?$basic_string@DU?$char_traits@D@std@@V?$allocator@D@2@@std@@V?$allocator@V?$basic_string@DU?$char_traits@D@std@@V?$allocator@D@2@@std@@@2@@2@@std@@@2@@std@@QAEAAV?$vector@V?$basic_string@DU?$char_traits@D@std@@V?$allocator@D@2@@std@@V?$allocator@V?$basic_string@DU?$char_traits@D@std@@V?$allocator@D@2@@std@@@2@@1@$$QAV?$basic_string@DU?$char_traits@D@std@@V?$allocator@D@2@@1@@Z ; std::map<std::basic_string<char,std::char_traits<char>,std::allocator<char> >,std::vector<std::basic_string<char,std::char_traits<char>,std::allocator<char> >,std::allocator<std::basic_string<char,std::char_traits<char>,std::allocator<char> > > >,std::less<std::basic_string<char,std::char_traits<char>,std::allocator<char> > >,std::allocator<std::pair<std::basic_string<char,std::char_traits<char>,std::allocator<char> > const ,std::vector<std::basic_string<char,std::char_traits<char>,std::allocator<char> >,std::allocator<std::basic_string<char,std::char_traits<char>,std::allocator<char> > > > > > >::operator[]
PUBLIC	??1?$map@V?$basic_string@DU?$char_traits@D@std@@V?$allocator@D@2@@std@@V?$vector@V?$basic_string@DU?$char_traits@D@std@@V?$allocator@D@2@@std@@V?$allocator@V?$basic_string@DU?$char_traits@D@std@@V?$allocator@D@2@@std@@@2@@2@U?$less@V?$basic_string@DU?$char_traits@D@std@@V?$allocator@D@2@@std@@@2@V?$allocator@U?$pair@$$CBV?$basic_string@DU?$char_traits@D@std@@V?$allocator@D@2@@std@@V?$vector@V?$basic_string@DU?$char_traits@D@std@@V?$allocator@D@2@@std@@V?$allocator@V?$basic_string@DU?$char_traits@D@std@@V?$allocator@D@2@@std@@@2@@2@@std@@@2@@std@@QAE@XZ ; std::map<std::basic_string<char,std::char_traits<char>,std::allocator<char> >,std::vector<std::basic_string<char,std::char_traits<char>,std::allocator<char> >,std::allocator<std::basic_string<char,std::char_traits<char>,std::allocator<char> > > >,std::less<std::basic_string<char,std::char_traits<char>,std::allocator<char> > >,std::allocator<std::pair<std::basic_string<char,std::char_traits<char>,std::allocator<char> > const ,std::vector<std::basic_string<char,std::char_traits<char>,std::allocator<char> >,std::allocator<std::basic_string<char,std::char_traits<char>,std::allocator<char> > > > > > >::~map<std::basic_string<char,std::char_traits<char>,std::allocator<char> >,std::vector<std::basic_string<char,std::char_traits<char>,std::allocator<char> >,std::allocator<std::basic_string<char,std::char_traits<char>,std::allocator<char> > > >,std::less<std::basic_string<char,std::char_traits<char>,std::allocator<char> > >,std::allocator<std::pair<std::basic_string<char,std::char_traits<char>,std::allocator<char> > const ,std::vector<std::basic_string<char,std::char_traits<char>,std::allocator<char> >,std::allocator<std::basic_string<char,std::char_traits<char>,std::allocator<char> > > > > > >
PUBLIC	??$?9DU?$char_traits@D@std@@V?$allocator@D@1@@std@@YA_NABV?$basic_string@DU?$char_traits@D@std@@V?$allocator@D@2@@0@QBD@Z ; std::operator!=<char,std::char_traits<char>,std::allocator<char> >
PUBLIC	??$_Emplace_reallocate@ABQAVCArea@@@?$vector@PAVCArea@@V?$allocator@PAVCArea@@@std@@@std@@QAEPAPAVCArea@@QAPAV2@ABQAV2@@Z ; std::vector<CArea *,std::allocator<CArea *> >::_Emplace_reallocate<CArea * const &>
PUBLIC	??$_Emplace_reallocate@ABQAVCTerrain@@@?$vector@PAVCTerrain@@V?$allocator@PAVCTerrain@@@std@@@std@@QAEPAPAVCTerrain@@QAPAV2@ABQAV2@@Z ; std::vector<CTerrain *,std::allocator<CTerrain *> >::_Emplace_reallocate<CTerrain * const &>
PUBLIC	??$_Find_lower_bound@V?$basic_string@DU?$char_traits@D@std@@V?$allocator@D@2@@std@@@?$_Tree@V?$_Tmap_traits@V?$basic_string@DU?$char_traits@D@std@@V?$allocator@D@2@@std@@V?$vector@V?$basic_string@DU?$char_traits@D@std@@V?$allocator@D@2@@std@@V?$allocator@V?$basic_string@DU?$char_traits@D@std@@V?$allocator@D@2@@std@@@2@@2@U?$less@V?$basic_string@DU?$char_traits@D@std@@V?$allocator@D@2@@std@@@2@V?$allocator@U?$pair@$$CBV?$basic_string@DU?$char_traits@D@std@@V?$allocator@D@2@@std@@V?$vector@V?$basic_string@DU?$char_traits@D@std@@V?$allocator@D@2@@std@@V?$allocator@V?$basic_string@DU?$char_traits@D@std@@V?$allocator@D@2@@std@@@2@@2@@std@@@2@$0A@@std@@@std@@IBE?AU?$_Tree_find_result@PAU?$_Tree_node@U?$pair@$$CBV?$basic_string@DU?$char_traits@D@std@@V?$allocator@D@2@@std@@V?$vector@V?$basic_string@DU?$char_traits@D@std@@V?$allocator@D@2@@std@@V?$allocator@V?$basic_string@DU?$char_traits@D@std@@V?$allocator@D@2@@std@@@2@@2@@std@@PAX@std@@@1@ABV?$basic_string@DU?$char_traits@D@std@@V?$allocator@D@2@@1@@Z ; std::_Tree<std::_Tmap_traits<std::basic_string<char,std::char_traits<char>,std::allocator<char> >,std::vector<std::basic_string<char,std::char_traits<char>,std::allocator<char> >,std::allocator<std::basic_string<char,std::char_traits<char>,std::allocator<char> > > >,std::less<std::basic_string<char,std::char_traits<char>,std::allocator<char> > >,std::allocator<std::pair<std::basic_string<char,std::char_traits<char>,std::allocator<char> > const ,std::vector<std::basic_string<char,std::char_traits<char>,std::allocator<char> >,std::allocator<std::basic_string<char,std::char_traits<char>,std::allocator<char> > > > > >,0> >::_Find_lower_bound<std::basic_string<char,std::char_traits<char>,std::allocator<char> > >
PUBLIC	??1?$_Alloc_construct_ptr@V?$allocator@U?$_Tree_node@U?$pair@$$CBV?$basic_string@DU?$char_traits@D@std@@V?$allocator@D@2@@std@@V?$vector@V?$basic_string@DU?$char_traits@D@std@@V?$allocator@D@2@@std@@V?$allocator@V?$basic_string@DU?$char_traits@D@std@@V?$allocator@D@2@@std@@@2@@2@@std@@PAX@std@@@std@@@std@@QAE@XZ ; std::_Alloc_construct_ptr<std::allocator<std::_Tree_node<std::pair<std::basic_string<char,std::char_traits<char>,std::allocator<char> > const ,std::vector<std::basic_string<char,std::char_traits<char>,std::allocator<char> >,std::allocator<std::basic_string<char,std::char_traits<char>,std::allocator<char> > > > >,void *> > >::~_Alloc_construct_ptr<std::allocator<std::_Tree_node<std::pair<std::basic_string<char,std::char_traits<char>,std::allocator<char> > const ,std::vector<std::basic_string<char,std::char_traits<char>,std::allocator<char> >,std::allocator<std::basic_string<char,std::char_traits<char>,std::allocator<char> > > > >,void *> > >
PUBLIC	??$_Erase_tree@V?$allocator@U?$_Tree_node@U?$pair@$$CBV?$basic_string@DU?$char_traits@D@std@@V?$allocator@D@2@@std@@V?$vector@V?$basic_string@DU?$char_traits@D@std@@V?$allocator@D@2@@std@@V?$allocator@V?$basic_string@DU?$char_traits@D@std@@V?$allocator@D@2@@std@@@2@@2@@std@@PAX@std@@@std@@@?$_Tree_val@U?$_Tree_simple_types@U?$pair@$$CBV?$basic_string@DU?$char_traits@D@std@@V?$allocator@D@2@@std@@V?$vector@V?$basic_string@DU?$char_traits@D@std@@V?$allocator@D@2@@std@@V?$allocator@V?$basic_string@DU?$char_traits@D@std@@V?$allocator@D@2@@std@@@2@@2@@std@@@std@@@std@@QAEXAAV?$allocator@U?$_Tree_node@U?$pair@$$CBV?$basic_string@DU?$char_traits@D@std@@V?$allocator@D@2@@std@@V?$vector@V?$basic_string@DU?$char_traits@D@std@@V?$allocator@D@2@@std@@V?$allocator@V?$basic_string@DU?$char_traits@D@std@@V?$allocator@D@2@@std@@@2@@2@@std@@PAX@std@@@1@PAU?$_Tree_node@U?$pair@$$CBV?$basic_string@DU?$char_traits@D@std@@V?$allocator@D@2@@std@@V?$vector@V?$basic_string@DU?$char_traits@D@std@@V?$allocator@D@2@@std@@V?$allocator@V?$basic_string@DU?$char_traits@D@std@@V?$allocator@D@2@@std@@@2@@2@@std@@PAX@1@@Z ; std::_Tree_val<std::_Tree_simple_types<std::pair<std::basic_string<char,std::char_traits<char>,std::allocator<char> > const ,std::vector<std::basic_string<char,std::char_traits<char>,std::allocator<char> >,std::allocator<std::basic_string<char,std::char_traits<char>,std::allocator<char> > > > > > >::_Erase_tree<std::allocator<std::_Tree_node<std::pair<std::basic_string<char,std::char_traits<char>,std::allocator<char> > const ,std::vector<std::basic_string<char,std::char_traits<char>,std::allocator<char> >,std::allocator<std::basic_string<char,std::char_traits<char>,std::allocator<char> > > > >,void *> > >
PUBLIC	??$destroy@U?$pair@$$CBV?$basic_string@DU?$char_traits@D@std@@V?$allocator@D@2@@std@@V?$vector@V?$basic_string@DU?$char_traits@D@std@@V?$allocator@D@2@@std@@V?$allocator@V?$basic_string@DU?$char_traits@D@std@@V?$allocator@D@2@@std@@@2@@2@@std@@@?$_Default_allocator_traits@V?$allocator@U?$_Tree_node@U?$pair@$$CBV?$basic_string@DU?$char_traits@D@std@@V?$allocator@D@2@@std@@V?$vector@V?$basic_string@DU?$char_traits@D@std@@V?$allocator@D@2@@std@@V?$allocator@V?$basic_string@DU?$char_traits@D@std@@V?$allocator@D@2@@std@@@2@@2@@std@@PAX@std@@@std@@@std@@SAXAAV?$allocator@U?$_Tree_node@U?$pair@$$CBV?$basic_string@DU?$char_traits@D@std@@V?$allocator@D@2@@std@@V?$vector@V?$basic_string@DU?$char_traits@D@std@@V?$allocator@D@2@@std@@V?$allocator@V?$basic_string@DU?$char_traits@D@std@@V?$allocator@D@2@@std@@@2@@2@@std@@PAX@std@@@1@QAU?$pair@$$CBV?$basic_string@DU?$char_traits@D@std@@V?$allocator@D@2@@std@@V?$vector@V?$basic_string@DU?$char_traits@D@std@@V?$allocator@D@2@@std@@V?$allocator@V?$basic_string@DU?$char_traits@D@std@@V?$allocator@D@2@@std@@@2@@2@@1@@Z ; std::_Default_allocator_traits<std::allocator<std::_Tree_node<std::pair<std::basic_string<char,std::char_traits<char>,std::allocator<char> > const ,std::vector<std::basic_string<char,std::char_traits<char>,std::allocator<char> >,std::allocator<std::basic_string<char,std::char_traits<char>,std::allocator<char> > > > >,void *> > >::destroy<std::pair<std::basic_string<char,std::char_traits<char>,std::allocator<char> > const ,std::vector<std::basic_string<char,std::char_traits<char>,std::allocator<char> >,std::allocator<std::basic_string<char,std::char_traits<char>,std::allocator<char> > > > > >
PUBLIC	??$_Copy_memmove@PAPAVCArea@@PAPAV1@@std@@YAPAPAVCArea@@PAPAV1@00@Z ; std::_Copy_memmove<CArea * *,CArea * *>
PUBLIC	??$_Copy_memmove@PAPAVCTerrain@@PAPAV1@@std@@YAPAPAVCTerrain@@PAPAV1@00@Z ; std::_Copy_memmove<CTerrain * *,CTerrain * *>
PUBLIC	??$?MDU?$char_traits@D@std@@V?$allocator@D@1@@std@@YA_NABV?$basic_string@DU?$char_traits@D@std@@V?$allocator@D@2@@0@0@Z ; std::operator<<char,std::char_traits<char>,std::allocator<char> >
PUBLIC	?_OptionsStorage@?1??__local_stdio_printf_options@@9@4_KA ; `__local_stdio_printf_options'::`2'::_OptionsStorage
PUBLIC	??_7exception@std@@6B@				; std::exception::`vftable'
PUBLIC	??_C@_0BC@EOODALEL@Unknown?5exception@		; `string'
PUBLIC	??_7bad_alloc@std@@6B@				; std::bad_alloc::`vftable'
PUBLIC	??_7bad_array_new_length@std@@6B@		; std::bad_array_new_length::`vftable'
PUBLIC	??_C@_0BF@KINCDENJ@bad?5array?5new?5length@	; `string'
PUBLIC	__TI3?AVbad_array_new_length@std@@
PUBLIC	__CTA3?AVbad_array_new_length@std@@
PUBLIC	??_R0?AVbad_array_new_length@std@@@8		; std::bad_array_new_length `RTTI Type Descriptor'
PUBLIC	__CT??_R0?AVbad_array_new_length@std@@@8??0bad_array_new_length@std@@QAE@ABV01@@Z12
PUBLIC	??_R0?AVbad_alloc@std@@@8			; std::bad_alloc `RTTI Type Descriptor'
PUBLIC	__CT??_R0?AVbad_alloc@std@@@8??0bad_alloc@std@@QAE@ABV01@@Z12
PUBLIC	??_R0?AVexception@std@@@8			; std::exception `RTTI Type Descriptor'
PUBLIC	__CT??_R0?AVexception@std@@@8??0exception@std@@QAE@ABV01@@Z12
PUBLIC	??_C@_0BA@JFNIOLAK@string?5too?5long@		; `string'
PUBLIC	??_C@_0BB@GCADKGJO@map?1set?5too?5long@		; `string'
PUBLIC	??_C@_0BI@CFPLBAOH@invalid?5string?5position@	; `string'
PUBLIC	??_R4exception@std@@6B@				; std::exception::`RTTI Complete Object Locator'
PUBLIC	??_R3exception@std@@8				; std::exception::`RTTI Class Hierarchy Descriptor'
PUBLIC	??_R2exception@std@@8				; std::exception::`RTTI Base Class Array'
PUBLIC	??_R1A@?0A@EA@exception@std@@8			; std::exception::`RTTI Base Class Descriptor at (0,-1,0,64)'
PUBLIC	??_R4bad_alloc@std@@6B@				; std::bad_alloc::`RTTI Complete Object Locator'
PUBLIC	??_R3bad_alloc@std@@8				; std::bad_alloc::`RTTI Class Hierarchy Descriptor'
PUBLIC	??_R2bad_alloc@std@@8				; std::bad_alloc::`RTTI Base Class Array'
PUBLIC	??_R1A@?0A@EA@bad_alloc@std@@8			; std::bad_alloc::`RTTI Base Class Descriptor at (0,-1,0,64)'
PUBLIC	??_R4bad_array_new_length@std@@6B@		; std::bad_array_new_length::`RTTI Complete Object Locator'
PUBLIC	??_R3bad_array_new_length@std@@8		; std::bad_array_new_length::`RTTI Class Hierarchy Descriptor'
PUBLIC	??_R2bad_array_new_length@std@@8		; std::bad_array_new_length::`RTTI Base Class Array'
PUBLIC	??_R1A@?0A@EA@bad_array_new_length@std@@8	; std::bad_array_new_length::`RTTI Base Class Descriptor at (0,-1,0,64)'
PUBLIC	?ms_singleton@?$CSingleton@VCSpeedTreeForestDirectX8@@@@0PAVCSpeedTreeForestDirectX8@@A ; CSingleton<CSpeedTreeForestDirectX8>::ms_singleton
PUBLIC	?ms_singleton@?$CSingleton@VCEterPackManager@@@@0PAVCEterPackManager@@A ; CSingleton<CEterPackManager>::ms_singleton
PUBLIC	??_C@_06NLAJNNNM@?2cache@			; `string'
PUBLIC	??_C@_0N@NBPBKCDE@?2Setting?4txt@		; `string'
PUBLIC	??_C@_0CL@PFEFOJBM@CMapOutdoor?3?3Load?5?3?5LoadSetting@ ; `string'
PUBLIC	??_C@_01KICIPPFI@?2@				; `string'
PUBLIC	??_C@_0BK@PHKPBKKC@d?3?1ymir?5work?1environment?1@ ; `string'
PUBLIC	??_C@_06MANNNLLA@?4msenv@			; `string'
PUBLIC	??_C@_08HAAOAKJA@?$CFs?2?$CF06u?2@		; `string'
PUBLIC	??_C@_0DD@GDFLJGIN@?5CMapOutdoor?3?3LoadArea?$CI?$CFd?0?5?$CFd?$CJ?5@ ; `string'
PUBLIC	??_C@_0BJ@PNPPDMHN@?$CFs?2?$CF06u?2AreaProperty?4txt@ ; `string'
PUBLIC	??_C@_0DC@PJKFCPIK@CMapOutdoor?3?3LoadTerrain?5AreaPr@ ; `string'
PUBLIC	??_C@_0L@PCFMFEAG@scripttype@			; `string'
PUBLIC	??_C@_0DK@IGMBLPHB@CMapOutdoor?3?3LoadTerrain?5AreaPr@ ; `string'
PUBLIC	??_C@_08FLKAMJDN@areaname@			; `string'
PUBLIC	??_C@_0DK@IEIHABCI@CMapOutdoor?3?3LoadTerrain?5AreaPr@ ; `string'
PUBLIC	??_C@_0N@JAFNMPED@AreaProperty@			; `string'
PUBLIC	??_C@_0DK@IFEFGLBP@CMapOutdoor?3?3LoadTerrain?5AreaPr@ ; `string'
PUBLIC	??_C@_0BD@OEBGBMHL@?$CFs?2?$CF06u?2height?4raw@	; `string'
PUBLIC	??_C@_0BB@KIEAEMGF@?$CFs?2?$CF06u?2tile?4raw@	; `string'
PUBLIC	??_C@_0BB@MGHNOCIE@?$CFs?2?$CF06u?2attr?4atr@	; `string'
PUBLIC	??_C@_0BC@COFDKBDG@?$CFs?2?$CF06u?2water?4wtr@	; `string'
PUBLIC	??_C@_0BG@JDDLCJKB@?$CFs?2?$CF06u?2shadowmap?4dds@ ; `string'
PUBLIC	??_C@_0BG@IEOOCGAN@?$CFs?2?$CF06u?2shadowmap?4raw@ ; `string'
PUBLIC	??_C@_0BE@OEFJKKPK@?$CFs?2?$CF06u?2minimap?4dds@ ; `string'
PUBLIC	??_C@_0DF@FPDAHDEG@?5CMapOutdoor?3?3LoadTerrain?$CI?$CFd?0?5?$CF@ ; `string'
PUBLIC	??_C@_0DG@DLOMPGBF@?5CMapOutdoor?3?3LoadTerrain?$CI?$CFd?0?5?$CF@ ; `string'
PUBLIC	??_C@_0DE@PJJDEPO@?5CMapOutdoor?3?3LoadTerrain?$CI?$CFd?0?5?$CF@ ; `string'
PUBLIC	??_C@_0DI@CJHIDJBM@?5CMapOutdoor?3?3LoadTerrain?$CI?$CFd?0?5?$CF@ ; `string'
PUBLIC	??_C@_0DG@BIPHGMEM@?5CMapOutdoor?3?3LoadTerrain?$CI?$CFd?0?5?$CF@ ; `string'
PUBLIC	??_C@_0BN@GEPFPGEO@CMapOutdoor?3?3LoadTerrain?5?$CFd?6@ ; `string'
PUBLIC	??_C@_0EA@IGDFIJCO@MapOutdoor?3?3LoadSetting?$CIc_szFil@ ; `string'
PUBLIC	??_C@_0EG@NNBBNFDL@MapOutdoor?3?3LoadSetting?$CIc_szFil@ ; `string'
PUBLIC	??_C@_0L@NLJHFBAM@viewradius@			; `string'
PUBLIC	??_C@_0EG@PNENCHJD@MapOutdoor?3?3LoadSetting?$CIc_szFil@ ; `string'
PUBLIC	??_C@_09HCPKDAEG@cellscale@			; `string'
PUBLIC	??_C@_0EF@BILODNMF@MapOutdoor?3?3LoadSetting?$CIc_szFil@ ; `string'
PUBLIC	??_C@_0M@MNHNKMP@heightscale@			; `string'
PUBLIC	??_C@_0EH@FNDNEACP@MapOutdoor?3?3LoadSetting?$CIc_szFil@ ; `string'
PUBLIC	??_C@_07EOGAIPJO@mapsize@			; `string'
PUBLIC	??_C@_0ED@JGKHJMHO@MapOutdoor?3?3LoadSetting?$CIc_szFil@ ; `string'
PUBLIC	??_C@_0L@FLIBEPMB@textureset@			; `string'
PUBLIC	??_C@_0EG@CGMMOJDP@MapOutdoor?3?3LoadSetting?$CIc_szFil@ ; `string'
PUBLIC	??_C@_0P@DDEPCBBP@terrainvisible@		; `string'
PUBLIC	??_C@_0L@PHDPILBM@MapSetting@			; `string'
PUBLIC	??_C@_0DP@BHJEEKBL@MapOutdoor?3?3LoadSetting?$CIc_szFil@ ; `string'
PUBLIC	??_C@_0EM@PIICKGLP@MapOutdoor?3?3LoadSetting?$CIc_szFil@ ; `string'
PUBLIC	??_C@_0N@IEEHNMJN@baseposition@			; `string'
PUBLIC	??_C@_0M@PKDGGBDB@textureset?2@			; `string'
PUBLIC	??_C@_0EG@MFMOCBKJ@MapOutdoor?3?3LoadSetting?$CIc_szFil@ ; `string'
PUBLIC	??_C@_0M@PINLHHEI@environment@			; `string'
PUBLIC	??_C@_0EN@PIOHNJHJ@CMapOutdoor?3?3LoadSetting?$CIc_szFi@ ; `string'
PUBLIC	??_C@_0N@CBKBELEM@?$CFs?2regen?4txt@		; `string'
PUBLIC	??_C@_02OJDBNLEE@?5?7@				; `string'
PUBLIC	??_C@_01GOHFPIOK@m@				; `string'
PUBLIC	??_C@_01JEJKBAGA@g@				; `string'
PUBLIC	??_C@_0FJ@GIKGLIIH@CMapOutdoorAccessor?3?3LoadMonste@ ; `string'
PUBLIC	??_C@_0FC@JEHNDEBI@CMapOutdoorAccessor?3?3LoadMonste@ ; `string'
PUBLIC	??_C@_0BA@FOIKENOD@vector?5too?5long@		; `string'
PUBLIC	__real@3b800000
PUBLIC	__real@3e000000
PUBLIC	__real@3f800000
PUBLIC	__real@40933333
PUBLIC	__real@41800000
PUBLIC	__real@bf800000
PUBLIC	__xmm@80000000800000008000000080000000
EXTRN	??2@YAPAXI@Z:PROC				; operator new
EXTRN	??3@YAXPAXI@Z:PROC				; operator delete
EXTRN	_atexit:PROC
EXTRN	__Init_thread_header:PROC
EXTRN	__Init_thread_abort:PROC
EXTRN	__Init_thread_footer:PROC
EXTRN	__invalid_parameter_noinfo_noreturn:PROC
EXTRN	_atof:PROC
EXTRN	_atol:PROC
EXTRN	__atoi64:PROC
EXTRN	___stdio_common_vsprintf:PROC
EXTRN	___std_exception_copy:PROC
EXTRN	___std_exception_destroy:PROC
EXTRN	??_Eexception@std@@UAEPAXI@Z:PROC		; std::exception::`vector deleting destructor'
EXTRN	??_Ebad_alloc@std@@UAEPAXI@Z:PROC		; std::bad_alloc::`vector deleting destructor'
EXTRN	??_Ebad_array_new_length@std@@UAEPAXI@Z:PROC	; std::bad_array_new_length::`vector deleting destructor'
EXTRN	?_Xlength_error@std@@YAXPBD@Z:PROC		; std::_Xlength_error
EXTRN	?_Xout_of_range@std@@YAXPBD@Z:PROC		; std::_Xout_of_range
EXTRN	?stl_lowers@@YAXAAV?$basic_string@DU?$char_traits@D@std@@V?$allocator@D@2@@std@@@Z:PROC ; stl_lowers
EXTRN	_D3DXMatrixScaling@16:PROC
EXTRN	?Tracef@@YAXPBDZZ:PROC				; Tracef
EXTRN	?TraceError@@YAXPBDZZ:PROC			; TraceError
EXTRN	?ELTimer_GetMSec@@YAKXZ:PROC			; ELTimer_GetMSec
EXTRN	??0CMemoryTextFileLoader@@QAE@XZ:PROC		; CMemoryTextFileLoader::CMemoryTextFileLoader
EXTRN	??1CMemoryTextFileLoader@@UAE@XZ:PROC		; CMemoryTextFileLoader::~CMemoryTextFileLoader
EXTRN	?Bind@CMemoryTextFileLoader@@QAEXHPBX@Z:PROC	; CMemoryTextFileLoader::Bind
EXTRN	?GetLineCount@CMemoryTextFileLoader@@QAEKXZ:PROC ; CMemoryTextFileLoader::GetLineCount
EXTRN	?SplitLine@CMemoryTextFileLoader@@QAE_NKPAV?$vector@V?$basic_string@DU?$char_traits@D@std@@V?$allocator@D@2@@std@@V?$allocator@V?$basic_string@DU?$char_traits@D@std@@V?$allocator@D@2@@std@@@2@@std@@PBD@Z:PROC ; CMemoryTextFileLoader::SplitLine
EXTRN	??0CMappedFile@@QAE@XZ:PROC			; CMappedFile::CMappedFile
EXTRN	??1CMappedFile@@UAE@XZ:PROC			; CMappedFile::~CMappedFile
EXTRN	?Size@CMappedFile@@QAEKXZ:PROC			; CMappedFile::Size
EXTRN	?LoadMultipleTextData@@YA_NPBDAAV?$map@V?$basic_string@DU?$char_traits@D@std@@V?$allocator@D@2@@std@@V?$vector@V?$basic_string@DU?$char_traits@D@std@@V?$allocator@D@2@@std@@V?$allocator@V?$basic_string@DU?$char_traits@D@std@@V?$allocator@D@2@@std@@@2@@2@U?$less@V?$basic_string@DU?$char_traits@D@std@@V?$allocator@D@2@@std@@@2@V?$allocator@U?$pair@$$CBV?$basic_string@DU?$char_traits@D@std@@V?$allocator@D@2@@std@@V?$vector@V?$basic_string@DU?$char_traits@D@std@@V?$allocator@D@2@@std@@V?$allocator@V?$basic_string@DU?$char_traits@D@std@@V?$allocator@D@2@@std@@@2@@2@@std@@@2@@std@@@Z:PROC ; LoadMultipleTextData
EXTRN	?Load@CTextureSet@@QAE_NPBDM@Z:PROC		; CTextureSet::Load
EXTRN	?SetRenderingDevice@CSpeedTreeForestDirectX8@@QAE_NPAUIDirect3DDevice8@@@Z:PROC ; CSpeedTreeForestDirectX8::SetRenderingDevice
EXTRN	?SetMapOutDoor@CArea@@QAEXPAVCMapOutdoor@@@Z:PROC ; CArea::SetMapOutDoor
EXTRN	?Load@CArea@@QAE_NPBD@Z:PROC			; CArea::Load
EXTRN	?EnablePortal@CArea@@QAEXH@Z:PROC		; CArea::EnablePortal
EXTRN	?SetCoordinate@CArea@@QAEXABG0@Z:PROC		; CArea::SetCoordinate
EXTRN	?GetCoordinate@CArea@@QAEXPAG0@Z:PROC		; CArea::GetCoordinate
EXTRN	?New@CArea@@SAPAV1@XZ:PROC			; CArea::New
EXTRN	?SetTextureSet@CTerrainImpl@@SAXPAVCTextureSet@@@Z:PROC ; CTerrainImpl::SetTextureSet
EXTRN	?LoadWaterMap@CTerrainImpl@@QAE_NPBD@Z:PROC	; CTerrainImpl::LoadWaterMap
EXTRN	?SetMapOutDoor@CTerrain@@QAEXPAVCMapOutdoor@@@Z:PROC ; CTerrain::SetMapOutDoor
EXTRN	?RAW_LoadTileMap@CTerrain@@QAE_NPBD_N@Z:PROC	; CTerrain::RAW_LoadTileMap
EXTRN	?LoadHeightMap@CTerrain@@QAE_NPBD@Z:PROC	; CTerrain::LoadHeightMap
EXTRN	?CalculateTerrainPatch@CTerrain@@QAEXXZ:PROC	; CTerrain::CalculateTerrainPatch
EXTRN	?CopySettingFromGlobalSetting@CTerrain@@QAEXXZ:PROC ; CTerrain::CopySettingFromGlobalSetting
EXTRN	?LoadAttrMap@CTerrain@@QAE_NPBD@Z:PROC		; CTerrain::LoadAttrMap
EXTRN	?LoadShadowTexture@CTerrain@@QAEXPBD@Z:PROC	; CTerrain::LoadShadowTexture
EXTRN	?LoadShadowMap@CTerrain@@QAE_NPBD@Z:PROC	; CTerrain::LoadShadowMap
EXTRN	?LoadMiniMapTexture@CTerrain@@QAEXPBD@Z:PROC	; CTerrain::LoadMiniMapTexture
EXTRN	?SetCoordinate@CTerrain@@QAEXGG@Z:PROC		; CTerrain::SetCoordinate
EXTRN	?New@CTerrain@@SAPAV1@XZ:PROC			; CTerrain::New
EXTRN	?SetMonsterCount@CMonsterAreaInfo@@QAEXK@Z:PROC	; CMonsterAreaInfo::SetMonsterCount
EXTRN	?SetMonsterDirection@CMonsterAreaInfo@@QAEXW4EMonsterDir@1@@Z:PROC ; CMonsterAreaInfo::SetMonsterDirection
EXTRN	?CreateCharacterShadowTexture@CMapOutdoor@@QAEXXZ:PROC ; CMapOutdoor::CreateCharacterShadowTexture
EXTRN	?SetTerrainCount@CMapOutdoor@@QAE_NFF@Z:PROC	; CMapOutdoor::SetTerrainCount
EXTRN	?CreateTerrainPatchProxyList@CMapOutdoor@@IAEXXZ:PROC ; CMapOutdoor::CreateTerrainPatchProxyList
EXTRN	?BuildQuadTree@CMapOutdoor@@IAEXXZ:PROC		; CMapOutdoor::BuildQuadTree
EXTRN	?LoadWaterTexture@CMapOutdoor@@IAEXXZ:PROC	; CMapOutdoor::LoadWaterTexture
EXTRN	?AddMonsterAreaInfo@CMapOutdoor@@QAEPAVCMonsterAreaInfo@@JJJJ@Z:PROC ; CMapOutdoor::AddMonsterAreaInfo
EXTRN	?RemoveAllMonsterAreaInfo@CMapOutdoor@@QAEXXZ:PROC ; CMapOutdoor::RemoveAllMonsterAreaInfo
EXTRN	?SetBaseXY@CMapOutdoor@@QAEXKK@Z:PROC		; CMapOutdoor::SetBaseXY
EXTRN	?__HeightCache_Init@CMapOutdoor@@AAEXXZ:PROC	; CMapOutdoor::__HeightCache_Init
EXTRN	?Get@CEterPackManager@@QAE_NAAVCMappedFile@@PBDPAPBX@Z:PROC ; CEterPackManager::Get
EXTRN	?isExist@CEterPackManager@@QAE_NPBD@Z:PROC	; CEterPackManager::isExist
EXTRN	@__security_check_cookie@4:PROC
EXTRN	__CxxThrowException@8:PROC
EXTRN	___CxxFrameHandler3:PROC
EXTRN	_memchr:PROC
EXTRN	_memcpy:PROC
EXTRN	_memmove:PROC
EXTRN	_memset:PROC
EXTRN	__Init_thread_epoch:DWORD
EXTRN	??_7type_info@@6B@:QWORD			; type_info::`vftable'
EXTRN	?ms_iWidth@CGraphicBase@@1HA:DWORD		; CGraphicBase::ms_iWidth
EXTRN	?ms_iHeight@CGraphicBase@@1HA:DWORD		; CGraphicBase::ms_iHeight
EXTRN	?ms_lpd3dDevice@CGraphicBase@@1PAUIDirect3DDevice8@@A:DWORD ; CGraphicBase::ms_lpd3dDevice
EXTRN	___security_cookie:DWORD
EXTRN	__fltused:DWORD
EXTRN	__tls_array:DWORD
EXTRN	__tls_index:DWORD
;	COMDAT ?_OptionsStorage@?1??__local_stdio_printf_options@@9@4_KA
_BSS	SEGMENT
?_OptionsStorage@?1??__local_stdio_printf_options@@9@4_KA DQ 01H DUP (?) ; `__local_stdio_printf_options'::`2'::_OptionsStorage
_BSS	ENDS
;	COMDAT ?ms_singleton@?$CSingleton@VCSpeedTreeForestDirectX8@@@@0PAVCSpeedTreeForestDirectX8@@A
_BSS	SEGMENT
?ms_singleton@?$CSingleton@VCSpeedTreeForestDirectX8@@@@0PAVCSpeedTreeForestDirectX8@@A DD 01H DUP (?) ; CSingleton<CSpeedTreeForestDirectX8>::ms_singleton
_BSS	ENDS
;	COMDAT ?ms_singleton@?$CSingleton@VCEterPackManager@@@@0PAVCEterPackManager@@A
_BSS	SEGMENT
?ms_singleton@?$CSingleton@VCEterPackManager@@@@0PAVCEterPackManager@@A DD 01H DUP (?) ; CSingleton<CEterPackManager>::ms_singleton
_BSS	ENDS
;	COMDAT ?$TSS0@?2??Load@CMapOutdoor@@UAE_NMMM@Z@4HA
_BSS	SEGMENT
?$TSS0@?2??Load@CMapOutdoor@@UAE_NMMM@Z@4HA DD 01H DUP (?) ; `CMapOutdoor::Load'::`3'::$TSS0
_BSS	ENDS
;	COMDAT __xmm@80000000800000008000000080000000
CONST	SEGMENT
__xmm@80000000800000008000000080000000 DB 00H, 00H, 00H, 080H, 00H, 00H, 00H
	DB	080H, 00H, 00H, 00H, 080H, 00H, 00H, 00H, 080H
CONST	ENDS
;	COMDAT __real@bf800000
CONST	SEGMENT
__real@bf800000 DD 0bf800000r			; -1
CONST	ENDS
;	COMDAT __real@41800000
CONST	SEGMENT
__real@41800000 DD 041800000r			; 16
CONST	ENDS
;	COMDAT __real@40933333
CONST	SEGMENT
__real@40933333 DD 040933333r			; 4.6
CONST	ENDS
;	COMDAT __real@3f800000
CONST	SEGMENT
__real@3f800000 DD 03f800000r			; 1
CONST	ENDS
;	COMDAT __real@3e000000
CONST	SEGMENT
__real@3e000000 DD 03e000000r			; 0.125
CONST	ENDS
;	COMDAT __real@3b800000
CONST	SEGMENT
__real@3b800000 DD 03b800000r			; 0.00390625
CONST	ENDS
;	COMDAT ??_C@_0BA@FOIKENOD@vector?5too?5long@
CONST	SEGMENT
??_C@_0BA@FOIKENOD@vector?5too?5long@ DB 'vector too long', 00H ; `string'
CONST	ENDS
;	COMDAT ??_C@_0FC@JEHNDEBI@CMapOutdoorAccessor?3?3LoadMonste@
CONST	SEGMENT
??_C@_0FC@JEHNDEBI@CMapOutdoorAccessor?3?3LoadMonste@ DB 'CMapOutdoorAcce'
	DB	'ssor::LoadMonsterAreaInfo Get MonsterInfo Data ERROR! continu'
	DB	'e....', 00H					; `string'
CONST	ENDS
;	COMDAT ??_C@_0FJ@GIKGLIIH@CMapOutdoorAccessor?3?3LoadMonste@
CONST	SEGMENT
??_C@_0FJ@GIKGLIIH@CMapOutdoorAccessor?3?3LoadMonste@ DB 'CMapOutdoorAcce'
	DB	'ssor::LoadMonsterAreaInfo Get MonsterInfo File Format ERROR! '
	DB	'continue....', 00H				; `string'
CONST	ENDS
;	COMDAT ??_C@_01JEJKBAGA@g@
CONST	SEGMENT
??_C@_01JEJKBAGA@g@ DB 'g', 00H				; `string'
CONST	ENDS
;	COMDAT ??_C@_01GOHFPIOK@m@
CONST	SEGMENT
??_C@_01GOHFPIOK@m@ DB 'm', 00H				; `string'
CONST	ENDS
;	COMDAT ??_C@_02OJDBNLEE@?5?7@
CONST	SEGMENT
??_C@_02OJDBNLEE@?5?7@ DB ' ', 09H, 00H			; `string'
CONST	ENDS
;	COMDAT ??_C@_0N@CBKBELEM@?$CFs?2regen?4txt@
CONST	SEGMENT
??_C@_0N@CBKBELEM@?$CFs?2regen?4txt@ DB '%s\regen.txt', 00H ; `string'
CONST	ENDS
;	COMDAT ??_C@_0EN@PIOHNJHJ@CMapOutdoor?3?3LoadSetting?$CIc_szFi@
CONST	SEGMENT
??_C@_0EN@PIOHNJHJ@CMapOutdoor?3?3LoadSetting?$CIc_szFi@ DB 'CMapOutdoor:'
	DB	':LoadSetting(c_szFileName=%s) - Failed to load environment da'
	DB	'ta', 0aH, 00H				; `string'
CONST	ENDS
;	COMDAT ??_C@_0M@PINLHHEI@environment@
CONST	SEGMENT
??_C@_0M@PINLHHEI@environment@ DB 'environment', 00H	; `string'
CONST	ENDS
;	COMDAT ??_C@_0EG@MFMOCBKJ@MapOutdoor?3?3LoadSetting?$CIc_szFil@
CONST	SEGMENT
??_C@_0EG@MFMOCBKJ@MapOutdoor?3?3LoadSetting?$CIc_szFil@ DB 'MapOutdoor::'
	DB	'LoadSetting(c_szFileName=%s) - LOAD TEXTURE SET(%s) ERROR', 00H ; `string'
CONST	ENDS
;	COMDAT ??_C@_0M@PKDGGBDB@textureset?2@
CONST	SEGMENT
??_C@_0M@PKDGGBDB@textureset?2@ DB 'textureset\', 00H	; `string'
CONST	ENDS
;	COMDAT ??_C@_0N@IEEHNMJN@baseposition@
CONST	SEGMENT
??_C@_0N@IEEHNMJN@baseposition@ DB 'baseposition', 00H	; `string'
CONST	ENDS
;	COMDAT ??_C@_0EM@PIICKGLP@MapOutdoor?3?3LoadSetting?$CIc_szFil@
CONST	SEGMENT
??_C@_0EM@PIICKGLP@MapOutdoor?3?3LoadSetting?$CIc_szFil@ DB 'MapOutdoor::'
	DB	'LoadSetting(c_szFileName=%s) - VIEWRADIUS IS NOT GREATER THAN'
	DB	' 0', 00H					; `string'
CONST	ENDS
;	COMDAT ??_C@_0DP@BHJEEKBL@MapOutdoor?3?3LoadSetting?$CIc_szFil@
CONST	SEGMENT
??_C@_0DP@BHJEEKBL@MapOutdoor?3?3LoadSetting?$CIc_szFil@ DB 'MapOutdoor::'
	DB	'LoadSetting(c_szFileName=%s) - Resourse Type ERROR', 00H ; `string'
CONST	ENDS
;	COMDAT ??_C@_0L@PHDPILBM@MapSetting@
CONST	SEGMENT
??_C@_0L@PHDPILBM@MapSetting@ DB 'MapSetting', 00H	; `string'
CONST	ENDS
;	COMDAT ??_C@_0P@DDEPCBBP@terrainvisible@
CONST	SEGMENT
??_C@_0P@DDEPCBBP@terrainvisible@ DB 'terrainvisible', 00H ; `string'
CONST	ENDS
;	COMDAT ??_C@_0EG@CGMMOJDP@MapOutdoor?3?3LoadSetting?$CIc_szFil@
CONST	SEGMENT
??_C@_0EG@CGMMOJDP@MapOutdoor?3?3LoadSetting?$CIc_szFil@ DB 'MapOutdoor::'
	DB	'LoadSetting(c_szFileName=%s) - FIND ''textureset'' - FAILED', 00H ; `string'
CONST	ENDS
;	COMDAT ??_C@_0L@FLIBEPMB@textureset@
CONST	SEGMENT
??_C@_0L@FLIBEPMB@textureset@ DB 'textureset', 00H	; `string'
CONST	ENDS
;	COMDAT ??_C@_0ED@JGKHJMHO@MapOutdoor?3?3LoadSetting?$CIc_szFil@
CONST	SEGMENT
??_C@_0ED@JGKHJMHO@MapOutdoor?3?3LoadSetting?$CIc_szFil@ DB 'MapOutdoor::'
	DB	'LoadSetting(c_szFileName=%s) - FIND ''mapsize'' - FAILED', 00H ; `string'
CONST	ENDS
;	COMDAT ??_C@_07EOGAIPJO@mapsize@
CONST	SEGMENT
??_C@_07EOGAIPJO@mapsize@ DB 'mapsize', 00H		; `string'
CONST	ENDS
;	COMDAT ??_C@_0EH@FNDNEACP@MapOutdoor?3?3LoadSetting?$CIc_szFil@
CONST	SEGMENT
??_C@_0EH@FNDNEACP@MapOutdoor?3?3LoadSetting?$CIc_szFil@ DB 'MapOutdoor::'
	DB	'LoadSetting(c_szFileName=%s) - FIND ''heightscale'' - FAILED', 00H ; `string'
CONST	ENDS
;	COMDAT ??_C@_0M@MNHNKMP@heightscale@
CONST	SEGMENT
??_C@_0M@MNHNKMP@heightscale@ DB 'heightscale', 00H	; `string'
CONST	ENDS
;	COMDAT ??_C@_0EF@BILODNMF@MapOutdoor?3?3LoadSetting?$CIc_szFil@
CONST	SEGMENT
??_C@_0EF@BILODNMF@MapOutdoor?3?3LoadSetting?$CIc_szFil@ DB 'MapOutdoor::'
	DB	'LoadSetting(c_szFileName=%s) - FIND ''cellscale'' - FAILED', 00H ; `string'
CONST	ENDS
;	COMDAT ??_C@_09HCPKDAEG@cellscale@
CONST	SEGMENT
??_C@_09HCPKDAEG@cellscale@ DB 'cellscale', 00H		; `string'
CONST	ENDS
;	COMDAT ??_C@_0EG@PNENCHJD@MapOutdoor?3?3LoadSetting?$CIc_szFil@
CONST	SEGMENT
??_C@_0EG@PNENCHJD@MapOutdoor?3?3LoadSetting?$CIc_szFil@ DB 'MapOutdoor::'
	DB	'LoadSetting(c_szFileName=%s) - FIND ''viewradius'' - FAILED', 00H ; `string'
CONST	ENDS
;	COMDAT ??_C@_0L@NLJHFBAM@viewradius@
CONST	SEGMENT
??_C@_0L@NLJHFBAM@viewradius@ DB 'viewradius', 00H	; `string'
CONST	ENDS
;	COMDAT ??_C@_0EG@NNBBNFDL@MapOutdoor?3?3LoadSetting?$CIc_szFil@
CONST	SEGMENT
??_C@_0EG@NNBBNFDL@MapOutdoor?3?3LoadSetting?$CIc_szFil@ DB 'MapOutdoor::'
	DB	'LoadSetting(c_szFileName=%s) - FIND ''scripttype'' - FAILED', 00H ; `string'
CONST	ENDS
;	COMDAT ??_C@_0EA@IGDFIJCO@MapOutdoor?3?3LoadSetting?$CIc_szFil@
CONST	SEGMENT
??_C@_0EA@IGDFIJCO@MapOutdoor?3?3LoadSetting?$CIc_szFil@ DB 'MapOutdoor::'
	DB	'LoadSetting(c_szFileName=%s) - LoadMultipleTextData', 00H ; `string'
CONST	ENDS
;	COMDAT ??_C@_0BN@GEPFPGEO@CMapOutdoor?3?3LoadTerrain?5?$CFd?6@
CONST	SEGMENT
??_C@_0BN@GEPFPGEO@CMapOutdoor?3?3LoadTerrain?5?$CFd?6@ DB 'CMapOutdoor::'
	DB	'LoadTerrain %d', 0aH, 00H			; `string'
CONST	ENDS
;	COMDAT ??_C@_0DG@BIPHGMEM@?5CMapOutdoor?3?3LoadTerrain?$CI?$CFd?0?5?$CF@
CONST	SEGMENT
??_C@_0DG@BIPHGMEM@?5CMapOutdoor?3?3LoadTerrain?$CI?$CFd?0?5?$CF@ DB ' CM'
	DB	'apOutdoor::LoadTerrain(%d, %d) LoadShadowMap ERROR', 00H ; `string'
CONST	ENDS
;	COMDAT ??_C@_0DI@CJHIDJBM@?5CMapOutdoor?3?3LoadTerrain?$CI?$CFd?0?5?$CF@
CONST	SEGMENT
??_C@_0DI@CJHIDJBM@?5CMapOutdoor?3?3LoadTerrain?$CI?$CFd?0?5?$CF@ DB ' CM'
	DB	'apOutdoor::LoadTerrain(%d, %d) RAW_LoadTileMap ERROR', 00H ; `string'
CONST	ENDS
;	COMDAT ??_C@_0DE@PJJDEPO@?5CMapOutdoor?3?3LoadTerrain?$CI?$CFd?0?5?$CF@
CONST	SEGMENT
??_C@_0DE@PJJDEPO@?5CMapOutdoor?3?3LoadTerrain?$CI?$CFd?0?5?$CF@ DB ' CMa'
	DB	'pOutdoor::LoadTerrain(%d, %d) LoadAttrMap ERROR', 00H ; `string'
CONST	ENDS
;	COMDAT ??_C@_0DG@DLOMPGBF@?5CMapOutdoor?3?3LoadTerrain?$CI?$CFd?0?5?$CF@
CONST	SEGMENT
??_C@_0DG@DLOMPGBF@?5CMapOutdoor?3?3LoadTerrain?$CI?$CFd?0?5?$CF@ DB ' CM'
	DB	'apOutdoor::LoadTerrain(%d, %d) LoadHeightMap ERROR', 00H ; `string'
CONST	ENDS
;	COMDAT ??_C@_0DF@FPDAHDEG@?5CMapOutdoor?3?3LoadTerrain?$CI?$CFd?0?5?$CF@
CONST	SEGMENT
??_C@_0DF@FPDAHDEG@?5CMapOutdoor?3?3LoadTerrain?$CI?$CFd?0?5?$CF@ DB ' CM'
	DB	'apOutdoor::LoadTerrain(%d, %d) LoadWaterMap ERROR', 00H ; `string'
CONST	ENDS
;	COMDAT ??_C@_0BE@OEFJKKPK@?$CFs?2?$CF06u?2minimap?4dds@
CONST	SEGMENT
??_C@_0BE@OEFJKKPK@?$CFs?2?$CF06u?2minimap?4dds@ DB '%s\%06u\minimap.dds', 00H ; `string'
CONST	ENDS
;	COMDAT ??_C@_0BG@IEOOCGAN@?$CFs?2?$CF06u?2shadowmap?4raw@
CONST	SEGMENT
??_C@_0BG@IEOOCGAN@?$CFs?2?$CF06u?2shadowmap?4raw@ DB '%s\%06u\shadowmap.'
	DB	'raw', 00H					; `string'
CONST	ENDS
;	COMDAT ??_C@_0BG@JDDLCJKB@?$CFs?2?$CF06u?2shadowmap?4dds@
CONST	SEGMENT
??_C@_0BG@JDDLCJKB@?$CFs?2?$CF06u?2shadowmap?4dds@ DB '%s\%06u\shadowmap.'
	DB	'dds', 00H					; `string'
CONST	ENDS
;	COMDAT ??_C@_0BC@COFDKBDG@?$CFs?2?$CF06u?2water?4wtr@
CONST	SEGMENT
??_C@_0BC@COFDKBDG@?$CFs?2?$CF06u?2water?4wtr@ DB '%s\%06u\water.wtr', 00H ; `string'
CONST	ENDS
;	COMDAT ??_C@_0BB@MGHNOCIE@?$CFs?2?$CF06u?2attr?4atr@
CONST	SEGMENT
??_C@_0BB@MGHNOCIE@?$CFs?2?$CF06u?2attr?4atr@ DB '%s\%06u\attr.atr', 00H ; `string'
CONST	ENDS
;	COMDAT ??_C@_0BB@KIEAEMGF@?$CFs?2?$CF06u?2tile?4raw@
CONST	SEGMENT
??_C@_0BB@KIEAEMGF@?$CFs?2?$CF06u?2tile?4raw@ DB '%s\%06u\tile.raw', 00H ; `string'
CONST	ENDS
;	COMDAT ??_C@_0BD@OEBGBMHL@?$CFs?2?$CF06u?2height?4raw@
CONST	SEGMENT
??_C@_0BD@OEBGBMHL@?$CFs?2?$CF06u?2height?4raw@ DB '%s\%06u\height.raw', 00H ; `string'
CONST	ENDS
;	COMDAT ??_C@_0DK@IFEFGLBP@CMapOutdoor?3?3LoadTerrain?5AreaPr@
CONST	SEGMENT
??_C@_0DK@IFEFGLBP@CMapOutdoor?3?3LoadTerrain?5AreaPr@ DB 'CMapOutdoor::L'
	DB	'oadTerrain AreaProperty FileFormat Error 3', 0aH, 00H ; `string'
CONST	ENDS
;	COMDAT ??_C@_0N@JAFNMPED@AreaProperty@
CONST	SEGMENT
??_C@_0N@JAFNMPED@AreaProperty@ DB 'AreaProperty', 00H	; `string'
CONST	ENDS
;	COMDAT ??_C@_0DK@IEIHABCI@CMapOutdoor?3?3LoadTerrain?5AreaPr@
CONST	SEGMENT
??_C@_0DK@IEIHABCI@CMapOutdoor?3?3LoadTerrain?5AreaPr@ DB 'CMapOutdoor::L'
	DB	'oadTerrain AreaProperty FileFormat Error 2', 0aH, 00H ; `string'
CONST	ENDS
;	COMDAT ??_C@_08FLKAMJDN@areaname@
CONST	SEGMENT
??_C@_08FLKAMJDN@areaname@ DB 'areaname', 00H		; `string'
CONST	ENDS
;	COMDAT ??_C@_0DK@IGMBLPHB@CMapOutdoor?3?3LoadTerrain?5AreaPr@
CONST	SEGMENT
??_C@_0DK@IGMBLPHB@CMapOutdoor?3?3LoadTerrain?5AreaPr@ DB 'CMapOutdoor::L'
	DB	'oadTerrain AreaProperty FileFormat Error 1', 0aH, 00H ; `string'
CONST	ENDS
;	COMDAT ??_C@_0L@PCFMFEAG@scripttype@
CONST	SEGMENT
??_C@_0L@PCFMFEAG@scripttype@ DB 'scripttype', 00H	; `string'
CONST	ENDS
;	COMDAT ??_C@_0DC@PJKFCPIK@CMapOutdoor?3?3LoadTerrain?5AreaPr@
CONST	SEGMENT
??_C@_0DC@PJKFCPIK@CMapOutdoor?3?3LoadTerrain?5AreaPr@ DB 'CMapOutdoor::L'
	DB	'oadTerrain AreaProperty Read Error', 0aH, 00H ; `string'
CONST	ENDS
;	COMDAT ??_C@_0BJ@PNPPDMHN@?$CFs?2?$CF06u?2AreaProperty?4txt@
CONST	SEGMENT
??_C@_0BJ@PNPPDMHN@?$CFs?2?$CF06u?2AreaProperty?4txt@ DB '%s\%06u\AreaPro'
	DB	'perty.txt', 00H				; `string'
CONST	ENDS
;	COMDAT ??_C@_0DD@GDFLJGIN@?5CMapOutdoor?3?3LoadArea?$CI?$CFd?0?5?$CFd?$CJ?5@
CONST	SEGMENT
??_C@_0DD@GDFLJGIN@?5CMapOutdoor?3?3LoadArea?$CI?$CFd?0?5?$CFd?$CJ?5@ DB ' '
	DB	'CMapOutdoor::LoadArea(%d, %d) LoadShadowMap ERROR', 00H ; `string'
CONST	ENDS
;	COMDAT ??_C@_08HAAOAKJA@?$CFs?2?$CF06u?2@
CONST	SEGMENT
??_C@_08HAAOAKJA@?$CFs?2?$CF06u?2@ DB '%s\%06u\', 00H	; `string'
CONST	ENDS
;	COMDAT ??_C@_06MANNNLLA@?4msenv@
CONST	SEGMENT
??_C@_06MANNNLLA@?4msenv@ DB '.msenv', 00H		; `string'
CONST	ENDS
;	COMDAT ??_C@_0BK@PHKPBKKC@d?3?1ymir?5work?1environment?1@
CONST	SEGMENT
??_C@_0BK@PHKPBKKC@d?3?1ymir?5work?1environment?1@ DB 'd:/ymir work/envir'
	DB	'onment/', 00H				; `string'
CONST	ENDS
;	COMDAT ??_C@_01KICIPPFI@?2@
CONST	SEGMENT
??_C@_01KICIPPFI@?2@ DB '\', 00H			; `string'
CONST	ENDS
;	COMDAT ??_C@_0CL@PFEFOJBM@CMapOutdoor?3?3Load?5?3?5LoadSetting@
CONST	SEGMENT
??_C@_0CL@PFEFOJBM@CMapOutdoor?3?3Load?5?3?5LoadSetting@ DB 'CMapOutdoor:'
	DB	':Load : LoadSetting(%s) Failed', 00H	; `string'
CONST	ENDS
;	COMDAT ??_C@_0N@NBPBKCDE@?2Setting?4txt@
CONST	SEGMENT
??_C@_0N@NBPBKCDE@?2Setting?4txt@ DB '\Setting.txt', 00H ; `string'
CONST	ENDS
;	COMDAT ??_C@_06NLAJNNNM@?2cache@
CONST	SEGMENT
??_C@_06NLAJNNNM@?2cache@ DB '\cache', 00H		; `string'
CONST	ENDS
;	COMDAT ?s_strOldPathName@?2??Load@CMapOutdoor@@UAE_NMMM@Z@4V?$basic_string@DU?$char_traits@D@std@@V?$allocator@D@2@@std@@A
_DATA	SEGMENT
?s_strOldPathName@?2??Load@CMapOutdoor@@UAE_NMMM@Z@4V?$basic_string@DU?$char_traits@D@std@@V?$allocator@D@2@@std@@A DB 010H DUP (?)
	DD	00H					; `CMapOutdoor::Load'::`3'::s_strOldPathName
	DD	0fH
_DATA	ENDS
;	COMDAT ??_R1A@?0A@EA@bad_array_new_length@std@@8
rdata$r	SEGMENT
??_R1A@?0A@EA@bad_array_new_length@std@@8 DD FLAT:??_R0?AVbad_array_new_length@std@@@8 ; std::bad_array_new_length::`RTTI Base Class Descriptor at (0,-1,0,64)'
	DD	02H
	DD	00H
	DD	0ffffffffH
	DD	00H
	DD	040H
	DD	FLAT:??_R3bad_array_new_length@std@@8
rdata$r	ENDS
;	COMDAT ??_R2bad_array_new_length@std@@8
rdata$r	SEGMENT
??_R2bad_array_new_length@std@@8 DD FLAT:??_R1A@?0A@EA@bad_array_new_length@std@@8 ; std::bad_array_new_length::`RTTI Base Class Array'
	DD	FLAT:??_R1A@?0A@EA@bad_alloc@std@@8
	DD	FLAT:??_R1A@?0A@EA@exception@std@@8
rdata$r	ENDS
;	COMDAT ??_R3bad_array_new_length@std@@8
rdata$r	SEGMENT
??_R3bad_array_new_length@std@@8 DD 00H			; std::bad_array_new_length::`RTTI Class Hierarchy Descriptor'
	DD	00H
	DD	03H
	DD	FLAT:??_R2bad_array_new_length@std@@8
rdata$r	ENDS
;	COMDAT ??_R4bad_array_new_length@std@@6B@
rdata$r	SEGMENT
??_R4bad_array_new_length@std@@6B@ DD 00H		; std::bad_array_new_length::`RTTI Complete Object Locator'
	DD	00H
	DD	00H
	DD	FLAT:??_R0?AVbad_array_new_length@std@@@8
	DD	FLAT:??_R3bad_array_new_length@std@@8
rdata$r	ENDS
;	COMDAT ??_R1A@?0A@EA@bad_alloc@std@@8
rdata$r	SEGMENT
??_R1A@?0A@EA@bad_alloc@std@@8 DD FLAT:??_R0?AVbad_alloc@std@@@8 ; std::bad_alloc::`RTTI Base Class Descriptor at (0,-1,0,64)'
	DD	01H
	DD	00H
	DD	0ffffffffH
	DD	00H
	DD	040H
	DD	FLAT:??_R3bad_alloc@std@@8
rdata$r	ENDS
;	COMDAT ??_R2bad_alloc@std@@8
rdata$r	SEGMENT
??_R2bad_alloc@std@@8 DD FLAT:??_R1A@?0A@EA@bad_alloc@std@@8 ; std::bad_alloc::`RTTI Base Class Array'
	DD	FLAT:??_R1A@?0A@EA@exception@std@@8
rdata$r	ENDS
;	COMDAT ??_R3bad_alloc@std@@8
rdata$r	SEGMENT
??_R3bad_alloc@std@@8 DD 00H				; std::bad_alloc::`RTTI Class Hierarchy Descriptor'
	DD	00H
	DD	02H
	DD	FLAT:??_R2bad_alloc@std@@8
rdata$r	ENDS
;	COMDAT ??_R4bad_alloc@std@@6B@
rdata$r	SEGMENT
??_R4bad_alloc@std@@6B@ DD 00H				; std::bad_alloc::`RTTI Complete Object Locator'
	DD	00H
	DD	00H
	DD	FLAT:??_R0?AVbad_alloc@std@@@8
	DD	FLAT:??_R3bad_alloc@std@@8
rdata$r	ENDS
;	COMDAT ??_R1A@?0A@EA@exception@std@@8
rdata$r	SEGMENT
??_R1A@?0A@EA@exception@std@@8 DD FLAT:??_R0?AVexception@std@@@8 ; std::exception::`RTTI Base Class Descriptor at (0,-1,0,64)'
	DD	00H
	DD	00H
	DD	0ffffffffH
	DD	00H
	DD	040H
	DD	FLAT:??_R3exception@std@@8
rdata$r	ENDS
;	COMDAT ??_R2exception@std@@8
rdata$r	SEGMENT
??_R2exception@std@@8 DD FLAT:??_R1A@?0A@EA@exception@std@@8 ; std::exception::`RTTI Base Class Array'
rdata$r	ENDS
;	COMDAT ??_R3exception@std@@8
rdata$r	SEGMENT
??_R3exception@std@@8 DD 00H				; std::exception::`RTTI Class Hierarchy Descriptor'
	DD	00H
	DD	01H
	DD	FLAT:??_R2exception@std@@8
rdata$r	ENDS
;	COMDAT ??_R4exception@std@@6B@
rdata$r	SEGMENT
??_R4exception@std@@6B@ DD 00H				; std::exception::`RTTI Complete Object Locator'
	DD	00H
	DD	00H
	DD	FLAT:??_R0?AVexception@std@@@8
	DD	FLAT:??_R3exception@std@@8
rdata$r	ENDS
;	COMDAT ??_C@_0BI@CFPLBAOH@invalid?5string?5position@
CONST	SEGMENT
??_C@_0BI@CFPLBAOH@invalid?5string?5position@ DB 'invalid string position'
	DB	00H						; `string'
CONST	ENDS
;	COMDAT ??_C@_0BB@GCADKGJO@map?1set?5too?5long@
CONST	SEGMENT
??_C@_0BB@GCADKGJO@map?1set?5too?5long@ DB 'map/set too long', 00H ; `string'
CONST	ENDS
;	COMDAT ??_C@_0BA@JFNIOLAK@string?5too?5long@
CONST	SEGMENT
??_C@_0BA@JFNIOLAK@string?5too?5long@ DB 'string too long', 00H ; `string'
CONST	ENDS
;	COMDAT __CT??_R0?AVexception@std@@@8??0exception@std@@QAE@ABV01@@Z12
xdata$x	SEGMENT
__CT??_R0?AVexception@std@@@8??0exception@std@@QAE@ABV01@@Z12 DD 00H
	DD	FLAT:??_R0?AVexception@std@@@8
	DD	00H
	DD	0ffffffffH
	ORG $+4
	DD	0cH
	DD	FLAT:??0exception@std@@QAE@ABV01@@Z
xdata$x	ENDS
;	COMDAT ??_R0?AVexception@std@@@8
data$r	SEGMENT
??_R0?AVexception@std@@@8 DD FLAT:??_7type_info@@6B@	; std::exception `RTTI Type Descriptor'
	DD	00H
	DB	'.?AVexception@std@@', 00H
data$r	ENDS
;	COMDAT __CT??_R0?AVbad_alloc@std@@@8??0bad_alloc@std@@QAE@ABV01@@Z12
xdata$x	SEGMENT
__CT??_R0?AVbad_alloc@std@@@8??0bad_alloc@std@@QAE@ABV01@@Z12 DD 010H
	DD	FLAT:??_R0?AVbad_alloc@std@@@8
	DD	00H
	DD	0ffffffffH
	ORG $+4
	DD	0cH
	DD	FLAT:??0bad_alloc@std@@QAE@ABV01@@Z
xdata$x	ENDS
;	COMDAT ??_R0?AVbad_alloc@std@@@8
data$r	SEGMENT
??_R0?AVbad_alloc@std@@@8 DD FLAT:??_7type_info@@6B@	; std::bad_alloc `RTTI Type Descriptor'
	DD	00H
	DB	'.?AVbad_alloc@std@@', 00H
data$r	ENDS
;	COMDAT __CT??_R0?AVbad_array_new_length@std@@@8??0bad_array_new_length@std@@QAE@ABV01@@Z12
xdata$x	SEGMENT
__CT??_R0?AVbad_array_new_length@std@@@8??0bad_array_new_length@std@@QAE@ABV01@@Z12 DD 00H
	DD	FLAT:??_R0?AVbad_array_new_length@std@@@8
	DD	00H
	DD	0ffffffffH
	ORG $+4
	DD	0cH
	DD	FLAT:??0bad_array_new_length@std@@QAE@ABV01@@Z
xdata$x	ENDS
;	COMDAT ??_R0?AVbad_array_new_length@std@@@8
data$r	SEGMENT
??_R0?AVbad_array_new_length@std@@@8 DD FLAT:??_7type_info@@6B@ ; std::bad_array_new_length `RTTI Type Descriptor'
	DD	00H
	DB	'.?AVbad_array_new_length@std@@', 00H
data$r	ENDS
;	COMDAT __CTA3?AVbad_array_new_length@std@@
xdata$x	SEGMENT
__CTA3?AVbad_array_new_length@std@@ DD 03H
	DD	FLAT:__CT??_R0?AVbad_array_new_length@std@@@8??0bad_array_new_length@std@@QAE@ABV01@@Z12
	DD	FLAT:__CT??_R0?AVbad_alloc@std@@@8??0bad_alloc@std@@QAE@ABV01@@Z12
	DD	FLAT:__CT??_R0?AVexception@std@@@8??0exception@std@@QAE@ABV01@@Z12
xdata$x	ENDS
;	COMDAT __TI3?AVbad_array_new_length@std@@
xdata$x	SEGMENT
__TI3?AVbad_array_new_length@std@@ DD 00H
	DD	FLAT:??1bad_array_new_length@std@@UAE@XZ
	DD	00H
	DD	FLAT:__CTA3?AVbad_array_new_length@std@@
xdata$x	ENDS
;	COMDAT ??_C@_0BF@KINCDENJ@bad?5array?5new?5length@
CONST	SEGMENT
??_C@_0BF@KINCDENJ@bad?5array?5new?5length@ DB 'bad array new length', 00H ; `string'
CONST	ENDS
;	COMDAT ??_7bad_array_new_length@std@@6B@
CONST	SEGMENT
??_7bad_array_new_length@std@@6B@ DD FLAT:??_R4bad_array_new_length@std@@6B@ ; std::bad_array_new_length::`vftable'
	DD	FLAT:??_Ebad_array_new_length@std@@UAEPAXI@Z
	DD	FLAT:?what@exception@std@@UBEPBDXZ
CONST	ENDS
;	COMDAT ??_7bad_alloc@std@@6B@
CONST	SEGMENT
??_7bad_alloc@std@@6B@ DD FLAT:??_R4bad_alloc@std@@6B@	; std::bad_alloc::`vftable'
	DD	FLAT:??_Ebad_alloc@std@@UAEPAXI@Z
	DD	FLAT:?what@exception@std@@UBEPBDXZ
CONST	ENDS
;	COMDAT ??_C@_0BC@EOODALEL@Unknown?5exception@
CONST	SEGMENT
??_C@_0BC@EOODALEL@Unknown?5exception@ DB 'Unknown exception', 00H ; `string'
CONST	ENDS
;	COMDAT ??_7exception@std@@6B@
CONST	SEGMENT
??_7exception@std@@6B@ DD FLAT:??_R4exception@std@@6B@	; std::exception::`vftable'
	DD	FLAT:??_Eexception@std@@UAEPAXI@Z
	DD	FLAT:?what@exception@std@@UBEPBDXZ
CONST	ENDS
;	COMDAT xdata$x
xdata$x	SEGMENT
__unwindtable$??$?0ABUpiecewise_construct_t@std@@V?$tuple@$$QAV?$basic_string@DU?$char_traits@D@std@@V?$allocator@D@2@@std@@@1@V?$tuple@$$V@1@@?$_Tree_temp_node@V?$allocator@U?$_Tree_node@U?$pair@$$CBV?$basic_string@DU?$char_traits@D@std@@V?$allocator@D@2@@std@@V?$vector@V?$basic_string@DU?$char_traits@D@std@@V?$allocator@D@2@@std@@V?$allocator@V?$basic_string@DU?$char_traits@D@std@@V?$allocator@D@2@@std@@@2@@2@@std@@PAX@std@@@std@@@std@@QAE@AAV?$allocator@U?$_Tree_node@U?$pair@$$CBV?$basic_string@DU?$char_traits@D@std@@V?$allocator@D@2@@std@@V?$vector@V?$basic_string@DU?$char_traits@D@std@@V?$allocator@D@2@@std@@V?$allocator@V?$basic_string@DU?$char_traits@D@std@@V?$allocator@D@2@@std@@@2@@2@@std@@PAX@std@@@1@PAU?$_Tree_node@U?$pair@$$CBV?$basic_string@DU?$char_traits@D@std@@V?$allocator@D@2@@std@@V?$vector@V?$basic_string@DU?$char_traits@D@std@@V?$allocator@D@2@@std@@V?$allocator@V?$basic_string@DU?$char_traits@D@std@@V?$allocator@D@2@@std@@@2@@2@@std@@PAX@1@ABUpiecewise_construct_t@1@$$QAV?$tuple@$$QAV?$basic_string@DU?$char_traits@D@std@@V?$allocator@D@2@@std@@@1@$$QAV?$tuple@$$V@1@@Z DD 0ffffffffH
	DD	FLAT:__unwindfunclet$??$?0ABUpiecewise_construct_t@std@@V?$tuple@$$QAV?$basic_string@DU?$char_traits@D@std@@V?$allocator@D@2@@std@@@1@V?$tuple@$$V@1@@?$_Tree_temp_node@V?$allocator@U?$_Tree_node@U?$pair@$$CBV?$basic_string@DU?$char_traits@D@std@@V?$allocator@D@2@@std@@V?$vector@V?$basic_string@DU?$char_traits@D@std@@V?$allocator@D@2@@std@@V?$allocator@V?$basic_string@DU?$char_traits@D@std@@V?$allocator@D@2@@std@@@2@@2@@std@@PAX@std@@@std@@@std@@QAE@AAV?$allocator@U?$_Tree_node@U?$pair@$$CBV?$basic_string@DU?$char_traits@D@std@@V?$allocator@D@2@@std@@V?$vector@V?$basic_string@DU?$char_traits@D@std@@V?$allocator@D@2@@std@@V?$allocator@V?$basic_string@DU?$char_traits@D@std@@V?$allocator@D@2@@std@@@2@@2@@std@@PAX@std@@@1@PAU?$_Tree_node@U?$pair@$$CBV?$basic_string@DU?$char_traits@D@std@@V?$allocator@D@2@@std@@V?$vector@V?$basic_string@DU?$char_traits@D@std@@V?$allocator@D@2@@std@@V?$allocator@V?$basic_string@DU?$char_traits@D@std@@V?$allocator@D@2@@std@@@2@@2@@std@@PAX@1@ABUpiecewise_construct_t@1@$$QAV?$tuple@$$QAV?$basic_string@DU?$char_traits@D@std@@V?$allocator@D@2@@std@@@1@$$QAV?$tuple@$$V@1@@Z$1
__ehfuncinfo$??$?0ABUpiecewise_construct_t@std@@V?$tuple@$$QAV?$basic_string@DU?$char_traits@D@std@@V?$allocator@D@2@@std@@@1@V?$tuple@$$V@1@@?$_Tree_temp_node@V?$allocator@U?$_Tree_node@U?$pair@$$CBV?$basic_string@DU?$char_traits@D@std@@V?$allocator@D@2@@std@@V?$vector@V?$basic_string@DU?$char_traits@D@std@@V?$allocator@D@2@@std@@V?$allocator@V?$basic_string@DU?$char_traits@D@std@@V?$allocator@D@2@@std@@@2@@2@@std@@PAX@std@@@std@@@std@@QAE@AAV?$allocator@U?$_Tree_node@U?$pair@$$CBV?$basic_string@DU?$char_traits@D@std@@V?$allocator@D@2@@std@@V?$vector@V?$basic_string@DU?$char_traits@D@std@@V?$allocator@D@2@@std@@V?$allocator@V?$basic_string@DU?$char_traits@D@std@@V?$allocator@D@2@@std@@@2@@2@@std@@PAX@std@@@1@PAU?$_Tree_node@U?$pair@$$CBV?$basic_string@DU?$char_traits@D@std@@V?$allocator@D@2@@std@@V?$vector@V?$basic_string@DU?$char_traits@D@std@@V?$allocator@D@2@@std@@V?$allocator@V?$basic_string@DU?$char_traits@D@std@@V?$allocator@D@2@@std@@@2@@2@@std@@PAX@1@ABUpiecewise_construct_t@1@$$QAV?$tuple@$$QAV?$basic_string@DU?$char_traits@D@std@@V?$allocator@D@2@@std@@@1@$$QAV?$tuple@$$V@1@@Z DD 019930522H
	DD	01H
	DD	FLAT:__unwindtable$??$?0ABUpiecewise_construct_t@std@@V?$tuple@$$QAV?$basic_string@DU?$char_traits@D@std@@V?$allocator@D@2@@std@@@1@V?$tuple@$$V@1@@?$_Tree_temp_node@V?$allocator@U?$_Tree_node@U?$pair@$$CBV?$basic_string@DU?$char_traits@D@std@@V?$allocator@D@2@@std@@V?$vector@V?$basic_string@DU?$char_traits@D@std@@V?$allocator@D@2@@std@@V?$allocator@V?$basic_string@DU?$char_traits@D@std@@V?$allocator@D@2@@std@@@2@@2@@std@@PAX@std@@@std@@@std@@QAE@AAV?$allocator@U?$_Tree_node@U?$pair@$$CBV?$basic_string@DU?$char_traits@D@std@@V?$allocator@D@2@@std@@V?$vector@V?$basic_string@DU?$char_traits@D@std@@V?$allocator@D@2@@std@@V?$allocator@V?$basic_string@DU?$char_traits@D@std@@V?$allocator@D@2@@std@@@2@@2@@std@@PAX@std@@@1@PAU?$_Tree_node@U?$pair@$$CBV?$basic_string@DU?$char_traits@D@std@@V?$allocator@D@2@@std@@V?$vector@V?$basic_string@DU?$char_traits@D@std@@V?$allocator@D@2@@std@@V?$allocator@V?$basic_string@DU?$char_traits@D@std@@V?$allocator@D@2@@std@@@2@@2@@std@@PAX@1@ABUpiecewise_construct_t@1@$$QAV?$tuple@$$QAV?$basic_string@DU?$char_traits@D@std@@V?$allocator@D@2@@std@@@1@$$QAV?$tuple@$$V@1@@Z
	DD	2 DUP(00H)
	DD	2 DUP(00H)
	DD	00H
	DD	01H
xdata$x	ENDS
;	COMDAT xdata$x
xdata$x	SEGMENT
__unwindtable$??0?$_Tree_temp_node_alloc@V?$allocator@U?$_Tree_node@U?$pair@$$CBV?$basic_string@DU?$char_traits@D@std@@V?$allocator@D@2@@std@@V?$vector@V?$basic_string@DU?$char_traits@D@std@@V?$allocator@D@2@@std@@V?$allocator@V?$basic_string@DU?$char_traits@D@std@@V?$allocator@D@2@@std@@@2@@2@@std@@PAX@std@@@std@@@std@@QAE@AAV?$allocator@U?$_Tree_node@U?$pair@$$CBV?$basic_string@DU?$char_traits@D@std@@V?$allocator@D@2@@std@@V?$vector@V?$basic_string@DU?$char_traits@D@std@@V?$allocator@D@2@@std@@V?$allocator@V?$basic_string@DU?$char_traits@D@std@@V?$allocator@D@2@@std@@@2@@2@@std@@PAX@std@@@1@@Z DD 0ffffffffH
	DD	FLAT:__unwindfunclet$??0?$_Tree_temp_node_alloc@V?$allocator@U?$_Tree_node@U?$pair@$$CBV?$basic_string@DU?$char_traits@D@std@@V?$allocator@D@2@@std@@V?$vector@V?$basic_string@DU?$char_traits@D@std@@V?$allocator@D@2@@std@@V?$allocator@V?$basic_string@DU?$char_traits@D@std@@V?$allocator@D@2@@std@@@2@@2@@std@@PAX@std@@@std@@@std@@QAE@AAV?$allocator@U?$_Tree_node@U?$pair@$$CBV?$basic_string@DU?$char_traits@D@std@@V?$allocator@D@2@@std@@V?$vector@V?$basic_string@DU?$char_traits@D@std@@V?$allocator@D@2@@std@@V?$allocator@V?$basic_string@DU?$char_traits@D@std@@V?$allocator@D@2@@std@@@2@@2@@std@@PAX@std@@@1@@Z$0
__ehfuncinfo$??0?$_Tree_temp_node_alloc@V?$allocator@U?$_Tree_node@U?$pair@$$CBV?$basic_string@DU?$char_traits@D@std@@V?$allocator@D@2@@std@@V?$vector@V?$basic_string@DU?$char_traits@D@std@@V?$allocator@D@2@@std@@V?$allocator@V?$basic_string@DU?$char_traits@D@std@@V?$allocator@D@2@@std@@@2@@2@@std@@PAX@std@@@std@@@std@@QAE@AAV?$allocator@U?$_Tree_node@U?$pair@$$CBV?$basic_string@DU?$char_traits@D@std@@V?$allocator@D@2@@std@@V?$vector@V?$basic_string@DU?$char_traits@D@std@@V?$allocator@D@2@@std@@V?$allocator@V?$basic_string@DU?$char_traits@D@std@@V?$allocator@D@2@@std@@@2@@2@@std@@PAX@std@@@1@@Z DD 019930522H
	DD	01H
	DD	FLAT:__unwindtable$??0?$_Tree_temp_node_alloc@V?$allocator@U?$_Tree_node@U?$pair@$$CBV?$basic_string@DU?$char_traits@D@std@@V?$allocator@D@2@@std@@V?$vector@V?$basic_string@DU?$char_traits@D@std@@V?$allocator@D@2@@std@@V?$allocator@V?$basic_string@DU?$char_traits@D@std@@V?$allocator@D@2@@std@@@2@@2@@std@@PAX@std@@@std@@@std@@QAE@AAV?$allocator@U?$_Tree_node@U?$pair@$$CBV?$basic_string@DU?$char_traits@D@std@@V?$allocator@D@2@@std@@V?$vector@V?$basic_string@DU?$char_traits@D@std@@V?$allocator@D@2@@std@@V?$allocator@V?$basic_string@DU?$char_traits@D@std@@V?$allocator@D@2@@std@@@2@@2@@std@@PAX@std@@@1@@Z
	DD	2 DUP(00H)
	DD	2 DUP(00H)
	DD	00H
	DD	01H
xdata$x	ENDS
;	COMDAT xdata$x
xdata$x	SEGMENT
__unwindtable$??$_Try_emplace@V?$basic_string@DU?$char_traits@D@std@@V?$allocator@D@2@@std@@$$V@?$map@V?$basic_string@DU?$char_traits@D@std@@V?$allocator@D@2@@std@@V?$vector@V?$basic_string@DU?$char_traits@D@std@@V?$allocator@D@2@@std@@V?$allocator@V?$basic_string@DU?$char_traits@D@std@@V?$allocator@D@2@@std@@@2@@2@U?$less@V?$basic_string@DU?$char_traits@D@std@@V?$allocator@D@2@@std@@@2@V?$allocator@U?$pair@$$CBV?$basic_string@DU?$char_traits@D@std@@V?$allocator@D@2@@std@@V?$vector@V?$basic_string@DU?$char_traits@D@std@@V?$allocator@D@2@@std@@V?$allocator@V?$basic_string@DU?$char_traits@D@std@@V?$allocator@D@2@@std@@@2@@2@@std@@@2@@std@@AAE?AU?$pair@PAU?$_Tree_node@U?$pair@$$CBV?$basic_string@DU?$char_traits@D@std@@V?$allocator@D@2@@std@@V?$vector@V?$basic_string@DU?$char_traits@D@std@@V?$allocator@D@2@@std@@V?$allocator@V?$basic_string@DU?$char_traits@D@std@@V?$allocator@D@2@@std@@@2@@2@@std@@PAX@std@@_N@1@$$QAV?$basic_string@DU?$char_traits@D@std@@V?$allocator@D@2@@1@@Z DD 0ffffffffH
	DD	FLAT:__unwindfunclet$??$_Try_emplace@V?$basic_string@DU?$char_traits@D@std@@V?$allocator@D@2@@std@@$$V@?$map@V?$basic_string@DU?$char_traits@D@std@@V?$allocator@D@2@@std@@V?$vector@V?$basic_string@DU?$char_traits@D@std@@V?$allocator@D@2@@std@@V?$allocator@V?$basic_string@DU?$char_traits@D@std@@V?$allocator@D@2@@std@@@2@@2@U?$less@V?$basic_string@DU?$char_traits@D@std@@V?$allocator@D@2@@std@@@2@V?$allocator@U?$pair@$$CBV?$basic_string@DU?$char_traits@D@std@@V?$allocator@D@2@@std@@V?$vector@V?$basic_string@DU?$char_traits@D@std@@V?$allocator@D@2@@std@@V?$allocator@V?$basic_string@DU?$char_traits@D@std@@V?$allocator@D@2@@std@@@2@@2@@std@@@2@@std@@AAE?AU?$pair@PAU?$_Tree_node@U?$pair@$$CBV?$basic_string@DU?$char_traits@D@std@@V?$allocator@D@2@@std@@V?$vector@V?$basic_string@DU?$char_traits@D@std@@V?$allocator@D@2@@std@@V?$allocator@V?$basic_string@DU?$char_traits@D@std@@V?$allocator@D@2@@std@@@2@@2@@std@@PAX@std@@_N@1@$$QAV?$basic_string@DU?$char_traits@D@std@@V?$allocator@D@2@@1@@Z$2
__ehfuncinfo$??$_Try_emplace@V?$basic_string@DU?$char_traits@D@std@@V?$allocator@D@2@@std@@$$V@?$map@V?$basic_string@DU?$char_traits@D@std@@V?$allocator@D@2@@std@@V?$vector@V?$basic_string@DU?$char_traits@D@std@@V?$allocator@D@2@@std@@V?$allocator@V?$basic_string@DU?$char_traits@D@std@@V?$allocator@D@2@@std@@@2@@2@U?$less@V?$basic_string@DU?$char_traits@D@std@@V?$allocator@D@2@@std@@@2@V?$allocator@U?$pair@$$CBV?$basic_string@DU?$char_traits@D@std@@V?$allocator@D@2@@std@@V?$vector@V?$basic_string@DU?$char_traits@D@std@@V?$allocator@D@2@@std@@V?$allocator@V?$basic_string@DU?$char_traits@D@std@@V?$allocator@D@2@@std@@@2@@2@@std@@@2@@std@@AAE?AU?$pair@PAU?$_Tree_node@U?$pair@$$CBV?$basic_string@DU?$char_traits@D@std@@V?$allocator@D@2@@std@@V?$vector@V?$basic_string@DU?$char_traits@D@std@@V?$allocator@D@2@@std@@V?$allocator@V?$basic_string@DU?$char_traits@D@std@@V?$allocator@D@2@@std@@@2@@2@@std@@PAX@std@@_N@1@$$QAV?$basic_string@DU?$char_traits@D@std@@V?$allocator@D@2@@1@@Z DD 019930522H
	DD	01H
	DD	FLAT:__unwindtable$??$_Try_emplace@V?$basic_string@DU?$char_traits@D@std@@V?$allocator@D@2@@std@@$$V@?$map@V?$basic_string@DU?$char_traits@D@std@@V?$allocator@D@2@@std@@V?$vector@V?$basic_string@DU?$char_traits@D@std@@V?$allocator@D@2@@std@@V?$allocator@V?$basic_string@DU?$char_traits@D@std@@V?$allocator@D@2@@std@@@2@@2@U?$less@V?$basic_string@DU?$char_traits@D@std@@V?$allocator@D@2@@std@@@2@V?$allocator@U?$pair@$$CBV?$basic_string@DU?$char_traits@D@std@@V?$allocator@D@2@@std@@V?$vector@V?$basic_string@DU?$char_traits@D@std@@V?$allocator@D@2@@std@@V?$allocator@V?$basic_string@DU?$char_traits@D@std@@V?$allocator@D@2@@std@@@2@@2@@std@@@2@@std@@AAE?AU?$pair@PAU?$_Tree_node@U?$pair@$$CBV?$basic_string@DU?$char_traits@D@std@@V?$allocator@D@2@@std@@V?$vector@V?$basic_string@DU?$char_traits@D@std@@V?$allocator@D@2@@std@@V?$allocator@V?$basic_string@DU?$char_traits@D@std@@V?$allocator@D@2@@std@@@2@@2@@std@@PAX@std@@_N@1@$$QAV?$basic_string@DU?$char_traits@D@std@@V?$allocator@D@2@@1@@Z
	DD	2 DUP(00H)
	DD	2 DUP(00H)
	DD	00H
	DD	01H
xdata$x	ENDS
;	COMDAT xdata$x
xdata$x	SEGMENT
__unwindtable$??A?$map@V?$basic_string@DU?$char_traits@D@std@@V?$allocator@D@2@@std@@V?$vector@V?$basic_string@DU?$char_traits@D@std@@V?$allocator@D@2@@std@@V?$allocator@V?$basic_string@DU?$char_traits@D@std@@V?$allocator@D@2@@std@@@2@@2@U?$less@V?$basic_string@DU?$char_traits@D@std@@V?$allocator@D@2@@std@@@2@V?$allocator@U?$pair@$$CBV?$basic_string@DU?$char_traits@D@std@@V?$allocator@D@2@@std@@V?$vector@V?$basic_string@DU?$char_traits@D@std@@V?$allocator@D@2@@std@@V?$allocator@V?$basic_string@DU?$char_traits@D@std@@V?$allocator@D@2@@std@@@2@@2@@std@@@2@@std@@QAEAAV?$vector@V?$basic_string@DU?$char_traits@D@std@@V?$allocator@D@2@@std@@V?$allocator@V?$basic_string@DU?$char_traits@D@std@@V?$allocator@D@2@@std@@@2@@1@$$QAV?$basic_string@DU?$char_traits@D@std@@V?$allocator@D@2@@1@@Z DD 0ffffffffH
	DD	FLAT:__unwindfunclet$??A?$map@V?$basic_string@DU?$char_traits@D@std@@V?$allocator@D@2@@std@@V?$vector@V?$basic_string@DU?$char_traits@D@std@@V?$allocator@D@2@@std@@V?$allocator@V?$basic_string@DU?$char_traits@D@std@@V?$allocator@D@2@@std@@@2@@2@U?$less@V?$basic_string@DU?$char_traits@D@std@@V?$allocator@D@2@@std@@@2@V?$allocator@U?$pair@$$CBV?$basic_string@DU?$char_traits@D@std@@V?$allocator@D@2@@std@@V?$vector@V?$basic_string@DU?$char_traits@D@std@@V?$allocator@D@2@@std@@V?$allocator@V?$basic_string@DU?$char_traits@D@std@@V?$allocator@D@2@@std@@@2@@2@@std@@@2@@std@@QAEAAV?$vector@V?$basic_string@DU?$char_traits@D@std@@V?$allocator@D@2@@std@@V?$allocator@V?$basic_string@DU?$char_traits@D@std@@V?$allocator@D@2@@std@@@2@@1@$$QAV?$basic_string@DU?$char_traits@D@std@@V?$allocator@D@2@@1@@Z$2
__ehfuncinfo$??A?$map@V?$basic_string@DU?$char_traits@D@std@@V?$allocator@D@2@@std@@V?$vector@V?$basic_string@DU?$char_traits@D@std@@V?$allocator@D@2@@std@@V?$allocator@V?$basic_string@DU?$char_traits@D@std@@V?$allocator@D@2@@std@@@2@@2@U?$less@V?$basic_string@DU?$char_traits@D@std@@V?$allocator@D@2@@std@@@2@V?$allocator@U?$pair@$$CBV?$basic_string@DU?$char_traits@D@std@@V?$allocator@D@2@@std@@V?$vector@V?$basic_string@DU?$char_traits@D@std@@V?$allocator@D@2@@std@@V?$allocator@V?$basic_string@DU?$char_traits@D@std@@V?$allocator@D@2@@std@@@2@@2@@std@@@2@@std@@QAEAAV?$vector@V?$basic_string@DU?$char_traits@D@std@@V?$allocator@D@2@@std@@V?$allocator@V?$basic_string@DU?$char_traits@D@std@@V?$allocator@D@2@@std@@@2@@1@$$QAV?$basic_string@DU?$char_traits@D@std@@V?$allocator@D@2@@1@@Z DD 019930522H
	DD	01H
	DD	FLAT:__unwindtable$??A?$map@V?$basic_string@DU?$char_traits@D@std@@V?$allocator@D@2@@std@@V?$vector@V?$basic_string@DU?$char_traits@D@std@@V?$allocator@D@2@@std@@V?$allocator@V?$basic_string@DU?$char_traits@D@std@@V?$allocator@D@2@@std@@@2@@2@U?$less@V?$basic_string@DU?$char_traits@D@std@@V?$allocator@D@2@@std@@@2@V?$allocator@U?$pair@$$CBV?$basic_string@DU?$char_traits@D@std@@V?$allocator@D@2@@std@@V?$vector@V?$basic_string@DU?$char_traits@D@std@@V?$allocator@D@2@@std@@V?$allocator@V?$basic_string@DU?$char_traits@D@std@@V?$allocator@D@2@@std@@@2@@2@@std@@@2@@std@@QAEAAV?$vector@V?$basic_string@DU?$char_traits@D@std@@V?$allocator@D@2@@std@@V?$allocator@V?$basic_string@DU?$char_traits@D@std@@V?$allocator@D@2@@std@@@2@@1@$$QAV?$basic_string@DU?$char_traits@D@std@@V?$allocator@D@2@@1@@Z
	DD	2 DUP(00H)
	DD	2 DUP(00H)
	DD	00H
	DD	01H
xdata$x	ENDS
;	COMDAT xdata$x
xdata$x	SEGMENT
__ehfuncinfo$?LoadMonsterAreaInfo@CMapOutdoor@@QAE_NXZ DD 019930522H
	DD	0dH
	DD	FLAT:__unwindtable$?LoadMonsterAreaInfo@CMapOutdoor@@QAE_NXZ
	DD	2 DUP(00H)
	DD	2 DUP(00H)
	DD	00H
	DD	01H
__unwindtable$?LoadMonsterAreaInfo@CMapOutdoor@@QAE_NXZ DD 0ffffffffH
	DD	FLAT:__unwindfunclet$?LoadMonsterAreaInfo@CMapOutdoor@@QAE_NXZ$0
	DD	00H
	DD	FLAT:__unwindfunclet$?LoadMonsterAreaInfo@CMapOutdoor@@QAE_NXZ$1
	DD	01H
	DD	FLAT:__unwindfunclet$?LoadMonsterAreaInfo@CMapOutdoor@@QAE_NXZ$2
	DD	02H
	DD	FLAT:__unwindfunclet$?LoadMonsterAreaInfo@CMapOutdoor@@QAE_NXZ$3
	DD	03H
	DD	FLAT:__unwindfunclet$?LoadMonsterAreaInfo@CMapOutdoor@@QAE_NXZ$4
	DD	04H
	DD	FLAT:__unwindfunclet$?LoadMonsterAreaInfo@CMapOutdoor@@QAE_NXZ$5
	DD	05H
	DD	FLAT:__unwindfunclet$?LoadMonsterAreaInfo@CMapOutdoor@@QAE_NXZ$6
	DD	06H
	DD	FLAT:__unwindfunclet$?LoadMonsterAreaInfo@CMapOutdoor@@QAE_NXZ$7
	DD	07H
	DD	FLAT:__unwindfunclet$?LoadMonsterAreaInfo@CMapOutdoor@@QAE_NXZ$8
	DD	08H
	DD	FLAT:__unwindfunclet$?LoadMonsterAreaInfo@CMapOutdoor@@QAE_NXZ$9
	DD	09H
	DD	FLAT:__unwindfunclet$?LoadMonsterAreaInfo@CMapOutdoor@@QAE_NXZ$10
	DD	0aH
	DD	FLAT:__unwindfunclet$?LoadMonsterAreaInfo@CMapOutdoor@@QAE_NXZ$11
	DD	0bH
	DD	FLAT:__unwindfunclet$?LoadMonsterAreaInfo@CMapOutdoor@@QAE_NXZ$12
xdata$x	ENDS
;	COMDAT xdata$x
xdata$x	SEGMENT
__unwindtable$?LoadTerrain@CMapOutdoor@@MAE_NGGGG@Z DD 0ffffffffH
	DD	FLAT:__unwindfunclet$?LoadTerrain@CMapOutdoor@@MAE_NGGGG@Z$0
	DD	00H
	DD	FLAT:__unwindfunclet$?LoadTerrain@CMapOutdoor@@MAE_NGGGG@Z$3
	DD	00H
	DD	FLAT:__unwindfunclet$?LoadTerrain@CMapOutdoor@@MAE_NGGGG@Z$4
	DD	00H
	DD	FLAT:__unwindfunclet$?LoadTerrain@CMapOutdoor@@MAE_NGGGG@Z$19
__ehfuncinfo$?LoadTerrain@CMapOutdoor@@MAE_NGGGG@Z DD 019930522H
	DD	04H
	DD	FLAT:__unwindtable$?LoadTerrain@CMapOutdoor@@MAE_NGGGG@Z
	DD	2 DUP(00H)
	DD	2 DUP(00H)
	DD	00H
	DD	01H
xdata$x	ENDS
;	COMDAT xdata$x
xdata$x	SEGMENT
__ehfuncinfo$?LoadSetting@CMapOutdoor@@QAE_NPBD@Z DD 019930522H
	DD	0dH
	DD	FLAT:__unwindtable$?LoadSetting@CMapOutdoor@@QAE_NPBD@Z
	DD	2 DUP(00H)
	DD	2 DUP(00H)
	DD	00H
	DD	01H
__unwindtable$?LoadSetting@CMapOutdoor@@QAE_NPBD@Z DD 0ffffffffH
	DD	FLAT:__unwindfunclet$?LoadSetting@CMapOutdoor@@QAE_NPBD@Z$0
	DD	00H
	DD	FLAT:__unwindfunclet$?LoadSetting@CMapOutdoor@@QAE_NPBD@Z$8
	DD	00H
	DD	FLAT:__unwindfunclet$?LoadSetting@CMapOutdoor@@QAE_NPBD@Z$9
	DD	00H
	DD	FLAT:__unwindfunclet$?LoadSetting@CMapOutdoor@@QAE_NPBD@Z$10
	DD	00H
	DD	FLAT:__unwindfunclet$?LoadSetting@CMapOutdoor@@QAE_NPBD@Z$11
	DD	00H
	DD	FLAT:__unwindfunclet$?LoadSetting@CMapOutdoor@@QAE_NPBD@Z$12
	DD	00H
	DD	FLAT:__unwindfunclet$?LoadSetting@CMapOutdoor@@QAE_NPBD@Z$13
	DD	00H
	DD	FLAT:__unwindfunclet$?LoadSetting@CMapOutdoor@@QAE_NPBD@Z$14
	DD	07H
	DD	FLAT:__unwindfunclet$?LoadSetting@CMapOutdoor@@QAE_NPBD@Z$15
	DD	07H
	DD	FLAT:__unwindfunclet$?LoadSetting@CMapOutdoor@@QAE_NPBD@Z$17
	DD	07H
	DD	FLAT:__unwindfunclet$?LoadSetting@CMapOutdoor@@QAE_NPBD@Z$18
	DD	07H
	DD	FLAT:__unwindfunclet$?LoadSetting@CMapOutdoor@@QAE_NPBD@Z$19
	DD	0bH
	DD	FLAT:__unwindfunclet$?LoadSetting@CMapOutdoor@@QAE_NPBD@Z$22
xdata$x	ENDS
;	COMDAT xdata$x
xdata$x	SEGMENT
__ehfuncinfo$?Load@CMapOutdoor@@UAE_NMMM@Z DD 019930522H
	DD	09H
	DD	FLAT:__unwindtable$?Load@CMapOutdoor@@UAE_NMMM@Z
	DD	2 DUP(00H)
	DD	2 DUP(00H)
	DD	00H
	DD	01H
__unwindtable$?Load@CMapOutdoor@@UAE_NMMM@Z DD 0ffffffffH
	DD	FLAT:__unwindfunclet$?Load@CMapOutdoor@@UAE_NMMM@Z$0
	DD	0ffffffffH
	DD	FLAT:__unwindfunclet$?Load@CMapOutdoor@@UAE_NMMM@Z$1
	DD	0ffffffffH
	DD	FLAT:__unwindfunclet$?Load@CMapOutdoor@@UAE_NMMM@Z$2
	DD	02H
	DD	FLAT:__unwindfunclet$?Load@CMapOutdoor@@UAE_NMMM@Z$3
	DD	03H
	DD	FLAT:__unwindfunclet$?Load@CMapOutdoor@@UAE_NMMM@Z$4
	DD	02H
	DD	FLAT:__unwindfunclet$?Load@CMapOutdoor@@UAE_NMMM@Z$4
	DD	05H
	DD	FLAT:__unwindfunclet$?Load@CMapOutdoor@@UAE_NMMM@Z$5
	DD	06H
	DD	FLAT:__unwindfunclet$?Load@CMapOutdoor@@UAE_NMMM@Z$7
	DD	07H
	DD	FLAT:__unwindfunclet$?Load@CMapOutdoor@@UAE_NMMM@Z$8
xdata$x	ENDS
;	COMDAT xdata$x
xdata$x	SEGMENT
__unwindtable$?SetName@CTerrain@@QAEXV?$basic_string@DU?$char_traits@D@std@@V?$allocator@D@2@@std@@@Z DD 0ffffffffH
	DD	FLAT:__unwindfunclet$?SetName@CTerrain@@QAEXV?$basic_string@DU?$char_traits@D@std@@V?$allocator@D@2@@std@@@Z$0
__ehfuncinfo$?SetName@CTerrain@@QAEXV?$basic_string@DU?$char_traits@D@std@@V?$allocator@D@2@@std@@@Z DD 019930522H
	DD	01H
	DD	FLAT:__unwindtable$?SetName@CTerrain@@QAEXV?$basic_string@DU?$char_traits@D@std@@V?$allocator@D@2@@std@@@Z
	DD	2 DUP(00H)
	DD	2 DUP(00H)
	DD	00H
	DD	01H
xdata$x	ENDS
; Function compile flags: /Ogtp
; File C:\Program Files (x86)\Microsoft Visual Studio\2019\Professional\VC\Tools\MSVC\14.29.30133\include\xstring
;	COMDAT ??$?MDU?$char_traits@D@std@@V?$allocator@D@1@@std@@YA_NABV?$basic_string@DU?$char_traits@D@std@@V?$allocator@D@2@@0@0@Z
_TEXT	SEGMENT
__Left$ = 8						; size = 4
__Right$ = 12						; size = 4
??$?MDU?$char_traits@D@std@@V?$allocator@D@1@@std@@YA_NABV?$basic_string@DU?$char_traits@D@std@@V?$allocator@D@2@@0@0@Z PROC ; std::operator<<char,std::char_traits<char>,std::allocator<char> >, COMDAT

; 4842 :     const basic_string<_Elem, _Traits, _Alloc>& _Left, const basic_string<_Elem, _Traits, _Alloc>& _Right) noexcept {

  00000	55		 push	 ebp
  00001	8b ec		 mov	 ebp, esp

; 2305 :         const value_type* _Result = _Bx._Buf;

  00003	8b 45 0c	 mov	 eax, DWORD PTR __Right$[ebp]
  00006	8b d0		 mov	 edx, eax

; 2319 :         return _BUF_SIZE <= _Myres;

  00008	83 78 14 10	 cmp	 DWORD PTR [eax+20], 16	; 00000010H

; 2306 :         if (_Large_string_engaged()) {

  0000c	72 02		 jb	 SHORT $LN6@operator

; 2307 :             _Result = _Unfancy(_Bx._Ptr);

  0000e	8b 10		 mov	 edx, DWORD PTR [eax]
$LN6@operator:

; 2305 :         const value_type* _Result = _Bx._Buf;

  00010	8b 4d 08	 mov	 ecx, DWORD PTR __Left$[ebp]
  00013	56		 push	 esi
  00014	8b f1		 mov	 esi, ecx

; 2319 :         return _BUF_SIZE <= _Myres;

  00016	83 79 14 10	 cmp	 DWORD PTR [ecx+20], 16	; 00000010H

; 2306 :         if (_Large_string_engaged()) {

  0001a	72 02		 jb	 SHORT $LN11@operator

; 2307 :             _Result = _Unfancy(_Bx._Ptr);

  0001c	8b 31		 mov	 esi, DWORD PTR [ecx]
$LN11@operator:

; 4414 :         return _Traits_compare<_Traits>(_Mypair._Myval2._Myptr(), _Mypair._Myval2._Mysize,

  0001e	ff 70 10	 push	 DWORD PTR [eax+16]
  00021	52		 push	 edx
  00022	ff 71 10	 push	 DWORD PTR [ecx+16]
  00025	56		 push	 esi
  00026	e8 00 00 00 00	 call	 ??$_Traits_compare@U?$char_traits@D@std@@@std@@YAHQBDI0I@Z ; std::_Traits_compare<std::char_traits<char> >
  0002b	83 c4 10	 add	 esp, 16			; 00000010H

; 4843 :     return _Left.compare(_Right) < 0;

  0002e	c1 e8 1f	 shr	 eax, 31			; 0000001fH
  00031	5e		 pop	 esi

; 4844 : }

  00032	5d		 pop	 ebp
  00033	c3		 ret	 0
??$?MDU?$char_traits@D@std@@V?$allocator@D@1@@std@@YA_NABV?$basic_string@DU?$char_traits@D@std@@V?$allocator@D@2@@0@0@Z ENDP ; std::operator<<char,std::char_traits<char>,std::allocator<char> >
_TEXT	ENDS
; Function compile flags: /Ogtp
; File C:\Program Files (x86)\Microsoft Visual Studio\2019\Professional\VC\Tools\MSVC\14.29.30133\include\xutility
;	COMDAT ??$_Copy_memmove@PAPAVCTerrain@@PAPAV1@@std@@YAPAPAVCTerrain@@PAPAV1@00@Z
_TEXT	SEGMENT
__First$ = 8						; size = 4
__Last$ = 12						; size = 4
__Dest$ = 16						; size = 4
??$_Copy_memmove@PAPAVCTerrain@@PAPAV1@@std@@YAPAPAVCTerrain@@PAPAV1@00@Z PROC ; std::_Copy_memmove<CTerrain * *,CTerrain * *>, COMDAT

; 4159 : _OutCtgIt _Copy_memmove(_CtgIt _First, _CtgIt _Last, _OutCtgIt _Dest) {

  00000	55		 push	 ebp
  00001	8b ec		 mov	 ebp, esp

; 4160 :     auto _FirstPtr              = _To_address(_First);
; 4161 :     auto _LastPtr               = _To_address(_Last);
; 4162 :     auto _DestPtr               = _To_address(_Dest);
; 4163 :     const char* const _First_ch = const_cast<const char*>(reinterpret_cast<const volatile char*>(_FirstPtr));
; 4164 :     const char* const _Last_ch  = const_cast<const char*>(reinterpret_cast<const volatile char*>(_LastPtr));
; 4165 :     char* const _Dest_ch        = const_cast<char*>(reinterpret_cast<const volatile char*>(_DestPtr));
; 4166 :     const auto _Count           = static_cast<size_t>(_Last_ch - _First_ch);

  00003	8b 45 08	 mov	 eax, DWORD PTR __First$[ebp]
  00006	56		 push	 esi

; 4167 :     _CSTD memmove(_Dest_ch, _First_ch, _Count);

  00007	8b 75 10	 mov	 esi, DWORD PTR __Dest$[ebp]
  0000a	57		 push	 edi
  0000b	8b 7d 0c	 mov	 edi, DWORD PTR __Last$[ebp]
  0000e	2b f8		 sub	 edi, eax
  00010	57		 push	 edi
  00011	50		 push	 eax
  00012	56		 push	 esi
  00013	e8 00 00 00 00	 call	 _memmove
  00018	83 c4 0c	 add	 esp, 12			; 0000000cH

; 4168 :     if constexpr (is_pointer_v<_OutCtgIt>) {
; 4169 :         return reinterpret_cast<_OutCtgIt>(_Dest_ch + _Count);

  0001b	8d 04 37	 lea	 eax, DWORD PTR [edi+esi]
  0001e	5f		 pop	 edi
  0001f	5e		 pop	 esi

; 4170 :     } else {
; 4171 :         return _Dest + (_LastPtr - _FirstPtr);
; 4172 :     }
; 4173 : }

  00020	5d		 pop	 ebp
  00021	c3		 ret	 0
??$_Copy_memmove@PAPAVCTerrain@@PAPAV1@@std@@YAPAPAVCTerrain@@PAPAV1@00@Z ENDP ; std::_Copy_memmove<CTerrain * *,CTerrain * *>
_TEXT	ENDS
; Function compile flags: /Ogtp
; File C:\Program Files (x86)\Microsoft Visual Studio\2019\Professional\VC\Tools\MSVC\14.29.30133\include\xutility
;	COMDAT ??$_Copy_memmove@PAPAVCArea@@PAPAV1@@std@@YAPAPAVCArea@@PAPAV1@00@Z
_TEXT	SEGMENT
__First$ = 8						; size = 4
__Last$ = 12						; size = 4
__Dest$ = 16						; size = 4
??$_Copy_memmove@PAPAVCArea@@PAPAV1@@std@@YAPAPAVCArea@@PAPAV1@00@Z PROC ; std::_Copy_memmove<CArea * *,CArea * *>, COMDAT

; 4159 : _OutCtgIt _Copy_memmove(_CtgIt _First, _CtgIt _Last, _OutCtgIt _Dest) {

  00000	55		 push	 ebp
  00001	8b ec		 mov	 ebp, esp

; 4160 :     auto _FirstPtr              = _To_address(_First);
; 4161 :     auto _LastPtr               = _To_address(_Last);
; 4162 :     auto _DestPtr               = _To_address(_Dest);
; 4163 :     const char* const _First_ch = const_cast<const char*>(reinterpret_cast<const volatile char*>(_FirstPtr));
; 4164 :     const char* const _Last_ch  = const_cast<const char*>(reinterpret_cast<const volatile char*>(_LastPtr));
; 4165 :     char* const _Dest_ch        = const_cast<char*>(reinterpret_cast<const volatile char*>(_DestPtr));
; 4166 :     const auto _Count           = static_cast<size_t>(_Last_ch - _First_ch);

  00003	8b 45 08	 mov	 eax, DWORD PTR __First$[ebp]
  00006	56		 push	 esi

; 4167 :     _CSTD memmove(_Dest_ch, _First_ch, _Count);

  00007	8b 75 10	 mov	 esi, DWORD PTR __Dest$[ebp]
  0000a	57		 push	 edi
  0000b	8b 7d 0c	 mov	 edi, DWORD PTR __Last$[ebp]
  0000e	2b f8		 sub	 edi, eax
  00010	57		 push	 edi
  00011	50		 push	 eax
  00012	56		 push	 esi
  00013	e8 00 00 00 00	 call	 _memmove
  00018	83 c4 0c	 add	 esp, 12			; 0000000cH

; 4168 :     if constexpr (is_pointer_v<_OutCtgIt>) {
; 4169 :         return reinterpret_cast<_OutCtgIt>(_Dest_ch + _Count);

  0001b	8d 04 37	 lea	 eax, DWORD PTR [edi+esi]
  0001e	5f		 pop	 edi
  0001f	5e		 pop	 esi

; 4170 :     } else {
; 4171 :         return _Dest + (_LastPtr - _FirstPtr);
; 4172 :     }
; 4173 : }

  00020	5d		 pop	 ebp
  00021	c3		 ret	 0
??$_Copy_memmove@PAPAVCArea@@PAPAV1@@std@@YAPAPAVCArea@@PAPAV1@00@Z ENDP ; std::_Copy_memmove<CArea * *,CArea * *>
_TEXT	ENDS
; Function compile flags: /Ogtp
; File C:\Program Files (x86)\Microsoft Visual Studio\2019\Professional\VC\Tools\MSVC\14.29.30133\include\xmemory
; File C:\Program Files (x86)\Microsoft Visual Studio\2019\Professional\VC\Tools\MSVC\14.29.30133\include\xstring
; File C:\Program Files (x86)\Microsoft Visual Studio\2019\Professional\VC\Tools\MSVC\14.29.30133\include\xmemory
; File C:\Program Files (x86)\Microsoft Visual Studio\2019\Professional\VC\Tools\MSVC\14.29.30133\include\xstring
; File C:\Program Files (x86)\Microsoft Visual Studio\2019\Professional\VC\Tools\MSVC\14.29.30133\include\xmemory
; File C:\Program Files (x86)\Microsoft Visual Studio\2019\Professional\VC\Tools\MSVC\14.29.30133\include\xstring
; File C:\Program Files (x86)\Microsoft Visual Studio\2019\Professional\VC\Tools\MSVC\14.29.30133\include\xmemory
;	COMDAT ??$destroy@U?$pair@$$CBV?$basic_string@DU?$char_traits@D@std@@V?$allocator@D@2@@std@@V?$vector@V?$basic_string@DU?$char_traits@D@std@@V?$allocator@D@2@@std@@V?$allocator@V?$basic_string@DU?$char_traits@D@std@@V?$allocator@D@2@@std@@@2@@2@@std@@@?$_Default_allocator_traits@V?$allocator@U?$_Tree_node@U?$pair@$$CBV?$basic_string@DU?$char_traits@D@std@@V?$allocator@D@2@@std@@V?$vector@V?$basic_string@DU?$char_traits@D@std@@V?$allocator@D@2@@std@@V?$allocator@V?$basic_string@DU?$char_traits@D@std@@V?$allocator@D@2@@std@@@2@@2@@std@@PAX@std@@@std@@@std@@SAXAAV?$allocator@U?$_Tree_node@U?$pair@$$CBV?$basic_string@DU?$char_traits@D@std@@V?$allocator@D@2@@std@@V?$vector@V?$basic_string@DU?$char_traits@D@std@@V?$allocator@D@2@@std@@V?$allocator@V?$basic_string@DU?$char_traits@D@std@@V?$allocator@D@2@@std@@@2@@2@@std@@PAX@std@@@1@QAU?$pair@$$CBV?$basic_string@DU?$char_traits@D@std@@V?$allocator@D@2@@std@@V?$vector@V?$basic_string@DU?$char_traits@D@std@@V?$allocator@D@2@@std@@V?$allocator@V?$basic_string@DU?$char_traits@D@std@@V?$allocator@D@2@@std@@@2@@2@@1@@Z
_TEXT	SEGMENT
___formal$ = 8						; size = 4
__Ptr$ = 12						; size = 4
??$destroy@U?$pair@$$CBV?$basic_string@DU?$char_traits@D@std@@V?$allocator@D@2@@std@@V?$vector@V?$basic_string@DU?$char_traits@D@std@@V?$allocator@D@2@@std@@V?$allocator@V?$basic_string@DU?$char_traits@D@std@@V?$allocator@D@2@@std@@@2@@2@@std@@@?$_Default_allocator_traits@V?$allocator@U?$_Tree_node@U?$pair@$$CBV?$basic_string@DU?$char_traits@D@std@@V?$allocator@D@2@@std@@V?$vector@V?$basic_string@DU?$char_traits@D@std@@V?$allocator@D@2@@std@@V?$allocator@V?$basic_string@DU?$char_traits@D@std@@V?$allocator@D@2@@std@@@2@@2@@std@@PAX@std@@@std@@@std@@SAXAAV?$allocator@U?$_Tree_node@U?$pair@$$CBV?$basic_string@DU?$char_traits@D@std@@V?$allocator@D@2@@std@@V?$vector@V?$basic_string@DU?$char_traits@D@std@@V?$allocator@D@2@@std@@V?$allocator@V?$basic_string@DU?$char_traits@D@std@@V?$allocator@D@2@@std@@@2@@2@@std@@PAX@std@@@1@QAU?$pair@$$CBV?$basic_string@DU?$char_traits@D@std@@V?$allocator@D@2@@std@@V?$vector@V?$basic_string@DU?$char_traits@D@std@@V?$allocator@D@2@@std@@V?$allocator@V?$basic_string@DU?$char_traits@D@std@@V?$allocator@D@2@@std@@@2@@2@@1@@Z PROC ; std::_Default_allocator_traits<std::allocator<std::_Tree_node<std::pair<std::basic_string<char,std::char_traits<char>,std::allocator<char> > const ,std::vector<std::basic_string<char,std::char_traits<char>,std::allocator<char> >,std::allocator<std::basic_string<char,std::char_traits<char>,std::allocator<char> > > > >,void *> > >::destroy<std::pair<std::basic_string<char,std::char_traits<char>,std::allocator<char> > const ,std::vector<std::basic_string<char,std::char_traits<char>,std::allocator<char> >,std::allocator<std::basic_string<char,std::char_traits<char>,std::allocator<char> > > > > >, COMDAT

; 719  :     static _CONSTEXPR20_DYNALLOC void destroy(_Alloc&, _Uty* const _Ptr) {

  00000	55		 push	 ebp
  00001	8b ec		 mov	 ebp, esp
  00003	56		 push	 esi
  00004	8b 75 0c	 mov	 esi, DWORD PTR __Ptr$[ebp]
  00007	8d 4e 18	 lea	 ecx, DWORD PTR [esi+24]
  0000a	e8 00 00 00 00	 call	 ??1?$vector@V?$basic_string@DU?$char_traits@D@std@@V?$allocator@D@2@@std@@V?$allocator@V?$basic_string@DU?$char_traits@D@std@@V?$allocator@D@2@@std@@@2@@std@@QAE@XZ ; std::vector<std::basic_string<char,std::char_traits<char>,std::allocator<char> >,std::allocator<std::basic_string<char,std::char_traits<char>,std::allocator<char> > > >::~vector<std::basic_string<char,std::char_traits<char>,std::allocator<char> >,std::allocator<std::basic_string<char,std::char_traits<char>,std::allocator<char> > > >
; File C:\Program Files (x86)\Microsoft Visual Studio\2019\Professional\VC\Tools\MSVC\14.29.30133\include\xstring

; 2319 :         return _BUF_SIZE <= _Myres;

  0000f	8b 4e 14	 mov	 ecx, DWORD PTR [esi+20]
  00012	83 f9 10	 cmp	 ecx, 16			; 00000010H

; 4618 :         if (_Mypair._Myval2._Large_string_engaged()) {

  00015	72 27		 jb	 SHORT $LN21@destroy
; File C:\Program Files (x86)\Microsoft Visual Studio\2019\Professional\VC\Tools\MSVC\14.29.30133\include\xmemory

; 835  :         _Deallocate<_New_alignof<_Ty>>(_Ptr, sizeof(_Ty) * _Count);

  00017	8b 06		 mov	 eax, DWORD PTR [esi]
; File C:\Program Files (x86)\Microsoft Visual Studio\2019\Professional\VC\Tools\MSVC\14.29.30133\include\xstring

; 4622 :             _Al.deallocate(_Ptr, _Mypair._Myval2._Myres + 1);

  00019	41		 inc	 ecx
; File C:\Program Files (x86)\Microsoft Visual Studio\2019\Professional\VC\Tools\MSVC\14.29.30133\include\xmemory

; 260  :         if (_Bytes >= _Big_allocation_threshold) { // boost the alignment of big allocations to help autovectorization

  0001a	81 f9 00 10 00
	00		 cmp	 ecx, 4096		; 00001000H
  00020	72 12		 jb	 SHORT $LN31@destroy

; 158  :     const uintptr_t _Ptr_container   = _Ptr_user[-1];

  00022	8b 50 fc	 mov	 edx, DWORD PTR [eax-4]
  00025	83 c1 23	 add	 ecx, 35			; 00000023H

; 159  : 
; 160  :     // If the following asserts, it likely means that we are performing
; 161  :     // an aligned delete on memory coming from an unaligned allocation.
; 162  :     _STL_ASSERT(_Ptr_user[-2] == _Big_allocation_sentinel, "invalid argument");
; 163  : 
; 164  :     // Extra paranoia on aligned allocation/deallocation; ensure _Ptr_container is
; 165  :     // in range [_Min_back_shift, _Non_user_size]
; 166  : #ifdef _DEBUG
; 167  :     constexpr uintptr_t _Min_back_shift = 2 * sizeof(void*);
; 168  : #else // ^^^ _DEBUG ^^^ // vvv !_DEBUG vvv
; 169  :     constexpr uintptr_t _Min_back_shift = sizeof(void*);
; 170  : #endif // _DEBUG
; 171  :     const uintptr_t _Back_shift = reinterpret_cast<uintptr_t>(_Ptr) - _Ptr_container;

  00028	2b c2		 sub	 eax, edx

; 172  :     _STL_VERIFY(_Back_shift >= _Min_back_shift && _Back_shift <= _Non_user_size, "invalid argument");

  0002a	83 c0 fc	 add	 eax, -4			; fffffffcH
  0002d	83 f8 1f	 cmp	 eax, 31			; 0000001fH
  00030	77 20		 ja	 SHORT $LN28@destroy

; 173  :     _Ptr = reinterpret_cast<void*>(_Ptr_container);

  00032	8b c2		 mov	 eax, edx
$LN31@destroy:

; 264  :         ::operator delete(_Ptr, _Bytes);

  00034	51		 push	 ecx
  00035	50		 push	 eax
  00036	e8 00 00 00 00	 call	 ??3@YAXPAXI@Z		; operator delete
  0003b	83 c4 08	 add	 esp, 8
$LN21@destroy:
; File C:\Program Files (x86)\Microsoft Visual Studio\2019\Professional\VC\Tools\MSVC\14.29.30133\include\xstring

; 4633 :             _Mypair._Myval2._Mysize = 0;

  0003e	c7 46 10 00 00
	00 00		 mov	 DWORD PTR [esi+16], 0

; 4634 :             _Mypair._Myval2._Myres  = _BUF_SIZE - 1;

  00045	c7 46 14 0f 00
	00 00		 mov	 DWORD PTR [esi+20], 15	; 0000000fH

; 4635 :             // the _Traits::assign is last so the codegen doesn't think the char write can alias this
; 4636 :             _Traits::assign(_Mypair._Myval2._Bx._Buf[0], _Elem());

  0004c	c6 06 00	 mov	 BYTE PTR [esi], 0
  0004f	5e		 pop	 esi
; File C:\Program Files (x86)\Microsoft Visual Studio\2019\Professional\VC\Tools\MSVC\14.29.30133\include\xmemory

; 725  :     }

  00050	5d		 pop	 ebp
  00051	c3		 ret	 0
$LN28@destroy:

; 172  :     _STL_VERIFY(_Back_shift >= _Min_back_shift && _Back_shift <= _Non_user_size, "invalid argument");

  00052	e8 00 00 00 00	 call	 __invalid_parameter_noinfo_noreturn
$LN39@destroy:
  00057	cc		 int	 3
??$destroy@U?$pair@$$CBV?$basic_string@DU?$char_traits@D@std@@V?$allocator@D@2@@std@@V?$vector@V?$basic_string@DU?$char_traits@D@std@@V?$allocator@D@2@@std@@V?$allocator@V?$basic_string@DU?$char_traits@D@std@@V?$allocator@D@2@@std@@@2@@2@@std@@@?$_Default_allocator_traits@V?$allocator@U?$_Tree_node@U?$pair@$$CBV?$basic_string@DU?$char_traits@D@std@@V?$allocator@D@2@@std@@V?$vector@V?$basic_string@DU?$char_traits@D@std@@V?$allocator@D@2@@std@@V?$allocator@V?$basic_string@DU?$char_traits@D@std@@V?$allocator@D@2@@std@@@2@@2@@std@@PAX@std@@@std@@@std@@SAXAAV?$allocator@U?$_Tree_node@U?$pair@$$CBV?$basic_string@DU?$char_traits@D@std@@V?$allocator@D@2@@std@@V?$vector@V?$basic_string@DU?$char_traits@D@std@@V?$allocator@D@2@@std@@V?$allocator@V?$basic_string@DU?$char_traits@D@std@@V?$allocator@D@2@@std@@@2@@2@@std@@PAX@std@@@1@QAU?$pair@$$CBV?$basic_string@DU?$char_traits@D@std@@V?$allocator@D@2@@std@@V?$vector@V?$basic_string@DU?$char_traits@D@std@@V?$allocator@D@2@@std@@V?$allocator@V?$basic_string@DU?$char_traits@D@std@@V?$allocator@D@2@@std@@@2@@2@@1@@Z ENDP ; std::_Default_allocator_traits<std::allocator<std::_Tree_node<std::pair<std::basic_string<char,std::char_traits<char>,std::allocator<char> > const ,std::vector<std::basic_string<char,std::char_traits<char>,std::allocator<char> >,std::allocator<std::basic_string<char,std::char_traits<char>,std::allocator<char> > > > >,void *> > >::destroy<std::pair<std::basic_string<char,std::char_traits<char>,std::allocator<char> > const ,std::vector<std::basic_string<char,std::char_traits<char>,std::allocator<char> >,std::allocator<std::basic_string<char,std::char_traits<char>,std::allocator<char> > > > > >
_TEXT	ENDS
; Function compile flags: /Ogtp
; File C:\Program Files (x86)\Microsoft Visual Studio\2019\Professional\VC\Tools\MSVC\14.29.30133\include\xtree
; File C:\Program Files (x86)\Microsoft Visual Studio\2019\Professional\VC\Tools\MSVC\14.29.30133\include\utility
; File C:\Program Files (x86)\Microsoft Visual Studio\2019\Professional\VC\Tools\MSVC\14.29.30133\include\xtree
; File C:\Program Files (x86)\Microsoft Visual Studio\2019\Professional\VC\Tools\MSVC\14.29.30133\include\xmemory
; File C:\Program Files (x86)\Microsoft Visual Studio\2019\Professional\VC\Tools\MSVC\14.29.30133\include\xtree
; File C:\Program Files (x86)\Microsoft Visual Studio\2019\Professional\VC\Tools\MSVC\14.29.30133\include\xmemory
; File C:\Program Files (x86)\Microsoft Visual Studio\2019\Professional\VC\Tools\MSVC\14.29.30133\include\xtree
;	COMDAT ??$_Erase_tree@V?$allocator@U?$_Tree_node@U?$pair@$$CBV?$basic_string@DU?$char_traits@D@std@@V?$allocator@D@2@@std@@V?$vector@V?$basic_string@DU?$char_traits@D@std@@V?$allocator@D@2@@std@@V?$allocator@V?$basic_string@DU?$char_traits@D@std@@V?$allocator@D@2@@std@@@2@@2@@std@@PAX@std@@@std@@@?$_Tree_val@U?$_Tree_simple_types@U?$pair@$$CBV?$basic_string@DU?$char_traits@D@std@@V?$allocator@D@2@@std@@V?$vector@V?$basic_string@DU?$char_traits@D@std@@V?$allocator@D@2@@std@@V?$allocator@V?$basic_string@DU?$char_traits@D@std@@V?$allocator@D@2@@std@@@2@@2@@std@@@std@@@std@@QAEXAAV?$allocator@U?$_Tree_node@U?$pair@$$CBV?$basic_string@DU?$char_traits@D@std@@V?$allocator@D@2@@std@@V?$vector@V?$basic_string@DU?$char_traits@D@std@@V?$allocator@D@2@@std@@V?$allocator@V?$basic_string@DU?$char_traits@D@std@@V?$allocator@D@2@@std@@@2@@2@@std@@PAX@std@@@1@PAU?$_Tree_node@U?$pair@$$CBV?$basic_string@DU?$char_traits@D@std@@V?$allocator@D@2@@std@@V?$vector@V?$basic_string@DU?$char_traits@D@std@@V?$allocator@D@2@@std@@V?$allocator@V?$basic_string@DU?$char_traits@D@std@@V?$allocator@D@2@@std@@@2@@2@@std@@PAX@1@@Z
_TEXT	SEGMENT
_this$1$ = -4						; size = 4
__Al$ = 8						; size = 4
__Rootnode$ = 12					; size = 4
??$_Erase_tree@V?$allocator@U?$_Tree_node@U?$pair@$$CBV?$basic_string@DU?$char_traits@D@std@@V?$allocator@D@2@@std@@V?$vector@V?$basic_string@DU?$char_traits@D@std@@V?$allocator@D@2@@std@@V?$allocator@V?$basic_string@DU?$char_traits@D@std@@V?$allocator@D@2@@std@@@2@@2@@std@@PAX@std@@@std@@@?$_Tree_val@U?$_Tree_simple_types@U?$pair@$$CBV?$basic_string@DU?$char_traits@D@std@@V?$allocator@D@2@@std@@V?$vector@V?$basic_string@DU?$char_traits@D@std@@V?$allocator@D@2@@std@@V?$allocator@V?$basic_string@DU?$char_traits@D@std@@V?$allocator@D@2@@std@@@2@@2@@std@@@std@@@std@@QAEXAAV?$allocator@U?$_Tree_node@U?$pair@$$CBV?$basic_string@DU?$char_traits@D@std@@V?$allocator@D@2@@std@@V?$vector@V?$basic_string@DU?$char_traits@D@std@@V?$allocator@D@2@@std@@V?$allocator@V?$basic_string@DU?$char_traits@D@std@@V?$allocator@D@2@@std@@@2@@2@@std@@PAX@std@@@1@PAU?$_Tree_node@U?$pair@$$CBV?$basic_string@DU?$char_traits@D@std@@V?$allocator@D@2@@std@@V?$vector@V?$basic_string@DU?$char_traits@D@std@@V?$allocator@D@2@@std@@V?$allocator@V?$basic_string@DU?$char_traits@D@std@@V?$allocator@D@2@@std@@@2@@2@@std@@PAX@1@@Z PROC ; std::_Tree_val<std::_Tree_simple_types<std::pair<std::basic_string<char,std::char_traits<char>,std::allocator<char> > const ,std::vector<std::basic_string<char,std::char_traits<char>,std::allocator<char> >,std::allocator<std::basic_string<char,std::char_traits<char>,std::allocator<char> > > > > > >::_Erase_tree<std::allocator<std::_Tree_node<std::pair<std::basic_string<char,std::char_traits<char>,std::allocator<char> > const ,std::vector<std::basic_string<char,std::char_traits<char>,std::allocator<char> >,std::allocator<std::basic_string<char,std::char_traits<char>,std::allocator<char> > > > >,void *> > >, COMDAT
; _this$ = ecx

; 748  :     void _Erase_tree(_Alnode& _Al, _Nodeptr _Rootnode) noexcept {

  00000	55		 push	 ebp
  00001	8b ec		 mov	 ebp, esp
  00003	51		 push	 ecx
  00004	56		 push	 esi

; 749  :         while (!_Rootnode->_Isnil) { // free subtrees, then node

  00005	8b 75 0c	 mov	 esi, DWORD PTR __Rootnode$[ebp]
  00008	8b c1		 mov	 eax, ecx
  0000a	89 45 fc	 mov	 DWORD PTR _this$1$[ebp], eax
  0000d	80 7e 0d 00	 cmp	 BYTE PTR [esi+13], 0
  00011	75 34		 jne	 SHORT $LN3@Erase_tree
  00013	53		 push	 ebx
  00014	8b 5d 08	 mov	 ebx, DWORD PTR __Al$[ebp]
  00017	57		 push	 edi
$LL2@Erase_tree:

; 750  :             _Erase_tree(_Al, _Rootnode->_Right);

  00018	ff 76 08	 push	 DWORD PTR [esi+8]
  0001b	8b c8		 mov	 ecx, eax
  0001d	53		 push	 ebx
  0001e	e8 00 00 00 00	 call	 ??$_Erase_tree@V?$allocator@U?$_Tree_node@U?$pair@$$CBV?$basic_string@DU?$char_traits@D@std@@V?$allocator@D@2@@std@@V?$vector@V?$basic_string@DU?$char_traits@D@std@@V?$allocator@D@2@@std@@V?$allocator@V?$basic_string@DU?$char_traits@D@std@@V?$allocator@D@2@@std@@@2@@2@@std@@PAX@std@@@std@@@?$_Tree_val@U?$_Tree_simple_types@U?$pair@$$CBV?$basic_string@DU?$char_traits@D@std@@V?$allocator@D@2@@std@@V?$vector@V?$basic_string@DU?$char_traits@D@std@@V?$allocator@D@2@@std@@V?$allocator@V?$basic_string@DU?$char_traits@D@std@@V?$allocator@D@2@@std@@@2@@2@@std@@@std@@@std@@QAEXAAV?$allocator@U?$_Tree_node@U?$pair@$$CBV?$basic_string@DU?$char_traits@D@std@@V?$allocator@D@2@@std@@V?$vector@V?$basic_string@DU?$char_traits@D@std@@V?$allocator@D@2@@std@@V?$allocator@V?$basic_string@DU?$char_traits@D@std@@V?$allocator@D@2@@std@@@2@@2@@std@@PAX@std@@@1@PAU?$_Tree_node@U?$pair@$$CBV?$basic_string@DU?$char_traits@D@std@@V?$allocator@D@2@@std@@V?$vector@V?$basic_string@DU?$char_traits@D@std@@V?$allocator@D@2@@std@@V?$allocator@V?$basic_string@DU?$char_traits@D@std@@V?$allocator@D@2@@std@@@2@@2@@std@@PAX@1@@Z ; std::_Tree_val<std::_Tree_simple_types<std::pair<std::basic_string<char,std::char_traits<char>,std::allocator<char> > const ,std::vector<std::basic_string<char,std::char_traits<char>,std::allocator<char> >,std::allocator<std::basic_string<char,std::char_traits<char>,std::allocator<char> > > > > > >::_Erase_tree<std::allocator<std::_Tree_node<std::pair<std::basic_string<char,std::char_traits<char>,std::allocator<char> > const ,std::vector<std::basic_string<char,std::char_traits<char>,std::allocator<char> >,std::allocator<std::basic_string<char,std::char_traits<char>,std::allocator<char> > > > >,void *> > >
; File C:\Program Files (x86)\Microsoft Visual Studio\2019\Professional\VC\Tools\MSVC\14.29.30133\include\utility

; 616  :     _Ty _Old_val = static_cast<_Ty&&>(_Val);

  00023	8b fe		 mov	 edi, esi

; 617  :     _Val         = static_cast<_Other&&>(_New_val);

  00025	8b 36		 mov	 esi, DWORD PTR [esi]
; File C:\Program Files (x86)\Microsoft Visual Studio\2019\Professional\VC\Tools\MSVC\14.29.30133\include\xtree

; 385  :         allocator_traits<_Alloc>::destroy(_Al, _STD addressof(_Ptr->_Myval));

  00027	8d 47 10	 lea	 eax, DWORD PTR [edi+16]
  0002a	50		 push	 eax
  0002b	53		 push	 ebx
  0002c	e8 00 00 00 00	 call	 ??$destroy@U?$pair@$$CBV?$basic_string@DU?$char_traits@D@std@@V?$allocator@D@2@@std@@V?$vector@V?$basic_string@DU?$char_traits@D@std@@V?$allocator@D@2@@std@@V?$allocator@V?$basic_string@DU?$char_traits@D@std@@V?$allocator@D@2@@std@@@2@@2@@std@@@?$_Default_allocator_traits@V?$allocator@U?$_Tree_node@U?$pair@$$CBV?$basic_string@DU?$char_traits@D@std@@V?$allocator@D@2@@std@@V?$vector@V?$basic_string@DU?$char_traits@D@std@@V?$allocator@D@2@@std@@V?$allocator@V?$basic_string@DU?$char_traits@D@std@@V?$allocator@D@2@@std@@@2@@2@@std@@PAX@std@@@std@@@std@@SAXAAV?$allocator@U?$_Tree_node@U?$pair@$$CBV?$basic_string@DU?$char_traits@D@std@@V?$allocator@D@2@@std@@V?$vector@V?$basic_string@DU?$char_traits@D@std@@V?$allocator@D@2@@std@@V?$allocator@V?$basic_string@DU?$char_traits@D@std@@V?$allocator@D@2@@std@@@2@@2@@std@@PAX@std@@@1@QAU?$pair@$$CBV?$basic_string@DU?$char_traits@D@std@@V?$allocator@D@2@@std@@V?$vector@V?$basic_string@DU?$char_traits@D@std@@V?$allocator@D@2@@std@@V?$allocator@V?$basic_string@DU?$char_traits@D@std@@V?$allocator@D@2@@std@@@2@@2@@1@@Z ; std::_Default_allocator_traits<std::allocator<std::_Tree_node<std::pair<std::basic_string<char,std::char_traits<char>,std::allocator<char> > const ,std::vector<std::basic_string<char,std::char_traits<char>,std::allocator<char> >,std::allocator<std::basic_string<char,std::char_traits<char>,std::allocator<char> > > > >,void *> > >::destroy<std::pair<std::basic_string<char,std::char_traits<char>,std::allocator<char> > const ,std::vector<std::basic_string<char,std::char_traits<char>,std::allocator<char> >,std::allocator<std::basic_string<char,std::char_traits<char>,std::allocator<char> > > > > >
; File C:\Program Files (x86)\Microsoft Visual Studio\2019\Professional\VC\Tools\MSVC\14.29.30133\include\xmemory

; 264  :         ::operator delete(_Ptr, _Bytes);

  00031	6a 34		 push	 52			; 00000034H
  00033	57		 push	 edi
  00034	e8 00 00 00 00	 call	 ??3@YAXPAXI@Z		; operator delete
; File C:\Program Files (x86)\Microsoft Visual Studio\2019\Professional\VC\Tools\MSVC\14.29.30133\include\xtree

; 749  :         while (!_Rootnode->_Isnil) { // free subtrees, then node

  00039	8b 45 fc	 mov	 eax, DWORD PTR _this$1$[ebp]
; File C:\Program Files (x86)\Microsoft Visual Studio\2019\Professional\VC\Tools\MSVC\14.29.30133\include\xmemory

; 264  :         ::operator delete(_Ptr, _Bytes);

  0003c	83 c4 10	 add	 esp, 16			; 00000010H
; File C:\Program Files (x86)\Microsoft Visual Studio\2019\Professional\VC\Tools\MSVC\14.29.30133\include\xtree

; 749  :         while (!_Rootnode->_Isnil) { // free subtrees, then node

  0003f	80 7e 0d 00	 cmp	 BYTE PTR [esi+13], 0
  00043	74 d3		 je	 SHORT $LL2@Erase_tree
  00045	5f		 pop	 edi
  00046	5b		 pop	 ebx
$LN3@Erase_tree:
  00047	5e		 pop	 esi

; 751  :             _Alnode::value_type::_Freenode(_Al, _STD exchange(_Rootnode, _Rootnode->_Left));
; 752  :         }
; 753  :     }

  00048	8b e5		 mov	 esp, ebp
  0004a	5d		 pop	 ebp
  0004b	c2 08 00	 ret	 8
??$_Erase_tree@V?$allocator@U?$_Tree_node@U?$pair@$$CBV?$basic_string@DU?$char_traits@D@std@@V?$allocator@D@2@@std@@V?$vector@V?$basic_string@DU?$char_traits@D@std@@V?$allocator@D@2@@std@@V?$allocator@V?$basic_string@DU?$char_traits@D@std@@V?$allocator@D@2@@std@@@2@@2@@std@@PAX@std@@@std@@@?$_Tree_val@U?$_Tree_simple_types@U?$pair@$$CBV?$basic_string@DU?$char_traits@D@std@@V?$allocator@D@2@@std@@V?$vector@V?$basic_string@DU?$char_traits@D@std@@V?$allocator@D@2@@std@@V?$allocator@V?$basic_string@DU?$char_traits@D@std@@V?$allocator@D@2@@std@@@2@@2@@std@@@std@@@std@@QAEXAAV?$allocator@U?$_Tree_node@U?$pair@$$CBV?$basic_string@DU?$char_traits@D@std@@V?$allocator@D@2@@std@@V?$vector@V?$basic_string@DU?$char_traits@D@std@@V?$allocator@D@2@@std@@V?$allocator@V?$basic_string@DU?$char_traits@D@std@@V?$allocator@D@2@@std@@@2@@2@@std@@PAX@std@@@1@PAU?$_Tree_node@U?$pair@$$CBV?$basic_string@DU?$char_traits@D@std@@V?$allocator@D@2@@std@@V?$vector@V?$basic_string@DU?$char_traits@D@std@@V?$allocator@D@2@@std@@V?$allocator@V?$basic_string@DU?$char_traits@D@std@@V?$allocator@D@2@@std@@@2@@2@@std@@PAX@1@@Z ENDP ; std::_Tree_val<std::_Tree_simple_types<std::pair<std::basic_string<char,std::char_traits<char>,std::allocator<char> > const ,std::vector<std::basic_string<char,std::char_traits<char>,std::allocator<char> >,std::allocator<std::basic_string<char,std::char_traits<char>,std::allocator<char> > > > > > >::_Erase_tree<std::allocator<std::_Tree_node<std::pair<std::basic_string<char,std::char_traits<char>,std::allocator<char> > const ,std::vector<std::basic_string<char,std::char_traits<char>,std::allocator<char> >,std::allocator<std::basic_string<char,std::char_traits<char>,std::allocator<char> > > > >,void *> > >
_TEXT	ENDS
; Function compile flags: /Ogtp
; File C:\Program Files (x86)\Microsoft Visual Studio\2019\Professional\VC\Tools\MSVC\14.29.30133\include\xmemory
;	COMDAT ??1?$_Alloc_construct_ptr@V?$allocator@U?$_Tree_node@U?$pair@$$CBV?$basic_string@DU?$char_traits@D@std@@V?$allocator@D@2@@std@@V?$vector@V?$basic_string@DU?$char_traits@D@std@@V?$allocator@D@2@@std@@V?$allocator@V?$basic_string@DU?$char_traits@D@std@@V?$allocator@D@2@@std@@@2@@2@@std@@PAX@std@@@std@@@std@@QAE@XZ
_TEXT	SEGMENT
??1?$_Alloc_construct_ptr@V?$allocator@U?$_Tree_node@U?$pair@$$CBV?$basic_string@DU?$char_traits@D@std@@V?$allocator@D@2@@std@@V?$vector@V?$basic_string@DU?$char_traits@D@std@@V?$allocator@D@2@@std@@V?$allocator@V?$basic_string@DU?$char_traits@D@std@@V?$allocator@D@2@@std@@@2@@2@@std@@PAX@std@@@std@@@std@@QAE@XZ PROC ; std::_Alloc_construct_ptr<std::allocator<std::_Tree_node<std::pair<std::basic_string<char,std::char_traits<char>,std::allocator<char> > const ,std::vector<std::basic_string<char,std::char_traits<char>,std::allocator<char> >,std::allocator<std::basic_string<char,std::char_traits<char>,std::allocator<char> > > > >,void *> > >::~_Alloc_construct_ptr<std::allocator<std::_Tree_node<std::pair<std::basic_string<char,std::char_traits<char>,std::allocator<char> > const ,std::vector<std::basic_string<char,std::char_traits<char>,std::allocator<char> >,std::allocator<std::basic_string<char,std::char_traits<char>,std::allocator<char> > > > >,void *> > >, COMDAT
; _this$ = ecx

; 1024 :         if (_Ptr) {

  00000	8b 41 04	 mov	 eax, DWORD PTR [ecx+4]
  00003	85 c0		 test	 eax, eax
  00005	74 0b		 je	 SHORT $LN8@Alloc_cons

; 264  :         ::operator delete(_Ptr, _Bytes);

  00007	6a 34		 push	 52			; 00000034H
  00009	50		 push	 eax
  0000a	e8 00 00 00 00	 call	 ??3@YAXPAXI@Z		; operator delete
  0000f	83 c4 08	 add	 esp, 8
$LN8@Alloc_cons:

; 1025 :             _Al.deallocate(_Ptr, 1);
; 1026 :         }
; 1027 :     }

  00012	c3		 ret	 0
??1?$_Alloc_construct_ptr@V?$allocator@U?$_Tree_node@U?$pair@$$CBV?$basic_string@DU?$char_traits@D@std@@V?$allocator@D@2@@std@@V?$vector@V?$basic_string@DU?$char_traits@D@std@@V?$allocator@D@2@@std@@V?$allocator@V?$basic_string@DU?$char_traits@D@std@@V?$allocator@D@2@@std@@@2@@2@@std@@PAX@std@@@std@@@std@@QAE@XZ ENDP ; std::_Alloc_construct_ptr<std::allocator<std::_Tree_node<std::pair<std::basic_string<char,std::char_traits<char>,std::allocator<char> > const ,std::vector<std::basic_string<char,std::char_traits<char>,std::allocator<char> >,std::allocator<std::basic_string<char,std::char_traits<char>,std::allocator<char> > > > >,void *> > >::~_Alloc_construct_ptr<std::allocator<std::_Tree_node<std::pair<std::basic_string<char,std::char_traits<char>,std::allocator<char> > const ,std::vector<std::basic_string<char,std::char_traits<char>,std::allocator<char> >,std::allocator<std::basic_string<char,std::char_traits<char>,std::allocator<char> > > > >,void *> > >
_TEXT	ENDS
; Function compile flags: /Ogtp
; File C:\Program Files (x86)\Microsoft Visual Studio\2019\Professional\VC\Tools\MSVC\14.29.30133\include\xtree
; File C:\Program Files (x86)\Microsoft Visual Studio\2019\Professional\VC\Tools\MSVC\14.29.30133\include\xstddef
; File C:\Program Files (x86)\Microsoft Visual Studio\2019\Professional\VC\Tools\MSVC\14.29.30133\include\xtree
;	COMDAT ??$_Find_lower_bound@V?$basic_string@DU?$char_traits@D@std@@V?$allocator@D@2@@std@@@?$_Tree@V?$_Tmap_traits@V?$basic_string@DU?$char_traits@D@std@@V?$allocator@D@2@@std@@V?$vector@V?$basic_string@DU?$char_traits@D@std@@V?$allocator@D@2@@std@@V?$allocator@V?$basic_string@DU?$char_traits@D@std@@V?$allocator@D@2@@std@@@2@@2@U?$less@V?$basic_string@DU?$char_traits@D@std@@V?$allocator@D@2@@std@@@2@V?$allocator@U?$pair@$$CBV?$basic_string@DU?$char_traits@D@std@@V?$allocator@D@2@@std@@V?$vector@V?$basic_string@DU?$char_traits@D@std@@V?$allocator@D@2@@std@@V?$allocator@V?$basic_string@DU?$char_traits@D@std@@V?$allocator@D@2@@std@@@2@@2@@std@@@2@$0A@@std@@@std@@IBE?AU?$_Tree_find_result@PAU?$_Tree_node@U?$pair@$$CBV?$basic_string@DU?$char_traits@D@std@@V?$allocator@D@2@@std@@V?$vector@V?$basic_string@DU?$char_traits@D@std@@V?$allocator@D@2@@std@@V?$allocator@V?$basic_string@DU?$char_traits@D@std@@V?$allocator@D@2@@std@@@2@@2@@std@@PAX@std@@@1@ABV?$basic_string@DU?$char_traits@D@std@@V?$allocator@D@2@@1@@Z
_TEXT	SEGMENT
___$ReturnUdt$ = 8					; size = 4
__Keyval$ = 12						; size = 4
??$_Find_lower_bound@V?$basic_string@DU?$char_traits@D@std@@V?$allocator@D@2@@std@@@?$_Tree@V?$_Tmap_traits@V?$basic_string@DU?$char_traits@D@std@@V?$allocator@D@2@@std@@V?$vector@V?$basic_string@DU?$char_traits@D@std@@V?$allocator@D@2@@std@@V?$allocator@V?$basic_string@DU?$char_traits@D@std@@V?$allocator@D@2@@std@@@2@@2@U?$less@V?$basic_string@DU?$char_traits@D@std@@V?$allocator@D@2@@std@@@2@V?$allocator@U?$pair@$$CBV?$basic_string@DU?$char_traits@D@std@@V?$allocator@D@2@@std@@V?$vector@V?$basic_string@DU?$char_traits@D@std@@V?$allocator@D@2@@std@@V?$allocator@V?$basic_string@DU?$char_traits@D@std@@V?$allocator@D@2@@std@@@2@@2@@std@@@2@$0A@@std@@@std@@IBE?AU?$_Tree_find_result@PAU?$_Tree_node@U?$pair@$$CBV?$basic_string@DU?$char_traits@D@std@@V?$allocator@D@2@@std@@V?$vector@V?$basic_string@DU?$char_traits@D@std@@V?$allocator@D@2@@std@@V?$allocator@V?$basic_string@DU?$char_traits@D@std@@V?$allocator@D@2@@std@@@2@@2@@std@@PAX@std@@@1@ABV?$basic_string@DU?$char_traits@D@std@@V?$allocator@D@2@@1@@Z PROC ; std::_Tree<std::_Tmap_traits<std::basic_string<char,std::char_traits<char>,std::allocator<char> >,std::vector<std::basic_string<char,std::char_traits<char>,std::allocator<char> >,std::allocator<std::basic_string<char,std::char_traits<char>,std::allocator<char> > > >,std::less<std::basic_string<char,std::char_traits<char>,std::allocator<char> > >,std::allocator<std::pair<std::basic_string<char,std::char_traits<char>,std::allocator<char> > const ,std::vector<std::basic_string<char,std::char_traits<char>,std::allocator<char> >,std::allocator<std::basic_string<char,std::char_traits<char>,std::allocator<char> > > > > >,0> >::_Find_lower_bound<std::basic_string<char,std::char_traits<char>,std::allocator<char> > >, COMDAT
; _this$ = ecx

; 1603 :     _Tree_find_result<_Nodeptr> _Find_lower_bound(const _Keyty& _Keyval) const {

  00000	55		 push	 ebp
  00001	8b ec		 mov	 ebp, esp

; 1604 :         const auto _Scary = _Get_scary();
; 1605 :         _Tree_find_result<_Nodeptr> _Result{{_Scary->_Myhead->_Parent, _Tree_child::_Right}, _Scary->_Myhead};

  00003	8b 01		 mov	 eax, DWORD PTR [ecx]
  00005	56		 push	 esi
  00006	57		 push	 edi
  00007	8b 7d 08	 mov	 edi, DWORD PTR ___$ReturnUdt$[ebp]
  0000a	8b 70 04	 mov	 esi, DWORD PTR [eax+4]
  0000d	89 37		 mov	 DWORD PTR [edi], esi

; 1606 :         _Nodeptr _Trynode = _Result._Location._Parent;
; 1607 :         while (!_Trynode->_Isnil) {

  0000f	80 7e 0d 00	 cmp	 BYTE PTR [esi+13], 0
  00013	c7 47 04 00 00
	00 00		 mov	 DWORD PTR [edi+4], 0
  0001a	89 47 08	 mov	 DWORD PTR [edi+8], eax
  0001d	75 32		 jne	 SHORT $LN12@Find_lower
  0001f	53		 push	 ebx
  00020	8b 5d 0c	 mov	 ebx, DWORD PTR __Keyval$[ebp]
$LL2@Find_lower:

; 1609 :             if (_DEBUG_LT_PRED(_Getcomp(), _Traits::_Kfn(_Trynode->_Myval), _Keyval)) {

  00023	8d 46 10	 lea	 eax, DWORD PTR [esi+16]
  00026	89 37		 mov	 DWORD PTR [edi], esi
; File C:\Program Files (x86)\Microsoft Visual Studio\2019\Professional\VC\Tools\MSVC\14.29.30133\include\xstddef

; 127  :         return _Left < _Right;

  00028	53		 push	 ebx
  00029	50		 push	 eax
  0002a	e8 00 00 00 00	 call	 ??$?MDU?$char_traits@D@std@@V?$allocator@D@1@@std@@YA_NABV?$basic_string@DU?$char_traits@D@std@@V?$allocator@D@2@@0@0@Z ; std::operator<<char,std::char_traits<char>,std::allocator<char> >
  0002f	83 c4 08	 add	 esp, 8
; File C:\Program Files (x86)\Microsoft Visual Studio\2019\Professional\VC\Tools\MSVC\14.29.30133\include\xtree

; 1609 :             if (_DEBUG_LT_PRED(_Getcomp(), _Traits::_Kfn(_Trynode->_Myval), _Keyval)) {

  00032	84 c0		 test	 al, al
  00034	74 07		 je	 SHORT $LN4@Find_lower

; 1610 :                 _Result._Location._Child = _Tree_child::_Right;
; 1611 :                 _Trynode                 = _Trynode->_Right;

  00036	8b 76 08	 mov	 esi, DWORD PTR [esi+8]
  00039	33 c0		 xor	 eax, eax

; 1612 :             } else {

  0003b	eb 0a		 jmp	 SHORT $LN5@Find_lower
$LN4@Find_lower:

; 1613 :                 _Result._Location._Child = _Tree_child::_Left;
; 1614 :                 _Result._Bound           = _Trynode;

  0003d	89 77 08	 mov	 DWORD PTR [edi+8], esi

; 1615 :                 _Trynode                 = _Trynode->_Left;

  00040	b8 01 00 00 00	 mov	 eax, 1
  00045	8b 36		 mov	 esi, DWORD PTR [esi]
$LN5@Find_lower:

; 1606 :         _Nodeptr _Trynode = _Result._Location._Parent;
; 1607 :         while (!_Trynode->_Isnil) {

  00047	89 47 04	 mov	 DWORD PTR [edi+4], eax
  0004a	80 7e 0d 00	 cmp	 BYTE PTR [esi+13], 0
  0004e	74 d3		 je	 SHORT $LL2@Find_lower

; 1616 :             }
; 1617 :         }
; 1618 : 
; 1619 :         return _Result;

  00050	5b		 pop	 ebx
$LN12@Find_lower:

; 1620 :     }

  00051	8b c7		 mov	 eax, edi
  00053	5f		 pop	 edi
  00054	5e		 pop	 esi
  00055	5d		 pop	 ebp
  00056	c2 08 00	 ret	 8
??$_Find_lower_bound@V?$basic_string@DU?$char_traits@D@std@@V?$allocator@D@2@@std@@@?$_Tree@V?$_Tmap_traits@V?$basic_string@DU?$char_traits@D@std@@V?$allocator@D@2@@std@@V?$vector@V?$basic_string@DU?$char_traits@D@std@@V?$allocator@D@2@@std@@V?$allocator@V?$basic_string@DU?$char_traits@D@std@@V?$allocator@D@2@@std@@@2@@2@U?$less@V?$basic_string@DU?$char_traits@D@std@@V?$allocator@D@2@@std@@@2@V?$allocator@U?$pair@$$CBV?$basic_string@DU?$char_traits@D@std@@V?$allocator@D@2@@std@@V?$vector@V?$basic_string@DU?$char_traits@D@std@@V?$allocator@D@2@@std@@V?$allocator@V?$basic_string@DU?$char_traits@D@std@@V?$allocator@D@2@@std@@@2@@2@@std@@@2@$0A@@std@@@std@@IBE?AU?$_Tree_find_result@PAU?$_Tree_node@U?$pair@$$CBV?$basic_string@DU?$char_traits@D@std@@V?$allocator@D@2@@std@@V?$vector@V?$basic_string@DU?$char_traits@D@std@@V?$allocator@D@2@@std@@V?$allocator@V?$basic_string@DU?$char_traits@D@std@@V?$allocator@D@2@@std@@@2@@2@@std@@PAX@std@@@1@ABV?$basic_string@DU?$char_traits@D@std@@V?$allocator@D@2@@1@@Z ENDP ; std::_Tree<std::_Tmap_traits<std::basic_string<char,std::char_traits<char>,std::allocator<char> >,std::vector<std::basic_string<char,std::char_traits<char>,std::allocator<char> >,std::allocator<std::basic_string<char,std::char_traits<char>,std::allocator<char> > > >,std::less<std::basic_string<char,std::char_traits<char>,std::allocator<char> > >,std::allocator<std::pair<std::basic_string<char,std::char_traits<char>,std::allocator<char> > const ,std::vector<std::basic_string<char,std::char_traits<char>,std::allocator<char> >,std::allocator<std::basic_string<char,std::char_traits<char>,std::allocator<char> > > > > >,0> >::_Find_lower_bound<std::basic_string<char,std::char_traits<char>,std::allocator<char> > >
_TEXT	ENDS
; Function compile flags: /Ogtp
; File C:\Program Files (x86)\Microsoft Visual Studio\2019\Professional\VC\Tools\MSVC\14.29.30133\include\vector
; File C:\Program Files (x86)\Microsoft Visual Studio\2019\Professional\VC\Tools\MSVC\14.29.30133\include\xmemory
; File C:\Program Files (x86)\Microsoft Visual Studio\2019\Professional\VC\Tools\MSVC\14.29.30133\include\vector
; File C:\Program Files (x86)\Microsoft Visual Studio\2019\Professional\VC\Tools\MSVC\14.29.30133\include\xmemory
; File C:\Program Files (x86)\Microsoft Visual Studio\2019\Professional\VC\Tools\MSVC\14.29.30133\include\vector
; File C:\Program Files (x86)\Microsoft Visual Studio\2019\Professional\VC\Tools\MSVC\14.29.30133\include\xmemory
; File C:\Program Files (x86)\Microsoft Visual Studio\2019\Professional\VC\Tools\MSVC\14.29.30133\include\vector
; File C:\Program Files (x86)\Microsoft Visual Studio\2019\Professional\VC\Tools\MSVC\14.29.30133\include\xmemory
; File C:\Program Files (x86)\Microsoft Visual Studio\2019\Professional\VC\Tools\MSVC\14.29.30133\include\vector
; File C:\Program Files (x86)\Microsoft Visual Studio\2019\Professional\VC\Tools\MSVC\14.29.30133\include\xmemory
; File C:\Program Files (x86)\Microsoft Visual Studio\2019\Professional\VC\Tools\MSVC\14.29.30133\include\vector
; File C:\Program Files (x86)\Microsoft Visual Studio\2019\Professional\VC\Tools\MSVC\14.29.30133\include\xmemory
; File C:\Program Files (x86)\Microsoft Visual Studio\2019\Professional\VC\Tools\MSVC\14.29.30133\include\vector
; File C:\Program Files (x86)\Microsoft Visual Studio\2019\Professional\VC\Tools\MSVC\14.29.30133\include\xmemory
; File C:\Program Files (x86)\Microsoft Visual Studio\2019\Professional\VC\Tools\MSVC\14.29.30133\include\vector
; File C:\Program Files (x86)\Microsoft Visual Studio\2019\Professional\VC\Tools\MSVC\14.29.30133\include\xmemory
; File C:\Program Files (x86)\Microsoft Visual Studio\2019\Professional\VC\Tools\MSVC\14.29.30133\include\vector
; File C:\Program Files (x86)\Microsoft Visual Studio\2019\Professional\VC\Tools\MSVC\14.29.30133\include\xmemory
; File C:\Program Files (x86)\Microsoft Visual Studio\2019\Professional\VC\Tools\MSVC\14.29.30133\include\vector
;	COMDAT ??$_Emplace_reallocate@ABQAVCTerrain@@@?$vector@PAVCTerrain@@V?$allocator@PAVCTerrain@@@std@@@std@@QAEPAPAVCTerrain@@QAPAV2@ABQAV2@@Z
_TEXT	SEGMENT
__Newsize$1$ = -8					; size = 4
tv641 = -4						; size = 4
__Whereoff$1$ = -4					; size = 4
__Whereptr$ = 8						; size = 4
_<_Val_0>$ = 12						; size = 4
??$_Emplace_reallocate@ABQAVCTerrain@@@?$vector@PAVCTerrain@@V?$allocator@PAVCTerrain@@@std@@@std@@QAEPAPAVCTerrain@@QAPAV2@ABQAV2@@Z PROC ; std::vector<CTerrain *,std::allocator<CTerrain *> >::_Emplace_reallocate<CTerrain * const &>, COMDAT
; _this$ = ecx

; 765  :     _CONSTEXPR20_CONTAINER pointer _Emplace_reallocate(const pointer _Whereptr, _Valty&&... _Val) {

  00000	55		 push	 ebp
  00001	8b ec		 mov	 ebp, esp
  00003	83 ec 08	 sub	 esp, 8

; 766  :         // reallocate and insert by perfectly forwarding _Val at _Whereptr
; 767  :         _Alty& _Al        = _Getal();
; 768  :         auto& _My_data    = _Mypair._Myval2;
; 769  :         pointer& _Myfirst = _My_data._Myfirst;
; 770  :         pointer& _Mylast  = _My_data._Mylast;
; 771  : 
; 772  :         _STL_INTERNAL_CHECK(_Mylast == _My_data._Myend); // check that we have no unused capacity
; 773  : 
; 774  :         const auto _Whereoff = static_cast<size_type>(_Whereptr - _Myfirst);

  00006	8b 45 08	 mov	 eax, DWORD PTR __Whereptr$[ebp]
  00009	53		 push	 ebx
  0000a	56		 push	 esi
  0000b	8b f1		 mov	 esi, ecx
  0000d	57		 push	 edi
  0000e	8b 0e		 mov	 ecx, DWORD PTR [esi]
  00010	2b c1		 sub	 eax, ecx
  00012	c1 f8 02	 sar	 eax, 2
  00015	89 45 fc	 mov	 DWORD PTR __Whereoff$1$[ebp], eax

; 775  :         const auto _Oldsize  = static_cast<size_type>(_Mylast - _Myfirst);

  00018	8b 46 04	 mov	 eax, DWORD PTR [esi+4]
  0001b	2b c1		 sub	 eax, ecx
  0001d	c1 f8 02	 sar	 eax, 2

; 776  : 
; 777  :         if (_Oldsize == max_size()) {

  00020	3d ff ff ff 3f	 cmp	 eax, 1073741823		; 3fffffffH
  00025	0f 84 06 01 00
	00		 je	 $LN96@Emplace_re

; 1559 :         return static_cast<size_type>(_My_data._Myend - _My_data._Myfirst);

  0002b	8b 56 08	 mov	 edx, DWORD PTR [esi+8]

; 779  :         }
; 780  : 
; 781  :         const size_type _Newsize     = _Oldsize + 1;

  0002e	8d 78 01	 lea	 edi, DWORD PTR [eax+1]

; 1559 :         return static_cast<size_type>(_My_data._Myend - _My_data._Myfirst);

  00031	2b d1		 sub	 edx, ecx

; 779  :         }
; 780  : 
; 781  :         const size_type _Newsize     = _Oldsize + 1;

  00033	89 7d f8	 mov	 DWORD PTR __Newsize$1$[ebp], edi

; 1559 :         return static_cast<size_type>(_My_data._Myend - _My_data._Myfirst);

  00036	c1 fa 02	 sar	 edx, 2

; 1688 :         if (_Oldcapacity > _Max - _Oldcapacity / 2) {

  00039	b8 ff ff ff 3f	 mov	 eax, 1073741823		; 3fffffffH
  0003e	8b ca		 mov	 ecx, edx
  00040	d1 e9		 shr	 ecx, 1
  00042	2b c1		 sub	 eax, ecx
  00044	3b d0		 cmp	 edx, eax
  00046	76 12		 jbe	 SHORT $LN12@Emplace_re

; 1689 :             return _Max; // geometric growth would overflow

  00048	bb fc ff ff ff	 mov	 ebx, -4			; fffffffcH
; File C:\Program Files (x86)\Microsoft Visual Studio\2019\Professional\VC\Tools\MSVC\14.29.30133\include\xmemory

; 238  :             return _Allocate_manually_vector_aligned<_Traits>(_Bytes);

  0004d	53		 push	 ebx
  0004e	e8 00 00 00 00	 call	 ??$_Allocate_manually_vector_aligned@U_Default_allocate_traits@std@@@std@@YAPAXI@Z ; std::_Allocate_manually_vector_aligned<std::_Default_allocate_traits>
  00053	83 c4 04	 add	 esp, 4
  00056	8b f8		 mov	 edi, eax
  00058	eb 41		 jmp	 SHORT $LN23@Emplace_re
$LN12@Emplace_re:
; File C:\Program Files (x86)\Microsoft Visual Studio\2019\Professional\VC\Tools\MSVC\14.29.30133\include\vector

; 1692 :         const size_type _Geometric = _Oldcapacity + _Oldcapacity / 2;

  0005a	8d 04 11	 lea	 eax, DWORD PTR [ecx+edx]
; File C:\Program Files (x86)\Microsoft Visual Studio\2019\Professional\VC\Tools\MSVC\14.29.30133\include\xmemory

; 64   :         if (_Count > _Max_possible) {

  0005d	8b df		 mov	 ebx, edi
  0005f	3b c7		 cmp	 eax, edi
  00061	0f 43 d8	 cmovae	 ebx, eax
  00064	81 fb ff ff ff
	3f		 cmp	 ebx, 1073741823		; 3fffffffH
  0006a	0f 87 c6 00 00
	00		 ja	 $LN97@Emplace_re

; 66   :         }
; 67   :     }
; 68   : 
; 69   :     return _Count * _Ty_size;

  00070	c1 e3 02	 shl	 ebx, 2

; 237  :         if (_Bytes >= _Big_allocation_threshold) { // boost the alignment of big allocations to help autovectorization

  00073	81 fb 00 10 00
	00		 cmp	 ebx, 4096		; 00001000H
  00079	72 0d		 jb	 SHORT $LN24@Emplace_re

; 238  :             return _Allocate_manually_vector_aligned<_Traits>(_Bytes);

  0007b	53		 push	 ebx
  0007c	e8 00 00 00 00	 call	 ??$_Allocate_manually_vector_aligned@U_Default_allocate_traits@std@@@std@@YAPAXI@Z ; std::_Allocate_manually_vector_aligned<std::_Default_allocate_traits>
  00081	83 c4 04	 add	 esp, 4
  00084	8b f8		 mov	 edi, eax
  00086	eb 13		 jmp	 SHORT $LN23@Emplace_re
$LN24@Emplace_re:

; 239  :         }
; 240  :     }
; 241  : #endif // defined(_M_IX86) || defined(_M_X64)
; 242  : 
; 243  :     if (_Bytes != 0) {

  00088	85 db		 test	 ebx, ebx
  0008a	74 0d		 je	 SHORT $LN25@Emplace_re

; 85   :         return ::operator new(_Bytes);

  0008c	53		 push	 ebx
  0008d	e8 00 00 00 00	 call	 ??2@YAPAXI@Z		; operator new
  00092	83 c4 04	 add	 esp, 4

; 244  :         return _Traits::_Allocate(_Bytes);

  00095	8b f8		 mov	 edi, eax
  00097	eb 02		 jmp	 SHORT $LN23@Emplace_re
$LN25@Emplace_re:

; 245  :     }
; 246  : 
; 247  :     return nullptr;

  00099	33 ff		 xor	 edi, edi
$LN23@Emplace_re:
; File C:\Program Files (x86)\Microsoft Visual Studio\2019\Professional\VC\Tools\MSVC\14.29.30133\include\vector

; 789  :         _Alty_traits::construct(_Al, _Unfancy(_Newvec + _Whereoff), _STD forward<_Valty>(_Val)...);

  0009b	8b 45 fc	 mov	 eax, DWORD PTR __Whereoff$1$[ebp]
  0009e	8d 0c 87	 lea	 ecx, DWORD PTR [edi+eax*4]
  000a1	8b 45 0c	 mov	 eax, DWORD PTR _<_Val_0>$[ebp]
  000a4	89 4d fc	 mov	 DWORD PTR tv641[ebp], ecx
  000a7	8b 00		 mov	 eax, DWORD PTR [eax]
  000a9	89 01		 mov	 DWORD PTR [ecx], eax

; 790  :         _Constructed_first = _Newvec + _Whereoff;
; 791  : 
; 792  :         if (_Whereptr == _Mylast) { // at back, provide strong guarantee

  000ab	8b 4e 04	 mov	 ecx, DWORD PTR [esi+4]
  000ae	8b 45 08	 mov	 eax, DWORD PTR __Whereptr$[ebp]
  000b1	8b 16		 mov	 edx, DWORD PTR [esi]
  000b3	3b c1		 cmp	 eax, ecx
  000b5	75 04		 jne	 SHORT $LN4@Emplace_re
; File C:\Program Files (x86)\Microsoft Visual Studio\2019\Professional\VC\Tools\MSVC\14.29.30133\include\xmemory

; 1725 :             _Copy_memmove(_UFirst, _ULast, _Unfancy(_Dest));

  000b7	8b c7		 mov	 eax, edi
; File C:\Program Files (x86)\Microsoft Visual Studio\2019\Professional\VC\Tools\MSVC\14.29.30133\include\vector

; 794  :         } else { // provide basic guarantee

  000b9	eb 17		 jmp	 SHORT $LN60@Emplace_re
$LN4@Emplace_re:
; File C:\Program Files (x86)\Microsoft Visual Studio\2019\Professional\VC\Tools\MSVC\14.29.30133\include\xmemory

; 1725 :             _Copy_memmove(_UFirst, _ULast, _Unfancy(_Dest));

  000bb	57		 push	 edi
  000bc	50		 push	 eax
  000bd	52		 push	 edx
  000be	e8 00 00 00 00	 call	 ??$_Copy_memmove@PAPAVCTerrain@@PAPAV1@@std@@YAPAPAVCTerrain@@PAPAV1@00@Z ; std::_Copy_memmove<CTerrain * *,CTerrain * *>
; File C:\Program Files (x86)\Microsoft Visual Studio\2019\Professional\VC\Tools\MSVC\14.29.30133\include\vector

; 797  :             _Umove(_Whereptr, _Mylast, _Newvec + _Whereoff + 1);

  000c3	8b 45 fc	 mov	 eax, DWORD PTR tv641[ebp]
; File C:\Program Files (x86)\Microsoft Visual Studio\2019\Professional\VC\Tools\MSVC\14.29.30133\include\xmemory

; 1725 :             _Copy_memmove(_UFirst, _ULast, _Unfancy(_Dest));

  000c6	83 c4 0c	 add	 esp, 12			; 0000000cH
  000c9	8b 55 08	 mov	 edx, DWORD PTR __Whereptr$[ebp]
; File C:\Program Files (x86)\Microsoft Visual Studio\2019\Professional\VC\Tools\MSVC\14.29.30133\include\vector

; 797  :             _Umove(_Whereptr, _Mylast, _Newvec + _Whereoff + 1);

  000cc	83 c0 04	 add	 eax, 4
; File C:\Program Files (x86)\Microsoft Visual Studio\2019\Professional\VC\Tools\MSVC\14.29.30133\include\xmemory

; 1725 :             _Copy_memmove(_UFirst, _ULast, _Unfancy(_Dest));

  000cf	8b 4e 04	 mov	 ecx, DWORD PTR [esi+4]
$LN60@Emplace_re:
; File C:\Program Files (x86)\Microsoft Visual Studio\2019\Professional\VC\Tools\MSVC\14.29.30133\include\vector

; 797  :             _Umove(_Whereptr, _Mylast, _Newvec + _Whereoff + 1);

  000d2	50		 push	 eax
  000d3	51		 push	 ecx
  000d4	52		 push	 edx
  000d5	e8 00 00 00 00	 call	 ??$_Copy_memmove@PAPAVCTerrain@@PAPAV1@@std@@YAPAPAVCTerrain@@PAPAV1@00@Z ; std::_Copy_memmove<CTerrain * *,CTerrain * *>

; 1745 :         if (_Myfirst) { // destroy and deallocate old array

  000da	8b 06		 mov	 eax, DWORD PTR [esi]

; 797  :             _Umove(_Whereptr, _Mylast, _Newvec + _Whereoff + 1);

  000dc	83 c4 0c	 add	 esp, 12			; 0000000cH

; 1745 :         if (_Myfirst) { // destroy and deallocate old array

  000df	85 c0		 test	 eax, eax
  000e1	74 2c		 je	 SHORT $LN78@Emplace_re

; 1746 :             _Destroy(_Myfirst, _Mylast);
; 1747 :             _Getal().deallocate(_Myfirst, static_cast<size_type>(_Myend - _Myfirst));

  000e3	8b 4e 08	 mov	 ecx, DWORD PTR [esi+8]
  000e6	2b c8		 sub	 ecx, eax
; File C:\Program Files (x86)\Microsoft Visual Studio\2019\Professional\VC\Tools\MSVC\14.29.30133\include\xmemory

; 835  :         _Deallocate<_New_alignof<_Ty>>(_Ptr, sizeof(_Ty) * _Count);

  000e8	83 e1 fc	 and	 ecx, -4			; fffffffcH

; 260  :         if (_Bytes >= _Big_allocation_threshold) { // boost the alignment of big allocations to help autovectorization

  000eb	81 f9 00 10 00
	00		 cmp	 ecx, 4096		; 00001000H
  000f1	72 12		 jb	 SHORT $LN88@Emplace_re

; 158  :     const uintptr_t _Ptr_container   = _Ptr_user[-1];

  000f3	8b 50 fc	 mov	 edx, DWORD PTR [eax-4]
  000f6	83 c1 23	 add	 ecx, 35			; 00000023H

; 159  : 
; 160  :     // If the following asserts, it likely means that we are performing
; 161  :     // an aligned delete on memory coming from an unaligned allocation.
; 162  :     _STL_ASSERT(_Ptr_user[-2] == _Big_allocation_sentinel, "invalid argument");
; 163  : 
; 164  :     // Extra paranoia on aligned allocation/deallocation; ensure _Ptr_container is
; 165  :     // in range [_Min_back_shift, _Non_user_size]
; 166  : #ifdef _DEBUG
; 167  :     constexpr uintptr_t _Min_back_shift = 2 * sizeof(void*);
; 168  : #else // ^^^ _DEBUG ^^^ // vvv !_DEBUG vvv
; 169  :     constexpr uintptr_t _Min_back_shift = sizeof(void*);
; 170  : #endif // _DEBUG
; 171  :     const uintptr_t _Back_shift = reinterpret_cast<uintptr_t>(_Ptr) - _Ptr_container;

  000f9	2b c2		 sub	 eax, edx

; 172  :     _STL_VERIFY(_Back_shift >= _Min_back_shift && _Back_shift <= _Non_user_size, "invalid argument");

  000fb	83 c0 fc	 add	 eax, -4			; fffffffcH
  000fe	83 f8 1f	 cmp	 eax, 31			; 0000001fH
  00101	77 29		 ja	 SHORT $LN85@Emplace_re

; 173  :     _Ptr = reinterpret_cast<void*>(_Ptr_container);

  00103	8b c2		 mov	 eax, edx
$LN88@Emplace_re:

; 264  :         ::operator delete(_Ptr, _Bytes);

  00105	51		 push	 ecx
  00106	50		 push	 eax
  00107	e8 00 00 00 00	 call	 ??3@YAXPAXI@Z		; operator delete
  0010c	83 c4 08	 add	 esp, 8
$LN78@Emplace_re:
; File C:\Program Files (x86)\Microsoft Visual Studio\2019\Professional\VC\Tools\MSVC\14.29.30133\include\vector

; 1751 :         _Mylast  = _Newvec + _Newsize;

  0010f	8b 45 f8	 mov	 eax, DWORD PTR __Newsize$1$[ebp]
  00112	89 3e		 mov	 DWORD PTR [esi], edi
  00114	8d 0c 87	 lea	 ecx, DWORD PTR [edi+eax*4]

; 798  :         }
; 799  :         _CATCH_ALL
; 800  :         _Destroy(_Constructed_first, _Constructed_last);
; 801  :         _Al.deallocate(_Newvec, _Newcapacity);
; 802  :         _RERAISE;
; 803  :         _CATCH_END
; 804  : 
; 805  :         _Change_array(_Newvec, _Newsize, _Newcapacity);
; 806  :         return _Newvec + _Whereoff;

  00117	8b 45 fc	 mov	 eax, DWORD PTR tv641[ebp]

; 1751 :         _Mylast  = _Newvec + _Newsize;

  0011a	89 4e 04	 mov	 DWORD PTR [esi+4], ecx

; 1752 :         _Myend   = _Newvec + _Newcapacity;

  0011d	8d 0c 3b	 lea	 ecx, DWORD PTR [ebx+edi]

; 798  :         }
; 799  :         _CATCH_ALL
; 800  :         _Destroy(_Constructed_first, _Constructed_last);
; 801  :         _Al.deallocate(_Newvec, _Newcapacity);
; 802  :         _RERAISE;
; 803  :         _CATCH_END
; 804  : 
; 805  :         _Change_array(_Newvec, _Newsize, _Newcapacity);
; 806  :         return _Newvec + _Whereoff;

  00120	5f		 pop	 edi

; 1752 :         _Myend   = _Newvec + _Newcapacity;

  00121	89 4e 08	 mov	 DWORD PTR [esi+8], ecx

; 798  :         }
; 799  :         _CATCH_ALL
; 800  :         _Destroy(_Constructed_first, _Constructed_last);
; 801  :         _Al.deallocate(_Newvec, _Newcapacity);
; 802  :         _RERAISE;
; 803  :         _CATCH_END
; 804  : 
; 805  :         _Change_array(_Newvec, _Newsize, _Newcapacity);
; 806  :         return _Newvec + _Whereoff;

  00124	5e		 pop	 esi
  00125	5b		 pop	 ebx

; 807  :     }

  00126	8b e5		 mov	 esp, ebp
  00128	5d		 pop	 ebp
  00129	c2 08 00	 ret	 8
$LN85@Emplace_re:
; File C:\Program Files (x86)\Microsoft Visual Studio\2019\Professional\VC\Tools\MSVC\14.29.30133\include\xmemory

; 172  :     _STL_VERIFY(_Back_shift >= _Min_back_shift && _Back_shift <= _Non_user_size, "invalid argument");

  0012c	e8 00 00 00 00	 call	 __invalid_parameter_noinfo_noreturn
$LN96@Emplace_re:
; File C:\Program Files (x86)\Microsoft Visual Studio\2019\Professional\VC\Tools\MSVC\14.29.30133\include\vector

; 778  :             _Xlength();

  00131	e8 00 00 00 00	 call	 ?_Xlength@?$vector@PAVCTerrain@@V?$allocator@PAVCTerrain@@@std@@@std@@CAXXZ ; std::vector<CTerrain *,std::allocator<CTerrain *> >::_Xlength
$LN97@Emplace_re:
; File C:\Program Files (x86)\Microsoft Visual Studio\2019\Professional\VC\Tools\MSVC\14.29.30133\include\xmemory

; 65   :             _Throw_bad_array_new_length(); // multiply overflow

  00136	e8 00 00 00 00	 call	 ?_Throw_bad_array_new_length@std@@YAXXZ ; std::_Throw_bad_array_new_length
$LN94@Emplace_re:
  0013b	cc		 int	 3
??$_Emplace_reallocate@ABQAVCTerrain@@@?$vector@PAVCTerrain@@V?$allocator@PAVCTerrain@@@std@@@std@@QAEPAPAVCTerrain@@QAPAV2@ABQAV2@@Z ENDP ; std::vector<CTerrain *,std::allocator<CTerrain *> >::_Emplace_reallocate<CTerrain * const &>
_TEXT	ENDS
; Function compile flags: /Ogtp
; File C:\Program Files (x86)\Microsoft Visual Studio\2019\Professional\VC\Tools\MSVC\14.29.30133\include\vector
; File C:\Program Files (x86)\Microsoft Visual Studio\2019\Professional\VC\Tools\MSVC\14.29.30133\include\xmemory
; File C:\Program Files (x86)\Microsoft Visual Studio\2019\Professional\VC\Tools\MSVC\14.29.30133\include\vector
; File C:\Program Files (x86)\Microsoft Visual Studio\2019\Professional\VC\Tools\MSVC\14.29.30133\include\xmemory
; File C:\Program Files (x86)\Microsoft Visual Studio\2019\Professional\VC\Tools\MSVC\14.29.30133\include\vector
; File C:\Program Files (x86)\Microsoft Visual Studio\2019\Professional\VC\Tools\MSVC\14.29.30133\include\xmemory
; File C:\Program Files (x86)\Microsoft Visual Studio\2019\Professional\VC\Tools\MSVC\14.29.30133\include\vector
; File C:\Program Files (x86)\Microsoft Visual Studio\2019\Professional\VC\Tools\MSVC\14.29.30133\include\xmemory
; File C:\Program Files (x86)\Microsoft Visual Studio\2019\Professional\VC\Tools\MSVC\14.29.30133\include\vector
; File C:\Program Files (x86)\Microsoft Visual Studio\2019\Professional\VC\Tools\MSVC\14.29.30133\include\xmemory
; File C:\Program Files (x86)\Microsoft Visual Studio\2019\Professional\VC\Tools\MSVC\14.29.30133\include\vector
; File C:\Program Files (x86)\Microsoft Visual Studio\2019\Professional\VC\Tools\MSVC\14.29.30133\include\xmemory
; File C:\Program Files (x86)\Microsoft Visual Studio\2019\Professional\VC\Tools\MSVC\14.29.30133\include\vector
; File C:\Program Files (x86)\Microsoft Visual Studio\2019\Professional\VC\Tools\MSVC\14.29.30133\include\xmemory
; File C:\Program Files (x86)\Microsoft Visual Studio\2019\Professional\VC\Tools\MSVC\14.29.30133\include\vector
; File C:\Program Files (x86)\Microsoft Visual Studio\2019\Professional\VC\Tools\MSVC\14.29.30133\include\xmemory
; File C:\Program Files (x86)\Microsoft Visual Studio\2019\Professional\VC\Tools\MSVC\14.29.30133\include\vector
; File C:\Program Files (x86)\Microsoft Visual Studio\2019\Professional\VC\Tools\MSVC\14.29.30133\include\xmemory
; File C:\Program Files (x86)\Microsoft Visual Studio\2019\Professional\VC\Tools\MSVC\14.29.30133\include\vector
;	COMDAT ??$_Emplace_reallocate@ABQAVCArea@@@?$vector@PAVCArea@@V?$allocator@PAVCArea@@@std@@@std@@QAEPAPAVCArea@@QAPAV2@ABQAV2@@Z
_TEXT	SEGMENT
__Newsize$1$ = -8					; size = 4
tv641 = -4						; size = 4
__Whereoff$1$ = -4					; size = 4
__Whereptr$ = 8						; size = 4
_<_Val_0>$ = 12						; size = 4
??$_Emplace_reallocate@ABQAVCArea@@@?$vector@PAVCArea@@V?$allocator@PAVCArea@@@std@@@std@@QAEPAPAVCArea@@QAPAV2@ABQAV2@@Z PROC ; std::vector<CArea *,std::allocator<CArea *> >::_Emplace_reallocate<CArea * const &>, COMDAT
; _this$ = ecx

; 765  :     _CONSTEXPR20_CONTAINER pointer _Emplace_reallocate(const pointer _Whereptr, _Valty&&... _Val) {

  00000	55		 push	 ebp
  00001	8b ec		 mov	 ebp, esp
  00003	83 ec 08	 sub	 esp, 8

; 766  :         // reallocate and insert by perfectly forwarding _Val at _Whereptr
; 767  :         _Alty& _Al        = _Getal();
; 768  :         auto& _My_data    = _Mypair._Myval2;
; 769  :         pointer& _Myfirst = _My_data._Myfirst;
; 770  :         pointer& _Mylast  = _My_data._Mylast;
; 771  : 
; 772  :         _STL_INTERNAL_CHECK(_Mylast == _My_data._Myend); // check that we have no unused capacity
; 773  : 
; 774  :         const auto _Whereoff = static_cast<size_type>(_Whereptr - _Myfirst);

  00006	8b 45 08	 mov	 eax, DWORD PTR __Whereptr$[ebp]
  00009	53		 push	 ebx
  0000a	56		 push	 esi
  0000b	8b f1		 mov	 esi, ecx
  0000d	57		 push	 edi
  0000e	8b 0e		 mov	 ecx, DWORD PTR [esi]
  00010	2b c1		 sub	 eax, ecx
  00012	c1 f8 02	 sar	 eax, 2
  00015	89 45 fc	 mov	 DWORD PTR __Whereoff$1$[ebp], eax

; 775  :         const auto _Oldsize  = static_cast<size_type>(_Mylast - _Myfirst);

  00018	8b 46 04	 mov	 eax, DWORD PTR [esi+4]
  0001b	2b c1		 sub	 eax, ecx
  0001d	c1 f8 02	 sar	 eax, 2

; 776  : 
; 777  :         if (_Oldsize == max_size()) {

  00020	3d ff ff ff 3f	 cmp	 eax, 1073741823		; 3fffffffH
  00025	0f 84 06 01 00
	00		 je	 $LN96@Emplace_re

; 1559 :         return static_cast<size_type>(_My_data._Myend - _My_data._Myfirst);

  0002b	8b 56 08	 mov	 edx, DWORD PTR [esi+8]

; 779  :         }
; 780  : 
; 781  :         const size_type _Newsize     = _Oldsize + 1;

  0002e	8d 78 01	 lea	 edi, DWORD PTR [eax+1]

; 1559 :         return static_cast<size_type>(_My_data._Myend - _My_data._Myfirst);

  00031	2b d1		 sub	 edx, ecx

; 779  :         }
; 780  : 
; 781  :         const size_type _Newsize     = _Oldsize + 1;

  00033	89 7d f8	 mov	 DWORD PTR __Newsize$1$[ebp], edi

; 1559 :         return static_cast<size_type>(_My_data._Myend - _My_data._Myfirst);

  00036	c1 fa 02	 sar	 edx, 2

; 1688 :         if (_Oldcapacity > _Max - _Oldcapacity / 2) {

  00039	b8 ff ff ff 3f	 mov	 eax, 1073741823		; 3fffffffH
  0003e	8b ca		 mov	 ecx, edx
  00040	d1 e9		 shr	 ecx, 1
  00042	2b c1		 sub	 eax, ecx
  00044	3b d0		 cmp	 edx, eax
  00046	76 12		 jbe	 SHORT $LN12@Emplace_re

; 1689 :             return _Max; // geometric growth would overflow

  00048	bb fc ff ff ff	 mov	 ebx, -4			; fffffffcH
; File C:\Program Files (x86)\Microsoft Visual Studio\2019\Professional\VC\Tools\MSVC\14.29.30133\include\xmemory

; 238  :             return _Allocate_manually_vector_aligned<_Traits>(_Bytes);

  0004d	53		 push	 ebx
  0004e	e8 00 00 00 00	 call	 ??$_Allocate_manually_vector_aligned@U_Default_allocate_traits@std@@@std@@YAPAXI@Z ; std::_Allocate_manually_vector_aligned<std::_Default_allocate_traits>
  00053	83 c4 04	 add	 esp, 4
  00056	8b f8		 mov	 edi, eax
  00058	eb 41		 jmp	 SHORT $LN23@Emplace_re
$LN12@Emplace_re:
; File C:\Program Files (x86)\Microsoft Visual Studio\2019\Professional\VC\Tools\MSVC\14.29.30133\include\vector

; 1692 :         const size_type _Geometric = _Oldcapacity + _Oldcapacity / 2;

  0005a	8d 04 11	 lea	 eax, DWORD PTR [ecx+edx]
; File C:\Program Files (x86)\Microsoft Visual Studio\2019\Professional\VC\Tools\MSVC\14.29.30133\include\xmemory

; 64   :         if (_Count > _Max_possible) {

  0005d	8b df		 mov	 ebx, edi
  0005f	3b c7		 cmp	 eax, edi
  00061	0f 43 d8	 cmovae	 ebx, eax
  00064	81 fb ff ff ff
	3f		 cmp	 ebx, 1073741823		; 3fffffffH
  0006a	0f 87 c6 00 00
	00		 ja	 $LN97@Emplace_re

; 66   :         }
; 67   :     }
; 68   : 
; 69   :     return _Count * _Ty_size;

  00070	c1 e3 02	 shl	 ebx, 2

; 237  :         if (_Bytes >= _Big_allocation_threshold) { // boost the alignment of big allocations to help autovectorization

  00073	81 fb 00 10 00
	00		 cmp	 ebx, 4096		; 00001000H
  00079	72 0d		 jb	 SHORT $LN24@Emplace_re

; 238  :             return _Allocate_manually_vector_aligned<_Traits>(_Bytes);

  0007b	53		 push	 ebx
  0007c	e8 00 00 00 00	 call	 ??$_Allocate_manually_vector_aligned@U_Default_allocate_traits@std@@@std@@YAPAXI@Z ; std::_Allocate_manually_vector_aligned<std::_Default_allocate_traits>
  00081	83 c4 04	 add	 esp, 4
  00084	8b f8		 mov	 edi, eax
  00086	eb 13		 jmp	 SHORT $LN23@Emplace_re
$LN24@Emplace_re:

; 239  :         }
; 240  :     }
; 241  : #endif // defined(_M_IX86) || defined(_M_X64)
; 242  : 
; 243  :     if (_Bytes != 0) {

  00088	85 db		 test	 ebx, ebx
  0008a	74 0d		 je	 SHORT $LN25@Emplace_re

; 85   :         return ::operator new(_Bytes);

  0008c	53		 push	 ebx
  0008d	e8 00 00 00 00	 call	 ??2@YAPAXI@Z		; operator new
  00092	83 c4 04	 add	 esp, 4

; 244  :         return _Traits::_Allocate(_Bytes);

  00095	8b f8		 mov	 edi, eax
  00097	eb 02		 jmp	 SHORT $LN23@Emplace_re
$LN25@Emplace_re:

; 245  :     }
; 246  : 
; 247  :     return nullptr;

  00099	33 ff		 xor	 edi, edi
$LN23@Emplace_re:
; File C:\Program Files (x86)\Microsoft Visual Studio\2019\Professional\VC\Tools\MSVC\14.29.30133\include\vector

; 789  :         _Alty_traits::construct(_Al, _Unfancy(_Newvec + _Whereoff), _STD forward<_Valty>(_Val)...);

  0009b	8b 45 fc	 mov	 eax, DWORD PTR __Whereoff$1$[ebp]
  0009e	8d 0c 87	 lea	 ecx, DWORD PTR [edi+eax*4]
  000a1	8b 45 0c	 mov	 eax, DWORD PTR _<_Val_0>$[ebp]
  000a4	89 4d fc	 mov	 DWORD PTR tv641[ebp], ecx
  000a7	8b 00		 mov	 eax, DWORD PTR [eax]
  000a9	89 01		 mov	 DWORD PTR [ecx], eax

; 790  :         _Constructed_first = _Newvec + _Whereoff;
; 791  : 
; 792  :         if (_Whereptr == _Mylast) { // at back, provide strong guarantee

  000ab	8b 4e 04	 mov	 ecx, DWORD PTR [esi+4]
  000ae	8b 45 08	 mov	 eax, DWORD PTR __Whereptr$[ebp]
  000b1	8b 16		 mov	 edx, DWORD PTR [esi]
  000b3	3b c1		 cmp	 eax, ecx
  000b5	75 04		 jne	 SHORT $LN4@Emplace_re
; File C:\Program Files (x86)\Microsoft Visual Studio\2019\Professional\VC\Tools\MSVC\14.29.30133\include\xmemory

; 1725 :             _Copy_memmove(_UFirst, _ULast, _Unfancy(_Dest));

  000b7	8b c7		 mov	 eax, edi
; File C:\Program Files (x86)\Microsoft Visual Studio\2019\Professional\VC\Tools\MSVC\14.29.30133\include\vector

; 794  :         } else { // provide basic guarantee

  000b9	eb 17		 jmp	 SHORT $LN60@Emplace_re
$LN4@Emplace_re:
; File C:\Program Files (x86)\Microsoft Visual Studio\2019\Professional\VC\Tools\MSVC\14.29.30133\include\xmemory

; 1725 :             _Copy_memmove(_UFirst, _ULast, _Unfancy(_Dest));

  000bb	57		 push	 edi
  000bc	50		 push	 eax
  000bd	52		 push	 edx
  000be	e8 00 00 00 00	 call	 ??$_Copy_memmove@PAPAVCArea@@PAPAV1@@std@@YAPAPAVCArea@@PAPAV1@00@Z ; std::_Copy_memmove<CArea * *,CArea * *>
; File C:\Program Files (x86)\Microsoft Visual Studio\2019\Professional\VC\Tools\MSVC\14.29.30133\include\vector

; 797  :             _Umove(_Whereptr, _Mylast, _Newvec + _Whereoff + 1);

  000c3	8b 45 fc	 mov	 eax, DWORD PTR tv641[ebp]
; File C:\Program Files (x86)\Microsoft Visual Studio\2019\Professional\VC\Tools\MSVC\14.29.30133\include\xmemory

; 1725 :             _Copy_memmove(_UFirst, _ULast, _Unfancy(_Dest));

  000c6	83 c4 0c	 add	 esp, 12			; 0000000cH
  000c9	8b 55 08	 mov	 edx, DWORD PTR __Whereptr$[ebp]
; File C:\Program Files (x86)\Microsoft Visual Studio\2019\Professional\VC\Tools\MSVC\14.29.30133\include\vector

; 797  :             _Umove(_Whereptr, _Mylast, _Newvec + _Whereoff + 1);

  000cc	83 c0 04	 add	 eax, 4
; File C:\Program Files (x86)\Microsoft Visual Studio\2019\Professional\VC\Tools\MSVC\14.29.30133\include\xmemory

; 1725 :             _Copy_memmove(_UFirst, _ULast, _Unfancy(_Dest));

  000cf	8b 4e 04	 mov	 ecx, DWORD PTR [esi+4]
$LN60@Emplace_re:
; File C:\Program Files (x86)\Microsoft Visual Studio\2019\Professional\VC\Tools\MSVC\14.29.30133\include\vector

; 797  :             _Umove(_Whereptr, _Mylast, _Newvec + _Whereoff + 1);

  000d2	50		 push	 eax
  000d3	51		 push	 ecx
  000d4	52		 push	 edx
  000d5	e8 00 00 00 00	 call	 ??$_Copy_memmove@PAPAVCArea@@PAPAV1@@std@@YAPAPAVCArea@@PAPAV1@00@Z ; std::_Copy_memmove<CArea * *,CArea * *>

; 1745 :         if (_Myfirst) { // destroy and deallocate old array

  000da	8b 06		 mov	 eax, DWORD PTR [esi]

; 797  :             _Umove(_Whereptr, _Mylast, _Newvec + _Whereoff + 1);

  000dc	83 c4 0c	 add	 esp, 12			; 0000000cH

; 1745 :         if (_Myfirst) { // destroy and deallocate old array

  000df	85 c0		 test	 eax, eax
  000e1	74 2c		 je	 SHORT $LN78@Emplace_re

; 1746 :             _Destroy(_Myfirst, _Mylast);
; 1747 :             _Getal().deallocate(_Myfirst, static_cast<size_type>(_Myend - _Myfirst));

  000e3	8b 4e 08	 mov	 ecx, DWORD PTR [esi+8]
  000e6	2b c8		 sub	 ecx, eax
; File C:\Program Files (x86)\Microsoft Visual Studio\2019\Professional\VC\Tools\MSVC\14.29.30133\include\xmemory

; 835  :         _Deallocate<_New_alignof<_Ty>>(_Ptr, sizeof(_Ty) * _Count);

  000e8	83 e1 fc	 and	 ecx, -4			; fffffffcH

; 260  :         if (_Bytes >= _Big_allocation_threshold) { // boost the alignment of big allocations to help autovectorization

  000eb	81 f9 00 10 00
	00		 cmp	 ecx, 4096		; 00001000H
  000f1	72 12		 jb	 SHORT $LN88@Emplace_re

; 158  :     const uintptr_t _Ptr_container   = _Ptr_user[-1];

  000f3	8b 50 fc	 mov	 edx, DWORD PTR [eax-4]
  000f6	83 c1 23	 add	 ecx, 35			; 00000023H

; 159  : 
; 160  :     // If the following asserts, it likely means that we are performing
; 161  :     // an aligned delete on memory coming from an unaligned allocation.
; 162  :     _STL_ASSERT(_Ptr_user[-2] == _Big_allocation_sentinel, "invalid argument");
; 163  : 
; 164  :     // Extra paranoia on aligned allocation/deallocation; ensure _Ptr_container is
; 165  :     // in range [_Min_back_shift, _Non_user_size]
; 166  : #ifdef _DEBUG
; 167  :     constexpr uintptr_t _Min_back_shift = 2 * sizeof(void*);
; 168  : #else // ^^^ _DEBUG ^^^ // vvv !_DEBUG vvv
; 169  :     constexpr uintptr_t _Min_back_shift = sizeof(void*);
; 170  : #endif // _DEBUG
; 171  :     const uintptr_t _Back_shift = reinterpret_cast<uintptr_t>(_Ptr) - _Ptr_container;

  000f9	2b c2		 sub	 eax, edx

; 172  :     _STL_VERIFY(_Back_shift >= _Min_back_shift && _Back_shift <= _Non_user_size, "invalid argument");

  000fb	83 c0 fc	 add	 eax, -4			; fffffffcH
  000fe	83 f8 1f	 cmp	 eax, 31			; 0000001fH
  00101	77 29		 ja	 SHORT $LN85@Emplace_re

; 173  :     _Ptr = reinterpret_cast<void*>(_Ptr_container);

  00103	8b c2		 mov	 eax, edx
$LN88@Emplace_re:

; 264  :         ::operator delete(_Ptr, _Bytes);

  00105	51		 push	 ecx
  00106	50		 push	 eax
  00107	e8 00 00 00 00	 call	 ??3@YAXPAXI@Z		; operator delete
  0010c	83 c4 08	 add	 esp, 8
$LN78@Emplace_re:
; File C:\Program Files (x86)\Microsoft Visual Studio\2019\Professional\VC\Tools\MSVC\14.29.30133\include\vector

; 1751 :         _Mylast  = _Newvec + _Newsize;

  0010f	8b 45 f8	 mov	 eax, DWORD PTR __Newsize$1$[ebp]
  00112	89 3e		 mov	 DWORD PTR [esi], edi
  00114	8d 0c 87	 lea	 ecx, DWORD PTR [edi+eax*4]

; 798  :         }
; 799  :         _CATCH_ALL
; 800  :         _Destroy(_Constructed_first, _Constructed_last);
; 801  :         _Al.deallocate(_Newvec, _Newcapacity);
; 802  :         _RERAISE;
; 803  :         _CATCH_END
; 804  : 
; 805  :         _Change_array(_Newvec, _Newsize, _Newcapacity);
; 806  :         return _Newvec + _Whereoff;

  00117	8b 45 fc	 mov	 eax, DWORD PTR tv641[ebp]

; 1751 :         _Mylast  = _Newvec + _Newsize;

  0011a	89 4e 04	 mov	 DWORD PTR [esi+4], ecx

; 1752 :         _Myend   = _Newvec + _Newcapacity;

  0011d	8d 0c 3b	 lea	 ecx, DWORD PTR [ebx+edi]

; 798  :         }
; 799  :         _CATCH_ALL
; 800  :         _Destroy(_Constructed_first, _Constructed_last);
; 801  :         _Al.deallocate(_Newvec, _Newcapacity);
; 802  :         _RERAISE;
; 803  :         _CATCH_END
; 804  : 
; 805  :         _Change_array(_Newvec, _Newsize, _Newcapacity);
; 806  :         return _Newvec + _Whereoff;

  00120	5f		 pop	 edi

; 1752 :         _Myend   = _Newvec + _Newcapacity;

  00121	89 4e 08	 mov	 DWORD PTR [esi+8], ecx

; 798  :         }
; 799  :         _CATCH_ALL
; 800  :         _Destroy(_Constructed_first, _Constructed_last);
; 801  :         _Al.deallocate(_Newvec, _Newcapacity);
; 802  :         _RERAISE;
; 803  :         _CATCH_END
; 804  : 
; 805  :         _Change_array(_Newvec, _Newsize, _Newcapacity);
; 806  :         return _Newvec + _Whereoff;

  00124	5e		 pop	 esi
  00125	5b		 pop	 ebx

; 807  :     }

  00126	8b e5		 mov	 esp, ebp
  00128	5d		 pop	 ebp
  00129	c2 08 00	 ret	 8
$LN85@Emplace_re:
; File C:\Program Files (x86)\Microsoft Visual Studio\2019\Professional\VC\Tools\MSVC\14.29.30133\include\xmemory

; 172  :     _STL_VERIFY(_Back_shift >= _Min_back_shift && _Back_shift <= _Non_user_size, "invalid argument");

  0012c	e8 00 00 00 00	 call	 __invalid_parameter_noinfo_noreturn
$LN96@Emplace_re:
; File C:\Program Files (x86)\Microsoft Visual Studio\2019\Professional\VC\Tools\MSVC\14.29.30133\include\vector

; 778  :             _Xlength();

  00131	e8 00 00 00 00	 call	 ?_Xlength@?$vector@PAVCArea@@V?$allocator@PAVCArea@@@std@@@std@@CAXXZ ; std::vector<CArea *,std::allocator<CArea *> >::_Xlength
$LN97@Emplace_re:
; File C:\Program Files (x86)\Microsoft Visual Studio\2019\Professional\VC\Tools\MSVC\14.29.30133\include\xmemory

; 65   :             _Throw_bad_array_new_length(); // multiply overflow

  00136	e8 00 00 00 00	 call	 ?_Throw_bad_array_new_length@std@@YAXXZ ; std::_Throw_bad_array_new_length
$LN94@Emplace_re:
  0013b	cc		 int	 3
??$_Emplace_reallocate@ABQAVCArea@@@?$vector@PAVCArea@@V?$allocator@PAVCArea@@@std@@@std@@QAEPAPAVCArea@@QAPAV2@ABQAV2@@Z ENDP ; std::vector<CArea *,std::allocator<CArea *> >::_Emplace_reallocate<CArea * const &>
_TEXT	ENDS
; Function compile flags: /Ogtp
; File C:\Program Files (x86)\Microsoft Visual Studio\2019\Professional\VC\Tools\MSVC\14.29.30133\include\xstring
;	COMDAT ??$?9DU?$char_traits@D@std@@V?$allocator@D@1@@std@@YA_NABV?$basic_string@DU?$char_traits@D@std@@V?$allocator@D@2@@0@QBD@Z
_TEXT	SEGMENT
__Left$ = 8						; size = 4
__Right$ = 12						; size = 4
??$?9DU?$char_traits@D@std@@V?$allocator@D@1@@std@@YA_NABV?$basic_string@DU?$char_traits@D@std@@V?$allocator@D@2@@0@QBD@Z PROC ; std::operator!=<char,std::char_traits<char>,std::allocator<char> >, COMDAT

; 4836 : _NODISCARD bool operator!=(const basic_string<_Elem, _Traits, _Alloc>& _Left, _In_z_ const _Elem* const _Right) {

  00000	55		 push	 ebp
  00001	8b ec		 mov	 ebp, esp
  00003	56		 push	 esi

; 412  :         return _CSTD strlen(reinterpret_cast<const char*>(_First));

  00004	8b 75 0c	 mov	 esi, DWORD PTR __Right$[ebp]

; 4836 : _NODISCARD bool operator!=(const basic_string<_Elem, _Traits, _Alloc>& _Left, _In_z_ const _Elem* const _Right) {

  00007	57		 push	 edi

; 412  :         return _CSTD strlen(reinterpret_cast<const char*>(_First));

  00008	8b fe		 mov	 edi, esi
  0000a	8d 4f 01	 lea	 ecx, DWORD PTR [edi+1]
  0000d	0f 1f 00	 npad	 3
$LL20@operator:
  00010	8a 07		 mov	 al, BYTE PTR [edi]
  00012	47		 inc	 edi
  00013	84 c0		 test	 al, al
  00015	75 f9		 jne	 SHORT $LL20@operator

; 2305 :         const value_type* _Result = _Bx._Buf;

  00017	8b 55 08	 mov	 edx, DWORD PTR __Left$[ebp]

; 412  :         return _CSTD strlen(reinterpret_cast<const char*>(_First));

  0001a	2b f9		 sub	 edi, ecx

; 2305 :         const value_type* _Result = _Bx._Buf;

  0001c	8b ca		 mov	 ecx, edx

; 2319 :         return _BUF_SIZE <= _Myres;

  0001e	83 7a 14 10	 cmp	 DWORD PTR [edx+20], 16	; 00000010H

; 2306 :         if (_Large_string_engaged()) {

  00022	72 02		 jb	 SHORT $LN10@operator

; 2307 :             _Result = _Unfancy(_Bx._Ptr);

  00024	8b 0a		 mov	 ecx, DWORD PTR [edx]
$LN10@operator:

; 4378 :         return _Traits_equal<_Traits>(_Mypair._Myval2._Myptr(), _Mypair._Myval2._Mysize, _Ptr, _Traits::length(_Ptr));

  00026	8b 52 10	 mov	 edx, DWORD PTR [edx+16]

; 583  :     return _Left_size == _Right_size && _Traits::compare(_Left, _Right, _Left_size) == 0;

  00029	3b d7		 cmp	 edx, edi
  0002b	75 5b		 jne	 SHORT $LN16@operator

; 392  :         return _CSTD memcmp(_First1, _First2, _Count);

  0002d	83 ea 04	 sub	 edx, 4
  00030	72 11		 jb	 SHORT $LN23@operator
$LL24@operator:
  00032	8b 01		 mov	 eax, DWORD PTR [ecx]
  00034	3b 06		 cmp	 eax, DWORD PTR [esi]
  00036	75 10		 jne	 SHORT $LN22@operator
  00038	83 c1 04	 add	 ecx, 4
  0003b	83 c6 04	 add	 esi, 4
  0003e	83 ea 04	 sub	 edx, 4
  00041	73 ef		 jae	 SHORT $LL24@operator
$LN23@operator:
  00043	83 fa fc	 cmp	 edx, -4			; fffffffcH
  00046	74 34		 je	 SHORT $LN21@operator
$LN22@operator:
  00048	8a 01		 mov	 al, BYTE PTR [ecx]
  0004a	3a 06		 cmp	 al, BYTE PTR [esi]
  0004c	75 27		 jne	 SHORT $LN25@operator
  0004e	83 fa fd	 cmp	 edx, -3			; fffffffdH
  00051	74 29		 je	 SHORT $LN21@operator
  00053	8a 41 01	 mov	 al, BYTE PTR [ecx+1]
  00056	3a 46 01	 cmp	 al, BYTE PTR [esi+1]
  00059	75 1a		 jne	 SHORT $LN25@operator
  0005b	83 fa fe	 cmp	 edx, -2			; fffffffeH
  0005e	74 1c		 je	 SHORT $LN21@operator
  00060	8a 41 02	 mov	 al, BYTE PTR [ecx+2]
  00063	3a 46 02	 cmp	 al, BYTE PTR [esi+2]
  00066	75 0d		 jne	 SHORT $LN25@operator
  00068	83 fa ff	 cmp	 edx, -1
  0006b	74 0f		 je	 SHORT $LN21@operator
  0006d	8a 41 03	 mov	 al, BYTE PTR [ecx+3]
  00070	3a 46 03	 cmp	 al, BYTE PTR [esi+3]
  00073	74 07		 je	 SHORT $LN21@operator
$LN25@operator:
  00075	1b c0		 sbb	 eax, eax
  00077	83 c8 01	 or	 eax, 1
  0007a	eb 02		 jmp	 SHORT $LN26@operator
$LN21@operator:
  0007c	33 c0		 xor	 eax, eax
$LN26@operator:

; 583  :     return _Left_size == _Right_size && _Traits::compare(_Left, _Right, _Left_size) == 0;

  0007e	85 c0		 test	 eax, eax
  00080	75 06		 jne	 SHORT $LN16@operator
  00082	5f		 pop	 edi
  00083	32 c0		 xor	 al, al

; 4837 :     return !(_Left == _Right);
; 4838 : }

  00085	5e		 pop	 esi
  00086	5d		 pop	 ebp
  00087	c3		 ret	 0
$LN16@operator:
  00088	5f		 pop	 edi

; 583  :     return _Left_size == _Right_size && _Traits::compare(_Left, _Right, _Left_size) == 0;

  00089	b0 01		 mov	 al, 1

; 4837 :     return !(_Left == _Right);
; 4838 : }

  0008b	5e		 pop	 esi
  0008c	5d		 pop	 ebp
  0008d	c3		 ret	 0
??$?9DU?$char_traits@D@std@@V?$allocator@D@1@@std@@YA_NABV?$basic_string@DU?$char_traits@D@std@@V?$allocator@D@2@@0@QBD@Z ENDP ; std::operator!=<char,std::char_traits<char>,std::allocator<char> >
_TEXT	ENDS
; Function compile flags: /Ogtp
; File C:\Program Files (x86)\Microsoft Visual Studio\2019\Professional\VC\Tools\MSVC\14.29.30133\include\xtree
; File C:\Program Files (x86)\Microsoft Visual Studio\2019\Professional\VC\Tools\MSVC\14.29.30133\include\xmemory
;	COMDAT ??1?$map@V?$basic_string@DU?$char_traits@D@std@@V?$allocator@D@2@@std@@V?$vector@V?$basic_string@DU?$char_traits@D@std@@V?$allocator@D@2@@std@@V?$allocator@V?$basic_string@DU?$char_traits@D@std@@V?$allocator@D@2@@std@@@2@@2@U?$less@V?$basic_string@DU?$char_traits@D@std@@V?$allocator@D@2@@std@@@2@V?$allocator@U?$pair@$$CBV?$basic_string@DU?$char_traits@D@std@@V?$allocator@D@2@@std@@V?$vector@V?$basic_string@DU?$char_traits@D@std@@V?$allocator@D@2@@std@@V?$allocator@V?$basic_string@DU?$char_traits@D@std@@V?$allocator@D@2@@std@@@2@@2@@std@@@2@@std@@QAE@XZ
_TEXT	SEGMENT
??1?$map@V?$basic_string@DU?$char_traits@D@std@@V?$allocator@D@2@@std@@V?$vector@V?$basic_string@DU?$char_traits@D@std@@V?$allocator@D@2@@std@@V?$allocator@V?$basic_string@DU?$char_traits@D@std@@V?$allocator@D@2@@std@@@2@@2@U?$less@V?$basic_string@DU?$char_traits@D@std@@V?$allocator@D@2@@std@@@2@V?$allocator@U?$pair@$$CBV?$basic_string@DU?$char_traits@D@std@@V?$allocator@D@2@@std@@V?$vector@V?$basic_string@DU?$char_traits@D@std@@V?$allocator@D@2@@std@@V?$allocator@V?$basic_string@DU?$char_traits@D@std@@V?$allocator@D@2@@std@@@2@@2@@std@@@2@@std@@QAE@XZ PROC ; std::map<std::basic_string<char,std::char_traits<char>,std::allocator<char> >,std::vector<std::basic_string<char,std::char_traits<char>,std::allocator<char> >,std::allocator<std::basic_string<char,std::char_traits<char>,std::allocator<char> > > >,std::less<std::basic_string<char,std::char_traits<char>,std::allocator<char> > >,std::allocator<std::pair<std::basic_string<char,std::char_traits<char>,std::allocator<char> > const ,std::vector<std::basic_string<char,std::char_traits<char>,std::allocator<char> >,std::allocator<std::basic_string<char,std::char_traits<char>,std::allocator<char> > > > > > >::~map<std::basic_string<char,std::char_traits<char>,std::allocator<char> >,std::vector<std::basic_string<char,std::char_traits<char>,std::allocator<char> >,std::allocator<std::basic_string<char,std::char_traits<char>,std::allocator<char> > > >,std::less<std::basic_string<char,std::char_traits<char>,std::allocator<char> > >,std::allocator<std::pair<std::basic_string<char,std::char_traits<char>,std::allocator<char> > const ,std::vector<std::basic_string<char,std::char_traits<char>,std::allocator<char> >,std::allocator<std::basic_string<char,std::char_traits<char>,std::allocator<char> > > > > > >, COMDAT
; _this$ = ecx
; File C:\Program Files (x86)\Microsoft Visual Studio\2019\Professional\VC\Tools\MSVC\14.29.30133\include\xtree

; 758  :         _Erase_tree(_Al, _Myhead->_Parent);

  00000	56		 push	 esi
  00001	8b f1		 mov	 esi, ecx
  00003	8b 06		 mov	 eax, DWORD PTR [esi]
  00005	ff 70 04	 push	 DWORD PTR [eax+4]
  00008	56		 push	 esi
  00009	e8 00 00 00 00	 call	 ??$_Erase_tree@V?$allocator@U?$_Tree_node@U?$pair@$$CBV?$basic_string@DU?$char_traits@D@std@@V?$allocator@D@2@@std@@V?$vector@V?$basic_string@DU?$char_traits@D@std@@V?$allocator@D@2@@std@@V?$allocator@V?$basic_string@DU?$char_traits@D@std@@V?$allocator@D@2@@std@@@2@@2@@std@@PAX@std@@@std@@@?$_Tree_val@U?$_Tree_simple_types@U?$pair@$$CBV?$basic_string@DU?$char_traits@D@std@@V?$allocator@D@2@@std@@V?$vector@V?$basic_string@DU?$char_traits@D@std@@V?$allocator@D@2@@std@@V?$allocator@V?$basic_string@DU?$char_traits@D@std@@V?$allocator@D@2@@std@@@2@@2@@std@@@std@@@std@@QAEXAAV?$allocator@U?$_Tree_node@U?$pair@$$CBV?$basic_string@DU?$char_traits@D@std@@V?$allocator@D@2@@std@@V?$vector@V?$basic_string@DU?$char_traits@D@std@@V?$allocator@D@2@@std@@V?$allocator@V?$basic_string@DU?$char_traits@D@std@@V?$allocator@D@2@@std@@@2@@2@@std@@PAX@std@@@1@PAU?$_Tree_node@U?$pair@$$CBV?$basic_string@DU?$char_traits@D@std@@V?$allocator@D@2@@std@@V?$vector@V?$basic_string@DU?$char_traits@D@std@@V?$allocator@D@2@@std@@V?$allocator@V?$basic_string@DU?$char_traits@D@std@@V?$allocator@D@2@@std@@@2@@2@@std@@PAX@1@@Z ; std::_Tree_val<std::_Tree_simple_types<std::pair<std::basic_string<char,std::char_traits<char>,std::allocator<char> > const ,std::vector<std::basic_string<char,std::char_traits<char>,std::allocator<char> >,std::allocator<std::basic_string<char,std::char_traits<char>,std::allocator<char> > > > > > >::_Erase_tree<std::allocator<std::_Tree_node<std::pair<std::basic_string<char,std::char_traits<char>,std::allocator<char> > const ,std::vector<std::basic_string<char,std::char_traits<char>,std::allocator<char> >,std::allocator<std::basic_string<char,std::char_traits<char>,std::allocator<char> > > > >,void *> > >
; File C:\Program Files (x86)\Microsoft Visual Studio\2019\Professional\VC\Tools\MSVC\14.29.30133\include\xmemory

; 264  :         ::operator delete(_Ptr, _Bytes);

  0000e	6a 34		 push	 52			; 00000034H
  00010	ff 36		 push	 DWORD PTR [esi]
  00012	e8 00 00 00 00	 call	 ??3@YAXPAXI@Z		; operator delete
  00017	83 c4 08	 add	 esp, 8
  0001a	5e		 pop	 esi
  0001b	c3		 ret	 0
??1?$map@V?$basic_string@DU?$char_traits@D@std@@V?$allocator@D@2@@std@@V?$vector@V?$basic_string@DU?$char_traits@D@std@@V?$allocator@D@2@@std@@V?$allocator@V?$basic_string@DU?$char_traits@D@std@@V?$allocator@D@2@@std@@@2@@2@U?$less@V?$basic_string@DU?$char_traits@D@std@@V?$allocator@D@2@@std@@@2@V?$allocator@U?$pair@$$CBV?$basic_string@DU?$char_traits@D@std@@V?$allocator@D@2@@std@@V?$vector@V?$basic_string@DU?$char_traits@D@std@@V?$allocator@D@2@@std@@V?$allocator@V?$basic_string@DU?$char_traits@D@std@@V?$allocator@D@2@@std@@@2@@2@@std@@@2@@std@@QAE@XZ ENDP ; std::map<std::basic_string<char,std::char_traits<char>,std::allocator<char> >,std::vector<std::basic_string<char,std::char_traits<char>,std::allocator<char> >,std::allocator<std::basic_string<char,std::char_traits<char>,std::allocator<char> > > >,std::less<std::basic_string<char,std::char_traits<char>,std::allocator<char> > >,std::allocator<std::pair<std::basic_string<char,std::char_traits<char>,std::allocator<char> > const ,std::vector<std::basic_string<char,std::char_traits<char>,std::allocator<char> >,std::allocator<std::basic_string<char,std::char_traits<char>,std::allocator<char> > > > > > >::~map<std::basic_string<char,std::char_traits<char>,std::allocator<char> >,std::vector<std::basic_string<char,std::char_traits<char>,std::allocator<char> >,std::allocator<std::basic_string<char,std::char_traits<char>,std::allocator<char> > > >,std::less<std::basic_string<char,std::char_traits<char>,std::allocator<char> > >,std::allocator<std::pair<std::basic_string<char,std::char_traits<char>,std::allocator<char> > const ,std::vector<std::basic_string<char,std::char_traits<char>,std::allocator<char> >,std::allocator<std::basic_string<char,std::char_traits<char>,std::allocator<char> > > > > > >
_TEXT	ENDS
; Function compile flags: /Ogtp
; File C:\Program Files (x86)\Microsoft Visual Studio\2019\Professional\VC\Tools\MSVC\14.29.30133\include\map
; File C:\Program Files (x86)\Microsoft Visual Studio\2019\Professional\VC\Tools\MSVC\14.29.30133\include\xtree
; File C:\Program Files (x86)\Microsoft Visual Studio\2019\Professional\VC\Tools\MSVC\14.29.30133\include\xstddef
; File C:\Program Files (x86)\Microsoft Visual Studio\2019\Professional\VC\Tools\MSVC\14.29.30133\include\xtree
; File C:\Program Files (x86)\Microsoft Visual Studio\2019\Professional\VC\Tools\MSVC\14.29.30133\include\map
; File C:\Program Files (x86)\Microsoft Visual Studio\2019\Professional\VC\Tools\MSVC\14.29.30133\include\xmemory
; File C:\Program Files (x86)\Microsoft Visual Studio\2019\Professional\VC\Tools\MSVC\14.29.30133\include\xtree
; File C:\Program Files (x86)\Microsoft Visual Studio\2019\Professional\VC\Tools\MSVC\14.29.30133\include\xmemory
; File C:\Program Files (x86)\Microsoft Visual Studio\2019\Professional\VC\Tools\MSVC\14.29.30133\include\map
; File C:\Program Files (x86)\Microsoft Visual Studio\2019\Professional\VC\Tools\MSVC\14.29.30133\include\xmemory
; File C:\Program Files (x86)\Microsoft Visual Studio\2019\Professional\VC\Tools\MSVC\14.29.30133\include\xstring
; File C:\Program Files (x86)\Microsoft Visual Studio\2019\Professional\VC\Tools\MSVC\14.29.30133\include\map
; File C:\Program Files (x86)\Microsoft Visual Studio\2019\Professional\VC\Tools\MSVC\14.29.30133\include\xstring
; File C:\Program Files (x86)\Microsoft Visual Studio\2019\Professional\VC\Tools\MSVC\14.29.30133\include\map
; File C:\Program Files (x86)\Microsoft Visual Studio\2019\Professional\VC\Tools\MSVC\14.29.30133\include\xstring
; File C:\Program Files (x86)\Microsoft Visual Studio\2019\Professional\VC\Tools\MSVC\14.29.30133\include\vector
; File C:\Program Files (x86)\Microsoft Visual Studio\2019\Professional\VC\Tools\MSVC\14.29.30133\include\xtree
; File C:\Program Files (x86)\Microsoft Visual Studio\2019\Professional\VC\Tools\MSVC\14.29.30133\include\map
; File C:\Program Files (x86)\Microsoft Visual Studio\2019\Professional\VC\Tools\MSVC\14.29.30133\include\xtree
; File C:\Program Files (x86)\Microsoft Visual Studio\2019\Professional\VC\Tools\MSVC\14.29.30133\include\map
;	COMDAT ??A?$map@V?$basic_string@DU?$char_traits@D@std@@V?$allocator@D@2@@std@@V?$vector@V?$basic_string@DU?$char_traits@D@std@@V?$allocator@D@2@@std@@V?$allocator@V?$basic_string@DU?$char_traits@D@std@@V?$allocator@D@2@@std@@@2@@2@U?$less@V?$basic_string@DU?$char_traits@D@std@@V?$allocator@D@2@@std@@@2@V?$allocator@U?$pair@$$CBV?$basic_string@DU?$char_traits@D@std@@V?$allocator@D@2@@std@@V?$vector@V?$basic_string@DU?$char_traits@D@std@@V?$allocator@D@2@@std@@V?$allocator@V?$basic_string@DU?$char_traits@D@std@@V?$allocator@D@2@@std@@@2@@2@@std@@@2@@std@@QAEAAV?$vector@V?$basic_string@DU?$char_traits@D@std@@V?$allocator@D@2@@std@@V?$allocator@V?$basic_string@DU?$char_traits@D@std@@V?$allocator@D@2@@std@@@2@@1@$$QAV?$basic_string@DU?$char_traits@D@std@@V?$allocator@D@2@@1@@Z
_TEXT	SEGMENT
__Loc$3 = -36						; size = 12
$T4 = -24						; size = 8
_this$1$ = -16						; size = 4
__$EHRec$ = -12						; size = 12
__Keyval$ = 8						; size = 4
??A?$map@V?$basic_string@DU?$char_traits@D@std@@V?$allocator@D@2@@std@@V?$vector@V?$basic_string@DU?$char_traits@D@std@@V?$allocator@D@2@@std@@V?$allocator@V?$basic_string@DU?$char_traits@D@std@@V?$allocator@D@2@@std@@@2@@2@U?$less@V?$basic_string@DU?$char_traits@D@std@@V?$allocator@D@2@@std@@@2@V?$allocator@U?$pair@$$CBV?$basic_string@DU?$char_traits@D@std@@V?$allocator@D@2@@std@@V?$vector@V?$basic_string@DU?$char_traits@D@std@@V?$allocator@D@2@@std@@V?$allocator@V?$basic_string@DU?$char_traits@D@std@@V?$allocator@D@2@@std@@@2@@2@@std@@@2@@std@@QAEAAV?$vector@V?$basic_string@DU?$char_traits@D@std@@V?$allocator@D@2@@std@@V?$allocator@V?$basic_string@DU?$char_traits@D@std@@V?$allocator@D@2@@std@@@2@@1@$$QAV?$basic_string@DU?$char_traits@D@std@@V?$allocator@D@2@@1@@Z PROC ; std::map<std::basic_string<char,std::char_traits<char>,std::allocator<char> >,std::vector<std::basic_string<char,std::char_traits<char>,std::allocator<char> >,std::allocator<std::basic_string<char,std::char_traits<char>,std::allocator<char> > > >,std::less<std::basic_string<char,std::char_traits<char>,std::allocator<char> > >,std::allocator<std::pair<std::basic_string<char,std::char_traits<char>,std::allocator<char> > const ,std::vector<std::basic_string<char,std::char_traits<char>,std::allocator<char> >,std::allocator<std::basic_string<char,std::char_traits<char>,std::allocator<char> > > > > > >::operator[], COMDAT
; _this$ = ecx

; 153  :     mapped_type& operator[](key_type&& _Keyval) { // find element matching _Keyval or insert value-initialized value

  00000	55		 push	 ebp
  00001	8b ec		 mov	 ebp, esp
  00003	6a ff		 push	 -1
  00005	68 00 00 00 00	 push	 __ehhandler$??A?$map@V?$basic_string@DU?$char_traits@D@std@@V?$allocator@D@2@@std@@V?$vector@V?$basic_string@DU?$char_traits@D@std@@V?$allocator@D@2@@std@@V?$allocator@V?$basic_string@DU?$char_traits@D@std@@V?$allocator@D@2@@std@@@2@@2@U?$less@V?$basic_string@DU?$char_traits@D@std@@V?$allocator@D@2@@std@@@2@V?$allocator@U?$pair@$$CBV?$basic_string@DU?$char_traits@D@std@@V?$allocator@D@2@@std@@V?$vector@V?$basic_string@DU?$char_traits@D@std@@V?$allocator@D@2@@std@@V?$allocator@V?$basic_string@DU?$char_traits@D@std@@V?$allocator@D@2@@std@@@2@@2@@std@@@2@@std@@QAEAAV?$vector@V?$basic_string@DU?$char_traits@D@std@@V?$allocator@D@2@@std@@V?$allocator@V?$basic_string@DU?$char_traits@D@std@@V?$allocator@D@2@@std@@@2@@1@$$QAV?$basic_string@DU?$char_traits@D@std@@V?$allocator@D@2@@1@@Z
  0000a	64 a1 00 00 00
	00		 mov	 eax, DWORD PTR fs:0
  00010	50		 push	 eax
  00011	83 ec 18	 sub	 esp, 24			; 00000018H
  00014	56		 push	 esi
  00015	57		 push	 edi
  00016	a1 00 00 00 00	 mov	 eax, DWORD PTR ___security_cookie
  0001b	33 c5		 xor	 eax, ebp
  0001d	50		 push	 eax
  0001e	8d 45 f4	 lea	 eax, DWORD PTR __$EHRec$[ebp]
  00021	64 a3 00 00 00
	00		 mov	 DWORD PTR fs:0, eax
  00027	89 4d f0	 mov	 DWORD PTR _this$1$[ebp], ecx

; 176  :         const auto _Loc = _Mybase::_Find_lower_bound(_Keyval);

  0002a	8b 7d 08	 mov	 edi, DWORD PTR __Keyval$[ebp]
  0002d	8d 45 dc	 lea	 eax, DWORD PTR __Loc$3[ebp]
  00030	57		 push	 edi
  00031	50		 push	 eax
  00032	e8 00 00 00 00	 call	 ??$_Find_lower_bound@V?$basic_string@DU?$char_traits@D@std@@V?$allocator@D@2@@std@@@?$_Tree@V?$_Tmap_traits@V?$basic_string@DU?$char_traits@D@std@@V?$allocator@D@2@@std@@V?$vector@V?$basic_string@DU?$char_traits@D@std@@V?$allocator@D@2@@std@@V?$allocator@V?$basic_string@DU?$char_traits@D@std@@V?$allocator@D@2@@std@@@2@@2@U?$less@V?$basic_string@DU?$char_traits@D@std@@V?$allocator@D@2@@std@@@2@V?$allocator@U?$pair@$$CBV?$basic_string@DU?$char_traits@D@std@@V?$allocator@D@2@@std@@V?$vector@V?$basic_string@DU?$char_traits@D@std@@V?$allocator@D@2@@std@@V?$allocator@V?$basic_string@DU?$char_traits@D@std@@V?$allocator@D@2@@std@@@2@@2@@std@@@2@$0A@@std@@@std@@IBE?AU?$_Tree_find_result@PAU?$_Tree_node@U?$pair@$$CBV?$basic_string@DU?$char_traits@D@std@@V?$allocator@D@2@@std@@V?$vector@V?$basic_string@DU?$char_traits@D@std@@V?$allocator@D@2@@std@@V?$allocator@V?$basic_string@DU?$char_traits@D@std@@V?$allocator@D@2@@std@@@2@@2@@std@@PAX@std@@@1@ABV?$basic_string@DU?$char_traits@D@std@@V?$allocator@D@2@@1@@Z ; std::_Tree<std::_Tmap_traits<std::basic_string<char,std::char_traits<char>,std::allocator<char> >,std::vector<std::basic_string<char,std::char_traits<char>,std::allocator<char> >,std::allocator<std::basic_string<char,std::char_traits<char>,std::allocator<char> > > >,std::less<std::basic_string<char,std::char_traits<char>,std::allocator<char> > >,std::allocator<std::pair<std::basic_string<char,std::char_traits<char>,std::allocator<char> > const ,std::vector<std::basic_string<char,std::char_traits<char>,std::allocator<char> >,std::allocator<std::basic_string<char,std::char_traits<char>,std::allocator<char> > > > > >,0> >::_Find_lower_bound<std::basic_string<char,std::char_traits<char>,std::allocator<char> > >
; File C:\Program Files (x86)\Microsoft Visual Studio\2019\Professional\VC\Tools\MSVC\14.29.30133\include\xtree

; 1599 :         return !_Bound->_Isnil && !_DEBUG_LT_PRED(_Getcomp(), _Keyval, _Traits::_Kfn(_Bound->_Myval));

  00037	8b 75 e4	 mov	 esi, DWORD PTR __Loc$3[ebp+8]
  0003a	80 7e 0d 00	 cmp	 BYTE PTR [esi+13], 0
  0003e	75 15		 jne	 SHORT $LN4@operator
  00040	8d 46 10	 lea	 eax, DWORD PTR [esi+16]
; File C:\Program Files (x86)\Microsoft Visual Studio\2019\Professional\VC\Tools\MSVC\14.29.30133\include\xstddef

; 127  :         return _Left < _Right;

  00043	50		 push	 eax
  00044	57		 push	 edi
  00045	e8 00 00 00 00	 call	 ??$?MDU?$char_traits@D@std@@V?$allocator@D@1@@std@@YA_NABV?$basic_string@DU?$char_traits@D@std@@V?$allocator@D@2@@0@0@Z ; std::operator<<char,std::char_traits<char>,std::allocator<char> >
  0004a	83 c4 08	 add	 esp, 8
; File C:\Program Files (x86)\Microsoft Visual Studio\2019\Professional\VC\Tools\MSVC\14.29.30133\include\xtree

; 1599 :         return !_Bound->_Isnil && !_DEBUG_LT_PRED(_Getcomp(), _Keyval, _Traits::_Kfn(_Bound->_Myval));

  0004d	84 c0		 test	 al, al
  0004f	0f 84 98 00 00
	00		 je	 $LN3@operator
$LN4@operator:

; 1623 :         if (max_size() == _Get_scary()->_Mysize) {

  00055	8b 45 f0	 mov	 eax, DWORD PTR _this$1$[ebp]
  00058	81 78 04 c4 4e
	ec 04		 cmp	 DWORD PTR [eax+4], 82595524 ; 04ec4ec4H
  0005f	0f 84 9e 00 00
	00		 je	 $LN133@operator
; File C:\Program Files (x86)\Microsoft Visual Studio\2019\Professional\VC\Tools\MSVC\14.29.30133\include\map

; 184  :         const auto _Inserted = _Tree_temp_node<_Alnode>(_Mybase::_Getal(), _Scary->_Myhead, piecewise_construct,

  00065	8b 30		 mov	 esi, DWORD PTR [eax]
; File C:\Program Files (x86)\Microsoft Visual Studio\2019\Professional\VC\Tools\MSVC\14.29.30133\include\xmemory

; 1012 :     _CONSTEXPR20_DYNALLOC explicit _Alloc_construct_ptr(_Alloc& _Al_) : _Al(_Al_), _Ptr(nullptr) {}

  00067	89 45 e8	 mov	 DWORD PTR $T4[ebp], eax

; 85   :         return ::operator new(_Bytes);

  0006a	6a 34		 push	 52			; 00000034H
; File C:\Program Files (x86)\Microsoft Visual Studio\2019\Professional\VC\Tools\MSVC\14.29.30133\include\xtree

; 790  :     explicit _Tree_temp_node_alloc(_Alnode& _Al_) : _Alloc_construct_ptr<_Alnode>(_Al_) {

  0006c	c7 45 fc 00 00
	00 00		 mov	 DWORD PTR __$EHRec$[ebp+8], 0
; File C:\Program Files (x86)\Microsoft Visual Studio\2019\Professional\VC\Tools\MSVC\14.29.30133\include\xmemory

; 1019 :         _Ptr = nullptr; // if allocate throws, prevents double-free

  00073	c7 45 ec 00 00
	00 00		 mov	 DWORD PTR $T4[ebp+4], 0

; 85   :         return ::operator new(_Bytes);

  0007a	e8 00 00 00 00	 call	 ??2@YAPAXI@Z		; operator new
; File C:\Program Files (x86)\Microsoft Visual Studio\2019\Professional\VC\Tools\MSVC\14.29.30133\include\map

; 190  :         return {_Scary->_Insert_node(_Loc._Location, _Inserted), true};

  0007f	8b 4d f0	 mov	 ecx, DWORD PTR _this$1$[ebp]
; File C:\Program Files (x86)\Microsoft Visual Studio\2019\Professional\VC\Tools\MSVC\14.29.30133\include\xmemory

; 85   :         return ::operator new(_Bytes);

  00082	83 c4 04	 add	 esp, 4
; File C:\Program Files (x86)\Microsoft Visual Studio\2019\Professional\VC\Tools\MSVC\14.29.30133\include\xstring

; 2346 :         _CONSTEXPR20_CONTAINER _Bxty() noexcept : _Ptr() {} // user-provided, for fancy pointers

  00085	c7 40 10 00 00
	00 00		 mov	 DWORD PTR [eax+16], 0

; 2355 :     size_type _Mysize = 0; // current length of string

  0008c	c7 40 20 00 00
	00 00		 mov	 DWORD PTR [eax+32], 0

; 2356 :     size_type _Myres  = 0; // current storage reserved for string

  00093	c7 40 24 00 00
	00 00		 mov	 DWORD PTR [eax+36], 0

; 2869 :         _CSTD memcpy(_My_data_mem, _Right_data_mem, _Memcpy_val_size);

  0009a	0f 10 07	 movups	 xmm0, XMMWORD PTR [edi]
; File C:\Program Files (x86)\Microsoft Visual Studio\2019\Professional\VC\Tools\MSVC\14.29.30133\include\map

; 190  :         return {_Scary->_Insert_node(_Loc._Location, _Inserted), true};

  0009d	50		 push	 eax
  0009e	ff 75 e0	 push	 DWORD PTR __Loc$3[ebp+4]
; File C:\Program Files (x86)\Microsoft Visual Studio\2019\Professional\VC\Tools\MSVC\14.29.30133\include\xstring

; 2869 :         _CSTD memcpy(_My_data_mem, _Right_data_mem, _Memcpy_val_size);

  000a1	0f 11 40 10	 movups	 XMMWORD PTR [eax+16], xmm0
  000a5	f3 0f 7e 47 10	 movq	 xmm0, QWORD PTR [edi+16]
; File C:\Program Files (x86)\Microsoft Visual Studio\2019\Professional\VC\Tools\MSVC\14.29.30133\include\map

; 190  :         return {_Scary->_Insert_node(_Loc._Location, _Inserted), true};

  000aa	ff 75 dc	 push	 DWORD PTR __Loc$3[ebp]
; File C:\Program Files (x86)\Microsoft Visual Studio\2019\Professional\VC\Tools\MSVC\14.29.30133\include\xstring

; 2869 :         _CSTD memcpy(_My_data_mem, _Right_data_mem, _Memcpy_val_size);

  000ad	66 0f d6 40 20	 movq	 QWORD PTR [eax+32], xmm0

; 4596 :         _My_data._Mysize = 0;

  000b2	c7 47 10 00 00
	00 00		 mov	 DWORD PTR [edi+16], 0

; 4597 : 
; 4598 : #ifdef __cpp_lib_constexpr_string
; 4599 :         if (_STD is_constant_evaluated()) {
; 4600 :             _My_data._Myres        = _BUF_SIZE; // SSO disabled in constexpr context
; 4601 :             auto& _Al              = _Getal();
; 4602 :             const pointer _New_ptr = _Al.allocate(_BUF_SIZE + 1); // throws
; 4603 :             _My_data._Bx._Ptr      = _New_ptr;
; 4604 : 
; 4605 :             _Elem* const _Raw_new = _Unfancy(_New_ptr);
; 4606 :             _Traits::assign(_Raw_new, _BUF_SIZE + 1, _Elem());
; 4607 :         } else
; 4608 : #endif // __cpp_lib_constexpr_string
; 4609 :         {
; 4610 :             _My_data._Myres = _BUF_SIZE - 1;

  000b9	c7 47 14 0f 00
	00 00		 mov	 DWORD PTR [edi+20], 15	; 0000000fH

; 4611 :             // the _Traits::assign is last so the codegen doesn't think the char write can alias this
; 4612 :             _Traits::assign(_My_data._Bx._Buf[0], _Elem());

  000c0	c6 07 00	 mov	 BYTE PTR [edi], 0
; File C:\Program Files (x86)\Microsoft Visual Studio\2019\Professional\VC\Tools\MSVC\14.29.30133\include\vector

; 401  :     _CONSTEXPR20_CONTAINER _Vector_val() noexcept : _Myfirst(), _Mylast(), _Myend() {}

  000c3	c7 40 28 00 00
	00 00		 mov	 DWORD PTR [eax+40], 0
  000ca	c7 40 2c 00 00
	00 00		 mov	 DWORD PTR [eax+44], 0
  000d1	c7 40 30 00 00
	00 00		 mov	 DWORD PTR [eax+48], 0
; File C:\Program Files (x86)\Microsoft Visual Studio\2019\Professional\VC\Tools\MSVC\14.29.30133\include\xtree

; 813  :         _Construct_in_place(this->_Ptr->_Left, _Myhead);

  000d8	89 30		 mov	 DWORD PTR [eax], esi

; 814  :         _Construct_in_place(this->_Ptr->_Parent, _Myhead);

  000da	89 70 04	 mov	 DWORD PTR [eax+4], esi

; 815  :         _Construct_in_place(this->_Ptr->_Right, _Myhead);

  000dd	89 70 08	 mov	 DWORD PTR [eax+8], esi

; 816  :         this->_Ptr->_Color = _Red;

  000e0	66 c7 40 0c 00
	00		 mov	 WORD PTR [eax+12], 0
; File C:\Program Files (x86)\Microsoft Visual Studio\2019\Professional\VC\Tools\MSVC\14.29.30133\include\map

; 190  :         return {_Scary->_Insert_node(_Loc._Location, _Inserted), true};

  000e6	e8 00 00 00 00	 call	 ?_Insert_node@?$_Tree_val@U?$_Tree_simple_types@U?$pair@$$CBV?$basic_string@DU?$char_traits@D@std@@V?$allocator@D@2@@std@@V?$vector@V?$basic_string@DU?$char_traits@D@std@@V?$allocator@D@2@@std@@V?$allocator@V?$basic_string@DU?$char_traits@D@std@@V?$allocator@D@2@@std@@@2@@2@@std@@@std@@@std@@QAEPAU?$_Tree_node@U?$pair@$$CBV?$basic_string@DU?$char_traits@D@std@@V?$allocator@D@2@@std@@V?$vector@V?$basic_string@DU?$char_traits@D@std@@V?$allocator@D@2@@std@@V?$allocator@V?$basic_string@DU?$char_traits@D@std@@V?$allocator@D@2@@std@@@2@@2@@std@@PAX@2@U?$_Tree_id@PAU?$_Tree_node@U?$pair@$$CBV?$basic_string@DU?$char_traits@D@std@@V?$allocator@D@2@@std@@V?$vector@V?$basic_string@DU?$char_traits@D@std@@V?$allocator@D@2@@std@@V?$allocator@V?$basic_string@DU?$char_traits@D@std@@V?$allocator@D@2@@std@@@2@@2@@std@@PAX@std@@@2@QAU32@@Z ; std::_Tree_val<std::_Tree_simple_types<std::pair<std::basic_string<char,std::char_traits<char>,std::allocator<char> > const ,std::vector<std::basic_string<char,std::char_traits<char>,std::allocator<char> >,std::allocator<std::basic_string<char,std::char_traits<char>,std::allocator<char> > > > > > >::_Insert_node
  000eb	8b f0		 mov	 esi, eax
$LN3@operator:

; 154  :         return _Try_emplace(_STD move(_Keyval)).first->_Myval.second;

  000ed	8d 46 28	 lea	 eax, DWORD PTR [esi+40]

; 155  :     }

  000f0	8b 4d f4	 mov	 ecx, DWORD PTR __$EHRec$[ebp]
  000f3	64 89 0d 00 00
	00 00		 mov	 DWORD PTR fs:0, ecx
  000fa	59		 pop	 ecx
  000fb	5f		 pop	 edi
  000fc	5e		 pop	 esi
  000fd	8b e5		 mov	 esp, ebp
  000ff	5d		 pop	 ebp
  00100	c2 04 00	 ret	 4
$LN133@operator:
; File C:\Program Files (x86)\Microsoft Visual Studio\2019\Professional\VC\Tools\MSVC\14.29.30133\include\xtree

; 1624 :             _Throw_tree_length_error();

  00103	e8 00 00 00 00	 call	 ?_Throw_tree_length_error@std@@YAXXZ ; std::_Throw_tree_length_error
$LN131@operator:
  00108	cc		 int	 3
_TEXT	ENDS
;	COMDAT text$x
text$x	SEGMENT
__unwindfunclet$??A?$map@V?$basic_string@DU?$char_traits@D@std@@V?$allocator@D@2@@std@@V?$vector@V?$basic_string@DU?$char_traits@D@std@@V?$allocator@D@2@@std@@V?$allocator@V?$basic_string@DU?$char_traits@D@std@@V?$allocator@D@2@@std@@@2@@2@U?$less@V?$basic_string@DU?$char_traits@D@std@@V?$allocator@D@2@@std@@@2@V?$allocator@U?$pair@$$CBV?$basic_string@DU?$char_traits@D@std@@V?$allocator@D@2@@std@@V?$vector@V?$basic_string@DU?$char_traits@D@std@@V?$allocator@D@2@@std@@V?$allocator@V?$basic_string@DU?$char_traits@D@std@@V?$allocator@D@2@@std@@@2@@2@@std@@@2@@std@@QAEAAV?$vector@V?$basic_string@DU?$char_traits@D@std@@V?$allocator@D@2@@std@@V?$allocator@V?$basic_string@DU?$char_traits@D@std@@V?$allocator@D@2@@std@@@2@@1@$$QAV?$basic_string@DU?$char_traits@D@std@@V?$allocator@D@2@@1@@Z$2:
  00000	8d 4d e8	 lea	 ecx, DWORD PTR $T4[ebp]
  00003	e9 00 00 00 00	 jmp	 ??1?$_Alloc_construct_ptr@V?$allocator@U?$_Tree_node@U?$pair@$$CBV?$basic_string@DU?$char_traits@D@std@@V?$allocator@D@2@@std@@V?$vector@V?$basic_string@DU?$char_traits@D@std@@V?$allocator@D@2@@std@@V?$allocator@V?$basic_string@DU?$char_traits@D@std@@V?$allocator@D@2@@std@@@2@@2@@std@@PAX@std@@@std@@@std@@QAE@XZ ; std::_Alloc_construct_ptr<std::allocator<std::_Tree_node<std::pair<std::basic_string<char,std::char_traits<char>,std::allocator<char> > const ,std::vector<std::basic_string<char,std::char_traits<char>,std::allocator<char> >,std::allocator<std::basic_string<char,std::char_traits<char>,std::allocator<char> > > > >,void *> > >::~_Alloc_construct_ptr<std::allocator<std::_Tree_node<std::pair<std::basic_string<char,std::char_traits<char>,std::allocator<char> > const ,std::vector<std::basic_string<char,std::char_traits<char>,std::allocator<char> >,std::allocator<std::basic_string<char,std::char_traits<char>,std::allocator<char> > > > >,void *> > >
  00008	cc		 int	 3
  00009	cc		 int	 3
  0000a	cc		 int	 3
  0000b	cc		 int	 3
  0000c	cc		 int	 3
__ehhandler$??A?$map@V?$basic_string@DU?$char_traits@D@std@@V?$allocator@D@2@@std@@V?$vector@V?$basic_string@DU?$char_traits@D@std@@V?$allocator@D@2@@std@@V?$allocator@V?$basic_string@DU?$char_traits@D@std@@V?$allocator@D@2@@std@@@2@@2@U?$less@V?$basic_string@DU?$char_traits@D@std@@V?$allocator@D@2@@std@@@2@V?$allocator@U?$pair@$$CBV?$basic_string@DU?$char_traits@D@std@@V?$allocator@D@2@@std@@V?$vector@V?$basic_string@DU?$char_traits@D@std@@V?$allocator@D@2@@std@@V?$allocator@V?$basic_string@DU?$char_traits@D@std@@V?$allocator@D@2@@std@@@2@@2@@std@@@2@@std@@QAEAAV?$vector@V?$basic_string@DU?$char_traits@D@std@@V?$allocator@D@2@@std@@V?$allocator@V?$basic_string@DU?$char_traits@D@std@@V?$allocator@D@2@@std@@@2@@1@$$QAV?$basic_string@DU?$char_traits@D@std@@V?$allocator@D@2@@1@@Z:
  0000d	90		 npad	 1
  0000e	90		 npad	 1
  0000f	8b 54 24 08	 mov	 edx, DWORD PTR [esp+8]
  00013	8d 42 0c	 lea	 eax, DWORD PTR [edx+12]
  00016	8b 4a dc	 mov	 ecx, DWORD PTR [edx-36]
  00019	33 c8		 xor	 ecx, eax
  0001b	e8 00 00 00 00	 call	 @__security_check_cookie@4
  00020	b8 00 00 00 00	 mov	 eax, OFFSET __ehfuncinfo$??A?$map@V?$basic_string@DU?$char_traits@D@std@@V?$allocator@D@2@@std@@V?$vector@V?$basic_string@DU?$char_traits@D@std@@V?$allocator@D@2@@std@@V?$allocator@V?$basic_string@DU?$char_traits@D@std@@V?$allocator@D@2@@std@@@2@@2@U?$less@V?$basic_string@DU?$char_traits@D@std@@V?$allocator@D@2@@std@@@2@V?$allocator@U?$pair@$$CBV?$basic_string@DU?$char_traits@D@std@@V?$allocator@D@2@@std@@V?$vector@V?$basic_string@DU?$char_traits@D@std@@V?$allocator@D@2@@std@@V?$allocator@V?$basic_string@DU?$char_traits@D@std@@V?$allocator@D@2@@std@@@2@@2@@std@@@2@@std@@QAEAAV?$vector@V?$basic_string@DU?$char_traits@D@std@@V?$allocator@D@2@@std@@V?$allocator@V?$basic_string@DU?$char_traits@D@std@@V?$allocator@D@2@@std@@@2@@1@$$QAV?$basic_string@DU?$char_traits@D@std@@V?$allocator@D@2@@1@@Z
  00025	e9 00 00 00 00	 jmp	 ___CxxFrameHandler3
text$x	ENDS
??A?$map@V?$basic_string@DU?$char_traits@D@std@@V?$allocator@D@2@@std@@V?$vector@V?$basic_string@DU?$char_traits@D@std@@V?$allocator@D@2@@std@@V?$allocator@V?$basic_string@DU?$char_traits@D@std@@V?$allocator@D@2@@std@@@2@@2@U?$less@V?$basic_string@DU?$char_traits@D@std@@V?$allocator@D@2@@std@@@2@V?$allocator@U?$pair@$$CBV?$basic_string@DU?$char_traits@D@std@@V?$allocator@D@2@@std@@V?$vector@V?$basic_string@DU?$char_traits@D@std@@V?$allocator@D@2@@std@@V?$allocator@V?$basic_string@DU?$char_traits@D@std@@V?$allocator@D@2@@std@@@2@@2@@std@@@2@@std@@QAEAAV?$vector@V?$basic_string@DU?$char_traits@D@std@@V?$allocator@D@2@@std@@V?$allocator@V?$basic_string@DU?$char_traits@D@std@@V?$allocator@D@2@@std@@@2@@1@$$QAV?$basic_string@DU?$char_traits@D@std@@V?$allocator@D@2@@1@@Z ENDP ; std::map<std::basic_string<char,std::char_traits<char>,std::allocator<char> >,std::vector<std::basic_string<char,std::char_traits<char>,std::allocator<char> >,std::allocator<std::basic_string<char,std::char_traits<char>,std::allocator<char> > > >,std::less<std::basic_string<char,std::char_traits<char>,std::allocator<char> > >,std::allocator<std::pair<std::basic_string<char,std::char_traits<char>,std::allocator<char> > const ,std::vector<std::basic_string<char,std::char_traits<char>,std::allocator<char> >,std::allocator<std::basic_string<char,std::char_traits<char>,std::allocator<char> > > > > > >::operator[]
; Function compile flags: /Ogtp
; File C:\Program Files (x86)\Microsoft Visual Studio\2019\Professional\VC\Tools\MSVC\14.29.30133\include\xtree
;	COMDAT ?_Insert_node@?$_Tree_val@U?$_Tree_simple_types@U?$pair@$$CBV?$basic_string@DU?$char_traits@D@std@@V?$allocator@D@2@@std@@V?$vector@V?$basic_string@DU?$char_traits@D@std@@V?$allocator@D@2@@std@@V?$allocator@V?$basic_string@DU?$char_traits@D@std@@V?$allocator@D@2@@std@@@2@@2@@std@@@std@@@std@@QAEPAU?$_Tree_node@U?$pair@$$CBV?$basic_string@DU?$char_traits@D@std@@V?$allocator@D@2@@std@@V?$vector@V?$basic_string@DU?$char_traits@D@std@@V?$allocator@D@2@@std@@V?$allocator@V?$basic_string@DU?$char_traits@D@std@@V?$allocator@D@2@@std@@@2@@2@@std@@PAX@2@U?$_Tree_id@PAU?$_Tree_node@U?$pair@$$CBV?$basic_string@DU?$char_traits@D@std@@V?$allocator@D@2@@std@@V?$vector@V?$basic_string@DU?$char_traits@D@std@@V?$allocator@D@2@@std@@V?$allocator@V?$basic_string@DU?$char_traits@D@std@@V?$allocator@D@2@@std@@@2@@2@@std@@PAX@std@@@2@QAU32@@Z
_TEXT	SEGMENT
__Head$1$ = -8						; size = 4
_this$1$ = -4						; size = 4
__Loc$ = 8						; size = 8
__Newnode$ = 16						; size = 4
?_Insert_node@?$_Tree_val@U?$_Tree_simple_types@U?$pair@$$CBV?$basic_string@DU?$char_traits@D@std@@V?$allocator@D@2@@std@@V?$vector@V?$basic_string@DU?$char_traits@D@std@@V?$allocator@D@2@@std@@V?$allocator@V?$basic_string@DU?$char_traits@D@std@@V?$allocator@D@2@@std@@@2@@2@@std@@@std@@@std@@QAEPAU?$_Tree_node@U?$pair@$$CBV?$basic_string@DU?$char_traits@D@std@@V?$allocator@D@2@@std@@V?$vector@V?$basic_string@DU?$char_traits@D@std@@V?$allocator@D@2@@std@@V?$allocator@V?$basic_string@DU?$char_traits@D@std@@V?$allocator@D@2@@std@@@2@@2@@std@@PAX@2@U?$_Tree_id@PAU?$_Tree_node@U?$pair@$$CBV?$basic_string@DU?$char_traits@D@std@@V?$allocator@D@2@@std@@V?$vector@V?$basic_string@DU?$char_traits@D@std@@V?$allocator@D@2@@std@@V?$allocator@V?$basic_string@DU?$char_traits@D@std@@V?$allocator@D@2@@std@@@2@@2@@std@@PAX@std@@@2@QAU32@@Z PROC ; std::_Tree_val<std::_Tree_simple_types<std::pair<std::basic_string<char,std::char_traits<char>,std::allocator<char> > const ,std::vector<std::basic_string<char,std::char_traits<char>,std::allocator<char> >,std::allocator<std::basic_string<char,std::char_traits<char>,std::allocator<char> > > > > > >::_Insert_node, COMDAT
; _this$ = ecx

; 650  :     _Nodeptr _Insert_node(const _Tree_id<_Nodeptr> _Loc, const _Nodeptr _Newnode) noexcept {

  00000	55		 push	 ebp
  00001	8b ec		 mov	 ebp, esp
  00003	83 ec 08	 sub	 esp, 8

; 651  :         ++_Mysize;
; 652  :         const auto _Head  = _Myhead;
; 653  :         _Newnode->_Parent = _Loc._Parent;

  00006	8b 55 08	 mov	 edx, DWORD PTR __Loc$[ebp]
  00009	8b c1		 mov	 eax, ecx
  0000b	89 45 fc	 mov	 DWORD PTR _this$1$[ebp], eax
  0000e	8b 08		 mov	 ecx, DWORD PTR [eax]
  00010	ff 40 04	 inc	 DWORD PTR [eax+4]
  00013	8b 45 10	 mov	 eax, DWORD PTR __Newnode$[ebp]
  00016	89 4d f8	 mov	 DWORD PTR __Head$1$[ebp], ecx
  00019	89 50 04	 mov	 DWORD PTR [eax+4], edx

; 654  :         if (_Loc._Parent == _Head) { // first node in tree, just set head values

  0001c	3b d1		 cmp	 edx, ecx
  0001e	75 12		 jne	 SHORT $LN5@Insert_nod

; 655  :             _Head->_Left     = _Newnode;

  00020	89 01		 mov	 DWORD PTR [ecx], eax

; 656  :             _Head->_Parent   = _Newnode;

  00022	89 41 04	 mov	 DWORD PTR [ecx+4], eax

; 657  :             _Head->_Right    = _Newnode;

  00025	89 41 08	 mov	 DWORD PTR [ecx+8], eax

; 658  :             _Newnode->_Color = _Black; // the root is black

  00028	c6 40 0c 01	 mov	 BYTE PTR [eax+12], 1

; 717  :     }

  0002c	8b e5		 mov	 esp, ebp
  0002e	5d		 pop	 ebp
  0002f	c2 0c 00	 ret	 12			; 0000000cH
$LN5@Insert_nod:

; 659  :             return _Newnode;
; 660  :         }
; 661  : 
; 662  :         _STL_INTERNAL_CHECK(_Loc._Child != _Tree_child::_Unused);
; 663  :         if (_Loc._Child == _Tree_child::_Right) { // add to right of _Loc._Parent

  00032	83 7d 0c 00	 cmp	 DWORD PTR __Loc$[ebp+4], 0
  00036	75 0d		 jne	 SHORT $LN6@Insert_nod

; 664  :             _STL_INTERNAL_CHECK(_Loc._Parent->_Right->_Isnil);
; 665  :             _Loc._Parent->_Right = _Newnode;

  00038	89 42 08	 mov	 DWORD PTR [edx+8], eax

; 666  :             if (_Loc._Parent == _Head->_Right) { // remember rightmost node

  0003b	3b 51 08	 cmp	 edx, DWORD PTR [ecx+8]
  0003e	75 0d		 jne	 SHORT $LN9@Insert_nod

; 667  :                 _Head->_Right = _Newnode;

  00040	89 41 08	 mov	 DWORD PTR [ecx+8], eax

; 668  :             }
; 669  :         } else { // add to left of _Loc._Parent

  00043	eb 08		 jmp	 SHORT $LN9@Insert_nod
$LN6@Insert_nod:

; 670  :             _STL_INTERNAL_CHECK(_Loc._Parent->_Left->_Isnil);
; 671  :             _Loc._Parent->_Left = _Newnode;

  00045	89 02		 mov	 DWORD PTR [edx], eax

; 672  :             if (_Loc._Parent == _Head->_Left) { // remember leftmost node

  00047	3b 11		 cmp	 edx, DWORD PTR [ecx]
  00049	75 02		 jne	 SHORT $LN9@Insert_nod

; 673  :                 _Head->_Left = _Newnode;

  0004b	89 01		 mov	 DWORD PTR [ecx], eax
$LN9@Insert_nod:

; 674  :             }
; 675  :         }
; 676  : 
; 677  :         for (_Nodeptr _Pnode = _Newnode; _Pnode->_Parent->_Color == _Red;) {

  0004d	8b d0		 mov	 edx, eax
  0004f	8b 40 04	 mov	 eax, DWORD PTR [eax+4]
  00052	80 78 0c 00	 cmp	 BYTE PTR [eax+12], 0
  00056	0f 85 99 01 00
	00		 jne	 $LN3@Insert_nod
  0005c	53		 push	 ebx
  0005d	56		 push	 esi
  0005e	57		 push	 edi
  0005f	90		 npad	 1
$LL2@Insert_nod:

; 678  :             if (_Pnode->_Parent == _Pnode->_Parent->_Parent->_Left) { // fixup red-red in left subtree

  00060	8b 4a 04	 mov	 ecx, DWORD PTR [edx+4]
  00063	8d 7a 04	 lea	 edi, DWORD PTR [edx+4]
  00066	8b 71 04	 mov	 esi, DWORD PTR [ecx+4]
  00069	8d 59 04	 lea	 ebx, DWORD PTR [ecx+4]
  0006c	8b 06		 mov	 eax, DWORD PTR [esi]
  0006e	3b c8		 cmp	 ecx, eax
  00070	0f 85 ba 00 00
	00		 jne	 $LN10@Insert_nod

; 679  :                 const auto _Parent_sibling = _Pnode->_Parent->_Parent->_Right;

  00076	8b 46 08	 mov	 eax, DWORD PTR [esi+8]

; 680  :                 if (_Parent_sibling->_Color == _Red) { // parent's sibling has two red children, blacken both

  00079	80 78 0c 00	 cmp	 BYTE PTR [eax+12], 0
  0007d	0f 84 b3 00 00
	00		 je	 $LN53@Insert_nod

; 681  :                     _Pnode->_Parent->_Color          = _Black;
; 682  :                     _Parent_sibling->_Color          = _Black;
; 683  :                     _Pnode->_Parent->_Parent->_Color = _Red;
; 684  :                     _Pnode                           = _Pnode->_Parent->_Parent;
; 685  :                 } else { // parent's sibling has red and black children
; 686  :                     if (_Pnode == _Pnode->_Parent->_Right) { // rotate right child to left

  00083	8b 71 08	 mov	 esi, DWORD PTR [ecx+8]
  00086	3b d6		 cmp	 edx, esi
  00088	75 47		 jne	 SHORT $LN51@Insert_nod

; 466  :         _Wherenode->_Right = _Pnode->_Left;

  0008a	8b 06		 mov	 eax, DWORD PTR [esi]

; 687  :                         _Pnode = _Pnode->_Parent;

  0008c	8b d1		 mov	 edx, ecx

; 466  :         _Wherenode->_Right = _Pnode->_Left;

  0008e	89 42 08	 mov	 DWORD PTR [edx+8], eax

; 467  : 
; 468  :         if (!_Pnode->_Left->_Isnil) {

  00091	8b 06		 mov	 eax, DWORD PTR [esi]
  00093	80 78 0d 00	 cmp	 BYTE PTR [eax+13], 0
  00097	75 03		 jne	 SHORT $LN20@Insert_nod

; 469  :             _Pnode->_Left->_Parent = _Wherenode;

  00099	89 50 04	 mov	 DWORD PTR [eax+4], edx
$LN20@Insert_nod:

; 470  :         }
; 471  : 
; 472  :         _Pnode->_Parent = _Wherenode->_Parent;

  0009c	8b 03		 mov	 eax, DWORD PTR [ebx]
  0009e	89 46 04	 mov	 DWORD PTR [esi+4], eax

; 473  : 
; 474  :         if (_Wherenode == _Myhead->_Parent) {

  000a1	8b 45 fc	 mov	 eax, DWORD PTR _this$1$[ebp]
  000a4	8b 00		 mov	 eax, DWORD PTR [eax]
  000a6	3b 50 04	 cmp	 edx, DWORD PTR [eax+4]
  000a9	75 0b		 jne	 SHORT $LN21@Insert_nod

; 475  :             _Myhead->_Parent = _Pnode;

  000ab	89 70 04	 mov	 DWORD PTR [eax+4], esi

; 483  :         _Wherenode->_Parent = _Pnode;

  000ae	8b fb		 mov	 edi, ebx
  000b0	89 16		 mov	 DWORD PTR [esi], edx
  000b2	89 33		 mov	 DWORD PTR [ebx], esi
  000b4	eb 1d		 jmp	 SHORT $LN49@Insert_nod
$LN21@Insert_nod:

; 476  :         } else if (_Wherenode == _Wherenode->_Parent->_Left) {

  000b6	8b 03		 mov	 eax, DWORD PTR [ebx]
  000b8	3b 10		 cmp	 edx, DWORD PTR [eax]
  000ba	75 0a		 jne	 SHORT $LN23@Insert_nod

; 477  :             _Wherenode->_Parent->_Left = _Pnode;

  000bc	89 30		 mov	 DWORD PTR [eax], esi

; 483  :         _Wherenode->_Parent = _Pnode;

  000be	8b fb		 mov	 edi, ebx
  000c0	89 16		 mov	 DWORD PTR [esi], edx
  000c2	89 33		 mov	 DWORD PTR [ebx], esi
  000c4	eb 0d		 jmp	 SHORT $LN49@Insert_nod
$LN23@Insert_nod:

; 479  :             _Wherenode->_Parent->_Right = _Pnode;

  000c6	89 70 08	 mov	 DWORD PTR [eax+8], esi

; 483  :         _Wherenode->_Parent = _Pnode;

  000c9	8b fb		 mov	 edi, ebx
  000cb	89 16		 mov	 DWORD PTR [esi], edx
  000cd	89 33		 mov	 DWORD PTR [ebx], esi
  000cf	eb 02		 jmp	 SHORT $LN49@Insert_nod
$LN51@Insert_nod:
  000d1	8b f1		 mov	 esi, ecx
$LN49@Insert_nod:

; 688  :                         _Lrotate(_Pnode);
; 689  :                     }
; 690  : 
; 691  :                     _Pnode->_Parent->_Color          = _Black; // propagate red up

  000d3	c6 46 0c 01	 mov	 BYTE PTR [esi+12], 1

; 692  :                     _Pnode->_Parent->_Parent->_Color = _Red;

  000d7	8b 07		 mov	 eax, DWORD PTR [edi]
  000d9	8b 40 04	 mov	 eax, DWORD PTR [eax+4]
  000dc	c6 40 0c 00	 mov	 BYTE PTR [eax+12], 0

; 693  :                     _Rrotate(_Pnode->_Parent->_Parent);

  000e0	8b 07		 mov	 eax, DWORD PTR [edi]
  000e2	8b 48 04	 mov	 ecx, DWORD PTR [eax+4]

; 487  :         _Nodeptr _Pnode   = _Wherenode->_Left;

  000e5	8b 31		 mov	 esi, DWORD PTR [ecx]

; 488  :         _Wherenode->_Left = _Pnode->_Right;

  000e7	8b 46 08	 mov	 eax, DWORD PTR [esi+8]
  000ea	89 01		 mov	 DWORD PTR [ecx], eax

; 489  : 
; 490  :         if (!_Pnode->_Right->_Isnil) {

  000ec	8b 46 08	 mov	 eax, DWORD PTR [esi+8]
  000ef	80 78 0d 00	 cmp	 BYTE PTR [eax+13], 0
  000f3	75 03		 jne	 SHORT $LN27@Insert_nod

; 491  :             _Pnode->_Right->_Parent = _Wherenode;

  000f5	89 48 04	 mov	 DWORD PTR [eax+4], ecx
$LN27@Insert_nod:

; 492  :         }
; 493  : 
; 494  :         _Pnode->_Parent = _Wherenode->_Parent;

  000f8	8b 41 04	 mov	 eax, DWORD PTR [ecx+4]
  000fb	89 46 04	 mov	 DWORD PTR [esi+4], eax

; 495  : 
; 496  :         if (_Wherenode == _Myhead->_Parent) {

  000fe	8b 45 fc	 mov	 eax, DWORD PTR _this$1$[ebp]
  00101	8b 00		 mov	 eax, DWORD PTR [eax]
  00103	3b 48 04	 cmp	 ecx, DWORD PTR [eax+4]
  00106	75 0b		 jne	 SHORT $LN28@Insert_nod

; 497  :             _Myhead->_Parent = _Pnode;

  00108	89 70 04	 mov	 DWORD PTR [eax+4], esi

; 502  :         }
; 503  : 
; 504  :         _Pnode->_Right      = _Wherenode;

  0010b	89 4e 08	 mov	 DWORD PTR [esi+8], ecx

; 694  :                 }
; 695  :             } else { // fixup red-red in right subtree

  0010e	e9 cc 00 00 00	 jmp	 $LN52@Insert_nod
$LN28@Insert_nod:

; 498  :         } else if (_Wherenode == _Wherenode->_Parent->_Right) {

  00113	8b 41 04	 mov	 eax, DWORD PTR [ecx+4]
  00116	3b 48 08	 cmp	 ecx, DWORD PTR [eax+8]
  00119	75 0b		 jne	 SHORT $LN30@Insert_nod

; 499  :             _Wherenode->_Parent->_Right = _Pnode;

  0011b	89 70 08	 mov	 DWORD PTR [eax+8], esi

; 502  :         }
; 503  : 
; 504  :         _Pnode->_Right      = _Wherenode;

  0011e	89 4e 08	 mov	 DWORD PTR [esi+8], ecx

; 694  :                 }
; 695  :             } else { // fixup red-red in right subtree

  00121	e9 b9 00 00 00	 jmp	 $LN52@Insert_nod
$LN30@Insert_nod:

; 501  :             _Wherenode->_Parent->_Left = _Pnode;

  00126	89 30		 mov	 DWORD PTR [eax], esi

; 502  :         }
; 503  : 
; 504  :         _Pnode->_Right      = _Wherenode;

  00128	89 4e 08	 mov	 DWORD PTR [esi+8], ecx

; 694  :                 }
; 695  :             } else { // fixup red-red in right subtree

  0012b	e9 af 00 00 00	 jmp	 $LN52@Insert_nod
$LN10@Insert_nod:

; 696  :                 const auto _Parent_sibling = _Pnode->_Parent->_Parent->_Left;
; 697  :                 if (_Parent_sibling->_Color == _Red) { // parent's sibling has two red children, blacken both

  00130	80 78 0c 00	 cmp	 BYTE PTR [eax+12], 0
  00134	75 1b		 jne	 SHORT $LN15@Insert_nod
$LN53@Insert_nod:

; 674  :             }
; 675  :         }
; 676  : 
; 677  :         for (_Nodeptr _Pnode = _Newnode; _Pnode->_Parent->_Color == _Red;) {

  00136	c6 41 0c 01	 mov	 BYTE PTR [ecx+12], 1
  0013a	c6 40 0c 01	 mov	 BYTE PTR [eax+12], 1
  0013e	8b 07		 mov	 eax, DWORD PTR [edi]
  00140	8b 40 04	 mov	 eax, DWORD PTR [eax+4]
  00143	c6 40 0c 00	 mov	 BYTE PTR [eax+12], 0
  00147	8b 07		 mov	 eax, DWORD PTR [edi]
  00149	8b 50 04	 mov	 edx, DWORD PTR [eax+4]
  0014c	e9 91 00 00 00	 jmp	 $LN46@Insert_nod
$LN15@Insert_nod:

; 698  :                     _Pnode->_Parent->_Color          = _Black;
; 699  :                     _Parent_sibling->_Color          = _Black;
; 700  :                     _Pnode->_Parent->_Parent->_Color = _Red;
; 701  :                     _Pnode                           = _Pnode->_Parent->_Parent;
; 702  :                 } else { // parent's sibling has red and black children
; 703  :                     if (_Pnode == _Pnode->_Parent->_Left) { // rotate left child to right

  00151	8b 01		 mov	 eax, DWORD PTR [ecx]
  00153	3b d0		 cmp	 edx, eax
  00155	75 3e		 jne	 SHORT $LN39@Insert_nod

; 704  :                         _Pnode = _Pnode->_Parent;

  00157	8b d1		 mov	 edx, ecx

; 487  :         _Nodeptr _Pnode   = _Wherenode->_Left;

  00159	8b c8		 mov	 ecx, eax

; 488  :         _Wherenode->_Left = _Pnode->_Right;

  0015b	8b 41 08	 mov	 eax, DWORD PTR [ecx+8]
  0015e	89 02		 mov	 DWORD PTR [edx], eax

; 489  : 
; 490  :         if (!_Pnode->_Right->_Isnil) {

  00160	8b 41 08	 mov	 eax, DWORD PTR [ecx+8]
  00163	80 78 0d 00	 cmp	 BYTE PTR [eax+13], 0
  00167	75 03		 jne	 SHORT $LN34@Insert_nod

; 491  :             _Pnode->_Right->_Parent = _Wherenode;

  00169	89 50 04	 mov	 DWORD PTR [eax+4], edx
$LN34@Insert_nod:

; 492  :         }
; 493  : 
; 494  :         _Pnode->_Parent = _Wherenode->_Parent;

  0016c	8b 03		 mov	 eax, DWORD PTR [ebx]
  0016e	89 41 04	 mov	 DWORD PTR [ecx+4], eax

; 495  : 
; 496  :         if (_Wherenode == _Myhead->_Parent) {

  00171	8b 45 fc	 mov	 eax, DWORD PTR _this$1$[ebp]
  00174	8b 00		 mov	 eax, DWORD PTR [eax]
  00176	3b 50 04	 cmp	 edx, DWORD PTR [eax+4]
  00179	75 05		 jne	 SHORT $LN35@Insert_nod

; 497  :             _Myhead->_Parent = _Pnode;

  0017b	89 48 04	 mov	 DWORD PTR [eax+4], ecx
  0017e	eb 0e		 jmp	 SHORT $LN38@Insert_nod
$LN35@Insert_nod:

; 498  :         } else if (_Wherenode == _Wherenode->_Parent->_Right) {

  00180	8b 03		 mov	 eax, DWORD PTR [ebx]
  00182	3b 50 08	 cmp	 edx, DWORD PTR [eax+8]
  00185	75 05		 jne	 SHORT $LN37@Insert_nod

; 499  :             _Wherenode->_Parent->_Right = _Pnode;

  00187	89 48 08	 mov	 DWORD PTR [eax+8], ecx

; 500  :         } else {

  0018a	eb 02		 jmp	 SHORT $LN38@Insert_nod
$LN37@Insert_nod:

; 501  :             _Wherenode->_Parent->_Left = _Pnode;

  0018c	89 08		 mov	 DWORD PTR [eax], ecx
$LN38@Insert_nod:

; 502  :         }
; 503  : 
; 504  :         _Pnode->_Right      = _Wherenode;

  0018e	89 51 08	 mov	 DWORD PTR [ecx+8], edx

; 505  :         _Wherenode->_Parent = _Pnode;

  00191	8b fb		 mov	 edi, ebx
  00193	89 0b		 mov	 DWORD PTR [ebx], ecx
$LN39@Insert_nod:

; 705  :                         _Rrotate(_Pnode);
; 706  :                     }
; 707  : 
; 708  :                     _Pnode->_Parent->_Color          = _Black; // propagate red up

  00195	c6 41 0c 01	 mov	 BYTE PTR [ecx+12], 1

; 709  :                     _Pnode->_Parent->_Parent->_Color = _Red;

  00199	8b 07		 mov	 eax, DWORD PTR [edi]
  0019b	8b 40 04	 mov	 eax, DWORD PTR [eax+4]
  0019e	c6 40 0c 00	 mov	 BYTE PTR [eax+12], 0

; 710  :                     _Lrotate(_Pnode->_Parent->_Parent);

  001a2	8b 07		 mov	 eax, DWORD PTR [edi]
  001a4	8b 48 04	 mov	 ecx, DWORD PTR [eax+4]

; 465  :         _Nodeptr _Pnode    = _Wherenode->_Right;

  001a7	8b 71 08	 mov	 esi, DWORD PTR [ecx+8]

; 466  :         _Wherenode->_Right = _Pnode->_Left;

  001aa	8b 06		 mov	 eax, DWORD PTR [esi]
  001ac	89 41 08	 mov	 DWORD PTR [ecx+8], eax

; 467  : 
; 468  :         if (!_Pnode->_Left->_Isnil) {

  001af	8b 06		 mov	 eax, DWORD PTR [esi]
  001b1	80 78 0d 00	 cmp	 BYTE PTR [eax+13], 0
  001b5	75 03		 jne	 SHORT $LN41@Insert_nod

; 469  :             _Pnode->_Left->_Parent = _Wherenode;

  001b7	89 48 04	 mov	 DWORD PTR [eax+4], ecx
$LN41@Insert_nod:

; 470  :         }
; 471  : 
; 472  :         _Pnode->_Parent = _Wherenode->_Parent;

  001ba	8b 41 04	 mov	 eax, DWORD PTR [ecx+4]
  001bd	89 46 04	 mov	 DWORD PTR [esi+4], eax

; 473  : 
; 474  :         if (_Wherenode == _Myhead->_Parent) {

  001c0	8b 45 fc	 mov	 eax, DWORD PTR _this$1$[ebp]
  001c3	8b 00		 mov	 eax, DWORD PTR [eax]
  001c5	3b 48 04	 cmp	 ecx, DWORD PTR [eax+4]
  001c8	75 05		 jne	 SHORT $LN42@Insert_nod

; 475  :             _Myhead->_Parent = _Pnode;

  001ca	89 70 04	 mov	 DWORD PTR [eax+4], esi
  001cd	eb 0e		 jmp	 SHORT $LN45@Insert_nod
$LN42@Insert_nod:

; 476  :         } else if (_Wherenode == _Wherenode->_Parent->_Left) {

  001cf	8b 41 04	 mov	 eax, DWORD PTR [ecx+4]
  001d2	3b 08		 cmp	 ecx, DWORD PTR [eax]
  001d4	75 04		 jne	 SHORT $LN44@Insert_nod

; 477  :             _Wherenode->_Parent->_Left = _Pnode;

  001d6	89 30		 mov	 DWORD PTR [eax], esi

; 478  :         } else {

  001d8	eb 03		 jmp	 SHORT $LN45@Insert_nod
$LN44@Insert_nod:

; 479  :             _Wherenode->_Parent->_Right = _Pnode;

  001da	89 70 08	 mov	 DWORD PTR [eax+8], esi
$LN45@Insert_nod:

; 480  :         }
; 481  : 
; 482  :         _Pnode->_Left       = _Wherenode;

  001dd	89 0e		 mov	 DWORD PTR [esi], ecx
$LN52@Insert_nod:

; 674  :             }
; 675  :         }
; 676  : 
; 677  :         for (_Nodeptr _Pnode = _Newnode; _Pnode->_Parent->_Color == _Red;) {

  001df	89 71 04	 mov	 DWORD PTR [ecx+4], esi
$LN46@Insert_nod:
  001e2	8b 42 04	 mov	 eax, DWORD PTR [edx+4]
  001e5	80 78 0c 00	 cmp	 BYTE PTR [eax+12], 0
  001e9	0f 84 71 fe ff
	ff		 je	 $LL2@Insert_nod
  001ef	8b 4d f8	 mov	 ecx, DWORD PTR __Head$1$[ebp]
  001f2	5f		 pop	 edi
  001f3	5e		 pop	 esi
  001f4	5b		 pop	 ebx
$LN3@Insert_nod:

; 711  :                 }
; 712  :             }
; 713  :         }
; 714  : 
; 715  :         _Head->_Parent->_Color = _Black; // root is always black

  001f5	8b 41 04	 mov	 eax, DWORD PTR [ecx+4]
  001f8	c6 40 0c 01	 mov	 BYTE PTR [eax+12], 1

; 716  :         return _Newnode;

  001fc	8b 45 10	 mov	 eax, DWORD PTR __Newnode$[ebp]

; 717  :     }

  001ff	8b e5		 mov	 esp, ebp
  00201	5d		 pop	 ebp
  00202	c2 0c 00	 ret	 12			; 0000000cH
?_Insert_node@?$_Tree_val@U?$_Tree_simple_types@U?$pair@$$CBV?$basic_string@DU?$char_traits@D@std@@V?$allocator@D@2@@std@@V?$vector@V?$basic_string@DU?$char_traits@D@std@@V?$allocator@D@2@@std@@V?$allocator@V?$basic_string@DU?$char_traits@D@std@@V?$allocator@D@2@@std@@@2@@2@@std@@@std@@@std@@QAEPAU?$_Tree_node@U?$pair@$$CBV?$basic_string@DU?$char_traits@D@std@@V?$allocator@D@2@@std@@V?$vector@V?$basic_string@DU?$char_traits@D@std@@V?$allocator@D@2@@std@@V?$allocator@V?$basic_string@DU?$char_traits@D@std@@V?$allocator@D@2@@std@@@2@@2@@std@@PAX@2@U?$_Tree_id@PAU?$_Tree_node@U?$pair@$$CBV?$basic_string@DU?$char_traits@D@std@@V?$allocator@D@2@@std@@V?$vector@V?$basic_string@DU?$char_traits@D@std@@V?$allocator@D@2@@std@@V?$allocator@V?$basic_string@DU?$char_traits@D@std@@V?$allocator@D@2@@std@@@2@@2@@std@@PAX@std@@@2@QAU32@@Z ENDP ; std::_Tree_val<std::_Tree_simple_types<std::pair<std::basic_string<char,std::char_traits<char>,std::allocator<char> > const ,std::vector<std::basic_string<char,std::char_traits<char>,std::allocator<char> >,std::allocator<std::basic_string<char,std::char_traits<char>,std::allocator<char> > > > > > >::_Insert_node
_TEXT	ENDS
; Function compile flags: /Ogtp
; File C:\Program Files (x86)\Microsoft Visual Studio\2019\Professional\VC\Tools\MSVC\14.29.30133\include\xtree
; File C:\Program Files (x86)\Microsoft Visual Studio\2019\Professional\VC\Tools\MSVC\14.29.30133\include\xstddef
; File C:\Program Files (x86)\Microsoft Visual Studio\2019\Professional\VC\Tools\MSVC\14.29.30133\include\xtree
;	COMDAT ?find@?$_Tree@V?$_Tmap_traits@V?$basic_string@DU?$char_traits@D@std@@V?$allocator@D@2@@std@@V?$vector@V?$basic_string@DU?$char_traits@D@std@@V?$allocator@D@2@@std@@V?$allocator@V?$basic_string@DU?$char_traits@D@std@@V?$allocator@D@2@@std@@@2@@2@U?$less@V?$basic_string@DU?$char_traits@D@std@@V?$allocator@D@2@@std@@@2@V?$allocator@U?$pair@$$CBV?$basic_string@DU?$char_traits@D@std@@V?$allocator@D@2@@std@@V?$vector@V?$basic_string@DU?$char_traits@D@std@@V?$allocator@D@2@@std@@V?$allocator@V?$basic_string@DU?$char_traits@D@std@@V?$allocator@D@2@@std@@@2@@2@@std@@@2@$0A@@std@@@std@@QAE?AV?$_Tree_iterator@V?$_Tree_val@U?$_Tree_simple_types@U?$pair@$$CBV?$basic_string@DU?$char_traits@D@std@@V?$allocator@D@2@@std@@V?$vector@V?$basic_string@DU?$char_traits@D@std@@V?$allocator@D@2@@std@@V?$allocator@V?$basic_string@DU?$char_traits@D@std@@V?$allocator@D@2@@std@@@2@@2@@std@@@std@@@std@@@2@ABV?$basic_string@DU?$char_traits@D@std@@V?$allocator@D@2@@2@@Z
_TEXT	SEGMENT
__Loc$1 = -12						; size = 12
___$ReturnUdt$ = 8					; size = 4
__Keyval$ = 12						; size = 4
?find@?$_Tree@V?$_Tmap_traits@V?$basic_string@DU?$char_traits@D@std@@V?$allocator@D@2@@std@@V?$vector@V?$basic_string@DU?$char_traits@D@std@@V?$allocator@D@2@@std@@V?$allocator@V?$basic_string@DU?$char_traits@D@std@@V?$allocator@D@2@@std@@@2@@2@U?$less@V?$basic_string@DU?$char_traits@D@std@@V?$allocator@D@2@@std@@@2@V?$allocator@U?$pair@$$CBV?$basic_string@DU?$char_traits@D@std@@V?$allocator@D@2@@std@@V?$vector@V?$basic_string@DU?$char_traits@D@std@@V?$allocator@D@2@@std@@V?$allocator@V?$basic_string@DU?$char_traits@D@std@@V?$allocator@D@2@@std@@@2@@2@@std@@@2@$0A@@std@@@std@@QAE?AV?$_Tree_iterator@V?$_Tree_val@U?$_Tree_simple_types@U?$pair@$$CBV?$basic_string@DU?$char_traits@D@std@@V?$allocator@D@2@@std@@V?$vector@V?$basic_string@DU?$char_traits@D@std@@V?$allocator@D@2@@std@@V?$allocator@V?$basic_string@DU?$char_traits@D@std@@V?$allocator@D@2@@std@@@2@@2@@std@@@std@@@std@@@2@ABV?$basic_string@DU?$char_traits@D@std@@V?$allocator@D@2@@2@@Z PROC ; std::_Tree<std::_Tmap_traits<std::basic_string<char,std::char_traits<char>,std::allocator<char> >,std::vector<std::basic_string<char,std::char_traits<char>,std::allocator<char> >,std::allocator<std::basic_string<char,std::char_traits<char>,std::allocator<char> > > >,std::less<std::basic_string<char,std::char_traits<char>,std::allocator<char> > >,std::allocator<std::pair<std::basic_string<char,std::char_traits<char>,std::allocator<char> > const ,std::vector<std::basic_string<char,std::char_traits<char>,std::allocator<char> >,std::allocator<std::basic_string<char,std::char_traits<char>,std::allocator<char> > > > > >,0> >::find, COMDAT
; _this$ = ecx

; 1370 :     _NODISCARD iterator find(const key_type& _Keyval) {

  00000	55		 push	 ebp
  00001	8b ec		 mov	 ebp, esp
  00003	83 ec 0c	 sub	 esp, 12			; 0000000cH
  00006	56		 push	 esi
  00007	57		 push	 edi

; 1361 :         const _Tree_find_result<_Nodeptr> _Loc = _Find_lower_bound(_Keyval);

  00008	ff 75 0c	 push	 DWORD PTR __Keyval$[ebp]
  0000b	8d 45 f4	 lea	 eax, DWORD PTR __Loc$1[ebp]

; 1370 :     _NODISCARD iterator find(const key_type& _Keyval) {

  0000e	8b f9		 mov	 edi, ecx

; 1361 :         const _Tree_find_result<_Nodeptr> _Loc = _Find_lower_bound(_Keyval);

  00010	50		 push	 eax
  00011	e8 00 00 00 00	 call	 ??$_Find_lower_bound@V?$basic_string@DU?$char_traits@D@std@@V?$allocator@D@2@@std@@@?$_Tree@V?$_Tmap_traits@V?$basic_string@DU?$char_traits@D@std@@V?$allocator@D@2@@std@@V?$vector@V?$basic_string@DU?$char_traits@D@std@@V?$allocator@D@2@@std@@V?$allocator@V?$basic_string@DU?$char_traits@D@std@@V?$allocator@D@2@@std@@@2@@2@U?$less@V?$basic_string@DU?$char_traits@D@std@@V?$allocator@D@2@@std@@@2@V?$allocator@U?$pair@$$CBV?$basic_string@DU?$char_traits@D@std@@V?$allocator@D@2@@std@@V?$vector@V?$basic_string@DU?$char_traits@D@std@@V?$allocator@D@2@@std@@V?$allocator@V?$basic_string@DU?$char_traits@D@std@@V?$allocator@D@2@@std@@@2@@2@@std@@@2@$0A@@std@@@std@@IBE?AU?$_Tree_find_result@PAU?$_Tree_node@U?$pair@$$CBV?$basic_string@DU?$char_traits@D@std@@V?$allocator@D@2@@std@@V?$vector@V?$basic_string@DU?$char_traits@D@std@@V?$allocator@D@2@@std@@V?$allocator@V?$basic_string@DU?$char_traits@D@std@@V?$allocator@D@2@@std@@@2@@2@@std@@PAX@std@@@1@ABV?$basic_string@DU?$char_traits@D@std@@V?$allocator@D@2@@1@@Z ; std::_Tree<std::_Tmap_traits<std::basic_string<char,std::char_traits<char>,std::allocator<char> >,std::vector<std::basic_string<char,std::char_traits<char>,std::allocator<char> >,std::allocator<std::basic_string<char,std::char_traits<char>,std::allocator<char> > > >,std::less<std::basic_string<char,std::char_traits<char>,std::allocator<char> > >,std::allocator<std::pair<std::basic_string<char,std::char_traits<char>,std::allocator<char> > const ,std::vector<std::basic_string<char,std::char_traits<char>,std::allocator<char> >,std::allocator<std::basic_string<char,std::char_traits<char>,std::allocator<char> > > > > >,0> >::_Find_lower_bound<std::basic_string<char,std::char_traits<char>,std::allocator<char> > >

; 1599 :         return !_Bound->_Isnil && !_DEBUG_LT_PRED(_Getcomp(), _Keyval, _Traits::_Kfn(_Bound->_Myval));

  00016	8b 75 fc	 mov	 esi, DWORD PTR __Loc$1[ebp+8]
  00019	80 7e 0d 00	 cmp	 BYTE PTR [esi+13], 0
  0001d	75 20		 jne	 SHORT $LN4@find
  0001f	8d 46 10	 lea	 eax, DWORD PTR [esi+16]
; File C:\Program Files (x86)\Microsoft Visual Studio\2019\Professional\VC\Tools\MSVC\14.29.30133\include\xstddef

; 127  :         return _Left < _Right;

  00022	50		 push	 eax
  00023	ff 75 0c	 push	 DWORD PTR __Keyval$[ebp]
  00026	e8 00 00 00 00	 call	 ??$?MDU?$char_traits@D@std@@V?$allocator@D@1@@std@@YA_NABV?$basic_string@DU?$char_traits@D@std@@V?$allocator@D@2@@0@0@Z ; std::operator<<char,std::char_traits<char>,std::allocator<char> >
  0002b	83 c4 08	 add	 esp, 8
; File C:\Program Files (x86)\Microsoft Visual Studio\2019\Professional\VC\Tools\MSVC\14.29.30133\include\xtree

; 1599 :         return !_Bound->_Isnil && !_DEBUG_LT_PRED(_Getcomp(), _Keyval, _Traits::_Kfn(_Bound->_Myval));

  0002e	84 c0		 test	 al, al
  00030	75 0d		 jne	 SHORT $LN4@find

; 39   :     _Tree_unchecked_const_iterator(_Nodeptr _Pnode, const _Mytree* _Plist) noexcept : _Ptr(_Pnode) {

  00032	8b 45 08	 mov	 eax, DWORD PTR ___$ReturnUdt$[ebp]
  00035	5f		 pop	 edi
  00036	89 30		 mov	 DWORD PTR [eax], esi

; 1371 :         return iterator(_Find(_Keyval), _Get_scary());
; 1372 :     }

  00038	5e		 pop	 esi
  00039	8b e5		 mov	 esp, ebp
  0003b	5d		 pop	 ebp
  0003c	c2 08 00	 ret	 8
$LN4@find:

; 39   :     _Tree_unchecked_const_iterator(_Nodeptr _Pnode, const _Mytree* _Plist) noexcept : _Ptr(_Pnode) {

  0003f	8b 45 08	 mov	 eax, DWORD PTR ___$ReturnUdt$[ebp]

; 1366 :         return _Get_scary()->_Myhead;

  00042	8b 0f		 mov	 ecx, DWORD PTR [edi]
  00044	5f		 pop	 edi

; 1371 :         return iterator(_Find(_Keyval), _Get_scary());
; 1372 :     }

  00045	5e		 pop	 esi

; 39   :     _Tree_unchecked_const_iterator(_Nodeptr _Pnode, const _Mytree* _Plist) noexcept : _Ptr(_Pnode) {

  00046	89 08		 mov	 DWORD PTR [eax], ecx

; 1371 :         return iterator(_Find(_Keyval), _Get_scary());
; 1372 :     }

  00048	8b e5		 mov	 esp, ebp
  0004a	5d		 pop	 ebp
  0004b	c2 08 00	 ret	 8
?find@?$_Tree@V?$_Tmap_traits@V?$basic_string@DU?$char_traits@D@std@@V?$allocator@D@2@@std@@V?$vector@V?$basic_string@DU?$char_traits@D@std@@V?$allocator@D@2@@std@@V?$allocator@V?$basic_string@DU?$char_traits@D@std@@V?$allocator@D@2@@std@@@2@@2@U?$less@V?$basic_string@DU?$char_traits@D@std@@V?$allocator@D@2@@std@@@2@V?$allocator@U?$pair@$$CBV?$basic_string@DU?$char_traits@D@std@@V?$allocator@D@2@@std@@V?$vector@V?$basic_string@DU?$char_traits@D@std@@V?$allocator@D@2@@std@@V?$allocator@V?$basic_string@DU?$char_traits@D@std@@V?$allocator@D@2@@std@@@2@@2@@std@@@2@$0A@@std@@@std@@QAE?AV?$_Tree_iterator@V?$_Tree_val@U?$_Tree_simple_types@U?$pair@$$CBV?$basic_string@DU?$char_traits@D@std@@V?$allocator@D@2@@std@@V?$vector@V?$basic_string@DU?$char_traits@D@std@@V?$allocator@D@2@@std@@V?$allocator@V?$basic_string@DU?$char_traits@D@std@@V?$allocator@D@2@@std@@@2@@2@@std@@@std@@@std@@@2@ABV?$basic_string@DU?$char_traits@D@std@@V?$allocator@D@2@@2@@Z ENDP ; std::_Tree<std::_Tmap_traits<std::basic_string<char,std::char_traits<char>,std::allocator<char> >,std::vector<std::basic_string<char,std::char_traits<char>,std::allocator<char> >,std::allocator<std::basic_string<char,std::char_traits<char>,std::allocator<char> > > >,std::less<std::basic_string<char,std::char_traits<char>,std::allocator<char> > >,std::allocator<std::pair<std::basic_string<char,std::char_traits<char>,std::allocator<char> > const ,std::vector<std::basic_string<char,std::char_traits<char>,std::allocator<char> >,std::allocator<std::basic_string<char,std::char_traits<char>,std::allocator<char> > > > > >,0> >::find
_TEXT	ENDS
; Function compile flags: /Ogtp
; File C:\Program Files (x86)\Microsoft Visual Studio\2019\Professional\VC\Tools\MSVC\14.29.30133\include\xstring
; File C:\Program Files (x86)\Microsoft Visual Studio\2019\Professional\VC\Tools\MSVC\14.29.30133\include\xmemory
; File C:\Program Files (x86)\Microsoft Visual Studio\2019\Professional\VC\Tools\MSVC\14.29.30133\include\xstring
; File C:\Program Files (x86)\Microsoft Visual Studio\2019\Professional\VC\Tools\MSVC\14.29.30133\include\xmemory
; File C:\Program Files (x86)\Microsoft Visual Studio\2019\Professional\VC\Tools\MSVC\14.29.30133\include\xstring
;	COMDAT ??__Fs_strOldPathName@?2??Load@CMapOutdoor@@UAE_NMMM@Z@YAXXZ
text$yd	SEGMENT
??__Fs_strOldPathName@?2??Load@CMapOutdoor@@UAE_NMMM@Z@YAXXZ PROC ; `CMapOutdoor::Load'::`3'::`dynamic atexit destructor for 's_strOldPathName'', COMDAT

; 2319 :         return _BUF_SIZE <= _Myres;

  00000	8b 15 14 00 00
	00		 mov	 edx, DWORD PTR ?s_strOldPathName@?2??Load@CMapOutdoor@@UAE_NMMM@Z@4V?$basic_string@DU?$char_traits@D@std@@V?$allocator@D@2@@std@@A+20
  00006	83 fa 10	 cmp	 edx, 16			; 00000010H

; 4618 :         if (_Mypair._Myval2._Large_string_engaged()) {

  00009	72 2f		 jb	 SHORT $LN15@dynamic
; File C:\Program Files (x86)\Microsoft Visual Studio\2019\Professional\VC\Tools\MSVC\14.29.30133\include\xmemory

; 835  :         _Deallocate<_New_alignof<_Ty>>(_Ptr, sizeof(_Ty) * _Count);

  0000b	8b 0d 00 00 00
	00		 mov	 ecx, DWORD PTR ?s_strOldPathName@?2??Load@CMapOutdoor@@UAE_NMMM@Z@4V?$basic_string@DU?$char_traits@D@std@@V?$allocator@D@2@@std@@A
; File C:\Program Files (x86)\Microsoft Visual Studio\2019\Professional\VC\Tools\MSVC\14.29.30133\include\xstring

; 4622 :             _Al.deallocate(_Ptr, _Mypair._Myval2._Myres + 1);

  00011	42		 inc	 edx
; File C:\Program Files (x86)\Microsoft Visual Studio\2019\Professional\VC\Tools\MSVC\14.29.30133\include\xmemory

; 835  :         _Deallocate<_New_alignof<_Ty>>(_Ptr, sizeof(_Ty) * _Count);

  00012	8b c1		 mov	 eax, ecx

; 260  :         if (_Bytes >= _Big_allocation_threshold) { // boost the alignment of big allocations to help autovectorization

  00014	81 fa 00 10 00
	00		 cmp	 edx, 4096		; 00001000H
  0001a	72 14		 jb	 SHORT $LN25@dynamic

; 158  :     const uintptr_t _Ptr_container   = _Ptr_user[-1];

  0001c	8b 49 fc	 mov	 ecx, DWORD PTR [ecx-4]
  0001f	83 c2 23	 add	 edx, 35			; 00000023H
  00022	2b c1		 sub	 eax, ecx

; 159  : 
; 160  :     // If the following asserts, it likely means that we are performing
; 161  :     // an aligned delete on memory coming from an unaligned allocation.
; 162  :     _STL_ASSERT(_Ptr_user[-2] == _Big_allocation_sentinel, "invalid argument");
; 163  : 
; 164  :     // Extra paranoia on aligned allocation/deallocation; ensure _Ptr_container is
; 165  :     // in range [_Min_back_shift, _Non_user_size]
; 166  : #ifdef _DEBUG
; 167  :     constexpr uintptr_t _Min_back_shift = 2 * sizeof(void*);
; 168  : #else // ^^^ _DEBUG ^^^ // vvv !_DEBUG vvv
; 169  :     constexpr uintptr_t _Min_back_shift = sizeof(void*);
; 170  : #endif // _DEBUG
; 171  :     const uintptr_t _Back_shift = reinterpret_cast<uintptr_t>(_Ptr) - _Ptr_container;
; 172  :     _STL_VERIFY(_Back_shift >= _Min_back_shift && _Back_shift <= _Non_user_size, "invalid argument");

  00024	83 c0 fc	 add	 eax, -4			; fffffffcH
  00027	83 f8 1f	 cmp	 eax, 31			; 0000001fH
  0002a	0f 87 00 00 00
	00		 ja	 __invalid_parameter_noinfo_noreturn
$LN25@dynamic:

; 264  :         ::operator delete(_Ptr, _Bytes);

  00030	52		 push	 edx
  00031	51		 push	 ecx
  00032	e8 00 00 00 00	 call	 ??3@YAXPAXI@Z		; operator delete
  00037	83 c4 08	 add	 esp, 8
$LN15@dynamic:
; File C:\Program Files (x86)\Microsoft Visual Studio\2019\Professional\VC\Tools\MSVC\14.29.30133\include\xstring

; 4633 :             _Mypair._Myval2._Mysize = 0;

  0003a	c7 05 10 00 00
	00 00 00 00 00	 mov	 DWORD PTR ?s_strOldPathName@?2??Load@CMapOutdoor@@UAE_NMMM@Z@4V?$basic_string@DU?$char_traits@D@std@@V?$allocator@D@2@@std@@A+16, 0

; 4634 :             _Mypair._Myval2._Myres  = _BUF_SIZE - 1;

  00044	c7 05 14 00 00
	00 0f 00 00 00	 mov	 DWORD PTR ?s_strOldPathName@?2??Load@CMapOutdoor@@UAE_NMMM@Z@4V?$basic_string@DU?$char_traits@D@std@@V?$allocator@D@2@@std@@A+20, 15 ; 0000000fH

; 4635 :             // the _Traits::assign is last so the codegen doesn't think the char write can alias this
; 4636 :             _Traits::assign(_Mypair._Myval2._Bx._Buf[0], _Elem());

  0004e	c6 05 00 00 00
	00 00		 mov	 BYTE PTR ?s_strOldPathName@?2??Load@CMapOutdoor@@UAE_NMMM@Z@4V?$basic_string@DU?$char_traits@D@std@@V?$allocator@D@2@@std@@A, 0
  00055	c3		 ret	 0
??__Fs_strOldPathName@?2??Load@CMapOutdoor@@UAE_NMMM@Z@YAXXZ ENDP ; `CMapOutdoor::Load'::`3'::`dynamic atexit destructor for 's_strOldPathName''
text$yd	ENDS
; Function compile flags: /Ogtp
; File C:\Users\murat\Desktop\Siveps2-1-99-Project\source\client\Client\GameLib\MapOutdoorLoad.cpp
;	COMDAT ?GetEnvironmentDataName@CMapOutdoor@@QAEAAV?$basic_string@DU?$char_traits@D@std@@V?$allocator@D@2@@std@@XZ
_TEXT	SEGMENT
?GetEnvironmentDataName@CMapOutdoor@@QAEAAV?$basic_string@DU?$char_traits@D@std@@V?$allocator@D@2@@std@@XZ PROC ; CMapOutdoor::GetEnvironmentDataName, COMDAT
; _this$ = ecx

; 75   : 	return m_envDataName;

  00000	8d 81 94 13 00
	00		 lea	 eax, DWORD PTR [ecx+5012]

; 76   : }

  00006	c3		 ret	 0
?GetEnvironmentDataName@CMapOutdoor@@QAEAAV?$basic_string@DU?$char_traits@D@std@@V?$allocator@D@2@@std@@XZ ENDP ; CMapOutdoor::GetEnvironmentDataName
_TEXT	ENDS
; Function compile flags: /Ogtp
; File C:\Users\murat\Desktop\Siveps2-1-99-Project\source\client\Client\GameLib\MapOutdoorLoad.cpp
; File C:\Program Files (x86)\Microsoft Visual Studio\2019\Professional\VC\Tools\MSVC\14.29.30133\include\xstring
; File C:\Users\murat\Desktop\Siveps2-1-99-Project\source\client\Client\GameLib\MapOutdoorLoad.cpp
; File C:\Program Files (x86)\Microsoft Visual Studio\2019\Professional\VC\Tools\MSVC\14.29.30133\include\vector
; File C:\Users\murat\Desktop\Siveps2-1-99-Project\source\client\Client\GameLib\MapOutdoorLoad.cpp
; File C:\Program Files (x86)\Microsoft Visual Studio\2019\Professional\VC\Tools\MSVC\14.29.30133\include\xstring
; File C:\Users\murat\Desktop\Siveps2-1-99-Project\source\client\Client\GameLib\MapOutdoorLoad.cpp
; File C:\Program Files (x86)\Microsoft Visual Studio\2019\Professional\VC\Tools\MSVC\14.29.30133\include\xstring
; File C:\Users\murat\Desktop\Siveps2-1-99-Project\source\client\Client\GameLib\MapOutdoorLoad.cpp
; File C:\Program Files (x86)\Microsoft Visual Studio\2019\Professional\VC\Tools\MSVC\14.29.30133\include\xstring
; File C:\Users\murat\Desktop\Siveps2-1-99-Project\source\client\Client\GameLib\MapOutdoorLoad.cpp
; File C:\Program Files (x86)\Microsoft Visual Studio\2019\Professional\VC\Tools\MSVC\14.29.30133\include\vector
; File C:\Users\murat\Desktop\Siveps2-1-99-Project\source\client\Client\GameLib\MapOutdoorLoad.cpp
; File C:\Program Files (x86)\Microsoft Visual Studio\2019\Professional\VC\Tools\MSVC\14.29.30133\include\vector
; File C:\Users\murat\Desktop\Siveps2-1-99-Project\source\client\Client\GameLib\MapOutdoorLoad.cpp
; File C:\Program Files (x86)\Microsoft Visual Studio\2019\Professional\VC\Tools\MSVC\14.29.30133\include\xstring
; File C:\Users\murat\Desktop\Siveps2-1-99-Project\source\client\Client\GameLib\MapOutdoorLoad.cpp
; File C:\Program Files (x86)\Microsoft Visual Studio\2019\Professional\VC\Tools\MSVC\14.29.30133\include\xstring
; File C:\Users\murat\Desktop\Siveps2-1-99-Project\source\client\Client\GameLib\MapOutdoorLoad.cpp
; File C:\Program Files (x86)\Microsoft Visual Studio\2019\Professional\VC\Tools\MSVC\14.29.30133\include\vector
; File C:\Program Files (x86)\Microsoft Visual Studio\2019\Professional\VC\Tools\MSVC\14.29.30133\include\xstring
; File C:\Program Files (x86)\Microsoft Visual Studio\2019\Professional\VC\Tools\MSVC\14.29.30133\include\vector
; File C:\Users\murat\Desktop\Siveps2-1-99-Project\source\client\Client\GameLib\MapOutdoorLoad.cpp
; File C:\Program Files (x86)\Microsoft Visual Studio\2019\Professional\VC\Tools\MSVC\14.29.30133\include\xstring
; File C:\Program Files (x86)\Microsoft Visual Studio\2019\Professional\VC\Tools\MSVC\14.29.30133\include\vector
; File C:\Users\murat\Desktop\Siveps2-1-99-Project\source\client\Client\GameLib\MapOutdoorLoad.cpp
; File C:\Program Files (x86)\Microsoft Visual Studio\2019\Professional\VC\Tools\MSVC\14.29.30133\include\xstring
; File C:\Program Files (x86)\Microsoft Visual Studio\2019\Professional\VC\Tools\MSVC\14.29.30133\include\vector
; File C:\Users\murat\Desktop\Siveps2-1-99-Project\source\client\Client\GameLib\MapOutdoorLoad.cpp
; File C:\Program Files (x86)\Microsoft Visual Studio\2019\Professional\VC\Tools\MSVC\14.29.30133\include\xstring
; File C:\Program Files (x86)\Microsoft Visual Studio\2019\Professional\VC\Tools\MSVC\14.29.30133\include\vector
; File C:\Users\murat\Desktop\Siveps2-1-99-Project\source\client\Client\GameLib\MapOutdoorLoad.cpp
; File C:\Program Files (x86)\Microsoft Visual Studio\2019\Professional\VC\Tools\MSVC\14.29.30133\include\xstring
; File C:\Program Files (x86)\Microsoft Visual Studio\2019\Professional\VC\Tools\MSVC\14.29.30133\include\vector
; File C:\Users\murat\Desktop\Siveps2-1-99-Project\source\client\Client\GameLib\MapOutdoorLoad.cpp
; File C:\Program Files (x86)\Microsoft Visual Studio\2019\Professional\VC\Tools\MSVC\14.29.30133\include\xstring
; File C:\Program Files (x86)\Microsoft Visual Studio\2019\Professional\VC\Tools\MSVC\14.29.30133\include\vector
; File C:\Users\murat\Desktop\Siveps2-1-99-Project\source\client\Client\GameLib\MapOutdoorLoad.cpp
; File C:\Program Files (x86)\Microsoft Visual Studio\2019\Professional\VC\Tools\MSVC\14.29.30133\include\xstring
; File C:\Program Files (x86)\Microsoft Visual Studio\2019\Professional\VC\Tools\MSVC\14.29.30133\include\vector
; File C:\Users\murat\Desktop\Siveps2-1-99-Project\source\client\Client\GameLib\MapOutdoorLoad.cpp
; File C:\Program Files (x86)\Microsoft Visual Studio\2019\Professional\VC\Tools\MSVC\14.29.30133\include\xstring
; File C:\Program Files (x86)\Microsoft Visual Studio\2019\Professional\VC\Tools\MSVC\14.29.30133\include\vector
; File C:\Users\murat\Desktop\Siveps2-1-99-Project\source\client\Client\GameLib\MapOutdoorLoad.cpp
; File C:\Program Files (x86)\Microsoft Visual Studio\2019\Professional\VC\Tools\MSVC\14.29.30133\include\xstring
; File C:\Program Files (x86)\Microsoft Visual Studio\2019\Professional\VC\Tools\MSVC\14.29.30133\include\vector
; File C:\Users\murat\Desktop\Siveps2-1-99-Project\source\client\Client\GameLib\MapOutdoorLoad.cpp
; File C:\Program Files (x86)\Microsoft Visual Studio\2019\Professional\VC\Tools\MSVC\14.29.30133\include\xstring
; File C:\Users\murat\Desktop\Siveps2-1-99-Project\source\client\Client\GameLib\MapOutdoorLoad.cpp
; File C:\Program Files (x86)\Microsoft Visual Studio\2019\Professional\VC\Tools\MSVC\14.29.30133\include\xstring
; File C:\Users\murat\Desktop\Siveps2-1-99-Project\source\client\Client\GameLib\MapOutdoorLoad.cpp
; File C:\Program Files (x86)\Microsoft Visual Studio\2019\Professional\VC\Tools\MSVC\14.29.30133\include\xstring
; File C:\Users\murat\Desktop\Siveps2-1-99-Project\source\client\Client\GameLib\MapOutdoorLoad.cpp
; File C:\Program Files (x86)\Microsoft Visual Studio\2019\Professional\VC\Tools\MSVC\14.29.30133\include\xstring
; File C:\Users\murat\Desktop\Siveps2-1-99-Project\source\client\Client\GameLib\MapOutdoorLoad.cpp
; File C:\Program Files (x86)\Microsoft Visual Studio\2019\Professional\VC\Tools\MSVC\14.29.30133\include\xstring
; File C:\Users\murat\Desktop\Siveps2-1-99-Project\source\client\Client\GameLib\MapOutdoorLoad.cpp
; File C:\Program Files (x86)\Microsoft Visual Studio\2019\Professional\VC\Tools\MSVC\14.29.30133\include\xstring
; File C:\Users\murat\Desktop\Siveps2-1-99-Project\source\client\Client\GameLib\MapOutdoorLoad.cpp
; File C:\Program Files (x86)\Microsoft Visual Studio\2019\Professional\VC\Tools\MSVC\14.29.30133\include\xstring
; File C:\Users\murat\Desktop\Siveps2-1-99-Project\source\client\Client\GameLib\MapOutdoorLoad.cpp
; File C:\Program Files (x86)\Microsoft Visual Studio\2019\Professional\VC\Tools\MSVC\14.29.30133\include\xstring
; File C:\Users\murat\Desktop\Siveps2-1-99-Project\source\client\Client\GameLib\MapOutdoorLoad.cpp
; File C:\Program Files (x86)\Microsoft Visual Studio\2019\Professional\VC\Tools\MSVC\14.29.30133\include\xstring
; File C:\Users\murat\Desktop\Siveps2-1-99-Project\source\client\Client\GameLib\MapOutdoorLoad.cpp
; File C:\Program Files (x86)\Microsoft Visual Studio\2019\Professional\VC\Tools\MSVC\14.29.30133\include\xstring
; File C:\Users\murat\Desktop\Siveps2-1-99-Project\source\client\Client\GameLib\MapOutdoorLoad.cpp
; File C:\Program Files (x86)\Microsoft Visual Studio\2019\Professional\VC\Tools\MSVC\14.29.30133\include\xstring
; File C:\Users\murat\Desktop\Siveps2-1-99-Project\source\client\Client\GameLib\MapOutdoorLoad.cpp
; File C:\Program Files (x86)\Microsoft Visual Studio\2019\Professional\VC\Tools\MSVC\14.29.30133\include\xstring
; File C:\Users\murat\Desktop\Siveps2-1-99-Project\source\client\Client\GameLib\MapOutdoorLoad.cpp
; File C:\Program Files (x86)\Microsoft Visual Studio\2019\Professional\VC\Tools\MSVC\14.29.30133\include\xstring
; File C:\Users\murat\Desktop\Siveps2-1-99-Project\source\client\Client\GameLib\MapOutdoorLoad.cpp
; File C:\Program Files (x86)\Microsoft Visual Studio\2019\Professional\VC\Tools\MSVC\14.29.30133\include\xstring
; File C:\Users\murat\Desktop\Siveps2-1-99-Project\source\client\Client\GameLib\MapOutdoorLoad.cpp
; File C:\Program Files (x86)\Microsoft Visual Studio\2019\Professional\VC\Tools\MSVC\14.29.30133\include\xstring
; File C:\Users\murat\Desktop\Siveps2-1-99-Project\source\client\Client\GameLib\MapOutdoorLoad.cpp
; File C:\Program Files (x86)\Microsoft Visual Studio\2019\Professional\VC\Tools\MSVC\14.29.30133\include\xstring
; File C:\Users\murat\Desktop\Siveps2-1-99-Project\source\client\Client\GameLib\MapOutdoorLoad.cpp
; File C:\Program Files (x86)\Microsoft Visual Studio\2019\Professional\VC\Tools\MSVC\14.29.30133\include\xstring
; File C:\Users\murat\Desktop\Siveps2-1-99-Project\source\client\Client\GameLib\MapOutdoorLoad.cpp
; File C:\Program Files (x86)\Microsoft Visual Studio\2019\Professional\VC\Tools\MSVC\14.29.30133\include\xstring
; File C:\Users\murat\Desktop\Siveps2-1-99-Project\source\client\Client\GameLib\MapOutdoorLoad.cpp
; File C:\Program Files (x86)\Microsoft Visual Studio\2019\Professional\VC\Tools\MSVC\14.29.30133\include\xstring
; File C:\Program Files (x86)\Microsoft Visual Studio\2019\Professional\VC\Tools\MSVC\14.29.30133\include\xmemory
; File C:\Program Files (x86)\Microsoft Visual Studio\2019\Professional\VC\Tools\MSVC\14.29.30133\include\xstring
; File C:\Program Files (x86)\Microsoft Visual Studio\2019\Professional\VC\Tools\MSVC\14.29.30133\include\xmemory
; File C:\Program Files (x86)\Microsoft Visual Studio\2019\Professional\VC\Tools\MSVC\14.29.30133\include\xstring
; File C:\Users\murat\Desktop\Siveps2-1-99-Project\source\client\Client\GameLib\MapOutdoorLoad.cpp
; File C:\Program Files (x86)\Microsoft Visual Studio\2019\Professional\VC\Tools\MSVC\14.29.30133\include\xstring
; File C:\Program Files (x86)\Microsoft Visual Studio\2019\Professional\VC\Tools\MSVC\14.29.30133\include\xmemory
; File C:\Program Files (x86)\Microsoft Visual Studio\2019\Professional\VC\Tools\MSVC\14.29.30133\include\xstring
; File C:\Program Files (x86)\Microsoft Visual Studio\2019\Professional\VC\Tools\MSVC\14.29.30133\include\xmemory
; File C:\Program Files (x86)\Microsoft Visual Studio\2019\Professional\VC\Tools\MSVC\14.29.30133\include\xstring
; File C:\Users\murat\Desktop\Siveps2-1-99-Project\source\client\Client\GameLib\MapOutdoorLoad.cpp
; File C:\Program Files (x86)\Microsoft Visual Studio\2019\Professional\VC\Tools\MSVC\14.29.30133\include\xstring
; File C:\Program Files (x86)\Microsoft Visual Studio\2019\Professional\VC\Tools\MSVC\14.29.30133\include\xmemory
; File C:\Program Files (x86)\Microsoft Visual Studio\2019\Professional\VC\Tools\MSVC\14.29.30133\include\xstring
; File C:\Program Files (x86)\Microsoft Visual Studio\2019\Professional\VC\Tools\MSVC\14.29.30133\include\xmemory
; File C:\Program Files (x86)\Microsoft Visual Studio\2019\Professional\VC\Tools\MSVC\14.29.30133\include\xstring
; File C:\Users\murat\Desktop\Siveps2-1-99-Project\source\client\Client\GameLib\MapOutdoorLoad.cpp
; File C:\Program Files (x86)\Microsoft Visual Studio\2019\Professional\VC\Tools\MSVC\14.29.30133\include\xstring
; File C:\Program Files (x86)\Microsoft Visual Studio\2019\Professional\VC\Tools\MSVC\14.29.30133\include\xmemory
; File C:\Program Files (x86)\Microsoft Visual Studio\2019\Professional\VC\Tools\MSVC\14.29.30133\include\xstring
; File C:\Program Files (x86)\Microsoft Visual Studio\2019\Professional\VC\Tools\MSVC\14.29.30133\include\xmemory
; File C:\Program Files (x86)\Microsoft Visual Studio\2019\Professional\VC\Tools\MSVC\14.29.30133\include\xstring
; File C:\Users\murat\Desktop\Siveps2-1-99-Project\source\client\Client\GameLib\MapOutdoorLoad.cpp
; File C:\Program Files (x86)\Microsoft Visual Studio\2019\Professional\VC\Tools\MSVC\14.29.30133\include\xstring
; File C:\Program Files (x86)\Microsoft Visual Studio\2019\Professional\VC\Tools\MSVC\14.29.30133\include\xmemory
; File C:\Program Files (x86)\Microsoft Visual Studio\2019\Professional\VC\Tools\MSVC\14.29.30133\include\xstring
; File C:\Program Files (x86)\Microsoft Visual Studio\2019\Professional\VC\Tools\MSVC\14.29.30133\include\xmemory
; File C:\Program Files (x86)\Microsoft Visual Studio\2019\Professional\VC\Tools\MSVC\14.29.30133\include\xstring
; File C:\Users\murat\Desktop\Siveps2-1-99-Project\source\client\Client\GameLib\MapOutdoorLoad.cpp
; File C:\Program Files (x86)\Microsoft Visual Studio\2019\Professional\VC\Tools\MSVC\14.29.30133\include\xstring
; File C:\Program Files (x86)\Microsoft Visual Studio\2019\Professional\VC\Tools\MSVC\14.29.30133\include\xmemory
; File C:\Program Files (x86)\Microsoft Visual Studio\2019\Professional\VC\Tools\MSVC\14.29.30133\include\xstring
; File C:\Program Files (x86)\Microsoft Visual Studio\2019\Professional\VC\Tools\MSVC\14.29.30133\include\xmemory
; File C:\Program Files (x86)\Microsoft Visual Studio\2019\Professional\VC\Tools\MSVC\14.29.30133\include\xstring
; File C:\Users\murat\Desktop\Siveps2-1-99-Project\source\client\Client\GameLib\MapOutdoorLoad.cpp
; File C:\Program Files (x86)\Microsoft Visual Studio\2019\Professional\VC\Tools\MSVC\14.29.30133\include\xstring
; File C:\Program Files (x86)\Microsoft Visual Studio\2019\Professional\VC\Tools\MSVC\14.29.30133\include\xmemory
; File C:\Program Files (x86)\Microsoft Visual Studio\2019\Professional\VC\Tools\MSVC\14.29.30133\include\xstring
; File C:\Program Files (x86)\Microsoft Visual Studio\2019\Professional\VC\Tools\MSVC\14.29.30133\include\xmemory
; File C:\Program Files (x86)\Microsoft Visual Studio\2019\Professional\VC\Tools\MSVC\14.29.30133\include\xstring
; File C:\Users\murat\Desktop\Siveps2-1-99-Project\source\client\Client\GameLib\MapOutdoorLoad.cpp
; File C:\Program Files (x86)\Microsoft Visual Studio\2019\Professional\VC\Tools\MSVC\14.29.30133\include\xstring
; File C:\Program Files (x86)\Microsoft Visual Studio\2019\Professional\VC\Tools\MSVC\14.29.30133\include\xmemory
; File C:\Program Files (x86)\Microsoft Visual Studio\2019\Professional\VC\Tools\MSVC\14.29.30133\include\xstring
; File C:\Program Files (x86)\Microsoft Visual Studio\2019\Professional\VC\Tools\MSVC\14.29.30133\include\xmemory
; File C:\Program Files (x86)\Microsoft Visual Studio\2019\Professional\VC\Tools\MSVC\14.29.30133\include\xstring
; File C:\Users\murat\Desktop\Siveps2-1-99-Project\source\client\Client\GameLib\MapOutdoorLoad.cpp
; File C:\Program Files (x86)\Microsoft Visual Studio\2019\Professional\VC\Tools\MSVC\14.29.30133\include\xstring
; File C:\Program Files (x86)\Microsoft Visual Studio\2019\Professional\VC\Tools\MSVC\14.29.30133\include\xmemory
; File C:\Program Files (x86)\Microsoft Visual Studio\2019\Professional\VC\Tools\MSVC\14.29.30133\include\xstring
; File C:\Program Files (x86)\Microsoft Visual Studio\2019\Professional\VC\Tools\MSVC\14.29.30133\include\xmemory
; File C:\Program Files (x86)\Microsoft Visual Studio\2019\Professional\VC\Tools\MSVC\14.29.30133\include\xstring
; File C:\Users\murat\Desktop\Siveps2-1-99-Project\source\client\Client\GameLib\MapOutdoorLoad.cpp
; File C:\Program Files (x86)\Microsoft Visual Studio\2019\Professional\VC\Tools\MSVC\14.29.30133\include\xstring
; File C:\Program Files (x86)\Microsoft Visual Studio\2019\Professional\VC\Tools\MSVC\14.29.30133\include\xmemory
; File C:\Program Files (x86)\Microsoft Visual Studio\2019\Professional\VC\Tools\MSVC\14.29.30133\include\xstring
; File C:\Program Files (x86)\Microsoft Visual Studio\2019\Professional\VC\Tools\MSVC\14.29.30133\include\xmemory
; File C:\Users\murat\Desktop\Siveps2-1-99-Project\source\client\Client\GameLib\MapOutdoorLoad.cpp
; File C:\Program Files (x86)\Microsoft Visual Studio\2019\Professional\VC\Tools\MSVC\14.29.30133\include\vector
; File C:\Users\murat\Desktop\Siveps2-1-99-Project\source\client\Client\GameLib\MapOutdoorLoad.cpp
; File C:\Program Files (x86)\Microsoft Visual Studio\2019\Professional\VC\Tools\MSVC\14.29.30133\include\vector
; File C:\Program Files (x86)\Microsoft Visual Studio\2019\Professional\VC\Tools\MSVC\14.29.30133\include\xmemory
; File C:\Program Files (x86)\Microsoft Visual Studio\2019\Professional\VC\Tools\MSVC\14.29.30133\include\xstring
; File C:\Program Files (x86)\Microsoft Visual Studio\2019\Professional\VC\Tools\MSVC\14.29.30133\include\xmemory
; File C:\Program Files (x86)\Microsoft Visual Studio\2019\Professional\VC\Tools\MSVC\14.29.30133\include\xstring
; File C:\Program Files (x86)\Microsoft Visual Studio\2019\Professional\VC\Tools\MSVC\14.29.30133\include\xmemory
; File C:\Program Files (x86)\Microsoft Visual Studio\2019\Professional\VC\Tools\MSVC\14.29.30133\include\xstring
; File C:\Program Files (x86)\Microsoft Visual Studio\2019\Professional\VC\Tools\MSVC\14.29.30133\include\xmemory
; File C:\Program Files (x86)\Microsoft Visual Studio\2019\Professional\VC\Tools\MSVC\14.29.30133\include\vector
; File C:\Program Files (x86)\Microsoft Visual Studio\2019\Professional\VC\Tools\MSVC\14.29.30133\include\xmemory
; File C:\Program Files (x86)\Microsoft Visual Studio\2019\Professional\VC\Tools\MSVC\14.29.30133\include\vector
; File C:\Users\murat\Desktop\Siveps2-1-99-Project\source\client\Client\GameLib\MapOutdoorLoad.cpp
;	COMDAT ?LoadMonsterAreaInfo@CMapOutdoor@@QAE_NXZ
_TEXT	SEGMENT
_textFileLoader$ = -896					; size = 16
_eMonsterDir$1$ = -880					; size = 4
_dwMonsterCount$1$ = -876				; size = 4
_this$GSCopy$1$ = -872					; size = 4
_lOriginX$1$ = -868					; size = 4
_pModelData$ = -864					; size = 4
_dwMonsterVID$1$ = -860					; size = 4
_eMonsterAreaInfoType$1$ = -856				; size = 4
_i$1$ = -852						; size = 4
_stTokenVector$ = -848					; size = 12
_File$ = -836						; size = 324
_$S3$2 = -512						; size = 24
_$S4$3 = -488						; size = 24
_$S5$4 = -464						; size = 24
_$S6$5 = -440						; size = 24
_$S7$6 = -416						; size = 24
_$S8$7 = -392						; size = 24
_$S9$8 = -368						; size = 24
_$S10$9 = -344						; size = 24
_$S11$10 = -320						; size = 24
_$S12$11 = -296						; size = 24
_c_szFileName$ = -272					; size = 256
__$ArrayPad$ = -16					; size = 4
__$EHRec$ = -12						; size = 12
?LoadMonsterAreaInfo@CMapOutdoor@@QAE_NXZ PROC		; CMapOutdoor::LoadMonsterAreaInfo, COMDAT
; _this$ = ecx

; 455  : {

  00000	55		 push	 ebp
  00001	8b ec		 mov	 ebp, esp
  00003	6a ff		 push	 -1
  00005	68 00 00 00 00	 push	 __ehhandler$?LoadMonsterAreaInfo@CMapOutdoor@@QAE_NXZ
  0000a	64 a1 00 00 00
	00		 mov	 eax, DWORD PTR fs:0
  00010	50		 push	 eax
  00011	81 ec 74 03 00
	00		 sub	 esp, 884		; 00000374H
  00017	a1 00 00 00 00	 mov	 eax, DWORD PTR ___security_cookie
  0001c	33 c5		 xor	 eax, ebp
  0001e	89 45 f0	 mov	 DWORD PTR __$ArrayPad$[ebp], eax
  00021	53		 push	 ebx
  00022	56		 push	 esi
  00023	57		 push	 edi
  00024	50		 push	 eax
  00025	8d 45 f4	 lea	 eax, DWORD PTR __$EHRec$[ebp]
  00028	64 a3 00 00 00
	00		 mov	 DWORD PTR fs:0, eax
  0002e	8b d9		 mov	 ebx, ecx
  00030	89 9d 98 fc ff
	ff		 mov	 DWORD PTR _this$GSCopy$1$[ebp], ebx

; 456  : 	RemoveAllMonsterAreaInfo();

  00036	e8 00 00 00 00	 call	 ?RemoveAllMonsterAreaInfo@CMapOutdoor@@QAEXXZ ; CMapOutdoor::RemoveAllMonsterAreaInfo
; File C:\Program Files (x86)\Microsoft Visual Studio\2019\Professional\VC\Tools\MSVC\14.29.30133\include\xstring

; 3922 :         return _Mypair._Myval2._Myptr();

  0003b	33 c0		 xor	 eax, eax
  0003d	3b 43 30	 cmp	 eax, DWORD PTR [ebx+48]
  00040	1b c0		 sbb	 eax, eax
  00042	83 e0 18	 and	 eax, 24			; 00000018H
  00045	83 c0 08	 add	 eax, 8
  00048	03 c3		 add	 eax, ebx

; 2306 :         if (_Large_string_engaged()) {

  0004a	83 78 14 10	 cmp	 DWORD PTR [eax+20], 16	; 00000010H
  0004e	72 02		 jb	 SHORT $LN41@LoadMonste

; 2307 :             _Result = _Unfancy(_Bx._Ptr);

  00050	8b 00		 mov	 eax, DWORD PTR [eax]
$LN41@LoadMonste:
; File C:\Users\murat\Desktop\Siveps2-1-99-Project\source\client\Client\GameLib\MapOutdoorLoad.cpp

; 459  : 	sprintf(c_szFileName, "%s\\regen.txt", GetMapDataDirectory().c_str());

  00052	50		 push	 eax
  00053	8d 85 f0 fe ff
	ff		 lea	 eax, DWORD PTR _c_szFileName$[ebp]
  00059	68 00 00 00 00	 push	 OFFSET ??_C@_0N@CBKBELEM@?$CFs?2regen?4txt@
  0005e	50		 push	 eax
  0005f	e8 00 00 00 00	 call	 _sprintf
  00064	83 c4 0c	 add	 esp, 12			; 0000000cH

; 460  : 
; 461  : 	LPCVOID pModelData;
; 462  : 	CMappedFile File;

  00067	8d 8d bc fc ff
	ff		 lea	 ecx, DWORD PTR _File$[ebp]
  0006d	e8 00 00 00 00	 call	 ??0CMappedFile@@QAE@XZ	; CMappedFile::CMappedFile

; 463  : 
; 464  : 	if (!CEterPackManager::Instance().Get(File, c_szFileName, &pModelData))

  00072	8b 0d 00 00 00
	00		 mov	 ecx, DWORD PTR ?ms_singleton@?$CSingleton@VCEterPackManager@@@@0PAVCEterPackManager@@A ; CSingleton<CEterPackManager>::ms_singleton
  00078	8d 85 a0 fc ff
	ff		 lea	 eax, DWORD PTR _pModelData$[ebp]
  0007e	50		 push	 eax
  0007f	8d 85 f0 fe ff
	ff		 lea	 eax, DWORD PTR _c_szFileName$[ebp]
  00085	c7 45 fc 00 00
	00 00		 mov	 DWORD PTR __$EHRec$[ebp+8], 0
  0008c	50		 push	 eax
  0008d	8d 85 bc fc ff
	ff		 lea	 eax, DWORD PTR _File$[ebp]
  00093	50		 push	 eax
  00094	e8 00 00 00 00	 call	 ?Get@CEterPackManager@@QAE_NAAVCMappedFile@@PBDPAPBX@Z ; CEterPackManager::Get
  00099	84 c0		 test	 al, al
  0009b	75 07		 jne	 SHORT $LN5@LoadMonste
  0009d	32 db		 xor	 bl, bl
  0009f	e9 ae 0a 00 00	 jmp	 $LN31@LoadMonste
$LN5@LoadMonste:

; 465  : 	{
; 466  : 		//TraceError(" CMapOutdoorAccessor::LoadMonsterAreaInfo Load File %s ERROR", c_szFileName);
; 467  : 		return false;
; 468  : 	}
; 469  : 
; 470  : 	CMemoryTextFileLoader textFileLoader;

  000a4	8d 8d 80 fc ff
	ff		 lea	 ecx, DWORD PTR _textFileLoader$[ebp]
  000aa	e8 00 00 00 00	 call	 ??0CMemoryTextFileLoader@@QAE@XZ ; CMemoryTextFileLoader::CMemoryTextFileLoader
; File C:\Program Files (x86)\Microsoft Visual Studio\2019\Professional\VC\Tools\MSVC\14.29.30133\include\vector

; 401  :     _CONSTEXPR20_CONTAINER _Vector_val() noexcept : _Myfirst(), _Mylast(), _Myend() {}

  000af	c7 85 b0 fc ff
	ff 00 00 00 00	 mov	 DWORD PTR _stTokenVector$[ebp], 0
  000b9	c7 85 b4 fc ff
	ff 00 00 00 00	 mov	 DWORD PTR _stTokenVector$[ebp+4], 0
  000c3	c7 85 b8 fc ff
	ff 00 00 00 00	 mov	 DWORD PTR _stTokenVector$[ebp+8], 0
; File C:\Users\murat\Desktop\Siveps2-1-99-Project\source\client\Client\GameLib\MapOutdoorLoad.cpp

; 473  : 	textFileLoader.Bind(File.Size(), pModelData);

  000cd	ff b5 a0 fc ff
	ff		 push	 DWORD PTR _pModelData$[ebp]
  000d3	8d 8d bc fc ff
	ff		 lea	 ecx, DWORD PTR _File$[ebp]
  000d9	c6 45 fc 02	 mov	 BYTE PTR __$EHRec$[ebp+8], 2
  000dd	e8 00 00 00 00	 call	 ?Size@CMappedFile@@QAEKXZ ; CMappedFile::Size
  000e2	50		 push	 eax
  000e3	8d 8d 80 fc ff
	ff		 lea	 ecx, DWORD PTR _textFileLoader$[ebp]
  000e9	e8 00 00 00 00	 call	 ?Bind@CMemoryTextFileLoader@@QAEXHPBX@Z ; CMemoryTextFileLoader::Bind

; 474  : 
; 475  : 	for (DWORD i = 0; i < textFileLoader.GetLineCount(); ++i)

  000ee	33 f6		 xor	 esi, esi
  000f0	8d 8d 80 fc ff
	ff		 lea	 ecx, DWORD PTR _textFileLoader$[ebp]
  000f6	89 b5 ac fc ff
	ff		 mov	 DWORD PTR _i$1$[ebp], esi
  000fc	e8 00 00 00 00	 call	 ?GetLineCount@CMemoryTextFileLoader@@QAEKXZ ; CMemoryTextFileLoader::GetLineCount
  00101	85 c0		 test	 eax, eax
  00103	0f 84 72 09 00
	00		 je	 $LN765@LoadMonste
  00109	0f 1f 80 00 00
	00 00		 npad	 7
$LL4@LoadMonste:

; 476  : 	{
; 477  : 		if (!textFileLoader.SplitLine(i, &stTokenVector))

  00110	68 00 00 00 00	 push	 OFFSET ??_C@_02OJDBNLEE@?5?7@
  00115	8d 85 b0 fc ff
	ff		 lea	 eax, DWORD PTR _stTokenVector$[ebp]
  0011b	50		 push	 eax
  0011c	56		 push	 esi
  0011d	8d 8d 80 fc ff
	ff		 lea	 ecx, DWORD PTR _textFileLoader$[ebp]
  00123	e8 00 00 00 00	 call	 ?SplitLine@CMemoryTextFileLoader@@QAE_NKPAV?$vector@V?$basic_string@DU?$char_traits@D@std@@V?$allocator@D@2@@std@@V?$allocator@V?$basic_string@DU?$char_traits@D@std@@V?$allocator@D@2@@std@@@2@@std@@PBD@Z ; CMemoryTextFileLoader::SplitLine
  00128	84 c0		 test	 al, al
  0012a	0f 84 2c 09 00
	00		 je	 $LN2@LoadMonste

; 480  : 		stl_lowers(stTokenVector[0]);

  00130	ff b5 b0 fc ff
	ff		 push	 DWORD PTR _stTokenVector$[ebp]
  00136	e8 00 00 00 00	 call	 ?stl_lowers@@YAXAAV?$basic_string@DU?$char_traits@D@std@@V?$allocator@D@2@@std@@@Z ; stl_lowers
; File C:\Program Files (x86)\Microsoft Visual Studio\2019\Professional\VC\Tools\MSVC\14.29.30133\include\xstring

; 2305 :         const value_type* _Result = _Bx._Buf;

  0013b	8b b5 b0 fc ff
	ff		 mov	 esi, DWORD PTR _stTokenVector$[ebp]
; File C:\Users\murat\Desktop\Siveps2-1-99-Project\source\client\Client\GameLib\MapOutdoorLoad.cpp

; 480  : 		stl_lowers(stTokenVector[0]);

  00141	83 c4 04	 add	 esp, 4
; File C:\Program Files (x86)\Microsoft Visual Studio\2019\Professional\VC\Tools\MSVC\14.29.30133\include\xstring

; 2305 :         const value_type* _Result = _Bx._Buf;

  00144	8b c6		 mov	 eax, esi
  00146	8b f8		 mov	 edi, eax

; 2319 :         return _BUF_SIZE <= _Myres;

  00148	8b 5e 14	 mov	 ebx, DWORD PTR [esi+20]

; 2306 :         if (_Large_string_engaged()) {

  0014b	83 fb 10	 cmp	 ebx, 16			; 00000010H
  0014e	72 02		 jb	 SHORT $LN60@LoadMonste

; 2307 :             _Result = _Unfancy(_Bx._Ptr);

  00150	8b 06		 mov	 eax, DWORD PTR [esi]
$LN60@LoadMonste:

; 4436 :         return _Traits_compare<_Traits>(_Mypair._Myval2._Myptr(), _Mypair._Myval2._Mysize, _Ptr, _Traits::length(_Ptr));

  00152	6a 01		 push	 1
  00154	68 00 00 00 00	 push	 OFFSET ??_C@_01GOHFPIOK@m@
  00159	ff 76 10	 push	 DWORD PTR [esi+16]
  0015c	50		 push	 eax
  0015d	e8 00 00 00 00	 call	 ??$_Traits_compare@U?$char_traits@D@std@@@std@@YAHQBDI0I@Z ; std::_Traits_compare<std::char_traits<char> >
  00162	83 c4 10	 add	 esp, 16			; 00000010H
; File C:\Users\murat\Desktop\Siveps2-1-99-Project\source\client\Client\GameLib\MapOutdoorLoad.cpp

; 483  : 		if (0 == stTokenVector[0].compare("m") || 0 == stTokenVector[0].compare("g"))

  00165	85 c0		 test	 eax, eax
  00167	74 24		 je	 SHORT $LN8@LoadMonste
; File C:\Program Files (x86)\Microsoft Visual Studio\2019\Professional\VC\Tools\MSVC\14.29.30133\include\xstring

; 2306 :         if (_Large_string_engaged()) {

  00169	83 fb 10	 cmp	 ebx, 16			; 00000010H
  0016c	72 02		 jb	 SHORT $LN71@LoadMonste

; 2307 :             _Result = _Unfancy(_Bx._Ptr);

  0016e	8b 3e		 mov	 edi, DWORD PTR [esi]
$LN71@LoadMonste:

; 4436 :         return _Traits_compare<_Traits>(_Mypair._Myval2._Myptr(), _Mypair._Myval2._Mysize, _Ptr, _Traits::length(_Ptr));

  00170	6a 01		 push	 1
  00172	68 00 00 00 00	 push	 OFFSET ??_C@_01JEJKBAGA@g@
  00177	ff 76 10	 push	 DWORD PTR [esi+16]
  0017a	57		 push	 edi
  0017b	e8 00 00 00 00	 call	 ??$_Traits_compare@U?$char_traits@D@std@@@std@@YAHQBDI0I@Z ; std::_Traits_compare<std::char_traits<char> >
  00180	83 c4 10	 add	 esp, 16			; 00000010H
  00183	8b fe		 mov	 edi, esi
; File C:\Users\murat\Desktop\Siveps2-1-99-Project\source\client\Client\GameLib\MapOutdoorLoad.cpp

; 483  : 		if (0 == stTokenVector[0].compare("m") || 0 == stTokenVector[0].compare("g"))

  00185	85 c0		 test	 eax, eax
  00187	0f 85 cf 08 00
	00		 jne	 $LN2@LoadMonste
$LN8@LoadMonste:

; 484  : 		{

  0018d	8b 8d b4 fc ff
	ff		 mov	 ecx, DWORD PTR _stTokenVector$[ebp+4]
; File C:\Program Files (x86)\Microsoft Visual Studio\2019\Professional\VC\Tools\MSVC\14.29.30133\include\vector

; 1549 :         return static_cast<size_type>(_My_data._Mylast - _My_data._Myfirst);

  00193	b8 ab aa aa 2a	 mov	 eax, 715827883		; 2aaaaaabH
; File C:\Users\murat\Desktop\Siveps2-1-99-Project\source\client\Client\GameLib\MapOutdoorLoad.cpp

; 484  : 		{

  00198	2b cf		 sub	 ecx, edi
; File C:\Program Files (x86)\Microsoft Visual Studio\2019\Professional\VC\Tools\MSVC\14.29.30133\include\vector

; 1549 :         return static_cast<size_type>(_My_data._Mylast - _My_data._Myfirst);

  0019a	f7 e9		 imul	 ecx
  0019c	c1 fa 02	 sar	 edx, 2
  0019f	8b c2		 mov	 eax, edx
  001a1	c1 e8 1f	 shr	 eax, 31			; 0000001fH
  001a4	03 c2		 add	 eax, edx
; File C:\Users\murat\Desktop\Siveps2-1-99-Project\source\client\Client\GameLib\MapOutdoorLoad.cpp

; 485  : 			if (stTokenVector.size() < 11)

  001a6	83 f8 0b	 cmp	 eax, 11			; 0000000bH
  001a9	73 0a		 jae	 SHORT $LN9@LoadMonste

; 486  : 			{
; 487  : 				TraceError("CMapOutdoorAccessor::LoadMonsterAreaInfo Get MonsterInfo File Format ERROR! continue....");

  001ab	68 00 00 00 00	 push	 OFFSET ??_C@_0FJ@GIKGLIIH@CMapOutdoorAccessor?3?3LoadMonste@

; 488  : 				continue;

  001b0	e9 9f 08 00 00	 jmp	 $LN778@LoadMonste
$LN9@LoadMonste:
; File C:\Program Files (x86)\Microsoft Visual Studio\2019\Professional\VC\Tools\MSVC\14.29.30133\include\xstring

; 2305 :         const value_type* _Result = _Bx._Buf;

  001b5	8b c7		 mov	 eax, edi

; 2306 :         if (_Large_string_engaged()) {

  001b7	83 fb 10	 cmp	 ebx, 16			; 00000010H
  001ba	72 02		 jb	 SHORT $LN84@LoadMonste

; 2307 :             _Result = _Unfancy(_Bx._Ptr);

  001bc	8b 06		 mov	 eax, DWORD PTR [esi]
$LN84@LoadMonste:

; 4436 :         return _Traits_compare<_Traits>(_Mypair._Myval2._Myptr(), _Mypair._Myval2._Mysize, _Ptr, _Traits::length(_Ptr));

  001be	6a 01		 push	 1
  001c0	68 00 00 00 00	 push	 OFFSET ??_C@_01GOHFPIOK@m@
  001c5	ff 76 10	 push	 DWORD PTR [esi+16]
  001c8	50		 push	 eax
  001c9	e8 00 00 00 00	 call	 ??$_Traits_compare@U?$char_traits@D@std@@@std@@YAHQBDI0I@Z ; std::_Traits_compare<std::char_traits<char> >
  001ce	83 c4 10	 add	 esp, 16			; 00000010H
; File C:\Users\murat\Desktop\Siveps2-1-99-Project\source\client\Client\GameLib\MapOutdoorLoad.cpp

; 492  : 			if (0 == stTokenVector[0].compare("m"))

  001d1	85 c0		 test	 eax, eax
  001d3	75 0c		 jne	 SHORT $LN10@LoadMonste

; 493  : 			{
; 494  : 				eMonsterAreaInfoType = CMonsterAreaInfo::MONSTERAREAINFOTYPE_MONSTER;

  001d5	c7 85 a8 fc ff
	ff 01 00 00 00	 mov	 DWORD PTR _eMonsterAreaInfoType$1$[ebp], 1

; 495  : 			}

  001df	eb 2c		 jmp	 SHORT $LN13@LoadMonste
$LN10@LoadMonste:
; File C:\Program Files (x86)\Microsoft Visual Studio\2019\Professional\VC\Tools\MSVC\14.29.30133\include\xstring

; 2306 :         if (_Large_string_engaged()) {

  001e1	83 fb 10	 cmp	 ebx, 16			; 00000010H
  001e4	72 02		 jb	 SHORT $LN95@LoadMonste

; 2307 :             _Result = _Unfancy(_Bx._Ptr);

  001e6	8b 3e		 mov	 edi, DWORD PTR [esi]
$LN95@LoadMonste:

; 4436 :         return _Traits_compare<_Traits>(_Mypair._Myval2._Myptr(), _Mypair._Myval2._Mysize, _Ptr, _Traits::length(_Ptr));

  001e8	6a 01		 push	 1
  001ea	68 00 00 00 00	 push	 OFFSET ??_C@_01JEJKBAGA@g@
  001ef	ff 76 10	 push	 DWORD PTR [esi+16]
  001f2	57		 push	 edi
  001f3	e8 00 00 00 00	 call	 ??$_Traits_compare@U?$char_traits@D@std@@@std@@YAHQBDI0I@Z ; std::_Traits_compare<std::char_traits<char> >
  001f8	83 c4 10	 add	 esp, 16			; 00000010H
; File C:\Users\murat\Desktop\Siveps2-1-99-Project\source\client\Client\GameLib\MapOutdoorLoad.cpp

; 496  : 			else if (0 == stTokenVector[0].compare("g"))

  001fb	85 c0		 test	 eax, eax
  001fd	0f 85 4c 08 00
	00		 jne	 $LN12@LoadMonste

; 497  : 			{
; 498  : 				eMonsterAreaInfoType = CMonsterAreaInfo::MONSTERAREAINFOTYPE_GROUP;

  00203	c7 85 a8 fc ff
	ff 02 00 00 00	 mov	 DWORD PTR _eMonsterAreaInfoType$1$[ebp], 2
$LN13@LoadMonste:
; File C:\Program Files (x86)\Microsoft Visual Studio\2019\Professional\VC\Tools\MSVC\14.29.30133\include\vector

; 1569 :         return _My_data._Myfirst[_Pos];

  0020d	83 c6 18	 add	 esi, 24			; 00000018H
; File C:\Program Files (x86)\Microsoft Visual Studio\2019\Professional\VC\Tools\MSVC\14.29.30133\include\xstring

; 2306 :         if (_Large_string_engaged()) {

  00210	83 7e 14 10	 cmp	 DWORD PTR [esi+20], 16	; 00000010H
  00214	72 02		 jb	 SHORT $LN104@LoadMonste

; 2307 :             _Result = _Unfancy(_Bx._Ptr);

  00216	8b 36		 mov	 esi, DWORD PTR [esi]
$LN104@LoadMonste:

; 412  :         return _CSTD strlen(reinterpret_cast<const char*>(_First));

  00218	8b ce		 mov	 ecx, esi

; 2346 :         _CONSTEXPR20_CONTAINER _Bxty() noexcept : _Ptr() {} // user-provided, for fancy pointers

  0021a	c7 85 00 fe ff
	ff 00 00 00 00	 mov	 DWORD PTR _$S3$2[ebp], 0

; 4596 :         _My_data._Mysize = 0;

  00224	c7 85 10 fe ff
	ff 00 00 00 00	 mov	 DWORD PTR _$S3$2[ebp+16], 0

; 4597 : 
; 4598 : #ifdef __cpp_lib_constexpr_string
; 4599 :         if (_STD is_constant_evaluated()) {
; 4600 :             _My_data._Myres        = _BUF_SIZE; // SSO disabled in constexpr context
; 4601 :             auto& _Al              = _Getal();
; 4602 :             const pointer _New_ptr = _Al.allocate(_BUF_SIZE + 1); // throws
; 4603 :             _My_data._Bx._Ptr      = _New_ptr;
; 4604 : 
; 4605 :             _Elem* const _Raw_new = _Unfancy(_New_ptr);
; 4606 :             _Traits::assign(_Raw_new, _BUF_SIZE + 1, _Elem());
; 4607 :         } else
; 4608 : #endif // __cpp_lib_constexpr_string
; 4609 :         {
; 4610 :             _My_data._Myres = _BUF_SIZE - 1;

  0022e	c7 85 14 fe ff
	ff 0f 00 00 00	 mov	 DWORD PTR _$S3$2[ebp+20], 15 ; 0000000fH

; 4611 :             // the _Traits::assign is last so the codegen doesn't think the char write can alias this
; 4612 :             _Traits::assign(_My_data._Bx._Buf[0], _Elem());

  00238	c6 85 00 fe ff
	ff 00		 mov	 BYTE PTR _$S3$2[ebp], 0

; 412  :         return _CSTD strlen(reinterpret_cast<const char*>(_First));

  0023f	8d 51 01	 lea	 edx, DWORD PTR [ecx+1]
$LL766@LoadMonste:
  00242	8a 01		 mov	 al, BYTE PTR [ecx]
  00244	41		 inc	 ecx
  00245	84 c0		 test	 al, al
  00247	75 f9		 jne	 SHORT $LL766@LoadMonste
  00249	2b ca		 sub	 ecx, edx

; 3264 :         return assign(_Ptr, _Convert_size<size_type>(_Traits::length(_Ptr)));

  0024b	51		 push	 ecx
  0024c	56		 push	 esi
  0024d	8d 8d 00 fe ff
	ff		 lea	 ecx, DWORD PTR _$S3$2[ebp]
  00253	e8 00 00 00 00	 call	 ?assign@?$basic_string@DU?$char_traits@D@std@@V?$allocator@D@2@@std@@QAEAAV12@QBDI@Z ; std::basic_string<char,std::char_traits<char>,std::allocator<char> >::assign
; File C:\Program Files (x86)\Microsoft Visual Studio\2019\Professional\VC\Tools\MSVC\14.29.30133\include\vector

; 1569 :         return _My_data._Myfirst[_Pos];

  00258	8b 95 b0 fc ff
	ff		 mov	 edx, DWORD PTR _stTokenVector$[ebp]
  0025e	83 c2 30	 add	 edx, 48			; 00000030H
; File C:\Users\murat\Desktop\Siveps2-1-99-Project\source\client\Client\GameLib\MapOutdoorLoad.cpp

; 506  : 			const std::string & c_rstrOriginX	= stTokenVector[1].c_str();

  00261	c6 45 fc 03	 mov	 BYTE PTR __$EHRec$[ebp+8], 3
; File C:\Program Files (x86)\Microsoft Visual Studio\2019\Professional\VC\Tools\MSVC\14.29.30133\include\xstring

; 2306 :         if (_Large_string_engaged()) {

  00265	83 7a 14 10	 cmp	 DWORD PTR [edx+20], 16	; 00000010H
  00269	72 02		 jb	 SHORT $LN129@LoadMonste

; 2307 :             _Result = _Unfancy(_Bx._Ptr);

  0026b	8b 12		 mov	 edx, DWORD PTR [edx]
$LN129@LoadMonste:

; 412  :         return _CSTD strlen(reinterpret_cast<const char*>(_First));

  0026d	8b ca		 mov	 ecx, edx

; 2346 :         _CONSTEXPR20_CONTAINER _Bxty() noexcept : _Ptr() {} // user-provided, for fancy pointers

  0026f	c7 85 18 fe ff
	ff 00 00 00 00	 mov	 DWORD PTR _$S4$3[ebp], 0

; 4596 :         _My_data._Mysize = 0;

  00279	c7 85 28 fe ff
	ff 00 00 00 00	 mov	 DWORD PTR _$S4$3[ebp+16], 0

; 4597 : 
; 4598 : #ifdef __cpp_lib_constexpr_string
; 4599 :         if (_STD is_constant_evaluated()) {
; 4600 :             _My_data._Myres        = _BUF_SIZE; // SSO disabled in constexpr context
; 4601 :             auto& _Al              = _Getal();
; 4602 :             const pointer _New_ptr = _Al.allocate(_BUF_SIZE + 1); // throws
; 4603 :             _My_data._Bx._Ptr      = _New_ptr;
; 4604 : 
; 4605 :             _Elem* const _Raw_new = _Unfancy(_New_ptr);
; 4606 :             _Traits::assign(_Raw_new, _BUF_SIZE + 1, _Elem());
; 4607 :         } else
; 4608 : #endif // __cpp_lib_constexpr_string
; 4609 :         {
; 4610 :             _My_data._Myres = _BUF_SIZE - 1;

  00283	c7 85 2c fe ff
	ff 0f 00 00 00	 mov	 DWORD PTR _$S4$3[ebp+20], 15 ; 0000000fH

; 4611 :             // the _Traits::assign is last so the codegen doesn't think the char write can alias this
; 4612 :             _Traits::assign(_My_data._Bx._Buf[0], _Elem());

  0028d	c6 85 18 fe ff
	ff 00		 mov	 BYTE PTR _$S4$3[ebp], 0

; 412  :         return _CSTD strlen(reinterpret_cast<const char*>(_First));

  00294	8d 71 01	 lea	 esi, DWORD PTR [ecx+1]
$LL767@LoadMonste:
  00297	8a 01		 mov	 al, BYTE PTR [ecx]
  00299	41		 inc	 ecx
  0029a	84 c0		 test	 al, al
  0029c	75 f9		 jne	 SHORT $LL767@LoadMonste
  0029e	2b ce		 sub	 ecx, esi

; 3264 :         return assign(_Ptr, _Convert_size<size_type>(_Traits::length(_Ptr)));

  002a0	51		 push	 ecx
  002a1	52		 push	 edx
  002a2	8d 8d 18 fe ff
	ff		 lea	 ecx, DWORD PTR _$S4$3[ebp]
  002a8	e8 00 00 00 00	 call	 ?assign@?$basic_string@DU?$char_traits@D@std@@V?$allocator@D@2@@std@@QAEAAV12@QBDI@Z ; std::basic_string<char,std::char_traits<char>,std::allocator<char> >::assign
; File C:\Program Files (x86)\Microsoft Visual Studio\2019\Professional\VC\Tools\MSVC\14.29.30133\include\vector

; 1569 :         return _My_data._Myfirst[_Pos];

  002ad	8b 95 b0 fc ff
	ff		 mov	 edx, DWORD PTR _stTokenVector$[ebp]
  002b3	83 c2 48	 add	 edx, 72			; 00000048H
; File C:\Users\murat\Desktop\Siveps2-1-99-Project\source\client\Client\GameLib\MapOutdoorLoad.cpp

; 507  : 			const std::string & c_rstrOriginY	= stTokenVector[2].c_str();

  002b6	c6 45 fc 04	 mov	 BYTE PTR __$EHRec$[ebp+8], 4
; File C:\Program Files (x86)\Microsoft Visual Studio\2019\Professional\VC\Tools\MSVC\14.29.30133\include\xstring

; 2306 :         if (_Large_string_engaged()) {

  002ba	83 7a 14 10	 cmp	 DWORD PTR [edx+20], 16	; 00000010H
  002be	72 02		 jb	 SHORT $LN154@LoadMonste

; 2307 :             _Result = _Unfancy(_Bx._Ptr);

  002c0	8b 12		 mov	 edx, DWORD PTR [edx]
$LN154@LoadMonste:

; 412  :         return _CSTD strlen(reinterpret_cast<const char*>(_First));

  002c2	8b ca		 mov	 ecx, edx

; 2346 :         _CONSTEXPR20_CONTAINER _Bxty() noexcept : _Ptr() {} // user-provided, for fancy pointers

  002c4	c7 85 30 fe ff
	ff 00 00 00 00	 mov	 DWORD PTR _$S5$4[ebp], 0

; 4596 :         _My_data._Mysize = 0;

  002ce	c7 85 40 fe ff
	ff 00 00 00 00	 mov	 DWORD PTR _$S5$4[ebp+16], 0

; 4597 : 
; 4598 : #ifdef __cpp_lib_constexpr_string
; 4599 :         if (_STD is_constant_evaluated()) {
; 4600 :             _My_data._Myres        = _BUF_SIZE; // SSO disabled in constexpr context
; 4601 :             auto& _Al              = _Getal();
; 4602 :             const pointer _New_ptr = _Al.allocate(_BUF_SIZE + 1); // throws
; 4603 :             _My_data._Bx._Ptr      = _New_ptr;
; 4604 : 
; 4605 :             _Elem* const _Raw_new = _Unfancy(_New_ptr);
; 4606 :             _Traits::assign(_Raw_new, _BUF_SIZE + 1, _Elem());
; 4607 :         } else
; 4608 : #endif // __cpp_lib_constexpr_string
; 4609 :         {
; 4610 :             _My_data._Myres = _BUF_SIZE - 1;

  002d8	c7 85 44 fe ff
	ff 0f 00 00 00	 mov	 DWORD PTR _$S5$4[ebp+20], 15 ; 0000000fH

; 4611 :             // the _Traits::assign is last so the codegen doesn't think the char write can alias this
; 4612 :             _Traits::assign(_My_data._Bx._Buf[0], _Elem());

  002e2	c6 85 30 fe ff
	ff 00		 mov	 BYTE PTR _$S5$4[ebp], 0

; 412  :         return _CSTD strlen(reinterpret_cast<const char*>(_First));

  002e9	8d 71 01	 lea	 esi, DWORD PTR [ecx+1]
  002ec	0f 1f 40 00	 npad	 4
$LL768@LoadMonste:
  002f0	8a 01		 mov	 al, BYTE PTR [ecx]
  002f2	41		 inc	 ecx
  002f3	84 c0		 test	 al, al
  002f5	75 f9		 jne	 SHORT $LL768@LoadMonste
  002f7	2b ce		 sub	 ecx, esi

; 3264 :         return assign(_Ptr, _Convert_size<size_type>(_Traits::length(_Ptr)));

  002f9	51		 push	 ecx
  002fa	52		 push	 edx
  002fb	8d 8d 30 fe ff
	ff		 lea	 ecx, DWORD PTR _$S5$4[ebp]
  00301	e8 00 00 00 00	 call	 ?assign@?$basic_string@DU?$char_traits@D@std@@V?$allocator@D@2@@std@@QAEAAV12@QBDI@Z ; std::basic_string<char,std::char_traits<char>,std::allocator<char> >::assign
; File C:\Program Files (x86)\Microsoft Visual Studio\2019\Professional\VC\Tools\MSVC\14.29.30133\include\vector

; 1569 :         return _My_data._Myfirst[_Pos];

  00306	8b 95 b0 fc ff
	ff		 mov	 edx, DWORD PTR _stTokenVector$[ebp]
  0030c	83 c2 60	 add	 edx, 96			; 00000060H
; File C:\Users\murat\Desktop\Siveps2-1-99-Project\source\client\Client\GameLib\MapOutdoorLoad.cpp

; 508  : 			const std::string & c_rstrSizeX		= stTokenVector[3].c_str();

  0030f	c6 45 fc 05	 mov	 BYTE PTR __$EHRec$[ebp+8], 5
; File C:\Program Files (x86)\Microsoft Visual Studio\2019\Professional\VC\Tools\MSVC\14.29.30133\include\xstring

; 2306 :         if (_Large_string_engaged()) {

  00313	83 7a 14 10	 cmp	 DWORD PTR [edx+20], 16	; 00000010H
  00317	72 02		 jb	 SHORT $LN179@LoadMonste

; 2307 :             _Result = _Unfancy(_Bx._Ptr);

  00319	8b 12		 mov	 edx, DWORD PTR [edx]
$LN179@LoadMonste:

; 412  :         return _CSTD strlen(reinterpret_cast<const char*>(_First));

  0031b	8b ca		 mov	 ecx, edx

; 2346 :         _CONSTEXPR20_CONTAINER _Bxty() noexcept : _Ptr() {} // user-provided, for fancy pointers

  0031d	c7 85 48 fe ff
	ff 00 00 00 00	 mov	 DWORD PTR _$S6$5[ebp], 0

; 4596 :         _My_data._Mysize = 0;

  00327	c7 85 58 fe ff
	ff 00 00 00 00	 mov	 DWORD PTR _$S6$5[ebp+16], 0

; 4597 : 
; 4598 : #ifdef __cpp_lib_constexpr_string
; 4599 :         if (_STD is_constant_evaluated()) {
; 4600 :             _My_data._Myres        = _BUF_SIZE; // SSO disabled in constexpr context
; 4601 :             auto& _Al              = _Getal();
; 4602 :             const pointer _New_ptr = _Al.allocate(_BUF_SIZE + 1); // throws
; 4603 :             _My_data._Bx._Ptr      = _New_ptr;
; 4604 : 
; 4605 :             _Elem* const _Raw_new = _Unfancy(_New_ptr);
; 4606 :             _Traits::assign(_Raw_new, _BUF_SIZE + 1, _Elem());
; 4607 :         } else
; 4608 : #endif // __cpp_lib_constexpr_string
; 4609 :         {
; 4610 :             _My_data._Myres = _BUF_SIZE - 1;

  00331	c7 85 5c fe ff
	ff 0f 00 00 00	 mov	 DWORD PTR _$S6$5[ebp+20], 15 ; 0000000fH

; 4611 :             // the _Traits::assign is last so the codegen doesn't think the char write can alias this
; 4612 :             _Traits::assign(_My_data._Bx._Buf[0], _Elem());

  0033b	c6 85 48 fe ff
	ff 00		 mov	 BYTE PTR _$S6$5[ebp], 0

; 412  :         return _CSTD strlen(reinterpret_cast<const char*>(_First));

  00342	8d 71 01	 lea	 esi, DWORD PTR [ecx+1]
$LL769@LoadMonste:
  00345	8a 01		 mov	 al, BYTE PTR [ecx]
  00347	41		 inc	 ecx
  00348	84 c0		 test	 al, al
  0034a	75 f9		 jne	 SHORT $LL769@LoadMonste
  0034c	2b ce		 sub	 ecx, esi

; 3264 :         return assign(_Ptr, _Convert_size<size_type>(_Traits::length(_Ptr)));

  0034e	51		 push	 ecx
  0034f	52		 push	 edx
  00350	8d 8d 48 fe ff
	ff		 lea	 ecx, DWORD PTR _$S6$5[ebp]
  00356	e8 00 00 00 00	 call	 ?assign@?$basic_string@DU?$char_traits@D@std@@V?$allocator@D@2@@std@@QAEAAV12@QBDI@Z ; std::basic_string<char,std::char_traits<char>,std::allocator<char> >::assign
; File C:\Program Files (x86)\Microsoft Visual Studio\2019\Professional\VC\Tools\MSVC\14.29.30133\include\vector

; 1569 :         return _My_data._Myfirst[_Pos];

  0035b	8b 95 b0 fc ff
	ff		 mov	 edx, DWORD PTR _stTokenVector$[ebp]
  00361	83 c2 78	 add	 edx, 120		; 00000078H
; File C:\Users\murat\Desktop\Siveps2-1-99-Project\source\client\Client\GameLib\MapOutdoorLoad.cpp

; 509  : 			const std::string & c_rstrSizeY		= stTokenVector[4].c_str();

  00364	c6 45 fc 06	 mov	 BYTE PTR __$EHRec$[ebp+8], 6
; File C:\Program Files (x86)\Microsoft Visual Studio\2019\Professional\VC\Tools\MSVC\14.29.30133\include\xstring

; 2306 :         if (_Large_string_engaged()) {

  00368	83 7a 14 10	 cmp	 DWORD PTR [edx+20], 16	; 00000010H
  0036c	72 02		 jb	 SHORT $LN204@LoadMonste

; 2307 :             _Result = _Unfancy(_Bx._Ptr);

  0036e	8b 12		 mov	 edx, DWORD PTR [edx]
$LN204@LoadMonste:

; 412  :         return _CSTD strlen(reinterpret_cast<const char*>(_First));

  00370	8b ca		 mov	 ecx, edx

; 2346 :         _CONSTEXPR20_CONTAINER _Bxty() noexcept : _Ptr() {} // user-provided, for fancy pointers

  00372	c7 85 60 fe ff
	ff 00 00 00 00	 mov	 DWORD PTR _$S7$6[ebp], 0

; 4596 :         _My_data._Mysize = 0;

  0037c	c7 85 70 fe ff
	ff 00 00 00 00	 mov	 DWORD PTR _$S7$6[ebp+16], 0

; 4597 : 
; 4598 : #ifdef __cpp_lib_constexpr_string
; 4599 :         if (_STD is_constant_evaluated()) {
; 4600 :             _My_data._Myres        = _BUF_SIZE; // SSO disabled in constexpr context
; 4601 :             auto& _Al              = _Getal();
; 4602 :             const pointer _New_ptr = _Al.allocate(_BUF_SIZE + 1); // throws
; 4603 :             _My_data._Bx._Ptr      = _New_ptr;
; 4604 : 
; 4605 :             _Elem* const _Raw_new = _Unfancy(_New_ptr);
; 4606 :             _Traits::assign(_Raw_new, _BUF_SIZE + 1, _Elem());
; 4607 :         } else
; 4608 : #endif // __cpp_lib_constexpr_string
; 4609 :         {
; 4610 :             _My_data._Myres = _BUF_SIZE - 1;

  00386	c7 85 74 fe ff
	ff 0f 00 00 00	 mov	 DWORD PTR _$S7$6[ebp+20], 15 ; 0000000fH

; 4611 :             // the _Traits::assign is last so the codegen doesn't think the char write can alias this
; 4612 :             _Traits::assign(_My_data._Bx._Buf[0], _Elem());

  00390	c6 85 60 fe ff
	ff 00		 mov	 BYTE PTR _$S7$6[ebp], 0

; 412  :         return _CSTD strlen(reinterpret_cast<const char*>(_First));

  00397	8d 71 01	 lea	 esi, DWORD PTR [ecx+1]
  0039a	66 0f 1f 44 00
	00		 npad	 6
$LL770@LoadMonste:
  003a0	8a 01		 mov	 al, BYTE PTR [ecx]
  003a2	41		 inc	 ecx
  003a3	84 c0		 test	 al, al
  003a5	75 f9		 jne	 SHORT $LL770@LoadMonste
  003a7	2b ce		 sub	 ecx, esi

; 3264 :         return assign(_Ptr, _Convert_size<size_type>(_Traits::length(_Ptr)));

  003a9	51		 push	 ecx
  003aa	52		 push	 edx
  003ab	8d 8d 60 fe ff
	ff		 lea	 ecx, DWORD PTR _$S7$6[ebp]
  003b1	e8 00 00 00 00	 call	 ?assign@?$basic_string@DU?$char_traits@D@std@@V?$allocator@D@2@@std@@QAEAAV12@QBDI@Z ; std::basic_string<char,std::char_traits<char>,std::allocator<char> >::assign
; File C:\Program Files (x86)\Microsoft Visual Studio\2019\Professional\VC\Tools\MSVC\14.29.30133\include\vector

; 1569 :         return _My_data._Myfirst[_Pos];

  003b6	8b 95 b0 fc ff
	ff		 mov	 edx, DWORD PTR _stTokenVector$[ebp]
  003bc	81 c2 90 00 00
	00		 add	 edx, 144		; 00000090H
; File C:\Users\murat\Desktop\Siveps2-1-99-Project\source\client\Client\GameLib\MapOutdoorLoad.cpp

; 510  : 			const std::string & c_rstrZ			= stTokenVector[5].c_str();

  003c2	c6 45 fc 07	 mov	 BYTE PTR __$EHRec$[ebp+8], 7
; File C:\Program Files (x86)\Microsoft Visual Studio\2019\Professional\VC\Tools\MSVC\14.29.30133\include\xstring

; 2306 :         if (_Large_string_engaged()) {

  003c6	83 7a 14 10	 cmp	 DWORD PTR [edx+20], 16	; 00000010H
  003ca	72 02		 jb	 SHORT $LN229@LoadMonste

; 2307 :             _Result = _Unfancy(_Bx._Ptr);

  003cc	8b 12		 mov	 edx, DWORD PTR [edx]
$LN229@LoadMonste:

; 412  :         return _CSTD strlen(reinterpret_cast<const char*>(_First));

  003ce	8b ca		 mov	 ecx, edx

; 2346 :         _CONSTEXPR20_CONTAINER _Bxty() noexcept : _Ptr() {} // user-provided, for fancy pointers

  003d0	c7 85 78 fe ff
	ff 00 00 00 00	 mov	 DWORD PTR _$S8$7[ebp], 0

; 4596 :         _My_data._Mysize = 0;

  003da	c7 85 88 fe ff
	ff 00 00 00 00	 mov	 DWORD PTR _$S8$7[ebp+16], 0

; 4597 : 
; 4598 : #ifdef __cpp_lib_constexpr_string
; 4599 :         if (_STD is_constant_evaluated()) {
; 4600 :             _My_data._Myres        = _BUF_SIZE; // SSO disabled in constexpr context
; 4601 :             auto& _Al              = _Getal();
; 4602 :             const pointer _New_ptr = _Al.allocate(_BUF_SIZE + 1); // throws
; 4603 :             _My_data._Bx._Ptr      = _New_ptr;
; 4604 : 
; 4605 :             _Elem* const _Raw_new = _Unfancy(_New_ptr);
; 4606 :             _Traits::assign(_Raw_new, _BUF_SIZE + 1, _Elem());
; 4607 :         } else
; 4608 : #endif // __cpp_lib_constexpr_string
; 4609 :         {
; 4610 :             _My_data._Myres = _BUF_SIZE - 1;

  003e4	c7 85 8c fe ff
	ff 0f 00 00 00	 mov	 DWORD PTR _$S8$7[ebp+20], 15 ; 0000000fH

; 4611 :             // the _Traits::assign is last so the codegen doesn't think the char write can alias this
; 4612 :             _Traits::assign(_My_data._Bx._Buf[0], _Elem());

  003ee	c6 85 78 fe ff
	ff 00		 mov	 BYTE PTR _$S8$7[ebp], 0

; 412  :         return _CSTD strlen(reinterpret_cast<const char*>(_First));

  003f5	8d 71 01	 lea	 esi, DWORD PTR [ecx+1]
$LL771@LoadMonste:
  003f8	8a 01		 mov	 al, BYTE PTR [ecx]
  003fa	41		 inc	 ecx
  003fb	84 c0		 test	 al, al
  003fd	75 f9		 jne	 SHORT $LL771@LoadMonste
  003ff	2b ce		 sub	 ecx, esi

; 3264 :         return assign(_Ptr, _Convert_size<size_type>(_Traits::length(_Ptr)));

  00401	51		 push	 ecx
  00402	52		 push	 edx
  00403	8d 8d 78 fe ff
	ff		 lea	 ecx, DWORD PTR _$S8$7[ebp]
  00409	e8 00 00 00 00	 call	 ?assign@?$basic_string@DU?$char_traits@D@std@@V?$allocator@D@2@@std@@QAEAAV12@QBDI@Z ; std::basic_string<char,std::char_traits<char>,std::allocator<char> >::assign
; File C:\Program Files (x86)\Microsoft Visual Studio\2019\Professional\VC\Tools\MSVC\14.29.30133\include\vector

; 1569 :         return _My_data._Myfirst[_Pos];

  0040e	8b 95 b0 fc ff
	ff		 mov	 edx, DWORD PTR _stTokenVector$[ebp]
  00414	81 c2 a8 00 00
	00		 add	 edx, 168		; 000000a8H
; File C:\Users\murat\Desktop\Siveps2-1-99-Project\source\client\Client\GameLib\MapOutdoorLoad.cpp

; 511  : 			const std::string & c_rstrDir		= stTokenVector[6].c_str();

  0041a	c6 45 fc 08	 mov	 BYTE PTR __$EHRec$[ebp+8], 8
; File C:\Program Files (x86)\Microsoft Visual Studio\2019\Professional\VC\Tools\MSVC\14.29.30133\include\xstring

; 2306 :         if (_Large_string_engaged()) {

  0041e	83 7a 14 10	 cmp	 DWORD PTR [edx+20], 16	; 00000010H
  00422	72 02		 jb	 SHORT $LN254@LoadMonste

; 2307 :             _Result = _Unfancy(_Bx._Ptr);

  00424	8b 12		 mov	 edx, DWORD PTR [edx]
$LN254@LoadMonste:

; 412  :         return _CSTD strlen(reinterpret_cast<const char*>(_First));

  00426	8b ca		 mov	 ecx, edx

; 2346 :         _CONSTEXPR20_CONTAINER _Bxty() noexcept : _Ptr() {} // user-provided, for fancy pointers

  00428	c7 85 90 fe ff
	ff 00 00 00 00	 mov	 DWORD PTR _$S9$8[ebp], 0

; 4596 :         _My_data._Mysize = 0;

  00432	c7 85 a0 fe ff
	ff 00 00 00 00	 mov	 DWORD PTR _$S9$8[ebp+16], 0

; 4597 : 
; 4598 : #ifdef __cpp_lib_constexpr_string
; 4599 :         if (_STD is_constant_evaluated()) {
; 4600 :             _My_data._Myres        = _BUF_SIZE; // SSO disabled in constexpr context
; 4601 :             auto& _Al              = _Getal();
; 4602 :             const pointer _New_ptr = _Al.allocate(_BUF_SIZE + 1); // throws
; 4603 :             _My_data._Bx._Ptr      = _New_ptr;
; 4604 : 
; 4605 :             _Elem* const _Raw_new = _Unfancy(_New_ptr);
; 4606 :             _Traits::assign(_Raw_new, _BUF_SIZE + 1, _Elem());
; 4607 :         } else
; 4608 : #endif // __cpp_lib_constexpr_string
; 4609 :         {
; 4610 :             _My_data._Myres = _BUF_SIZE - 1;

  0043c	c7 85 a4 fe ff
	ff 0f 00 00 00	 mov	 DWORD PTR _$S9$8[ebp+20], 15 ; 0000000fH

; 4611 :             // the _Traits::assign is last so the codegen doesn't think the char write can alias this
; 4612 :             _Traits::assign(_My_data._Bx._Buf[0], _Elem());

  00446	c6 85 90 fe ff
	ff 00		 mov	 BYTE PTR _$S9$8[ebp], 0

; 412  :         return _CSTD strlen(reinterpret_cast<const char*>(_First));

  0044d	8d 71 01	 lea	 esi, DWORD PTR [ecx+1]
$LL772@LoadMonste:
  00450	8a 01		 mov	 al, BYTE PTR [ecx]
  00452	41		 inc	 ecx
  00453	84 c0		 test	 al, al
  00455	75 f9		 jne	 SHORT $LL772@LoadMonste
  00457	2b ce		 sub	 ecx, esi

; 3264 :         return assign(_Ptr, _Convert_size<size_type>(_Traits::length(_Ptr)));

  00459	51		 push	 ecx
  0045a	52		 push	 edx
  0045b	8d 8d 90 fe ff
	ff		 lea	 ecx, DWORD PTR _$S9$8[ebp]
  00461	e8 00 00 00 00	 call	 ?assign@?$basic_string@DU?$char_traits@D@std@@V?$allocator@D@2@@std@@QAEAAV12@QBDI@Z ; std::basic_string<char,std::char_traits<char>,std::allocator<char> >::assign
; File C:\Program Files (x86)\Microsoft Visual Studio\2019\Professional\VC\Tools\MSVC\14.29.30133\include\vector

; 1569 :         return _My_data._Myfirst[_Pos];

  00466	8b 95 b0 fc ff
	ff		 mov	 edx, DWORD PTR _stTokenVector$[ebp]
  0046c	81 c2 c0 00 00
	00		 add	 edx, 192		; 000000c0H
; File C:\Users\murat\Desktop\Siveps2-1-99-Project\source\client\Client\GameLib\MapOutdoorLoad.cpp

; 512  : 			const std::string & c_rstrTime		= stTokenVector[7].c_str();

  00472	c6 45 fc 09	 mov	 BYTE PTR __$EHRec$[ebp+8], 9
; File C:\Program Files (x86)\Microsoft Visual Studio\2019\Professional\VC\Tools\MSVC\14.29.30133\include\xstring

; 2306 :         if (_Large_string_engaged()) {

  00476	83 7a 14 10	 cmp	 DWORD PTR [edx+20], 16	; 00000010H
  0047a	72 02		 jb	 SHORT $LN279@LoadMonste

; 2307 :             _Result = _Unfancy(_Bx._Ptr);

  0047c	8b 12		 mov	 edx, DWORD PTR [edx]
$LN279@LoadMonste:

; 412  :         return _CSTD strlen(reinterpret_cast<const char*>(_First));

  0047e	8b ca		 mov	 ecx, edx

; 2346 :         _CONSTEXPR20_CONTAINER _Bxty() noexcept : _Ptr() {} // user-provided, for fancy pointers

  00480	c7 85 a8 fe ff
	ff 00 00 00 00	 mov	 DWORD PTR _$S10$9[ebp], 0

; 4596 :         _My_data._Mysize = 0;

  0048a	c7 85 b8 fe ff
	ff 00 00 00 00	 mov	 DWORD PTR _$S10$9[ebp+16], 0

; 4597 : 
; 4598 : #ifdef __cpp_lib_constexpr_string
; 4599 :         if (_STD is_constant_evaluated()) {
; 4600 :             _My_data._Myres        = _BUF_SIZE; // SSO disabled in constexpr context
; 4601 :             auto& _Al              = _Getal();
; 4602 :             const pointer _New_ptr = _Al.allocate(_BUF_SIZE + 1); // throws
; 4603 :             _My_data._Bx._Ptr      = _New_ptr;
; 4604 : 
; 4605 :             _Elem* const _Raw_new = _Unfancy(_New_ptr);
; 4606 :             _Traits::assign(_Raw_new, _BUF_SIZE + 1, _Elem());
; 4607 :         } else
; 4608 : #endif // __cpp_lib_constexpr_string
; 4609 :         {
; 4610 :             _My_data._Myres = _BUF_SIZE - 1;

  00494	c7 85 bc fe ff
	ff 0f 00 00 00	 mov	 DWORD PTR _$S10$9[ebp+20], 15 ; 0000000fH

; 4611 :             // the _Traits::assign is last so the codegen doesn't think the char write can alias this
; 4612 :             _Traits::assign(_My_data._Bx._Buf[0], _Elem());

  0049e	c6 85 a8 fe ff
	ff 00		 mov	 BYTE PTR _$S10$9[ebp], 0

; 412  :         return _CSTD strlen(reinterpret_cast<const char*>(_First));

  004a5	8d 71 01	 lea	 esi, DWORD PTR [ecx+1]
$LL773@LoadMonste:
  004a8	8a 01		 mov	 al, BYTE PTR [ecx]
  004aa	41		 inc	 ecx
  004ab	84 c0		 test	 al, al
  004ad	75 f9		 jne	 SHORT $LL773@LoadMonste
  004af	2b ce		 sub	 ecx, esi

; 3264 :         return assign(_Ptr, _Convert_size<size_type>(_Traits::length(_Ptr)));

  004b1	51		 push	 ecx
  004b2	52		 push	 edx
  004b3	8d 8d a8 fe ff
	ff		 lea	 ecx, DWORD PTR _$S10$9[ebp]
  004b9	e8 00 00 00 00	 call	 ?assign@?$basic_string@DU?$char_traits@D@std@@V?$allocator@D@2@@std@@QAEAAV12@QBDI@Z ; std::basic_string<char,std::char_traits<char>,std::allocator<char> >::assign
; File C:\Program Files (x86)\Microsoft Visual Studio\2019\Professional\VC\Tools\MSVC\14.29.30133\include\vector

; 1569 :         return _My_data._Myfirst[_Pos];

  004be	8b 95 b0 fc ff
	ff		 mov	 edx, DWORD PTR _stTokenVector$[ebp]
  004c4	81 c2 d8 00 00
	00		 add	 edx, 216		; 000000d8H
; File C:\Users\murat\Desktop\Siveps2-1-99-Project\source\client\Client\GameLib\MapOutdoorLoad.cpp

; 513  : 			const std::string & c_rstrPercent	= stTokenVector[8].c_str();

  004ca	c6 45 fc 0a	 mov	 BYTE PTR __$EHRec$[ebp+8], 10 ; 0000000aH
; File C:\Program Files (x86)\Microsoft Visual Studio\2019\Professional\VC\Tools\MSVC\14.29.30133\include\xstring

; 2306 :         if (_Large_string_engaged()) {

  004ce	83 7a 14 10	 cmp	 DWORD PTR [edx+20], 16	; 00000010H
  004d2	72 02		 jb	 SHORT $LN304@LoadMonste

; 2307 :             _Result = _Unfancy(_Bx._Ptr);

  004d4	8b 12		 mov	 edx, DWORD PTR [edx]
$LN304@LoadMonste:

; 412  :         return _CSTD strlen(reinterpret_cast<const char*>(_First));

  004d6	8b c2		 mov	 eax, edx

; 2346 :         _CONSTEXPR20_CONTAINER _Bxty() noexcept : _Ptr() {} // user-provided, for fancy pointers

  004d8	c7 85 c0 fe ff
	ff 00 00 00 00	 mov	 DWORD PTR _$S11$10[ebp], 0

; 4596 :         _My_data._Mysize = 0;

  004e2	c7 85 d0 fe ff
	ff 00 00 00 00	 mov	 DWORD PTR _$S11$10[ebp+16], 0

; 4597 : 
; 4598 : #ifdef __cpp_lib_constexpr_string
; 4599 :         if (_STD is_constant_evaluated()) {
; 4600 :             _My_data._Myres        = _BUF_SIZE; // SSO disabled in constexpr context
; 4601 :             auto& _Al              = _Getal();
; 4602 :             const pointer _New_ptr = _Al.allocate(_BUF_SIZE + 1); // throws
; 4603 :             _My_data._Bx._Ptr      = _New_ptr;
; 4604 : 
; 4605 :             _Elem* const _Raw_new = _Unfancy(_New_ptr);
; 4606 :             _Traits::assign(_Raw_new, _BUF_SIZE + 1, _Elem());
; 4607 :         } else
; 4608 : #endif // __cpp_lib_constexpr_string
; 4609 :         {
; 4610 :             _My_data._Myres = _BUF_SIZE - 1;

  004ec	c7 85 d4 fe ff
	ff 0f 00 00 00	 mov	 DWORD PTR _$S11$10[ebp+20], 15 ; 0000000fH

; 4611 :             // the _Traits::assign is last so the codegen doesn't think the char write can alias this
; 4612 :             _Traits::assign(_My_data._Bx._Buf[0], _Elem());

  004f6	c6 85 c0 fe ff
	ff 00		 mov	 BYTE PTR _$S11$10[ebp], 0

; 412  :         return _CSTD strlen(reinterpret_cast<const char*>(_First));

  004fd	8d 70 01	 lea	 esi, DWORD PTR [eax+1]
$LL774@LoadMonste:
  00500	8a 08		 mov	 cl, BYTE PTR [eax]
  00502	40		 inc	 eax
  00503	84 c9		 test	 cl, cl
  00505	75 f9		 jne	 SHORT $LL774@LoadMonste
  00507	2b c6		 sub	 eax, esi

; 3264 :         return assign(_Ptr, _Convert_size<size_type>(_Traits::length(_Ptr)));

  00509	8d 8d c0 fe ff
	ff		 lea	 ecx, DWORD PTR _$S11$10[ebp]
  0050f	50		 push	 eax
  00510	52		 push	 edx
  00511	e8 00 00 00 00	 call	 ?assign@?$basic_string@DU?$char_traits@D@std@@V?$allocator@D@2@@std@@QAEAAV12@QBDI@Z ; std::basic_string<char,std::char_traits<char>,std::allocator<char> >::assign
; File C:\Program Files (x86)\Microsoft Visual Studio\2019\Professional\VC\Tools\MSVC\14.29.30133\include\vector

; 1569 :         return _My_data._Myfirst[_Pos];

  00516	8b 95 b0 fc ff
	ff		 mov	 edx, DWORD PTR _stTokenVector$[ebp]
  0051c	81 c2 f0 00 00
	00		 add	 edx, 240		; 000000f0H
; File C:\Users\murat\Desktop\Siveps2-1-99-Project\source\client\Client\GameLib\MapOutdoorLoad.cpp

; 514  : 			const std::string & c_rstrCount		= stTokenVector[9].c_str();

  00522	c6 45 fc 0b	 mov	 BYTE PTR __$EHRec$[ebp+8], 11 ; 0000000bH
; File C:\Program Files (x86)\Microsoft Visual Studio\2019\Professional\VC\Tools\MSVC\14.29.30133\include\xstring

; 2306 :         if (_Large_string_engaged()) {

  00526	83 7a 14 10	 cmp	 DWORD PTR [edx+20], 16	; 00000010H
  0052a	72 02		 jb	 SHORT $LN329@LoadMonste

; 2307 :             _Result = _Unfancy(_Bx._Ptr);

  0052c	8b 12		 mov	 edx, DWORD PTR [edx]
$LN329@LoadMonste:

; 412  :         return _CSTD strlen(reinterpret_cast<const char*>(_First));

  0052e	8b ca		 mov	 ecx, edx

; 2346 :         _CONSTEXPR20_CONTAINER _Bxty() noexcept : _Ptr() {} // user-provided, for fancy pointers

  00530	c7 85 d8 fe ff
	ff 00 00 00 00	 mov	 DWORD PTR _$S12$11[ebp], 0

; 4596 :         _My_data._Mysize = 0;

  0053a	c7 85 e8 fe ff
	ff 00 00 00 00	 mov	 DWORD PTR _$S12$11[ebp+16], 0

; 4597 : 
; 4598 : #ifdef __cpp_lib_constexpr_string
; 4599 :         if (_STD is_constant_evaluated()) {
; 4600 :             _My_data._Myres        = _BUF_SIZE; // SSO disabled in constexpr context
; 4601 :             auto& _Al              = _Getal();
; 4602 :             const pointer _New_ptr = _Al.allocate(_BUF_SIZE + 1); // throws
; 4603 :             _My_data._Bx._Ptr      = _New_ptr;
; 4604 : 
; 4605 :             _Elem* const _Raw_new = _Unfancy(_New_ptr);
; 4606 :             _Traits::assign(_Raw_new, _BUF_SIZE + 1, _Elem());
; 4607 :         } else
; 4608 : #endif // __cpp_lib_constexpr_string
; 4609 :         {
; 4610 :             _My_data._Myres = _BUF_SIZE - 1;

  00544	c7 85 ec fe ff
	ff 0f 00 00 00	 mov	 DWORD PTR _$S12$11[ebp+20], 15 ; 0000000fH

; 4611 :             // the _Traits::assign is last so the codegen doesn't think the char write can alias this
; 4612 :             _Traits::assign(_My_data._Bx._Buf[0], _Elem());

  0054e	c6 85 d8 fe ff
	ff 00		 mov	 BYTE PTR _$S12$11[ebp], 0

; 412  :         return _CSTD strlen(reinterpret_cast<const char*>(_First));

  00555	8d 71 01	 lea	 esi, DWORD PTR [ecx+1]
$LL775@LoadMonste:
  00558	8a 01		 mov	 al, BYTE PTR [ecx]
  0055a	41		 inc	 ecx
  0055b	84 c0		 test	 al, al
  0055d	75 f9		 jne	 SHORT $LL775@LoadMonste
  0055f	2b ce		 sub	 ecx, esi

; 3264 :         return assign(_Ptr, _Convert_size<size_type>(_Traits::length(_Ptr)));

  00561	51		 push	 ecx
  00562	52		 push	 edx
  00563	8d 8d d8 fe ff
	ff		 lea	 ecx, DWORD PTR _$S12$11[ebp]
  00569	e8 00 00 00 00	 call	 ?assign@?$basic_string@DU?$char_traits@D@std@@V?$allocator@D@2@@std@@QAEAAV12@QBDI@Z ; std::basic_string<char,std::char_traits<char>,std::allocator<char> >::assign

; 2306 :         if (_Large_string_engaged()) {

  0056e	83 bd 14 fe ff
	ff 10		 cmp	 DWORD PTR _$S3$2[ebp+20], 16 ; 00000010H
  00575	8d 85 00 fe ff
	ff		 lea	 eax, DWORD PTR _$S3$2[ebp]
; File C:\Users\murat\Desktop\Siveps2-1-99-Project\source\client\Client\GameLib\MapOutdoorLoad.cpp

; 515  : 			const std::string & c_rstrVID		= stTokenVector[10].c_str();

  0057b	c6 45 fc 0c	 mov	 BYTE PTR __$EHRec$[ebp+8], 12 ; 0000000cH
; File C:\Program Files (x86)\Microsoft Visual Studio\2019\Professional\VC\Tools\MSVC\14.29.30133\include\xstring

; 2306 :         if (_Large_string_engaged()) {

  0057f	0f 43 85 00 fe
	ff ff		 cmovae	 eax, DWORD PTR _$S3$2[ebp]
; File C:\Users\murat\Desktop\Siveps2-1-99-Project\source\client\Client\GameLib\MapOutdoorLoad.cpp

; 522  : 			lOriginX		= atol(c_rstrOriginX.c_str());

  00586	50		 push	 eax
  00587	e8 00 00 00 00	 call	 _atol
; File C:\Program Files (x86)\Microsoft Visual Studio\2019\Professional\VC\Tools\MSVC\14.29.30133\include\xstring

; 2306 :         if (_Large_string_engaged()) {

  0058c	83 bd 2c fe ff
	ff 10		 cmp	 DWORD PTR _$S4$3[ebp+20], 16 ; 00000010H
; File C:\Users\murat\Desktop\Siveps2-1-99-Project\source\client\Client\GameLib\MapOutdoorLoad.cpp

; 522  : 			lOriginX		= atol(c_rstrOriginX.c_str());

  00593	89 85 9c fc ff
	ff		 mov	 DWORD PTR _lOriginX$1$[ebp], eax
; File C:\Program Files (x86)\Microsoft Visual Studio\2019\Professional\VC\Tools\MSVC\14.29.30133\include\xstring

; 2305 :         const value_type* _Result = _Bx._Buf;

  00599	8d 85 18 fe ff
	ff		 lea	 eax, DWORD PTR _$S4$3[ebp]

; 2306 :         if (_Large_string_engaged()) {

  0059f	0f 43 85 18 fe
	ff ff		 cmovae	 eax, DWORD PTR _$S4$3[ebp]
; File C:\Users\murat\Desktop\Siveps2-1-99-Project\source\client\Client\GameLib\MapOutdoorLoad.cpp

; 523  : 			lOriginY		= atol(c_rstrOriginY.c_str());

  005a6	50		 push	 eax
  005a7	e8 00 00 00 00	 call	 _atol
; File C:\Program Files (x86)\Microsoft Visual Studio\2019\Professional\VC\Tools\MSVC\14.29.30133\include\xstring

; 2306 :         if (_Large_string_engaged()) {

  005ac	83 bd 44 fe ff
	ff 10		 cmp	 DWORD PTR _$S5$4[ebp+20], 16 ; 00000010H
; File C:\Users\murat\Desktop\Siveps2-1-99-Project\source\client\Client\GameLib\MapOutdoorLoad.cpp

; 523  : 			lOriginY		= atol(c_rstrOriginY.c_str());

  005b3	8b d8		 mov	 ebx, eax
; File C:\Program Files (x86)\Microsoft Visual Studio\2019\Professional\VC\Tools\MSVC\14.29.30133\include\xstring

; 2305 :         const value_type* _Result = _Bx._Buf;

  005b5	8d 85 30 fe ff
	ff		 lea	 eax, DWORD PTR _$S5$4[ebp]

; 2306 :         if (_Large_string_engaged()) {

  005bb	0f 43 85 30 fe
	ff ff		 cmovae	 eax, DWORD PTR _$S5$4[ebp]
; File C:\Users\murat\Desktop\Siveps2-1-99-Project\source\client\Client\GameLib\MapOutdoorLoad.cpp

; 524  : 			lSizeX			= atol(c_rstrSizeX.c_str());

  005c2	50		 push	 eax
  005c3	e8 00 00 00 00	 call	 _atol
; File C:\Program Files (x86)\Microsoft Visual Studio\2019\Professional\VC\Tools\MSVC\14.29.30133\include\xstring

; 2306 :         if (_Large_string_engaged()) {

  005c8	83 bd 5c fe ff
	ff 10		 cmp	 DWORD PTR _$S6$5[ebp+20], 16 ; 00000010H
; File C:\Users\murat\Desktop\Siveps2-1-99-Project\source\client\Client\GameLib\MapOutdoorLoad.cpp

; 524  : 			lSizeX			= atol(c_rstrSizeX.c_str());

  005cf	8b f8		 mov	 edi, eax
; File C:\Program Files (x86)\Microsoft Visual Studio\2019\Professional\VC\Tools\MSVC\14.29.30133\include\xstring

; 2305 :         const value_type* _Result = _Bx._Buf;

  005d1	8d 85 48 fe ff
	ff		 lea	 eax, DWORD PTR _$S6$5[ebp]

; 2306 :         if (_Large_string_engaged()) {

  005d7	0f 43 85 48 fe
	ff ff		 cmovae	 eax, DWORD PTR _$S6$5[ebp]
; File C:\Users\murat\Desktop\Siveps2-1-99-Project\source\client\Client\GameLib\MapOutdoorLoad.cpp

; 525  : 			lSizeY			= atol(c_rstrSizeY.c_str());

  005de	50		 push	 eax
  005df	e8 00 00 00 00	 call	 _atol
; File C:\Program Files (x86)\Microsoft Visual Studio\2019\Professional\VC\Tools\MSVC\14.29.30133\include\xstring

; 2306 :         if (_Large_string_engaged()) {

  005e4	83 bd 74 fe ff
	ff 10		 cmp	 DWORD PTR _$S7$6[ebp+20], 16 ; 00000010H
; File C:\Users\murat\Desktop\Siveps2-1-99-Project\source\client\Client\GameLib\MapOutdoorLoad.cpp

; 525  : 			lSizeY			= atol(c_rstrSizeY.c_str());

  005eb	8b f0		 mov	 esi, eax
; File C:\Program Files (x86)\Microsoft Visual Studio\2019\Professional\VC\Tools\MSVC\14.29.30133\include\xstring

; 2305 :         const value_type* _Result = _Bx._Buf;

  005ed	8d 85 60 fe ff
	ff		 lea	 eax, DWORD PTR _$S7$6[ebp]

; 2306 :         if (_Large_string_engaged()) {

  005f3	0f 43 85 60 fe
	ff ff		 cmovae	 eax, DWORD PTR _$S7$6[ebp]
; File C:\Users\murat\Desktop\Siveps2-1-99-Project\source\client\Client\GameLib\MapOutdoorLoad.cpp

; 526  : 			lZ				= atol(c_rstrZ.c_str());

  005fa	50		 push	 eax
  005fb	e8 00 00 00 00	 call	 _atol
; File C:\Program Files (x86)\Microsoft Visual Studio\2019\Professional\VC\Tools\MSVC\14.29.30133\include\xstring

; 2306 :         if (_Large_string_engaged()) {

  00600	83 bd 8c fe ff
	ff 10		 cmp	 DWORD PTR _$S8$7[ebp+20], 16 ; 00000010H
  00607	8d 85 78 fe ff
	ff		 lea	 eax, DWORD PTR _$S8$7[ebp]
  0060d	0f 43 85 78 fe
	ff ff		 cmovae	 eax, DWORD PTR _$S8$7[ebp]
; File C:\Users\murat\Desktop\Siveps2-1-99-Project\source\client\Client\GameLib\MapOutdoorLoad.cpp

; 527  : 			eMonsterDir		= (CMonsterAreaInfo::EMonsterDir) atoi(c_rstrDir.c_str());

  00614	50		 push	 eax
  00615	e8 00 00 00 00	 call	 __atoi64
; File C:\Program Files (x86)\Microsoft Visual Studio\2019\Professional\VC\Tools\MSVC\14.29.30133\include\xstring

; 2306 :         if (_Large_string_engaged()) {

  0061a	83 bd a4 fe ff
	ff 10		 cmp	 DWORD PTR _$S9$8[ebp+20], 16 ; 00000010H
; File C:\Users\murat\Desktop\Siveps2-1-99-Project\source\client\Client\GameLib\MapOutdoorLoad.cpp

; 527  : 			eMonsterDir		= (CMonsterAreaInfo::EMonsterDir) atoi(c_rstrDir.c_str());

  00621	89 85 90 fc ff
	ff		 mov	 DWORD PTR _eMonsterDir$1$[ebp], eax
; File C:\Program Files (x86)\Microsoft Visual Studio\2019\Professional\VC\Tools\MSVC\14.29.30133\include\xstring

; 2305 :         const value_type* _Result = _Bx._Buf;

  00627	8d 85 90 fe ff
	ff		 lea	 eax, DWORD PTR _$S9$8[ebp]

; 2306 :         if (_Large_string_engaged()) {

  0062d	0f 43 85 90 fe
	ff ff		 cmovae	 eax, DWORD PTR _$S9$8[ebp]
; File C:\Users\murat\Desktop\Siveps2-1-99-Project\source\client\Client\GameLib\MapOutdoorLoad.cpp

; 528  : 			lTime			= atol(c_rstrTime.c_str());

  00634	50		 push	 eax
  00635	e8 00 00 00 00	 call	 _atol
; File C:\Program Files (x86)\Microsoft Visual Studio\2019\Professional\VC\Tools\MSVC\14.29.30133\include\xstring

; 2306 :         if (_Large_string_engaged()) {

  0063a	83 bd bc fe ff
	ff 10		 cmp	 DWORD PTR _$S10$9[ebp+20], 16 ; 00000010H
  00641	8d 85 a8 fe ff
	ff		 lea	 eax, DWORD PTR _$S10$9[ebp]
  00647	0f 43 85 a8 fe
	ff ff		 cmovae	 eax, DWORD PTR _$S10$9[ebp]
; File C:\Users\murat\Desktop\Siveps2-1-99-Project\source\client\Client\GameLib\MapOutdoorLoad.cpp

; 529  : 			lPercent		= atol(c_rstrPercent.c_str());

  0064e	50		 push	 eax
  0064f	e8 00 00 00 00	 call	 _atol
; File C:\Program Files (x86)\Microsoft Visual Studio\2019\Professional\VC\Tools\MSVC\14.29.30133\include\xstring

; 2306 :         if (_Large_string_engaged()) {

  00654	83 bd d4 fe ff
	ff 10		 cmp	 DWORD PTR _$S11$10[ebp+20], 16 ; 00000010H
  0065b	8d 85 c0 fe ff
	ff		 lea	 eax, DWORD PTR _$S11$10[ebp]
  00661	0f 43 85 c0 fe
	ff ff		 cmovae	 eax, DWORD PTR _$S11$10[ebp]
; File C:\Users\murat\Desktop\Siveps2-1-99-Project\source\client\Client\GameLib\MapOutdoorLoad.cpp

; 530  : 			dwMonsterCount	= (DWORD) atoi(c_rstrCount.c_str());

  00668	50		 push	 eax
  00669	e8 00 00 00 00	 call	 __atoi64
; File C:\Program Files (x86)\Microsoft Visual Studio\2019\Professional\VC\Tools\MSVC\14.29.30133\include\xstring

; 2306 :         if (_Large_string_engaged()) {

  0066e	83 bd ec fe ff
	ff 10		 cmp	 DWORD PTR _$S12$11[ebp+20], 16 ; 00000010H
; File C:\Users\murat\Desktop\Siveps2-1-99-Project\source\client\Client\GameLib\MapOutdoorLoad.cpp

; 530  : 			dwMonsterCount	= (DWORD) atoi(c_rstrCount.c_str());

  00675	89 85 94 fc ff
	ff		 mov	 DWORD PTR _dwMonsterCount$1$[ebp], eax
; File C:\Program Files (x86)\Microsoft Visual Studio\2019\Professional\VC\Tools\MSVC\14.29.30133\include\xstring

; 2305 :         const value_type* _Result = _Bx._Buf;

  0067b	8d 85 d8 fe ff
	ff		 lea	 eax, DWORD PTR _$S12$11[ebp]

; 2306 :         if (_Large_string_engaged()) {

  00681	0f 43 85 d8 fe
	ff ff		 cmovae	 eax, DWORD PTR _$S12$11[ebp]
; File C:\Users\murat\Desktop\Siveps2-1-99-Project\source\client\Client\GameLib\MapOutdoorLoad.cpp

; 531  : 			dwMonsterVID	= (DWORD) atoi(c_rstrVID.c_str());

  00688	50		 push	 eax
  00689	e8 00 00 00 00	 call	 __atoi64

; 532  : 
; 533  : //			lOriginX -= m_dwBaseX / 100;
; 534  : //			lOriginY -= m_dwBaseY / 100;
; 535  : 
; 536  : 			CMonsterAreaInfo * pMonsterAreaInfo = AddMonsterAreaInfo(lOriginX, lOriginY, lSizeX, lSizeY);

  0068e	8b 8d 98 fc ff
	ff		 mov	 ecx, DWORD PTR _this$GSCopy$1$[ebp]
  00694	83 c4 28	 add	 esp, 40			; 00000028H
  00697	89 85 a4 fc ff
	ff		 mov	 DWORD PTR _dwMonsterVID$1$[ebp], eax
  0069d	56		 push	 esi
  0069e	57		 push	 edi
  0069f	53		 push	 ebx
  006a0	ff b5 9c fc ff
	ff		 push	 DWORD PTR _lOriginX$1$[ebp]
  006a6	e8 00 00 00 00	 call	 ?AddMonsterAreaInfo@CMapOutdoor@@QAEPAVCMonsterAreaInfo@@JJJJ@Z ; CMapOutdoor::AddMonsterAreaInfo
  006ab	8b f0		 mov	 esi, eax

; 537  : 			pMonsterAreaInfo->SetMonsterAreaInfoType(eMonsterAreaInfoType);

  006ad	8b 85 a8 fc ff
	ff		 mov	 eax, DWORD PTR _eMonsterAreaInfoType$1$[ebp]
  006b3	89 46 04	 mov	 DWORD PTR [esi+4], eax

; 538  : 			if (CMonsterAreaInfo::MONSTERAREAINFOTYPE_MONSTER == eMonsterAreaInfoType)

  006b6	83 f8 01	 cmp	 eax, 1
  006b9	75 0b		 jne	 SHORT $LN14@LoadMonste

; 539  : 				pMonsterAreaInfo->SetMonsterVID(dwMonsterVID);

  006bb	8b 85 a4 fc ff
	ff		 mov	 eax, DWORD PTR _dwMonsterVID$1$[ebp]
  006c1	89 46 40	 mov	 DWORD PTR [esi+64], eax
  006c4	eb 0e		 jmp	 SHORT $LN16@LoadMonste
$LN14@LoadMonste:

; 540  : 			else if (CMonsterAreaInfo::MONSTERAREAINFOTYPE_GROUP == eMonsterAreaInfoType)

  006c6	83 f8 02	 cmp	 eax, 2
  006c9	75 09		 jne	 SHORT $LN16@LoadMonste

; 541  : 				pMonsterAreaInfo->SetMonsterGroupID(dwMonsterVID);

  006cb	8b 85 a4 fc ff
	ff		 mov	 eax, DWORD PTR _dwMonsterVID$1$[ebp]
  006d1	89 46 08	 mov	 DWORD PTR [esi+8], eax
$LN16@LoadMonste:

; 542  : 			pMonsterAreaInfo->SetMonsterCount(dwMonsterCount);

  006d4	ff b5 94 fc ff
	ff		 push	 DWORD PTR _dwMonsterCount$1$[ebp]
  006da	8b ce		 mov	 ecx, esi
  006dc	e8 00 00 00 00	 call	 ?SetMonsterCount@CMonsterAreaInfo@@QAEXK@Z ; CMonsterAreaInfo::SetMonsterCount

; 543  : 			pMonsterAreaInfo->SetMonsterDirection(eMonsterDir);

  006e1	ff b5 90 fc ff
	ff		 push	 DWORD PTR _eMonsterDir$1$[ebp]
  006e7	8b ce		 mov	 ecx, esi
  006e9	e8 00 00 00 00	 call	 ?SetMonsterDirection@CMonsterAreaInfo@@QAEXW4EMonsterDir@1@@Z ; CMonsterAreaInfo::SetMonsterDirection
; File C:\Program Files (x86)\Microsoft Visual Studio\2019\Professional\VC\Tools\MSVC\14.29.30133\include\xstring

; 4618 :         if (_Mypair._Myval2._Large_string_engaged()) {

  006ee	8b 95 ec fe ff
	ff		 mov	 edx, DWORD PTR _$S12$11[ebp+20]
; File C:\Users\murat\Desktop\Siveps2-1-99-Project\source\client\Client\GameLib\MapOutdoorLoad.cpp

; 544  : 		}

  006f4	c6 45 fc 0b	 mov	 BYTE PTR __$EHRec$[ebp+8], 11 ; 0000000bH
; File C:\Program Files (x86)\Microsoft Visual Studio\2019\Professional\VC\Tools\MSVC\14.29.30133\include\xstring

; 4618 :         if (_Mypair._Myval2._Large_string_engaged()) {

  006f8	83 fa 10	 cmp	 edx, 16			; 00000010H
  006fb	72 2f		 jb	 SHORT $LN431@LoadMonste
; File C:\Program Files (x86)\Microsoft Visual Studio\2019\Professional\VC\Tools\MSVC\14.29.30133\include\xmemory

; 835  :         _Deallocate<_New_alignof<_Ty>>(_Ptr, sizeof(_Ty) * _Count);

  006fd	8b 8d d8 fe ff
	ff		 mov	 ecx, DWORD PTR _$S12$11[ebp]
; File C:\Program Files (x86)\Microsoft Visual Studio\2019\Professional\VC\Tools\MSVC\14.29.30133\include\xstring

; 4622 :             _Al.deallocate(_Ptr, _Mypair._Myval2._Myres + 1);

  00703	42		 inc	 edx
; File C:\Program Files (x86)\Microsoft Visual Studio\2019\Professional\VC\Tools\MSVC\14.29.30133\include\xmemory

; 835  :         _Deallocate<_New_alignof<_Ty>>(_Ptr, sizeof(_Ty) * _Count);

  00704	8b c1		 mov	 eax, ecx

; 260  :         if (_Bytes >= _Big_allocation_threshold) { // boost the alignment of big allocations to help autovectorization

  00706	81 fa 00 10 00
	00		 cmp	 edx, 4096		; 00001000H
  0070c	72 14		 jb	 SHORT $LN441@LoadMonste

; 158  :     const uintptr_t _Ptr_container   = _Ptr_user[-1];

  0070e	8b 49 fc	 mov	 ecx, DWORD PTR [ecx-4]
  00711	83 c2 23	 add	 edx, 35			; 00000023H
  00714	2b c1		 sub	 eax, ecx

; 172  :     _STL_VERIFY(_Back_shift >= _Min_back_shift && _Back_shift <= _Non_user_size, "invalid argument");

  00716	83 c0 fc	 add	 eax, -4			; fffffffcH
  00719	83 f8 1f	 cmp	 eax, 31			; 0000001fH
  0071c	0f 87 59 04 00
	00		 ja	 $LN750@LoadMonste
$LN441@LoadMonste:

; 264  :         ::operator delete(_Ptr, _Bytes);

  00722	52		 push	 edx
  00723	51		 push	 ecx
  00724	e8 00 00 00 00	 call	 ??3@YAXPAXI@Z		; operator delete
  00729	83 c4 08	 add	 esp, 8
$LN431@LoadMonste:
; File C:\Program Files (x86)\Microsoft Visual Studio\2019\Professional\VC\Tools\MSVC\14.29.30133\include\xstring

; 4618 :         if (_Mypair._Myval2._Large_string_engaged()) {

  0072c	8b 95 d4 fe ff
	ff		 mov	 edx, DWORD PTR _$S11$10[ebp+20]

; 4633 :             _Mypair._Myval2._Mysize = 0;

  00732	c7 85 e8 fe ff
	ff 00 00 00 00	 mov	 DWORD PTR _$S12$11[ebp+16], 0

; 4634 :             _Mypair._Myval2._Myres  = _BUF_SIZE - 1;

  0073c	c7 85 ec fe ff
	ff 0f 00 00 00	 mov	 DWORD PTR _$S12$11[ebp+20], 15 ; 0000000fH

; 4635 :             // the _Traits::assign is last so the codegen doesn't think the char write can alias this
; 4636 :             _Traits::assign(_Mypair._Myval2._Bx._Buf[0], _Elem());

  00746	c6 85 d8 fe ff
	ff 00		 mov	 BYTE PTR _$S12$11[ebp], 0
; File C:\Users\murat\Desktop\Siveps2-1-99-Project\source\client\Client\GameLib\MapOutdoorLoad.cpp

; 544  : 		}

  0074d	c6 45 fc 0a	 mov	 BYTE PTR __$EHRec$[ebp+8], 10 ; 0000000aH
; File C:\Program Files (x86)\Microsoft Visual Studio\2019\Professional\VC\Tools\MSVC\14.29.30133\include\xstring

; 4618 :         if (_Mypair._Myval2._Large_string_engaged()) {

  00751	83 fa 10	 cmp	 edx, 16			; 00000010H
  00754	72 2f		 jb	 SHORT $LN459@LoadMonste
; File C:\Program Files (x86)\Microsoft Visual Studio\2019\Professional\VC\Tools\MSVC\14.29.30133\include\xmemory

; 835  :         _Deallocate<_New_alignof<_Ty>>(_Ptr, sizeof(_Ty) * _Count);

  00756	8b 8d c0 fe ff
	ff		 mov	 ecx, DWORD PTR _$S11$10[ebp]
; File C:\Program Files (x86)\Microsoft Visual Studio\2019\Professional\VC\Tools\MSVC\14.29.30133\include\xstring

; 4622 :             _Al.deallocate(_Ptr, _Mypair._Myval2._Myres + 1);

  0075c	42		 inc	 edx
; File C:\Program Files (x86)\Microsoft Visual Studio\2019\Professional\VC\Tools\MSVC\14.29.30133\include\xmemory

; 835  :         _Deallocate<_New_alignof<_Ty>>(_Ptr, sizeof(_Ty) * _Count);

  0075d	8b c1		 mov	 eax, ecx

; 260  :         if (_Bytes >= _Big_allocation_threshold) { // boost the alignment of big allocations to help autovectorization

  0075f	81 fa 00 10 00
	00		 cmp	 edx, 4096		; 00001000H
  00765	72 14		 jb	 SHORT $LN469@LoadMonste

; 158  :     const uintptr_t _Ptr_container   = _Ptr_user[-1];

  00767	8b 49 fc	 mov	 ecx, DWORD PTR [ecx-4]
  0076a	83 c2 23	 add	 edx, 35			; 00000023H
  0076d	2b c1		 sub	 eax, ecx

; 172  :     _STL_VERIFY(_Back_shift >= _Min_back_shift && _Back_shift <= _Non_user_size, "invalid argument");

  0076f	83 c0 fc	 add	 eax, -4			; fffffffcH
  00772	83 f8 1f	 cmp	 eax, 31			; 0000001fH
  00775	0f 87 00 04 00
	00		 ja	 $LN750@LoadMonste
$LN469@LoadMonste:

; 264  :         ::operator delete(_Ptr, _Bytes);

  0077b	52		 push	 edx
  0077c	51		 push	 ecx
  0077d	e8 00 00 00 00	 call	 ??3@YAXPAXI@Z		; operator delete
  00782	83 c4 08	 add	 esp, 8
$LN459@LoadMonste:
; File C:\Program Files (x86)\Microsoft Visual Studio\2019\Professional\VC\Tools\MSVC\14.29.30133\include\xstring

; 4618 :         if (_Mypair._Myval2._Large_string_engaged()) {

  00785	8b 95 bc fe ff
	ff		 mov	 edx, DWORD PTR _$S10$9[ebp+20]

; 4633 :             _Mypair._Myval2._Mysize = 0;

  0078b	c7 85 d0 fe ff
	ff 00 00 00 00	 mov	 DWORD PTR _$S11$10[ebp+16], 0

; 4634 :             _Mypair._Myval2._Myres  = _BUF_SIZE - 1;

  00795	c7 85 d4 fe ff
	ff 0f 00 00 00	 mov	 DWORD PTR _$S11$10[ebp+20], 15 ; 0000000fH

; 4635 :             // the _Traits::assign is last so the codegen doesn't think the char write can alias this
; 4636 :             _Traits::assign(_Mypair._Myval2._Bx._Buf[0], _Elem());

  0079f	c6 85 c0 fe ff
	ff 00		 mov	 BYTE PTR _$S11$10[ebp], 0
; File C:\Users\murat\Desktop\Siveps2-1-99-Project\source\client\Client\GameLib\MapOutdoorLoad.cpp

; 544  : 		}

  007a6	c6 45 fc 09	 mov	 BYTE PTR __$EHRec$[ebp+8], 9
; File C:\Program Files (x86)\Microsoft Visual Studio\2019\Professional\VC\Tools\MSVC\14.29.30133\include\xstring

; 4618 :         if (_Mypair._Myval2._Large_string_engaged()) {

  007aa	83 fa 10	 cmp	 edx, 16			; 00000010H
  007ad	72 2f		 jb	 SHORT $LN486@LoadMonste
; File C:\Program Files (x86)\Microsoft Visual Studio\2019\Professional\VC\Tools\MSVC\14.29.30133\include\xmemory

; 835  :         _Deallocate<_New_alignof<_Ty>>(_Ptr, sizeof(_Ty) * _Count);

  007af	8b 8d a8 fe ff
	ff		 mov	 ecx, DWORD PTR _$S10$9[ebp]
; File C:\Program Files (x86)\Microsoft Visual Studio\2019\Professional\VC\Tools\MSVC\14.29.30133\include\xstring

; 4622 :             _Al.deallocate(_Ptr, _Mypair._Myval2._Myres + 1);

  007b5	42		 inc	 edx
; File C:\Program Files (x86)\Microsoft Visual Studio\2019\Professional\VC\Tools\MSVC\14.29.30133\include\xmemory

; 835  :         _Deallocate<_New_alignof<_Ty>>(_Ptr, sizeof(_Ty) * _Count);

  007b6	8b c1		 mov	 eax, ecx

; 260  :         if (_Bytes >= _Big_allocation_threshold) { // boost the alignment of big allocations to help autovectorization

  007b8	81 fa 00 10 00
	00		 cmp	 edx, 4096		; 00001000H
  007be	72 14		 jb	 SHORT $LN496@LoadMonste

; 158  :     const uintptr_t _Ptr_container   = _Ptr_user[-1];

  007c0	8b 49 fc	 mov	 ecx, DWORD PTR [ecx-4]
  007c3	83 c2 23	 add	 edx, 35			; 00000023H
  007c6	2b c1		 sub	 eax, ecx

; 172  :     _STL_VERIFY(_Back_shift >= _Min_back_shift && _Back_shift <= _Non_user_size, "invalid argument");

  007c8	83 c0 fc	 add	 eax, -4			; fffffffcH
  007cb	83 f8 1f	 cmp	 eax, 31			; 0000001fH
  007ce	0f 87 a7 03 00
	00		 ja	 $LN750@LoadMonste
$LN496@LoadMonste:

; 264  :         ::operator delete(_Ptr, _Bytes);

  007d4	52		 push	 edx
  007d5	51		 push	 ecx
  007d6	e8 00 00 00 00	 call	 ??3@YAXPAXI@Z		; operator delete
  007db	83 c4 08	 add	 esp, 8
$LN486@LoadMonste:
; File C:\Program Files (x86)\Microsoft Visual Studio\2019\Professional\VC\Tools\MSVC\14.29.30133\include\xstring

; 4618 :         if (_Mypair._Myval2._Large_string_engaged()) {

  007de	8b 95 a4 fe ff
	ff		 mov	 edx, DWORD PTR _$S9$8[ebp+20]

; 4633 :             _Mypair._Myval2._Mysize = 0;

  007e4	c7 85 b8 fe ff
	ff 00 00 00 00	 mov	 DWORD PTR _$S10$9[ebp+16], 0

; 4634 :             _Mypair._Myval2._Myres  = _BUF_SIZE - 1;

  007ee	c7 85 bc fe ff
	ff 0f 00 00 00	 mov	 DWORD PTR _$S10$9[ebp+20], 15 ; 0000000fH

; 4635 :             // the _Traits::assign is last so the codegen doesn't think the char write can alias this
; 4636 :             _Traits::assign(_Mypair._Myval2._Bx._Buf[0], _Elem());

  007f8	c6 85 a8 fe ff
	ff 00		 mov	 BYTE PTR _$S10$9[ebp], 0
; File C:\Users\murat\Desktop\Siveps2-1-99-Project\source\client\Client\GameLib\MapOutdoorLoad.cpp

; 544  : 		}

  007ff	c6 45 fc 08	 mov	 BYTE PTR __$EHRec$[ebp+8], 8
; File C:\Program Files (x86)\Microsoft Visual Studio\2019\Professional\VC\Tools\MSVC\14.29.30133\include\xstring

; 4618 :         if (_Mypair._Myval2._Large_string_engaged()) {

  00803	83 fa 10	 cmp	 edx, 16			; 00000010H
  00806	72 2f		 jb	 SHORT $LN513@LoadMonste
; File C:\Program Files (x86)\Microsoft Visual Studio\2019\Professional\VC\Tools\MSVC\14.29.30133\include\xmemory

; 835  :         _Deallocate<_New_alignof<_Ty>>(_Ptr, sizeof(_Ty) * _Count);

  00808	8b 8d 90 fe ff
	ff		 mov	 ecx, DWORD PTR _$S9$8[ebp]
; File C:\Program Files (x86)\Microsoft Visual Studio\2019\Professional\VC\Tools\MSVC\14.29.30133\include\xstring

; 4622 :             _Al.deallocate(_Ptr, _Mypair._Myval2._Myres + 1);

  0080e	42		 inc	 edx
; File C:\Program Files (x86)\Microsoft Visual Studio\2019\Professional\VC\Tools\MSVC\14.29.30133\include\xmemory

; 835  :         _Deallocate<_New_alignof<_Ty>>(_Ptr, sizeof(_Ty) * _Count);

  0080f	8b c1		 mov	 eax, ecx

; 260  :         if (_Bytes >= _Big_allocation_threshold) { // boost the alignment of big allocations to help autovectorization

  00811	81 fa 00 10 00
	00		 cmp	 edx, 4096		; 00001000H
  00817	72 14		 jb	 SHORT $LN523@LoadMonste

; 158  :     const uintptr_t _Ptr_container   = _Ptr_user[-1];

  00819	8b 49 fc	 mov	 ecx, DWORD PTR [ecx-4]
  0081c	83 c2 23	 add	 edx, 35			; 00000023H
  0081f	2b c1		 sub	 eax, ecx

; 172  :     _STL_VERIFY(_Back_shift >= _Min_back_shift && _Back_shift <= _Non_user_size, "invalid argument");

  00821	83 c0 fc	 add	 eax, -4			; fffffffcH
  00824	83 f8 1f	 cmp	 eax, 31			; 0000001fH
  00827	0f 87 4e 03 00
	00		 ja	 $LN750@LoadMonste
$LN523@LoadMonste:

; 264  :         ::operator delete(_Ptr, _Bytes);

  0082d	52		 push	 edx
  0082e	51		 push	 ecx
  0082f	e8 00 00 00 00	 call	 ??3@YAXPAXI@Z		; operator delete
  00834	83 c4 08	 add	 esp, 8
$LN513@LoadMonste:
; File C:\Program Files (x86)\Microsoft Visual Studio\2019\Professional\VC\Tools\MSVC\14.29.30133\include\xstring

; 4618 :         if (_Mypair._Myval2._Large_string_engaged()) {

  00837	8b 95 8c fe ff
	ff		 mov	 edx, DWORD PTR _$S8$7[ebp+20]

; 4633 :             _Mypair._Myval2._Mysize = 0;

  0083d	c7 85 a0 fe ff
	ff 00 00 00 00	 mov	 DWORD PTR _$S9$8[ebp+16], 0

; 4634 :             _Mypair._Myval2._Myres  = _BUF_SIZE - 1;

  00847	c7 85 a4 fe ff
	ff 0f 00 00 00	 mov	 DWORD PTR _$S9$8[ebp+20], 15 ; 0000000fH

; 4635 :             // the _Traits::assign is last so the codegen doesn't think the char write can alias this
; 4636 :             _Traits::assign(_Mypair._Myval2._Bx._Buf[0], _Elem());

  00851	c6 85 90 fe ff
	ff 00		 mov	 BYTE PTR _$S9$8[ebp], 0
; File C:\Users\murat\Desktop\Siveps2-1-99-Project\source\client\Client\GameLib\MapOutdoorLoad.cpp

; 544  : 		}

  00858	c6 45 fc 07	 mov	 BYTE PTR __$EHRec$[ebp+8], 7
; File C:\Program Files (x86)\Microsoft Visual Studio\2019\Professional\VC\Tools\MSVC\14.29.30133\include\xstring

; 4618 :         if (_Mypair._Myval2._Large_string_engaged()) {

  0085c	83 fa 10	 cmp	 edx, 16			; 00000010H
  0085f	72 2f		 jb	 SHORT $LN540@LoadMonste
; File C:\Program Files (x86)\Microsoft Visual Studio\2019\Professional\VC\Tools\MSVC\14.29.30133\include\xmemory

; 835  :         _Deallocate<_New_alignof<_Ty>>(_Ptr, sizeof(_Ty) * _Count);

  00861	8b 8d 78 fe ff
	ff		 mov	 ecx, DWORD PTR _$S8$7[ebp]
; File C:\Program Files (x86)\Microsoft Visual Studio\2019\Professional\VC\Tools\MSVC\14.29.30133\include\xstring

; 4622 :             _Al.deallocate(_Ptr, _Mypair._Myval2._Myres + 1);

  00867	42		 inc	 edx
; File C:\Program Files (x86)\Microsoft Visual Studio\2019\Professional\VC\Tools\MSVC\14.29.30133\include\xmemory

; 835  :         _Deallocate<_New_alignof<_Ty>>(_Ptr, sizeof(_Ty) * _Count);

  00868	8b c1		 mov	 eax, ecx

; 260  :         if (_Bytes >= _Big_allocation_threshold) { // boost the alignment of big allocations to help autovectorization

  0086a	81 fa 00 10 00
	00		 cmp	 edx, 4096		; 00001000H
  00870	72 14		 jb	 SHORT $LN550@LoadMonste

; 158  :     const uintptr_t _Ptr_container   = _Ptr_user[-1];

  00872	8b 49 fc	 mov	 ecx, DWORD PTR [ecx-4]
  00875	83 c2 23	 add	 edx, 35			; 00000023H
  00878	2b c1		 sub	 eax, ecx

; 172  :     _STL_VERIFY(_Back_shift >= _Min_back_shift && _Back_shift <= _Non_user_size, "invalid argument");

  0087a	83 c0 fc	 add	 eax, -4			; fffffffcH
  0087d	83 f8 1f	 cmp	 eax, 31			; 0000001fH
  00880	0f 87 f5 02 00
	00		 ja	 $LN750@LoadMonste
$LN550@LoadMonste:

; 264  :         ::operator delete(_Ptr, _Bytes);

  00886	52		 push	 edx
  00887	51		 push	 ecx
  00888	e8 00 00 00 00	 call	 ??3@YAXPAXI@Z		; operator delete
  0088d	83 c4 08	 add	 esp, 8
$LN540@LoadMonste:
; File C:\Program Files (x86)\Microsoft Visual Studio\2019\Professional\VC\Tools\MSVC\14.29.30133\include\xstring

; 4618 :         if (_Mypair._Myval2._Large_string_engaged()) {

  00890	8b 95 74 fe ff
	ff		 mov	 edx, DWORD PTR _$S7$6[ebp+20]

; 4633 :             _Mypair._Myval2._Mysize = 0;

  00896	c7 85 88 fe ff
	ff 00 00 00 00	 mov	 DWORD PTR _$S8$7[ebp+16], 0

; 4634 :             _Mypair._Myval2._Myres  = _BUF_SIZE - 1;

  008a0	c7 85 8c fe ff
	ff 0f 00 00 00	 mov	 DWORD PTR _$S8$7[ebp+20], 15 ; 0000000fH

; 4635 :             // the _Traits::assign is last so the codegen doesn't think the char write can alias this
; 4636 :             _Traits::assign(_Mypair._Myval2._Bx._Buf[0], _Elem());

  008aa	c6 85 78 fe ff
	ff 00		 mov	 BYTE PTR _$S8$7[ebp], 0
; File C:\Users\murat\Desktop\Siveps2-1-99-Project\source\client\Client\GameLib\MapOutdoorLoad.cpp

; 544  : 		}

  008b1	c6 45 fc 06	 mov	 BYTE PTR __$EHRec$[ebp+8], 6
; File C:\Program Files (x86)\Microsoft Visual Studio\2019\Professional\VC\Tools\MSVC\14.29.30133\include\xstring

; 4618 :         if (_Mypair._Myval2._Large_string_engaged()) {

  008b5	83 fa 10	 cmp	 edx, 16			; 00000010H
  008b8	72 2f		 jb	 SHORT $LN567@LoadMonste
; File C:\Program Files (x86)\Microsoft Visual Studio\2019\Professional\VC\Tools\MSVC\14.29.30133\include\xmemory

; 835  :         _Deallocate<_New_alignof<_Ty>>(_Ptr, sizeof(_Ty) * _Count);

  008ba	8b 8d 60 fe ff
	ff		 mov	 ecx, DWORD PTR _$S7$6[ebp]
; File C:\Program Files (x86)\Microsoft Visual Studio\2019\Professional\VC\Tools\MSVC\14.29.30133\include\xstring

; 4622 :             _Al.deallocate(_Ptr, _Mypair._Myval2._Myres + 1);

  008c0	42		 inc	 edx
; File C:\Program Files (x86)\Microsoft Visual Studio\2019\Professional\VC\Tools\MSVC\14.29.30133\include\xmemory

; 835  :         _Deallocate<_New_alignof<_Ty>>(_Ptr, sizeof(_Ty) * _Count);

  008c1	8b c1		 mov	 eax, ecx

; 260  :         if (_Bytes >= _Big_allocation_threshold) { // boost the alignment of big allocations to help autovectorization

  008c3	81 fa 00 10 00
	00		 cmp	 edx, 4096		; 00001000H
  008c9	72 14		 jb	 SHORT $LN577@LoadMonste

; 158  :     const uintptr_t _Ptr_container   = _Ptr_user[-1];

  008cb	8b 49 fc	 mov	 ecx, DWORD PTR [ecx-4]
  008ce	83 c2 23	 add	 edx, 35			; 00000023H
  008d1	2b c1		 sub	 eax, ecx

; 172  :     _STL_VERIFY(_Back_shift >= _Min_back_shift && _Back_shift <= _Non_user_size, "invalid argument");

  008d3	83 c0 fc	 add	 eax, -4			; fffffffcH
  008d6	83 f8 1f	 cmp	 eax, 31			; 0000001fH
  008d9	0f 87 9c 02 00
	00		 ja	 $LN750@LoadMonste
$LN577@LoadMonste:

; 264  :         ::operator delete(_Ptr, _Bytes);

  008df	52		 push	 edx
  008e0	51		 push	 ecx
  008e1	e8 00 00 00 00	 call	 ??3@YAXPAXI@Z		; operator delete
  008e6	83 c4 08	 add	 esp, 8
$LN567@LoadMonste:
; File C:\Program Files (x86)\Microsoft Visual Studio\2019\Professional\VC\Tools\MSVC\14.29.30133\include\xstring

; 4618 :         if (_Mypair._Myval2._Large_string_engaged()) {

  008e9	8b 95 5c fe ff
	ff		 mov	 edx, DWORD PTR _$S6$5[ebp+20]

; 4633 :             _Mypair._Myval2._Mysize = 0;

  008ef	c7 85 70 fe ff
	ff 00 00 00 00	 mov	 DWORD PTR _$S7$6[ebp+16], 0

; 4634 :             _Mypair._Myval2._Myres  = _BUF_SIZE - 1;

  008f9	c7 85 74 fe ff
	ff 0f 00 00 00	 mov	 DWORD PTR _$S7$6[ebp+20], 15 ; 0000000fH

; 4635 :             // the _Traits::assign is last so the codegen doesn't think the char write can alias this
; 4636 :             _Traits::assign(_Mypair._Myval2._Bx._Buf[0], _Elem());

  00903	c6 85 60 fe ff
	ff 00		 mov	 BYTE PTR _$S7$6[ebp], 0
; File C:\Users\murat\Desktop\Siveps2-1-99-Project\source\client\Client\GameLib\MapOutdoorLoad.cpp

; 544  : 		}

  0090a	c6 45 fc 05	 mov	 BYTE PTR __$EHRec$[ebp+8], 5
; File C:\Program Files (x86)\Microsoft Visual Studio\2019\Professional\VC\Tools\MSVC\14.29.30133\include\xstring

; 4618 :         if (_Mypair._Myval2._Large_string_engaged()) {

  0090e	83 fa 10	 cmp	 edx, 16			; 00000010H
  00911	72 2f		 jb	 SHORT $LN594@LoadMonste
; File C:\Program Files (x86)\Microsoft Visual Studio\2019\Professional\VC\Tools\MSVC\14.29.30133\include\xmemory

; 835  :         _Deallocate<_New_alignof<_Ty>>(_Ptr, sizeof(_Ty) * _Count);

  00913	8b 8d 48 fe ff
	ff		 mov	 ecx, DWORD PTR _$S6$5[ebp]
; File C:\Program Files (x86)\Microsoft Visual Studio\2019\Professional\VC\Tools\MSVC\14.29.30133\include\xstring

; 4622 :             _Al.deallocate(_Ptr, _Mypair._Myval2._Myres + 1);

  00919	42		 inc	 edx
; File C:\Program Files (x86)\Microsoft Visual Studio\2019\Professional\VC\Tools\MSVC\14.29.30133\include\xmemory

; 835  :         _Deallocate<_New_alignof<_Ty>>(_Ptr, sizeof(_Ty) * _Count);

  0091a	8b c1		 mov	 eax, ecx

; 260  :         if (_Bytes >= _Big_allocation_threshold) { // boost the alignment of big allocations to help autovectorization

  0091c	81 fa 00 10 00
	00		 cmp	 edx, 4096		; 00001000H
  00922	72 14		 jb	 SHORT $LN604@LoadMonste

; 158  :     const uintptr_t _Ptr_container   = _Ptr_user[-1];

  00924	8b 49 fc	 mov	 ecx, DWORD PTR [ecx-4]
  00927	83 c2 23	 add	 edx, 35			; 00000023H
  0092a	2b c1		 sub	 eax, ecx

; 172  :     _STL_VERIFY(_Back_shift >= _Min_back_shift && _Back_shift <= _Non_user_size, "invalid argument");

  0092c	83 c0 fc	 add	 eax, -4			; fffffffcH
  0092f	83 f8 1f	 cmp	 eax, 31			; 0000001fH
  00932	0f 87 43 02 00
	00		 ja	 $LN750@LoadMonste
$LN604@LoadMonste:

; 264  :         ::operator delete(_Ptr, _Bytes);

  00938	52		 push	 edx
  00939	51		 push	 ecx
  0093a	e8 00 00 00 00	 call	 ??3@YAXPAXI@Z		; operator delete
  0093f	83 c4 08	 add	 esp, 8
$LN594@LoadMonste:
; File C:\Program Files (x86)\Microsoft Visual Studio\2019\Professional\VC\Tools\MSVC\14.29.30133\include\xstring

; 4618 :         if (_Mypair._Myval2._Large_string_engaged()) {

  00942	8b 95 44 fe ff
	ff		 mov	 edx, DWORD PTR _$S5$4[ebp+20]

; 4633 :             _Mypair._Myval2._Mysize = 0;

  00948	c7 85 58 fe ff
	ff 00 00 00 00	 mov	 DWORD PTR _$S6$5[ebp+16], 0

; 4634 :             _Mypair._Myval2._Myres  = _BUF_SIZE - 1;

  00952	c7 85 5c fe ff
	ff 0f 00 00 00	 mov	 DWORD PTR _$S6$5[ebp+20], 15 ; 0000000fH

; 4635 :             // the _Traits::assign is last so the codegen doesn't think the char write can alias this
; 4636 :             _Traits::assign(_Mypair._Myval2._Bx._Buf[0], _Elem());

  0095c	c6 85 48 fe ff
	ff 00		 mov	 BYTE PTR _$S6$5[ebp], 0
; File C:\Users\murat\Desktop\Siveps2-1-99-Project\source\client\Client\GameLib\MapOutdoorLoad.cpp

; 544  : 		}

  00963	c6 45 fc 04	 mov	 BYTE PTR __$EHRec$[ebp+8], 4
; File C:\Program Files (x86)\Microsoft Visual Studio\2019\Professional\VC\Tools\MSVC\14.29.30133\include\xstring

; 4618 :         if (_Mypair._Myval2._Large_string_engaged()) {

  00967	83 fa 10	 cmp	 edx, 16			; 00000010H
  0096a	72 2f		 jb	 SHORT $LN621@LoadMonste
; File C:\Program Files (x86)\Microsoft Visual Studio\2019\Professional\VC\Tools\MSVC\14.29.30133\include\xmemory

; 835  :         _Deallocate<_New_alignof<_Ty>>(_Ptr, sizeof(_Ty) * _Count);

  0096c	8b 8d 30 fe ff
	ff		 mov	 ecx, DWORD PTR _$S5$4[ebp]
; File C:\Program Files (x86)\Microsoft Visual Studio\2019\Professional\VC\Tools\MSVC\14.29.30133\include\xstring

; 4622 :             _Al.deallocate(_Ptr, _Mypair._Myval2._Myres + 1);

  00972	42		 inc	 edx
; File C:\Program Files (x86)\Microsoft Visual Studio\2019\Professional\VC\Tools\MSVC\14.29.30133\include\xmemory

; 835  :         _Deallocate<_New_alignof<_Ty>>(_Ptr, sizeof(_Ty) * _Count);

  00973	8b c1		 mov	 eax, ecx

; 260  :         if (_Bytes >= _Big_allocation_threshold) { // boost the alignment of big allocations to help autovectorization

  00975	81 fa 00 10 00
	00		 cmp	 edx, 4096		; 00001000H
  0097b	72 14		 jb	 SHORT $LN631@LoadMonste

; 158  :     const uintptr_t _Ptr_container   = _Ptr_user[-1];

  0097d	8b 49 fc	 mov	 ecx, DWORD PTR [ecx-4]
  00980	83 c2 23	 add	 edx, 35			; 00000023H
  00983	2b c1		 sub	 eax, ecx

; 172  :     _STL_VERIFY(_Back_shift >= _Min_back_shift && _Back_shift <= _Non_user_size, "invalid argument");

  00985	83 c0 fc	 add	 eax, -4			; fffffffcH
  00988	83 f8 1f	 cmp	 eax, 31			; 0000001fH
  0098b	0f 87 ea 01 00
	00		 ja	 $LN750@LoadMonste
$LN631@LoadMonste:

; 264  :         ::operator delete(_Ptr, _Bytes);

  00991	52		 push	 edx
  00992	51		 push	 ecx
  00993	e8 00 00 00 00	 call	 ??3@YAXPAXI@Z		; operator delete
  00998	83 c4 08	 add	 esp, 8
$LN621@LoadMonste:
; File C:\Program Files (x86)\Microsoft Visual Studio\2019\Professional\VC\Tools\MSVC\14.29.30133\include\xstring

; 4618 :         if (_Mypair._Myval2._Large_string_engaged()) {

  0099b	8b 95 2c fe ff
	ff		 mov	 edx, DWORD PTR _$S4$3[ebp+20]

; 4633 :             _Mypair._Myval2._Mysize = 0;

  009a1	c7 85 40 fe ff
	ff 00 00 00 00	 mov	 DWORD PTR _$S5$4[ebp+16], 0

; 4634 :             _Mypair._Myval2._Myres  = _BUF_SIZE - 1;

  009ab	c7 85 44 fe ff
	ff 0f 00 00 00	 mov	 DWORD PTR _$S5$4[ebp+20], 15 ; 0000000fH

; 4635 :             // the _Traits::assign is last so the codegen doesn't think the char write can alias this
; 4636 :             _Traits::assign(_Mypair._Myval2._Bx._Buf[0], _Elem());

  009b5	c6 85 30 fe ff
	ff 00		 mov	 BYTE PTR _$S5$4[ebp], 0
; File C:\Users\murat\Desktop\Siveps2-1-99-Project\source\client\Client\GameLib\MapOutdoorLoad.cpp

; 544  : 		}

  009bc	c6 45 fc 03	 mov	 BYTE PTR __$EHRec$[ebp+8], 3
; File C:\Program Files (x86)\Microsoft Visual Studio\2019\Professional\VC\Tools\MSVC\14.29.30133\include\xstring

; 4618 :         if (_Mypair._Myval2._Large_string_engaged()) {

  009c0	83 fa 10	 cmp	 edx, 16			; 00000010H
  009c3	72 2f		 jb	 SHORT $LN648@LoadMonste
; File C:\Program Files (x86)\Microsoft Visual Studio\2019\Professional\VC\Tools\MSVC\14.29.30133\include\xmemory

; 835  :         _Deallocate<_New_alignof<_Ty>>(_Ptr, sizeof(_Ty) * _Count);

  009c5	8b 8d 18 fe ff
	ff		 mov	 ecx, DWORD PTR _$S4$3[ebp]
; File C:\Program Files (x86)\Microsoft Visual Studio\2019\Professional\VC\Tools\MSVC\14.29.30133\include\xstring

; 4622 :             _Al.deallocate(_Ptr, _Mypair._Myval2._Myres + 1);

  009cb	42		 inc	 edx
; File C:\Program Files (x86)\Microsoft Visual Studio\2019\Professional\VC\Tools\MSVC\14.29.30133\include\xmemory

; 835  :         _Deallocate<_New_alignof<_Ty>>(_Ptr, sizeof(_Ty) * _Count);

  009cc	8b c1		 mov	 eax, ecx

; 260  :         if (_Bytes >= _Big_allocation_threshold) { // boost the alignment of big allocations to help autovectorization

  009ce	81 fa 00 10 00
	00		 cmp	 edx, 4096		; 00001000H
  009d4	72 14		 jb	 SHORT $LN658@LoadMonste

; 158  :     const uintptr_t _Ptr_container   = _Ptr_user[-1];

  009d6	8b 49 fc	 mov	 ecx, DWORD PTR [ecx-4]
  009d9	83 c2 23	 add	 edx, 35			; 00000023H
  009dc	2b c1		 sub	 eax, ecx

; 172  :     _STL_VERIFY(_Back_shift >= _Min_back_shift && _Back_shift <= _Non_user_size, "invalid argument");

  009de	83 c0 fc	 add	 eax, -4			; fffffffcH
  009e1	83 f8 1f	 cmp	 eax, 31			; 0000001fH
  009e4	0f 87 91 01 00
	00		 ja	 $LN750@LoadMonste
$LN658@LoadMonste:

; 264  :         ::operator delete(_Ptr, _Bytes);

  009ea	52		 push	 edx
  009eb	51		 push	 ecx
  009ec	e8 00 00 00 00	 call	 ??3@YAXPAXI@Z		; operator delete
  009f1	83 c4 08	 add	 esp, 8
$LN648@LoadMonste:
; File C:\Program Files (x86)\Microsoft Visual Studio\2019\Professional\VC\Tools\MSVC\14.29.30133\include\xstring

; 2319 :         return _BUF_SIZE <= _Myres;

  009f4	8b 95 14 fe ff
	ff		 mov	 edx, DWORD PTR _$S3$2[ebp+20]

; 4633 :             _Mypair._Myval2._Mysize = 0;

  009fa	c7 85 28 fe ff
	ff 00 00 00 00	 mov	 DWORD PTR _$S4$3[ebp+16], 0

; 4634 :             _Mypair._Myval2._Myres  = _BUF_SIZE - 1;

  00a04	c7 85 2c fe ff
	ff 0f 00 00 00	 mov	 DWORD PTR _$S4$3[ebp+20], 15 ; 0000000fH

; 4635 :             // the _Traits::assign is last so the codegen doesn't think the char write can alias this
; 4636 :             _Traits::assign(_Mypair._Myval2._Bx._Buf[0], _Elem());

  00a0e	c6 85 18 fe ff
	ff 00		 mov	 BYTE PTR _$S4$3[ebp], 0
; File C:\Users\murat\Desktop\Siveps2-1-99-Project\source\client\Client\GameLib\MapOutdoorLoad.cpp

; 544  : 		}

  00a15	c6 45 fc 02	 mov	 BYTE PTR __$EHRec$[ebp+8], 2
; File C:\Program Files (x86)\Microsoft Visual Studio\2019\Professional\VC\Tools\MSVC\14.29.30133\include\xstring

; 2319 :         return _BUF_SIZE <= _Myres;

  00a19	83 fa 10	 cmp	 edx, 16			; 00000010H

; 4618 :         if (_Mypair._Myval2._Large_string_engaged()) {

  00a1c	72 3e		 jb	 SHORT $LN2@LoadMonste
; File C:\Program Files (x86)\Microsoft Visual Studio\2019\Professional\VC\Tools\MSVC\14.29.30133\include\xmemory

; 835  :         _Deallocate<_New_alignof<_Ty>>(_Ptr, sizeof(_Ty) * _Count);

  00a1e	8b 8d 00 fe ff
	ff		 mov	 ecx, DWORD PTR _$S3$2[ebp]
; File C:\Program Files (x86)\Microsoft Visual Studio\2019\Professional\VC\Tools\MSVC\14.29.30133\include\xstring

; 4622 :             _Al.deallocate(_Ptr, _Mypair._Myval2._Myres + 1);

  00a24	42		 inc	 edx
; File C:\Program Files (x86)\Microsoft Visual Studio\2019\Professional\VC\Tools\MSVC\14.29.30133\include\xmemory

; 835  :         _Deallocate<_New_alignof<_Ty>>(_Ptr, sizeof(_Ty) * _Count);

  00a25	8b c1		 mov	 eax, ecx

; 260  :         if (_Bytes >= _Big_allocation_threshold) { // boost the alignment of big allocations to help autovectorization

  00a27	81 fa 00 10 00
	00		 cmp	 edx, 4096		; 00001000H
  00a2d	72 14		 jb	 SHORT $LN685@LoadMonste

; 158  :     const uintptr_t _Ptr_container   = _Ptr_user[-1];

  00a2f	8b 49 fc	 mov	 ecx, DWORD PTR [ecx-4]
  00a32	83 c2 23	 add	 edx, 35			; 00000023H
  00a35	2b c1		 sub	 eax, ecx

; 172  :     _STL_VERIFY(_Back_shift >= _Min_back_shift && _Back_shift <= _Non_user_size, "invalid argument");

  00a37	83 c0 fc	 add	 eax, -4			; fffffffcH
  00a3a	83 f8 1f	 cmp	 eax, 31			; 0000001fH
  00a3d	0f 87 38 01 00
	00		 ja	 $LN750@LoadMonste
$LN685@LoadMonste:

; 264  :         ::operator delete(_Ptr, _Bytes);

  00a43	52		 push	 edx
  00a44	51		 push	 ecx
  00a45	e8 00 00 00 00	 call	 ??3@YAXPAXI@Z		; operator delete
  00a4a	83 c4 08	 add	 esp, 8
; File C:\Users\murat\Desktop\Siveps2-1-99-Project\source\client\Client\GameLib\MapOutdoorLoad.cpp

; 545  : 	}

  00a4d	eb 0d		 jmp	 SHORT $LN2@LoadMonste
$LN12@LoadMonste:

; 499  : 			}
; 500  : 			else
; 501  : 			{
; 502  : 				TraceError("CMapOutdoorAccessor::LoadMonsterAreaInfo Get MonsterInfo Data ERROR! continue....");

  00a4f	68 00 00 00 00	 push	 OFFSET ??_C@_0FC@JEHNDEBI@CMapOutdoorAccessor?3?3LoadMonste@
$LN778@LoadMonste:

; 474  : 
; 475  : 	for (DWORD i = 0; i < textFileLoader.GetLineCount(); ++i)

  00a54	e8 00 00 00 00	 call	 ?TraceError@@YAXPBDZZ	; TraceError
  00a59	83 c4 04	 add	 esp, 4
$LN2@LoadMonste:
  00a5c	ff 85 ac fc ff
	ff		 inc	 DWORD PTR _i$1$[ebp]
  00a62	8d 8d 80 fc ff
	ff		 lea	 ecx, DWORD PTR _textFileLoader$[ebp]
  00a68	e8 00 00 00 00	 call	 ?GetLineCount@CMemoryTextFileLoader@@QAEKXZ ; CMemoryTextFileLoader::GetLineCount
  00a6d	8b b5 ac fc ff
	ff		 mov	 esi, DWORD PTR _i$1$[ebp]
  00a73	3b f0		 cmp	 esi, eax
  00a75	0f 82 95 f6 ff
	ff		 jb	 $LL4@LoadMonste
$LN765@LoadMonste:
; File C:\Program Files (x86)\Microsoft Visual Studio\2019\Professional\VC\Tools\MSVC\14.29.30133\include\vector

; 1763 :         if (_Myfirst) { // destroy and deallocate old array

  00a7b	8b b5 b0 fc ff
	ff		 mov	 esi, DWORD PTR _stTokenVector$[ebp]
; File C:\Users\murat\Desktop\Siveps2-1-99-Project\source\client\Client\GameLib\MapOutdoorLoad.cpp

; 547  : 	return true;

  00a81	b3 01		 mov	 bl, 1
; File C:\Program Files (x86)\Microsoft Visual Studio\2019\Professional\VC\Tools\MSVC\14.29.30133\include\vector

; 1763 :         if (_Myfirst) { // destroy and deallocate old array

  00a83	85 f6		 test	 esi, esi
  00a85	0f 84 bc 00 00
	00		 je	 $LN693@LoadMonste

; 1764 :             _Destroy(_Myfirst, _Mylast);

  00a8b	8b bd b4 fc ff
	ff		 mov	 edi, DWORD PTR _stTokenVector$[ebp+4]

; 1680 :         _Destroy_range(_First, _Last, _Getal());

  00a91	3b f7		 cmp	 esi, edi
; File C:\Program Files (x86)\Microsoft Visual Studio\2019\Professional\VC\Tools\MSVC\14.29.30133\include\xmemory

; 949  :         for (; _First != _Last; ++_First) {

  00a93	74 51		 je	 SHORT $LN699@LoadMonste
$LL700@LoadMonste:
; File C:\Program Files (x86)\Microsoft Visual Studio\2019\Professional\VC\Tools\MSVC\14.29.30133\include\xstring

; 2319 :         return _BUF_SIZE <= _Myres;

  00a95	8b 4e 14	 mov	 ecx, DWORD PTR [esi+20]
  00a98	83 f9 10	 cmp	 ecx, 16			; 00000010H

; 4618 :         if (_Mypair._Myval2._Large_string_engaged()) {

  00a9b	72 2b		 jb	 SHORT $LN719@LoadMonste
; File C:\Program Files (x86)\Microsoft Visual Studio\2019\Professional\VC\Tools\MSVC\14.29.30133\include\xmemory

; 835  :         _Deallocate<_New_alignof<_Ty>>(_Ptr, sizeof(_Ty) * _Count);

  00a9d	8b 06		 mov	 eax, DWORD PTR [esi]
; File C:\Program Files (x86)\Microsoft Visual Studio\2019\Professional\VC\Tools\MSVC\14.29.30133\include\xstring

; 4622 :             _Al.deallocate(_Ptr, _Mypair._Myval2._Myres + 1);

  00a9f	41		 inc	 ecx
; File C:\Program Files (x86)\Microsoft Visual Studio\2019\Professional\VC\Tools\MSVC\14.29.30133\include\xmemory

; 260  :         if (_Bytes >= _Big_allocation_threshold) { // boost the alignment of big allocations to help autovectorization

  00aa0	81 f9 00 10 00
	00		 cmp	 ecx, 4096		; 00001000H
  00aa6	72 16		 jb	 SHORT $LN729@LoadMonste

; 158  :     const uintptr_t _Ptr_container   = _Ptr_user[-1];

  00aa8	8b 50 fc	 mov	 edx, DWORD PTR [eax-4]
  00aab	83 c1 23	 add	 ecx, 35			; 00000023H

; 159  : 
; 160  :     // If the following asserts, it likely means that we are performing
; 161  :     // an aligned delete on memory coming from an unaligned allocation.
; 162  :     _STL_ASSERT(_Ptr_user[-2] == _Big_allocation_sentinel, "invalid argument");
; 163  : 
; 164  :     // Extra paranoia on aligned allocation/deallocation; ensure _Ptr_container is
; 165  :     // in range [_Min_back_shift, _Non_user_size]
; 166  : #ifdef _DEBUG
; 167  :     constexpr uintptr_t _Min_back_shift = 2 * sizeof(void*);
; 168  : #else // ^^^ _DEBUG ^^^ // vvv !_DEBUG vvv
; 169  :     constexpr uintptr_t _Min_back_shift = sizeof(void*);
; 170  : #endif // _DEBUG
; 171  :     const uintptr_t _Back_shift = reinterpret_cast<uintptr_t>(_Ptr) - _Ptr_container;

  00aae	2b c2		 sub	 eax, edx

; 172  :     _STL_VERIFY(_Back_shift >= _Min_back_shift && _Back_shift <= _Non_user_size, "invalid argument");

  00ab0	83 c0 fc	 add	 eax, -4			; fffffffcH
  00ab3	83 f8 1f	 cmp	 eax, 31			; 0000001fH
  00ab6	0f 87 bf 00 00
	00		 ja	 $LN750@LoadMonste

; 173  :     _Ptr = reinterpret_cast<void*>(_Ptr_container);

  00abc	8b c2		 mov	 eax, edx
$LN729@LoadMonste:

; 264  :         ::operator delete(_Ptr, _Bytes);

  00abe	51		 push	 ecx
  00abf	50		 push	 eax
  00ac0	e8 00 00 00 00	 call	 ??3@YAXPAXI@Z		; operator delete
  00ac5	83 c4 08	 add	 esp, 8
$LN719@LoadMonste:
; File C:\Program Files (x86)\Microsoft Visual Studio\2019\Professional\VC\Tools\MSVC\14.29.30133\include\xstring

; 4633 :             _Mypair._Myval2._Mysize = 0;

  00ac8	c7 46 10 00 00
	00 00		 mov	 DWORD PTR [esi+16], 0

; 4634 :             _Mypair._Myval2._Myres  = _BUF_SIZE - 1;

  00acf	c7 46 14 0f 00
	00 00		 mov	 DWORD PTR [esi+20], 15	; 0000000fH

; 4635 :             // the _Traits::assign is last so the codegen doesn't think the char write can alias this
; 4636 :             _Traits::assign(_Mypair._Myval2._Bx._Buf[0], _Elem());

  00ad6	c6 06 00	 mov	 BYTE PTR [esi], 0
; File C:\Program Files (x86)\Microsoft Visual Studio\2019\Professional\VC\Tools\MSVC\14.29.30133\include\xmemory

; 949  :         for (; _First != _Last; ++_First) {

  00ad9	83 c6 18	 add	 esi, 24			; 00000018H
  00adc	3b f7		 cmp	 esi, edi
  00ade	75 b5		 jne	 SHORT $LL700@LoadMonste
  00ae0	8b b5 b0 fc ff
	ff		 mov	 esi, DWORD PTR _stTokenVector$[ebp]
$LN699@LoadMonste:
; File C:\Program Files (x86)\Microsoft Visual Studio\2019\Professional\VC\Tools\MSVC\14.29.30133\include\vector

; 1765 :             _Getal().deallocate(_Myfirst, static_cast<size_type>(_Myend - _Myfirst));

  00ae6	8b 8d b8 fc ff
	ff		 mov	 ecx, DWORD PTR _stTokenVector$[ebp+8]
  00aec	b8 ab aa aa 2a	 mov	 eax, 715827883		; 2aaaaaabH
  00af1	2b ce		 sub	 ecx, esi
  00af3	f7 e9		 imul	 ecx
  00af5	c1 fa 02	 sar	 edx, 2
  00af8	8b c2		 mov	 eax, edx
  00afa	c1 e8 1f	 shr	 eax, 31			; 0000001fH
  00afd	03 c2		 add	 eax, edx
; File C:\Program Files (x86)\Microsoft Visual Studio\2019\Professional\VC\Tools\MSVC\14.29.30133\include\xmemory

; 835  :         _Deallocate<_New_alignof<_Ty>>(_Ptr, sizeof(_Ty) * _Count);

  00aff	8d 0c 40	 lea	 ecx, DWORD PTR [eax+eax*2]
  00b02	8b c6		 mov	 eax, esi
  00b04	c1 e1 03	 shl	 ecx, 3

; 260  :         if (_Bytes >= _Big_allocation_threshold) { // boost the alignment of big allocations to help autovectorization

  00b07	81 f9 00 10 00
	00		 cmp	 ecx, 4096		; 00001000H
  00b0d	72 10		 jb	 SHORT $LN753@LoadMonste

; 158  :     const uintptr_t _Ptr_container   = _Ptr_user[-1];

  00b0f	8b 76 fc	 mov	 esi, DWORD PTR [esi-4]
  00b12	83 c1 23	 add	 ecx, 35			; 00000023H
  00b15	2b c6		 sub	 eax, esi

; 172  :     _STL_VERIFY(_Back_shift >= _Min_back_shift && _Back_shift <= _Non_user_size, "invalid argument");

  00b17	83 c0 fc	 add	 eax, -4			; fffffffcH
  00b1a	83 f8 1f	 cmp	 eax, 31			; 0000001fH
  00b1d	77 5c		 ja	 SHORT $LN750@LoadMonste
$LN753@LoadMonste:

; 264  :         ::operator delete(_Ptr, _Bytes);

  00b1f	51		 push	 ecx
  00b20	56		 push	 esi
  00b21	e8 00 00 00 00	 call	 ??3@YAXPAXI@Z		; operator delete
  00b26	83 c4 08	 add	 esp, 8
; File C:\Program Files (x86)\Microsoft Visual Studio\2019\Professional\VC\Tools\MSVC\14.29.30133\include\vector

; 1767 :             _Myfirst = nullptr;

  00b29	c7 85 b0 fc ff
	ff 00 00 00 00	 mov	 DWORD PTR _stTokenVector$[ebp], 0

; 1768 :             _Mylast  = nullptr;

  00b33	c7 85 b4 fc ff
	ff 00 00 00 00	 mov	 DWORD PTR _stTokenVector$[ebp+4], 0

; 1769 :             _Myend   = nullptr;

  00b3d	c7 85 b8 fc ff
	ff 00 00 00 00	 mov	 DWORD PTR _stTokenVector$[ebp+8], 0
$LN693@LoadMonste:
; File C:\Users\murat\Desktop\Siveps2-1-99-Project\source\client\Client\GameLib\MapOutdoorLoad.cpp

; 547  : 	return true;

  00b47	8d 8d 80 fc ff
	ff		 lea	 ecx, DWORD PTR _textFileLoader$[ebp]
  00b4d	e8 00 00 00 00	 call	 ??1CMemoryTextFileLoader@@UAE@XZ ; CMemoryTextFileLoader::~CMemoryTextFileLoader
$LN31@LoadMonste:
  00b52	8d 8d bc fc ff
	ff		 lea	 ecx, DWORD PTR _File$[ebp]
  00b58	e8 00 00 00 00	 call	 ??1CMappedFile@@UAE@XZ	; CMappedFile::~CMappedFile
  00b5d	8a c3		 mov	 al, bl

; 548  : }

  00b5f	8b 4d f4	 mov	 ecx, DWORD PTR __$EHRec$[ebp]
  00b62	64 89 0d 00 00
	00 00		 mov	 DWORD PTR fs:0, ecx
  00b69	59		 pop	 ecx
  00b6a	5f		 pop	 edi
  00b6b	5e		 pop	 esi
  00b6c	5b		 pop	 ebx
  00b6d	8b 4d f0	 mov	 ecx, DWORD PTR __$ArrayPad$[ebp]
  00b70	33 cd		 xor	 ecx, ebp
  00b72	e8 00 00 00 00	 call	 @__security_check_cookie@4
  00b77	8b e5		 mov	 esp, ebp
  00b79	5d		 pop	 ebp
  00b7a	c3		 ret	 0
$LN750@LoadMonste:
  00b7b	e8 00 00 00 00	 call	 __invalid_parameter_noinfo_noreturn
$LN777@LoadMonste:
  00b80	cc		 int	 3
_TEXT	ENDS
;	COMDAT text$x
text$x	SEGMENT
__unwindfunclet$?LoadMonsterAreaInfo@CMapOutdoor@@QAE_NXZ$0:
  00000	8d 8d bc fc ff
	ff		 lea	 ecx, DWORD PTR _File$[ebp]
  00006	e9 00 00 00 00	 jmp	 ??1CMappedFile@@UAE@XZ	; CMappedFile::~CMappedFile
__unwindfunclet$?LoadMonsterAreaInfo@CMapOutdoor@@QAE_NXZ$1:
  0000b	8d 8d 80 fc ff
	ff		 lea	 ecx, DWORD PTR _textFileLoader$[ebp]
  00011	e9 00 00 00 00	 jmp	 ??1CMemoryTextFileLoader@@UAE@XZ ; CMemoryTextFileLoader::~CMemoryTextFileLoader
__unwindfunclet$?LoadMonsterAreaInfo@CMapOutdoor@@QAE_NXZ$2:
  00016	8d 8d b0 fc ff
	ff		 lea	 ecx, DWORD PTR _stTokenVector$[ebp]
  0001c	e9 00 00 00 00	 jmp	 ??1?$vector@V?$basic_string@DU?$char_traits@D@std@@V?$allocator@D@2@@std@@V?$allocator@V?$basic_string@DU?$char_traits@D@std@@V?$allocator@D@2@@std@@@2@@std@@QAE@XZ ; std::vector<std::basic_string<char,std::char_traits<char>,std::allocator<char> >,std::allocator<std::basic_string<char,std::char_traits<char>,std::allocator<char> > > >::~vector<std::basic_string<char,std::char_traits<char>,std::allocator<char> >,std::allocator<std::basic_string<char,std::char_traits<char>,std::allocator<char> > > >
__unwindfunclet$?LoadMonsterAreaInfo@CMapOutdoor@@QAE_NXZ$3:
  00021	8d 8d 00 fe ff
	ff		 lea	 ecx, DWORD PTR _$S3$2[ebp]
  00027	e9 00 00 00 00	 jmp	 ??1?$basic_string@DU?$char_traits@D@std@@V?$allocator@D@2@@std@@QAE@XZ ; std::basic_string<char,std::char_traits<char>,std::allocator<char> >::~basic_string<char,std::char_traits<char>,std::allocator<char> >
__unwindfunclet$?LoadMonsterAreaInfo@CMapOutdoor@@QAE_NXZ$4:
  0002c	8d 8d 18 fe ff
	ff		 lea	 ecx, DWORD PTR _$S4$3[ebp]
  00032	e9 00 00 00 00	 jmp	 ??1?$basic_string@DU?$char_traits@D@std@@V?$allocator@D@2@@std@@QAE@XZ ; std::basic_string<char,std::char_traits<char>,std::allocator<char> >::~basic_string<char,std::char_traits<char>,std::allocator<char> >
__unwindfunclet$?LoadMonsterAreaInfo@CMapOutdoor@@QAE_NXZ$5:
  00037	8d 8d 30 fe ff
	ff		 lea	 ecx, DWORD PTR _$S5$4[ebp]
  0003d	e9 00 00 00 00	 jmp	 ??1?$basic_string@DU?$char_traits@D@std@@V?$allocator@D@2@@std@@QAE@XZ ; std::basic_string<char,std::char_traits<char>,std::allocator<char> >::~basic_string<char,std::char_traits<char>,std::allocator<char> >
__unwindfunclet$?LoadMonsterAreaInfo@CMapOutdoor@@QAE_NXZ$6:
  00042	8d 8d 48 fe ff
	ff		 lea	 ecx, DWORD PTR _$S6$5[ebp]
  00048	e9 00 00 00 00	 jmp	 ??1?$basic_string@DU?$char_traits@D@std@@V?$allocator@D@2@@std@@QAE@XZ ; std::basic_string<char,std::char_traits<char>,std::allocator<char> >::~basic_string<char,std::char_traits<char>,std::allocator<char> >
__unwindfunclet$?LoadMonsterAreaInfo@CMapOutdoor@@QAE_NXZ$7:
  0004d	8d 8d 60 fe ff
	ff		 lea	 ecx, DWORD PTR _$S7$6[ebp]
  00053	e9 00 00 00 00	 jmp	 ??1?$basic_string@DU?$char_traits@D@std@@V?$allocator@D@2@@std@@QAE@XZ ; std::basic_string<char,std::char_traits<char>,std::allocator<char> >::~basic_string<char,std::char_traits<char>,std::allocator<char> >
__unwindfunclet$?LoadMonsterAreaInfo@CMapOutdoor@@QAE_NXZ$8:
  00058	8d 8d 78 fe ff
	ff		 lea	 ecx, DWORD PTR _$S8$7[ebp]
  0005e	e9 00 00 00 00	 jmp	 ??1?$basic_string@DU?$char_traits@D@std@@V?$allocator@D@2@@std@@QAE@XZ ; std::basic_string<char,std::char_traits<char>,std::allocator<char> >::~basic_string<char,std::char_traits<char>,std::allocator<char> >
__unwindfunclet$?LoadMonsterAreaInfo@CMapOutdoor@@QAE_NXZ$9:
  00063	8d 8d 90 fe ff
	ff		 lea	 ecx, DWORD PTR _$S9$8[ebp]
  00069	e9 00 00 00 00	 jmp	 ??1?$basic_string@DU?$char_traits@D@std@@V?$allocator@D@2@@std@@QAE@XZ ; std::basic_string<char,std::char_traits<char>,std::allocator<char> >::~basic_string<char,std::char_traits<char>,std::allocator<char> >
__unwindfunclet$?LoadMonsterAreaInfo@CMapOutdoor@@QAE_NXZ$10:
  0006e	8d 8d a8 fe ff
	ff		 lea	 ecx, DWORD PTR _$S10$9[ebp]
  00074	e9 00 00 00 00	 jmp	 ??1?$basic_string@DU?$char_traits@D@std@@V?$allocator@D@2@@std@@QAE@XZ ; std::basic_string<char,std::char_traits<char>,std::allocator<char> >::~basic_string<char,std::char_traits<char>,std::allocator<char> >
__unwindfunclet$?LoadMonsterAreaInfo@CMapOutdoor@@QAE_NXZ$11:
  00079	8d 8d c0 fe ff
	ff		 lea	 ecx, DWORD PTR _$S11$10[ebp]
  0007f	e9 00 00 00 00	 jmp	 ??1?$basic_string@DU?$char_traits@D@std@@V?$allocator@D@2@@std@@QAE@XZ ; std::basic_string<char,std::char_traits<char>,std::allocator<char> >::~basic_string<char,std::char_traits<char>,std::allocator<char> >
__unwindfunclet$?LoadMonsterAreaInfo@CMapOutdoor@@QAE_NXZ$12:
  00084	8d 8d d8 fe ff
	ff		 lea	 ecx, DWORD PTR _$S12$11[ebp]
  0008a	e9 00 00 00 00	 jmp	 ??1?$basic_string@DU?$char_traits@D@std@@V?$allocator@D@2@@std@@QAE@XZ ; std::basic_string<char,std::char_traits<char>,std::allocator<char> >::~basic_string<char,std::char_traits<char>,std::allocator<char> >
  0008f	cc		 int	 3
  00090	cc		 int	 3
  00091	cc		 int	 3
  00092	cc		 int	 3
  00093	cc		 int	 3
__ehhandler$?LoadMonsterAreaInfo@CMapOutdoor@@QAE_NXZ:
  00094	90		 npad	 1
  00095	90		 npad	 1
  00096	8b 54 24 08	 mov	 edx, DWORD PTR [esp+8]
  0009a	8d 42 0c	 lea	 eax, DWORD PTR [edx+12]
  0009d	8b 8a 7c fc ff
	ff		 mov	 ecx, DWORD PTR [edx-900]
  000a3	33 c8		 xor	 ecx, eax
  000a5	e8 00 00 00 00	 call	 @__security_check_cookie@4
  000aa	8b 4a fc	 mov	 ecx, DWORD PTR [edx-4]
  000ad	33 c8		 xor	 ecx, eax
  000af	e8 00 00 00 00	 call	 @__security_check_cookie@4
  000b4	b8 00 00 00 00	 mov	 eax, OFFSET __ehfuncinfo$?LoadMonsterAreaInfo@CMapOutdoor@@QAE_NXZ
  000b9	e9 00 00 00 00	 jmp	 ___CxxFrameHandler3
text$x	ENDS
?LoadMonsterAreaInfo@CMapOutdoor@@QAE_NXZ ENDP		; CMapOutdoor::LoadMonsterAreaInfo
; Function compile flags: /Ogtp
; File C:\Program Files (x86)\Microsoft Visual Studio\2019\Professional\VC\Tools\MSVC\14.29.30133\include\vector
;	COMDAT ?_Xlength@?$vector@PAVCArea@@V?$allocator@PAVCArea@@@std@@@std@@CAXXZ
_TEXT	SEGMENT
?_Xlength@?$vector@PAVCArea@@V?$allocator@PAVCArea@@@std@@@std@@CAXXZ PROC ; std::vector<CArea *,std::allocator<CArea *> >::_Xlength, COMDAT

; 1774 :         _Xlength_error("vector too long");

  00000	68 00 00 00 00	 push	 OFFSET ??_C@_0BA@FOIKENOD@vector?5too?5long@
  00005	e8 00 00 00 00	 call	 ?_Xlength_error@std@@YAXPBD@Z ; std::_Xlength_error
$LN3@Xlength:
  0000a	cc		 int	 3
?_Xlength@?$vector@PAVCArea@@V?$allocator@PAVCArea@@@std@@@std@@CAXXZ ENDP ; std::vector<CArea *,std::allocator<CArea *> >::_Xlength
_TEXT	ENDS
; Function compile flags: /Ogtp
; File C:\Program Files (x86)\Microsoft Visual Studio\2019\Professional\VC\Tools\MSVC\14.29.30133\include\vector
;	COMDAT ?_Xlength@?$vector@PAVCTerrain@@V?$allocator@PAVCTerrain@@@std@@@std@@CAXXZ
_TEXT	SEGMENT
?_Xlength@?$vector@PAVCTerrain@@V?$allocator@PAVCTerrain@@@std@@@std@@CAXXZ PROC ; std::vector<CTerrain *,std::allocator<CTerrain *> >::_Xlength, COMDAT

; 1774 :         _Xlength_error("vector too long");

  00000	68 00 00 00 00	 push	 OFFSET ??_C@_0BA@FOIKENOD@vector?5too?5long@
  00005	e8 00 00 00 00	 call	 ?_Xlength_error@std@@YAXPBD@Z ; std::_Xlength_error
$LN3@Xlength:
  0000a	cc		 int	 3
?_Xlength@?$vector@PAVCTerrain@@V?$allocator@PAVCTerrain@@@std@@@std@@CAXXZ ENDP ; std::vector<CTerrain *,std::allocator<CTerrain *> >::_Xlength
_TEXT	ENDS
; Function compile flags: /Ogtp
; File C:\Users\murat\Desktop\Siveps2-1-99-Project\source\client\Client\GameLib\MapOutdoorLoad.cpp
; File C:\Program Files (x86)\Microsoft Visual Studio\2019\Professional\VC\Tools\MSVC\14.29.30133\include\vector
; File C:\Users\murat\Desktop\Siveps2-1-99-Project\source\client\Client\GameLib\MapOutdoorLoad.cpp
; File C:\Users\murat\Desktop\Siveps2-1-99-Project\source\client\Client\GameLib\AreaTerrain.h
; File C:\Users\murat\Desktop\Siveps2-1-99-Project\source\client\Client\GameLib\MapOutdoorLoad.cpp
; File C:\Program Files (x86)\Microsoft Visual Studio\2019\Professional\VC\Tools\MSVC\14.29.30133\include\vector
; File C:\Users\murat\Desktop\Siveps2-1-99-Project\source\client\Client\GameLib\MapOutdoorLoad.cpp
; File C:\Program Files (x86)\Microsoft Visual Studio\2019\Professional\VC\Tools\MSVC\14.29.30133\include\vector
; File C:\Users\murat\Desktop\Siveps2-1-99-Project\source\client\Client\GameLib\MapOutdoorLoad.cpp
; File C:\Program Files (x86)\Microsoft Visual Studio\2019\Professional\VC\Tools\MSVC\14.29.30133\include\vector
; File C:\Users\murat\Desktop\Siveps2-1-99-Project\source\client\Client\GameLib\MapOutdoorLoad.cpp
; File C:\Program Files (x86)\Microsoft Visual Studio\2019\Professional\VC\Tools\MSVC\14.29.30133\include\vector
; File C:\Users\murat\Desktop\Siveps2-1-99-Project\source\client\Client\GameLib\MapOutdoorLoad.cpp
; File C:\Program Files (x86)\Microsoft Visual Studio\2019\Professional\VC\Tools\MSVC\14.29.30133\include\vector
; File C:\Users\murat\Desktop\Siveps2-1-99-Project\source\client\Client\GameLib\MapOutdoorLoad.cpp
; File C:\Program Files (x86)\Microsoft Visual Studio\2019\Professional\VC\Tools\MSVC\14.29.30133\include\vector
; File C:\Users\murat\Desktop\Siveps2-1-99-Project\source\client\Client\GameLib\MapOutdoorLoad.cpp
;	COMDAT ?AssignTerrainPtr@CMapOutdoor@@IAEXXZ
_TEXT	SEGMENT
tv1297 = -24						; size = 4
tv1300 = -20						; size = 4
tv1301 = -16						; size = 4
tv1304 = -12						; size = 4
_usCoordY$1 = -8					; size = 2
_usCoordX$2 = -4					; size = 2
?AssignTerrainPtr@CMapOutdoor@@IAEXXZ PROC		; CMapOutdoor::AssignTerrainPtr, COMDAT
; _this$ = ecx

; 111  : {

  00000	55		 push	 ebp
  00001	8b ec		 mov	 ebp, esp
  00003	83 ec 18	 sub	 esp, 24			; 00000018H
  00006	53		 push	 ebx
  00007	56		 push	 esi
  00008	8b f1		 mov	 esi, ecx
  0000a	57		 push	 edi

; 112  : 	//        
; 113  : 	//   virtual method  .   CMapOutDoor  
; 114  : 	//  .
; 115  : 	OnPreAssignTerrainPtr();

  0000b	8b 06		 mov	 eax, DWORD PTR [esi]
  0000d	ff 50 34	 call	 DWORD PTR [eax+52]

; 116  : 
; 117  : 	short sReferenceCoordMinX, sReferenceCoordMaxX, sReferenceCoordMinY, sReferenceCoordMaxY;
; 118  : 	sReferenceCoordMinX = max(m_CurCoordinate.m_sTerrainCoordX - LOAD_SIZE_WIDTH, 0);

  00010	0f b7 56 74	 movzx	 edx, WORD PTR [esi+116]

; 119  : 	sReferenceCoordMaxX = min(m_CurCoordinate.m_sTerrainCoordX + LOAD_SIZE_WIDTH, m_sTerrainCountX - 1);

  00014	33 c9		 xor	 ecx, ecx
  00016	0f bf fa	 movsx	 edi, dx
  00019	83 ff 01	 cmp	 edi, 1
  0001c	8d 42 ff	 lea	 eax, DWORD PTR [edx-1]
  0001f	0f b7 c0	 movzx	 eax, ax
  00022	0f 4e c1	 cmovle	 eax, ecx
  00025	0f b7 4e 70	 movzx	 ecx, WORD PTR [esi+112]
  00029	0f b7 c0	 movzx	 eax, ax
  0002c	47		 inc	 edi
  0002d	89 45 f4	 mov	 DWORD PTR tv1304[ebp], eax

; 120  : 	sReferenceCoordMinY = max(m_CurCoordinate.m_sTerrainCoordY - LOAD_SIZE_WIDTH, 0);

  00030	8d 42 01	 lea	 eax, DWORD PTR [edx+1]
  00033	0f b7 d0	 movzx	 edx, ax
  00036	0f bf d9	 movsx	 ebx, cx
  00039	49		 dec	 ecx
  0003a	4b		 dec	 ebx
  0003b	0f b7 c1	 movzx	 eax, cx
  0003e	3b fb		 cmp	 edi, ebx
  00040	0f 4d d0	 cmovge	 edx, eax

; 121  : 	sReferenceCoordMaxY = min(m_CurCoordinate.m_sTerrainCoordY + LOAD_SIZE_WIDTH, m_sTerrainCountY - 1);

  00043	33 c9		 xor	 ecx, ecx
  00045	0f b7 c2	 movzx	 eax, dx
  00048	0f b7 56 76	 movzx	 edx, WORD PTR [esi+118]
  0004c	89 45 f0	 mov	 DWORD PTR tv1301[ebp], eax
  0004f	0f bf fa	 movsx	 edi, dx
  00052	83 ff 01	 cmp	 edi, 1
  00055	8d 42 ff	 lea	 eax, DWORD PTR [edx-1]
  00058	0f b7 c0	 movzx	 eax, ax
  0005b	0f 4e c1	 cmovle	 eax, ecx
  0005e	0f b7 4e 72	 movzx	 ecx, WORD PTR [esi+114]
  00062	0f b7 c0	 movzx	 eax, ax
  00065	47		 inc	 edi
  00066	89 45 ec	 mov	 DWORD PTR tv1300[ebp], eax

; 122  : 
; 123  : 	DWORD i;
; 124  : 	for (i = 0; i < AROUND_AREA_NUM; ++i)

  00069	8d 42 01	 lea	 eax, DWORD PTR [edx+1]
  0006c	0f bf d9	 movsx	 ebx, cx
  0006f	49		 dec	 ecx
  00070	0f b7 d0	 movzx	 edx, ax
  00073	4b		 dec	 ebx
  00074	0f b7 c1	 movzx	 eax, cx
  00077	3b fb		 cmp	 edi, ebx

; 125  : 	{
; 126  : 		m_pArea[i] = NULL;

  00079	c7 86 e0 00 00
	00 00 00 00 00	 mov	 DWORD PTR [esi+224], 0
  00083	0f 4d d0	 cmovge	 edx, eax

; 127  : 		m_pTerrain[i] = NULL;

  00086	c7 46 40 00 00
	00 00		 mov	 DWORD PTR [esi+64], 0
  0008d	0f b7 c2	 movzx	 eax, dx

; 130  : 	for (i = 0; i < m_TerrainVector.size(); ++i)

  00090	33 d2		 xor	 edx, edx
  00092	89 45 e8	 mov	 DWORD PTR tv1297[ebp], eax
  00095	c7 86 e4 00 00
	00 00 00 00 00	 mov	 DWORD PTR [esi+228], 0
  0009f	c7 46 44 00 00
	00 00		 mov	 DWORD PTR [esi+68], 0
  000a6	c7 86 e8 00 00
	00 00 00 00 00	 mov	 DWORD PTR [esi+232], 0
  000b0	c7 46 48 00 00
	00 00		 mov	 DWORD PTR [esi+72], 0
  000b7	c7 86 ec 00 00
	00 00 00 00 00	 mov	 DWORD PTR [esi+236], 0
  000c1	c7 46 4c 00 00
	00 00		 mov	 DWORD PTR [esi+76], 0
  000c8	c7 86 f0 00 00
	00 00 00 00 00	 mov	 DWORD PTR [esi+240], 0
  000d2	c7 46 50 00 00
	00 00		 mov	 DWORD PTR [esi+80], 0
  000d9	c7 86 f4 00 00
	00 00 00 00 00	 mov	 DWORD PTR [esi+244], 0
  000e3	c7 46 54 00 00
	00 00		 mov	 DWORD PTR [esi+84], 0
  000ea	c7 86 f8 00 00
	00 00 00 00 00	 mov	 DWORD PTR [esi+248], 0
  000f4	c7 46 58 00 00
	00 00		 mov	 DWORD PTR [esi+88], 0
  000fb	c7 86 fc 00 00
	00 00 00 00 00	 mov	 DWORD PTR [esi+252], 0
  00105	c7 46 5c 00 00
	00 00		 mov	 DWORD PTR [esi+92], 0
  0010c	c7 86 00 01 00
	00 00 00 00 00	 mov	 DWORD PTR [esi+256], 0
  00116	c7 46 60 00 00
	00 00		 mov	 DWORD PTR [esi+96], 0
; File C:\Program Files (x86)\Microsoft Visual Studio\2019\Professional\VC\Tools\MSVC\14.29.30133\include\vector

; 1549 :         return static_cast<size_type>(_My_data._Mylast - _My_data._Myfirst);

  0011d	8b 86 1c 09 00
	00		 mov	 eax, DWORD PTR [esi+2332]
  00123	8b 8e 18 09 00
	00		 mov	 ecx, DWORD PTR [esi+2328]
  00129	2b c1		 sub	 eax, ecx
  0012b	c1 f8 02	 sar	 eax, 2
; File C:\Users\murat\Desktop\Siveps2-1-99-Project\source\client\Client\GameLib\MapOutdoorLoad.cpp

; 130  : 	for (i = 0; i < m_TerrainVector.size(); ++i)

  0012e	85 c0		 test	 eax, eax
  00130	74 5e		 je	 SHORT $LN51@AssignTerr
$LL7@AssignTerr:

; 131  : 	{
; 132  : 		CTerrain * pTerrain = m_TerrainVector[i];

  00132	8b 1c 91	 mov	 ebx, DWORD PTR [ecx+edx*4]

; 138  : 			usCoordY >= sReferenceCoordMinY &&

  00135	8b 4d f4	 mov	 ecx, DWORD PTR tv1304[ebp]
  00138	0f bf c1	 movsx	 eax, cx
; File C:\Users\murat\Desktop\Siveps2-1-99-Project\source\client\Client\GameLib\AreaTerrain.h

; 92   : 			*usCoordX = m_wX;

  0013b	0f b7 bb 6c a5
	06 00		 movzx	 edi, WORD PTR [ebx+435564]
; File C:\Users\murat\Desktop\Siveps2-1-99-Project\source\client\Client\GameLib\MapOutdoorLoad.cpp

; 138  : 			usCoordY >= sReferenceCoordMinY &&

  00142	3b f8		 cmp	 edi, eax
  00144	7c 34		 jl	 SHORT $LN5@AssignTerr
  00146	8b 45 f0	 mov	 eax, DWORD PTR tv1301[ebp]
  00149	98		 cwde
  0014a	3b f8		 cmp	 edi, eax
  0014c	7f 2c		 jg	 SHORT $LN5@AssignTerr
  0014e	8b 45 ec	 mov	 eax, DWORD PTR tv1300[ebp]
  00151	0f b7 8b 6e a5
	06 00		 movzx	 ecx, WORD PTR [ebx+435566]
  00158	98		 cwde
  00159	3b c8		 cmp	 ecx, eax
  0015b	7c 1d		 jl	 SHORT $LN5@AssignTerr
  0015d	8b 45 e8	 mov	 eax, DWORD PTR tv1297[ebp]
  00160	98		 cwde
  00161	3b c8		 cmp	 ecx, eax
  00163	7f 15		 jg	 SHORT $LN5@AssignTerr

; 139  : 			usCoordY <= sReferenceCoordMaxY)
; 140  : 		{
; 141  : 			m_pTerrain[(usCoordY - m_CurCoordinate.m_sTerrainCoordY + LOAD_SIZE_WIDTH) * 3 +

  00165	0f bf 46 76	 movsx	 eax, WORD PTR [esi+118]
  00169	2b c8		 sub	 ecx, eax
  0016b	0f bf 46 74	 movsx	 eax, WORD PTR [esi+116]
  0016f	8d 0c 49	 lea	 ecx, DWORD PTR [ecx+ecx*2]
  00172	2b c8		 sub	 ecx, eax
  00174	03 cf		 add	 ecx, edi
  00176	89 5c 8e 50	 mov	 DWORD PTR [esi+ecx*4+80], ebx
$LN5@AssignTerr:
; File C:\Program Files (x86)\Microsoft Visual Studio\2019\Professional\VC\Tools\MSVC\14.29.30133\include\vector

; 1549 :         return static_cast<size_type>(_My_data._Mylast - _My_data._Myfirst);

  0017a	8b 86 1c 09 00
	00		 mov	 eax, DWORD PTR [esi+2332]
; File C:\Users\murat\Desktop\Siveps2-1-99-Project\source\client\Client\GameLib\MapOutdoorLoad.cpp

; 130  : 	for (i = 0; i < m_TerrainVector.size(); ++i)

  00180	42		 inc	 edx
; File C:\Program Files (x86)\Microsoft Visual Studio\2019\Professional\VC\Tools\MSVC\14.29.30133\include\vector

; 1549 :         return static_cast<size_type>(_My_data._Mylast - _My_data._Myfirst);

  00181	8b 8e 18 09 00
	00		 mov	 ecx, DWORD PTR [esi+2328]
  00187	2b c1		 sub	 eax, ecx
  00189	c1 f8 02	 sar	 eax, 2
; File C:\Users\murat\Desktop\Siveps2-1-99-Project\source\client\Client\GameLib\MapOutdoorLoad.cpp

; 130  : 	for (i = 0; i < m_TerrainVector.size(); ++i)

  0018c	3b d0		 cmp	 edx, eax
  0018e	72 a2		 jb	 SHORT $LL7@AssignTerr
$LN51@AssignTerr:
; File C:\Program Files (x86)\Microsoft Visual Studio\2019\Professional\VC\Tools\MSVC\14.29.30133\include\vector

; 1549 :         return static_cast<size_type>(_My_data._Mylast - _My_data._Myfirst);

  00190	8b 86 50 09 00
	00		 mov	 eax, DWORD PTR [esi+2384]
; File C:\Users\murat\Desktop\Siveps2-1-99-Project\source\client\Client\GameLib\MapOutdoorLoad.cpp

; 146  : 	for (i = 0; i < m_AreaVector.size(); ++i)

  00196	33 ff		 xor	 edi, edi
; File C:\Program Files (x86)\Microsoft Visual Studio\2019\Professional\VC\Tools\MSVC\14.29.30133\include\vector

; 1549 :         return static_cast<size_type>(_My_data._Mylast - _My_data._Myfirst);

  00198	8b 8e 4c 09 00
	00		 mov	 ecx, DWORD PTR [esi+2380]
  0019e	2b c1		 sub	 eax, ecx
  001a0	c1 f8 02	 sar	 eax, 2
; File C:\Users\murat\Desktop\Siveps2-1-99-Project\source\client\Client\GameLib\MapOutdoorLoad.cpp

; 146  : 	for (i = 0; i < m_AreaVector.size(); ++i)

  001a3	85 c0		 test	 eax, eax
  001a5	74 69		 je	 SHORT $LN9@AssignTerr
$LL10@AssignTerr:

; 147  : 	{
; 148  : 		CArea * pArea = m_AreaVector[i];

  001a7	8b 1c b9	 mov	 ebx, DWORD PTR [ecx+edi*4]

; 149  : 		WORD usCoordX, usCoordY;
; 150  : 		pArea->GetCoordinate(&usCoordX, &usCoordY);

  001aa	8d 45 f8	 lea	 eax, DWORD PTR _usCoordY$1[ebp]
  001ad	50		 push	 eax
  001ae	8d 45 fc	 lea	 eax, DWORD PTR _usCoordX$2[ebp]
  001b1	8b cb		 mov	 ecx, ebx
  001b3	50		 push	 eax
  001b4	e8 00 00 00 00	 call	 ?GetCoordinate@CArea@@QAEXPAG0@Z ; CArea::GetCoordinate

; 151  : 
; 152  : 		if (usCoordX >= sReferenceCoordMinX &&
; 153  : 			usCoordX <= sReferenceCoordMaxX &&
; 154  : 			usCoordY >= sReferenceCoordMinY &&

  001b9	8b 4d f4	 mov	 ecx, DWORD PTR tv1304[ebp]
  001bc	0f b7 55 fc	 movzx	 edx, WORD PTR _usCoordX$2[ebp]
  001c0	0f bf c1	 movsx	 eax, cx
  001c3	3b d0		 cmp	 edx, eax
  001c5	7c 33		 jl	 SHORT $LN8@AssignTerr
  001c7	8b 45 f0	 mov	 eax, DWORD PTR tv1301[ebp]
  001ca	98		 cwde
  001cb	3b d0		 cmp	 edx, eax
  001cd	7f 2b		 jg	 SHORT $LN8@AssignTerr
  001cf	8b 45 ec	 mov	 eax, DWORD PTR tv1300[ebp]
  001d2	0f b7 4d f8	 movzx	 ecx, WORD PTR _usCoordY$1[ebp]
  001d6	98		 cwde
  001d7	3b c8		 cmp	 ecx, eax
  001d9	7c 1f		 jl	 SHORT $LN8@AssignTerr
  001db	8b 45 e8	 mov	 eax, DWORD PTR tv1297[ebp]
  001de	98		 cwde
  001df	3b c8		 cmp	 ecx, eax
  001e1	7f 17		 jg	 SHORT $LN8@AssignTerr

; 155  : 			usCoordY <= sReferenceCoordMaxY)
; 156  : 		{
; 157  : 			m_pArea[(usCoordY - m_CurCoordinate.m_sTerrainCoordY + LOAD_SIZE_WIDTH) * 3 +

  001e3	0f bf 46 76	 movsx	 eax, WORD PTR [esi+118]
  001e7	2b c8		 sub	 ecx, eax
  001e9	0f bf 46 74	 movsx	 eax, WORD PTR [esi+116]
  001ed	83 c1 14	 add	 ecx, 20			; 00000014H
  001f0	8d 0c 49	 lea	 ecx, DWORD PTR [ecx+ecx*2]
  001f3	2b c8		 sub	 ecx, eax
  001f5	03 ca		 add	 ecx, edx
  001f7	89 1c 8e	 mov	 DWORD PTR [esi+ecx*4], ebx
$LN8@AssignTerr:
; File C:\Program Files (x86)\Microsoft Visual Studio\2019\Professional\VC\Tools\MSVC\14.29.30133\include\vector

; 1549 :         return static_cast<size_type>(_My_data._Mylast - _My_data._Myfirst);

  001fa	8b 86 50 09 00
	00		 mov	 eax, DWORD PTR [esi+2384]
; File C:\Users\murat\Desktop\Siveps2-1-99-Project\source\client\Client\GameLib\MapOutdoorLoad.cpp

; 146  : 	for (i = 0; i < m_AreaVector.size(); ++i)

  00200	47		 inc	 edi
; File C:\Program Files (x86)\Microsoft Visual Studio\2019\Professional\VC\Tools\MSVC\14.29.30133\include\vector

; 1549 :         return static_cast<size_type>(_My_data._Mylast - _My_data._Myfirst);

  00201	8b 8e 4c 09 00
	00		 mov	 ecx, DWORD PTR [esi+2380]
  00207	2b c1		 sub	 eax, ecx
  00209	c1 f8 02	 sar	 eax, 2
; File C:\Users\murat\Desktop\Siveps2-1-99-Project\source\client\Client\GameLib\MapOutdoorLoad.cpp

; 146  : 	for (i = 0; i < m_AreaVector.size(); ++i)

  0020c	3b f8		 cmp	 edi, eax
  0020e	72 97		 jb	 SHORT $LL10@AssignTerr
$LN9@AssignTerr:
  00210	5f		 pop	 edi

; 158  : 				(usCoordX - m_CurCoordinate.m_sTerrainCoordX + LOAD_SIZE_WIDTH) ] = pArea;
; 159  : 		}
; 160  : 	}
; 161  : }

  00211	5e		 pop	 esi
  00212	5b		 pop	 ebx
  00213	8b e5		 mov	 esp, ebp
  00215	5d		 pop	 ebp
  00216	c3		 ret	 0
?AssignTerrainPtr@CMapOutdoor@@IAEXXZ ENDP		; CMapOutdoor::AssignTerrainPtr
_TEXT	ENDS
; Function compile flags: /Ogtp
; File C:\Users\murat\Desktop\Siveps2-1-99-Project\source\client\Client\GameLib\MapOutdoorLoad.cpp
; File C:\Program Files (x86)\Microsoft Visual Studio\2019\Professional\VC\Tools\MSVC\14.29.30133\include\vector
; File C:\Users\murat\Desktop\Siveps2-1-99-Project\source\client\Client\GameLib\MapOutdoorLoad.cpp
; File C:\Program Files (x86)\Microsoft Visual Studio\2019\Professional\VC\Tools\MSVC\14.29.30133\include\vector
; File C:\Users\murat\Desktop\Siveps2-1-99-Project\source\client\Client\GameLib\MapOutdoorLoad.cpp
; File C:\Program Files (x86)\Microsoft Visual Studio\2019\Professional\VC\Tools\MSVC\14.29.30133\include\vector
; File C:\Users\murat\Desktop\Siveps2-1-99-Project\source\client\Client\GameLib\MapOutdoorLoad.cpp
; File C:\Program Files (x86)\Microsoft Visual Studio\2019\Professional\VC\Tools\MSVC\14.29.30133\include\vector
; File C:\Users\murat\Desktop\Siveps2-1-99-Project\source\client\Client\GameLib\MapOutdoorLoad.cpp
;	COMDAT ?isAreaLoaded@CMapOutdoor@@IAE_NGG@Z
_TEXT	SEGMENT
_usCoordY$1 = -4					; size = 2
_wX$ = 8						; size = 2
_usCoordX$2 = 12					; size = 2
_wY$ = 12						; size = 2
?isAreaLoaded@CMapOutdoor@@IAE_NGG@Z PROC		; CMapOutdoor::isAreaLoaded, COMDAT
; _this$ = ecx

; 94   : {

  00000	55		 push	 ebp
  00001	8b ec		 mov	 ebp, esp
  00003	51		 push	 ecx
  00004	53		 push	 ebx
  00005	56		 push	 esi
  00006	57		 push	 edi
  00007	8b f9		 mov	 edi, ecx

; 95   : 	for (DWORD i = 0; i < m_AreaVector.size(); ++i)

  00009	33 f6		 xor	 esi, esi
; File C:\Program Files (x86)\Microsoft Visual Studio\2019\Professional\VC\Tools\MSVC\14.29.30133\include\vector

; 1549 :         return static_cast<size_type>(_My_data._Mylast - _My_data._Myfirst);

  0000b	8b 87 50 09 00
	00		 mov	 eax, DWORD PTR [edi+2384]
  00011	8b 8f 4c 09 00
	00		 mov	 ecx, DWORD PTR [edi+2380]
  00017	2b c1		 sub	 eax, ecx
  00019	c1 f8 02	 sar	 eax, 2
; File C:\Users\murat\Desktop\Siveps2-1-99-Project\source\client\Client\GameLib\MapOutdoorLoad.cpp

; 95   : 	for (DWORD i = 0; i < m_AreaVector.size(); ++i)

  0001c	85 c0		 test	 eax, eax
  0001e	74 3a		 je	 SHORT $LN16@isAreaLoad
; File C:\Program Files (x86)\Microsoft Visual Studio\2019\Professional\VC\Tools\MSVC\14.29.30133\include\vector

; 1548 :         auto& _My_data = _Mypair._Myval2;

  00020	66 8b 5d 0c	 mov	 bx, WORD PTR _wY$[ebp]
$LL4@isAreaLoad:
; File C:\Users\murat\Desktop\Siveps2-1-99-Project\source\client\Client\GameLib\MapOutdoorLoad.cpp

; 99   : 		pArea->GetCoordinate(&usCoordX, &usCoordY);

  00024	8b 0c b1	 mov	 ecx, DWORD PTR [ecx+esi*4]
  00027	8d 45 fc	 lea	 eax, DWORD PTR _usCoordY$1[ebp]
  0002a	50		 push	 eax
  0002b	8d 45 0c	 lea	 eax, DWORD PTR _usCoordX$2[ebp]
  0002e	50		 push	 eax
  0002f	e8 00 00 00 00	 call	 ?GetCoordinate@CArea@@QAEXPAG0@Z ; CArea::GetCoordinate

; 100  : 
; 101  : 		if (usCoordX == wX && usCoordY == wY)

  00034	66 8b 45 08	 mov	 ax, WORD PTR _wX$[ebp]
  00038	66 39 45 0c	 cmp	 WORD PTR _usCoordX$2[ebp], ax
  0003c	75 06		 jne	 SHORT $LN2@isAreaLoad
  0003e	66 39 5d fc	 cmp	 WORD PTR _usCoordY$1[ebp], bx
  00042	74 21		 je	 SHORT $LN12@isAreaLoad
$LN2@isAreaLoad:
; File C:\Program Files (x86)\Microsoft Visual Studio\2019\Professional\VC\Tools\MSVC\14.29.30133\include\vector

; 1549 :         return static_cast<size_type>(_My_data._Mylast - _My_data._Myfirst);

  00044	8b 87 50 09 00
	00		 mov	 eax, DWORD PTR [edi+2384]
; File C:\Users\murat\Desktop\Siveps2-1-99-Project\source\client\Client\GameLib\MapOutdoorLoad.cpp

; 95   : 	for (DWORD i = 0; i < m_AreaVector.size(); ++i)

  0004a	46		 inc	 esi
; File C:\Program Files (x86)\Microsoft Visual Studio\2019\Professional\VC\Tools\MSVC\14.29.30133\include\vector

; 1549 :         return static_cast<size_type>(_My_data._Mylast - _My_data._Myfirst);

  0004b	8b 8f 4c 09 00
	00		 mov	 ecx, DWORD PTR [edi+2380]
  00051	2b c1		 sub	 eax, ecx
  00053	c1 f8 02	 sar	 eax, 2
; File C:\Users\murat\Desktop\Siveps2-1-99-Project\source\client\Client\GameLib\MapOutdoorLoad.cpp

; 95   : 	for (DWORD i = 0; i < m_AreaVector.size(); ++i)

  00056	3b f0		 cmp	 esi, eax
  00058	72 ca		 jb	 SHORT $LL4@isAreaLoad
$LN16@isAreaLoad:
  0005a	5f		 pop	 edi

; 102  : 			return true;
; 103  : 	}
; 104  : 	return false;
; 105  : }

  0005b	5e		 pop	 esi
  0005c	32 c0		 xor	 al, al
  0005e	5b		 pop	 ebx
  0005f	8b e5		 mov	 esp, ebp
  00061	5d		 pop	 ebp
  00062	c2 08 00	 ret	 8
$LN12@isAreaLoad:
  00065	5f		 pop	 edi
  00066	5e		 pop	 esi
  00067	b0 01		 mov	 al, 1
  00069	5b		 pop	 ebx
  0006a	8b e5		 mov	 esp, ebp
  0006c	5d		 pop	 ebp
  0006d	c2 08 00	 ret	 8
?isAreaLoaded@CMapOutdoor@@IAE_NGG@Z ENDP		; CMapOutdoor::isAreaLoaded
_TEXT	ENDS
; Function compile flags: /Ogtp
; File C:\Users\murat\Desktop\Siveps2-1-99-Project\source\client\Client\GameLib\MapOutdoorLoad.cpp
; File C:\Program Files (x86)\Microsoft Visual Studio\2019\Professional\VC\Tools\MSVC\14.29.30133\include\vector
; File C:\Users\murat\Desktop\Siveps2-1-99-Project\source\client\Client\GameLib\MapOutdoorLoad.cpp
; File C:\Program Files (x86)\Microsoft Visual Studio\2019\Professional\VC\Tools\MSVC\14.29.30133\include\vector
; File C:\Users\murat\Desktop\Siveps2-1-99-Project\source\client\Client\GameLib\MapOutdoorLoad.cpp
;	COMDAT ?isTerrainLoaded@CMapOutdoor@@IAE_NGG@Z
_TEXT	SEGMENT
_wX$ = 8						; size = 2
_wY$ = 12						; size = 2
?isTerrainLoaded@CMapOutdoor@@IAE_NGG@Z PROC		; CMapOutdoor::isTerrainLoaded, COMDAT
; _this$ = ecx

; 80   : {

  00000	55		 push	 ebp
  00001	8b ec		 mov	 ebp, esp
; File C:\Program Files (x86)\Microsoft Visual Studio\2019\Professional\VC\Tools\MSVC\14.29.30133\include\vector

; 1549 :         return static_cast<size_type>(_My_data._Mylast - _My_data._Myfirst);

  00003	8b 81 18 09 00
	00		 mov	 eax, DWORD PTR [ecx+2328]
; File C:\Users\murat\Desktop\Siveps2-1-99-Project\source\client\Client\GameLib\MapOutdoorLoad.cpp

; 81   : 	for (DWORD i = 0; i < m_TerrainVector.size(); ++i)

  00009	33 d2		 xor	 edx, edx
  0000b	53		 push	 ebx
  0000c	56		 push	 esi
; File C:\Program Files (x86)\Microsoft Visual Studio\2019\Professional\VC\Tools\MSVC\14.29.30133\include\vector

; 1549 :         return static_cast<size_type>(_My_data._Mylast - _My_data._Myfirst);

  0000d	8b b1 1c 09 00
	00		 mov	 esi, DWORD PTR [ecx+2332]
  00013	2b f0		 sub	 esi, eax
  00015	c1 fe 02	 sar	 esi, 2
; File C:\Users\murat\Desktop\Siveps2-1-99-Project\source\client\Client\GameLib\MapOutdoorLoad.cpp

; 80   : {

  00018	57		 push	 edi

; 81   : 	for (DWORD i = 0; i < m_TerrainVector.size(); ++i)

  00019	85 f6		 test	 esi, esi
  0001b	74 24		 je	 SHORT $LN18@isTerrainL
  0001d	66 8b 7d 0c	 mov	 di, WORD PTR _wY$[ebp]
  00021	66 8b 5d 08	 mov	 bx, WORD PTR _wX$[ebp]
$LL4@isTerrainL:

; 82   : 	{
; 83   : 		CTerrain * pTerrain = m_TerrainVector[i];

  00025	8b 08		 mov	 ecx, DWORD PTR [eax]

; 84   : 		WORD usCoordX, usCoordY;
; 85   : 		pTerrain->GetCoordinate(&usCoordX, &usCoordY);
; 86   : 
; 87   : 		if (usCoordX == wX && usCoordY == wY)

  00027	66 39 99 6c a5
	06 00		 cmp	 WORD PTR [ecx+435564], bx
  0002e	75 09		 jne	 SHORT $LN2@isTerrainL
  00030	66 39 b9 6e a5
	06 00		 cmp	 WORD PTR [ecx+435566], di
  00037	74 11		 je	 SHORT $LN14@isTerrainL
$LN2@isTerrainL:

; 81   : 	for (DWORD i = 0; i < m_TerrainVector.size(); ++i)

  00039	42		 inc	 edx
  0003a	83 c0 04	 add	 eax, 4
  0003d	3b d6		 cmp	 edx, esi
  0003f	72 e4		 jb	 SHORT $LL4@isTerrainL
$LN18@isTerrainL:
  00041	5f		 pop	 edi

; 88   : 			return true;
; 89   : 	}
; 90   : 	return false;
; 91   : }

  00042	5e		 pop	 esi
  00043	32 c0		 xor	 al, al
  00045	5b		 pop	 ebx
  00046	5d		 pop	 ebp
  00047	c2 08 00	 ret	 8
$LN14@isTerrainL:
  0004a	5f		 pop	 edi
  0004b	5e		 pop	 esi
  0004c	b0 01		 mov	 al, 1
  0004e	5b		 pop	 ebx
  0004f	5d		 pop	 ebp
  00050	c2 08 00	 ret	 8
?isTerrainLoaded@CMapOutdoor@@IAE_NGG@Z ENDP		; CMapOutdoor::isTerrainLoaded
_TEXT	ENDS
; Function compile flags: /Ogtp
; File C:\Users\murat\Desktop\Siveps2-1-99-Project\source\client\Client\GameLib\MapOutdoorLoad.cpp
; File C:\Program Files (x86)\Microsoft Visual Studio\2019\Professional\VC\Tools\MSVC\14.29.30133\include\xstring
; File C:\Users\murat\Desktop\Siveps2-1-99-Project\source\client\Client\GameLib\MapOutdoorLoad.cpp
; File C:\Program Files (x86)\Microsoft Visual Studio\2019\Professional\VC\Tools\MSVC\14.29.30133\include\vector
; File C:\Users\murat\Desktop\Siveps2-1-99-Project\source\client\Client\GameLib\MapOutdoorLoad.cpp
; File C:\Program Files (x86)\Microsoft Visual Studio\2019\Professional\VC\Tools\MSVC\14.29.30133\include\vector
; File C:\Users\murat\Desktop\Siveps2-1-99-Project\source\client\Client\GameLib\MapOutdoorLoad.cpp
;	COMDAT ?LoadArea@CMapOutdoor@@MAE_NGGGG@Z
_TEXT	SEGMENT
_pArea$ = -76						; size = 4
_szAreaPathName$ = -72					; size = 65
__$ArrayPad$ = -4					; size = 4
_wAreaCoordX$ = 8					; size = 2
_wAreaCoordY$ = 12					; size = 2
_wCellCoordX$ = 16					; size = 2
_wCellCoordY$ = 20					; size = 2
?LoadArea@CMapOutdoor@@MAE_NGGGG@Z PROC			; CMapOutdoor::LoadArea, COMDAT
; _this$ = ecx

; 164  : {

  00000	55		 push	 ebp
  00001	8b ec		 mov	 ebp, esp
  00003	83 ec 4c	 sub	 esp, 76			; 0000004cH
  00006	a1 00 00 00 00	 mov	 eax, DWORD PTR ___security_cookie
  0000b	33 c5		 xor	 eax, ebp
  0000d	89 45 fc	 mov	 DWORD PTR __$ArrayPad$[ebp], eax
  00010	56		 push	 esi

; 165  : 	if (isAreaLoaded(wAreaCoordX, wAreaCoordY))

  00011	ff 75 0c	 push	 DWORD PTR _wAreaCoordY$[ebp]
  00014	8b f1		 mov	 esi, ecx
  00016	ff 75 08	 push	 DWORD PTR _wAreaCoordX$[ebp]
  00019	e8 00 00 00 00	 call	 ?isAreaLoaded@CMapOutdoor@@IAE_NGG@Z ; CMapOutdoor::isAreaLoaded
  0001e	84 c0		 test	 al, al
  00020	0f 85 b7 00 00
	00		 jne	 $LN25@LoadArea

; 166  : 		return true;
; 167  : #ifdef _DEBUG
; 168  : 	DWORD dwStartTime = ELTimer_GetMSec();
; 169  : #endif
; 170  : 	unsigned long ulID = (unsigned long) (wAreaCoordX) * 1000L + (unsigned long) (wAreaCoordY);

  00026	0f b7 45 08	 movzx	 eax, WORD PTR _wAreaCoordX$[ebp]
  0002a	69 c8 e8 03 00
	00		 imul	 ecx, eax, 1000
  00030	0f b7 45 0c	 movzx	 eax, WORD PTR _wAreaCoordY$[ebp]
  00034	03 c8		 add	 ecx, eax
; File C:\Program Files (x86)\Microsoft Visual Studio\2019\Professional\VC\Tools\MSVC\14.29.30133\include\xstring

; 3922 :         return _Mypair._Myval2._Myptr();

  00036	33 c0		 xor	 eax, eax
  00038	3b 46 30	 cmp	 eax, DWORD PTR [esi+48]
  0003b	1b c0		 sbb	 eax, eax
  0003d	83 e0 18	 and	 eax, 24			; 00000018H
  00040	83 c0 08	 add	 eax, 8
  00043	03 c6		 add	 eax, esi

; 2319 :         return _BUF_SIZE <= _Myres;

  00045	83 78 14 10	 cmp	 DWORD PTR [eax+20], 16	; 00000010H

; 2306 :         if (_Large_string_engaged()) {

  00049	72 02		 jb	 SHORT $LN14@LoadArea

; 2307 :             _Result = _Unfancy(_Bx._Ptr);

  0004b	8b 00		 mov	 eax, DWORD PTR [eax]
$LN14@LoadArea:
  0004d	57		 push	 edi
; File C:\Users\murat\Desktop\Siveps2-1-99-Project\source\client\Client\GameLib\MapOutdoorLoad.cpp

; 172  : 	_snprintf(szAreaPathName, sizeof(szAreaPathName), "%s\\%06u\\", GetMapDataDirectory().c_str(), ulID);

  0004e	51		 push	 ecx
  0004f	50		 push	 eax
  00050	68 00 00 00 00	 push	 OFFSET ??_C@_08HAAOAKJA@?$CFs?2?$CF06u?2@
  00055	8d 45 b8	 lea	 eax, DWORD PTR _szAreaPathName$[ebp]
  00058	6a 41		 push	 65			; 00000041H
  0005a	50		 push	 eax
  0005b	e8 00 00 00 00	 call	 __snprintf
  00060	83 c4 14	 add	 esp, 20			; 00000014H

; 173  : 
; 174  : 	CArea * pArea = CArea::New();

  00063	e8 00 00 00 00	 call	 ?New@CArea@@SAPAV1@XZ	; CArea::New
  00068	8b f8		 mov	 edi, eax

; 175  : 	pArea->SetMapOutDoor(this);

  0006a	56		 push	 esi
  0006b	8b cf		 mov	 ecx, edi
  0006d	89 7d b4	 mov	 DWORD PTR _pArea$[ebp], edi
  00070	e8 00 00 00 00	 call	 ?SetMapOutDoor@CArea@@QAEXPAVCMapOutdoor@@@Z ; CArea::SetMapOutDoor

; 176  : #ifdef _DEBUG
; 177  : 	Tracef("CMapOutdoor::LoadArea1 %d\n", ELTimer_GetMSec() - dwStartTime);
; 178  : 	dwStartTime = ELTimer_GetMSec();
; 179  : #endif
; 180  : 
; 181  : 	pArea->SetCoordinate(wAreaCoordX, wAreaCoordY);

  00075	8d 45 0c	 lea	 eax, DWORD PTR _wAreaCoordY$[ebp]
  00078	8b cf		 mov	 ecx, edi
  0007a	50		 push	 eax
  0007b	8d 45 08	 lea	 eax, DWORD PTR _wAreaCoordX$[ebp]
  0007e	50		 push	 eax
  0007f	e8 00 00 00 00	 call	 ?SetCoordinate@CArea@@QAEXABG0@Z ; CArea::SetCoordinate

; 182  : 	if ( !pArea->Load(szAreaPathName) )

  00084	8d 45 b8	 lea	 eax, DWORD PTR _szAreaPathName$[ebp]
  00087	8b cf		 mov	 ecx, edi
  00089	50		 push	 eax
  0008a	e8 00 00 00 00	 call	 ?Load@CArea@@QAE_NPBD@Z	; CArea::Load
  0008f	84 c0		 test	 al, al
  00091	75 17		 jne	 SHORT $LN3@LoadArea

; 183  : 		TraceError(" CMapOutdoor::LoadArea(%d, %d) LoadShadowMap ERROR", wAreaCoordX, wAreaCoordY);

  00093	0f b7 45 0c	 movzx	 eax, WORD PTR _wAreaCoordY$[ebp]
  00097	50		 push	 eax
  00098	0f b7 45 08	 movzx	 eax, WORD PTR _wAreaCoordX$[ebp]
  0009c	50		 push	 eax
  0009d	68 00 00 00 00	 push	 OFFSET ??_C@_0DD@GDFLJGIN@?5CMapOutdoor?3?3LoadArea?$CI?$CFd?0?5?$CFd?$CJ?5@
  000a2	e8 00 00 00 00	 call	 ?TraceError@@YAXPBDZZ	; TraceError
  000a7	83 c4 0c	 add	 esp, 12			; 0000000cH
$LN3@LoadArea:
; File C:\Program Files (x86)\Microsoft Visual Studio\2019\Professional\VC\Tools\MSVC\14.29.30133\include\vector

; 743  :         if (_Mylast != _My_data._Myend) {

  000aa	8b 86 50 09 00
	00		 mov	 eax, DWORD PTR [esi+2384]
; File C:\Users\murat\Desktop\Siveps2-1-99-Project\source\client\Client\GameLib\MapOutdoorLoad.cpp

; 190  : 	m_AreaVector.push_back(pArea);

  000b0	8d 8e 4c 09 00
	00		 lea	 ecx, DWORD PTR [esi+2380]
; File C:\Program Files (x86)\Microsoft Visual Studio\2019\Professional\VC\Tools\MSVC\14.29.30133\include\vector

; 743  :         if (_Mylast != _My_data._Myend) {

  000b6	3b 41 08	 cmp	 eax, DWORD PTR [ecx+8]
  000b9	74 08		 je	 SHORT $LN21@LoadArea

; 726  :         _Alty_traits::construct(_Getal(), _Unfancy(_Mylast), _STD forward<_Valty>(_Val)...);

  000bb	89 38		 mov	 DWORD PTR [eax], edi

; 727  :         _Orphan_range(_Mylast, _Mylast);
; 728  :         _Ty& _Result = *_Mylast;
; 729  :         ++_Mylast;

  000bd	83 41 04 04	 add	 DWORD PTR [ecx+4], 4

; 744  :             return _Emplace_back_with_unused_capacity(_STD forward<_Valty>(_Val)...);

  000c1	eb 0a		 jmp	 SHORT $LN20@LoadArea
$LN21@LoadArea:

; 745  :         }
; 746  : 
; 747  :         _Ty& _Result = *_Emplace_reallocate(_Mylast, _STD forward<_Valty>(_Val)...);

  000c3	8d 55 b4	 lea	 edx, DWORD PTR _pArea$[ebp]
  000c6	52		 push	 edx
  000c7	50		 push	 eax
  000c8	e8 00 00 00 00	 call	 ??$_Emplace_reallocate@ABQAVCArea@@@?$vector@PAVCArea@@V?$allocator@PAVCArea@@@std@@@std@@QAEPAPAVCArea@@QAPAV2@ABQAV2@@Z ; std::vector<CArea *,std::allocator<CArea *> >::_Emplace_reallocate<CArea * const &>
$LN20@LoadArea:
; File C:\Users\murat\Desktop\Siveps2-1-99-Project\source\client\Client\GameLib\MapOutdoorLoad.cpp

; 192  : 	pArea->EnablePortal(m_bEnablePortal);

  000cd	0f b6 86 b7 0e
	00 00		 movzx	 eax, BYTE PTR [esi+3767]
  000d4	8b cf		 mov	 ecx, edi
  000d6	50		 push	 eax
  000d7	e8 00 00 00 00	 call	 ?EnablePortal@CArea@@QAEXH@Z ; CArea::EnablePortal

; 193  : #ifdef _DEBUG
; 194  : 	Tracef("CMapOutdoor::LoadArea3 %d\n", ELTimer_GetMSec() - dwStartTime);
; 195  : #endif
; 196  : 
; 197  : 	return true;

  000dc	5f		 pop	 edi
$LN25@LoadArea:

; 198  : }

  000dd	8b 4d fc	 mov	 ecx, DWORD PTR __$ArrayPad$[ebp]
  000e0	b0 01		 mov	 al, 1
  000e2	33 cd		 xor	 ecx, ebp
  000e4	5e		 pop	 esi
  000e5	e8 00 00 00 00	 call	 @__security_check_cookie@4
  000ea	8b e5		 mov	 esp, ebp
  000ec	5d		 pop	 ebp
  000ed	c2 10 00	 ret	 16			; 00000010H
?LoadArea@CMapOutdoor@@MAE_NGGGG@Z ENDP			; CMapOutdoor::LoadArea
_TEXT	ENDS
; Function compile flags: /Ogtp
; File C:\Users\murat\Desktop\Siveps2-1-99-Project\source\client\Client\GameLib\MapOutdoorLoad.cpp
; File C:\Program Files (x86)\Microsoft Visual Studio\2019\Professional\VC\Tools\MSVC\14.29.30133\include\xstring
; File C:\Users\murat\Desktop\Siveps2-1-99-Project\source\client\Client\GameLib\MapOutdoorLoad.cpp
; File C:\Program Files (x86)\Microsoft Visual Studio\2019\Professional\VC\Tools\MSVC\14.29.30133\include\xstring
; File C:\Users\murat\Desktop\Siveps2-1-99-Project\source\client\Client\GameLib\MapOutdoorLoad.cpp
; File C:\Program Files (x86)\Microsoft Visual Studio\2019\Professional\VC\Tools\MSVC\14.29.30133\include\xstring
; File C:\Users\murat\Desktop\Siveps2-1-99-Project\source\client\Client\GameLib\MapOutdoorLoad.cpp
; File C:\Program Files (x86)\Microsoft Visual Studio\2019\Professional\VC\Tools\MSVC\14.29.30133\include\xmemory
; File C:\Program Files (x86)\Microsoft Visual Studio\2019\Professional\VC\Tools\MSVC\14.29.30133\include\xtree
; File C:\Program Files (x86)\Microsoft Visual Studio\2019\Professional\VC\Tools\MSVC\14.29.30133\include\xmemory
; File C:\Program Files (x86)\Microsoft Visual Studio\2019\Professional\VC\Tools\MSVC\14.29.30133\include\xtree
; File C:\Users\murat\Desktop\Siveps2-1-99-Project\source\client\Client\GameLib\MapOutdoorLoad.cpp
; File C:\Program Files (x86)\Microsoft Visual Studio\2019\Professional\VC\Tools\MSVC\14.29.30133\include\xstring
; File C:\Program Files (x86)\Microsoft Visual Studio\2019\Professional\VC\Tools\MSVC\14.29.30133\include\xtree
; File C:\Program Files (x86)\Microsoft Visual Studio\2019\Professional\VC\Tools\MSVC\14.29.30133\include\xstring
; File C:\Program Files (x86)\Microsoft Visual Studio\2019\Professional\VC\Tools\MSVC\14.29.30133\include\xtree
; File C:\Program Files (x86)\Microsoft Visual Studio\2019\Professional\VC\Tools\MSVC\14.29.30133\include\xstring
; File C:\Program Files (x86)\Microsoft Visual Studio\2019\Professional\VC\Tools\MSVC\14.29.30133\include\xtree
; File C:\Program Files (x86)\Microsoft Visual Studio\2019\Professional\VC\Tools\MSVC\14.29.30133\include\xstring
; File C:\Program Files (x86)\Microsoft Visual Studio\2019\Professional\VC\Tools\MSVC\14.29.30133\include\xtree
; File C:\Program Files (x86)\Microsoft Visual Studio\2019\Professional\VC\Tools\MSVC\14.29.30133\include\xstddef
; File C:\Program Files (x86)\Microsoft Visual Studio\2019\Professional\VC\Tools\MSVC\14.29.30133\include\xtree
; File C:\Program Files (x86)\Microsoft Visual Studio\2019\Professional\VC\Tools\MSVC\14.29.30133\include\xstring
; File C:\Program Files (x86)\Microsoft Visual Studio\2019\Professional\VC\Tools\MSVC\14.29.30133\include\xtree
; File C:\Users\murat\Desktop\Siveps2-1-99-Project\source\client\Client\GameLib\MapOutdoorLoad.cpp
; File C:\Program Files (x86)\Microsoft Visual Studio\2019\Professional\VC\Tools\MSVC\14.29.30133\include\xstring
; File C:\Users\murat\Desktop\Siveps2-1-99-Project\source\client\Client\GameLib\MapOutdoorLoad.cpp
; File C:\Program Files (x86)\Microsoft Visual Studio\2019\Professional\VC\Tools\MSVC\14.29.30133\include\xstring
; File C:\Users\murat\Desktop\Siveps2-1-99-Project\source\client\Client\GameLib\MapOutdoorLoad.cpp
; File C:\Program Files (x86)\Microsoft Visual Studio\2019\Professional\VC\Tools\MSVC\14.29.30133\include\xstring
; File C:\Users\murat\Desktop\Siveps2-1-99-Project\source\client\Client\GameLib\MapOutdoorLoad.cpp
; File C:\Program Files (x86)\Microsoft Visual Studio\2019\Professional\VC\Tools\MSVC\14.29.30133\include\xstring
; File C:\Users\murat\Desktop\Siveps2-1-99-Project\source\client\Client\GameLib\MapOutdoorLoad.cpp
; File C:\Program Files (x86)\Microsoft Visual Studio\2019\Professional\VC\Tools\MSVC\14.29.30133\include\xstring
; File C:\Program Files (x86)\Microsoft Visual Studio\2019\Professional\VC\Tools\MSVC\14.29.30133\include\xtree
; File C:\Users\murat\Desktop\Siveps2-1-99-Project\source\client\Client\GameLib\MapOutdoorLoad.cpp
; File C:\Program Files (x86)\Microsoft Visual Studio\2019\Professional\VC\Tools\MSVC\14.29.30133\include\xstring
; File C:\Users\murat\Desktop\Siveps2-1-99-Project\source\client\Client\GameLib\MapOutdoorLoad.cpp
; File C:\Program Files (x86)\Microsoft Visual Studio\2019\Professional\VC\Tools\MSVC\14.29.30133\include\xstring
; File C:\Users\murat\Desktop\Siveps2-1-99-Project\source\client\Client\GameLib\MapOutdoorLoad.cpp
; File C:\Program Files (x86)\Microsoft Visual Studio\2019\Professional\VC\Tools\MSVC\14.29.30133\include\vector
; File C:\Program Files (x86)\Microsoft Visual Studio\2019\Professional\VC\Tools\MSVC\14.29.30133\include\xstring
; File C:\Program Files (x86)\Microsoft Visual Studio\2019\Professional\VC\Tools\MSVC\14.29.30133\include\xmemory
; File C:\Program Files (x86)\Microsoft Visual Studio\2019\Professional\VC\Tools\MSVC\14.29.30133\include\xstring
; File C:\Program Files (x86)\Microsoft Visual Studio\2019\Professional\VC\Tools\MSVC\14.29.30133\include\xmemory
; File C:\Program Files (x86)\Microsoft Visual Studio\2019\Professional\VC\Tools\MSVC\14.29.30133\include\xstring
; File C:\Users\murat\Desktop\Siveps2-1-99-Project\source\client\Client\GameLib\MapOutdoorLoad.cpp
; File C:\Program Files (x86)\Microsoft Visual Studio\2019\Professional\VC\Tools\MSVC\14.29.30133\include\xstring
; File C:\Users\murat\Desktop\Siveps2-1-99-Project\source\client\Client\GameLib\MapOutdoorLoad.cpp
; File C:\Program Files (x86)\Microsoft Visual Studio\2019\Professional\VC\Tools\MSVC\14.29.30133\include\vector
; File C:\Program Files (x86)\Microsoft Visual Studio\2019\Professional\VC\Tools\MSVC\14.29.30133\include\xstring
; File C:\Program Files (x86)\Microsoft Visual Studio\2019\Professional\VC\Tools\MSVC\14.29.30133\include\xmemory
; File C:\Program Files (x86)\Microsoft Visual Studio\2019\Professional\VC\Tools\MSVC\14.29.30133\include\xstring
; File C:\Program Files (x86)\Microsoft Visual Studio\2019\Professional\VC\Tools\MSVC\14.29.30133\include\xmemory
; File C:\Users\murat\Desktop\Siveps2-1-99-Project\source\client\Client\GameLib\MapOutdoorLoad.cpp
; File C:\Program Files (x86)\Microsoft Visual Studio\2019\Professional\VC\Tools\MSVC\14.29.30133\include\xstring
; File C:\Users\murat\Desktop\Siveps2-1-99-Project\source\client\Client\GameLib\MapOutdoorLoad.cpp
; File C:\Program Files (x86)\Microsoft Visual Studio\2019\Professional\VC\Tools\MSVC\14.29.30133\include\xstring
; File C:\Users\murat\Desktop\Siveps2-1-99-Project\source\client\Client\GameLib\MapBase.h
; File C:\Program Files (x86)\Microsoft Visual Studio\2019\Professional\VC\Tools\MSVC\14.29.30133\include\xstring
; File C:\Users\murat\Desktop\Siveps2-1-99-Project\source\client\Client\GameLib\MapOutdoorLoad.cpp
; File C:\Users\murat\Desktop\Siveps2-1-99-Project\source\client\Client\GameLib\MapBase.h
; File C:\Program Files (x86)\Microsoft Visual Studio\2019\Professional\VC\Tools\MSVC\14.29.30133\include\xstring
; File C:\Users\murat\Desktop\Siveps2-1-99-Project\source\client\Client\GameLib\MapOutdoorLoad.cpp
; File C:\Users\murat\Desktop\Siveps2-1-99-Project\source\client\Client\GameLib\MapBase.h
; File C:\Program Files (x86)\Microsoft Visual Studio\2019\Professional\VC\Tools\MSVC\14.29.30133\include\xstring
; File C:\Users\murat\Desktop\Siveps2-1-99-Project\source\client\Client\GameLib\MapOutdoorLoad.cpp
; File C:\Users\murat\Desktop\Siveps2-1-99-Project\source\client\Client\GameLib\MapBase.h
; File C:\Users\murat\Desktop\Siveps2-1-99-Project\source\client\Client\GameLib\MapOutdoorLoad.cpp
; File C:\Users\murat\Desktop\Siveps2-1-99-Project\source\client\Client\GameLib\MapBase.h
; File C:\Program Files (x86)\Microsoft Visual Studio\2019\Professional\VC\Tools\MSVC\14.29.30133\include\xstring
; File C:\Users\murat\Desktop\Siveps2-1-99-Project\source\client\Client\GameLib\MapOutdoorLoad.cpp
; File C:\Users\murat\Desktop\Siveps2-1-99-Project\source\client\Client\GameLib\MapBase.h
; File C:\Program Files (x86)\Microsoft Visual Studio\2019\Professional\VC\Tools\MSVC\14.29.30133\include\xstring
; File C:\Users\murat\Desktop\Siveps2-1-99-Project\source\client\Client\GameLib\MapOutdoorLoad.cpp
; File C:\Users\murat\Desktop\Siveps2-1-99-Project\source\client\Client\GameLib\MapBase.h
; File C:\Program Files (x86)\Microsoft Visual Studio\2019\Professional\VC\Tools\MSVC\14.29.30133\include\xstring
; File C:\Users\murat\Desktop\Siveps2-1-99-Project\source\client\Client\GameLib\MapOutdoorLoad.cpp
; File C:\Users\murat\Desktop\Siveps2-1-99-Project\source\client\Client\GameLib\MapBase.h
; File C:\Program Files (x86)\Microsoft Visual Studio\2019\Professional\VC\Tools\MSVC\14.29.30133\include\xstring
; File C:\Users\murat\Desktop\Siveps2-1-99-Project\source\client\Client\GameLib\MapOutdoorLoad.cpp
; File C:\Program Files (x86)\Microsoft Visual Studio\2019\Professional\VC\Tools\MSVC\14.29.30133\include\xstring
; File C:\Users\murat\Desktop\Siveps2-1-99-Project\source\client\Client\GameLib\MapOutdoorLoad.cpp
; File C:\Users\murat\Desktop\Siveps2-1-99-Project\source\client\Client\GameLib\AreaTerrain.h
; File C:\Program Files (x86)\Microsoft Visual Studio\2019\Professional\VC\Tools\MSVC\14.29.30133\include\xstring
; File C:\Users\murat\Desktop\Siveps2-1-99-Project\source\client\Client\GameLib\AreaTerrain.h
; File C:\Program Files (x86)\Microsoft Visual Studio\2019\Professional\VC\Tools\MSVC\14.29.30133\include\xstring
; File C:\Program Files (x86)\Microsoft Visual Studio\2019\Professional\VC\Tools\MSVC\14.29.30133\include\xmemory
; File C:\Program Files (x86)\Microsoft Visual Studio\2019\Professional\VC\Tools\MSVC\14.29.30133\include\xstring
; File C:\Program Files (x86)\Microsoft Visual Studio\2019\Professional\VC\Tools\MSVC\14.29.30133\include\xmemory
; File C:\Users\murat\Desktop\Siveps2-1-99-Project\source\client\Client\GameLib\MapOutdoorLoad.cpp
; File C:\Program Files (x86)\Microsoft Visual Studio\2019\Professional\VC\Tools\MSVC\14.29.30133\include\vector
; File C:\Users\murat\Desktop\Siveps2-1-99-Project\source\client\Client\GameLib\MapOutdoorLoad.cpp
; File C:\Program Files (x86)\Microsoft Visual Studio\2019\Professional\VC\Tools\MSVC\14.29.30133\include\vector
; File C:\Users\murat\Desktop\Siveps2-1-99-Project\source\client\Client\GameLib\MapOutdoorLoad.cpp
; File C:\Program Files (x86)\Microsoft Visual Studio\2019\Professional\VC\Tools\MSVC\14.29.30133\include\xtree
; File C:\Program Files (x86)\Microsoft Visual Studio\2019\Professional\VC\Tools\MSVC\14.29.30133\include\xmemory
; File C:\Users\murat\Desktop\Siveps2-1-99-Project\source\client\Client\GameLib\MapOutdoorLoad.cpp
; File C:\Program Files (x86)\Microsoft Visual Studio\2019\Professional\VC\Tools\MSVC\14.29.30133\include\xmemory
; File C:\Users\murat\Desktop\Siveps2-1-99-Project\source\client\Client\GameLib\MapOutdoorLoad.cpp
;	COMDAT ?LoadTerrain@CMapOutdoor@@MAE_NGGGG@Z
_TEXT	SEGMENT
_dwStartTime$1$ = -832					; size = 4
__Result$1$ = -828					; size = 4
_pTerrain$ = -824					; size = 4
$T2 = -824						; size = 4
tv3384 = -820						; size = 4
$T3 = -816						; size = 4
_stTokenVectorMap$ = -812				; size = 8
_ulID$1$ = -804						; size = 4
$T4 = -796						; size = 24
$T5 = -796						; size = 24
__Loc$6 = -784						; size = 12
$T7 = -772						; size = 24
$T8 = -772						; size = 24
$T9 = -772						; size = 24
_filename$ = -748					; size = 256
_szMiniMapTexName$ = -492				; size = 65
_szShadowMapName$ = -424				; size = 65
_szShadowTexName$ = -356				; size = 65
_szSplatName$ = -288					; size = 65
_szAttrMapName$ = -220					; size = 65
_szRawHeightFieldname$ = -152				; size = 65
_szWaterMapName$ = -84					; size = 65
__$ArrayPad$ = -16					; size = 4
__$EHRec$ = -12						; size = 12
_wTerrainCoordX$ = 8					; size = 2
_wTerrainCoordY$ = 12					; size = 2
_wCellCoordX$ = 16					; size = 2
_wCellCoordY$ = 20					; size = 2
?LoadTerrain@CMapOutdoor@@MAE_NGGGG@Z PROC		; CMapOutdoor::LoadTerrain, COMDAT
; _this$ = ecx

; 201  : {

  00000	55		 push	 ebp
  00001	8b ec		 mov	 ebp, esp
  00003	6a ff		 push	 -1
  00005	68 00 00 00 00	 push	 __ehhandler$?LoadTerrain@CMapOutdoor@@MAE_NGGGG@Z
  0000a	64 a1 00 00 00
	00		 mov	 eax, DWORD PTR fs:0
  00010	50		 push	 eax
  00011	81 ec 34 03 00
	00		 sub	 esp, 820		; 00000334H
  00017	a1 00 00 00 00	 mov	 eax, DWORD PTR ___security_cookie
  0001c	33 c5		 xor	 eax, ebp
  0001e	89 45 f0	 mov	 DWORD PTR __$ArrayPad$[ebp], eax
  00021	53		 push	 ebx
  00022	56		 push	 esi
  00023	57		 push	 edi
  00024	50		 push	 eax
  00025	8d 45 f4	 lea	 eax, DWORD PTR __$EHRec$[ebp]
  00028	64 a3 00 00 00
	00		 mov	 DWORD PTR fs:0, eax
  0002e	8b d9		 mov	 ebx, ecx

; 202  : 	if (isTerrainLoaded(wTerrainCoordX, wTerrainCoordY))

  00030	8b 75 0c	 mov	 esi, DWORD PTR _wTerrainCoordY$[ebp]
  00033	8b 7d 08	 mov	 edi, DWORD PTR _wTerrainCoordX$[ebp]
  00036	56		 push	 esi
  00037	57		 push	 edi
  00038	e8 00 00 00 00	 call	 ?isTerrainLoaded@CMapOutdoor@@IAE_NGG@Z ; CMapOutdoor::isTerrainLoaded
  0003d	84 c0		 test	 al, al
  0003f	74 07		 je	 SHORT $LN2@LoadTerrai

; 203  : 		return true;

  00041	b0 01		 mov	 al, 1
  00043	e9 a4 06 00 00	 jmp	 $LN1@LoadTerrai
$LN2@LoadTerrai:

; 204  : 
; 205  : 	//////////////////////////////////////////////////////////////////////////
; 206  : 	DWORD dwStartTime = ELTimer_GetMSec();

  00048	e8 00 00 00 00	 call	 ?ELTimer_GetMSec@@YAKXZ	; ELTimer_GetMSec

; 208  : 	unsigned long ulID = (unsigned long) (wTerrainCoordX) * 1000L + (unsigned long) (wTerrainCoordY);

  0004d	0f b7 cf	 movzx	 ecx, di
  00050	89 85 c0 fc ff
	ff		 mov	 DWORD PTR _dwStartTime$1$[ebp], eax
  00056	69 c1 e8 03 00
	00		 imul	 eax, ecx, 1000
  0005c	89 8d cc fc ff
	ff		 mov	 DWORD PTR tv3384[ebp], ecx
; File C:\Program Files (x86)\Microsoft Visual Studio\2019\Professional\VC\Tools\MSVC\14.29.30133\include\xstring

; 3922 :         return _Mypair._Myval2._Myptr();

  00062	33 c9		 xor	 ecx, ecx
; File C:\Users\murat\Desktop\Siveps2-1-99-Project\source\client\Client\GameLib\MapOutdoorLoad.cpp

; 208  : 	unsigned long ulID = (unsigned long) (wTerrainCoordX) * 1000L + (unsigned long) (wTerrainCoordY);

  00064	0f b7 d6	 movzx	 edx, si
  00067	03 c2		 add	 eax, edx
; File C:\Program Files (x86)\Microsoft Visual Studio\2019\Professional\VC\Tools\MSVC\14.29.30133\include\xstring

; 3922 :         return _Mypair._Myval2._Myptr();

  00069	3b 4b 30	 cmp	 ecx, DWORD PTR [ebx+48]
; File C:\Users\murat\Desktop\Siveps2-1-99-Project\source\client\Client\GameLib\MapOutdoorLoad.cpp

; 208  : 	unsigned long ulID = (unsigned long) (wTerrainCoordX) * 1000L + (unsigned long) (wTerrainCoordY);

  0006c	89 85 dc fc ff
	ff		 mov	 DWORD PTR _ulID$1$[ebp], eax
; File C:\Program Files (x86)\Microsoft Visual Studio\2019\Professional\VC\Tools\MSVC\14.29.30133\include\xstring

; 3922 :         return _Mypair._Myval2._Myptr();

  00072	1b c9		 sbb	 ecx, ecx
  00074	83 e1 18	 and	 ecx, 24			; 00000018H
  00077	83 c1 08	 add	 ecx, 8
  0007a	03 cb		 add	 ecx, ebx

; 2306 :         if (_Large_string_engaged()) {

  0007c	83 79 14 10	 cmp	 DWORD PTR [ecx+20], 16	; 00000010H
  00080	72 02		 jb	 SHORT $LN32@LoadTerrai

; 2307 :             _Result = _Unfancy(_Bx._Ptr);

  00082	8b 09		 mov	 ecx, DWORD PTR [ecx]
$LN32@LoadTerrai:
; File C:\Users\murat\Desktop\Siveps2-1-99-Project\source\client\Client\GameLib\MapOutdoorLoad.cpp

; 210  : 	sprintf(filename, "%s\\%06u\\AreaProperty.txt", GetMapDataDirectory().c_str(), ulID);

  00084	50		 push	 eax
  00085	51		 push	 ecx
  00086	8d 85 14 fd ff
	ff		 lea	 eax, DWORD PTR _filename$[ebp]
  0008c	68 00 00 00 00	 push	 OFFSET ??_C@_0BJ@PNPPDMHN@?$CFs?2?$CF06u?2AreaProperty?4txt@
  00091	50		 push	 eax
  00092	e8 00 00 00 00	 call	 _sprintf
; File C:\Program Files (x86)\Microsoft Visual Studio\2019\Professional\VC\Tools\MSVC\14.29.30133\include\xmemory

; 85   :         return ::operator new(_Bytes);

  00097	6a 34		 push	 52			; 00000034H
; File C:\Program Files (x86)\Microsoft Visual Studio\2019\Professional\VC\Tools\MSVC\14.29.30133\include\xtree

; 441  :     _Tree_val() noexcept : _Myhead(), _Mysize(0) {}

  00099	c7 85 d4 fc ff
	ff 00 00 00 00	 mov	 DWORD PTR _stTokenVectorMap$[ebp], 0
  000a3	c7 85 d8 fc ff
	ff 00 00 00 00	 mov	 DWORD PTR _stTokenVectorMap$[ebp+4], 0
; File C:\Program Files (x86)\Microsoft Visual Studio\2019\Professional\VC\Tools\MSVC\14.29.30133\include\xmemory

; 85   :         return ::operator new(_Bytes);

  000ad	e8 00 00 00 00	 call	 ??2@YAPAXI@Z		; operator new
; File C:\Program Files (x86)\Microsoft Visual Studio\2019\Professional\VC\Tools\MSVC\14.29.30133\include\xtree

; 350  :         _Construct_in_place(_Pnode->_Left, _Pnode);

  000b2	89 00		 mov	 DWORD PTR [eax], eax

; 351  :         _Construct_in_place(_Pnode->_Parent, _Pnode);

  000b4	89 40 04	 mov	 DWORD PTR [eax+4], eax

; 352  :         _Construct_in_place(_Pnode->_Right, _Pnode);

  000b7	89 40 08	 mov	 DWORD PTR [eax+8], eax

; 353  :         _Pnode->_Color = _Black;

  000ba	66 c7 40 0c 01
	01		 mov	 WORD PTR [eax+12], 257	; 00000101H

; 1925 :         _Scary->_Myhead = _Node::_Buyheadnode(_Getal());

  000c0	89 85 d4 fc ff
	ff		 mov	 DWORD PTR _stTokenVectorMap$[ebp], eax
; File C:\Users\murat\Desktop\Siveps2-1-99-Project\source\client\Client\GameLib\MapOutdoorLoad.cpp

; 214  : 	if (!LoadMultipleTextData(filename, stTokenVectorMap))

  000c6	8d 85 d4 fc ff
	ff		 lea	 eax, DWORD PTR _stTokenVectorMap$[ebp]
  000cc	c7 45 fc 00 00
	00 00		 mov	 DWORD PTR __$EHRec$[ebp+8], 0
  000d3	50		 push	 eax
  000d4	8d 85 14 fd ff
	ff		 lea	 eax, DWORD PTR _filename$[ebp]
  000da	50		 push	 eax
  000db	e8 00 00 00 00	 call	 ?LoadMultipleTextData@@YA_NPBDAAV?$map@V?$basic_string@DU?$char_traits@D@std@@V?$allocator@D@2@@std@@V?$vector@V?$basic_string@DU?$char_traits@D@std@@V?$allocator@D@2@@std@@V?$allocator@V?$basic_string@DU?$char_traits@D@std@@V?$allocator@D@2@@std@@@2@@2@U?$less@V?$basic_string@DU?$char_traits@D@std@@V?$allocator@D@2@@std@@@2@V?$allocator@U?$pair@$$CBV?$basic_string@DU?$char_traits@D@std@@V?$allocator@D@2@@std@@V?$vector@V?$basic_string@DU?$char_traits@D@std@@V?$allocator@D@2@@std@@V?$allocator@V?$basic_string@DU?$char_traits@D@std@@V?$allocator@D@2@@std@@@2@@2@@std@@@2@@std@@@Z ; LoadMultipleTextData
  000e0	83 c4 1c	 add	 esp, 28			; 0000001cH
  000e3	84 c0		 test	 al, al
  000e5	75 15		 jne	 SHORT $LN3@LoadTerrai

; 215  : 	{
; 216  : 		TraceError("CMapOutdoor::LoadTerrain AreaProperty Read Error\n");

  000e7	b8 00 00 00 00	 mov	 eax, OFFSET ??_C@_0DC@PJKFCPIK@CMapOutdoor?3?3LoadTerrain?5AreaPr@
  000ec	50		 push	 eax
  000ed	e8 00 00 00 00	 call	 ?TraceError@@YAXPBDZZ	; TraceError
  000f2	83 c4 04	 add	 esp, 4
  000f5	32 db		 xor	 bl, bl
  000f7	e9 c7 05 00 00	 jmp	 $LN22@LoadTerrai
$LN3@LoadTerrai:
; File C:\Program Files (x86)\Microsoft Visual Studio\2019\Professional\VC\Tools\MSVC\14.29.30133\include\xstring

; 122  :         _CSTD memmove(_First1, _First2, _Count * sizeof(_Elem));

  000fc	66 a1 08 00 00
	00		 mov	 ax, WORD PTR ??_C@_0L@PCFMFEAG@scripttype@+8
; File C:\Program Files (x86)\Microsoft Visual Studio\2019\Professional\VC\Tools\MSVC\14.29.30133\include\xtree

; 1361 :         const _Tree_find_result<_Nodeptr> _Loc = _Find_lower_bound(_Keyval);

  00102	8d 8d d4 fc ff
	ff		 lea	 ecx, DWORD PTR _stTokenVectorMap$[ebp]
; File C:\Program Files (x86)\Microsoft Visual Studio\2019\Professional\VC\Tools\MSVC\14.29.30133\include\xstring

; 122  :         _CSTD memmove(_First1, _First2, _Count * sizeof(_Elem));

  00108	f3 0f 7e 05 00
	00 00 00	 movq	 xmm0, QWORD PTR ??_C@_0L@PCFMFEAG@scripttype@
  00110	66 89 85 04 fd
	ff ff		 mov	 WORD PTR $T9[ebp+8], ax
; File C:\Program Files (x86)\Microsoft Visual Studio\2019\Professional\VC\Tools\MSVC\14.29.30133\include\xtree

; 1361 :         const _Tree_find_result<_Nodeptr> _Loc = _Find_lower_bound(_Keyval);

  00117	8d 85 fc fc ff
	ff		 lea	 eax, DWORD PTR $T9[ebp]
  0011d	50		 push	 eax
  0011e	8d 85 f0 fc ff
	ff		 lea	 eax, DWORD PTR __Loc$6[ebp]
; File C:\Program Files (x86)\Microsoft Visual Studio\2019\Professional\VC\Tools\MSVC\14.29.30133\include\xstring

; 4610 :             _My_data._Myres = _BUF_SIZE - 1;

  00124	c7 85 10 fd ff
	ff 0f 00 00 00	 mov	 DWORD PTR $T9[ebp+20], 15 ; 0000000fH
; File C:\Program Files (x86)\Microsoft Visual Studio\2019\Professional\VC\Tools\MSVC\14.29.30133\include\xtree

; 1361 :         const _Tree_find_result<_Nodeptr> _Loc = _Find_lower_bound(_Keyval);

  0012e	50		 push	 eax
; File C:\Program Files (x86)\Microsoft Visual Studio\2019\Professional\VC\Tools\MSVC\14.29.30133\include\xstring

; 3248 :             _Mypair._Myval2._Mysize = _Count;

  0012f	c7 85 0c fd ff
	ff 0a 00 00 00	 mov	 DWORD PTR $T9[ebp+16], 10 ; 0000000aH

; 122  :         _CSTD memmove(_First1, _First2, _Count * sizeof(_Elem));

  00139	66 0f d6 85 fc
	fc ff ff	 movq	 QWORD PTR $T9[ebp], xmm0

; 3250 :             _Traits::assign(_Old_ptr[_Count], _Elem());

  00141	c6 85 06 fd ff
	ff 00		 mov	 BYTE PTR $T9[ebp+10], 0
; File C:\Program Files (x86)\Microsoft Visual Studio\2019\Professional\VC\Tools\MSVC\14.29.30133\include\xtree

; 1361 :         const _Tree_find_result<_Nodeptr> _Loc = _Find_lower_bound(_Keyval);

  00148	e8 00 00 00 00	 call	 ??$_Find_lower_bound@V?$basic_string@DU?$char_traits@D@std@@V?$allocator@D@2@@std@@@?$_Tree@V?$_Tmap_traits@V?$basic_string@DU?$char_traits@D@std@@V?$allocator@D@2@@std@@V?$vector@V?$basic_string@DU?$char_traits@D@std@@V?$allocator@D@2@@std@@V?$allocator@V?$basic_string@DU?$char_traits@D@std@@V?$allocator@D@2@@std@@@2@@2@U?$less@V?$basic_string@DU?$char_traits@D@std@@V?$allocator@D@2@@std@@@2@V?$allocator@U?$pair@$$CBV?$basic_string@DU?$char_traits@D@std@@V?$allocator@D@2@@std@@V?$vector@V?$basic_string@DU?$char_traits@D@std@@V?$allocator@D@2@@std@@V?$allocator@V?$basic_string@DU?$char_traits@D@std@@V?$allocator@D@2@@std@@@2@@2@@std@@@2@$0A@@std@@@std@@IBE?AU?$_Tree_find_result@PAU?$_Tree_node@U?$pair@$$CBV?$basic_string@DU?$char_traits@D@std@@V?$allocator@D@2@@std@@V?$vector@V?$basic_string@DU?$char_traits@D@std@@V?$allocator@D@2@@std@@V?$allocator@V?$basic_string@DU?$char_traits@D@std@@V?$allocator@D@2@@std@@@2@@2@@std@@PAX@std@@@1@ABV?$basic_string@DU?$char_traits@D@std@@V?$allocator@D@2@@1@@Z ; std::_Tree<std::_Tmap_traits<std::basic_string<char,std::char_traits<char>,std::allocator<char> >,std::vector<std::basic_string<char,std::char_traits<char>,std::allocator<char> >,std::allocator<std::basic_string<char,std::char_traits<char>,std::allocator<char> > > >,std::less<std::basic_string<char,std::char_traits<char>,std::allocator<char> > >,std::allocator<std::pair<std::basic_string<char,std::char_traits<char>,std::allocator<char> > const ,std::vector<std::basic_string<char,std::char_traits<char>,std::allocator<char> >,std::allocator<std::basic_string<char,std::char_traits<char>,std::allocator<char> > > > > >,0> >::_Find_lower_bound<std::basic_string<char,std::char_traits<char>,std::allocator<char> > >

; 1599 :         return !_Bound->_Isnil && !_DEBUG_LT_PRED(_Getcomp(), _Keyval, _Traits::_Kfn(_Bound->_Myval));

  0014d	8b b5 f8 fc ff
	ff		 mov	 esi, DWORD PTR __Loc$6[ebp+8]
  00153	8b bd d4 fc ff
	ff		 mov	 edi, DWORD PTR _stTokenVectorMap$[ebp]
  00159	80 7e 0d 00	 cmp	 BYTE PTR [esi+13], 0
  0015d	75 17		 jne	 SHORT $LN143@LoadTerrai
  0015f	8d 46 10	 lea	 eax, DWORD PTR [esi+16]
; File C:\Program Files (x86)\Microsoft Visual Studio\2019\Professional\VC\Tools\MSVC\14.29.30133\include\xstddef

; 127  :         return _Left < _Right;

  00162	50		 push	 eax
  00163	8d 85 fc fc ff
	ff		 lea	 eax, DWORD PTR $T9[ebp]
  00169	50		 push	 eax
  0016a	e8 00 00 00 00	 call	 ??$?MDU?$char_traits@D@std@@V?$allocator@D@1@@std@@YA_NABV?$basic_string@DU?$char_traits@D@std@@V?$allocator@D@2@@0@0@Z ; std::operator<<char,std::char_traits<char>,std::allocator<char> >
  0016f	83 c4 08	 add	 esp, 8
; File C:\Program Files (x86)\Microsoft Visual Studio\2019\Professional\VC\Tools\MSVC\14.29.30133\include\xtree

; 1599 :         return !_Bound->_Isnil && !_DEBUG_LT_PRED(_Getcomp(), _Keyval, _Traits::_Kfn(_Bound->_Myval));

  00172	84 c0		 test	 al, al
  00174	74 02		 je	 SHORT $LN142@LoadTerrai
$LN143@LoadTerrai:

; 1366 :         return _Get_scary()->_Myhead;

  00176	8b f7		 mov	 esi, edi
$LN142@LoadTerrai:

; 236  :         return this->_Ptr == _Right._Ptr;

  00178	3b fe		 cmp	 edi, esi
; File C:\Program Files (x86)\Microsoft Visual Studio\2019\Professional\VC\Tools\MSVC\14.29.30133\include\xstring

; 4618 :         if (_Mypair._Myval2._Large_string_engaged()) {

  0017a	ba 0f 00 00 00	 mov	 edx, 15			; 0000000fH
; File C:\Program Files (x86)\Microsoft Visual Studio\2019\Professional\VC\Tools\MSVC\14.29.30133\include\xtree

; 236  :         return this->_Ptr == _Right._Ptr;

  0017f	0f 94 c0	 sete	 al
; File C:\Users\murat\Desktop\Siveps2-1-99-Project\source\client\Client\GameLib\MapOutdoorLoad.cpp

; 220  : 	if (stTokenVectorMap.end() == stTokenVectorMap.find("scripttype"))

  00182	84 c0		 test	 al, al
  00184	74 15		 je	 SHORT $LN4@LoadTerrai

; 221  : 	{
; 222  : 		TraceError("CMapOutdoor::LoadTerrain AreaProperty FileFormat Error 1\n");
; 223  : 		return false;

  00186	b8 00 00 00 00	 mov	 eax, OFFSET ??_C@_0DK@IGMBLPHB@CMapOutdoor?3?3LoadTerrain?5AreaPr@
  0018b	50		 push	 eax
  0018c	e8 00 00 00 00	 call	 ?TraceError@@YAXPBDZZ	; TraceError
  00191	83 c4 04	 add	 esp, 4
  00194	32 db		 xor	 bl, bl
  00196	e9 28 05 00 00	 jmp	 $LN22@LoadTerrai
$LN4@LoadTerrai:
; File C:\Program Files (x86)\Microsoft Visual Studio\2019\Professional\VC\Tools\MSVC\14.29.30133\include\xstring

; 122  :         _CSTD memmove(_First1, _First2, _Count * sizeof(_Elem));

  0019b	a1 04 00 00 00	 mov	 eax, DWORD PTR ??_C@_08FLKAMJDN@areaname@+4
; File C:\Users\murat\Desktop\Siveps2-1-99-Project\source\client\Client\GameLib\MapOutdoorLoad.cpp

; 226  : 	if (stTokenVectorMap.end() == stTokenVectorMap.find("areaname"))

  001a0	8d 8d d4 fc ff
	ff		 lea	 ecx, DWORD PTR _stTokenVectorMap$[ebp]
; File C:\Program Files (x86)\Microsoft Visual Studio\2019\Professional\VC\Tools\MSVC\14.29.30133\include\xstring

; 122  :         _CSTD memmove(_First1, _First2, _Count * sizeof(_Elem));

  001a6	8b 35 00 00 00
	00		 mov	 esi, DWORD PTR ??_C@_08FLKAMJDN@areaname@
  001ac	89 85 00 fd ff
	ff		 mov	 DWORD PTR $T8[ebp+4], eax
; File C:\Users\murat\Desktop\Siveps2-1-99-Project\source\client\Client\GameLib\MapOutdoorLoad.cpp

; 226  : 	if (stTokenVectorMap.end() == stTokenVectorMap.find("areaname"))

  001b2	8d 85 fc fc ff
	ff		 lea	 eax, DWORD PTR $T8[ebp]
  001b8	50		 push	 eax
  001b9	8d 85 c8 fc ff
	ff		 lea	 eax, DWORD PTR $T2[ebp]
; File C:\Program Files (x86)\Microsoft Visual Studio\2019\Professional\VC\Tools\MSVC\14.29.30133\include\xstring

; 4610 :             _My_data._Myres = _BUF_SIZE - 1;

  001bf	89 95 10 fd ff
	ff		 mov	 DWORD PTR $T8[ebp+20], edx
; File C:\Users\murat\Desktop\Siveps2-1-99-Project\source\client\Client\GameLib\MapOutdoorLoad.cpp

; 226  : 	if (stTokenVectorMap.end() == stTokenVectorMap.find("areaname"))

  001c5	50		 push	 eax
; File C:\Program Files (x86)\Microsoft Visual Studio\2019\Professional\VC\Tools\MSVC\14.29.30133\include\xstring

; 3248 :             _Mypair._Myval2._Mysize = _Count;

  001c6	c7 85 0c fd ff
	ff 08 00 00 00	 mov	 DWORD PTR $T8[ebp+16], 8

; 122  :         _CSTD memmove(_First1, _First2, _Count * sizeof(_Elem));

  001d0	89 b5 fc fc ff
	ff		 mov	 DWORD PTR $T8[ebp], esi

; 3250 :             _Traits::assign(_Old_ptr[_Count], _Elem());

  001d6	c6 85 04 fd ff
	ff 00		 mov	 BYTE PTR $T8[ebp+8], 0
; File C:\Users\murat\Desktop\Siveps2-1-99-Project\source\client\Client\GameLib\MapOutdoorLoad.cpp

; 226  : 	if (stTokenVectorMap.end() == stTokenVectorMap.find("areaname"))

  001dd	e8 00 00 00 00	 call	 ?find@?$_Tree@V?$_Tmap_traits@V?$basic_string@DU?$char_traits@D@std@@V?$allocator@D@2@@std@@V?$vector@V?$basic_string@DU?$char_traits@D@std@@V?$allocator@D@2@@std@@V?$allocator@V?$basic_string@DU?$char_traits@D@std@@V?$allocator@D@2@@std@@@2@@2@U?$less@V?$basic_string@DU?$char_traits@D@std@@V?$allocator@D@2@@std@@@2@V?$allocator@U?$pair@$$CBV?$basic_string@DU?$char_traits@D@std@@V?$allocator@D@2@@std@@V?$vector@V?$basic_string@DU?$char_traits@D@std@@V?$allocator@D@2@@std@@V?$allocator@V?$basic_string@DU?$char_traits@D@std@@V?$allocator@D@2@@std@@@2@@2@@std@@@2@$0A@@std@@@std@@QAE?AV?$_Tree_iterator@V?$_Tree_val@U?$_Tree_simple_types@U?$pair@$$CBV?$basic_string@DU?$char_traits@D@std@@V?$allocator@D@2@@std@@V?$vector@V?$basic_string@DU?$char_traits@D@std@@V?$allocator@D@2@@std@@V?$allocator@V?$basic_string@DU?$char_traits@D@std@@V?$allocator@D@2@@std@@@2@@2@@std@@@std@@@std@@@2@ABV?$basic_string@DU?$char_traits@D@std@@V?$allocator@D@2@@2@@Z ; std::_Tree<std::_Tmap_traits<std::basic_string<char,std::char_traits<char>,std::allocator<char> >,std::vector<std::basic_string<char,std::char_traits<char>,std::allocator<char> >,std::allocator<std::basic_string<char,std::char_traits<char>,std::allocator<char> > > >,std::less<std::basic_string<char,std::char_traits<char>,std::allocator<char> > >,std::allocator<std::pair<std::basic_string<char,std::char_traits<char>,std::allocator<char> > const ,std::vector<std::basic_string<char,std::char_traits<char>,std::allocator<char> >,std::allocator<std::basic_string<char,std::char_traits<char>,std::allocator<char> > > > > >,0> >::find
; File C:\Program Files (x86)\Microsoft Visual Studio\2019\Professional\VC\Tools\MSVC\14.29.30133\include\xstring

; 4618 :         if (_Mypair._Myval2._Large_string_engaged()) {

  001e2	b9 0f 00 00 00	 mov	 ecx, 15			; 0000000fH
; File C:\Program Files (x86)\Microsoft Visual Studio\2019\Professional\VC\Tools\MSVC\14.29.30133\include\xtree

; 236  :         return this->_Ptr == _Right._Ptr;

  001e7	3b 38		 cmp	 edi, DWORD PTR [eax]
  001e9	0f 94 c0	 sete	 al
; File C:\Users\murat\Desktop\Siveps2-1-99-Project\source\client\Client\GameLib\MapOutdoorLoad.cpp

; 226  : 	if (stTokenVectorMap.end() == stTokenVectorMap.find("areaname"))

  001ec	84 c0		 test	 al, al
  001ee	74 15		 je	 SHORT $LN5@LoadTerrai

; 227  : 	{
; 228  : 		TraceError("CMapOutdoor::LoadTerrain AreaProperty FileFormat Error 2\n");
; 229  : 		return false;

  001f0	b8 00 00 00 00	 mov	 eax, OFFSET ??_C@_0DK@IEIHABCI@CMapOutdoor?3?3LoadTerrain?5AreaPr@
  001f5	50		 push	 eax
  001f6	e8 00 00 00 00	 call	 ?TraceError@@YAXPBDZZ	; TraceError
  001fb	83 c4 04	 add	 esp, 4
  001fe	32 db		 xor	 bl, bl
  00200	e9 be 04 00 00	 jmp	 $LN22@LoadTerrai
$LN5@LoadTerrai:
; File C:\Program Files (x86)\Microsoft Visual Studio\2019\Professional\VC\Tools\MSVC\14.29.30133\include\xstring

; 122  :         _CSTD memmove(_First1, _First2, _Count * sizeof(_Elem));

  00205	f3 0f 7e 05 00
	00 00 00	 movq	 xmm0, QWORD PTR ??_C@_0L@PCFMFEAG@scripttype@
  0020d	66 a1 08 00 00
	00		 mov	 ax, WORD PTR ??_C@_0L@PCFMFEAG@scripttype@+8

; 4610 :             _My_data._Myres = _BUF_SIZE - 1;

  00213	89 8d f8 fc ff
	ff		 mov	 DWORD PTR $T5[ebp+20], ecx

; 3248 :             _Mypair._Myval2._Mysize = _Count;

  00219	c7 85 f4 fc ff
	ff 0a 00 00 00	 mov	 DWORD PTR $T5[ebp+16], 10 ; 0000000aH

; 122  :         _CSTD memmove(_First1, _First2, _Count * sizeof(_Elem));

  00223	66 0f d6 85 e4
	fc ff ff	 movq	 QWORD PTR $T5[ebp], xmm0
  0022b	66 89 85 ec fc
	ff ff		 mov	 WORD PTR $T5[ebp+8], ax

; 3250 :             _Traits::assign(_Old_ptr[_Count], _Elem());

  00232	c6 85 ee fc ff
	ff 00		 mov	 BYTE PTR $T5[ebp+10], 0
; File C:\Users\murat\Desktop\Siveps2-1-99-Project\source\client\Client\GameLib\MapOutdoorLoad.cpp

; 232  : 	const std::string & c_rstrType = stTokenVectorMap["scripttype"][0];

  00239	8d 85 e4 fc ff
	ff		 lea	 eax, DWORD PTR $T5[ebp]
  0023f	c6 45 fc 01	 mov	 BYTE PTR __$EHRec$[ebp+8], 1
  00243	50		 push	 eax
  00244	8d 8d d4 fc ff
	ff		 lea	 ecx, DWORD PTR _stTokenVectorMap$[ebp]
  0024a	e8 00 00 00 00	 call	 ??A?$map@V?$basic_string@DU?$char_traits@D@std@@V?$allocator@D@2@@std@@V?$vector@V?$basic_string@DU?$char_traits@D@std@@V?$allocator@D@2@@std@@V?$allocator@V?$basic_string@DU?$char_traits@D@std@@V?$allocator@D@2@@std@@@2@@2@U?$less@V?$basic_string@DU?$char_traits@D@std@@V?$allocator@D@2@@std@@@2@V?$allocator@U?$pair@$$CBV?$basic_string@DU?$char_traits@D@std@@V?$allocator@D@2@@std@@V?$vector@V?$basic_string@DU?$char_traits@D@std@@V?$allocator@D@2@@std@@V?$allocator@V?$basic_string@DU?$char_traits@D@std@@V?$allocator@D@2@@std@@@2@@2@@std@@@2@@std@@QAEAAV?$vector@V?$basic_string@DU?$char_traits@D@std@@V?$allocator@D@2@@std@@V?$allocator@V?$basic_string@DU?$char_traits@D@std@@V?$allocator@D@2@@std@@@2@@1@$$QAV?$basic_string@DU?$char_traits@D@std@@V?$allocator@D@2@@1@@Z ; std::map<std::basic_string<char,std::char_traits<char>,std::allocator<char> >,std::vector<std::basic_string<char,std::char_traits<char>,std::allocator<char> >,std::allocator<std::basic_string<char,std::char_traits<char>,std::allocator<char> > > >,std::less<std::basic_string<char,std::char_traits<char>,std::allocator<char> > >,std::allocator<std::pair<std::basic_string<char,std::char_traits<char>,std::allocator<char> > const ,std::vector<std::basic_string<char,std::char_traits<char>,std::allocator<char> >,std::allocator<std::basic_string<char,std::char_traits<char>,std::allocator<char> > > > > > >::operator[]
; File C:\Program Files (x86)\Microsoft Visual Studio\2019\Professional\VC\Tools\MSVC\14.29.30133\include\xstring

; 4618 :         if (_Mypair._Myval2._Large_string_engaged()) {

  0024f	8b 95 f8 fc ff
	ff		 mov	 edx, DWORD PTR $T5[ebp+20]
; File C:\Users\murat\Desktop\Siveps2-1-99-Project\source\client\Client\GameLib\MapOutdoorLoad.cpp

; 232  : 	const std::string & c_rstrType = stTokenVectorMap["scripttype"][0];

  00255	c6 45 fc 00	 mov	 BYTE PTR __$EHRec$[ebp+8], 0
; File C:\Program Files (x86)\Microsoft Visual Studio\2019\Professional\VC\Tools\MSVC\14.29.30133\include\vector

; 1569 :         return _My_data._Myfirst[_Pos];

  00259	8b 30		 mov	 esi, DWORD PTR [eax]
; File C:\Program Files (x86)\Microsoft Visual Studio\2019\Professional\VC\Tools\MSVC\14.29.30133\include\xstring

; 4618 :         if (_Mypair._Myval2._Large_string_engaged()) {

  0025b	83 fa 10	 cmp	 edx, 16			; 00000010H
  0025e	72 2f		 jb	 SHORT $LN389@LoadTerrai
; File C:\Program Files (x86)\Microsoft Visual Studio\2019\Professional\VC\Tools\MSVC\14.29.30133\include\xmemory

; 835  :         _Deallocate<_New_alignof<_Ty>>(_Ptr, sizeof(_Ty) * _Count);

  00260	8b 8d e4 fc ff
	ff		 mov	 ecx, DWORD PTR $T5[ebp]
; File C:\Program Files (x86)\Microsoft Visual Studio\2019\Professional\VC\Tools\MSVC\14.29.30133\include\xstring

; 4622 :             _Al.deallocate(_Ptr, _Mypair._Myval2._Myres + 1);

  00266	42		 inc	 edx
; File C:\Program Files (x86)\Microsoft Visual Studio\2019\Professional\VC\Tools\MSVC\14.29.30133\include\xmemory

; 835  :         _Deallocate<_New_alignof<_Ty>>(_Ptr, sizeof(_Ty) * _Count);

  00267	8b c1		 mov	 eax, ecx

; 260  :         if (_Bytes >= _Big_allocation_threshold) { // boost the alignment of big allocations to help autovectorization

  00269	81 fa 00 10 00
	00		 cmp	 edx, 4096		; 00001000H
  0026f	72 14		 jb	 SHORT $LN399@LoadTerrai

; 158  :     const uintptr_t _Ptr_container   = _Ptr_user[-1];

  00271	8b 49 fc	 mov	 ecx, DWORD PTR [ecx-4]
  00274	83 c2 23	 add	 edx, 35			; 00000023H
  00277	2b c1		 sub	 eax, ecx

; 172  :     _STL_VERIFY(_Back_shift >= _Min_back_shift && _Back_shift <= _Non_user_size, "invalid argument");

  00279	83 c0 fc	 add	 eax, -4			; fffffffcH
  0027c	83 f8 1f	 cmp	 eax, 31			; 0000001fH
  0027f	0f 87 85 04 00
	00		 ja	 $LN688@LoadTerrai
$LN399@LoadTerrai:

; 264  :         ::operator delete(_Ptr, _Bytes);

  00285	52		 push	 edx
  00286	51		 push	 ecx
  00287	e8 00 00 00 00	 call	 ??3@YAXPAXI@Z		; operator delete
  0028c	83 c4 08	 add	 esp, 8
$LN389@LoadTerrai:
; File C:\Program Files (x86)\Microsoft Visual Studio\2019\Professional\VC\Tools\MSVC\14.29.30133\include\xstring

; 122  :         _CSTD memmove(_First1, _First2, _Count * sizeof(_Elem));

  0028f	a1 00 00 00 00	 mov	 eax, DWORD PTR ??_C@_08FLKAMJDN@areaname@
  00294	8b 0d 04 00 00
	00		 mov	 ecx, DWORD PTR ??_C@_08FLKAMJDN@areaname@+4

; 4633 :             _Mypair._Myval2._Mysize = 0;

  0029a	c7 85 f4 fc ff
	ff 00 00 00 00	 mov	 DWORD PTR $T5[ebp+16], 0

; 4634 :             _Mypair._Myval2._Myres  = _BUF_SIZE - 1;

  002a4	c7 85 f8 fc ff
	ff 0f 00 00 00	 mov	 DWORD PTR $T5[ebp+20], 15 ; 0000000fH

; 4635 :             // the _Traits::assign is last so the codegen doesn't think the char write can alias this
; 4636 :             _Traits::assign(_Mypair._Myval2._Bx._Buf[0], _Elem());

  002ae	c6 85 e4 fc ff
	ff 00		 mov	 BYTE PTR $T5[ebp], 0

; 4610 :             _My_data._Myres = _BUF_SIZE - 1;

  002b5	c7 85 10 fd ff
	ff 0f 00 00 00	 mov	 DWORD PTR $T7[ebp+20], 15 ; 0000000fH

; 3248 :             _Mypair._Myval2._Mysize = _Count;

  002bf	c7 85 0c fd ff
	ff 08 00 00 00	 mov	 DWORD PTR $T7[ebp+16], 8

; 122  :         _CSTD memmove(_First1, _First2, _Count * sizeof(_Elem));

  002c9	89 85 fc fc ff
	ff		 mov	 DWORD PTR $T7[ebp], eax
  002cf	89 8d 00 fd ff
	ff		 mov	 DWORD PTR $T7[ebp+4], ecx

; 3250 :             _Traits::assign(_Old_ptr[_Count], _Elem());

  002d5	c6 85 04 fd ff
	ff 00		 mov	 BYTE PTR $T7[ebp+8], 0
; File C:\Users\murat\Desktop\Siveps2-1-99-Project\source\client\Client\GameLib\MapOutdoorLoad.cpp

; 233  : 	const std::string & c_rstrAreaName = stTokenVectorMap["areaname"][0];

  002dc	8d 85 fc fc ff
	ff		 lea	 eax, DWORD PTR $T7[ebp]
  002e2	c6 45 fc 02	 mov	 BYTE PTR __$EHRec$[ebp+8], 2
  002e6	50		 push	 eax
  002e7	8d 8d d4 fc ff
	ff		 lea	 ecx, DWORD PTR _stTokenVectorMap$[ebp]
  002ed	e8 00 00 00 00	 call	 ??A?$map@V?$basic_string@DU?$char_traits@D@std@@V?$allocator@D@2@@std@@V?$vector@V?$basic_string@DU?$char_traits@D@std@@V?$allocator@D@2@@std@@V?$allocator@V?$basic_string@DU?$char_traits@D@std@@V?$allocator@D@2@@std@@@2@@2@U?$less@V?$basic_string@DU?$char_traits@D@std@@V?$allocator@D@2@@std@@@2@V?$allocator@U?$pair@$$CBV?$basic_string@DU?$char_traits@D@std@@V?$allocator@D@2@@std@@V?$vector@V?$basic_string@DU?$char_traits@D@std@@V?$allocator@D@2@@std@@V?$allocator@V?$basic_string@DU?$char_traits@D@std@@V?$allocator@D@2@@std@@@2@@2@@std@@@2@@std@@QAEAAV?$vector@V?$basic_string@DU?$char_traits@D@std@@V?$allocator@D@2@@std@@V?$allocator@V?$basic_string@DU?$char_traits@D@std@@V?$allocator@D@2@@std@@@2@@1@$$QAV?$basic_string@DU?$char_traits@D@std@@V?$allocator@D@2@@1@@Z ; std::map<std::basic_string<char,std::char_traits<char>,std::allocator<char> >,std::vector<std::basic_string<char,std::char_traits<char>,std::allocator<char> >,std::allocator<std::basic_string<char,std::char_traits<char>,std::allocator<char> > > >,std::less<std::basic_string<char,std::char_traits<char>,std::allocator<char> > >,std::allocator<std::pair<std::basic_string<char,std::char_traits<char>,std::allocator<char> > const ,std::vector<std::basic_string<char,std::char_traits<char>,std::allocator<char> >,std::allocator<std::basic_string<char,std::char_traits<char>,std::allocator<char> > > > > > >::operator[]
; File C:\Program Files (x86)\Microsoft Visual Studio\2019\Professional\VC\Tools\MSVC\14.29.30133\include\xstring

; 4618 :         if (_Mypair._Myval2._Large_string_engaged()) {

  002f2	8b 95 10 fd ff
	ff		 mov	 edx, DWORD PTR $T7[ebp+20]
; File C:\Users\murat\Desktop\Siveps2-1-99-Project\source\client\Client\GameLib\MapOutdoorLoad.cpp

; 233  : 	const std::string & c_rstrAreaName = stTokenVectorMap["areaname"][0];

  002f8	c6 45 fc 00	 mov	 BYTE PTR __$EHRec$[ebp+8], 0
; File C:\Program Files (x86)\Microsoft Visual Studio\2019\Professional\VC\Tools\MSVC\14.29.30133\include\vector

; 1569 :         return _My_data._Myfirst[_Pos];

  002fc	8b 00		 mov	 eax, DWORD PTR [eax]
  002fe	89 85 c4 fc ff
	ff		 mov	 DWORD PTR __Result$1$[ebp], eax
; File C:\Program Files (x86)\Microsoft Visual Studio\2019\Professional\VC\Tools\MSVC\14.29.30133\include\xstring

; 4618 :         if (_Mypair._Myval2._Large_string_engaged()) {

  00304	83 fa 10	 cmp	 edx, 16			; 00000010H
  00307	72 2f		 jb	 SHORT $LN490@LoadTerrai
; File C:\Program Files (x86)\Microsoft Visual Studio\2019\Professional\VC\Tools\MSVC\14.29.30133\include\xmemory

; 835  :         _Deallocate<_New_alignof<_Ty>>(_Ptr, sizeof(_Ty) * _Count);

  00309	8b 8d fc fc ff
	ff		 mov	 ecx, DWORD PTR $T7[ebp]
; File C:\Program Files (x86)\Microsoft Visual Studio\2019\Professional\VC\Tools\MSVC\14.29.30133\include\xstring

; 4622 :             _Al.deallocate(_Ptr, _Mypair._Myval2._Myres + 1);

  0030f	42		 inc	 edx
; File C:\Program Files (x86)\Microsoft Visual Studio\2019\Professional\VC\Tools\MSVC\14.29.30133\include\xmemory

; 835  :         _Deallocate<_New_alignof<_Ty>>(_Ptr, sizeof(_Ty) * _Count);

  00310	8b c1		 mov	 eax, ecx

; 260  :         if (_Bytes >= _Big_allocation_threshold) { // boost the alignment of big allocations to help autovectorization

  00312	81 fa 00 10 00
	00		 cmp	 edx, 4096		; 00001000H
  00318	72 14		 jb	 SHORT $LN500@LoadTerrai

; 158  :     const uintptr_t _Ptr_container   = _Ptr_user[-1];

  0031a	8b 49 fc	 mov	 ecx, DWORD PTR [ecx-4]
  0031d	83 c2 23	 add	 edx, 35			; 00000023H
  00320	2b c1		 sub	 eax, ecx

; 172  :     _STL_VERIFY(_Back_shift >= _Min_back_shift && _Back_shift <= _Non_user_size, "invalid argument");

  00322	83 c0 fc	 add	 eax, -4			; fffffffcH
  00325	83 f8 1f	 cmp	 eax, 31			; 0000001fH
  00328	0f 87 e1 03 00
	00		 ja	 $LN689@LoadTerrai
$LN500@LoadTerrai:

; 264  :         ::operator delete(_Ptr, _Bytes);

  0032e	52		 push	 edx
  0032f	51		 push	 ecx
  00330	e8 00 00 00 00	 call	 ??3@YAXPAXI@Z		; operator delete
  00335	83 c4 08	 add	 esp, 8
$LN490@LoadTerrai:
; File C:\Users\murat\Desktop\Siveps2-1-99-Project\source\client\Client\GameLib\MapOutdoorLoad.cpp

; 235  : 	if (c_rstrType != "AreaProperty")

  00338	68 00 00 00 00	 push	 OFFSET ??_C@_0N@JAFNMPED@AreaProperty@
  0033d	56		 push	 esi
; File C:\Program Files (x86)\Microsoft Visual Studio\2019\Professional\VC\Tools\MSVC\14.29.30133\include\xstring

; 4633 :             _Mypair._Myval2._Mysize = 0;

  0033e	c7 85 0c fd ff
	ff 00 00 00 00	 mov	 DWORD PTR $T7[ebp+16], 0

; 4634 :             _Mypair._Myval2._Myres  = _BUF_SIZE - 1;

  00348	c7 85 10 fd ff
	ff 0f 00 00 00	 mov	 DWORD PTR $T7[ebp+20], 15 ; 0000000fH

; 4635 :             // the _Traits::assign is last so the codegen doesn't think the char write can alias this
; 4636 :             _Traits::assign(_Mypair._Myval2._Bx._Buf[0], _Elem());

  00352	c6 85 fc fc ff
	ff 00		 mov	 BYTE PTR $T7[ebp], 0
; File C:\Users\murat\Desktop\Siveps2-1-99-Project\source\client\Client\GameLib\MapOutdoorLoad.cpp

; 235  : 	if (c_rstrType != "AreaProperty")

  00359	e8 00 00 00 00	 call	 ??$?9DU?$char_traits@D@std@@V?$allocator@D@1@@std@@YA_NABV?$basic_string@DU?$char_traits@D@std@@V?$allocator@D@2@@0@QBD@Z ; std::operator!=<char,std::char_traits<char>,std::allocator<char> >
  0035e	83 c4 08	 add	 esp, 8
  00361	84 c0		 test	 al, al
  00363	74 15		 je	 SHORT $LN6@LoadTerrai

; 236  : 	{
; 237  : 		TraceError("CMapOutdoor::LoadTerrain AreaProperty FileFormat Error 3\n");
; 238  : 		return false;

  00365	b8 00 00 00 00	 mov	 eax, OFFSET ??_C@_0DK@IFEFGLBP@CMapOutdoor?3?3LoadTerrain?5AreaPr@
  0036a	50		 push	 eax
  0036b	e8 00 00 00 00	 call	 ?TraceError@@YAXPBDZZ	; TraceError
  00370	83 c4 04	 add	 esp, 4
  00373	32 db		 xor	 bl, bl
  00375	e9 49 03 00 00	 jmp	 $LN22@LoadTerrai
$LN6@LoadTerrai:

; 239  : 	}
; 240  : 
; 241  : 	CTerrain * pTerrain = CTerrain::New();

  0037a	e8 00 00 00 00	 call	 ?New@CTerrain@@SAPAV1@XZ ; CTerrain::New
  0037f	8b f0		 mov	 esi, eax

; 242  : 
; 243  : 	pTerrain->Clear();

  00381	8b ce		 mov	 ecx, esi
  00383	89 b5 c8 fc ff
	ff		 mov	 DWORD PTR _pTerrain$[ebp], esi
  00389	8b 16		 mov	 edx, DWORD PTR [esi]
  0038b	ff 52 04	 call	 DWORD PTR [edx+4]

; 244  : 	pTerrain->SetMapOutDoor(this);

  0038e	53		 push	 ebx
  0038f	8b ce		 mov	 ecx, esi
  00391	e8 00 00 00 00	 call	 ?SetMapOutDoor@CTerrain@@QAEXPAVCMapOutdoor@@@Z ; CTerrain::SetMapOutDoor

; 245  : 
; 246  : 	pTerrain->SetCoordinate(wTerrainCoordX, wTerrainCoordY);

  00396	ff 75 0c	 push	 DWORD PTR _wTerrainCoordY$[ebp]
  00399	8b ce		 mov	 ecx, esi
  0039b	ff 75 08	 push	 DWORD PTR _wTerrainCoordX$[ebp]
  0039e	e8 00 00 00 00	 call	 ?SetCoordinate@CTerrain@@QAEXGG@Z ; CTerrain::SetCoordinate

; 247  : 
; 248  : 	pTerrain->CopySettingFromGlobalSetting();

  003a3	8b ce		 mov	 ecx, esi
  003a5	e8 00 00 00 00	 call	 ?CopySettingFromGlobalSetting@CTerrain@@QAEXXZ ; CTerrain::CopySettingFromGlobalSetting
; File C:\Program Files (x86)\Microsoft Visual Studio\2019\Professional\VC\Tools\MSVC\14.29.30133\include\xstring

; 2305 :         const value_type* _Result = _Bx._Buf;

  003aa	33 c0		 xor	 eax, eax
; File C:\Users\murat\Desktop\Siveps2-1-99-Project\source\client\Client\GameLib\MapBase.h

; 53   : 		bool IsCopiedMap() const { return m_strParentMapName.length() > 0; }		// "   "  ?

  003ac	8d 7b 08	 lea	 edi, DWORD PTR [ebx+8]
; File C:\Program Files (x86)\Microsoft Visual Studio\2019\Professional\VC\Tools\MSVC\14.29.30133\include\xstring

; 2305 :         const value_type* _Result = _Bx._Buf;

  003af	3b 43 30	 cmp	 eax, DWORD PTR [ebx+48]
  003b2	1b c0		 sbb	 eax, eax
  003b4	83 e0 18	 and	 eax, 24			; 00000018H
  003b7	83 c0 08	 add	 eax, 8
  003ba	03 c3		 add	 eax, ebx

; 2306 :         if (_Large_string_engaged()) {

  003bc	83 78 14 10	 cmp	 DWORD PTR [eax+20], 16	; 00000010H
  003c0	72 02		 jb	 SHORT $LN514@LoadTerrai

; 2307 :             _Result = _Unfancy(_Bx._Ptr);

  003c2	8b 00		 mov	 eax, DWORD PTR [eax]
$LN514@LoadTerrai:
; File C:\Users\murat\Desktop\Siveps2-1-99-Project\source\client\Client\GameLib\MapOutdoorLoad.cpp

; 258  : 	_snprintf(szRawHeightFieldname, sizeof(szRawHeightFieldname), "%s\\%06u\\height.raw", GetMapDataDirectory().c_str(), ulID);

  003c4	ff b5 dc fc ff
	ff		 push	 DWORD PTR _ulID$1$[ebp]
  003ca	50		 push	 eax
  003cb	68 00 00 00 00	 push	 OFFSET ??_C@_0BD@OEBGBMHL@?$CFs?2?$CF06u?2height?4raw@
  003d0	8d 85 68 ff ff
	ff		 lea	 eax, DWORD PTR _szRawHeightFieldname$[ebp]
  003d6	6a 41		 push	 65			; 00000041H
  003d8	50		 push	 eax
  003d9	e8 00 00 00 00	 call	 __snprintf
  003de	83 c4 14	 add	 esp, 20			; 00000014H
; File C:\Users\murat\Desktop\Siveps2-1-99-Project\source\client\Client\GameLib\MapBase.h

; 55   : 		const std::string& GetMapDataDirectory() const { return IsCopiedMap() ? m_strParentMapName : m_strName; }

  003e1	8d 43 20	 lea	 eax, DWORD PTR [ebx+32]

; 53   : 		bool IsCopiedMap() const { return m_strParentMapName.length() > 0; }		// "   "  ?

  003e4	83 7b 30 00	 cmp	 DWORD PTR [ebx+48], 0

; 55   : 		const std::string& GetMapDataDirectory() const { return IsCopiedMap() ? m_strParentMapName : m_strName; }

  003e8	8b cf		 mov	 ecx, edi
  003ea	0f 47 c8	 cmova	 ecx, eax
; File C:\Program Files (x86)\Microsoft Visual Studio\2019\Professional\VC\Tools\MSVC\14.29.30133\include\xstring

; 2306 :         if (_Large_string_engaged()) {

  003ed	83 79 14 10	 cmp	 DWORD PTR [ecx+20], 16	; 00000010H
  003f1	72 02		 jb	 SHORT $LN527@LoadTerrai

; 2307 :             _Result = _Unfancy(_Bx._Ptr);

  003f3	8b 09		 mov	 ecx, DWORD PTR [ecx]
$LN527@LoadTerrai:
; File C:\Users\murat\Desktop\Siveps2-1-99-Project\source\client\Client\GameLib\MapOutdoorLoad.cpp

; 259  : 	_snprintf(szSplatName, sizeof(szSplatName), "%s\\%06u\\tile.raw", GetMapDataDirectory().c_str(), ulID);

  003f5	ff b5 dc fc ff
	ff		 push	 DWORD PTR _ulID$1$[ebp]
  003fb	8d 85 e0 fe ff
	ff		 lea	 eax, DWORD PTR _szSplatName$[ebp]
  00401	51		 push	 ecx
  00402	68 00 00 00 00	 push	 OFFSET ??_C@_0BB@KIEAEMGF@?$CFs?2?$CF06u?2tile?4raw@
  00407	6a 41		 push	 65			; 00000041H
  00409	50		 push	 eax
  0040a	e8 00 00 00 00	 call	 __snprintf
  0040f	83 c4 14	 add	 esp, 20			; 00000014H
; File C:\Users\murat\Desktop\Siveps2-1-99-Project\source\client\Client\GameLib\MapBase.h

; 55   : 		const std::string& GetMapDataDirectory() const { return IsCopiedMap() ? m_strParentMapName : m_strName; }

  00412	8d 4b 20	 lea	 ecx, DWORD PTR [ebx+32]

; 53   : 		bool IsCopiedMap() const { return m_strParentMapName.length() > 0; }		// "   "  ?

  00415	83 7b 30 00	 cmp	 DWORD PTR [ebx+48], 0

; 55   : 		const std::string& GetMapDataDirectory() const { return IsCopiedMap() ? m_strParentMapName : m_strName; }

  00419	8b c7		 mov	 eax, edi
  0041b	0f 47 c1	 cmova	 eax, ecx
; File C:\Program Files (x86)\Microsoft Visual Studio\2019\Professional\VC\Tools\MSVC\14.29.30133\include\xstring

; 2306 :         if (_Large_string_engaged()) {

  0041e	83 78 14 10	 cmp	 DWORD PTR [eax+20], 16	; 00000010H
  00422	72 02		 jb	 SHORT $LN540@LoadTerrai

; 2307 :             _Result = _Unfancy(_Bx._Ptr);

  00424	8b 00		 mov	 eax, DWORD PTR [eax]
$LN540@LoadTerrai:
; File C:\Users\murat\Desktop\Siveps2-1-99-Project\source\client\Client\GameLib\MapOutdoorLoad.cpp

; 260  : 	_snprintf(szAttrMapName, sizeof(szAttrMapName), "%s\\%06u\\attr.atr", GetMapDataDirectory().c_str(), ulID);

  00426	ff b5 dc fc ff
	ff		 push	 DWORD PTR _ulID$1$[ebp]
  0042c	50		 push	 eax
  0042d	68 00 00 00 00	 push	 OFFSET ??_C@_0BB@MGHNOCIE@?$CFs?2?$CF06u?2attr?4atr@
  00432	8d 85 24 ff ff
	ff		 lea	 eax, DWORD PTR _szAttrMapName$[ebp]
  00438	6a 41		 push	 65			; 00000041H
  0043a	50		 push	 eax
  0043b	e8 00 00 00 00	 call	 __snprintf
; File C:\Users\murat\Desktop\Siveps2-1-99-Project\source\client\Client\GameLib\MapBase.h

; 55   : 		const std::string& GetMapDataDirectory() const { return IsCopiedMap() ? m_strParentMapName : m_strName; }

  00440	8d 43 20	 lea	 eax, DWORD PTR [ebx+32]
; File C:\Users\murat\Desktop\Siveps2-1-99-Project\source\client\Client\GameLib\MapOutdoorLoad.cpp

; 260  : 	_snprintf(szAttrMapName, sizeof(szAttrMapName), "%s\\%06u\\attr.atr", GetMapDataDirectory().c_str(), ulID);

  00443	83 c4 14	 add	 esp, 20			; 00000014H
; File C:\Users\murat\Desktop\Siveps2-1-99-Project\source\client\Client\GameLib\MapBase.h

; 53   : 		bool IsCopiedMap() const { return m_strParentMapName.length() > 0; }		// "   "  ?

  00446	83 7b 30 00	 cmp	 DWORD PTR [ebx+48], 0

; 55   : 		const std::string& GetMapDataDirectory() const { return IsCopiedMap() ? m_strParentMapName : m_strName; }

  0044a	8b c8		 mov	 ecx, eax
  0044c	89 85 d0 fc ff
	ff		 mov	 DWORD PTR $T3[ebp], eax
  00452	77 02		 ja	 SHORT $LN547@LoadTerrai
  00454	8b cf		 mov	 ecx, edi
$LN547@LoadTerrai:
; File C:\Program Files (x86)\Microsoft Visual Studio\2019\Professional\VC\Tools\MSVC\14.29.30133\include\xstring

; 2306 :         if (_Large_string_engaged()) {

  00456	83 79 14 10	 cmp	 DWORD PTR [ecx+20], 16	; 00000010H
  0045a	72 02		 jb	 SHORT $LN553@LoadTerrai

; 2307 :             _Result = _Unfancy(_Bx._Ptr);

  0045c	8b 09		 mov	 ecx, DWORD PTR [ecx]
$LN553@LoadTerrai:
; File C:\Users\murat\Desktop\Siveps2-1-99-Project\source\client\Client\GameLib\MapOutdoorLoad.cpp

; 261  : 	_snprintf(szWaterMapName, sizeof(szWaterMapName), "%s\\%06u\\water.wtr", GetMapDataDirectory().c_str(), ulID);

  0045e	ff b5 dc fc ff
	ff		 push	 DWORD PTR _ulID$1$[ebp]
  00464	8d 45 ac	 lea	 eax, DWORD PTR _szWaterMapName$[ebp]
  00467	51		 push	 ecx
  00468	68 00 00 00 00	 push	 OFFSET ??_C@_0BC@COFDKBDG@?$CFs?2?$CF06u?2water?4wtr@
  0046d	6a 41		 push	 65			; 00000041H
  0046f	50		 push	 eax
  00470	e8 00 00 00 00	 call	 __snprintf
  00475	83 c4 14	 add	 esp, 20			; 00000014H
; File C:\Users\murat\Desktop\Siveps2-1-99-Project\source\client\Client\GameLib\MapBase.h

; 55   : 		const std::string& GetMapDataDirectory() const { return IsCopiedMap() ? m_strParentMapName : m_strName; }

  00478	8b c7		 mov	 eax, edi

; 53   : 		bool IsCopiedMap() const { return m_strParentMapName.length() > 0; }		// "   "  ?

  0047a	83 7b 30 00	 cmp	 DWORD PTR [ebx+48], 0

; 55   : 		const std::string& GetMapDataDirectory() const { return IsCopiedMap() ? m_strParentMapName : m_strName; }

  0047e	0f 47 85 d0 fc
	ff ff		 cmova	 eax, DWORD PTR $T3[ebp]
; File C:\Program Files (x86)\Microsoft Visual Studio\2019\Professional\VC\Tools\MSVC\14.29.30133\include\xstring

; 2306 :         if (_Large_string_engaged()) {

  00485	83 78 14 10	 cmp	 DWORD PTR [eax+20], 16	; 00000010H
  00489	72 02		 jb	 SHORT $LN566@LoadTerrai

; 2307 :             _Result = _Unfancy(_Bx._Ptr);

  0048b	8b 00		 mov	 eax, DWORD PTR [eax]
$LN566@LoadTerrai:
; File C:\Users\murat\Desktop\Siveps2-1-99-Project\source\client\Client\GameLib\MapOutdoorLoad.cpp

; 262  : 	_snprintf(szShadowTexName, sizeof(szShadowTexName), "%s\\%06u\\shadowmap.dds", GetMapDataDirectory().c_str(), ulID);

  0048d	ff b5 dc fc ff
	ff		 push	 DWORD PTR _ulID$1$[ebp]
  00493	50		 push	 eax
  00494	68 00 00 00 00	 push	 OFFSET ??_C@_0BG@JDDLCJKB@?$CFs?2?$CF06u?2shadowmap?4dds@
  00499	8d 85 9c fe ff
	ff		 lea	 eax, DWORD PTR _szShadowTexName$[ebp]
  0049f	6a 41		 push	 65			; 00000041H
  004a1	50		 push	 eax
  004a2	e8 00 00 00 00	 call	 __snprintf
  004a7	83 c4 14	 add	 esp, 20			; 00000014H
; File C:\Users\murat\Desktop\Siveps2-1-99-Project\source\client\Client\GameLib\MapBase.h

; 55   : 		const std::string& GetMapDataDirectory() const { return IsCopiedMap() ? m_strParentMapName : m_strName; }

  004aa	8d 4b 20	 lea	 ecx, DWORD PTR [ebx+32]

; 53   : 		bool IsCopiedMap() const { return m_strParentMapName.length() > 0; }		// "   "  ?

  004ad	83 7b 30 00	 cmp	 DWORD PTR [ebx+48], 0

; 55   : 		const std::string& GetMapDataDirectory() const { return IsCopiedMap() ? m_strParentMapName : m_strName; }

  004b1	8b c7		 mov	 eax, edi
  004b3	0f 47 c1	 cmova	 eax, ecx
; File C:\Program Files (x86)\Microsoft Visual Studio\2019\Professional\VC\Tools\MSVC\14.29.30133\include\xstring

; 2306 :         if (_Large_string_engaged()) {

  004b6	83 78 14 10	 cmp	 DWORD PTR [eax+20], 16	; 00000010H
  004ba	72 02		 jb	 SHORT $LN579@LoadTerrai

; 2307 :             _Result = _Unfancy(_Bx._Ptr);

  004bc	8b 00		 mov	 eax, DWORD PTR [eax]
$LN579@LoadTerrai:
; File C:\Users\murat\Desktop\Siveps2-1-99-Project\source\client\Client\GameLib\MapOutdoorLoad.cpp

; 263  : 	_snprintf(szShadowMapName, sizeof(szShadowMapName), "%s\\%06u\\shadowmap.raw", GetMapDataDirectory().c_str(), ulID);

  004be	ff b5 dc fc ff
	ff		 push	 DWORD PTR _ulID$1$[ebp]
  004c4	50		 push	 eax
  004c5	68 00 00 00 00	 push	 OFFSET ??_C@_0BG@IEOOCGAN@?$CFs?2?$CF06u?2shadowmap?4raw@
  004ca	8d 85 58 fe ff
	ff		 lea	 eax, DWORD PTR _szShadowMapName$[ebp]
  004d0	6a 41		 push	 65			; 00000041H
  004d2	50		 push	 eax
  004d3	e8 00 00 00 00	 call	 __snprintf
  004d8	83 c4 14	 add	 esp, 20			; 00000014H
; File C:\Users\murat\Desktop\Siveps2-1-99-Project\source\client\Client\GameLib\MapBase.h

; 55   : 		const std::string& GetMapDataDirectory() const { return IsCopiedMap() ? m_strParentMapName : m_strName; }

  004db	8d 43 20	 lea	 eax, DWORD PTR [ebx+32]

; 53   : 		bool IsCopiedMap() const { return m_strParentMapName.length() > 0; }		// "   "  ?

  004de	83 7b 30 00	 cmp	 DWORD PTR [ebx+48], 0

; 55   : 		const std::string& GetMapDataDirectory() const { return IsCopiedMap() ? m_strParentMapName : m_strName; }

  004e2	0f 47 f8	 cmova	 edi, eax
; File C:\Program Files (x86)\Microsoft Visual Studio\2019\Professional\VC\Tools\MSVC\14.29.30133\include\xstring

; 2306 :         if (_Large_string_engaged()) {

  004e5	83 7f 14 10	 cmp	 DWORD PTR [edi+20], 16	; 00000010H
  004e9	72 02		 jb	 SHORT $LN592@LoadTerrai

; 2307 :             _Result = _Unfancy(_Bx._Ptr);

  004eb	8b 3f		 mov	 edi, DWORD PTR [edi]
$LN592@LoadTerrai:
; File C:\Users\murat\Desktop\Siveps2-1-99-Project\source\client\Client\GameLib\MapOutdoorLoad.cpp

; 264  : 	_snprintf(szMiniMapTexName, sizeof(szMiniMapTexName), "%s\\%06u\\minimap.dds", GetMapDataDirectory().c_str(), ulID);

  004ed	ff b5 dc fc ff
	ff		 push	 DWORD PTR _ulID$1$[ebp]
  004f3	8d 85 14 fe ff
	ff		 lea	 eax, DWORD PTR _szMiniMapTexName$[ebp]
  004f9	57		 push	 edi
  004fa	68 00 00 00 00	 push	 OFFSET ??_C@_0BE@OEFJKKPK@?$CFs?2?$CF06u?2minimap?4dds@
  004ff	6a 41		 push	 65			; 00000041H
  00501	50		 push	 eax
  00502	e8 00 00 00 00	 call	 __snprintf
  00507	83 c4 14	 add	 esp, 20			; 00000014H

; 265  : 
; 266  : 	if(!pTerrain->LoadWaterMap(szWaterMapName))

  0050a	8d 45 ac	 lea	 eax, DWORD PTR _szWaterMapName$[ebp]
  0050d	8b ce		 mov	 ecx, esi
  0050f	50		 push	 eax
  00510	e8 00 00 00 00	 call	 ?LoadWaterMap@CTerrainImpl@@QAE_NPBD@Z ; CTerrainImpl::LoadWaterMap
  00515	8b bd cc fc ff
	ff		 mov	 edi, DWORD PTR tv3384[ebp]
  0051b	84 c0		 test	 al, al
  0051d	75 15		 jne	 SHORT $LN681@LoadTerrai

; 267  : 		TraceError(" CMapOutdoor::LoadTerrain(%d, %d) LoadWaterMap ERROR", wTerrainCoordX, wTerrainCoordY);

  0051f	8b 4d 0c	 mov	 ecx, DWORD PTR _wTerrainCoordY$[ebp]
  00522	0f b7 c1	 movzx	 eax, cx
  00525	50		 push	 eax
  00526	57		 push	 edi
  00527	68 00 00 00 00	 push	 OFFSET ??_C@_0DF@FPDAHDEG@?5CMapOutdoor?3?3LoadTerrain?$CI?$CFd?0?5?$CF@
  0052c	e8 00 00 00 00	 call	 ?TraceError@@YAXPBDZZ	; TraceError
  00531	83 c4 0c	 add	 esp, 12			; 0000000cH
$LN681@LoadTerrai:

; 268  : 
; 269  : 	if (!pTerrain->LoadHeightMap(szRawHeightFieldname))

  00534	8d 85 68 ff ff
	ff		 lea	 eax, DWORD PTR _szRawHeightFieldname$[ebp]
  0053a	8b ce		 mov	 ecx, esi
  0053c	50		 push	 eax
  0053d	e8 00 00 00 00	 call	 ?LoadHeightMap@CTerrain@@QAE_NPBD@Z ; CTerrain::LoadHeightMap
  00542	84 c0		 test	 al, al
  00544	75 15		 jne	 SHORT $LN8@LoadTerrai

; 270  : 		TraceError(" CMapOutdoor::LoadTerrain(%d, %d) LoadHeightMap ERROR", wTerrainCoordX, wTerrainCoordY);

  00546	8b 4d 0c	 mov	 ecx, DWORD PTR _wTerrainCoordY$[ebp]
  00549	0f b7 c1	 movzx	 eax, cx
  0054c	50		 push	 eax
  0054d	57		 push	 edi
  0054e	68 00 00 00 00	 push	 OFFSET ??_C@_0DG@DLOMPGBF@?5CMapOutdoor?3?3LoadTerrain?$CI?$CFd?0?5?$CF@
  00553	e8 00 00 00 00	 call	 ?TraceError@@YAXPBDZZ	; TraceError
  00558	83 c4 0c	 add	 esp, 12			; 0000000cH
$LN8@LoadTerrai:

; 271  : 
; 272  : 	if (!pTerrain->LoadAttrMap(szAttrMapName))

  0055b	8d 85 24 ff ff
	ff		 lea	 eax, DWORD PTR _szAttrMapName$[ebp]
  00561	8b ce		 mov	 ecx, esi
  00563	50		 push	 eax
  00564	e8 00 00 00 00	 call	 ?LoadAttrMap@CTerrain@@QAE_NPBD@Z ; CTerrain::LoadAttrMap
  00569	84 c0		 test	 al, al
  0056b	75 15		 jne	 SHORT $LN9@LoadTerrai

; 273  : 		TraceError(" CMapOutdoor::LoadTerrain(%d, %d) LoadAttrMap ERROR", wTerrainCoordX, wTerrainCoordY);

  0056d	8b 4d 0c	 mov	 ecx, DWORD PTR _wTerrainCoordY$[ebp]
  00570	0f b7 c1	 movzx	 eax, cx
  00573	50		 push	 eax
  00574	57		 push	 edi
  00575	68 00 00 00 00	 push	 OFFSET ??_C@_0DE@PJJDEPO@?5CMapOutdoor?3?3LoadTerrain?$CI?$CFd?0?5?$CF@
  0057a	e8 00 00 00 00	 call	 ?TraceError@@YAXPBDZZ	; TraceError
  0057f	83 c4 0c	 add	 esp, 12			; 0000000cH
$LN9@LoadTerrai:

; 274  : 
; 275  : 	if (!pTerrain->RAW_LoadTileMap(szSplatName))

  00582	6a 00		 push	 0
  00584	8d 85 e0 fe ff
	ff		 lea	 eax, DWORD PTR _szSplatName$[ebp]
  0058a	8b ce		 mov	 ecx, esi
  0058c	50		 push	 eax
  0058d	e8 00 00 00 00	 call	 ?RAW_LoadTileMap@CTerrain@@QAE_NPBD_N@Z ; CTerrain::RAW_LoadTileMap
  00592	84 c0		 test	 al, al
  00594	75 15		 jne	 SHORT $LN10@LoadTerrai

; 276  : 		TraceError(" CMapOutdoor::LoadTerrain(%d, %d) RAW_LoadTileMap ERROR", wTerrainCoordX, wTerrainCoordY);

  00596	8b 4d 0c	 mov	 ecx, DWORD PTR _wTerrainCoordY$[ebp]
  00599	0f b7 c1	 movzx	 eax, cx
  0059c	50		 push	 eax
  0059d	57		 push	 edi
  0059e	68 00 00 00 00	 push	 OFFSET ??_C@_0DI@CJHIDJBM@?5CMapOutdoor?3?3LoadTerrain?$CI?$CFd?0?5?$CF@
  005a3	e8 00 00 00 00	 call	 ?TraceError@@YAXPBDZZ	; TraceError
  005a8	83 c4 0c	 add	 esp, 12			; 0000000cH
$LN10@LoadTerrai:

; 277  : 
; 278  : 	pTerrain->LoadShadowTexture(szShadowTexName);

  005ab	8d 85 9c fe ff
	ff		 lea	 eax, DWORD PTR _szShadowTexName$[ebp]
  005b1	8b ce		 mov	 ecx, esi
  005b3	50		 push	 eax
  005b4	e8 00 00 00 00	 call	 ?LoadShadowTexture@CTerrain@@QAEXPBD@Z ; CTerrain::LoadShadowTexture

; 279  : 
; 280  : 	if (!pTerrain->LoadShadowMap(szShadowMapName))

  005b9	8d 85 58 fe ff
	ff		 lea	 eax, DWORD PTR _szShadowMapName$[ebp]
  005bf	8b ce		 mov	 ecx, esi
  005c1	50		 push	 eax
  005c2	e8 00 00 00 00	 call	 ?LoadShadowMap@CTerrain@@QAE_NPBD@Z ; CTerrain::LoadShadowMap
  005c7	84 c0		 test	 al, al
  005c9	75 15		 jne	 SHORT $LN11@LoadTerrai

; 281  : 		TraceError(" CMapOutdoor::LoadTerrain(%d, %d) LoadShadowMap ERROR", wTerrainCoordX, wTerrainCoordY);

  005cb	8b 4d 0c	 mov	 ecx, DWORD PTR _wTerrainCoordY$[ebp]
  005ce	0f b7 c1	 movzx	 eax, cx
  005d1	50		 push	 eax
  005d2	57		 push	 edi
  005d3	68 00 00 00 00	 push	 OFFSET ??_C@_0DG@BIPHGMEM@?5CMapOutdoor?3?3LoadTerrain?$CI?$CFd?0?5?$CF@
  005d8	e8 00 00 00 00	 call	 ?TraceError@@YAXPBDZZ	; TraceError
  005dd	83 c4 0c	 add	 esp, 12			; 0000000cH
$LN11@LoadTerrai:

; 282  : 
; 283  : 	pTerrain->LoadMiniMapTexture(szMiniMapTexName);

  005e0	8d 85 14 fe ff
	ff		 lea	 eax, DWORD PTR _szMiniMapTexName$[ebp]
  005e6	8b ce		 mov	 ecx, esi
  005e8	50		 push	 eax
  005e9	e8 00 00 00 00	 call	 ?LoadMiniMapTexture@CTerrain@@QAEXPBD@Z ; CTerrain::LoadMiniMapTexture
; File C:\Program Files (x86)\Microsoft Visual Studio\2019\Professional\VC\Tools\MSVC\14.29.30133\include\xstring

; 2306 :         if (_Large_string_engaged()) {

  005ee	8b 85 c4 fc ff
	ff		 mov	 eax, DWORD PTR __Result$1$[ebp]
  005f4	83 78 14 10	 cmp	 DWORD PTR [eax+20], 16	; 00000010H
  005f8	72 02		 jb	 SHORT $LN599@LoadTerrai

; 2307 :             _Result = _Unfancy(_Bx._Ptr);

  005fa	8b 00		 mov	 eax, DWORD PTR [eax]
$LN599@LoadTerrai:
; File C:\Users\murat\Desktop\Siveps2-1-99-Project\source\client\Client\GameLib\MapOutdoorLoad.cpp

; 284  : 	pTerrain->SetName(c_rstrAreaName.c_str());

  005fc	50		 push	 eax
  005fd	8d 8d e4 fc ff
	ff		 lea	 ecx, DWORD PTR $T4[ebp]
  00603	e8 00 00 00 00	 call	 ??0?$basic_string@DU?$char_traits@D@std@@V?$allocator@D@2@@std@@QAE@QBD@Z ; std::basic_string<char,std::char_traits<char>,std::allocator<char> >::basic_string<char,std::char_traits<char>,std::allocator<char> >
; File C:\Users\murat\Desktop\Siveps2-1-99-Project\source\client\Client\GameLib\AreaTerrain.h

; 99   : 		void			SetName(const std::string c_strName) { m_strName = c_strName; }

  00608	8d 8e 54 a5 06
	00		 lea	 ecx, DWORD PTR [esi+435540]
  0060e	c6 45 fc 03	 mov	 BYTE PTR __$EHRec$[ebp+8], 3
; File C:\Program Files (x86)\Microsoft Visual Studio\2019\Professional\VC\Tools\MSVC\14.29.30133\include\xstring

; 3077 :         if (this != _STD addressof(_Right)) {

  00612	8d 85 e4 fc ff
	ff		 lea	 eax, DWORD PTR $T4[ebp]
  00618	3b c8		 cmp	 ecx, eax
  0061a	74 1a		 je	 SHORT $LN607@LoadTerrai

; 2306 :         if (_Large_string_engaged()) {

  0061c	83 bd f8 fc ff
	ff 10		 cmp	 DWORD PTR $T4[ebp+20], 16 ; 00000010H

; 3035 :         assign(_Right._Mypair._Myval2._Myptr(), _Right._Mypair._Myval2._Mysize);

  00623	ff b5 f4 fc ff
	ff		 push	 DWORD PTR $T4[ebp+16]

; 2306 :         if (_Large_string_engaged()) {

  00629	0f 43 85 e4 fc
	ff ff		 cmovae	 eax, DWORD PTR $T4[ebp]

; 3035 :         assign(_Right._Mypair._Myval2._Myptr(), _Right._Mypair._Myval2._Mysize);

  00630	50		 push	 eax
  00631	e8 00 00 00 00	 call	 ?assign@?$basic_string@DU?$char_traits@D@std@@V?$allocator@D@2@@std@@QAEAAV12@QBDI@Z ; std::basic_string<char,std::char_traits<char>,std::allocator<char> >::assign
$LN607@LoadTerrai:

; 2319 :         return _BUF_SIZE <= _Myres;

  00636	8b 95 f8 fc ff
	ff		 mov	 edx, DWORD PTR $T4[ebp+20]
; File C:\Users\murat\Desktop\Siveps2-1-99-Project\source\client\Client\GameLib\AreaTerrain.h

; 99   : 		void			SetName(const std::string c_strName) { m_strName = c_strName; }

  0063c	c6 45 fc 00	 mov	 BYTE PTR __$EHRec$[ebp+8], 0
; File C:\Program Files (x86)\Microsoft Visual Studio\2019\Professional\VC\Tools\MSVC\14.29.30133\include\xstring

; 2319 :         return _BUF_SIZE <= _Myres;

  00640	83 fa 10	 cmp	 edx, 16			; 00000010H

; 4618 :         if (_Mypair._Myval2._Large_string_engaged()) {

  00643	72 2f		 jb	 SHORT $LN628@LoadTerrai
; File C:\Program Files (x86)\Microsoft Visual Studio\2019\Professional\VC\Tools\MSVC\14.29.30133\include\xmemory

; 835  :         _Deallocate<_New_alignof<_Ty>>(_Ptr, sizeof(_Ty) * _Count);

  00645	8b 8d e4 fc ff
	ff		 mov	 ecx, DWORD PTR $T4[ebp]
; File C:\Program Files (x86)\Microsoft Visual Studio\2019\Professional\VC\Tools\MSVC\14.29.30133\include\xstring

; 4622 :             _Al.deallocate(_Ptr, _Mypair._Myval2._Myres + 1);

  0064b	42		 inc	 edx
; File C:\Program Files (x86)\Microsoft Visual Studio\2019\Professional\VC\Tools\MSVC\14.29.30133\include\xmemory

; 835  :         _Deallocate<_New_alignof<_Ty>>(_Ptr, sizeof(_Ty) * _Count);

  0064c	8b c1		 mov	 eax, ecx

; 260  :         if (_Bytes >= _Big_allocation_threshold) { // boost the alignment of big allocations to help autovectorization

  0064e	81 fa 00 10 00
	00		 cmp	 edx, 4096		; 00001000H
  00654	72 14		 jb	 SHORT $LN638@LoadTerrai

; 158  :     const uintptr_t _Ptr_container   = _Ptr_user[-1];

  00656	8b 49 fc	 mov	 ecx, DWORD PTR [ecx-4]
  00659	83 c2 23	 add	 edx, 35			; 00000023H
  0065c	2b c1		 sub	 eax, ecx

; 172  :     _STL_VERIFY(_Back_shift >= _Min_back_shift && _Back_shift <= _Non_user_size, "invalid argument");

  0065e	83 c0 fc	 add	 eax, -4			; fffffffcH
  00661	83 f8 1f	 cmp	 eax, 31			; 0000001fH
  00664	0f 87 aa 00 00
	00		 ja	 $LN690@LoadTerrai
$LN638@LoadTerrai:

; 264  :         ::operator delete(_Ptr, _Bytes);

  0066a	52		 push	 edx
  0066b	51		 push	 ecx
  0066c	e8 00 00 00 00	 call	 ??3@YAXPAXI@Z		; operator delete
  00671	83 c4 08	 add	 esp, 8
$LN628@LoadTerrai:
; File C:\Users\murat\Desktop\Siveps2-1-99-Project\source\client\Client\GameLib\MapOutdoorLoad.cpp

; 285  : 	pTerrain->CalculateTerrainPatch();

  00674	8b ce		 mov	 ecx, esi
  00676	e8 00 00 00 00	 call	 ?CalculateTerrainPatch@CTerrain@@QAEXXZ ; CTerrain::CalculateTerrainPatch

; 286  : 
; 287  : 	pTerrain->SetReady();

  0067b	c6 86 70 a5 06
	00 01		 mov	 BYTE PTR [esi+435568], 1

; 288  : 
; 289  : 	Tracef("CMapOutdoor::LoadTerrain %d\n", ELTimer_GetMSec() - dwStartTime);

  00682	e8 00 00 00 00	 call	 ?ELTimer_GetMSec@@YAKXZ	; ELTimer_GetMSec
  00687	2b 85 c0 fc ff
	ff		 sub	 eax, DWORD PTR _dwStartTime$1$[ebp]
  0068d	50		 push	 eax
  0068e	68 00 00 00 00	 push	 OFFSET ??_C@_0BN@GEPFPGEO@CMapOutdoor?3?3LoadTerrain?5?$CFd?6@
  00693	e8 00 00 00 00	 call	 ?Tracef@@YAXPBDZZ	; Tracef
; File C:\Program Files (x86)\Microsoft Visual Studio\2019\Professional\VC\Tools\MSVC\14.29.30133\include\vector

; 743  :         if (_Mylast != _My_data._Myend) {

  00698	8b 83 1c 09 00
	00		 mov	 eax, DWORD PTR [ebx+2332]
; File C:\Users\murat\Desktop\Siveps2-1-99-Project\source\client\Client\GameLib\MapOutdoorLoad.cpp

; 291  : 	m_TerrainVector.push_back(pTerrain);

  0069e	8d 8b 18 09 00
	00		 lea	 ecx, DWORD PTR [ebx+2328]
  006a4	83 c4 08	 add	 esp, 8
; File C:\Program Files (x86)\Microsoft Visual Studio\2019\Professional\VC\Tools\MSVC\14.29.30133\include\vector

; 743  :         if (_Mylast != _My_data._Myend) {

  006a7	3b 41 08	 cmp	 eax, DWORD PTR [ecx+8]
  006aa	74 08		 je	 SHORT $LN647@LoadTerrai

; 726  :         _Alty_traits::construct(_Getal(), _Unfancy(_Mylast), _STD forward<_Valty>(_Val)...);

  006ac	89 30		 mov	 DWORD PTR [eax], esi

; 727  :         _Orphan_range(_Mylast, _Mylast);
; 728  :         _Ty& _Result = *_Mylast;
; 729  :         ++_Mylast;

  006ae	83 41 04 04	 add	 DWORD PTR [ecx+4], 4

; 744  :             return _Emplace_back_with_unused_capacity(_STD forward<_Valty>(_Val)...);

  006b2	eb 0d		 jmp	 SHORT $LN646@LoadTerrai
$LN647@LoadTerrai:

; 745  :         }
; 746  : 
; 747  :         _Ty& _Result = *_Emplace_reallocate(_Mylast, _STD forward<_Valty>(_Val)...);

  006b4	8d 95 c8 fc ff
	ff		 lea	 edx, DWORD PTR _pTerrain$[ebp]
  006ba	52		 push	 edx
  006bb	50		 push	 eax
  006bc	e8 00 00 00 00	 call	 ??$_Emplace_reallocate@ABQAVCTerrain@@@?$vector@PAVCTerrain@@V?$allocator@PAVCTerrain@@@std@@@std@@QAEPAPAVCTerrain@@QAPAV2@ABQAV2@@Z ; std::vector<CTerrain *,std::allocator<CTerrain *> >::_Emplace_reallocate<CTerrain * const &>
$LN646@LoadTerrai:
; File C:\Users\murat\Desktop\Siveps2-1-99-Project\source\client\Client\GameLib\MapOutdoorLoad.cpp

; 293  : 	return true;

  006c1	b3 01		 mov	 bl, 1
$LN22@LoadTerrai:
; File C:\Program Files (x86)\Microsoft Visual Studio\2019\Professional\VC\Tools\MSVC\14.29.30133\include\xtree

; 758  :         _Erase_tree(_Al, _Myhead->_Parent);

  006c3	8b 85 d4 fc ff
	ff		 mov	 eax, DWORD PTR _stTokenVectorMap$[ebp]
  006c9	ff 70 04	 push	 DWORD PTR [eax+4]
  006cc	8d 85 d4 fc ff
	ff		 lea	 eax, DWORD PTR _stTokenVectorMap$[ebp]
  006d2	50		 push	 eax
  006d3	8b c8		 mov	 ecx, eax
  006d5	e8 00 00 00 00	 call	 ??$_Erase_tree@V?$allocator@U?$_Tree_node@U?$pair@$$CBV?$basic_string@DU?$char_traits@D@std@@V?$allocator@D@2@@std@@V?$vector@V?$basic_string@DU?$char_traits@D@std@@V?$allocator@D@2@@std@@V?$allocator@V?$basic_string@DU?$char_traits@D@std@@V?$allocator@D@2@@std@@@2@@2@@std@@PAX@std@@@std@@@?$_Tree_val@U?$_Tree_simple_types@U?$pair@$$CBV?$basic_string@DU?$char_traits@D@std@@V?$allocator@D@2@@std@@V?$vector@V?$basic_string@DU?$char_traits@D@std@@V?$allocator@D@2@@std@@V?$allocator@V?$basic_string@DU?$char_traits@D@std@@V?$allocator@D@2@@std@@@2@@2@@std@@@std@@@std@@QAEXAAV?$allocator@U?$_Tree_node@U?$pair@$$CBV?$basic_string@DU?$char_traits@D@std@@V?$allocator@D@2@@std@@V?$vector@V?$basic_string@DU?$char_traits@D@std@@V?$allocator@D@2@@std@@V?$allocator@V?$basic_string@DU?$char_traits@D@std@@V?$allocator@D@2@@std@@@2@@2@@std@@PAX@std@@@1@PAU?$_Tree_node@U?$pair@$$CBV?$basic_string@DU?$char_traits@D@std@@V?$allocator@D@2@@std@@V?$vector@V?$basic_string@DU?$char_traits@D@std@@V?$allocator@D@2@@std@@V?$allocator@V?$basic_string@DU?$char_traits@D@std@@V?$allocator@D@2@@std@@@2@@2@@std@@PAX@1@@Z ; std::_Tree_val<std::_Tree_simple_types<std::pair<std::basic_string<char,std::char_traits<char>,std::allocator<char> > const ,std::vector<std::basic_string<char,std::char_traits<char>,std::allocator<char> >,std::allocator<std::basic_string<char,std::char_traits<char>,std::allocator<char> > > > > > >::_Erase_tree<std::allocator<std::_Tree_node<std::pair<std::basic_string<char,std::char_traits<char>,std::allocator<char> > const ,std::vector<std::basic_string<char,std::char_traits<char>,std::allocator<char> >,std::allocator<std::basic_string<char,std::char_traits<char>,std::allocator<char> > > > >,void *> > >
; File C:\Program Files (x86)\Microsoft Visual Studio\2019\Professional\VC\Tools\MSVC\14.29.30133\include\xmemory

; 264  :         ::operator delete(_Ptr, _Bytes);

  006da	6a 34		 push	 52			; 00000034H
  006dc	ff b5 d4 fc ff
	ff		 push	 DWORD PTR _stTokenVectorMap$[ebp]
  006e2	e8 00 00 00 00	 call	 ??3@YAXPAXI@Z		; operator delete
  006e7	83 c4 08	 add	 esp, 8
; File C:\Users\murat\Desktop\Siveps2-1-99-Project\source\client\Client\GameLib\MapOutdoorLoad.cpp

; 293  : 	return true;

  006ea	8a c3		 mov	 al, bl
$LN1@LoadTerrai:

; 294  : }

  006ec	8b 4d f4	 mov	 ecx, DWORD PTR __$EHRec$[ebp]
  006ef	64 89 0d 00 00
	00 00		 mov	 DWORD PTR fs:0, ecx
  006f6	59		 pop	 ecx
  006f7	5f		 pop	 edi
  006f8	5e		 pop	 esi
  006f9	5b		 pop	 ebx
  006fa	8b 4d f0	 mov	 ecx, DWORD PTR __$ArrayPad$[ebp]
  006fd	33 cd		 xor	 ecx, ebp
  006ff	e8 00 00 00 00	 call	 @__security_check_cookie@4
  00704	8b e5		 mov	 esp, ebp
  00706	5d		 pop	 ebp
  00707	c2 10 00	 ret	 16			; 00000010H
$LN688@LoadTerrai:
; File C:\Program Files (x86)\Microsoft Visual Studio\2019\Professional\VC\Tools\MSVC\14.29.30133\include\xmemory

; 172  :     _STL_VERIFY(_Back_shift >= _Min_back_shift && _Back_shift <= _Non_user_size, "invalid argument");

  0070a	e8 00 00 00 00	 call	 __invalid_parameter_noinfo_noreturn
$LN689@LoadTerrai:
  0070f	e8 00 00 00 00	 call	 __invalid_parameter_noinfo_noreturn
$LN690@LoadTerrai:
  00714	e8 00 00 00 00	 call	 __invalid_parameter_noinfo_noreturn
$LN686@LoadTerrai:
  00719	cc		 int	 3
_TEXT	ENDS
;	COMDAT text$x
text$x	SEGMENT
__unwindfunclet$?LoadTerrain@CMapOutdoor@@MAE_NGGGG@Z$0:
  00000	8d 8d d4 fc ff
	ff		 lea	 ecx, DWORD PTR _stTokenVectorMap$[ebp]
  00006	e9 00 00 00 00	 jmp	 ??1?$map@V?$basic_string@DU?$char_traits@D@std@@V?$allocator@D@2@@std@@V?$vector@V?$basic_string@DU?$char_traits@D@std@@V?$allocator@D@2@@std@@V?$allocator@V?$basic_string@DU?$char_traits@D@std@@V?$allocator@D@2@@std@@@2@@2@U?$less@V?$basic_string@DU?$char_traits@D@std@@V?$allocator@D@2@@std@@@2@V?$allocator@U?$pair@$$CBV?$basic_string@DU?$char_traits@D@std@@V?$allocator@D@2@@std@@V?$vector@V?$basic_string@DU?$char_traits@D@std@@V?$allocator@D@2@@std@@V?$allocator@V?$basic_string@DU?$char_traits@D@std@@V?$allocator@D@2@@std@@@2@@2@@std@@@2@@std@@QAE@XZ
__unwindfunclet$?LoadTerrain@CMapOutdoor@@MAE_NGGGG@Z$3:
  0000b	8d 8d e4 fc ff
	ff		 lea	 ecx, DWORD PTR $T5[ebp]
  00011	e9 00 00 00 00	 jmp	 ??1?$basic_string@DU?$char_traits@D@std@@V?$allocator@D@2@@std@@QAE@XZ ; std::basic_string<char,std::char_traits<char>,std::allocator<char> >::~basic_string<char,std::char_traits<char>,std::allocator<char> >
__unwindfunclet$?LoadTerrain@CMapOutdoor@@MAE_NGGGG@Z$4:
  00016	8d 8d fc fc ff
	ff		 lea	 ecx, DWORD PTR $T7[ebp]
  0001c	e9 00 00 00 00	 jmp	 ??1?$basic_string@DU?$char_traits@D@std@@V?$allocator@D@2@@std@@QAE@XZ ; std::basic_string<char,std::char_traits<char>,std::allocator<char> >::~basic_string<char,std::char_traits<char>,std::allocator<char> >
__unwindfunclet$?LoadTerrain@CMapOutdoor@@MAE_NGGGG@Z$19:
  00021	8d 8d e4 fc ff
	ff		 lea	 ecx, DWORD PTR $T4[ebp]
  00027	e9 00 00 00 00	 jmp	 ??1?$basic_string@DU?$char_traits@D@std@@V?$allocator@D@2@@std@@QAE@XZ ; std::basic_string<char,std::char_traits<char>,std::allocator<char> >::~basic_string<char,std::char_traits<char>,std::allocator<char> >
  0002c	cc		 int	 3
  0002d	cc		 int	 3
  0002e	cc		 int	 3
  0002f	cc		 int	 3
  00030	cc		 int	 3
__ehhandler$?LoadTerrain@CMapOutdoor@@MAE_NGGGG@Z:
  00031	90		 npad	 1
  00032	90		 npad	 1
  00033	8b 54 24 08	 mov	 edx, DWORD PTR [esp+8]
  00037	8d 42 0c	 lea	 eax, DWORD PTR [edx+12]
  0003a	8b 8a bc fc ff
	ff		 mov	 ecx, DWORD PTR [edx-836]
  00040	33 c8		 xor	 ecx, eax
  00042	e8 00 00 00 00	 call	 @__security_check_cookie@4
  00047	8b 4a fc	 mov	 ecx, DWORD PTR [edx-4]
  0004a	33 c8		 xor	 ecx, eax
  0004c	e8 00 00 00 00	 call	 @__security_check_cookie@4
  00051	b8 00 00 00 00	 mov	 eax, OFFSET __ehfuncinfo$?LoadTerrain@CMapOutdoor@@MAE_NGGGG@Z
  00056	e9 00 00 00 00	 jmp	 ___CxxFrameHandler3
text$x	ENDS
?LoadTerrain@CMapOutdoor@@MAE_NGGGG@Z ENDP		; CMapOutdoor::LoadTerrain
; Function compile flags: /Ogtp
; File C:\Users\murat\Desktop\Siveps2-1-99-Project\source\client\Client\GameLib\MapOutdoorLoad.cpp
; File C:\Program Files (x86)\Microsoft Visual Studio\2019\Professional\VC\Tools\MSVC\14.29.30133\include\xtree
; File C:\Program Files (x86)\Microsoft Visual Studio\2019\Professional\VC\Tools\MSVC\14.29.30133\include\xmemory
; File C:\Program Files (x86)\Microsoft Visual Studio\2019\Professional\VC\Tools\MSVC\14.29.30133\include\xtree
; File C:\Users\murat\Desktop\Siveps2-1-99-Project\source\client\Client\GameLib\MapOutdoorLoad.cpp
; File C:\Program Files (x86)\Microsoft Visual Studio\2019\Professional\VC\Tools\MSVC\14.29.30133\include\xstring
; File C:\Program Files (x86)\Microsoft Visual Studio\2019\Professional\VC\Tools\MSVC\14.29.30133\include\xtree
; File C:\Program Files (x86)\Microsoft Visual Studio\2019\Professional\VC\Tools\MSVC\14.29.30133\include\xstring
; File C:\Program Files (x86)\Microsoft Visual Studio\2019\Professional\VC\Tools\MSVC\14.29.30133\include\xtree
; File C:\Program Files (x86)\Microsoft Visual Studio\2019\Professional\VC\Tools\MSVC\14.29.30133\include\xstring
; File C:\Program Files (x86)\Microsoft Visual Studio\2019\Professional\VC\Tools\MSVC\14.29.30133\include\xtree
; File C:\Program Files (x86)\Microsoft Visual Studio\2019\Professional\VC\Tools\MSVC\14.29.30133\include\xstring
; File C:\Program Files (x86)\Microsoft Visual Studio\2019\Professional\VC\Tools\MSVC\14.29.30133\include\xtree
; File C:\Program Files (x86)\Microsoft Visual Studio\2019\Professional\VC\Tools\MSVC\14.29.30133\include\xstddef
; File C:\Program Files (x86)\Microsoft Visual Studio\2019\Professional\VC\Tools\MSVC\14.29.30133\include\xtree
; File C:\Program Files (x86)\Microsoft Visual Studio\2019\Professional\VC\Tools\MSVC\14.29.30133\include\xstring
; File C:\Program Files (x86)\Microsoft Visual Studio\2019\Professional\VC\Tools\MSVC\14.29.30133\include\xtree
; File C:\Users\murat\Desktop\Siveps2-1-99-Project\source\client\Client\GameLib\MapOutdoorLoad.cpp
; File C:\Program Files (x86)\Microsoft Visual Studio\2019\Professional\VC\Tools\MSVC\14.29.30133\include\xstring
; File C:\Program Files (x86)\Microsoft Visual Studio\2019\Professional\VC\Tools\MSVC\14.29.30133\include\xtree
; File C:\Program Files (x86)\Microsoft Visual Studio\2019\Professional\VC\Tools\MSVC\14.29.30133\include\xstring
; File C:\Program Files (x86)\Microsoft Visual Studio\2019\Professional\VC\Tools\MSVC\14.29.30133\include\xtree
; File C:\Program Files (x86)\Microsoft Visual Studio\2019\Professional\VC\Tools\MSVC\14.29.30133\include\xstring
; File C:\Program Files (x86)\Microsoft Visual Studio\2019\Professional\VC\Tools\MSVC\14.29.30133\include\xtree
; File C:\Program Files (x86)\Microsoft Visual Studio\2019\Professional\VC\Tools\MSVC\14.29.30133\include\xstring
; File C:\Program Files (x86)\Microsoft Visual Studio\2019\Professional\VC\Tools\MSVC\14.29.30133\include\xtree
; File C:\Program Files (x86)\Microsoft Visual Studio\2019\Professional\VC\Tools\MSVC\14.29.30133\include\xstddef
; File C:\Program Files (x86)\Microsoft Visual Studio\2019\Professional\VC\Tools\MSVC\14.29.30133\include\xtree
; File C:\Program Files (x86)\Microsoft Visual Studio\2019\Professional\VC\Tools\MSVC\14.29.30133\include\xstring
; File C:\Program Files (x86)\Microsoft Visual Studio\2019\Professional\VC\Tools\MSVC\14.29.30133\include\xtree
; File C:\Users\murat\Desktop\Siveps2-1-99-Project\source\client\Client\GameLib\MapOutdoorLoad.cpp
; File C:\Program Files (x86)\Microsoft Visual Studio\2019\Professional\VC\Tools\MSVC\14.29.30133\include\xstring
; File C:\Users\murat\Desktop\Siveps2-1-99-Project\source\client\Client\GameLib\MapOutdoorLoad.cpp
; File C:\Program Files (x86)\Microsoft Visual Studio\2019\Professional\VC\Tools\MSVC\14.29.30133\include\xstring
; File C:\Users\murat\Desktop\Siveps2-1-99-Project\source\client\Client\GameLib\MapOutdoorLoad.cpp
; File C:\Program Files (x86)\Microsoft Visual Studio\2019\Professional\VC\Tools\MSVC\14.29.30133\include\xstring
; File C:\Users\murat\Desktop\Siveps2-1-99-Project\source\client\Client\GameLib\MapOutdoorLoad.cpp
; File C:\Program Files (x86)\Microsoft Visual Studio\2019\Professional\VC\Tools\MSVC\14.29.30133\include\xstring
; File C:\Users\murat\Desktop\Siveps2-1-99-Project\source\client\Client\GameLib\MapOutdoorLoad.cpp
; File C:\Program Files (x86)\Microsoft Visual Studio\2019\Professional\VC\Tools\MSVC\14.29.30133\include\xtree
; File C:\Users\murat\Desktop\Siveps2-1-99-Project\source\client\Client\GameLib\MapOutdoorLoad.cpp
; File C:\Program Files (x86)\Microsoft Visual Studio\2019\Professional\VC\Tools\MSVC\14.29.30133\include\xstring
; File C:\Users\murat\Desktop\Siveps2-1-99-Project\source\client\Client\GameLib\MapOutdoorLoad.cpp
; File C:\Program Files (x86)\Microsoft Visual Studio\2019\Professional\VC\Tools\MSVC\14.29.30133\include\xstring
; File C:\Users\murat\Desktop\Siveps2-1-99-Project\source\client\Client\GameLib\MapOutdoorLoad.cpp
; File C:\Program Files (x86)\Microsoft Visual Studio\2019\Professional\VC\Tools\MSVC\14.29.30133\include\xstring
; File C:\Users\murat\Desktop\Siveps2-1-99-Project\source\client\Client\GameLib\MapOutdoorLoad.cpp
; File C:\Program Files (x86)\Microsoft Visual Studio\2019\Professional\VC\Tools\MSVC\14.29.30133\include\xstring
; File C:\Users\murat\Desktop\Siveps2-1-99-Project\source\client\Client\GameLib\MapOutdoorLoad.cpp
; File C:\Program Files (x86)\Microsoft Visual Studio\2019\Professional\VC\Tools\MSVC\14.29.30133\include\xtree
; File C:\Users\murat\Desktop\Siveps2-1-99-Project\source\client\Client\GameLib\MapOutdoorLoad.cpp
; File C:\Program Files (x86)\Microsoft Visual Studio\2019\Professional\VC\Tools\MSVC\14.29.30133\include\xstring
; File C:\Users\murat\Desktop\Siveps2-1-99-Project\source\client\Client\GameLib\MapOutdoorLoad.cpp
; File C:\Program Files (x86)\Microsoft Visual Studio\2019\Professional\VC\Tools\MSVC\14.29.30133\include\xstring
; File C:\Users\murat\Desktop\Siveps2-1-99-Project\source\client\Client\GameLib\MapOutdoorLoad.cpp
; File C:\Program Files (x86)\Microsoft Visual Studio\2019\Professional\VC\Tools\MSVC\14.29.30133\include\xstring
; File C:\Users\murat\Desktop\Siveps2-1-99-Project\source\client\Client\GameLib\MapOutdoorLoad.cpp
; File C:\Program Files (x86)\Microsoft Visual Studio\2019\Professional\VC\Tools\MSVC\14.29.30133\include\xstring
; File C:\Users\murat\Desktop\Siveps2-1-99-Project\source\client\Client\GameLib\MapOutdoorLoad.cpp
; File C:\Program Files (x86)\Microsoft Visual Studio\2019\Professional\VC\Tools\MSVC\14.29.30133\include\xstring
; File C:\Program Files (x86)\Microsoft Visual Studio\2019\Professional\VC\Tools\MSVC\14.29.30133\include\xtree
; File C:\Users\murat\Desktop\Siveps2-1-99-Project\source\client\Client\GameLib\MapOutdoorLoad.cpp
; File C:\Program Files (x86)\Microsoft Visual Studio\2019\Professional\VC\Tools\MSVC\14.29.30133\include\xstring
; File C:\Users\murat\Desktop\Siveps2-1-99-Project\source\client\Client\GameLib\MapOutdoorLoad.cpp
; File C:\Program Files (x86)\Microsoft Visual Studio\2019\Professional\VC\Tools\MSVC\14.29.30133\include\xstring
; File C:\Users\murat\Desktop\Siveps2-1-99-Project\source\client\Client\GameLib\MapOutdoorLoad.cpp
; File C:\Program Files (x86)\Microsoft Visual Studio\2019\Professional\VC\Tools\MSVC\14.29.30133\include\xstring
; File C:\Users\murat\Desktop\Siveps2-1-99-Project\source\client\Client\GameLib\MapOutdoorLoad.cpp
; File C:\Program Files (x86)\Microsoft Visual Studio\2019\Professional\VC\Tools\MSVC\14.29.30133\include\xstring
; File C:\Users\murat\Desktop\Siveps2-1-99-Project\source\client\Client\GameLib\MapOutdoorLoad.cpp
; File C:\Program Files (x86)\Microsoft Visual Studio\2019\Professional\VC\Tools\MSVC\14.29.30133\include\xtree
; File C:\Users\murat\Desktop\Siveps2-1-99-Project\source\client\Client\GameLib\MapOutdoorLoad.cpp
; File C:\Program Files (x86)\Microsoft Visual Studio\2019\Professional\VC\Tools\MSVC\14.29.30133\include\xstring
; File C:\Users\murat\Desktop\Siveps2-1-99-Project\source\client\Client\GameLib\MapOutdoorLoad.cpp
; File C:\Program Files (x86)\Microsoft Visual Studio\2019\Professional\VC\Tools\MSVC\14.29.30133\include\xstring
; File C:\Users\murat\Desktop\Siveps2-1-99-Project\source\client\Client\GameLib\MapOutdoorLoad.cpp
; File C:\Program Files (x86)\Microsoft Visual Studio\2019\Professional\VC\Tools\MSVC\14.29.30133\include\xstring
; File C:\Users\murat\Desktop\Siveps2-1-99-Project\source\client\Client\GameLib\MapOutdoorLoad.cpp
; File C:\Program Files (x86)\Microsoft Visual Studio\2019\Professional\VC\Tools\MSVC\14.29.30133\include\xstring
; File C:\Users\murat\Desktop\Siveps2-1-99-Project\source\client\Client\GameLib\MapOutdoorLoad.cpp
; File C:\Program Files (x86)\Microsoft Visual Studio\2019\Professional\VC\Tools\MSVC\14.29.30133\include\xstring
; File C:\Program Files (x86)\Microsoft Visual Studio\2019\Professional\VC\Tools\MSVC\14.29.30133\include\xtree
; File C:\Users\murat\Desktop\Siveps2-1-99-Project\source\client\Client\GameLib\MapOutdoorLoad.cpp
; File C:\Program Files (x86)\Microsoft Visual Studio\2019\Professional\VC\Tools\MSVC\14.29.30133\include\xstring
; File C:\Users\murat\Desktop\Siveps2-1-99-Project\source\client\Client\GameLib\MapOutdoorLoad.cpp
; File C:\Program Files (x86)\Microsoft Visual Studio\2019\Professional\VC\Tools\MSVC\14.29.30133\include\xstring
; File C:\Users\murat\Desktop\Siveps2-1-99-Project\source\client\Client\GameLib\MapOutdoorLoad.cpp
; File C:\Program Files (x86)\Microsoft Visual Studio\2019\Professional\VC\Tools\MSVC\14.29.30133\include\vector
; File C:\Users\murat\Desktop\Siveps2-1-99-Project\source\client\Client\GameLib\MapOutdoorLoad.cpp
; File C:\Program Files (x86)\Microsoft Visual Studio\2019\Professional\VC\Tools\MSVC\14.29.30133\include\vector
; File C:\Users\murat\Desktop\Siveps2-1-99-Project\source\client\Client\GameLib\MapOutdoorLoad.cpp
; File C:\Program Files (x86)\Microsoft Visual Studio\2019\Professional\VC\Tools\MSVC\14.29.30133\include\vector
; File C:\Users\murat\Desktop\Siveps2-1-99-Project\source\client\Client\GameLib\MapOutdoorLoad.cpp
; File C:\Program Files (x86)\Microsoft Visual Studio\2019\Professional\VC\Tools\MSVC\14.29.30133\include\vector
; File C:\Users\murat\Desktop\Siveps2-1-99-Project\source\client\Client\GameLib\MapOutdoorLoad.cpp
; File C:\Program Files (x86)\Microsoft Visual Studio\2019\Professional\VC\Tools\MSVC\14.29.30133\include\vector
; File C:\Users\murat\Desktop\Siveps2-1-99-Project\source\client\Client\GameLib\MapOutdoorLoad.cpp
; File C:\Program Files (x86)\Microsoft Visual Studio\2019\Professional\VC\Tools\MSVC\14.29.30133\include\xstring
; File C:\Users\murat\Desktop\Siveps2-1-99-Project\source\client\Client\GameLib\MapOutdoorLoad.cpp
; File C:\Program Files (x86)\Microsoft Visual Studio\2019\Professional\VC\Tools\MSVC\14.29.30133\include\vector
; File C:\Users\murat\Desktop\Siveps2-1-99-Project\source\client\Client\GameLib\MapOutdoorLoad.cpp
; File C:\Program Files (x86)\Microsoft Visual Studio\2019\Professional\VC\Tools\MSVC\14.29.30133\include\xstring
; File C:\Users\murat\Desktop\Siveps2-1-99-Project\source\client\Client\GameLib\MapOutdoorLoad.cpp
; File C:\Program Files (x86)\Microsoft Visual Studio\2019\Professional\VC\Tools\MSVC\14.29.30133\include\xstring
; File C:\Users\murat\Desktop\Siveps2-1-99-Project\source\client\Client\GameLib\MapOutdoorLoad.cpp
; File C:\Program Files (x86)\Microsoft Visual Studio\2019\Professional\VC\Tools\MSVC\14.29.30133\include\xstring
; File C:\Users\murat\Desktop\Siveps2-1-99-Project\source\client\Client\GameLib\MapOutdoorLoad.cpp
; File C:\Program Files (x86)\Microsoft Visual Studio\2019\Professional\VC\Tools\MSVC\14.29.30133\include\xstring
; File C:\Users\murat\Desktop\Siveps2-1-99-Project\source\client\Client\GameLib\MapOutdoorLoad.cpp
; File C:\Program Files (x86)\Microsoft Visual Studio\2019\Professional\VC\Tools\MSVC\14.29.30133\include\xtree
; File C:\Users\murat\Desktop\Siveps2-1-99-Project\source\client\Client\GameLib\MapOutdoorLoad.cpp
; File C:\Program Files (x86)\Microsoft Visual Studio\2019\Professional\VC\Tools\MSVC\14.29.30133\include\xtree
; File C:\Users\murat\Desktop\Siveps2-1-99-Project\source\client\Client\GameLib\MapOutdoorLoad.cpp
; File C:\Program Files (x86)\Microsoft Visual Studio\2019\Professional\VC\Tools\MSVC\14.29.30133\include\vector
; File C:\Users\murat\Desktop\Siveps2-1-99-Project\source\client\Client\GameLib\MapOutdoorLoad.cpp
; File C:\Program Files (x86)\Microsoft Visual Studio\2019\Professional\VC\Tools\MSVC\14.29.30133\include\vector
; File C:\Users\murat\Desktop\Siveps2-1-99-Project\source\client\Client\GameLib\MapOutdoorLoad.cpp
; File C:\Program Files (x86)\Microsoft Visual Studio\2019\Professional\VC\Tools\MSVC\14.29.30133\include\xstring
; File C:\Users\murat\Desktop\Siveps2-1-99-Project\source\client\Client\GameLib\MapOutdoorLoad.cpp
; File C:\Program Files (x86)\Microsoft Visual Studio\2019\Professional\VC\Tools\MSVC\14.29.30133\include\xstring
; File C:\Program Files (x86)\Microsoft Visual Studio\2019\Professional\VC\Tools\MSVC\14.29.30133\include\xmemory
; File C:\Program Files (x86)\Microsoft Visual Studio\2019\Professional\VC\Tools\MSVC\14.29.30133\include\xstring
; File C:\Users\murat\Desktop\Siveps2-1-99-Project\source\client\Client\GameLib\MapOutdoorLoad.cpp
; File C:\Program Files (x86)\Microsoft Visual Studio\2019\Professional\VC\Tools\MSVC\14.29.30133\include\xstring
; File C:\Users\murat\Desktop\Siveps2-1-99-Project\source\client\Client\GameLib\MapOutdoorLoad.cpp
; File C:\Program Files (x86)\Microsoft Visual Studio\2019\Professional\VC\Tools\MSVC\14.29.30133\include\xstring
; File C:\Users\murat\Desktop\Siveps2-1-99-Project\source\client\Client\GameLib\MapOutdoorLoad.cpp
; File C:\Program Files (x86)\Microsoft Visual Studio\2019\Professional\VC\Tools\MSVC\14.29.30133\include\xstring
; File C:\Users\murat\Desktop\Siveps2-1-99-Project\source\client\Client\GameLib\MapOutdoorLoad.cpp
; File C:\Program Files (x86)\Microsoft Visual Studio\2019\Professional\VC\Tools\MSVC\14.29.30133\include\xstring
; File C:\Users\murat\Desktop\Siveps2-1-99-Project\source\client\Client\GameLib\MapOutdoorLoad.cpp
; File C:\Program Files (x86)\Microsoft Visual Studio\2019\Professional\VC\Tools\MSVC\14.29.30133\include\xstring
; File C:\Users\murat\Desktop\Siveps2-1-99-Project\source\client\Client\GameLib\MapOutdoorLoad.cpp
; File C:\Program Files (x86)\Microsoft Visual Studio\2019\Professional\VC\Tools\MSVC\14.29.30133\include\xstring
; File C:\Users\murat\Desktop\Siveps2-1-99-Project\source\client\Client\GameLib\MapOutdoorLoad.cpp
; File C:\Program Files (x86)\Microsoft Visual Studio\2019\Professional\VC\Tools\MSVC\14.29.30133\include\xtree
; File C:\Users\murat\Desktop\Siveps2-1-99-Project\source\client\Client\GameLib\MapOutdoorLoad.cpp
; File C:\Program Files (x86)\Microsoft Visual Studio\2019\Professional\VC\Tools\MSVC\14.29.30133\include\xtree
; File C:\Users\murat\Desktop\Siveps2-1-99-Project\source\client\Client\GameLib\MapOutdoorLoad.cpp
; File C:\Program Files (x86)\Microsoft Visual Studio\2019\Professional\VC\Tools\MSVC\14.29.30133\include\vector
; File C:\Users\murat\Desktop\Siveps2-1-99-Project\source\client\Client\GameLib\MapOutdoorLoad.cpp
; File C:\Program Files (x86)\Microsoft Visual Studio\2019\Professional\VC\Tools\MSVC\14.29.30133\include\xtree
; File C:\Program Files (x86)\Microsoft Visual Studio\2019\Professional\VC\Tools\MSVC\14.29.30133\include\xmemory
; File C:\Users\murat\Desktop\Siveps2-1-99-Project\source\client\Client\GameLib\MapOutdoorLoad.cpp
; File C:\Program Files (x86)\Microsoft Visual Studio\2019\Professional\VC\Tools\MSVC\14.29.30133\include\xmemory
; File C:\Users\murat\Desktop\Siveps2-1-99-Project\source\client\Client\GameLib\MapOutdoorLoad.cpp
; File C:\Program Files (x86)\Microsoft Visual Studio\2019\Professional\VC\Tools\MSVC\14.29.30133\include\xstring
; File C:\Users\murat\Desktop\Siveps2-1-99-Project\source\client\Client\GameLib\MapOutdoorLoad.cpp
;	COMDAT ?LoadSetting@CMapOutdoor@@QAE_NPBD@Z
_TEXT	SEGMENT
__Result$1$ = -504					; size = 4
__Result$1$ = -500					; size = 4
__Result$1$ = -496					; size = 4
_c_rstrType$1$ = -492					; size = 4
_c_szFileName$GSCopy$1$ = -488				; size = 4
_this$GSCopy$1$ = -484					; size = 4
__End$1$ = -480						; size = 4
__Result$2$ = -480					; size = 4
__Result$2$ = -480					; size = 4
__Result$1$ = -480					; size = 4
$T2 = -480						; size = 1
$T3 = -480						; size = 4
$T4 = -480						; size = 4
$T5 = -480						; size = 4
$T6 = -480						; size = 4
$T7 = -480						; size = 4
$T8 = -480						; size = 4
$T9 = -480						; size = 4
_stTokenVectorMap$ = -476				; size = 8
$T10 = -465						; size = 1
__Matches$11 = -464					; size = 256
$T12 = -208						; size = 24
$T13 = -184						; size = 24
$T14 = -160						; size = 24
$T15 = -136						; size = 24
$T16 = -136						; size = 24
$T17 = -112						; size = 24
$T18 = -112						; size = 24
$T19 = -112						; size = 24
$T20 = -112						; size = 24
$T21 = -112						; size = 24
$T22 = -112						; size = 24
_stTextureSetFileName$ = -88				; size = 24
_strTextureSet$ = -64					; size = 24
__Loc$23 = -52						; size = 12
__Loc$24 = -52						; size = 12
$T25 = -40						; size = 24
$T26 = -40						; size = 24
$T27 = -40						; size = 24
$T28 = -40						; size = 24
$T29 = -40						; size = 24
$T30 = -40						; size = 24
$T31 = -40						; size = 24
$T32 = -40						; size = 24
$T33 = -40						; size = 24
__$ArrayPad$ = -16					; size = 4
__$EHRec$ = -12						; size = 12
_c_szFileName$ = 8					; size = 4
?LoadSetting@CMapOutdoor@@QAE_NPBD@Z PROC		; CMapOutdoor::LoadSetting, COMDAT
; _this$ = ecx

; 297  : {

  00000	55		 push	 ebp
  00001	8b ec		 mov	 ebp, esp
  00003	6a ff		 push	 -1
  00005	68 00 00 00 00	 push	 __ehhandler$?LoadSetting@CMapOutdoor@@QAE_NPBD@Z
  0000a	64 a1 00 00 00
	00		 mov	 eax, DWORD PTR fs:0
  00010	50		 push	 eax
  00011	81 ec ec 01 00
	00		 sub	 esp, 492		; 000001ecH
  00017	a1 00 00 00 00	 mov	 eax, DWORD PTR ___security_cookie
  0001c	33 c5		 xor	 eax, ebp
  0001e	89 45 f0	 mov	 DWORD PTR __$ArrayPad$[ebp], eax
  00021	53		 push	 ebx
  00022	56		 push	 esi
  00023	57		 push	 edi
  00024	50		 push	 eax
  00025	8d 45 f4	 lea	 eax, DWORD PTR __$EHRec$[ebp]
  00028	64 a3 00 00 00
	00		 mov	 DWORD PTR fs:0, eax
  0002e	89 8d 1c fe ff
	ff		 mov	 DWORD PTR _this$GSCopy$1$[ebp], ecx
  00034	8b 45 08	 mov	 eax, DWORD PTR _c_szFileName$[ebp]
  00037	89 85 18 fe ff
	ff		 mov	 DWORD PTR _c_szFileName$GSCopy$1$[ebp], eax

; 298  : 	NANOBEGIN

  0003d	eb		 DB	 -21			; ffffffebH
  0003e	03		 DB	 3
  0003f	d6		 DB	 -42			; ffffffd6H
  00040	d7		 DB	 -41			; ffffffd7H
  00041	01		 DB	 1
; File C:\Program Files (x86)\Microsoft Visual Studio\2019\Professional\VC\Tools\MSVC\14.29.30133\include\xtree

; 441  :     _Tree_val() noexcept : _Myhead(), _Mysize(0) {}

  00042	c7 85 24 fe ff
	ff 00 00 00 00	 mov	 DWORD PTR _stTokenVectorMap$[ebp], 0
  0004c	c7 85 28 fe ff
	ff 00 00 00 00	 mov	 DWORD PTR _stTokenVectorMap$[ebp+4], 0
; File C:\Program Files (x86)\Microsoft Visual Studio\2019\Professional\VC\Tools\MSVC\14.29.30133\include\xmemory

; 85   :         return ::operator new(_Bytes);

  00056	6a 34		 push	 52			; 00000034H
  00058	e8 00 00 00 00	 call	 ??2@YAPAXI@Z		; operator new
; File C:\Program Files (x86)\Microsoft Visual Studio\2019\Professional\VC\Tools\MSVC\14.29.30133\include\xtree

; 350  :         _Construct_in_place(_Pnode->_Left, _Pnode);

  0005d	89 00		 mov	 DWORD PTR [eax], eax

; 351  :         _Construct_in_place(_Pnode->_Parent, _Pnode);

  0005f	89 40 04	 mov	 DWORD PTR [eax+4], eax

; 352  :         _Construct_in_place(_Pnode->_Right, _Pnode);

  00062	89 40 08	 mov	 DWORD PTR [eax+8], eax

; 353  :         _Pnode->_Color = _Black;

  00065	66 c7 40 0c 01
	01		 mov	 WORD PTR [eax+12], 257	; 00000101H

; 1925 :         _Scary->_Myhead = _Node::_Buyheadnode(_Getal());

  0006b	89 85 24 fe ff
	ff		 mov	 DWORD PTR _stTokenVectorMap$[ebp], eax
; File C:\Users\murat\Desktop\Siveps2-1-99-Project\source\client\Client\GameLib\MapOutdoorLoad.cpp

; 301  : 	if (!LoadMultipleTextData(c_szFileName, stTokenVectorMap))

  00071	8d 85 24 fe ff
	ff		 lea	 eax, DWORD PTR _stTokenVectorMap$[ebp]
  00077	c7 45 fc 00 00
	00 00		 mov	 DWORD PTR __$EHRec$[ebp+8], 0
  0007e	50		 push	 eax
  0007f	ff b5 18 fe ff
	ff		 push	 DWORD PTR _c_szFileName$GSCopy$1$[ebp]
  00085	e8 00 00 00 00	 call	 ?LoadMultipleTextData@@YA_NPBDAAV?$map@V?$basic_string@DU?$char_traits@D@std@@V?$allocator@D@2@@std@@V?$vector@V?$basic_string@DU?$char_traits@D@std@@V?$allocator@D@2@@std@@V?$allocator@V?$basic_string@DU?$char_traits@D@std@@V?$allocator@D@2@@std@@@2@@2@U?$less@V?$basic_string@DU?$char_traits@D@std@@V?$allocator@D@2@@std@@@2@V?$allocator@U?$pair@$$CBV?$basic_string@DU?$char_traits@D@std@@V?$allocator@D@2@@std@@V?$vector@V?$basic_string@DU?$char_traits@D@std@@V?$allocator@D@2@@std@@V?$allocator@V?$basic_string@DU?$char_traits@D@std@@V?$allocator@D@2@@std@@@2@@2@@std@@@2@@std@@@Z ; LoadMultipleTextData
  0008a	83 c4 0c	 add	 esp, 12			; 0000000cH
  0008d	84 c0		 test	 al, al
  0008f	75 0a		 jne	 SHORT $LN2@LoadSettin

; 302  : 	{
; 303  : 		TraceError("MapOutdoor::LoadSetting(c_szFileName=%s) - LoadMultipleTextData", c_szFileName);

  00091	b8 00 00 00 00	 mov	 eax, OFFSET ??_C@_0EA@IGDFIJCO@MapOutdoor?3?3LoadSetting?$CIc_szFil@
  00096	e9 2b 02 00 00	 jmp	 $LN51@LoadSettin
$LN2@LoadSettin:
; File C:\Program Files (x86)\Microsoft Visual Studio\2019\Professional\VC\Tools\MSVC\14.29.30133\include\xstring

; 122  :         _CSTD memmove(_First1, _First2, _Count * sizeof(_Elem));

  0009b	66 a1 08 00 00
	00		 mov	 ax, WORD PTR ??_C@_0L@PCFMFEAG@scripttype@+8
; File C:\Program Files (x86)\Microsoft Visual Studio\2019\Professional\VC\Tools\MSVC\14.29.30133\include\xtree

; 1361 :         const _Tree_find_result<_Nodeptr> _Loc = _Find_lower_bound(_Keyval);

  000a1	8d 8d 24 fe ff
	ff		 lea	 ecx, DWORD PTR _stTokenVectorMap$[ebp]
; File C:\Program Files (x86)\Microsoft Visual Studio\2019\Professional\VC\Tools\MSVC\14.29.30133\include\xstring

; 122  :         _CSTD memmove(_First1, _First2, _Count * sizeof(_Elem));

  000a7	f3 0f 7e 05 00
	00 00 00	 movq	 xmm0, QWORD PTR ??_C@_0L@PCFMFEAG@scripttype@
  000af	66 89 45 e0	 mov	 WORD PTR $T33[ebp+8], ax
; File C:\Program Files (x86)\Microsoft Visual Studio\2019\Professional\VC\Tools\MSVC\14.29.30133\include\xtree

; 1361 :         const _Tree_find_result<_Nodeptr> _Loc = _Find_lower_bound(_Keyval);

  000b3	8d 45 d8	 lea	 eax, DWORD PTR $T33[ebp]
  000b6	50		 push	 eax
  000b7	8d 45 cc	 lea	 eax, DWORD PTR __Loc$24[ebp]
; File C:\Program Files (x86)\Microsoft Visual Studio\2019\Professional\VC\Tools\MSVC\14.29.30133\include\xstring

; 4610 :             _My_data._Myres = _BUF_SIZE - 1;

  000ba	c7 45 ec 0f 00
	00 00		 mov	 DWORD PTR $T33[ebp+20], 15 ; 0000000fH
; File C:\Program Files (x86)\Microsoft Visual Studio\2019\Professional\VC\Tools\MSVC\14.29.30133\include\xtree

; 1361 :         const _Tree_find_result<_Nodeptr> _Loc = _Find_lower_bound(_Keyval);

  000c1	50		 push	 eax
; File C:\Program Files (x86)\Microsoft Visual Studio\2019\Professional\VC\Tools\MSVC\14.29.30133\include\xstring

; 3248 :             _Mypair._Myval2._Mysize = _Count;

  000c2	c7 45 e8 0a 00
	00 00		 mov	 DWORD PTR $T33[ebp+16], 10 ; 0000000aH

; 122  :         _CSTD memmove(_First1, _First2, _Count * sizeof(_Elem));

  000c9	66 0f d6 45 d8	 movq	 QWORD PTR $T33[ebp], xmm0

; 3250 :             _Traits::assign(_Old_ptr[_Count], _Elem());

  000ce	c6 45 e2 00	 mov	 BYTE PTR $T33[ebp+10], 0
; File C:\Program Files (x86)\Microsoft Visual Studio\2019\Professional\VC\Tools\MSVC\14.29.30133\include\xtree

; 1361 :         const _Tree_find_result<_Nodeptr> _Loc = _Find_lower_bound(_Keyval);

  000d2	e8 00 00 00 00	 call	 ??$_Find_lower_bound@V?$basic_string@DU?$char_traits@D@std@@V?$allocator@D@2@@std@@@?$_Tree@V?$_Tmap_traits@V?$basic_string@DU?$char_traits@D@std@@V?$allocator@D@2@@std@@V?$vector@V?$basic_string@DU?$char_traits@D@std@@V?$allocator@D@2@@std@@V?$allocator@V?$basic_string@DU?$char_traits@D@std@@V?$allocator@D@2@@std@@@2@@2@U?$less@V?$basic_string@DU?$char_traits@D@std@@V?$allocator@D@2@@std@@@2@V?$allocator@U?$pair@$$CBV?$basic_string@DU?$char_traits@D@std@@V?$allocator@D@2@@std@@V?$vector@V?$basic_string@DU?$char_traits@D@std@@V?$allocator@D@2@@std@@V?$allocator@V?$basic_string@DU?$char_traits@D@std@@V?$allocator@D@2@@std@@@2@@2@@std@@@2@$0A@@std@@@std@@IBE?AU?$_Tree_find_result@PAU?$_Tree_node@U?$pair@$$CBV?$basic_string@DU?$char_traits@D@std@@V?$allocator@D@2@@std@@V?$vector@V?$basic_string@DU?$char_traits@D@std@@V?$allocator@D@2@@std@@V?$allocator@V?$basic_string@DU?$char_traits@D@std@@V?$allocator@D@2@@std@@@2@@2@@std@@PAX@std@@@1@ABV?$basic_string@DU?$char_traits@D@std@@V?$allocator@D@2@@1@@Z ; std::_Tree<std::_Tmap_traits<std::basic_string<char,std::char_traits<char>,std::allocator<char> >,std::vector<std::basic_string<char,std::char_traits<char>,std::allocator<char> >,std::allocator<std::basic_string<char,std::char_traits<char>,std::allocator<char> > > >,std::less<std::basic_string<char,std::char_traits<char>,std::allocator<char> > >,std::allocator<std::pair<std::basic_string<char,std::char_traits<char>,std::allocator<char> > const ,std::vector<std::basic_string<char,std::char_traits<char>,std::allocator<char> >,std::allocator<std::basic_string<char,std::char_traits<char>,std::allocator<char> > > > > >,0> >::_Find_lower_bound<std::basic_string<char,std::char_traits<char>,std::allocator<char> > >

; 1599 :         return !_Bound->_Isnil && !_DEBUG_LT_PRED(_Getcomp(), _Keyval, _Traits::_Kfn(_Bound->_Myval));

  000d7	8b 7d d4	 mov	 edi, DWORD PTR __Loc$24[ebp+8]
  000da	8b b5 24 fe ff
	ff		 mov	 esi, DWORD PTR _stTokenVectorMap$[ebp]
  000e0	80 7f 0d 00	 cmp	 BYTE PTR [edi+13], 0
  000e4	75 14		 jne	 SHORT $LN163@LoadSettin
  000e6	8d 47 10	 lea	 eax, DWORD PTR [edi+16]
; File C:\Program Files (x86)\Microsoft Visual Studio\2019\Professional\VC\Tools\MSVC\14.29.30133\include\xstddef

; 127  :         return _Left < _Right;

  000e9	50		 push	 eax
  000ea	8d 45 d8	 lea	 eax, DWORD PTR $T33[ebp]
  000ed	50		 push	 eax
  000ee	e8 00 00 00 00	 call	 ??$?MDU?$char_traits@D@std@@V?$allocator@D@1@@std@@YA_NABV?$basic_string@DU?$char_traits@D@std@@V?$allocator@D@2@@0@0@Z ; std::operator<<char,std::char_traits<char>,std::allocator<char> >
  000f3	83 c4 08	 add	 esp, 8
; File C:\Program Files (x86)\Microsoft Visual Studio\2019\Professional\VC\Tools\MSVC\14.29.30133\include\xtree

; 1599 :         return !_Bound->_Isnil && !_DEBUG_LT_PRED(_Getcomp(), _Keyval, _Traits::_Kfn(_Bound->_Myval));

  000f6	84 c0		 test	 al, al
  000f8	74 02		 je	 SHORT $LN162@LoadSettin
$LN163@LoadSettin:

; 1366 :         return _Get_scary()->_Myhead;

  000fa	8b fe		 mov	 edi, esi
$LN162@LoadSettin:

; 236  :         return this->_Ptr == _Right._Ptr;

  000fc	3b f7		 cmp	 esi, edi
; File C:\Program Files (x86)\Microsoft Visual Studio\2019\Professional\VC\Tools\MSVC\14.29.30133\include\xstring

; 4618 :         if (_Mypair._Myval2._Large_string_engaged()) {

  000fe	ba 0f 00 00 00	 mov	 edx, 15			; 0000000fH
; File C:\Program Files (x86)\Microsoft Visual Studio\2019\Professional\VC\Tools\MSVC\14.29.30133\include\xtree

; 236  :         return this->_Ptr == _Right._Ptr;

  00103	0f 94 c0	 sete	 al
; File C:\Users\murat\Desktop\Siveps2-1-99-Project\source\client\Client\GameLib\MapOutdoorLoad.cpp

; 307  : 	if (stTokenVectorMap.end() == stTokenVectorMap.find("scripttype"))

  00106	84 c0		 test	 al, al
  00108	74 0a		 je	 SHORT $LN3@LoadSettin

; 308  : 	{
; 309  : 		TraceError("MapOutdoor::LoadSetting(c_szFileName=%s) - FIND 'scripttype' - FAILED", c_szFileName);
; 310  : 		return false;

  0010a	b8 00 00 00 00	 mov	 eax, OFFSET ??_C@_0EG@NNBBNFDL@MapOutdoor?3?3LoadSetting?$CIc_szFil@
  0010f	e9 b2 01 00 00	 jmp	 $LN51@LoadSettin
$LN3@LoadSettin:
; File C:\Program Files (x86)\Microsoft Visual Studio\2019\Professional\VC\Tools\MSVC\14.29.30133\include\xstring

; 122  :         _CSTD memmove(_First1, _First2, _Count * sizeof(_Elem));

  00114	66 a1 08 00 00
	00		 mov	 ax, WORD PTR ??_C@_0L@NLJHFBAM@viewradius@+8
; File C:\Program Files (x86)\Microsoft Visual Studio\2019\Professional\VC\Tools\MSVC\14.29.30133\include\xtree

; 1361 :         const _Tree_find_result<_Nodeptr> _Loc = _Find_lower_bound(_Keyval);

  0011a	8d 8d 24 fe ff
	ff		 lea	 ecx, DWORD PTR _stTokenVectorMap$[ebp]
; File C:\Program Files (x86)\Microsoft Visual Studio\2019\Professional\VC\Tools\MSVC\14.29.30133\include\xstring

; 122  :         _CSTD memmove(_First1, _First2, _Count * sizeof(_Elem));

  00120	f3 0f 7e 05 00
	00 00 00	 movq	 xmm0, QWORD PTR ??_C@_0L@NLJHFBAM@viewradius@
  00128	66 89 45 e0	 mov	 WORD PTR $T32[ebp+8], ax
; File C:\Program Files (x86)\Microsoft Visual Studio\2019\Professional\VC\Tools\MSVC\14.29.30133\include\xtree

; 1361 :         const _Tree_find_result<_Nodeptr> _Loc = _Find_lower_bound(_Keyval);

  0012c	8d 45 d8	 lea	 eax, DWORD PTR $T32[ebp]
  0012f	50		 push	 eax
  00130	8d 45 cc	 lea	 eax, DWORD PTR __Loc$23[ebp]
; File C:\Program Files (x86)\Microsoft Visual Studio\2019\Professional\VC\Tools\MSVC\14.29.30133\include\xstring

; 4610 :             _My_data._Myres = _BUF_SIZE - 1;

  00133	89 55 ec	 mov	 DWORD PTR $T32[ebp+20], edx
; File C:\Program Files (x86)\Microsoft Visual Studio\2019\Professional\VC\Tools\MSVC\14.29.30133\include\xtree

; 1361 :         const _Tree_find_result<_Nodeptr> _Loc = _Find_lower_bound(_Keyval);

  00136	50		 push	 eax
; File C:\Program Files (x86)\Microsoft Visual Studio\2019\Professional\VC\Tools\MSVC\14.29.30133\include\xstring

; 3248 :             _Mypair._Myval2._Mysize = _Count;

  00137	c7 45 e8 0a 00
	00 00		 mov	 DWORD PTR $T32[ebp+16], 10 ; 0000000aH

; 122  :         _CSTD memmove(_First1, _First2, _Count * sizeof(_Elem));

  0013e	66 0f d6 45 d8	 movq	 QWORD PTR $T32[ebp], xmm0

; 3250 :             _Traits::assign(_Old_ptr[_Count], _Elem());

  00143	c6 45 e2 00	 mov	 BYTE PTR $T32[ebp+10], 0
; File C:\Program Files (x86)\Microsoft Visual Studio\2019\Professional\VC\Tools\MSVC\14.29.30133\include\xtree

; 1361 :         const _Tree_find_result<_Nodeptr> _Loc = _Find_lower_bound(_Keyval);

  00147	e8 00 00 00 00	 call	 ??$_Find_lower_bound@V?$basic_string@DU?$char_traits@D@std@@V?$allocator@D@2@@std@@@?$_Tree@V?$_Tmap_traits@V?$basic_string@DU?$char_traits@D@std@@V?$allocator@D@2@@std@@V?$vector@V?$basic_string@DU?$char_traits@D@std@@V?$allocator@D@2@@std@@V?$allocator@V?$basic_string@DU?$char_traits@D@std@@V?$allocator@D@2@@std@@@2@@2@U?$less@V?$basic_string@DU?$char_traits@D@std@@V?$allocator@D@2@@std@@@2@V?$allocator@U?$pair@$$CBV?$basic_string@DU?$char_traits@D@std@@V?$allocator@D@2@@std@@V?$vector@V?$basic_string@DU?$char_traits@D@std@@V?$allocator@D@2@@std@@V?$allocator@V?$basic_string@DU?$char_traits@D@std@@V?$allocator@D@2@@std@@@2@@2@@std@@@2@$0A@@std@@@std@@IBE?AU?$_Tree_find_result@PAU?$_Tree_node@U?$pair@$$CBV?$basic_string@DU?$char_traits@D@std@@V?$allocator@D@2@@std@@V?$vector@V?$basic_string@DU?$char_traits@D@std@@V?$allocator@D@2@@std@@V?$allocator@V?$basic_string@DU?$char_traits@D@std@@V?$allocator@D@2@@std@@@2@@2@@std@@PAX@std@@@1@ABV?$basic_string@DU?$char_traits@D@std@@V?$allocator@D@2@@1@@Z ; std::_Tree<std::_Tmap_traits<std::basic_string<char,std::char_traits<char>,std::allocator<char> >,std::vector<std::basic_string<char,std::char_traits<char>,std::allocator<char> >,std::allocator<std::basic_string<char,std::char_traits<char>,std::allocator<char> > > >,std::less<std::basic_string<char,std::char_traits<char>,std::allocator<char> > >,std::allocator<std::pair<std::basic_string<char,std::char_traits<char>,std::allocator<char> > const ,std::vector<std::basic_string<char,std::char_traits<char>,std::allocator<char> >,std::allocator<std::basic_string<char,std::char_traits<char>,std::allocator<char> > > > > >,0> >::_Find_lower_bound<std::basic_string<char,std::char_traits<char>,std::allocator<char> > >

; 1599 :         return !_Bound->_Isnil && !_DEBUG_LT_PRED(_Getcomp(), _Keyval, _Traits::_Kfn(_Bound->_Myval));

  0014c	8b 7d d4	 mov	 edi, DWORD PTR __Loc$23[ebp+8]
  0014f	80 7f 0d 00	 cmp	 BYTE PTR [edi+13], 0
  00153	75 14		 jne	 SHORT $LN289@LoadSettin
  00155	8d 47 10	 lea	 eax, DWORD PTR [edi+16]
; File C:\Program Files (x86)\Microsoft Visual Studio\2019\Professional\VC\Tools\MSVC\14.29.30133\include\xstddef

; 127  :         return _Left < _Right;

  00158	50		 push	 eax
  00159	8d 45 d8	 lea	 eax, DWORD PTR $T32[ebp]
  0015c	50		 push	 eax
  0015d	e8 00 00 00 00	 call	 ??$?MDU?$char_traits@D@std@@V?$allocator@D@1@@std@@YA_NABV?$basic_string@DU?$char_traits@D@std@@V?$allocator@D@2@@0@0@Z ; std::operator<<char,std::char_traits<char>,std::allocator<char> >
  00162	83 c4 08	 add	 esp, 8
; File C:\Program Files (x86)\Microsoft Visual Studio\2019\Professional\VC\Tools\MSVC\14.29.30133\include\xtree

; 1599 :         return !_Bound->_Isnil && !_DEBUG_LT_PRED(_Getcomp(), _Keyval, _Traits::_Kfn(_Bound->_Myval));

  00165	84 c0		 test	 al, al
  00167	74 02		 je	 SHORT $LN288@LoadSettin
$LN289@LoadSettin:

; 1366 :         return _Get_scary()->_Myhead;

  00169	8b fe		 mov	 edi, esi
$LN288@LoadSettin:

; 236  :         return this->_Ptr == _Right._Ptr;

  0016b	3b f7		 cmp	 esi, edi
; File C:\Program Files (x86)\Microsoft Visual Studio\2019\Professional\VC\Tools\MSVC\14.29.30133\include\xstring

; 4618 :         if (_Mypair._Myval2._Large_string_engaged()) {

  0016d	ba 0f 00 00 00	 mov	 edx, 15			; 0000000fH
; File C:\Program Files (x86)\Microsoft Visual Studio\2019\Professional\VC\Tools\MSVC\14.29.30133\include\xtree

; 236  :         return this->_Ptr == _Right._Ptr;

  00172	0f 94 c0	 sete	 al
; File C:\Users\murat\Desktop\Siveps2-1-99-Project\source\client\Client\GameLib\MapOutdoorLoad.cpp

; 313  : 	if (stTokenVectorMap.end() == stTokenVectorMap.find("viewradius"))

  00175	84 c0		 test	 al, al
  00177	74 0a		 je	 SHORT $LN4@LoadSettin

; 314  : 	{
; 315  : 		TraceError("MapOutdoor::LoadSetting(c_szFileName=%s) - FIND 'viewradius' - FAILED", c_szFileName);
; 316  : 		return false;

  00179	b8 00 00 00 00	 mov	 eax, OFFSET ??_C@_0EG@PNENCHJD@MapOutdoor?3?3LoadSetting?$CIc_szFil@
  0017e	e9 43 01 00 00	 jmp	 $LN51@LoadSettin
$LN4@LoadSettin:
; File C:\Program Files (x86)\Microsoft Visual Studio\2019\Professional\VC\Tools\MSVC\14.29.30133\include\xstring

; 122  :         _CSTD memmove(_First1, _First2, _Count * sizeof(_Elem));

  00183	a0 08 00 00 00	 mov	 al, BYTE PTR ??_C@_09HCPKDAEG@cellscale@+8
; File C:\Users\murat\Desktop\Siveps2-1-99-Project\source\client\Client\GameLib\MapOutdoorLoad.cpp

; 319  : 	if (stTokenVectorMap.end() == stTokenVectorMap.find("cellscale"))

  00188	8d 8d 24 fe ff
	ff		 lea	 ecx, DWORD PTR _stTokenVectorMap$[ebp]
; File C:\Program Files (x86)\Microsoft Visual Studio\2019\Professional\VC\Tools\MSVC\14.29.30133\include\xstring

; 122  :         _CSTD memmove(_First1, _First2, _Count * sizeof(_Elem));

  0018e	f3 0f 7e 05 00
	00 00 00	 movq	 xmm0, QWORD PTR ??_C@_09HCPKDAEG@cellscale@

; 4610 :             _My_data._Myres = _BUF_SIZE - 1;

  00196	8b fa		 mov	 edi, edx

; 122  :         _CSTD memmove(_First1, _First2, _Count * sizeof(_Elem));

  00198	88 45 e0	 mov	 BYTE PTR $T31[ebp+8], al
; File C:\Users\murat\Desktop\Siveps2-1-99-Project\source\client\Client\GameLib\MapOutdoorLoad.cpp

; 319  : 	if (stTokenVectorMap.end() == stTokenVectorMap.find("cellscale"))

  0019b	8d 45 d8	 lea	 eax, DWORD PTR $T31[ebp]
  0019e	50		 push	 eax
  0019f	8d 85 20 fe ff
	ff		 lea	 eax, DWORD PTR $T9[ebp]
; File C:\Program Files (x86)\Microsoft Visual Studio\2019\Professional\VC\Tools\MSVC\14.29.30133\include\xstring

; 4610 :             _My_data._Myres = _BUF_SIZE - 1;

  001a5	89 7d ec	 mov	 DWORD PTR $T31[ebp+20], edi
; File C:\Users\murat\Desktop\Siveps2-1-99-Project\source\client\Client\GameLib\MapOutdoorLoad.cpp

; 319  : 	if (stTokenVectorMap.end() == stTokenVectorMap.find("cellscale"))

  001a8	50		 push	 eax
; File C:\Program Files (x86)\Microsoft Visual Studio\2019\Professional\VC\Tools\MSVC\14.29.30133\include\xstring

; 3248 :             _Mypair._Myval2._Mysize = _Count;

  001a9	c7 45 e8 09 00
	00 00		 mov	 DWORD PTR $T31[ebp+16], 9

; 122  :         _CSTD memmove(_First1, _First2, _Count * sizeof(_Elem));

  001b0	66 0f d6 45 d8	 movq	 QWORD PTR $T31[ebp], xmm0

; 3250 :             _Traits::assign(_Old_ptr[_Count], _Elem());

  001b5	c6 45 e1 00	 mov	 BYTE PTR $T31[ebp+9], 0
; File C:\Users\murat\Desktop\Siveps2-1-99-Project\source\client\Client\GameLib\MapOutdoorLoad.cpp

; 319  : 	if (stTokenVectorMap.end() == stTokenVectorMap.find("cellscale"))

  001b9	e8 00 00 00 00	 call	 ?find@?$_Tree@V?$_Tmap_traits@V?$basic_string@DU?$char_traits@D@std@@V?$allocator@D@2@@std@@V?$vector@V?$basic_string@DU?$char_traits@D@std@@V?$allocator@D@2@@std@@V?$allocator@V?$basic_string@DU?$char_traits@D@std@@V?$allocator@D@2@@std@@@2@@2@U?$less@V?$basic_string@DU?$char_traits@D@std@@V?$allocator@D@2@@std@@@2@V?$allocator@U?$pair@$$CBV?$basic_string@DU?$char_traits@D@std@@V?$allocator@D@2@@std@@V?$vector@V?$basic_string@DU?$char_traits@D@std@@V?$allocator@D@2@@std@@V?$allocator@V?$basic_string@DU?$char_traits@D@std@@V?$allocator@D@2@@std@@@2@@2@@std@@@2@$0A@@std@@@std@@QAE?AV?$_Tree_iterator@V?$_Tree_val@U?$_Tree_simple_types@U?$pair@$$CBV?$basic_string@DU?$char_traits@D@std@@V?$allocator@D@2@@std@@V?$vector@V?$basic_string@DU?$char_traits@D@std@@V?$allocator@D@2@@std@@V?$allocator@V?$basic_string@DU?$char_traits@D@std@@V?$allocator@D@2@@std@@@2@@2@@std@@@std@@@std@@@2@ABV?$basic_string@DU?$char_traits@D@std@@V?$allocator@D@2@@2@@Z ; std::_Tree<std::_Tmap_traits<std::basic_string<char,std::char_traits<char>,std::allocator<char> >,std::vector<std::basic_string<char,std::char_traits<char>,std::allocator<char> >,std::allocator<std::basic_string<char,std::char_traits<char>,std::allocator<char> > > >,std::less<std::basic_string<char,std::char_traits<char>,std::allocator<char> > >,std::allocator<std::pair<std::basic_string<char,std::char_traits<char>,std::allocator<char> > const ,std::vector<std::basic_string<char,std::char_traits<char>,std::allocator<char> >,std::allocator<std::basic_string<char,std::char_traits<char>,std::allocator<char> > > > > >,0> >::find
; File C:\Program Files (x86)\Microsoft Visual Studio\2019\Professional\VC\Tools\MSVC\14.29.30133\include\xtree

; 236  :         return this->_Ptr == _Right._Ptr;

  001be	3b 30		 cmp	 esi, DWORD PTR [eax]
  001c0	0f 94 c0	 sete	 al
; File C:\Users\murat\Desktop\Siveps2-1-99-Project\source\client\Client\GameLib\MapOutdoorLoad.cpp

; 319  : 	if (stTokenVectorMap.end() == stTokenVectorMap.find("cellscale"))

  001c3	84 c0		 test	 al, al
  001c5	74 0a		 je	 SHORT $LN5@LoadSettin

; 320  : 	{
; 321  : 		TraceError("MapOutdoor::LoadSetting(c_szFileName=%s) - FIND 'cellscale' - FAILED", c_szFileName);
; 322  : 		return false;

  001c7	b8 00 00 00 00	 mov	 eax, OFFSET ??_C@_0EF@BILODNMF@MapOutdoor?3?3LoadSetting?$CIc_szFil@
  001cc	e9 f5 00 00 00	 jmp	 $LN51@LoadSettin
$LN5@LoadSettin:
; File C:\Program Files (x86)\Microsoft Visual Studio\2019\Professional\VC\Tools\MSVC\14.29.30133\include\xstring

; 122  :         _CSTD memmove(_First1, _First2, _Count * sizeof(_Elem));

  001d1	66 a1 08 00 00
	00		 mov	 ax, WORD PTR ??_C@_0M@MNHNKMP@heightscale@+8
; File C:\Users\murat\Desktop\Siveps2-1-99-Project\source\client\Client\GameLib\MapOutdoorLoad.cpp

; 325  : 	if (stTokenVectorMap.end() == stTokenVectorMap.find("heightscale"))

  001d7	8d 8d 24 fe ff
	ff		 lea	 ecx, DWORD PTR _stTokenVectorMap$[ebp]
; File C:\Program Files (x86)\Microsoft Visual Studio\2019\Professional\VC\Tools\MSVC\14.29.30133\include\xstring

; 122  :         _CSTD memmove(_First1, _First2, _Count * sizeof(_Elem));

  001dd	f3 0f 7e 05 00
	00 00 00	 movq	 xmm0, QWORD PTR ??_C@_0M@MNHNKMP@heightscale@
  001e5	66 89 45 e0	 mov	 WORD PTR $T30[ebp+8], ax
  001e9	a0 0a 00 00 00	 mov	 al, BYTE PTR ??_C@_0M@MNHNKMP@heightscale@+10
  001ee	88 45 e2	 mov	 BYTE PTR $T30[ebp+10], al
; File C:\Users\murat\Desktop\Siveps2-1-99-Project\source\client\Client\GameLib\MapOutdoorLoad.cpp

; 325  : 	if (stTokenVectorMap.end() == stTokenVectorMap.find("heightscale"))

  001f1	8d 45 d8	 lea	 eax, DWORD PTR $T30[ebp]
  001f4	50		 push	 eax
  001f5	8d 85 20 fe ff
	ff		 lea	 eax, DWORD PTR $T8[ebp]
; File C:\Program Files (x86)\Microsoft Visual Studio\2019\Professional\VC\Tools\MSVC\14.29.30133\include\xstring

; 4610 :             _My_data._Myres = _BUF_SIZE - 1;

  001fb	89 7d ec	 mov	 DWORD PTR $T30[ebp+20], edi
; File C:\Users\murat\Desktop\Siveps2-1-99-Project\source\client\Client\GameLib\MapOutdoorLoad.cpp

; 325  : 	if (stTokenVectorMap.end() == stTokenVectorMap.find("heightscale"))

  001fe	50		 push	 eax
; File C:\Program Files (x86)\Microsoft Visual Studio\2019\Professional\VC\Tools\MSVC\14.29.30133\include\xstring

; 3248 :             _Mypair._Myval2._Mysize = _Count;

  001ff	c7 45 e8 0b 00
	00 00		 mov	 DWORD PTR $T30[ebp+16], 11 ; 0000000bH

; 122  :         _CSTD memmove(_First1, _First2, _Count * sizeof(_Elem));

  00206	66 0f d6 45 d8	 movq	 QWORD PTR $T30[ebp], xmm0

; 3250 :             _Traits::assign(_Old_ptr[_Count], _Elem());

  0020b	c6 45 e3 00	 mov	 BYTE PTR $T30[ebp+11], 0
; File C:\Users\murat\Desktop\Siveps2-1-99-Project\source\client\Client\GameLib\MapOutdoorLoad.cpp

; 325  : 	if (stTokenVectorMap.end() == stTokenVectorMap.find("heightscale"))

  0020f	e8 00 00 00 00	 call	 ?find@?$_Tree@V?$_Tmap_traits@V?$basic_string@DU?$char_traits@D@std@@V?$allocator@D@2@@std@@V?$vector@V?$basic_string@DU?$char_traits@D@std@@V?$allocator@D@2@@std@@V?$allocator@V?$basic_string@DU?$char_traits@D@std@@V?$allocator@D@2@@std@@@2@@2@U?$less@V?$basic_string@DU?$char_traits@D@std@@V?$allocator@D@2@@std@@@2@V?$allocator@U?$pair@$$CBV?$basic_string@DU?$char_traits@D@std@@V?$allocator@D@2@@std@@V?$vector@V?$basic_string@DU?$char_traits@D@std@@V?$allocator@D@2@@std@@V?$allocator@V?$basic_string@DU?$char_traits@D@std@@V?$allocator@D@2@@std@@@2@@2@@std@@@2@$0A@@std@@@std@@QAE?AV?$_Tree_iterator@V?$_Tree_val@U?$_Tree_simple_types@U?$pair@$$CBV?$basic_string@DU?$char_traits@D@std@@V?$allocator@D@2@@std@@V?$vector@V?$basic_string@DU?$char_traits@D@std@@V?$allocator@D@2@@std@@V?$allocator@V?$basic_string@DU?$char_traits@D@std@@V?$allocator@D@2@@std@@@2@@2@@std@@@std@@@std@@@2@ABV?$basic_string@DU?$char_traits@D@std@@V?$allocator@D@2@@2@@Z ; std::_Tree<std::_Tmap_traits<std::basic_string<char,std::char_traits<char>,std::allocator<char> >,std::vector<std::basic_string<char,std::char_traits<char>,std::allocator<char> >,std::allocator<std::basic_string<char,std::char_traits<char>,std::allocator<char> > > >,std::less<std::basic_string<char,std::char_traits<char>,std::allocator<char> > >,std::allocator<std::pair<std::basic_string<char,std::char_traits<char>,std::allocator<char> > const ,std::vector<std::basic_string<char,std::char_traits<char>,std::allocator<char> >,std::allocator<std::basic_string<char,std::char_traits<char>,std::allocator<char> > > > > >,0> >::find
; File C:\Program Files (x86)\Microsoft Visual Studio\2019\Professional\VC\Tools\MSVC\14.29.30133\include\xtree

; 236  :         return this->_Ptr == _Right._Ptr;

  00214	3b 30		 cmp	 esi, DWORD PTR [eax]
  00216	0f 94 c0	 sete	 al
; File C:\Users\murat\Desktop\Siveps2-1-99-Project\source\client\Client\GameLib\MapOutdoorLoad.cpp

; 325  : 	if (stTokenVectorMap.end() == stTokenVectorMap.find("heightscale"))

  00219	84 c0		 test	 al, al
  0021b	74 0a		 je	 SHORT $LN6@LoadSettin

; 326  : 	{
; 327  : 		TraceError("MapOutdoor::LoadSetting(c_szFileName=%s) - FIND 'heightscale' - FAILED", c_szFileName);
; 328  : 		return false;

  0021d	b8 00 00 00 00	 mov	 eax, OFFSET ??_C@_0EH@FNDNEACP@MapOutdoor?3?3LoadSetting?$CIc_szFil@
  00222	e9 9f 00 00 00	 jmp	 $LN51@LoadSettin
$LN6@LoadSettin:
; File C:\Program Files (x86)\Microsoft Visual Studio\2019\Professional\VC\Tools\MSVC\14.29.30133\include\xstring

; 122  :         _CSTD memmove(_First1, _First2, _Count * sizeof(_Elem));

  00227	66 a1 04 00 00
	00		 mov	 ax, WORD PTR ??_C@_07EOGAIPJO@mapsize@+4
; File C:\Users\murat\Desktop\Siveps2-1-99-Project\source\client\Client\GameLib\MapOutdoorLoad.cpp

; 331  : 	if (stTokenVectorMap.end() == stTokenVectorMap.find("mapsize"))

  0022d	8d 8d 24 fe ff
	ff		 lea	 ecx, DWORD PTR _stTokenVectorMap$[ebp]
; File C:\Program Files (x86)\Microsoft Visual Studio\2019\Professional\VC\Tools\MSVC\14.29.30133\include\xstring

; 122  :         _CSTD memmove(_First1, _First2, _Count * sizeof(_Elem));

  00233	66 89 45 dc	 mov	 WORD PTR $T29[ebp+4], ax
  00237	a0 06 00 00 00	 mov	 al, BYTE PTR ??_C@_07EOGAIPJO@mapsize@+6
  0023c	88 45 de	 mov	 BYTE PTR $T29[ebp+6], al
; File C:\Users\murat\Desktop\Siveps2-1-99-Project\source\client\Client\GameLib\MapOutdoorLoad.cpp

; 331  : 	if (stTokenVectorMap.end() == stTokenVectorMap.find("mapsize"))

  0023f	8d 45 d8	 lea	 eax, DWORD PTR $T29[ebp]
  00242	50		 push	 eax
  00243	8d 85 20 fe ff
	ff		 lea	 eax, DWORD PTR $T7[ebp]
; File C:\Program Files (x86)\Microsoft Visual Studio\2019\Professional\VC\Tools\MSVC\14.29.30133\include\xstring

; 4610 :             _My_data._Myres = _BUF_SIZE - 1;

  00249	89 7d ec	 mov	 DWORD PTR $T29[ebp+20], edi

; 122  :         _CSTD memmove(_First1, _First2, _Count * sizeof(_Elem));

  0024c	8b 3d 00 00 00
	00		 mov	 edi, DWORD PTR ??_C@_07EOGAIPJO@mapsize@
; File C:\Users\murat\Desktop\Siveps2-1-99-Project\source\client\Client\GameLib\MapOutdoorLoad.cpp

; 331  : 	if (stTokenVectorMap.end() == stTokenVectorMap.find("mapsize"))

  00252	50		 push	 eax
; File C:\Program Files (x86)\Microsoft Visual Studio\2019\Professional\VC\Tools\MSVC\14.29.30133\include\xstring

; 3248 :             _Mypair._Myval2._Mysize = _Count;

  00253	c7 45 e8 07 00
	00 00		 mov	 DWORD PTR $T29[ebp+16], 7

; 122  :         _CSTD memmove(_First1, _First2, _Count * sizeof(_Elem));

  0025a	89 7d d8	 mov	 DWORD PTR $T29[ebp], edi

; 3250 :             _Traits::assign(_Old_ptr[_Count], _Elem());

  0025d	c6 45 df 00	 mov	 BYTE PTR $T29[ebp+7], 0
; File C:\Users\murat\Desktop\Siveps2-1-99-Project\source\client\Client\GameLib\MapOutdoorLoad.cpp

; 331  : 	if (stTokenVectorMap.end() == stTokenVectorMap.find("mapsize"))

  00261	e8 00 00 00 00	 call	 ?find@?$_Tree@V?$_Tmap_traits@V?$basic_string@DU?$char_traits@D@std@@V?$allocator@D@2@@std@@V?$vector@V?$basic_string@DU?$char_traits@D@std@@V?$allocator@D@2@@std@@V?$allocator@V?$basic_string@DU?$char_traits@D@std@@V?$allocator@D@2@@std@@@2@@2@U?$less@V?$basic_string@DU?$char_traits@D@std@@V?$allocator@D@2@@std@@@2@V?$allocator@U?$pair@$$CBV?$basic_string@DU?$char_traits@D@std@@V?$allocator@D@2@@std@@V?$vector@V?$basic_string@DU?$char_traits@D@std@@V?$allocator@D@2@@std@@V?$allocator@V?$basic_string@DU?$char_traits@D@std@@V?$allocator@D@2@@std@@@2@@2@@std@@@2@$0A@@std@@@std@@QAE?AV?$_Tree_iterator@V?$_Tree_val@U?$_Tree_simple_types@U?$pair@$$CBV?$basic_string@DU?$char_traits@D@std@@V?$allocator@D@2@@std@@V?$vector@V?$basic_string@DU?$char_traits@D@std@@V?$allocator@D@2@@std@@V?$allocator@V?$basic_string@DU?$char_traits@D@std@@V?$allocator@D@2@@std@@@2@@2@@std@@@std@@@std@@@2@ABV?$basic_string@DU?$char_traits@D@std@@V?$allocator@D@2@@2@@Z ; std::_Tree<std::_Tmap_traits<std::basic_string<char,std::char_traits<char>,std::allocator<char> >,std::vector<std::basic_string<char,std::char_traits<char>,std::allocator<char> >,std::allocator<std::basic_string<char,std::char_traits<char>,std::allocator<char> > > >,std::less<std::basic_string<char,std::char_traits<char>,std::allocator<char> > >,std::allocator<std::pair<std::basic_string<char,std::char_traits<char>,std::allocator<char> > const ,std::vector<std::basic_string<char,std::char_traits<char>,std::allocator<char> >,std::allocator<std::basic_string<char,std::char_traits<char>,std::allocator<char> > > > > >,0> >::find
; File C:\Program Files (x86)\Microsoft Visual Studio\2019\Professional\VC\Tools\MSVC\14.29.30133\include\xstring

; 4618 :         if (_Mypair._Myval2._Large_string_engaged()) {

  00266	b9 0f 00 00 00	 mov	 ecx, 15			; 0000000fH
; File C:\Program Files (x86)\Microsoft Visual Studio\2019\Professional\VC\Tools\MSVC\14.29.30133\include\xtree

; 236  :         return this->_Ptr == _Right._Ptr;

  0026b	3b 30		 cmp	 esi, DWORD PTR [eax]
  0026d	0f 94 c0	 sete	 al
; File C:\Users\murat\Desktop\Siveps2-1-99-Project\source\client\Client\GameLib\MapOutdoorLoad.cpp

; 331  : 	if (stTokenVectorMap.end() == stTokenVectorMap.find("mapsize"))

  00270	84 c0		 test	 al, al
  00272	74 07		 je	 SHORT $LN7@LoadSettin

; 332  : 	{
; 333  : 		TraceError("MapOutdoor::LoadSetting(c_szFileName=%s) - FIND 'mapsize' - FAILED", c_szFileName);
; 334  : 		return false;

  00274	b8 00 00 00 00	 mov	 eax, OFFSET ??_C@_0ED@JGKHJMHO@MapOutdoor?3?3LoadSetting?$CIc_szFil@
  00279	eb 4b		 jmp	 SHORT $LN51@LoadSettin
$LN7@LoadSettin:
; File C:\Program Files (x86)\Microsoft Visual Studio\2019\Professional\VC\Tools\MSVC\14.29.30133\include\xstring

; 122  :         _CSTD memmove(_First1, _First2, _Count * sizeof(_Elem));

  0027b	66 a1 08 00 00
	00		 mov	 ax, WORD PTR ??_C@_0L@FLIBEPMB@textureset@+8

; 4610 :             _My_data._Myres = _BUF_SIZE - 1;

  00281	8b f9		 mov	 edi, ecx

; 122  :         _CSTD memmove(_First1, _First2, _Count * sizeof(_Elem));

  00283	f3 0f 7e 05 00
	00 00 00	 movq	 xmm0, QWORD PTR ??_C@_0L@FLIBEPMB@textureset@
; File C:\Users\murat\Desktop\Siveps2-1-99-Project\source\client\Client\GameLib\MapOutdoorLoad.cpp

; 337  : 	if (stTokenVectorMap.end() == stTokenVectorMap.find("textureset"))

  0028b	8d 8d 24 fe ff
	ff		 lea	 ecx, DWORD PTR _stTokenVectorMap$[ebp]
; File C:\Program Files (x86)\Microsoft Visual Studio\2019\Professional\VC\Tools\MSVC\14.29.30133\include\xstring

; 122  :         _CSTD memmove(_First1, _First2, _Count * sizeof(_Elem));

  00291	66 89 45 e0	 mov	 WORD PTR $T28[ebp+8], ax
; File C:\Users\murat\Desktop\Siveps2-1-99-Project\source\client\Client\GameLib\MapOutdoorLoad.cpp

; 337  : 	if (stTokenVectorMap.end() == stTokenVectorMap.find("textureset"))

  00295	8d 45 d8	 lea	 eax, DWORD PTR $T28[ebp]
  00298	50		 push	 eax
  00299	8d 85 20 fe ff
	ff		 lea	 eax, DWORD PTR $T6[ebp]
; File C:\Program Files (x86)\Microsoft Visual Studio\2019\Professional\VC\Tools\MSVC\14.29.30133\include\xstring

; 4610 :             _My_data._Myres = _BUF_SIZE - 1;

  0029f	89 7d ec	 mov	 DWORD PTR $T28[ebp+20], edi
; File C:\Users\murat\Desktop\Siveps2-1-99-Project\source\client\Client\GameLib\MapOutdoorLoad.cpp

; 337  : 	if (stTokenVectorMap.end() == stTokenVectorMap.find("textureset"))

  002a2	50		 push	 eax
; File C:\Program Files (x86)\Microsoft Visual Studio\2019\Professional\VC\Tools\MSVC\14.29.30133\include\xstring

; 3248 :             _Mypair._Myval2._Mysize = _Count;

  002a3	c7 45 e8 0a 00
	00 00		 mov	 DWORD PTR $T28[ebp+16], 10 ; 0000000aH

; 122  :         _CSTD memmove(_First1, _First2, _Count * sizeof(_Elem));

  002aa	66 0f d6 45 d8	 movq	 QWORD PTR $T28[ebp], xmm0

; 3250 :             _Traits::assign(_Old_ptr[_Count], _Elem());

  002af	c6 45 e2 00	 mov	 BYTE PTR $T28[ebp+10], 0
; File C:\Users\murat\Desktop\Siveps2-1-99-Project\source\client\Client\GameLib\MapOutdoorLoad.cpp

; 337  : 	if (stTokenVectorMap.end() == stTokenVectorMap.find("textureset"))

  002b3	e8 00 00 00 00	 call	 ?find@?$_Tree@V?$_Tmap_traits@V?$basic_string@DU?$char_traits@D@std@@V?$allocator@D@2@@std@@V?$vector@V?$basic_string@DU?$char_traits@D@std@@V?$allocator@D@2@@std@@V?$allocator@V?$basic_string@DU?$char_traits@D@std@@V?$allocator@D@2@@std@@@2@@2@U?$less@V?$basic_string@DU?$char_traits@D@std@@V?$allocator@D@2@@std@@@2@V?$allocator@U?$pair@$$CBV?$basic_string@DU?$char_traits@D@std@@V?$allocator@D@2@@std@@V?$vector@V?$basic_string@DU?$char_traits@D@std@@V?$allocator@D@2@@std@@V?$allocator@V?$basic_string@DU?$char_traits@D@std@@V?$allocator@D@2@@std@@@2@@2@@std@@@2@$0A@@std@@@std@@QAE?AV?$_Tree_iterator@V?$_Tree_val@U?$_Tree_simple_types@U?$pair@$$CBV?$basic_string@DU?$char_traits@D@std@@V?$allocator@D@2@@std@@V?$vector@V?$basic_string@DU?$char_traits@D@std@@V?$allocator@D@2@@std@@V?$allocator@V?$basic_string@DU?$char_traits@D@std@@V?$allocator@D@2@@std@@@2@@2@@std@@@std@@@std@@@2@ABV?$basic_string@DU?$char_traits@D@std@@V?$allocator@D@2@@2@@Z ; std::_Tree<std::_Tmap_traits<std::basic_string<char,std::char_traits<char>,std::allocator<char> >,std::vector<std::basic_string<char,std::char_traits<char>,std::allocator<char> >,std::allocator<std::basic_string<char,std::char_traits<char>,std::allocator<char> > > >,std::less<std::basic_string<char,std::char_traits<char>,std::allocator<char> > >,std::allocator<std::pair<std::basic_string<char,std::char_traits<char>,std::allocator<char> > const ,std::vector<std::basic_string<char,std::char_traits<char>,std::allocator<char> >,std::allocator<std::basic_string<char,std::char_traits<char>,std::allocator<char> > > > > >,0> >::find
; File C:\Program Files (x86)\Microsoft Visual Studio\2019\Professional\VC\Tools\MSVC\14.29.30133\include\xtree

; 236  :         return this->_Ptr == _Right._Ptr;

  002b8	3b 30		 cmp	 esi, DWORD PTR [eax]
  002ba	0f 94 c0	 sete	 al
; File C:\Users\murat\Desktop\Siveps2-1-99-Project\source\client\Client\GameLib\MapOutdoorLoad.cpp

; 337  : 	if (stTokenVectorMap.end() == stTokenVectorMap.find("textureset"))

  002bd	84 c0		 test	 al, al
  002bf	74 20		 je	 SHORT $LN8@LoadSettin

; 338  : 	{
; 339  : 		TraceError("MapOutdoor::LoadSetting(c_szFileName=%s) - FIND 'textureset' - FAILED", c_szFileName);
; 340  : 		return false;

  002c1	b8 00 00 00 00	 mov	 eax, OFFSET ??_C@_0EG@CGMMOJDP@MapOutdoor?3?3LoadSetting?$CIc_szFil@
$LN51@LoadSettin:
  002c6	ff b5 18 fe ff
	ff		 push	 DWORD PTR _c_szFileName$GSCopy$1$[ebp]
  002cc	50		 push	 eax
  002cd	e8 00 00 00 00	 call	 ?TraceError@@YAXPBDZZ	; TraceError
  002d2	83 c4 08	 add	 esp, 8
  002d5	c6 85 2f fe ff
	ff 00		 mov	 BYTE PTR $T10[ebp], 0
  002dc	e9 e6 07 00 00	 jmp	 $LN52@LoadSettin
$LN8@LoadSettin:
; File C:\Program Files (x86)\Microsoft Visual Studio\2019\Professional\VC\Tools\MSVC\14.29.30133\include\xstring

; 122  :         _CSTD memmove(_First1, _First2, _Count * sizeof(_Elem));

  002e1	66 a1 0c 00 00
	00		 mov	 ax, WORD PTR ??_C@_0P@DDEPCBBP@terrainvisible@+12
; File C:\Users\murat\Desktop\Siveps2-1-99-Project\source\client\Client\GameLib\MapOutdoorLoad.cpp

; 343  : 	if (stTokenVectorMap.end() != stTokenVectorMap.find("terrainvisible"))

  002e7	8d 8d 24 fe ff
	ff		 lea	 ecx, DWORD PTR _stTokenVectorMap$[ebp]
; File C:\Program Files (x86)\Microsoft Visual Studio\2019\Professional\VC\Tools\MSVC\14.29.30133\include\xstring

; 122  :         _CSTD memmove(_First1, _First2, _Count * sizeof(_Elem));

  002ed	f3 0f 7e 05 00
	00 00 00	 movq	 xmm0, QWORD PTR ??_C@_0P@DDEPCBBP@terrainvisible@
  002f5	66 89 45 e4	 mov	 WORD PTR $T27[ebp+12], ax
; File C:\Users\murat\Desktop\Siveps2-1-99-Project\source\client\Client\GameLib\MapOutdoorLoad.cpp

; 343  : 	if (stTokenVectorMap.end() != stTokenVectorMap.find("terrainvisible"))

  002f9	8d 45 d8	 lea	 eax, DWORD PTR $T27[ebp]
  002fc	50		 push	 eax
  002fd	8d 85 20 fe ff
	ff		 lea	 eax, DWORD PTR $T5[ebp]
; File C:\Program Files (x86)\Microsoft Visual Studio\2019\Professional\VC\Tools\MSVC\14.29.30133\include\xstring

; 4610 :             _My_data._Myres = _BUF_SIZE - 1;

  00303	89 7d ec	 mov	 DWORD PTR $T27[ebp+20], edi

; 122  :         _CSTD memmove(_First1, _First2, _Count * sizeof(_Elem));

  00306	8b 3d 08 00 00
	00		 mov	 edi, DWORD PTR ??_C@_0P@DDEPCBBP@terrainvisible@+8
; File C:\Users\murat\Desktop\Siveps2-1-99-Project\source\client\Client\GameLib\MapOutdoorLoad.cpp

; 343  : 	if (stTokenVectorMap.end() != stTokenVectorMap.find("terrainvisible"))

  0030c	50		 push	 eax
; File C:\Program Files (x86)\Microsoft Visual Studio\2019\Professional\VC\Tools\MSVC\14.29.30133\include\xstring

; 3248 :             _Mypair._Myval2._Mysize = _Count;

  0030d	c7 45 e8 0e 00
	00 00		 mov	 DWORD PTR $T27[ebp+16], 14 ; 0000000eH

; 122  :         _CSTD memmove(_First1, _First2, _Count * sizeof(_Elem));

  00314	66 0f d6 45 d8	 movq	 QWORD PTR $T27[ebp], xmm0
  00319	89 7d e0	 mov	 DWORD PTR $T27[ebp+8], edi

; 3250 :             _Traits::assign(_Old_ptr[_Count], _Elem());

  0031c	c6 45 e6 00	 mov	 BYTE PTR $T27[ebp+14], 0
; File C:\Users\murat\Desktop\Siveps2-1-99-Project\source\client\Client\GameLib\MapOutdoorLoad.cpp

; 343  : 	if (stTokenVectorMap.end() != stTokenVectorMap.find("terrainvisible"))

  00320	e8 00 00 00 00	 call	 ?find@?$_Tree@V?$_Tmap_traits@V?$basic_string@DU?$char_traits@D@std@@V?$allocator@D@2@@std@@V?$vector@V?$basic_string@DU?$char_traits@D@std@@V?$allocator@D@2@@std@@V?$allocator@V?$basic_string@DU?$char_traits@D@std@@V?$allocator@D@2@@std@@@2@@2@U?$less@V?$basic_string@DU?$char_traits@D@std@@V?$allocator@D@2@@std@@@2@V?$allocator@U?$pair@$$CBV?$basic_string@DU?$char_traits@D@std@@V?$allocator@D@2@@std@@V?$vector@V?$basic_string@DU?$char_traits@D@std@@V?$allocator@D@2@@std@@V?$allocator@V?$basic_string@DU?$char_traits@D@std@@V?$allocator@D@2@@std@@@2@@2@@std@@@2@$0A@@std@@@std@@QAE?AV?$_Tree_iterator@V?$_Tree_val@U?$_Tree_simple_types@U?$pair@$$CBV?$basic_string@DU?$char_traits@D@std@@V?$allocator@D@2@@std@@V?$vector@V?$basic_string@DU?$char_traits@D@std@@V?$allocator@D@2@@std@@V?$allocator@V?$basic_string@DU?$char_traits@D@std@@V?$allocator@D@2@@std@@@2@@2@@std@@@std@@@std@@@2@ABV?$basic_string@DU?$char_traits@D@std@@V?$allocator@D@2@@2@@Z ; std::_Tree<std::_Tmap_traits<std::basic_string<char,std::char_traits<char>,std::allocator<char> >,std::vector<std::basic_string<char,std::char_traits<char>,std::allocator<char> >,std::allocator<std::basic_string<char,std::char_traits<char>,std::allocator<char> > > >,std::less<std::basic_string<char,std::char_traits<char>,std::allocator<char> > >,std::allocator<std::pair<std::basic_string<char,std::char_traits<char>,std::allocator<char> > const ,std::vector<std::basic_string<char,std::char_traits<char>,std::allocator<char> >,std::allocator<std::basic_string<char,std::char_traits<char>,std::allocator<char> > > > > >,0> >::find
; File C:\Program Files (x86)\Microsoft Visual Studio\2019\Professional\VC\Tools\MSVC\14.29.30133\include\xstring

; 4618 :         if (_Mypair._Myval2._Large_string_engaged()) {

  00325	ba 0f 00 00 00	 mov	 edx, 15			; 0000000fH
; File C:\Program Files (x86)\Microsoft Visual Studio\2019\Professional\VC\Tools\MSVC\14.29.30133\include\xtree

; 241  :         return !(*this == _Right);

  0032a	3b 30		 cmp	 esi, DWORD PTR [eax]
  0032c	0f 95 c0	 setne	 al
; File C:\Users\murat\Desktop\Siveps2-1-99-Project\source\client\Client\GameLib\MapOutdoorLoad.cpp

; 343  : 	if (stTokenVectorMap.end() != stTokenVectorMap.find("terrainvisible"))

  0032f	84 c0		 test	 al, al
  00331	74 72		 je	 SHORT $LN9@LoadSettin
; File C:\Program Files (x86)\Microsoft Visual Studio\2019\Professional\VC\Tools\MSVC\14.29.30133\include\xstring

; 122  :         _CSTD memmove(_First1, _First2, _Count * sizeof(_Elem));

  00333	f3 0f 7e 05 00
	00 00 00	 movq	 xmm0, QWORD PTR ??_C@_0P@DDEPCBBP@terrainvisible@
  0033b	66 a1 0c 00 00
	00		 mov	 ax, WORD PTR ??_C@_0P@DDEPCBBP@terrainvisible@+12

; 4610 :             _My_data._Myres = _BUF_SIZE - 1;

  00341	89 55 ec	 mov	 DWORD PTR $T26[ebp+20], edx

; 3248 :             _Mypair._Myval2._Mysize = _Count;

  00344	c7 45 e8 0e 00
	00 00		 mov	 DWORD PTR $T26[ebp+16], 14 ; 0000000eH

; 122  :         _CSTD memmove(_First1, _First2, _Count * sizeof(_Elem));

  0034b	66 0f d6 45 d8	 movq	 QWORD PTR $T26[ebp], xmm0
  00350	89 7d e0	 mov	 DWORD PTR $T26[ebp+8], edi
  00353	66 89 45 e4	 mov	 WORD PTR $T26[ebp+12], ax

; 3250 :             _Traits::assign(_Old_ptr[_Count], _Elem());

  00357	c6 45 e6 00	 mov	 BYTE PTR $T26[ebp+14], 0
; File C:\Users\murat\Desktop\Siveps2-1-99-Project\source\client\Client\GameLib\MapOutdoorLoad.cpp

; 345  : 		m_bSettingTerrainVisible = (bool) (atoi(stTokenVectorMap["terrainvisible"][0].c_str()) != 0);

  0035b	8d 45 d8	 lea	 eax, DWORD PTR $T26[ebp]
  0035e	c6 45 fc 01	 mov	 BYTE PTR __$EHRec$[ebp+8], 1
  00362	50		 push	 eax
  00363	8d 8d 24 fe ff
	ff		 lea	 ecx, DWORD PTR _stTokenVectorMap$[ebp]
  00369	e8 00 00 00 00	 call	 ??A?$map@V?$basic_string@DU?$char_traits@D@std@@V?$allocator@D@2@@std@@V?$vector@V?$basic_string@DU?$char_traits@D@std@@V?$allocator@D@2@@std@@V?$allocator@V?$basic_string@DU?$char_traits@D@std@@V?$allocator@D@2@@std@@@2@@2@U?$less@V?$basic_string@DU?$char_traits@D@std@@V?$allocator@D@2@@std@@@2@V?$allocator@U?$pair@$$CBV?$basic_string@DU?$char_traits@D@std@@V?$allocator@D@2@@std@@V?$vector@V?$basic_string@DU?$char_traits@D@std@@V?$allocator@D@2@@std@@V?$allocator@V?$basic_string@DU?$char_traits@D@std@@V?$allocator@D@2@@std@@@2@@2@@std@@@2@@std@@QAEAAV?$vector@V?$basic_string@DU?$char_traits@D@std@@V?$allocator@D@2@@std@@V?$allocator@V?$basic_string@DU?$char_traits@D@std@@V?$allocator@D@2@@std@@@2@@1@$$QAV?$basic_string@DU?$char_traits@D@std@@V?$allocator@D@2@@1@@Z ; std::map<std::basic_string<char,std::char_traits<char>,std::allocator<char> >,std::vector<std::basic_string<char,std::char_traits<char>,std::allocator<char> >,std::allocator<std::basic_string<char,std::char_traits<char>,std::allocator<char> > > >,std::less<std::basic_string<char,std::char_traits<char>,std::allocator<char> > >,std::allocator<std::pair<std::basic_string<char,std::char_traits<char>,std::allocator<char> > const ,std::vector<std::basic_string<char,std::char_traits<char>,std::allocator<char> >,std::allocator<std::basic_string<char,std::char_traits<char>,std::allocator<char> > > > > > >::operator[]
; File C:\Program Files (x86)\Microsoft Visual Studio\2019\Professional\VC\Tools\MSVC\14.29.30133\include\xstring

; 3922 :         return _Mypair._Myval2._Myptr();

  0036e	8b 00		 mov	 eax, DWORD PTR [eax]

; 2306 :         if (_Large_string_engaged()) {

  00370	83 78 14 10	 cmp	 DWORD PTR [eax+20], 16	; 00000010H
  00374	72 02		 jb	 SHORT $LN964@LoadSettin

; 2307 :             _Result = _Unfancy(_Bx._Ptr);

  00376	8b 00		 mov	 eax, DWORD PTR [eax]
$LN964@LoadSettin:
; File C:\Users\murat\Desktop\Siveps2-1-99-Project\source\client\Client\GameLib\MapOutdoorLoad.cpp

; 345  : 		m_bSettingTerrainVisible = (bool) (atoi(stTokenVectorMap["terrainvisible"][0].c_str()) != 0);

  00378	50		 push	 eax
  00379	e8 00 00 00 00	 call	 __atoi64
  0037e	83 c4 04	 add	 esp, 4
  00381	0b c2		 or	 eax, edx
  00383	74 04		 je	 SHORT $LN21@LoadSettin
  00385	b0 01		 mov	 al, 1
  00387	eb 02		 jmp	 SHORT $LN22@LoadSettin
$LN21@LoadSettin:
  00389	32 c0		 xor	 al, al
$LN22@LoadSettin:
  0038b	8b bd 1c fe ff
	ff		 mov	 edi, DWORD PTR _this$GSCopy$1$[ebp]
  00391	8d 4d d8	 lea	 ecx, DWORD PTR $T26[ebp]
  00394	c6 45 fc 00	 mov	 BYTE PTR __$EHRec$[ebp+8], 0
  00398	88 87 ac 13 00
	00		 mov	 BYTE PTR [edi+5036], al
  0039e	e8 00 00 00 00	 call	 ??1?$basic_string@DU?$char_traits@D@std@@V?$allocator@D@2@@std@@QAE@XZ ; std::basic_string<char,std::char_traits<char>,std::allocator<char> >::~basic_string<char,std::char_traits<char>,std::allocator<char> >

; 346  : 	}

  003a3	eb 0d		 jmp	 SHORT $LN10@LoadSettin
$LN9@LoadSettin:

; 347  : 	else
; 348  : 	{
; 349  : 		m_bSettingTerrainVisible = true;

  003a5	8b bd 1c fe ff
	ff		 mov	 edi, DWORD PTR _this$GSCopy$1$[ebp]
  003ab	c6 87 ac 13 00
	00 01		 mov	 BYTE PTR [edi+5036], 1
$LN10@LoadSettin:

; 352  : 	const std::string & c_rstrType = stTokenVectorMap["scripttype"][0];

  003b2	68 00 00 00 00	 push	 OFFSET ??_C@_0L@PCFMFEAG@scripttype@
  003b7	8d 4d d8	 lea	 ecx, DWORD PTR $T25[ebp]
  003ba	e8 00 00 00 00	 call	 ??0?$basic_string@DU?$char_traits@D@std@@V?$allocator@D@2@@std@@QAE@QBD@Z ; std::basic_string<char,std::char_traits<char>,std::allocator<char> >::basic_string<char,std::char_traits<char>,std::allocator<char> >
  003bf	8d 45 d8	 lea	 eax, DWORD PTR $T25[ebp]
  003c2	c6 45 fc 02	 mov	 BYTE PTR __$EHRec$[ebp+8], 2
  003c6	50		 push	 eax
  003c7	8d 8d 24 fe ff
	ff		 lea	 ecx, DWORD PTR _stTokenVectorMap$[ebp]
  003cd	e8 00 00 00 00	 call	 ??A?$map@V?$basic_string@DU?$char_traits@D@std@@V?$allocator@D@2@@std@@V?$vector@V?$basic_string@DU?$char_traits@D@std@@V?$allocator@D@2@@std@@V?$allocator@V?$basic_string@DU?$char_traits@D@std@@V?$allocator@D@2@@std@@@2@@2@U?$less@V?$basic_string@DU?$char_traits@D@std@@V?$allocator@D@2@@std@@@2@V?$allocator@U?$pair@$$CBV?$basic_string@DU?$char_traits@D@std@@V?$allocator@D@2@@std@@V?$vector@V?$basic_string@DU?$char_traits@D@std@@V?$allocator@D@2@@std@@V?$allocator@V?$basic_string@DU?$char_traits@D@std@@V?$allocator@D@2@@std@@@2@@2@@std@@@2@@std@@QAEAAV?$vector@V?$basic_string@DU?$char_traits@D@std@@V?$allocator@D@2@@std@@V?$allocator@V?$basic_string@DU?$char_traits@D@std@@V?$allocator@D@2@@std@@@2@@1@$$QAV?$basic_string@DU?$char_traits@D@std@@V?$allocator@D@2@@1@@Z ; std::map<std::basic_string<char,std::char_traits<char>,std::allocator<char> >,std::vector<std::basic_string<char,std::char_traits<char>,std::allocator<char> >,std::allocator<std::basic_string<char,std::char_traits<char>,std::allocator<char> > > >,std::less<std::basic_string<char,std::char_traits<char>,std::allocator<char> > >,std::allocator<std::pair<std::basic_string<char,std::char_traits<char>,std::allocator<char> > const ,std::vector<std::basic_string<char,std::char_traits<char>,std::allocator<char> >,std::allocator<std::basic_string<char,std::char_traits<char>,std::allocator<char> > > > > > >::operator[]
  003d2	8d 4d d8	 lea	 ecx, DWORD PTR $T25[ebp]
  003d5	c6 45 fc 00	 mov	 BYTE PTR __$EHRec$[ebp+8], 0
; File C:\Program Files (x86)\Microsoft Visual Studio\2019\Professional\VC\Tools\MSVC\14.29.30133\include\vector

; 1569 :         return _My_data._Myfirst[_Pos];

  003d9	8b 00		 mov	 eax, DWORD PTR [eax]
  003db	89 85 14 fe ff
	ff		 mov	 DWORD PTR _c_rstrType$1$[ebp], eax
; File C:\Users\murat\Desktop\Siveps2-1-99-Project\source\client\Client\GameLib\MapOutdoorLoad.cpp

; 352  : 	const std::string & c_rstrType = stTokenVectorMap["scripttype"][0];

  003e1	e8 00 00 00 00	 call	 ??1?$basic_string@DU?$char_traits@D@std@@V?$allocator@D@2@@std@@QAE@XZ ; std::basic_string<char,std::char_traits<char>,std::allocator<char> >::~basic_string<char,std::char_traits<char>,std::allocator<char> >

; 353  : 	const std::string & c_rstrViewRadius = stTokenVectorMap["viewradius"][0];

  003e6	68 00 00 00 00	 push	 OFFSET ??_C@_0L@NLJHFBAM@viewradius@
  003eb	8d 8d 60 ff ff
	ff		 lea	 ecx, DWORD PTR $T14[ebp]
  003f1	e8 00 00 00 00	 call	 ??0?$basic_string@DU?$char_traits@D@std@@V?$allocator@D@2@@std@@QAE@QBD@Z ; std::basic_string<char,std::char_traits<char>,std::allocator<char> >::basic_string<char,std::char_traits<char>,std::allocator<char> >
  003f6	8d 85 60 ff ff
	ff		 lea	 eax, DWORD PTR $T14[ebp]
  003fc	c6 45 fc 03	 mov	 BYTE PTR __$EHRec$[ebp+8], 3
  00400	50		 push	 eax
  00401	8d 8d 24 fe ff
	ff		 lea	 ecx, DWORD PTR _stTokenVectorMap$[ebp]
  00407	e8 00 00 00 00	 call	 ??A?$map@V?$basic_string@DU?$char_traits@D@std@@V?$allocator@D@2@@std@@V?$vector@V?$basic_string@DU?$char_traits@D@std@@V?$allocator@D@2@@std@@V?$allocator@V?$basic_string@DU?$char_traits@D@std@@V?$allocator@D@2@@std@@@2@@2@U?$less@V?$basic_string@DU?$char_traits@D@std@@V?$allocator@D@2@@std@@@2@V?$allocator@U?$pair@$$CBV?$basic_string@DU?$char_traits@D@std@@V?$allocator@D@2@@std@@V?$vector@V?$basic_string@DU?$char_traits@D@std@@V?$allocator@D@2@@std@@V?$allocator@V?$basic_string@DU?$char_traits@D@std@@V?$allocator@D@2@@std@@@2@@2@@std@@@2@@std@@QAEAAV?$vector@V?$basic_string@DU?$char_traits@D@std@@V?$allocator@D@2@@std@@V?$allocator@V?$basic_string@DU?$char_traits@D@std@@V?$allocator@D@2@@std@@@2@@1@$$QAV?$basic_string@DU?$char_traits@D@std@@V?$allocator@D@2@@1@@Z ; std::map<std::basic_string<char,std::char_traits<char>,std::allocator<char> >,std::vector<std::basic_string<char,std::char_traits<char>,std::allocator<char> >,std::allocator<std::basic_string<char,std::char_traits<char>,std::allocator<char> > > >,std::less<std::basic_string<char,std::char_traits<char>,std::allocator<char> > >,std::allocator<std::pair<std::basic_string<char,std::char_traits<char>,std::allocator<char> > const ,std::vector<std::basic_string<char,std::char_traits<char>,std::allocator<char> >,std::allocator<std::basic_string<char,std::char_traits<char>,std::allocator<char> > > > > > >::operator[]
  0040c	8d 8d 60 ff ff
	ff		 lea	 ecx, DWORD PTR $T14[ebp]
  00412	c6 45 fc 00	 mov	 BYTE PTR __$EHRec$[ebp+8], 0
; File C:\Program Files (x86)\Microsoft Visual Studio\2019\Professional\VC\Tools\MSVC\14.29.30133\include\vector

; 1569 :         return _My_data._Myfirst[_Pos];

  00416	8b 00		 mov	 eax, DWORD PTR [eax]
  00418	89 85 10 fe ff
	ff		 mov	 DWORD PTR __Result$1$[ebp], eax
; File C:\Users\murat\Desktop\Siveps2-1-99-Project\source\client\Client\GameLib\MapOutdoorLoad.cpp

; 353  : 	const std::string & c_rstrViewRadius = stTokenVectorMap["viewradius"][0];

  0041e	e8 00 00 00 00	 call	 ??1?$basic_string@DU?$char_traits@D@std@@V?$allocator@D@2@@std@@QAE@XZ ; std::basic_string<char,std::char_traits<char>,std::allocator<char> >::~basic_string<char,std::char_traits<char>,std::allocator<char> >

; 355  : 	const std::string & c_rstrHeightScale = stTokenVectorMap["heightscale"][0];

  00423	68 00 00 00 00	 push	 OFFSET ??_C@_0M@MNHNKMP@heightscale@
  00428	8d 8d 48 ff ff
	ff		 lea	 ecx, DWORD PTR $T13[ebp]
  0042e	e8 00 00 00 00	 call	 ??0?$basic_string@DU?$char_traits@D@std@@V?$allocator@D@2@@std@@QAE@QBD@Z ; std::basic_string<char,std::char_traits<char>,std::allocator<char> >::basic_string<char,std::char_traits<char>,std::allocator<char> >
  00433	8d 85 48 ff ff
	ff		 lea	 eax, DWORD PTR $T13[ebp]
  00439	c6 45 fc 04	 mov	 BYTE PTR __$EHRec$[ebp+8], 4
  0043d	50		 push	 eax
  0043e	8d 8d 24 fe ff
	ff		 lea	 ecx, DWORD PTR _stTokenVectorMap$[ebp]
  00444	e8 00 00 00 00	 call	 ??A?$map@V?$basic_string@DU?$char_traits@D@std@@V?$allocator@D@2@@std@@V?$vector@V?$basic_string@DU?$char_traits@D@std@@V?$allocator@D@2@@std@@V?$allocator@V?$basic_string@DU?$char_traits@D@std@@V?$allocator@D@2@@std@@@2@@2@U?$less@V?$basic_string@DU?$char_traits@D@std@@V?$allocator@D@2@@std@@@2@V?$allocator@U?$pair@$$CBV?$basic_string@DU?$char_traits@D@std@@V?$allocator@D@2@@std@@V?$vector@V?$basic_string@DU?$char_traits@D@std@@V?$allocator@D@2@@std@@V?$allocator@V?$basic_string@DU?$char_traits@D@std@@V?$allocator@D@2@@std@@@2@@2@@std@@@2@@std@@QAEAAV?$vector@V?$basic_string@DU?$char_traits@D@std@@V?$allocator@D@2@@std@@V?$allocator@V?$basic_string@DU?$char_traits@D@std@@V?$allocator@D@2@@std@@@2@@1@$$QAV?$basic_string@DU?$char_traits@D@std@@V?$allocator@D@2@@1@@Z ; std::map<std::basic_string<char,std::char_traits<char>,std::allocator<char> >,std::vector<std::basic_string<char,std::char_traits<char>,std::allocator<char> >,std::allocator<std::basic_string<char,std::char_traits<char>,std::allocator<char> > > >,std::less<std::basic_string<char,std::char_traits<char>,std::allocator<char> > >,std::allocator<std::pair<std::basic_string<char,std::char_traits<char>,std::allocator<char> > const ,std::vector<std::basic_string<char,std::char_traits<char>,std::allocator<char> >,std::allocator<std::basic_string<char,std::char_traits<char>,std::allocator<char> > > > > > >::operator[]
  00449	8d 8d 48 ff ff
	ff		 lea	 ecx, DWORD PTR $T13[ebp]
  0044f	c6 45 fc 00	 mov	 BYTE PTR __$EHRec$[ebp+8], 0
; File C:\Program Files (x86)\Microsoft Visual Studio\2019\Professional\VC\Tools\MSVC\14.29.30133\include\vector

; 1569 :         return _My_data._Myfirst[_Pos];

  00453	8b 00		 mov	 eax, DWORD PTR [eax]
  00455	89 85 0c fe ff
	ff		 mov	 DWORD PTR __Result$1$[ebp], eax
; File C:\Users\murat\Desktop\Siveps2-1-99-Project\source\client\Client\GameLib\MapOutdoorLoad.cpp

; 355  : 	const std::string & c_rstrHeightScale = stTokenVectorMap["heightscale"][0];

  0045b	e8 00 00 00 00	 call	 ??1?$basic_string@DU?$char_traits@D@std@@V?$allocator@D@2@@std@@QAE@XZ ; std::basic_string<char,std::char_traits<char>,std::allocator<char> >::~basic_string<char,std::char_traits<char>,std::allocator<char> >

; 356  : 	const std::string & c_rstrMapSizeX = stTokenVectorMap["mapsize"][0];

  00460	68 00 00 00 00	 push	 OFFSET ??_C@_07EOGAIPJO@mapsize@
  00465	8d 8d 30 ff ff
	ff		 lea	 ecx, DWORD PTR $T12[ebp]
  0046b	e8 00 00 00 00	 call	 ??0?$basic_string@DU?$char_traits@D@std@@V?$allocator@D@2@@std@@QAE@QBD@Z ; std::basic_string<char,std::char_traits<char>,std::allocator<char> >::basic_string<char,std::char_traits<char>,std::allocator<char> >
  00470	8d 85 30 ff ff
	ff		 lea	 eax, DWORD PTR $T12[ebp]
  00476	c6 45 fc 05	 mov	 BYTE PTR __$EHRec$[ebp+8], 5
  0047a	50		 push	 eax
  0047b	8d 8d 24 fe ff
	ff		 lea	 ecx, DWORD PTR _stTokenVectorMap$[ebp]
  00481	e8 00 00 00 00	 call	 ??A?$map@V?$basic_string@DU?$char_traits@D@std@@V?$allocator@D@2@@std@@V?$vector@V?$basic_string@DU?$char_traits@D@std@@V?$allocator@D@2@@std@@V?$allocator@V?$basic_string@DU?$char_traits@D@std@@V?$allocator@D@2@@std@@@2@@2@U?$less@V?$basic_string@DU?$char_traits@D@std@@V?$allocator@D@2@@std@@@2@V?$allocator@U?$pair@$$CBV?$basic_string@DU?$char_traits@D@std@@V?$allocator@D@2@@std@@V?$vector@V?$basic_string@DU?$char_traits@D@std@@V?$allocator@D@2@@std@@V?$allocator@V?$basic_string@DU?$char_traits@D@std@@V?$allocator@D@2@@std@@@2@@2@@std@@@2@@std@@QAEAAV?$vector@V?$basic_string@DU?$char_traits@D@std@@V?$allocator@D@2@@std@@V?$allocator@V?$basic_string@DU?$char_traits@D@std@@V?$allocator@D@2@@std@@@2@@1@$$QAV?$basic_string@DU?$char_traits@D@std@@V?$allocator@D@2@@1@@Z ; std::map<std::basic_string<char,std::char_traits<char>,std::allocator<char> >,std::vector<std::basic_string<char,std::char_traits<char>,std::allocator<char> >,std::allocator<std::basic_string<char,std::char_traits<char>,std::allocator<char> > > >,std::less<std::basic_string<char,std::char_traits<char>,std::allocator<char> > >,std::allocator<std::pair<std::basic_string<char,std::char_traits<char>,std::allocator<char> > const ,std::vector<std::basic_string<char,std::char_traits<char>,std::allocator<char> >,std::allocator<std::basic_string<char,std::char_traits<char>,std::allocator<char> > > > > > >::operator[]
  00486	8d 8d 30 ff ff
	ff		 lea	 ecx, DWORD PTR $T12[ebp]
  0048c	c6 45 fc 00	 mov	 BYTE PTR __$EHRec$[ebp+8], 0
; File C:\Program Files (x86)\Microsoft Visual Studio\2019\Professional\VC\Tools\MSVC\14.29.30133\include\vector

; 1569 :         return _My_data._Myfirst[_Pos];

  00490	8b 00		 mov	 eax, DWORD PTR [eax]
  00492	89 85 20 fe ff
	ff		 mov	 DWORD PTR __Result$1$[ebp], eax
; File C:\Users\murat\Desktop\Siveps2-1-99-Project\source\client\Client\GameLib\MapOutdoorLoad.cpp

; 356  : 	const std::string & c_rstrMapSizeX = stTokenVectorMap["mapsize"][0];

  00498	e8 00 00 00 00	 call	 ??1?$basic_string@DU?$char_traits@D@std@@V?$allocator@D@2@@std@@QAE@XZ ; std::basic_string<char,std::char_traits<char>,std::allocator<char> >::~basic_string<char,std::char_traits<char>,std::allocator<char> >

; 357  : 	const std::string & c_rstrMapSizeY = stTokenVectorMap["mapsize"][1];

  0049d	68 00 00 00 00	 push	 OFFSET ??_C@_07EOGAIPJO@mapsize@
  004a2	8d 8d 78 ff ff
	ff		 lea	 ecx, DWORD PTR $T16[ebp]
  004a8	e8 00 00 00 00	 call	 ??0?$basic_string@DU?$char_traits@D@std@@V?$allocator@D@2@@std@@QAE@QBD@Z ; std::basic_string<char,std::char_traits<char>,std::allocator<char> >::basic_string<char,std::char_traits<char>,std::allocator<char> >
  004ad	8d 85 78 ff ff
	ff		 lea	 eax, DWORD PTR $T16[ebp]
  004b3	c6 45 fc 06	 mov	 BYTE PTR __$EHRec$[ebp+8], 6
  004b7	50		 push	 eax
  004b8	8d 8d 24 fe ff
	ff		 lea	 ecx, DWORD PTR _stTokenVectorMap$[ebp]
  004be	e8 00 00 00 00	 call	 ??A?$map@V?$basic_string@DU?$char_traits@D@std@@V?$allocator@D@2@@std@@V?$vector@V?$basic_string@DU?$char_traits@D@std@@V?$allocator@D@2@@std@@V?$allocator@V?$basic_string@DU?$char_traits@D@std@@V?$allocator@D@2@@std@@@2@@2@U?$less@V?$basic_string@DU?$char_traits@D@std@@V?$allocator@D@2@@std@@@2@V?$allocator@U?$pair@$$CBV?$basic_string@DU?$char_traits@D@std@@V?$allocator@D@2@@std@@V?$vector@V?$basic_string@DU?$char_traits@D@std@@V?$allocator@D@2@@std@@V?$allocator@V?$basic_string@DU?$char_traits@D@std@@V?$allocator@D@2@@std@@@2@@2@@std@@@2@@std@@QAEAAV?$vector@V?$basic_string@DU?$char_traits@D@std@@V?$allocator@D@2@@std@@V?$allocator@V?$basic_string@DU?$char_traits@D@std@@V?$allocator@D@2@@std@@@2@@1@$$QAV?$basic_string@DU?$char_traits@D@std@@V?$allocator@D@2@@1@@Z ; std::map<std::basic_string<char,std::char_traits<char>,std::allocator<char> >,std::vector<std::basic_string<char,std::char_traits<char>,std::allocator<char> >,std::allocator<std::basic_string<char,std::char_traits<char>,std::allocator<char> > > >,std::less<std::basic_string<char,std::char_traits<char>,std::allocator<char> > >,std::allocator<std::pair<std::basic_string<char,std::char_traits<char>,std::allocator<char> > const ,std::vector<std::basic_string<char,std::char_traits<char>,std::allocator<char> >,std::allocator<std::basic_string<char,std::char_traits<char>,std::allocator<char> > > > > > >::operator[]
  004c3	8d 8d 78 ff ff
	ff		 lea	 ecx, DWORD PTR $T16[ebp]
; File C:\Program Files (x86)\Microsoft Visual Studio\2019\Professional\VC\Tools\MSVC\14.29.30133\include\vector

; 1569 :         return _My_data._Myfirst[_Pos];

  004c9	8b 00		 mov	 eax, DWORD PTR [eax]
  004cb	83 c0 18	 add	 eax, 24			; 00000018H
  004ce	89 85 08 fe ff
	ff		 mov	 DWORD PTR __Result$1$[ebp], eax
; File C:\Users\murat\Desktop\Siveps2-1-99-Project\source\client\Client\GameLib\MapOutdoorLoad.cpp

; 357  : 	const std::string & c_rstrMapSizeY = stTokenVectorMap["mapsize"][1];

  004d4	e8 00 00 00 00	 call	 ??1?$basic_string@DU?$char_traits@D@std@@V?$allocator@D@2@@std@@QAE@XZ ; std::basic_string<char,std::char_traits<char>,std::allocator<char> >::~basic_string<char,std::char_traits<char>,std::allocator<char> >
; File C:\Program Files (x86)\Microsoft Visual Studio\2019\Professional\VC\Tools\MSVC\14.29.30133\include\xstring

; 2346 :         _CONSTEXPR20_CONTAINER _Bxty() noexcept : _Ptr() {} // user-provided, for fancy pointers

  004d9	c7 45 c0 00 00
	00 00		 mov	 DWORD PTR _strTextureSet$[ebp], 0

; 4596 :         _My_data._Mysize = 0;

  004e0	c7 45 d0 00 00
	00 00		 mov	 DWORD PTR _strTextureSet$[ebp+16], 0

; 4610 :             _My_data._Myres = _BUF_SIZE - 1;

  004e7	c7 45 d4 0f 00
	00 00		 mov	 DWORD PTR _strTextureSet$[ebp+20], 15 ; 0000000fH

; 4611 :             // the _Traits::assign is last so the codegen doesn't think the char write can alias this
; 4612 :             _Traits::assign(_My_data._Bx._Buf[0], _Elem());

  004ee	c6 45 c0 00	 mov	 BYTE PTR _strTextureSet$[ebp], 0
; File C:\Users\murat\Desktop\Siveps2-1-99-Project\source\client\Client\GameLib\MapOutdoorLoad.cpp

; 360  : 	TTokenVector & rkVec_strToken = stTokenVectorMap["textureset"];

  004f2	68 00 00 00 00	 push	 OFFSET ??_C@_0L@FLIBEPMB@textureset@
  004f7	8d 4d 90	 lea	 ecx, DWORD PTR $T22[ebp]
  004fa	c6 45 fc 07	 mov	 BYTE PTR __$EHRec$[ebp+8], 7
  004fe	e8 00 00 00 00	 call	 ??0?$basic_string@DU?$char_traits@D@std@@V?$allocator@D@2@@std@@QAE@QBD@Z ; std::basic_string<char,std::char_traits<char>,std::allocator<char> >::basic_string<char,std::char_traits<char>,std::allocator<char> >
  00503	c6 45 fc 08	 mov	 BYTE PTR __$EHRec$[ebp+8], 8
  00507	8d 45 90	 lea	 eax, DWORD PTR $T22[ebp]
  0050a	50		 push	 eax
  0050b	8d 8d 24 fe ff
	ff		 lea	 ecx, DWORD PTR _stTokenVectorMap$[ebp]
  00511	e8 00 00 00 00	 call	 ??A?$map@V?$basic_string@DU?$char_traits@D@std@@V?$allocator@D@2@@std@@V?$vector@V?$basic_string@DU?$char_traits@D@std@@V?$allocator@D@2@@std@@V?$allocator@V?$basic_string@DU?$char_traits@D@std@@V?$allocator@D@2@@std@@@2@@2@U?$less@V?$basic_string@DU?$char_traits@D@std@@V?$allocator@D@2@@std@@@2@V?$allocator@U?$pair@$$CBV?$basic_string@DU?$char_traits@D@std@@V?$allocator@D@2@@std@@V?$vector@V?$basic_string@DU?$char_traits@D@std@@V?$allocator@D@2@@std@@V?$allocator@V?$basic_string@DU?$char_traits@D@std@@V?$allocator@D@2@@std@@@2@@2@@std@@@2@@std@@QAEAAV?$vector@V?$basic_string@DU?$char_traits@D@std@@V?$allocator@D@2@@std@@V?$allocator@V?$basic_string@DU?$char_traits@D@std@@V?$allocator@D@2@@std@@@2@@1@$$QAV?$basic_string@DU?$char_traits@D@std@@V?$allocator@D@2@@1@@Z ; std::map<std::basic_string<char,std::char_traits<char>,std::allocator<char> >,std::vector<std::basic_string<char,std::char_traits<char>,std::allocator<char> >,std::allocator<std::basic_string<char,std::char_traits<char>,std::allocator<char> > > >,std::less<std::basic_string<char,std::char_traits<char>,std::allocator<char> > >,std::allocator<std::pair<std::basic_string<char,std::char_traits<char>,std::allocator<char> > const ,std::vector<std::basic_string<char,std::char_traits<char>,std::allocator<char> >,std::allocator<std::basic_string<char,std::char_traits<char>,std::allocator<char> > > > > > >::operator[]
  00516	8d 4d 90	 lea	 ecx, DWORD PTR $T22[ebp]
  00519	c6 45 fc 07	 mov	 BYTE PTR __$EHRec$[ebp+8], 7
  0051d	8b f0		 mov	 esi, eax
  0051f	e8 00 00 00 00	 call	 ??1?$basic_string@DU?$char_traits@D@std@@V?$allocator@D@2@@std@@QAE@XZ ; std::basic_string<char,std::char_traits<char>,std::allocator<char> >::~basic_string<char,std::char_traits<char>,std::allocator<char> >
; File C:\Program Files (x86)\Microsoft Visual Studio\2019\Professional\VC\Tools\MSVC\14.29.30133\include\vector

; 1544 :         return _My_data._Myfirst == _My_data._Mylast;

  00524	8b 06		 mov	 eax, DWORD PTR [esi]
; File C:\Users\murat\Desktop\Siveps2-1-99-Project\source\client\Client\GameLib\MapOutdoorLoad.cpp

; 361  : 	if (!rkVec_strToken.empty())

  00526	3b 46 04	 cmp	 eax, DWORD PTR [esi+4]
  00529	74 09		 je	 SHORT $LN11@LoadSettin

; 362  : 	{
; 363  : 		strTextureSet = rkVec_strToken[0];

  0052b	50		 push	 eax
  0052c	8d 4d c0	 lea	 ecx, DWORD PTR _strTextureSet$[ebp]
  0052f	e8 00 00 00 00	 call	 ??4?$basic_string@DU?$char_traits@D@std@@V?$allocator@D@2@@std@@QAEAAV01@ABV01@@Z ; std::basic_string<char,std::char_traits<char>,std::allocator<char> >::operator=
$LN11@LoadSettin:

; 364  : 	}
; 365  : 
; 366  : 	if (c_rstrType != "MapSetting")

  00534	68 00 00 00 00	 push	 OFFSET ??_C@_0L@PHDPILBM@MapSetting@
  00539	ff b5 14 fe ff
	ff		 push	 DWORD PTR _c_rstrType$1$[ebp]
  0053f	e8 00 00 00 00	 call	 ??$?9DU?$char_traits@D@std@@V?$allocator@D@1@@std@@YA_NABV?$basic_string@DU?$char_traits@D@std@@V?$allocator@D@2@@0@QBD@Z ; std::operator!=<char,std::char_traits<char>,std::allocator<char> >
  00544	83 c4 08	 add	 esp, 8
  00547	84 c0		 test	 al, al
  00549	74 07		 je	 SHORT $LN12@LoadSettin

; 367  : 	{
; 368  : 		TraceError("MapOutdoor::LoadSetting(c_szFileName=%s) - Resourse Type ERROR", c_szFileName);

  0054b	b8 00 00 00 00	 mov	 eax, OFFSET ??_C@_0DP@BHJEEKBL@MapOutdoor?3?3LoadSetting?$CIc_szFil@
  00550	eb 23		 jmp	 SHORT $LN53@LoadSettin
$LN12@LoadSettin:
; File C:\Program Files (x86)\Microsoft Visual Studio\2019\Professional\VC\Tools\MSVC\14.29.30133\include\xstring

; 2306 :         if (_Large_string_engaged()) {

  00552	8b 85 10 fe ff
	ff		 mov	 eax, DWORD PTR __Result$1$[ebp]
  00558	83 78 14 10	 cmp	 DWORD PTR [eax+20], 16	; 00000010H
  0055c	72 02		 jb	 SHORT $LN998@LoadSettin

; 2307 :             _Result = _Unfancy(_Bx._Ptr);

  0055e	8b 00		 mov	 eax, DWORD PTR [eax]
$LN998@LoadSettin:
; File C:\Users\murat\Desktop\Siveps2-1-99-Project\source\client\Client\GameLib\MapOutdoorLoad.cpp

; 372  : 	m_lViewRadius = atol(c_rstrViewRadius.c_str());

  00560	50		 push	 eax
  00561	e8 00 00 00 00	 call	 _atol
  00566	83 c4 04	 add	 esp, 4
  00569	89 47 68	 mov	 DWORD PTR [edi+104], eax

; 373  : 
; 374  : #ifdef WORLD_EDITOR
; 375  : 	m_lViewRadius <<= 1;
; 376  : #endif
; 377  : 
; 378  : 	if (0L >= m_lViewRadius)

  0056c	85 c0		 test	 eax, eax
  0056e	7f 20		 jg	 SHORT $LN13@LoadSettin

; 379  : 	{
; 380  : 		TraceError("MapOutdoor::LoadSetting(c_szFileName=%s) - VIEWRADIUS IS NOT GREATER THAN 0", c_szFileName);
; 381  : 		return false;

  00570	b8 00 00 00 00	 mov	 eax, OFFSET ??_C@_0EM@PIICKGLP@MapOutdoor?3?3LoadSetting?$CIc_szFil@
$LN53@LoadSettin:
  00575	ff b5 18 fe ff
	ff		 push	 DWORD PTR _c_szFileName$GSCopy$1$[ebp]
  0057b	50		 push	 eax
  0057c	e8 00 00 00 00	 call	 ?TraceError@@YAXPBDZZ	; TraceError
  00581	83 c4 08	 add	 esp, 8
  00584	c6 85 2f fe ff
	ff 00		 mov	 BYTE PTR $T10[ebp], 0
  0058b	e9 2f 05 00 00	 jmp	 $LN54@LoadSettin
$LN13@LoadSettin:
; File C:\Program Files (x86)\Microsoft Visual Studio\2019\Professional\VC\Tools\MSVC\14.29.30133\include\xstring

; 2306 :         if (_Large_string_engaged()) {

  00590	8b 85 0c fe ff
	ff		 mov	 eax, DWORD PTR __Result$1$[ebp]
  00596	83 78 14 10	 cmp	 DWORD PTR [eax+20], 16	; 00000010H
  0059a	72 02		 jb	 SHORT $LN1005@LoadSettin

; 2307 :             _Result = _Unfancy(_Bx._Ptr);

  0059c	8b 00		 mov	 eax, DWORD PTR [eax]
$LN1005@LoadSettin:
; File C:\Users\murat\Desktop\Siveps2-1-99-Project\source\client\Client\GameLib\MapOutdoorLoad.cpp

; 384  : 	m_fHeightScale = atof(c_rstrHeightScale.c_str());

  0059e	50		 push	 eax
  0059f	e8 00 00 00 00	 call	 _atof
; File C:\Program Files (x86)\Microsoft Visual Studio\2019\Professional\VC\Tools\MSVC\14.29.30133\include\xstring

; 2306 :         if (_Large_string_engaged()) {

  005a4	8b 85 08 fe ff
	ff		 mov	 eax, DWORD PTR __Result$1$[ebp]
; File C:\Users\murat\Desktop\Siveps2-1-99-Project\source\client\Client\GameLib\MapOutdoorLoad.cpp

; 384  : 	m_fHeightScale = atof(c_rstrHeightScale.c_str());

  005aa	83 c4 04	 add	 esp, 4
  005ad	d9 5f 6c	 fstp	 DWORD PTR [edi+108]
; File C:\Program Files (x86)\Microsoft Visual Studio\2019\Professional\VC\Tools\MSVC\14.29.30133\include\xstring

; 2306 :         if (_Large_string_engaged()) {

  005b0	83 78 14 10	 cmp	 DWORD PTR [eax+20], 16	; 00000010H
  005b4	72 02		 jb	 SHORT $LN1012@LoadSettin

; 2307 :             _Result = _Unfancy(_Bx._Ptr);

  005b6	8b 00		 mov	 eax, DWORD PTR [eax]
$LN1012@LoadSettin:

; 2306 :         if (_Large_string_engaged()) {

  005b8	8b b5 20 fe ff
	ff		 mov	 esi, DWORD PTR __Result$1$[ebp]
  005be	83 7e 14 10	 cmp	 DWORD PTR [esi+20], 16	; 00000010H
  005c2	72 02		 jb	 SHORT $LN1019@LoadSettin

; 2307 :             _Result = _Unfancy(_Bx._Ptr);

  005c4	8b 36		 mov	 esi, DWORD PTR [esi]
$LN1019@LoadSettin:
; File C:\Users\murat\Desktop\Siveps2-1-99-Project\source\client\Client\GameLib\MapOutdoorLoad.cpp

; 386  : 	SetTerrainCount(atoi(c_rstrMapSizeX.c_str()), atoi(c_rstrMapSizeY.c_str()));

  005c6	50		 push	 eax
  005c7	e8 00 00 00 00	 call	 __atoi64
  005cc	83 c4 04	 add	 esp, 4
  005cf	0f b7 c0	 movzx	 eax, ax
  005d2	50		 push	 eax
  005d3	56		 push	 esi
  005d4	e8 00 00 00 00	 call	 __atoi64
  005d9	83 c4 04	 add	 esp, 4
  005dc	0f b7 c0	 movzx	 eax, ax
  005df	8b cf		 mov	 ecx, edi
  005e1	50		 push	 eax
  005e2	e8 00 00 00 00	 call	 ?SetTerrainCount@CMapOutdoor@@QAE_NFF@Z ; CMapOutdoor::SetTerrainCount

; 390  : 	if (stTokenVectorMap.end() != stTokenVectorMap.find("baseposition"))

  005e7	68 00 00 00 00	 push	 OFFSET ??_C@_0N@IEEHNMJN@baseposition@
  005ec	8d 4d 90	 lea	 ecx, DWORD PTR $T21[ebp]
  005ef	c7 87 08 09 00
	00 0a d7 a3 39	 mov	 DWORD PTR [edi+2312], 967038730 ; 39a3d70aH
  005f9	e8 00 00 00 00	 call	 ??0?$basic_string@DU?$char_traits@D@std@@V?$allocator@D@2@@std@@QAE@QBD@Z ; std::basic_string<char,std::char_traits<char>,std::allocator<char> >::basic_string<char,std::char_traits<char>,std::allocator<char> >
; File C:\Program Files (x86)\Microsoft Visual Studio\2019\Professional\VC\Tools\MSVC\14.29.30133\include\xtree

; 39   :     _Tree_unchecked_const_iterator(_Nodeptr _Pnode, const _Mytree* _Plist) noexcept : _Ptr(_Pnode) {

  005fe	8b b5 24 fe ff
	ff		 mov	 esi, DWORD PTR _stTokenVectorMap$[ebp]
; File C:\Users\murat\Desktop\Siveps2-1-99-Project\source\client\Client\GameLib\MapOutdoorLoad.cpp

; 390  : 	if (stTokenVectorMap.end() != stTokenVectorMap.find("baseposition"))

  00604	8d 45 90	 lea	 eax, DWORD PTR $T21[ebp]
  00607	50		 push	 eax
  00608	8d 85 20 fe ff
	ff		 lea	 eax, DWORD PTR $T4[ebp]
  0060e	50		 push	 eax
  0060f	8d 8d 24 fe ff
	ff		 lea	 ecx, DWORD PTR _stTokenVectorMap$[ebp]
  00615	e8 00 00 00 00	 call	 ?find@?$_Tree@V?$_Tmap_traits@V?$basic_string@DU?$char_traits@D@std@@V?$allocator@D@2@@std@@V?$vector@V?$basic_string@DU?$char_traits@D@std@@V?$allocator@D@2@@std@@V?$allocator@V?$basic_string@DU?$char_traits@D@std@@V?$allocator@D@2@@std@@@2@@2@U?$less@V?$basic_string@DU?$char_traits@D@std@@V?$allocator@D@2@@std@@@2@V?$allocator@U?$pair@$$CBV?$basic_string@DU?$char_traits@D@std@@V?$allocator@D@2@@std@@V?$vector@V?$basic_string@DU?$char_traits@D@std@@V?$allocator@D@2@@std@@V?$allocator@V?$basic_string@DU?$char_traits@D@std@@V?$allocator@D@2@@std@@@2@@2@@std@@@2@$0A@@std@@@std@@QAE?AV?$_Tree_iterator@V?$_Tree_val@U?$_Tree_simple_types@U?$pair@$$CBV?$basic_string@DU?$char_traits@D@std@@V?$allocator@D@2@@std@@V?$vector@V?$basic_string@DU?$char_traits@D@std@@V?$allocator@D@2@@std@@V?$allocator@V?$basic_string@DU?$char_traits@D@std@@V?$allocator@D@2@@std@@@2@@2@@std@@@std@@@std@@@2@ABV?$basic_string@DU?$char_traits@D@std@@V?$allocator@D@2@@2@@Z ; std::_Tree<std::_Tmap_traits<std::basic_string<char,std::char_traits<char>,std::allocator<char> >,std::vector<std::basic_string<char,std::char_traits<char>,std::allocator<char> >,std::allocator<std::basic_string<char,std::char_traits<char>,std::allocator<char> > > >,std::less<std::basic_string<char,std::char_traits<char>,std::allocator<char> > >,std::allocator<std::pair<std::basic_string<char,std::char_traits<char>,std::allocator<char> > const ,std::vector<std::basic_string<char,std::char_traits<char>,std::allocator<char> >,std::allocator<std::basic_string<char,std::char_traits<char>,std::allocator<char> > > > > >,0> >::find
  0061a	8d 4d 90	 lea	 ecx, DWORD PTR $T21[ebp]
; File C:\Program Files (x86)\Microsoft Visual Studio\2019\Professional\VC\Tools\MSVC\14.29.30133\include\xtree

; 236  :         return this->_Ptr == _Right._Ptr;

  0061d	8b 38		 mov	 edi, DWORD PTR [eax]
; File C:\Users\murat\Desktop\Siveps2-1-99-Project\source\client\Client\GameLib\MapOutdoorLoad.cpp

; 390  : 	if (stTokenVectorMap.end() != stTokenVectorMap.find("baseposition"))

  0061f	e8 00 00 00 00	 call	 ??1?$basic_string@DU?$char_traits@D@std@@V?$allocator@D@2@@std@@QAE@XZ ; std::basic_string<char,std::char_traits<char>,std::allocator<char> >::~basic_string<char,std::char_traits<char>,std::allocator<char> >
  00624	3b f7		 cmp	 esi, edi
  00626	0f 84 9b 00 00
	00		 je	 $LN1212@LoadSettin

; 392  : 		const std::string & c_rstrMapBaseX = stTokenVectorMap["baseposition"][0];

  0062c	68 00 00 00 00	 push	 OFFSET ??_C@_0N@IEEHNMJN@baseposition@
  00631	8d 4d 90	 lea	 ecx, DWORD PTR $T20[ebp]
  00634	e8 00 00 00 00	 call	 ??0?$basic_string@DU?$char_traits@D@std@@V?$allocator@D@2@@std@@QAE@QBD@Z ; std::basic_string<char,std::char_traits<char>,std::allocator<char> >::basic_string<char,std::char_traits<char>,std::allocator<char> >
  00639	8d 45 90	 lea	 eax, DWORD PTR $T20[ebp]
  0063c	c6 45 fc 09	 mov	 BYTE PTR __$EHRec$[ebp+8], 9
  00640	50		 push	 eax
  00641	8d 8d 24 fe ff
	ff		 lea	 ecx, DWORD PTR _stTokenVectorMap$[ebp]
  00647	e8 00 00 00 00	 call	 ??A?$map@V?$basic_string@DU?$char_traits@D@std@@V?$allocator@D@2@@std@@V?$vector@V?$basic_string@DU?$char_traits@D@std@@V?$allocator@D@2@@std@@V?$allocator@V?$basic_string@DU?$char_traits@D@std@@V?$allocator@D@2@@std@@@2@@2@U?$less@V?$basic_string@DU?$char_traits@D@std@@V?$allocator@D@2@@std@@@2@V?$allocator@U?$pair@$$CBV?$basic_string@DU?$char_traits@D@std@@V?$allocator@D@2@@std@@V?$vector@V?$basic_string@DU?$char_traits@D@std@@V?$allocator@D@2@@std@@V?$allocator@V?$basic_string@DU?$char_traits@D@std@@V?$allocator@D@2@@std@@@2@@2@@std@@@2@@std@@QAEAAV?$vector@V?$basic_string@DU?$char_traits@D@std@@V?$allocator@D@2@@std@@V?$allocator@V?$basic_string@DU?$char_traits@D@std@@V?$allocator@D@2@@std@@@2@@1@$$QAV?$basic_string@DU?$char_traits@D@std@@V?$allocator@D@2@@1@@Z ; std::map<std::basic_string<char,std::char_traits<char>,std::allocator<char> >,std::vector<std::basic_string<char,std::char_traits<char>,std::allocator<char> >,std::allocator<std::basic_string<char,std::char_traits<char>,std::allocator<char> > > >,std::less<std::basic_string<char,std::char_traits<char>,std::allocator<char> > >,std::allocator<std::pair<std::basic_string<char,std::char_traits<char>,std::allocator<char> > const ,std::vector<std::basic_string<char,std::char_traits<char>,std::allocator<char> >,std::allocator<std::basic_string<char,std::char_traits<char>,std::allocator<char> > > > > > >::operator[]
  0064c	8d 4d 90	 lea	 ecx, DWORD PTR $T20[ebp]
  0064f	c6 45 fc 07	 mov	 BYTE PTR __$EHRec$[ebp+8], 7
; File C:\Program Files (x86)\Microsoft Visual Studio\2019\Professional\VC\Tools\MSVC\14.29.30133\include\vector

; 1569 :         return _My_data._Myfirst[_Pos];

  00653	8b 38		 mov	 edi, DWORD PTR [eax]
; File C:\Users\murat\Desktop\Siveps2-1-99-Project\source\client\Client\GameLib\MapOutdoorLoad.cpp

; 392  : 		const std::string & c_rstrMapBaseX = stTokenVectorMap["baseposition"][0];

  00655	e8 00 00 00 00	 call	 ??1?$basic_string@DU?$char_traits@D@std@@V?$allocator@D@2@@std@@QAE@XZ ; std::basic_string<char,std::char_traits<char>,std::allocator<char> >::~basic_string<char,std::char_traits<char>,std::allocator<char> >

; 393  : 		const std::string & c_rstrMapBaseY = stTokenVectorMap["baseposition"][1];

  0065a	68 00 00 00 00	 push	 OFFSET ??_C@_0N@IEEHNMJN@baseposition@
  0065f	8d 8d 78 ff ff
	ff		 lea	 ecx, DWORD PTR $T15[ebp]
  00665	e8 00 00 00 00	 call	 ??0?$basic_string@DU?$char_traits@D@std@@V?$allocator@D@2@@std@@QAE@QBD@Z ; std::basic_string<char,std::char_traits<char>,std::allocator<char> >::basic_string<char,std::char_traits<char>,std::allocator<char> >
  0066a	8d 85 78 ff ff
	ff		 lea	 eax, DWORD PTR $T15[ebp]
  00670	c6 45 fc 0a	 mov	 BYTE PTR __$EHRec$[ebp+8], 10 ; 0000000aH
  00674	50		 push	 eax
  00675	8d 8d 24 fe ff
	ff		 lea	 ecx, DWORD PTR _stTokenVectorMap$[ebp]
  0067b	e8 00 00 00 00	 call	 ??A?$map@V?$basic_string@DU?$char_traits@D@std@@V?$allocator@D@2@@std@@V?$vector@V?$basic_string@DU?$char_traits@D@std@@V?$allocator@D@2@@std@@V?$allocator@V?$basic_string@DU?$char_traits@D@std@@V?$allocator@D@2@@std@@@2@@2@U?$less@V?$basic_string@DU?$char_traits@D@std@@V?$allocator@D@2@@std@@@2@V?$allocator@U?$pair@$$CBV?$basic_string@DU?$char_traits@D@std@@V?$allocator@D@2@@std@@V?$vector@V?$basic_string@DU?$char_traits@D@std@@V?$allocator@D@2@@std@@V?$allocator@V?$basic_string@DU?$char_traits@D@std@@V?$allocator@D@2@@std@@@2@@2@@std@@@2@@std@@QAEAAV?$vector@V?$basic_string@DU?$char_traits@D@std@@V?$allocator@D@2@@std@@V?$allocator@V?$basic_string@DU?$char_traits@D@std@@V?$allocator@D@2@@std@@@2@@1@$$QAV?$basic_string@DU?$char_traits@D@std@@V?$allocator@D@2@@1@@Z ; std::map<std::basic_string<char,std::char_traits<char>,std::allocator<char> >,std::vector<std::basic_string<char,std::char_traits<char>,std::allocator<char> >,std::allocator<std::basic_string<char,std::char_traits<char>,std::allocator<char> > > >,std::less<std::basic_string<char,std::char_traits<char>,std::allocator<char> > >,std::allocator<std::pair<std::basic_string<char,std::char_traits<char>,std::allocator<char> > const ,std::vector<std::basic_string<char,std::char_traits<char>,std::allocator<char> >,std::allocator<std::basic_string<char,std::char_traits<char>,std::allocator<char> > > > > > >::operator[]
  00680	8d 8d 78 ff ff
	ff		 lea	 ecx, DWORD PTR $T15[ebp]
  00686	c6 45 fc 07	 mov	 BYTE PTR __$EHRec$[ebp+8], 7
; File C:\Program Files (x86)\Microsoft Visual Studio\2019\Professional\VC\Tools\MSVC\14.29.30133\include\vector

; 1569 :         return _My_data._Myfirst[_Pos];

  0068a	8b 30		 mov	 esi, DWORD PTR [eax]
  0068c	83 c6 18	 add	 esi, 24			; 00000018H
; File C:\Users\murat\Desktop\Siveps2-1-99-Project\source\client\Client\GameLib\MapOutdoorLoad.cpp

; 393  : 		const std::string & c_rstrMapBaseY = stTokenVectorMap["baseposition"][1];

  0068f	e8 00 00 00 00	 call	 ??1?$basic_string@DU?$char_traits@D@std@@V?$allocator@D@2@@std@@QAE@XZ ; std::basic_string<char,std::char_traits<char>,std::allocator<char> >::~basic_string<char,std::char_traits<char>,std::allocator<char> >
; File C:\Program Files (x86)\Microsoft Visual Studio\2019\Professional\VC\Tools\MSVC\14.29.30133\include\xstring

; 2306 :         if (_Large_string_engaged()) {

  00694	83 7e 14 10	 cmp	 DWORD PTR [esi+20], 16	; 00000010H
  00698	72 02		 jb	 SHORT $LN1042@LoadSettin

; 2307 :             _Result = _Unfancy(_Bx._Ptr);

  0069a	8b 36		 mov	 esi, DWORD PTR [esi]
$LN1042@LoadSettin:

; 2306 :         if (_Large_string_engaged()) {

  0069c	83 7f 14 10	 cmp	 DWORD PTR [edi+20], 16	; 00000010H
  006a0	72 02		 jb	 SHORT $LN1049@LoadSettin

; 2307 :             _Result = _Unfancy(_Bx._Ptr);

  006a2	8b 3f		 mov	 edi, DWORD PTR [edi]
$LN1049@LoadSettin:
; File C:\Users\murat\Desktop\Siveps2-1-99-Project\source\client\Client\GameLib\MapOutdoorLoad.cpp

; 394  : 		SetBaseXY((DWORD)atol(c_rstrMapBaseX.c_str()), (DWORD)atol(c_rstrMapBaseY.c_str()));

  006a4	56		 push	 esi
  006a5	e8 00 00 00 00	 call	 _atol
  006aa	83 c4 04	 add	 esp, 4
  006ad	50		 push	 eax
  006ae	57		 push	 edi
  006af	e8 00 00 00 00	 call	 _atol
  006b4	8b b5 1c fe ff
	ff		 mov	 esi, DWORD PTR _this$GSCopy$1$[ebp]
  006ba	83 c4 04	 add	 esp, 4
  006bd	8b ce		 mov	 ecx, esi
  006bf	50		 push	 eax
  006c0	e8 00 00 00 00	 call	 ?SetBaseXY@CMapOutdoor@@QAEXKK@Z ; CMapOutdoor::SetBaseXY
  006c5	eb 06		 jmp	 SHORT $LN14@LoadSettin
$LN1212@LoadSettin:

; 390  : 	if (stTokenVectorMap.end() != stTokenVectorMap.find("baseposition"))

  006c7	8b b5 1c fe ff
	ff		 mov	 esi, DWORD PTR _this$GSCopy$1$[ebp]
$LN14@LoadSettin:
; File C:\Program Files (x86)\Microsoft Visual Studio\2019\Professional\VC\Tools\MSVC\14.29.30133\include\xstring

; 2306 :         if (_Large_string_engaged()) {

  006cd	83 7d d4 10	 cmp	 DWORD PTR _strTextureSet$[ebp+20], 16 ; 00000010H
  006d1	8d 45 c0	 lea	 eax, DWORD PTR _strTextureSet$[ebp]

; 2933 :         if (_Stay_small) { // stay small, don't allocate

  006d4	8b 7d d0	 mov	 edi, DWORD PTR _strTextureSet$[ebp+16]
  006d7	b9 ff ff ff 7f	 mov	 ecx, 2147483647		; 7fffffffH

; 2306 :         if (_Large_string_engaged()) {

  006dc	0f 43 45 c0	 cmovae	 eax, DWORD PTR _strTextureSet$[ebp]

; 2346 :         _CONSTEXPR20_CONTAINER _Bxty() noexcept : _Ptr() {} // user-provided, for fancy pointers

  006e0	c7 45 a8 00 00
	00 00		 mov	 DWORD PTR _stTextureSetFileName$[ebp], 0

; 2355 :     size_type _Mysize = 0; // current length of string

  006e7	c7 45 b8 00 00
	00 00		 mov	 DWORD PTR _stTextureSetFileName$[ebp+16], 0

; 2356 :     size_type _Myres  = 0; // current storage reserved for string

  006ee	c7 45 bc 00 00
	00 00		 mov	 DWORD PTR _stTextureSetFileName$[ebp+20], 0

; 2306 :         if (_Large_string_engaged()) {

  006f5	89 85 20 fe ff
	ff		 mov	 DWORD PTR __Result$2$[ebp], eax

; 2933 :         if (_Stay_small) { // stay small, don't allocate

  006fb	83 ff 10	 cmp	 edi, 16			; 00000010H
  006fe	73 14		 jae	 SHORT $LN1064@LoadSettin

; 65   :         _CSTD memcpy(_First1, _First2, _Count * sizeof(_Elem));

  00700	0f 10 00	 movups	 xmm0, XMMWORD PTR [eax]

; 2937 :             return;

  00703	8b 45 d0	 mov	 eax, DWORD PTR _strTextureSet$[ebp+16]
  00706	89 7d b8	 mov	 DWORD PTR _stTextureSetFileName$[ebp+16], edi
  00709	bf 0f 00 00 00	 mov	 edi, 15			; 0000000fH

; 65   :         _CSTD memcpy(_First1, _First2, _Count * sizeof(_Elem));

  0070e	0f 11 45 a8	 movups	 XMMWORD PTR _stTextureSetFileName$[ebp], xmm0

; 2937 :             return;

  00712	eb 4f		 jmp	 SHORT $LN1216@LoadSettin
$LN1064@LoadSettin:

; 2938 :         }
; 2939 : 
; 2940 :         auto& _Al                     = _Getal();
; 2941 :         const size_type _New_capacity = (_STD min)(_Right_size | _ALLOC_MASK, max_size());

  00714	83 cf 0f	 or	 edi, 15			; 0000000fH
  00717	3b f9		 cmp	 edi, ecx
  00719	0f 47 f9	 cmova	 edi, ecx

; 2942 :         const pointer _New_array      = _Al.allocate(_New_capacity + 1); // throws

  0071c	8d 47 01	 lea	 eax, DWORD PTR [edi+1]
; File C:\Program Files (x86)\Microsoft Visual Studio\2019\Professional\VC\Tools\MSVC\14.29.30133\include\xmemory

; 237  :         if (_Bytes >= _Big_allocation_threshold) { // boost the alignment of big allocations to help autovectorization

  0071f	3d 00 10 00 00	 cmp	 eax, 4096		; 00001000H
  00724	72 0d		 jb	 SHORT $LN1078@LoadSettin

; 238  :             return _Allocate_manually_vector_aligned<_Traits>(_Bytes);

  00726	50		 push	 eax
  00727	e8 00 00 00 00	 call	 ??$_Allocate_manually_vector_aligned@U_Default_allocate_traits@std@@@std@@YAPAXI@Z ; std::_Allocate_manually_vector_aligned<std::_Default_allocate_traits>
  0072c	83 c4 04	 add	 esp, 4
  0072f	8b c8		 mov	 ecx, eax
  00731	eb 13		 jmp	 SHORT $LN1077@LoadSettin
$LN1078@LoadSettin:

; 239  :         }
; 240  :     }
; 241  : #endif // defined(_M_IX86) || defined(_M_X64)
; 242  : 
; 243  :     if (_Bytes != 0) {

  00733	85 c0		 test	 eax, eax
  00735	74 0d		 je	 SHORT $LN1079@LoadSettin

; 85   :         return ::operator new(_Bytes);

  00737	50		 push	 eax
  00738	e8 00 00 00 00	 call	 ??2@YAPAXI@Z		; operator new
  0073d	83 c4 04	 add	 esp, 4

; 244  :         return _Traits::_Allocate(_Bytes);

  00740	8b c8		 mov	 ecx, eax
  00742	eb 02		 jmp	 SHORT $LN1077@LoadSettin
$LN1079@LoadSettin:

; 245  :     }
; 246  : 
; 247  :     return nullptr;

  00744	33 c9		 xor	 ecx, ecx
$LN1077@LoadSettin:
; File C:\Program Files (x86)\Microsoft Visual Studio\2019\Professional\VC\Tools\MSVC\14.29.30133\include\xstring

; 2950 :         _Traits::copy(_Unfancy(_New_array), _Right_ptr, _Right_size + 1);

  00746	8b 45 d0	 mov	 eax, DWORD PTR _strTextureSet$[ebp+16]
  00749	40		 inc	 eax
  0074a	89 4d a8	 mov	 DWORD PTR _stTextureSetFileName$[ebp], ecx

; 65   :         _CSTD memcpy(_First1, _First2, _Count * sizeof(_Elem));

  0074d	50		 push	 eax
  0074e	ff b5 20 fe ff
	ff		 push	 DWORD PTR __Result$2$[ebp]
  00754	51		 push	 ecx
  00755	e8 00 00 00 00	 call	 _memcpy

; 2951 :         _My_data._Mysize = _Right_size;

  0075a	8b 45 d0	 mov	 eax, DWORD PTR _strTextureSet$[ebp+16]

; 65   :         _CSTD memcpy(_First1, _First2, _Count * sizeof(_Elem));

  0075d	83 c4 0c	 add	 esp, 12			; 0000000cH

; 2951 :         _My_data._Mysize = _Right_size;

  00760	89 45 b8	 mov	 DWORD PTR _stTextureSetFileName$[ebp+16], eax
$LN1216@LoadSettin:
; File C:\Users\murat\Desktop\Siveps2-1-99-Project\source\client\Client\GameLib\MapOutdoorLoad.cpp

; 397  : 	std::string stTextureSetFileName = strTextureSet;

  00763	8b d7		 mov	 edx, edi
  00765	89 7d bc	 mov	 DWORD PTR _stTextureSetFileName$[ebp+20], edi
; File C:\Program Files (x86)\Microsoft Visual Studio\2019\Professional\VC\Tools\MSVC\14.29.30133\include\xstring

; 2306 :         if (_Large_string_engaged()) {

  00768	83 fa 10	 cmp	 edx, 16			; 00000010H
; File C:\Users\murat\Desktop\Siveps2-1-99-Project\source\client\Client\GameLib\MapOutdoorLoad.cpp

; 397  : 	std::string stTextureSetFileName = strTextureSet;

  0076b	c6 45 fc 0b	 mov	 BYTE PTR __$EHRec$[ebp+8], 11 ; 0000000bH
; File C:\Program Files (x86)\Microsoft Visual Studio\2019\Professional\VC\Tools\MSVC\14.29.30133\include\xstring

; 2305 :         const value_type* _Result = _Bx._Buf;

  0076f	8d 4d a8	 lea	 ecx, DWORD PTR _stTextureSetFileName$[ebp]

; 2306 :         if (_Large_string_engaged()) {

  00772	0f 43 4d a8	 cmovae	 ecx, DWORD PTR _stTextureSetFileName$[ebp]
  00776	89 8d 20 fe ff
	ff		 mov	 DWORD PTR __Result$2$[ebp], ecx

; 773  :     if (_Needle_size != 0 && _Start_at < _Hay_size) { // room for match, look for it

  0077c	85 c0		 test	 eax, eax
  0077e	74 6d		 je	 SHORT $LN1209@LoadSettin
  00780	68 00 01 00 00	 push	 256			; 00000100H
  00785	8d 85 30 fe ff
	ff		 lea	 eax, DWORD PTR __Matches$11[ebp]
  0078b	6a 00		 push	 0
  0078d	50		 push	 eax
  0078e	e8 00 00 00 00	 call	 _memset
  00793	83 c4 0c	 add	 esp, 12			; 0000000cH

; 774  :         _String_bitmap<typename _Traits::char_type> _Matches;
; 775  :         if (!_Matches._Mark(_Needle, _Needle + _Needle_size)) { // couldn't put one of the characters into the bitmap,

  00796	b9 00 00 00 00	 mov	 ecx, OFFSET ??_C@_0L@FLIBEPMB@textureset@
  0079b	0f 1f 44 00 00	 npad	 5
$LL1107@LoadSettin:

; 705  :             _Matches[static_cast<unsigned char>(*_First)] = true;

  007a0	0f b6 01	 movzx	 eax, BYTE PTR [ecx]
  007a3	41		 inc	 ecx
  007a4	c6 84 05 30 fe
	ff ff 01	 mov	 BYTE PTR __Matches$11[ebp+eax], 1
  007ac	81 f9 0a 00 00
	00		 cmp	 ecx, OFFSET ??_C@_0L@FLIBEPMB@textureset@+10
  007b2	75 ec		 jne	 SHORT $LL1107@LoadSettin

; 781  :         for (auto _Match_try = _Haystack + _Start_at; _Match_try < _End; ++_Match_try) {

  007b4	8b 95 20 fe ff
	ff		 mov	 edx, DWORD PTR __Result$2$[ebp]
  007ba	8b ca		 mov	 ecx, edx
  007bc	8b 45 d0	 mov	 eax, DWORD PTR _strTextureSet$[ebp+16]
  007bf	03 c2		 add	 eax, edx
  007c1	89 85 20 fe ff
	ff		 mov	 DWORD PTR __End$1$[ebp], eax
  007c7	3b d0		 cmp	 edx, eax
  007c9	73 22		 jae	 SHORT $LN1209@LoadSettin
  007cb	0f 1f 44 00 00	 npad	 5
$LL1097@LoadSettin:

; 712  :         return _Matches[static_cast<unsigned char>(_Ch)];

  007d0	0f b6 01	 movzx	 eax, BYTE PTR [ecx]
  007d3	8a 84 05 30 fe
	ff ff		 mov	 al, BYTE PTR __Matches$11[ebp+eax]

; 782  :             if (_Matches._Match(*_Match_try)) {

  007da	84 c0		 test	 al, al
  007dc	75 0b		 jne	 SHORT $LN1198@LoadSettin

; 776  :                                                                 // fall back to the serial algorithm
; 777  :             return _Traits_find_first_of<_Traits>(_Haystack, _Hay_size, _Start_at, _Needle, _Needle_size, false_type{});
; 778  :         }
; 779  : 
; 780  :         const auto _End = _Haystack + _Hay_size;
; 781  :         for (auto _Match_try = _Haystack + _Start_at; _Match_try < _End; ++_Match_try) {

  007de	41		 inc	 ecx
  007df	3b 8d 20 fe ff
	ff		 cmp	 ecx, DWORD PTR __End$1$[ebp]
  007e5	72 e9		 jb	 SHORT $LL1097@LoadSettin

; 782  :             if (_Matches._Match(*_Match_try)) {

  007e7	eb 04		 jmp	 SHORT $LN1209@LoadSettin
$LN1198@LoadSettin:

; 783  :                 return static_cast<size_t>(_Match_try - _Haystack); // found a match

  007e9	2b ca		 sub	 ecx, edx
; File C:\Users\murat\Desktop\Siveps2-1-99-Project\source\client\Client\GameLib\MapOutdoorLoad.cpp

; 400  : 	if (0 != stTextureSetFileName.find_first_of("textureset", 0))

  007eb	74 50		 je	 SHORT $LN15@LoadSettin
$LN1209@LoadSettin:
; File C:\Program Files (x86)\Microsoft Visual Studio\2019\Professional\VC\Tools\MSVC\14.29.30133\include\xstring

; 4702 :     if (_Right.max_size() - _Right_size < _Left_size) {

  007ed	8b 7d d0	 mov	 edi, DWORD PTR _strTextureSet$[ebp+16]
  007f0	b8 ff ff ff 7f	 mov	 eax, 2147483647		; 7fffffffH
  007f5	2b c7		 sub	 eax, edi
  007f7	83 f8 0b	 cmp	 eax, 11			; 0000000bH
  007fa	0f 82 12 03 00
	00		 jb	 $LN1218@LoadSettin

; 2306 :         if (_Large_string_engaged()) {

  00800	83 7d d4 10	 cmp	 DWORD PTR _strTextureSet$[ebp+20], 16 ; 00000010H
  00804	8d 45 c0	 lea	 eax, DWORD PTR _strTextureSet$[ebp]

; 4706 :     return {_String_constructor_concat_tag{}, _Right, _Left, _Left_size, _Right.c_str(), _Right_size};

  00807	57		 push	 edi

; 2306 :         if (_Large_string_engaged()) {

  00808	0f 43 45 c0	 cmovae	 eax, DWORD PTR _strTextureSet$[ebp]

; 4706 :     return {_String_constructor_concat_tag{}, _Right, _Left, _Left_size, _Right.c_str(), _Right_size};

  0080c	8d 4d 90	 lea	 ecx, DWORD PTR $T19[ebp]
  0080f	50		 push	 eax
  00810	6a 0b		 push	 11			; 0000000bH
  00812	68 00 00 00 00	 push	 OFFSET ??_C@_0M@PKDGGBDB@textureset?2@
  00817	8d 45 c0	 lea	 eax, DWORD PTR _strTextureSet$[ebp]
  0081a	50		 push	 eax
  0081b	ff b5 20 fe ff
	ff		 push	 DWORD PTR $T2[ebp]
  00821	e8 00 00 00 00	 call	 ??0?$basic_string@DU?$char_traits@D@std@@V?$allocator@D@2@@std@@QAE@U_String_constructor_concat_tag@1@ABV01@QBDI2I@Z ; std::basic_string<char,std::char_traits<char>,std::allocator<char> >::basic_string<char,std::char_traits<char>,std::allocator<char> >
; File C:\Users\murat\Desktop\Siveps2-1-99-Project\source\client\Client\GameLib\MapOutdoorLoad.cpp

; 401  : 		stTextureSetFileName = "textureset\\"+strTextureSet;

  00826	8d 45 90	 lea	 eax, DWORD PTR $T19[ebp]
  00829	50		 push	 eax
  0082a	8d 4d a8	 lea	 ecx, DWORD PTR _stTextureSetFileName$[ebp]
  0082d	e8 00 00 00 00	 call	 ??4?$basic_string@DU?$char_traits@D@std@@V?$allocator@D@2@@std@@QAEAAV01@$$QAV01@@Z ; std::basic_string<char,std::char_traits<char>,std::allocator<char> >::operator=
  00832	8d 4d 90	 lea	 ecx, DWORD PTR $T19[ebp]
  00835	e8 00 00 00 00	 call	 ??1?$basic_string@DU?$char_traits@D@std@@V?$allocator@D@2@@std@@QAE@XZ ; std::basic_string<char,std::char_traits<char>,std::allocator<char> >::~basic_string<char,std::char_traits<char>,std::allocator<char> >
  0083a	8b 7d bc	 mov	 edi, DWORD PTR _stTextureSetFileName$[ebp+20]
$LN15@LoadSettin:

; 403  :  	if (!m_TextureSet.Load(stTextureSetFileName.c_str(), m_fTerrainTexCoordBase))

  0083d	f3 0f 10 86 08
	09 00 00	 movss	 xmm0, DWORD PTR [esi+2312]
; File C:\Program Files (x86)\Microsoft Visual Studio\2019\Professional\VC\Tools\MSVC\14.29.30133\include\xstring

; 2305 :         const value_type* _Result = _Bx._Buf;

  00845	8d 45 a8	 lea	 eax, DWORD PTR _stTextureSetFileName$[ebp]

; 2306 :         if (_Large_string_engaged()) {

  00848	83 ff 10	 cmp	 edi, 16			; 00000010H
; File C:\Users\murat\Desktop\Siveps2-1-99-Project\source\client\Client\GameLib\MapOutdoorLoad.cpp

; 403  :  	if (!m_TextureSet.Load(stTextureSetFileName.c_str(), m_fTerrainTexCoordBase))

  0084b	8d be 7c 02 00
	00		 lea	 edi, DWORD PTR [esi+636]
  00851	51		 push	 ecx
; File C:\Program Files (x86)\Microsoft Visual Studio\2019\Professional\VC\Tools\MSVC\14.29.30133\include\xstring

; 2306 :         if (_Large_string_engaged()) {

  00852	0f 43 45 a8	 cmovae	 eax, DWORD PTR _stTextureSetFileName$[ebp]
; File C:\Users\murat\Desktop\Siveps2-1-99-Project\source\client\Client\GameLib\MapOutdoorLoad.cpp

; 403  :  	if (!m_TextureSet.Load(stTextureSetFileName.c_str(), m_fTerrainTexCoordBase))

  00856	8b cf		 mov	 ecx, edi
  00858	f3 0f 11 04 24	 movss	 DWORD PTR [esp], xmm0
  0085d	50		 push	 eax
  0085e	e8 00 00 00 00	 call	 ?Load@CTextureSet@@QAE_NPBDM@Z ; CTextureSet::Load
  00863	84 c0		 test	 al, al
  00865	75 2b		 jne	 SHORT $LN16@LoadSettin
; File C:\Program Files (x86)\Microsoft Visual Studio\2019\Professional\VC\Tools\MSVC\14.29.30133\include\xstring

; 2319 :         return _BUF_SIZE <= _Myres;

  00867	83 7d bc 10	 cmp	 DWORD PTR _stTextureSetFileName$[ebp+20], 16 ; 00000010H

; 2305 :         const value_type* _Result = _Bx._Buf;

  0086b	8d 45 a8	 lea	 eax, DWORD PTR _stTextureSetFileName$[ebp]

; 2306 :         if (_Large_string_engaged()) {

  0086e	0f 43 45 a8	 cmovae	 eax, DWORD PTR _stTextureSetFileName$[ebp]
; File C:\Users\murat\Desktop\Siveps2-1-99-Project\source\client\Client\GameLib\MapOutdoorLoad.cpp

; 409  : 		TraceError("MapOutdoor::LoadSetting(c_szFileName=%s) - LOAD TEXTURE SET(%s) ERROR", c_szFileName, stTextureSetFileName.c_str());

  00872	50		 push	 eax
  00873	ff b5 18 fe ff
	ff		 push	 DWORD PTR _c_szFileName$GSCopy$1$[ebp]
  00879	68 00 00 00 00	 push	 OFFSET ??_C@_0EG@MFMOCBKJ@MapOutdoor?3?3LoadSetting?$CIc_szFil@
  0087e	e8 00 00 00 00	 call	 ?TraceError@@YAXPBDZZ	; TraceError
  00883	83 c4 0c	 add	 esp, 12			; 0000000cH
  00886	c6 85 2f fe ff
	ff 00		 mov	 BYTE PTR $T10[ebp], 0
  0088d	e9 25 02 00 00	 jmp	 $LN55@LoadSettin
$LN16@LoadSettin:

; 410  : 		return false;
; 411  : #endif
; 412  : 	}
; 413  : 
; 414  : 	CTerrain::SetTextureSet(&m_TextureSet);

  00892	57		 push	 edi
  00893	e8 00 00 00 00	 call	 ?SetTextureSet@CTerrainImpl@@SAXPAVCTextureSet@@@Z ; CTerrainImpl::SetTextureSet
  00898	83 c4 04	 add	 esp, 4

; 416  : 	if (stTokenVectorMap.end() != stTokenVectorMap.find("environment"))

  0089b	8d 4d 90	 lea	 ecx, DWORD PTR $T18[ebp]
  0089e	68 00 00 00 00	 push	 OFFSET ??_C@_0M@PINLHHEI@environment@
  008a3	e8 00 00 00 00	 call	 ??0?$basic_string@DU?$char_traits@D@std@@V?$allocator@D@2@@std@@QAE@QBD@Z ; std::basic_string<char,std::char_traits<char>,std::allocator<char> >::basic_string<char,std::char_traits<char>,std::allocator<char> >
; File C:\Program Files (x86)\Microsoft Visual Studio\2019\Professional\VC\Tools\MSVC\14.29.30133\include\xtree

; 39   :     _Tree_unchecked_const_iterator(_Nodeptr _Pnode, const _Mytree* _Plist) noexcept : _Ptr(_Pnode) {

  008a8	8b b5 24 fe ff
	ff		 mov	 esi, DWORD PTR _stTokenVectorMap$[ebp]
; File C:\Users\murat\Desktop\Siveps2-1-99-Project\source\client\Client\GameLib\MapOutdoorLoad.cpp

; 416  : 	if (stTokenVectorMap.end() != stTokenVectorMap.find("environment"))

  008ae	8d 45 90	 lea	 eax, DWORD PTR $T18[ebp]
  008b1	50		 push	 eax
  008b2	8d 85 20 fe ff
	ff		 lea	 eax, DWORD PTR $T3[ebp]
  008b8	50		 push	 eax
  008b9	8d 8d 24 fe ff
	ff		 lea	 ecx, DWORD PTR _stTokenVectorMap$[ebp]
  008bf	e8 00 00 00 00	 call	 ?find@?$_Tree@V?$_Tmap_traits@V?$basic_string@DU?$char_traits@D@std@@V?$allocator@D@2@@std@@V?$vector@V?$basic_string@DU?$char_traits@D@std@@V?$allocator@D@2@@std@@V?$allocator@V?$basic_string@DU?$char_traits@D@std@@V?$allocator@D@2@@std@@@2@@2@U?$less@V?$basic_string@DU?$char_traits@D@std@@V?$allocator@D@2@@std@@@2@V?$allocator@U?$pair@$$CBV?$basic_string@DU?$char_traits@D@std@@V?$allocator@D@2@@std@@V?$vector@V?$basic_string@DU?$char_traits@D@std@@V?$allocator@D@2@@std@@V?$allocator@V?$basic_string@DU?$char_traits@D@std@@V?$allocator@D@2@@std@@@2@@2@@std@@@2@$0A@@std@@@std@@QAE?AV?$_Tree_iterator@V?$_Tree_val@U?$_Tree_simple_types@U?$pair@$$CBV?$basic_string@DU?$char_traits@D@std@@V?$allocator@D@2@@std@@V?$vector@V?$basic_string@DU?$char_traits@D@std@@V?$allocator@D@2@@std@@V?$allocator@V?$basic_string@DU?$char_traits@D@std@@V?$allocator@D@2@@std@@@2@@2@@std@@@std@@@std@@@2@ABV?$basic_string@DU?$char_traits@D@std@@V?$allocator@D@2@@2@@Z ; std::_Tree<std::_Tmap_traits<std::basic_string<char,std::char_traits<char>,std::allocator<char> >,std::vector<std::basic_string<char,std::char_traits<char>,std::allocator<char> >,std::allocator<std::basic_string<char,std::char_traits<char>,std::allocator<char> > > >,std::less<std::basic_string<char,std::char_traits<char>,std::allocator<char> > >,std::allocator<std::pair<std::basic_string<char,std::char_traits<char>,std::allocator<char> > const ,std::vector<std::basic_string<char,std::char_traits<char>,std::allocator<char> >,std::allocator<std::basic_string<char,std::char_traits<char>,std::allocator<char> > > > > >,0> >::find
  008c4	8d 4d 90	 lea	 ecx, DWORD PTR $T18[ebp]
; File C:\Program Files (x86)\Microsoft Visual Studio\2019\Professional\VC\Tools\MSVC\14.29.30133\include\xtree

; 236  :         return this->_Ptr == _Right._Ptr;

  008c7	8b 38		 mov	 edi, DWORD PTR [eax]
; File C:\Users\murat\Desktop\Siveps2-1-99-Project\source\client\Client\GameLib\MapOutdoorLoad.cpp

; 416  : 	if (stTokenVectorMap.end() != stTokenVectorMap.find("environment"))

  008c9	e8 00 00 00 00	 call	 ??1?$basic_string@DU?$char_traits@D@std@@V?$allocator@D@2@@std@@QAE@XZ ; std::basic_string<char,std::char_traits<char>,std::allocator<char> >::~basic_string<char,std::char_traits<char>,std::allocator<char> >
  008ce	3b f7		 cmp	 esi, edi
  008d0	74 5c		 je	 SHORT $LN1213@LoadSettin

; 417  : 	{
; 418  : 		const CTokenVector & c_rEnvironmentVector = stTokenVectorMap["environment"];

  008d2	68 00 00 00 00	 push	 OFFSET ??_C@_0M@PINLHHEI@environment@
  008d7	8d 4d 90	 lea	 ecx, DWORD PTR $T17[ebp]
  008da	e8 00 00 00 00	 call	 ??0?$basic_string@DU?$char_traits@D@std@@V?$allocator@D@2@@std@@QAE@QBD@Z ; std::basic_string<char,std::char_traits<char>,std::allocator<char> >::basic_string<char,std::char_traits<char>,std::allocator<char> >
  008df	8d 45 90	 lea	 eax, DWORD PTR $T17[ebp]
  008e2	c6 45 fc 0c	 mov	 BYTE PTR __$EHRec$[ebp+8], 12 ; 0000000cH
  008e6	50		 push	 eax
  008e7	8d 8d 24 fe ff
	ff		 lea	 ecx, DWORD PTR _stTokenVectorMap$[ebp]
  008ed	e8 00 00 00 00	 call	 ??A?$map@V?$basic_string@DU?$char_traits@D@std@@V?$allocator@D@2@@std@@V?$vector@V?$basic_string@DU?$char_traits@D@std@@V?$allocator@D@2@@std@@V?$allocator@V?$basic_string@DU?$char_traits@D@std@@V?$allocator@D@2@@std@@@2@@2@U?$less@V?$basic_string@DU?$char_traits@D@std@@V?$allocator@D@2@@std@@@2@V?$allocator@U?$pair@$$CBV?$basic_string@DU?$char_traits@D@std@@V?$allocator@D@2@@std@@V?$vector@V?$basic_string@DU?$char_traits@D@std@@V?$allocator@D@2@@std@@V?$allocator@V?$basic_string@DU?$char_traits@D@std@@V?$allocator@D@2@@std@@@2@@2@@std@@@2@@std@@QAEAAV?$vector@V?$basic_string@DU?$char_traits@D@std@@V?$allocator@D@2@@std@@V?$allocator@V?$basic_string@DU?$char_traits@D@std@@V?$allocator@D@2@@std@@@2@@1@$$QAV?$basic_string@DU?$char_traits@D@std@@V?$allocator@D@2@@1@@Z ; std::map<std::basic_string<char,std::char_traits<char>,std::allocator<char> >,std::vector<std::basic_string<char,std::char_traits<char>,std::allocator<char> >,std::allocator<std::basic_string<char,std::char_traits<char>,std::allocator<char> > > >,std::less<std::basic_string<char,std::char_traits<char>,std::allocator<char> > >,std::allocator<std::pair<std::basic_string<char,std::char_traits<char>,std::allocator<char> > const ,std::vector<std::basic_string<char,std::char_traits<char>,std::allocator<char> >,std::allocator<std::basic_string<char,std::char_traits<char>,std::allocator<char> > > > > > >::operator[]
  008f2	8d 4d 90	 lea	 ecx, DWORD PTR $T17[ebp]
  008f5	c6 45 fc 0b	 mov	 BYTE PTR __$EHRec$[ebp+8], 11 ; 0000000bH
  008f9	8b f0		 mov	 esi, eax
  008fb	e8 00 00 00 00	 call	 ??1?$basic_string@DU?$char_traits@D@std@@V?$allocator@D@2@@std@@QAE@XZ ; std::basic_string<char,std::char_traits<char>,std::allocator<char> >::~basic_string<char,std::char_traits<char>,std::allocator<char> >
; File C:\Program Files (x86)\Microsoft Visual Studio\2019\Professional\VC\Tools\MSVC\14.29.30133\include\vector

; 1544 :         return _My_data._Myfirst == _My_data._Mylast;

  00900	8b 06		 mov	 eax, DWORD PTR [esi]
  00902	3b 46 04	 cmp	 eax, DWORD PTR [esi+4]
; File C:\Users\murat\Desktop\Siveps2-1-99-Project\source\client\Client\GameLib\MapOutdoorLoad.cpp

; 419  : 		if (!c_rEnvironmentVector.empty())

  00905	74 14		 je	 SHORT $LN18@LoadSettin

; 420  : 			m_settings_envDataName = c_rEnvironmentVector[0];

  00907	8b b5 1c fe ff
	ff		 mov	 esi, DWORD PTR _this$GSCopy$1$[ebp]
  0090d	50		 push	 eax
  0090e	8d 8e 7c 13 00
	00		 lea	 ecx, DWORD PTR [esi+4988]
  00914	e8 00 00 00 00	 call	 ??4?$basic_string@DU?$char_traits@D@std@@V?$allocator@D@2@@std@@QAEAAV01@ABV01@@Z ; std::basic_string<char,std::char_traits<char>,std::allocator<char> >::operator=
  00919	eb 19		 jmp	 SHORT $LN19@LoadSettin
$LN18@LoadSettin:

; 421  : 		else
; 422  : 			TraceError("CMapOutdoor::LoadSetting(c_szFileName=%s) - Failed to load environment data\n", c_szFileName);

  0091b	ff b5 18 fe ff
	ff		 push	 DWORD PTR _c_szFileName$GSCopy$1$[ebp]
  00921	68 00 00 00 00	 push	 OFFSET ??_C@_0EN@PIOHNJHJ@CMapOutdoor?3?3LoadSetting?$CIc_szFi@
  00926	e8 00 00 00 00	 call	 ?TraceError@@YAXPBDZZ	; TraceError
  0092b	83 c4 08	 add	 esp, 8
$LN1213@LoadSettin:

; 423  : 	}
; 424  : 
; 425  : 	m_fWaterTexCoordBase = 1.0f / (float)(CTerrainImpl::CELLSCALE * 4);

  0092e	8b b5 1c fe ff
	ff		 mov	 esi, DWORD PTR _this$GSCopy$1$[ebp]
$LN19@LoadSettin:

; 426  : 
; 427  : 	D3DXMatrixScaling(&m_matSplatAlpha,

  00934	f3 0f 10 9e 08
	09 00 00	 movss	 xmm3, DWORD PTR [esi+2312]
  0093c	8d 86 c8 07 00
	00		 lea	 eax, DWORD PTR [esi+1992]
  00942	0f 28 d3	 movaps	 xmm2, xmm3
  00945	c7 86 0c 09 00
	00 0a d7 a3 3a	 mov	 DWORD PTR [esi+2316], 983815946 ; 3aa3d70aH
  0094f	0f 57 15 00 00
	00 00		 xorps	 xmm2, DWORD PTR __xmm@80000000800000008000000080000000
  00956	f3 0f 58 db	 addss	 xmm3, xmm3
  0095a	f3 0f 58 d2	 addss	 xmm2, xmm2
  0095e	83 ec 0c	 sub	 esp, 12			; 0000000cH
  00961	f3 0f 59 1d 00
	00 00 00	 mulss	 xmm3, DWORD PTR __real@41800000
  00969	c7 44 24 08 00
	00 00 00	 mov	 DWORD PTR [esp+8], 0
  00971	f3 0f 59 15 00
	00 00 00	 mulss	 xmm2, DWORD PTR __real@41800000
  00979	f3 0f 59 1d 00
	00 00 00	 mulss	 xmm3, DWORD PTR __real@3b800000
  00981	f3 0f 59 15 00
	00 00 00	 mulss	 xmm2, DWORD PTR __real@3b800000
  00989	f3 0f 11 54 24
	04		 movss	 DWORD PTR [esp+4], xmm2
  0098f	f3 0f 11 1c 24	 movss	 DWORD PTR [esp], xmm3
  00994	50		 push	 eax
  00995	e8 00 00 00 00	 call	 _D3DXMatrixScaling@16

; 428  : 		+m_fTerrainTexCoordBase * 2.0f * (float)(CTerrainImpl::PATCH_XSIZE) / (float)(CTerrainImpl::SPLATALPHA_RAW_XSIZE-2),
; 429  : 		-m_fTerrainTexCoordBase * 2.0f * (float)(CTerrainImpl::PATCH_YSIZE) / (float)(CTerrainImpl::SPLATALPHA_RAW_XSIZE-2),
; 430  : 		0.0f);
; 431  : 	m_matSplatAlpha._41 = m_fTerrainTexCoordBase * 4.6f;

  0099a	f3 0f 10 96 08
	09 00 00	 movss	 xmm2, DWORD PTR [esi+2312]

; 432  : 	m_matSplatAlpha._42 = m_fTerrainTexCoordBase * 4.6f;
; 433  : 
; 434  : 	D3DXMatrixScaling(&m_matStaticShadow,

  009a2	8d 86 08 08 00
	00		 lea	 eax, DWORD PTR [esi+2056]
  009a8	0f 28 c2	 movaps	 xmm0, xmm2
  009ab	83 ec 0c	 sub	 esp, 12			; 0000000cH
  009ae	f3 0f 59 05 00
	00 00 00	 mulss	 xmm0, DWORD PTR __real@40933333
  009b6	c7 44 24 08 00
	00 00 00	 mov	 DWORD PTR [esp+8], 0
  009be	f3 0f 11 86 f8
	07 00 00	 movss	 DWORD PTR [esi+2040], xmm0
  009c6	f3 0f 11 86 fc
	07 00 00	 movss	 DWORD PTR [esi+2044], xmm0
  009ce	0f 28 c2	 movaps	 xmm0, xmm2
  009d1	0f 57 05 00 00
	00 00		 xorps	 xmm0, DWORD PTR __xmm@80000000800000008000000080000000
  009d8	f3 0f 59 05 00
	00 00 00	 mulss	 xmm0, DWORD PTR __real@3e000000
  009e0	f3 0f 59 15 00
	00 00 00	 mulss	 xmm2, DWORD PTR __real@3e000000
  009e8	f3 0f 11 44 24
	04		 movss	 DWORD PTR [esp+4], xmm0
  009ee	f3 0f 11 14 24	 movss	 DWORD PTR [esp], xmm2
  009f3	50		 push	 eax
  009f4	e8 00 00 00 00	 call	 _D3DXMatrixScaling@16

; 435  : 		+m_fTerrainTexCoordBase * ((float) CTerrainImpl::PATCH_XSIZE / CTerrainImpl::XSIZE),
; 436  : 		-m_fTerrainTexCoordBase * ((float) CTerrainImpl::PATCH_YSIZE / CTerrainImpl::XSIZE),
; 437  : 		0.0f);
; 438  : 	m_matStaticShadow._41 = 0.0f;
; 439  : 	m_matStaticShadow._42 = 0.0f;
; 440  : 
; 441  : 	D3DXMatrixScaling(&m_matDynamicShadowScale, 1.0f / 2550.0f, -1.0f / 2550.0f, 1.0f);

  009f9	83 ec 0c	 sub	 esp, 12			; 0000000cH
  009fc	c7 86 38 08 00
	00 00 00 00 00	 mov	 DWORD PTR [esi+2104], 0
  00a06	8d 86 88 08 00
	00		 lea	 eax, DWORD PTR [esi+2184]
  00a0c	c7 86 3c 08 00
	00 00 00 00 00	 mov	 DWORD PTR [esi+2108], 0
  00a16	c7 44 24 08 00
	00 80 3f	 mov	 DWORD PTR [esp+8], 1065353216 ; 3f800000H
  00a1e	c7 44 24 04 67
	9a cd b9	 mov	 DWORD PTR [esp+4], -1177707929 ; b9cd9a67H
  00a26	c7 04 24 67 9a
	cd 39		 mov	 DWORD PTR [esp], 969775719 ; 39cd9a67H
  00a2d	50		 push	 eax
  00a2e	e8 00 00 00 00	 call	 _D3DXMatrixScaling@16

; 442  : 	m_matDynamicShadowScale._41 = 0.5f;
; 443  : 	m_matDynamicShadowScale._42 = 0.5f;
; 444  : 
; 445  : 	// Transform
; 446  : 	D3DXMatrixScaling(&m_matBuildingTransparent, 1.0f / ((float)ms_iWidth), -1.0f / ((float)ms_iHeight), 1.0f);

  00a33	f3 0f 10 0d 00
	00 00 00	 movss	 xmm1, DWORD PTR __real@bf800000
  00a3b	8d 86 2c 0e 00
	00		 lea	 eax, DWORD PTR [esi+3628]
  00a41	c7 86 b8 08 00
	00 00 00 00 3f	 mov	 DWORD PTR [esi+2232], 1056964608 ; 3f000000H
  00a4b	83 ec 0c	 sub	 esp, 12			; 0000000cH
  00a4e	c7 86 bc 08 00
	00 00 00 00 3f	 mov	 DWORD PTR [esi+2236], 1056964608 ; 3f000000H
  00a58	66 0f 6e 05 00
	00 00 00	 movd	 xmm0, DWORD PTR ?ms_iHeight@CGraphicBase@@1HA ; CGraphicBase::ms_iHeight
  00a60	0f 5b c0	 cvtdq2ps xmm0, xmm0
  00a63	c7 44 24 08 00
	00 80 3f	 mov	 DWORD PTR [esp+8], 1065353216 ; 3f800000H
  00a6b	f3 0f 5e c8	 divss	 xmm1, xmm0
  00a6f	66 0f 6e 05 00
	00 00 00	 movd	 xmm0, DWORD PTR ?ms_iWidth@CGraphicBase@@1HA ; CGraphicBase::ms_iWidth
  00a77	0f 5b c0	 cvtdq2ps xmm0, xmm0
  00a7a	f3 0f 11 4c 24
	04		 movss	 DWORD PTR [esp+4], xmm1
  00a80	f3 0f 10 0d 00
	00 00 00	 movss	 xmm1, DWORD PTR __real@3f800000
  00a88	f3 0f 5e c8	 divss	 xmm1, xmm0
  00a8c	f3 0f 11 0c 24	 movss	 DWORD PTR [esp], xmm1
  00a91	50		 push	 eax
  00a92	e8 00 00 00 00	 call	 _D3DXMatrixScaling@16

; 447  : 	m_matBuildingTransparent._41 = 0.5f;

  00a97	c7 86 5c 0e 00
	00 00 00 00 3f	 mov	 DWORD PTR [esi+3676], 1056964608 ; 3f000000H

; 448  : 	m_matBuildingTransparent._42 = 0.5f;

  00aa1	c7 86 60 0e 00
	00 00 00 00 3f	 mov	 DWORD PTR [esi+3680], 1056964608 ; 3f000000H

; 449  : 	NANOEND

  00aab	eb		 DB	 -21			; ffffffebH
  00aac	03		 DB	 3
  00aad	d6		 DB	 -42			; ffffffd6H
  00aae	d7		 DB	 -41			; ffffffd7H
  00aaf	00		 DB	 0
  00ab0	c6 85 2f fe ff
	ff 01		 mov	 BYTE PTR $T10[ebp], 1
$LN55@LoadSettin:
  00ab7	8d 4d a8	 lea	 ecx, DWORD PTR _stTextureSetFileName$[ebp]
  00aba	e8 00 00 00 00	 call	 ??1?$basic_string@DU?$char_traits@D@std@@V?$allocator@D@2@@std@@QAE@XZ ; std::basic_string<char,std::char_traits<char>,std::allocator<char> >::~basic_string<char,std::char_traits<char>,std::allocator<char> >
$LN54@LoadSettin:
  00abf	8d 4d c0	 lea	 ecx, DWORD PTR _strTextureSet$[ebp]
  00ac2	e8 00 00 00 00	 call	 ??1?$basic_string@DU?$char_traits@D@std@@V?$allocator@D@2@@std@@QAE@XZ ; std::basic_string<char,std::char_traits<char>,std::allocator<char> >::~basic_string<char,std::char_traits<char>,std::allocator<char> >
$LN52@LoadSettin:
; File C:\Program Files (x86)\Microsoft Visual Studio\2019\Professional\VC\Tools\MSVC\14.29.30133\include\xtree

; 758  :         _Erase_tree(_Al, _Myhead->_Parent);

  00ac7	8b 85 24 fe ff
	ff		 mov	 eax, DWORD PTR _stTokenVectorMap$[ebp]
  00acd	ff 70 04	 push	 DWORD PTR [eax+4]
  00ad0	8d 85 24 fe ff
	ff		 lea	 eax, DWORD PTR _stTokenVectorMap$[ebp]
  00ad6	50		 push	 eax
  00ad7	8b c8		 mov	 ecx, eax
  00ad9	e8 00 00 00 00	 call	 ??$_Erase_tree@V?$allocator@U?$_Tree_node@U?$pair@$$CBV?$basic_string@DU?$char_traits@D@std@@V?$allocator@D@2@@std@@V?$vector@V?$basic_string@DU?$char_traits@D@std@@V?$allocator@D@2@@std@@V?$allocator@V?$basic_string@DU?$char_traits@D@std@@V?$allocator@D@2@@std@@@2@@2@@std@@PAX@std@@@std@@@?$_Tree_val@U?$_Tree_simple_types@U?$pair@$$CBV?$basic_string@DU?$char_traits@D@std@@V?$allocator@D@2@@std@@V?$vector@V?$basic_string@DU?$char_traits@D@std@@V?$allocator@D@2@@std@@V?$allocator@V?$basic_string@DU?$char_traits@D@std@@V?$allocator@D@2@@std@@@2@@2@@std@@@std@@@std@@QAEXAAV?$allocator@U?$_Tree_node@U?$pair@$$CBV?$basic_string@DU?$char_traits@D@std@@V?$allocator@D@2@@std@@V?$vector@V?$basic_string@DU?$char_traits@D@std@@V?$allocator@D@2@@std@@V?$allocator@V?$basic_string@DU?$char_traits@D@std@@V?$allocator@D@2@@std@@@2@@2@@std@@PAX@std@@@1@PAU?$_Tree_node@U?$pair@$$CBV?$basic_string@DU?$char_traits@D@std@@V?$allocator@D@2@@std@@V?$vector@V?$basic_string@DU?$char_traits@D@std@@V?$allocator@D@2@@std@@V?$allocator@V?$basic_string@DU?$char_traits@D@std@@V?$allocator@D@2@@std@@@2@@2@@std@@PAX@1@@Z ; std::_Tree_val<std::_Tree_simple_types<std::pair<std::basic_string<char,std::char_traits<char>,std::allocator<char> > const ,std::vector<std::basic_string<char,std::char_traits<char>,std::allocator<char> >,std::allocator<std::basic_string<char,std::char_traits<char>,std::allocator<char> > > > > > >::_Erase_tree<std::allocator<std::_Tree_node<std::pair<std::basic_string<char,std::char_traits<char>,std::allocator<char> > const ,std::vector<std::basic_string<char,std::char_traits<char>,std::allocator<char> >,std::allocator<std::basic_string<char,std::char_traits<char>,std::allocator<char> > > > >,void *> > >
; File C:\Program Files (x86)\Microsoft Visual Studio\2019\Professional\VC\Tools\MSVC\14.29.30133\include\xmemory

; 264  :         ::operator delete(_Ptr, _Bytes);

  00ade	6a 34		 push	 52			; 00000034H
  00ae0	ff b5 24 fe ff
	ff		 push	 DWORD PTR _stTokenVectorMap$[ebp]
  00ae6	e8 00 00 00 00	 call	 ??3@YAXPAXI@Z		; operator delete
; File C:\Users\murat\Desktop\Siveps2-1-99-Project\source\client\Client\GameLib\MapOutdoorLoad.cpp

; 449  : 	NANOEND

  00aeb	8a 85 2f fe ff
	ff		 mov	 al, BYTE PTR $T10[ebp]
; File C:\Program Files (x86)\Microsoft Visual Studio\2019\Professional\VC\Tools\MSVC\14.29.30133\include\xmemory

; 264  :         ::operator delete(_Ptr, _Bytes);

  00af1	83 c4 08	 add	 esp, 8
; File C:\Users\murat\Desktop\Siveps2-1-99-Project\source\client\Client\GameLib\MapOutdoorLoad.cpp

; 451  : }

  00af4	8b 4d f4	 mov	 ecx, DWORD PTR __$EHRec$[ebp]
  00af7	64 89 0d 00 00
	00 00		 mov	 DWORD PTR fs:0, ecx
  00afe	59		 pop	 ecx
  00aff	5f		 pop	 edi
  00b00	5e		 pop	 esi
  00b01	5b		 pop	 ebx
  00b02	8b 4d f0	 mov	 ecx, DWORD PTR __$ArrayPad$[ebp]
  00b05	33 cd		 xor	 ecx, ebp
  00b07	e8 00 00 00 00	 call	 @__security_check_cookie@4
  00b0c	8b e5		 mov	 esp, ebp
  00b0e	5d		 pop	 ebp
  00b0f	c2 04 00	 ret	 4
$LN1218@LoadSettin:
; File C:\Program Files (x86)\Microsoft Visual Studio\2019\Professional\VC\Tools\MSVC\14.29.30133\include\xstring

; 4703 :         _Xlen_string();

  00b12	e8 00 00 00 00	 call	 ?_Xlen_string@std@@YAXXZ ; std::_Xlen_string
$LN1215@LoadSettin:
  00b17	cc		 int	 3
_TEXT	ENDS
;	COMDAT text$x
text$x	SEGMENT
__unwindfunclet$?LoadSetting@CMapOutdoor@@QAE_NPBD@Z$0:
  00000	8d 8d 24 fe ff
	ff		 lea	 ecx, DWORD PTR _stTokenVectorMap$[ebp]
  00006	e9 00 00 00 00	 jmp	 ??1?$map@V?$basic_string@DU?$char_traits@D@std@@V?$allocator@D@2@@std@@V?$vector@V?$basic_string@DU?$char_traits@D@std@@V?$allocator@D@2@@std@@V?$allocator@V?$basic_string@DU?$char_traits@D@std@@V?$allocator@D@2@@std@@@2@@2@U?$less@V?$basic_string@DU?$char_traits@D@std@@V?$allocator@D@2@@std@@@2@V?$allocator@U?$pair@$$CBV?$basic_string@DU?$char_traits@D@std@@V?$allocator@D@2@@std@@V?$vector@V?$basic_string@DU?$char_traits@D@std@@V?$allocator@D@2@@std@@V?$allocator@V?$basic_string@DU?$char_traits@D@std@@V?$allocator@D@2@@std@@@2@@2@@std@@@2@@std@@QAE@XZ
__unwindfunclet$?LoadSetting@CMapOutdoor@@QAE_NPBD@Z$8:
  0000b	8d 4d d8	 lea	 ecx, DWORD PTR $T26[ebp]
  0000e	e9 00 00 00 00	 jmp	 ??1?$basic_string@DU?$char_traits@D@std@@V?$allocator@D@2@@std@@QAE@XZ ; std::basic_string<char,std::char_traits<char>,std::allocator<char> >::~basic_string<char,std::char_traits<char>,std::allocator<char> >
__unwindfunclet$?LoadSetting@CMapOutdoor@@QAE_NPBD@Z$9:
  00013	8d 4d d8	 lea	 ecx, DWORD PTR $T25[ebp]
  00016	e9 00 00 00 00	 jmp	 ??1?$basic_string@DU?$char_traits@D@std@@V?$allocator@D@2@@std@@QAE@XZ ; std::basic_string<char,std::char_traits<char>,std::allocator<char> >::~basic_string<char,std::char_traits<char>,std::allocator<char> >
__unwindfunclet$?LoadSetting@CMapOutdoor@@QAE_NPBD@Z$10:
  0001b	8d 8d 60 ff ff
	ff		 lea	 ecx, DWORD PTR $T14[ebp]
  00021	e9 00 00 00 00	 jmp	 ??1?$basic_string@DU?$char_traits@D@std@@V?$allocator@D@2@@std@@QAE@XZ ; std::basic_string<char,std::char_traits<char>,std::allocator<char> >::~basic_string<char,std::char_traits<char>,std::allocator<char> >
__unwindfunclet$?LoadSetting@CMapOutdoor@@QAE_NPBD@Z$11:
  00026	8d 8d 48 ff ff
	ff		 lea	 ecx, DWORD PTR $T13[ebp]
  0002c	e9 00 00 00 00	 jmp	 ??1?$basic_string@DU?$char_traits@D@std@@V?$allocator@D@2@@std@@QAE@XZ ; std::basic_string<char,std::char_traits<char>,std::allocator<char> >::~basic_string<char,std::char_traits<char>,std::allocator<char> >
__unwindfunclet$?LoadSetting@CMapOutdoor@@QAE_NPBD@Z$12:
  00031	8d 8d 30 ff ff
	ff		 lea	 ecx, DWORD PTR $T12[ebp]
  00037	e9 00 00 00 00	 jmp	 ??1?$basic_string@DU?$char_traits@D@std@@V?$allocator@D@2@@std@@QAE@XZ ; std::basic_string<char,std::char_traits<char>,std::allocator<char> >::~basic_string<char,std::char_traits<char>,std::allocator<char> >
__unwindfunclet$?LoadSetting@CMapOutdoor@@QAE_NPBD@Z$13:
  0003c	8d 8d 78 ff ff
	ff		 lea	 ecx, DWORD PTR $T16[ebp]
  00042	e9 00 00 00 00	 jmp	 ??1?$basic_string@DU?$char_traits@D@std@@V?$allocator@D@2@@std@@QAE@XZ ; std::basic_string<char,std::char_traits<char>,std::allocator<char> >::~basic_string<char,std::char_traits<char>,std::allocator<char> >
__unwindfunclet$?LoadSetting@CMapOutdoor@@QAE_NPBD@Z$14:
  00047	8d 4d c0	 lea	 ecx, DWORD PTR _strTextureSet$[ebp]
  0004a	e9 00 00 00 00	 jmp	 ??1?$basic_string@DU?$char_traits@D@std@@V?$allocator@D@2@@std@@QAE@XZ ; std::basic_string<char,std::char_traits<char>,std::allocator<char> >::~basic_string<char,std::char_traits<char>,std::allocator<char> >
__unwindfunclet$?LoadSetting@CMapOutdoor@@QAE_NPBD@Z$15:
  0004f	8d 4d 90	 lea	 ecx, DWORD PTR $T22[ebp]
  00052	e9 00 00 00 00	 jmp	 ??1?$basic_string@DU?$char_traits@D@std@@V?$allocator@D@2@@std@@QAE@XZ ; std::basic_string<char,std::char_traits<char>,std::allocator<char> >::~basic_string<char,std::char_traits<char>,std::allocator<char> >
__unwindfunclet$?LoadSetting@CMapOutdoor@@QAE_NPBD@Z$17:
  00057	8d 4d 90	 lea	 ecx, DWORD PTR $T20[ebp]
  0005a	e9 00 00 00 00	 jmp	 ??1?$basic_string@DU?$char_traits@D@std@@V?$allocator@D@2@@std@@QAE@XZ ; std::basic_string<char,std::char_traits<char>,std::allocator<char> >::~basic_string<char,std::char_traits<char>,std::allocator<char> >
__unwindfunclet$?LoadSetting@CMapOutdoor@@QAE_NPBD@Z$18:
  0005f	8d 8d 78 ff ff
	ff		 lea	 ecx, DWORD PTR $T15[ebp]
  00065	e9 00 00 00 00	 jmp	 ??1?$basic_string@DU?$char_traits@D@std@@V?$allocator@D@2@@std@@QAE@XZ ; std::basic_string<char,std::char_traits<char>,std::allocator<char> >::~basic_string<char,std::char_traits<char>,std::allocator<char> >
__unwindfunclet$?LoadSetting@CMapOutdoor@@QAE_NPBD@Z$19:
  0006a	8d 4d a8	 lea	 ecx, DWORD PTR _stTextureSetFileName$[ebp]
  0006d	e9 00 00 00 00	 jmp	 ??1?$basic_string@DU?$char_traits@D@std@@V?$allocator@D@2@@std@@QAE@XZ ; std::basic_string<char,std::char_traits<char>,std::allocator<char> >::~basic_string<char,std::char_traits<char>,std::allocator<char> >
__unwindfunclet$?LoadSetting@CMapOutdoor@@QAE_NPBD@Z$22:
  00072	8d 4d 90	 lea	 ecx, DWORD PTR $T17[ebp]
  00075	e9 00 00 00 00	 jmp	 ??1?$basic_string@DU?$char_traits@D@std@@V?$allocator@D@2@@std@@QAE@XZ ; std::basic_string<char,std::char_traits<char>,std::allocator<char> >::~basic_string<char,std::char_traits<char>,std::allocator<char> >
  0007a	cc		 int	 3
  0007b	cc		 int	 3
  0007c	cc		 int	 3
  0007d	cc		 int	 3
  0007e	cc		 int	 3
__ehhandler$?LoadSetting@CMapOutdoor@@QAE_NPBD@Z:
  0007f	90		 npad	 1
  00080	90		 npad	 1
  00081	8b 54 24 08	 mov	 edx, DWORD PTR [esp+8]
  00085	8d 42 0c	 lea	 eax, DWORD PTR [edx+12]
  00088	8b 8a 04 fe ff
	ff		 mov	 ecx, DWORD PTR [edx-508]
  0008e	33 c8		 xor	 ecx, eax
  00090	e8 00 00 00 00	 call	 @__security_check_cookie@4
  00095	8b 4a fc	 mov	 ecx, DWORD PTR [edx-4]
  00098	33 c8		 xor	 ecx, eax
  0009a	e8 00 00 00 00	 call	 @__security_check_cookie@4
  0009f	b8 00 00 00 00	 mov	 eax, OFFSET __ehfuncinfo$?LoadSetting@CMapOutdoor@@QAE_NPBD@Z
  000a4	e9 00 00 00 00	 jmp	 ___CxxFrameHandler3
text$x	ENDS
?LoadSetting@CMapOutdoor@@QAE_NPBD@Z ENDP		; CMapOutdoor::LoadSetting
; Function compile flags: /Ogtp
; File C:\Users\murat\Desktop\Siveps2-1-99-Project\source\client\Client\GameLib\MapOutdoorLoad.cpp
; File C:\Program Files (x86)\Microsoft Visual Studio\2019\Professional\VC\Tools\MSVC\14.29.30133\include\xstring
; File C:\Users\murat\Desktop\Siveps2-1-99-Project\source\client\Client\GameLib\MapOutdoorLoad.cpp
; File C:\Program Files (x86)\Microsoft Visual Studio\2019\Professional\VC\Tools\MSVC\14.29.30133\include\xstring
; File C:\Users\murat\Desktop\Siveps2-1-99-Project\source\client\Client\GameLib\MapOutdoorLoad.cpp
; File C:\Program Files (x86)\Microsoft Visual Studio\2019\Professional\VC\Tools\MSVC\14.29.30133\include\xstring
; File C:\Users\murat\Desktop\Siveps2-1-99-Project\source\client\Client\GameLib\MapOutdoorLoad.cpp
; File C:\Program Files (x86)\Microsoft Visual Studio\2019\Professional\VC\Tools\MSVC\14.29.30133\include\xstring
; File C:\Program Files (x86)\Microsoft Visual Studio\2019\Professional\VC\Tools\MSVC\14.29.30133\include\xmemory
; File C:\Program Files (x86)\Microsoft Visual Studio\2019\Professional\VC\Tools\MSVC\14.29.30133\include\xstring
; File C:\Program Files (x86)\Microsoft Visual Studio\2019\Professional\VC\Tools\MSVC\14.29.30133\include\xmemory
; File C:\Program Files (x86)\Microsoft Visual Studio\2019\Professional\VC\Tools\MSVC\14.29.30133\include\xstring
; File C:\Users\murat\Desktop\Siveps2-1-99-Project\source\client\Client\GameLib\MapOutdoorLoad.cpp
; File C:\Program Files (x86)\Microsoft Visual Studio\2019\Professional\VC\Tools\MSVC\14.29.30133\include\xstring
; File C:\Users\murat\Desktop\Siveps2-1-99-Project\source\client\Client\GameLib\MapOutdoorLoad.cpp
; File C:\Program Files (x86)\Microsoft Visual Studio\2019\Professional\VC\Tools\MSVC\14.29.30133\include\xstring
; File C:\Users\murat\Desktop\Siveps2-1-99-Project\source\client\Client\GameLib\MapOutdoorLoad.cpp
; File C:\Users\murat\Desktop\Siveps2-1-99-Project\source\client\Client\GameLib\MapBase.h
; File C:\Program Files (x86)\Microsoft Visual Studio\2019\Professional\VC\Tools\MSVC\14.29.30133\include\xstring
; File C:\Users\murat\Desktop\Siveps2-1-99-Project\source\client\Client\GameLib\MapOutdoorLoad.cpp
; File C:\Program Files (x86)\Microsoft Visual Studio\2019\Professional\VC\Tools\MSVC\14.29.30133\include\xstring
; File C:\Users\murat\Desktop\Siveps2-1-99-Project\source\client\Client\GameLib\MapOutdoorLoad.cpp
; File C:\Program Files (x86)\Microsoft Visual Studio\2019\Professional\VC\Tools\MSVC\14.29.30133\include\xstring
; File C:\Program Files (x86)\Microsoft Visual Studio\2019\Professional\VC\Tools\MSVC\14.29.30133\include\xmemory
; File C:\Program Files (x86)\Microsoft Visual Studio\2019\Professional\VC\Tools\MSVC\14.29.30133\include\xstring
; File C:\Program Files (x86)\Microsoft Visual Studio\2019\Professional\VC\Tools\MSVC\14.29.30133\include\xmemory
; File C:\Program Files (x86)\Microsoft Visual Studio\2019\Professional\VC\Tools\MSVC\14.29.30133\include\xstring
; File C:\Users\murat\Desktop\Siveps2-1-99-Project\source\client\Client\GameLib\MapOutdoorLoad.cpp
; File C:\Program Files (x86)\Microsoft Visual Studio\2019\Professional\VC\Tools\MSVC\14.29.30133\include\xstring
; File C:\Users\murat\Desktop\Siveps2-1-99-Project\source\client\Client\GameLib\MapOutdoorLoad.cpp
; File C:\Program Files (x86)\Microsoft Visual Studio\2019\Professional\VC\Tools\MSVC\14.29.30133\include\xstring
; File C:\Users\murat\Desktop\Siveps2-1-99-Project\source\client\Client\GameLib\MapOutdoorLoad.cpp
; File C:\Program Files (x86)\Microsoft Visual Studio\2019\Professional\VC\Tools\MSVC\14.29.30133\include\xstring
; File C:\Users\murat\Desktop\Siveps2-1-99-Project\source\client\Client\GameLib\MapOutdoorLoad.cpp
; File C:\Program Files (x86)\Microsoft Visual Studio\2019\Professional\VC\Tools\MSVC\14.29.30133\include\xstring
; File C:\Users\murat\Desktop\Siveps2-1-99-Project\source\client\Client\GameLib\MapOutdoorLoad.cpp
; File C:\Program Files (x86)\Microsoft Visual Studio\2019\Professional\VC\Tools\MSVC\14.29.30133\include\xstring
; File C:\Users\murat\Desktop\Siveps2-1-99-Project\source\client\Client\GameLib\MapOutdoorLoad.cpp
; File C:\Program Files (x86)\Microsoft Visual Studio\2019\Professional\VC\Tools\MSVC\14.29.30133\include\xstring
; File C:\Program Files (x86)\Microsoft Visual Studio\2019\Professional\VC\Tools\MSVC\14.29.30133\include\xmemory
; File C:\Program Files (x86)\Microsoft Visual Studio\2019\Professional\VC\Tools\MSVC\14.29.30133\include\xstring
; File C:\Program Files (x86)\Microsoft Visual Studio\2019\Professional\VC\Tools\MSVC\14.29.30133\include\xmemory
; File C:\Program Files (x86)\Microsoft Visual Studio\2019\Professional\VC\Tools\MSVC\14.29.30133\include\xstring
; File C:\Users\murat\Desktop\Siveps2-1-99-Project\source\client\Client\GameLib\MapOutdoorLoad.cpp
; File C:\Program Files (x86)\Microsoft Visual Studio\2019\Professional\VC\Tools\MSVC\14.29.30133\include\xstring
; File C:\Users\murat\Desktop\Siveps2-1-99-Project\source\client\Client\GameLib\MapOutdoorLoad.cpp
; File C:\Program Files (x86)\Microsoft Visual Studio\2019\Professional\VC\Tools\MSVC\14.29.30133\include\xstring
; File C:\Users\murat\Desktop\Siveps2-1-99-Project\source\client\Client\GameLib\MapOutdoorLoad.cpp
; File C:\Program Files (x86)\Microsoft Visual Studio\2019\Professional\VC\Tools\MSVC\14.29.30133\include\xstring
; File C:\Users\murat\Desktop\Siveps2-1-99-Project\source\client\Client\GameLib\MapOutdoorLoad.cpp
; File C:\Program Files (x86)\Microsoft Visual Studio\2019\Professional\VC\Tools\MSVC\14.29.30133\include\xstring
; File C:\Users\murat\Desktop\Siveps2-1-99-Project\source\client\Client\GameLib\MapOutdoorLoad.cpp
; File C:\Program Files (x86)\Microsoft Visual Studio\2019\Professional\VC\Tools\MSVC\14.29.30133\include\xstring
; File C:\Users\murat\Desktop\Siveps2-1-99-Project\source\client\Client\GameLib\MapOutdoorLoad.cpp
; File C:\Program Files (x86)\Microsoft Visual Studio\2019\Professional\VC\Tools\MSVC\14.29.30133\include\xstring
; File C:\Users\murat\Desktop\Siveps2-1-99-Project\source\client\Client\GameLib\MapOutdoorLoad.cpp
; File C:\Program Files (x86)\Microsoft Visual Studio\2019\Professional\VC\Tools\MSVC\14.29.30133\include\xstring
; File C:\Program Files (x86)\Microsoft Visual Studio\2019\Professional\VC\Tools\MSVC\14.29.30133\include\xmemory
; File C:\Program Files (x86)\Microsoft Visual Studio\2019\Professional\VC\Tools\MSVC\14.29.30133\include\xstring
; File C:\Program Files (x86)\Microsoft Visual Studio\2019\Professional\VC\Tools\MSVC\14.29.30133\include\xmemory
; File C:\Users\murat\Desktop\Siveps2-1-99-Project\source\client\Client\GameLib\MapOutdoorLoad.cpp
; File C:\Program Files (x86)\Microsoft Visual Studio\2019\Professional\VC\Tools\MSVC\14.29.30133\include\xstring
; File C:\Program Files (x86)\Microsoft Visual Studio\2019\Professional\VC\Tools\MSVC\14.29.30133\include\xmemory
; File C:\Program Files (x86)\Microsoft Visual Studio\2019\Professional\VC\Tools\MSVC\14.29.30133\include\xstring
; File C:\Program Files (x86)\Microsoft Visual Studio\2019\Professional\VC\Tools\MSVC\14.29.30133\include\xmemory
; File C:\Program Files (x86)\Microsoft Visual Studio\2019\Professional\VC\Tools\MSVC\14.29.30133\include\xstring
; File C:\Program Files (x86)\Microsoft Visual Studio\2019\Professional\VC\Tools\MSVC\14.29.30133\include\xmemory
; File C:\Program Files (x86)\Microsoft Visual Studio\2019\Professional\VC\Tools\MSVC\14.29.30133\include\xstring
; File C:\Program Files (x86)\Microsoft Visual Studio\2019\Professional\VC\Tools\MSVC\14.29.30133\include\xmemory
; File C:\Program Files (x86)\Microsoft Visual Studio\2019\Professional\VC\Tools\MSVC\14.29.30133\include\xstring
; File C:\Program Files (x86)\Microsoft Visual Studio\2019\Professional\VC\Tools\MSVC\14.29.30133\include\xmemory
; File C:\Program Files (x86)\Microsoft Visual Studio\2019\Professional\VC\Tools\MSVC\14.29.30133\include\xstring
; File C:\Program Files (x86)\Microsoft Visual Studio\2019\Professional\VC\Tools\MSVC\14.29.30133\include\xmemory
; File C:\Program Files (x86)\Microsoft Visual Studio\2019\Professional\VC\Tools\MSVC\14.29.30133\include\xstring
; File C:\Program Files (x86)\Microsoft Visual Studio\2019\Professional\VC\Tools\MSVC\14.29.30133\include\xmemory
; File C:\Users\murat\Desktop\Siveps2-1-99-Project\source\client\Client\GameLib\MapOutdoorLoad.cpp
; File C:\Program Files (x86)\Microsoft Visual Studio\2019\Professional\VC\Tools\MSVC\14.29.30133\include\xmemory
; File C:\Program Files (x86)\Microsoft Visual Studio\2019\Professional\VC\Tools\MSVC\14.29.30133\include\xstring
; File C:\Program Files (x86)\Microsoft Visual Studio\2019\Professional\VC\Tools\MSVC\14.29.30133\include\xmemory
; File C:\Users\murat\Desktop\Siveps2-1-99-Project\source\client\Client\GameLib\MapOutdoorLoad.cpp
;	COMDAT ?Load@CMapOutdoor@@UAE_NMMM@Z
_TEXT	SEGMENT
_this$1$ = -164						; size = 4
_rkPackMgr$1$ = -164					; size = 4
$T2 = -164						; size = 1
$T3 = -164						; size = 1
$T4 = -164						; size = 1
$T5 = -164						; size = 1
$T6 = -164						; size = 1
$T7 = -160						; size = 24
$T8 = -136						; size = 24
$T9 = -136						; size = 24
_strFileName$ = -112					; size = 24
_local_envDataName$ = -88				; size = 24
_$S1$10 = -64						; size = 24
_$S2$11 = -40						; size = 24
$T12 = -40						; size = 24
_c_rstrNewPathName$13 = -40				; size = 24
__$ArrayPad$ = -16					; size = 4
__$EHRec$ = -12						; size = 12
_x$ = 8							; size = 4
_y$ = 12						; size = 4
_z$ = 16						; size = 4
?Load@CMapOutdoor@@UAE_NMMM@Z PROC			; CMapOutdoor::Load, COMDAT
; _this$ = ecx

; 12   : {

  00000	55		 push	 ebp
  00001	8b ec		 mov	 ebp, esp
  00003	6a ff		 push	 -1
  00005	68 00 00 00 00	 push	 __ehhandler$?Load@CMapOutdoor@@UAE_NMMM@Z
  0000a	64 a1 00 00 00
	00		 mov	 eax, DWORD PTR fs:0
  00010	50		 push	 eax
  00011	81 ec 98 00 00
	00		 sub	 esp, 152		; 00000098H
  00017	a1 00 00 00 00	 mov	 eax, DWORD PTR ___security_cookie
  0001c	33 c5		 xor	 eax, ebp
  0001e	89 45 f0	 mov	 DWORD PTR __$ArrayPad$[ebp], eax
  00021	56		 push	 esi
  00022	57		 push	 edi
  00023	50		 push	 eax
  00024	8d 45 f4	 lea	 eax, DWORD PTR __$EHRec$[ebp]
  00027	64 a3 00 00 00
	00		 mov	 DWORD PTR fs:0, eax
  0002d	8b f1		 mov	 esi, ecx

; 13   : 	Destroy();

  0002f	8b 06		 mov	 eax, DWORD PTR [esi]
  00031	ff 50 0c	 call	 DWORD PTR [eax+12]

; 14   : 
; 15   : 	CEterPackManager& rkPackMgr=CEterPackManager::Instance();

  00034	a1 00 00 00 00	 mov	 eax, DWORD PTR ?ms_singleton@?$CSingleton@VCEterPackManager@@@@0PAVCEterPackManager@@A ; CSingleton<CEterPackManager>::ms_singleton

; 16   : 	{
; 17   : 		static std::string s_strOldPathName="";

  00039	8b 0d 00 00 00
	00		 mov	 ecx, DWORD PTR __tls_index
  0003f	89 85 5c ff ff
	ff		 mov	 DWORD PTR _rkPackMgr$1$[ebp], eax
  00045	64 a1 00 00 00
	00		 mov	 eax, DWORD PTR fs:__tls_array
  0004b	8b 0c 88	 mov	 ecx, DWORD PTR [eax+ecx*4]
  0004e	a1 00 00 00 00	 mov	 eax, DWORD PTR ?$TSS0@?2??Load@CMapOutdoor@@UAE_NMMM@Z@4HA
  00053	3b 81 00 00 00
	00		 cmp	 eax, DWORD PTR __Init_thread_epoch[ecx]
  00059	0f 8f ad 05 00
	00		 jg	 $LN631@Load
$LN2@Load:
; File C:\Program Files (x86)\Microsoft Visual Studio\2019\Professional\VC\Tools\MSVC\14.29.30133\include\xstring

; 4724 :     const auto _Left_size  = _Left.size();

  0005f	8b 4e 18	 mov	 ecx, DWORD PTR [esi+24]
; File C:\Users\murat\Desktop\Siveps2-1-99-Project\source\client\Client\GameLib\MapOutdoorLoad.cpp

; 20   : 		std::string c_rstrNewPathName=GetName()+"\\cache";

  00062	8d 7e 08	 lea	 edi, DWORD PTR [esi+8]
; File C:\Program Files (x86)\Microsoft Visual Studio\2019\Professional\VC\Tools\MSVC\14.29.30133\include\xstring

; 4726 :     if (_Left.max_size() - _Left_size < _Right_size) {

  00065	b8 ff ff ff 7f	 mov	 eax, 2147483647		; 7fffffffH
  0006a	2b c1		 sub	 eax, ecx
  0006c	83 f8 06	 cmp	 eax, 6
  0006f	0f 82 d4 05 00
	00		 jb	 $LN626@Load

; 2306 :         if (_Large_string_engaged()) {

  00075	83 7f 14 10	 cmp	 DWORD PTR [edi+20], 16	; 00000010H
  00079	8b c7		 mov	 eax, edi
  0007b	72 02		 jb	 SHORT $LN101@Load

; 2307 :             _Result = _Unfancy(_Bx._Ptr);

  0007d	8b 07		 mov	 eax, DWORD PTR [edi]
$LN101@Load:

; 4730 :     return {_String_constructor_concat_tag{}, _Left, _Left.c_str(), _Left_size, _Right, _Right_size};

  0007f	6a 06		 push	 6
  00081	68 00 00 00 00	 push	 OFFSET ??_C@_06NLAJNNNM@?2cache@
  00086	51		 push	 ecx
  00087	50		 push	 eax
  00088	57		 push	 edi
  00089	ff b5 5c ff ff
	ff		 push	 DWORD PTR $T6[ebp]
  0008f	8d 4d d8	 lea	 ecx, DWORD PTR _c_rstrNewPathName$13[ebp]
  00092	e8 00 00 00 00	 call	 ??0?$basic_string@DU?$char_traits@D@std@@V?$allocator@D@2@@std@@QAE@U_String_constructor_concat_tag@1@ABV01@QBDI2I@Z ; std::basic_string<char,std::char_traits<char>,std::allocator<char> >::basic_string<char,std::char_traits<char>,std::allocator<char> >

; 2306 :         if (_Large_string_engaged()) {

  00097	83 7d ec 10	 cmp	 DWORD PTR _c_rstrNewPathName$13[ebp+20], 16 ; 00000010H
  0009b	8d 45 d8	 lea	 eax, DWORD PTR _c_rstrNewPathName$13[ebp]

; 3035 :         assign(_Right._Mypair._Myval2._Myptr(), _Right._Mypair._Myval2._Mysize);

  0009e	ff 75 e8	 push	 DWORD PTR _c_rstrNewPathName$13[ebp+16]

; 2306 :         if (_Large_string_engaged()) {

  000a1	0f 43 45 d8	 cmovae	 eax, DWORD PTR _c_rstrNewPathName$13[ebp]

; 3035 :         assign(_Right._Mypair._Myval2._Myptr(), _Right._Mypair._Myval2._Mysize);

  000a5	b9 00 00 00 00	 mov	 ecx, OFFSET ?s_strOldPathName@?2??Load@CMapOutdoor@@UAE_NMMM@Z@4V?$basic_string@DU?$char_traits@D@std@@V?$allocator@D@2@@std@@A
  000aa	50		 push	 eax
; File C:\Users\murat\Desktop\Siveps2-1-99-Project\source\client\Client\GameLib\MapOutdoorLoad.cpp

; 20   : 		std::string c_rstrNewPathName=GetName()+"\\cache";

  000ab	c7 45 fc 01 00
	00 00		 mov	 DWORD PTR __$EHRec$[ebp+8], 1
; File C:\Program Files (x86)\Microsoft Visual Studio\2019\Professional\VC\Tools\MSVC\14.29.30133\include\xstring

; 3035 :         assign(_Right._Mypair._Myval2._Myptr(), _Right._Mypair._Myval2._Mysize);

  000b2	e8 00 00 00 00	 call	 ?assign@?$basic_string@DU?$char_traits@D@std@@V?$allocator@D@2@@std@@QAEAAV12@QBDI@Z ; std::basic_string<char,std::char_traits<char>,std::allocator<char> >::assign

; 4618 :         if (_Mypair._Myval2._Large_string_engaged()) {

  000b7	8b 55 ec	 mov	 edx, DWORD PTR _c_rstrNewPathName$13[ebp+20]
; File C:\Users\murat\Desktop\Siveps2-1-99-Project\source\client\Client\GameLib\MapOutdoorLoad.cpp

; 23   : 	}

  000ba	c7 45 fc ff ff
	ff ff		 mov	 DWORD PTR __$EHRec$[ebp+8], -1
; File C:\Program Files (x86)\Microsoft Visual Studio\2019\Professional\VC\Tools\MSVC\14.29.30133\include\xstring

; 4618 :         if (_Mypair._Myval2._Large_string_engaged()) {

  000c1	83 fa 10	 cmp	 edx, 16			; 00000010H
  000c4	72 2c		 jb	 SHORT $LN127@Load
; File C:\Program Files (x86)\Microsoft Visual Studio\2019\Professional\VC\Tools\MSVC\14.29.30133\include\xmemory

; 835  :         _Deallocate<_New_alignof<_Ty>>(_Ptr, sizeof(_Ty) * _Count);

  000c6	8b 4d d8	 mov	 ecx, DWORD PTR _c_rstrNewPathName$13[ebp]
; File C:\Program Files (x86)\Microsoft Visual Studio\2019\Professional\VC\Tools\MSVC\14.29.30133\include\xstring

; 4622 :             _Al.deallocate(_Ptr, _Mypair._Myval2._Myres + 1);

  000c9	42		 inc	 edx
; File C:\Program Files (x86)\Microsoft Visual Studio\2019\Professional\VC\Tools\MSVC\14.29.30133\include\xmemory

; 835  :         _Deallocate<_New_alignof<_Ty>>(_Ptr, sizeof(_Ty) * _Count);

  000ca	8b c1		 mov	 eax, ecx

; 260  :         if (_Bytes >= _Big_allocation_threshold) { // boost the alignment of big allocations to help autovectorization

  000cc	81 fa 00 10 00
	00		 cmp	 edx, 4096		; 00001000H
  000d2	72 14		 jb	 SHORT $LN137@Load

; 158  :     const uintptr_t _Ptr_container   = _Ptr_user[-1];

  000d4	8b 49 fc	 mov	 ecx, DWORD PTR [ecx-4]
  000d7	83 c2 23	 add	 edx, 35			; 00000023H
  000da	2b c1		 sub	 eax, ecx

; 172  :     _STL_VERIFY(_Back_shift >= _Min_back_shift && _Back_shift <= _Non_user_size, "invalid argument");

  000dc	83 c0 fc	 add	 eax, -4			; fffffffcH
  000df	83 f8 1f	 cmp	 eax, 31			; 0000001fH
  000e2	0f 87 7f 05 00
	00		 ja	 $LN616@Load
$LN137@Load:

; 264  :         ::operator delete(_Ptr, _Bytes);

  000e8	52		 push	 edx
  000e9	51		 push	 ecx
  000ea	e8 00 00 00 00	 call	 ??3@YAXPAXI@Z		; operator delete
  000ef	83 c4 08	 add	 esp, 8
$LN127@Load:
; File C:\Program Files (x86)\Microsoft Visual Studio\2019\Professional\VC\Tools\MSVC\14.29.30133\include\xstring

; 4724 :     const auto _Left_size  = _Left.size();

  000f2	33 c0		 xor	 eax, eax
  000f4	3b 46 30	 cmp	 eax, DWORD PTR [esi+48]

; 4726 :     if (_Left.max_size() - _Left_size < _Right_size) {

  000f7	b8 ff ff ff 7f	 mov	 eax, 2147483647		; 7fffffffH
  000fc	1b c9		 sbb	 ecx, ecx
  000fe	83 e1 18	 and	 ecx, 24			; 00000018H
  00101	83 c1 08	 add	 ecx, 8
  00104	03 ce		 add	 ecx, esi
  00106	8b 51 10	 mov	 edx, DWORD PTR [ecx+16]
  00109	2b c2		 sub	 eax, edx
  0010b	83 f8 0c	 cmp	 eax, 12			; 0000000cH
  0010e	0f 82 35 05 00
	00		 jb	 $LN626@Load

; 2306 :         if (_Large_string_engaged()) {

  00114	83 79 14 10	 cmp	 DWORD PTR [ecx+20], 16	; 00000010H
  00118	8b c1		 mov	 eax, ecx
  0011a	72 02		 jb	 SHORT $LN158@Load

; 2307 :             _Result = _Unfancy(_Bx._Ptr);

  0011c	8b 01		 mov	 eax, DWORD PTR [ecx]
$LN158@Load:

; 4730 :     return {_String_constructor_concat_tag{}, _Left, _Left.c_str(), _Left_size, _Right, _Right_size};

  0011e	6a 0c		 push	 12			; 0000000cH
  00120	68 00 00 00 00	 push	 OFFSET ??_C@_0N@NBPBKCDE@?2Setting?4txt@
  00125	52		 push	 edx
  00126	50		 push	 eax
  00127	51		 push	 ecx
  00128	ff b5 5c ff ff
	ff		 push	 DWORD PTR $T5[ebp]
  0012e	8d 4d 90	 lea	 ecx, DWORD PTR _strFileName$[ebp]
  00131	e8 00 00 00 00	 call	 ??0?$basic_string@DU?$char_traits@D@std@@V?$allocator@D@2@@std@@QAE@U_String_constructor_concat_tag@1@ABV01@QBDI2I@Z ; std::basic_string<char,std::char_traits<char>,std::allocator<char> >::basic_string<char,std::char_traits<char>,std::allocator<char> >

; 2306 :         if (_Large_string_engaged()) {

  00136	83 7d a4 10	 cmp	 DWORD PTR _strFileName$[ebp+20], 16 ; 00000010H
  0013a	8d 45 90	 lea	 eax, DWORD PTR _strFileName$[ebp]
; File C:\Users\murat\Desktop\Siveps2-1-99-Project\source\client\Client\GameLib\MapOutdoorLoad.cpp

; 27   : 	if (!LoadSetting(strFileName.c_str()))

  0013d	8b ce		 mov	 ecx, esi
  0013f	c7 45 fc 02 00
	00 00		 mov	 DWORD PTR __$EHRec$[ebp+8], 2
; File C:\Program Files (x86)\Microsoft Visual Studio\2019\Professional\VC\Tools\MSVC\14.29.30133\include\xstring

; 2306 :         if (_Large_string_engaged()) {

  00146	0f 43 45 90	 cmovae	 eax, DWORD PTR _strFileName$[ebp]
; File C:\Users\murat\Desktop\Siveps2-1-99-Project\source\client\Client\GameLib\MapOutdoorLoad.cpp

; 27   : 	if (!LoadSetting(strFileName.c_str()))

  0014a	50		 push	 eax
  0014b	e8 00 00 00 00	 call	 ?LoadSetting@CMapOutdoor@@QAE_NPBD@Z ; CMapOutdoor::LoadSetting
  00150	84 c0		 test	 al, al
  00152	75 19		 jne	 SHORT $LN3@Load
; File C:\Program Files (x86)\Microsoft Visual Studio\2019\Professional\VC\Tools\MSVC\14.29.30133\include\xstring

; 2306 :         if (_Large_string_engaged()) {

  00154	83 7d a4 10	 cmp	 DWORD PTR _strFileName$[ebp+20], 16 ; 00000010H
  00158	8d 45 90	 lea	 eax, DWORD PTR _strFileName$[ebp]
  0015b	0f 43 45 90	 cmovae	 eax, DWORD PTR _strFileName$[ebp]
; File C:\Users\murat\Desktop\Siveps2-1-99-Project\source\client\Client\GameLib\MapOutdoorLoad.cpp

; 29   : 		TraceError("CMapOutdoor::Load : LoadSetting(%s) Failed", strFileName.c_str());

  0015f	50		 push	 eax
  00160	68 00 00 00 00	 push	 OFFSET ??_C@_0CL@PFEFOJBM@CMapOutdoor?3?3Load?5?3?5LoadSetting@
  00165	e8 00 00 00 00	 call	 ?TraceError@@YAXPBDZZ	; TraceError
  0016a	83 c4 08	 add	 esp, 8
$LN3@Load:

; 30   : 	}
; 31   : 
; 32   : #ifdef WORLD_EDITOR // @fixme015
; 33   : 	if (!LoadMonsterAreaInfo())
; 34   : 		TraceError("CMapOutdoor::Load - LoadMonsterAreaInfo ERROR");
; 35   : #endif
; 36   : 
; 37   : 	CreateTerrainPatchProxyList();

  0016d	8b ce		 mov	 ecx, esi
  0016f	e8 00 00 00 00	 call	 ?CreateTerrainPatchProxyList@CMapOutdoor@@IAEXXZ ; CMapOutdoor::CreateTerrainPatchProxyList

; 38   : 	BuildQuadTree();

  00174	8b ce		 mov	 ecx, esi
  00176	e8 00 00 00 00	 call	 ?BuildQuadTree@CMapOutdoor@@IAEXXZ ; CMapOutdoor::BuildQuadTree

; 39   : 	LoadWaterTexture();

  0017b	8b ce		 mov	 ecx, esi
  0017d	e8 00 00 00 00	 call	 ?LoadWaterTexture@CMapOutdoor@@IAEXXZ ; CMapOutdoor::LoadWaterTexture

; 40   : 	CreateCharacterShadowTexture();

  00182	8b ce		 mov	 ecx, esi
  00184	e8 00 00 00 00	 call	 ?CreateCharacterShadowTexture@CMapOutdoor@@QAEXXZ ; CMapOutdoor::CreateCharacterShadowTexture

; 41   : 
; 42   : 	m_lOldReadX = -1;

  00189	c7 86 0c 01 00
	00 ff ff ff ff	 mov	 DWORD PTR [esi+268], -1

; 43   : 
; 44   : 	// TODO: SetRenderingDevice Environment        .
; 45   : 	CSpeedTreeForestDirectX8::Instance().SetRenderingDevice(ms_lpd3dDevice);

  00193	ff 35 00 00 00
	00		 push	 DWORD PTR ?ms_lpd3dDevice@CGraphicBase@@1PAUIDirect3DDevice8@@A ; CGraphicBase::ms_lpd3dDevice
  00199	8b 0d 00 00 00
	00		 mov	 ecx, DWORD PTR ?ms_singleton@?$CSingleton@VCSpeedTreeForestDirectX8@@@@0PAVCSpeedTreeForestDirectX8@@A ; CSingleton<CSpeedTreeForestDirectX8>::ms_singleton
  0019f	e8 00 00 00 00	 call	 ?SetRenderingDevice@CSpeedTreeForestDirectX8@@QAE_NPAUIDirect3DDevice8@@@Z ; CSpeedTreeForestDirectX8::SetRenderingDevice

; 46   : 
; 47   : 	Update(x, y, z);

  001a4	f3 0f 10 45 10	 movss	 xmm0, DWORD PTR _z$[ebp]
  001a9	83 ec 0c	 sub	 esp, 12			; 0000000cH
  001ac	8b 06		 mov	 eax, DWORD PTR [esi]
  001ae	8b ce		 mov	 ecx, esi
  001b0	f3 0f 11 44 24
	08		 movss	 DWORD PTR [esp+8], xmm0
  001b6	f3 0f 10 45 0c	 movss	 xmm0, DWORD PTR _y$[ebp]
  001bb	f3 0f 11 44 24
	04		 movss	 DWORD PTR [esp+4], xmm0
  001c1	f3 0f 10 45 08	 movss	 xmm0, DWORD PTR _x$[ebp]
  001c6	f3 0f 11 04 24	 movss	 DWORD PTR [esp], xmm0
  001cb	ff 50 14	 call	 DWORD PTR [eax+20]

; 48   : 
; 49   : 	__HeightCache_Init();

  001ce	8b ce		 mov	 ecx, esi
  001d0	e8 00 00 00 00	 call	 ?__HeightCache_Init@CMapOutdoor@@AAEXXZ ; CMapOutdoor::__HeightCache_Init
; File C:\Users\murat\Desktop\Siveps2-1-99-Project\source\client\Client\GameLib\MapBase.h

; 53   : 		bool IsCopiedMap() const { return m_strParentMapName.length() > 0; }		// "   "  ?

  001d5	83 7e 30 00	 cmp	 DWORD PTR [esi+48], 0

; 55   : 		const std::string& GetMapDataDirectory() const { return IsCopiedMap() ? m_strParentMapName : m_strName; }

  001d9	8d 4e 20	 lea	 ecx, DWORD PTR [esi+32]
  001dc	77 02		 ja	 SHORT $LN179@Load
  001de	8b cf		 mov	 ecx, edi
$LN179@Load:
; File C:\Program Files (x86)\Microsoft Visual Studio\2019\Professional\VC\Tools\MSVC\14.29.30133\include\xstring

; 4724 :     const auto _Left_size  = _Left.size();

  001e0	8b 51 10	 mov	 edx, DWORD PTR [ecx+16]

; 4726 :     if (_Left.max_size() - _Left_size < _Right_size) {

  001e3	b8 ff ff ff 7f	 mov	 eax, 2147483647		; 7fffffffH
  001e8	2b c2		 sub	 eax, edx
  001ea	83 f8 01	 cmp	 eax, 1
  001ed	0f 82 56 04 00
	00		 jb	 $LN626@Load

; 2306 :         if (_Large_string_engaged()) {

  001f3	83 79 14 10	 cmp	 DWORD PTR [ecx+20], 16	; 00000010H
  001f7	8b c1		 mov	 eax, ecx
  001f9	72 02		 jb	 SHORT $LN192@Load

; 2307 :             _Result = _Unfancy(_Bx._Ptr);

  001fb	8b 01		 mov	 eax, DWORD PTR [ecx]
$LN192@Load:

; 4730 :     return {_String_constructor_concat_tag{}, _Left, _Left.c_str(), _Left_size, _Right, _Right_size};

  001fd	6a 01		 push	 1
  001ff	68 00 00 00 00	 push	 OFFSET ??_C@_01KICIPPFI@?2@
  00204	52		 push	 edx
  00205	50		 push	 eax
  00206	51		 push	 ecx
  00207	ff b5 5c ff ff
	ff		 push	 DWORD PTR $T4[ebp]
  0020d	8d 4d d8	 lea	 ecx, DWORD PTR $T12[ebp]
  00210	e8 00 00 00 00	 call	 ??0?$basic_string@DU?$char_traits@D@std@@V?$allocator@D@2@@std@@QAE@U_String_constructor_concat_tag@1@ABV01@QBDI2I@Z ; std::basic_string<char,std::char_traits<char>,std::allocator<char> >::basic_string<char,std::char_traits<char>,std::allocator<char> >

; 2306 :         if (_Large_string_engaged()) {

  00215	83 be 90 13 00
	00 10		 cmp	 DWORD PTR [esi+5008], 16 ; 00000010H
  0021c	8d 8e 7c 13 00
	00		 lea	 ecx, DWORD PTR [esi+4988]
; File C:\Users\murat\Desktop\Siveps2-1-99-Project\source\client\Client\GameLib\MapOutdoorLoad.cpp

; 52   : 	std::string local_envDataName = GetMapDataDirectory() + "\\" + m_settings_envDataName;

  00222	c6 45 fc 03	 mov	 BYTE PTR __$EHRec$[ebp+8], 3
; File C:\Program Files (x86)\Microsoft Visual Studio\2019\Professional\VC\Tools\MSVC\14.29.30133\include\xstring

; 2306 :         if (_Large_string_engaged()) {

  00226	72 06		 jb	 SHORT $LN625@Load

; 2307 :             _Result = _Unfancy(_Bx._Ptr);

  00228	8b 8e 7c 13 00
	00		 mov	 ecx, DWORD PTR [esi+4988]
$LN625@Load:

; 3124 :         return append(_Right._Mypair._Myval2._Myptr(), _Right._Mypair._Myval2._Mysize);

  0022e	ff b6 8c 13 00
	00		 push	 DWORD PTR [esi+5004]
  00234	51		 push	 ecx
  00235	8d 4d d8	 lea	 ecx, DWORD PTR $T12[ebp]
  00238	e8 00 00 00 00	 call	 ?append@?$basic_string@DU?$char_traits@D@std@@V?$allocator@D@2@@std@@QAEAAV12@QBDI@Z ; std::basic_string<char,std::char_traits<char>,std::allocator<char> >::append

; 2346 :         _CONSTEXPR20_CONTAINER _Bxty() noexcept : _Ptr() {} // user-provided, for fancy pointers

  0023d	c7 45 a8 00 00
	00 00		 mov	 DWORD PTR _local_envDataName$[ebp], 0

; 2355 :     size_type _Mysize = 0; // current length of string

  00244	c7 45 b8 00 00
	00 00		 mov	 DWORD PTR _local_envDataName$[ebp+16], 0

; 2356 :     size_type _Myres  = 0; // current storage reserved for string

  0024b	c7 45 bc 00 00
	00 00		 mov	 DWORD PTR _local_envDataName$[ebp+20], 0

; 2869 :         _CSTD memcpy(_My_data_mem, _Right_data_mem, _Memcpy_val_size);

  00252	0f 10 00	 movups	 xmm0, XMMWORD PTR [eax]
  00255	0f 11 45 a8	 movups	 XMMWORD PTR _local_envDataName$[ebp], xmm0
  00259	f3 0f 7e 40 10	 movq	 xmm0, QWORD PTR [eax+16]
  0025e	66 0f d6 45 b8	 movq	 QWORD PTR _local_envDataName$[ebp+16], xmm0

; 4596 :         _My_data._Mysize = 0;

  00263	c7 40 10 00 00
	00 00		 mov	 DWORD PTR [eax+16], 0

; 4597 : 
; 4598 : #ifdef __cpp_lib_constexpr_string
; 4599 :         if (_STD is_constant_evaluated()) {
; 4600 :             _My_data._Myres        = _BUF_SIZE; // SSO disabled in constexpr context
; 4601 :             auto& _Al              = _Getal();
; 4602 :             const pointer _New_ptr = _Al.allocate(_BUF_SIZE + 1); // throws
; 4603 :             _My_data._Bx._Ptr      = _New_ptr;
; 4604 : 
; 4605 :             _Elem* const _Raw_new = _Unfancy(_New_ptr);
; 4606 :             _Traits::assign(_Raw_new, _BUF_SIZE + 1, _Elem());
; 4607 :         } else
; 4608 : #endif // __cpp_lib_constexpr_string
; 4609 :         {
; 4610 :             _My_data._Myres = _BUF_SIZE - 1;

  0026a	c7 40 14 0f 00
	00 00		 mov	 DWORD PTR [eax+20], 15	; 0000000fH

; 4612 :             _Traits::assign(_My_data._Bx._Buf[0], _Elem());

  00271	c6 00 00	 mov	 BYTE PTR [eax], 0

; 4618 :         if (_Mypair._Myval2._Large_string_engaged()) {

  00274	8b 55 ec	 mov	 edx, DWORD PTR $T12[ebp+20]
; File C:\Users\murat\Desktop\Siveps2-1-99-Project\source\client\Client\GameLib\MapOutdoorLoad.cpp

; 52   : 	std::string local_envDataName = GetMapDataDirectory() + "\\" + m_settings_envDataName;

  00277	c6 45 fc 05	 mov	 BYTE PTR __$EHRec$[ebp+8], 5
; File C:\Program Files (x86)\Microsoft Visual Studio\2019\Professional\VC\Tools\MSVC\14.29.30133\include\xstring

; 4618 :         if (_Mypair._Myval2._Large_string_engaged()) {

  0027b	83 fa 10	 cmp	 edx, 16			; 00000010H
  0027e	72 2c		 jb	 SHORT $LN244@Load
; File C:\Program Files (x86)\Microsoft Visual Studio\2019\Professional\VC\Tools\MSVC\14.29.30133\include\xmemory

; 835  :         _Deallocate<_New_alignof<_Ty>>(_Ptr, sizeof(_Ty) * _Count);

  00280	8b 4d d8	 mov	 ecx, DWORD PTR $T12[ebp]
; File C:\Program Files (x86)\Microsoft Visual Studio\2019\Professional\VC\Tools\MSVC\14.29.30133\include\xstring

; 4622 :             _Al.deallocate(_Ptr, _Mypair._Myval2._Myres + 1);

  00283	42		 inc	 edx
; File C:\Program Files (x86)\Microsoft Visual Studio\2019\Professional\VC\Tools\MSVC\14.29.30133\include\xmemory

; 835  :         _Deallocate<_New_alignof<_Ty>>(_Ptr, sizeof(_Ty) * _Count);

  00284	8b c1		 mov	 eax, ecx

; 260  :         if (_Bytes >= _Big_allocation_threshold) { // boost the alignment of big allocations to help autovectorization

  00286	81 fa 00 10 00
	00		 cmp	 edx, 4096		; 00001000H
  0028c	72 14		 jb	 SHORT $LN254@Load

; 158  :     const uintptr_t _Ptr_container   = _Ptr_user[-1];

  0028e	8b 49 fc	 mov	 ecx, DWORD PTR [ecx-4]
  00291	83 c2 23	 add	 edx, 35			; 00000023H
  00294	2b c1		 sub	 eax, ecx

; 172  :     _STL_VERIFY(_Back_shift >= _Min_back_shift && _Back_shift <= _Non_user_size, "invalid argument");

  00296	83 c0 fc	 add	 eax, -4			; fffffffcH
  00299	83 f8 1f	 cmp	 eax, 31			; 0000001fH
  0029c	0f 87 ac 03 00
	00		 ja	 $LN632@Load
$LN254@Load:

; 264  :         ::operator delete(_Ptr, _Bytes);

  002a2	52		 push	 edx
  002a3	51		 push	 ecx
  002a4	e8 00 00 00 00	 call	 ??3@YAXPAXI@Z		; operator delete
  002a9	83 c4 08	 add	 esp, 8
$LN244@Load:
; File C:\Program Files (x86)\Microsoft Visual Studio\2019\Professional\VC\Tools\MSVC\14.29.30133\include\xstring

; 2306 :         if (_Large_string_engaged()) {

  002ac	83 7d bc 10	 cmp	 DWORD PTR _local_envDataName$[ebp+20], 16 ; 00000010H
  002b0	8d 45 a8	 lea	 eax, DWORD PTR _local_envDataName$[ebp]
; File C:\Users\murat\Desktop\Siveps2-1-99-Project\source\client\Client\GameLib\MapOutdoorLoad.cpp

; 53   : 	if (rkPackMgr.isExist(local_envDataName.c_str()))

  002b3	8b 8d 5c ff ff
	ff		 mov	 ecx, DWORD PTR _rkPackMgr$1$[ebp]
; File C:\Program Files (x86)\Microsoft Visual Studio\2019\Professional\VC\Tools\MSVC\14.29.30133\include\xstring

; 2306 :         if (_Large_string_engaged()) {

  002b9	0f 43 45 a8	 cmovae	 eax, DWORD PTR _local_envDataName$[ebp]
; File C:\Users\murat\Desktop\Siveps2-1-99-Project\source\client\Client\GameLib\MapOutdoorLoad.cpp

; 53   : 	if (rkPackMgr.isExist(local_envDataName.c_str()))

  002bd	50		 push	 eax
; File C:\Program Files (x86)\Microsoft Visual Studio\2019\Professional\VC\Tools\MSVC\14.29.30133\include\xstring

; 4633 :             _Mypair._Myval2._Mysize = 0;

  002be	c7 45 e8 00 00
	00 00		 mov	 DWORD PTR $T12[ebp+16], 0

; 4634 :             _Mypair._Myval2._Myres  = _BUF_SIZE - 1;

  002c5	c7 45 ec 0f 00
	00 00		 mov	 DWORD PTR $T12[ebp+20], 15 ; 0000000fH

; 4635 :             // the _Traits::assign is last so the codegen doesn't think the char write can alias this
; 4636 :             _Traits::assign(_Mypair._Myval2._Bx._Buf[0], _Elem());

  002cc	c6 45 d8 00	 mov	 BYTE PTR $T12[ebp], 0
; File C:\Users\murat\Desktop\Siveps2-1-99-Project\source\client\Client\GameLib\MapOutdoorLoad.cpp

; 53   : 	if (rkPackMgr.isExist(local_envDataName.c_str()))

  002d0	e8 00 00 00 00	 call	 ?isExist@CEterPackManager@@QAE_NPBD@Z ; CEterPackManager::isExist
  002d5	84 c0		 test	 al, al
  002d7	74 27		 je	 SHORT $LN4@Load

; 54   : 	{
; 55   : 		m_envDataName = local_envDataName;

  002d9	8d 8e 94 13 00
	00		 lea	 ecx, DWORD PTR [esi+5012]
; File C:\Program Files (x86)\Microsoft Visual Studio\2019\Professional\VC\Tools\MSVC\14.29.30133\include\xstring

; 3077 :         if (this != _STD addressof(_Right)) {

  002df	8d 45 a8	 lea	 eax, DWORD PTR _local_envDataName$[ebp]
  002e2	3b c8		 cmp	 ecx, eax
  002e4	0f 84 89 02 00
	00		 je	 $LN555@Load

; 2319 :         return _BUF_SIZE <= _Myres;

  002ea	83 7d bc 10	 cmp	 DWORD PTR _local_envDataName$[ebp+20], 16 ; 00000010H

; 3035 :         assign(_Right._Mypair._Myval2._Myptr(), _Right._Mypair._Myval2._Mysize);

  002ee	ff 75 b8	 push	 DWORD PTR _local_envDataName$[ebp+16]

; 2306 :         if (_Large_string_engaged()) {

  002f1	0f 43 45 a8	 cmovae	 eax, DWORD PTR _local_envDataName$[ebp]

; 3035 :         assign(_Right._Mypair._Myval2._Myptr(), _Right._Mypair._Myval2._Mysize);

  002f5	50		 push	 eax
  002f6	e8 00 00 00 00	 call	 ?assign@?$basic_string@DU?$char_traits@D@std@@V?$allocator@D@2@@std@@QAEAAV12@QBDI@Z ; std::basic_string<char,std::char_traits<char>,std::allocator<char> >::assign
; File C:\Users\murat\Desktop\Siveps2-1-99-Project\source\client\Client\GameLib\MapOutdoorLoad.cpp

; 56   : 	}

  002fb	e9 73 02 00 00	 jmp	 $LN555@Load
$LN4@Load:
; File C:\Program Files (x86)\Microsoft Visual Studio\2019\Professional\VC\Tools\MSVC\14.29.30133\include\xstring

; 3264 :         return assign(_Ptr, _Convert_size<size_type>(_Traits::length(_Ptr)));

  00300	6a 19		 push	 25			; 00000019H

; 2346 :         _CONSTEXPR20_CONTAINER _Bxty() noexcept : _Ptr() {} // user-provided, for fancy pointers

  00302	c7 45 c0 00 00
	00 00		 mov	 DWORD PTR _$S1$10[ebp], 0

; 3264 :         return assign(_Ptr, _Convert_size<size_type>(_Traits::length(_Ptr)));

  00309	8d 4d c0	 lea	 ecx, DWORD PTR _$S1$10[ebp]
  0030c	68 00 00 00 00	 push	 OFFSET ??_C@_0BK@PHKPBKKC@d?3?1ymir?5work?1environment?1@

; 4596 :         _My_data._Mysize = 0;

  00311	c7 45 d0 00 00
	00 00		 mov	 DWORD PTR _$S1$10[ebp+16], 0

; 4597 : 
; 4598 : #ifdef __cpp_lib_constexpr_string
; 4599 :         if (_STD is_constant_evaluated()) {
; 4600 :             _My_data._Myres        = _BUF_SIZE; // SSO disabled in constexpr context
; 4601 :             auto& _Al              = _Getal();
; 4602 :             const pointer _New_ptr = _Al.allocate(_BUF_SIZE + 1); // throws
; 4603 :             _My_data._Bx._Ptr      = _New_ptr;
; 4604 : 
; 4605 :             _Elem* const _Raw_new = _Unfancy(_New_ptr);
; 4606 :             _Traits::assign(_Raw_new, _BUF_SIZE + 1, _Elem());
; 4607 :         } else
; 4608 : #endif // __cpp_lib_constexpr_string
; 4609 :         {
; 4610 :             _My_data._Myres = _BUF_SIZE - 1;

  00318	c7 45 d4 0f 00
	00 00		 mov	 DWORD PTR _$S1$10[ebp+20], 15 ; 0000000fH

; 4612 :             _Traits::assign(_My_data._Bx._Buf[0], _Elem());

  0031f	c6 45 c0 00	 mov	 BYTE PTR _$S1$10[ebp], 0

; 3264 :         return assign(_Ptr, _Convert_size<size_type>(_Traits::length(_Ptr)));

  00323	e8 00 00 00 00	 call	 ?assign@?$basic_string@DU?$char_traits@D@std@@V?$allocator@D@2@@std@@QAEAAV12@QBDI@Z ; std::basic_string<char,std::char_traits<char>,std::allocator<char> >::assign

; 4688 :     const auto _Right_size = _Right.size();

  00328	8b 96 8c 13 00
	00		 mov	 edx, DWORD PTR [esi+5004]
  0032e	8d 8e 7c 13 00
	00		 lea	 ecx, DWORD PTR [esi+4988]

; 4689 :     if (_Left.max_size() - _Left_size < _Right_size) {

  00334	b8 ff ff ff 7f	 mov	 eax, 2147483647		; 7fffffffH
; File C:\Users\murat\Desktop\Siveps2-1-99-Project\source\client\Client\GameLib\MapOutdoorLoad.cpp

; 59   : 		const std::string& c_rstrEnvironmentRoot = "d:/ymir work/environment/";

  00339	c6 45 fc 06	 mov	 BYTE PTR __$EHRec$[ebp+8], 6
; File C:\Program Files (x86)\Microsoft Visual Studio\2019\Professional\VC\Tools\MSVC\14.29.30133\include\xstring

; 4689 :     if (_Left.max_size() - _Left_size < _Right_size) {

  0033d	2b 45 d0	 sub	 eax, DWORD PTR _$S1$10[ebp+16]
  00340	3b c2		 cmp	 eax, edx
  00342	0f 82 0b 03 00
	00		 jb	 $LN633@Load

; 2306 :         if (_Large_string_engaged()) {

  00348	83 7d d4 10	 cmp	 DWORD PTR _$S1$10[ebp+20], 16 ; 00000010H
  0034c	8d 45 c0	 lea	 eax, DWORD PTR _$S1$10[ebp]
  0034f	0f 43 45 c0	 cmovae	 eax, DWORD PTR _$S1$10[ebp]
  00353	83 79 14 10	 cmp	 DWORD PTR [ecx+20], 16	; 00000010H
  00357	72 02		 jb	 SHORT $LN307@Load

; 2307 :             _Result = _Unfancy(_Bx._Ptr);

  00359	8b 09		 mov	 ecx, DWORD PTR [ecx]
$LN307@Load:

; 4693 :     return {_String_constructor_concat_tag{}, _Left, _Left.c_str(), _Left_size, _Right.c_str(), _Right_size};

  0035b	52		 push	 edx
  0035c	51		 push	 ecx
  0035d	ff 75 d0	 push	 DWORD PTR _$S1$10[ebp+16]
  00360	8d 8d 78 ff ff
	ff		 lea	 ecx, DWORD PTR $T9[ebp]
  00366	50		 push	 eax
  00367	8d 45 c0	 lea	 eax, DWORD PTR _$S1$10[ebp]
  0036a	50		 push	 eax
  0036b	ff b5 5c ff ff
	ff		 push	 DWORD PTR $T3[ebp]
  00371	e8 00 00 00 00	 call	 ??0?$basic_string@DU?$char_traits@D@std@@V?$allocator@D@2@@std@@QAE@U_String_constructor_concat_tag@1@ABV01@QBDI2I@Z ; std::basic_string<char,std::char_traits<char>,std::allocator<char> >::basic_string<char,std::char_traits<char>,std::allocator<char> >
; File C:\Users\murat\Desktop\Siveps2-1-99-Project\source\client\Client\GameLib\MapOutdoorLoad.cpp

; 61   : 		m_envDataName = c_rstrEnvironmentRoot + m_settings_envDataName;

  00376	8d 85 78 ff ff
	ff		 lea	 eax, DWORD PTR $T9[ebp]
  0037c	8d 8e 94 13 00
	00		 lea	 ecx, DWORD PTR [esi+5012]
  00382	50		 push	 eax
  00383	89 8d 5c ff ff
	ff		 mov	 DWORD PTR _this$1$[ebp], ecx
  00389	e8 00 00 00 00	 call	 ??4?$basic_string@DU?$char_traits@D@std@@V?$allocator@D@2@@std@@QAEAAV01@$$QAV01@@Z ; std::basic_string<char,std::char_traits<char>,std::allocator<char> >::operator=
; File C:\Program Files (x86)\Microsoft Visual Studio\2019\Professional\VC\Tools\MSVC\14.29.30133\include\xstring

; 4618 :         if (_Mypair._Myval2._Large_string_engaged()) {

  0038e	8b 55 8c	 mov	 edx, DWORD PTR $T9[ebp+20]
  00391	83 fa 10	 cmp	 edx, 16			; 00000010H
  00394	72 2f		 jb	 SHORT $LN323@Load
; File C:\Program Files (x86)\Microsoft Visual Studio\2019\Professional\VC\Tools\MSVC\14.29.30133\include\xmemory

; 835  :         _Deallocate<_New_alignof<_Ty>>(_Ptr, sizeof(_Ty) * _Count);

  00396	8b 8d 78 ff ff
	ff		 mov	 ecx, DWORD PTR $T9[ebp]
; File C:\Program Files (x86)\Microsoft Visual Studio\2019\Professional\VC\Tools\MSVC\14.29.30133\include\xstring

; 4622 :             _Al.deallocate(_Ptr, _Mypair._Myval2._Myres + 1);

  0039c	42		 inc	 edx
; File C:\Program Files (x86)\Microsoft Visual Studio\2019\Professional\VC\Tools\MSVC\14.29.30133\include\xmemory

; 835  :         _Deallocate<_New_alignof<_Ty>>(_Ptr, sizeof(_Ty) * _Count);

  0039d	8b c1		 mov	 eax, ecx

; 260  :         if (_Bytes >= _Big_allocation_threshold) { // boost the alignment of big allocations to help autovectorization

  0039f	81 fa 00 10 00
	00		 cmp	 edx, 4096		; 00001000H
  003a5	72 14		 jb	 SHORT $LN333@Load

; 158  :     const uintptr_t _Ptr_container   = _Ptr_user[-1];

  003a7	8b 49 fc	 mov	 ecx, DWORD PTR [ecx-4]
  003aa	83 c2 23	 add	 edx, 35			; 00000023H
  003ad	2b c1		 sub	 eax, ecx

; 172  :     _STL_VERIFY(_Back_shift >= _Min_back_shift && _Back_shift <= _Non_user_size, "invalid argument");

  003af	83 c0 fc	 add	 eax, -4			; fffffffcH
  003b2	83 f8 1f	 cmp	 eax, 31			; 0000001fH
  003b5	0f 87 ac 02 00
	00		 ja	 $LN616@Load
$LN333@Load:

; 264  :         ::operator delete(_Ptr, _Bytes);

  003bb	52		 push	 edx
  003bc	51		 push	 ecx
  003bd	e8 00 00 00 00	 call	 ??3@YAXPAXI@Z		; operator delete
  003c2	83 c4 08	 add	 esp, 8
$LN323@Load:
; File C:\Program Files (x86)\Microsoft Visual Studio\2019\Professional\VC\Tools\MSVC\14.29.30133\include\xstring

; 2305 :         const value_type* _Result = _Bx._Buf;

  003c5	8b 85 5c ff ff
	ff		 mov	 eax, DWORD PTR _this$1$[ebp]
  003cb	8d 4d c0	 lea	 ecx, DWORD PTR _$S1$10[ebp]

; 2306 :         if (_Large_string_engaged()) {

  003ce	83 7d d4 10	 cmp	 DWORD PTR _$S1$10[ebp+20], 16 ; 00000010H

; 2305 :         const value_type* _Result = _Bx._Buf;

  003d2	8b d0		 mov	 edx, eax

; 2306 :         if (_Large_string_engaged()) {

  003d4	8b 75 c0	 mov	 esi, DWORD PTR _$S1$10[ebp]
  003d7	0f 43 ce	 cmovae	 ecx, esi
  003da	83 78 14 10	 cmp	 DWORD PTR [eax+20], 16	; 00000010H
  003de	72 02		 jb	 SHORT $LN346@Load

; 2307 :             _Result = _Unfancy(_Bx._Ptr);

  003e0	8b 10		 mov	 edx, DWORD PTR [eax]
$LN346@Load:

; 4414 :         return _Traits_compare<_Traits>(_Mypair._Myval2._Myptr(), _Mypair._Myval2._Mysize,

  003e2	ff 75 d0	 push	 DWORD PTR _$S1$10[ebp+16]
  003e5	51		 push	 ecx
  003e6	ff 70 10	 push	 DWORD PTR [eax+16]
  003e9	52		 push	 edx
  003ea	e8 00 00 00 00	 call	 ??$_Traits_compare@U?$char_traits@D@std@@@std@@YAHQBDI0I@Z ; std::_Traits_compare<std::char_traits<char> >
  003ef	83 c4 10	 add	 esp, 16			; 00000010H
; File C:\Users\murat\Desktop\Siveps2-1-99-Project\source\client\Client\GameLib\MapOutdoorLoad.cpp

; 63   : 		if (0 == m_envDataName.compare(c_rstrEnvironmentRoot))

  003f2	85 c0		 test	 eax, eax
  003f4	0f 85 46 01 00
	00		 jne	 $LN528@Load

; 65   : 			const std::string& strAppendName = c_rstrMapName.substr(c_rstrMapName.size() - 2, 2);

  003fa	8b 47 10	 mov	 eax, DWORD PTR [edi+16]
; File C:\Program Files (x86)\Microsoft Visual Studio\2019\Professional\VC\Tools\MSVC\14.29.30133\include\xstring

; 2346 :         _CONSTEXPR20_CONTAINER _Bxty() noexcept : _Ptr() {} // user-provided, for fancy pointers

  003fd	c7 45 d8 00 00
	00 00		 mov	 DWORD PTR _$S2$11[ebp], 0

; 4596 :         _My_data._Mysize = 0;

  00404	c7 45 e8 00 00
	00 00		 mov	 DWORD PTR _$S2$11[ebp+16], 0

; 4597 : 
; 4598 : #ifdef __cpp_lib_constexpr_string
; 4599 :         if (_STD is_constant_evaluated()) {
; 4600 :             _My_data._Myres        = _BUF_SIZE; // SSO disabled in constexpr context
; 4601 :             auto& _Al              = _Getal();
; 4602 :             const pointer _New_ptr = _Al.allocate(_BUF_SIZE + 1); // throws
; 4603 :             _My_data._Bx._Ptr      = _New_ptr;
; 4604 : 
; 4605 :             _Elem* const _Raw_new = _Unfancy(_New_ptr);
; 4606 :             _Traits::assign(_Raw_new, _BUF_SIZE + 1, _Elem());
; 4607 :         } else
; 4608 : #endif // __cpp_lib_constexpr_string
; 4609 :         {
; 4610 :             _My_data._Myres = _BUF_SIZE - 1;

  0040b	c7 45 ec 0f 00
	00 00		 mov	 DWORD PTR _$S2$11[ebp+20], 15 ; 0000000fH
; File C:\Users\murat\Desktop\Siveps2-1-99-Project\source\client\Client\GameLib\MapOutdoorLoad.cpp

; 65   : 			const std::string& strAppendName = c_rstrMapName.substr(c_rstrMapName.size() - 2, 2);

  00412	8d 48 fe	 lea	 ecx, DWORD PTR [eax-2]
; File C:\Program Files (x86)\Microsoft Visual Studio\2019\Professional\VC\Tools\MSVC\14.29.30133\include\xstring

; 4612 :             _Traits::assign(_My_data._Bx._Buf[0], _Elem());

  00415	c6 45 d8 00	 mov	 BYTE PTR _$S2$11[ebp], 0

; 2324 :         if (_Mysize < _Off) {

  00419	3b c1		 cmp	 eax, ecx
  0041b	0f 82 37 02 00
	00		 jb	 $LN634@Load

; 2306 :         if (_Large_string_engaged()) {

  00421	83 7f 14 10	 cmp	 DWORD PTR [edi+20], 16	; 00000010H
  00425	72 02		 jb	 SHORT $LN377@Load

; 2307 :             _Result = _Unfancy(_Bx._Ptr);

  00427	8b 3f		 mov	 edi, DWORD PTR [edi]
$LN377@Load:

; 122  :         _CSTD memmove(_First1, _First2, _Count * sizeof(_Elem));

  00429	66 8b 04 0f	 mov	 ax, WORD PTR [edi+ecx]

; 3248 :             _Mypair._Myval2._Mysize = _Count;

  0042d	c7 45 e8 02 00
	00 00		 mov	 DWORD PTR _$S2$11[ebp+16], 2

; 122  :         _CSTD memmove(_First1, _First2, _Count * sizeof(_Elem));

  00434	66 89 45 d8	 mov	 WORD PTR _$S2$11[ebp], ax

; 3250 :             _Traits::assign(_Old_ptr[_Count], _Elem());

  00438	c6 45 da 00	 mov	 BYTE PTR _$S2$11[ebp+2], 0

; 4689 :     if (_Left.max_size() - _Left_size < _Right_size) {

  0043c	8b 4d d0	 mov	 ecx, DWORD PTR _$S1$10[ebp+16]
  0043f	b8 ff ff ff 7f	 mov	 eax, 2147483647		; 7fffffffH
  00444	2b c1		 sub	 eax, ecx
; File C:\Users\murat\Desktop\Siveps2-1-99-Project\source\client\Client\GameLib\MapOutdoorLoad.cpp

; 65   : 			const std::string& strAppendName = c_rstrMapName.substr(c_rstrMapName.size() - 2, 2);

  00446	c6 45 fc 07	 mov	 BYTE PTR __$EHRec$[ebp+8], 7
; File C:\Program Files (x86)\Microsoft Visual Studio\2019\Professional\VC\Tools\MSVC\14.29.30133\include\xstring

; 4689 :     if (_Left.max_size() - _Left_size < _Right_size) {

  0044a	83 f8 02	 cmp	 eax, 2
  0044d	0f 82 0a 02 00
	00		 jb	 $LN635@Load

; 2306 :         if (_Large_string_engaged()) {

  00453	83 7d d4 10	 cmp	 DWORD PTR _$S1$10[ebp+20], 16 ; 00000010H

; 4693 :     return {_String_constructor_concat_tag{}, _Left, _Left.c_str(), _Left_size, _Right.c_str(), _Right_size};

  00457	8d 55 d8	 lea	 edx, DWORD PTR _$S2$11[ebp]
  0045a	6a 02		 push	 2
  0045c	52		 push	 edx
  0045d	51		 push	 ecx

; 2305 :         const value_type* _Result = _Bx._Buf;

  0045e	8d 45 c0	 lea	 eax, DWORD PTR _$S1$10[ebp]

; 2306 :         if (_Large_string_engaged()) {

  00461	0f 43 c6	 cmovae	 eax, esi

; 4693 :     return {_String_constructor_concat_tag{}, _Left, _Left.c_str(), _Left_size, _Right.c_str(), _Right_size};

  00464	8d 8d 60 ff ff
	ff		 lea	 ecx, DWORD PTR $T7[ebp]
  0046a	50		 push	 eax
  0046b	8d 45 c0	 lea	 eax, DWORD PTR _$S1$10[ebp]
  0046e	50		 push	 eax
  0046f	ff b5 5c ff ff
	ff		 push	 DWORD PTR $T2[ebp]
  00475	e8 00 00 00 00	 call	 ??0?$basic_string@DU?$char_traits@D@std@@V?$allocator@D@2@@std@@QAE@U_String_constructor_concat_tag@1@ABV01@QBDI2I@Z ; std::basic_string<char,std::char_traits<char>,std::allocator<char> >::basic_string<char,std::char_traits<char>,std::allocator<char> >

; 3175 :         return append(_Ptr, _Convert_size<size_type>(_Traits::length(_Ptr)));

  0047a	6a 06		 push	 6
  0047c	68 00 00 00 00	 push	 OFFSET ??_C@_06MANNNLLA@?4msenv@
  00481	8d 8d 60 ff ff
	ff		 lea	 ecx, DWORD PTR $T7[ebp]
; File C:\Users\murat\Desktop\Siveps2-1-99-Project\source\client\Client\GameLib\MapOutdoorLoad.cpp

; 66   : 			m_envDataName = c_rstrEnvironmentRoot + strAppendName + ".msenv";

  00487	c6 45 fc 08	 mov	 BYTE PTR __$EHRec$[ebp+8], 8
; File C:\Program Files (x86)\Microsoft Visual Studio\2019\Professional\VC\Tools\MSVC\14.29.30133\include\xstring

; 3175 :         return append(_Ptr, _Convert_size<size_type>(_Traits::length(_Ptr)));

  0048b	e8 00 00 00 00	 call	 ?append@?$basic_string@DU?$char_traits@D@std@@V?$allocator@D@2@@std@@QAEAAV12@QBDI@Z ; std::basic_string<char,std::char_traits<char>,std::allocator<char> >::append
; File C:\Users\murat\Desktop\Siveps2-1-99-Project\source\client\Client\GameLib\MapOutdoorLoad.cpp

; 66   : 			m_envDataName = c_rstrEnvironmentRoot + strAppendName + ".msenv";

  00490	8b 8d 5c ff ff
	ff		 mov	 ecx, DWORD PTR _this$1$[ebp]
; File C:\Program Files (x86)\Microsoft Visual Studio\2019\Professional\VC\Tools\MSVC\14.29.30133\include\xstring

; 2869 :         _CSTD memcpy(_My_data_mem, _Right_data_mem, _Memcpy_val_size);

  00496	0f 10 00	 movups	 xmm0, XMMWORD PTR [eax]
  00499	0f 11 85 78 ff
	ff ff		 movups	 XMMWORD PTR $T8[ebp], xmm0
  004a0	f3 0f 7e 40 10	 movq	 xmm0, QWORD PTR [eax+16]

; 4596 :         _My_data._Mysize = 0;

  004a5	c7 40 10 00 00
	00 00		 mov	 DWORD PTR [eax+16], 0

; 4597 : 
; 4598 : #ifdef __cpp_lib_constexpr_string
; 4599 :         if (_STD is_constant_evaluated()) {
; 4600 :             _My_data._Myres        = _BUF_SIZE; // SSO disabled in constexpr context
; 4601 :             auto& _Al              = _Getal();
; 4602 :             const pointer _New_ptr = _Al.allocate(_BUF_SIZE + 1); // throws
; 4603 :             _My_data._Bx._Ptr      = _New_ptr;
; 4604 : 
; 4605 :             _Elem* const _Raw_new = _Unfancy(_New_ptr);
; 4606 :             _Traits::assign(_Raw_new, _BUF_SIZE + 1, _Elem());
; 4607 :         } else
; 4608 : #endif // __cpp_lib_constexpr_string
; 4609 :         {
; 4610 :             _My_data._Myres = _BUF_SIZE - 1;

  004ac	c7 40 14 0f 00
	00 00		 mov	 DWORD PTR [eax+20], 15	; 0000000fH

; 4612 :             _Traits::assign(_My_data._Bx._Buf[0], _Elem());

  004b3	c6 00 00	 mov	 BYTE PTR [eax], 0
; File C:\Users\murat\Desktop\Siveps2-1-99-Project\source\client\Client\GameLib\MapOutdoorLoad.cpp

; 66   : 			m_envDataName = c_rstrEnvironmentRoot + strAppendName + ".msenv";

  004b6	8d 85 78 ff ff
	ff		 lea	 eax, DWORD PTR $T8[ebp]
  004bc	50		 push	 eax
; File C:\Program Files (x86)\Microsoft Visual Studio\2019\Professional\VC\Tools\MSVC\14.29.30133\include\xstring

; 2869 :         _CSTD memcpy(_My_data_mem, _Right_data_mem, _Memcpy_val_size);

  004bd	66 0f d6 45 88	 movq	 QWORD PTR $T8[ebp+16], xmm0
; File C:\Users\murat\Desktop\Siveps2-1-99-Project\source\client\Client\GameLib\MapOutdoorLoad.cpp

; 66   : 			m_envDataName = c_rstrEnvironmentRoot + strAppendName + ".msenv";

  004c2	e8 00 00 00 00	 call	 ??4?$basic_string@DU?$char_traits@D@std@@V?$allocator@D@2@@std@@QAEAAV01@$$QAV01@@Z ; std::basic_string<char,std::char_traits<char>,std::allocator<char> >::operator=
; File C:\Program Files (x86)\Microsoft Visual Studio\2019\Professional\VC\Tools\MSVC\14.29.30133\include\xstring

; 2319 :         return _BUF_SIZE <= _Myres;

  004c7	8b 55 8c	 mov	 edx, DWORD PTR $T8[ebp+20]
  004ca	83 fa 10	 cmp	 edx, 16			; 00000010H

; 4618 :         if (_Mypair._Myval2._Large_string_engaged()) {

  004cd	72 2f		 jb	 SHORT $LN501@Load
; File C:\Program Files (x86)\Microsoft Visual Studio\2019\Professional\VC\Tools\MSVC\14.29.30133\include\xmemory

; 835  :         _Deallocate<_New_alignof<_Ty>>(_Ptr, sizeof(_Ty) * _Count);

  004cf	8b 8d 78 ff ff
	ff		 mov	 ecx, DWORD PTR $T8[ebp]
; File C:\Program Files (x86)\Microsoft Visual Studio\2019\Professional\VC\Tools\MSVC\14.29.30133\include\xstring

; 4622 :             _Al.deallocate(_Ptr, _Mypair._Myval2._Myres + 1);

  004d5	42		 inc	 edx
; File C:\Program Files (x86)\Microsoft Visual Studio\2019\Professional\VC\Tools\MSVC\14.29.30133\include\xmemory

; 835  :         _Deallocate<_New_alignof<_Ty>>(_Ptr, sizeof(_Ty) * _Count);

  004d6	8b c1		 mov	 eax, ecx

; 260  :         if (_Bytes >= _Big_allocation_threshold) { // boost the alignment of big allocations to help autovectorization

  004d8	81 fa 00 10 00
	00		 cmp	 edx, 4096		; 00001000H
  004de	72 14		 jb	 SHORT $LN511@Load

; 158  :     const uintptr_t _Ptr_container   = _Ptr_user[-1];

  004e0	8b 49 fc	 mov	 ecx, DWORD PTR [ecx-4]
  004e3	83 c2 23	 add	 edx, 35			; 00000023H
  004e6	2b c1		 sub	 eax, ecx

; 172  :     _STL_VERIFY(_Back_shift >= _Min_back_shift && _Back_shift <= _Non_user_size, "invalid argument");

  004e8	83 c0 fc	 add	 eax, -4			; fffffffcH
  004eb	83 f8 1f	 cmp	 eax, 31			; 0000001fH
  004ee	0f 87 6e 01 00
	00		 ja	 $LN636@Load
$LN511@Load:

; 264  :         ::operator delete(_Ptr, _Bytes);

  004f4	52		 push	 edx
  004f5	51		 push	 ecx
  004f6	e8 00 00 00 00	 call	 ??3@YAXPAXI@Z		; operator delete
  004fb	83 c4 08	 add	 esp, 8
$LN501@Load:
; File C:\Users\murat\Desktop\Siveps2-1-99-Project\source\client\Client\GameLib\MapOutdoorLoad.cpp

; 66   : 			m_envDataName = c_rstrEnvironmentRoot + strAppendName + ".msenv";

  004fe	8d 8d 60 ff ff
	ff		 lea	 ecx, DWORD PTR $T7[ebp]
  00504	e8 00 00 00 00	 call	 ??1?$basic_string@DU?$char_traits@D@std@@V?$allocator@D@2@@std@@QAE@XZ ; std::basic_string<char,std::char_traits<char>,std::allocator<char> >::~basic_string<char,std::char_traits<char>,std::allocator<char> >
; File C:\Program Files (x86)\Microsoft Visual Studio\2019\Professional\VC\Tools\MSVC\14.29.30133\include\xstring

; 2319 :         return _BUF_SIZE <= _Myres;

  00509	8b 55 ec	 mov	 edx, DWORD PTR _$S2$11[ebp+20]
  0050c	83 fa 10	 cmp	 edx, 16			; 00000010H

; 4618 :         if (_Mypair._Myval2._Large_string_engaged()) {

  0050f	72 2c		 jb	 SHORT $LN627@Load
; File C:\Program Files (x86)\Microsoft Visual Studio\2019\Professional\VC\Tools\MSVC\14.29.30133\include\xmemory

; 835  :         _Deallocate<_New_alignof<_Ty>>(_Ptr, sizeof(_Ty) * _Count);

  00511	8b 4d d8	 mov	 ecx, DWORD PTR _$S2$11[ebp]
; File C:\Program Files (x86)\Microsoft Visual Studio\2019\Professional\VC\Tools\MSVC\14.29.30133\include\xstring

; 4622 :             _Al.deallocate(_Ptr, _Mypair._Myval2._Myres + 1);

  00514	42		 inc	 edx
; File C:\Program Files (x86)\Microsoft Visual Studio\2019\Professional\VC\Tools\MSVC\14.29.30133\include\xmemory

; 835  :         _Deallocate<_New_alignof<_Ty>>(_Ptr, sizeof(_Ty) * _Count);

  00515	8b c1		 mov	 eax, ecx

; 260  :         if (_Bytes >= _Big_allocation_threshold) { // boost the alignment of big allocations to help autovectorization

  00517	81 fa 00 10 00
	00		 cmp	 edx, 4096		; 00001000H
  0051d	72 14		 jb	 SHORT $LN538@Load

; 158  :     const uintptr_t _Ptr_container   = _Ptr_user[-1];

  0051f	8b 49 fc	 mov	 ecx, DWORD PTR [ecx-4]
  00522	83 c2 23	 add	 edx, 35			; 00000023H
  00525	2b c1		 sub	 eax, ecx

; 172  :     _STL_VERIFY(_Back_shift >= _Min_back_shift && _Back_shift <= _Non_user_size, "invalid argument");

  00527	83 c0 fc	 add	 eax, -4			; fffffffcH
  0052a	83 f8 1f	 cmp	 eax, 31			; 0000001fH
  0052d	0f 87 34 01 00
	00		 ja	 $LN616@Load
$LN538@Load:

; 264  :         ::operator delete(_Ptr, _Bytes);

  00533	52		 push	 edx
  00534	51		 push	 ecx
  00535	e8 00 00 00 00	 call	 ??3@YAXPAXI@Z		; operator delete
  0053a	83 c4 08	 add	 esp, 8
$LN627@Load:
; File C:\Program Files (x86)\Microsoft Visual Studio\2019\Professional\VC\Tools\MSVC\14.29.30133\include\xstring

; 2319 :         return _BUF_SIZE <= _Myres;

  0053d	8b 75 c0	 mov	 esi, DWORD PTR _$S1$10[ebp]
$LN528@Load:
  00540	8b 45 d4	 mov	 eax, DWORD PTR _$S1$10[ebp+20]
  00543	83 f8 10	 cmp	 eax, 16			; 00000010H

; 4618 :         if (_Mypair._Myval2._Large_string_engaged()) {

  00546	72 2b		 jb	 SHORT $LN555@Load

; 4622 :             _Al.deallocate(_Ptr, _Mypair._Myval2._Myres + 1);

  00548	8d 48 01	 lea	 ecx, DWORD PTR [eax+1]
; File C:\Program Files (x86)\Microsoft Visual Studio\2019\Professional\VC\Tools\MSVC\14.29.30133\include\xmemory

; 835  :         _Deallocate<_New_alignof<_Ty>>(_Ptr, sizeof(_Ty) * _Count);

  0054b	8b c6		 mov	 eax, esi

; 260  :         if (_Bytes >= _Big_allocation_threshold) { // boost the alignment of big allocations to help autovectorization

  0054d	81 f9 00 10 00
	00		 cmp	 ecx, 4096		; 00001000H
  00553	72 14		 jb	 SHORT $LN565@Load

; 158  :     const uintptr_t _Ptr_container   = _Ptr_user[-1];

  00555	8b 76 fc	 mov	 esi, DWORD PTR [esi-4]
  00558	83 c1 23	 add	 ecx, 35			; 00000023H
  0055b	2b c6		 sub	 eax, esi

; 172  :     _STL_VERIFY(_Back_shift >= _Min_back_shift && _Back_shift <= _Non_user_size, "invalid argument");

  0055d	83 c0 fc	 add	 eax, -4			; fffffffcH
  00560	83 f8 1f	 cmp	 eax, 31			; 0000001fH
  00563	0f 87 fe 00 00
	00		 ja	 $LN616@Load
$LN565@Load:

; 264  :         ::operator delete(_Ptr, _Bytes);

  00569	51		 push	 ecx
  0056a	56		 push	 esi
  0056b	e8 00 00 00 00	 call	 ??3@YAXPAXI@Z		; operator delete
  00570	83 c4 08	 add	 esp, 8
$LN555@Load:
; File C:\Program Files (x86)\Microsoft Visual Studio\2019\Professional\VC\Tools\MSVC\14.29.30133\include\xstring

; 2319 :         return _BUF_SIZE <= _Myres;

  00573	8b 55 bc	 mov	 edx, DWORD PTR _local_envDataName$[ebp+20]
  00576	83 fa 10	 cmp	 edx, 16			; 00000010H

; 4618 :         if (_Mypair._Myval2._Large_string_engaged()) {

  00579	72 2c		 jb	 SHORT $LN582@Load
; File C:\Program Files (x86)\Microsoft Visual Studio\2019\Professional\VC\Tools\MSVC\14.29.30133\include\xmemory

; 835  :         _Deallocate<_New_alignof<_Ty>>(_Ptr, sizeof(_Ty) * _Count);

  0057b	8b 4d a8	 mov	 ecx, DWORD PTR _local_envDataName$[ebp]
; File C:\Program Files (x86)\Microsoft Visual Studio\2019\Professional\VC\Tools\MSVC\14.29.30133\include\xstring

; 4622 :             _Al.deallocate(_Ptr, _Mypair._Myval2._Myres + 1);

  0057e	42		 inc	 edx
; File C:\Program Files (x86)\Microsoft Visual Studio\2019\Professional\VC\Tools\MSVC\14.29.30133\include\xmemory

; 835  :         _Deallocate<_New_alignof<_Ty>>(_Ptr, sizeof(_Ty) * _Count);

  0057f	8b c1		 mov	 eax, ecx

; 260  :         if (_Bytes >= _Big_allocation_threshold) { // boost the alignment of big allocations to help autovectorization

  00581	81 fa 00 10 00
	00		 cmp	 edx, 4096		; 00001000H
  00587	72 14		 jb	 SHORT $LN592@Load

; 158  :     const uintptr_t _Ptr_container   = _Ptr_user[-1];

  00589	8b 49 fc	 mov	 ecx, DWORD PTR [ecx-4]
  0058c	83 c2 23	 add	 edx, 35			; 00000023H
  0058f	2b c1		 sub	 eax, ecx

; 172  :     _STL_VERIFY(_Back_shift >= _Min_back_shift && _Back_shift <= _Non_user_size, "invalid argument");

  00591	83 c0 fc	 add	 eax, -4			; fffffffcH
  00594	83 f8 1f	 cmp	 eax, 31			; 0000001fH
  00597	0f 87 ca 00 00
	00		 ja	 $LN616@Load
$LN592@Load:

; 264  :         ::operator delete(_Ptr, _Bytes);

  0059d	52		 push	 edx
  0059e	51		 push	 ecx
  0059f	e8 00 00 00 00	 call	 ??3@YAXPAXI@Z		; operator delete
  005a4	83 c4 08	 add	 esp, 8
$LN582@Load:
; File C:\Program Files (x86)\Microsoft Visual Studio\2019\Professional\VC\Tools\MSVC\14.29.30133\include\xstring

; 2319 :         return _BUF_SIZE <= _Myres;

  005a7	8b 55 a4	 mov	 edx, DWORD PTR _strFileName$[ebp+20]

; 4633 :             _Mypair._Myval2._Mysize = 0;

  005aa	c7 45 b8 00 00
	00 00		 mov	 DWORD PTR _local_envDataName$[ebp+16], 0

; 4634 :             _Mypair._Myval2._Myres  = _BUF_SIZE - 1;

  005b1	c7 45 bc 0f 00
	00 00		 mov	 DWORD PTR _local_envDataName$[ebp+20], 15 ; 0000000fH

; 4635 :             // the _Traits::assign is last so the codegen doesn't think the char write can alias this
; 4636 :             _Traits::assign(_Mypair._Myval2._Bx._Buf[0], _Elem());

  005b8	c6 45 a8 00	 mov	 BYTE PTR _local_envDataName$[ebp], 0

; 2319 :         return _BUF_SIZE <= _Myres;

  005bc	83 fa 10	 cmp	 edx, 16			; 00000010H

; 4618 :         if (_Mypair._Myval2._Large_string_engaged()) {

  005bf	72 2c		 jb	 SHORT $LN609@Load
; File C:\Program Files (x86)\Microsoft Visual Studio\2019\Professional\VC\Tools\MSVC\14.29.30133\include\xmemory

; 835  :         _Deallocate<_New_alignof<_Ty>>(_Ptr, sizeof(_Ty) * _Count);

  005c1	8b 4d 90	 mov	 ecx, DWORD PTR _strFileName$[ebp]
; File C:\Program Files (x86)\Microsoft Visual Studio\2019\Professional\VC\Tools\MSVC\14.29.30133\include\xstring

; 4622 :             _Al.deallocate(_Ptr, _Mypair._Myval2._Myres + 1);

  005c4	42		 inc	 edx
; File C:\Program Files (x86)\Microsoft Visual Studio\2019\Professional\VC\Tools\MSVC\14.29.30133\include\xmemory

; 835  :         _Deallocate<_New_alignof<_Ty>>(_Ptr, sizeof(_Ty) * _Count);

  005c5	8b c1		 mov	 eax, ecx

; 260  :         if (_Bytes >= _Big_allocation_threshold) { // boost the alignment of big allocations to help autovectorization

  005c7	81 fa 00 10 00
	00		 cmp	 edx, 4096		; 00001000H
  005cd	72 14		 jb	 SHORT $LN619@Load

; 158  :     const uintptr_t _Ptr_container   = _Ptr_user[-1];

  005cf	8b 49 fc	 mov	 ecx, DWORD PTR [ecx-4]
  005d2	83 c2 23	 add	 edx, 35			; 00000023H
  005d5	2b c1		 sub	 eax, ecx

; 172  :     _STL_VERIFY(_Back_shift >= _Min_back_shift && _Back_shift <= _Non_user_size, "invalid argument");

  005d7	83 c0 fc	 add	 eax, -4			; fffffffcH
  005da	83 f8 1f	 cmp	 eax, 31			; 0000001fH
  005dd	0f 87 84 00 00
	00		 ja	 $LN616@Load
$LN619@Load:

; 264  :         ::operator delete(_Ptr, _Bytes);

  005e3	52		 push	 edx
  005e4	51		 push	 ecx
  005e5	e8 00 00 00 00	 call	 ??3@YAXPAXI@Z		; operator delete
  005ea	83 c4 08	 add	 esp, 8
$LN609@Load:
; File C:\Users\murat\Desktop\Siveps2-1-99-Project\source\client\Client\GameLib\MapOutdoorLoad.cpp

; 70   : 	return true;

  005ed	b0 01		 mov	 al, 1

; 71   : }

  005ef	8b 4d f4	 mov	 ecx, DWORD PTR __$EHRec$[ebp]
  005f2	64 89 0d 00 00
	00 00		 mov	 DWORD PTR fs:0, ecx
  005f9	59		 pop	 ecx
  005fa	5f		 pop	 edi
  005fb	5e		 pop	 esi
  005fc	8b 4d f0	 mov	 ecx, DWORD PTR __$ArrayPad$[ebp]
  005ff	33 cd		 xor	 ecx, ebp
  00601	e8 00 00 00 00	 call	 @__security_check_cookie@4
  00606	8b e5		 mov	 esp, ebp
  00608	5d		 pop	 ebp
  00609	c2 0c 00	 ret	 12			; 0000000cH
$LN631@Load:

; 16   : 	{
; 17   : 		static std::string s_strOldPathName="";

  0060c	68 00 00 00 00	 push	 OFFSET ?$TSS0@?2??Load@CMapOutdoor@@UAE_NMMM@Z@4HA
  00611	e8 00 00 00 00	 call	 __Init_thread_header
  00616	83 c4 04	 add	 esp, 4
  00619	83 3d 00 00 00
	00 ff		 cmp	 DWORD PTR ?$TSS0@?2??Load@CMapOutdoor@@UAE_NMMM@Z@4HA, -1
  00620	0f 85 39 fa ff
	ff		 jne	 $LN2@Load
  00626	68 00 00 00 00	 push	 OFFSET ??__Fs_strOldPathName@?2??Load@CMapOutdoor@@UAE_NMMM@Z@YAXXZ ; `CMapOutdoor::Load'::`3'::`dynamic atexit destructor for 's_strOldPathName''
  0062b	e8 00 00 00 00	 call	 _atexit
  00630	68 00 00 00 00	 push	 OFFSET ?$TSS0@?2??Load@CMapOutdoor@@UAE_NMMM@Z@4HA
  00635	c7 45 fc ff ff
	ff ff		 mov	 DWORD PTR __$EHRec$[ebp+8], -1
  0063c	e8 00 00 00 00	 call	 __Init_thread_footer
  00641	83 c4 08	 add	 esp, 8
  00644	e9 16 fa ff ff	 jmp	 $LN2@Load
$LN626@Load:

; 71   : }

  00649	e8 00 00 00 00	 call	 ?_Xlen_string@std@@YAXXZ ; std::_Xlen_string
$LN632@Load:
; File C:\Program Files (x86)\Microsoft Visual Studio\2019\Professional\VC\Tools\MSVC\14.29.30133\include\xmemory

; 172  :     _STL_VERIFY(_Back_shift >= _Min_back_shift && _Back_shift <= _Non_user_size, "invalid argument");

  0064e	e8 00 00 00 00	 call	 __invalid_parameter_noinfo_noreturn
$LN633@Load:
; File C:\Program Files (x86)\Microsoft Visual Studio\2019\Professional\VC\Tools\MSVC\14.29.30133\include\xstring

; 4690 :         _Xlen_string();

  00653	e8 00 00 00 00	 call	 ?_Xlen_string@std@@YAXXZ ; std::_Xlen_string
$LN634@Load:

; 2325 :             _Xran();

  00658	e8 00 00 00 00	 call	 ?_Xran@?$_String_val@U?$_Simple_types@D@std@@@std@@SAXXZ ; std::_String_val<std::_Simple_types<char> >::_Xran
$LN635@Load:

; 4690 :         _Xlen_string();

  0065d	e8 00 00 00 00	 call	 ?_Xlen_string@std@@YAXXZ ; std::_Xlen_string
$LN636@Load:
; File C:\Program Files (x86)\Microsoft Visual Studio\2019\Professional\VC\Tools\MSVC\14.29.30133\include\xmemory

; 172  :     _STL_VERIFY(_Back_shift >= _Min_back_shift && _Back_shift <= _Non_user_size, "invalid argument");

  00662	e8 00 00 00 00	 call	 __invalid_parameter_noinfo_noreturn
$LN616@Load:
  00667	e8 00 00 00 00	 call	 __invalid_parameter_noinfo_noreturn
$LN629@Load:
  0066c	cc		 int	 3
_TEXT	ENDS
;	COMDAT text$x
text$x	SEGMENT
__unwindfunclet$?Load@CMapOutdoor@@UAE_NMMM@Z$1:
  00000	8d 4d d8	 lea	 ecx, DWORD PTR _c_rstrNewPathName$13[ebp]
  00003	e9 00 00 00 00	 jmp	 ??1?$basic_string@DU?$char_traits@D@std@@V?$allocator@D@2@@std@@QAE@XZ ; std::basic_string<char,std::char_traits<char>,std::allocator<char> >::~basic_string<char,std::char_traits<char>,std::allocator<char> >
__unwindfunclet$?Load@CMapOutdoor@@UAE_NMMM@Z$2:
  00008	8d 4d 90	 lea	 ecx, DWORD PTR _strFileName$[ebp]
  0000b	e9 00 00 00 00	 jmp	 ??1?$basic_string@DU?$char_traits@D@std@@V?$allocator@D@2@@std@@QAE@XZ ; std::basic_string<char,std::char_traits<char>,std::allocator<char> >::~basic_string<char,std::char_traits<char>,std::allocator<char> >
__unwindfunclet$?Load@CMapOutdoor@@UAE_NMMM@Z$3:
  00010	8d 4d d8	 lea	 ecx, DWORD PTR $T12[ebp]
  00013	e9 00 00 00 00	 jmp	 ??1?$basic_string@DU?$char_traits@D@std@@V?$allocator@D@2@@std@@QAE@XZ ; std::basic_string<char,std::char_traits<char>,std::allocator<char> >::~basic_string<char,std::char_traits<char>,std::allocator<char> >
__unwindfunclet$?Load@CMapOutdoor@@UAE_NMMM@Z$4:
  00018	8d 4d a8	 lea	 ecx, DWORD PTR _local_envDataName$[ebp]
  0001b	e9 00 00 00 00	 jmp	 ??1?$basic_string@DU?$char_traits@D@std@@V?$allocator@D@2@@std@@QAE@XZ ; std::basic_string<char,std::char_traits<char>,std::allocator<char> >::~basic_string<char,std::char_traits<char>,std::allocator<char> >
__unwindfunclet$?Load@CMapOutdoor@@UAE_NMMM@Z$5:
  00020	8d 4d c0	 lea	 ecx, DWORD PTR _$S1$10[ebp]
  00023	e9 00 00 00 00	 jmp	 ??1?$basic_string@DU?$char_traits@D@std@@V?$allocator@D@2@@std@@QAE@XZ ; std::basic_string<char,std::char_traits<char>,std::allocator<char> >::~basic_string<char,std::char_traits<char>,std::allocator<char> >
__unwindfunclet$?Load@CMapOutdoor@@UAE_NMMM@Z$7:
  00028	8d 4d d8	 lea	 ecx, DWORD PTR _$S2$11[ebp]
  0002b	e9 00 00 00 00	 jmp	 ??1?$basic_string@DU?$char_traits@D@std@@V?$allocator@D@2@@std@@QAE@XZ ; std::basic_string<char,std::char_traits<char>,std::allocator<char> >::~basic_string<char,std::char_traits<char>,std::allocator<char> >
__unwindfunclet$?Load@CMapOutdoor@@UAE_NMMM@Z$8:
  00030	8d 8d 60 ff ff
	ff		 lea	 ecx, DWORD PTR $T7[ebp]
  00036	e9 00 00 00 00	 jmp	 ??1?$basic_string@DU?$char_traits@D@std@@V?$allocator@D@2@@std@@QAE@XZ ; std::basic_string<char,std::char_traits<char>,std::allocator<char> >::~basic_string<char,std::char_traits<char>,std::allocator<char> >
__unwindfunclet$?Load@CMapOutdoor@@UAE_NMMM@Z$0:
  0003b	68 00 00 00 00	 push	 OFFSET ?$TSS0@?2??Load@CMapOutdoor@@UAE_NMMM@Z@4HA
  00040	e8 00 00 00 00	 call	 __Init_thread_abort
  00045	59		 pop	 ecx
  00046	c3		 ret	 0
  00047	cc		 int	 3
  00048	cc		 int	 3
  00049	cc		 int	 3
  0004a	cc		 int	 3
  0004b	cc		 int	 3
__ehhandler$?Load@CMapOutdoor@@UAE_NMMM@Z:
  0004c	90		 npad	 1
  0004d	90		 npad	 1
  0004e	8b 54 24 08	 mov	 edx, DWORD PTR [esp+8]
  00052	8d 42 0c	 lea	 eax, DWORD PTR [edx+12]
  00055	8b 8a 5c ff ff
	ff		 mov	 ecx, DWORD PTR [edx-164]
  0005b	33 c8		 xor	 ecx, eax
  0005d	e8 00 00 00 00	 call	 @__security_check_cookie@4
  00062	8b 4a fc	 mov	 ecx, DWORD PTR [edx-4]
  00065	33 c8		 xor	 ecx, eax
  00067	e8 00 00 00 00	 call	 @__security_check_cookie@4
  0006c	b8 00 00 00 00	 mov	 eax, OFFSET __ehfuncinfo$?Load@CMapOutdoor@@UAE_NMMM@Z
  00071	e9 00 00 00 00	 jmp	 ___CxxFrameHandler3
text$x	ENDS
?Load@CMapOutdoor@@UAE_NMMM@Z ENDP			; CMapOutdoor::Load
; Function compile flags: /Ogtp
; File C:\Program Files (x86)\Microsoft Visual Studio\2019\Professional\VC\Tools\MSVC\14.29.30133\include\xmemory
;	COMDAT ??$_Allocate_manually_vector_aligned@U_Default_allocate_traits@std@@@std@@YAPAXI@Z
_TEXT	SEGMENT
__Bytes$ = 8						; size = 4
??$_Allocate_manually_vector_aligned@U_Default_allocate_traits@std@@@std@@YAPAXI@Z PROC ; std::_Allocate_manually_vector_aligned<std::_Default_allocate_traits>, COMDAT

; 134  : __declspec(allocator) void* _Allocate_manually_vector_aligned(const size_t _Bytes) {

  00000	55		 push	 ebp
  00001	8b ec		 mov	 ebp, esp

; 135  :     // allocate _Bytes manually aligned to at least _Big_allocation_alignment
; 136  :     const size_t _Block_size = _Non_user_size + _Bytes;

  00003	8b 45 08	 mov	 eax, DWORD PTR __Bytes$[ebp]
  00006	8d 48 23	 lea	 ecx, DWORD PTR [eax+35]

; 137  :     if (_Block_size <= _Bytes) {

  00009	3b c8		 cmp	 ecx, eax
  0000b	0f 86 00 00 00
	00		 jbe	 ?_Throw_bad_array_new_length@std@@YAXXZ ; std::_Throw_bad_array_new_length

; 85   :         return ::operator new(_Bytes);

  00011	51		 push	 ecx
  00012	e8 00 00 00 00	 call	 ??2@YAPAXI@Z		; operator new

; 138  :         _Throw_bad_array_new_length(); // add overflow
; 139  :     }
; 140  : 
; 141  :     const uintptr_t _Ptr_container = reinterpret_cast<uintptr_t>(_Traits::_Allocate(_Block_size));

  00017	8b c8		 mov	 ecx, eax

; 85   :         return ::operator new(_Bytes);

  00019	83 c4 04	 add	 esp, 4

; 142  :     _STL_VERIFY(_Ptr_container != 0, "invalid argument"); // validate even in release since we're doing p[-1]

  0001c	85 c9		 test	 ecx, ecx
  0001e	74 0b		 je	 SHORT $LN7@Allocate_m

; 143  :     void* const _Ptr = reinterpret_cast<void*>((_Ptr_container + _Non_user_size) & ~(_Big_allocation_alignment - 1));

  00020	8d 41 23	 lea	 eax, DWORD PTR [ecx+35]
  00023	83 e0 e0	 and	 eax, -32		; ffffffe0H

; 144  :     static_cast<uintptr_t*>(_Ptr)[-1] = _Ptr_container;

  00026	89 48 fc	 mov	 DWORD PTR [eax-4], ecx

; 145  : 
; 146  : #ifdef _DEBUG
; 147  :     static_cast<uintptr_t*>(_Ptr)[-2] = _Big_allocation_sentinel;
; 148  : #endif // _DEBUG
; 149  :     return _Ptr;
; 150  : }

  00029	5d		 pop	 ebp
  0002a	c3		 ret	 0
$LN7@Allocate_m:

; 142  :     _STL_VERIFY(_Ptr_container != 0, "invalid argument"); // validate even in release since we're doing p[-1]

  0002b	e9 00 00 00 00	 jmp	 __invalid_parameter_noinfo_noreturn
??$_Allocate_manually_vector_aligned@U_Default_allocate_traits@std@@@std@@YAPAXI@Z ENDP ; std::_Allocate_manually_vector_aligned<std::_Default_allocate_traits>
_TEXT	ENDS
; Function compile flags: /Ogtp
; File C:\Program Files (x86)\Microsoft Visual Studio\2019\Professional\VC\Tools\MSVC\14.29.30133\include\xstring
; File C:\Program Files (x86)\Microsoft Visual Studio\2019\Professional\VC\Tools\MSVC\14.29.30133\include\utility
; File C:\Program Files (x86)\Microsoft Visual Studio\2019\Professional\VC\Tools\MSVC\14.29.30133\include\xstring
; File C:\Program Files (x86)\Microsoft Visual Studio\2019\Professional\VC\Tools\MSVC\14.29.30133\include\utility
; File C:\Program Files (x86)\Microsoft Visual Studio\2019\Professional\VC\Tools\MSVC\14.29.30133\include\xstring
;	COMDAT ??$_Traits_compare@U?$char_traits@D@std@@@std@@YAHQBDI0I@Z
_TEXT	SEGMENT
__Left$ = 8						; size = 4
__Left_size$ = 12					; size = 4
__Right$ = 16						; size = 4
__Right_size$ = 20					; size = 4
??$_Traits_compare@U?$char_traits@D@std@@@std@@YAHQBDI0I@Z PROC ; std::_Traits_compare<std::char_traits<char> >, COMDAT

; 588  :     _In_reads_(_Right_size) const _Traits_ptr_t<_Traits> _Right, const size_t _Right_size) noexcept {

  00000	55		 push	 ebp
  00001	8b ec		 mov	 ebp, esp

; 392  :         return _CSTD memcmp(_First1, _First2, _Count);

  00003	8b 55 08	 mov	 edx, DWORD PTR __Left$[ebp]

; 588  :     _In_reads_(_Right_size) const _Traits_ptr_t<_Traits> _Right, const size_t _Right_size) noexcept {

  00006	53		 push	 ebx
; File C:\Program Files (x86)\Microsoft Visual Studio\2019\Professional\VC\Tools\MSVC\14.29.30133\include\utility

; 68   :     return _Right < _Left ? _Right : _Left;

  00007	8b 5d 14	 mov	 ebx, DWORD PTR __Right_size$[ebp]
; File C:\Program Files (x86)\Microsoft Visual Studio\2019\Professional\VC\Tools\MSVC\14.29.30133\include\xstring

; 588  :     _In_reads_(_Right_size) const _Traits_ptr_t<_Traits> _Right, const size_t _Right_size) noexcept {

  0000a	56		 push	 esi

; 392  :         return _CSTD memcmp(_First1, _First2, _Count);

  0000b	8b 75 10	 mov	 esi, DWORD PTR __Right$[ebp]

; 588  :     _In_reads_(_Right_size) const _Traits_ptr_t<_Traits> _Right, const size_t _Right_size) noexcept {

  0000e	57		 push	 edi
; File C:\Program Files (x86)\Microsoft Visual Studio\2019\Professional\VC\Tools\MSVC\14.29.30133\include\utility

; 68   :     return _Right < _Left ? _Right : _Left;

  0000f	8b 7d 0c	 mov	 edi, DWORD PTR __Left_size$[ebp]
  00012	3b df		 cmp	 ebx, edi
  00014	8b cf		 mov	 ecx, edi
  00016	0f 42 cb	 cmovb	 ecx, ebx
; File C:\Program Files (x86)\Microsoft Visual Studio\2019\Professional\VC\Tools\MSVC\14.29.30133\include\xstring

; 392  :         return _CSTD memcmp(_First1, _First2, _Count);

  00019	83 e9 04	 sub	 ecx, 4
  0001c	72 13		 jb	 SHORT $LN12@Traits_com
  0001e	66 90		 npad	 2
$LL13@Traits_com:
  00020	8b 02		 mov	 eax, DWORD PTR [edx]
  00022	3b 06		 cmp	 eax, DWORD PTR [esi]
  00024	75 10		 jne	 SHORT $LN11@Traits_com
  00026	83 c2 04	 add	 edx, 4
  00029	83 c6 04	 add	 esi, 4
  0002c	83 e9 04	 sub	 ecx, 4
  0002f	73 ef		 jae	 SHORT $LL13@Traits_com
$LN12@Traits_com:
  00031	83 f9 fc	 cmp	 ecx, -4			; fffffffcH
  00034	74 34		 je	 SHORT $LN10@Traits_com
$LN11@Traits_com:
  00036	8a 02		 mov	 al, BYTE PTR [edx]
  00038	3a 06		 cmp	 al, BYTE PTR [esi]
  0003a	75 27		 jne	 SHORT $LN14@Traits_com
  0003c	83 f9 fd	 cmp	 ecx, -3			; fffffffdH
  0003f	74 29		 je	 SHORT $LN10@Traits_com
  00041	8a 42 01	 mov	 al, BYTE PTR [edx+1]
  00044	3a 46 01	 cmp	 al, BYTE PTR [esi+1]
  00047	75 1a		 jne	 SHORT $LN14@Traits_com
  00049	83 f9 fe	 cmp	 ecx, -2			; fffffffeH
  0004c	74 1c		 je	 SHORT $LN10@Traits_com
  0004e	8a 42 02	 mov	 al, BYTE PTR [edx+2]
  00051	3a 46 02	 cmp	 al, BYTE PTR [esi+2]
  00054	75 0d		 jne	 SHORT $LN14@Traits_com
  00056	83 f9 ff	 cmp	 ecx, -1
  00059	74 0f		 je	 SHORT $LN10@Traits_com
  0005b	8a 42 03	 mov	 al, BYTE PTR [edx+3]
  0005e	3a 46 03	 cmp	 al, BYTE PTR [esi+3]
  00061	74 07		 je	 SHORT $LN10@Traits_com
$LN14@Traits_com:
  00063	1b c0		 sbb	 eax, eax
  00065	83 c8 01	 or	 eax, 1
  00068	eb 02		 jmp	 SHORT $LN15@Traits_com
$LN10@Traits_com:
  0006a	33 c0		 xor	 eax, eax
$LN15@Traits_com:

; 589  :     // compare [_Left, _Left + _Left_size) to [_Right, _Right + _Right_size) using _Traits
; 590  :     const int _Ans = _Traits::compare(_Left, _Right, (_STD min)(_Left_size, _Right_size));
; 591  : 
; 592  :     if (_Ans != 0) {

  0006c	85 c0		 test	 eax, eax
  0006e	75 10		 jne	 SHORT $LN4@Traits_com

; 593  :         return _Ans;
; 594  :     }
; 595  : 
; 596  :     if (_Left_size < _Right_size) {

  00070	3b df		 cmp	 ebx, edi
  00072	76 08		 jbe	 SHORT $LN16@Traits_com

; 601  :         return 1;
; 602  :     }
; 603  : 
; 604  :     return 0;
; 605  : }

  00074	5f		 pop	 edi
  00075	5e		 pop	 esi
  00076	83 c8 ff	 or	 eax, -1
  00079	5b		 pop	 ebx
  0007a	5d		 pop	 ebp
  0007b	c3		 ret	 0
$LN16@Traits_com:

; 597  :         return -1;
; 598  :     }
; 599  : 
; 600  :     if (_Left_size > _Right_size) {

  0007c	1b c0		 sbb	 eax, eax
  0007e	f7 d8		 neg	 eax
$LN4@Traits_com:

; 601  :         return 1;
; 602  :     }
; 603  : 
; 604  :     return 0;
; 605  : }

  00080	5f		 pop	 edi
  00081	5e		 pop	 esi
  00082	5b		 pop	 ebx
  00083	5d		 pop	 ebp
  00084	c3		 ret	 0
??$_Traits_compare@U?$char_traits@D@std@@@std@@YAHQBDI0I@Z ENDP ; std::_Traits_compare<std::char_traits<char> >
_TEXT	ENDS
; Function compile flags: /Ogtp
; File C:\Program Files (x86)\Microsoft Visual Studio\2019\Professional\VC\Tools\MSVC\14.29.30133\include\vector
; File C:\Program Files (x86)\Microsoft Visual Studio\2019\Professional\VC\Tools\MSVC\14.29.30133\include\xmemory
; File C:\Program Files (x86)\Microsoft Visual Studio\2019\Professional\VC\Tools\MSVC\14.29.30133\include\xstring
; File C:\Program Files (x86)\Microsoft Visual Studio\2019\Professional\VC\Tools\MSVC\14.29.30133\include\xmemory
; File C:\Program Files (x86)\Microsoft Visual Studio\2019\Professional\VC\Tools\MSVC\14.29.30133\include\xstring
; File C:\Program Files (x86)\Microsoft Visual Studio\2019\Professional\VC\Tools\MSVC\14.29.30133\include\xmemory
; File C:\Program Files (x86)\Microsoft Visual Studio\2019\Professional\VC\Tools\MSVC\14.29.30133\include\xstring
; File C:\Program Files (x86)\Microsoft Visual Studio\2019\Professional\VC\Tools\MSVC\14.29.30133\include\xmemory
; File C:\Program Files (x86)\Microsoft Visual Studio\2019\Professional\VC\Tools\MSVC\14.29.30133\include\vector
; File C:\Program Files (x86)\Microsoft Visual Studio\2019\Professional\VC\Tools\MSVC\14.29.30133\include\xmemory
; File C:\Program Files (x86)\Microsoft Visual Studio\2019\Professional\VC\Tools\MSVC\14.29.30133\include\vector
; File C:\Program Files (x86)\Microsoft Visual Studio\2019\Professional\VC\Tools\MSVC\14.29.30133\include\xmemory
; File C:\Program Files (x86)\Microsoft Visual Studio\2019\Professional\VC\Tools\MSVC\14.29.30133\include\vector
; File C:\Program Files (x86)\Microsoft Visual Studio\2019\Professional\VC\Tools\MSVC\14.29.30133\include\xmemory
; File C:\Program Files (x86)\Microsoft Visual Studio\2019\Professional\VC\Tools\MSVC\14.29.30133\include\vector
; File C:\Program Files (x86)\Microsoft Visual Studio\2019\Professional\VC\Tools\MSVC\14.29.30133\include\xmemory
; File C:\Program Files (x86)\Microsoft Visual Studio\2019\Professional\VC\Tools\MSVC\14.29.30133\include\vector
;	COMDAT ??1?$vector@V?$basic_string@DU?$char_traits@D@std@@V?$allocator@D@2@@std@@V?$allocator@V?$basic_string@DU?$char_traits@D@std@@V?$allocator@D@2@@std@@@2@@std@@QAE@XZ
_TEXT	SEGMENT
??1?$vector@V?$basic_string@DU?$char_traits@D@std@@V?$allocator@D@2@@std@@V?$allocator@V?$basic_string@DU?$char_traits@D@std@@V?$allocator@D@2@@std@@@2@@std@@QAE@XZ PROC ; std::vector<std::basic_string<char,std::char_traits<char>,std::allocator<char> >,std::allocator<std::basic_string<char,std::char_traits<char>,std::allocator<char> > > >::~vector<std::basic_string<char,std::char_traits<char>,std::allocator<char> >,std::allocator<std::basic_string<char,std::char_traits<char>,std::allocator<char> > > >, COMDAT
; _this$ = ecx

; 711  :     _CONSTEXPR20_CONTAINER ~vector() noexcept {

  00000	56		 push	 esi
  00001	57		 push	 edi
  00002	8b f9		 mov	 edi, ecx

; 1763 :         if (_Myfirst) { // destroy and deallocate old array

  00004	8b 37		 mov	 esi, DWORD PTR [edi]
  00006	85 f6		 test	 esi, esi
  00008	0f 84 a5 00 00
	00		 je	 $LN4@vector

; 1764 :             _Destroy(_Myfirst, _Mylast);

  0000e	53		 push	 ebx
  0000f	8b 5f 04	 mov	 ebx, DWORD PTR [edi+4]
; File C:\Program Files (x86)\Microsoft Visual Studio\2019\Professional\VC\Tools\MSVC\14.29.30133\include\xmemory

; 949  :         for (; _First != _Last; ++_First) {

  00012	3b f3		 cmp	 esi, ebx
  00014	74 49		 je	 SHORT $LN10@vector
$LL11@vector:
; File C:\Program Files (x86)\Microsoft Visual Studio\2019\Professional\VC\Tools\MSVC\14.29.30133\include\xstring

; 2319 :         return _BUF_SIZE <= _Myres;

  00016	8b 4e 14	 mov	 ecx, DWORD PTR [esi+20]
  00019	83 f9 10	 cmp	 ecx, 16			; 00000010H

; 4618 :         if (_Mypair._Myval2._Large_string_engaged()) {

  0001c	72 27		 jb	 SHORT $LN30@vector
; File C:\Program Files (x86)\Microsoft Visual Studio\2019\Professional\VC\Tools\MSVC\14.29.30133\include\xmemory

; 835  :         _Deallocate<_New_alignof<_Ty>>(_Ptr, sizeof(_Ty) * _Count);

  0001e	8b 06		 mov	 eax, DWORD PTR [esi]
; File C:\Program Files (x86)\Microsoft Visual Studio\2019\Professional\VC\Tools\MSVC\14.29.30133\include\xstring

; 4622 :             _Al.deallocate(_Ptr, _Mypair._Myval2._Myres + 1);

  00020	41		 inc	 ecx
; File C:\Program Files (x86)\Microsoft Visual Studio\2019\Professional\VC\Tools\MSVC\14.29.30133\include\xmemory

; 260  :         if (_Bytes >= _Big_allocation_threshold) { // boost the alignment of big allocations to help autovectorization

  00021	81 f9 00 10 00
	00		 cmp	 ecx, 4096		; 00001000H
  00027	72 12		 jb	 SHORT $LN40@vector

; 158  :     const uintptr_t _Ptr_container   = _Ptr_user[-1];

  00029	8b 50 fc	 mov	 edx, DWORD PTR [eax-4]
  0002c	83 c1 23	 add	 ecx, 35			; 00000023H

; 159  : 
; 160  :     // If the following asserts, it likely means that we are performing
; 161  :     // an aligned delete on memory coming from an unaligned allocation.
; 162  :     _STL_ASSERT(_Ptr_user[-2] == _Big_allocation_sentinel, "invalid argument");
; 163  : 
; 164  :     // Extra paranoia on aligned allocation/deallocation; ensure _Ptr_container is
; 165  :     // in range [_Min_back_shift, _Non_user_size]
; 166  : #ifdef _DEBUG
; 167  :     constexpr uintptr_t _Min_back_shift = 2 * sizeof(void*);
; 168  : #else // ^^^ _DEBUG ^^^ // vvv !_DEBUG vvv
; 169  :     constexpr uintptr_t _Min_back_shift = sizeof(void*);
; 170  : #endif // _DEBUG
; 171  :     const uintptr_t _Back_shift = reinterpret_cast<uintptr_t>(_Ptr) - _Ptr_container;

  0002f	2b c2		 sub	 eax, edx

; 172  :     _STL_VERIFY(_Back_shift >= _Min_back_shift && _Back_shift <= _Non_user_size, "invalid argument");

  00031	83 c0 fc	 add	 eax, -4			; fffffffcH
  00034	83 f8 1f	 cmp	 eax, 31			; 0000001fH
  00037	77 7d		 ja	 SHORT $LN61@vector

; 173  :     _Ptr = reinterpret_cast<void*>(_Ptr_container);

  00039	8b c2		 mov	 eax, edx
$LN40@vector:

; 264  :         ::operator delete(_Ptr, _Bytes);

  0003b	51		 push	 ecx
  0003c	50		 push	 eax
  0003d	e8 00 00 00 00	 call	 ??3@YAXPAXI@Z		; operator delete
  00042	83 c4 08	 add	 esp, 8
$LN30@vector:
; File C:\Program Files (x86)\Microsoft Visual Studio\2019\Professional\VC\Tools\MSVC\14.29.30133\include\xstring

; 4633 :             _Mypair._Myval2._Mysize = 0;

  00045	c7 46 10 00 00
	00 00		 mov	 DWORD PTR [esi+16], 0

; 4634 :             _Mypair._Myval2._Myres  = _BUF_SIZE - 1;

  0004c	c7 46 14 0f 00
	00 00		 mov	 DWORD PTR [esi+20], 15	; 0000000fH

; 4635 :             // the _Traits::assign is last so the codegen doesn't think the char write can alias this
; 4636 :             _Traits::assign(_Mypair._Myval2._Bx._Buf[0], _Elem());

  00053	c6 06 00	 mov	 BYTE PTR [esi], 0
; File C:\Program Files (x86)\Microsoft Visual Studio\2019\Professional\VC\Tools\MSVC\14.29.30133\include\xmemory

; 949  :         for (; _First != _Last; ++_First) {

  00056	83 c6 18	 add	 esi, 24			; 00000018H
  00059	3b f3		 cmp	 esi, ebx
  0005b	75 b9		 jne	 SHORT $LL11@vector

; 173  :     _Ptr = reinterpret_cast<void*>(_Ptr_container);

  0005d	8b 37		 mov	 esi, DWORD PTR [edi]
$LN10@vector:
; File C:\Program Files (x86)\Microsoft Visual Studio\2019\Professional\VC\Tools\MSVC\14.29.30133\include\vector

; 1765 :             _Getal().deallocate(_Myfirst, static_cast<size_type>(_Myend - _Myfirst));

  0005f	8b 4f 08	 mov	 ecx, DWORD PTR [edi+8]
  00062	b8 ab aa aa 2a	 mov	 eax, 715827883		; 2aaaaaabH
  00067	2b ce		 sub	 ecx, esi
  00069	f7 e9		 imul	 ecx
; File C:\Program Files (x86)\Microsoft Visual Studio\2019\Professional\VC\Tools\MSVC\14.29.30133\include\xmemory

; 835  :         _Deallocate<_New_alignof<_Ty>>(_Ptr, sizeof(_Ty) * _Count);

  0006b	5b		 pop	 ebx
; File C:\Program Files (x86)\Microsoft Visual Studio\2019\Professional\VC\Tools\MSVC\14.29.30133\include\vector

; 1765 :             _Getal().deallocate(_Myfirst, static_cast<size_type>(_Myend - _Myfirst));

  0006c	c1 fa 02	 sar	 edx, 2
  0006f	8b c2		 mov	 eax, edx
  00071	c1 e8 1f	 shr	 eax, 31			; 0000001fH
  00074	03 c2		 add	 eax, edx
; File C:\Program Files (x86)\Microsoft Visual Studio\2019\Professional\VC\Tools\MSVC\14.29.30133\include\xmemory

; 835  :         _Deallocate<_New_alignof<_Ty>>(_Ptr, sizeof(_Ty) * _Count);

  00076	8d 04 40	 lea	 eax, DWORD PTR [eax+eax*2]
  00079	c1 e0 03	 shl	 eax, 3

; 260  :         if (_Bytes >= _Big_allocation_threshold) { // boost the alignment of big allocations to help autovectorization

  0007c	3d 00 10 00 00	 cmp	 eax, 4096		; 00001000H
  00081	72 12		 jb	 SHORT $LN64@vector

; 158  :     const uintptr_t _Ptr_container   = _Ptr_user[-1];

  00083	8b 4e fc	 mov	 ecx, DWORD PTR [esi-4]
  00086	83 c0 23	 add	 eax, 35			; 00000023H

; 159  : 
; 160  :     // If the following asserts, it likely means that we are performing
; 161  :     // an aligned delete on memory coming from an unaligned allocation.
; 162  :     _STL_ASSERT(_Ptr_user[-2] == _Big_allocation_sentinel, "invalid argument");
; 163  : 
; 164  :     // Extra paranoia on aligned allocation/deallocation; ensure _Ptr_container is
; 165  :     // in range [_Min_back_shift, _Non_user_size]
; 166  : #ifdef _DEBUG
; 167  :     constexpr uintptr_t _Min_back_shift = 2 * sizeof(void*);
; 168  : #else // ^^^ _DEBUG ^^^ // vvv !_DEBUG vvv
; 169  :     constexpr uintptr_t _Min_back_shift = sizeof(void*);
; 170  : #endif // _DEBUG
; 171  :     const uintptr_t _Back_shift = reinterpret_cast<uintptr_t>(_Ptr) - _Ptr_container;

  00089	2b f1		 sub	 esi, ecx

; 172  :     _STL_VERIFY(_Back_shift >= _Min_back_shift && _Back_shift <= _Non_user_size, "invalid argument");

  0008b	83 c6 fc	 add	 esi, -4			; fffffffcH
  0008e	83 fe 1f	 cmp	 esi, 31			; 0000001fH
  00091	77 23		 ja	 SHORT $LN61@vector

; 173  :     _Ptr = reinterpret_cast<void*>(_Ptr_container);

  00093	8b f1		 mov	 esi, ecx
$LN64@vector:

; 264  :         ::operator delete(_Ptr, _Bytes);

  00095	50		 push	 eax
  00096	56		 push	 esi
  00097	e8 00 00 00 00	 call	 ??3@YAXPAXI@Z		; operator delete
; File C:\Program Files (x86)\Microsoft Visual Studio\2019\Professional\VC\Tools\MSVC\14.29.30133\include\vector

; 1767 :             _Myfirst = nullptr;

  0009c	c7 07 00 00 00
	00		 mov	 DWORD PTR [edi], 0
; File C:\Program Files (x86)\Microsoft Visual Studio\2019\Professional\VC\Tools\MSVC\14.29.30133\include\xmemory

; 264  :         ::operator delete(_Ptr, _Bytes);

  000a2	83 c4 08	 add	 esp, 8
; File C:\Program Files (x86)\Microsoft Visual Studio\2019\Professional\VC\Tools\MSVC\14.29.30133\include\vector

; 1768 :             _Mylast  = nullptr;

  000a5	c7 47 04 00 00
	00 00		 mov	 DWORD PTR [edi+4], 0

; 1769 :             _Myend   = nullptr;

  000ac	c7 47 08 00 00
	00 00		 mov	 DWORD PTR [edi+8], 0
$LN4@vector:
  000b3	5f		 pop	 edi

; 717  :     }

  000b4	5e		 pop	 esi
  000b5	c3		 ret	 0
$LN61@vector:
; File C:\Program Files (x86)\Microsoft Visual Studio\2019\Professional\VC\Tools\MSVC\14.29.30133\include\xmemory

; 172  :     _STL_VERIFY(_Back_shift >= _Min_back_shift && _Back_shift <= _Non_user_size, "invalid argument");

  000b6	e8 00 00 00 00	 call	 __invalid_parameter_noinfo_noreturn
$LN72@vector:
  000bb	cc		 int	 3
??1?$vector@V?$basic_string@DU?$char_traits@D@std@@V?$allocator@D@2@@std@@V?$allocator@V?$basic_string@DU?$char_traits@D@std@@V?$allocator@D@2@@std@@@2@@std@@QAE@XZ ENDP ; std::vector<std::basic_string<char,std::char_traits<char>,std::allocator<char> >,std::allocator<std::basic_string<char,std::char_traits<char>,std::allocator<char> > > >::~vector<std::basic_string<char,std::char_traits<char>,std::allocator<char> >,std::allocator<std::basic_string<char,std::char_traits<char>,std::allocator<char> > > >
_TEXT	ENDS
; Function compile flags: /Ogtp
; File C:\Program Files (x86)\Microsoft Visual Studio\2019\Professional\VC\Tools\MSVC\14.29.30133\include\xtree
;	COMDAT ?_Throw_tree_length_error@std@@YAXXZ
_TEXT	SEGMENT
?_Throw_tree_length_error@std@@YAXXZ PROC		; std::_Throw_tree_length_error, COMDAT

; 421  :     _Xlength_error("map/set too long");

  00000	68 00 00 00 00	 push	 OFFSET ??_C@_0BB@GCADKGJO@map?1set?5too?5long@
  00005	e8 00 00 00 00	 call	 ?_Xlength_error@std@@YAXPBD@Z ; std::_Xlength_error
$LN3@Throw_tree:
  0000a	cc		 int	 3
?_Throw_tree_length_error@std@@YAXXZ ENDP		; std::_Throw_tree_length_error
_TEXT	ENDS
; Function compile flags: /Ogtp
; File C:\Program Files (x86)\Microsoft Visual Studio\2019\Professional\VC\Tools\MSVC\14.29.30133\include\xstring
; File C:\Program Files (x86)\Microsoft Visual Studio\2019\Professional\VC\Tools\MSVC\14.29.30133\include\xmemory
; File C:\Program Files (x86)\Microsoft Visual Studio\2019\Professional\VC\Tools\MSVC\14.29.30133\include\xstring
; File C:\Program Files (x86)\Microsoft Visual Studio\2019\Professional\VC\Tools\MSVC\14.29.30133\include\xmemory
; File C:\Program Files (x86)\Microsoft Visual Studio\2019\Professional\VC\Tools\MSVC\14.29.30133\include\xstring
; File C:\Program Files (x86)\Microsoft Visual Studio\2019\Professional\VC\Tools\MSVC\14.29.30133\include\utility
; File C:\Program Files (x86)\Microsoft Visual Studio\2019\Professional\VC\Tools\MSVC\14.29.30133\include\xstring
; File C:\Program Files (x86)\Microsoft Visual Studio\2019\Professional\VC\Tools\MSVC\14.29.30133\include\xmemory
; File C:\Program Files (x86)\Microsoft Visual Studio\2019\Professional\VC\Tools\MSVC\14.29.30133\include\xstring
; File C:\Program Files (x86)\Microsoft Visual Studio\2019\Professional\VC\Tools\MSVC\14.29.30133\include\xmemory
; File C:\Program Files (x86)\Microsoft Visual Studio\2019\Professional\VC\Tools\MSVC\14.29.30133\include\xstring
; File C:\Program Files (x86)\Microsoft Visual Studio\2019\Professional\VC\Tools\MSVC\14.29.30133\include\xmemory
; File C:\Program Files (x86)\Microsoft Visual Studio\2019\Professional\VC\Tools\MSVC\14.29.30133\include\xstring
;	COMDAT ?assign@?$basic_string@DU?$char_traits@D@std@@V?$allocator@D@2@@std@@QAEAAV12@QBDI@Z
_TEXT	SEGMENT
__Old$1$ = -4						; size = 4
__Ptr$ = 8						; size = 4
$T1 = 12						; size = 4
__Count$ = 12						; size = 4
?assign@?$basic_string@DU?$char_traits@D@std@@V?$allocator@D@2@@std@@QAEAAV12@QBDI@Z PROC ; std::basic_string<char,std::char_traits<char>,std::allocator<char> >::assign, COMDAT
; _this$ = ecx

; 3244 :         _In_reads_(_Count) const _Elem* const _Ptr, _CRT_GUARDOVERFLOW const size_type _Count) {

  00000	55		 push	 ebp
  00001	8b ec		 mov	 ebp, esp
  00003	51		 push	 ecx
  00004	53		 push	 ebx

; 3245 :         // assign [_Ptr, _Ptr + _Count)
; 3246 :         if (_Count <= _Mypair._Myval2._Myres) {

  00005	8b 5d 0c	 mov	 ebx, DWORD PTR __Count$[ebp]
  00008	56		 push	 esi
  00009	8b f1		 mov	 esi, ecx
  0000b	57		 push	 edi
  0000c	8b 4e 14	 mov	 ecx, DWORD PTR [esi+20]
  0000f	89 4d fc	 mov	 DWORD PTR __Old$1$[ebp], ecx
  00012	3b d9		 cmp	 ebx, ecx
  00014	77 28		 ja	 SHORT $LN2@assign

; 2296 :         value_type* _Result = _Bx._Buf;

  00016	8b fe		 mov	 edi, esi

; 2319 :         return _BUF_SIZE <= _Myres;

  00018	83 f9 10	 cmp	 ecx, 16			; 00000010H

; 2297 :         if (_Large_string_engaged()) {

  0001b	72 02		 jb	 SHORT $LN5@assign

; 2298 :             _Result = _Unfancy(_Bx._Ptr);

  0001d	8b 3e		 mov	 edi, DWORD PTR [esi]
$LN5@assign:

; 122  :         _CSTD memmove(_First1, _First2, _Count * sizeof(_Elem));

  0001f	53		 push	 ebx
  00020	ff 75 08	 push	 DWORD PTR __Ptr$[ebp]

; 3247 :             _Elem* const _Old_ptr   = _Mypair._Myval2._Myptr();
; 3248 :             _Mypair._Myval2._Mysize = _Count;

  00023	89 5e 10	 mov	 DWORD PTR [esi+16], ebx

; 122  :         _CSTD memmove(_First1, _First2, _Count * sizeof(_Elem));

  00026	57		 push	 edi
  00027	e8 00 00 00 00	 call	 _memmove
  0002c	83 c4 0c	 add	 esp, 12			; 0000000cH

; 3249 :             _Traits::move(_Old_ptr, _Ptr, _Count);
; 3250 :             _Traits::assign(_Old_ptr[_Count], _Elem());

  0002f	c6 04 1f 00	 mov	 BYTE PTR [edi+ebx], 0

; 3259 :             },
; 3260 :             _Ptr);
; 3261 :     }

  00033	8b c6		 mov	 eax, esi
  00035	5f		 pop	 edi
  00036	5e		 pop	 esi
  00037	5b		 pop	 ebx
  00038	8b e5		 mov	 esp, ebp
  0003a	5d		 pop	 ebp
  0003b	c2 08 00	 ret	 8
$LN2@assign:

; 4508 :         if (_New_size > max_size()) {

  0003e	81 fb ff ff ff
	7f		 cmp	 ebx, 2147483647		; 7fffffffH
  00044	0f 87 d4 00 00
	00		 ja	 $LN60@assign

; 4488 :         const size_type _Masked = _Requested | _ALLOC_MASK;

  0004a	8b fb		 mov	 edi, ebx
  0004c	83 cf 0f	 or	 edi, 15			; 0000000fH
  0004f	81 ff ff ff ff
	7f		 cmp	 edi, 2147483647		; 7fffffffH

; 4489 :         if (_Masked > _Max) { // the mask overflows, settle for max_size()

  00055	76 15		 jbe	 SHORT $LN19@assign

; 4490 :             return _Max;

  00057	b8 00 00 00 80	 mov	 eax, -2147483648	; 80000000H
  0005c	bf ff ff ff 7f	 mov	 edi, 2147483647		; 7fffffffH
; File C:\Program Files (x86)\Microsoft Visual Studio\2019\Professional\VC\Tools\MSVC\14.29.30133\include\xmemory

; 238  :             return _Allocate_manually_vector_aligned<_Traits>(_Bytes);

  00061	50		 push	 eax
  00062	e8 00 00 00 00	 call	 ??$_Allocate_manually_vector_aligned@U_Default_allocate_traits@std@@@std@@YAPAXI@Z ; std::_Allocate_manually_vector_aligned<std::_Default_allocate_traits>
  00067	83 c4 04	 add	 esp, 4
  0006a	eb 52		 jmp	 SHORT $LN58@assign
$LN19@assign:
; File C:\Program Files (x86)\Microsoft Visual Studio\2019\Professional\VC\Tools\MSVC\14.29.30133\include\xstring

; 4493 :         if (_Old > _Max - _Old / 2) { // similarly, geometric overflows

  0006c	8b d1		 mov	 edx, ecx
  0006e	b8 ff ff ff 7f	 mov	 eax, 2147483647		; 7fffffffH
  00073	d1 ea		 shr	 edx, 1
  00075	2b c2		 sub	 eax, edx
  00077	3b c8		 cmp	 ecx, eax
  00079	76 15		 jbe	 SHORT $LN20@assign

; 4494 :             return _Max;

  0007b	b8 00 00 00 80	 mov	 eax, -2147483648	; 80000000H
  00080	bf ff ff ff 7f	 mov	 edi, 2147483647		; 7fffffffH
; File C:\Program Files (x86)\Microsoft Visual Studio\2019\Professional\VC\Tools\MSVC\14.29.30133\include\xmemory

; 238  :             return _Allocate_manually_vector_aligned<_Traits>(_Bytes);

  00085	50		 push	 eax
  00086	e8 00 00 00 00	 call	 ??$_Allocate_manually_vector_aligned@U_Default_allocate_traits@std@@@std@@YAPAXI@Z ; std::_Allocate_manually_vector_aligned<std::_Default_allocate_traits>
  0008b	83 c4 04	 add	 esp, 4
  0008e	eb 2e		 jmp	 SHORT $LN58@assign
$LN20@assign:
; File C:\Program Files (x86)\Microsoft Visual Studio\2019\Professional\VC\Tools\MSVC\14.29.30133\include\xstring

; 4497 :         return (_STD max)(_Masked, _Old + _Old / 2);

  00090	8d 04 0a	 lea	 eax, DWORD PTR [edx+ecx]
; File C:\Program Files (x86)\Microsoft Visual Studio\2019\Professional\VC\Tools\MSVC\14.29.30133\include\utility

; 44   :     return _Left < _Right ? _Right : _Left;

  00093	3b f8		 cmp	 edi, eax
  00095	0f 42 f8	 cmovb	 edi, eax
; File C:\Program Files (x86)\Microsoft Visual Studio\2019\Professional\VC\Tools\MSVC\14.29.30133\include\xstring

; 4515 :         const pointer _New_ptr        = _Al.allocate(_New_capacity + 1); // throws

  00098	8d 47 01	 lea	 eax, DWORD PTR [edi+1]
; File C:\Program Files (x86)\Microsoft Visual Studio\2019\Professional\VC\Tools\MSVC\14.29.30133\include\xmemory

; 237  :         if (_Bytes >= _Big_allocation_threshold) { // boost the alignment of big allocations to help autovectorization

  0009b	3d 00 10 00 00	 cmp	 eax, 4096		; 00001000H
  000a0	72 0b		 jb	 SHORT $LN27@assign

; 238  :             return _Allocate_manually_vector_aligned<_Traits>(_Bytes);

  000a2	50		 push	 eax
  000a3	e8 00 00 00 00	 call	 ??$_Allocate_manually_vector_aligned@U_Default_allocate_traits@std@@@std@@YAPAXI@Z ; std::_Allocate_manually_vector_aligned<std::_Default_allocate_traits>
  000a8	83 c4 04	 add	 esp, 4
  000ab	eb 11		 jmp	 SHORT $LN58@assign
$LN27@assign:

; 239  :         }
; 240  :     }
; 241  : #endif // defined(_M_IX86) || defined(_M_X64)
; 242  : 
; 243  :     if (_Bytes != 0) {

  000ad	85 c0		 test	 eax, eax
  000af	74 0b		 je	 SHORT $LN28@assign

; 85   :         return ::operator new(_Bytes);

  000b1	50		 push	 eax
  000b2	e8 00 00 00 00	 call	 ??2@YAPAXI@Z		; operator new
  000b7	83 c4 04	 add	 esp, 4

; 244  :         return _Traits::_Allocate(_Bytes);

  000ba	eb 02		 jmp	 SHORT $LN58@assign
$LN28@assign:

; 245  :     }
; 246  : 
; 247  :     return nullptr;

  000bc	33 c0		 xor	 eax, eax
$LN58@assign:
; File C:\Program Files (x86)\Microsoft Visual Studio\2019\Professional\VC\Tools\MSVC\14.29.30133\include\xstring

; 65   :         _CSTD memcpy(_First1, _First2, _Count * sizeof(_Elem));

  000be	53		 push	 ebx
  000bf	ff 75 08	 push	 DWORD PTR __Ptr$[ebp]

; 4523 :         _Mypair._Myval2._Mysize = _New_size;

  000c2	89 45 0c	 mov	 DWORD PTR $T1[ebp], eax

; 65   :         _CSTD memcpy(_First1, _First2, _Count * sizeof(_Elem));

  000c5	50		 push	 eax

; 4523 :         _Mypair._Myval2._Mysize = _New_size;

  000c6	89 5e 10	 mov	 DWORD PTR [esi+16], ebx

; 4524 :         _Mypair._Myval2._Myres  = _New_capacity;

  000c9	89 7e 14	 mov	 DWORD PTR [esi+20], edi

; 65   :         _CSTD memcpy(_First1, _First2, _Count * sizeof(_Elem));

  000cc	e8 00 00 00 00	 call	 _memcpy

; 3258 :                 _Traits::assign(_New_ptr[_Count], _Elem());

  000d1	8b 7d 0c	 mov	 edi, DWORD PTR $T1[ebp]

; 65   :         _CSTD memcpy(_First1, _First2, _Count * sizeof(_Elem));

  000d4	83 c4 0c	 add	 esp, 12			; 0000000cH

; 4526 :         if (_BUF_SIZE <= _Old_capacity) {

  000d7	8b 45 fc	 mov	 eax, DWORD PTR __Old$1$[ebp]

; 3258 :                 _Traits::assign(_New_ptr[_Count], _Elem());

  000da	c6 04 1f 00	 mov	 BYTE PTR [edi+ebx], 0

; 4526 :         if (_BUF_SIZE <= _Old_capacity) {

  000de	83 f8 10	 cmp	 eax, 16			; 00000010H
  000e1	72 29		 jb	 SHORT $LN13@assign

; 4527 :             _Al.deallocate(_Mypair._Myval2._Bx._Ptr, _Old_capacity + 1);

  000e3	8d 48 01	 lea	 ecx, DWORD PTR [eax+1]
; File C:\Program Files (x86)\Microsoft Visual Studio\2019\Professional\VC\Tools\MSVC\14.29.30133\include\xmemory

; 835  :         _Deallocate<_New_alignof<_Ty>>(_Ptr, sizeof(_Ty) * _Count);

  000e6	8b 06		 mov	 eax, DWORD PTR [esi]

; 260  :         if (_Bytes >= _Big_allocation_threshold) { // boost the alignment of big allocations to help autovectorization

  000e8	81 f9 00 10 00
	00		 cmp	 ecx, 4096		; 00001000H
  000ee	72 12		 jb	 SHORT $LN50@assign

; 158  :     const uintptr_t _Ptr_container   = _Ptr_user[-1];

  000f0	8b 50 fc	 mov	 edx, DWORD PTR [eax-4]
  000f3	83 c1 23	 add	 ecx, 35			; 00000023H

; 159  : 
; 160  :     // If the following asserts, it likely means that we are performing
; 161  :     // an aligned delete on memory coming from an unaligned allocation.
; 162  :     _STL_ASSERT(_Ptr_user[-2] == _Big_allocation_sentinel, "invalid argument");
; 163  : 
; 164  :     // Extra paranoia on aligned allocation/deallocation; ensure _Ptr_container is
; 165  :     // in range [_Min_back_shift, _Non_user_size]
; 166  : #ifdef _DEBUG
; 167  :     constexpr uintptr_t _Min_back_shift = 2 * sizeof(void*);
; 168  : #else // ^^^ _DEBUG ^^^ // vvv !_DEBUG vvv
; 169  :     constexpr uintptr_t _Min_back_shift = sizeof(void*);
; 170  : #endif // _DEBUG
; 171  :     const uintptr_t _Back_shift = reinterpret_cast<uintptr_t>(_Ptr) - _Ptr_container;

  000f6	2b c2		 sub	 eax, edx

; 172  :     _STL_VERIFY(_Back_shift >= _Min_back_shift && _Back_shift <= _Non_user_size, "invalid argument");

  000f8	83 c0 fc	 add	 eax, -4			; fffffffcH
  000fb	83 f8 1f	 cmp	 eax, 31			; 0000001fH
  000fe	77 19		 ja	 SHORT $LN47@assign

; 173  :     _Ptr = reinterpret_cast<void*>(_Ptr_container);

  00100	8b c2		 mov	 eax, edx
$LN50@assign:

; 264  :         ::operator delete(_Ptr, _Bytes);

  00102	51		 push	 ecx
  00103	50		 push	 eax
  00104	e8 00 00 00 00	 call	 ??3@YAXPAXI@Z		; operator delete
  00109	83 c4 08	 add	 esp, 8
$LN13@assign:
; File C:\Program Files (x86)\Microsoft Visual Studio\2019\Professional\VC\Tools\MSVC\14.29.30133\include\xstring

; 3254 :         return _Reallocate_for(

  0010c	89 3e		 mov	 DWORD PTR [esi], edi

; 3259 :             },
; 3260 :             _Ptr);
; 3261 :     }

  0010e	8b c6		 mov	 eax, esi
  00110	5f		 pop	 edi
  00111	5e		 pop	 esi
  00112	5b		 pop	 ebx
  00113	8b e5		 mov	 esp, ebp
  00115	5d		 pop	 ebp
  00116	c2 08 00	 ret	 8
$LN47@assign:
; File C:\Program Files (x86)\Microsoft Visual Studio\2019\Professional\VC\Tools\MSVC\14.29.30133\include\xmemory

; 172  :     _STL_VERIFY(_Back_shift >= _Min_back_shift && _Back_shift <= _Non_user_size, "invalid argument");

  00119	e8 00 00 00 00	 call	 __invalid_parameter_noinfo_noreturn
$LN60@assign:
; File C:\Program Files (x86)\Microsoft Visual Studio\2019\Professional\VC\Tools\MSVC\14.29.30133\include\xstring

; 4509 :             _Xlen_string(); // result too long

  0011e	e8 00 00 00 00	 call	 ?_Xlen_string@std@@YAXXZ ; std::_Xlen_string
$LN56@assign:
  00123	cc		 int	 3
?assign@?$basic_string@DU?$char_traits@D@std@@V?$allocator@D@2@@std@@QAEAAV12@QBDI@Z ENDP ; std::basic_string<char,std::char_traits<char>,std::allocator<char> >::assign
_TEXT	ENDS
; Function compile flags: /Ogtp
; File C:\Program Files (x86)\Microsoft Visual Studio\2019\Professional\VC\Tools\MSVC\14.29.30133\include\xstring
; File C:\Program Files (x86)\Microsoft Visual Studio\2019\Professional\VC\Tools\MSVC\14.29.30133\include\xmemory
; File C:\Program Files (x86)\Microsoft Visual Studio\2019\Professional\VC\Tools\MSVC\14.29.30133\include\xstring
; File C:\Program Files (x86)\Microsoft Visual Studio\2019\Professional\VC\Tools\MSVC\14.29.30133\include\xmemory
; File C:\Program Files (x86)\Microsoft Visual Studio\2019\Professional\VC\Tools\MSVC\14.29.30133\include\xstring
; File C:\Program Files (x86)\Microsoft Visual Studio\2019\Professional\VC\Tools\MSVC\14.29.30133\include\utility
; File C:\Program Files (x86)\Microsoft Visual Studio\2019\Professional\VC\Tools\MSVC\14.29.30133\include\xstring
; File C:\Program Files (x86)\Microsoft Visual Studio\2019\Professional\VC\Tools\MSVC\14.29.30133\include\xmemory
; File C:\Program Files (x86)\Microsoft Visual Studio\2019\Professional\VC\Tools\MSVC\14.29.30133\include\xstring
; File C:\Program Files (x86)\Microsoft Visual Studio\2019\Professional\VC\Tools\MSVC\14.29.30133\include\xmemory
; File C:\Program Files (x86)\Microsoft Visual Studio\2019\Professional\VC\Tools\MSVC\14.29.30133\include\xstring
; File C:\Program Files (x86)\Microsoft Visual Studio\2019\Professional\VC\Tools\MSVC\14.29.30133\include\xmemory
; File C:\Program Files (x86)\Microsoft Visual Studio\2019\Professional\VC\Tools\MSVC\14.29.30133\include\xstring
; File C:\Program Files (x86)\Microsoft Visual Studio\2019\Professional\VC\Tools\MSVC\14.29.30133\include\xmemory
; File C:\Program Files (x86)\Microsoft Visual Studio\2019\Professional\VC\Tools\MSVC\14.29.30133\include\xstring
;	COMDAT ?append@?$basic_string@DU?$char_traits@D@std@@V?$allocator@D@2@@std@@QAEAAV12@QBDI@Z
_TEXT	SEGMENT
tv533 = -12						; size = 4
__Old$1$ = -8						; size = 4
tv534 = -4						; size = 4
__Old_size$1$ = -4					; size = 4
__Ptr$ = 8						; size = 4
tv537 = 12						; size = 4
$T1 = 12						; size = 4
__Count$ = 12						; size = 4
?append@?$basic_string@DU?$char_traits@D@std@@V?$allocator@D@2@@std@@QAEAAV12@QBDI@Z PROC ; std::basic_string<char,std::char_traits<char>,std::allocator<char> >::append, COMDAT
; _this$ = ecx

; 3152 :         _In_reads_(_Count) const _Elem* const _Ptr, _CRT_GUARDOVERFLOW const size_type _Count) {

  00000	55		 push	 ebp
  00001	8b ec		 mov	 ebp, esp
  00003	83 ec 0c	 sub	 esp, 12			; 0000000cH
  00006	53		 push	 ebx

; 3153 :         // append [_Ptr, _Ptr + _Count)
; 3154 :         const size_type _Old_size = _Mypair._Myval2._Mysize;
; 3155 :         if (_Count <= _Mypair._Myval2._Myres - _Old_size) {

  00007	8b 5d 0c	 mov	 ebx, DWORD PTR __Count$[ebp]
  0000a	56		 push	 esi
  0000b	57		 push	 edi
  0000c	8b f9		 mov	 edi, ecx
  0000e	8b 57 14	 mov	 edx, DWORD PTR [edi+20]
  00011	8b c2		 mov	 eax, edx
  00013	8b 4f 10	 mov	 ecx, DWORD PTR [edi+16]
  00016	2b c1		 sub	 eax, ecx
  00018	89 4d fc	 mov	 DWORD PTR __Old_size$1$[ebp], ecx
  0001b	89 55 f8	 mov	 DWORD PTR __Old$1$[ebp], edx
  0001e	3b d8		 cmp	 ebx, eax
  00020	77 2e		 ja	 SHORT $LN2@append

; 3156 :             _Mypair._Myval2._Mysize = _Old_size + _Count;

  00022	8d 04 19	 lea	 eax, DWORD PTR [ecx+ebx]
  00025	89 47 10	 mov	 DWORD PTR [edi+16], eax

; 2296 :         value_type* _Result = _Bx._Buf;

  00028	8b c7		 mov	 eax, edi

; 2319 :         return _BUF_SIZE <= _Myres;

  0002a	83 fa 10	 cmp	 edx, 16			; 00000010H

; 2297 :         if (_Large_string_engaged()) {

  0002d	72 02		 jb	 SHORT $LN5@append

; 2298 :             _Result = _Unfancy(_Bx._Ptr);

  0002f	8b 07		 mov	 eax, DWORD PTR [edi]
$LN5@append:

; 122  :         _CSTD memmove(_First1, _First2, _Count * sizeof(_Elem));

  00031	53		 push	 ebx
  00032	ff 75 08	 push	 DWORD PTR __Ptr$[ebp]

; 3157 :             _Elem* const _Old_ptr   = _Mypair._Myval2._Myptr();
; 3158 :             _Traits::move(_Old_ptr + _Old_size, _Ptr, _Count);

  00035	8d 34 08	 lea	 esi, DWORD PTR [eax+ecx]

; 122  :         _CSTD memmove(_First1, _First2, _Count * sizeof(_Elem));

  00038	56		 push	 esi
  00039	e8 00 00 00 00	 call	 _memmove
  0003e	83 c4 0c	 add	 esp, 12			; 0000000cH

; 3159 :             _Traits::assign(_Old_ptr[_Old_size + _Count], _Elem());

  00041	c6 04 1e 00	 mov	 BYTE PTR [esi+ebx], 0

; 3172 :     }

  00045	8b c7		 mov	 eax, edi
  00047	5f		 pop	 edi
  00048	5e		 pop	 esi
  00049	5b		 pop	 ebx
  0004a	8b e5		 mov	 esp, ebp
  0004c	5d		 pop	 ebp
  0004d	c2 08 00	 ret	 8
$LN2@append:

; 4543 :         if (max_size() - _Old_size < _Size_increase) {

  00050	b8 ff ff ff 7f	 mov	 eax, 2147483647		; 7fffffffH
  00055	2b c1		 sub	 eax, ecx
  00057	3b c3		 cmp	 eax, ebx
  00059	0f 82 26 01 00
	00		 jb	 $LN68@append

; 4545 :         }
; 4546 : 
; 4547 :         const size_type _New_size     = _Old_size + _Size_increase;

  0005f	8d 34 19	 lea	 esi, DWORD PTR [ecx+ebx]

; 4488 :         const size_type _Masked = _Requested | _ALLOC_MASK;

  00062	83 ce 0f	 or	 esi, 15			; 0000000fH
  00065	81 fe ff ff ff
	7f		 cmp	 esi, 2147483647		; 7fffffffH

; 4489 :         if (_Masked > _Max) { // the mask overflows, settle for max_size()

  0006b	76 18		 jbe	 SHORT $LN19@append

; 4490 :             return _Max;

  0006d	b8 00 00 00 80	 mov	 eax, -2147483648	; 80000000H
  00072	be ff ff ff 7f	 mov	 esi, 2147483647		; 7fffffffH
; File C:\Program Files (x86)\Microsoft Visual Studio\2019\Professional\VC\Tools\MSVC\14.29.30133\include\xmemory

; 238  :             return _Allocate_manually_vector_aligned<_Traits>(_Bytes);

  00077	50		 push	 eax
  00078	e8 00 00 00 00	 call	 ??$_Allocate_manually_vector_aligned@U_Default_allocate_traits@std@@@std@@YAPAXI@Z ; std::_Allocate_manually_vector_aligned<std::_Default_allocate_traits>
  0007d	8b 4d fc	 mov	 ecx, DWORD PTR __Old_size$1$[ebp]
  00080	83 c4 04	 add	 esp, 4
  00083	eb 61		 jmp	 SHORT $LN66@append
$LN19@append:
; File C:\Program Files (x86)\Microsoft Visual Studio\2019\Professional\VC\Tools\MSVC\14.29.30133\include\xstring

; 4493 :         if (_Old > _Max - _Old / 2) { // similarly, geometric overflows

  00085	8b c2		 mov	 eax, edx
  00087	d1 e8		 shr	 eax, 1
  00089	89 45 0c	 mov	 DWORD PTR tv537[ebp], eax
  0008c	b8 ff ff ff 7f	 mov	 eax, 2147483647		; 7fffffffH
  00091	2b 45 0c	 sub	 eax, DWORD PTR tv537[ebp]
  00094	3b d0		 cmp	 edx, eax
  00096	76 18		 jbe	 SHORT $LN20@append

; 4494 :             return _Max;

  00098	b8 00 00 00 80	 mov	 eax, -2147483648	; 80000000H
  0009d	be ff ff ff 7f	 mov	 esi, 2147483647		; 7fffffffH
; File C:\Program Files (x86)\Microsoft Visual Studio\2019\Professional\VC\Tools\MSVC\14.29.30133\include\xmemory

; 238  :             return _Allocate_manually_vector_aligned<_Traits>(_Bytes);

  000a2	50		 push	 eax
  000a3	e8 00 00 00 00	 call	 ??$_Allocate_manually_vector_aligned@U_Default_allocate_traits@std@@@std@@YAPAXI@Z ; std::_Allocate_manually_vector_aligned<std::_Default_allocate_traits>
  000a8	8b 4d fc	 mov	 ecx, DWORD PTR __Old_size$1$[ebp]
  000ab	83 c4 04	 add	 esp, 4
  000ae	eb 36		 jmp	 SHORT $LN66@append
$LN20@append:
; File C:\Program Files (x86)\Microsoft Visual Studio\2019\Professional\VC\Tools\MSVC\14.29.30133\include\xstring

; 4497 :         return (_STD max)(_Masked, _Old + _Old / 2);

  000b0	8b 45 0c	 mov	 eax, DWORD PTR tv537[ebp]
  000b3	03 c2		 add	 eax, edx
; File C:\Program Files (x86)\Microsoft Visual Studio\2019\Professional\VC\Tools\MSVC\14.29.30133\include\utility

; 44   :     return _Left < _Right ? _Right : _Left;

  000b5	3b f0		 cmp	 esi, eax
  000b7	0f 42 f0	 cmovb	 esi, eax
; File C:\Program Files (x86)\Microsoft Visual Studio\2019\Professional\VC\Tools\MSVC\14.29.30133\include\xstring

; 4551 :         const pointer _New_ptr        = _Al.allocate(_New_capacity + 1); // throws

  000ba	8d 46 01	 lea	 eax, DWORD PTR [esi+1]
; File C:\Program Files (x86)\Microsoft Visual Studio\2019\Professional\VC\Tools\MSVC\14.29.30133\include\xmemory

; 237  :         if (_Bytes >= _Big_allocation_threshold) { // boost the alignment of big allocations to help autovectorization

  000bd	3d 00 10 00 00	 cmp	 eax, 4096		; 00001000H
  000c2	72 0e		 jb	 SHORT $LN27@append

; 238  :             return _Allocate_manually_vector_aligned<_Traits>(_Bytes);

  000c4	50		 push	 eax
  000c5	e8 00 00 00 00	 call	 ??$_Allocate_manually_vector_aligned@U_Default_allocate_traits@std@@@std@@YAPAXI@Z ; std::_Allocate_manually_vector_aligned<std::_Default_allocate_traits>
  000ca	8b 4d fc	 mov	 ecx, DWORD PTR __Old_size$1$[ebp]
  000cd	83 c4 04	 add	 esp, 4
  000d0	eb 14		 jmp	 SHORT $LN66@append
$LN27@append:

; 239  :         }
; 240  :     }
; 241  : #endif // defined(_M_IX86) || defined(_M_X64)
; 242  : 
; 243  :     if (_Bytes != 0) {

  000d2	85 c0		 test	 eax, eax
  000d4	74 0e		 je	 SHORT $LN28@append

; 85   :         return ::operator new(_Bytes);

  000d6	50		 push	 eax
  000d7	e8 00 00 00 00	 call	 ??2@YAPAXI@Z		; operator new

; 244  :         return _Traits::_Allocate(_Bytes);

  000dc	8b 4d fc	 mov	 ecx, DWORD PTR __Old_size$1$[ebp]

; 85   :         return ::operator new(_Bytes);

  000df	83 c4 04	 add	 esp, 4

; 244  :         return _Traits::_Allocate(_Bytes);

  000e2	eb 02		 jmp	 SHORT $LN66@append
$LN28@append:

; 245  :     }
; 246  : 
; 247  :     return nullptr;

  000e4	33 c0		 xor	 eax, eax
$LN66@append:
; File C:\Program Files (x86)\Microsoft Visual Studio\2019\Professional\VC\Tools\MSVC\14.29.30133\include\xstring

; 4562 :         if (_BUF_SIZE <= _Old_capacity) {

  000e6	83 7d f8 10	 cmp	 DWORD PTR __Old$1$[ebp], 16 ; 00000010H
  000ea	8d 14 19	 lea	 edx, DWORD PTR [ecx+ebx]
  000ed	89 77 14	 mov	 DWORD PTR [edi+20], esi
  000f0	8d 34 08	 lea	 esi, DWORD PTR [eax+ecx]
  000f3	89 57 10	 mov	 DWORD PTR [edi+16], edx
  000f6	8d 14 1e	 lea	 edx, DWORD PTR [esi+ebx]
  000f9	89 45 0c	 mov	 DWORD PTR $T1[ebp], eax
  000fc	89 75 fc	 mov	 DWORD PTR tv534[ebp], esi
  000ff	89 55 f4	 mov	 DWORD PTR tv533[ebp], edx
  00102	51		 push	 ecx
  00103	72 56		 jb	 SHORT $LN13@append

; 4563 :             const pointer _Old_ptr = _My_data._Bx._Ptr;

  00105	8b 37		 mov	 esi, DWORD PTR [edi]

; 65   :         _CSTD memcpy(_First1, _First2, _Count * sizeof(_Elem));

  00107	56		 push	 esi
  00108	50		 push	 eax
  00109	e8 00 00 00 00	 call	 _memcpy
  0010e	53		 push	 ebx
  0010f	ff 75 08	 push	 DWORD PTR __Ptr$[ebp]
  00112	ff 75 fc	 push	 DWORD PTR tv534[ebp]
  00115	e8 00 00 00 00	 call	 _memcpy

; 3169 :                 _Traits::assign(_New_ptr[_Old_size + _Count], _Elem());

  0011a	8b 45 f4	 mov	 eax, DWORD PTR tv533[ebp]

; 65   :         _CSTD memcpy(_First1, _First2, _Count * sizeof(_Elem));

  0011d	83 c4 18	 add	 esp, 24			; 00000018H

; 4565 :             _Al.deallocate(_Old_ptr, _Old_capacity + 1);

  00120	8b 4d f8	 mov	 ecx, DWORD PTR __Old$1$[ebp]
  00123	41		 inc	 ecx

; 3169 :                 _Traits::assign(_New_ptr[_Old_size + _Count], _Elem());

  00124	c6 00 00	 mov	 BYTE PTR [eax], 0
; File C:\Program Files (x86)\Microsoft Visual Studio\2019\Professional\VC\Tools\MSVC\14.29.30133\include\xmemory

; 260  :         if (_Bytes >= _Big_allocation_threshold) { // boost the alignment of big allocations to help autovectorization

  00127	81 f9 00 10 00
	00		 cmp	 ecx, 4096		; 00001000H
  0012d	72 12		 jb	 SHORT $LN52@append

; 158  :     const uintptr_t _Ptr_container   = _Ptr_user[-1];

  0012f	8b 56 fc	 mov	 edx, DWORD PTR [esi-4]
  00132	83 c1 23	 add	 ecx, 35			; 00000023H

; 159  : 
; 160  :     // If the following asserts, it likely means that we are performing
; 161  :     // an aligned delete on memory coming from an unaligned allocation.
; 162  :     _STL_ASSERT(_Ptr_user[-2] == _Big_allocation_sentinel, "invalid argument");
; 163  : 
; 164  :     // Extra paranoia on aligned allocation/deallocation; ensure _Ptr_container is
; 165  :     // in range [_Min_back_shift, _Non_user_size]
; 166  : #ifdef _DEBUG
; 167  :     constexpr uintptr_t _Min_back_shift = 2 * sizeof(void*);
; 168  : #else // ^^^ _DEBUG ^^^ // vvv !_DEBUG vvv
; 169  :     constexpr uintptr_t _Min_back_shift = sizeof(void*);
; 170  : #endif // _DEBUG
; 171  :     const uintptr_t _Back_shift = reinterpret_cast<uintptr_t>(_Ptr) - _Ptr_container;

  00135	2b f2		 sub	 esi, edx

; 172  :     _STL_VERIFY(_Back_shift >= _Min_back_shift && _Back_shift <= _Non_user_size, "invalid argument");

  00137	8d 46 fc	 lea	 eax, DWORD PTR [esi-4]
  0013a	83 f8 1f	 cmp	 eax, 31			; 0000001fH
  0013d	77 4b		 ja	 SHORT $LN49@append

; 173  :     _Ptr = reinterpret_cast<void*>(_Ptr_container);

  0013f	8b f2		 mov	 esi, edx
$LN52@append:

; 264  :         ::operator delete(_Ptr, _Bytes);

  00141	51		 push	 ecx
  00142	56		 push	 esi
  00143	e8 00 00 00 00	 call	 ??3@YAXPAXI@Z		; operator delete
; File C:\Program Files (x86)\Microsoft Visual Studio\2019\Professional\VC\Tools\MSVC\14.29.30133\include\xstring

; 3163 :         return _Reallocate_grow_by(

  00148	8b 45 0c	 mov	 eax, DWORD PTR $T1[ebp]
; File C:\Program Files (x86)\Microsoft Visual Studio\2019\Professional\VC\Tools\MSVC\14.29.30133\include\xmemory

; 264  :         ::operator delete(_Ptr, _Bytes);

  0014b	83 c4 08	 add	 esp, 8
; File C:\Program Files (x86)\Microsoft Visual Studio\2019\Professional\VC\Tools\MSVC\14.29.30133\include\xstring

; 3163 :         return _Reallocate_grow_by(

  0014e	89 07		 mov	 DWORD PTR [edi], eax

; 3172 :     }

  00150	8b c7		 mov	 eax, edi
  00152	5f		 pop	 edi
  00153	5e		 pop	 esi
  00154	5b		 pop	 ebx
  00155	8b e5		 mov	 esp, ebp
  00157	5d		 pop	 ebp
  00158	c2 08 00	 ret	 8
$LN13@append:

; 65   :         _CSTD memcpy(_First1, _First2, _Count * sizeof(_Elem));

  0015b	57		 push	 edi
  0015c	50		 push	 eax
  0015d	e8 00 00 00 00	 call	 _memcpy
  00162	53		 push	 ebx
  00163	ff 75 08	 push	 DWORD PTR __Ptr$[ebp]
  00166	56		 push	 esi
  00167	e8 00 00 00 00	 call	 _memcpy

; 3169 :                 _Traits::assign(_New_ptr[_Old_size + _Count], _Elem());

  0016c	8d 04 1e	 lea	 eax, DWORD PTR [esi+ebx]

; 65   :         _CSTD memcpy(_First1, _First2, _Count * sizeof(_Elem));

  0016f	83 c4 18	 add	 esp, 24			; 00000018H

; 3169 :                 _Traits::assign(_New_ptr[_Old_size + _Count], _Elem());

  00172	c6 00 00	 mov	 BYTE PTR [eax], 0

; 3163 :         return _Reallocate_grow_by(

  00175	8b 45 0c	 mov	 eax, DWORD PTR $T1[ebp]
  00178	89 07		 mov	 DWORD PTR [edi], eax

; 3172 :     }

  0017a	8b c7		 mov	 eax, edi
  0017c	5f		 pop	 edi
  0017d	5e		 pop	 esi
  0017e	5b		 pop	 ebx
  0017f	8b e5		 mov	 esp, ebp
  00181	5d		 pop	 ebp
  00182	c2 08 00	 ret	 8
$LN68@append:

; 4544 :             _Xlen_string(); // result too long

  00185	e8 00 00 00 00	 call	 ?_Xlen_string@std@@YAXXZ ; std::_Xlen_string
$LN49@append:
; File C:\Program Files (x86)\Microsoft Visual Studio\2019\Professional\VC\Tools\MSVC\14.29.30133\include\xmemory

; 172  :     _STL_VERIFY(_Back_shift >= _Min_back_shift && _Back_shift <= _Non_user_size, "invalid argument");

  0018a	e8 00 00 00 00	 call	 __invalid_parameter_noinfo_noreturn
$LN64@append:
  0018f	cc		 int	 3
?append@?$basic_string@DU?$char_traits@D@std@@V?$allocator@D@2@@std@@QAEAAV12@QBDI@Z ENDP ; std::basic_string<char,std::char_traits<char>,std::allocator<char> >::append
_TEXT	ENDS
; Function compile flags: /Ogtp
; File C:\Program Files (x86)\Microsoft Visual Studio\2019\Professional\VC\Tools\MSVC\14.29.30133\include\xstring
;	COMDAT ??4?$basic_string@DU?$char_traits@D@std@@V?$allocator@D@2@@std@@QAEAAV01@ABV01@@Z
_TEXT	SEGMENT
__Right$ = 8						; size = 4
??4?$basic_string@DU?$char_traits@D@std@@V?$allocator@D@2@@std@@QAEAAV01@ABV01@@Z PROC ; std::basic_string<char,std::char_traits<char>,std::allocator<char> >::operator=, COMDAT
; _this$ = ecx

; 3076 :     _CONSTEXPR20_CONTAINER basic_string& operator=(const basic_string& _Right) {

  00000	55		 push	 ebp
  00001	8b ec		 mov	 ebp, esp

; 3077 :         if (this != _STD addressof(_Right)) {

  00003	8b 45 08	 mov	 eax, DWORD PTR __Right$[ebp]
  00006	56		 push	 esi
  00007	8b f1		 mov	 esi, ecx
  00009	3b f0		 cmp	 esi, eax
  0000b	74 15		 je	 SHORT $LN11@operator

; 2319 :         return _BUF_SIZE <= _Myres;

  0000d	83 78 14 10	 cmp	 DWORD PTR [eax+20], 16	; 00000010H

; 2305 :         const value_type* _Result = _Bx._Buf;

  00011	8b c8		 mov	 ecx, eax

; 2306 :         if (_Large_string_engaged()) {

  00013	72 02		 jb	 SHORT $LN7@operator

; 2307 :             _Result = _Unfancy(_Bx._Ptr);

  00015	8b 08		 mov	 ecx, DWORD PTR [eax]
$LN7@operator:

; 3035 :         assign(_Right._Mypair._Myval2._Myptr(), _Right._Mypair._Myval2._Mysize);

  00017	ff 70 10	 push	 DWORD PTR [eax+16]
  0001a	51		 push	 ecx
  0001b	8b ce		 mov	 ecx, esi
  0001d	e8 00 00 00 00	 call	 ?assign@?$basic_string@DU?$char_traits@D@std@@V?$allocator@D@2@@std@@QAEAAV12@QBDI@Z ; std::basic_string<char,std::char_traits<char>,std::allocator<char> >::assign
$LN11@operator:

; 3078 :             _Copy_assign(_Right, _Choose_pocca<_Alty>{});
; 3079 :         }
; 3080 : 
; 3081 :         return *this;
; 3082 :     }

  00022	8b c6		 mov	 eax, esi
  00024	5e		 pop	 esi
  00025	5d		 pop	 ebp
  00026	c2 04 00	 ret	 4
??4?$basic_string@DU?$char_traits@D@std@@V?$allocator@D@2@@std@@QAEAAV01@ABV01@@Z ENDP ; std::basic_string<char,std::char_traits<char>,std::allocator<char> >::operator=
_TEXT	ENDS
; Function compile flags: /Ogtp
; File C:\Program Files (x86)\Microsoft Visual Studio\2019\Professional\VC\Tools\MSVC\14.29.30133\include\xstring
; File C:\Program Files (x86)\Microsoft Visual Studio\2019\Professional\VC\Tools\MSVC\14.29.30133\include\xmemory
; File C:\Program Files (x86)\Microsoft Visual Studio\2019\Professional\VC\Tools\MSVC\14.29.30133\include\xstring
; File C:\Program Files (x86)\Microsoft Visual Studio\2019\Professional\VC\Tools\MSVC\14.29.30133\include\xmemory
; File C:\Program Files (x86)\Microsoft Visual Studio\2019\Professional\VC\Tools\MSVC\14.29.30133\include\xstring
; File C:\Program Files (x86)\Microsoft Visual Studio\2019\Professional\VC\Tools\MSVC\14.29.30133\include\xmemory
; File C:\Program Files (x86)\Microsoft Visual Studio\2019\Professional\VC\Tools\MSVC\14.29.30133\include\xstring
;	COMDAT ??1?$basic_string@DU?$char_traits@D@std@@V?$allocator@D@2@@std@@QAE@XZ
_TEXT	SEGMENT
??1?$basic_string@DU?$char_traits@D@std@@V?$allocator@D@2@@std@@QAE@XZ PROC ; std::basic_string<char,std::char_traits<char>,std::allocator<char> >::~basic_string<char,std::char_traits<char>,std::allocator<char> >, COMDAT
; _this$ = ecx

; 3002 :     _CONSTEXPR20_CONTAINER ~basic_string() noexcept {

  00000	56		 push	 esi
  00001	8b f1		 mov	 esi, ecx

; 2319 :         return _BUF_SIZE <= _Myres;

  00003	8b 4e 14	 mov	 ecx, DWORD PTR [esi+20]
  00006	83 f9 10	 cmp	 ecx, 16			; 00000010H

; 4618 :         if (_Mypair._Myval2._Large_string_engaged()) {

  00009	72 27		 jb	 SHORT $LN12@basic_stri
; File C:\Program Files (x86)\Microsoft Visual Studio\2019\Professional\VC\Tools\MSVC\14.29.30133\include\xmemory

; 835  :         _Deallocate<_New_alignof<_Ty>>(_Ptr, sizeof(_Ty) * _Count);

  0000b	8b 06		 mov	 eax, DWORD PTR [esi]
; File C:\Program Files (x86)\Microsoft Visual Studio\2019\Professional\VC\Tools\MSVC\14.29.30133\include\xstring

; 4622 :             _Al.deallocate(_Ptr, _Mypair._Myval2._Myres + 1);

  0000d	41		 inc	 ecx
; File C:\Program Files (x86)\Microsoft Visual Studio\2019\Professional\VC\Tools\MSVC\14.29.30133\include\xmemory

; 260  :         if (_Bytes >= _Big_allocation_threshold) { // boost the alignment of big allocations to help autovectorization

  0000e	81 f9 00 10 00
	00		 cmp	 ecx, 4096		; 00001000H
  00014	72 12		 jb	 SHORT $LN22@basic_stri

; 158  :     const uintptr_t _Ptr_container   = _Ptr_user[-1];

  00016	8b 50 fc	 mov	 edx, DWORD PTR [eax-4]
  00019	83 c1 23	 add	 ecx, 35			; 00000023H

; 159  : 
; 160  :     // If the following asserts, it likely means that we are performing
; 161  :     // an aligned delete on memory coming from an unaligned allocation.
; 162  :     _STL_ASSERT(_Ptr_user[-2] == _Big_allocation_sentinel, "invalid argument");
; 163  : 
; 164  :     // Extra paranoia on aligned allocation/deallocation; ensure _Ptr_container is
; 165  :     // in range [_Min_back_shift, _Non_user_size]
; 166  : #ifdef _DEBUG
; 167  :     constexpr uintptr_t _Min_back_shift = 2 * sizeof(void*);
; 168  : #else // ^^^ _DEBUG ^^^ // vvv !_DEBUG vvv
; 169  :     constexpr uintptr_t _Min_back_shift = sizeof(void*);
; 170  : #endif // _DEBUG
; 171  :     const uintptr_t _Back_shift = reinterpret_cast<uintptr_t>(_Ptr) - _Ptr_container;

  0001c	2b c2		 sub	 eax, edx

; 172  :     _STL_VERIFY(_Back_shift >= _Min_back_shift && _Back_shift <= _Non_user_size, "invalid argument");

  0001e	83 c0 fc	 add	 eax, -4			; fffffffcH
  00021	83 f8 1f	 cmp	 eax, 31			; 0000001fH
  00024	77 1f		 ja	 SHORT $LN19@basic_stri

; 173  :     _Ptr = reinterpret_cast<void*>(_Ptr_container);

  00026	8b c2		 mov	 eax, edx
$LN22@basic_stri:

; 264  :         ::operator delete(_Ptr, _Bytes);

  00028	51		 push	 ecx
  00029	50		 push	 eax
  0002a	e8 00 00 00 00	 call	 ??3@YAXPAXI@Z		; operator delete
  0002f	83 c4 08	 add	 esp, 8
$LN12@basic_stri:
; File C:\Program Files (x86)\Microsoft Visual Studio\2019\Professional\VC\Tools\MSVC\14.29.30133\include\xstring

; 4633 :             _Mypair._Myval2._Mysize = 0;

  00032	c7 46 10 00 00
	00 00		 mov	 DWORD PTR [esi+16], 0

; 4634 :             _Mypair._Myval2._Myres  = _BUF_SIZE - 1;

  00039	c7 46 14 0f 00
	00 00		 mov	 DWORD PTR [esi+20], 15	; 0000000fH

; 4635 :             // the _Traits::assign is last so the codegen doesn't think the char write can alias this
; 4636 :             _Traits::assign(_Mypair._Myval2._Bx._Buf[0], _Elem());

  00040	c6 06 00	 mov	 BYTE PTR [esi], 0
  00043	5e		 pop	 esi

; 3010 :     }

  00044	c3		 ret	 0
$LN19@basic_stri:
; File C:\Program Files (x86)\Microsoft Visual Studio\2019\Professional\VC\Tools\MSVC\14.29.30133\include\xmemory

; 172  :     _STL_VERIFY(_Back_shift >= _Min_back_shift && _Back_shift <= _Non_user_size, "invalid argument");

  00045	e8 00 00 00 00	 call	 __invalid_parameter_noinfo_noreturn
$LN27@basic_stri:
  0004a	cc		 int	 3
??1?$basic_string@DU?$char_traits@D@std@@V?$allocator@D@2@@std@@QAE@XZ ENDP ; std::basic_string<char,std::char_traits<char>,std::allocator<char> >::~basic_string<char,std::char_traits<char>,std::allocator<char> >
_TEXT	ENDS
; Function compile flags: /Ogtp
; File C:\Program Files (x86)\Microsoft Visual Studio\2019\Professional\VC\Tools\MSVC\14.29.30133\include\xstring
; File C:\Program Files (x86)\Microsoft Visual Studio\2019\Professional\VC\Tools\MSVC\14.29.30133\include\xmemory
; File C:\Program Files (x86)\Microsoft Visual Studio\2019\Professional\VC\Tools\MSVC\14.29.30133\include\xstring
; File C:\Program Files (x86)\Microsoft Visual Studio\2019\Professional\VC\Tools\MSVC\14.29.30133\include\xmemory
; File C:\Program Files (x86)\Microsoft Visual Studio\2019\Professional\VC\Tools\MSVC\14.29.30133\include\xstring
; File C:\Program Files (x86)\Microsoft Visual Studio\2019\Professional\VC\Tools\MSVC\14.29.30133\include\xmemory
; File C:\Program Files (x86)\Microsoft Visual Studio\2019\Professional\VC\Tools\MSVC\14.29.30133\include\xstring
;	COMDAT ??4?$basic_string@DU?$char_traits@D@std@@V?$allocator@D@2@@std@@QAEAAV01@$$QAV01@@Z
_TEXT	SEGMENT
__Right$ = 8						; size = 4
??4?$basic_string@DU?$char_traits@D@std@@V?$allocator@D@2@@std@@QAEAAV01@$$QAV01@@Z PROC ; std::basic_string<char,std::char_traits<char>,std::allocator<char> >::operator=, COMDAT
; _this$ = ecx

; 2849 :         noexcept(_Move_assign(_Right, _Choose_pocma<_Alty>{}))) {

  00000	55		 push	 ebp
  00001	8b ec		 mov	 ebp, esp
  00003	56		 push	 esi
  00004	57		 push	 edi

; 2850 :         if (this != _STD addressof(_Right)) {

  00005	8b 7d 08	 mov	 edi, DWORD PTR __Right$[ebp]
  00008	8b f1		 mov	 esi, ecx
  0000a	3b f7		 cmp	 esi, edi
  0000c	74 61		 je	 SHORT $LN43@operator

; 2319 :         return _BUF_SIZE <= _Myres;

  0000e	8b 4e 14	 mov	 ecx, DWORD PTR [esi+20]
  00011	83 f9 10	 cmp	 ecx, 16			; 00000010H

; 4618 :         if (_Mypair._Myval2._Large_string_engaged()) {

  00014	72 27		 jb	 SHORT $LN15@operator
; File C:\Program Files (x86)\Microsoft Visual Studio\2019\Professional\VC\Tools\MSVC\14.29.30133\include\xmemory

; 835  :         _Deallocate<_New_alignof<_Ty>>(_Ptr, sizeof(_Ty) * _Count);

  00016	8b 06		 mov	 eax, DWORD PTR [esi]
; File C:\Program Files (x86)\Microsoft Visual Studio\2019\Professional\VC\Tools\MSVC\14.29.30133\include\xstring

; 4622 :             _Al.deallocate(_Ptr, _Mypair._Myval2._Myres + 1);

  00018	41		 inc	 ecx
; File C:\Program Files (x86)\Microsoft Visual Studio\2019\Professional\VC\Tools\MSVC\14.29.30133\include\xmemory

; 260  :         if (_Bytes >= _Big_allocation_threshold) { // boost the alignment of big allocations to help autovectorization

  00019	81 f9 00 10 00
	00		 cmp	 ecx, 4096		; 00001000H
  0001f	72 12		 jb	 SHORT $LN25@operator

; 158  :     const uintptr_t _Ptr_container   = _Ptr_user[-1];

  00021	8b 50 fc	 mov	 edx, DWORD PTR [eax-4]
  00024	83 c1 23	 add	 ecx, 35			; 00000023H

; 159  : 
; 160  :     // If the following asserts, it likely means that we are performing
; 161  :     // an aligned delete on memory coming from an unaligned allocation.
; 162  :     _STL_ASSERT(_Ptr_user[-2] == _Big_allocation_sentinel, "invalid argument");
; 163  : 
; 164  :     // Extra paranoia on aligned allocation/deallocation; ensure _Ptr_container is
; 165  :     // in range [_Min_back_shift, _Non_user_size]
; 166  : #ifdef _DEBUG
; 167  :     constexpr uintptr_t _Min_back_shift = 2 * sizeof(void*);
; 168  : #else // ^^^ _DEBUG ^^^ // vvv !_DEBUG vvv
; 169  :     constexpr uintptr_t _Min_back_shift = sizeof(void*);
; 170  : #endif // _DEBUG
; 171  :     const uintptr_t _Back_shift = reinterpret_cast<uintptr_t>(_Ptr) - _Ptr_container;

  00027	2b c2		 sub	 eax, edx

; 172  :     _STL_VERIFY(_Back_shift >= _Min_back_shift && _Back_shift <= _Non_user_size, "invalid argument");

  00029	83 c0 fc	 add	 eax, -4			; fffffffcH
  0002c	83 f8 1f	 cmp	 eax, 31			; 0000001fH
  0002f	77 46		 ja	 SHORT $LN22@operator

; 173  :     _Ptr = reinterpret_cast<void*>(_Ptr_container);

  00031	8b c2		 mov	 eax, edx
$LN25@operator:

; 264  :         ::operator delete(_Ptr, _Bytes);

  00033	51		 push	 ecx
  00034	50		 push	 eax
  00035	e8 00 00 00 00	 call	 ??3@YAXPAXI@Z		; operator delete
  0003a	83 c4 08	 add	 esp, 8
$LN15@operator:
; File C:\Program Files (x86)\Microsoft Visual Studio\2019\Professional\VC\Tools\MSVC\14.29.30133\include\xstring

; 4633 :             _Mypair._Myval2._Mysize = 0;

  0003d	c7 46 10 00 00
	00 00		 mov	 DWORD PTR [esi+16], 0

; 4634 :             _Mypair._Myval2._Myres  = _BUF_SIZE - 1;

  00044	c7 46 14 0f 00
	00 00		 mov	 DWORD PTR [esi+20], 15	; 0000000fH

; 4635 :             // the _Traits::assign is last so the codegen doesn't think the char write can alias this
; 4636 :             _Traits::assign(_Mypair._Myval2._Bx._Buf[0], _Elem());

  0004b	c6 06 00	 mov	 BYTE PTR [esi], 0

; 2869 :         _CSTD memcpy(_My_data_mem, _Right_data_mem, _Memcpy_val_size);

  0004e	0f 10 07	 movups	 xmm0, XMMWORD PTR [edi]
  00051	0f 11 06	 movups	 XMMWORD PTR [esi], xmm0
  00054	f3 0f 7e 47 10	 movq	 xmm0, QWORD PTR [edi+16]
  00059	66 0f d6 46 10	 movq	 QWORD PTR [esi+16], xmm0

; 4596 :         _My_data._Mysize = 0;

  0005e	c7 47 10 00 00
	00 00		 mov	 DWORD PTR [edi+16], 0

; 4597 : 
; 4598 : #ifdef __cpp_lib_constexpr_string
; 4599 :         if (_STD is_constant_evaluated()) {
; 4600 :             _My_data._Myres        = _BUF_SIZE; // SSO disabled in constexpr context
; 4601 :             auto& _Al              = _Getal();
; 4602 :             const pointer _New_ptr = _Al.allocate(_BUF_SIZE + 1); // throws
; 4603 :             _My_data._Bx._Ptr      = _New_ptr;
; 4604 : 
; 4605 :             _Elem* const _Raw_new = _Unfancy(_New_ptr);
; 4606 :             _Traits::assign(_Raw_new, _BUF_SIZE + 1, _Elem());
; 4607 :         } else
; 4608 : #endif // __cpp_lib_constexpr_string
; 4609 :         {
; 4610 :             _My_data._Myres = _BUF_SIZE - 1;

  00065	c7 47 14 0f 00
	00 00		 mov	 DWORD PTR [edi+20], 15	; 0000000fH

; 4611 :             // the _Traits::assign is last so the codegen doesn't think the char write can alias this
; 4612 :             _Traits::assign(_My_data._Bx._Buf[0], _Elem());

  0006c	c6 07 00	 mov	 BYTE PTR [edi], 0
$LN43@operator:

; 2851 :             _Move_assign(_Right, _Choose_pocma<_Alty>{});
; 2852 :         }
; 2853 : 
; 2854 :         return *this;

  0006f	5f		 pop	 edi
  00070	8b c6		 mov	 eax, esi
  00072	5e		 pop	 esi

; 2855 :     }

  00073	5d		 pop	 ebp
  00074	c2 04 00	 ret	 4
$LN22@operator:
; File C:\Program Files (x86)\Microsoft Visual Studio\2019\Professional\VC\Tools\MSVC\14.29.30133\include\xmemory

; 172  :     _STL_VERIFY(_Back_shift >= _Min_back_shift && _Back_shift <= _Non_user_size, "invalid argument");

  00077	e8 00 00 00 00	 call	 __invalid_parameter_noinfo_noreturn
$LN45@operator:
  0007c	cc		 int	 3
??4?$basic_string@DU?$char_traits@D@std@@V?$allocator@D@2@@std@@QAEAAV01@$$QAV01@@Z ENDP ; std::basic_string<char,std::char_traits<char>,std::allocator<char> >::operator=
_TEXT	ENDS
; Function compile flags: /Ogtp
; File C:\Program Files (x86)\Microsoft Visual Studio\2019\Professional\VC\Tools\MSVC\14.29.30133\include\xstring
; File C:\Program Files (x86)\Microsoft Visual Studio\2019\Professional\VC\Tools\MSVC\14.29.30133\include\utility
; File C:\Program Files (x86)\Microsoft Visual Studio\2019\Professional\VC\Tools\MSVC\14.29.30133\include\xstring
; File C:\Program Files (x86)\Microsoft Visual Studio\2019\Professional\VC\Tools\MSVC\14.29.30133\include\xmemory
; File C:\Program Files (x86)\Microsoft Visual Studio\2019\Professional\VC\Tools\MSVC\14.29.30133\include\xstring
;	COMDAT ??0?$basic_string@DU?$char_traits@D@std@@V?$allocator@D@2@@std@@QAE@U_String_constructor_concat_tag@1@ABV01@QBDI2I@Z
_TEXT	SEGMENT
__New_size$1$ = -4					; size = 4
___formal$ = 8						; size = 1
__Source_of_al$ = 12					; size = 4
__Left_ptr$ = 16					; size = 4
__Left_size$ = 20					; size = 4
__Right_ptr$ = 24					; size = 4
__Right_size$ = 28					; size = 4
??0?$basic_string@DU?$char_traits@D@std@@V?$allocator@D@2@@std@@QAE@U_String_constructor_concat_tag@1@ABV01@QBDI2I@Z PROC ; std::basic_string<char,std::char_traits<char>,std::allocator<char> >::basic_string<char,std::char_traits<char>,std::allocator<char> >, COMDAT
; _this$ = ecx

; 2631 :             _One_then_variadic_args_t{}, _Alty_traits::select_on_container_copy_construction(_Source_of_al._Getal())) {

  00000	55		 push	 ebp
  00001	8b ec		 mov	 ebp, esp
  00003	51		 push	 ecx

; 2632 :         _STL_INTERNAL_CHECK(_Left_size <= max_size());
; 2633 :         _STL_INTERNAL_CHECK(_Right_size <= max_size());
; 2634 :         _STL_INTERNAL_CHECK(_Right_size <= max_size() - _Left_size);
; 2635 :         const auto _New_size    = static_cast<size_type>(_Left_size + _Right_size);

  00004	8b 55 14	 mov	 edx, DWORD PTR __Left_size$[ebp]
  00007	53		 push	 ebx
  00008	8b d9		 mov	 ebx, ecx
  0000a	8b 4d 1c	 mov	 ecx, DWORD PTR __Right_size$[ebp]
  0000d	56		 push	 esi
  0000e	03 ca		 add	 ecx, edx

; 2636 :         size_type _New_capacity = _BUF_SIZE - 1;

  00010	be 0f 00 00 00	 mov	 esi, 15			; 0000000fH
  00015	89 4d fc	 mov	 DWORD PTR __New_size$1$[ebp], ecx

; 2346 :         _CONSTEXPR20_CONTAINER _Bxty() noexcept : _Ptr() {} // user-provided, for fancy pointers

  00018	c7 03 00 00 00
	00		 mov	 DWORD PTR [ebx], 0

; 2355 :     size_type _Mysize = 0; // current length of string

  0001e	c7 43 10 00 00
	00 00		 mov	 DWORD PTR [ebx+16], 0

; 2356 :     size_type _Myres  = 0; // current storage reserved for string

  00025	c7 43 14 00 00
	00 00		 mov	 DWORD PTR [ebx+20], 0

; 2631 :             _One_then_variadic_args_t{}, _Alty_traits::select_on_container_copy_construction(_Source_of_al._Getal())) {

  0002c	57		 push	 edi

; 2637 :         auto& _My_data          = _Mypair._Myval2;
; 2638 :         _Elem* _Ptr             = _My_data._Bx._Buf;

  0002d	8b fb		 mov	 edi, ebx
  0002f	3b ce		 cmp	 ecx, esi

; 2639 :         auto&& _Alproxy         = _GET_PROXY_ALLOCATOR(_Alty, _Getal());
; 2640 :         _Container_proxy_ptr<_Alty> _Proxy(_Alproxy, _My_data); // throws
; 2641 : 
; 2642 : #ifdef __cpp_lib_constexpr_string
; 2643 :         const bool _Activate_large_mode = _New_capacity < _New_size || _STD is_constant_evaluated();
; 2644 : #else // ^^^ __cpp_lib_constexpr_string / !__cpp_lib_constexpr_string vvv
; 2645 :         const bool _Activate_large_mode = _New_capacity < _New_size;
; 2646 : #endif // __cpp_lib_constexpr_string
; 2647 : 
; 2648 :         if (_Activate_large_mode) {

  00031	76 59		 jbe	 SHORT $LN2@basic_stri

; 4488 :         const size_type _Masked = _Requested | _ALLOC_MASK;

  00033	8b f1		 mov	 esi, ecx
  00035	83 ce 0f	 or	 esi, 15			; 0000000fH
  00038	81 fe ff ff ff
	7f		 cmp	 esi, 2147483647		; 7fffffffH

; 4489 :         if (_Masked > _Max) { // the mask overflows, settle for max_size()

  0003e	76 0a		 jbe	 SHORT $LN15@basic_stri

; 4490 :             return _Max;

  00040	be ff ff ff 7f	 mov	 esi, 2147483647		; 7fffffffH
  00045	8d 46 01	 lea	 eax, DWORD PTR [esi+1]
  00048	eb 14		 jmp	 SHORT $LN32@basic_stri
$LN15@basic_stri:
; File C:\Program Files (x86)\Microsoft Visual Studio\2019\Professional\VC\Tools\MSVC\14.29.30133\include\utility

; 44   :     return _Left < _Right ? _Right : _Left;

  0004a	b8 16 00 00 00	 mov	 eax, 22			; 00000016H
  0004f	3b f0		 cmp	 esi, eax
  00051	0f 42 f0	 cmovb	 esi, eax
; File C:\Program Files (x86)\Microsoft Visual Studio\2019\Professional\VC\Tools\MSVC\14.29.30133\include\xstring

; 2652 :             const pointer _Fancyptr         = _Getal().allocate(_New_capacity + 1); // throws

  00054	8d 46 01	 lea	 eax, DWORD PTR [esi+1]
; File C:\Program Files (x86)\Microsoft Visual Studio\2019\Professional\VC\Tools\MSVC\14.29.30133\include\xmemory

; 237  :         if (_Bytes >= _Big_allocation_threshold) { // boost the alignment of big allocations to help autovectorization

  00057	3d 00 10 00 00	 cmp	 eax, 4096		; 00001000H
  0005c	72 13		 jb	 SHORT $LN23@basic_stri
$LN32@basic_stri:

; 238  :             return _Allocate_manually_vector_aligned<_Traits>(_Bytes);

  0005e	50		 push	 eax
  0005f	e8 00 00 00 00	 call	 ??$_Allocate_manually_vector_aligned@U_Default_allocate_traits@std@@@std@@YAPAXI@Z ; std::_Allocate_manually_vector_aligned<std::_Default_allocate_traits>
  00064	8b 4d fc	 mov	 ecx, DWORD PTR __New_size$1$[ebp]
  00067	83 c4 04	 add	 esp, 4
  0006a	8b 55 14	 mov	 edx, DWORD PTR __Left_size$[ebp]
  0006d	8b f8		 mov	 edi, eax
  0006f	eb 19		 jmp	 SHORT $LN22@basic_stri
$LN23@basic_stri:

; 239  :         }
; 240  :     }
; 241  : #endif // defined(_M_IX86) || defined(_M_X64)
; 242  : 
; 243  :     if (_Bytes != 0) {

  00071	85 c0		 test	 eax, eax
  00073	74 13		 je	 SHORT $LN24@basic_stri

; 85   :         return ::operator new(_Bytes);

  00075	50		 push	 eax
  00076	e8 00 00 00 00	 call	 ??2@YAPAXI@Z		; operator new

; 244  :         return _Traits::_Allocate(_Bytes);

  0007b	8b 4d fc	 mov	 ecx, DWORD PTR __New_size$1$[ebp]

; 85   :         return ::operator new(_Bytes);

  0007e	83 c4 04	 add	 esp, 4

; 244  :         return _Traits::_Allocate(_Bytes);

  00081	8b 55 14	 mov	 edx, DWORD PTR __Left_size$[ebp]
  00084	8b f8		 mov	 edi, eax
  00086	eb 02		 jmp	 SHORT $LN22@basic_stri
$LN24@basic_stri:

; 245  :     }
; 246  : 
; 247  :     return nullptr;

  00088	33 ff		 xor	 edi, edi
$LN22@basic_stri:
; File C:\Program Files (x86)\Microsoft Visual Studio\2019\Professional\VC\Tools\MSVC\14.29.30133\include\xstring

; 2654 :             _Construct_in_place(_My_data._Bx._Ptr, _Fancyptr);

  0008a	89 3b		 mov	 DWORD PTR [ebx], edi
$LN2@basic_stri:

; 65   :         _CSTD memcpy(_First1, _First2, _Count * sizeof(_Elem));

  0008c	52		 push	 edx
  0008d	ff 75 10	 push	 DWORD PTR __Left_ptr$[ebp]

; 2655 :         }
; 2656 : 
; 2657 : #ifdef __cpp_lib_constexpr_string
; 2658 :         if (_STD is_constant_evaluated()) { // Begin the lifetimes of the objects before copying to avoid UB
; 2659 :             _Traits::assign(_Ptr, _New_capacity + 1, _Elem());
; 2660 :         }
; 2661 : #endif // __cpp_lib_constexpr_string
; 2662 : 
; 2663 :         _My_data._Mysize = _New_size;

  00090	89 4b 10	 mov	 DWORD PTR [ebx+16], ecx

; 65   :         _CSTD memcpy(_First1, _First2, _Count * sizeof(_Elem));

  00093	57		 push	 edi

; 2664 :         _My_data._Myres  = _New_capacity;

  00094	89 73 14	 mov	 DWORD PTR [ebx+20], esi

; 65   :         _CSTD memcpy(_First1, _First2, _Count * sizeof(_Elem));

  00097	e8 00 00 00 00	 call	 _memcpy
  0009c	ff 75 1c	 push	 DWORD PTR __Right_size$[ebp]

; 2665 :         _Traits::copy(_Ptr, _Left_ptr, _Left_size);
; 2666 :         _Traits::copy(_Ptr + static_cast<ptrdiff_t>(_Left_size), _Right_ptr, _Right_size);

  0009f	8b 45 14	 mov	 eax, DWORD PTR __Left_size$[ebp]

; 65   :         _CSTD memcpy(_First1, _First2, _Count * sizeof(_Elem));

  000a2	ff 75 18	 push	 DWORD PTR __Right_ptr$[ebp]

; 2665 :         _Traits::copy(_Ptr, _Left_ptr, _Left_size);
; 2666 :         _Traits::copy(_Ptr + static_cast<ptrdiff_t>(_Left_size), _Right_ptr, _Right_size);

  000a5	03 c7		 add	 eax, edi

; 65   :         _CSTD memcpy(_First1, _First2, _Count * sizeof(_Elem));

  000a7	50		 push	 eax
  000a8	e8 00 00 00 00	 call	 _memcpy

; 2667 :         _Traits::assign(_Ptr[_New_size], _Elem());

  000ad	8b 45 fc	 mov	 eax, DWORD PTR __New_size$1$[ebp]

; 65   :         _CSTD memcpy(_First1, _First2, _Count * sizeof(_Elem));

  000b0	83 c4 18	 add	 esp, 24			; 00000018H

; 2667 :         _Traits::assign(_Ptr[_New_size], _Elem());

  000b3	c6 04 07 00	 mov	 BYTE PTR [edi+eax], 0

; 2668 :         _Proxy._Release();
; 2669 :     }

  000b7	8b c3		 mov	 eax, ebx
  000b9	5f		 pop	 edi
  000ba	5e		 pop	 esi
  000bb	5b		 pop	 ebx
  000bc	8b e5		 mov	 esp, ebp
  000be	5d		 pop	 ebp
  000bf	c2 18 00	 ret	 24			; 00000018H
??0?$basic_string@DU?$char_traits@D@std@@V?$allocator@D@2@@std@@QAE@U_String_constructor_concat_tag@1@ABV01@QBDI2I@Z ENDP ; std::basic_string<char,std::char_traits<char>,std::allocator<char> >::basic_string<char,std::char_traits<char>,std::allocator<char> >
_TEXT	ENDS
; Function compile flags: /Ogtp
; File C:\Program Files (x86)\Microsoft Visual Studio\2019\Professional\VC\Tools\MSVC\14.29.30133\include\xstring
;	COMDAT ??0?$basic_string@DU?$char_traits@D@std@@V?$allocator@D@2@@std@@QAE@QBD@Z
_TEXT	SEGMENT
__Ptr$ = 8						; size = 4
??0?$basic_string@DU?$char_traits@D@std@@V?$allocator@D@2@@std@@QAE@QBD@Z PROC ; std::basic_string<char,std::char_traits<char>,std::allocator<char> >::basic_string<char,std::char_traits<char>,std::allocator<char> >, COMDAT
; _this$ = ecx

; 2517 :     _CONSTEXPR20_CONTAINER basic_string(_In_z_ const _Elem* const _Ptr) : _Mypair(_Zero_then_variadic_args_t{}) {

  00000	55		 push	 ebp
  00001	8b ec		 mov	 ebp, esp

; 412  :         return _CSTD strlen(reinterpret_cast<const char*>(_First));

  00003	8b 55 08	 mov	 edx, DWORD PTR __Ptr$[ebp]
  00006	8b c2		 mov	 eax, edx

; 2517 :     _CONSTEXPR20_CONTAINER basic_string(_In_z_ const _Elem* const _Ptr) : _Mypair(_Zero_then_variadic_args_t{}) {

  00008	56		 push	 esi
  00009	8b f1		 mov	 esi, ecx
  0000b	57		 push	 edi

; 412  :         return _CSTD strlen(reinterpret_cast<const char*>(_First));

  0000c	8d 78 01	 lea	 edi, DWORD PTR [eax+1]

; 2346 :         _CONSTEXPR20_CONTAINER _Bxty() noexcept : _Ptr() {} // user-provided, for fancy pointers

  0000f	c7 06 00 00 00
	00		 mov	 DWORD PTR [esi], 0

; 4596 :         _My_data._Mysize = 0;

  00015	c7 46 10 00 00
	00 00		 mov	 DWORD PTR [esi+16], 0

; 4597 : 
; 4598 : #ifdef __cpp_lib_constexpr_string
; 4599 :         if (_STD is_constant_evaluated()) {
; 4600 :             _My_data._Myres        = _BUF_SIZE; // SSO disabled in constexpr context
; 4601 :             auto& _Al              = _Getal();
; 4602 :             const pointer _New_ptr = _Al.allocate(_BUF_SIZE + 1); // throws
; 4603 :             _My_data._Bx._Ptr      = _New_ptr;
; 4604 : 
; 4605 :             _Elem* const _Raw_new = _Unfancy(_New_ptr);
; 4606 :             _Traits::assign(_Raw_new, _BUF_SIZE + 1, _Elem());
; 4607 :         } else
; 4608 : #endif // __cpp_lib_constexpr_string
; 4609 :         {
; 4610 :             _My_data._Myres = _BUF_SIZE - 1;

  0001c	c7 46 14 0f 00
	00 00		 mov	 DWORD PTR [esi+20], 15	; 0000000fH
$LL17@basic_stri:

; 412  :         return _CSTD strlen(reinterpret_cast<const char*>(_First));

  00023	8a 08		 mov	 cl, BYTE PTR [eax]
  00025	40		 inc	 eax
  00026	84 c9		 test	 cl, cl
  00028	75 f9		 jne	 SHORT $LL17@basic_stri
  0002a	2b c7		 sub	 eax, edi

; 3264 :         return assign(_Ptr, _Convert_size<size_type>(_Traits::length(_Ptr)));

  0002c	8b ce		 mov	 ecx, esi
  0002e	50		 push	 eax
  0002f	52		 push	 edx
  00030	e8 00 00 00 00	 call	 ?assign@?$basic_string@DU?$char_traits@D@std@@V?$allocator@D@2@@std@@QAEAAV12@QBDI@Z ; std::basic_string<char,std::char_traits<char>,std::allocator<char> >::assign

; 2518 :         auto&& _Alproxy = _GET_PROXY_ALLOCATOR(_Alty, _Getal());
; 2519 :         _Container_proxy_ptr<_Alty> _Proxy(_Alproxy, _Mypair._Myval2);
; 2520 :         _Tidy_init();
; 2521 :         assign(_Ptr);
; 2522 :         _Proxy._Release();
; 2523 :     }

  00035	5f		 pop	 edi
  00036	8b c6		 mov	 eax, esi
  00038	5e		 pop	 esi
  00039	5d		 pop	 ebp
  0003a	c2 04 00	 ret	 4
??0?$basic_string@DU?$char_traits@D@std@@V?$allocator@D@2@@std@@QAE@QBD@Z ENDP ; std::basic_string<char,std::char_traits<char>,std::allocator<char> >::basic_string<char,std::char_traits<char>,std::allocator<char> >
_TEXT	ENDS
; Function compile flags: /Ogtp
; File C:\Program Files (x86)\Microsoft Visual Studio\2019\Professional\VC\Tools\MSVC\14.29.30133\include\xstring
;	COMDAT ?_Xran@?$_String_val@U?$_Simple_types@D@std@@@std@@SAXXZ
_TEXT	SEGMENT
?_Xran@?$_String_val@U?$_Simple_types@D@std@@@std@@SAXXZ PROC ; std::_String_val<std::_Simple_types<char> >::_Xran, COMDAT

; 2337 :         _Xout_of_range("invalid string position");

  00000	68 00 00 00 00	 push	 OFFSET ??_C@_0BI@CFPLBAOH@invalid?5string?5position@
  00005	e8 00 00 00 00	 call	 ?_Xout_of_range@std@@YAXPBD@Z ; std::_Xout_of_range
$LN3@Xran:
  0000a	cc		 int	 3
?_Xran@?$_String_val@U?$_Simple_types@D@std@@@std@@SAXXZ ENDP ; std::_String_val<std::_Simple_types<char> >::_Xran
_TEXT	ENDS
; Function compile flags: /Ogtp
; File C:\Program Files (x86)\Microsoft Visual Studio\2019\Professional\VC\Tools\MSVC\14.29.30133\include\xstring
;	COMDAT ?_Xlen_string@std@@YAXXZ
_TEXT	SEGMENT
?_Xlen_string@std@@YAXXZ PROC				; std::_Xlen_string, COMDAT

; 2374 :     _Xlength_error("string too long");

  00000	68 00 00 00 00	 push	 OFFSET ??_C@_0BA@JFNIOLAK@string?5too?5long@
  00005	e8 00 00 00 00	 call	 ?_Xlength_error@std@@YAXPBD@Z ; std::_Xlength_error
$LN3@Xlen_strin:
  0000a	cc		 int	 3
?_Xlen_string@std@@YAXXZ ENDP				; std::_Xlen_string
_TEXT	ENDS
; Function compile flags: /Ogtp
; File C:\Program Files (x86)\Microsoft Visual Studio\2019\Professional\VC\Tools\MSVC\14.29.30133\include\exception
;	COMDAT ?_Throw_bad_array_new_length@std@@YAXXZ
_TEXT	SEGMENT
$T1 = -12						; size = 12
?_Throw_bad_array_new_length@std@@YAXXZ PROC		; std::_Throw_bad_array_new_length, COMDAT

; 320  : [[noreturn]] inline void _Throw_bad_array_new_length() {

  00000	55		 push	 ebp
  00001	8b ec		 mov	 ebp, esp
  00003	83 ec 0c	 sub	 esp, 12			; 0000000cH

; 321  :     _THROW(bad_array_new_length{});

  00006	8d 4d f4	 lea	 ecx, DWORD PTR $T1[ebp]
  00009	e8 00 00 00 00	 call	 ??0bad_array_new_length@std@@QAE@XZ ; std::bad_array_new_length::bad_array_new_length
  0000e	68 00 00 00 00	 push	 OFFSET __TI3?AVbad_array_new_length@std@@
  00013	8d 45 f4	 lea	 eax, DWORD PTR $T1[ebp]
  00016	50		 push	 eax
  00017	e8 00 00 00 00	 call	 __CxxThrowException@8
$LN3@Throw_bad_:
  0001c	cc		 int	 3
?_Throw_bad_array_new_length@std@@YAXXZ ENDP		; std::_Throw_bad_array_new_length
_TEXT	ENDS
; Function compile flags: /Ogtp
; File C:\Program Files (x86)\Microsoft Visual Studio\2019\Professional\VC\Tools\MSVC\14.29.30133\include\vcruntime_exception.h
;	COMDAT ??_Gbad_array_new_length@std@@UAEPAXI@Z
_TEXT	SEGMENT
___flags$ = 8						; size = 4
??_Gbad_array_new_length@std@@UAEPAXI@Z PROC		; std::bad_array_new_length::`scalar deleting destructor', COMDAT
; _this$ = ecx
  00000	55		 push	 ebp
  00001	8b ec		 mov	 ebp, esp

; 89   :     {

  00003	56		 push	 esi
  00004	8b f1		 mov	 esi, ecx

; 90   :         __std_exception_destroy(&_Data);

  00006	8d 46 04	 lea	 eax, DWORD PTR [esi+4]
  00009	c7 06 00 00 00
	00		 mov	 DWORD PTR [esi], OFFSET ??_7exception@std@@6B@
  0000f	50		 push	 eax
  00010	e8 00 00 00 00	 call	 ___std_exception_destroy
  00015	83 c4 04	 add	 esp, 4
  00018	f6 45 08 01	 test	 BYTE PTR ___flags$[ebp], 1
  0001c	74 0b		 je	 SHORT $LN12@scalar
  0001e	6a 0c		 push	 12			; 0000000cH
  00020	56		 push	 esi
  00021	e8 00 00 00 00	 call	 ??3@YAXPAXI@Z		; operator delete
  00026	83 c4 08	 add	 esp, 8
$LN12@scalar:
  00029	8b c6		 mov	 eax, esi
  0002b	5e		 pop	 esi
  0002c	5d		 pop	 ebp
  0002d	c2 04 00	 ret	 4
??_Gbad_array_new_length@std@@UAEPAXI@Z ENDP		; std::bad_array_new_length::`scalar deleting destructor'
_TEXT	ENDS
; Function compile flags: /Ogtp
; File C:\Program Files (x86)\Microsoft Visual Studio\2019\Professional\VC\Tools\MSVC\14.29.30133\include\vcruntime_exception.h
;	COMDAT ??0bad_array_new_length@std@@QAE@ABV01@@Z
_TEXT	SEGMENT
___that$ = 8						; size = 4
??0bad_array_new_length@std@@QAE@ABV01@@Z PROC		; std::bad_array_new_length::bad_array_new_length, COMDAT
; _this$ = ecx
  00000	55		 push	 ebp
  00001	8b ec		 mov	 ebp, esp

; 72   :     {

  00003	56		 push	 esi
  00004	8b f1		 mov	 esi, ecx
  00006	0f 57 c0	 xorps	 xmm0, xmm0

; 71   :         : _Data()

  00009	8d 46 04	 lea	 eax, DWORD PTR [esi+4]

; 73   :         __std_exception_copy(&_Other._Data, &_Data);

  0000c	50		 push	 eax
  0000d	c7 06 00 00 00
	00		 mov	 DWORD PTR [esi], OFFSET ??_7exception@std@@6B@
  00013	66 0f d6 00	 movq	 QWORD PTR [eax], xmm0
  00017	8b 45 08	 mov	 eax, DWORD PTR ___that$[ebp]
  0001a	83 c0 04	 add	 eax, 4
  0001d	50		 push	 eax
  0001e	e8 00 00 00 00	 call	 ___std_exception_copy
  00023	83 c4 08	 add	 esp, 8
  00026	c7 06 00 00 00
	00		 mov	 DWORD PTR [esi], OFFSET ??_7bad_array_new_length@std@@6B@
  0002c	8b c6		 mov	 eax, esi
  0002e	5e		 pop	 esi
  0002f	5d		 pop	 ebp
  00030	c2 04 00	 ret	 4
??0bad_array_new_length@std@@QAE@ABV01@@Z ENDP		; std::bad_array_new_length::bad_array_new_length
_TEXT	ENDS
; Function compile flags: /Ogtp
; File C:\Program Files (x86)\Microsoft Visual Studio\2019\Professional\VC\Tools\MSVC\14.29.30133\include\vcruntime_exception.h
;	COMDAT ??1bad_array_new_length@std@@UAE@XZ
_TEXT	SEGMENT
??1bad_array_new_length@std@@UAE@XZ PROC		; std::bad_array_new_length::~bad_array_new_length, COMDAT
; _this$ = ecx

; 90   :         __std_exception_destroy(&_Data);

  00000	8d 41 04	 lea	 eax, DWORD PTR [ecx+4]
  00003	c7 01 00 00 00
	00		 mov	 DWORD PTR [ecx], OFFSET ??_7exception@std@@6B@
  00009	50		 push	 eax
  0000a	e8 00 00 00 00	 call	 ___std_exception_destroy
  0000f	59		 pop	 ecx
  00010	c3		 ret	 0
??1bad_array_new_length@std@@UAE@XZ ENDP		; std::bad_array_new_length::~bad_array_new_length
_TEXT	ENDS
; Function compile flags: /Ogtp
; File C:\Program Files (x86)\Microsoft Visual Studio\2019\Professional\VC\Tools\MSVC\14.29.30133\include\vcruntime_exception.h
;	COMDAT ??0bad_array_new_length@std@@QAE@XZ
_TEXT	SEGMENT
??0bad_array_new_length@std@@QAE@XZ PROC		; std::bad_array_new_length::bad_array_new_length, COMDAT
; _this$ = ecx

; 141  :     {

  00000	0f 57 c0	 xorps	 xmm0, xmm0

; 142  :     }

  00003	8b c1		 mov	 eax, ecx

; 65   :         : _Data()

  00005	66 0f d6 41 04	 movq	 QWORD PTR [ecx+4], xmm0

; 66   :     {
; 67   :         _Data._What = _Message;

  0000a	c7 41 04 00 00
	00 00		 mov	 DWORD PTR [ecx+4], OFFSET ??_C@_0BF@KINCDENJ@bad?5array?5new?5length@

; 141  :     {

  00011	c7 01 00 00 00
	00		 mov	 DWORD PTR [ecx], OFFSET ??_7bad_array_new_length@std@@6B@

; 142  :     }

  00017	c3		 ret	 0
??0bad_array_new_length@std@@QAE@XZ ENDP		; std::bad_array_new_length::bad_array_new_length
_TEXT	ENDS
; Function compile flags: /Ogtp
; File C:\Program Files (x86)\Microsoft Visual Studio\2019\Professional\VC\Tools\MSVC\14.29.30133\include\vcruntime_exception.h
;	COMDAT ??_Gbad_alloc@std@@UAEPAXI@Z
_TEXT	SEGMENT
___flags$ = 8						; size = 4
??_Gbad_alloc@std@@UAEPAXI@Z PROC			; std::bad_alloc::`scalar deleting destructor', COMDAT
; _this$ = ecx
  00000	55		 push	 ebp
  00001	8b ec		 mov	 ebp, esp

; 89   :     {

  00003	56		 push	 esi
  00004	8b f1		 mov	 esi, ecx

; 90   :         __std_exception_destroy(&_Data);

  00006	8d 46 04	 lea	 eax, DWORD PTR [esi+4]
  00009	c7 06 00 00 00
	00		 mov	 DWORD PTR [esi], OFFSET ??_7exception@std@@6B@
  0000f	50		 push	 eax
  00010	e8 00 00 00 00	 call	 ___std_exception_destroy
  00015	83 c4 04	 add	 esp, 4
  00018	f6 45 08 01	 test	 BYTE PTR ___flags$[ebp], 1
  0001c	74 0b		 je	 SHORT $LN9@scalar
  0001e	6a 0c		 push	 12			; 0000000cH
  00020	56		 push	 esi
  00021	e8 00 00 00 00	 call	 ??3@YAXPAXI@Z		; operator delete
  00026	83 c4 08	 add	 esp, 8
$LN9@scalar:
  00029	8b c6		 mov	 eax, esi
  0002b	5e		 pop	 esi
  0002c	5d		 pop	 ebp
  0002d	c2 04 00	 ret	 4
??_Gbad_alloc@std@@UAEPAXI@Z ENDP			; std::bad_alloc::`scalar deleting destructor'
_TEXT	ENDS
; Function compile flags: /Ogtp
; File C:\Program Files (x86)\Microsoft Visual Studio\2019\Professional\VC\Tools\MSVC\14.29.30133\include\vcruntime_exception.h
;	COMDAT ??0bad_alloc@std@@QAE@ABV01@@Z
_TEXT	SEGMENT
___that$ = 8						; size = 4
??0bad_alloc@std@@QAE@ABV01@@Z PROC			; std::bad_alloc::bad_alloc, COMDAT
; _this$ = ecx
  00000	55		 push	 ebp
  00001	8b ec		 mov	 ebp, esp

; 72   :     {

  00003	56		 push	 esi
  00004	8b f1		 mov	 esi, ecx
  00006	0f 57 c0	 xorps	 xmm0, xmm0

; 71   :         : _Data()

  00009	8d 46 04	 lea	 eax, DWORD PTR [esi+4]

; 73   :         __std_exception_copy(&_Other._Data, &_Data);

  0000c	50		 push	 eax
  0000d	c7 06 00 00 00
	00		 mov	 DWORD PTR [esi], OFFSET ??_7exception@std@@6B@
  00013	66 0f d6 00	 movq	 QWORD PTR [eax], xmm0
  00017	8b 45 08	 mov	 eax, DWORD PTR ___that$[ebp]
  0001a	83 c0 04	 add	 eax, 4
  0001d	50		 push	 eax
  0001e	e8 00 00 00 00	 call	 ___std_exception_copy
  00023	83 c4 08	 add	 esp, 8
  00026	c7 06 00 00 00
	00		 mov	 DWORD PTR [esi], OFFSET ??_7bad_alloc@std@@6B@
  0002c	8b c6		 mov	 eax, esi
  0002e	5e		 pop	 esi
  0002f	5d		 pop	 ebp
  00030	c2 04 00	 ret	 4
??0bad_alloc@std@@QAE@ABV01@@Z ENDP			; std::bad_alloc::bad_alloc
_TEXT	ENDS
; Function compile flags: /Ogtp
; File C:\Program Files (x86)\Microsoft Visual Studio\2019\Professional\VC\Tools\MSVC\14.29.30133\include\vcruntime_exception.h
;	COMDAT ??_Gexception@std@@UAEPAXI@Z
_TEXT	SEGMENT
___flags$ = 8						; size = 4
??_Gexception@std@@UAEPAXI@Z PROC			; std::exception::`scalar deleting destructor', COMDAT
; _this$ = ecx
  00000	55		 push	 ebp
  00001	8b ec		 mov	 ebp, esp

; 89   :     {

  00003	56		 push	 esi
  00004	8b f1		 mov	 esi, ecx

; 90   :         __std_exception_destroy(&_Data);

  00006	8d 46 04	 lea	 eax, DWORD PTR [esi+4]
  00009	c7 06 00 00 00
	00		 mov	 DWORD PTR [esi], OFFSET ??_7exception@std@@6B@
  0000f	50		 push	 eax
  00010	e8 00 00 00 00	 call	 ___std_exception_destroy
  00015	83 c4 04	 add	 esp, 4
  00018	f6 45 08 01	 test	 BYTE PTR ___flags$[ebp], 1
  0001c	74 0b		 je	 SHORT $LN6@scalar
  0001e	6a 0c		 push	 12			; 0000000cH
  00020	56		 push	 esi
  00021	e8 00 00 00 00	 call	 ??3@YAXPAXI@Z		; operator delete
  00026	83 c4 08	 add	 esp, 8
$LN6@scalar:
  00029	8b c6		 mov	 eax, esi
  0002b	5e		 pop	 esi
  0002c	5d		 pop	 ebp
  0002d	c2 04 00	 ret	 4
??_Gexception@std@@UAEPAXI@Z ENDP			; std::exception::`scalar deleting destructor'
_TEXT	ENDS
; Function compile flags: /Ogtp
; File C:\Program Files (x86)\Microsoft Visual Studio\2019\Professional\VC\Tools\MSVC\14.29.30133\include\vcruntime_exception.h
;	COMDAT ?what@exception@std@@UBEPBDXZ
_TEXT	SEGMENT
?what@exception@std@@UBEPBDXZ PROC			; std::exception::what, COMDAT
; _this$ = ecx

; 95   :         return _Data._What ? _Data._What : "Unknown exception";

  00000	8b 49 04	 mov	 ecx, DWORD PTR [ecx+4]
  00003	b8 00 00 00 00	 mov	 eax, OFFSET ??_C@_0BC@EOODALEL@Unknown?5exception@
  00008	85 c9		 test	 ecx, ecx
  0000a	0f 45 c1	 cmovne	 eax, ecx

; 96   :     }

  0000d	c3		 ret	 0
?what@exception@std@@UBEPBDXZ ENDP			; std::exception::what
_TEXT	ENDS
; Function compile flags: /Ogtp
; File C:\Program Files (x86)\Microsoft Visual Studio\2019\Professional\VC\Tools\MSVC\14.29.30133\include\vcruntime_exception.h
;	COMDAT ??1exception@std@@UAE@XZ
_TEXT	SEGMENT
??1exception@std@@UAE@XZ PROC				; std::exception::~exception, COMDAT
; _this$ = ecx

; 90   :         __std_exception_destroy(&_Data);

  00000	8d 41 04	 lea	 eax, DWORD PTR [ecx+4]
  00003	c7 01 00 00 00
	00		 mov	 DWORD PTR [ecx], OFFSET ??_7exception@std@@6B@
  00009	50		 push	 eax
  0000a	e8 00 00 00 00	 call	 ___std_exception_destroy
  0000f	59		 pop	 ecx

; 91   :     }

  00010	c3		 ret	 0
??1exception@std@@UAE@XZ ENDP				; std::exception::~exception
_TEXT	ENDS
; Function compile flags: /Ogtp
; File C:\Program Files (x86)\Microsoft Visual Studio\2019\Professional\VC\Tools\MSVC\14.29.30133\include\vcruntime_exception.h
;	COMDAT ??0exception@std@@QAE@ABV01@@Z
_TEXT	SEGMENT
__Other$ = 8						; size = 4
??0exception@std@@QAE@ABV01@@Z PROC			; std::exception::exception, COMDAT
; _this$ = ecx

; 72   :     {

  00000	55		 push	 ebp
  00001	8b ec		 mov	 ebp, esp
  00003	56		 push	 esi
  00004	8b f1		 mov	 esi, ecx
  00006	0f 57 c0	 xorps	 xmm0, xmm0
  00009	8d 46 04	 lea	 eax, DWORD PTR [esi+4]

; 73   :         __std_exception_copy(&_Other._Data, &_Data);

  0000c	50		 push	 eax
  0000d	c7 06 00 00 00
	00		 mov	 DWORD PTR [esi], OFFSET ??_7exception@std@@6B@
  00013	66 0f d6 00	 movq	 QWORD PTR [eax], xmm0
  00017	8b 45 08	 mov	 eax, DWORD PTR __Other$[ebp]
  0001a	83 c0 04	 add	 eax, 4
  0001d	50		 push	 eax
  0001e	e8 00 00 00 00	 call	 ___std_exception_copy
  00023	83 c4 08	 add	 esp, 8

; 74   :     }

  00026	8b c6		 mov	 eax, esi
  00028	5e		 pop	 esi
  00029	5d		 pop	 ebp
  0002a	c2 04 00	 ret	 4
??0exception@std@@QAE@ABV01@@Z ENDP			; std::exception::exception
_TEXT	ENDS
; Function compile flags: /Ogtp
; File C:\Program Files (x86)\Windows Kits\10\Include\10.0.19041.0\ucrt\stdio.h
;	COMDAT __snprintf
_TEXT	SEGMENT
__Buffer$ = 8						; size = 4
__BufferCount$ = 12					; size = 4
__Format$ = 16						; size = 4
__snprintf PROC						; COMDAT

; 1947 :     {

  00000	55		 push	 ebp
  00001	8b ec		 mov	 ebp, esp

; 1392 :         int const _Result = __stdio_common_vsprintf(

  00003	8d 45 14	 lea	 eax, DWORD PTR __Format$[ebp+4]
  00006	50		 push	 eax
  00007	6a 00		 push	 0
  00009	ff 75 10	 push	 DWORD PTR __Format$[ebp]
  0000c	ff 75 0c	 push	 DWORD PTR __BufferCount$[ebp]
  0000f	ff 75 08	 push	 DWORD PTR __Buffer$[ebp]
  00012	e8 00 00 00 00	 call	 ___local_stdio_printf_options
  00017	8b 08		 mov	 ecx, DWORD PTR [eax]
  00019	ff 70 04	 push	 DWORD PTR [eax+4]
  0001c	83 c9 01	 or	 ecx, 1
  0001f	51		 push	 ecx
  00020	e8 00 00 00 00	 call	 ___stdio_common_vsprintf

; 1393 :             _CRT_INTERNAL_LOCAL_PRINTF_OPTIONS | _CRT_INTERNAL_PRINTF_LEGACY_VSPRINTF_NULL_TERMINATION,
; 1394 :             _Buffer, _BufferCount, _Format, _Locale, _ArgList);
; 1395 : 
; 1396 :         return _Result < 0 ? -1 : _Result;

  00025	83 c9 ff	 or	 ecx, -1
  00028	83 c4 1c	 add	 esp, 28			; 0000001cH
  0002b	85 c0		 test	 eax, eax
  0002d	0f 48 c1	 cmovs	 eax, ecx

; 1948 :         int _Result;
; 1949 :         va_list _ArgList;
; 1950 :         __crt_va_start(_ArgList, _Format);
; 1951 :         _Result = _vsnprintf(_Buffer, _BufferCount, _Format, _ArgList);
; 1952 :         __crt_va_end(_ArgList);
; 1953 :         return _Result;
; 1954 :     }

  00030	5d		 pop	 ebp
  00031	c3		 ret	 0
__snprintf ENDP
_TEXT	ENDS
; Function compile flags: /Ogtp
; File C:\Program Files (x86)\Windows Kits\10\Include\10.0.19041.0\ucrt\stdio.h
;	COMDAT _sprintf
_TEXT	SEGMENT
__Buffer$ = 8						; size = 4
__Format$ = 12						; size = 4
_sprintf PROC						; COMDAT

; 1771 :     {

  00000	55		 push	 ebp
  00001	8b ec		 mov	 ebp, esp

; 1392 :         int const _Result = __stdio_common_vsprintf(

  00003	8d 45 10	 lea	 eax, DWORD PTR __Format$[ebp+4]
  00006	50		 push	 eax
  00007	6a 00		 push	 0
  00009	ff 75 0c	 push	 DWORD PTR __Format$[ebp]
  0000c	6a ff		 push	 -1
  0000e	ff 75 08	 push	 DWORD PTR __Buffer$[ebp]
  00011	e8 00 00 00 00	 call	 ___local_stdio_printf_options
  00016	8b 08		 mov	 ecx, DWORD PTR [eax]
  00018	ff 70 04	 push	 DWORD PTR [eax+4]
  0001b	83 c9 01	 or	 ecx, 1
  0001e	51		 push	 ecx
  0001f	e8 00 00 00 00	 call	 ___stdio_common_vsprintf

; 1393 :             _CRT_INTERNAL_LOCAL_PRINTF_OPTIONS | _CRT_INTERNAL_PRINTF_LEGACY_VSPRINTF_NULL_TERMINATION,
; 1394 :             _Buffer, _BufferCount, _Format, _Locale, _ArgList);
; 1395 : 
; 1396 :         return _Result < 0 ? -1 : _Result;

  00024	83 c9 ff	 or	 ecx, -1
  00027	83 c4 1c	 add	 esp, 28			; 0000001cH
  0002a	85 c0		 test	 eax, eax
  0002c	0f 48 c1	 cmovs	 eax, ecx

; 1772 :         int _Result;
; 1773 :         va_list _ArgList;
; 1774 :         __crt_va_start(_ArgList, _Format);
; 1775 : 
; 1776 :         _Result = _vsprintf_l(_Buffer, _Format, NULL, _ArgList);
; 1777 : 
; 1778 :         __crt_va_end(_ArgList);
; 1779 :         return _Result;
; 1780 :     }

  0002f	5d		 pop	 ebp
  00030	c3		 ret	 0
_sprintf ENDP
_TEXT	ENDS
; Function compile flags: /Ogtp
; File C:\Program Files (x86)\Windows Kits\10\Include\10.0.19041.0\ucrt\corecrt_stdio_config.h
;	COMDAT ___local_stdio_printf_options
_TEXT	SEGMENT
___local_stdio_printf_options PROC			; COMDAT

; 91   :         static unsigned __int64 _OptionsStorage;
; 92   :         return &_OptionsStorage;

  00000	b8 00 00 00 00	 mov	 eax, OFFSET ?_OptionsStorage@?1??__local_stdio_printf_options@@9@4_KA ; `__local_stdio_printf_options'::`2'::_OptionsStorage

; 93   :     }

  00005	c3		 ret	 0
___local_stdio_printf_options ENDP
_TEXT	ENDS
END
