; Listing generated by Microsoft (R) Optimizing Compiler Version 19.29.30137.0 

	TITLE	C:\Users\murat\Desktop\Siveps2-1-99-Project\source\client\Client\GameLib\Distribute\MapOutdoorRender.obj
	.686P
	.XMM
	include listing.inc
	.model	flat

INCLUDELIB LIBCMT
INCLUDELIB OLDNAMES

CONST	SEGMENT
??$_Isort_max@PAUTPatchDrawStruct@CMapOutdoor@@@std@@3HB DD 020H ; std::_Isort_max<CMapOutdoor::TPatchDrawStruct *>
?_Fake_alloc@std@@3U_Fake_allocator@1@B	ORG $+1		; std::_Fake_alloc
CONST	ENDS
PUBLIC	??_H@YGXPAXIIP6EPAX0@Z@Z			; `vector constructor iterator'
PUBLIC	??0exception@std@@QAE@ABV01@@Z			; std::exception::exception
PUBLIC	??1exception@std@@UAE@XZ			; std::exception::~exception
PUBLIC	?what@exception@std@@UBEPBDXZ			; std::exception::what
PUBLIC	??_Gexception@std@@UAEPAXI@Z			; std::exception::`scalar deleting destructor'
PUBLIC	??0bad_alloc@std@@QAE@ABV01@@Z			; std::bad_alloc::bad_alloc
PUBLIC	??_Gbad_alloc@std@@UAEPAXI@Z			; std::bad_alloc::`scalar deleting destructor'
PUBLIC	??0bad_array_new_length@std@@QAE@XZ		; std::bad_array_new_length::bad_array_new_length
PUBLIC	??1bad_array_new_length@std@@UAE@XZ		; std::bad_array_new_length::~bad_array_new_length
PUBLIC	??0bad_array_new_length@std@@QAE@ABV01@@Z	; std::bad_array_new_length::bad_array_new_length
PUBLIC	??_Gbad_array_new_length@std@@UAEPAXI@Z		; std::bad_array_new_length::`scalar deleting destructor'
PUBLIC	?_Throw_bad_array_new_length@std@@YAXXZ		; std::_Throw_bad_array_new_length
PUBLIC	??0D3DXMATRIX@@QAE@XZ				; D3DXMATRIX::D3DXMATRIX
PUBLIC	?_Xlength@?$vector@EV?$allocator@E@std@@@std@@CAXXZ ; std::vector<unsigned char,std::allocator<unsigned char> >::_Xlength
PUBLIC	??$_Allocate_manually_vector_aligned@U_Default_allocate_traits@std@@@std@@YAPAXI@Z ; std::_Allocate_manually_vector_aligned<std::_Default_allocate_traits>
PUBLIC	?OnRender@CMapOutdoor@@MAEXXZ			; CMapOutdoor::OnRender
PUBLIC	?SetInverseViewAndDynamicShaodwMatrices@CMapOutdoor@@QAEXXZ ; CMapOutdoor::SetInverseViewAndDynamicShaodwMatrices
PUBLIC	?SetVisiblePart@CMapOutdoor@@QAEXH_N@Z		; CMapOutdoor::SetVisiblePart
PUBLIC	?SetSplatLimit@CMapOutdoor@@QAEXH@Z		; CMapOutdoor::SetSplatLimit
PUBLIC	?GetRenderedSplatNum@CMapOutdoor@@QAEAAV?$vector@HV?$allocator@H@std@@@std@@PAH0PAM@Z ; CMapOutdoor::GetRenderedSplatNum
PUBLIC	?GetRenderedGraphicThingInstanceNum@CMapOutdoor@@QAEAAV?$vector@USCRCWithNumber@CArea@@V?$allocator@USCRCWithNumber@CArea@@@std@@@std@@PAK0@Z ; CMapOutdoor::GetRenderedGraphicThingInstanceNum
PUBLIC	?ApplyLight@CMapOutdoor@@UAEXKABU_D3DLIGHT8@@@Z	; CMapOutdoor::ApplyLight
PUBLIC	?RenderMarkedArea@CMapOutdoor@@QAEXXZ		; CMapOutdoor::RenderMarkedArea
PUBLIC	?RecurseRenderAttr@CMapOutdoor@@QAEXPAVCTerrainQuadtreeNode@@_N@Z ; CMapOutdoor::RecurseRenderAttr
PUBLIC	?DrawPatchAttr@CMapOutdoor@@QAEXJ@Z		; CMapOutdoor::DrawPatchAttr
PUBLIC	?RenderCollision@CMapOutdoor@@QAEXXZ		; CMapOutdoor::RenderCollision
PUBLIC	?RenderSky@CMapOutdoor@@QAEXXZ			; CMapOutdoor::RenderSky
PUBLIC	?RenderCloud@CMapOutdoor@@QAEXXZ		; CMapOutdoor::RenderCloud
PUBLIC	?RenderBeforeLensFlare@CMapOutdoor@@QAEXXZ	; CMapOutdoor::RenderBeforeLensFlare
PUBLIC	?RenderAfterLensFlare@CMapOutdoor@@QAEXXZ	; CMapOutdoor::RenderAfterLensFlare
PUBLIC	?RenderScreenFiltering@CMapOutdoor@@QAEXXZ	; CMapOutdoor::RenderScreenFiltering
PUBLIC	?RenderTerrain@CMapOutdoor@@QAEXXZ		; CMapOutdoor::RenderTerrain
PUBLIC	?RenderArea@CMapOutdoor@@QAEX_N@Z		; CMapOutdoor::RenderArea
PUBLIC	?RenderBlendArea@CMapOutdoor@@QAEXXZ		; CMapOutdoor::RenderBlendArea
PUBLIC	?RenderDungeon@CMapOutdoor@@QAEXXZ		; CMapOutdoor::RenderDungeon
PUBLIC	?RenderEffect@CMapOutdoor@@QAEXXZ		; CMapOutdoor::RenderEffect
PUBLIC	?RenderPCBlocker@CMapOutdoor@@QAEXXZ		; CMapOutdoor::RenderPCBlocker
PUBLIC	?RenderTree@CMapOutdoor@@QAEXXZ			; CMapOutdoor::RenderTree
PUBLIC	?_Xlength@?$vector@U?$pair@MJ@std@@V?$allocator@U?$pair@MJ@std@@@2@@std@@CAXXZ ; std::vector<std::pair<float,long>,std::allocator<std::pair<float,long> > >::_Xlength
PUBLIC	?_Xlength@?$vector@UTPatchDrawStruct@CMapOutdoor@@V?$allocator@UTPatchDrawStruct@CMapOutdoor@@@std@@@std@@CAXXZ ; std::vector<CMapOutdoor::TPatchDrawStruct,std::allocator<CMapOutdoor::TPatchDrawStruct> >::_Xlength
PUBLIC	?SetPatchDrawVector@CMapOutdoor@@IAEXXZ		; CMapOutdoor::SetPatchDrawVector
PUBLIC	?NEW_DrawWireFrame@CMapOutdoor@@IAEXPAVCTerrainPatchProxy@@GW4_D3DPRIMITIVETYPE@@@Z ; CMapOutdoor::NEW_DrawWireFrame
PUBLIC	?DrawWireFrame@CMapOutdoor@@IAEXJGW4_D3DPRIMITIVETYPE@@@Z ; CMapOutdoor::DrawWireFrame
PUBLIC	?SelectIndexBuffer@CMapOutdoor@@IAEXEPAGPAW4_D3DPRIMITIVETYPE@@@Z ; CMapOutdoor::SelectIndexBuffer
PUBLIC	?InitializeVisibleParts@CMapOutdoor@@IAEXXZ	; CMapOutdoor::InitializeVisibleParts
PUBLIC	?IsVisiblePart@CMapOutdoor@@IAE_NH@Z		; CMapOutdoor::IsVisiblePart
PUBLIC	?__GetNoFogDistance@CMapOutdoor@@IAEMXZ		; CMapOutdoor::__GetNoFogDistance
PUBLIC	?__GetFogDistance@CMapOutdoor@@IAEMXZ		; CMapOutdoor::__GetFogDistance
PUBLIC	?__RenderTerrain_RecurseRenderQuadTree@CMapOutdoor@@IAEXPAVCTerrainQuadtreeNode@@_N@Z ; CMapOutdoor::__RenderTerrain_RecurseRenderQuadTree
PUBLIC	?__RenderTerrain_RecurseRenderQuadTree_CheckBoundingCircle@CMapOutdoor@@IAEHABUD3DXVECTOR3@@ABM@Z ; CMapOutdoor::__RenderTerrain_RecurseRenderQuadTree_CheckBoundingCircle
PUBLIC	?__RenderTerrain_AppendPatch@CMapOutdoor@@IAEXABUD3DXVECTOR3@@MJ@Z ; CMapOutdoor::__RenderTerrain_AppendPatch
PUBLIC	??$stable_sort@V?$_Vector_iterator@V?$_Vector_val@U?$_Simple_types@UTPatchDrawStruct@CMapOutdoor@@@std@@@std@@@std@@UFSortPatchDrawStructWithTerrainNum@CMapOutdoor@@@std@@YAXV?$_Vector_iterator@V?$_Vector_val@U?$_Simple_types@UTPatchDrawStruct@CMapOutdoor@@@std@@@std@@@0@0UFSortPatchDrawStructWithTerrainNum@CMapOutdoor@@@Z ; std::stable_sort<std::_Vector_iterator<std::_Vector_val<std::_Simple_types<CMapOutdoor::TPatchDrawStruct> > >,CMapOutdoor::FSortPatchDrawStructWithTerrainNum>
PUBLIC	??$_Emplace_reallocate@ABUTPatchDrawStruct@CMapOutdoor@@@?$vector@UTPatchDrawStruct@CMapOutdoor@@V?$allocator@UTPatchDrawStruct@CMapOutdoor@@@std@@@std@@QAEPAUTPatchDrawStruct@CMapOutdoor@@QAU23@ABU23@@Z ; std::vector<CMapOutdoor::TPatchDrawStruct,std::allocator<CMapOutdoor::TPatchDrawStruct> >::_Emplace_reallocate<CMapOutdoor::TPatchDrawStruct const &>
PUBLIC	??$_Emplace_reallocate@U?$pair@MJ@std@@@?$vector@U?$pair@MJ@std@@V?$allocator@U?$pair@MJ@std@@@2@@std@@QAEPAU?$pair@MJ@1@QAU21@$$QAU21@@Z ; std::vector<std::pair<float,long>,std::allocator<std::pair<float,long> > >::_Emplace_reallocate<std::pair<float,long> >
PUBLIC	??$_Emplace_reallocate@ABE@?$vector@EV?$allocator@E@std@@@std@@QAEPAEQAEABE@Z ; std::vector<unsigned char,std::allocator<unsigned char> >::_Emplace_reallocate<unsigned char const &>
PUBLIC	??$_Sort_unchecked@PAUSCRCWithNumber@CArea@@UCRCNumComp@2@@std@@YAXPAUSCRCWithNumber@CArea@@0HUCRCNumComp@2@@Z ; std::_Sort_unchecked<CArea::SCRCWithNumber *,CArea::CRCNumComp>
PUBLIC	??$_Sort_unchecked@PAPAVCGraphicThingInstance@@UCMapOutdoor_LessThingInstancePtrRenderOrder@@@std@@YAXPAPAVCGraphicThingInstance@@0HUCMapOutdoor_LessThingInstancePtrRenderOrder@@@Z ; std::_Sort_unchecked<CGraphicThingInstance * *,CMapOutdoor_LessThingInstancePtrRenderOrder>
PUBLIC	??$_Insertion_sort_unchecked@PAUTPatchDrawStruct@CMapOutdoor@@UFSortPatchDrawStructWithTerrainNum@2@@std@@YAPAUTPatchDrawStruct@CMapOutdoor@@QAU12@0UFSortPatchDrawStructWithTerrainNum@2@@Z ; std::_Insertion_sort_unchecked<CMapOutdoor::TPatchDrawStruct *,CMapOutdoor::FSortPatchDrawStructWithTerrainNum>
PUBLIC	??1?$_Optimistic_temporary_buffer@UTPatchDrawStruct@CMapOutdoor@@@std@@QAE@XZ ; std::_Optimistic_temporary_buffer<CMapOutdoor::TPatchDrawStruct>::~_Optimistic_temporary_buffer<CMapOutdoor::TPatchDrawStruct>
PUBLIC	??$_Stable_sort_unchecked@PAUTPatchDrawStruct@CMapOutdoor@@UFSortPatchDrawStructWithTerrainNum@2@@std@@YAXQAUTPatchDrawStruct@CMapOutdoor@@0H0HUFSortPatchDrawStructWithTerrainNum@2@@Z ; std::_Stable_sort_unchecked<CMapOutdoor::TPatchDrawStruct *,CMapOutdoor::FSortPatchDrawStructWithTerrainNum>
PUBLIC	??$_Return_temporary_buffer@UTPatchDrawStruct@CMapOutdoor@@@std@@YAXQAUTPatchDrawStruct@CMapOutdoor@@@Z ; std::_Return_temporary_buffer<CMapOutdoor::TPatchDrawStruct>
PUBLIC	??$_Sort_unchecked@PAU?$pair@MJ@std@@U?$less@X@2@@std@@YAXPAU?$pair@MJ@0@0HU?$less@X@0@@Z ; std::_Sort_unchecked<std::pair<float,long> *,std::less<void> >
PUBLIC	??$_Partition_by_median_guess_unchecked@PAUSCRCWithNumber@CArea@@UCRCNumComp@2@@std@@YA?AU?$pair@PAUSCRCWithNumber@CArea@@PAU12@@0@PAUSCRCWithNumber@CArea@@0UCRCNumComp@3@@Z ; std::_Partition_by_median_guess_unchecked<CArea::SCRCWithNumber *,CArea::CRCNumComp>
PUBLIC	??$_Insertion_sort_unchecked@PAPAVCGraphicThingInstance@@UCMapOutdoor_LessThingInstancePtrRenderOrder@@@std@@YAPAPAVCGraphicThingInstance@@QAPAV1@0UCMapOutdoor_LessThingInstancePtrRenderOrder@@@Z ; std::_Insertion_sort_unchecked<CGraphicThingInstance * *,CMapOutdoor_LessThingInstancePtrRenderOrder>
PUBLIC	??$_Make_heap_unchecked@PAPAVCGraphicThingInstance@@UCMapOutdoor_LessThingInstancePtrRenderOrder@@@std@@YAXPAPAVCGraphicThingInstance@@0UCMapOutdoor_LessThingInstancePtrRenderOrder@@@Z ; std::_Make_heap_unchecked<CGraphicThingInstance * *,CMapOutdoor_LessThingInstancePtrRenderOrder>
PUBLIC	??$_Partition_by_median_guess_unchecked@PAPAVCGraphicThingInstance@@UCMapOutdoor_LessThingInstancePtrRenderOrder@@@std@@YA?AU?$pair@PAPAVCGraphicThingInstance@@PAPAV1@@0@PAPAVCGraphicThingInstance@@0UCMapOutdoor_LessThingInstancePtrRenderOrder@@@Z ; std::_Partition_by_median_guess_unchecked<CGraphicThingInstance * *,CMapOutdoor_LessThingInstancePtrRenderOrder>
PUBLIC	??$_Get_temporary_buffer@UTPatchDrawStruct@CMapOutdoor@@@std@@YA?AU?$pair@PAUTPatchDrawStruct@CMapOutdoor@@H@0@H@Z ; std::_Get_temporary_buffer<CMapOutdoor::TPatchDrawStruct>
PUBLIC	??$_Buffered_merge_sort_unchecked@PAUTPatchDrawStruct@CMapOutdoor@@UFSortPatchDrawStructWithTerrainNum@2@@std@@YAXQAUTPatchDrawStruct@CMapOutdoor@@0H0UFSortPatchDrawStructWithTerrainNum@2@@Z ; std::_Buffered_merge_sort_unchecked<CMapOutdoor::TPatchDrawStruct *,CMapOutdoor::FSortPatchDrawStructWithTerrainNum>
PUBLIC	??$_Buffered_inplace_merge_unchecked@PAUTPatchDrawStruct@CMapOutdoor@@UFSortPatchDrawStructWithTerrainNum@2@@std@@YAXPAUTPatchDrawStruct@CMapOutdoor@@00HHQAU12@HUFSortPatchDrawStructWithTerrainNum@2@@Z ; std::_Buffered_inplace_merge_unchecked<CMapOutdoor::TPatchDrawStruct *,CMapOutdoor::FSortPatchDrawStructWithTerrainNum>
PUBLIC	??$_Copy_memmove@PAUTPatchDrawStruct@CMapOutdoor@@PAU12@@std@@YAPAUTPatchDrawStruct@CMapOutdoor@@PAU12@00@Z ; std::_Copy_memmove<CMapOutdoor::TPatchDrawStruct *,CMapOutdoor::TPatchDrawStruct *>
PUBLIC	??$_Copy_memmove@PAUSCRCWithNumber@CArea@@PAU12@@std@@YAPAUSCRCWithNumber@CArea@@PAU12@00@Z ; std::_Copy_memmove<CArea::SCRCWithNumber *,CArea::SCRCWithNumber *>
PUBLIC	??$_Copy_memmove@PAEPAE@std@@YAPAEPAE00@Z	; std::_Copy_memmove<unsigned char *,unsigned char *>
PUBLIC	??$_Partition_by_median_guess_unchecked@PAU?$pair@MJ@std@@U?$less@X@2@@std@@YA?AU?$pair@PAU?$pair@MJ@std@@PAU12@@0@PAU?$pair@MJ@0@0U?$less@X@0@@Z ; std::_Partition_by_median_guess_unchecked<std::pair<float,long> *,std::less<void> >
PUBLIC	??$_Pop_heap_hole_by_index@PAUSCRCWithNumber@CArea@@U12@UCRCNumComp@2@@std@@YAXPAUSCRCWithNumber@CArea@@HH$$QAU12@UCRCNumComp@2@@Z ; std::_Pop_heap_hole_by_index<CArea::SCRCWithNumber *,CArea::SCRCWithNumber,CArea::CRCNumComp>
PUBLIC	??$_Pop_heap_hole_by_index@PAPAVCGraphicThingInstance@@PAV1@UCMapOutdoor_LessThingInstancePtrRenderOrder@@@std@@YAXPAPAVCGraphicThingInstance@@HH$$QAPAV1@UCMapOutdoor_LessThingInstancePtrRenderOrder@@@Z ; std::_Pop_heap_hole_by_index<CGraphicThingInstance * *,CGraphicThingInstance *,CMapOutdoor_LessThingInstancePtrRenderOrder>
PUBLIC	??$_Copy_backward_memmove@PAUTPatchDrawStruct@CMapOutdoor@@PAU12@@std@@YAPAUTPatchDrawStruct@CMapOutdoor@@PAU12@00@Z ; std::_Copy_backward_memmove<CMapOutdoor::TPatchDrawStruct *,CMapOutdoor::TPatchDrawStruct *>
PUBLIC	??$_Insertion_sort_isort_max_chunks@PAUTPatchDrawStruct@CMapOutdoor@@UFSortPatchDrawStructWithTerrainNum@2@@std@@YAXPAUTPatchDrawStruct@CMapOutdoor@@QAU12@HUFSortPatchDrawStructWithTerrainNum@2@@Z ; std::_Insertion_sort_isort_max_chunks<CMapOutdoor::TPatchDrawStruct *,CMapOutdoor::FSortPatchDrawStructWithTerrainNum>
PUBLIC	??$_Uninitialized_chunked_merge_unchecked2@PAUTPatchDrawStruct@CMapOutdoor@@U12@UFSortPatchDrawStructWithTerrainNum@2@@std@@YAXPAUTPatchDrawStruct@CMapOutdoor@@QAU12@0HUFSortPatchDrawStructWithTerrainNum@2@@Z ; std::_Uninitialized_chunked_merge_unchecked2<CMapOutdoor::TPatchDrawStruct *,CMapOutdoor::TPatchDrawStruct,CMapOutdoor::FSortPatchDrawStructWithTerrainNum>
PUBLIC	??$_Chunked_merge_unchecked@PAUTPatchDrawStruct@CMapOutdoor@@PAU12@UFSortPatchDrawStructWithTerrainNum@2@@std@@YAXPAUTPatchDrawStruct@CMapOutdoor@@QAU12@0HHUFSortPatchDrawStructWithTerrainNum@2@@Z ; std::_Chunked_merge_unchecked<CMapOutdoor::TPatchDrawStruct *,CMapOutdoor::TPatchDrawStruct *,CMapOutdoor::FSortPatchDrawStructWithTerrainNum>
PUBLIC	??$_Rotate_one_right@PAUTPatchDrawStruct@CMapOutdoor@@@std@@YAXPAUTPatchDrawStruct@CMapOutdoor@@00@Z ; std::_Rotate_one_right<CMapOutdoor::TPatchDrawStruct *>
PUBLIC	??$_Rotate_one_left@PAUTPatchDrawStruct@CMapOutdoor@@@std@@YAXPAUTPatchDrawStruct@CMapOutdoor@@00@Z ; std::_Rotate_one_left<CMapOutdoor::TPatchDrawStruct *>
PUBLIC	??$_Buffered_inplace_merge_unchecked_impl@PAUTPatchDrawStruct@CMapOutdoor@@UFSortPatchDrawStructWithTerrainNum@2@@std@@YAXPAUTPatchDrawStruct@CMapOutdoor@@00HHQAU12@HUFSortPatchDrawStructWithTerrainNum@2@@Z ; std::_Buffered_inplace_merge_unchecked_impl<CMapOutdoor::TPatchDrawStruct *,CMapOutdoor::FSortPatchDrawStructWithTerrainNum>
PUBLIC	??$_Pop_heap_hole_by_index@PAU?$pair@MJ@std@@U12@U?$less@X@2@@std@@YAXPAU?$pair@MJ@0@HH$$QAU10@U?$less@X@0@@Z ; std::_Pop_heap_hole_by_index<std::pair<float,long> *,std::pair<float,long>,std::less<void> >
PUBLIC	??$_Copy_backward_memmove@PAUSCRCWithNumber@CArea@@PAU12@@std@@YAPAUSCRCWithNumber@CArea@@PAU12@00@Z ; std::_Copy_backward_memmove<CArea::SCRCWithNumber *,CArea::SCRCWithNumber *>
PUBLIC	??$_Med3_unchecked@PAUSCRCWithNumber@CArea@@UCRCNumComp@2@@std@@YAXPAUSCRCWithNumber@CArea@@00UCRCNumComp@2@@Z ; std::_Med3_unchecked<CArea::SCRCWithNumber *,CArea::CRCNumComp>
PUBLIC	??$_Copy_backward_memmove@PAPAVCGraphicThingInstance@@PAPAV1@@std@@YAPAPAVCGraphicThingInstance@@PAPAV1@00@Z ; std::_Copy_backward_memmove<CGraphicThingInstance * *,CGraphicThingInstance * *>
PUBLIC	??$_Med3_unchecked@PAPAVCGraphicThingInstance@@UCMapOutdoor_LessThingInstancePtrRenderOrder@@@std@@YAXPAPAVCGraphicThingInstance@@00UCMapOutdoor_LessThingInstancePtrRenderOrder@@@Z ; std::_Med3_unchecked<CGraphicThingInstance * *,CMapOutdoor_LessThingInstancePtrRenderOrder>
PUBLIC	??$_Uninitialized_merge_move@PAUTPatchDrawStruct@CMapOutdoor@@U12@UFSortPatchDrawStructWithTerrainNum@2@@std@@YAPAUTPatchDrawStruct@CMapOutdoor@@PAU12@QAU12@11UFSortPatchDrawStructWithTerrainNum@2@@Z ; std::_Uninitialized_merge_move<CMapOutdoor::TPatchDrawStruct *,CMapOutdoor::TPatchDrawStruct,CMapOutdoor::FSortPatchDrawStructWithTerrainNum>
PUBLIC	??$_Merge_move@PAUTPatchDrawStruct@CMapOutdoor@@PAU12@UFSortPatchDrawStructWithTerrainNum@2@@std@@YAPAUTPatchDrawStruct@CMapOutdoor@@PAU12@QAU12@10UFSortPatchDrawStructWithTerrainNum@2@@Z ; std::_Merge_move<CMapOutdoor::TPatchDrawStruct *,CMapOutdoor::TPatchDrawStruct *,CMapOutdoor::FSortPatchDrawStructWithTerrainNum>
PUBLIC	??$_Inplace_merge_buffer_left@PAUTPatchDrawStruct@CMapOutdoor@@UFSortPatchDrawStructWithTerrainNum@2@@std@@YAXPAUTPatchDrawStruct@CMapOutdoor@@00QAU12@UFSortPatchDrawStructWithTerrainNum@2@@Z ; std::_Inplace_merge_buffer_left<CMapOutdoor::TPatchDrawStruct *,CMapOutdoor::FSortPatchDrawStructWithTerrainNum>
PUBLIC	??$_Inplace_merge_buffer_right@PAUTPatchDrawStruct@CMapOutdoor@@UFSortPatchDrawStructWithTerrainNum@2@@std@@YAXPAUTPatchDrawStruct@CMapOutdoor@@00QAU12@UFSortPatchDrawStructWithTerrainNum@2@@Z ; std::_Inplace_merge_buffer_right<CMapOutdoor::TPatchDrawStruct *,CMapOutdoor::FSortPatchDrawStructWithTerrainNum>
PUBLIC	??$_Buffered_inplace_merge_divide_and_conquer@PAUTPatchDrawStruct@CMapOutdoor@@UFSortPatchDrawStructWithTerrainNum@2@@std@@YAXPAUTPatchDrawStruct@CMapOutdoor@@00HHQAU12@HUFSortPatchDrawStructWithTerrainNum@2@@Z ; std::_Buffered_inplace_merge_divide_and_conquer<CMapOutdoor::TPatchDrawStruct *,CMapOutdoor::FSortPatchDrawStructWithTerrainNum>
PUBLIC	??$_Med3_unchecked@PAU?$pair@MJ@std@@U?$less@X@2@@std@@YAXPAU?$pair@MJ@0@00U?$less@X@0@@Z ; std::_Med3_unchecked<std::pair<float,long> *,std::less<void> >
PUBLIC	??$lower_bound@PAUTPatchDrawStruct@CMapOutdoor@@U12@UFSortPatchDrawStructWithTerrainNum@2@@std@@YAPAUTPatchDrawStruct@CMapOutdoor@@PAU12@QAU12@ABU12@UFSortPatchDrawStructWithTerrainNum@2@@Z ; std::lower_bound<CMapOutdoor::TPatchDrawStruct *,CMapOutdoor::TPatchDrawStruct,CMapOutdoor::FSortPatchDrawStructWithTerrainNum>
PUBLIC	??$_Buffered_inplace_merge_divide_and_conquer2@PAUTPatchDrawStruct@CMapOutdoor@@UFSortPatchDrawStructWithTerrainNum@2@@std@@YAXPAUTPatchDrawStruct@CMapOutdoor@@00HHQAU12@HUFSortPatchDrawStructWithTerrainNum@2@00HH@Z ; std::_Buffered_inplace_merge_divide_and_conquer2<CMapOutdoor::TPatchDrawStruct *,CMapOutdoor::FSortPatchDrawStructWithTerrainNum>
PUBLIC	??$upper_bound@PAUTPatchDrawStruct@CMapOutdoor@@U12@UFSortPatchDrawStructWithTerrainNum@2@@std@@YAPAUTPatchDrawStruct@CMapOutdoor@@PAU12@0ABU12@UFSortPatchDrawStructWithTerrainNum@2@@Z ; std::upper_bound<CMapOutdoor::TPatchDrawStruct *,CMapOutdoor::TPatchDrawStruct,CMapOutdoor::FSortPatchDrawStructWithTerrainNum>
PUBLIC	??$_Buffered_rotate_unchecked@PAUTPatchDrawStruct@CMapOutdoor@@@std@@YAPAUTPatchDrawStruct@CMapOutdoor@@QAU12@00HH0H@Z ; std::_Buffered_rotate_unchecked<CMapOutdoor::TPatchDrawStruct *>
PUBLIC	??$reverse@PAUTPatchDrawStruct@CMapOutdoor@@@std@@YAXQAUTPatchDrawStruct@CMapOutdoor@@0@Z ; std::reverse<CMapOutdoor::TPatchDrawStruct *>
PUBLIC	??_7exception@std@@6B@				; std::exception::`vftable'
PUBLIC	??_C@_0BC@EOODALEL@Unknown?5exception@		; `string'
PUBLIC	??_7bad_alloc@std@@6B@				; std::bad_alloc::`vftable'
PUBLIC	??_7bad_array_new_length@std@@6B@		; std::bad_array_new_length::`vftable'
PUBLIC	??_C@_0BF@KINCDENJ@bad?5array?5new?5length@	; `string'
PUBLIC	__TI3?AVbad_array_new_length@std@@
PUBLIC	__CTA3?AVbad_array_new_length@std@@
PUBLIC	??_R0?AVbad_array_new_length@std@@@8		; std::bad_array_new_length `RTTI Type Descriptor'
PUBLIC	__CT??_R0?AVbad_array_new_length@std@@@8??0bad_array_new_length@std@@QAE@ABV01@@Z12
PUBLIC	??_R0?AVbad_alloc@std@@@8			; std::bad_alloc `RTTI Type Descriptor'
PUBLIC	__CT??_R0?AVbad_alloc@std@@@8??0bad_alloc@std@@QAE@ABV01@@Z12
PUBLIC	??_R0?AVexception@std@@@8			; std::exception `RTTI Type Descriptor'
PUBLIC	__CT??_R0?AVexception@std@@@8??0exception@std@@QAE@ABV01@@Z12
PUBLIC	??_R4exception@std@@6B@				; std::exception::`RTTI Complete Object Locator'
PUBLIC	??_R3exception@std@@8				; std::exception::`RTTI Class Hierarchy Descriptor'
PUBLIC	??_R2exception@std@@8				; std::exception::`RTTI Base Class Array'
PUBLIC	??_R1A@?0A@EA@exception@std@@8			; std::exception::`RTTI Base Class Descriptor at (0,-1,0,64)'
PUBLIC	??_R4bad_alloc@std@@6B@				; std::bad_alloc::`RTTI Complete Object Locator'
PUBLIC	??_R3bad_alloc@std@@8				; std::bad_alloc::`RTTI Class Hierarchy Descriptor'
PUBLIC	??_R2bad_alloc@std@@8				; std::bad_alloc::`RTTI Base Class Array'
PUBLIC	??_R1A@?0A@EA@bad_alloc@std@@8			; std::bad_alloc::`RTTI Base Class Descriptor at (0,-1,0,64)'
PUBLIC	??_R4bad_array_new_length@std@@6B@		; std::bad_array_new_length::`RTTI Complete Object Locator'
PUBLIC	??_R3bad_array_new_length@std@@8		; std::bad_array_new_length::`RTTI Class Hierarchy Descriptor'
PUBLIC	??_R2bad_array_new_length@std@@8		; std::bad_array_new_length::`RTTI Base Class Array'
PUBLIC	??_R1A@?0A@EA@bad_array_new_length@std@@8	; std::bad_array_new_length::`RTTI Base Class Descriptor at (0,-1,0,64)'
PUBLIC	?ms_singleton@?$CSingleton@VCSpeedTreeForestDirectX8@@@@0PAVCSpeedTreeForestDirectX8@@A ; CSingleton<CSpeedTreeForestDirectX8>::ms_singleton
PUBLIC	?m_TerrainNumVector@FSortPatchDrawStructWithTerrainNum@CMapOutdoor@@2V?$vector@EV?$allocator@E@std@@@std@@A ; CMapOutdoor::FSortPatchDrawStructWithTerrainNum::m_TerrainNumVector
PUBLIC	?ms_singleton@?$CSingleton@VCCameraManager@@@@0PAVCCameraManager@@A ; CSingleton<CCameraManager>::ms_singleton
PUBLIC	?ms_singleton@?$CSingleton@VCStateManager@@@@0PAVCStateManager@@A ; CSingleton<CStateManager>::ms_singleton
PUBLIC	?m_dwRenderedCRCWithNumberVector@@3V?$vector@USCRCWithNumber@CArea@@V?$allocator@USCRCWithNumber@CArea@@@std@@@std@@A ; m_dwRenderedCRCWithNumberVector
PUBLIC	??_C@_0DP@MKJEJLFD@CMapOutdoor?3?3RenderBeforeLensFl@ ; `string'
PUBLIC	??_R0?AVCGraphicObjectInstance@@@8		; CGraphicObjectInstance `RTTI Type Descriptor'
PUBLIC	??_R0?AVCGraphicThingInstance@@@8		; CGraphicThingInstance `RTTI Type Descriptor'
PUBLIC	??_C@_0BA@FOIKENOD@vector?5too?5long@		; `string'
PUBLIC	__real@3dcccccd
PUBLIC	__real@3f000000
PUBLIC	__real@3f400000
PUBLIC	__real@3f800000
PUBLIC	__real@42000000
PUBLIC	__real@437f0000
PUBLIC	__real@449c4000
PUBLIC	__real@45075000
PUBLIC	__real@453b8000
PUBLIC	__real@45875000
PUBLIC	__xmm@41f00000000000000000000000000000
PUBLIC	__xmm@7fffffff7fffffff7fffffff7fffffff
PUBLIC	__xmm@80000000800000008000000080000000
EXTRN	??2@YAPAXI@Z:PROC				; operator new
EXTRN	??3@YAXPAX@Z:PROC				; operator delete
EXTRN	??3@YAXPAXI@Z:PROC				; operator delete
EXTRN	_atexit:PROC
EXTRN	__Init_thread_header:PROC
EXTRN	__Init_thread_footer:PROC
EXTRN	__invalid_parameter_noinfo_noreturn:PROC
EXTRN	__imp__timeGetTime@0:PROC
EXTRN	??2@YAPAXIABUnothrow_t@std@@@Z:PROC		; operator new
EXTRN	___std_exception_copy:PROC
EXTRN	___std_exception_destroy:PROC
EXTRN	??_Eexception@std@@UAEPAXI@Z:PROC		; std::exception::`vector deleting destructor'
EXTRN	??_Ebad_alloc@std@@UAEPAXI@Z:PROC		; std::bad_alloc::`vector deleting destructor'
EXTRN	??_Ebad_array_new_length@std@@UAEPAXI@Z:PROC	; std::bad_array_new_length::`vector deleting destructor'
EXTRN	?_Xlength_error@std@@YAXPBD@Z:PROC		; std::_Xlength_error
EXTRN	?fMAX@@YAMMM@Z:PROC				; fMAX
EXTRN	_D3DXMatrixMultiply@12:PROC
EXTRN	_D3DXMatrixScaling@16:PROC
EXTRN	_D3DXMatrixLookAtRH@16:PROC
EXTRN	?TraceError@@YAXPBDZZ:PROC			; TraceError
EXTRN	?SetBlendOperation@CScreen@@QAEXXZ:PROC		; CScreen::SetBlendOperation
EXTRN	?GetD3DTexture@CGraphicTexture@@QBEPAUIDirect3DTexture8@@XZ:PROC ; CGraphicTexture::GetD3DTexture
EXTRN	?GetD3DIndexBuffer@CGraphicIndexBuffer@@QBEPAUIDirect3DIndexBuffer8@@XZ:PROC ; CGraphicIndexBuffer::GetD3DIndexBuffer
EXTRN	?GetTexturePointer@CGraphicImageInstance@@QAEPAVCGraphicTexture@@XZ:PROC ; CGraphicImageInstance::GetTexturePointer
EXTRN	?RenderCloud@CSkyBox@@QAEXXZ:PROC		; CSkyBox::RenderCloud
EXTRN	?Compute@CLensFlare@@QAEXABUD3DXVECTOR3@@@Z:PROC ; CLensFlare::Compute
EXTRN	?DrawBeforeFlare@CLensFlare@@QAEXXZ:PROC	; CLensFlare::DrawBeforeFlare
EXTRN	?DrawFlare@CLensFlare@@QAEXXZ:PROC		; CLensFlare::DrawFlare
EXTRN	?AdjustBrightness@CLensFlare@@QAEXXZ:PROC	; CLensFlare::AdjustBrightness
EXTRN	?Render@CScreenFilter@@QAEXXZ:PROC		; CScreenFilter::Render
EXTRN	?GetPosition@CGraphicObjectInstance@@QBEABUD3DXVECTOR3@@XZ:PROC ; CGraphicObjectInstance::GetPosition
EXTRN	?Render@CGraphicObjectInstance@@QAE_NXZ:PROC	; CGraphicObjectInstance::Render
EXTRN	?BlendRender@CGraphicObjectInstance@@QAEXXZ:PROC ; CGraphicObjectInstance::BlendRender
EXTRN	?RenderShadow@CGraphicObjectInstance@@QAEXXZ:PROC ; CGraphicObjectInstance::RenderShadow
EXTRN	?RenderPCBlocker@CGraphicObjectInstance@@QAEXXZ:PROC ; CGraphicObjectInstance::RenderPCBlocker
EXTRN	?Show@CGraphicObjectInstance@@QAEXXZ:PROC	; CGraphicObjectInstance::Show
EXTRN	?Hide@CGraphicObjectInstance@@QAEXXZ:PROC	; CGraphicObjectInstance::Hide
EXTRN	?HaveBlendThing@CGraphicThingInstance@@QAE_NXZ:PROC ; CGraphicThingInstance::HaveBlendThing
EXTRN	?CollectRenderingObject@CArea@@QAEXAAV?$vector@PAVCGraphicThingInstance@@V?$allocator@PAVCGraphicThingInstance@@@std@@@std@@@Z:PROC ; CArea::CollectRenderingObject
EXTRN	?CollectBlendRenderingObject@CArea@@QAEXAAV?$vector@PAVCGraphicThingInstance@@V?$allocator@PAVCGraphicThingInstance@@@std@@@std@@@Z:PROC ; CArea::CollectBlendRenderingObject
EXTRN	?RenderEffect@CArea@@QAEXXZ:PROC		; CArea::RenderEffect
EXTRN	?RenderCollision@CArea@@QAEXXZ:PROC		; CArea::RenderCollision
EXTRN	?RenderDungeon@CArea@@QAEXXZ:PROC		; CArea::RenderDungeon
EXTRN	?SetCenterPosition@CTerrainPatchProxy@@QAEXABUD3DXVECTOR3@@@Z:PROC ; CTerrainPatchProxy::SetCenterPosition
EXTRN	?HardwareTransformPatch_GetVertexBufferPtr@CTerrainPatchProxy@@QAEPAVCGraphicVertexBuffer@@XZ:PROC ; CTerrainPatchProxy::HardwareTransformPatch_GetVertexBufferPtr
EXTRN	?GetTerrainPointer@CMapOutdoor@@QAEHEPAPAVCTerrain@@@Z:PROC ; CMapOutdoor::GetTerrainPointer
EXTRN	?GetAreaPointer@CMapOutdoor@@QAEHEPAPAVCArea@@@Z:PROC ; CMapOutdoor::GetAreaPointer
EXTRN	?BuildViewFrustum@CMapOutdoor@@IAEXAAUD3DXMATRIX@@@Z:PROC ; CMapOutdoor::BuildViewFrustum
EXTRN	?__RenderTerrain_RenderSoftwareTransformPatch@CMapOutdoor@@IAEXXZ:PROC ; CMapOutdoor::__RenderTerrain_RenderSoftwareTransformPatch
EXTRN	?__RenderTerrain_RenderHardwareTransformPatch@CMapOutdoor@@IAEXXZ:PROC ; CMapOutdoor::__RenderTerrain_RenderHardwareTransformPatch
EXTRN	?GetCurrentCamera@CCameraManager@@QAEPAVCCamera@@XZ:PROC ; CCameraManager::GetCurrentCamera
EXTRN	?SetLight@CStateManager@@QAEXKPBU_D3DLIGHT8@@@Z:PROC ; CStateManager::SetLight
EXTRN	?SaveRenderState@CStateManager@@QAEXW4_D3DRENDERSTATETYPE@@K@Z:PROC ; CStateManager::SaveRenderState
EXTRN	?RestoreRenderState@CStateManager@@QAEXW4_D3DRENDERSTATETYPE@@@Z:PROC ; CStateManager::RestoreRenderState
EXTRN	?SetRenderState@CStateManager@@QAEXW4_D3DRENDERSTATETYPE@@K@Z:PROC ; CStateManager::SetRenderState
EXTRN	?SetTexture@CStateManager@@QAEXKPAUIDirect3DBaseTexture8@@@Z:PROC ; CStateManager::SetTexture
EXTRN	?SaveTextureStageState@CStateManager@@QAEXKW4_D3DTEXTURESTAGESTATETYPE@@K@Z:PROC ; CStateManager::SaveTextureStageState
EXTRN	?RestoreTextureStageState@CStateManager@@QAEXKW4_D3DTEXTURESTAGESTATETYPE@@@Z:PROC ; CStateManager::RestoreTextureStageState
EXTRN	?SetTextureStageState@CStateManager@@QAEXKW4_D3DTEXTURESTAGESTATETYPE@@K@Z:PROC ; CStateManager::SetTextureStageState
EXTRN	?SetVertexShader@CStateManager@@QAEXK@Z:PROC	; CStateManager::SetVertexShader
EXTRN	?SaveTransform@CStateManager@@QAEXW4_D3DTRANSFORMSTATETYPE@@PBU_D3DMATRIX@@@Z:PROC ; CStateManager::SaveTransform
EXTRN	?RestoreTransform@CStateManager@@QAEXW4_D3DTRANSFORMSTATETYPE@@@Z:PROC ; CStateManager::RestoreTransform
EXTRN	?SetTransform@CStateManager@@QAEXW4_D3DTRANSFORMSTATETYPE@@PBU_D3DMATRIX@@@Z:PROC ; CStateManager::SetTransform
EXTRN	?SetStreamSource@CStateManager@@QAEXIPAUIDirect3DVertexBuffer8@@I@Z:PROC ; CStateManager::SetStreamSource
EXTRN	?SetIndices@CStateManager@@QAEXPAUIDirect3DIndexBuffer8@@I@Z:PROC ; CStateManager::SetIndices
EXTRN	?DrawIndexedPrimitive@CStateManager@@QAEJW4_D3DPRIMITIVETYPE@@IIII@Z:PROC ; CStateManager::DrawIndexedPrimitive
EXTRN	?GetRenderState@CStateManager@@QAEKW4_D3DRENDERSTATETYPE@@@Z:PROC ; CStateManager::GetRenderState
EXTRN	@__security_check_cookie@4:PROC
EXTRN	__CxxThrowException@8:PROC
EXTRN	___CxxFrameHandler3:PROC
EXTRN	___RTDynamicCast:PROC
EXTRN	__chkstk:PROC
EXTRN	__ftoui3:PROC
EXTRN	_memchr:PROC
EXTRN	_memmove:PROC
EXTRN	__Init_thread_epoch:DWORD
EXTRN	?nothrow@std@@3Unothrow_t@1@B:BYTE		; std::nothrow
EXTRN	??_7type_info@@6B@:QWORD			; type_info::`vftable'
EXTRN	?ms_matView@CGraphicBase@@1UD3DXMATRIX@@A:ZWORD	; CGraphicBase::ms_matView
EXTRN	?ms_matProj@CGraphicBase@@1UD3DXMATRIX@@A:ZWORD	; CGraphicBase::ms_matProj
EXTRN	?SOFTWARE_TRANSFORM_PATCH_ENABLE@CTerrainPatch@@2_NA:BYTE ; CTerrainPatch::SOFTWARE_TRANSFORM_PATCH_ENABLE
EXTRN	___security_cookie:DWORD
EXTRN	__fltused:DWORD
EXTRN	__tls_array:DWORD
EXTRN	__tls_index:DWORD
;	COMDAT ?ms_singleton@?$CSingleton@VCSpeedTreeForestDirectX8@@@@0PAVCSpeedTreeForestDirectX8@@A
_BSS	SEGMENT
?ms_singleton@?$CSingleton@VCSpeedTreeForestDirectX8@@@@0PAVCSpeedTreeForestDirectX8@@A DD 01H DUP (?) ; CSingleton<CSpeedTreeForestDirectX8>::ms_singleton
_BSS	ENDS
_BSS	SEGMENT
?m_TerrainNumVector@FSortPatchDrawStructWithTerrainNum@CMapOutdoor@@2V?$vector@EV?$allocator@E@std@@@std@@A DB 0cH DUP (?) ; CMapOutdoor::FSortPatchDrawStructWithTerrainNum::m_TerrainNumVector
_BSS	ENDS
;	COMDAT ?ms_singleton@?$CSingleton@VCCameraManager@@@@0PAVCCameraManager@@A
_BSS	SEGMENT
?ms_singleton@?$CSingleton@VCCameraManager@@@@0PAVCCameraManager@@A DD 01H DUP (?) ; CSingleton<CCameraManager>::ms_singleton
_BSS	ENDS
;	COMDAT ?ms_singleton@?$CSingleton@VCStateManager@@@@0PAVCStateManager@@A
_BSS	SEGMENT
?ms_singleton@?$CSingleton@VCStateManager@@@@0PAVCStateManager@@A DD 01H DUP (?) ; CSingleton<CStateManager>::ms_singleton
_BSS	ENDS
_BSS	SEGMENT
?m_dwRenderedCRCWithNumberVector@@3V?$vector@USCRCWithNumber@CArea@@V?$allocator@USCRCWithNumber@CArea@@@std@@@std@@A DB 0cH DUP (?) ; m_dwRenderedCRCWithNumberVector
_BSS	ENDS
;	COMDAT ?s_kVct_pkOpaqueThingInstSort@?CB@??RenderArea@CMapOutdoor@@QAEX_N@Z@4V?$vector@PAVCGraphicThingInstance@@V?$allocator@PAVCGraphicThingInstance@@@std@@@std@@A
_BSS	SEGMENT
?s_kVct_pkOpaqueThingInstSort@?CB@??RenderArea@CMapOutdoor@@QAEX_N@Z@4V?$vector@PAVCGraphicThingInstance@@V?$allocator@PAVCGraphicThingInstance@@@std@@@std@@A DB 0cH DUP (?) ; `CMapOutdoor::RenderArea'::`33'::s_kVct_pkOpaqueThingInstSort
_BSS	ENDS
;	COMDAT ?$TSS0@?CB@??RenderArea@CMapOutdoor@@QAEX_N@Z@4HA
_BSS	SEGMENT
?$TSS0@?CB@??RenderArea@CMapOutdoor@@QAEX_N@Z@4HA DD 01H DUP (?) ; `CMapOutdoor::RenderArea'::`33'::$TSS0
_BSS	ENDS
;	COMDAT ?s_kVct_pkBlendThingInstSort@?1??RenderBlendArea@CMapOutdoor@@QAEXXZ@4V?$vector@PAVCGraphicThingInstance@@V?$allocator@PAVCGraphicThingInstance@@@std@@@std@@A
_BSS	SEGMENT
?s_kVct_pkBlendThingInstSort@?1??RenderBlendArea@CMapOutdoor@@QAEXXZ@4V?$vector@PAVCGraphicThingInstance@@V?$allocator@PAVCGraphicThingInstance@@@std@@@std@@A DB 0cH DUP (?) ; `CMapOutdoor::RenderBlendArea'::`2'::s_kVct_pkBlendThingInstSort
_BSS	ENDS
;	COMDAT ?$TSS0@?1??RenderBlendArea@CMapOutdoor@@QAEXXZ@4HA
_BSS	SEGMENT
?$TSS0@?1??RenderBlendArea@CMapOutdoor@@QAEXXZ@4HA DD 01H DUP (?) ; `CMapOutdoor::RenderBlendArea'::`2'::$TSS0
_BSS	ENDS
;	COMDAT ?lStartTime@?1??RenderMarkedArea@CMapOutdoor@@QAEXXZ@4JA
_BSS	SEGMENT
?lStartTime@?1??RenderMarkedArea@CMapOutdoor@@QAEXXZ@4JA DD 01H DUP (?) ; `CMapOutdoor::RenderMarkedArea'::`2'::lStartTime
_BSS	ENDS
;	COMDAT ?$TSS0@?1??RenderMarkedArea@CMapOutdoor@@QAEXXZ@4HA
_BSS	SEGMENT
?$TSS0@?1??RenderMarkedArea@CMapOutdoor@@QAEXXZ@4HA DD 01H DUP (?) ; `CMapOutdoor::RenderMarkedArea'::`2'::$TSS0
_BSS	ENDS
CRT$XCU	SEGMENT
?m_dwRenderedCRCWithNumberVector$initializer$@@3P6AXXZA DD FLAT:??__Em_dwRenderedCRCWithNumberVector@@YAXXZ ; m_dwRenderedCRCWithNumberVector$initializer$
CRT$XCU	ENDS
;	COMDAT __xmm@80000000800000008000000080000000
CONST	SEGMENT
__xmm@80000000800000008000000080000000 DB 00H, 00H, 00H, 080H, 00H, 00H, 00H
	DB	080H, 00H, 00H, 00H, 080H, 00H, 00H, 00H, 080H
CONST	ENDS
;	COMDAT __xmm@7fffffff7fffffff7fffffff7fffffff
CONST	SEGMENT
__xmm@7fffffff7fffffff7fffffff7fffffff DB 0ffH, 0ffH, 0ffH, 07fH, 0ffH, 0ffH
	DB	0ffH, 07fH, 0ffH, 0ffH, 0ffH, 07fH, 0ffH, 0ffH, 0ffH, 07fH
CONST	ENDS
;	COMDAT __xmm@41f00000000000000000000000000000
CONST	SEGMENT
__xmm@41f00000000000000000000000000000 DB 00H, 00H, 00H, 00H, 00H, 00H, 00H
	DB	00H, 00H, 00H, 00H, 00H, 00H, 00H, 0f0H, 'A'
CONST	ENDS
;	COMDAT __real@45875000
CONST	SEGMENT
__real@45875000 DD 045875000r			; 4330
CONST	ENDS
;	COMDAT __real@453b8000
CONST	SEGMENT
__real@453b8000 DD 0453b8000r			; 3000
CONST	ENDS
;	COMDAT __real@45075000
CONST	SEGMENT
__real@45075000 DD 045075000r			; 2165
CONST	ENDS
;	COMDAT __real@449c4000
CONST	SEGMENT
__real@449c4000 DD 0449c4000r			; 1250
CONST	ENDS
;	COMDAT __real@437f0000
CONST	SEGMENT
__real@437f0000 DD 0437f0000r			; 255
CONST	ENDS
;	COMDAT __real@42000000
CONST	SEGMENT
__real@42000000 DD 042000000r			; 32
CONST	ENDS
;	COMDAT __real@3f800000
CONST	SEGMENT
__real@3f800000 DD 03f800000r			; 1
CONST	ENDS
;	COMDAT __real@3f400000
CONST	SEGMENT
__real@3f400000 DD 03f400000r			; 0.75
CONST	ENDS
;	COMDAT __real@3f000000
CONST	SEGMENT
__real@3f000000 DD 03f000000r			; 0.5
CONST	ENDS
;	COMDAT __real@3dcccccd
CONST	SEGMENT
__real@3dcccccd DD 03dcccccdr			; 0.1
CONST	ENDS
;	COMDAT ??_C@_0BA@FOIKENOD@vector?5too?5long@
CONST	SEGMENT
??_C@_0BA@FOIKENOD@vector?5too?5long@ DB 'vector too long', 00H ; `string'
CONST	ENDS
;	COMDAT ??_R0?AVCGraphicThingInstance@@@8
data$r	SEGMENT
??_R0?AVCGraphicThingInstance@@@8 DD FLAT:??_7type_info@@6B@ ; CGraphicThingInstance `RTTI Type Descriptor'
	DD	00H
	DB	'.?AVCGraphicThingInstance@@', 00H
data$r	ENDS
;	COMDAT ??_R0?AVCGraphicObjectInstance@@@8
data$r	SEGMENT
??_R0?AVCGraphicObjectInstance@@@8 DD FLAT:??_7type_info@@6B@ ; CGraphicObjectInstance `RTTI Type Descriptor'
	DD	00H
	DB	'.?AVCGraphicObjectInstance@@', 00H
data$r	ENDS
;	COMDAT ??_C@_0DP@MKJEJLFD@CMapOutdoor?3?3RenderBeforeLensFl@
CONST	SEGMENT
??_C@_0DP@MKJEJLFD@CMapOutdoor?3?3RenderBeforeLensFl@ DB 'CMapOutdoor::Re'
	DB	'nderBeforeLensFlare mc_pEnvironmentData is NULL', 00H ; `string'
CONST	ENDS
;	COMDAT ??_R1A@?0A@EA@bad_array_new_length@std@@8
rdata$r	SEGMENT
??_R1A@?0A@EA@bad_array_new_length@std@@8 DD FLAT:??_R0?AVbad_array_new_length@std@@@8 ; std::bad_array_new_length::`RTTI Base Class Descriptor at (0,-1,0,64)'
	DD	02H
	DD	00H
	DD	0ffffffffH
	DD	00H
	DD	040H
	DD	FLAT:??_R3bad_array_new_length@std@@8
rdata$r	ENDS
;	COMDAT ??_R2bad_array_new_length@std@@8
rdata$r	SEGMENT
??_R2bad_array_new_length@std@@8 DD FLAT:??_R1A@?0A@EA@bad_array_new_length@std@@8 ; std::bad_array_new_length::`RTTI Base Class Array'
	DD	FLAT:??_R1A@?0A@EA@bad_alloc@std@@8
	DD	FLAT:??_R1A@?0A@EA@exception@std@@8
rdata$r	ENDS
;	COMDAT ??_R3bad_array_new_length@std@@8
rdata$r	SEGMENT
??_R3bad_array_new_length@std@@8 DD 00H			; std::bad_array_new_length::`RTTI Class Hierarchy Descriptor'
	DD	00H
	DD	03H
	DD	FLAT:??_R2bad_array_new_length@std@@8
rdata$r	ENDS
;	COMDAT ??_R4bad_array_new_length@std@@6B@
rdata$r	SEGMENT
??_R4bad_array_new_length@std@@6B@ DD 00H		; std::bad_array_new_length::`RTTI Complete Object Locator'
	DD	00H
	DD	00H
	DD	FLAT:??_R0?AVbad_array_new_length@std@@@8
	DD	FLAT:??_R3bad_array_new_length@std@@8
rdata$r	ENDS
;	COMDAT ??_R1A@?0A@EA@bad_alloc@std@@8
rdata$r	SEGMENT
??_R1A@?0A@EA@bad_alloc@std@@8 DD FLAT:??_R0?AVbad_alloc@std@@@8 ; std::bad_alloc::`RTTI Base Class Descriptor at (0,-1,0,64)'
	DD	01H
	DD	00H
	DD	0ffffffffH
	DD	00H
	DD	040H
	DD	FLAT:??_R3bad_alloc@std@@8
rdata$r	ENDS
;	COMDAT ??_R2bad_alloc@std@@8
rdata$r	SEGMENT
??_R2bad_alloc@std@@8 DD FLAT:??_R1A@?0A@EA@bad_alloc@std@@8 ; std::bad_alloc::`RTTI Base Class Array'
	DD	FLAT:??_R1A@?0A@EA@exception@std@@8
rdata$r	ENDS
;	COMDAT ??_R3bad_alloc@std@@8
rdata$r	SEGMENT
??_R3bad_alloc@std@@8 DD 00H				; std::bad_alloc::`RTTI Class Hierarchy Descriptor'
	DD	00H
	DD	02H
	DD	FLAT:??_R2bad_alloc@std@@8
rdata$r	ENDS
;	COMDAT ??_R4bad_alloc@std@@6B@
rdata$r	SEGMENT
??_R4bad_alloc@std@@6B@ DD 00H				; std::bad_alloc::`RTTI Complete Object Locator'
	DD	00H
	DD	00H
	DD	FLAT:??_R0?AVbad_alloc@std@@@8
	DD	FLAT:??_R3bad_alloc@std@@8
rdata$r	ENDS
;	COMDAT ??_R1A@?0A@EA@exception@std@@8
rdata$r	SEGMENT
??_R1A@?0A@EA@exception@std@@8 DD FLAT:??_R0?AVexception@std@@@8 ; std::exception::`RTTI Base Class Descriptor at (0,-1,0,64)'
	DD	00H
	DD	00H
	DD	0ffffffffH
	DD	00H
	DD	040H
	DD	FLAT:??_R3exception@std@@8
rdata$r	ENDS
;	COMDAT ??_R2exception@std@@8
rdata$r	SEGMENT
??_R2exception@std@@8 DD FLAT:??_R1A@?0A@EA@exception@std@@8 ; std::exception::`RTTI Base Class Array'
rdata$r	ENDS
;	COMDAT ??_R3exception@std@@8
rdata$r	SEGMENT
??_R3exception@std@@8 DD 00H				; std::exception::`RTTI Class Hierarchy Descriptor'
	DD	00H
	DD	01H
	DD	FLAT:??_R2exception@std@@8
rdata$r	ENDS
;	COMDAT ??_R4exception@std@@6B@
rdata$r	SEGMENT
??_R4exception@std@@6B@ DD 00H				; std::exception::`RTTI Complete Object Locator'
	DD	00H
	DD	00H
	DD	FLAT:??_R0?AVexception@std@@@8
	DD	FLAT:??_R3exception@std@@8
rdata$r	ENDS
;	COMDAT __CT??_R0?AVexception@std@@@8??0exception@std@@QAE@ABV01@@Z12
xdata$x	SEGMENT
__CT??_R0?AVexception@std@@@8??0exception@std@@QAE@ABV01@@Z12 DD 00H
	DD	FLAT:??_R0?AVexception@std@@@8
	DD	00H
	DD	0ffffffffH
	ORG $+4
	DD	0cH
	DD	FLAT:??0exception@std@@QAE@ABV01@@Z
xdata$x	ENDS
;	COMDAT ??_R0?AVexception@std@@@8
data$r	SEGMENT
??_R0?AVexception@std@@@8 DD FLAT:??_7type_info@@6B@	; std::exception `RTTI Type Descriptor'
	DD	00H
	DB	'.?AVexception@std@@', 00H
data$r	ENDS
;	COMDAT __CT??_R0?AVbad_alloc@std@@@8??0bad_alloc@std@@QAE@ABV01@@Z12
xdata$x	SEGMENT
__CT??_R0?AVbad_alloc@std@@@8??0bad_alloc@std@@QAE@ABV01@@Z12 DD 010H
	DD	FLAT:??_R0?AVbad_alloc@std@@@8
	DD	00H
	DD	0ffffffffH
	ORG $+4
	DD	0cH
	DD	FLAT:??0bad_alloc@std@@QAE@ABV01@@Z
xdata$x	ENDS
;	COMDAT ??_R0?AVbad_alloc@std@@@8
data$r	SEGMENT
??_R0?AVbad_alloc@std@@@8 DD FLAT:??_7type_info@@6B@	; std::bad_alloc `RTTI Type Descriptor'
	DD	00H
	DB	'.?AVbad_alloc@std@@', 00H
data$r	ENDS
;	COMDAT __CT??_R0?AVbad_array_new_length@std@@@8??0bad_array_new_length@std@@QAE@ABV01@@Z12
xdata$x	SEGMENT
__CT??_R0?AVbad_array_new_length@std@@@8??0bad_array_new_length@std@@QAE@ABV01@@Z12 DD 00H
	DD	FLAT:??_R0?AVbad_array_new_length@std@@@8
	DD	00H
	DD	0ffffffffH
	ORG $+4
	DD	0cH
	DD	FLAT:??0bad_array_new_length@std@@QAE@ABV01@@Z
xdata$x	ENDS
;	COMDAT ??_R0?AVbad_array_new_length@std@@@8
data$r	SEGMENT
??_R0?AVbad_array_new_length@std@@@8 DD FLAT:??_7type_info@@6B@ ; std::bad_array_new_length `RTTI Type Descriptor'
	DD	00H
	DB	'.?AVbad_array_new_length@std@@', 00H
data$r	ENDS
;	COMDAT __CTA3?AVbad_array_new_length@std@@
xdata$x	SEGMENT
__CTA3?AVbad_array_new_length@std@@ DD 03H
	DD	FLAT:__CT??_R0?AVbad_array_new_length@std@@@8??0bad_array_new_length@std@@QAE@ABV01@@Z12
	DD	FLAT:__CT??_R0?AVbad_alloc@std@@@8??0bad_alloc@std@@QAE@ABV01@@Z12
	DD	FLAT:__CT??_R0?AVexception@std@@@8??0exception@std@@QAE@ABV01@@Z12
xdata$x	ENDS
;	COMDAT __TI3?AVbad_array_new_length@std@@
xdata$x	SEGMENT
__TI3?AVbad_array_new_length@std@@ DD 00H
	DD	FLAT:??1bad_array_new_length@std@@UAE@XZ
	DD	00H
	DD	FLAT:__CTA3?AVbad_array_new_length@std@@
xdata$x	ENDS
;	COMDAT ??_C@_0BF@KINCDENJ@bad?5array?5new?5length@
CONST	SEGMENT
??_C@_0BF@KINCDENJ@bad?5array?5new?5length@ DB 'bad array new length', 00H ; `string'
CONST	ENDS
;	COMDAT ??_7bad_array_new_length@std@@6B@
CONST	SEGMENT
??_7bad_array_new_length@std@@6B@ DD FLAT:??_R4bad_array_new_length@std@@6B@ ; std::bad_array_new_length::`vftable'
	DD	FLAT:??_Ebad_array_new_length@std@@UAEPAXI@Z
	DD	FLAT:?what@exception@std@@UBEPBDXZ
CONST	ENDS
;	COMDAT ??_7bad_alloc@std@@6B@
CONST	SEGMENT
??_7bad_alloc@std@@6B@ DD FLAT:??_R4bad_alloc@std@@6B@	; std::bad_alloc::`vftable'
	DD	FLAT:??_Ebad_alloc@std@@UAEPAXI@Z
	DD	FLAT:?what@exception@std@@UBEPBDXZ
CONST	ENDS
;	COMDAT ??_C@_0BC@EOODALEL@Unknown?5exception@
CONST	SEGMENT
??_C@_0BC@EOODALEL@Unknown?5exception@ DB 'Unknown exception', 00H ; `string'
CONST	ENDS
;	COMDAT ??_7exception@std@@6B@
CONST	SEGMENT
??_7exception@std@@6B@ DD FLAT:??_R4exception@std@@6B@	; std::exception::`vftable'
	DD	FLAT:??_Eexception@std@@UAEPAXI@Z
	DD	FLAT:?what@exception@std@@UBEPBDXZ
CONST	ENDS
;	COMDAT xdata$x
xdata$x	SEGMENT
__unwindtable$??$stable_sort@V?$_Vector_iterator@V?$_Vector_val@U?$_Simple_types@UTPatchDrawStruct@CMapOutdoor@@@std@@@std@@@std@@UFSortPatchDrawStructWithTerrainNum@CMapOutdoor@@@std@@YAXV?$_Vector_iterator@V?$_Vector_val@U?$_Simple_types@UTPatchDrawStruct@CMapOutdoor@@@std@@@std@@@0@0UFSortPatchDrawStructWithTerrainNum@CMapOutdoor@@@Z DD 0ffffffffH
	DD	FLAT:__unwindfunclet$??$stable_sort@V?$_Vector_iterator@V?$_Vector_val@U?$_Simple_types@UTPatchDrawStruct@CMapOutdoor@@@std@@@std@@@std@@UFSortPatchDrawStructWithTerrainNum@CMapOutdoor@@@std@@YAXV?$_Vector_iterator@V?$_Vector_val@U?$_Simple_types@UTPatchDrawStruct@CMapOutdoor@@@std@@@std@@@0@0UFSortPatchDrawStructWithTerrainNum@CMapOutdoor@@@Z$0
__ehfuncinfo$??$stable_sort@V?$_Vector_iterator@V?$_Vector_val@U?$_Simple_types@UTPatchDrawStruct@CMapOutdoor@@@std@@@std@@@std@@UFSortPatchDrawStructWithTerrainNum@CMapOutdoor@@@std@@YAXV?$_Vector_iterator@V?$_Vector_val@U?$_Simple_types@UTPatchDrawStruct@CMapOutdoor@@@std@@@std@@@0@0UFSortPatchDrawStructWithTerrainNum@CMapOutdoor@@@Z DD 019930522H
	DD	01H
	DD	FLAT:__unwindtable$??$stable_sort@V?$_Vector_iterator@V?$_Vector_val@U?$_Simple_types@UTPatchDrawStruct@CMapOutdoor@@@std@@@std@@@std@@UFSortPatchDrawStructWithTerrainNum@CMapOutdoor@@@std@@YAXV?$_Vector_iterator@V?$_Vector_val@U?$_Simple_types@UTPatchDrawStruct@CMapOutdoor@@@std@@@std@@@0@0UFSortPatchDrawStructWithTerrainNum@CMapOutdoor@@@Z
	DD	2 DUP(00H)
	DD	2 DUP(00H)
	DD	00H
	DD	01H
xdata$x	ENDS
CRT$XCU	SEGMENT
??m_TerrainNumVector$initializer$@FSortPatchDrawStructWithTerrainNum@CMapOutdoor@@2P6AXXZA@@3P6AXXZA DD FLAT:??__E?m_TerrainNumVector@FSortPatchDrawStructWithTerrainNum@CMapOutdoor@@2V?$vector@EV?$allocator@E@std@@@std@@A@@YAXXZ ; ??m_TerrainNumVector$initializer$@FSortPatchDrawStructWithTerrainNum@CMapOutdoor@@2P6AXXZA@@3P6AXXZA
CRT$XCU	ENDS
; Function compile flags: /Ogtp
; File C:\Program Files (x86)\Microsoft Visual Studio\2019\Professional\VC\Tools\MSVC\14.29.30133\include\xutility
; File C:\Program Files (x86)\Microsoft Visual Studio\2019\Professional\VC\Tools\MSVC\14.29.30133\include\utility
; File C:\Program Files (x86)\Microsoft Visual Studio\2019\Professional\VC\Tools\MSVC\14.29.30133\include\xutility
; File C:\Program Files (x86)\Microsoft Visual Studio\2019\Professional\VC\Tools\MSVC\14.29.30133\include\utility
; File C:\Program Files (x86)\Microsoft Visual Studio\2019\Professional\VC\Tools\MSVC\14.29.30133\include\xutility
;	COMDAT ??$reverse@PAUTPatchDrawStruct@CMapOutdoor@@@std@@YAXQAUTPatchDrawStruct@CMapOutdoor@@0@Z
_TEXT	SEGMENT
__First$ = 8						; size = 4
__Last$ = 12						; size = 4
??$reverse@PAUTPatchDrawStruct@CMapOutdoor@@@std@@YAXQAUTPatchDrawStruct@CMapOutdoor@@0@Z PROC ; std::reverse<CMapOutdoor::TPatchDrawStruct *>, COMDAT

; 5514 : _CONSTEXPR20 void reverse(const _BidIt _First, const _BidIt _Last) { // reverse elements in [_First, _Last)

  00000	55		 push	 ebp
  00001	8b ec		 mov	 ebp, esp

; 5515 :     _Adl_verify_range(_First, _Last);
; 5516 :     auto _UFirst = _Get_unwrapped(_First);

  00003	8b 4d 08	 mov	 ecx, DWORD PTR __First$[ebp]

; 5517 :     auto _ULast  = _Get_unwrapped(_Last);

  00006	8b 45 0c	 mov	 eax, DWORD PTR __Last$[ebp]

; 5545 :     for (; _UFirst != _ULast && _UFirst != --_ULast; ++_UFirst) {

  00009	3b c8		 cmp	 ecx, eax
  0000b	74 1d		 je	 SHORT $LN3@reverse
  0000d	0f 1f 00	 npad	 3
$LL4@reverse:
  00010	83 e8 10	 sub	 eax, 16			; 00000010H
  00013	3b c8		 cmp	 ecx, eax
  00015	74 13		 je	 SHORT $LN3@reverse
; File C:\Program Files (x86)\Microsoft Visual Studio\2019\Professional\VC\Tools\MSVC\14.29.30133\include\utility

; 105  :     _Left    = _STD move(_Right);

  00017	0f 10 00	 movups	 xmm0, XMMWORD PTR [eax]
  0001a	0f 10 09	 movups	 xmm1, XMMWORD PTR [ecx]
  0001d	0f 11 01	 movups	 XMMWORD PTR [ecx], xmm0
; File C:\Program Files (x86)\Microsoft Visual Studio\2019\Professional\VC\Tools\MSVC\14.29.30133\include\xutility

; 5545 :     for (; _UFirst != _ULast && _UFirst != --_ULast; ++_UFirst) {

  00020	83 c1 10	 add	 ecx, 16			; 00000010H
; File C:\Program Files (x86)\Microsoft Visual Studio\2019\Professional\VC\Tools\MSVC\14.29.30133\include\utility

; 106  :     _Right   = _STD move(_Tmp);

  00023	0f 11 08	 movups	 XMMWORD PTR [eax], xmm1
; File C:\Program Files (x86)\Microsoft Visual Studio\2019\Professional\VC\Tools\MSVC\14.29.30133\include\xutility

; 5545 :     for (; _UFirst != _ULast && _UFirst != --_ULast; ++_UFirst) {

  00026	3b c8		 cmp	 ecx, eax
  00028	75 e6		 jne	 SHORT $LL4@reverse
$LN3@reverse:

; 5546 :         _STD iter_swap(_UFirst, _ULast);
; 5547 :     }
; 5548 : }

  0002a	5d		 pop	 ebp
  0002b	c3		 ret	 0
??$reverse@PAUTPatchDrawStruct@CMapOutdoor@@@std@@YAXQAUTPatchDrawStruct@CMapOutdoor@@0@Z ENDP ; std::reverse<CMapOutdoor::TPatchDrawStruct *>
_TEXT	ENDS
; Function compile flags: /Ogtp
; File C:\Program Files (x86)\Microsoft Visual Studio\2019\Professional\VC\Tools\MSVC\14.29.30133\include\algorithm
; File C:\Program Files (x86)\Microsoft Visual Studio\2019\Professional\VC\Tools\MSVC\14.29.30133\include\xmemory
; File C:\Program Files (x86)\Microsoft Visual Studio\2019\Professional\VC\Tools\MSVC\14.29.30133\include\xutility
; File C:\Program Files (x86)\Microsoft Visual Studio\2019\Professional\VC\Tools\MSVC\14.29.30133\include\xmemory
; File C:\Program Files (x86)\Microsoft Visual Studio\2019\Professional\VC\Tools\MSVC\14.29.30133\include\xutility
; File C:\Program Files (x86)\Microsoft Visual Studio\2019\Professional\VC\Tools\MSVC\14.29.30133\include\algorithm
; File C:\Program Files (x86)\Microsoft Visual Studio\2019\Professional\VC\Tools\MSVC\14.29.30133\include\xmemory
; File C:\Program Files (x86)\Microsoft Visual Studio\2019\Professional\VC\Tools\MSVC\14.29.30133\include\xutility
; File C:\Program Files (x86)\Microsoft Visual Studio\2019\Professional\VC\Tools\MSVC\14.29.30133\include\xmemory
; File C:\Program Files (x86)\Microsoft Visual Studio\2019\Professional\VC\Tools\MSVC\14.29.30133\include\xutility
; File C:\Program Files (x86)\Microsoft Visual Studio\2019\Professional\VC\Tools\MSVC\14.29.30133\include\algorithm
; File C:\Program Files (x86)\Microsoft Visual Studio\2019\Professional\VC\Tools\MSVC\14.29.30133\include\xutility
; File C:\Program Files (x86)\Microsoft Visual Studio\2019\Professional\VC\Tools\MSVC\14.29.30133\include\algorithm
; File C:\Program Files (x86)\Microsoft Visual Studio\2019\Professional\VC\Tools\MSVC\14.29.30133\include\xutility
; File C:\Program Files (x86)\Microsoft Visual Studio\2019\Professional\VC\Tools\MSVC\14.29.30133\include\algorithm
;	COMDAT ??$_Buffered_rotate_unchecked@PAUTPatchDrawStruct@CMapOutdoor@@@std@@YAPAUTPatchDrawStruct@CMapOutdoor@@QAU12@00HH0H@Z
_TEXT	SEGMENT
__First$ = 8						; size = 4
__Mid$ = 12						; size = 4
__Last$ = 16						; size = 4
__Count1$ = 20						; size = 4
__Count2$ = 24						; size = 4
__Temp_ptr$ = 28					; size = 4
__Capacity$ = 32					; size = 4
??$_Buffered_rotate_unchecked@PAUTPatchDrawStruct@CMapOutdoor@@@std@@YAPAUTPatchDrawStruct@CMapOutdoor@@QAU12@00HH0H@Z PROC ; std::_Buffered_rotate_unchecked<CMapOutdoor::TPatchDrawStruct *>, COMDAT

; 5187 :     const ptrdiff_t _Capacity) { // rotate [_First, _Last) using temp buffer

  00000	55		 push	 ebp
  00001	8b ec		 mov	 ebp, esp

; 5188 :                                  // precondition: _Count1 == distance(_First, _Mid)
; 5189 :                                  // precondition: _Count2 == distance(_Mid, _Last)
; 5190 :     if (_Count1 == 0) {

  00003	8b 45 14	 mov	 eax, DWORD PTR __Count1$[ebp]
  00006	85 c0		 test	 eax, eax
  00008	75 05		 jne	 SHORT $LN2@Buffered_r

; 5191 :         return _Last;

  0000a	8b 45 10	 mov	 eax, DWORD PTR __Last$[ebp]

; 5215 : }

  0000d	5d		 pop	 ebp
  0000e	c3		 ret	 0
$LN2@Buffered_r:

; 5192 :     }
; 5193 : 
; 5194 :     if (_Count2 == 0) {

  0000f	8b 4d 18	 mov	 ecx, DWORD PTR __Count2$[ebp]
  00012	85 c9		 test	 ecx, ecx
  00014	75 05		 jne	 SHORT $LN3@Buffered_r

; 5195 :         return _First;

  00016	8b 45 08	 mov	 eax, DWORD PTR __First$[ebp]

; 5215 : }

  00019	5d		 pop	 ebp
  0001a	c3		 ret	 0
$LN3@Buffered_r:

; 5196 :     }
; 5197 : 
; 5198 :     if (_Count1 <= _Count2 && _Count1 <= _Capacity) { // buffer left range, then copy parts

  0001b	8b 55 20	 mov	 edx, DWORD PTR __Capacity$[ebp]
  0001e	53		 push	 ebx
  0001f	56		 push	 esi
  00020	57		 push	 edi
  00021	3b c1		 cmp	 eax, ecx
  00023	7f 36		 jg	 SHORT $LN4@Buffered_r
  00025	3b c2		 cmp	 eax, edx
  00027	7f 32		 jg	 SHORT $LN4@Buffered_r
; File C:\Program Files (x86)\Microsoft Visual Studio\2019\Professional\VC\Tools\MSVC\14.29.30133\include\xmemory

; 1514 :             return _Copy_memmove(_First, _Last, _Dest);

  00029	ff 75 1c	 push	 DWORD PTR __Temp_ptr$[ebp]
  0002c	8b 5d 0c	 mov	 ebx, DWORD PTR __Mid$[ebp]
  0002f	8b 75 08	 mov	 esi, DWORD PTR __First$[ebp]
  00032	53		 push	 ebx
  00033	56		 push	 esi
  00034	e8 00 00 00 00	 call	 ??$_Copy_memmove@PAUTPatchDrawStruct@CMapOutdoor@@PAU12@@std@@YAPAUTPatchDrawStruct@CMapOutdoor@@PAU12@00@Z ; std::_Copy_memmove<CMapOutdoor::TPatchDrawStruct *,CMapOutdoor::TPatchDrawStruct *>
; File C:\Program Files (x86)\Microsoft Visual Studio\2019\Professional\VC\Tools\MSVC\14.29.30133\include\xutility

; 4425 :             return _Copy_memmove(_First, _Last, _Dest);

  00039	56		 push	 esi
  0003a	ff 75 10	 push	 DWORD PTR __Last$[ebp]
; File C:\Program Files (x86)\Microsoft Visual Studio\2019\Professional\VC\Tools\MSVC\14.29.30133\include\xmemory

; 1482 :     constexpr _Uninitialized_backout(_NoThrowFwdIt _First_, _NoThrowFwdIt _Last_) : _First(_First_), _Last(_Last_) {}

  0003d	8b f8		 mov	 edi, eax
; File C:\Program Files (x86)\Microsoft Visual Studio\2019\Professional\VC\Tools\MSVC\14.29.30133\include\xutility

; 4425 :             return _Copy_memmove(_First, _Last, _Dest);

  0003f	53		 push	 ebx
  00040	e8 00 00 00 00	 call	 ??$_Copy_memmove@PAUTPatchDrawStruct@CMapOutdoor@@PAU12@@std@@YAPAUTPatchDrawStruct@CMapOutdoor@@PAU12@00@Z ; std::_Copy_memmove<CMapOutdoor::TPatchDrawStruct *,CMapOutdoor::TPatchDrawStruct *>
  00045	8b f0		 mov	 esi, eax
  00047	56		 push	 esi
  00048	57		 push	 edi
  00049	ff 75 1c	 push	 DWORD PTR __Temp_ptr$[ebp]
  0004c	e8 00 00 00 00	 call	 ??$_Copy_memmove@PAUTPatchDrawStruct@CMapOutdoor@@PAU12@@std@@YAPAUTPatchDrawStruct@CMapOutdoor@@PAU12@00@Z ; std::_Copy_memmove<CMapOutdoor::TPatchDrawStruct *,CMapOutdoor::TPatchDrawStruct *>
  00051	83 c4 24	 add	 esp, 36			; 00000024H
; File C:\Program Files (x86)\Microsoft Visual Studio\2019\Professional\VC\Tools\MSVC\14.29.30133\include\algorithm

; 5203 :         return _New_mid; // _Backout destroys elements in temporary buffer

  00054	8b c6		 mov	 eax, esi
  00056	5f		 pop	 edi
  00057	5e		 pop	 esi
  00058	5b		 pop	 ebx

; 5215 : }

  00059	5d		 pop	 ebp
  0005a	c3		 ret	 0
$LN4@Buffered_r:

; 5204 :     }
; 5205 : 
; 5206 :     if (_Count2 <= _Capacity) { // buffer right range, then copy parts

  0005b	3b ca		 cmp	 ecx, edx
  0005d	7f 2f		 jg	 SHORT $LN5@Buffered_r
; File C:\Program Files (x86)\Microsoft Visual Studio\2019\Professional\VC\Tools\MSVC\14.29.30133\include\xmemory

; 1514 :             return _Copy_memmove(_First, _Last, _Dest);

  0005f	ff 75 1c	 push	 DWORD PTR __Temp_ptr$[ebp]
  00062	8b 7d 10	 mov	 edi, DWORD PTR __Last$[ebp]
  00065	8b 75 0c	 mov	 esi, DWORD PTR __Mid$[ebp]
  00068	57		 push	 edi
  00069	56		 push	 esi
  0006a	e8 00 00 00 00	 call	 ??$_Copy_memmove@PAUTPatchDrawStruct@CMapOutdoor@@PAU12@@std@@YAPAUTPatchDrawStruct@CMapOutdoor@@PAU12@00@Z ; std::_Copy_memmove<CMapOutdoor::TPatchDrawStruct *,CMapOutdoor::TPatchDrawStruct *>
; File C:\Program Files (x86)\Microsoft Visual Studio\2019\Professional\VC\Tools\MSVC\14.29.30133\include\xutility

; 4468 :             return _Copy_backward_memmove(_First, _Last, _Dest);

  0006f	57		 push	 edi
  00070	56		 push	 esi
  00071	8b 75 08	 mov	 esi, DWORD PTR __First$[ebp]
; File C:\Program Files (x86)\Microsoft Visual Studio\2019\Professional\VC\Tools\MSVC\14.29.30133\include\xmemory

; 1482 :     constexpr _Uninitialized_backout(_NoThrowFwdIt _First_, _NoThrowFwdIt _Last_) : _First(_First_), _Last(_Last_) {}

  00074	8b d8		 mov	 ebx, eax
; File C:\Program Files (x86)\Microsoft Visual Studio\2019\Professional\VC\Tools\MSVC\14.29.30133\include\xutility

; 4468 :             return _Copy_backward_memmove(_First, _Last, _Dest);

  00076	56		 push	 esi
  00077	e8 00 00 00 00	 call	 ??$_Copy_backward_memmove@PAUTPatchDrawStruct@CMapOutdoor@@PAU12@@std@@YAPAUTPatchDrawStruct@CMapOutdoor@@PAU12@00@Z ; std::_Copy_backward_memmove<CMapOutdoor::TPatchDrawStruct *,CMapOutdoor::TPatchDrawStruct *>

; 4425 :             return _Copy_memmove(_First, _Last, _Dest);

  0007c	56		 push	 esi
  0007d	53		 push	 ebx
  0007e	ff 75 1c	 push	 DWORD PTR __Temp_ptr$[ebp]
  00081	e8 00 00 00 00	 call	 ??$_Copy_memmove@PAUTPatchDrawStruct@CMapOutdoor@@PAU12@@std@@YAPAUTPatchDrawStruct@CMapOutdoor@@PAU12@00@Z ; std::_Copy_memmove<CMapOutdoor::TPatchDrawStruct *,CMapOutdoor::TPatchDrawStruct *>
  00086	83 c4 24	 add	 esp, 36			; 00000024H
  00089	5f		 pop	 edi
  0008a	5e		 pop	 esi
  0008b	5b		 pop	 ebx
; File C:\Program Files (x86)\Microsoft Visual Studio\2019\Professional\VC\Tools\MSVC\14.29.30133\include\algorithm

; 5215 : }

  0008c	5d		 pop	 ebp
  0008d	c3		 ret	 0
$LN5@Buffered_r:
; File C:\Program Files (x86)\Microsoft Visual Studio\2019\Professional\VC\Tools\MSVC\14.29.30133\include\xutility

; 5581 :     if (_UFirst == _UMid) {

  0008e	8b 7d 08	 mov	 edi, DWORD PTR __First$[ebp]
  00091	8b 5d 0c	 mov	 ebx, DWORD PTR __Mid$[ebp]
  00094	3b fb		 cmp	 edi, ebx
  00096	75 0a		 jne	 SHORT $LN57@Buffered_r

; 5582 :         return _Last;

  00098	8b 7d 10	 mov	 edi, DWORD PTR __Last$[ebp]
; File C:\Program Files (x86)\Microsoft Visual Studio\2019\Professional\VC\Tools\MSVC\14.29.30133\include\algorithm

; 5214 :     return _STD rotate(_First, _Mid, _Last);

  0009b	8b c7		 mov	 eax, edi
  0009d	5f		 pop	 edi
  0009e	5e		 pop	 esi
  0009f	5b		 pop	 ebx

; 5215 : }

  000a0	5d		 pop	 ebp
  000a1	c3		 ret	 0
$LN57@Buffered_r:
; File C:\Program Files (x86)\Microsoft Visual Studio\2019\Professional\VC\Tools\MSVC\14.29.30133\include\xutility

; 5585 :     if (_UMid == _ULast) {

  000a2	8b 75 10	 mov	 esi, DWORD PTR __Last$[ebp]
  000a5	3b de		 cmp	 ebx, esi
  000a7	74 1f		 je	 SHORT $LN56@Buffered_r

; 5586 :         return _First;
; 5587 :     }
; 5588 : 
; 5589 :     if constexpr (_Is_random_iter_v<_FwdIt>) {
; 5590 :         _STD reverse(_UFirst, _UMid);

  000a9	53		 push	 ebx
  000aa	57		 push	 edi
  000ab	e8 00 00 00 00	 call	 ??$reverse@PAUTPatchDrawStruct@CMapOutdoor@@@std@@YAXQAUTPatchDrawStruct@CMapOutdoor@@0@Z ; std::reverse<CMapOutdoor::TPatchDrawStruct *>

; 5591 :         _STD reverse(_UMid, _ULast);

  000b0	56		 push	 esi
  000b1	53		 push	 ebx
  000b2	e8 00 00 00 00	 call	 ??$reverse@PAUTPatchDrawStruct@CMapOutdoor@@@std@@YAXQAUTPatchDrawStruct@CMapOutdoor@@0@Z ; std::reverse<CMapOutdoor::TPatchDrawStruct *>

; 5592 :         _STD reverse(_UFirst, _ULast);

  000b7	56		 push	 esi
  000b8	57		 push	 edi
  000b9	e8 00 00 00 00	 call	 ??$reverse@PAUTPatchDrawStruct@CMapOutdoor@@@std@@YAXQAUTPatchDrawStruct@CMapOutdoor@@0@Z ; std::reverse<CMapOutdoor::TPatchDrawStruct *>

; 5593 :         _Seek_wrapped(_First, _UFirst + (_ULast - _UMid));

  000be	2b f3		 sub	 esi, ebx
  000c0	83 c4 18	 add	 esp, 24			; 00000018H
  000c3	83 e6 f0	 and	 esi, -16		; fffffff0H
  000c6	03 fe		 add	 edi, esi
$LN56@Buffered_r:
; File C:\Program Files (x86)\Microsoft Visual Studio\2019\Professional\VC\Tools\MSVC\14.29.30133\include\algorithm

; 5214 :     return _STD rotate(_First, _Mid, _Last);

  000c8	8b c7		 mov	 eax, edi
  000ca	5f		 pop	 edi
  000cb	5e		 pop	 esi
  000cc	5b		 pop	 ebx

; 5215 : }

  000cd	5d		 pop	 ebp
  000ce	c3		 ret	 0
??$_Buffered_rotate_unchecked@PAUTPatchDrawStruct@CMapOutdoor@@@std@@YAPAUTPatchDrawStruct@CMapOutdoor@@QAU12@00HH0H@Z ENDP ; std::_Buffered_rotate_unchecked<CMapOutdoor::TPatchDrawStruct *>
_TEXT	ENDS
; Function compile flags: /Ogtp
; File C:\Program Files (x86)\Microsoft Visual Studio\2019\Professional\VC\Tools\MSVC\14.29.30133\include\algorithm
; File C:\Program Files (x86)\Microsoft Visual Studio\2019\Professional\VC\Tools\MSVC\14.29.30133\include\xutility
; File C:\Program Files (x86)\Microsoft Visual Studio\2019\Professional\VC\Tools\MSVC\14.29.30133\include\algorithm
; File C:\Program Files (x86)\Microsoft Visual Studio\2019\Professional\VC\Tools\MSVC\14.29.30133\include\xutility
; File C:\Program Files (x86)\Microsoft Visual Studio\2019\Professional\VC\Tools\MSVC\14.29.30133\include\algorithm
; File C:\Program Files (x86)\Microsoft Visual Studio\2019\Professional\VC\Tools\MSVC\14.29.30133\include\xutility
; File C:\Program Files (x86)\Microsoft Visual Studio\2019\Professional\VC\Tools\MSVC\14.29.30133\include\algorithm
; File C:\Program Files (x86)\Microsoft Visual Studio\2019\Professional\VC\Tools\MSVC\14.29.30133\include\xutility
; File C:\Users\murat\Desktop\Siveps2-1-99-Project\source\client\Client\GameLib\MapOutdoor.h
; File C:\Program Files (x86)\Microsoft Visual Studio\2019\Professional\VC\Tools\MSVC\14.29.30133\include\xutility
; File C:\Program Files (x86)\Windows Kits\10\Include\10.0.19041.0\ucrt\corecrt_memory.h
; File C:\Program Files (x86)\Microsoft Visual Studio\2019\Professional\VC\Tools\MSVC\14.29.30133\include\xutility
; File C:\Program Files (x86)\Windows Kits\10\Include\10.0.19041.0\ucrt\corecrt_memory.h
; File C:\Program Files (x86)\Microsoft Visual Studio\2019\Professional\VC\Tools\MSVC\14.29.30133\include\xutility
; File C:\Users\murat\Desktop\Siveps2-1-99-Project\source\client\Client\GameLib\MapOutdoor.h
; File C:\Program Files (x86)\Microsoft Visual Studio\2019\Professional\VC\Tools\MSVC\14.29.30133\include\xutility
; File C:\Program Files (x86)\Windows Kits\10\Include\10.0.19041.0\ucrt\corecrt_memory.h
; File C:\Program Files (x86)\Microsoft Visual Studio\2019\Professional\VC\Tools\MSVC\14.29.30133\include\xutility
; File C:\Program Files (x86)\Windows Kits\10\Include\10.0.19041.0\ucrt\corecrt_memory.h
; File C:\Users\murat\Desktop\Siveps2-1-99-Project\source\client\Client\GameLib\MapOutdoor.h
; File C:\Program Files (x86)\Windows Kits\10\Include\10.0.19041.0\ucrt\corecrt_memory.h
; File C:\Program Files (x86)\Microsoft Visual Studio\2019\Professional\VC\Tools\MSVC\14.29.30133\include\xutility
; File C:\Users\murat\Desktop\Siveps2-1-99-Project\source\client\Client\GameLib\MapOutdoor.h
; File C:\Program Files (x86)\Microsoft Visual Studio\2019\Professional\VC\Tools\MSVC\14.29.30133\include\vector
; File C:\Users\murat\Desktop\Siveps2-1-99-Project\source\client\Client\GameLib\MapOutdoor.h
; File C:\Program Files (x86)\Microsoft Visual Studio\2019\Professional\VC\Tools\MSVC\14.29.30133\include\vector
; File C:\Users\murat\Desktop\Siveps2-1-99-Project\source\client\Client\GameLib\MapOutdoor.h
; File C:\Program Files (x86)\Microsoft Visual Studio\2019\Professional\VC\Tools\MSVC\14.29.30133\include\vector
; File C:\Users\murat\Desktop\Siveps2-1-99-Project\source\client\Client\GameLib\MapOutdoor.h
; File C:\Program Files (x86)\Microsoft Visual Studio\2019\Professional\VC\Tools\MSVC\14.29.30133\include\xutility
; File C:\Program Files (x86)\Windows Kits\10\Include\10.0.19041.0\ucrt\corecrt_memory.h
; File C:\Program Files (x86)\Microsoft Visual Studio\2019\Professional\VC\Tools\MSVC\14.29.30133\include\xutility
; File C:\Program Files (x86)\Windows Kits\10\Include\10.0.19041.0\ucrt\corecrt_memory.h
; File C:\Program Files (x86)\Microsoft Visual Studio\2019\Professional\VC\Tools\MSVC\14.29.30133\include\xutility
; File C:\Users\murat\Desktop\Siveps2-1-99-Project\source\client\Client\GameLib\MapOutdoor.h
; File C:\Program Files (x86)\Microsoft Visual Studio\2019\Professional\VC\Tools\MSVC\14.29.30133\include\vector
; File C:\Users\murat\Desktop\Siveps2-1-99-Project\source\client\Client\GameLib\MapOutdoor.h
; File C:\Program Files (x86)\Microsoft Visual Studio\2019\Professional\VC\Tools\MSVC\14.29.30133\include\vector
; File C:\Users\murat\Desktop\Siveps2-1-99-Project\source\client\Client\GameLib\MapOutdoor.h
; File C:\Program Files (x86)\Microsoft Visual Studio\2019\Professional\VC\Tools\MSVC\14.29.30133\include\vector
; File C:\Users\murat\Desktop\Siveps2-1-99-Project\source\client\Client\GameLib\MapOutdoor.h
; File C:\Program Files (x86)\Microsoft Visual Studio\2019\Professional\VC\Tools\MSVC\14.29.30133\include\vector
; File C:\Users\murat\Desktop\Siveps2-1-99-Project\source\client\Client\GameLib\MapOutdoor.h
; File C:\Program Files (x86)\Microsoft Visual Studio\2019\Professional\VC\Tools\MSVC\14.29.30133\include\vector
; File C:\Users\murat\Desktop\Siveps2-1-99-Project\source\client\Client\GameLib\MapOutdoor.h
; File C:\Program Files (x86)\Microsoft Visual Studio\2019\Professional\VC\Tools\MSVC\14.29.30133\include\algorithm
;	COMDAT ??$upper_bound@PAUTPatchDrawStruct@CMapOutdoor@@U12@UFSortPatchDrawStructWithTerrainNum@2@@std@@YAPAUTPatchDrawStruct@CMapOutdoor@@PAU12@0ABU12@UFSortPatchDrawStructWithTerrainNum@2@@Z
_TEXT	SEGMENT
__Count2$1$ = -20					; size = 4
__Val$1$ = -16						; size = 4
__UMid$1$ = -12						; size = 4
tv1037 = -8						; size = 4
_rhsTerrainNumOrder$1$ = -8				; size = 4
tv1038 = -1						; size = 1
tv1029 = -1						; size = 1
__First$ = 8						; size = 4
__Last$ = 12						; size = 4
__Val$ = 16						; size = 4
__Pred$ = 20						; size = 1
??$upper_bound@PAUTPatchDrawStruct@CMapOutdoor@@U12@UFSortPatchDrawStructWithTerrainNum@2@@std@@YAPAUTPatchDrawStruct@CMapOutdoor@@PAU12@0ABU12@UFSortPatchDrawStructWithTerrainNum@2@@Z PROC ; std::upper_bound<CMapOutdoor::TPatchDrawStruct *,CMapOutdoor::TPatchDrawStruct,CMapOutdoor::FSortPatchDrawStructWithTerrainNum>, COMDAT

; 6211 : _NODISCARD _CONSTEXPR20 _FwdIt upper_bound(_FwdIt _First, _FwdIt _Last, const _Ty& _Val, _Pr _Pred) {

  00000	55		 push	 ebp
  00001	8b ec		 mov	 ebp, esp
  00003	83 ec 14	 sub	 esp, 20			; 00000014H
  00006	56		 push	 esi
; File C:\Program Files (x86)\Microsoft Visual Studio\2019\Professional\VC\Tools\MSVC\14.29.30133\include\xutility

; 1590 :         return _Last - _First; // assume the iterator will do debug checking

  00007	8b 75 0c	 mov	 esi, DWORD PTR __Last$[ebp]
; File C:\Program Files (x86)\Microsoft Visual Studio\2019\Professional\VC\Tools\MSVC\14.29.30133\include\algorithm

; 6211 : _NODISCARD _CONSTEXPR20 _FwdIt upper_bound(_FwdIt _First, _FwdIt _Last, const _Ty& _Val, _Pr _Pred) {

  0000a	57		 push	 edi
; File C:\Program Files (x86)\Microsoft Visual Studio\2019\Professional\VC\Tools\MSVC\14.29.30133\include\xutility

; 1590 :         return _Last - _First; // assume the iterator will do debug checking

  0000b	8b 7d 08	 mov	 edi, DWORD PTR __First$[ebp]
  0000e	2b f7		 sub	 esi, edi
  00010	c1 fe 04	 sar	 esi, 4
  00013	89 75 0c	 mov	 DWORD PTR __Last$[ebp], esi
; File C:\Program Files (x86)\Microsoft Visual Studio\2019\Professional\VC\Tools\MSVC\14.29.30133\include\algorithm

; 6217 :     while (0 < _Count) { // divide and conquer, find half that contains answer

  00016	85 f6		 test	 esi, esi
  00018	0f 8e 78 01 00
	00		 jle	 $LN161@upper_boun
  0001e	8b 4d 10	 mov	 ecx, DWORD PTR __Val$[ebp]
  00021	8b 15 00 00 00
	00		 mov	 edx, DWORD PTR ?m_TerrainNumVector@FSortPatchDrawStructWithTerrainNum@CMapOutdoor@@2V?$vector@EV?$allocator@E@std@@@std@@A
  00027	83 c1 04	 add	 ecx, 4
  0002a	53		 push	 ebx
  0002b	8b 1d 04 00 00
	00		 mov	 ebx, DWORD PTR ?m_TerrainNumVector@FSortPatchDrawStructWithTerrainNum@CMapOutdoor@@2V?$vector@EV?$allocator@E@std@@@std@@A+4
  00031	89 4d f0	 mov	 DWORD PTR __Val$1$[ebp], ecx
$LL2@upper_boun:

; 6218 :         _Iter_diff_t<_FwdIt> _Count2 = _Count / 2;

  00034	8b c6		 mov	 eax, esi
; File C:\Program Files (x86)\Microsoft Visual Studio\2019\Professional\VC\Tools\MSVC\14.29.30133\include\xutility

; 5348 :     _Seek_wrapped(_First, _Find_unchecked(_Get_unwrapped(_First), _Get_unwrapped(_Last), _Val));

  00036	89 5d f8	 mov	 DWORD PTR tv1037[ebp], ebx
; File C:\Program Files (x86)\Microsoft Visual Studio\2019\Professional\VC\Tools\MSVC\14.29.30133\include\algorithm

; 6218 :         _Iter_diff_t<_FwdIt> _Count2 = _Count / 2;

  00039	d1 e8		 shr	 eax, 1
  0003b	89 45 ec	 mov	 DWORD PTR __Count2$1$[ebp], eax
; File C:\Program Files (x86)\Microsoft Visual Studio\2019\Professional\VC\Tools\MSVC\14.29.30133\include\xutility

; 1561 :         _Where += _Off;

  0003e	c1 e0 04	 shl	 eax, 4
  00041	03 c7		 add	 eax, edi
; File C:\Users\murat\Desktop\Siveps2-1-99-Project\source\client\Client\GameLib\MapOutdoor.h

; 360  : 				DWORD lhsTerrainNumOrder = 0, rhsTerrainNumOrder = 0;

  00043	33 ff		 xor	 edi, edi
; File C:\Program Files (x86)\Microsoft Visual Studio\2019\Professional\VC\Tools\MSVC\14.29.30133\include\xutility

; 1561 :         _Where += _Off;

  00045	89 45 f4	 mov	 DWORD PTR __UMid$1$[ebp], eax

; 5329 :     const auto _Result    = static_cast<remove_reference_t<_Iter_ref_t<_InIt>>*>(

  00048	8b c3		 mov	 eax, ebx
  0004a	2b c2		 sub	 eax, edx
; File C:\Program Files (x86)\Windows Kits\10\Include\10.0.19041.0\ucrt\corecrt_memory.h

; 111  :         return const_cast<void*>(memchr(_Pvc, _C, _N));

  0004c	50		 push	 eax
; File C:\Program Files (x86)\Microsoft Visual Studio\2019\Professional\VC\Tools\MSVC\14.29.30133\include\xutility

; 5329 :     const auto _Result    = static_cast<remove_reference_t<_Iter_ref_t<_InIt>>*>(

  0004d	0f b6 01	 movzx	 eax, BYTE PTR [ecx]
; File C:\Program Files (x86)\Windows Kits\10\Include\10.0.19041.0\ucrt\corecrt_memory.h

; 111  :         return const_cast<void*>(memchr(_Pvc, _C, _N));

  00050	50		 push	 eax
  00051	52		 push	 edx
  00052	e8 00 00 00 00	 call	 _memchr
; File C:\Program Files (x86)\Microsoft Visual Studio\2019\Professional\VC\Tools\MSVC\14.29.30133\include\xutility

; 5329 :     const auto _Result    = static_cast<remove_reference_t<_Iter_ref_t<_InIt>>*>(

  00057	8b 0d 00 00 00
	00		 mov	 ecx, DWORD PTR ?m_TerrainNumVector@FSortPatchDrawStructWithTerrainNum@CMapOutdoor@@2V?$vector@EV?$allocator@E@std@@@std@@A

; 5332 :         return _Result ? _Result : _Last;

  0005d	85 c0		 test	 eax, eax
  0005f	8b f3		 mov	 esi, ebx
  00061	0f 45 f0	 cmovne	 esi, eax
; File C:\Users\murat\Desktop\Siveps2-1-99-Project\source\client\Client\GameLib\MapOutdoor.h

; 365  : 				TTerrainNumVector::iterator rhsIterator = std::find(m_TerrainNumVector.begin(), m_TerrainNumVector.end(), rhs.byTerrainNum);

  00064	8b 45 f4	 mov	 eax, DWORD PTR __UMid$1$[ebp]
; File C:\Program Files (x86)\Microsoft Visual Studio\2019\Professional\VC\Tools\MSVC\14.29.30133\include\xutility

; 5329 :     const auto _Result    = static_cast<remove_reference_t<_Iter_ref_t<_InIt>>*>(

  00067	8a 50 04	 mov	 dl, BYTE PTR [eax+4]
  0006a	8b c3		 mov	 eax, ebx
  0006c	2b c1		 sub	 eax, ecx
  0006e	88 55 ff	 mov	 BYTE PTR tv1038[ebp], dl
; File C:\Program Files (x86)\Windows Kits\10\Include\10.0.19041.0\ucrt\corecrt_memory.h

; 111  :         return const_cast<void*>(memchr(_Pvc, _C, _N));

  00071	50		 push	 eax
; File C:\Program Files (x86)\Microsoft Visual Studio\2019\Professional\VC\Tools\MSVC\14.29.30133\include\xutility

; 5329 :     const auto _Result    = static_cast<remove_reference_t<_Iter_ref_t<_InIt>>*>(

  00072	0f b6 c2	 movzx	 eax, dl
; File C:\Program Files (x86)\Windows Kits\10\Include\10.0.19041.0\ucrt\corecrt_memory.h

; 111  :         return const_cast<void*>(memchr(_Pvc, _C, _N));

  00075	50		 push	 eax
  00076	51		 push	 ecx
  00077	e8 00 00 00 00	 call	 _memchr
; File C:\Users\murat\Desktop\Siveps2-1-99-Project\source\client\Client\GameLib\MapOutdoor.h

; 367  : 				if (lhsIterator != m_TerrainNumVector.end())

  0007c	8b 0d 00 00 00
	00		 mov	 ecx, DWORD PTR ?m_TerrainNumVector@FSortPatchDrawStructWithTerrainNum@CMapOutdoor@@2V?$vector@EV?$allocator@E@std@@@std@@A
; File C:\Program Files (x86)\Windows Kits\10\Include\10.0.19041.0\ucrt\corecrt_memory.h

; 111  :         return const_cast<void*>(memchr(_Pvc, _C, _N));

  00082	83 c4 18	 add	 esp, 24			; 00000018H
; File C:\Program Files (x86)\Microsoft Visual Studio\2019\Professional\VC\Tools\MSVC\14.29.30133\include\xutility

; 5332 :         return _Result ? _Result : _Last;

  00085	85 c0		 test	 eax, eax
  00087	8b d3		 mov	 edx, ebx
  00089	0f 45 d0	 cmovne	 edx, eax

; 5349 :     return _First;

  0008c	8b c3		 mov	 eax, ebx
  0008e	3b f0		 cmp	 esi, eax
; File C:\Users\murat\Desktop\Siveps2-1-99-Project\source\client\Client\GameLib\MapOutdoor.h

; 367  : 				if (lhsIterator != m_TerrainNumVector.end())

  00090	74 04		 je	 SHORT $LN14@upper_boun

; 368  : 				{
; 369  : 					blhsOrderFound = true;

  00092	8b fe		 mov	 edi, esi
  00094	2b f9		 sub	 edi, ecx
$LN14@upper_boun:
; File C:\Program Files (x86)\Microsoft Visual Studio\2019\Professional\VC\Tools\MSVC\14.29.30133\include\vector

; 154  :         return _Ptr == _Right._Ptr;

  00096	3b d0		 cmp	 edx, eax
; File C:\Users\murat\Desktop\Siveps2-1-99-Project\source\client\Client\GameLib\MapOutdoor.h

; 372  : 				if (rhsIterator != m_TerrainNumVector.end())

  00098	74 04		 je	 SHORT $LN159@upper_boun
; File C:\Program Files (x86)\Microsoft Visual Studio\2019\Professional\VC\Tools\MSVC\14.29.30133\include\vector

; 145  :         return _Ptr - _Right._Ptr;

  0009a	2b d1		 sub	 edx, ecx
; File C:\Users\murat\Desktop\Siveps2-1-99-Project\source\client\Client\GameLib\MapOutdoor.h

; 377  : 				if (!brhsOrderFound)

  0009c	eb 42		 jmp	 SHORT $LN164@upper_boun
$LN159@upper_boun:
; File C:\Program Files (x86)\Microsoft Visual Studio\2019\Professional\VC\Tools\MSVC\14.29.30133\include\vector

; 743  :         if (_Mylast != _My_data._Myend) {

  0009e	3b 05 08 00 00
	00		 cmp	 eax, DWORD PTR ?m_TerrainNumVector@FSortPatchDrawStructWithTerrainNum@CMapOutdoor@@2V?$vector@EV?$allocator@E@std@@@std@@A+8
  000a4	74 14		 je	 SHORT $LN102@upper_boun

; 726  :         _Alty_traits::construct(_Getal(), _Unfancy(_Mylast), _STD forward<_Valty>(_Val)...);

  000a6	8a 4d ff	 mov	 cl, BYTE PTR tv1038[ebp]
  000a9	88 08		 mov	 BYTE PTR [eax], cl

; 729  :         ++_Mylast;

  000ab	8b 1d 04 00 00
	00		 mov	 ebx, DWORD PTR ?m_TerrainNumVector@FSortPatchDrawStructWithTerrainNum@CMapOutdoor@@2V?$vector@EV?$allocator@E@std@@@std@@A+4
  000b1	43		 inc	 ebx
  000b2	89 1d 04 00 00
	00		 mov	 DWORD PTR ?m_TerrainNumVector@FSortPatchDrawStructWithTerrainNum@CMapOutdoor@@2V?$vector@EV?$allocator@E@std@@@std@@A+4, ebx

; 744  :             return _Emplace_back_with_unused_capacity(_STD forward<_Valty>(_Val)...);

  000b8	eb 1b		 jmp	 SHORT $LN101@upper_boun
$LN102@upper_boun:

; 747  :         _Ty& _Result = *_Emplace_reallocate(_Mylast, _STD forward<_Valty>(_Val)...);

  000ba	8b 4d f4	 mov	 ecx, DWORD PTR __UMid$1$[ebp]
  000bd	83 c1 04	 add	 ecx, 4
  000c0	51		 push	 ecx
  000c1	50		 push	 eax
  000c2	b9 00 00 00 00	 mov	 ecx, OFFSET ?m_TerrainNumVector@FSortPatchDrawStructWithTerrainNum@CMapOutdoor@@2V?$vector@EV?$allocator@E@std@@@std@@A ; CMapOutdoor::FSortPatchDrawStructWithTerrainNum::m_TerrainNumVector
  000c7	e8 00 00 00 00	 call	 ??$_Emplace_reallocate@ABE@?$vector@EV?$allocator@E@std@@@std@@QAEPAEQAEABE@Z ; std::vector<unsigned char,std::allocator<unsigned char> >::_Emplace_reallocate<unsigned char const &>
  000cc	8b 1d 04 00 00
	00		 mov	 ebx, DWORD PTR ?m_TerrainNumVector@FSortPatchDrawStructWithTerrainNum@CMapOutdoor@@2V?$vector@EV?$allocator@E@std@@@std@@A+4
  000d2	8b 45 f8	 mov	 eax, DWORD PTR tv1037[ebp]
$LN101@upper_boun:
; File C:\Users\murat\Desktop\Siveps2-1-99-Project\source\client\Client\GameLib\MapOutdoor.h

; 380  : 					rhsTerrainNumOrder = m_TerrainNumVector.size() -1;

  000d5	8b 0d 00 00 00
	00		 mov	 ecx, DWORD PTR ?m_TerrainNumVector@FSortPatchDrawStructWithTerrainNum@CMapOutdoor@@2V?$vector@EV?$allocator@E@std@@@std@@A
  000db	8b d3		 mov	 edx, ebx
  000dd	2b d1		 sub	 edx, ecx
  000df	4a		 dec	 edx
$LN164@upper_boun:

; 381  : 				}
; 382  : 				if (!blhsOrderFound)

  000e0	89 55 f8	 mov	 DWORD PTR _rhsTerrainNumOrder$1$[ebp], edx
  000e3	3b f0		 cmp	 esi, eax
  000e5	75 79		 jne	 SHORT $LN162@upper_boun
; File C:\Program Files (x86)\Microsoft Visual Studio\2019\Professional\VC\Tools\MSVC\14.29.30133\include\xutility

; 5329 :     const auto _Result    = static_cast<remove_reference_t<_Iter_ref_t<_InIt>>*>(

  000e7	8b 45 f0	 mov	 eax, DWORD PTR __Val$1$[ebp]

; 5348 :     _Seek_wrapped(_First, _Find_unchecked(_Get_unwrapped(_First), _Get_unwrapped(_Last), _Val));

  000ea	8b fb		 mov	 edi, ebx
  000ec	8b f7		 mov	 esi, edi

; 5329 :     const auto _Result    = static_cast<remove_reference_t<_Iter_ref_t<_InIt>>*>(

  000ee	8a 10		 mov	 dl, BYTE PTR [eax]
  000f0	8b c7		 mov	 eax, edi
  000f2	2b c1		 sub	 eax, ecx
  000f4	88 55 ff	 mov	 BYTE PTR tv1029[ebp], dl
; File C:\Program Files (x86)\Windows Kits\10\Include\10.0.19041.0\ucrt\corecrt_memory.h

; 111  :         return const_cast<void*>(memchr(_Pvc, _C, _N));

  000f7	50		 push	 eax
; File C:\Program Files (x86)\Microsoft Visual Studio\2019\Professional\VC\Tools\MSVC\14.29.30133\include\xutility

; 5329 :     const auto _Result    = static_cast<remove_reference_t<_Iter_ref_t<_InIt>>*>(

  000f8	0f b6 c2	 movzx	 eax, dl
; File C:\Program Files (x86)\Windows Kits\10\Include\10.0.19041.0\ucrt\corecrt_memory.h

; 111  :         return const_cast<void*>(memchr(_Pvc, _C, _N));

  000fb	50		 push	 eax
  000fc	51		 push	 ecx
  000fd	e8 00 00 00 00	 call	 _memchr
  00102	83 c4 0c	 add	 esp, 12			; 0000000cH
; File C:\Program Files (x86)\Microsoft Visual Studio\2019\Professional\VC\Tools\MSVC\14.29.30133\include\xutility

; 5332 :         return _Result ? _Result : _Last;

  00105	85 c0		 test	 eax, eax
  00107	0f 45 f8	 cmovne	 edi, eax
; File C:\Users\murat\Desktop\Siveps2-1-99-Project\source\client\Client\GameLib\MapOutdoor.h

; 384  : 					lhsIterator = std::find(m_TerrainNumVector.begin(), m_TerrainNumVector.end(), lhs.byTerrainNum);

  0010a	3b fe		 cmp	 edi, esi

; 385  : 					if (lhsIterator != m_TerrainNumVector.end())

  0010c	74 0a		 je	 SHORT $LN160@upper_boun
; File C:\Program Files (x86)\Microsoft Visual Studio\2019\Professional\VC\Tools\MSVC\14.29.30133\include\vector

; 145  :         return _Ptr - _Right._Ptr;

  0010e	8b 15 00 00 00
	00		 mov	 edx, DWORD PTR ?m_TerrainNumVector@FSortPatchDrawStructWithTerrainNum@CMapOutdoor@@2V?$vector@EV?$allocator@E@std@@@std@@A
  00114	2b fa		 sub	 edi, edx
; File C:\Users\murat\Desktop\Siveps2-1-99-Project\source\client\Client\GameLib\MapOutdoor.h

; 390  : 					if (!blhsOrderFound)

  00116	eb 4e		 jmp	 SHORT $LN19@upper_boun
$LN160@upper_boun:
; File C:\Program Files (x86)\Microsoft Visual Studio\2019\Professional\VC\Tools\MSVC\14.29.30133\include\vector

; 743  :         if (_Mylast != _My_data._Myend) {

  00118	3b 35 08 00 00
	00		 cmp	 esi, DWORD PTR ?m_TerrainNumVector@FSortPatchDrawStructWithTerrainNum@CMapOutdoor@@2V?$vector@EV?$allocator@E@std@@@std@@A+8
  0011e	74 1f		 je	 SHORT $LN150@upper_boun

; 726  :         _Alty_traits::construct(_Getal(), _Unfancy(_Mylast), _STD forward<_Valty>(_Val)...);

  00120	8a 45 ff	 mov	 al, BYTE PTR tv1029[ebp]
  00123	88 06		 mov	 BYTE PTR [esi], al

; 729  :         ++_Mylast;

  00125	8b 1d 04 00 00
	00		 mov	 ebx, DWORD PTR ?m_TerrainNumVector@FSortPatchDrawStructWithTerrainNum@CMapOutdoor@@2V?$vector@EV?$allocator@E@std@@@std@@A+4
; File C:\Users\murat\Desktop\Siveps2-1-99-Project\source\client\Client\GameLib\MapOutdoor.h

; 393  : 						lhsTerrainNumOrder = m_TerrainNumVector.size() -1;

  0012b	8b 15 00 00 00
	00		 mov	 edx, DWORD PTR ?m_TerrainNumVector@FSortPatchDrawStructWithTerrainNum@CMapOutdoor@@2V?$vector@EV?$allocator@E@std@@@std@@A
; File C:\Program Files (x86)\Microsoft Visual Studio\2019\Professional\VC\Tools\MSVC\14.29.30133\include\vector

; 729  :         ++_Mylast;

  00131	43		 inc	 ebx
; File C:\Users\murat\Desktop\Siveps2-1-99-Project\source\client\Client\GameLib\MapOutdoor.h

; 393  : 						lhsTerrainNumOrder = m_TerrainNumVector.size() -1;

  00132	8b fb		 mov	 edi, ebx
; File C:\Program Files (x86)\Microsoft Visual Studio\2019\Professional\VC\Tools\MSVC\14.29.30133\include\vector

; 729  :         ++_Mylast;

  00134	89 1d 04 00 00
	00		 mov	 DWORD PTR ?m_TerrainNumVector@FSortPatchDrawStructWithTerrainNum@CMapOutdoor@@2V?$vector@EV?$allocator@E@std@@@std@@A+4, ebx
; File C:\Users\murat\Desktop\Siveps2-1-99-Project\source\client\Client\GameLib\MapOutdoor.h

; 393  : 						lhsTerrainNumOrder = m_TerrainNumVector.size() -1;

  0013a	2b fa		 sub	 edi, edx
  0013c	4f		 dec	 edi
  0013d	eb 27		 jmp	 SHORT $LN19@upper_boun
$LN150@upper_boun:
; File C:\Program Files (x86)\Microsoft Visual Studio\2019\Professional\VC\Tools\MSVC\14.29.30133\include\vector

; 747  :         _Ty& _Result = *_Emplace_reallocate(_Mylast, _STD forward<_Valty>(_Val)...);

  0013f	ff 75 f0	 push	 DWORD PTR __Val$1$[ebp]
  00142	b9 00 00 00 00	 mov	 ecx, OFFSET ?m_TerrainNumVector@FSortPatchDrawStructWithTerrainNum@CMapOutdoor@@2V?$vector@EV?$allocator@E@std@@@std@@A ; CMapOutdoor::FSortPatchDrawStructWithTerrainNum::m_TerrainNumVector
  00147	56		 push	 esi
  00148	e8 00 00 00 00	 call	 ??$_Emplace_reallocate@ABE@?$vector@EV?$allocator@E@std@@@std@@QAEPAEQAEABE@Z ; std::vector<unsigned char,std::allocator<unsigned char> >::_Emplace_reallocate<unsigned char const &>
  0014d	8b 1d 04 00 00
	00		 mov	 ebx, DWORD PTR ?m_TerrainNumVector@FSortPatchDrawStructWithTerrainNum@CMapOutdoor@@2V?$vector@EV?$allocator@E@std@@@std@@A+4
; File C:\Users\murat\Desktop\Siveps2-1-99-Project\source\client\Client\GameLib\MapOutdoor.h

; 393  : 						lhsTerrainNumOrder = m_TerrainNumVector.size() -1;

  00153	8b fb		 mov	 edi, ebx
  00155	8b 15 00 00 00
	00		 mov	 edx, DWORD PTR ?m_TerrainNumVector@FSortPatchDrawStructWithTerrainNum@CMapOutdoor@@2V?$vector@EV?$allocator@E@std@@@std@@A
  0015b	2b fa		 sub	 edi, edx
  0015d	4f		 dec	 edi
  0015e	eb 06		 jmp	 SHORT $LN19@upper_boun
$LN162@upper_boun:

; 381  : 				}
; 382  : 				if (!blhsOrderFound)

  00160	8b 15 00 00 00
	00		 mov	 edx, DWORD PTR ?m_TerrainNumVector@FSortPatchDrawStructWithTerrainNum@CMapOutdoor@@2V?$vector@EV?$allocator@E@std@@@std@@A
$LN19@upper_boun:

; 394  : 					}
; 395  : 				}
; 396  : 
; 397  : 				return lhsTerrainNumOrder < rhsTerrainNumOrder;

  00166	3b 7d f8	 cmp	 edi, DWORD PTR _rhsTerrainNumOrder$1$[ebp]
; File C:\Program Files (x86)\Microsoft Visual Studio\2019\Professional\VC\Tools\MSVC\14.29.30133\include\algorithm

; 6220 :         if (_Pred(_Val, *_UMid)) {

  00169	73 08		 jae	 SHORT $LN4@upper_boun

; 6221 :             _Count = _Count2;

  0016b	8b 75 ec	 mov	 esi, DWORD PTR __Count2$1$[ebp]

; 6222 :         } else { // try top half

  0016e	8b 7d 08	 mov	 edi, DWORD PTR __First$[ebp]
  00171	eb 14		 jmp	 SHORT $LN165@upper_boun
$LN4@upper_boun:

; 6223 :             _UFirst = _Next_iter(_UMid);

  00173	8b 7d f4	 mov	 edi, DWORD PTR __UMid$1$[ebp]

; 6224 :             _Count -= _Count2 + 1;

  00176	83 c9 ff	 or	 ecx, -1
  00179	2b 4d ec	 sub	 ecx, DWORD PTR __Count2$1$[ebp]
  0017c	83 c7 10	 add	 edi, 16			; 00000010H
  0017f	8b 75 0c	 mov	 esi, DWORD PTR __Last$[ebp]
  00182	89 7d 08	 mov	 DWORD PTR __First$[ebp], edi
  00185	03 f1		 add	 esi, ecx
$LN165@upper_boun:

; 6217 :     while (0 < _Count) { // divide and conquer, find half that contains answer

  00187	8b 4d f0	 mov	 ecx, DWORD PTR __Val$1$[ebp]
  0018a	89 75 0c	 mov	 DWORD PTR __Last$[ebp], esi
  0018d	85 f6		 test	 esi, esi
  0018f	0f 8f 9f fe ff
	ff		 jg	 $LL2@upper_boun

; 6225 :         }
; 6226 :     }
; 6227 : 
; 6228 :     _Seek_wrapped(_First, _UFirst);
; 6229 :     return _First;

  00195	5b		 pop	 ebx
$LN161@upper_boun:

; 6230 : }

  00196	8b c7		 mov	 eax, edi
  00198	5f		 pop	 edi
  00199	5e		 pop	 esi
  0019a	8b e5		 mov	 esp, ebp
  0019c	5d		 pop	 ebp
  0019d	c3		 ret	 0
??$upper_bound@PAUTPatchDrawStruct@CMapOutdoor@@U12@UFSortPatchDrawStructWithTerrainNum@2@@std@@YAPAUTPatchDrawStruct@CMapOutdoor@@PAU12@0ABU12@UFSortPatchDrawStructWithTerrainNum@2@@Z ENDP ; std::upper_bound<CMapOutdoor::TPatchDrawStruct *,CMapOutdoor::TPatchDrawStruct,CMapOutdoor::FSortPatchDrawStructWithTerrainNum>
_TEXT	ENDS
; Function compile flags: /Ogtp
; File C:\Program Files (x86)\Microsoft Visual Studio\2019\Professional\VC\Tools\MSVC\14.29.30133\include\algorithm
;	COMDAT ??$_Buffered_inplace_merge_divide_and_conquer2@PAUTPatchDrawStruct@CMapOutdoor@@UFSortPatchDrawStructWithTerrainNum@2@@std@@YAXPAUTPatchDrawStruct@CMapOutdoor@@00HHQAU12@HUFSortPatchDrawStructWithTerrainNum@2@00HH@Z
_TEXT	SEGMENT
__First$ = 8						; size = 4
__Mid$ = 12						; size = 4
__Last$ = 16						; size = 4
__Count1$ = 20						; size = 4
__Count2$ = 24						; size = 4
__Temp_ptr$ = 28					; size = 4
__Capacity$ = 32					; size = 4
__Pred$ = 36						; size = 1
__Firstn$ = 40						; size = 4
__Lastn$ = 44						; size = 4
__Count1n$ = 48						; size = 4
__Count2n$ = 52						; size = 4
??$_Buffered_inplace_merge_divide_and_conquer2@PAUTPatchDrawStruct@CMapOutdoor@@UFSortPatchDrawStructWithTerrainNum@2@@std@@YAXPAUTPatchDrawStruct@CMapOutdoor@@00HHQAU12@HUFSortPatchDrawStructWithTerrainNum@2@00HH@Z PROC ; std::_Buffered_inplace_merge_divide_and_conquer2<CMapOutdoor::TPatchDrawStruct *,CMapOutdoor::FSortPatchDrawStructWithTerrainNum>, COMDAT

; 6731 :     _BidIt _Firstn, _BidIt _Lastn, _Iter_diff_t<_BidIt> _Count1n, _Iter_diff_t<_BidIt> _Count2n) {

  00000	55		 push	 ebp
  00001	8b ec		 mov	 ebp, esp

; 6732 :     // common block of _Buffered_inplace_merge_divide_and_conquer, below
; 6733 :     using _Diff  = _Iter_diff_t<_BidIt>;
; 6734 :     _BidIt _Midn = _Buffered_rotate_unchecked(_Firstn, _Mid, _Lastn, static_cast<_Diff>(_Count1 - _Count1n), _Count2n,

  00003	8b 45 14	 mov	 eax, DWORD PTR __Count1$[ebp]
  00006	2b 45 30	 sub	 eax, DWORD PTR __Count1n$[ebp]
  00009	53		 push	 ebx
  0000a	ff 75 20	 push	 DWORD PTR __Capacity$[ebp]
  0000d	89 45 14	 mov	 DWORD PTR __Count1$[ebp], eax
  00010	ff 75 1c	 push	 DWORD PTR __Temp_ptr$[ebp]
  00013	ff 75 34	 push	 DWORD PTR __Count2n$[ebp]
  00016	50		 push	 eax
  00017	ff 75 2c	 push	 DWORD PTR __Lastn$[ebp]
  0001a	ff 75 0c	 push	 DWORD PTR __Mid$[ebp]
  0001d	ff 75 28	 push	 DWORD PTR __Firstn$[ebp]
  00020	e8 00 00 00 00	 call	 ??$_Buffered_rotate_unchecked@PAUTPatchDrawStruct@CMapOutdoor@@@std@@YAPAUTPatchDrawStruct@CMapOutdoor@@QAU12@00HH0H@Z ; std::_Buffered_rotate_unchecked<CMapOutdoor::TPatchDrawStruct *>

; 6735 :         _Temp_ptr, _Capacity); // rearrange middle
; 6736 :     _Buffered_inplace_merge_unchecked(

  00025	ff 75 24	 push	 DWORD PTR __Pred$[ebp]
  00028	8b d8		 mov	 ebx, eax
  0002a	ff 75 20	 push	 DWORD PTR __Capacity$[ebp]
  0002d	ff 75 1c	 push	 DWORD PTR __Temp_ptr$[ebp]
  00030	ff 75 34	 push	 DWORD PTR __Count2n$[ebp]
  00033	ff 75 30	 push	 DWORD PTR __Count1n$[ebp]
  00036	53		 push	 ebx
  00037	ff 75 28	 push	 DWORD PTR __Firstn$[ebp]
  0003a	ff 75 08	 push	 DWORD PTR __First$[ebp]
  0003d	e8 00 00 00 00	 call	 ??$_Buffered_inplace_merge_unchecked@PAUTPatchDrawStruct@CMapOutdoor@@UFSortPatchDrawStructWithTerrainNum@2@@std@@YAXPAUTPatchDrawStruct@CMapOutdoor@@00HHQAU12@HUFSortPatchDrawStructWithTerrainNum@2@@Z ; std::_Buffered_inplace_merge_unchecked<CMapOutdoor::TPatchDrawStruct *,CMapOutdoor::FSortPatchDrawStructWithTerrainNum>

; 6737 :         _First, _Firstn, _Midn, _Count1n, _Count2n, _Temp_ptr, _Capacity, _Pred); // merge each new part
; 6738 :     _Buffered_inplace_merge_unchecked(_Midn, _Lastn, _Last, static_cast<_Diff>(_Count1 - _Count1n),

  00042	ff 75 24	 push	 DWORD PTR __Pred$[ebp]
  00045	8b 45 18	 mov	 eax, DWORD PTR __Count2$[ebp]
  00048	ff 75 20	 push	 DWORD PTR __Capacity$[ebp]
  0004b	2b 45 34	 sub	 eax, DWORD PTR __Count2n$[ebp]
  0004e	ff 75 1c	 push	 DWORD PTR __Temp_ptr$[ebp]
  00051	50		 push	 eax
  00052	ff 75 14	 push	 DWORD PTR __Count1$[ebp]
  00055	ff 75 10	 push	 DWORD PTR __Last$[ebp]
  00058	ff 75 2c	 push	 DWORD PTR __Lastn$[ebp]
  0005b	53		 push	 ebx
  0005c	e8 00 00 00 00	 call	 ??$_Buffered_inplace_merge_unchecked@PAUTPatchDrawStruct@CMapOutdoor@@UFSortPatchDrawStructWithTerrainNum@2@@std@@YAXPAUTPatchDrawStruct@CMapOutdoor@@00HHQAU12@HUFSortPatchDrawStructWithTerrainNum@2@@Z ; std::_Buffered_inplace_merge_unchecked<CMapOutdoor::TPatchDrawStruct *,CMapOutdoor::FSortPatchDrawStructWithTerrainNum>
  00061	83 c4 5c	 add	 esp, 92			; 0000005cH
  00064	5b		 pop	 ebx

; 6739 :         static_cast<_Diff>(_Count2 - _Count2n), _Temp_ptr, _Capacity, _Pred);
; 6740 : }

  00065	5d		 pop	 ebp
  00066	c3		 ret	 0
??$_Buffered_inplace_merge_divide_and_conquer2@PAUTPatchDrawStruct@CMapOutdoor@@UFSortPatchDrawStructWithTerrainNum@2@@std@@YAXPAUTPatchDrawStruct@CMapOutdoor@@00HHQAU12@HUFSortPatchDrawStructWithTerrainNum@2@00HH@Z ENDP ; std::_Buffered_inplace_merge_divide_and_conquer2<CMapOutdoor::TPatchDrawStruct *,CMapOutdoor::FSortPatchDrawStructWithTerrainNum>
_TEXT	ENDS
; Function compile flags: /Ogtp
; File C:\Program Files (x86)\Microsoft Visual Studio\2019\Professional\VC\Tools\MSVC\14.29.30133\include\xutility
; File C:\Users\murat\Desktop\Siveps2-1-99-Project\source\client\Client\GameLib\MapOutdoor.h
; File C:\Program Files (x86)\Microsoft Visual Studio\2019\Professional\VC\Tools\MSVC\14.29.30133\include\xutility
; File C:\Users\murat\Desktop\Siveps2-1-99-Project\source\client\Client\GameLib\MapOutdoor.h
; File C:\Program Files (x86)\Microsoft Visual Studio\2019\Professional\VC\Tools\MSVC\14.29.30133\include\xutility
; File C:\Program Files (x86)\Windows Kits\10\Include\10.0.19041.0\ucrt\corecrt_memory.h
; File C:\Program Files (x86)\Microsoft Visual Studio\2019\Professional\VC\Tools\MSVC\14.29.30133\include\xutility
; File C:\Program Files (x86)\Windows Kits\10\Include\10.0.19041.0\ucrt\corecrt_memory.h
; File C:\Program Files (x86)\Microsoft Visual Studio\2019\Professional\VC\Tools\MSVC\14.29.30133\include\xutility
; File C:\Program Files (x86)\Windows Kits\10\Include\10.0.19041.0\ucrt\corecrt_memory.h
; File C:\Program Files (x86)\Microsoft Visual Studio\2019\Professional\VC\Tools\MSVC\14.29.30133\include\xutility
; File C:\Program Files (x86)\Windows Kits\10\Include\10.0.19041.0\ucrt\corecrt_memory.h
; File C:\Users\murat\Desktop\Siveps2-1-99-Project\source\client\Client\GameLib\MapOutdoor.h
; File C:\Program Files (x86)\Windows Kits\10\Include\10.0.19041.0\ucrt\corecrt_memory.h
; File C:\Program Files (x86)\Microsoft Visual Studio\2019\Professional\VC\Tools\MSVC\14.29.30133\include\xutility
; File C:\Users\murat\Desktop\Siveps2-1-99-Project\source\client\Client\GameLib\MapOutdoor.h
; File C:\Program Files (x86)\Microsoft Visual Studio\2019\Professional\VC\Tools\MSVC\14.29.30133\include\vector
; File C:\Users\murat\Desktop\Siveps2-1-99-Project\source\client\Client\GameLib\MapOutdoor.h
; File C:\Program Files (x86)\Microsoft Visual Studio\2019\Professional\VC\Tools\MSVC\14.29.30133\include\vector
; File C:\Users\murat\Desktop\Siveps2-1-99-Project\source\client\Client\GameLib\MapOutdoor.h
; File C:\Program Files (x86)\Microsoft Visual Studio\2019\Professional\VC\Tools\MSVC\14.29.30133\include\vector
; File C:\Users\murat\Desktop\Siveps2-1-99-Project\source\client\Client\GameLib\MapOutdoor.h
; File C:\Program Files (x86)\Microsoft Visual Studio\2019\Professional\VC\Tools\MSVC\14.29.30133\include\xutility
; File C:\Program Files (x86)\Windows Kits\10\Include\10.0.19041.0\ucrt\corecrt_memory.h
; File C:\Program Files (x86)\Microsoft Visual Studio\2019\Professional\VC\Tools\MSVC\14.29.30133\include\xutility
; File C:\Program Files (x86)\Windows Kits\10\Include\10.0.19041.0\ucrt\corecrt_memory.h
; File C:\Program Files (x86)\Microsoft Visual Studio\2019\Professional\VC\Tools\MSVC\14.29.30133\include\xutility
; File C:\Users\murat\Desktop\Siveps2-1-99-Project\source\client\Client\GameLib\MapOutdoor.h
; File C:\Program Files (x86)\Microsoft Visual Studio\2019\Professional\VC\Tools\MSVC\14.29.30133\include\vector
; File C:\Users\murat\Desktop\Siveps2-1-99-Project\source\client\Client\GameLib\MapOutdoor.h
; File C:\Program Files (x86)\Microsoft Visual Studio\2019\Professional\VC\Tools\MSVC\14.29.30133\include\vector
; File C:\Users\murat\Desktop\Siveps2-1-99-Project\source\client\Client\GameLib\MapOutdoor.h
; File C:\Program Files (x86)\Microsoft Visual Studio\2019\Professional\VC\Tools\MSVC\14.29.30133\include\vector
; File C:\Users\murat\Desktop\Siveps2-1-99-Project\source\client\Client\GameLib\MapOutdoor.h
; File C:\Program Files (x86)\Microsoft Visual Studio\2019\Professional\VC\Tools\MSVC\14.29.30133\include\vector
; File C:\Users\murat\Desktop\Siveps2-1-99-Project\source\client\Client\GameLib\MapOutdoor.h
; File C:\Program Files (x86)\Microsoft Visual Studio\2019\Professional\VC\Tools\MSVC\14.29.30133\include\vector
; File C:\Users\murat\Desktop\Siveps2-1-99-Project\source\client\Client\GameLib\MapOutdoor.h
; File C:\Program Files (x86)\Microsoft Visual Studio\2019\Professional\VC\Tools\MSVC\14.29.30133\include\xutility
;	COMDAT ??$lower_bound@PAUTPatchDrawStruct@CMapOutdoor@@U12@UFSortPatchDrawStructWithTerrainNum@2@@std@@YAPAUTPatchDrawStruct@CMapOutdoor@@PAU12@QAU12@ABU12@UFSortPatchDrawStructWithTerrainNum@2@@Z
_TEXT	SEGMENT
__Count2$1$ = -20					; size = 4
__Val$1$ = -16						; size = 4
__UMid$1$ = -12						; size = 4
tv1036 = -8						; size = 4
_rhsTerrainNumOrder$1$ = -8				; size = 4
tv1038 = -1						; size = 1
tv1028 = -1						; size = 1
__First$ = 8						; size = 4
__Last$ = 12						; size = 4
__Val$ = 16						; size = 4
__Pred$ = 20						; size = 1
??$lower_bound@PAUTPatchDrawStruct@CMapOutdoor@@U12@UFSortPatchDrawStructWithTerrainNum@2@@std@@YAPAUTPatchDrawStruct@CMapOutdoor@@PAU12@QAU12@ABU12@UFSortPatchDrawStructWithTerrainNum@2@@Z PROC ; std::lower_bound<CMapOutdoor::TPatchDrawStruct *,CMapOutdoor::TPatchDrawStruct,CMapOutdoor::FSortPatchDrawStructWithTerrainNum>, COMDAT

; 5753 : _NODISCARD _CONSTEXPR20 _FwdIt lower_bound(_FwdIt _First, const _FwdIt _Last, const _Ty& _Val, _Pr _Pred) {

  00000	55		 push	 ebp
  00001	8b ec		 mov	 ebp, esp

; 1590 :         return _Last - _First; // assume the iterator will do debug checking

  00003	8b 55 0c	 mov	 edx, DWORD PTR __Last$[ebp]

; 5753 : _NODISCARD _CONSTEXPR20 _FwdIt lower_bound(_FwdIt _First, const _FwdIt _Last, const _Ty& _Val, _Pr _Pred) {

  00006	83 ec 14	 sub	 esp, 20			; 00000014H
  00009	56		 push	 esi

; 1590 :         return _Last - _First; // assume the iterator will do debug checking

  0000a	8b 75 08	 mov	 esi, DWORD PTR __First$[ebp]
  0000d	2b d6		 sub	 edx, esi
  0000f	c1 fa 04	 sar	 edx, 4
  00012	89 55 0c	 mov	 DWORD PTR __Last$[ebp], edx

; 5754 :     // find first element not before _Val
; 5755 :     _Adl_verify_range(_First, _Last);
; 5756 :     auto _UFirst                = _Get_unwrapped(_First);
; 5757 :     _Iter_diff_t<_FwdIt> _Count = _STD distance(_UFirst, _Get_unwrapped(_Last));
; 5758 : 
; 5759 :     while (0 < _Count) { // divide and conquer, find half that contains answer

  00015	85 d2		 test	 edx, edx
  00017	0f 8e 7a 01 00
	00		 jle	 $LN161@lower_boun
  0001d	8b 45 10	 mov	 eax, DWORD PTR __Val$[ebp]
  00020	8b 0d 00 00 00
	00		 mov	 ecx, DWORD PTR ?m_TerrainNumVector@FSortPatchDrawStructWithTerrainNum@CMapOutdoor@@2V?$vector@EV?$allocator@E@std@@@std@@A
  00026	83 c0 04	 add	 eax, 4
  00029	53		 push	 ebx
  0002a	8b 1d 04 00 00
	00		 mov	 ebx, DWORD PTR ?m_TerrainNumVector@FSortPatchDrawStructWithTerrainNum@CMapOutdoor@@2V?$vector@EV?$allocator@E@std@@@std@@A+4
  00030	57		 push	 edi
  00031	89 45 f0	 mov	 DWORD PTR __Val$1$[ebp], eax
$LL2@lower_boun:

; 5760 :         const _Iter_diff_t<_FwdIt> _Count2 = _Count / 2;

  00034	8b c2		 mov	 eax, edx

; 5348 :     _Seek_wrapped(_First, _Find_unchecked(_Get_unwrapped(_First), _Get_unwrapped(_Last), _Val));

  00036	89 5d f8	 mov	 DWORD PTR tv1036[ebp], ebx

; 5760 :         const _Iter_diff_t<_FwdIt> _Count2 = _Count / 2;

  00039	d1 e8		 shr	 eax, 1
; File C:\Users\murat\Desktop\Siveps2-1-99-Project\source\client\Client\GameLib\MapOutdoor.h

; 360  : 				DWORD lhsTerrainNumOrder = 0, rhsTerrainNumOrder = 0;

  0003b	33 ff		 xor	 edi, edi
; File C:\Program Files (x86)\Microsoft Visual Studio\2019\Professional\VC\Tools\MSVC\14.29.30133\include\xutility

; 5760 :         const _Iter_diff_t<_FwdIt> _Count2 = _Count / 2;

  0003d	89 45 ec	 mov	 DWORD PTR __Count2$1$[ebp], eax

; 1561 :         _Where += _Off;

  00040	c1 e0 04	 shl	 eax, 4
  00043	03 c6		 add	 eax, esi
  00045	89 45 f4	 mov	 DWORD PTR __UMid$1$[ebp], eax
; File C:\Users\murat\Desktop\Siveps2-1-99-Project\source\client\Client\GameLib\MapOutdoor.h

; 364  : 				TTerrainNumVector::iterator lhsIterator = std::find(m_TerrainNumVector.begin(), m_TerrainNumVector.end(), lhs.byTerrainNum);

  00048	8d 50 04	 lea	 edx, DWORD PTR [eax+4]
; File C:\Program Files (x86)\Microsoft Visual Studio\2019\Professional\VC\Tools\MSVC\14.29.30133\include\xutility

; 5329 :     const auto _Result    = static_cast<remove_reference_t<_Iter_ref_t<_InIt>>*>(

  0004b	8b c3		 mov	 eax, ebx
  0004d	2b c1		 sub	 eax, ecx
; File C:\Program Files (x86)\Windows Kits\10\Include\10.0.19041.0\ucrt\corecrt_memory.h

; 111  :         return const_cast<void*>(memchr(_Pvc, _C, _N));

  0004f	50		 push	 eax
; File C:\Program Files (x86)\Microsoft Visual Studio\2019\Professional\VC\Tools\MSVC\14.29.30133\include\xutility

; 5329 :     const auto _Result    = static_cast<remove_reference_t<_Iter_ref_t<_InIt>>*>(

  00050	0f b6 02	 movzx	 eax, BYTE PTR [edx]
; File C:\Program Files (x86)\Windows Kits\10\Include\10.0.19041.0\ucrt\corecrt_memory.h

; 111  :         return const_cast<void*>(memchr(_Pvc, _C, _N));

  00053	50		 push	 eax
  00054	51		 push	 ecx
  00055	e8 00 00 00 00	 call	 _memchr
; File C:\Program Files (x86)\Microsoft Visual Studio\2019\Professional\VC\Tools\MSVC\14.29.30133\include\xutility

; 5329 :     const auto _Result    = static_cast<remove_reference_t<_Iter_ref_t<_InIt>>*>(

  0005a	8b 0d 00 00 00
	00		 mov	 ecx, DWORD PTR ?m_TerrainNumVector@FSortPatchDrawStructWithTerrainNum@CMapOutdoor@@2V?$vector@EV?$allocator@E@std@@@std@@A

; 5332 :         return _Result ? _Result : _Last;

  00060	85 c0		 test	 eax, eax
  00062	8b f3		 mov	 esi, ebx
  00064	0f 45 f0	 cmovne	 esi, eax

; 5329 :     const auto _Result    = static_cast<remove_reference_t<_Iter_ref_t<_InIt>>*>(

  00067	8b 45 f0	 mov	 eax, DWORD PTR __Val$1$[ebp]
  0006a	8a 10		 mov	 dl, BYTE PTR [eax]
  0006c	8b c3		 mov	 eax, ebx
  0006e	2b c1		 sub	 eax, ecx
  00070	88 55 ff	 mov	 BYTE PTR tv1038[ebp], dl
; File C:\Program Files (x86)\Windows Kits\10\Include\10.0.19041.0\ucrt\corecrt_memory.h

; 111  :         return const_cast<void*>(memchr(_Pvc, _C, _N));

  00073	50		 push	 eax
; File C:\Program Files (x86)\Microsoft Visual Studio\2019\Professional\VC\Tools\MSVC\14.29.30133\include\xutility

; 5329 :     const auto _Result    = static_cast<remove_reference_t<_Iter_ref_t<_InIt>>*>(

  00074	0f b6 c2	 movzx	 eax, dl
; File C:\Program Files (x86)\Windows Kits\10\Include\10.0.19041.0\ucrt\corecrt_memory.h

; 111  :         return const_cast<void*>(memchr(_Pvc, _C, _N));

  00077	50		 push	 eax
  00078	51		 push	 ecx
  00079	e8 00 00 00 00	 call	 _memchr
; File C:\Users\murat\Desktop\Siveps2-1-99-Project\source\client\Client\GameLib\MapOutdoor.h

; 367  : 				if (lhsIterator != m_TerrainNumVector.end())

  0007e	8b 0d 00 00 00
	00		 mov	 ecx, DWORD PTR ?m_TerrainNumVector@FSortPatchDrawStructWithTerrainNum@CMapOutdoor@@2V?$vector@EV?$allocator@E@std@@@std@@A
; File C:\Program Files (x86)\Windows Kits\10\Include\10.0.19041.0\ucrt\corecrt_memory.h

; 111  :         return const_cast<void*>(memchr(_Pvc, _C, _N));

  00084	83 c4 18	 add	 esp, 24			; 00000018H
; File C:\Program Files (x86)\Microsoft Visual Studio\2019\Professional\VC\Tools\MSVC\14.29.30133\include\xutility

; 5332 :         return _Result ? _Result : _Last;

  00087	85 c0		 test	 eax, eax
  00089	8b d3		 mov	 edx, ebx
  0008b	0f 45 d0	 cmovne	 edx, eax

; 5349 :     return _First;

  0008e	8b c3		 mov	 eax, ebx
  00090	3b f0		 cmp	 esi, eax
; File C:\Users\murat\Desktop\Siveps2-1-99-Project\source\client\Client\GameLib\MapOutdoor.h

; 367  : 				if (lhsIterator != m_TerrainNumVector.end())

  00092	74 04		 je	 SHORT $LN14@lower_boun

; 368  : 				{
; 369  : 					blhsOrderFound = true;

  00094	8b fe		 mov	 edi, esi
  00096	2b f9		 sub	 edi, ecx
$LN14@lower_boun:
; File C:\Program Files (x86)\Microsoft Visual Studio\2019\Professional\VC\Tools\MSVC\14.29.30133\include\vector

; 154  :         return _Ptr == _Right._Ptr;

  00098	3b d0		 cmp	 edx, eax
; File C:\Users\murat\Desktop\Siveps2-1-99-Project\source\client\Client\GameLib\MapOutdoor.h

; 372  : 				if (rhsIterator != m_TerrainNumVector.end())

  0009a	74 04		 je	 SHORT $LN159@lower_boun
; File C:\Program Files (x86)\Microsoft Visual Studio\2019\Professional\VC\Tools\MSVC\14.29.30133\include\vector

; 145  :         return _Ptr - _Right._Ptr;

  0009c	2b d1		 sub	 edx, ecx
; File C:\Users\murat\Desktop\Siveps2-1-99-Project\source\client\Client\GameLib\MapOutdoor.h

; 377  : 				if (!brhsOrderFound)

  0009e	eb 3e		 jmp	 SHORT $LN164@lower_boun
$LN159@lower_boun:
; File C:\Program Files (x86)\Microsoft Visual Studio\2019\Professional\VC\Tools\MSVC\14.29.30133\include\vector

; 743  :         if (_Mylast != _My_data._Myend) {

  000a0	3b 05 08 00 00
	00		 cmp	 eax, DWORD PTR ?m_TerrainNumVector@FSortPatchDrawStructWithTerrainNum@CMapOutdoor@@2V?$vector@EV?$allocator@E@std@@@std@@A+8
  000a6	74 14		 je	 SHORT $LN102@lower_boun

; 726  :         _Alty_traits::construct(_Getal(), _Unfancy(_Mylast), _STD forward<_Valty>(_Val)...);

  000a8	8a 4d ff	 mov	 cl, BYTE PTR tv1038[ebp]
  000ab	88 08		 mov	 BYTE PTR [eax], cl

; 729  :         ++_Mylast;

  000ad	8b 1d 04 00 00
	00		 mov	 ebx, DWORD PTR ?m_TerrainNumVector@FSortPatchDrawStructWithTerrainNum@CMapOutdoor@@2V?$vector@EV?$allocator@E@std@@@std@@A+4
  000b3	43		 inc	 ebx
  000b4	89 1d 04 00 00
	00		 mov	 DWORD PTR ?m_TerrainNumVector@FSortPatchDrawStructWithTerrainNum@CMapOutdoor@@2V?$vector@EV?$allocator@E@std@@@std@@A+4, ebx

; 744  :             return _Emplace_back_with_unused_capacity(_STD forward<_Valty>(_Val)...);

  000ba	eb 17		 jmp	 SHORT $LN101@lower_boun
$LN102@lower_boun:

; 747  :         _Ty& _Result = *_Emplace_reallocate(_Mylast, _STD forward<_Valty>(_Val)...);

  000bc	ff 75 f0	 push	 DWORD PTR __Val$1$[ebp]
  000bf	b9 00 00 00 00	 mov	 ecx, OFFSET ?m_TerrainNumVector@FSortPatchDrawStructWithTerrainNum@CMapOutdoor@@2V?$vector@EV?$allocator@E@std@@@std@@A ; CMapOutdoor::FSortPatchDrawStructWithTerrainNum::m_TerrainNumVector
  000c4	50		 push	 eax
  000c5	e8 00 00 00 00	 call	 ??$_Emplace_reallocate@ABE@?$vector@EV?$allocator@E@std@@@std@@QAEPAEQAEABE@Z ; std::vector<unsigned char,std::allocator<unsigned char> >::_Emplace_reallocate<unsigned char const &>
  000ca	8b 1d 04 00 00
	00		 mov	 ebx, DWORD PTR ?m_TerrainNumVector@FSortPatchDrawStructWithTerrainNum@CMapOutdoor@@2V?$vector@EV?$allocator@E@std@@@std@@A+4
  000d0	8b 45 f8	 mov	 eax, DWORD PTR tv1036[ebp]
$LN101@lower_boun:
; File C:\Users\murat\Desktop\Siveps2-1-99-Project\source\client\Client\GameLib\MapOutdoor.h

; 380  : 					rhsTerrainNumOrder = m_TerrainNumVector.size() -1;

  000d3	8b 0d 00 00 00
	00		 mov	 ecx, DWORD PTR ?m_TerrainNumVector@FSortPatchDrawStructWithTerrainNum@CMapOutdoor@@2V?$vector@EV?$allocator@E@std@@@std@@A
  000d9	8b d3		 mov	 edx, ebx
  000db	2b d1		 sub	 edx, ecx
  000dd	4a		 dec	 edx
$LN164@lower_boun:

; 381  : 				}
; 382  : 				if (!blhsOrderFound)

  000de	89 55 f8	 mov	 DWORD PTR _rhsTerrainNumOrder$1$[ebp], edx
  000e1	3b f0		 cmp	 esi, eax
  000e3	75 7e		 jne	 SHORT $LN162@lower_boun
; File C:\Program Files (x86)\Microsoft Visual Studio\2019\Professional\VC\Tools\MSVC\14.29.30133\include\xutility

; 5329 :     const auto _Result    = static_cast<remove_reference_t<_Iter_ref_t<_InIt>>*>(

  000e5	8b 45 f4	 mov	 eax, DWORD PTR __UMid$1$[ebp]

; 5348 :     _Seek_wrapped(_First, _Find_unchecked(_Get_unwrapped(_First), _Get_unwrapped(_Last), _Val));

  000e8	8b fb		 mov	 edi, ebx
  000ea	8b f7		 mov	 esi, edi

; 5329 :     const auto _Result    = static_cast<remove_reference_t<_Iter_ref_t<_InIt>>*>(

  000ec	8a 50 04	 mov	 dl, BYTE PTR [eax+4]
  000ef	8b c7		 mov	 eax, edi
  000f1	2b c1		 sub	 eax, ecx
  000f3	88 55 ff	 mov	 BYTE PTR tv1028[ebp], dl
; File C:\Program Files (x86)\Windows Kits\10\Include\10.0.19041.0\ucrt\corecrt_memory.h

; 111  :         return const_cast<void*>(memchr(_Pvc, _C, _N));

  000f6	50		 push	 eax
; File C:\Program Files (x86)\Microsoft Visual Studio\2019\Professional\VC\Tools\MSVC\14.29.30133\include\xutility

; 5329 :     const auto _Result    = static_cast<remove_reference_t<_Iter_ref_t<_InIt>>*>(

  000f7	0f b6 c2	 movzx	 eax, dl
; File C:\Program Files (x86)\Windows Kits\10\Include\10.0.19041.0\ucrt\corecrt_memory.h

; 111  :         return const_cast<void*>(memchr(_Pvc, _C, _N));

  000fa	50		 push	 eax
  000fb	51		 push	 ecx
  000fc	e8 00 00 00 00	 call	 _memchr
  00101	83 c4 0c	 add	 esp, 12			; 0000000cH
; File C:\Program Files (x86)\Microsoft Visual Studio\2019\Professional\VC\Tools\MSVC\14.29.30133\include\xutility

; 5332 :         return _Result ? _Result : _Last;

  00104	85 c0		 test	 eax, eax
  00106	0f 45 f8	 cmovne	 edi, eax
; File C:\Users\murat\Desktop\Siveps2-1-99-Project\source\client\Client\GameLib\MapOutdoor.h

; 384  : 					lhsIterator = std::find(m_TerrainNumVector.begin(), m_TerrainNumVector.end(), lhs.byTerrainNum);

  00109	3b fe		 cmp	 edi, esi

; 385  : 					if (lhsIterator != m_TerrainNumVector.end())

  0010b	74 0a		 je	 SHORT $LN160@lower_boun
; File C:\Program Files (x86)\Microsoft Visual Studio\2019\Professional\VC\Tools\MSVC\14.29.30133\include\vector

; 145  :         return _Ptr - _Right._Ptr;

  0010d	8b 0d 00 00 00
	00		 mov	 ecx, DWORD PTR ?m_TerrainNumVector@FSortPatchDrawStructWithTerrainNum@CMapOutdoor@@2V?$vector@EV?$allocator@E@std@@@std@@A
  00113	2b f9		 sub	 edi, ecx
; File C:\Users\murat\Desktop\Siveps2-1-99-Project\source\client\Client\GameLib\MapOutdoor.h

; 390  : 					if (!blhsOrderFound)

  00115	eb 52		 jmp	 SHORT $LN19@lower_boun
$LN160@lower_boun:
; File C:\Program Files (x86)\Microsoft Visual Studio\2019\Professional\VC\Tools\MSVC\14.29.30133\include\vector

; 743  :         if (_Mylast != _My_data._Myend) {

  00117	3b 35 08 00 00
	00		 cmp	 esi, DWORD PTR ?m_TerrainNumVector@FSortPatchDrawStructWithTerrainNum@CMapOutdoor@@2V?$vector@EV?$allocator@E@std@@@std@@A+8
  0011d	74 1f		 je	 SHORT $LN150@lower_boun

; 726  :         _Alty_traits::construct(_Getal(), _Unfancy(_Mylast), _STD forward<_Valty>(_Val)...);

  0011f	8a 45 ff	 mov	 al, BYTE PTR tv1028[ebp]
  00122	88 06		 mov	 BYTE PTR [esi], al

; 729  :         ++_Mylast;

  00124	8b 1d 04 00 00
	00		 mov	 ebx, DWORD PTR ?m_TerrainNumVector@FSortPatchDrawStructWithTerrainNum@CMapOutdoor@@2V?$vector@EV?$allocator@E@std@@@std@@A+4
; File C:\Users\murat\Desktop\Siveps2-1-99-Project\source\client\Client\GameLib\MapOutdoor.h

; 393  : 						lhsTerrainNumOrder = m_TerrainNumVector.size() -1;

  0012a	8b 0d 00 00 00
	00		 mov	 ecx, DWORD PTR ?m_TerrainNumVector@FSortPatchDrawStructWithTerrainNum@CMapOutdoor@@2V?$vector@EV?$allocator@E@std@@@std@@A
; File C:\Program Files (x86)\Microsoft Visual Studio\2019\Professional\VC\Tools\MSVC\14.29.30133\include\vector

; 729  :         ++_Mylast;

  00130	43		 inc	 ebx
; File C:\Users\murat\Desktop\Siveps2-1-99-Project\source\client\Client\GameLib\MapOutdoor.h

; 393  : 						lhsTerrainNumOrder = m_TerrainNumVector.size() -1;

  00131	8b fb		 mov	 edi, ebx
; File C:\Program Files (x86)\Microsoft Visual Studio\2019\Professional\VC\Tools\MSVC\14.29.30133\include\vector

; 729  :         ++_Mylast;

  00133	89 1d 04 00 00
	00		 mov	 DWORD PTR ?m_TerrainNumVector@FSortPatchDrawStructWithTerrainNum@CMapOutdoor@@2V?$vector@EV?$allocator@E@std@@@std@@A+4, ebx
; File C:\Users\murat\Desktop\Siveps2-1-99-Project\source\client\Client\GameLib\MapOutdoor.h

; 393  : 						lhsTerrainNumOrder = m_TerrainNumVector.size() -1;

  00139	2b f9		 sub	 edi, ecx
  0013b	4f		 dec	 edi
  0013c	eb 2b		 jmp	 SHORT $LN19@lower_boun
$LN150@lower_boun:
; File C:\Program Files (x86)\Microsoft Visual Studio\2019\Professional\VC\Tools\MSVC\14.29.30133\include\vector

; 747  :         _Ty& _Result = *_Emplace_reallocate(_Mylast, _STD forward<_Valty>(_Val)...);

  0013e	8b 45 f4	 mov	 eax, DWORD PTR __UMid$1$[ebp]
  00141	b9 00 00 00 00	 mov	 ecx, OFFSET ?m_TerrainNumVector@FSortPatchDrawStructWithTerrainNum@CMapOutdoor@@2V?$vector@EV?$allocator@E@std@@@std@@A ; CMapOutdoor::FSortPatchDrawStructWithTerrainNum::m_TerrainNumVector
  00146	83 c0 04	 add	 eax, 4
  00149	50		 push	 eax
  0014a	56		 push	 esi
  0014b	e8 00 00 00 00	 call	 ??$_Emplace_reallocate@ABE@?$vector@EV?$allocator@E@std@@@std@@QAEPAEQAEABE@Z ; std::vector<unsigned char,std::allocator<unsigned char> >::_Emplace_reallocate<unsigned char const &>
  00150	8b 1d 04 00 00
	00		 mov	 ebx, DWORD PTR ?m_TerrainNumVector@FSortPatchDrawStructWithTerrainNum@CMapOutdoor@@2V?$vector@EV?$allocator@E@std@@@std@@A+4
; File C:\Users\murat\Desktop\Siveps2-1-99-Project\source\client\Client\GameLib\MapOutdoor.h

; 393  : 						lhsTerrainNumOrder = m_TerrainNumVector.size() -1;

  00156	8b fb		 mov	 edi, ebx
  00158	8b 0d 00 00 00
	00		 mov	 ecx, DWORD PTR ?m_TerrainNumVector@FSortPatchDrawStructWithTerrainNum@CMapOutdoor@@2V?$vector@EV?$allocator@E@std@@@std@@A
  0015e	2b f9		 sub	 edi, ecx
  00160	4f		 dec	 edi
  00161	eb 06		 jmp	 SHORT $LN19@lower_boun
$LN162@lower_boun:

; 381  : 				}
; 382  : 				if (!blhsOrderFound)

  00163	8b 0d 00 00 00
	00		 mov	 ecx, DWORD PTR ?m_TerrainNumVector@FSortPatchDrawStructWithTerrainNum@CMapOutdoor@@2V?$vector@EV?$allocator@E@std@@@std@@A
$LN19@lower_boun:

; 394  : 					}
; 395  : 				}
; 396  : 
; 397  : 				return lhsTerrainNumOrder < rhsTerrainNumOrder;

  00169	3b 7d f8	 cmp	 edi, DWORD PTR _rhsTerrainNumOrder$1$[ebp]
; File C:\Program Files (x86)\Microsoft Visual Studio\2019\Professional\VC\Tools\MSVC\14.29.30133\include\xutility

; 5762 :         if (_Pred(*_UMid, _Val)) { // try top half

  0016c	73 16		 jae	 SHORT $LN4@lower_boun

; 5763 :             _UFirst = _Next_iter(_UMid);

  0016e	8b 75 f4	 mov	 esi, DWORD PTR __UMid$1$[ebp]

; 5764 :             _Count -= _Count2 + 1;

  00171	83 c8 ff	 or	 eax, -1
  00174	2b 45 ec	 sub	 eax, DWORD PTR __Count2$1$[ebp]
  00177	83 c6 10	 add	 esi, 16			; 00000010H
  0017a	8b 55 0c	 mov	 edx, DWORD PTR __Last$[ebp]
  0017d	89 75 08	 mov	 DWORD PTR __First$[ebp], esi
  00180	03 d0		 add	 edx, eax

; 5765 :         } else {

  00182	eb 06		 jmp	 SHORT $LN165@lower_boun
$LN4@lower_boun:

; 5766 :             _Count = _Count2;

  00184	8b 55 ec	 mov	 edx, DWORD PTR __Count2$1$[ebp]
  00187	8b 75 08	 mov	 esi, DWORD PTR __First$[ebp]
$LN165@lower_boun:

; 5754 :     // find first element not before _Val
; 5755 :     _Adl_verify_range(_First, _Last);
; 5756 :     auto _UFirst                = _Get_unwrapped(_First);
; 5757 :     _Iter_diff_t<_FwdIt> _Count = _STD distance(_UFirst, _Get_unwrapped(_Last));
; 5758 : 
; 5759 :     while (0 < _Count) { // divide and conquer, find half that contains answer

  0018a	89 55 0c	 mov	 DWORD PTR __Last$[ebp], edx
  0018d	85 d2		 test	 edx, edx
  0018f	0f 8f 9f fe ff
	ff		 jg	 $LL2@lower_boun

; 5767 :         }
; 5768 :     }
; 5769 : 
; 5770 :     _Seek_wrapped(_First, _UFirst);
; 5771 :     return _First;

  00195	5f		 pop	 edi
  00196	5b		 pop	 ebx
$LN161@lower_boun:

; 5772 : }

  00197	8b c6		 mov	 eax, esi
  00199	5e		 pop	 esi
  0019a	8b e5		 mov	 esp, ebp
  0019c	5d		 pop	 ebp
  0019d	c3		 ret	 0
??$lower_bound@PAUTPatchDrawStruct@CMapOutdoor@@U12@UFSortPatchDrawStructWithTerrainNum@2@@std@@YAPAUTPatchDrawStruct@CMapOutdoor@@PAU12@QAU12@ABU12@UFSortPatchDrawStructWithTerrainNum@2@@Z ENDP ; std::lower_bound<CMapOutdoor::TPatchDrawStruct *,CMapOutdoor::TPatchDrawStruct,CMapOutdoor::FSortPatchDrawStructWithTerrainNum>
_TEXT	ENDS
; Function compile flags: /Ogtp
; File C:\Program Files (x86)\Microsoft Visual Studio\2019\Professional\VC\Tools\MSVC\14.29.30133\include\algorithm
; File C:\Program Files (x86)\Microsoft Visual Studio\2019\Professional\VC\Tools\MSVC\14.29.30133\include\utility
; File C:\Program Files (x86)\Microsoft Visual Studio\2019\Professional\VC\Tools\MSVC\14.29.30133\include\algorithm
; File C:\Program Files (x86)\Microsoft Visual Studio\2019\Professional\VC\Tools\MSVC\14.29.30133\include\utility
; File C:\Program Files (x86)\Microsoft Visual Studio\2019\Professional\VC\Tools\MSVC\14.29.30133\include\algorithm
; File C:\Program Files (x86)\Microsoft Visual Studio\2019\Professional\VC\Tools\MSVC\14.29.30133\include\utility
; File C:\Program Files (x86)\Microsoft Visual Studio\2019\Professional\VC\Tools\MSVC\14.29.30133\include\algorithm
;	COMDAT ??$_Med3_unchecked@PAU?$pair@MJ@std@@U?$less@X@2@@std@@YAXPAU?$pair@MJ@0@00U?$less@X@0@@Z
_TEXT	SEGMENT
__First$ = 8						; size = 4
__Mid$ = 12						; size = 4
__Last$ = 16						; size = 4
__Pred$ = 20						; size = 1
??$_Med3_unchecked@PAU?$pair@MJ@std@@U?$less@X@2@@std@@YAXPAU?$pair@MJ@0@00U?$less@X@0@@Z PROC ; std::_Med3_unchecked<std::pair<float,long> *,std::less<void> >, COMDAT

; 7262 : _CONSTEXPR20 void _Med3_unchecked(_RanIt _First, _RanIt _Mid, _RanIt _Last, _Pr _Pred) {

  00000	55		 push	 ebp
  00001	8b ec		 mov	 ebp, esp
; File C:\Program Files (x86)\Microsoft Visual Studio\2019\Professional\VC\Tools\MSVC\14.29.30133\include\utility

; 369  :     return _Left.first < _Right.first || (!(_Right.first < _Left.first) && _Left.second < _Right.second);

  00003	8b 55 0c	 mov	 edx, DWORD PTR __Mid$[ebp]
; File C:\Program Files (x86)\Microsoft Visual Studio\2019\Professional\VC\Tools\MSVC\14.29.30133\include\algorithm

; 7262 : _CONSTEXPR20 void _Med3_unchecked(_RanIt _First, _RanIt _Mid, _RanIt _Last, _Pr _Pred) {

  00006	56		 push	 esi
; File C:\Program Files (x86)\Microsoft Visual Studio\2019\Professional\VC\Tools\MSVC\14.29.30133\include\utility

; 369  :     return _Left.first < _Right.first || (!(_Right.first < _Left.first) && _Left.second < _Right.second);

  00007	8b 75 08	 mov	 esi, DWORD PTR __First$[ebp]
; File C:\Program Files (x86)\Microsoft Visual Studio\2019\Professional\VC\Tools\MSVC\14.29.30133\include\algorithm

; 7262 : _CONSTEXPR20 void _Med3_unchecked(_RanIt _First, _RanIt _Mid, _RanIt _Last, _Pr _Pred) {

  0000a	57		 push	 edi
; File C:\Program Files (x86)\Microsoft Visual Studio\2019\Professional\VC\Tools\MSVC\14.29.30133\include\utility

; 369  :     return _Left.first < _Right.first || (!(_Right.first < _Left.first) && _Left.second < _Right.second);

  0000b	f3 0f 10 02	 movss	 xmm0, DWORD PTR [edx]
  0000f	f3 0f 10 0e	 movss	 xmm1, DWORD PTR [esi]
  00013	0f 2f c8	 comiss	 xmm1, xmm0
  00016	77 0d		 ja	 SHORT $LN81@Med3_unche
  00018	0f 2f c1	 comiss	 xmm0, xmm1
  0001b	77 24		 ja	 SHORT $LN27@Med3_unche
  0001d	8b 42 04	 mov	 eax, DWORD PTR [edx+4]
  00020	3b 46 04	 cmp	 eax, DWORD PTR [esi+4]
  00023	7d 1c		 jge	 SHORT $LN27@Med3_unche
$LN81@Med3_unche:

; 325  :         if (this != _STD addressof(_Right)) {

  00025	3b d6		 cmp	 edx, esi
  00027	74 18		 je	 SHORT $LN27@Med3_unche

; 105  :     _Left    = _STD move(_Right);

  00029	f3 0f 11 0a	 movss	 DWORD PTR [edx], xmm1
  0002d	8b 46 04	 mov	 eax, DWORD PTR [esi+4]

; 106  :     _Right   = _STD move(_Tmp);

  00030	f3 0f 11 06	 movss	 DWORD PTR [esi], xmm0

; 104  :     _Ty _Tmp = _STD move(_Left);

  00034	8b 4a 04	 mov	 ecx, DWORD PTR [edx+4]

; 105  :     _Left    = _STD move(_Right);

  00037	89 42 04	 mov	 DWORD PTR [edx+4], eax

; 106  :     _Right   = _STD move(_Tmp);

  0003a	89 4e 04	 mov	 DWORD PTR [esi+4], ecx
  0003d	f3 0f 10 02	 movss	 xmm0, DWORD PTR [edx]
$LN27@Med3_unche:

; 369  :     return _Left.first < _Right.first || (!(_Right.first < _Left.first) && _Left.second < _Right.second);

  00041	8b 7d 10	 mov	 edi, DWORD PTR __Last$[ebp]
  00044	f3 0f 10 0f	 movss	 xmm1, DWORD PTR [edi]
  00048	0f 2f c1	 comiss	 xmm0, xmm1
  0004b	77 0d		 ja	 SHORT $LN83@Med3_unche
  0004d	0f 2f c8	 comiss	 xmm1, xmm0
  00050	77 52		 ja	 SHORT $LN71@Med3_unche
  00052	8b 47 04	 mov	 eax, DWORD PTR [edi+4]
  00055	3b 42 04	 cmp	 eax, DWORD PTR [edx+4]
  00058	7d 4a		 jge	 SHORT $LN71@Med3_unche
$LN83@Med3_unche:

; 325  :         if (this != _STD addressof(_Right)) {

  0005a	3b fa		 cmp	 edi, edx
  0005c	74 18		 je	 SHORT $LN84@Med3_unche

; 105  :     _Left    = _STD move(_Right);

  0005e	f3 0f 11 07	 movss	 DWORD PTR [edi], xmm0
  00062	8b 42 04	 mov	 eax, DWORD PTR [edx+4]

; 106  :     _Right   = _STD move(_Tmp);

  00065	f3 0f 11 0a	 movss	 DWORD PTR [edx], xmm1

; 104  :     _Ty _Tmp = _STD move(_Left);

  00069	8b 4f 04	 mov	 ecx, DWORD PTR [edi+4]

; 105  :     _Left    = _STD move(_Right);

  0006c	89 47 04	 mov	 DWORD PTR [edi+4], eax

; 106  :     _Right   = _STD move(_Tmp);

  0006f	89 4a 04	 mov	 DWORD PTR [edx+4], ecx
  00072	f3 0f 10 02	 movss	 xmm0, DWORD PTR [edx]
$LN84@Med3_unche:

; 369  :     return _Left.first < _Right.first || (!(_Right.first < _Left.first) && _Left.second < _Right.second);

  00076	f3 0f 10 0e	 movss	 xmm1, DWORD PTR [esi]
  0007a	0f 2f c8	 comiss	 xmm1, xmm0
  0007d	77 0d		 ja	 SHORT $LN85@Med3_unche
  0007f	0f 2f c1	 comiss	 xmm0, xmm1
  00082	77 20		 ja	 SHORT $LN71@Med3_unche
  00084	8b 42 04	 mov	 eax, DWORD PTR [edx+4]
  00087	3b 46 04	 cmp	 eax, DWORD PTR [esi+4]
  0008a	7d 18		 jge	 SHORT $LN71@Med3_unche
$LN85@Med3_unche:

; 325  :         if (this != _STD addressof(_Right)) {

  0008c	3b d6		 cmp	 edx, esi
  0008e	74 14		 je	 SHORT $LN71@Med3_unche

; 105  :     _Left    = _STD move(_Right);

  00090	f3 0f 11 0a	 movss	 DWORD PTR [edx], xmm1
  00094	8b 46 04	 mov	 eax, DWORD PTR [esi+4]

; 106  :     _Right   = _STD move(_Tmp);

  00097	f3 0f 11 06	 movss	 DWORD PTR [esi], xmm0

; 104  :     _Ty _Tmp = _STD move(_Left);

  0009b	8b 4a 04	 mov	 ecx, DWORD PTR [edx+4]

; 105  :     _Left    = _STD move(_Right);

  0009e	89 42 04	 mov	 DWORD PTR [edx+4], eax

; 106  :     _Right   = _STD move(_Tmp);

  000a1	89 4e 04	 mov	 DWORD PTR [esi+4], ecx
$LN71@Med3_unche:
  000a4	5f		 pop	 edi
; File C:\Program Files (x86)\Microsoft Visual Studio\2019\Professional\VC\Tools\MSVC\14.29.30133\include\algorithm

; 7275 : }

  000a5	5e		 pop	 esi
  000a6	5d		 pop	 ebp
  000a7	c3		 ret	 0
??$_Med3_unchecked@PAU?$pair@MJ@std@@U?$less@X@2@@std@@YAXPAU?$pair@MJ@0@00U?$less@X@0@@Z ENDP ; std::_Med3_unchecked<std::pair<float,long> *,std::less<void> >
_TEXT	ENDS
; Function compile flags: /Ogtp
; File C:\Program Files (x86)\Microsoft Visual Studio\2019\Professional\VC\Tools\MSVC\14.29.30133\include\algorithm
; File C:\Program Files (x86)\Microsoft Visual Studio\2019\Professional\VC\Tools\MSVC\14.29.30133\include\xutility
; File C:\Program Files (x86)\Microsoft Visual Studio\2019\Professional\VC\Tools\MSVC\14.29.30133\include\algorithm
; File C:\Program Files (x86)\Microsoft Visual Studio\2019\Professional\VC\Tools\MSVC\14.29.30133\include\xutility
; File C:\Program Files (x86)\Microsoft Visual Studio\2019\Professional\VC\Tools\MSVC\14.29.30133\include\algorithm
; File C:\Program Files (x86)\Microsoft Visual Studio\2019\Professional\VC\Tools\MSVC\14.29.30133\include\xutility
; File C:\Program Files (x86)\Microsoft Visual Studio\2019\Professional\VC\Tools\MSVC\14.29.30133\include\algorithm
; File C:\Program Files (x86)\Microsoft Visual Studio\2019\Professional\VC\Tools\MSVC\14.29.30133\include\xutility
; File C:\Program Files (x86)\Microsoft Visual Studio\2019\Professional\VC\Tools\MSVC\14.29.30133\include\algorithm
; File C:\Program Files (x86)\Microsoft Visual Studio\2019\Professional\VC\Tools\MSVC\14.29.30133\include\xutility
; File C:\Program Files (x86)\Microsoft Visual Studio\2019\Professional\VC\Tools\MSVC\14.29.30133\include\algorithm
;	COMDAT ??$_Buffered_inplace_merge_divide_and_conquer@PAUTPatchDrawStruct@CMapOutdoor@@UFSortPatchDrawStructWithTerrainNum@2@@std@@YAXPAUTPatchDrawStruct@CMapOutdoor@@00HHQAU12@HUFSortPatchDrawStructWithTerrainNum@2@@Z
_TEXT	SEGMENT
__First$ = 8						; size = 4
__Mid$ = 12						; size = 4
__Last$ = 16						; size = 4
__Count1$ = 20						; size = 4
__Count2$ = 24						; size = 4
__Temp_ptr$ = 28					; size = 4
__Capacity$ = 32					; size = 4
__Pred$ = 36						; size = 1
??$_Buffered_inplace_merge_divide_and_conquer@PAUTPatchDrawStruct@CMapOutdoor@@UFSortPatchDrawStructWithTerrainNum@2@@std@@YAXPAUTPatchDrawStruct@CMapOutdoor@@00HHQAU12@HUFSortPatchDrawStructWithTerrainNum@2@@Z PROC ; std::_Buffered_inplace_merge_divide_and_conquer<CMapOutdoor::TPatchDrawStruct *,CMapOutdoor::FSortPatchDrawStructWithTerrainNum>, COMDAT

; 6744 :     _Iter_diff_t<_BidIt> _Count2, _Iter_value_t<_BidIt>* const _Temp_ptr, const ptrdiff_t _Capacity, _Pr _Pred) {

  00000	55		 push	 ebp
  00001	8b ec		 mov	 ebp, esp

; 6745 :     // merge sorted [_First, _Mid) with sorted [_Mid, _Last)
; 6746 :     // usual invariants apply
; 6747 :     using _Diff = _Iter_diff_t<_BidIt>;
; 6748 :     if (_Count1 <= _Count2) {

  00003	8b 45 14	 mov	 eax, DWORD PTR __Count1$[ebp]
  00006	8b 4d 18	 mov	 ecx, DWORD PTR __Count2$[ebp]
  00009	53		 push	 ebx
  0000a	56		 push	 esi
  0000b	57		 push	 edi
  0000c	ff 75 24	 push	 DWORD PTR __Pred$[ebp]
  0000f	3b c1		 cmp	 eax, ecx
  00011	7f 49		 jg	 SHORT $LN2@Buffered_i

; 6751 :         const _BidIt _Lastn  = _STD lower_bound(_Mid, _Last, *_Firstn, _Pred);

  00013	8b 7d 0c	 mov	 edi, DWORD PTR __Mid$[ebp]
  00016	8b d8		 mov	 ebx, eax
  00018	d1 fb		 sar	 ebx, 1
; File C:\Program Files (x86)\Microsoft Visual Studio\2019\Professional\VC\Tools\MSVC\14.29.30133\include\xutility

; 1561 :         _Where += _Off;

  0001a	8b f3		 mov	 esi, ebx
  0001c	c1 e6 04	 shl	 esi, 4
  0001f	03 75 08	 add	 esi, DWORD PTR __First$[ebp]
; File C:\Program Files (x86)\Microsoft Visual Studio\2019\Professional\VC\Tools\MSVC\14.29.30133\include\algorithm

; 6751 :         const _BidIt _Lastn  = _STD lower_bound(_Mid, _Last, *_Firstn, _Pred);

  00022	56		 push	 esi
  00023	ff 75 10	 push	 DWORD PTR __Last$[ebp]
  00026	57		 push	 edi
  00027	e8 00 00 00 00	 call	 ??$lower_bound@PAUTPatchDrawStruct@CMapOutdoor@@U12@UFSortPatchDrawStructWithTerrainNum@2@@std@@YAPAUTPatchDrawStruct@CMapOutdoor@@PAU12@QAU12@ABU12@UFSortPatchDrawStructWithTerrainNum@2@@Z ; std::lower_bound<CMapOutdoor::TPatchDrawStruct *,CMapOutdoor::TPatchDrawStruct,CMapOutdoor::FSortPatchDrawStructWithTerrainNum>
; File C:\Program Files (x86)\Microsoft Visual Studio\2019\Professional\VC\Tools\MSVC\14.29.30133\include\xutility

; 1590 :         return _Last - _First; // assume the iterator will do debug checking

  0002c	8b c8		 mov	 ecx, eax
  0002e	2b cf		 sub	 ecx, edi
  00030	c1 f9 04	 sar	 ecx, 4
; File C:\Program Files (x86)\Microsoft Visual Studio\2019\Professional\VC\Tools\MSVC\14.29.30133\include\algorithm

; 6752 :         _Buffered_inplace_merge_divide_and_conquer2(_First, _Mid, _Last, _Count1, _Count2, _Temp_ptr, _Capacity, _Pred,

  00033	51		 push	 ecx
  00034	53		 push	 ebx
  00035	50		 push	 eax
  00036	8b 45 18	 mov	 eax, DWORD PTR __Count2$[ebp]
  00039	56		 push	 esi
  0003a	ff 75 24	 push	 DWORD PTR __Pred$[ebp]
  0003d	ff 75 20	 push	 DWORD PTR __Capacity$[ebp]
  00040	ff 75 1c	 push	 DWORD PTR __Temp_ptr$[ebp]
  00043	50		 push	 eax
  00044	8b 45 14	 mov	 eax, DWORD PTR __Count1$[ebp]
  00047	50		 push	 eax
  00048	ff 75 10	 push	 DWORD PTR __Last$[ebp]
  0004b	57		 push	 edi
  0004c	ff 75 08	 push	 DWORD PTR __First$[ebp]

; 6759 :             _Firstn, _Lastn, _STD distance(_First, _Firstn), _Count2n);
; 6760 :     }
; 6761 : }

  0004f	e8 00 00 00 00	 call	 ??$_Buffered_inplace_merge_divide_and_conquer2@PAUTPatchDrawStruct@CMapOutdoor@@UFSortPatchDrawStructWithTerrainNum@2@@std@@YAXPAUTPatchDrawStruct@CMapOutdoor@@00HHQAU12@HUFSortPatchDrawStructWithTerrainNum@2@00HH@Z ; std::_Buffered_inplace_merge_divide_and_conquer2<CMapOutdoor::TPatchDrawStruct *,CMapOutdoor::FSortPatchDrawStructWithTerrainNum>
  00054	83 c4 40	 add	 esp, 64			; 00000040H
  00057	5f		 pop	 edi
  00058	5e		 pop	 esi
  00059	5b		 pop	 ebx
  0005a	5d		 pop	 ebp
  0005b	c3		 ret	 0
$LN2@Buffered_i:
; File C:\Program Files (x86)\Microsoft Visual Studio\2019\Professional\VC\Tools\MSVC\14.29.30133\include\xutility

; 1561 :         _Where += _Off;

  0005c	8b 45 0c	 mov	 eax, DWORD PTR __Mid$[ebp]
; File C:\Program Files (x86)\Microsoft Visual Studio\2019\Professional\VC\Tools\MSVC\14.29.30133\include\algorithm

; 6755 :         const _Diff _Count2n = _Count2 >> 1; // shift for codegen

  0005f	8b f1		 mov	 esi, ecx

; 6757 :         const _BidIt _Firstn = _STD upper_bound(_First, _Mid, *_Lastn, _Pred);

  00061	8b 5d 08	 mov	 ebx, DWORD PTR __First$[ebp]
  00064	d1 fe		 sar	 esi, 1
; File C:\Program Files (x86)\Microsoft Visual Studio\2019\Professional\VC\Tools\MSVC\14.29.30133\include\xutility

; 1561 :         _Where += _Off;

  00066	8b fe		 mov	 edi, esi
  00068	c1 e7 04	 shl	 edi, 4
  0006b	03 f8		 add	 edi, eax
; File C:\Program Files (x86)\Microsoft Visual Studio\2019\Professional\VC\Tools\MSVC\14.29.30133\include\algorithm

; 6757 :         const _BidIt _Firstn = _STD upper_bound(_First, _Mid, *_Lastn, _Pred);

  0006d	57		 push	 edi
  0006e	50		 push	 eax
  0006f	53		 push	 ebx
  00070	e8 00 00 00 00	 call	 ??$upper_bound@PAUTPatchDrawStruct@CMapOutdoor@@U12@UFSortPatchDrawStructWithTerrainNum@2@@std@@YAPAUTPatchDrawStruct@CMapOutdoor@@PAU12@0ABU12@UFSortPatchDrawStructWithTerrainNum@2@@Z ; std::upper_bound<CMapOutdoor::TPatchDrawStruct *,CMapOutdoor::TPatchDrawStruct,CMapOutdoor::FSortPatchDrawStructWithTerrainNum>

; 6758 :         _Buffered_inplace_merge_divide_and_conquer2(_First, _Mid, _Last, _Count1, _Count2, _Temp_ptr, _Capacity, _Pred,

  00075	56		 push	 esi
; File C:\Program Files (x86)\Microsoft Visual Studio\2019\Professional\VC\Tools\MSVC\14.29.30133\include\xutility

; 1590 :         return _Last - _First; // assume the iterator will do debug checking

  00076	8b c8		 mov	 ecx, eax
  00078	2b cb		 sub	 ecx, ebx
  0007a	c1 f9 04	 sar	 ecx, 4
; File C:\Program Files (x86)\Microsoft Visual Studio\2019\Professional\VC\Tools\MSVC\14.29.30133\include\algorithm

; 6758 :         _Buffered_inplace_merge_divide_and_conquer2(_First, _Mid, _Last, _Count1, _Count2, _Temp_ptr, _Capacity, _Pred,

  0007d	51		 push	 ecx
  0007e	57		 push	 edi
  0007f	50		 push	 eax
  00080	ff 75 24	 push	 DWORD PTR __Pred$[ebp]
  00083	8b 45 18	 mov	 eax, DWORD PTR __Count2$[ebp]
  00086	ff 75 20	 push	 DWORD PTR __Capacity$[ebp]
  00089	ff 75 1c	 push	 DWORD PTR __Temp_ptr$[ebp]
  0008c	50		 push	 eax
  0008d	8b 45 14	 mov	 eax, DWORD PTR __Count1$[ebp]
  00090	50		 push	 eax
  00091	ff 75 10	 push	 DWORD PTR __Last$[ebp]
  00094	ff 75 0c	 push	 DWORD PTR __Mid$[ebp]
  00097	53		 push	 ebx

; 6759 :             _Firstn, _Lastn, _STD distance(_First, _Firstn), _Count2n);
; 6760 :     }
; 6761 : }

  00098	e8 00 00 00 00	 call	 ??$_Buffered_inplace_merge_divide_and_conquer2@PAUTPatchDrawStruct@CMapOutdoor@@UFSortPatchDrawStructWithTerrainNum@2@@std@@YAXPAUTPatchDrawStruct@CMapOutdoor@@00HHQAU12@HUFSortPatchDrawStructWithTerrainNum@2@00HH@Z ; std::_Buffered_inplace_merge_divide_and_conquer2<CMapOutdoor::TPatchDrawStruct *,CMapOutdoor::FSortPatchDrawStructWithTerrainNum>
  0009d	83 c4 40	 add	 esp, 64			; 00000040H
  000a0	5f		 pop	 edi
  000a1	5e		 pop	 esi
  000a2	5b		 pop	 ebx
  000a3	5d		 pop	 ebp
  000a4	c3		 ret	 0
??$_Buffered_inplace_merge_divide_and_conquer@PAUTPatchDrawStruct@CMapOutdoor@@UFSortPatchDrawStructWithTerrainNum@2@@std@@YAXPAUTPatchDrawStruct@CMapOutdoor@@00HHQAU12@HUFSortPatchDrawStructWithTerrainNum@2@@Z ENDP ; std::_Buffered_inplace_merge_divide_and_conquer<CMapOutdoor::TPatchDrawStruct *,CMapOutdoor::FSortPatchDrawStructWithTerrainNum>
_TEXT	ENDS
; Function compile flags: /Ogtp
; File C:\Program Files (x86)\Microsoft Visual Studio\2019\Professional\VC\Tools\MSVC\14.29.30133\include\algorithm
; File C:\Program Files (x86)\Microsoft Visual Studio\2019\Professional\VC\Tools\MSVC\14.29.30133\include\xmemory
; File C:\Program Files (x86)\Microsoft Visual Studio\2019\Professional\VC\Tools\MSVC\14.29.30133\include\algorithm
; File C:\Program Files (x86)\Microsoft Visual Studio\2019\Professional\VC\Tools\MSVC\14.29.30133\include\xmemory
; File C:\Program Files (x86)\Microsoft Visual Studio\2019\Professional\VC\Tools\MSVC\14.29.30133\include\algorithm
; File C:\Program Files (x86)\Microsoft Visual Studio\2019\Professional\VC\Tools\MSVC\14.29.30133\include\xmemory
; File C:\Program Files (x86)\Microsoft Visual Studio\2019\Professional\VC\Tools\MSVC\14.29.30133\include\algorithm
; File C:\Program Files (x86)\Microsoft Visual Studio\2019\Professional\VC\Tools\MSVC\14.29.30133\include\xmemory
; File C:\Program Files (x86)\Microsoft Visual Studio\2019\Professional\VC\Tools\MSVC\14.29.30133\include\algorithm
; File C:\Program Files (x86)\Microsoft Visual Studio\2019\Professional\VC\Tools\MSVC\14.29.30133\include\xutility
; File C:\Program Files (x86)\Windows Kits\10\Include\10.0.19041.0\ucrt\corecrt_memory.h
; File C:\Program Files (x86)\Microsoft Visual Studio\2019\Professional\VC\Tools\MSVC\14.29.30133\include\xutility
; File C:\Users\murat\Desktop\Siveps2-1-99-Project\source\client\Client\GameLib\MapOutdoor.h
; File C:\Program Files (x86)\Windows Kits\10\Include\10.0.19041.0\ucrt\corecrt_memory.h
; File C:\Program Files (x86)\Microsoft Visual Studio\2019\Professional\VC\Tools\MSVC\14.29.30133\include\xutility
; File C:\Program Files (x86)\Windows Kits\10\Include\10.0.19041.0\ucrt\corecrt_memory.h
; File C:\Program Files (x86)\Microsoft Visual Studio\2019\Professional\VC\Tools\MSVC\14.29.30133\include\xutility
; File C:\Program Files (x86)\Windows Kits\10\Include\10.0.19041.0\ucrt\corecrt_memory.h
; File C:\Program Files (x86)\Microsoft Visual Studio\2019\Professional\VC\Tools\MSVC\14.29.30133\include\xutility
; File C:\Program Files (x86)\Windows Kits\10\Include\10.0.19041.0\ucrt\corecrt_memory.h
; File C:\Program Files (x86)\Microsoft Visual Studio\2019\Professional\VC\Tools\MSVC\14.29.30133\include\xutility
; File C:\Program Files (x86)\Windows Kits\10\Include\10.0.19041.0\ucrt\corecrt_memory.h
; File C:\Users\murat\Desktop\Siveps2-1-99-Project\source\client\Client\GameLib\MapOutdoor.h
; File C:\Program Files (x86)\Microsoft Visual Studio\2019\Professional\VC\Tools\MSVC\14.29.30133\include\xutility
; File C:\Users\murat\Desktop\Siveps2-1-99-Project\source\client\Client\GameLib\MapOutdoor.h
; File C:\Program Files (x86)\Microsoft Visual Studio\2019\Professional\VC\Tools\MSVC\14.29.30133\include\vector
; File C:\Users\murat\Desktop\Siveps2-1-99-Project\source\client\Client\GameLib\MapOutdoor.h
; File C:\Program Files (x86)\Microsoft Visual Studio\2019\Professional\VC\Tools\MSVC\14.29.30133\include\vector
; File C:\Users\murat\Desktop\Siveps2-1-99-Project\source\client\Client\GameLib\MapOutdoor.h
; File C:\Program Files (x86)\Microsoft Visual Studio\2019\Professional\VC\Tools\MSVC\14.29.30133\include\vector
; File C:\Users\murat\Desktop\Siveps2-1-99-Project\source\client\Client\GameLib\MapOutdoor.h
; File C:\Program Files (x86)\Microsoft Visual Studio\2019\Professional\VC\Tools\MSVC\14.29.30133\include\xutility
; File C:\Program Files (x86)\Windows Kits\10\Include\10.0.19041.0\ucrt\corecrt_memory.h
; File C:\Program Files (x86)\Microsoft Visual Studio\2019\Professional\VC\Tools\MSVC\14.29.30133\include\xutility
; File C:\Program Files (x86)\Windows Kits\10\Include\10.0.19041.0\ucrt\corecrt_memory.h
; File C:\Program Files (x86)\Microsoft Visual Studio\2019\Professional\VC\Tools\MSVC\14.29.30133\include\xutility
; File C:\Users\murat\Desktop\Siveps2-1-99-Project\source\client\Client\GameLib\MapOutdoor.h
; File C:\Program Files (x86)\Microsoft Visual Studio\2019\Professional\VC\Tools\MSVC\14.29.30133\include\vector
; File C:\Users\murat\Desktop\Siveps2-1-99-Project\source\client\Client\GameLib\MapOutdoor.h
; File C:\Program Files (x86)\Microsoft Visual Studio\2019\Professional\VC\Tools\MSVC\14.29.30133\include\vector
; File C:\Users\murat\Desktop\Siveps2-1-99-Project\source\client\Client\GameLib\MapOutdoor.h
; File C:\Program Files (x86)\Microsoft Visual Studio\2019\Professional\VC\Tools\MSVC\14.29.30133\include\algorithm
; File C:\Program Files (x86)\Microsoft Visual Studio\2019\Professional\VC\Tools\MSVC\14.29.30133\include\xutility
; File C:\Program Files (x86)\Microsoft Visual Studio\2019\Professional\VC\Tools\MSVC\14.29.30133\include\algorithm
; File C:\Program Files (x86)\Microsoft Visual Studio\2019\Professional\VC\Tools\MSVC\14.29.30133\include\xutility
; File C:\Program Files (x86)\Microsoft Visual Studio\2019\Professional\VC\Tools\MSVC\14.29.30133\include\algorithm
; File C:\Program Files (x86)\Microsoft Visual Studio\2019\Professional\VC\Tools\MSVC\14.29.30133\include\xutility
; File C:\Program Files (x86)\Microsoft Visual Studio\2019\Professional\VC\Tools\MSVC\14.29.30133\include\algorithm
; File C:\Program Files (x86)\Microsoft Visual Studio\2019\Professional\VC\Tools\MSVC\14.29.30133\include\xutility
; File C:\Program Files (x86)\Microsoft Visual Studio\2019\Professional\VC\Tools\MSVC\14.29.30133\include\algorithm
; File C:\Program Files (x86)\Microsoft Visual Studio\2019\Professional\VC\Tools\MSVC\14.29.30133\include\xutility
; File C:\Program Files (x86)\Microsoft Visual Studio\2019\Professional\VC\Tools\MSVC\14.29.30133\include\algorithm
;	COMDAT ??$_Inplace_merge_buffer_right@PAUTPatchDrawStruct@CMapOutdoor@@UFSortPatchDrawStructWithTerrainNum@2@@std@@YAXPAUTPatchDrawStruct@CMapOutdoor@@00QAU12@UFSortPatchDrawStructWithTerrainNum@2@@Z
_TEXT	SEGMENT
tv1123 = -20						; size = 4
tv1127 = -16						; size = 4
tv1138 = -12						; size = 4
__Right_last$1$ = -8					; size = 4
tv1126 = -1						; size = 1
tv1122 = -1						; size = 1
__First$ = 8						; size = 4
__Mid$ = 12						; size = 4
__Last$ = 16						; size = 4
__Temp_ptr$ = 20					; size = 4
__Pred$ = 24						; size = 1
??$_Inplace_merge_buffer_right@PAUTPatchDrawStruct@CMapOutdoor@@UFSortPatchDrawStructWithTerrainNum@2@@std@@YAXPAUTPatchDrawStruct@CMapOutdoor@@00QAU12@UFSortPatchDrawStructWithTerrainNum@2@@Z PROC ; std::_Inplace_merge_buffer_right<CMapOutdoor::TPatchDrawStruct *,CMapOutdoor::FSortPatchDrawStructWithTerrainNum>, COMDAT

; 6692 :     _BidIt _First, _BidIt _Mid, _BidIt _Last, _Iter_value_t<_BidIt>* const _Temp_ptr, _Pr _Pred) {

  00000	55		 push	 ebp
  00001	8b ec		 mov	 ebp, esp
  00003	83 ec 14	 sub	 esp, 20			; 00000014H
  00006	53		 push	 ebx
; File C:\Program Files (x86)\Microsoft Visual Studio\2019\Professional\VC\Tools\MSVC\14.29.30133\include\xmemory

; 1514 :             return _Copy_memmove(_First, _Last, _Dest);

  00007	8b 5d 0c	 mov	 ebx, DWORD PTR __Mid$[ebp]
; File C:\Program Files (x86)\Microsoft Visual Studio\2019\Professional\VC\Tools\MSVC\14.29.30133\include\algorithm

; 6692 :     _BidIt _First, _BidIt _Mid, _BidIt _Last, _Iter_value_t<_BidIt>* const _Temp_ptr, _Pr _Pred) {

  0000a	56		 push	 esi
; File C:\Program Files (x86)\Microsoft Visual Studio\2019\Professional\VC\Tools\MSVC\14.29.30133\include\xmemory

; 1514 :             return _Copy_memmove(_First, _Last, _Dest);

  0000b	8b 75 10	 mov	 esi, DWORD PTR __Last$[ebp]
; File C:\Program Files (x86)\Microsoft Visual Studio\2019\Professional\VC\Tools\MSVC\14.29.30133\include\algorithm

; 6692 :     _BidIt _First, _BidIt _Mid, _BidIt _Last, _Iter_value_t<_BidIt>* const _Temp_ptr, _Pr _Pred) {

  0000e	57		 push	 edi
; File C:\Program Files (x86)\Microsoft Visual Studio\2019\Professional\VC\Tools\MSVC\14.29.30133\include\xmemory

; 1514 :             return _Copy_memmove(_First, _Last, _Dest);

  0000f	ff 75 14	 push	 DWORD PTR __Temp_ptr$[ebp]
  00012	56		 push	 esi
  00013	53		 push	 ebx
  00014	e8 00 00 00 00	 call	 ??$_Copy_memmove@PAUTPatchDrawStruct@CMapOutdoor@@PAU12@@std@@YAPAUTPatchDrawStruct@CMapOutdoor@@PAU12@00@Z ; std::_Copy_memmove<CMapOutdoor::TPatchDrawStruct *,CMapOutdoor::TPatchDrawStruct *>
; File C:\Program Files (x86)\Microsoft Visual Studio\2019\Professional\VC\Tools\MSVC\14.29.30133\include\algorithm

; 6697 :     *--_Last                   = _STD move(*--_Mid); // move the highest element into position

  00019	0f 10 43 f0	 movups	 xmm0, XMMWORD PTR [ebx-16]
  0001d	83 ee 10	 sub	 esi, 16			; 00000010H
; File C:\Program Files (x86)\Microsoft Visual Studio\2019\Professional\VC\Tools\MSVC\14.29.30133\include\xmemory

; 1514 :             return _Copy_memmove(_First, _Last, _Dest);

  00020	83 c4 0c	 add	 esp, 12			; 0000000cH
; File C:\Program Files (x86)\Microsoft Visual Studio\2019\Professional\VC\Tools\MSVC\14.29.30133\include\algorithm

; 6700 :     --_Mid;

  00023	83 eb 20	 sub	 ebx, 32			; 00000020H
  00026	89 75 10	 mov	 DWORD PTR __Last$[ebp], esi
  00029	8d 48 f0	 lea	 ecx, DWORD PTR [eax-16]
  0002c	89 5d 0c	 mov	 DWORD PTR __Mid$[ebp], ebx
  0002f	89 4d f8	 mov	 DWORD PTR __Right_last$1$[ebp], ecx
  00032	0f 11 06	 movups	 XMMWORD PTR [esi], xmm0
  00035	66 66 66 0f 1f
	84 00 00 00 00
	00		 npad	 11
$LL2@Inplace_me:
; File C:\Program Files (x86)\Microsoft Visual Studio\2019\Professional\VC\Tools\MSVC\14.29.30133\include\xutility

; 5348 :     _Seek_wrapped(_First, _Find_unchecked(_Get_unwrapped(_First), _Get_unwrapped(_Last), _Val));

  00040	8b 35 04 00 00
	00		 mov	 esi, DWORD PTR ?m_TerrainNumVector@FSortPatchDrawStructWithTerrainNum@CMapOutdoor@@2V?$vector@EV?$allocator@E@std@@@std@@A+4

; 5329 :     const auto _Result    = static_cast<remove_reference_t<_Iter_ref_t<_InIt>>*>(

  00046	83 c1 04	 add	 ecx, 4
  00049	8b 1d 00 00 00
	00		 mov	 ebx, DWORD PTR ?m_TerrainNumVector@FSortPatchDrawStructWithTerrainNum@CMapOutdoor@@2V?$vector@EV?$allocator@E@std@@@std@@A
  0004f	8b c6		 mov	 eax, esi
  00051	2b c3		 sub	 eax, ebx

; 5348 :     _Seek_wrapped(_First, _Find_unchecked(_Get_unwrapped(_First), _Get_unwrapped(_Last), _Val));

  00053	89 75 f4	 mov	 DWORD PTR tv1138[ebp], esi
; File C:\Program Files (x86)\Windows Kits\10\Include\10.0.19041.0\ucrt\corecrt_memory.h

; 111  :         return const_cast<void*>(memchr(_Pvc, _C, _N));

  00056	50		 push	 eax
; File C:\Program Files (x86)\Microsoft Visual Studio\2019\Professional\VC\Tools\MSVC\14.29.30133\include\xutility

; 5329 :     const auto _Result    = static_cast<remove_reference_t<_Iter_ref_t<_InIt>>*>(

  00057	0f b6 01	 movzx	 eax, BYTE PTR [ecx]
; File C:\Users\murat\Desktop\Siveps2-1-99-Project\source\client\Client\GameLib\MapOutdoor.h

; 360  : 				DWORD lhsTerrainNumOrder = 0, rhsTerrainNumOrder = 0;

  0005a	33 ff		 xor	 edi, edi
; File C:\Program Files (x86)\Windows Kits\10\Include\10.0.19041.0\ucrt\corecrt_memory.h

; 111  :         return const_cast<void*>(memchr(_Pvc, _C, _N));

  0005c	50		 push	 eax
  0005d	53		 push	 ebx
; File C:\Program Files (x86)\Microsoft Visual Studio\2019\Professional\VC\Tools\MSVC\14.29.30133\include\xutility

; 5329 :     const auto _Result    = static_cast<remove_reference_t<_Iter_ref_t<_InIt>>*>(

  0005e	89 4d f0	 mov	 DWORD PTR tv1127[ebp], ecx
; File C:\Program Files (x86)\Windows Kits\10\Include\10.0.19041.0\ucrt\corecrt_memory.h

; 111  :         return const_cast<void*>(memchr(_Pvc, _C, _N));

  00061	e8 00 00 00 00	 call	 _memchr
; File C:\Program Files (x86)\Microsoft Visual Studio\2019\Professional\VC\Tools\MSVC\14.29.30133\include\xutility

; 5332 :         return _Result ? _Result : _Last;

  00066	85 c0		 test	 eax, eax
  00068	0f 45 f0	 cmovne	 esi, eax

; 5329 :     const auto _Result    = static_cast<remove_reference_t<_Iter_ref_t<_InIt>>*>(

  0006b	8b 45 0c	 mov	 eax, DWORD PTR __Mid$[ebp]
  0006e	83 c0 04	 add	 eax, 4
  00071	89 45 ec	 mov	 DWORD PTR tv1123[ebp], eax
  00074	8a 08		 mov	 cl, BYTE PTR [eax]
  00076	8b 45 f4	 mov	 eax, DWORD PTR tv1138[ebp]
  00079	2b c3		 sub	 eax, ebx
  0007b	88 4d ff	 mov	 BYTE PTR tv1122[ebp], cl
; File C:\Program Files (x86)\Windows Kits\10\Include\10.0.19041.0\ucrt\corecrt_memory.h

; 111  :         return const_cast<void*>(memchr(_Pvc, _C, _N));

  0007e	50		 push	 eax
; File C:\Program Files (x86)\Microsoft Visual Studio\2019\Professional\VC\Tools\MSVC\14.29.30133\include\xutility

; 5329 :     const auto _Result    = static_cast<remove_reference_t<_Iter_ref_t<_InIt>>*>(

  0007f	0f b6 c1	 movzx	 eax, cl
; File C:\Program Files (x86)\Windows Kits\10\Include\10.0.19041.0\ucrt\corecrt_memory.h

; 111  :         return const_cast<void*>(memchr(_Pvc, _C, _N));

  00082	50		 push	 eax
  00083	53		 push	 ebx
  00084	e8 00 00 00 00	 call	 _memchr
; File C:\Program Files (x86)\Microsoft Visual Studio\2019\Professional\VC\Tools\MSVC\14.29.30133\include\xutility

; 5332 :         return _Result ? _Result : _Last;

  00089	8b 55 f4	 mov	 edx, DWORD PTR tv1138[ebp]
; File C:\Program Files (x86)\Windows Kits\10\Include\10.0.19041.0\ucrt\corecrt_memory.h

; 111  :         return const_cast<void*>(memchr(_Pvc, _C, _N));

  0008c	83 c4 18	 add	 esp, 24			; 00000018H
; File C:\Users\murat\Desktop\Siveps2-1-99-Project\source\client\Client\GameLib\MapOutdoor.h

; 367  : 				if (lhsIterator != m_TerrainNumVector.end())

  0008f	8b 0d 00 00 00
	00		 mov	 ecx, DWORD PTR ?m_TerrainNumVector@FSortPatchDrawStructWithTerrainNum@CMapOutdoor@@2V?$vector@EV?$allocator@E@std@@@std@@A
; File C:\Program Files (x86)\Microsoft Visual Studio\2019\Professional\VC\Tools\MSVC\14.29.30133\include\xutility

; 5332 :         return _Result ? _Result : _Last;

  00095	85 c0		 test	 eax, eax
  00097	8b da		 mov	 ebx, edx
  00099	0f 45 d8	 cmovne	 ebx, eax

; 5349 :     return _First;

  0009c	3b f2		 cmp	 esi, edx
; File C:\Users\murat\Desktop\Siveps2-1-99-Project\source\client\Client\GameLib\MapOutdoor.h

; 367  : 				if (lhsIterator != m_TerrainNumVector.end())

  0009e	74 04		 je	 SHORT $LN28@Inplace_me

; 368  : 				{
; 369  : 					blhsOrderFound = true;

  000a0	8b fe		 mov	 edi, esi
  000a2	2b f9		 sub	 edi, ecx
$LN28@Inplace_me:
; File C:\Program Files (x86)\Microsoft Visual Studio\2019\Professional\VC\Tools\MSVC\14.29.30133\include\vector

; 154  :         return _Ptr == _Right._Ptr;

  000a4	3b da		 cmp	 ebx, edx
; File C:\Users\murat\Desktop\Siveps2-1-99-Project\source\client\Client\GameLib\MapOutdoor.h

; 372  : 				if (rhsIterator != m_TerrainNumVector.end())

  000a6	74 09		 je	 SHORT $LN184@Inplace_me

; 377  : 				if (!brhsOrderFound)

  000a8	a1 04 00 00 00	 mov	 eax, DWORD PTR ?m_TerrainNumVector@FSortPatchDrawStructWithTerrainNum@CMapOutdoor@@2V?$vector@EV?$allocator@E@std@@@std@@A+4
; File C:\Program Files (x86)\Microsoft Visual Studio\2019\Professional\VC\Tools\MSVC\14.29.30133\include\vector

; 145  :         return _Ptr - _Right._Ptr;

  000ad	2b d9		 sub	 ebx, ecx
; File C:\Users\murat\Desktop\Siveps2-1-99-Project\source\client\Client\GameLib\MapOutdoor.h

; 377  : 				if (!brhsOrderFound)

  000af	eb 3b		 jmp	 SHORT $LN30@Inplace_me
$LN184@Inplace_me:
; File C:\Program Files (x86)\Microsoft Visual Studio\2019\Professional\VC\Tools\MSVC\14.29.30133\include\vector

; 743  :         if (_Mylast != _My_data._Myend) {

  000b1	3b 15 08 00 00
	00		 cmp	 edx, DWORD PTR ?m_TerrainNumVector@FSortPatchDrawStructWithTerrainNum@CMapOutdoor@@2V?$vector@EV?$allocator@E@std@@@std@@A+8
  000b7	74 12		 je	 SHORT $LN116@Inplace_me

; 726  :         _Alty_traits::construct(_Getal(), _Unfancy(_Mylast), _STD forward<_Valty>(_Val)...);

  000b9	8a 45 ff	 mov	 al, BYTE PTR tv1122[ebp]
  000bc	88 02		 mov	 BYTE PTR [edx], al

; 727  :         _Orphan_range(_Mylast, _Mylast);
; 728  :         _Ty& _Result = *_Mylast;
; 729  :         ++_Mylast;

  000be	a1 04 00 00 00	 mov	 eax, DWORD PTR ?m_TerrainNumVector@FSortPatchDrawStructWithTerrainNum@CMapOutdoor@@2V?$vector@EV?$allocator@E@std@@@std@@A+4
  000c3	40		 inc	 eax
  000c4	a3 04 00 00 00	 mov	 DWORD PTR ?m_TerrainNumVector@FSortPatchDrawStructWithTerrainNum@CMapOutdoor@@2V?$vector@EV?$allocator@E@std@@@std@@A+4, eax

; 744  :             return _Emplace_back_with_unused_capacity(_STD forward<_Valty>(_Val)...);

  000c9	eb 16		 jmp	 SHORT $LN115@Inplace_me
$LN116@Inplace_me:

; 745  :         }
; 746  : 
; 747  :         _Ty& _Result = *_Emplace_reallocate(_Mylast, _STD forward<_Valty>(_Val)...);

  000cb	ff 75 ec	 push	 DWORD PTR tv1123[ebp]
  000ce	b9 00 00 00 00	 mov	 ecx, OFFSET ?m_TerrainNumVector@FSortPatchDrawStructWithTerrainNum@CMapOutdoor@@2V?$vector@EV?$allocator@E@std@@@std@@A ; CMapOutdoor::FSortPatchDrawStructWithTerrainNum::m_TerrainNumVector
  000d3	52		 push	 edx
  000d4	e8 00 00 00 00	 call	 ??$_Emplace_reallocate@ABE@?$vector@EV?$allocator@E@std@@@std@@QAEPAEQAEABE@Z ; std::vector<unsigned char,std::allocator<unsigned char> >::_Emplace_reallocate<unsigned char const &>
  000d9	a1 04 00 00 00	 mov	 eax, DWORD PTR ?m_TerrainNumVector@FSortPatchDrawStructWithTerrainNum@CMapOutdoor@@2V?$vector@EV?$allocator@E@std@@@std@@A+4
  000de	8b 55 f4	 mov	 edx, DWORD PTR tv1138[ebp]
$LN115@Inplace_me:
; File C:\Users\murat\Desktop\Siveps2-1-99-Project\source\client\Client\GameLib\MapOutdoor.h

; 380  : 					rhsTerrainNumOrder = m_TerrainNumVector.size() -1;

  000e1	8b 0d 00 00 00
	00		 mov	 ecx, DWORD PTR ?m_TerrainNumVector@FSortPatchDrawStructWithTerrainNum@CMapOutdoor@@2V?$vector@EV?$allocator@E@std@@@std@@A
  000e7	8b d8		 mov	 ebx, eax
  000e9	2b d9		 sub	 ebx, ecx
  000eb	4b		 dec	 ebx
$LN30@Inplace_me:

; 381  : 				}
; 382  : 				if (!blhsOrderFound)

  000ec	3b f2		 cmp	 esi, edx
  000ee	75 66		 jne	 SHORT $LN33@Inplace_me
; File C:\Program Files (x86)\Microsoft Visual Studio\2019\Professional\VC\Tools\MSVC\14.29.30133\include\xutility

; 5348 :     _Seek_wrapped(_First, _Find_unchecked(_Get_unwrapped(_First), _Get_unwrapped(_Last), _Val));

  000f0	8b f8		 mov	 edi, eax

; 5329 :     const auto _Result    = static_cast<remove_reference_t<_Iter_ref_t<_InIt>>*>(

  000f2	8b 45 f0	 mov	 eax, DWORD PTR tv1127[ebp]

; 5348 :     _Seek_wrapped(_First, _Find_unchecked(_Get_unwrapped(_First), _Get_unwrapped(_Last), _Val));

  000f5	8b f7		 mov	 esi, edi

; 5329 :     const auto _Result    = static_cast<remove_reference_t<_Iter_ref_t<_InIt>>*>(

  000f7	8a 10		 mov	 dl, BYTE PTR [eax]
  000f9	8b c7		 mov	 eax, edi
  000fb	2b c1		 sub	 eax, ecx
  000fd	88 55 ff	 mov	 BYTE PTR tv1126[ebp], dl
; File C:\Program Files (x86)\Windows Kits\10\Include\10.0.19041.0\ucrt\corecrt_memory.h

; 111  :         return const_cast<void*>(memchr(_Pvc, _C, _N));

  00100	50		 push	 eax
; File C:\Program Files (x86)\Microsoft Visual Studio\2019\Professional\VC\Tools\MSVC\14.29.30133\include\xutility

; 5329 :     const auto _Result    = static_cast<remove_reference_t<_Iter_ref_t<_InIt>>*>(

  00101	0f b6 c2	 movzx	 eax, dl
; File C:\Program Files (x86)\Windows Kits\10\Include\10.0.19041.0\ucrt\corecrt_memory.h

; 111  :         return const_cast<void*>(memchr(_Pvc, _C, _N));

  00104	50		 push	 eax
  00105	51		 push	 ecx
  00106	e8 00 00 00 00	 call	 _memchr
  0010b	83 c4 0c	 add	 esp, 12			; 0000000cH
; File C:\Program Files (x86)\Microsoft Visual Studio\2019\Professional\VC\Tools\MSVC\14.29.30133\include\xutility

; 5332 :         return _Result ? _Result : _Last;

  0010e	85 c0		 test	 eax, eax
  00110	0f 45 f8	 cmovne	 edi, eax
; File C:\Users\murat\Desktop\Siveps2-1-99-Project\source\client\Client\GameLib\MapOutdoor.h

; 384  : 					lhsIterator = std::find(m_TerrainNumVector.begin(), m_TerrainNumVector.end(), lhs.byTerrainNum);

  00113	3b fe		 cmp	 edi, esi

; 385  : 					if (lhsIterator != m_TerrainNumVector.end())

  00115	74 08		 je	 SHORT $LN185@Inplace_me
; File C:\Program Files (x86)\Microsoft Visual Studio\2019\Professional\VC\Tools\MSVC\14.29.30133\include\vector

; 145  :         return _Ptr - _Right._Ptr;

  00117	2b 3d 00 00 00
	00		 sub	 edi, DWORD PTR ?m_TerrainNumVector@FSortPatchDrawStructWithTerrainNum@CMapOutdoor@@2V?$vector@EV?$allocator@E@std@@@std@@A
; File C:\Users\murat\Desktop\Siveps2-1-99-Project\source\client\Client\GameLib\MapOutdoor.h

; 390  : 					if (!blhsOrderFound)

  0011d	eb 37		 jmp	 SHORT $LN33@Inplace_me
$LN185@Inplace_me:
; File C:\Program Files (x86)\Microsoft Visual Studio\2019\Professional\VC\Tools\MSVC\14.29.30133\include\vector

; 743  :         if (_Mylast != _My_data._Myend) {

  0011f	3b 35 08 00 00
	00		 cmp	 esi, DWORD PTR ?m_TerrainNumVector@FSortPatchDrawStructWithTerrainNum@CMapOutdoor@@2V?$vector@EV?$allocator@E@std@@@std@@A+8
  00125	74 14		 je	 SHORT $LN164@Inplace_me

; 726  :         _Alty_traits::construct(_Getal(), _Unfancy(_Mylast), _STD forward<_Valty>(_Val)...);

  00127	8a 45 ff	 mov	 al, BYTE PTR tv1126[ebp]
  0012a	88 06		 mov	 BYTE PTR [esi], al

; 727  :         _Orphan_range(_Mylast, _Mylast);
; 728  :         _Ty& _Result = *_Mylast;
; 729  :         ++_Mylast;

  0012c	8b 3d 04 00 00
	00		 mov	 edi, DWORD PTR ?m_TerrainNumVector@FSortPatchDrawStructWithTerrainNum@CMapOutdoor@@2V?$vector@EV?$allocator@E@std@@@std@@A+4
  00132	47		 inc	 edi
  00133	89 3d 04 00 00
	00		 mov	 DWORD PTR ?m_TerrainNumVector@FSortPatchDrawStructWithTerrainNum@CMapOutdoor@@2V?$vector@EV?$allocator@E@std@@@std@@A+4, edi

; 744  :             return _Emplace_back_with_unused_capacity(_STD forward<_Valty>(_Val)...);

  00139	eb 14		 jmp	 SHORT $LN163@Inplace_me
$LN164@Inplace_me:

; 745  :         }
; 746  : 
; 747  :         _Ty& _Result = *_Emplace_reallocate(_Mylast, _STD forward<_Valty>(_Val)...);

  0013b	ff 75 f0	 push	 DWORD PTR tv1127[ebp]
  0013e	b9 00 00 00 00	 mov	 ecx, OFFSET ?m_TerrainNumVector@FSortPatchDrawStructWithTerrainNum@CMapOutdoor@@2V?$vector@EV?$allocator@E@std@@@std@@A ; CMapOutdoor::FSortPatchDrawStructWithTerrainNum::m_TerrainNumVector
  00143	56		 push	 esi
  00144	e8 00 00 00 00	 call	 ??$_Emplace_reallocate@ABE@?$vector@EV?$allocator@E@std@@@std@@QAEPAEQAEABE@Z ; std::vector<unsigned char,std::allocator<unsigned char> >::_Emplace_reallocate<unsigned char const &>
  00149	8b 3d 04 00 00
	00		 mov	 edi, DWORD PTR ?m_TerrainNumVector@FSortPatchDrawStructWithTerrainNum@CMapOutdoor@@2V?$vector@EV?$allocator@E@std@@@std@@A+4
$LN163@Inplace_me:
; File C:\Users\murat\Desktop\Siveps2-1-99-Project\source\client\Client\GameLib\MapOutdoor.h

; 393  : 						lhsTerrainNumOrder = m_TerrainNumVector.size() -1;

  0014f	2b 3d 00 00 00
	00		 sub	 edi, DWORD PTR ?m_TerrainNumVector@FSortPatchDrawStructWithTerrainNum@CMapOutdoor@@2V?$vector@EV?$allocator@E@std@@@std@@A
  00155	4f		 dec	 edi
$LN33@Inplace_me:

; 394  : 					}
; 395  : 				}
; 396  : 
; 397  : 				return lhsTerrainNumOrder < rhsTerrainNumOrder;

  00156	8b 45 10	 mov	 eax, DWORD PTR __Last$[ebp]
  00159	83 c0 f0	 add	 eax, -16		; fffffff0H
  0015c	89 45 10	 mov	 DWORD PTR __Last$[ebp], eax
  0015f	3b fb		 cmp	 edi, ebx
; File C:\Program Files (x86)\Microsoft Visual Studio\2019\Professional\VC\Tools\MSVC\14.29.30133\include\algorithm

; 6702 :         if (_Pred(*_Right_last, *_Mid)) { // merge from the left partition

  00161	73 1c		 jae	 SHORT $LN5@Inplace_me

; 6703 :             *--_Last = _STD move(*_Mid);

  00163	8b 4d 0c	 mov	 ecx, DWORD PTR __Mid$[ebp]
  00166	0f 10 01	 movups	 xmm0, XMMWORD PTR [ecx]
  00169	0f 11 00	 movups	 XMMWORD PTR [eax], xmm0

; 6704 :             if (_First == _Mid) {

  0016c	39 4d 08	 cmp	 DWORD PTR __First$[ebp], ecx
  0016f	74 4f		 je	 SHORT $LN180@Inplace_me

; 6706 :                 _Move_backward_unchecked(_Right_first, _Right_last, _Last); // move any head (and lowest element)
; 6707 :                 return;
; 6708 :             }
; 6709 : 
; 6710 :             --_Mid;

  00171	83 e9 10	 sub	 ecx, 16			; 00000010H
  00174	89 4d 0c	 mov	 DWORD PTR __Mid$[ebp], ecx

; 6711 :         } else { // merge from the right partition

  00177	8b 4d f8	 mov	 ecx, DWORD PTR __Right_last$1$[ebp]
  0017a	e9 c1 fe ff ff	 jmp	 $LL2@Inplace_me
$LN5@Inplace_me:

; 6712 :             *--_Last = _STD move(*_Right_last);

  0017f	8b 4d f8	 mov	 ecx, DWORD PTR __Right_last$1$[ebp]

; 6713 :             --_Right_last;
; 6714 :             if (_Right_first == _Right_last) { // we can't compare with *_Right_first, but we know it is lowest

  00182	8b 5d 14	 mov	 ebx, DWORD PTR __Temp_ptr$[ebp]
  00185	0f 10 01	 movups	 xmm0, XMMWORD PTR [ecx]
  00188	83 e9 10	 sub	 ecx, 16			; 00000010H
  0018b	89 4d f8	 mov	 DWORD PTR __Right_last$1$[ebp], ecx
  0018e	0f 11 00	 movups	 XMMWORD PTR [eax], xmm0
  00191	3b d9		 cmp	 ebx, ecx
  00193	0f 85 a7 fe ff
	ff		 jne	 $LL2@Inplace_me

; 6715 :                 *--_Last = _STD move(*_Mid); // restore half-open range [_First, _Mid)

  00199	8b 4d 0c	 mov	 ecx, DWORD PTR __Mid$[ebp]
  0019c	83 e8 10	 sub	 eax, 16			; 00000010H
; File C:\Program Files (x86)\Microsoft Visual Studio\2019\Professional\VC\Tools\MSVC\14.29.30133\include\xutility

; 4468 :             return _Copy_backward_memmove(_First, _Last, _Dest);

  0019f	8b 75 08	 mov	 esi, DWORD PTR __First$[ebp]
  001a2	50		 push	 eax
  001a3	51		 push	 ecx
; File C:\Program Files (x86)\Microsoft Visual Studio\2019\Professional\VC\Tools\MSVC\14.29.30133\include\algorithm

; 6715 :                 *--_Last = _STD move(*_Mid); // restore half-open range [_First, _Mid)

  001a4	0f 10 01	 movups	 xmm0, XMMWORD PTR [ecx]
; File C:\Program Files (x86)\Microsoft Visual Studio\2019\Professional\VC\Tools\MSVC\14.29.30133\include\xutility

; 4468 :             return _Copy_backward_memmove(_First, _Last, _Dest);

  001a7	56		 push	 esi
; File C:\Program Files (x86)\Microsoft Visual Studio\2019\Professional\VC\Tools\MSVC\14.29.30133\include\algorithm

; 6715 :                 *--_Last = _STD move(*_Mid); // restore half-open range [_First, _Mid)

  001a8	0f 11 00	 movups	 XMMWORD PTR [eax], xmm0
; File C:\Program Files (x86)\Microsoft Visual Studio\2019\Professional\VC\Tools\MSVC\14.29.30133\include\xutility

; 4468 :             return _Copy_backward_memmove(_First, _Last, _Dest);

  001ab	e8 00 00 00 00	 call	 ??$_Copy_backward_memmove@PAUTPatchDrawStruct@CMapOutdoor@@PAU12@@std@@YAPAUTPatchDrawStruct@CMapOutdoor@@PAU12@00@Z ; std::_Copy_backward_memmove<CMapOutdoor::TPatchDrawStruct *,CMapOutdoor::TPatchDrawStruct *>
; File C:\Program Files (x86)\Microsoft Visual Studio\2019\Professional\VC\Tools\MSVC\14.29.30133\include\algorithm

; 6717 :                 *_First = _STD move(*_Right_first);

  001b0	0f 10 03	 movups	 xmm0, XMMWORD PTR [ebx]

; 6722 : }

  001b3	83 c4 0c	 add	 esp, 12			; 0000000cH
  001b6	0f 11 06	 movups	 XMMWORD PTR [esi], xmm0
  001b9	5f		 pop	 edi
  001ba	5e		 pop	 esi
  001bb	5b		 pop	 ebx
  001bc	8b e5		 mov	 esp, ebp
  001be	5d		 pop	 ebp
  001bf	c3		 ret	 0
$LN180@Inplace_me:

; 6705 :                 *--_Last = _STD move(*_Right_last); // to make [_Right_first, _Right_last) a half-open range

  001c0	8b 4d f8	 mov	 ecx, DWORD PTR __Right_last$1$[ebp]
  001c3	83 e8 10	 sub	 eax, 16			; 00000010H
; File C:\Program Files (x86)\Microsoft Visual Studio\2019\Professional\VC\Tools\MSVC\14.29.30133\include\xutility

; 4468 :             return _Copy_backward_memmove(_First, _Last, _Dest);

  001c6	50		 push	 eax
  001c7	51		 push	 ecx
  001c8	ff 75 14	 push	 DWORD PTR __Temp_ptr$[ebp]
; File C:\Program Files (x86)\Microsoft Visual Studio\2019\Professional\VC\Tools\MSVC\14.29.30133\include\algorithm

; 6705 :                 *--_Last = _STD move(*_Right_last); // to make [_Right_first, _Right_last) a half-open range

  001cb	0f 10 01	 movups	 xmm0, XMMWORD PTR [ecx]
  001ce	0f 11 00	 movups	 XMMWORD PTR [eax], xmm0
; File C:\Program Files (x86)\Microsoft Visual Studio\2019\Professional\VC\Tools\MSVC\14.29.30133\include\xutility

; 4468 :             return _Copy_backward_memmove(_First, _Last, _Dest);

  001d1	e8 00 00 00 00	 call	 ??$_Copy_backward_memmove@PAUTPatchDrawStruct@CMapOutdoor@@PAU12@@std@@YAPAUTPatchDrawStruct@CMapOutdoor@@PAU12@00@Z ; std::_Copy_backward_memmove<CMapOutdoor::TPatchDrawStruct *,CMapOutdoor::TPatchDrawStruct *>
; File C:\Program Files (x86)\Microsoft Visual Studio\2019\Professional\VC\Tools\MSVC\14.29.30133\include\algorithm

; 6722 : }

  001d6	83 c4 0c	 add	 esp, 12			; 0000000cH
  001d9	5f		 pop	 edi
  001da	5e		 pop	 esi
  001db	5b		 pop	 ebx
  001dc	8b e5		 mov	 esp, ebp
  001de	5d		 pop	 ebp
  001df	c3		 ret	 0
??$_Inplace_merge_buffer_right@PAUTPatchDrawStruct@CMapOutdoor@@UFSortPatchDrawStructWithTerrainNum@2@@std@@YAXPAUTPatchDrawStruct@CMapOutdoor@@00QAU12@UFSortPatchDrawStructWithTerrainNum@2@@Z ENDP ; std::_Inplace_merge_buffer_right<CMapOutdoor::TPatchDrawStruct *,CMapOutdoor::FSortPatchDrawStructWithTerrainNum>
_TEXT	ENDS
; Function compile flags: /Ogtp
; File C:\Program Files (x86)\Microsoft Visual Studio\2019\Professional\VC\Tools\MSVC\14.29.30133\include\algorithm
; File C:\Program Files (x86)\Microsoft Visual Studio\2019\Professional\VC\Tools\MSVC\14.29.30133\include\xmemory
; File C:\Program Files (x86)\Microsoft Visual Studio\2019\Professional\VC\Tools\MSVC\14.29.30133\include\algorithm
; File C:\Program Files (x86)\Microsoft Visual Studio\2019\Professional\VC\Tools\MSVC\14.29.30133\include\xmemory
; File C:\Program Files (x86)\Microsoft Visual Studio\2019\Professional\VC\Tools\MSVC\14.29.30133\include\algorithm
; File C:\Program Files (x86)\Microsoft Visual Studio\2019\Professional\VC\Tools\MSVC\14.29.30133\include\xmemory
; File C:\Program Files (x86)\Microsoft Visual Studio\2019\Professional\VC\Tools\MSVC\14.29.30133\include\algorithm
; File C:\Program Files (x86)\Microsoft Visual Studio\2019\Professional\VC\Tools\MSVC\14.29.30133\include\xmemory
; File C:\Program Files (x86)\Microsoft Visual Studio\2019\Professional\VC\Tools\MSVC\14.29.30133\include\algorithm
; File C:\Program Files (x86)\Microsoft Visual Studio\2019\Professional\VC\Tools\MSVC\14.29.30133\include\xutility
; File C:\Program Files (x86)\Windows Kits\10\Include\10.0.19041.0\ucrt\corecrt_memory.h
; File C:\Program Files (x86)\Microsoft Visual Studio\2019\Professional\VC\Tools\MSVC\14.29.30133\include\xutility
; File C:\Users\murat\Desktop\Siveps2-1-99-Project\source\client\Client\GameLib\MapOutdoor.h
; File C:\Program Files (x86)\Windows Kits\10\Include\10.0.19041.0\ucrt\corecrt_memory.h
; File C:\Program Files (x86)\Microsoft Visual Studio\2019\Professional\VC\Tools\MSVC\14.29.30133\include\xutility
; File C:\Program Files (x86)\Windows Kits\10\Include\10.0.19041.0\ucrt\corecrt_memory.h
; File C:\Program Files (x86)\Microsoft Visual Studio\2019\Professional\VC\Tools\MSVC\14.29.30133\include\xutility
; File C:\Program Files (x86)\Windows Kits\10\Include\10.0.19041.0\ucrt\corecrt_memory.h
; File C:\Program Files (x86)\Microsoft Visual Studio\2019\Professional\VC\Tools\MSVC\14.29.30133\include\xutility
; File C:\Program Files (x86)\Windows Kits\10\Include\10.0.19041.0\ucrt\corecrt_memory.h
; File C:\Program Files (x86)\Microsoft Visual Studio\2019\Professional\VC\Tools\MSVC\14.29.30133\include\xutility
; File C:\Program Files (x86)\Windows Kits\10\Include\10.0.19041.0\ucrt\corecrt_memory.h
; File C:\Users\murat\Desktop\Siveps2-1-99-Project\source\client\Client\GameLib\MapOutdoor.h
; File C:\Program Files (x86)\Microsoft Visual Studio\2019\Professional\VC\Tools\MSVC\14.29.30133\include\xutility
; File C:\Users\murat\Desktop\Siveps2-1-99-Project\source\client\Client\GameLib\MapOutdoor.h
; File C:\Program Files (x86)\Microsoft Visual Studio\2019\Professional\VC\Tools\MSVC\14.29.30133\include\vector
; File C:\Users\murat\Desktop\Siveps2-1-99-Project\source\client\Client\GameLib\MapOutdoor.h
; File C:\Program Files (x86)\Microsoft Visual Studio\2019\Professional\VC\Tools\MSVC\14.29.30133\include\vector
; File C:\Users\murat\Desktop\Siveps2-1-99-Project\source\client\Client\GameLib\MapOutdoor.h
; File C:\Program Files (x86)\Microsoft Visual Studio\2019\Professional\VC\Tools\MSVC\14.29.30133\include\vector
; File C:\Users\murat\Desktop\Siveps2-1-99-Project\source\client\Client\GameLib\MapOutdoor.h
; File C:\Program Files (x86)\Microsoft Visual Studio\2019\Professional\VC\Tools\MSVC\14.29.30133\include\xutility
; File C:\Program Files (x86)\Windows Kits\10\Include\10.0.19041.0\ucrt\corecrt_memory.h
; File C:\Program Files (x86)\Microsoft Visual Studio\2019\Professional\VC\Tools\MSVC\14.29.30133\include\xutility
; File C:\Program Files (x86)\Windows Kits\10\Include\10.0.19041.0\ucrt\corecrt_memory.h
; File C:\Program Files (x86)\Microsoft Visual Studio\2019\Professional\VC\Tools\MSVC\14.29.30133\include\xutility
; File C:\Users\murat\Desktop\Siveps2-1-99-Project\source\client\Client\GameLib\MapOutdoor.h
; File C:\Program Files (x86)\Microsoft Visual Studio\2019\Professional\VC\Tools\MSVC\14.29.30133\include\vector
; File C:\Users\murat\Desktop\Siveps2-1-99-Project\source\client\Client\GameLib\MapOutdoor.h
; File C:\Program Files (x86)\Microsoft Visual Studio\2019\Professional\VC\Tools\MSVC\14.29.30133\include\vector
; File C:\Users\murat\Desktop\Siveps2-1-99-Project\source\client\Client\GameLib\MapOutdoor.h
; File C:\Program Files (x86)\Microsoft Visual Studio\2019\Professional\VC\Tools\MSVC\14.29.30133\include\algorithm
; File C:\Program Files (x86)\Microsoft Visual Studio\2019\Professional\VC\Tools\MSVC\14.29.30133\include\xutility
; File C:\Program Files (x86)\Microsoft Visual Studio\2019\Professional\VC\Tools\MSVC\14.29.30133\include\algorithm
; File C:\Program Files (x86)\Microsoft Visual Studio\2019\Professional\VC\Tools\MSVC\14.29.30133\include\xutility
; File C:\Program Files (x86)\Microsoft Visual Studio\2019\Professional\VC\Tools\MSVC\14.29.30133\include\algorithm
;	COMDAT ??$_Inplace_merge_buffer_left@PAUTPatchDrawStruct@CMapOutdoor@@UFSortPatchDrawStructWithTerrainNum@2@@std@@YAXPAUTPatchDrawStruct@CMapOutdoor@@00QAU12@UFSortPatchDrawStructWithTerrainNum@2@@Z
_TEXT	SEGMENT
tv1128 = -20						; size = 4
__Backout$$sroa$762$1$ = -16				; size = 4
tv1132 = -12						; size = 4
tv1143 = -8						; size = 4
tv1131 = -1						; size = 1
tv1127 = -1						; size = 1
__First$ = 8						; size = 4
__Mid$ = 12						; size = 4
__Last$ = 16						; size = 4
__Temp_ptr$ = 20					; size = 4
__Pred$ = 24						; size = 1
??$_Inplace_merge_buffer_left@PAUTPatchDrawStruct@CMapOutdoor@@UFSortPatchDrawStructWithTerrainNum@2@@std@@YAXPAUTPatchDrawStruct@CMapOutdoor@@00QAU12@UFSortPatchDrawStructWithTerrainNum@2@@Z PROC ; std::_Inplace_merge_buffer_left<CMapOutdoor::TPatchDrawStruct *,CMapOutdoor::FSortPatchDrawStructWithTerrainNum>, COMDAT

; 6658 :     _BidIt _First, _BidIt _Mid, _BidIt _Last, _Iter_value_t<_BidIt>* const _Temp_ptr, _Pr _Pred) {

  00000	55		 push	 ebp
  00001	8b ec		 mov	 ebp, esp
  00003	83 ec 14	 sub	 esp, 20			; 00000014H
  00006	53		 push	 ebx
; File C:\Program Files (x86)\Microsoft Visual Studio\2019\Professional\VC\Tools\MSVC\14.29.30133\include\xmemory

; 1514 :             return _Copy_memmove(_First, _Last, _Dest);

  00007	8b 5d 0c	 mov	 ebx, DWORD PTR __Mid$[ebp]
; File C:\Program Files (x86)\Microsoft Visual Studio\2019\Professional\VC\Tools\MSVC\14.29.30133\include\algorithm

; 6658 :     _BidIt _First, _BidIt _Mid, _BidIt _Last, _Iter_value_t<_BidIt>* const _Temp_ptr, _Pr _Pred) {

  0000a	56		 push	 esi
; File C:\Program Files (x86)\Microsoft Visual Studio\2019\Professional\VC\Tools\MSVC\14.29.30133\include\xmemory

; 1514 :             return _Copy_memmove(_First, _Last, _Dest);

  0000b	8b 75 08	 mov	 esi, DWORD PTR __First$[ebp]
; File C:\Program Files (x86)\Microsoft Visual Studio\2019\Professional\VC\Tools\MSVC\14.29.30133\include\algorithm

; 6658 :     _BidIt _First, _BidIt _Mid, _BidIt _Last, _Iter_value_t<_BidIt>* const _Temp_ptr, _Pr _Pred) {

  0000e	57		 push	 edi
; File C:\Program Files (x86)\Microsoft Visual Studio\2019\Professional\VC\Tools\MSVC\14.29.30133\include\xmemory

; 1514 :             return _Copy_memmove(_First, _Last, _Dest);

  0000f	ff 75 14	 push	 DWORD PTR __Temp_ptr$[ebp]
  00012	53		 push	 ebx
  00013	56		 push	 esi
  00014	e8 00 00 00 00	 call	 ??$_Copy_memmove@PAUTPatchDrawStruct@CMapOutdoor@@PAU12@@std@@YAPAUTPatchDrawStruct@CMapOutdoor@@PAU12@00@Z ; std::_Copy_memmove<CMapOutdoor::TPatchDrawStruct *,CMapOutdoor::TPatchDrawStruct *>
; File C:\Program Files (x86)\Microsoft Visual Studio\2019\Professional\VC\Tools\MSVC\14.29.30133\include\algorithm

; 6665 :     *_First                  = _STD move(*_Mid); // the lowest element is now in position

  00019	0f 10 03	 movups	 xmm0, XMMWORD PTR [ebx]
; File C:\Program Files (x86)\Microsoft Visual Studio\2019\Professional\VC\Tools\MSVC\14.29.30133\include\xmemory

; 1514 :             return _Copy_memmove(_First, _Last, _Dest);

  0001c	83 c4 0c	 add	 esp, 12			; 0000000cH

; 1482 :     constexpr _Uninitialized_backout(_NoThrowFwdIt _First_, _NoThrowFwdIt _Last_) : _First(_First_), _Last(_Last_) {}

  0001f	89 45 f0	 mov	 DWORD PTR __Backout$$sroa$762$1$[ebp], eax
; File C:\Program Files (x86)\Microsoft Visual Studio\2019\Professional\VC\Tools\MSVC\14.29.30133\include\algorithm

; 6665 :     *_First                  = _STD move(*_Mid); // the lowest element is now in position

  00022	0f 11 06	 movups	 XMMWORD PTR [esi], xmm0

; 6666 :     ++_First;

  00025	83 c6 10	 add	 esi, 16			; 00000010H

; 6667 :     ++_Mid;

  00028	83 c3 10	 add	 ebx, 16			; 00000010H
  0002b	89 75 08	 mov	 DWORD PTR __First$[ebp], esi
  0002e	89 5d 0c	 mov	 DWORD PTR __Mid$[ebp], ebx
$LL2@Inplace_me:
; File C:\Program Files (x86)\Microsoft Visual Studio\2019\Professional\VC\Tools\MSVC\14.29.30133\include\xutility

; 5348 :     _Seek_wrapped(_First, _Find_unchecked(_Get_unwrapped(_First), _Get_unwrapped(_Last), _Val));

  00031	8b 35 04 00 00
	00		 mov	 esi, DWORD PTR ?m_TerrainNumVector@FSortPatchDrawStructWithTerrainNum@CMapOutdoor@@2V?$vector@EV?$allocator@E@std@@@std@@A+4

; 5329 :     const auto _Result    = static_cast<remove_reference_t<_Iter_ref_t<_InIt>>*>(

  00037	8d 4b 04	 lea	 ecx, DWORD PTR [ebx+4]
  0003a	8b 1d 00 00 00
	00		 mov	 ebx, DWORD PTR ?m_TerrainNumVector@FSortPatchDrawStructWithTerrainNum@CMapOutdoor@@2V?$vector@EV?$allocator@E@std@@@std@@A
  00040	8b c6		 mov	 eax, esi
  00042	2b c3		 sub	 eax, ebx

; 5348 :     _Seek_wrapped(_First, _Find_unchecked(_Get_unwrapped(_First), _Get_unwrapped(_Last), _Val));

  00044	89 75 f8	 mov	 DWORD PTR tv1143[ebp], esi
; File C:\Program Files (x86)\Windows Kits\10\Include\10.0.19041.0\ucrt\corecrt_memory.h

; 111  :         return const_cast<void*>(memchr(_Pvc, _C, _N));

  00047	50		 push	 eax
; File C:\Program Files (x86)\Microsoft Visual Studio\2019\Professional\VC\Tools\MSVC\14.29.30133\include\xutility

; 5329 :     const auto _Result    = static_cast<remove_reference_t<_Iter_ref_t<_InIt>>*>(

  00048	0f b6 01	 movzx	 eax, BYTE PTR [ecx]
; File C:\Users\murat\Desktop\Siveps2-1-99-Project\source\client\Client\GameLib\MapOutdoor.h

; 360  : 				DWORD lhsTerrainNumOrder = 0, rhsTerrainNumOrder = 0;

  0004b	33 ff		 xor	 edi, edi
; File C:\Program Files (x86)\Windows Kits\10\Include\10.0.19041.0\ucrt\corecrt_memory.h

; 111  :         return const_cast<void*>(memchr(_Pvc, _C, _N));

  0004d	50		 push	 eax
  0004e	53		 push	 ebx
; File C:\Program Files (x86)\Microsoft Visual Studio\2019\Professional\VC\Tools\MSVC\14.29.30133\include\xutility

; 5329 :     const auto _Result    = static_cast<remove_reference_t<_Iter_ref_t<_InIt>>*>(

  0004f	89 4d f4	 mov	 DWORD PTR tv1132[ebp], ecx
; File C:\Program Files (x86)\Windows Kits\10\Include\10.0.19041.0\ucrt\corecrt_memory.h

; 111  :         return const_cast<void*>(memchr(_Pvc, _C, _N));

  00052	e8 00 00 00 00	 call	 _memchr
; File C:\Program Files (x86)\Microsoft Visual Studio\2019\Professional\VC\Tools\MSVC\14.29.30133\include\xutility

; 5332 :         return _Result ? _Result : _Last;

  00057	85 c0		 test	 eax, eax
  00059	0f 45 f0	 cmovne	 esi, eax

; 5329 :     const auto _Result    = static_cast<remove_reference_t<_Iter_ref_t<_InIt>>*>(

  0005c	8b 45 14	 mov	 eax, DWORD PTR __Temp_ptr$[ebp]
  0005f	83 c0 04	 add	 eax, 4
  00062	89 45 ec	 mov	 DWORD PTR tv1128[ebp], eax
  00065	8a 08		 mov	 cl, BYTE PTR [eax]
  00067	8b 45 f8	 mov	 eax, DWORD PTR tv1143[ebp]
  0006a	2b c3		 sub	 eax, ebx
  0006c	88 4d ff	 mov	 BYTE PTR tv1127[ebp], cl
; File C:\Program Files (x86)\Windows Kits\10\Include\10.0.19041.0\ucrt\corecrt_memory.h

; 111  :         return const_cast<void*>(memchr(_Pvc, _C, _N));

  0006f	50		 push	 eax
; File C:\Program Files (x86)\Microsoft Visual Studio\2019\Professional\VC\Tools\MSVC\14.29.30133\include\xutility

; 5329 :     const auto _Result    = static_cast<remove_reference_t<_Iter_ref_t<_InIt>>*>(

  00070	0f b6 c1	 movzx	 eax, cl
; File C:\Program Files (x86)\Windows Kits\10\Include\10.0.19041.0\ucrt\corecrt_memory.h

; 111  :         return const_cast<void*>(memchr(_Pvc, _C, _N));

  00073	50		 push	 eax
  00074	53		 push	 ebx
  00075	e8 00 00 00 00	 call	 _memchr
; File C:\Program Files (x86)\Microsoft Visual Studio\2019\Professional\VC\Tools\MSVC\14.29.30133\include\xutility

; 5332 :         return _Result ? _Result : _Last;

  0007a	8b 55 f8	 mov	 edx, DWORD PTR tv1143[ebp]
; File C:\Program Files (x86)\Windows Kits\10\Include\10.0.19041.0\ucrt\corecrt_memory.h

; 111  :         return const_cast<void*>(memchr(_Pvc, _C, _N));

  0007d	83 c4 18	 add	 esp, 24			; 00000018H
; File C:\Users\murat\Desktop\Siveps2-1-99-Project\source\client\Client\GameLib\MapOutdoor.h

; 367  : 				if (lhsIterator != m_TerrainNumVector.end())

  00080	8b 0d 00 00 00
	00		 mov	 ecx, DWORD PTR ?m_TerrainNumVector@FSortPatchDrawStructWithTerrainNum@CMapOutdoor@@2V?$vector@EV?$allocator@E@std@@@std@@A
; File C:\Program Files (x86)\Microsoft Visual Studio\2019\Professional\VC\Tools\MSVC\14.29.30133\include\xutility

; 5332 :         return _Result ? _Result : _Last;

  00086	85 c0		 test	 eax, eax
  00088	8b da		 mov	 ebx, edx
  0008a	0f 45 d8	 cmovne	 ebx, eax

; 5349 :     return _First;

  0008d	3b f2		 cmp	 esi, edx
; File C:\Users\murat\Desktop\Siveps2-1-99-Project\source\client\Client\GameLib\MapOutdoor.h

; 367  : 				if (lhsIterator != m_TerrainNumVector.end())

  0008f	74 04		 je	 SHORT $LN28@Inplace_me

; 368  : 				{
; 369  : 					blhsOrderFound = true;

  00091	8b fe		 mov	 edi, esi
  00093	2b f9		 sub	 edi, ecx
$LN28@Inplace_me:
; File C:\Program Files (x86)\Microsoft Visual Studio\2019\Professional\VC\Tools\MSVC\14.29.30133\include\vector

; 154  :         return _Ptr == _Right._Ptr;

  00095	3b da		 cmp	 ebx, edx
; File C:\Users\murat\Desktop\Siveps2-1-99-Project\source\client\Client\GameLib\MapOutdoor.h

; 372  : 				if (rhsIterator != m_TerrainNumVector.end())

  00097	74 09		 je	 SHORT $LN186@Inplace_me

; 377  : 				if (!brhsOrderFound)

  00099	a1 04 00 00 00	 mov	 eax, DWORD PTR ?m_TerrainNumVector@FSortPatchDrawStructWithTerrainNum@CMapOutdoor@@2V?$vector@EV?$allocator@E@std@@@std@@A+4
; File C:\Program Files (x86)\Microsoft Visual Studio\2019\Professional\VC\Tools\MSVC\14.29.30133\include\vector

; 145  :         return _Ptr - _Right._Ptr;

  0009e	2b d9		 sub	 ebx, ecx
; File C:\Users\murat\Desktop\Siveps2-1-99-Project\source\client\Client\GameLib\MapOutdoor.h

; 377  : 				if (!brhsOrderFound)

  000a0	eb 3b		 jmp	 SHORT $LN30@Inplace_me
$LN186@Inplace_me:
; File C:\Program Files (x86)\Microsoft Visual Studio\2019\Professional\VC\Tools\MSVC\14.29.30133\include\vector

; 743  :         if (_Mylast != _My_data._Myend) {

  000a2	3b 15 08 00 00
	00		 cmp	 edx, DWORD PTR ?m_TerrainNumVector@FSortPatchDrawStructWithTerrainNum@CMapOutdoor@@2V?$vector@EV?$allocator@E@std@@@std@@A+8
  000a8	74 12		 je	 SHORT $LN116@Inplace_me

; 726  :         _Alty_traits::construct(_Getal(), _Unfancy(_Mylast), _STD forward<_Valty>(_Val)...);

  000aa	8a 45 ff	 mov	 al, BYTE PTR tv1127[ebp]
  000ad	88 02		 mov	 BYTE PTR [edx], al

; 727  :         _Orphan_range(_Mylast, _Mylast);
; 728  :         _Ty& _Result = *_Mylast;
; 729  :         ++_Mylast;

  000af	a1 04 00 00 00	 mov	 eax, DWORD PTR ?m_TerrainNumVector@FSortPatchDrawStructWithTerrainNum@CMapOutdoor@@2V?$vector@EV?$allocator@E@std@@@std@@A+4
  000b4	40		 inc	 eax
  000b5	a3 04 00 00 00	 mov	 DWORD PTR ?m_TerrainNumVector@FSortPatchDrawStructWithTerrainNum@CMapOutdoor@@2V?$vector@EV?$allocator@E@std@@@std@@A+4, eax

; 744  :             return _Emplace_back_with_unused_capacity(_STD forward<_Valty>(_Val)...);

  000ba	eb 16		 jmp	 SHORT $LN115@Inplace_me
$LN116@Inplace_me:

; 745  :         }
; 746  : 
; 747  :         _Ty& _Result = *_Emplace_reallocate(_Mylast, _STD forward<_Valty>(_Val)...);

  000bc	ff 75 ec	 push	 DWORD PTR tv1128[ebp]
  000bf	b9 00 00 00 00	 mov	 ecx, OFFSET ?m_TerrainNumVector@FSortPatchDrawStructWithTerrainNum@CMapOutdoor@@2V?$vector@EV?$allocator@E@std@@@std@@A ; CMapOutdoor::FSortPatchDrawStructWithTerrainNum::m_TerrainNumVector
  000c4	52		 push	 edx
  000c5	e8 00 00 00 00	 call	 ??$_Emplace_reallocate@ABE@?$vector@EV?$allocator@E@std@@@std@@QAEPAEQAEABE@Z ; std::vector<unsigned char,std::allocator<unsigned char> >::_Emplace_reallocate<unsigned char const &>
  000ca	a1 04 00 00 00	 mov	 eax, DWORD PTR ?m_TerrainNumVector@FSortPatchDrawStructWithTerrainNum@CMapOutdoor@@2V?$vector@EV?$allocator@E@std@@@std@@A+4
  000cf	8b 55 f8	 mov	 edx, DWORD PTR tv1143[ebp]
$LN115@Inplace_me:
; File C:\Users\murat\Desktop\Siveps2-1-99-Project\source\client\Client\GameLib\MapOutdoor.h

; 380  : 					rhsTerrainNumOrder = m_TerrainNumVector.size() -1;

  000d2	8b 0d 00 00 00
	00		 mov	 ecx, DWORD PTR ?m_TerrainNumVector@FSortPatchDrawStructWithTerrainNum@CMapOutdoor@@2V?$vector@EV?$allocator@E@std@@@std@@A
  000d8	8b d8		 mov	 ebx, eax
  000da	2b d9		 sub	 ebx, ecx
  000dc	4b		 dec	 ebx
$LN30@Inplace_me:

; 381  : 				}
; 382  : 				if (!blhsOrderFound)

  000dd	3b f2		 cmp	 esi, edx
  000df	75 66		 jne	 SHORT $LN33@Inplace_me
; File C:\Program Files (x86)\Microsoft Visual Studio\2019\Professional\VC\Tools\MSVC\14.29.30133\include\xutility

; 5348 :     _Seek_wrapped(_First, _Find_unchecked(_Get_unwrapped(_First), _Get_unwrapped(_Last), _Val));

  000e1	8b f8		 mov	 edi, eax

; 5329 :     const auto _Result    = static_cast<remove_reference_t<_Iter_ref_t<_InIt>>*>(

  000e3	8b 45 f4	 mov	 eax, DWORD PTR tv1132[ebp]

; 5348 :     _Seek_wrapped(_First, _Find_unchecked(_Get_unwrapped(_First), _Get_unwrapped(_Last), _Val));

  000e6	8b f7		 mov	 esi, edi

; 5329 :     const auto _Result    = static_cast<remove_reference_t<_Iter_ref_t<_InIt>>*>(

  000e8	8a 10		 mov	 dl, BYTE PTR [eax]
  000ea	8b c7		 mov	 eax, edi
  000ec	2b c1		 sub	 eax, ecx
  000ee	88 55 ff	 mov	 BYTE PTR tv1131[ebp], dl
; File C:\Program Files (x86)\Windows Kits\10\Include\10.0.19041.0\ucrt\corecrt_memory.h

; 111  :         return const_cast<void*>(memchr(_Pvc, _C, _N));

  000f1	50		 push	 eax
; File C:\Program Files (x86)\Microsoft Visual Studio\2019\Professional\VC\Tools\MSVC\14.29.30133\include\xutility

; 5329 :     const auto _Result    = static_cast<remove_reference_t<_Iter_ref_t<_InIt>>*>(

  000f2	0f b6 c2	 movzx	 eax, dl
; File C:\Program Files (x86)\Windows Kits\10\Include\10.0.19041.0\ucrt\corecrt_memory.h

; 111  :         return const_cast<void*>(memchr(_Pvc, _C, _N));

  000f5	50		 push	 eax
  000f6	51		 push	 ecx
  000f7	e8 00 00 00 00	 call	 _memchr
  000fc	83 c4 0c	 add	 esp, 12			; 0000000cH
; File C:\Program Files (x86)\Microsoft Visual Studio\2019\Professional\VC\Tools\MSVC\14.29.30133\include\xutility

; 5332 :         return _Result ? _Result : _Last;

  000ff	85 c0		 test	 eax, eax
  00101	0f 45 f8	 cmovne	 edi, eax
; File C:\Users\murat\Desktop\Siveps2-1-99-Project\source\client\Client\GameLib\MapOutdoor.h

; 384  : 					lhsIterator = std::find(m_TerrainNumVector.begin(), m_TerrainNumVector.end(), lhs.byTerrainNum);

  00104	3b fe		 cmp	 edi, esi

; 385  : 					if (lhsIterator != m_TerrainNumVector.end())

  00106	74 08		 je	 SHORT $LN187@Inplace_me
; File C:\Program Files (x86)\Microsoft Visual Studio\2019\Professional\VC\Tools\MSVC\14.29.30133\include\vector

; 145  :         return _Ptr - _Right._Ptr;

  00108	2b 3d 00 00 00
	00		 sub	 edi, DWORD PTR ?m_TerrainNumVector@FSortPatchDrawStructWithTerrainNum@CMapOutdoor@@2V?$vector@EV?$allocator@E@std@@@std@@A
; File C:\Users\murat\Desktop\Siveps2-1-99-Project\source\client\Client\GameLib\MapOutdoor.h

; 390  : 					if (!blhsOrderFound)

  0010e	eb 37		 jmp	 SHORT $LN33@Inplace_me
$LN187@Inplace_me:
; File C:\Program Files (x86)\Microsoft Visual Studio\2019\Professional\VC\Tools\MSVC\14.29.30133\include\vector

; 743  :         if (_Mylast != _My_data._Myend) {

  00110	3b 35 08 00 00
	00		 cmp	 esi, DWORD PTR ?m_TerrainNumVector@FSortPatchDrawStructWithTerrainNum@CMapOutdoor@@2V?$vector@EV?$allocator@E@std@@@std@@A+8
  00116	74 14		 je	 SHORT $LN164@Inplace_me

; 726  :         _Alty_traits::construct(_Getal(), _Unfancy(_Mylast), _STD forward<_Valty>(_Val)...);

  00118	8a 45 ff	 mov	 al, BYTE PTR tv1131[ebp]
  0011b	88 06		 mov	 BYTE PTR [esi], al

; 727  :         _Orphan_range(_Mylast, _Mylast);
; 728  :         _Ty& _Result = *_Mylast;
; 729  :         ++_Mylast;

  0011d	8b 3d 04 00 00
	00		 mov	 edi, DWORD PTR ?m_TerrainNumVector@FSortPatchDrawStructWithTerrainNum@CMapOutdoor@@2V?$vector@EV?$allocator@E@std@@@std@@A+4
  00123	47		 inc	 edi
  00124	89 3d 04 00 00
	00		 mov	 DWORD PTR ?m_TerrainNumVector@FSortPatchDrawStructWithTerrainNum@CMapOutdoor@@2V?$vector@EV?$allocator@E@std@@@std@@A+4, edi

; 744  :             return _Emplace_back_with_unused_capacity(_STD forward<_Valty>(_Val)...);

  0012a	eb 14		 jmp	 SHORT $LN163@Inplace_me
$LN164@Inplace_me:

; 745  :         }
; 746  : 
; 747  :         _Ty& _Result = *_Emplace_reallocate(_Mylast, _STD forward<_Valty>(_Val)...);

  0012c	ff 75 f4	 push	 DWORD PTR tv1132[ebp]
  0012f	b9 00 00 00 00	 mov	 ecx, OFFSET ?m_TerrainNumVector@FSortPatchDrawStructWithTerrainNum@CMapOutdoor@@2V?$vector@EV?$allocator@E@std@@@std@@A ; CMapOutdoor::FSortPatchDrawStructWithTerrainNum::m_TerrainNumVector
  00134	56		 push	 esi
  00135	e8 00 00 00 00	 call	 ??$_Emplace_reallocate@ABE@?$vector@EV?$allocator@E@std@@@std@@QAEPAEQAEABE@Z ; std::vector<unsigned char,std::allocator<unsigned char> >::_Emplace_reallocate<unsigned char const &>
  0013a	8b 3d 04 00 00
	00		 mov	 edi, DWORD PTR ?m_TerrainNumVector@FSortPatchDrawStructWithTerrainNum@CMapOutdoor@@2V?$vector@EV?$allocator@E@std@@@std@@A+4
$LN163@Inplace_me:
; File C:\Users\murat\Desktop\Siveps2-1-99-Project\source\client\Client\GameLib\MapOutdoor.h

; 393  : 						lhsTerrainNumOrder = m_TerrainNumVector.size() -1;

  00140	2b 3d 00 00 00
	00		 sub	 edi, DWORD PTR ?m_TerrainNumVector@FSortPatchDrawStructWithTerrainNum@CMapOutdoor@@2V?$vector@EV?$allocator@E@std@@@std@@A
  00146	4f		 dec	 edi
$LN33@Inplace_me:

; 394  : 					}
; 395  : 				}
; 396  : 
; 397  : 				return lhsTerrainNumOrder < rhsTerrainNumOrder;

  00147	8b 45 08	 mov	 eax, DWORD PTR __First$[ebp]
  0014a	8d 50 10	 lea	 edx, DWORD PTR [eax+16]
  0014d	3b fb		 cmp	 edi, ebx
; File C:\Program Files (x86)\Microsoft Visual Studio\2019\Professional\VC\Tools\MSVC\14.29.30133\include\algorithm

; 6669 :         if (_Pred(*_Mid, *_Left_first)) { // take element from the right partition

  0014f	73 2a		 jae	 SHORT $LN5@Inplace_me

; 6670 :             *_First = _STD move(*_Mid);

  00151	8b 5d 0c	 mov	 ebx, DWORD PTR __Mid$[ebp]
  00154	0f 10 03	 movups	 xmm0, XMMWORD PTR [ebx]

; 6671 :             ++_First;
; 6672 :             ++_Mid;

  00157	83 c3 10	 add	 ebx, 16			; 00000010H
  0015a	89 5d 0c	 mov	 DWORD PTR __Mid$[ebp], ebx
  0015d	0f 11 00	 movups	 XMMWORD PTR [eax], xmm0

; 6673 :             if (_Mid == _Last) {

  00160	3b 5d 10	 cmp	 ebx, DWORD PTR __Last$[ebp]
  00163	75 32		 jne	 SHORT $LN8@Inplace_me
; File C:\Program Files (x86)\Microsoft Visual Studio\2019\Professional\VC\Tools\MSVC\14.29.30133\include\xutility

; 4425 :             return _Copy_memmove(_First, _Last, _Dest);

  00165	52		 push	 edx
  00166	ff 75 f0	 push	 DWORD PTR __Backout$$sroa$762$1$[ebp]
  00169	ff 75 14	 push	 DWORD PTR __Temp_ptr$[ebp]
  0016c	e8 00 00 00 00	 call	 ??$_Copy_memmove@PAUTPatchDrawStruct@CMapOutdoor@@PAU12@@std@@YAPAUTPatchDrawStruct@CMapOutdoor@@PAU12@00@Z ; std::_Copy_memmove<CMapOutdoor::TPatchDrawStruct *,CMapOutdoor::TPatchDrawStruct *>
; File C:\Program Files (x86)\Microsoft Visual Studio\2019\Professional\VC\Tools\MSVC\14.29.30133\include\algorithm

; 6688 : }

  00171	83 c4 0c	 add	 esp, 12			; 0000000cH
  00174	5f		 pop	 edi
  00175	5e		 pop	 esi
  00176	5b		 pop	 ebx
  00177	8b e5		 mov	 esp, ebp
  00179	5d		 pop	 ebp
  0017a	c3		 ret	 0
$LN5@Inplace_me:

; 6674 :                 _Move_unchecked(_Left_first, _Backout._Last, _First); // move any tail (and the highest element)
; 6675 :                 return;
; 6676 :             }
; 6677 :         } else { // take element from the left partition
; 6678 :             *_First = _STD move(*_Left_first);

  0017b	8b 4d 14	 mov	 ecx, DWORD PTR __Temp_ptr$[ebp]

; 6679 :             ++_First;
; 6680 :             ++_Left_first;
; 6681 :             if (_Left_first == _Left_last) {

  0017e	8b 5d f0	 mov	 ebx, DWORD PTR __Backout$$sroa$762$1$[ebp]
  00181	83 c3 f0	 add	 ebx, -16		; fffffff0H
  00184	0f 10 01	 movups	 xmm0, XMMWORD PTR [ecx]
  00187	83 c1 10	 add	 ecx, 16			; 00000010H
  0018a	89 4d 14	 mov	 DWORD PTR __Temp_ptr$[ebp], ecx
  0018d	0f 11 00	 movups	 XMMWORD PTR [eax], xmm0
  00190	3b cb		 cmp	 ecx, ebx
  00192	74 0b		 je	 SHORT $LN183@Inplace_me
  00194	8b 5d 0c	 mov	 ebx, DWORD PTR __Mid$[ebp]
$LN8@Inplace_me:

; 6684 :                 return;
; 6685 :             }
; 6686 :         }
; 6687 :     }

  00197	89 55 08	 mov	 DWORD PTR __First$[ebp], edx
  0019a	e9 92 fe ff ff	 jmp	 $LL2@Inplace_me
$LN183@Inplace_me:
; File C:\Program Files (x86)\Microsoft Visual Studio\2019\Professional\VC\Tools\MSVC\14.29.30133\include\xutility

; 4425 :             return _Copy_memmove(_First, _Last, _Dest);

  0019f	52		 push	 edx
  001a0	ff 75 10	 push	 DWORD PTR __Last$[ebp]
  001a3	ff 75 0c	 push	 DWORD PTR __Mid$[ebp]
  001a6	e8 00 00 00 00	 call	 ??$_Copy_memmove@PAUTPatchDrawStruct@CMapOutdoor@@PAU12@@std@@YAPAUTPatchDrawStruct@CMapOutdoor@@PAU12@00@Z ; std::_Copy_memmove<CMapOutdoor::TPatchDrawStruct *,CMapOutdoor::TPatchDrawStruct *>
; File C:\Program Files (x86)\Microsoft Visual Studio\2019\Professional\VC\Tools\MSVC\14.29.30133\include\algorithm

; 6683 :                 *_Move_unchecked(_Mid, _Last, _First) = _STD move(*_Left_last);

  001ab	0f 10 03	 movups	 xmm0, XMMWORD PTR [ebx]

; 6688 : }

  001ae	83 c4 0c	 add	 esp, 12			; 0000000cH
  001b1	0f 11 00	 movups	 XMMWORD PTR [eax], xmm0
  001b4	5f		 pop	 edi
  001b5	5e		 pop	 esi
  001b6	5b		 pop	 ebx
  001b7	8b e5		 mov	 esp, ebp
  001b9	5d		 pop	 ebp
  001ba	c3		 ret	 0
??$_Inplace_merge_buffer_left@PAUTPatchDrawStruct@CMapOutdoor@@UFSortPatchDrawStructWithTerrainNum@2@@std@@YAXPAUTPatchDrawStruct@CMapOutdoor@@00QAU12@UFSortPatchDrawStructWithTerrainNum@2@@Z ENDP ; std::_Inplace_merge_buffer_left<CMapOutdoor::TPatchDrawStruct *,CMapOutdoor::FSortPatchDrawStructWithTerrainNum>
_TEXT	ENDS
; Function compile flags: /Ogtp
; File C:\Program Files (x86)\Microsoft Visual Studio\2019\Professional\VC\Tools\MSVC\14.29.30133\include\algorithm
; File C:\Program Files (x86)\Microsoft Visual Studio\2019\Professional\VC\Tools\MSVC\14.29.30133\include\xutility
; File C:\Program Files (x86)\Windows Kits\10\Include\10.0.19041.0\ucrt\corecrt_memory.h
; File C:\Program Files (x86)\Microsoft Visual Studio\2019\Professional\VC\Tools\MSVC\14.29.30133\include\xutility
; File C:\Users\murat\Desktop\Siveps2-1-99-Project\source\client\Client\GameLib\MapOutdoor.h
; File C:\Program Files (x86)\Windows Kits\10\Include\10.0.19041.0\ucrt\corecrt_memory.h
; File C:\Program Files (x86)\Microsoft Visual Studio\2019\Professional\VC\Tools\MSVC\14.29.30133\include\xutility
; File C:\Program Files (x86)\Windows Kits\10\Include\10.0.19041.0\ucrt\corecrt_memory.h
; File C:\Program Files (x86)\Microsoft Visual Studio\2019\Professional\VC\Tools\MSVC\14.29.30133\include\xutility
; File C:\Program Files (x86)\Windows Kits\10\Include\10.0.19041.0\ucrt\corecrt_memory.h
; File C:\Program Files (x86)\Microsoft Visual Studio\2019\Professional\VC\Tools\MSVC\14.29.30133\include\xutility
; File C:\Program Files (x86)\Windows Kits\10\Include\10.0.19041.0\ucrt\corecrt_memory.h
; File C:\Program Files (x86)\Microsoft Visual Studio\2019\Professional\VC\Tools\MSVC\14.29.30133\include\xutility
; File C:\Program Files (x86)\Windows Kits\10\Include\10.0.19041.0\ucrt\corecrt_memory.h
; File C:\Users\murat\Desktop\Siveps2-1-99-Project\source\client\Client\GameLib\MapOutdoor.h
; File C:\Program Files (x86)\Microsoft Visual Studio\2019\Professional\VC\Tools\MSVC\14.29.30133\include\xutility
; File C:\Users\murat\Desktop\Siveps2-1-99-Project\source\client\Client\GameLib\MapOutdoor.h
; File C:\Program Files (x86)\Microsoft Visual Studio\2019\Professional\VC\Tools\MSVC\14.29.30133\include\vector
; File C:\Users\murat\Desktop\Siveps2-1-99-Project\source\client\Client\GameLib\MapOutdoor.h
; File C:\Program Files (x86)\Microsoft Visual Studio\2019\Professional\VC\Tools\MSVC\14.29.30133\include\vector
; File C:\Users\murat\Desktop\Siveps2-1-99-Project\source\client\Client\GameLib\MapOutdoor.h
; File C:\Program Files (x86)\Microsoft Visual Studio\2019\Professional\VC\Tools\MSVC\14.29.30133\include\vector
; File C:\Users\murat\Desktop\Siveps2-1-99-Project\source\client\Client\GameLib\MapOutdoor.h
; File C:\Program Files (x86)\Microsoft Visual Studio\2019\Professional\VC\Tools\MSVC\14.29.30133\include\xutility
; File C:\Program Files (x86)\Windows Kits\10\Include\10.0.19041.0\ucrt\corecrt_memory.h
; File C:\Program Files (x86)\Microsoft Visual Studio\2019\Professional\VC\Tools\MSVC\14.29.30133\include\xutility
; File C:\Program Files (x86)\Windows Kits\10\Include\10.0.19041.0\ucrt\corecrt_memory.h
; File C:\Program Files (x86)\Microsoft Visual Studio\2019\Professional\VC\Tools\MSVC\14.29.30133\include\xutility
; File C:\Users\murat\Desktop\Siveps2-1-99-Project\source\client\Client\GameLib\MapOutdoor.h
; File C:\Program Files (x86)\Microsoft Visual Studio\2019\Professional\VC\Tools\MSVC\14.29.30133\include\vector
; File C:\Users\murat\Desktop\Siveps2-1-99-Project\source\client\Client\GameLib\MapOutdoor.h
; File C:\Program Files (x86)\Microsoft Visual Studio\2019\Professional\VC\Tools\MSVC\14.29.30133\include\vector
; File C:\Users\murat\Desktop\Siveps2-1-99-Project\source\client\Client\GameLib\MapOutdoor.h
; File C:\Program Files (x86)\Microsoft Visual Studio\2019\Professional\VC\Tools\MSVC\14.29.30133\include\algorithm
; File C:\Program Files (x86)\Microsoft Visual Studio\2019\Professional\VC\Tools\MSVC\14.29.30133\include\xutility
; File C:\Program Files (x86)\Microsoft Visual Studio\2019\Professional\VC\Tools\MSVC\14.29.30133\include\algorithm
; File C:\Program Files (x86)\Microsoft Visual Studio\2019\Professional\VC\Tools\MSVC\14.29.30133\include\xutility
; File C:\Program Files (x86)\Microsoft Visual Studio\2019\Professional\VC\Tools\MSVC\14.29.30133\include\algorithm
;	COMDAT ??$_Merge_move@PAUTPatchDrawStruct@CMapOutdoor@@PAU12@UFSortPatchDrawStructWithTerrainNum@2@@std@@YAPAUTPatchDrawStruct@CMapOutdoor@@PAU12@QAU12@10UFSortPatchDrawStructWithTerrainNum@2@@Z
_TEXT	SEGMENT
tv1060 = -20						; size = 4
tv1064 = -16						; size = 4
tv1074 = -12						; size = 4
__Next$1$ = -8						; size = 4
tv1063 = -1						; size = 1
tv1059 = -1						; size = 1
__First$ = 8						; size = 4
__Mid$ = 12						; size = 4
__Last$ = 16						; size = 4
__Dest$ = 20						; size = 4
__Pred$ = 24						; size = 1
??$_Merge_move@PAUTPatchDrawStruct@CMapOutdoor@@PAU12@UFSortPatchDrawStructWithTerrainNum@2@@std@@YAPAUTPatchDrawStruct@CMapOutdoor@@PAU12@QAU12@10UFSortPatchDrawStructWithTerrainNum@2@@Z PROC ; std::_Merge_move<CMapOutdoor::TPatchDrawStruct *,CMapOutdoor::TPatchDrawStruct *,CMapOutdoor::FSortPatchDrawStructWithTerrainNum>, COMDAT

; 7671 : _OutIt _Merge_move(_InIt _First, const _InIt _Mid, const _InIt _Last, _OutIt _Dest, _Pr _Pred) {

  00000	55		 push	 ebp
  00001	8b ec		 mov	 ebp, esp
  00003	83 ec 14	 sub	 esp, 20			; 00000014H

; 7672 :     // move merging adjacent ranges [_First, _Mid) and [_Mid, _Last) to _Dest
; 7673 :     // pre: _First != _Mid && _Mid != _Last
; 7674 :     _InIt _Next = _Mid;

  00006	8b 45 0c	 mov	 eax, DWORD PTR __Mid$[ebp]
  00009	53		 push	 ebx
  0000a	56		 push	 esi
  0000b	89 45 f8	 mov	 DWORD PTR __Next$1$[ebp], eax
  0000e	57		 push	 edi
  0000f	90		 npad	 1
$LL2@Merge_move:
; File C:\Program Files (x86)\Microsoft Visual Studio\2019\Professional\VC\Tools\MSVC\14.29.30133\include\xutility

; 5348 :     _Seek_wrapped(_First, _Find_unchecked(_Get_unwrapped(_First), _Get_unwrapped(_Last), _Val));

  00010	8b 35 04 00 00
	00		 mov	 esi, DWORD PTR ?m_TerrainNumVector@FSortPatchDrawStructWithTerrainNum@CMapOutdoor@@2V?$vector@EV?$allocator@E@std@@@std@@A+4

; 5329 :     const auto _Result    = static_cast<remove_reference_t<_Iter_ref_t<_InIt>>*>(

  00016	8d 48 04	 lea	 ecx, DWORD PTR [eax+4]
  00019	8b 1d 00 00 00
	00		 mov	 ebx, DWORD PTR ?m_TerrainNumVector@FSortPatchDrawStructWithTerrainNum@CMapOutdoor@@2V?$vector@EV?$allocator@E@std@@@std@@A
  0001f	8b c6		 mov	 eax, esi
  00021	2b c3		 sub	 eax, ebx

; 5348 :     _Seek_wrapped(_First, _Find_unchecked(_Get_unwrapped(_First), _Get_unwrapped(_Last), _Val));

  00023	89 75 f4	 mov	 DWORD PTR tv1074[ebp], esi
; File C:\Program Files (x86)\Windows Kits\10\Include\10.0.19041.0\ucrt\corecrt_memory.h

; 111  :         return const_cast<void*>(memchr(_Pvc, _C, _N));

  00026	50		 push	 eax
; File C:\Program Files (x86)\Microsoft Visual Studio\2019\Professional\VC\Tools\MSVC\14.29.30133\include\xutility

; 5329 :     const auto _Result    = static_cast<remove_reference_t<_Iter_ref_t<_InIt>>*>(

  00027	0f b6 01	 movzx	 eax, BYTE PTR [ecx]
; File C:\Users\murat\Desktop\Siveps2-1-99-Project\source\client\Client\GameLib\MapOutdoor.h

; 360  : 				DWORD lhsTerrainNumOrder = 0, rhsTerrainNumOrder = 0;

  0002a	33 ff		 xor	 edi, edi
; File C:\Program Files (x86)\Windows Kits\10\Include\10.0.19041.0\ucrt\corecrt_memory.h

; 111  :         return const_cast<void*>(memchr(_Pvc, _C, _N));

  0002c	50		 push	 eax
  0002d	53		 push	 ebx
; File C:\Program Files (x86)\Microsoft Visual Studio\2019\Professional\VC\Tools\MSVC\14.29.30133\include\xutility

; 5329 :     const auto _Result    = static_cast<remove_reference_t<_Iter_ref_t<_InIt>>*>(

  0002e	89 4d f0	 mov	 DWORD PTR tv1064[ebp], ecx
; File C:\Program Files (x86)\Windows Kits\10\Include\10.0.19041.0\ucrt\corecrt_memory.h

; 111  :         return const_cast<void*>(memchr(_Pvc, _C, _N));

  00031	e8 00 00 00 00	 call	 _memchr
; File C:\Program Files (x86)\Microsoft Visual Studio\2019\Professional\VC\Tools\MSVC\14.29.30133\include\xutility

; 5332 :         return _Result ? _Result : _Last;

  00036	85 c0		 test	 eax, eax
  00038	0f 45 f0	 cmovne	 esi, eax

; 5329 :     const auto _Result    = static_cast<remove_reference_t<_Iter_ref_t<_InIt>>*>(

  0003b	8b 45 08	 mov	 eax, DWORD PTR __First$[ebp]
  0003e	83 c0 04	 add	 eax, 4
  00041	89 45 ec	 mov	 DWORD PTR tv1060[ebp], eax
  00044	8a 08		 mov	 cl, BYTE PTR [eax]
  00046	8b 45 f4	 mov	 eax, DWORD PTR tv1074[ebp]
  00049	2b c3		 sub	 eax, ebx
  0004b	88 4d ff	 mov	 BYTE PTR tv1059[ebp], cl
; File C:\Program Files (x86)\Windows Kits\10\Include\10.0.19041.0\ucrt\corecrt_memory.h

; 111  :         return const_cast<void*>(memchr(_Pvc, _C, _N));

  0004e	50		 push	 eax
; File C:\Program Files (x86)\Microsoft Visual Studio\2019\Professional\VC\Tools\MSVC\14.29.30133\include\xutility

; 5329 :     const auto _Result    = static_cast<remove_reference_t<_Iter_ref_t<_InIt>>*>(

  0004f	0f b6 c1	 movzx	 eax, cl
; File C:\Program Files (x86)\Windows Kits\10\Include\10.0.19041.0\ucrt\corecrt_memory.h

; 111  :         return const_cast<void*>(memchr(_Pvc, _C, _N));

  00052	50		 push	 eax
  00053	53		 push	 ebx
  00054	e8 00 00 00 00	 call	 _memchr
; File C:\Program Files (x86)\Microsoft Visual Studio\2019\Professional\VC\Tools\MSVC\14.29.30133\include\xutility

; 5332 :         return _Result ? _Result : _Last;

  00059	8b 55 f4	 mov	 edx, DWORD PTR tv1074[ebp]
; File C:\Program Files (x86)\Windows Kits\10\Include\10.0.19041.0\ucrt\corecrt_memory.h

; 111  :         return const_cast<void*>(memchr(_Pvc, _C, _N));

  0005c	83 c4 18	 add	 esp, 24			; 00000018H
; File C:\Users\murat\Desktop\Siveps2-1-99-Project\source\client\Client\GameLib\MapOutdoor.h

; 367  : 				if (lhsIterator != m_TerrainNumVector.end())

  0005f	8b 0d 00 00 00
	00		 mov	 ecx, DWORD PTR ?m_TerrainNumVector@FSortPatchDrawStructWithTerrainNum@CMapOutdoor@@2V?$vector@EV?$allocator@E@std@@@std@@A
; File C:\Program Files (x86)\Microsoft Visual Studio\2019\Professional\VC\Tools\MSVC\14.29.30133\include\xutility

; 5332 :         return _Result ? _Result : _Last;

  00065	85 c0		 test	 eax, eax
  00067	8b da		 mov	 ebx, edx
  00069	0f 45 d8	 cmovne	 ebx, eax

; 5349 :     return _First;

  0006c	3b f2		 cmp	 esi, edx
; File C:\Users\murat\Desktop\Siveps2-1-99-Project\source\client\Client\GameLib\MapOutdoor.h

; 367  : 				if (lhsIterator != m_TerrainNumVector.end())

  0006e	74 04		 je	 SHORT $LN11@Merge_move

; 368  : 				{
; 369  : 					blhsOrderFound = true;

  00070	8b fe		 mov	 edi, esi
  00072	2b f9		 sub	 edi, ecx
$LN11@Merge_move:
; File C:\Program Files (x86)\Microsoft Visual Studio\2019\Professional\VC\Tools\MSVC\14.29.30133\include\vector

; 154  :         return _Ptr == _Right._Ptr;

  00074	3b da		 cmp	 ebx, edx
; File C:\Users\murat\Desktop\Siveps2-1-99-Project\source\client\Client\GameLib\MapOutdoor.h

; 372  : 				if (rhsIterator != m_TerrainNumVector.end())

  00076	74 09		 je	 SHORT $LN169@Merge_move

; 377  : 				if (!brhsOrderFound)

  00078	a1 04 00 00 00	 mov	 eax, DWORD PTR ?m_TerrainNumVector@FSortPatchDrawStructWithTerrainNum@CMapOutdoor@@2V?$vector@EV?$allocator@E@std@@@std@@A+4
; File C:\Program Files (x86)\Microsoft Visual Studio\2019\Professional\VC\Tools\MSVC\14.29.30133\include\vector

; 145  :         return _Ptr - _Right._Ptr;

  0007d	2b d9		 sub	 ebx, ecx
; File C:\Users\murat\Desktop\Siveps2-1-99-Project\source\client\Client\GameLib\MapOutdoor.h

; 377  : 				if (!brhsOrderFound)

  0007f	eb 3b		 jmp	 SHORT $LN13@Merge_move
$LN169@Merge_move:
; File C:\Program Files (x86)\Microsoft Visual Studio\2019\Professional\VC\Tools\MSVC\14.29.30133\include\vector

; 743  :         if (_Mylast != _My_data._Myend) {

  00081	3b 15 08 00 00
	00		 cmp	 edx, DWORD PTR ?m_TerrainNumVector@FSortPatchDrawStructWithTerrainNum@CMapOutdoor@@2V?$vector@EV?$allocator@E@std@@@std@@A+8
  00087	74 12		 je	 SHORT $LN99@Merge_move

; 726  :         _Alty_traits::construct(_Getal(), _Unfancy(_Mylast), _STD forward<_Valty>(_Val)...);

  00089	8a 45 ff	 mov	 al, BYTE PTR tv1059[ebp]
  0008c	88 02		 mov	 BYTE PTR [edx], al

; 727  :         _Orphan_range(_Mylast, _Mylast);
; 728  :         _Ty& _Result = *_Mylast;
; 729  :         ++_Mylast;

  0008e	a1 04 00 00 00	 mov	 eax, DWORD PTR ?m_TerrainNumVector@FSortPatchDrawStructWithTerrainNum@CMapOutdoor@@2V?$vector@EV?$allocator@E@std@@@std@@A+4
  00093	40		 inc	 eax
  00094	a3 04 00 00 00	 mov	 DWORD PTR ?m_TerrainNumVector@FSortPatchDrawStructWithTerrainNum@CMapOutdoor@@2V?$vector@EV?$allocator@E@std@@@std@@A+4, eax

; 744  :             return _Emplace_back_with_unused_capacity(_STD forward<_Valty>(_Val)...);

  00099	eb 16		 jmp	 SHORT $LN98@Merge_move
$LN99@Merge_move:

; 745  :         }
; 746  : 
; 747  :         _Ty& _Result = *_Emplace_reallocate(_Mylast, _STD forward<_Valty>(_Val)...);

  0009b	ff 75 ec	 push	 DWORD PTR tv1060[ebp]
  0009e	b9 00 00 00 00	 mov	 ecx, OFFSET ?m_TerrainNumVector@FSortPatchDrawStructWithTerrainNum@CMapOutdoor@@2V?$vector@EV?$allocator@E@std@@@std@@A ; CMapOutdoor::FSortPatchDrawStructWithTerrainNum::m_TerrainNumVector
  000a3	52		 push	 edx
  000a4	e8 00 00 00 00	 call	 ??$_Emplace_reallocate@ABE@?$vector@EV?$allocator@E@std@@@std@@QAEPAEQAEABE@Z ; std::vector<unsigned char,std::allocator<unsigned char> >::_Emplace_reallocate<unsigned char const &>
  000a9	a1 04 00 00 00	 mov	 eax, DWORD PTR ?m_TerrainNumVector@FSortPatchDrawStructWithTerrainNum@CMapOutdoor@@2V?$vector@EV?$allocator@E@std@@@std@@A+4
  000ae	8b 55 f4	 mov	 edx, DWORD PTR tv1074[ebp]
$LN98@Merge_move:
; File C:\Users\murat\Desktop\Siveps2-1-99-Project\source\client\Client\GameLib\MapOutdoor.h

; 380  : 					rhsTerrainNumOrder = m_TerrainNumVector.size() -1;

  000b1	8b 0d 00 00 00
	00		 mov	 ecx, DWORD PTR ?m_TerrainNumVector@FSortPatchDrawStructWithTerrainNum@CMapOutdoor@@2V?$vector@EV?$allocator@E@std@@@std@@A
  000b7	8b d8		 mov	 ebx, eax
  000b9	2b d9		 sub	 ebx, ecx
  000bb	4b		 dec	 ebx
$LN13@Merge_move:

; 381  : 				}
; 382  : 				if (!blhsOrderFound)

  000bc	3b f2		 cmp	 esi, edx
  000be	75 66		 jne	 SHORT $LN16@Merge_move
; File C:\Program Files (x86)\Microsoft Visual Studio\2019\Professional\VC\Tools\MSVC\14.29.30133\include\xutility

; 5348 :     _Seek_wrapped(_First, _Find_unchecked(_Get_unwrapped(_First), _Get_unwrapped(_Last), _Val));

  000c0	8b f8		 mov	 edi, eax

; 5329 :     const auto _Result    = static_cast<remove_reference_t<_Iter_ref_t<_InIt>>*>(

  000c2	8b 45 f0	 mov	 eax, DWORD PTR tv1064[ebp]

; 5348 :     _Seek_wrapped(_First, _Find_unchecked(_Get_unwrapped(_First), _Get_unwrapped(_Last), _Val));

  000c5	8b f7		 mov	 esi, edi

; 5329 :     const auto _Result    = static_cast<remove_reference_t<_Iter_ref_t<_InIt>>*>(

  000c7	8a 10		 mov	 dl, BYTE PTR [eax]
  000c9	8b c7		 mov	 eax, edi
  000cb	2b c1		 sub	 eax, ecx
  000cd	88 55 ff	 mov	 BYTE PTR tv1063[ebp], dl
; File C:\Program Files (x86)\Windows Kits\10\Include\10.0.19041.0\ucrt\corecrt_memory.h

; 111  :         return const_cast<void*>(memchr(_Pvc, _C, _N));

  000d0	50		 push	 eax
; File C:\Program Files (x86)\Microsoft Visual Studio\2019\Professional\VC\Tools\MSVC\14.29.30133\include\xutility

; 5329 :     const auto _Result    = static_cast<remove_reference_t<_Iter_ref_t<_InIt>>*>(

  000d1	0f b6 c2	 movzx	 eax, dl
; File C:\Program Files (x86)\Windows Kits\10\Include\10.0.19041.0\ucrt\corecrt_memory.h

; 111  :         return const_cast<void*>(memchr(_Pvc, _C, _N));

  000d4	50		 push	 eax
  000d5	51		 push	 ecx
  000d6	e8 00 00 00 00	 call	 _memchr
  000db	83 c4 0c	 add	 esp, 12			; 0000000cH
; File C:\Program Files (x86)\Microsoft Visual Studio\2019\Professional\VC\Tools\MSVC\14.29.30133\include\xutility

; 5332 :         return _Result ? _Result : _Last;

  000de	85 c0		 test	 eax, eax
  000e0	0f 45 f8	 cmovne	 edi, eax
; File C:\Users\murat\Desktop\Siveps2-1-99-Project\source\client\Client\GameLib\MapOutdoor.h

; 384  : 					lhsIterator = std::find(m_TerrainNumVector.begin(), m_TerrainNumVector.end(), lhs.byTerrainNum);

  000e3	3b fe		 cmp	 edi, esi

; 385  : 					if (lhsIterator != m_TerrainNumVector.end())

  000e5	74 08		 je	 SHORT $LN170@Merge_move
; File C:\Program Files (x86)\Microsoft Visual Studio\2019\Professional\VC\Tools\MSVC\14.29.30133\include\vector

; 145  :         return _Ptr - _Right._Ptr;

  000e7	2b 3d 00 00 00
	00		 sub	 edi, DWORD PTR ?m_TerrainNumVector@FSortPatchDrawStructWithTerrainNum@CMapOutdoor@@2V?$vector@EV?$allocator@E@std@@@std@@A
; File C:\Users\murat\Desktop\Siveps2-1-99-Project\source\client\Client\GameLib\MapOutdoor.h

; 390  : 					if (!blhsOrderFound)

  000ed	eb 37		 jmp	 SHORT $LN16@Merge_move
$LN170@Merge_move:
; File C:\Program Files (x86)\Microsoft Visual Studio\2019\Professional\VC\Tools\MSVC\14.29.30133\include\vector

; 743  :         if (_Mylast != _My_data._Myend) {

  000ef	3b 35 08 00 00
	00		 cmp	 esi, DWORD PTR ?m_TerrainNumVector@FSortPatchDrawStructWithTerrainNum@CMapOutdoor@@2V?$vector@EV?$allocator@E@std@@@std@@A+8
  000f5	74 14		 je	 SHORT $LN147@Merge_move

; 726  :         _Alty_traits::construct(_Getal(), _Unfancy(_Mylast), _STD forward<_Valty>(_Val)...);

  000f7	8a 45 ff	 mov	 al, BYTE PTR tv1063[ebp]
  000fa	88 06		 mov	 BYTE PTR [esi], al

; 727  :         _Orphan_range(_Mylast, _Mylast);
; 728  :         _Ty& _Result = *_Mylast;
; 729  :         ++_Mylast;

  000fc	8b 3d 04 00 00
	00		 mov	 edi, DWORD PTR ?m_TerrainNumVector@FSortPatchDrawStructWithTerrainNum@CMapOutdoor@@2V?$vector@EV?$allocator@E@std@@@std@@A+4
  00102	47		 inc	 edi
  00103	89 3d 04 00 00
	00		 mov	 DWORD PTR ?m_TerrainNumVector@FSortPatchDrawStructWithTerrainNum@CMapOutdoor@@2V?$vector@EV?$allocator@E@std@@@std@@A+4, edi

; 744  :             return _Emplace_back_with_unused_capacity(_STD forward<_Valty>(_Val)...);

  00109	eb 14		 jmp	 SHORT $LN146@Merge_move
$LN147@Merge_move:

; 745  :         }
; 746  : 
; 747  :         _Ty& _Result = *_Emplace_reallocate(_Mylast, _STD forward<_Valty>(_Val)...);

  0010b	ff 75 f0	 push	 DWORD PTR tv1064[ebp]
  0010e	b9 00 00 00 00	 mov	 ecx, OFFSET ?m_TerrainNumVector@FSortPatchDrawStructWithTerrainNum@CMapOutdoor@@2V?$vector@EV?$allocator@E@std@@@std@@A ; CMapOutdoor::FSortPatchDrawStructWithTerrainNum::m_TerrainNumVector
  00113	56		 push	 esi
  00114	e8 00 00 00 00	 call	 ??$_Emplace_reallocate@ABE@?$vector@EV?$allocator@E@std@@@std@@QAEPAEQAEABE@Z ; std::vector<unsigned char,std::allocator<unsigned char> >::_Emplace_reallocate<unsigned char const &>
  00119	8b 3d 04 00 00
	00		 mov	 edi, DWORD PTR ?m_TerrainNumVector@FSortPatchDrawStructWithTerrainNum@CMapOutdoor@@2V?$vector@EV?$allocator@E@std@@@std@@A+4
$LN146@Merge_move:
; File C:\Users\murat\Desktop\Siveps2-1-99-Project\source\client\Client\GameLib\MapOutdoor.h

; 393  : 						lhsTerrainNumOrder = m_TerrainNumVector.size() -1;

  0011f	2b 3d 00 00 00
	00		 sub	 edi, DWORD PTR ?m_TerrainNumVector@FSortPatchDrawStructWithTerrainNum@CMapOutdoor@@2V?$vector@EV?$allocator@E@std@@@std@@A
  00125	4f		 dec	 edi
$LN16@Merge_move:

; 394  : 					}
; 395  : 				}
; 396  : 
; 397  : 				return lhsTerrainNumOrder < rhsTerrainNumOrder;

  00126	8b 4d 14	 mov	 ecx, DWORD PTR __Dest$[ebp]
  00129	8d 51 10	 lea	 edx, DWORD PTR [ecx+16]
  0012c	3b fb		 cmp	 edi, ebx
; File C:\Program Files (x86)\Microsoft Visual Studio\2019\Professional\VC\Tools\MSVC\14.29.30133\include\algorithm

; 7676 :         if (_DEBUG_LT_PRED(_Pred, *_Next, *_First)) {

  0012e	73 2a		 jae	 SHORT $LN5@Merge_move

; 7677 :             *_Dest = _STD move(*_Next);

  00130	8b 45 f8	 mov	 eax, DWORD PTR __Next$1$[ebp]
  00133	0f 10 00	 movups	 xmm0, XMMWORD PTR [eax]

; 7678 :             ++_Dest;
; 7679 :             ++_Next;

  00136	83 c0 10	 add	 eax, 16			; 00000010H
  00139	89 45 f8	 mov	 DWORD PTR __Next$1$[ebp], eax
  0013c	0f 11 01	 movups	 XMMWORD PTR [ecx], xmm0

; 7680 : 
; 7681 :             if (_Next == _Last) {

  0013f	3b 45 10	 cmp	 eax, DWORD PTR __Last$[ebp]
  00142	75 2d		 jne	 SHORT $LN8@Merge_move
; File C:\Program Files (x86)\Microsoft Visual Studio\2019\Professional\VC\Tools\MSVC\14.29.30133\include\xutility

; 4425 :             return _Copy_memmove(_First, _Last, _Dest);

  00144	52		 push	 edx
  00145	ff 75 0c	 push	 DWORD PTR __Mid$[ebp]
  00148	ff 75 08	 push	 DWORD PTR __First$[ebp]
; File C:\Program Files (x86)\Microsoft Visual Studio\2019\Professional\VC\Tools\MSVC\14.29.30133\include\algorithm

; 7694 : }

  0014b	e8 00 00 00 00	 call	 ??$_Copy_memmove@PAUTPatchDrawStruct@CMapOutdoor@@PAU12@@std@@YAPAUTPatchDrawStruct@CMapOutdoor@@PAU12@00@Z ; std::_Copy_memmove<CMapOutdoor::TPatchDrawStruct *,CMapOutdoor::TPatchDrawStruct *>
  00150	83 c4 0c	 add	 esp, 12			; 0000000cH
  00153	5f		 pop	 edi
  00154	5e		 pop	 esi
  00155	5b		 pop	 ebx
  00156	8b e5		 mov	 esp, ebp
  00158	5d		 pop	 ebp
  00159	c3		 ret	 0
$LN5@Merge_move:

; 7682 :                 return _Move_unchecked(_First, _Mid, _Dest);
; 7683 :             }
; 7684 :         } else {
; 7685 :             *_Dest = _STD move(*_First);

  0015a	8b 45 08	 mov	 eax, DWORD PTR __First$[ebp]
  0015d	0f 10 00	 movups	 xmm0, XMMWORD PTR [eax]

; 7686 :             ++_Dest;
; 7687 :             ++_First;

  00160	83 c0 10	 add	 eax, 16			; 00000010H
  00163	89 45 08	 mov	 DWORD PTR __First$[ebp], eax
  00166	0f 11 01	 movups	 XMMWORD PTR [ecx], xmm0

; 7688 : 
; 7689 :             if (_First == _Mid) {

  00169	3b 45 0c	 cmp	 eax, DWORD PTR __Mid$[ebp]
  0016c	74 0b		 je	 SHORT $LN166@Merge_move
  0016e	8b 45 f8	 mov	 eax, DWORD PTR __Next$1$[ebp]
$LN8@Merge_move:

; 7690 :                 return _Move_unchecked(_Next, _Last, _Dest);
; 7691 :             }
; 7692 :         }
; 7693 :     }

  00171	89 55 14	 mov	 DWORD PTR __Dest$[ebp], edx
  00174	e9 97 fe ff ff	 jmp	 $LL2@Merge_move
$LN166@Merge_move:
; File C:\Program Files (x86)\Microsoft Visual Studio\2019\Professional\VC\Tools\MSVC\14.29.30133\include\xutility

; 4425 :             return _Copy_memmove(_First, _Last, _Dest);

  00179	52		 push	 edx
  0017a	ff 75 10	 push	 DWORD PTR __Last$[ebp]
  0017d	ff 75 f8	 push	 DWORD PTR __Next$1$[ebp]
; File C:\Program Files (x86)\Microsoft Visual Studio\2019\Professional\VC\Tools\MSVC\14.29.30133\include\algorithm

; 7694 : }

  00180	e8 00 00 00 00	 call	 ??$_Copy_memmove@PAUTPatchDrawStruct@CMapOutdoor@@PAU12@@std@@YAPAUTPatchDrawStruct@CMapOutdoor@@PAU12@00@Z ; std::_Copy_memmove<CMapOutdoor::TPatchDrawStruct *,CMapOutdoor::TPatchDrawStruct *>
  00185	83 c4 0c	 add	 esp, 12			; 0000000cH
  00188	5f		 pop	 edi
  00189	5e		 pop	 esi
  0018a	5b		 pop	 ebx
  0018b	8b e5		 mov	 esp, ebp
  0018d	5d		 pop	 ebp
  0018e	c3		 ret	 0
??$_Merge_move@PAUTPatchDrawStruct@CMapOutdoor@@PAU12@UFSortPatchDrawStructWithTerrainNum@2@@std@@YAPAUTPatchDrawStruct@CMapOutdoor@@PAU12@QAU12@10UFSortPatchDrawStructWithTerrainNum@2@@Z ENDP ; std::_Merge_move<CMapOutdoor::TPatchDrawStruct *,CMapOutdoor::TPatchDrawStruct *,CMapOutdoor::FSortPatchDrawStructWithTerrainNum>
_TEXT	ENDS
; Function compile flags: /Ogtp
; File C:\Program Files (x86)\Microsoft Visual Studio\2019\Professional\VC\Tools\MSVC\14.29.30133\include\algorithm
; File C:\Program Files (x86)\Microsoft Visual Studio\2019\Professional\VC\Tools\MSVC\14.29.30133\include\xutility
; File C:\Program Files (x86)\Windows Kits\10\Include\10.0.19041.0\ucrt\corecrt_memory.h
; File C:\Program Files (x86)\Microsoft Visual Studio\2019\Professional\VC\Tools\MSVC\14.29.30133\include\xutility
; File C:\Users\murat\Desktop\Siveps2-1-99-Project\source\client\Client\GameLib\MapOutdoor.h
; File C:\Program Files (x86)\Windows Kits\10\Include\10.0.19041.0\ucrt\corecrt_memory.h
; File C:\Program Files (x86)\Microsoft Visual Studio\2019\Professional\VC\Tools\MSVC\14.29.30133\include\xutility
; File C:\Program Files (x86)\Windows Kits\10\Include\10.0.19041.0\ucrt\corecrt_memory.h
; File C:\Program Files (x86)\Microsoft Visual Studio\2019\Professional\VC\Tools\MSVC\14.29.30133\include\xutility
; File C:\Program Files (x86)\Windows Kits\10\Include\10.0.19041.0\ucrt\corecrt_memory.h
; File C:\Program Files (x86)\Microsoft Visual Studio\2019\Professional\VC\Tools\MSVC\14.29.30133\include\xutility
; File C:\Program Files (x86)\Windows Kits\10\Include\10.0.19041.0\ucrt\corecrt_memory.h
; File C:\Program Files (x86)\Microsoft Visual Studio\2019\Professional\VC\Tools\MSVC\14.29.30133\include\xutility
; File C:\Program Files (x86)\Windows Kits\10\Include\10.0.19041.0\ucrt\corecrt_memory.h
; File C:\Users\murat\Desktop\Siveps2-1-99-Project\source\client\Client\GameLib\MapOutdoor.h
; File C:\Program Files (x86)\Microsoft Visual Studio\2019\Professional\VC\Tools\MSVC\14.29.30133\include\xutility
; File C:\Users\murat\Desktop\Siveps2-1-99-Project\source\client\Client\GameLib\MapOutdoor.h
; File C:\Program Files (x86)\Microsoft Visual Studio\2019\Professional\VC\Tools\MSVC\14.29.30133\include\vector
; File C:\Users\murat\Desktop\Siveps2-1-99-Project\source\client\Client\GameLib\MapOutdoor.h
; File C:\Program Files (x86)\Microsoft Visual Studio\2019\Professional\VC\Tools\MSVC\14.29.30133\include\vector
; File C:\Users\murat\Desktop\Siveps2-1-99-Project\source\client\Client\GameLib\MapOutdoor.h
; File C:\Program Files (x86)\Microsoft Visual Studio\2019\Professional\VC\Tools\MSVC\14.29.30133\include\vector
; File C:\Users\murat\Desktop\Siveps2-1-99-Project\source\client\Client\GameLib\MapOutdoor.h
; File C:\Program Files (x86)\Microsoft Visual Studio\2019\Professional\VC\Tools\MSVC\14.29.30133\include\xutility
; File C:\Program Files (x86)\Windows Kits\10\Include\10.0.19041.0\ucrt\corecrt_memory.h
; File C:\Program Files (x86)\Microsoft Visual Studio\2019\Professional\VC\Tools\MSVC\14.29.30133\include\xutility
; File C:\Program Files (x86)\Windows Kits\10\Include\10.0.19041.0\ucrt\corecrt_memory.h
; File C:\Program Files (x86)\Microsoft Visual Studio\2019\Professional\VC\Tools\MSVC\14.29.30133\include\xutility
; File C:\Users\murat\Desktop\Siveps2-1-99-Project\source\client\Client\GameLib\MapOutdoor.h
; File C:\Program Files (x86)\Microsoft Visual Studio\2019\Professional\VC\Tools\MSVC\14.29.30133\include\vector
; File C:\Users\murat\Desktop\Siveps2-1-99-Project\source\client\Client\GameLib\MapOutdoor.h
; File C:\Program Files (x86)\Microsoft Visual Studio\2019\Professional\VC\Tools\MSVC\14.29.30133\include\vector
; File C:\Users\murat\Desktop\Siveps2-1-99-Project\source\client\Client\GameLib\MapOutdoor.h
; File C:\Program Files (x86)\Microsoft Visual Studio\2019\Professional\VC\Tools\MSVC\14.29.30133\include\algorithm
; File C:\Program Files (x86)\Microsoft Visual Studio\2019\Professional\VC\Tools\MSVC\14.29.30133\include\xutility
; File C:\Program Files (x86)\Microsoft Visual Studio\2019\Professional\VC\Tools\MSVC\14.29.30133\include\algorithm
; File C:\Program Files (x86)\Microsoft Visual Studio\2019\Professional\VC\Tools\MSVC\14.29.30133\include\xutility
; File C:\Program Files (x86)\Microsoft Visual Studio\2019\Professional\VC\Tools\MSVC\14.29.30133\include\algorithm
; File C:\Program Files (x86)\Microsoft Visual Studio\2019\Professional\VC\Tools\MSVC\14.29.30133\include\xutility
; File C:\Program Files (x86)\Microsoft Visual Studio\2019\Professional\VC\Tools\MSVC\14.29.30133\include\algorithm
; File C:\Program Files (x86)\Microsoft Visual Studio\2019\Professional\VC\Tools\MSVC\14.29.30133\include\xutility
; File C:\Program Files (x86)\Microsoft Visual Studio\2019\Professional\VC\Tools\MSVC\14.29.30133\include\algorithm
; File C:\Program Files (x86)\Microsoft Visual Studio\2019\Professional\VC\Tools\MSVC\14.29.30133\include\xmemory
; File C:\Program Files (x86)\Microsoft Visual Studio\2019\Professional\VC\Tools\MSVC\14.29.30133\include\algorithm
;	COMDAT ??$_Uninitialized_merge_move@PAUTPatchDrawStruct@CMapOutdoor@@U12@UFSortPatchDrawStructWithTerrainNum@2@@std@@YAPAUTPatchDrawStruct@CMapOutdoor@@PAU12@QAU12@11UFSortPatchDrawStructWithTerrainNum@2@@Z
_TEXT	SEGMENT
tv1151 = -20						; size = 4
tv1155 = -16						; size = 4
tv1170 = -12						; size = 4
__Next$1$ = -8						; size = 4
tv1154 = -1						; size = 1
tv1150 = -1						; size = 1
__First$ = 8						; size = 4
__Mid$ = 12						; size = 4
__Last$ = 16						; size = 4
__Dest$ = 20						; size = 4
__Pred$ = 24						; size = 1
??$_Uninitialized_merge_move@PAUTPatchDrawStruct@CMapOutdoor@@U12@UFSortPatchDrawStructWithTerrainNum@2@@std@@YAPAUTPatchDrawStruct@CMapOutdoor@@PAU12@QAU12@11UFSortPatchDrawStructWithTerrainNum@2@@Z PROC ; std::_Uninitialized_merge_move<CMapOutdoor::TPatchDrawStruct *,CMapOutdoor::TPatchDrawStruct,CMapOutdoor::FSortPatchDrawStructWithTerrainNum>, COMDAT

; 7644 : _Ty* _Uninitialized_merge_move(_FwdIt _First, const _FwdIt _Mid, const _FwdIt _Last, _Ty* const _Dest, _Pr _Pred) {

  00000	55		 push	 ebp
  00001	8b ec		 mov	 ebp, esp
  00003	83 ec 14	 sub	 esp, 20			; 00000014H

; 7645 :     // move merging ranges to uninitialized storage
; 7646 :     // pre: _First != _Mid && _Mid != _Last
; 7647 :     _Uninitialized_backout<_Ty*> _Backout{_Dest};
; 7648 :     _FwdIt _Next = _Mid;

  00006	8b 45 0c	 mov	 eax, DWORD PTR __Mid$[ebp]
  00009	53		 push	 ebx
  0000a	56		 push	 esi
  0000b	89 45 f8	 mov	 DWORD PTR __Next$1$[ebp], eax
  0000e	57		 push	 edi
  0000f	90		 npad	 1
$LL2@Uninitiali:
; File C:\Program Files (x86)\Microsoft Visual Studio\2019\Professional\VC\Tools\MSVC\14.29.30133\include\xutility

; 5348 :     _Seek_wrapped(_First, _Find_unchecked(_Get_unwrapped(_First), _Get_unwrapped(_Last), _Val));

  00010	8b 35 04 00 00
	00		 mov	 esi, DWORD PTR ?m_TerrainNumVector@FSortPatchDrawStructWithTerrainNum@CMapOutdoor@@2V?$vector@EV?$allocator@E@std@@@std@@A+4

; 5329 :     const auto _Result    = static_cast<remove_reference_t<_Iter_ref_t<_InIt>>*>(

  00016	8d 48 04	 lea	 ecx, DWORD PTR [eax+4]
  00019	8b 1d 00 00 00
	00		 mov	 ebx, DWORD PTR ?m_TerrainNumVector@FSortPatchDrawStructWithTerrainNum@CMapOutdoor@@2V?$vector@EV?$allocator@E@std@@@std@@A
  0001f	8b c6		 mov	 eax, esi
  00021	2b c3		 sub	 eax, ebx

; 5348 :     _Seek_wrapped(_First, _Find_unchecked(_Get_unwrapped(_First), _Get_unwrapped(_Last), _Val));

  00023	89 75 f4	 mov	 DWORD PTR tv1170[ebp], esi
; File C:\Program Files (x86)\Windows Kits\10\Include\10.0.19041.0\ucrt\corecrt_memory.h

; 111  :         return const_cast<void*>(memchr(_Pvc, _C, _N));

  00026	50		 push	 eax
; File C:\Program Files (x86)\Microsoft Visual Studio\2019\Professional\VC\Tools\MSVC\14.29.30133\include\xutility

; 5329 :     const auto _Result    = static_cast<remove_reference_t<_Iter_ref_t<_InIt>>*>(

  00027	0f b6 01	 movzx	 eax, BYTE PTR [ecx]
; File C:\Users\murat\Desktop\Siveps2-1-99-Project\source\client\Client\GameLib\MapOutdoor.h

; 360  : 				DWORD lhsTerrainNumOrder = 0, rhsTerrainNumOrder = 0;

  0002a	33 ff		 xor	 edi, edi
; File C:\Program Files (x86)\Windows Kits\10\Include\10.0.19041.0\ucrt\corecrt_memory.h

; 111  :         return const_cast<void*>(memchr(_Pvc, _C, _N));

  0002c	50		 push	 eax
  0002d	53		 push	 ebx
; File C:\Program Files (x86)\Microsoft Visual Studio\2019\Professional\VC\Tools\MSVC\14.29.30133\include\xutility

; 5329 :     const auto _Result    = static_cast<remove_reference_t<_Iter_ref_t<_InIt>>*>(

  0002e	89 4d f0	 mov	 DWORD PTR tv1155[ebp], ecx
; File C:\Program Files (x86)\Windows Kits\10\Include\10.0.19041.0\ucrt\corecrt_memory.h

; 111  :         return const_cast<void*>(memchr(_Pvc, _C, _N));

  00031	e8 00 00 00 00	 call	 _memchr
; File C:\Program Files (x86)\Microsoft Visual Studio\2019\Professional\VC\Tools\MSVC\14.29.30133\include\xutility

; 5332 :         return _Result ? _Result : _Last;

  00036	85 c0		 test	 eax, eax
  00038	0f 45 f0	 cmovne	 esi, eax

; 5329 :     const auto _Result    = static_cast<remove_reference_t<_Iter_ref_t<_InIt>>*>(

  0003b	8b 45 08	 mov	 eax, DWORD PTR __First$[ebp]
  0003e	83 c0 04	 add	 eax, 4
  00041	89 45 ec	 mov	 DWORD PTR tv1151[ebp], eax
  00044	8a 08		 mov	 cl, BYTE PTR [eax]
  00046	8b 45 f4	 mov	 eax, DWORD PTR tv1170[ebp]
  00049	2b c3		 sub	 eax, ebx
  0004b	88 4d ff	 mov	 BYTE PTR tv1150[ebp], cl
; File C:\Program Files (x86)\Windows Kits\10\Include\10.0.19041.0\ucrt\corecrt_memory.h

; 111  :         return const_cast<void*>(memchr(_Pvc, _C, _N));

  0004e	50		 push	 eax
; File C:\Program Files (x86)\Microsoft Visual Studio\2019\Professional\VC\Tools\MSVC\14.29.30133\include\xutility

; 5329 :     const auto _Result    = static_cast<remove_reference_t<_Iter_ref_t<_InIt>>*>(

  0004f	0f b6 c1	 movzx	 eax, cl
; File C:\Program Files (x86)\Windows Kits\10\Include\10.0.19041.0\ucrt\corecrt_memory.h

; 111  :         return const_cast<void*>(memchr(_Pvc, _C, _N));

  00052	50		 push	 eax
  00053	53		 push	 ebx
  00054	e8 00 00 00 00	 call	 _memchr
; File C:\Program Files (x86)\Microsoft Visual Studio\2019\Professional\VC\Tools\MSVC\14.29.30133\include\xutility

; 5332 :         return _Result ? _Result : _Last;

  00059	8b 55 f4	 mov	 edx, DWORD PTR tv1170[ebp]
; File C:\Program Files (x86)\Windows Kits\10\Include\10.0.19041.0\ucrt\corecrt_memory.h

; 111  :         return const_cast<void*>(memchr(_Pvc, _C, _N));

  0005c	83 c4 18	 add	 esp, 24			; 00000018H
; File C:\Users\murat\Desktop\Siveps2-1-99-Project\source\client\Client\GameLib\MapOutdoor.h

; 367  : 				if (lhsIterator != m_TerrainNumVector.end())

  0005f	8b 0d 00 00 00
	00		 mov	 ecx, DWORD PTR ?m_TerrainNumVector@FSortPatchDrawStructWithTerrainNum@CMapOutdoor@@2V?$vector@EV?$allocator@E@std@@@std@@A
; File C:\Program Files (x86)\Microsoft Visual Studio\2019\Professional\VC\Tools\MSVC\14.29.30133\include\xutility

; 5332 :         return _Result ? _Result : _Last;

  00065	85 c0		 test	 eax, eax
  00067	8b da		 mov	 ebx, edx
  00069	0f 45 d8	 cmovne	 ebx, eax

; 5349 :     return _First;

  0006c	3b f2		 cmp	 esi, edx
; File C:\Users\murat\Desktop\Siveps2-1-99-Project\source\client\Client\GameLib\MapOutdoor.h

; 367  : 				if (lhsIterator != m_TerrainNumVector.end())

  0006e	74 04		 je	 SHORT $LN14@Uninitiali

; 368  : 				{
; 369  : 					blhsOrderFound = true;

  00070	8b fe		 mov	 edi, esi
  00072	2b f9		 sub	 edi, ecx
$LN14@Uninitiali:
; File C:\Program Files (x86)\Microsoft Visual Studio\2019\Professional\VC\Tools\MSVC\14.29.30133\include\vector

; 154  :         return _Ptr == _Right._Ptr;

  00074	3b da		 cmp	 ebx, edx
; File C:\Users\murat\Desktop\Siveps2-1-99-Project\source\client\Client\GameLib\MapOutdoor.h

; 372  : 				if (rhsIterator != m_TerrainNumVector.end())

  00076	74 09		 je	 SHORT $LN200@Uninitiali

; 377  : 				if (!brhsOrderFound)

  00078	a1 04 00 00 00	 mov	 eax, DWORD PTR ?m_TerrainNumVector@FSortPatchDrawStructWithTerrainNum@CMapOutdoor@@2V?$vector@EV?$allocator@E@std@@@std@@A+4
; File C:\Program Files (x86)\Microsoft Visual Studio\2019\Professional\VC\Tools\MSVC\14.29.30133\include\vector

; 145  :         return _Ptr - _Right._Ptr;

  0007d	2b d9		 sub	 ebx, ecx
; File C:\Users\murat\Desktop\Siveps2-1-99-Project\source\client\Client\GameLib\MapOutdoor.h

; 377  : 				if (!brhsOrderFound)

  0007f	eb 3b		 jmp	 SHORT $LN16@Uninitiali
$LN200@Uninitiali:
; File C:\Program Files (x86)\Microsoft Visual Studio\2019\Professional\VC\Tools\MSVC\14.29.30133\include\vector

; 743  :         if (_Mylast != _My_data._Myend) {

  00081	3b 15 08 00 00
	00		 cmp	 edx, DWORD PTR ?m_TerrainNumVector@FSortPatchDrawStructWithTerrainNum@CMapOutdoor@@2V?$vector@EV?$allocator@E@std@@@std@@A+8
  00087	74 12		 je	 SHORT $LN102@Uninitiali

; 726  :         _Alty_traits::construct(_Getal(), _Unfancy(_Mylast), _STD forward<_Valty>(_Val)...);

  00089	8a 45 ff	 mov	 al, BYTE PTR tv1150[ebp]
  0008c	88 02		 mov	 BYTE PTR [edx], al

; 727  :         _Orphan_range(_Mylast, _Mylast);
; 728  :         _Ty& _Result = *_Mylast;
; 729  :         ++_Mylast;

  0008e	a1 04 00 00 00	 mov	 eax, DWORD PTR ?m_TerrainNumVector@FSortPatchDrawStructWithTerrainNum@CMapOutdoor@@2V?$vector@EV?$allocator@E@std@@@std@@A+4
  00093	40		 inc	 eax
  00094	a3 04 00 00 00	 mov	 DWORD PTR ?m_TerrainNumVector@FSortPatchDrawStructWithTerrainNum@CMapOutdoor@@2V?$vector@EV?$allocator@E@std@@@std@@A+4, eax

; 744  :             return _Emplace_back_with_unused_capacity(_STD forward<_Valty>(_Val)...);

  00099	eb 16		 jmp	 SHORT $LN101@Uninitiali
$LN102@Uninitiali:

; 745  :         }
; 746  : 
; 747  :         _Ty& _Result = *_Emplace_reallocate(_Mylast, _STD forward<_Valty>(_Val)...);

  0009b	ff 75 ec	 push	 DWORD PTR tv1151[ebp]
  0009e	b9 00 00 00 00	 mov	 ecx, OFFSET ?m_TerrainNumVector@FSortPatchDrawStructWithTerrainNum@CMapOutdoor@@2V?$vector@EV?$allocator@E@std@@@std@@A ; CMapOutdoor::FSortPatchDrawStructWithTerrainNum::m_TerrainNumVector
  000a3	52		 push	 edx
  000a4	e8 00 00 00 00	 call	 ??$_Emplace_reallocate@ABE@?$vector@EV?$allocator@E@std@@@std@@QAEPAEQAEABE@Z ; std::vector<unsigned char,std::allocator<unsigned char> >::_Emplace_reallocate<unsigned char const &>
  000a9	a1 04 00 00 00	 mov	 eax, DWORD PTR ?m_TerrainNumVector@FSortPatchDrawStructWithTerrainNum@CMapOutdoor@@2V?$vector@EV?$allocator@E@std@@@std@@A+4
  000ae	8b 55 f4	 mov	 edx, DWORD PTR tv1170[ebp]
$LN101@Uninitiali:
; File C:\Users\murat\Desktop\Siveps2-1-99-Project\source\client\Client\GameLib\MapOutdoor.h

; 380  : 					rhsTerrainNumOrder = m_TerrainNumVector.size() -1;

  000b1	8b 0d 00 00 00
	00		 mov	 ecx, DWORD PTR ?m_TerrainNumVector@FSortPatchDrawStructWithTerrainNum@CMapOutdoor@@2V?$vector@EV?$allocator@E@std@@@std@@A
  000b7	8b d8		 mov	 ebx, eax
  000b9	2b d9		 sub	 ebx, ecx
  000bb	4b		 dec	 ebx
$LN16@Uninitiali:

; 381  : 				}
; 382  : 				if (!blhsOrderFound)

  000bc	3b f2		 cmp	 esi, edx
  000be	75 66		 jne	 SHORT $LN19@Uninitiali
; File C:\Program Files (x86)\Microsoft Visual Studio\2019\Professional\VC\Tools\MSVC\14.29.30133\include\xutility

; 5348 :     _Seek_wrapped(_First, _Find_unchecked(_Get_unwrapped(_First), _Get_unwrapped(_Last), _Val));

  000c0	8b f8		 mov	 edi, eax

; 5329 :     const auto _Result    = static_cast<remove_reference_t<_Iter_ref_t<_InIt>>*>(

  000c2	8b 45 f0	 mov	 eax, DWORD PTR tv1155[ebp]

; 5348 :     _Seek_wrapped(_First, _Find_unchecked(_Get_unwrapped(_First), _Get_unwrapped(_Last), _Val));

  000c5	8b f7		 mov	 esi, edi

; 5329 :     const auto _Result    = static_cast<remove_reference_t<_Iter_ref_t<_InIt>>*>(

  000c7	8a 10		 mov	 dl, BYTE PTR [eax]
  000c9	8b c7		 mov	 eax, edi
  000cb	2b c1		 sub	 eax, ecx
  000cd	88 55 ff	 mov	 BYTE PTR tv1154[ebp], dl
; File C:\Program Files (x86)\Windows Kits\10\Include\10.0.19041.0\ucrt\corecrt_memory.h

; 111  :         return const_cast<void*>(memchr(_Pvc, _C, _N));

  000d0	50		 push	 eax
; File C:\Program Files (x86)\Microsoft Visual Studio\2019\Professional\VC\Tools\MSVC\14.29.30133\include\xutility

; 5329 :     const auto _Result    = static_cast<remove_reference_t<_Iter_ref_t<_InIt>>*>(

  000d1	0f b6 c2	 movzx	 eax, dl
; File C:\Program Files (x86)\Windows Kits\10\Include\10.0.19041.0\ucrt\corecrt_memory.h

; 111  :         return const_cast<void*>(memchr(_Pvc, _C, _N));

  000d4	50		 push	 eax
  000d5	51		 push	 ecx
  000d6	e8 00 00 00 00	 call	 _memchr
  000db	83 c4 0c	 add	 esp, 12			; 0000000cH
; File C:\Program Files (x86)\Microsoft Visual Studio\2019\Professional\VC\Tools\MSVC\14.29.30133\include\xutility

; 5332 :         return _Result ? _Result : _Last;

  000de	85 c0		 test	 eax, eax
  000e0	0f 45 f8	 cmovne	 edi, eax
; File C:\Users\murat\Desktop\Siveps2-1-99-Project\source\client\Client\GameLib\MapOutdoor.h

; 384  : 					lhsIterator = std::find(m_TerrainNumVector.begin(), m_TerrainNumVector.end(), lhs.byTerrainNum);

  000e3	3b fe		 cmp	 edi, esi

; 385  : 					if (lhsIterator != m_TerrainNumVector.end())

  000e5	74 08		 je	 SHORT $LN201@Uninitiali
; File C:\Program Files (x86)\Microsoft Visual Studio\2019\Professional\VC\Tools\MSVC\14.29.30133\include\vector

; 145  :         return _Ptr - _Right._Ptr;

  000e7	2b 3d 00 00 00
	00		 sub	 edi, DWORD PTR ?m_TerrainNumVector@FSortPatchDrawStructWithTerrainNum@CMapOutdoor@@2V?$vector@EV?$allocator@E@std@@@std@@A
; File C:\Users\murat\Desktop\Siveps2-1-99-Project\source\client\Client\GameLib\MapOutdoor.h

; 390  : 					if (!blhsOrderFound)

  000ed	eb 37		 jmp	 SHORT $LN19@Uninitiali
$LN201@Uninitiali:
; File C:\Program Files (x86)\Microsoft Visual Studio\2019\Professional\VC\Tools\MSVC\14.29.30133\include\vector

; 743  :         if (_Mylast != _My_data._Myend) {

  000ef	3b 35 08 00 00
	00		 cmp	 esi, DWORD PTR ?m_TerrainNumVector@FSortPatchDrawStructWithTerrainNum@CMapOutdoor@@2V?$vector@EV?$allocator@E@std@@@std@@A+8
  000f5	74 14		 je	 SHORT $LN150@Uninitiali

; 726  :         _Alty_traits::construct(_Getal(), _Unfancy(_Mylast), _STD forward<_Valty>(_Val)...);

  000f7	8a 45 ff	 mov	 al, BYTE PTR tv1154[ebp]
  000fa	88 06		 mov	 BYTE PTR [esi], al

; 727  :         _Orphan_range(_Mylast, _Mylast);
; 728  :         _Ty& _Result = *_Mylast;
; 729  :         ++_Mylast;

  000fc	8b 3d 04 00 00
	00		 mov	 edi, DWORD PTR ?m_TerrainNumVector@FSortPatchDrawStructWithTerrainNum@CMapOutdoor@@2V?$vector@EV?$allocator@E@std@@@std@@A+4
  00102	47		 inc	 edi
  00103	89 3d 04 00 00
	00		 mov	 DWORD PTR ?m_TerrainNumVector@FSortPatchDrawStructWithTerrainNum@CMapOutdoor@@2V?$vector@EV?$allocator@E@std@@@std@@A+4, edi

; 744  :             return _Emplace_back_with_unused_capacity(_STD forward<_Valty>(_Val)...);

  00109	eb 14		 jmp	 SHORT $LN149@Uninitiali
$LN150@Uninitiali:

; 745  :         }
; 746  : 
; 747  :         _Ty& _Result = *_Emplace_reallocate(_Mylast, _STD forward<_Valty>(_Val)...);

  0010b	ff 75 f0	 push	 DWORD PTR tv1155[ebp]
  0010e	b9 00 00 00 00	 mov	 ecx, OFFSET ?m_TerrainNumVector@FSortPatchDrawStructWithTerrainNum@CMapOutdoor@@2V?$vector@EV?$allocator@E@std@@@std@@A ; CMapOutdoor::FSortPatchDrawStructWithTerrainNum::m_TerrainNumVector
  00113	56		 push	 esi
  00114	e8 00 00 00 00	 call	 ??$_Emplace_reallocate@ABE@?$vector@EV?$allocator@E@std@@@std@@QAEPAEQAEABE@Z ; std::vector<unsigned char,std::allocator<unsigned char> >::_Emplace_reallocate<unsigned char const &>
  00119	8b 3d 04 00 00
	00		 mov	 edi, DWORD PTR ?m_TerrainNumVector@FSortPatchDrawStructWithTerrainNum@CMapOutdoor@@2V?$vector@EV?$allocator@E@std@@@std@@A+4
$LN149@Uninitiali:
; File C:\Users\murat\Desktop\Siveps2-1-99-Project\source\client\Client\GameLib\MapOutdoor.h

; 393  : 						lhsTerrainNumOrder = m_TerrainNumVector.size() -1;

  0011f	2b 3d 00 00 00
	00		 sub	 edi, DWORD PTR ?m_TerrainNumVector@FSortPatchDrawStructWithTerrainNum@CMapOutdoor@@2V?$vector@EV?$allocator@E@std@@@std@@A
  00125	4f		 dec	 edi
$LN19@Uninitiali:

; 394  : 					}
; 395  : 				}
; 396  : 
; 397  : 				return lhsTerrainNumOrder < rhsTerrainNumOrder;

  00126	8b 4d 14	 mov	 ecx, DWORD PTR __Dest$[ebp]
  00129	8d 51 10	 lea	 edx, DWORD PTR [ecx+16]
  0012c	3b fb		 cmp	 edi, ebx
; File C:\Program Files (x86)\Microsoft Visual Studio\2019\Professional\VC\Tools\MSVC\14.29.30133\include\algorithm

; 7650 :         if (_DEBUG_LT_PRED(_Pred, *_Next, *_First)) {

  0012e	73 2c		 jae	 SHORT $LN5@Uninitiali
; File C:\Program Files (x86)\Microsoft Visual Studio\2019\Professional\VC\Tools\MSVC\14.29.30133\include\xutility

; 158  :         ::new (_Voidify_iter(_STD addressof(_Obj))) _Ty(_STD forward<_Types>(_Args)...);

  00130	8b 45 f8	 mov	 eax, DWORD PTR __Next$1$[ebp]
  00133	0f 10 00	 movups	 xmm0, XMMWORD PTR [eax]
; File C:\Program Files (x86)\Microsoft Visual Studio\2019\Professional\VC\Tools\MSVC\14.29.30133\include\algorithm

; 7652 :             ++_Next;

  00136	83 c0 10	 add	 eax, 16			; 00000010H
  00139	89 45 f8	 mov	 DWORD PTR __Next$1$[ebp], eax
; File C:\Program Files (x86)\Microsoft Visual Studio\2019\Professional\VC\Tools\MSVC\14.29.30133\include\xutility

; 158  :         ::new (_Voidify_iter(_STD addressof(_Obj))) _Ty(_STD forward<_Types>(_Args)...);

  0013c	0f 11 01	 movups	 XMMWORD PTR [ecx], xmm0
; File C:\Program Files (x86)\Microsoft Visual Studio\2019\Professional\VC\Tools\MSVC\14.29.30133\include\algorithm

; 7654 :             if (_Next == _Last) {

  0013f	3b 45 10	 cmp	 eax, DWORD PTR __Last$[ebp]
  00142	75 2f		 jne	 SHORT $LN8@Uninitiali

; 7664 :                 return _Backout._Release();

  00144	8b 4d 0c	 mov	 ecx, DWORD PTR __Mid$[ebp]
  00147	8b 45 08	 mov	 eax, DWORD PTR __First$[ebp]
  0014a	52		 push	 edx
  0014b	51		 push	 ecx
  0014c	50		 push	 eax
  0014d	e8 00 00 00 00	 call	 ??$_Copy_memmove@PAUTPatchDrawStruct@CMapOutdoor@@PAU12@@std@@YAPAUTPatchDrawStruct@CMapOutdoor@@PAU12@00@Z ; std::_Copy_memmove<CMapOutdoor::TPatchDrawStruct *,CMapOutdoor::TPatchDrawStruct *>
  00152	83 c4 0c	 add	 esp, 12			; 0000000cH
  00155	5f		 pop	 edi
  00156	5e		 pop	 esi
  00157	5b		 pop	 ebx

; 7668 : }

  00158	8b e5		 mov	 esp, ebp
  0015a	5d		 pop	 ebp
  0015b	c3		 ret	 0
$LN5@Uninitiali:
; File C:\Program Files (x86)\Microsoft Visual Studio\2019\Professional\VC\Tools\MSVC\14.29.30133\include\xutility

; 158  :         ::new (_Voidify_iter(_STD addressof(_Obj))) _Ty(_STD forward<_Types>(_Args)...);

  0015c	8b 45 08	 mov	 eax, DWORD PTR __First$[ebp]
  0015f	0f 10 00	 movups	 xmm0, XMMWORD PTR [eax]
; File C:\Program Files (x86)\Microsoft Visual Studio\2019\Professional\VC\Tools\MSVC\14.29.30133\include\algorithm

; 7660 :             ++_First;

  00162	83 c0 10	 add	 eax, 16			; 00000010H

; 7662 :             if (_First == _Mid) {

  00165	3b 45 0c	 cmp	 eax, DWORD PTR __Mid$[ebp]
  00168	89 45 08	 mov	 DWORD PTR __First$[ebp], eax
  0016b	8b 45 f8	 mov	 eax, DWORD PTR __Next$1$[ebp]
; File C:\Program Files (x86)\Microsoft Visual Studio\2019\Professional\VC\Tools\MSVC\14.29.30133\include\xutility

; 158  :         ::new (_Voidify_iter(_STD addressof(_Obj))) _Ty(_STD forward<_Types>(_Args)...);

  0016e	0f 11 01	 movups	 XMMWORD PTR [ecx], xmm0
; File C:\Program Files (x86)\Microsoft Visual Studio\2019\Professional\VC\Tools\MSVC\14.29.30133\include\algorithm

; 7662 :             if (_First == _Mid) {

  00171	74 08		 je	 SHORT $LN197@Uninitiali
$LN8@Uninitiali:

; 7665 :             }
; 7666 :         }
; 7667 :     }

  00173	89 55 14	 mov	 DWORD PTR __Dest$[ebp], edx
  00176	e9 95 fe ff ff	 jmp	 $LL2@Uninitiali
$LN197@Uninitiali:
; File C:\Program Files (x86)\Microsoft Visual Studio\2019\Professional\VC\Tools\MSVC\14.29.30133\include\xmemory

; 1500 :         return _Last;

  0017b	8b 4d 10	 mov	 ecx, DWORD PTR __Last$[ebp]
; File C:\Program Files (x86)\Microsoft Visual Studio\2019\Professional\VC\Tools\MSVC\14.29.30133\include\algorithm

; 7664 :                 return _Backout._Release();

  0017e	52		 push	 edx
  0017f	51		 push	 ecx
  00180	50		 push	 eax
  00181	e8 00 00 00 00	 call	 ??$_Copy_memmove@PAUTPatchDrawStruct@CMapOutdoor@@PAU12@@std@@YAPAUTPatchDrawStruct@CMapOutdoor@@PAU12@00@Z ; std::_Copy_memmove<CMapOutdoor::TPatchDrawStruct *,CMapOutdoor::TPatchDrawStruct *>
  00186	83 c4 0c	 add	 esp, 12			; 0000000cH
  00189	5f		 pop	 edi
  0018a	5e		 pop	 esi
  0018b	5b		 pop	 ebx

; 7668 : }

  0018c	8b e5		 mov	 esp, ebp
  0018e	5d		 pop	 ebp
  0018f	c3		 ret	 0
??$_Uninitialized_merge_move@PAUTPatchDrawStruct@CMapOutdoor@@U12@UFSortPatchDrawStructWithTerrainNum@2@@std@@YAPAUTPatchDrawStruct@CMapOutdoor@@PAU12@QAU12@11UFSortPatchDrawStructWithTerrainNum@2@@Z ENDP ; std::_Uninitialized_merge_move<CMapOutdoor::TPatchDrawStruct *,CMapOutdoor::TPatchDrawStruct,CMapOutdoor::FSortPatchDrawStructWithTerrainNum>
_TEXT	ENDS
; Function compile flags: /Ogtp
; File C:\Program Files (x86)\Microsoft Visual Studio\2019\Professional\VC\Tools\MSVC\14.29.30133\include\algorithm
; File C:\Users\murat\Desktop\Siveps2-1-99-Project\source\client\Client\GameLib\MapOutdoorRender.cpp
; File C:\Program Files (x86)\Microsoft Visual Studio\2019\Professional\VC\Tools\MSVC\14.29.30133\include\algorithm
; File C:\Users\murat\Desktop\Siveps2-1-99-Project\source\client\Client\GameLib\MapOutdoorRender.cpp
; File C:\Users\murat\Desktop\Siveps2-1-99-Project\source\client\extern\include\d3dx8math.inl
; File C:\Program Files (x86)\Microsoft Visual Studio\2019\Professional\VC\Tools\MSVC\14.29.30133\include\algorithm
; File C:\Users\murat\Desktop\Siveps2-1-99-Project\source\client\extern\include\d3dx8math.inl
; File C:\Users\murat\Desktop\Siveps2-1-99-Project\source\client\Client\GameLib\MapOutdoorRender.cpp
; File C:\Users\murat\Desktop\Siveps2-1-99-Project\source\client\extern\include\d3dx8math.inl
; File C:\Users\murat\Desktop\Siveps2-1-99-Project\source\client\Client\GameLib\MapOutdoorRender.cpp
; File C:\Program Files (x86)\Microsoft Visual Studio\2019\Professional\VC\Tools\MSVC\14.29.30133\include\algorithm
; File C:\Program Files (x86)\Microsoft Visual Studio\2019\Professional\VC\Tools\MSVC\14.29.30133\include\utility
; File C:\Program Files (x86)\Microsoft Visual Studio\2019\Professional\VC\Tools\MSVC\14.29.30133\include\algorithm
; File C:\Users\murat\Desktop\Siveps2-1-99-Project\source\client\Client\GameLib\MapOutdoorRender.cpp
; File C:\Program Files (x86)\Microsoft Visual Studio\2019\Professional\VC\Tools\MSVC\14.29.30133\include\algorithm
; File C:\Users\murat\Desktop\Siveps2-1-99-Project\source\client\Client\GameLib\MapOutdoorRender.cpp
; File C:\Users\murat\Desktop\Siveps2-1-99-Project\source\client\extern\include\d3dx8math.inl
; File C:\Users\murat\Desktop\Siveps2-1-99-Project\source\client\Client\GameLib\MapOutdoorRender.cpp
; File C:\Users\murat\Desktop\Siveps2-1-99-Project\source\client\extern\include\d3dx8math.inl
; File C:\Users\murat\Desktop\Siveps2-1-99-Project\source\client\Client\GameLib\MapOutdoorRender.cpp
; File C:\Program Files (x86)\Microsoft Visual Studio\2019\Professional\VC\Tools\MSVC\14.29.30133\include\algorithm
; File C:\Program Files (x86)\Microsoft Visual Studio\2019\Professional\VC\Tools\MSVC\14.29.30133\include\utility
; File C:\Program Files (x86)\Microsoft Visual Studio\2019\Professional\VC\Tools\MSVC\14.29.30133\include\algorithm
; File C:\Program Files (x86)\Microsoft Visual Studio\2019\Professional\VC\Tools\MSVC\14.29.30133\include\utility
; File C:\Users\murat\Desktop\Siveps2-1-99-Project\source\client\Client\GameLib\MapOutdoorRender.cpp
; File C:\Program Files (x86)\Microsoft Visual Studio\2019\Professional\VC\Tools\MSVC\14.29.30133\include\algorithm
; File C:\Users\murat\Desktop\Siveps2-1-99-Project\source\client\Client\GameLib\MapOutdoorRender.cpp
; File C:\Users\murat\Desktop\Siveps2-1-99-Project\source\client\extern\include\d3dx8math.inl
; File C:\Users\murat\Desktop\Siveps2-1-99-Project\source\client\Client\GameLib\MapOutdoorRender.cpp
; File C:\Users\murat\Desktop\Siveps2-1-99-Project\source\client\extern\include\d3dx8math.inl
; File C:\Users\murat\Desktop\Siveps2-1-99-Project\source\client\Client\GameLib\MapOutdoorRender.cpp
; File C:\Program Files (x86)\Microsoft Visual Studio\2019\Professional\VC\Tools\MSVC\14.29.30133\include\algorithm
; File C:\Program Files (x86)\Microsoft Visual Studio\2019\Professional\VC\Tools\MSVC\14.29.30133\include\utility
; File C:\Program Files (x86)\Microsoft Visual Studio\2019\Professional\VC\Tools\MSVC\14.29.30133\include\algorithm
;	COMDAT ??$_Med3_unchecked@PAPAVCGraphicThingInstance@@UCMapOutdoor_LessThingInstancePtrRenderOrder@@@std@@YAXPAPAVCGraphicThingInstance@@00UCMapOutdoor_LessThingInstancePtrRenderOrder@@@Z
_TEXT	SEGMENT
__First$ = 8						; size = 4
__Mid$ = 12						; size = 4
__Last$ = 16						; size = 4
__Pred$ = 20						; size = 1
??$_Med3_unchecked@PAPAVCGraphicThingInstance@@UCMapOutdoor_LessThingInstancePtrRenderOrder@@@std@@YAXPAPAVCGraphicThingInstance@@00UCMapOutdoor_LessThingInstancePtrRenderOrder@@@Z PROC ; std::_Med3_unchecked<CGraphicThingInstance * *,CMapOutdoor_LessThingInstancePtrRenderOrder>, COMDAT

; 7262 : _CONSTEXPR20 void _Med3_unchecked(_RanIt _First, _RanIt _Mid, _RanIt _Last, _Pr _Pred) {

  00000	55		 push	 ebp
  00001	8b ec		 mov	 ebp, esp
; File C:\Users\murat\Desktop\Siveps2-1-99-Project\source\client\Client\GameLib\MapOutdoorRender.cpp

; 357  : 		CCamera * pCurrentCamera = CCameraManager::Instance().GetCurrentCamera();

  00003	8b 0d 00 00 00
	00		 mov	 ecx, DWORD PTR ?ms_singleton@?$CSingleton@VCCameraManager@@@@0PAVCCameraManager@@A ; CSingleton<CCameraManager>::ms_singleton
; File C:\Program Files (x86)\Microsoft Visual Studio\2019\Professional\VC\Tools\MSVC\14.29.30133\include\algorithm

; 7262 : _CONSTEXPR20 void _Med3_unchecked(_RanIt _First, _RanIt _Mid, _RanIt _Last, _Pr _Pred) {

  00009	53		 push	 ebx
  0000a	56		 push	 esi

; 7264 :     if (_DEBUG_LT_PRED(_Pred, *_Mid, *_First)) {

  0000b	8b 75 0c	 mov	 esi, DWORD PTR __Mid$[ebp]
  0000e	57		 push	 edi
  0000f	8b 7d 08	 mov	 edi, DWORD PTR __First$[ebp]
  00012	8b 36		 mov	 esi, DWORD PTR [esi]
  00014	8b 3f		 mov	 edi, DWORD PTR [edi]
; File C:\Users\murat\Desktop\Siveps2-1-99-Project\source\client\Client\GameLib\MapOutdoorRender.cpp

; 357  : 		CCamera * pCurrentCamera = CCameraManager::Instance().GetCurrentCamera();

  00016	e8 00 00 00 00	 call	 ?GetCurrentCamera@CCameraManager@@QAEPAVCCamera@@XZ ; CCameraManager::GetCurrentCamera

; 358  : 		const D3DXVECTOR3 & c_rv3CameraPos = pCurrentCamera->GetEye();
; 359  : 		const D3DXVECTOR3 & c_v3LeftPos  = pkLeft->GetPosition();

  0001b	8b ce		 mov	 ecx, esi
  0001d	8b d8		 mov	 ebx, eax
  0001f	e8 00 00 00 00	 call	 ?GetPosition@CGraphicObjectInstance@@QBEABUD3DXVECTOR3@@XZ ; CGraphicObjectInstance::GetPosition

; 360  : 		const D3DXVECTOR3 & c_v3RightPos = pkRight->GetPosition();

  00024	8b cf		 mov	 ecx, edi
  00026	8b f0		 mov	 esi, eax
  00028	e8 00 00 00 00	 call	 ?GetPosition@CGraphicObjectInstance@@QBEABUD3DXVECTOR3@@XZ ; CGraphicObjectInstance::GetPosition
; File C:\Users\murat\Desktop\Siveps2-1-99-Project\source\client\extern\include\d3dx8math.inl

; 263  :     return D3DXVECTOR3(x - v.x, y - v.y, z - v.z);

  0002d	f3 0f 10 6b 30	 movss	 xmm5, DWORD PTR [ebx+48]
  00032	f3 0f 10 63 34	 movss	 xmm4, DWORD PTR [ebx+52]
  00037	0f 28 cd	 movaps	 xmm1, xmm5
  0003a	f3 0f 5c 0e	 subss	 xmm1, DWORD PTR [esi]
  0003e	f3 0f 5c 28	 subss	 xmm5, DWORD PTR [eax]
  00042	f3 0f 10 53 38	 movss	 xmm2, DWORD PTR [ebx+56]
  00047	0f 28 dc	 movaps	 xmm3, xmm4
  0004a	f3 0f 5c 5e 04	 subss	 xmm3, DWORD PTR [esi+4]
  0004f	f3 0f 5c 60 04	 subss	 xmm4, DWORD PTR [eax+4]
; File C:\Program Files (x86)\Microsoft Visual Studio\2019\Professional\VC\Tools\MSVC\14.29.30133\include\algorithm

; 7264 :     if (_DEBUG_LT_PRED(_Pred, *_Mid, *_First)) {

  00054	8b 55 0c	 mov	 edx, DWORD PTR __Mid$[ebp]
; File C:\Users\murat\Desktop\Siveps2-1-99-Project\source\client\extern\include\d3dx8math.inl

; 263  :     return D3DXVECTOR3(x - v.x, y - v.y, z - v.z);

  00057	0f 28 c2	 movaps	 xmm0, xmm2
  0005a	f3 0f 5c 46 08	 subss	 xmm0, DWORD PTR [esi+8]
  0005f	f3 0f 5c 50 08	 subss	 xmm2, DWORD PTR [eax+8]

; 1253 :     return pV->x * pV->x + pV->y * pV->y + pV->z * pV->z;

  00064	f3 0f 59 db	 mulss	 xmm3, xmm3
; File C:\Users\murat\Desktop\Siveps2-1-99-Project\source\client\Client\GameLib\MapOutdoorRender.cpp

; 362  : 		return D3DXVec3LengthSq(&D3DXVECTOR3(c_rv3CameraPos - c_v3LeftPos)) < D3DXVec3LengthSq(&D3DXVECTOR3(c_rv3CameraPos - c_v3RightPos) );

  00068	f3 0f 59 e4	 mulss	 xmm4, xmm4
; File C:\Users\murat\Desktop\Siveps2-1-99-Project\source\client\extern\include\d3dx8math.inl

; 182  :     z = fz;

  0006c	f3 0f 59 c9	 mulss	 xmm1, xmm1

; 1253 :     return pV->x * pV->x + pV->y * pV->y + pV->z * pV->z;

  00070	f3 0f 59 ed	 mulss	 xmm5, xmm5
  00074	f3 0f 58 d9	 addss	 xmm3, xmm1
  00078	f3 0f 59 c0	 mulss	 xmm0, xmm0
  0007c	f3 0f 58 e5	 addss	 xmm4, xmm5
  00080	f3 0f 59 d2	 mulss	 xmm2, xmm2
  00084	f3 0f 58 d8	 addss	 xmm3, xmm0
  00088	f3 0f 58 e2	 addss	 xmm4, xmm2
; File C:\Users\murat\Desktop\Siveps2-1-99-Project\source\client\Client\GameLib\MapOutdoorRender.cpp

; 362  : 		return D3DXVec3LengthSq(&D3DXVECTOR3(c_rv3CameraPos - c_v3LeftPos)) < D3DXVec3LengthSq(&D3DXVECTOR3(c_rv3CameraPos - c_v3RightPos) );

  0008c	0f 2f e3	 comiss	 xmm4, xmm3
; File C:\Program Files (x86)\Microsoft Visual Studio\2019\Professional\VC\Tools\MSVC\14.29.30133\include\algorithm

; 7264 :     if (_DEBUG_LT_PRED(_Pred, *_Mid, *_First)) {

  0008f	76 0b		 jbe	 SHORT $LN61@Med3_unche
; File C:\Program Files (x86)\Microsoft Visual Studio\2019\Professional\VC\Tools\MSVC\14.29.30133\include\utility

; 105  :     _Left    = _STD move(_Right);

  00091	8b 5d 08	 mov	 ebx, DWORD PTR __First$[ebp]
  00094	8b 0a		 mov	 ecx, DWORD PTR [edx]
  00096	8b 03		 mov	 eax, DWORD PTR [ebx]
  00098	89 02		 mov	 DWORD PTR [edx], eax

; 106  :     _Right   = _STD move(_Tmp);

  0009a	89 0b		 mov	 DWORD PTR [ebx], ecx
$LN61@Med3_unche:
; File C:\Program Files (x86)\Microsoft Visual Studio\2019\Professional\VC\Tools\MSVC\14.29.30133\include\algorithm

; 7268 :     if (_DEBUG_LT_PRED(_Pred, *_Last, *_Mid)) { // swap middle and last, then test first again

  0009c	8b 75 10	 mov	 esi, DWORD PTR __Last$[ebp]
; File C:\Users\murat\Desktop\Siveps2-1-99-Project\source\client\Client\GameLib\MapOutdoorRender.cpp

; 357  : 		CCamera * pCurrentCamera = CCameraManager::Instance().GetCurrentCamera();

  0009f	8b 0d 00 00 00
	00		 mov	 ecx, DWORD PTR ?ms_singleton@?$CSingleton@VCCameraManager@@@@0PAVCCameraManager@@A ; CSingleton<CCameraManager>::ms_singleton
; File C:\Program Files (x86)\Microsoft Visual Studio\2019\Professional\VC\Tools\MSVC\14.29.30133\include\algorithm

; 7268 :     if (_DEBUG_LT_PRED(_Pred, *_Last, *_Mid)) { // swap middle and last, then test first again

  000a5	8b 3a		 mov	 edi, DWORD PTR [edx]
  000a7	8b 36		 mov	 esi, DWORD PTR [esi]
; File C:\Users\murat\Desktop\Siveps2-1-99-Project\source\client\Client\GameLib\MapOutdoorRender.cpp

; 357  : 		CCamera * pCurrentCamera = CCameraManager::Instance().GetCurrentCamera();

  000a9	e8 00 00 00 00	 call	 ?GetCurrentCamera@CCameraManager@@QAEPAVCCamera@@XZ ; CCameraManager::GetCurrentCamera

; 358  : 		const D3DXVECTOR3 & c_rv3CameraPos = pCurrentCamera->GetEye();
; 359  : 		const D3DXVECTOR3 & c_v3LeftPos  = pkLeft->GetPosition();

  000ae	8b ce		 mov	 ecx, esi
  000b0	8b d8		 mov	 ebx, eax
  000b2	e8 00 00 00 00	 call	 ?GetPosition@CGraphicObjectInstance@@QBEABUD3DXVECTOR3@@XZ ; CGraphicObjectInstance::GetPosition

; 360  : 		const D3DXVECTOR3 & c_v3RightPos = pkRight->GetPosition();

  000b7	8b cf		 mov	 ecx, edi
  000b9	8b f0		 mov	 esi, eax
  000bb	e8 00 00 00 00	 call	 ?GetPosition@CGraphicObjectInstance@@QBEABUD3DXVECTOR3@@XZ ; CGraphicObjectInstance::GetPosition
; File C:\Users\murat\Desktop\Siveps2-1-99-Project\source\client\extern\include\d3dx8math.inl

; 263  :     return D3DXVECTOR3(x - v.x, y - v.y, z - v.z);

  000c0	f3 0f 10 6b 30	 movss	 xmm5, DWORD PTR [ebx+48]
  000c5	f3 0f 10 63 34	 movss	 xmm4, DWORD PTR [ebx+52]
  000ca	0f 28 cd	 movaps	 xmm1, xmm5
  000cd	f3 0f 5c 0e	 subss	 xmm1, DWORD PTR [esi]
  000d1	f3 0f 5c 28	 subss	 xmm5, DWORD PTR [eax]
  000d5	f3 0f 10 53 38	 movss	 xmm2, DWORD PTR [ebx+56]
  000da	0f 28 dc	 movaps	 xmm3, xmm4
  000dd	f3 0f 5c 5e 04	 subss	 xmm3, DWORD PTR [esi+4]
  000e2	f3 0f 5c 60 04	 subss	 xmm4, DWORD PTR [eax+4]
  000e7	0f 28 c2	 movaps	 xmm0, xmm2

; 1253 :     return pV->x * pV->x + pV->y * pV->y + pV->z * pV->z;

  000ea	f3 0f 59 c9	 mulss	 xmm1, xmm1

; 263  :     return D3DXVECTOR3(x - v.x, y - v.y, z - v.z);

  000ee	f3 0f 5c 46 08	 subss	 xmm0, DWORD PTR [esi+8]
  000f3	f3 0f 5c 50 08	 subss	 xmm2, DWORD PTR [eax+8]

; 182  :     z = fz;

  000f8	f3 0f 59 db	 mulss	 xmm3, xmm3

; 1253 :     return pV->x * pV->x + pV->y * pV->y + pV->z * pV->z;

  000fc	f3 0f 59 e4	 mulss	 xmm4, xmm4
; File C:\Users\murat\Desktop\Siveps2-1-99-Project\source\client\Client\GameLib\MapOutdoorRender.cpp

; 362  : 		return D3DXVec3LengthSq(&D3DXVECTOR3(c_rv3CameraPos - c_v3LeftPos)) < D3DXVec3LengthSq(&D3DXVECTOR3(c_rv3CameraPos - c_v3RightPos) );

  00100	f3 0f 59 ed	 mulss	 xmm5, xmm5
; File C:\Users\murat\Desktop\Siveps2-1-99-Project\source\client\extern\include\d3dx8math.inl

; 1253 :     return pV->x * pV->x + pV->y * pV->y + pV->z * pV->z;

  00104	f3 0f 58 d9	 addss	 xmm3, xmm1
  00108	f3 0f 59 c0	 mulss	 xmm0, xmm0
  0010c	f3 0f 58 e5	 addss	 xmm4, xmm5
  00110	f3 0f 59 d2	 mulss	 xmm2, xmm2
  00114	f3 0f 58 d8	 addss	 xmm3, xmm0
  00118	f3 0f 58 e2	 addss	 xmm4, xmm2
; File C:\Users\murat\Desktop\Siveps2-1-99-Project\source\client\Client\GameLib\MapOutdoorRender.cpp

; 362  : 		return D3DXVec3LengthSq(&D3DXVECTOR3(c_rv3CameraPos - c_v3LeftPos)) < D3DXVec3LengthSq(&D3DXVECTOR3(c_rv3CameraPos - c_v3RightPos) );

  0011c	0f 2f e3	 comiss	 xmm4, xmm3
; File C:\Program Files (x86)\Microsoft Visual Studio\2019\Professional\VC\Tools\MSVC\14.29.30133\include\algorithm

; 7268 :     if (_DEBUG_LT_PRED(_Pred, *_Last, *_Mid)) { // swap middle and last, then test first again

  0011f	0f 86 9f 00 00
	00		 jbe	 $LN59@Med3_unche
; File C:\Program Files (x86)\Microsoft Visual Studio\2019\Professional\VC\Tools\MSVC\14.29.30133\include\utility

; 104  :     _Ty _Tmp = _STD move(_Left);

  00125	8b 55 10	 mov	 edx, DWORD PTR __Last$[ebp]

; 105  :     _Left    = _STD move(_Right);

  00128	8b 4d 0c	 mov	 ecx, DWORD PTR __Mid$[ebp]
  0012b	8b 3a		 mov	 edi, DWORD PTR [edx]
  0012d	8b 01		 mov	 eax, DWORD PTR [ecx]
  0012f	89 02		 mov	 DWORD PTR [edx], eax
; File C:\Program Files (x86)\Microsoft Visual Studio\2019\Professional\VC\Tools\MSVC\14.29.30133\include\algorithm

; 7271 :         if (_DEBUG_LT_PRED(_Pred, *_Mid, *_First)) {

  00131	8b 45 08	 mov	 eax, DWORD PTR __First$[ebp]
; File C:\Program Files (x86)\Microsoft Visual Studio\2019\Professional\VC\Tools\MSVC\14.29.30133\include\utility

; 106  :     _Right   = _STD move(_Tmp);

  00134	89 39		 mov	 DWORD PTR [ecx], edi
; File C:\Users\murat\Desktop\Siveps2-1-99-Project\source\client\Client\GameLib\MapOutdoorRender.cpp

; 357  : 		CCamera * pCurrentCamera = CCameraManager::Instance().GetCurrentCamera();

  00136	8b 0d 00 00 00
	00		 mov	 ecx, DWORD PTR ?ms_singleton@?$CSingleton@VCCameraManager@@@@0PAVCCameraManager@@A ; CSingleton<CCameraManager>::ms_singleton
; File C:\Program Files (x86)\Microsoft Visual Studio\2019\Professional\VC\Tools\MSVC\14.29.30133\include\algorithm

; 7271 :         if (_DEBUG_LT_PRED(_Pred, *_Mid, *_First)) {

  0013c	8b 30		 mov	 esi, DWORD PTR [eax]
; File C:\Users\murat\Desktop\Siveps2-1-99-Project\source\client\Client\GameLib\MapOutdoorRender.cpp

; 357  : 		CCamera * pCurrentCamera = CCameraManager::Instance().GetCurrentCamera();

  0013e	e8 00 00 00 00	 call	 ?GetCurrentCamera@CCameraManager@@QAEPAVCCamera@@XZ ; CCameraManager::GetCurrentCamera

; 358  : 		const D3DXVECTOR3 & c_rv3CameraPos = pCurrentCamera->GetEye();
; 359  : 		const D3DXVECTOR3 & c_v3LeftPos  = pkLeft->GetPosition();

  00143	8b cf		 mov	 ecx, edi
  00145	8b d8		 mov	 ebx, eax
  00147	e8 00 00 00 00	 call	 ?GetPosition@CGraphicObjectInstance@@QBEABUD3DXVECTOR3@@XZ ; CGraphicObjectInstance::GetPosition

; 360  : 		const D3DXVECTOR3 & c_v3RightPos = pkRight->GetPosition();

  0014c	8b ce		 mov	 ecx, esi
  0014e	8b f8		 mov	 edi, eax
  00150	e8 00 00 00 00	 call	 ?GetPosition@CGraphicObjectInstance@@QBEABUD3DXVECTOR3@@XZ ; CGraphicObjectInstance::GetPosition
; File C:\Users\murat\Desktop\Siveps2-1-99-Project\source\client\extern\include\d3dx8math.inl

; 263  :     return D3DXVECTOR3(x - v.x, y - v.y, z - v.z);

  00155	f3 0f 10 6b 30	 movss	 xmm5, DWORD PTR [ebx+48]
  0015a	f3 0f 10 63 34	 movss	 xmm4, DWORD PTR [ebx+52]
  0015f	0f 28 cd	 movaps	 xmm1, xmm5
  00162	f3 0f 5c 0f	 subss	 xmm1, DWORD PTR [edi]
  00166	f3 0f 5c 28	 subss	 xmm5, DWORD PTR [eax]
  0016a	f3 0f 10 53 38	 movss	 xmm2, DWORD PTR [ebx+56]
  0016f	0f 28 dc	 movaps	 xmm3, xmm4
  00172	f3 0f 5c 5f 04	 subss	 xmm3, DWORD PTR [edi+4]
  00177	f3 0f 5c 60 04	 subss	 xmm4, DWORD PTR [eax+4]
  0017c	0f 28 c2	 movaps	 xmm0, xmm2

; 182  :     z = fz;

  0017f	f3 0f 59 c9	 mulss	 xmm1, xmm1

; 263  :     return D3DXVECTOR3(x - v.x, y - v.y, z - v.z);

  00183	f3 0f 5c 47 08	 subss	 xmm0, DWORD PTR [edi+8]
  00188	f3 0f 5c 50 08	 subss	 xmm2, DWORD PTR [eax+8]

; 1253 :     return pV->x * pV->x + pV->y * pV->y + pV->z * pV->z;

  0018d	f3 0f 59 db	 mulss	 xmm3, xmm3
  00191	f3 0f 59 e4	 mulss	 xmm4, xmm4
; File C:\Users\murat\Desktop\Siveps2-1-99-Project\source\client\Client\GameLib\MapOutdoorRender.cpp

; 362  : 		return D3DXVec3LengthSq(&D3DXVECTOR3(c_rv3CameraPos - c_v3LeftPos)) < D3DXVec3LengthSq(&D3DXVECTOR3(c_rv3CameraPos - c_v3RightPos) );

  00195	f3 0f 59 ed	 mulss	 xmm5, xmm5
; File C:\Users\murat\Desktop\Siveps2-1-99-Project\source\client\extern\include\d3dx8math.inl

; 1253 :     return pV->x * pV->x + pV->y * pV->y + pV->z * pV->z;

  00199	f3 0f 58 d9	 addss	 xmm3, xmm1
  0019d	f3 0f 59 c0	 mulss	 xmm0, xmm0
  001a1	f3 0f 58 e5	 addss	 xmm4, xmm5
  001a5	f3 0f 59 d2	 mulss	 xmm2, xmm2
  001a9	f3 0f 58 d8	 addss	 xmm3, xmm0
  001ad	f3 0f 58 e2	 addss	 xmm4, xmm2
; File C:\Users\murat\Desktop\Siveps2-1-99-Project\source\client\Client\GameLib\MapOutdoorRender.cpp

; 362  : 		return D3DXVec3LengthSq(&D3DXVECTOR3(c_rv3CameraPos - c_v3LeftPos)) < D3DXVec3LengthSq(&D3DXVECTOR3(c_rv3CameraPos - c_v3RightPos) );

  001b1	0f 2f e3	 comiss	 xmm4, xmm3
; File C:\Program Files (x86)\Microsoft Visual Studio\2019\Professional\VC\Tools\MSVC\14.29.30133\include\algorithm

; 7271 :         if (_DEBUG_LT_PRED(_Pred, *_Mid, *_First)) {

  001b4	76 0e		 jbe	 SHORT $LN59@Med3_unche
; File C:\Program Files (x86)\Microsoft Visual Studio\2019\Professional\VC\Tools\MSVC\14.29.30133\include\utility

; 104  :     _Ty _Tmp = _STD move(_Left);

  001b6	8b 55 0c	 mov	 edx, DWORD PTR __Mid$[ebp]

; 105  :     _Left    = _STD move(_Right);

  001b9	8b 5d 08	 mov	 ebx, DWORD PTR __First$[ebp]
  001bc	8b 0a		 mov	 ecx, DWORD PTR [edx]
  001be	8b 03		 mov	 eax, DWORD PTR [ebx]
  001c0	89 02		 mov	 DWORD PTR [edx], eax

; 106  :     _Right   = _STD move(_Tmp);

  001c2	89 0b		 mov	 DWORD PTR [ebx], ecx
$LN59@Med3_unche:
  001c4	5f		 pop	 edi
; File C:\Program Files (x86)\Microsoft Visual Studio\2019\Professional\VC\Tools\MSVC\14.29.30133\include\algorithm

; 7275 : }

  001c5	5e		 pop	 esi
  001c6	5b		 pop	 ebx
  001c7	5d		 pop	 ebp
  001c8	c3		 ret	 0
??$_Med3_unchecked@PAPAVCGraphicThingInstance@@UCMapOutdoor_LessThingInstancePtrRenderOrder@@@std@@YAXPAPAVCGraphicThingInstance@@00UCMapOutdoor_LessThingInstancePtrRenderOrder@@@Z ENDP ; std::_Med3_unchecked<CGraphicThingInstance * *,CMapOutdoor_LessThingInstancePtrRenderOrder>
_TEXT	ENDS
; Function compile flags: /Ogtp
; File C:\Program Files (x86)\Microsoft Visual Studio\2019\Professional\VC\Tools\MSVC\14.29.30133\include\xutility
;	COMDAT ??$_Copy_backward_memmove@PAPAVCGraphicThingInstance@@PAPAV1@@std@@YAPAPAVCGraphicThingInstance@@PAPAV1@00@Z
_TEXT	SEGMENT
__First$ = 8						; size = 4
__Last$ = 12						; size = 4
__Dest$ = 16						; size = 4
??$_Copy_backward_memmove@PAPAVCGraphicThingInstance@@PAPAV1@@std@@YAPAPAVCGraphicThingInstance@@PAPAV1@00@Z PROC ; std::_Copy_backward_memmove<CGraphicThingInstance * *,CGraphicThingInstance * *>, COMDAT

; 4354 : _CtgIt2 _Copy_backward_memmove(_CtgIt1 _First, _CtgIt1 _Last, _CtgIt2 _Dest) {

  00000	55		 push	 ebp
  00001	8b ec		 mov	 ebp, esp

; 4355 :     // implement copy_backward-like function as memmove
; 4356 :     auto _FirstPtr              = _To_address(_First);
; 4357 :     auto _LastPtr               = _To_address(_Last);
; 4358 :     auto _DestPtr               = _To_address(_Dest);
; 4359 :     const char* const _First_ch = const_cast<const char*>(reinterpret_cast<const volatile char*>(_FirstPtr));
; 4360 :     const char* const _Last_ch  = const_cast<const char*>(reinterpret_cast<const volatile char*>(_LastPtr));
; 4361 :     char* const _Dest_ch        = const_cast<char*>(reinterpret_cast<const volatile char*>(_DestPtr));
; 4362 :     const auto _Count           = static_cast<size_t>(_Last_ch - _First_ch);

  00003	8b 45 08	 mov	 eax, DWORD PTR __First$[ebp]
  00006	8b 4d 0c	 mov	 ecx, DWORD PTR __Last$[ebp]
  00009	2b c8		 sub	 ecx, eax

; 4363 :     auto _Result                = _CSTD memmove(_Dest_ch - _Count, _First_ch, _Count);

  0000b	51		 push	 ecx
  0000c	50		 push	 eax
  0000d	8b 45 10	 mov	 eax, DWORD PTR __Dest$[ebp]
  00010	2b c1		 sub	 eax, ecx
  00012	50		 push	 eax
  00013	e8 00 00 00 00	 call	 _memmove
  00018	83 c4 0c	 add	 esp, 12			; 0000000cH

; 4364 :     if constexpr (is_pointer_v<_CtgIt2>) {
; 4365 :         return static_cast<_CtgIt2>(_Result);
; 4366 :     } else {
; 4367 :         return _Dest - (_LastPtr - _FirstPtr);
; 4368 :     }
; 4369 : }

  0001b	5d		 pop	 ebp
  0001c	c3		 ret	 0
??$_Copy_backward_memmove@PAPAVCGraphicThingInstance@@PAPAV1@@std@@YAPAPAVCGraphicThingInstance@@PAPAV1@00@Z ENDP ; std::_Copy_backward_memmove<CGraphicThingInstance * *,CGraphicThingInstance * *>
_TEXT	ENDS
; Function compile flags: /Ogtp
; File C:\Program Files (x86)\Microsoft Visual Studio\2019\Professional\VC\Tools\MSVC\14.29.30133\include\algorithm
; File C:\Users\murat\Desktop\Siveps2-1-99-Project\source\client\Client\GameLib\Area.h
; File C:\Program Files (x86)\Microsoft Visual Studio\2019\Professional\VC\Tools\MSVC\14.29.30133\include\algorithm
; File C:\Users\murat\Desktop\Siveps2-1-99-Project\source\client\Client\GameLib\Area.h
; File C:\Program Files (x86)\Microsoft Visual Studio\2019\Professional\VC\Tools\MSVC\14.29.30133\include\algorithm
; File C:\Program Files (x86)\Microsoft Visual Studio\2019\Professional\VC\Tools\MSVC\14.29.30133\include\utility
; File C:\Users\murat\Desktop\Siveps2-1-99-Project\source\client\Client\GameLib\Area.h
; File C:\Program Files (x86)\Microsoft Visual Studio\2019\Professional\VC\Tools\MSVC\14.29.30133\include\algorithm
; File C:\Program Files (x86)\Microsoft Visual Studio\2019\Professional\VC\Tools\MSVC\14.29.30133\include\utility
; File C:\Users\murat\Desktop\Siveps2-1-99-Project\source\client\Client\GameLib\Area.h
; File C:\Program Files (x86)\Microsoft Visual Studio\2019\Professional\VC\Tools\MSVC\14.29.30133\include\algorithm
; File C:\Program Files (x86)\Microsoft Visual Studio\2019\Professional\VC\Tools\MSVC\14.29.30133\include\utility
; File C:\Program Files (x86)\Microsoft Visual Studio\2019\Professional\VC\Tools\MSVC\14.29.30133\include\algorithm
;	COMDAT ??$_Med3_unchecked@PAUSCRCWithNumber@CArea@@UCRCNumComp@2@@std@@YAXPAUSCRCWithNumber@CArea@@00UCRCNumComp@2@@Z
_TEXT	SEGMENT
__Tmp$1$ = 8						; size = 4
__First$ = 8						; size = 4
__Mid$ = 12						; size = 4
__Last$ = 16						; size = 4
__Pred$ = 20						; size = 1
??$_Med3_unchecked@PAUSCRCWithNumber@CArea@@UCRCNumComp@2@@std@@YAXPAUSCRCWithNumber@CArea@@00UCRCNumComp@2@@Z PROC ; std::_Med3_unchecked<CArea::SCRCWithNumber *,CArea::CRCNumComp>, COMDAT

; 7262 : _CONSTEXPR20 void _Med3_unchecked(_RanIt _First, _RanIt _Mid, _RanIt _Last, _Pr _Pred) {

  00000	55		 push	 ebp
  00001	8b ec		 mov	 ebp, esp
  00003	53		 push	 ebx
; File C:\Users\murat\Desktop\Siveps2-1-99-Project\source\client\Client\GameLib\Area.h

; 191  : 				return lhs.dwNumber > rhs.dwNumber;

  00004	8b 5d 0c	 mov	 ebx, DWORD PTR __Mid$[ebp]
; File C:\Program Files (x86)\Microsoft Visual Studio\2019\Professional\VC\Tools\MSVC\14.29.30133\include\algorithm

; 7262 : _CONSTEXPR20 void _Med3_unchecked(_RanIt _First, _RanIt _Mid, _RanIt _Last, _Pr _Pred) {

  00007	56		 push	 esi
  00008	57		 push	 edi
; File C:\Users\murat\Desktop\Siveps2-1-99-Project\source\client\Client\GameLib\Area.h

; 191  : 				return lhs.dwNumber > rhs.dwNumber;

  00009	8b 7d 08	 mov	 edi, DWORD PTR __First$[ebp]
  0000c	8b 43 04	 mov	 eax, DWORD PTR [ebx+4]
  0000f	3b 47 04	 cmp	 eax, DWORD PTR [edi+4]
; File C:\Program Files (x86)\Microsoft Visual Studio\2019\Professional\VC\Tools\MSVC\14.29.30133\include\algorithm

; 7264 :     if (_DEBUG_LT_PRED(_Pred, *_Mid, *_First)) {

  00012	76 16		 jbe	 SHORT $LN25@Med3_unche
; File C:\Program Files (x86)\Microsoft Visual Studio\2019\Professional\VC\Tools\MSVC\14.29.30133\include\utility

; 104  :     _Ty _Tmp = _STD move(_Left);

  00014	8b 13		 mov	 edx, DWORD PTR [ebx]
  00016	8b f0		 mov	 esi, eax

; 105  :     _Left    = _STD move(_Right);

  00018	8b 07		 mov	 eax, DWORD PTR [edi]
  0001a	8b 4f 04	 mov	 ecx, DWORD PTR [edi+4]
  0001d	89 03		 mov	 DWORD PTR [ebx], eax
  0001f	89 4b 04	 mov	 DWORD PTR [ebx+4], ecx

; 106  :     _Right   = _STD move(_Tmp);

  00022	89 17		 mov	 DWORD PTR [edi], edx
  00024	89 77 04	 mov	 DWORD PTR [edi+4], esi
  00027	8b 43 04	 mov	 eax, DWORD PTR [ebx+4]
$LN25@Med3_unche:
; File C:\Users\murat\Desktop\Siveps2-1-99-Project\source\client\Client\GameLib\Area.h

; 191  : 				return lhs.dwNumber > rhs.dwNumber;

  0002a	8b 55 10	 mov	 edx, DWORD PTR __Last$[ebp]
  0002d	39 42 04	 cmp	 DWORD PTR [edx+4], eax
; File C:\Program Files (x86)\Microsoft Visual Studio\2019\Professional\VC\Tools\MSVC\14.29.30133\include\algorithm

; 7268 :     if (_DEBUG_LT_PRED(_Pred, *_Last, *_Mid)) { // swap middle and last, then test first again

  00030	76 2e		 jbe	 SHORT $LN23@Med3_unche
; File C:\Program Files (x86)\Microsoft Visual Studio\2019\Professional\VC\Tools\MSVC\14.29.30133\include\utility

; 104  :     _Ty _Tmp = _STD move(_Left);

