; Listing generated by Microsoft (R) Optimizing Compiler Version 19.29.30137.0 

	TITLE	C:\Users\murat\Desktop\Siveps2-1-99-Project\source\client\Client\GameLib\Distribute\RaceData.obj
	.686P
	.XMM
	include listing.inc
	.model	flat

INCLUDELIB LIBCMT
INCLUDELIB OLDNAMES

PUBLIC	??_R4?$CDynamicPool@USMotionModeData@CRaceData@@@@6B@ ; CDynamicPool<CRaceData::SMotionModeData>::`RTTI Complete Object Locator'
PUBLIC	??_R0?AV?$CDynamicPool@USMotionModeData@CRaceData@@@@@8 ; CDynamicPool<CRaceData::SMotionModeData> `RTTI Type Descriptor'
PUBLIC	??_R3?$CDynamicPool@USMotionModeData@CRaceData@@@@8 ; CDynamicPool<CRaceData::SMotionModeData>::`RTTI Class Hierarchy Descriptor'
PUBLIC	??_R2?$CDynamicPool@USMotionModeData@CRaceData@@@@8 ; CDynamicPool<CRaceData::SMotionModeData>::`RTTI Base Class Array'
PUBLIC	??_R1A@?0A@EA@?$CDynamicPool@USMotionModeData@CRaceData@@@@8 ; CDynamicPool<CRaceData::SMotionModeData>::`RTTI Base Class Descriptor at (0,-1,0,64)'
PUBLIC	??_R4?$CDynamicPool@VCRaceData@@@@6B@		; CDynamicPool<CRaceData>::`RTTI Complete Object Locator'
PUBLIC	??_R0?AV?$CDynamicPool@VCRaceData@@@@@8		; CDynamicPool<CRaceData> `RTTI Type Descriptor'
PUBLIC	??_R3?$CDynamicPool@VCRaceData@@@@8		; CDynamicPool<CRaceData>::`RTTI Class Hierarchy Descriptor'
PUBLIC	??_R2?$CDynamicPool@VCRaceData@@@@8		; CDynamicPool<CRaceData>::`RTTI Base Class Array'
PUBLIC	??_R1A@?0A@EA@?$CDynamicPool@VCRaceData@@@@8	; CDynamicPool<CRaceData>::`RTTI Base Class Descriptor at (0,-1,0,64)'
PUBLIC	??_R4?$CDynamicPoolEx@VCHeaderDecorator@NEffectUpdateDecorator@@@@6B@ ; CDynamicPoolEx<NEffectUpdateDecorator::CHeaderDecorator>::`RTTI Complete Object Locator'
PUBLIC	??_R0?AV?$CDynamicPoolEx@VCHeaderDecorator@NEffectUpdateDecorator@@@@@8 ; CDynamicPoolEx<NEffectUpdateDecorator::CHeaderDecorator> `RTTI Type Descriptor'
PUBLIC	??_R3?$CDynamicPoolEx@VCHeaderDecorator@NEffectUpdateDecorator@@@@8 ; CDynamicPoolEx<NEffectUpdateDecorator::CHeaderDecorator>::`RTTI Class Hierarchy Descriptor'
PUBLIC	??_R2?$CDynamicPoolEx@VCHeaderDecorator@NEffectUpdateDecorator@@@@8 ; CDynamicPoolEx<NEffectUpdateDecorator::CHeaderDecorator>::`RTTI Base Class Array'
PUBLIC	??_R1A@?0A@EA@?$CDynamicPoolEx@VCHeaderDecorator@NEffectUpdateDecorator@@@@8 ; CDynamicPoolEx<NEffectUpdateDecorator::CHeaderDecorator>::`RTTI Base Class Descriptor at (0,-1,0,64)'
PUBLIC	??_R4?$CDynamicPoolEx@VCNullDecorator@NEffectUpdateDecorator@@@@6B@ ; CDynamicPoolEx<NEffectUpdateDecorator::CNullDecorator>::`RTTI Complete Object Locator'
PUBLIC	??_R0?AV?$CDynamicPoolEx@VCNullDecorator@NEffectUpdateDecorator@@@@@8 ; CDynamicPoolEx<NEffectUpdateDecorator::CNullDecorator> `RTTI Type Descriptor'
PUBLIC	??_R3?$CDynamicPoolEx@VCNullDecorator@NEffectUpdateDecorator@@@@8 ; CDynamicPoolEx<NEffectUpdateDecorator::CNullDecorator>::`RTTI Class Hierarchy Descriptor'
PUBLIC	??_R2?$CDynamicPoolEx@VCNullDecorator@NEffectUpdateDecorator@@@@8 ; CDynamicPoolEx<NEffectUpdateDecorator::CNullDecorator>::`RTTI Base Class Array'
PUBLIC	??_R1A@?0A@EA@?$CDynamicPoolEx@VCNullDecorator@NEffectUpdateDecorator@@@@8 ; CDynamicPoolEx<NEffectUpdateDecorator::CNullDecorator>::`RTTI Base Class Descriptor at (0,-1,0,64)'
PUBLIC	??_R4?$CDynamicPoolEx@VCTextureAnimationCWDecorator@NEffectUpdateDecorator@@@@6B@ ; CDynamicPoolEx<NEffectUpdateDecorator::CTextureAnimationCWDecorator>::`RTTI Complete Object Locator'
PUBLIC	??_R0?AV?$CDynamicPoolEx@VCTextureAnimationCWDecorator@NEffectUpdateDecorator@@@@@8 ; CDynamicPoolEx<NEffectUpdateDecorator::CTextureAnimationCWDecorator> `RTTI Type Descriptor'
PUBLIC	??_R3?$CDynamicPoolEx@VCTextureAnimationCWDecorator@NEffectUpdateDecorator@@@@8 ; CDynamicPoolEx<NEffectUpdateDecorator::CTextureAnimationCWDecorator>::`RTTI Class Hierarchy Descriptor'
PUBLIC	??_R2?$CDynamicPoolEx@VCTextureAnimationCWDecorator@NEffectUpdateDecorator@@@@8 ; CDynamicPoolEx<NEffectUpdateDecorator::CTextureAnimationCWDecorator>::`RTTI Base Class Array'
PUBLIC	??_R1A@?0A@EA@?$CDynamicPoolEx@VCTextureAnimationCWDecorator@NEffectUpdateDecorator@@@@8 ; CDynamicPoolEx<NEffectUpdateDecorator::CTextureAnimationCWDecorator>::`RTTI Base Class Descriptor at (0,-1,0,64)'
PUBLIC	??_R4?$CDynamicPoolEx@VCTextureAnimationCCWDecorator@NEffectUpdateDecorator@@@@6B@ ; CDynamicPoolEx<NEffectUpdateDecorator::CTextureAnimationCCWDecorator>::`RTTI Complete Object Locator'
PUBLIC	??_R0?AV?$CDynamicPoolEx@VCTextureAnimationCCWDecorator@NEffectUpdateDecorator@@@@@8 ; CDynamicPoolEx<NEffectUpdateDecorator::CTextureAnimationCCWDecorator> `RTTI Type Descriptor'
PUBLIC	??_R3?$CDynamicPoolEx@VCTextureAnimationCCWDecorator@NEffectUpdateDecorator@@@@8 ; CDynamicPoolEx<NEffectUpdateDecorator::CTextureAnimationCCWDecorator>::`RTTI Class Hierarchy Descriptor'
PUBLIC	??_R2?$CDynamicPoolEx@VCTextureAnimationCCWDecorator@NEffectUpdateDecorator@@@@8 ; CDynamicPoolEx<NEffectUpdateDecorator::CTextureAnimationCCWDecorator>::`RTTI Base Class Array'
PUBLIC	??_R1A@?0A@EA@?$CDynamicPoolEx@VCTextureAnimationCCWDecorator@NEffectUpdateDecorator@@@@8 ; CDynamicPoolEx<NEffectUpdateDecorator::CTextureAnimationCCWDecorator>::`RTTI Base Class Descriptor at (0,-1,0,64)'
PUBLIC	??_R4?$CDynamicPoolEx@VCTextureAnimationRandomDecorator@NEffectUpdateDecorator@@@@6B@ ; CDynamicPoolEx<NEffectUpdateDecorator::CTextureAnimationRandomDecorator>::`RTTI Complete Object Locator'
PUBLIC	??_R0?AV?$CDynamicPoolEx@VCTextureAnimationRandomDecorator@NEffectUpdateDecorator@@@@@8 ; CDynamicPoolEx<NEffectUpdateDecorator::CTextureAnimationRandomDecorator> `RTTI Type Descriptor'
PUBLIC	??_R3?$CDynamicPoolEx@VCTextureAnimationRandomDecorator@NEffectUpdateDecorator@@@@8 ; CDynamicPoolEx<NEffectUpdateDecorator::CTextureAnimationRandomDecorator>::`RTTI Class Hierarchy Descriptor'
PUBLIC	??_R2?$CDynamicPoolEx@VCTextureAnimationRandomDecorator@NEffectUpdateDecorator@@@@8 ; CDynamicPoolEx<NEffectUpdateDecorator::CTextureAnimationRandomDecorator>::`RTTI Base Class Array'
PUBLIC	??_R1A@?0A@EA@?$CDynamicPoolEx@VCTextureAnimationRandomDecorator@NEffectUpdateDecorator@@@@8 ; CDynamicPoolEx<NEffectUpdateDecorator::CTextureAnimationRandomDecorator>::`RTTI Base Class Descriptor at (0,-1,0,64)'
PUBLIC	??_R4?$CDynamicPoolEx@VCAirResistanceDecorator@NEffectUpdateDecorator@@@@6B@ ; CDynamicPoolEx<NEffectUpdateDecorator::CAirResistanceDecorator>::`RTTI Complete Object Locator'
PUBLIC	??_R0?AV?$CDynamicPoolEx@VCAirResistanceDecorator@NEffectUpdateDecorator@@@@@8 ; CDynamicPoolEx<NEffectUpdateDecorator::CAirResistanceDecorator> `RTTI Type Descriptor'
PUBLIC	??_R3?$CDynamicPoolEx@VCAirResistanceDecorator@NEffectUpdateDecorator@@@@8 ; CDynamicPoolEx<NEffectUpdateDecorator::CAirResistanceDecorator>::`RTTI Class Hierarchy Descriptor'
PUBLIC	??_R2?$CDynamicPoolEx@VCAirResistanceDecorator@NEffectUpdateDecorator@@@@8 ; CDynamicPoolEx<NEffectUpdateDecorator::CAirResistanceDecorator>::`RTTI Base Class Array'
PUBLIC	??_R1A@?0A@EA@?$CDynamicPoolEx@VCAirResistanceDecorator@NEffectUpdateDecorator@@@@8 ; CDynamicPoolEx<NEffectUpdateDecorator::CAirResistanceDecorator>::`RTTI Base Class Descriptor at (0,-1,0,64)'
PUBLIC	??_R4?$CDynamicPoolEx@VCGravityDecorator@NEffectUpdateDecorator@@@@6B@ ; CDynamicPoolEx<NEffectUpdateDecorator::CGravityDecorator>::`RTTI Complete Object Locator'
PUBLIC	??_R0?AV?$CDynamicPoolEx@VCGravityDecorator@NEffectUpdateDecorator@@@@@8 ; CDynamicPoolEx<NEffectUpdateDecorator::CGravityDecorator> `RTTI Type Descriptor'
PUBLIC	??_R3?$CDynamicPoolEx@VCGravityDecorator@NEffectUpdateDecorator@@@@8 ; CDynamicPoolEx<NEffectUpdateDecorator::CGravityDecorator>::`RTTI Class Hierarchy Descriptor'
PUBLIC	??_R2?$CDynamicPoolEx@VCGravityDecorator@NEffectUpdateDecorator@@@@8 ; CDynamicPoolEx<NEffectUpdateDecorator::CGravityDecorator>::`RTTI Base Class Array'
PUBLIC	??_R1A@?0A@EA@?$CDynamicPoolEx@VCGravityDecorator@NEffectUpdateDecorator@@@@8 ; CDynamicPoolEx<NEffectUpdateDecorator::CGravityDecorator>::`RTTI Base Class Descriptor at (0,-1,0,64)'
PUBLIC	??_R4?$CDynamicPoolEx@VCRotationDecorator@NEffectUpdateDecorator@@@@6B@ ; CDynamicPoolEx<NEffectUpdateDecorator::CRotationDecorator>::`RTTI Complete Object Locator'
PUBLIC	??_R0?AV?$CDynamicPoolEx@VCRotationDecorator@NEffectUpdateDecorator@@@@@8 ; CDynamicPoolEx<NEffectUpdateDecorator::CRotationDecorator> `RTTI Type Descriptor'
PUBLIC	??_R3?$CDynamicPoolEx@VCRotationDecorator@NEffectUpdateDecorator@@@@8 ; CDynamicPoolEx<NEffectUpdateDecorator::CRotationDecorator>::`RTTI Class Hierarchy Descriptor'
PUBLIC	??_R2?$CDynamicPoolEx@VCRotationDecorator@NEffectUpdateDecorator@@@@8 ; CDynamicPoolEx<NEffectUpdateDecorator::CRotationDecorator>::`RTTI Base Class Array'
PUBLIC	??_R1A@?0A@EA@?$CDynamicPoolEx@VCRotationDecorator@NEffectUpdateDecorator@@@@8 ; CDynamicPoolEx<NEffectUpdateDecorator::CRotationDecorator>::`RTTI Base Class Descriptor at (0,-1,0,64)'
PUBLIC	??_7?$CDynamicPoolEx@VCRotationDecorator@NEffectUpdateDecorator@@@@6B@ ; CDynamicPoolEx<NEffectUpdateDecorator::CRotationDecorator>::`vftable'
PUBLIC	??_G?$CDynamicPoolEx@VCRotationDecorator@NEffectUpdateDecorator@@@@UAEPAXI@Z ; CDynamicPoolEx<NEffectUpdateDecorator::CRotationDecorator>::`scalar deleting destructor'
PUBLIC	??_7?$CDynamicPoolEx@VCGravityDecorator@NEffectUpdateDecorator@@@@6B@ ; CDynamicPoolEx<NEffectUpdateDecorator::CGravityDecorator>::`vftable'
PUBLIC	??_G?$CDynamicPoolEx@VCGravityDecorator@NEffectUpdateDecorator@@@@UAEPAXI@Z ; CDynamicPoolEx<NEffectUpdateDecorator::CGravityDecorator>::`scalar deleting destructor'
PUBLIC	??_7?$CDynamicPoolEx@VCAirResistanceDecorator@NEffectUpdateDecorator@@@@6B@ ; CDynamicPoolEx<NEffectUpdateDecorator::CAirResistanceDecorator>::`vftable'
PUBLIC	??_G?$CDynamicPoolEx@VCAirResistanceDecorator@NEffectUpdateDecorator@@@@UAEPAXI@Z ; CDynamicPoolEx<NEffectUpdateDecorator::CAirResistanceDecorator>::`scalar deleting destructor'
PUBLIC	??_7?$CDynamicPoolEx@VCTextureAnimationRandomDecorator@NEffectUpdateDecorator@@@@6B@ ; CDynamicPoolEx<NEffectUpdateDecorator::CTextureAnimationRandomDecorator>::`vftable'
PUBLIC	??_G?$CDynamicPoolEx@VCTextureAnimationRandomDecorator@NEffectUpdateDecorator@@@@UAEPAXI@Z ; CDynamicPoolEx<NEffectUpdateDecorator::CTextureAnimationRandomDecorator>::`scalar deleting destructor'
PUBLIC	??_7?$CDynamicPool@VCRaceData@@@@6B@		; CDynamicPool<CRaceData>::`vftable'
PUBLIC	??_G?$CDynamicPool@VCRaceData@@@@UAEPAXI@Z	; CDynamicPool<CRaceData>::`scalar deleting destructor'
PUBLIC	??_7?$CDynamicPoolEx@VCTextureAnimationCCWDecorator@NEffectUpdateDecorator@@@@6B@ ; CDynamicPoolEx<NEffectUpdateDecorator::CTextureAnimationCCWDecorator>::`vftable'
PUBLIC	??_G?$CDynamicPoolEx@VCTextureAnimationCCWDecorator@NEffectUpdateDecorator@@@@UAEPAXI@Z ; CDynamicPoolEx<NEffectUpdateDecorator::CTextureAnimationCCWDecorator>::`scalar deleting destructor'
PUBLIC	??_7?$CDynamicPool@USMotionModeData@CRaceData@@@@6B@ ; CDynamicPool<CRaceData::SMotionModeData>::`vftable'
PUBLIC	??_G?$CDynamicPool@USMotionModeData@CRaceData@@@@UAEPAXI@Z ; CDynamicPool<CRaceData::SMotionModeData>::`scalar deleting destructor'
PUBLIC	??_7?$CDynamicPoolEx@VCTextureAnimationCWDecorator@NEffectUpdateDecorator@@@@6B@ ; CDynamicPoolEx<NEffectUpdateDecorator::CTextureAnimationCWDecorator>::`vftable'
PUBLIC	??_G?$CDynamicPoolEx@VCTextureAnimationCWDecorator@NEffectUpdateDecorator@@@@UAEPAXI@Z ; CDynamicPoolEx<NEffectUpdateDecorator::CTextureAnimationCWDecorator>::`scalar deleting destructor'
PUBLIC	??_7?$CDynamicPoolEx@VCNullDecorator@NEffectUpdateDecorator@@@@6B@ ; CDynamicPoolEx<NEffectUpdateDecorator::CNullDecorator>::`vftable'
PUBLIC	??_G?$CDynamicPoolEx@VCNullDecorator@NEffectUpdateDecorator@@@@UAEPAXI@Z ; CDynamicPoolEx<NEffectUpdateDecorator::CNullDecorator>::`scalar deleting destructor'
PUBLIC	??_7?$CDynamicPoolEx@VCHeaderDecorator@NEffectUpdateDecorator@@@@6B@ ; CDynamicPoolEx<NEffectUpdateDecorator::CHeaderDecorator>::`vftable'
PUBLIC	??_G?$CDynamicPoolEx@VCHeaderDecorator@NEffectUpdateDecorator@@@@UAEPAXI@Z ; CDynamicPoolEx<NEffectUpdateDecorator::CHeaderDecorator>::`scalar deleting destructor'
EXTRN	??_7type_info@@6B@:QWORD			; type_info::`vftable'
EXTRN	??_E?$CDynamicPoolEx@VCRotationDecorator@NEffectUpdateDecorator@@@@UAEPAXI@Z:PROC ; CDynamicPoolEx<NEffectUpdateDecorator::CRotationDecorator>::`vector deleting destructor'
EXTRN	??_E?$CDynamicPoolEx@VCGravityDecorator@NEffectUpdateDecorator@@@@UAEPAXI@Z:PROC ; CDynamicPoolEx<NEffectUpdateDecorator::CGravityDecorator>::`vector deleting destructor'
EXTRN	??_E?$CDynamicPoolEx@VCAirResistanceDecorator@NEffectUpdateDecorator@@@@UAEPAXI@Z:PROC ; CDynamicPoolEx<NEffectUpdateDecorator::CAirResistanceDecorator>::`vector deleting destructor'
EXTRN	??_E?$CDynamicPoolEx@VCTextureAnimationRandomDecorator@NEffectUpdateDecorator@@@@UAEPAXI@Z:PROC ; CDynamicPoolEx<NEffectUpdateDecorator::CTextureAnimationRandomDecorator>::`vector deleting destructor'
EXTRN	??_E?$CDynamicPool@VCRaceData@@@@UAEPAXI@Z:PROC	; CDynamicPool<CRaceData>::`vector deleting destructor'
EXTRN	??_E?$CDynamicPoolEx@VCTextureAnimationCCWDecorator@NEffectUpdateDecorator@@@@UAEPAXI@Z:PROC ; CDynamicPoolEx<NEffectUpdateDecorator::CTextureAnimationCCWDecorator>::`vector deleting destructor'
EXTRN	??_E?$CDynamicPool@USMotionModeData@CRaceData@@@@UAEPAXI@Z:PROC ; CDynamicPool<CRaceData::SMotionModeData>::`vector deleting destructor'
EXTRN	??_E?$CDynamicPoolEx@VCTextureAnimationCWDecorator@NEffectUpdateDecorator@@@@UAEPAXI@Z:PROC ; CDynamicPoolEx<NEffectUpdateDecorator::CTextureAnimationCWDecorator>::`vector deleting destructor'
EXTRN	??_E?$CDynamicPoolEx@VCNullDecorator@NEffectUpdateDecorator@@@@UAEPAXI@Z:PROC ; CDynamicPoolEx<NEffectUpdateDecorator::CNullDecorator>::`vector deleting destructor'
EXTRN	??_E?$CDynamicPoolEx@VCHeaderDecorator@NEffectUpdateDecorator@@@@UAEPAXI@Z:PROC ; CDynamicPoolEx<NEffectUpdateDecorator::CHeaderDecorator>::`vector deleting destructor'
;	COMDAT ??_7?$CDynamicPoolEx@VCHeaderDecorator@NEffectUpdateDecorator@@@@6B@
CONST	SEGMENT
??_7?$CDynamicPoolEx@VCHeaderDecorator@NEffectUpdateDecorator@@@@6B@ DD FLAT:??_R4?$CDynamicPoolEx@VCHeaderDecorator@NEffectUpdateDecorator@@@@6B@ ; CDynamicPoolEx<NEffectUpdateDecorator::CHeaderDecorator>::`vftable'
	DD	FLAT:??_E?$CDynamicPoolEx@VCHeaderDecorator@NEffectUpdateDecorator@@@@UAEPAXI@Z
CONST	ENDS
;	COMDAT ??_7?$CDynamicPoolEx@VCNullDecorator@NEffectUpdateDecorator@@@@6B@
CONST	SEGMENT
??_7?$CDynamicPoolEx@VCNullDecorator@NEffectUpdateDecorator@@@@6B@ DD FLAT:??_R4?$CDynamicPoolEx@VCNullDecorator@NEffectUpdateDecorator@@@@6B@ ; CDynamicPoolEx<NEffectUpdateDecorator::CNullDecorator>::`vftable'
	DD	FLAT:??_E?$CDynamicPoolEx@VCNullDecorator@NEffectUpdateDecorator@@@@UAEPAXI@Z
CONST	ENDS
;	COMDAT ??_7?$CDynamicPoolEx@VCTextureAnimationCWDecorator@NEffectUpdateDecorator@@@@6B@
CONST	SEGMENT
??_7?$CDynamicPoolEx@VCTextureAnimationCWDecorator@NEffectUpdateDecorator@@@@6B@ DD FLAT:??_R4?$CDynamicPoolEx@VCTextureAnimationCWDecorator@NEffectUpdateDecorator@@@@6B@ ; CDynamicPoolEx<NEffectUpdateDecorator::CTextureAnimationCWDecorator>::`vftable'
	DD	FLAT:??_E?$CDynamicPoolEx@VCTextureAnimationCWDecorator@NEffectUpdateDecorator@@@@UAEPAXI@Z
CONST	ENDS
;	COMDAT ??_7?$CDynamicPool@USMotionModeData@CRaceData@@@@6B@
CONST	SEGMENT
??_7?$CDynamicPool@USMotionModeData@CRaceData@@@@6B@ DD FLAT:??_R4?$CDynamicPool@USMotionModeData@CRaceData@@@@6B@ ; CDynamicPool<CRaceData::SMotionModeData>::`vftable'
	DD	FLAT:??_E?$CDynamicPool@USMotionModeData@CRaceData@@@@UAEPAXI@Z
CONST	ENDS
;	COMDAT ??_7?$CDynamicPoolEx@VCTextureAnimationCCWDecorator@NEffectUpdateDecorator@@@@6B@
CONST	SEGMENT
??_7?$CDynamicPoolEx@VCTextureAnimationCCWDecorator@NEffectUpdateDecorator@@@@6B@ DD FLAT:??_R4?$CDynamicPoolEx@VCTextureAnimationCCWDecorator@NEffectUpdateDecorator@@@@6B@ ; CDynamicPoolEx<NEffectUpdateDecorator::CTextureAnimationCCWDecorator>::`vftable'
	DD	FLAT:??_E?$CDynamicPoolEx@VCTextureAnimationCCWDecorator@NEffectUpdateDecorator@@@@UAEPAXI@Z
CONST	ENDS
;	COMDAT ??_7?$CDynamicPool@VCRaceData@@@@6B@
CONST	SEGMENT
??_7?$CDynamicPool@VCRaceData@@@@6B@ DD FLAT:??_R4?$CDynamicPool@VCRaceData@@@@6B@ ; CDynamicPool<CRaceData>::`vftable'
	DD	FLAT:??_E?$CDynamicPool@VCRaceData@@@@UAEPAXI@Z
CONST	ENDS
;	COMDAT ??_7?$CDynamicPoolEx@VCTextureAnimationRandomDecorator@NEffectUpdateDecorator@@@@6B@
CONST	SEGMENT
??_7?$CDynamicPoolEx@VCTextureAnimationRandomDecorator@NEffectUpdateDecorator@@@@6B@ DD FLAT:??_R4?$CDynamicPoolEx@VCTextureAnimationRandomDecorator@NEffectUpdateDecorator@@@@6B@ ; CDynamicPoolEx<NEffectUpdateDecorator::CTextureAnimationRandomDecorator>::`vftable'
	DD	FLAT:??_E?$CDynamicPoolEx@VCTextureAnimationRandomDecorator@NEffectUpdateDecorator@@@@UAEPAXI@Z
CONST	ENDS
;	COMDAT ??_7?$CDynamicPoolEx@VCAirResistanceDecorator@NEffectUpdateDecorator@@@@6B@
CONST	SEGMENT
??_7?$CDynamicPoolEx@VCAirResistanceDecorator@NEffectUpdateDecorator@@@@6B@ DD FLAT:??_R4?$CDynamicPoolEx@VCAirResistanceDecorator@NEffectUpdateDecorator@@@@6B@ ; CDynamicPoolEx<NEffectUpdateDecorator::CAirResistanceDecorator>::`vftable'
	DD	FLAT:??_E?$CDynamicPoolEx@VCAirResistanceDecorator@NEffectUpdateDecorator@@@@UAEPAXI@Z
CONST	ENDS
;	COMDAT ??_7?$CDynamicPoolEx@VCGravityDecorator@NEffectUpdateDecorator@@@@6B@
CONST	SEGMENT
??_7?$CDynamicPoolEx@VCGravityDecorator@NEffectUpdateDecorator@@@@6B@ DD FLAT:??_R4?$CDynamicPoolEx@VCGravityDecorator@NEffectUpdateDecorator@@@@6B@ ; CDynamicPoolEx<NEffectUpdateDecorator::CGravityDecorator>::`vftable'
	DD	FLAT:??_E?$CDynamicPoolEx@VCGravityDecorator@NEffectUpdateDecorator@@@@UAEPAXI@Z
CONST	ENDS
;	COMDAT ??_7?$CDynamicPoolEx@VCRotationDecorator@NEffectUpdateDecorator@@@@6B@
CONST	SEGMENT
??_7?$CDynamicPoolEx@VCRotationDecorator@NEffectUpdateDecorator@@@@6B@ DD FLAT:??_R4?$CDynamicPoolEx@VCRotationDecorator@NEffectUpdateDecorator@@@@6B@ ; CDynamicPoolEx<NEffectUpdateDecorator::CRotationDecorator>::`vftable'
	DD	FLAT:??_E?$CDynamicPoolEx@VCRotationDecorator@NEffectUpdateDecorator@@@@UAEPAXI@Z
CONST	ENDS
CONST	SEGMENT
?piecewise_construct@std@@3Upiecewise_construct_t@1@B	ORG $+1 ; std::piecewise_construct
?_Fake_alloc@std@@3U_Fake_allocator@1@B	ORG $+1		; std::_Fake_alloc
CONST	ENDS
;	COMDAT ??_R1A@?0A@EA@?$CDynamicPoolEx@VCRotationDecorator@NEffectUpdateDecorator@@@@8
rdata$r	SEGMENT
??_R1A@?0A@EA@?$CDynamicPoolEx@VCRotationDecorator@NEffectUpdateDecorator@@@@8 DD FLAT:??_R0?AV?$CDynamicPoolEx@VCRotationDecorator@NEffectUpdateDecorator@@@@@8 ; CDynamicPoolEx<NEffectUpdateDecorator::CRotationDecorator>::`RTTI Base Class Descriptor at (0,-1,0,64)'
	DD	00H
	DD	00H
	DD	0ffffffffH
	DD	00H
	DD	040H
	DD	FLAT:??_R3?$CDynamicPoolEx@VCRotationDecorator@NEffectUpdateDecorator@@@@8
rdata$r	ENDS
;	COMDAT ??_R2?$CDynamicPoolEx@VCRotationDecorator@NEffectUpdateDecorator@@@@8
rdata$r	SEGMENT
??_R2?$CDynamicPoolEx@VCRotationDecorator@NEffectUpdateDecorator@@@@8 DD FLAT:??_R1A@?0A@EA@?$CDynamicPoolEx@VCRotationDecorator@NEffectUpdateDecorator@@@@8 ; CDynamicPoolEx<NEffectUpdateDecorator::CRotationDecorator>::`RTTI Base Class Array'
rdata$r	ENDS
;	COMDAT ??_R3?$CDynamicPoolEx@VCRotationDecorator@NEffectUpdateDecorator@@@@8
rdata$r	SEGMENT
??_R3?$CDynamicPoolEx@VCRotationDecorator@NEffectUpdateDecorator@@@@8 DD 00H ; CDynamicPoolEx<NEffectUpdateDecorator::CRotationDecorator>::`RTTI Class Hierarchy Descriptor'
	DD	00H
	DD	01H
	DD	FLAT:??_R2?$CDynamicPoolEx@VCRotationDecorator@NEffectUpdateDecorator@@@@8
rdata$r	ENDS
;	COMDAT ??_R0?AV?$CDynamicPoolEx@VCRotationDecorator@NEffectUpdateDecorator@@@@@8
data$rs	SEGMENT
??_R0?AV?$CDynamicPoolEx@VCRotationDecorator@NEffectUpdateDecorator@@@@@8 DD FLAT:??_7type_info@@6B@ ; CDynamicPoolEx<NEffectUpdateDecorator::CRotationDecorator> `RTTI Type Descriptor'
	DD	00H
	DB	'.?AV?$CDynamicPoolEx@VCRotationDecorator@NEffectUpdateDe'
	DB	'corator@@@@', 00H
data$rs	ENDS
;	COMDAT ??_R4?$CDynamicPoolEx@VCRotationDecorator@NEffectUpdateDecorator@@@@6B@
rdata$r	SEGMENT
??_R4?$CDynamicPoolEx@VCRotationDecorator@NEffectUpdateDecorator@@@@6B@ DD 00H ; CDynamicPoolEx<NEffectUpdateDecorator::CRotationDecorator>::`RTTI Complete Object Locator'
	DD	00H
	DD	00H
	DD	FLAT:??_R0?AV?$CDynamicPoolEx@VCRotationDecorator@NEffectUpdateDecorator@@@@@8
	DD	FLAT:??_R3?$CDynamicPoolEx@VCRotationDecorator@NEffectUpdateDecorator@@@@8
rdata$r	ENDS
;	COMDAT ??_R1A@?0A@EA@?$CDynamicPoolEx@VCGravityDecorator@NEffectUpdateDecorator@@@@8
rdata$r	SEGMENT
??_R1A@?0A@EA@?$CDynamicPoolEx@VCGravityDecorator@NEffectUpdateDecorator@@@@8 DD FLAT:??_R0?AV?$CDynamicPoolEx@VCGravityDecorator@NEffectUpdateDecorator@@@@@8 ; CDynamicPoolEx<NEffectUpdateDecorator::CGravityDecorator>::`RTTI Base Class Descriptor at (0,-1,0,64)'
	DD	00H
	DD	00H
	DD	0ffffffffH
	DD	00H
	DD	040H
	DD	FLAT:??_R3?$CDynamicPoolEx@VCGravityDecorator@NEffectUpdateDecorator@@@@8
rdata$r	ENDS
;	COMDAT ??_R2?$CDynamicPoolEx@VCGravityDecorator@NEffectUpdateDecorator@@@@8
rdata$r	SEGMENT
??_R2?$CDynamicPoolEx@VCGravityDecorator@NEffectUpdateDecorator@@@@8 DD FLAT:??_R1A@?0A@EA@?$CDynamicPoolEx@VCGravityDecorator@NEffectUpdateDecorator@@@@8 ; CDynamicPoolEx<NEffectUpdateDecorator::CGravityDecorator>::`RTTI Base Class Array'
rdata$r	ENDS
;	COMDAT ??_R3?$CDynamicPoolEx@VCGravityDecorator@NEffectUpdateDecorator@@@@8
rdata$r	SEGMENT
??_R3?$CDynamicPoolEx@VCGravityDecorator@NEffectUpdateDecorator@@@@8 DD 00H ; CDynamicPoolEx<NEffectUpdateDecorator::CGravityDecorator>::`RTTI Class Hierarchy Descriptor'
	DD	00H
	DD	01H
	DD	FLAT:??_R2?$CDynamicPoolEx@VCGravityDecorator@NEffectUpdateDecorator@@@@8
rdata$r	ENDS
;	COMDAT ??_R0?AV?$CDynamicPoolEx@VCGravityDecorator@NEffectUpdateDecorator@@@@@8
data$rs	SEGMENT
??_R0?AV?$CDynamicPoolEx@VCGravityDecorator@NEffectUpdateDecorator@@@@@8 DD FLAT:??_7type_info@@6B@ ; CDynamicPoolEx<NEffectUpdateDecorator::CGravityDecorator> `RTTI Type Descriptor'
	DD	00H
	DB	'.?AV?$CDynamicPoolEx@VCGravityDecorator@NEffectUpdateDec'
	DB	'orator@@@@', 00H
data$rs	ENDS
;	COMDAT ??_R4?$CDynamicPoolEx@VCGravityDecorator@NEffectUpdateDecorator@@@@6B@
rdata$r	SEGMENT
??_R4?$CDynamicPoolEx@VCGravityDecorator@NEffectUpdateDecorator@@@@6B@ DD 00H ; CDynamicPoolEx<NEffectUpdateDecorator::CGravityDecorator>::`RTTI Complete Object Locator'
	DD	00H
	DD	00H
	DD	FLAT:??_R0?AV?$CDynamicPoolEx@VCGravityDecorator@NEffectUpdateDecorator@@@@@8
	DD	FLAT:??_R3?$CDynamicPoolEx@VCGravityDecorator@NEffectUpdateDecorator@@@@8
rdata$r	ENDS
;	COMDAT ??_R1A@?0A@EA@?$CDynamicPoolEx@VCAirResistanceDecorator@NEffectUpdateDecorator@@@@8
rdata$r	SEGMENT
??_R1A@?0A@EA@?$CDynamicPoolEx@VCAirResistanceDecorator@NEffectUpdateDecorator@@@@8 DD FLAT:??_R0?AV?$CDynamicPoolEx@VCAirResistanceDecorator@NEffectUpdateDecorator@@@@@8 ; CDynamicPoolEx<NEffectUpdateDecorator::CAirResistanceDecorator>::`RTTI Base Class Descriptor at (0,-1,0,64)'
	DD	00H
	DD	00H
	DD	0ffffffffH
	DD	00H
	DD	040H
	DD	FLAT:??_R3?$CDynamicPoolEx@VCAirResistanceDecorator@NEffectUpdateDecorator@@@@8
rdata$r	ENDS
;	COMDAT ??_R2?$CDynamicPoolEx@VCAirResistanceDecorator@NEffectUpdateDecorator@@@@8
rdata$r	SEGMENT
??_R2?$CDynamicPoolEx@VCAirResistanceDecorator@NEffectUpdateDecorator@@@@8 DD FLAT:??_R1A@?0A@EA@?$CDynamicPoolEx@VCAirResistanceDecorator@NEffectUpdateDecorator@@@@8 ; CDynamicPoolEx<NEffectUpdateDecorator::CAirResistanceDecorator>::`RTTI Base Class Array'
rdata$r	ENDS
;	COMDAT ??_R3?$CDynamicPoolEx@VCAirResistanceDecorator@NEffectUpdateDecorator@@@@8
rdata$r	SEGMENT
??_R3?$CDynamicPoolEx@VCAirResistanceDecorator@NEffectUpdateDecorator@@@@8 DD 00H ; CDynamicPoolEx<NEffectUpdateDecorator::CAirResistanceDecorator>::`RTTI Class Hierarchy Descriptor'
	DD	00H
	DD	01H
	DD	FLAT:??_R2?$CDynamicPoolEx@VCAirResistanceDecorator@NEffectUpdateDecorator@@@@8
rdata$r	ENDS
;	COMDAT ??_R0?AV?$CDynamicPoolEx@VCAirResistanceDecorator@NEffectUpdateDecorator@@@@@8
data$rs	SEGMENT
??_R0?AV?$CDynamicPoolEx@VCAirResistanceDecorator@NEffectUpdateDecorator@@@@@8 DD FLAT:??_7type_info@@6B@ ; CDynamicPoolEx<NEffectUpdateDecorator::CAirResistanceDecorator> `RTTI Type Descriptor'
	DD	00H
	DB	'.?AV?$CDynamicPoolEx@VCAirResistanceDecorator@NEffectUpd'
	DB	'ateDecorator@@@@', 00H
data$rs	ENDS
;	COMDAT ??_R4?$CDynamicPoolEx@VCAirResistanceDecorator@NEffectUpdateDecorator@@@@6B@
rdata$r	SEGMENT
??_R4?$CDynamicPoolEx@VCAirResistanceDecorator@NEffectUpdateDecorator@@@@6B@ DD 00H ; CDynamicPoolEx<NEffectUpdateDecorator::CAirResistanceDecorator>::`RTTI Complete Object Locator'
	DD	00H
	DD	00H
	DD	FLAT:??_R0?AV?$CDynamicPoolEx@VCAirResistanceDecorator@NEffectUpdateDecorator@@@@@8
	DD	FLAT:??_R3?$CDynamicPoolEx@VCAirResistanceDecorator@NEffectUpdateDecorator@@@@8
rdata$r	ENDS
;	COMDAT ??_R1A@?0A@EA@?$CDynamicPoolEx@VCTextureAnimationRandomDecorator@NEffectUpdateDecorator@@@@8
rdata$r	SEGMENT
??_R1A@?0A@EA@?$CDynamicPoolEx@VCTextureAnimationRandomDecorator@NEffectUpdateDecorator@@@@8 DD FLAT:??_R0?AV?$CDynamicPoolEx@VCTextureAnimationRandomDecorator@NEffectUpdateDecorator@@@@@8 ; CDynamicPoolEx<NEffectUpdateDecorator::CTextureAnimationRandomDecorator>::`RTTI Base Class Descriptor at (0,-1,0,64)'
	DD	00H
	DD	00H
	DD	0ffffffffH
	DD	00H
	DD	040H
	DD	FLAT:??_R3?$CDynamicPoolEx@VCTextureAnimationRandomDecorator@NEffectUpdateDecorator@@@@8
rdata$r	ENDS
;	COMDAT ??_R2?$CDynamicPoolEx@VCTextureAnimationRandomDecorator@NEffectUpdateDecorator@@@@8
rdata$r	SEGMENT
??_R2?$CDynamicPoolEx@VCTextureAnimationRandomDecorator@NEffectUpdateDecorator@@@@8 DD FLAT:??_R1A@?0A@EA@?$CDynamicPoolEx@VCTextureAnimationRandomDecorator@NEffectUpdateDecorator@@@@8 ; CDynamicPoolEx<NEffectUpdateDecorator::CTextureAnimationRandomDecorator>::`RTTI Base Class Array'
rdata$r	ENDS
;	COMDAT ??_R3?$CDynamicPoolEx@VCTextureAnimationRandomDecorator@NEffectUpdateDecorator@@@@8
rdata$r	SEGMENT
??_R3?$CDynamicPoolEx@VCTextureAnimationRandomDecorator@NEffectUpdateDecorator@@@@8 DD 00H ; CDynamicPoolEx<NEffectUpdateDecorator::CTextureAnimationRandomDecorator>::`RTTI Class Hierarchy Descriptor'
	DD	00H
	DD	01H
	DD	FLAT:??_R2?$CDynamicPoolEx@VCTextureAnimationRandomDecorator@NEffectUpdateDecorator@@@@8
rdata$r	ENDS
;	COMDAT ??_R0?AV?$CDynamicPoolEx@VCTextureAnimationRandomDecorator@NEffectUpdateDecorator@@@@@8
data$rs	SEGMENT
??_R0?AV?$CDynamicPoolEx@VCTextureAnimationRandomDecorator@NEffectUpdateDecorator@@@@@8 DD FLAT:??_7type_info@@6B@ ; CDynamicPoolEx<NEffectUpdateDecorator::CTextureAnimationRandomDecorator> `RTTI Type Descriptor'
	DD	00H
	DB	'.?AV?$CDynamicPoolEx@VCTextureAnimationRandomDecorator@N'
	DB	'EffectUpdateDecorator@@@@', 00H
data$rs	ENDS
;	COMDAT ??_R4?$CDynamicPoolEx@VCTextureAnimationRandomDecorator@NEffectUpdateDecorator@@@@6B@
rdata$r	SEGMENT
??_R4?$CDynamicPoolEx@VCTextureAnimationRandomDecorator@NEffectUpdateDecorator@@@@6B@ DD 00H ; CDynamicPoolEx<NEffectUpdateDecorator::CTextureAnimationRandomDecorator>::`RTTI Complete Object Locator'
	DD	00H
	DD	00H
	DD	FLAT:??_R0?AV?$CDynamicPoolEx@VCTextureAnimationRandomDecorator@NEffectUpdateDecorator@@@@@8
	DD	FLAT:??_R3?$CDynamicPoolEx@VCTextureAnimationRandomDecorator@NEffectUpdateDecorator@@@@8
rdata$r	ENDS
;	COMDAT ??_R1A@?0A@EA@?$CDynamicPoolEx@VCTextureAnimationCCWDecorator@NEffectUpdateDecorator@@@@8
rdata$r	SEGMENT
??_R1A@?0A@EA@?$CDynamicPoolEx@VCTextureAnimationCCWDecorator@NEffectUpdateDecorator@@@@8 DD FLAT:??_R0?AV?$CDynamicPoolEx@VCTextureAnimationCCWDecorator@NEffectUpdateDecorator@@@@@8 ; CDynamicPoolEx<NEffectUpdateDecorator::CTextureAnimationCCWDecorator>::`RTTI Base Class Descriptor at (0,-1,0,64)'
	DD	00H
	DD	00H
	DD	0ffffffffH
	DD	00H
	DD	040H
	DD	FLAT:??_R3?$CDynamicPoolEx@VCTextureAnimationCCWDecorator@NEffectUpdateDecorator@@@@8
rdata$r	ENDS
;	COMDAT ??_R2?$CDynamicPoolEx@VCTextureAnimationCCWDecorator@NEffectUpdateDecorator@@@@8
rdata$r	SEGMENT
??_R2?$CDynamicPoolEx@VCTextureAnimationCCWDecorator@NEffectUpdateDecorator@@@@8 DD FLAT:??_R1A@?0A@EA@?$CDynamicPoolEx@VCTextureAnimationCCWDecorator@NEffectUpdateDecorator@@@@8 ; CDynamicPoolEx<NEffectUpdateDecorator::CTextureAnimationCCWDecorator>::`RTTI Base Class Array'
rdata$r	ENDS
;	COMDAT ??_R3?$CDynamicPoolEx@VCTextureAnimationCCWDecorator@NEffectUpdateDecorator@@@@8
rdata$r	SEGMENT
??_R3?$CDynamicPoolEx@VCTextureAnimationCCWDecorator@NEffectUpdateDecorator@@@@8 DD 00H ; CDynamicPoolEx<NEffectUpdateDecorator::CTextureAnimationCCWDecorator>::`RTTI Class Hierarchy Descriptor'
	DD	00H
	DD	01H
	DD	FLAT:??_R2?$CDynamicPoolEx@VCTextureAnimationCCWDecorator@NEffectUpdateDecorator@@@@8
rdata$r	ENDS
;	COMDAT ??_R0?AV?$CDynamicPoolEx@VCTextureAnimationCCWDecorator@NEffectUpdateDecorator@@@@@8
data$rs	SEGMENT
??_R0?AV?$CDynamicPoolEx@VCTextureAnimationCCWDecorator@NEffectUpdateDecorator@@@@@8 DD FLAT:??_7type_info@@6B@ ; CDynamicPoolEx<NEffectUpdateDecorator::CTextureAnimationCCWDecorator> `RTTI Type Descriptor'
	DD	00H
	DB	'.?AV?$CDynamicPoolEx@VCTextureAnimationCCWDecorator@NEff'
	DB	'ectUpdateDecorator@@@@', 00H
data$rs	ENDS
;	COMDAT ??_R4?$CDynamicPoolEx@VCTextureAnimationCCWDecorator@NEffectUpdateDecorator@@@@6B@
rdata$r	SEGMENT
??_R4?$CDynamicPoolEx@VCTextureAnimationCCWDecorator@NEffectUpdateDecorator@@@@6B@ DD 00H ; CDynamicPoolEx<NEffectUpdateDecorator::CTextureAnimationCCWDecorator>::`RTTI Complete Object Locator'
	DD	00H
	DD	00H
	DD	FLAT:??_R0?AV?$CDynamicPoolEx@VCTextureAnimationCCWDecorator@NEffectUpdateDecorator@@@@@8
	DD	FLAT:??_R3?$CDynamicPoolEx@VCTextureAnimationCCWDecorator@NEffectUpdateDecorator@@@@8
rdata$r	ENDS
;	COMDAT ??_R1A@?0A@EA@?$CDynamicPoolEx@VCTextureAnimationCWDecorator@NEffectUpdateDecorator@@@@8
rdata$r	SEGMENT
??_R1A@?0A@EA@?$CDynamicPoolEx@VCTextureAnimationCWDecorator@NEffectUpdateDecorator@@@@8 DD FLAT:??_R0?AV?$CDynamicPoolEx@VCTextureAnimationCWDecorator@NEffectUpdateDecorator@@@@@8 ; CDynamicPoolEx<NEffectUpdateDecorator::CTextureAnimationCWDecorator>::`RTTI Base Class Descriptor at (0,-1,0,64)'
	DD	00H
	DD	00H
	DD	0ffffffffH
	DD	00H
	DD	040H
	DD	FLAT:??_R3?$CDynamicPoolEx@VCTextureAnimationCWDecorator@NEffectUpdateDecorator@@@@8
rdata$r	ENDS
;	COMDAT ??_R2?$CDynamicPoolEx@VCTextureAnimationCWDecorator@NEffectUpdateDecorator@@@@8
rdata$r	SEGMENT
??_R2?$CDynamicPoolEx@VCTextureAnimationCWDecorator@NEffectUpdateDecorator@@@@8 DD FLAT:??_R1A@?0A@EA@?$CDynamicPoolEx@VCTextureAnimationCWDecorator@NEffectUpdateDecorator@@@@8 ; CDynamicPoolEx<NEffectUpdateDecorator::CTextureAnimationCWDecorator>::`RTTI Base Class Array'
rdata$r	ENDS
;	COMDAT ??_R3?$CDynamicPoolEx@VCTextureAnimationCWDecorator@NEffectUpdateDecorator@@@@8
rdata$r	SEGMENT
??_R3?$CDynamicPoolEx@VCTextureAnimationCWDecorator@NEffectUpdateDecorator@@@@8 DD 00H ; CDynamicPoolEx<NEffectUpdateDecorator::CTextureAnimationCWDecorator>::`RTTI Class Hierarchy Descriptor'
	DD	00H
	DD	01H
	DD	FLAT:??_R2?$CDynamicPoolEx@VCTextureAnimationCWDecorator@NEffectUpdateDecorator@@@@8
rdata$r	ENDS
;	COMDAT ??_R0?AV?$CDynamicPoolEx@VCTextureAnimationCWDecorator@NEffectUpdateDecorator@@@@@8
data$rs	SEGMENT
??_R0?AV?$CDynamicPoolEx@VCTextureAnimationCWDecorator@NEffectUpdateDecorator@@@@@8 DD FLAT:??_7type_info@@6B@ ; CDynamicPoolEx<NEffectUpdateDecorator::CTextureAnimationCWDecorator> `RTTI Type Descriptor'
	DD	00H
	DB	'.?AV?$CDynamicPoolEx@VCTextureAnimationCWDecorator@NEffe'
	DB	'ctUpdateDecorator@@@@', 00H
data$rs	ENDS
;	COMDAT ??_R4?$CDynamicPoolEx@VCTextureAnimationCWDecorator@NEffectUpdateDecorator@@@@6B@
rdata$r	SEGMENT
??_R4?$CDynamicPoolEx@VCTextureAnimationCWDecorator@NEffectUpdateDecorator@@@@6B@ DD 00H ; CDynamicPoolEx<NEffectUpdateDecorator::CTextureAnimationCWDecorator>::`RTTI Complete Object Locator'
	DD	00H
	DD	00H
	DD	FLAT:??_R0?AV?$CDynamicPoolEx@VCTextureAnimationCWDecorator@NEffectUpdateDecorator@@@@@8
	DD	FLAT:??_R3?$CDynamicPoolEx@VCTextureAnimationCWDecorator@NEffectUpdateDecorator@@@@8
rdata$r	ENDS
;	COMDAT ??_R1A@?0A@EA@?$CDynamicPoolEx@VCNullDecorator@NEffectUpdateDecorator@@@@8
rdata$r	SEGMENT
??_R1A@?0A@EA@?$CDynamicPoolEx@VCNullDecorator@NEffectUpdateDecorator@@@@8 DD FLAT:??_R0?AV?$CDynamicPoolEx@VCNullDecorator@NEffectUpdateDecorator@@@@@8 ; CDynamicPoolEx<NEffectUpdateDecorator::CNullDecorator>::`RTTI Base Class Descriptor at (0,-1,0,64)'
	DD	00H
	DD	00H
	DD	0ffffffffH
	DD	00H
	DD	040H
	DD	FLAT:??_R3?$CDynamicPoolEx@VCNullDecorator@NEffectUpdateDecorator@@@@8
rdata$r	ENDS
;	COMDAT ??_R2?$CDynamicPoolEx@VCNullDecorator@NEffectUpdateDecorator@@@@8
rdata$r	SEGMENT
??_R2?$CDynamicPoolEx@VCNullDecorator@NEffectUpdateDecorator@@@@8 DD FLAT:??_R1A@?0A@EA@?$CDynamicPoolEx@VCNullDecorator@NEffectUpdateDecorator@@@@8 ; CDynamicPoolEx<NEffectUpdateDecorator::CNullDecorator>::`RTTI Base Class Array'
rdata$r	ENDS
;	COMDAT ??_R3?$CDynamicPoolEx@VCNullDecorator@NEffectUpdateDecorator@@@@8
rdata$r	SEGMENT
??_R3?$CDynamicPoolEx@VCNullDecorator@NEffectUpdateDecorator@@@@8 DD 00H ; CDynamicPoolEx<NEffectUpdateDecorator::CNullDecorator>::`RTTI Class Hierarchy Descriptor'
	DD	00H
	DD	01H
	DD	FLAT:??_R2?$CDynamicPoolEx@VCNullDecorator@NEffectUpdateDecorator@@@@8
rdata$r	ENDS
;	COMDAT ??_R0?AV?$CDynamicPoolEx@VCNullDecorator@NEffectUpdateDecorator@@@@@8
data$rs	SEGMENT
??_R0?AV?$CDynamicPoolEx@VCNullDecorator@NEffectUpdateDecorator@@@@@8 DD FLAT:??_7type_info@@6B@ ; CDynamicPoolEx<NEffectUpdateDecorator::CNullDecorator> `RTTI Type Descriptor'
	DD	00H
	DB	'.?AV?$CDynamicPoolEx@VCNullDecorator@NEffectUpdateDecora'
	DB	'tor@@@@', 00H
data$rs	ENDS
;	COMDAT ??_R4?$CDynamicPoolEx@VCNullDecorator@NEffectUpdateDecorator@@@@6B@
rdata$r	SEGMENT
??_R4?$CDynamicPoolEx@VCNullDecorator@NEffectUpdateDecorator@@@@6B@ DD 00H ; CDynamicPoolEx<NEffectUpdateDecorator::CNullDecorator>::`RTTI Complete Object Locator'
	DD	00H
	DD	00H
	DD	FLAT:??_R0?AV?$CDynamicPoolEx@VCNullDecorator@NEffectUpdateDecorator@@@@@8
	DD	FLAT:??_R3?$CDynamicPoolEx@VCNullDecorator@NEffectUpdateDecorator@@@@8
rdata$r	ENDS
;	COMDAT ??_R1A@?0A@EA@?$CDynamicPoolEx@VCHeaderDecorator@NEffectUpdateDecorator@@@@8
rdata$r	SEGMENT
??_R1A@?0A@EA@?$CDynamicPoolEx@VCHeaderDecorator@NEffectUpdateDecorator@@@@8 DD FLAT:??_R0?AV?$CDynamicPoolEx@VCHeaderDecorator@NEffectUpdateDecorator@@@@@8 ; CDynamicPoolEx<NEffectUpdateDecorator::CHeaderDecorator>::`RTTI Base Class Descriptor at (0,-1,0,64)'
	DD	00H
	DD	00H
	DD	0ffffffffH
	DD	00H
	DD	040H
	DD	FLAT:??_R3?$CDynamicPoolEx@VCHeaderDecorator@NEffectUpdateDecorator@@@@8
rdata$r	ENDS
;	COMDAT ??_R2?$CDynamicPoolEx@VCHeaderDecorator@NEffectUpdateDecorator@@@@8
rdata$r	SEGMENT
??_R2?$CDynamicPoolEx@VCHeaderDecorator@NEffectUpdateDecorator@@@@8 DD FLAT:??_R1A@?0A@EA@?$CDynamicPoolEx@VCHeaderDecorator@NEffectUpdateDecorator@@@@8 ; CDynamicPoolEx<NEffectUpdateDecorator::CHeaderDecorator>::`RTTI Base Class Array'
rdata$r	ENDS
;	COMDAT ??_R3?$CDynamicPoolEx@VCHeaderDecorator@NEffectUpdateDecorator@@@@8
rdata$r	SEGMENT
??_R3?$CDynamicPoolEx@VCHeaderDecorator@NEffectUpdateDecorator@@@@8 DD 00H ; CDynamicPoolEx<NEffectUpdateDecorator::CHeaderDecorator>::`RTTI Class Hierarchy Descriptor'
	DD	00H
	DD	01H
	DD	FLAT:??_R2?$CDynamicPoolEx@VCHeaderDecorator@NEffectUpdateDecorator@@@@8
rdata$r	ENDS
;	COMDAT ??_R0?AV?$CDynamicPoolEx@VCHeaderDecorator@NEffectUpdateDecorator@@@@@8
data$rs	SEGMENT
??_R0?AV?$CDynamicPoolEx@VCHeaderDecorator@NEffectUpdateDecorator@@@@@8 DD FLAT:??_7type_info@@6B@ ; CDynamicPoolEx<NEffectUpdateDecorator::CHeaderDecorator> `RTTI Type Descriptor'
	DD	00H
	DB	'.?AV?$CDynamicPoolEx@VCHeaderDecorator@NEffectUpdateDeco'
	DB	'rator@@@@', 00H
data$rs	ENDS
;	COMDAT ??_R4?$CDynamicPoolEx@VCHeaderDecorator@NEffectUpdateDecorator@@@@6B@
rdata$r	SEGMENT
??_R4?$CDynamicPoolEx@VCHeaderDecorator@NEffectUpdateDecorator@@@@6B@ DD 00H ; CDynamicPoolEx<NEffectUpdateDecorator::CHeaderDecorator>::`RTTI Complete Object Locator'
	DD	00H
	DD	00H
	DD	FLAT:??_R0?AV?$CDynamicPoolEx@VCHeaderDecorator@NEffectUpdateDecorator@@@@@8
	DD	FLAT:??_R3?$CDynamicPoolEx@VCHeaderDecorator@NEffectUpdateDecorator@@@@8
rdata$r	ENDS
;	COMDAT ??_R1A@?0A@EA@?$CDynamicPool@VCRaceData@@@@8
rdata$r	SEGMENT
??_R1A@?0A@EA@?$CDynamicPool@VCRaceData@@@@8 DD FLAT:??_R0?AV?$CDynamicPool@VCRaceData@@@@@8 ; CDynamicPool<CRaceData>::`RTTI Base Class Descriptor at (0,-1,0,64)'
	DD	00H
	DD	00H
	DD	0ffffffffH
	DD	00H
	DD	040H
	DD	FLAT:??_R3?$CDynamicPool@VCRaceData@@@@8
rdata$r	ENDS
;	COMDAT ??_R2?$CDynamicPool@VCRaceData@@@@8
rdata$r	SEGMENT
??_R2?$CDynamicPool@VCRaceData@@@@8 DD FLAT:??_R1A@?0A@EA@?$CDynamicPool@VCRaceData@@@@8 ; CDynamicPool<CRaceData>::`RTTI Base Class Array'
rdata$r	ENDS
;	COMDAT ??_R3?$CDynamicPool@VCRaceData@@@@8
rdata$r	SEGMENT
??_R3?$CDynamicPool@VCRaceData@@@@8 DD 00H		; CDynamicPool<CRaceData>::`RTTI Class Hierarchy Descriptor'
	DD	00H
	DD	01H
	DD	FLAT:??_R2?$CDynamicPool@VCRaceData@@@@8
rdata$r	ENDS
;	COMDAT ??_R0?AV?$CDynamicPool@VCRaceData@@@@@8
data$rs	SEGMENT
??_R0?AV?$CDynamicPool@VCRaceData@@@@@8 DD FLAT:??_7type_info@@6B@ ; CDynamicPool<CRaceData> `RTTI Type Descriptor'
	DD	00H
	DB	'.?AV?$CDynamicPool@VCRaceData@@@@', 00H
data$rs	ENDS
;	COMDAT ??_R4?$CDynamicPool@VCRaceData@@@@6B@
rdata$r	SEGMENT
??_R4?$CDynamicPool@VCRaceData@@@@6B@ DD 00H		; CDynamicPool<CRaceData>::`RTTI Complete Object Locator'
	DD	00H
	DD	00H
	DD	FLAT:??_R0?AV?$CDynamicPool@VCRaceData@@@@@8
	DD	FLAT:??_R3?$CDynamicPool@VCRaceData@@@@8
rdata$r	ENDS
;	COMDAT ??_R1A@?0A@EA@?$CDynamicPool@USMotionModeData@CRaceData@@@@8
rdata$r	SEGMENT
??_R1A@?0A@EA@?$CDynamicPool@USMotionModeData@CRaceData@@@@8 DD FLAT:??_R0?AV?$CDynamicPool@USMotionModeData@CRaceData@@@@@8 ; CDynamicPool<CRaceData::SMotionModeData>::`RTTI Base Class Descriptor at (0,-1,0,64)'
	DD	00H
	DD	00H
	DD	0ffffffffH
	DD	00H
	DD	040H
	DD	FLAT:??_R3?$CDynamicPool@USMotionModeData@CRaceData@@@@8
rdata$r	ENDS
;	COMDAT ??_R2?$CDynamicPool@USMotionModeData@CRaceData@@@@8
rdata$r	SEGMENT
??_R2?$CDynamicPool@USMotionModeData@CRaceData@@@@8 DD FLAT:??_R1A@?0A@EA@?$CDynamicPool@USMotionModeData@CRaceData@@@@8 ; CDynamicPool<CRaceData::SMotionModeData>::`RTTI Base Class Array'
rdata$r	ENDS
;	COMDAT ??_R3?$CDynamicPool@USMotionModeData@CRaceData@@@@8
rdata$r	SEGMENT
??_R3?$CDynamicPool@USMotionModeData@CRaceData@@@@8 DD 00H ; CDynamicPool<CRaceData::SMotionModeData>::`RTTI Class Hierarchy Descriptor'
	DD	00H
	DD	01H
	DD	FLAT:??_R2?$CDynamicPool@USMotionModeData@CRaceData@@@@8
rdata$r	ENDS
;	COMDAT ??_R0?AV?$CDynamicPool@USMotionModeData@CRaceData@@@@@8
data$rs	SEGMENT
??_R0?AV?$CDynamicPool@USMotionModeData@CRaceData@@@@@8 DD FLAT:??_7type_info@@6B@ ; CDynamicPool<CRaceData::SMotionModeData> `RTTI Type Descriptor'
	DD	00H
	DB	'.?AV?$CDynamicPool@USMotionModeData@CRaceData@@@@', 00H
data$rs	ENDS
;	COMDAT ??_R4?$CDynamicPool@USMotionModeData@CRaceData@@@@6B@
rdata$r	SEGMENT
??_R4?$CDynamicPool@USMotionModeData@CRaceData@@@@6B@ DD 00H ; CDynamicPool<CRaceData::SMotionModeData>::`RTTI Complete Object Locator'
	DD	00H
	DD	00H
	DD	FLAT:??_R0?AV?$CDynamicPool@USMotionModeData@CRaceData@@@@@8
	DD	FLAT:??_R3?$CDynamicPool@USMotionModeData@CRaceData@@@@8
rdata$r	ENDS
PUBLIC	??_H@YGXPAXIIP6EPAX0@Z@Z			; `vector constructor iterator'
PUBLIC	?__empty_global_delete@@YAXPAX@Z		; __empty_global_delete
PUBLIC	?__empty_global_delete@@YAXPAXI@Z		; __empty_global_delete
PUBLIC	??0exception@std@@QAE@ABV01@@Z			; std::exception::exception
PUBLIC	??1exception@std@@UAE@XZ			; std::exception::~exception
PUBLIC	?what@exception@std@@UBEPBDXZ			; std::exception::what
PUBLIC	??_Gexception@std@@UAEPAXI@Z			; std::exception::`scalar deleting destructor'
PUBLIC	??0bad_alloc@std@@QAE@ABV01@@Z			; std::bad_alloc::bad_alloc
PUBLIC	??_Gbad_alloc@std@@UAEPAXI@Z			; std::bad_alloc::`scalar deleting destructor'
PUBLIC	??0bad_array_new_length@std@@QAE@XZ		; std::bad_array_new_length::bad_array_new_length
PUBLIC	??1bad_array_new_length@std@@UAE@XZ		; std::bad_array_new_length::~bad_array_new_length
PUBLIC	??0bad_array_new_length@std@@QAE@ABV01@@Z	; std::bad_array_new_length::bad_array_new_length
PUBLIC	??_Gbad_array_new_length@std@@UAEPAXI@Z		; std::bad_array_new_length::`scalar deleting destructor'
PUBLIC	?_Throw_bad_array_new_length@std@@YAXXZ		; std::_Throw_bad_array_new_length
PUBLIC	?_Xlen_string@std@@YAXXZ			; std::_Xlen_string
PUBLIC	?_Xran@?$_String_val@U?$_Simple_types@D@std@@@std@@SAXXZ ; std::_String_val<std::_Simple_types<char> >::_Xran
PUBLIC	??1?$basic_string@DU?$char_traits@D@std@@V?$allocator@D@2@@std@@QAE@XZ ; std::basic_string<char,std::char_traits<char>,std::allocator<char> >::~basic_string<char,std::char_traits<char>,std::allocator<char> >
PUBLIC	?append@?$basic_string@DU?$char_traits@D@std@@V?$allocator@D@2@@std@@QAEAAV12@QBDI@Z ; std::basic_string<char,std::char_traits<char>,std::allocator<char> >::append
PUBLIC	?assign@?$basic_string@DU?$char_traits@D@std@@V?$allocator@D@2@@std@@QAEAAV12@QBDI@Z ; std::basic_string<char,std::char_traits<char>,std::allocator<char> >::assign
PUBLIC	?_Throw_tree_length_error@std@@YAXXZ		; std::_Throw_tree_length_error
PUBLIC	??$_Allocate_manually_vector_aligned@U_Default_allocate_traits@std@@@std@@YAPAXI@Z ; std::_Allocate_manually_vector_aligned<std::_Default_allocate_traits>
PUBLIC	?_Insert_node@?$_Tree_val@U?$_Tree_simple_types@U?$pair@$$CBKV?$basic_string@DU?$char_traits@D@std@@V?$allocator@D@2@@std@@@std@@@std@@@std@@QAEPAU?$_Tree_node@U?$pair@$$CBKV?$basic_string@DU?$char_traits@D@std@@V?$allocator@D@2@@std@@@std@@PAX@2@U?$_Tree_id@PAU?$_Tree_node@U?$pair@$$CBKV?$basic_string@DU?$char_traits@D@std@@V?$allocator@D@2@@std@@@std@@PAX@std@@@2@QAU32@@Z ; std::_Tree_val<std::_Tree_simple_types<std::pair<unsigned long const ,std::basic_string<char,std::char_traits<char>,std::allocator<char> > > > >::_Insert_node
PUBLIC	??1?$map@KV?$basic_string@DU?$char_traits@D@std@@V?$allocator@D@2@@std@@U?$less@K@2@V?$allocator@U?$pair@$$CBKV?$basic_string@DU?$char_traits@D@std@@V?$allocator@D@2@@std@@@std@@@2@@std@@QAE@XZ ; std::map<unsigned long,std::basic_string<char,std::char_traits<char>,std::allocator<char> >,std::less<unsigned long>,std::allocator<std::pair<unsigned long const ,std::basic_string<char,std::char_traits<char>,std::allocator<char> > > > >::~map<unsigned long,std::basic_string<char,std::char_traits<char>,std::allocator<char> >,std::less<unsigned long>,std::allocator<std::pair<unsigned long const ,std::basic_string<char,std::char_traits<char>,std::allocator<char> > > > >
PUBLIC	?_Xlength@?$vector@KV?$allocator@K@std@@@std@@CAXXZ ; std::vector<unsigned long,std::allocator<unsigned long> >::_Xlength
PUBLIC	?_Insert_node@?$_Tree_val@U?$_Tree_simple_types@U?$pair@$$CBGV?$vector@USMotion@CRaceData@@V?$allocator@USMotion@CRaceData@@@std@@@std@@@std@@@std@@@std@@QAEPAU?$_Tree_node@U?$pair@$$CBGV?$vector@USMotion@CRaceData@@V?$allocator@USMotion@CRaceData@@@std@@@std@@@std@@PAX@2@U?$_Tree_id@PAU?$_Tree_node@U?$pair@$$CBGV?$vector@USMotion@CRaceData@@V?$allocator@USMotion@CRaceData@@@std@@@std@@@std@@PAX@std@@@2@QAU32@@Z ; std::_Tree_val<std::_Tree_simple_types<std::pair<unsigned short const ,std::vector<CRaceData::SMotion,std::allocator<CRaceData::SMotion> > > > >::_Insert_node
PUBLIC	??1SMotionModeData@CRaceData@@UAE@XZ		; CRaceData::SMotionModeData::~SMotionModeData
PUBLIC	??_GSMotionModeData@CRaceData@@UAEPAXI@Z	; CRaceData::SMotionModeData::`scalar deleting destructor'
PUBLIC	??1?$_Tree@V?$_Tmap_traits@GPAUSMotionModeData@CRaceData@@U?$less@G@std@@V?$allocator@U?$pair@$$CBGPAUSMotionModeData@CRaceData@@@std@@@4@$0A@@std@@@std@@QAE@XZ ; std::_Tree<std::_Tmap_traits<unsigned short,CRaceData::SMotionModeData *,std::less<unsigned short>,std::allocator<std::pair<unsigned short const ,CRaceData::SMotionModeData *> >,0> >::~_Tree<std::_Tmap_traits<unsigned short,CRaceData::SMotionModeData *,std::less<unsigned short>,std::allocator<std::pair<unsigned short const ,CRaceData::SMotionModeData *> >,0> >
PUBLIC	?_Insert_node@?$_Tree_val@U?$_Tree_simple_types@U?$pair@$$CBGPAUSMotionModeData@CRaceData@@@std@@@std@@@std@@QAEPAU?$_Tree_node@U?$pair@$$CBGPAUSMotionModeData@CRaceData@@@std@@PAX@2@U?$_Tree_id@PAU?$_Tree_node@U?$pair@$$CBGPAUSMotionModeData@CRaceData@@@std@@PAX@std@@@2@QAU32@@Z ; std::_Tree_val<std::_Tree_simple_types<std::pair<unsigned short const ,CRaceData::SMotionModeData *> > >::_Insert_node
PUBLIC	??1?$map@GPAUSMotionModeData@CRaceData@@U?$less@G@std@@V?$allocator@U?$pair@$$CBGPAUSMotionModeData@CRaceData@@@std@@@4@@std@@QAE@XZ ; std::map<unsigned short,CRaceData::SMotionModeData *,std::less<unsigned short>,std::allocator<std::pair<unsigned short const ,CRaceData::SMotionModeData *> > >::~map<unsigned short,CRaceData::SMotionModeData *,std::less<unsigned short>,std::allocator<std::pair<unsigned short const ,CRaceData::SMotionModeData *> > >
PUBLIC	??1?$vector@USAttachingData@NRaceData@@V?$allocator@USAttachingData@NRaceData@@@std@@@std@@QAE@XZ ; std::vector<NRaceData::SAttachingData,std::allocator<NRaceData::SAttachingData> >::~vector<NRaceData::SAttachingData,std::allocator<NRaceData::SAttachingData> >
PUBLIC	??1?$map@KUSModelData@CRaceData@@U?$less@K@std@@V?$allocator@U?$pair@$$CBKUSModelData@CRaceData@@@std@@@4@@std@@QAE@XZ ; std::map<unsigned long,CRaceData::SModelData,std::less<unsigned long>,std::allocator<std::pair<unsigned long const ,CRaceData::SModelData> > >::~map<unsigned long,CRaceData::SModelData,std::less<unsigned long>,std::allocator<std::pair<unsigned long const ,CRaceData::SModelData> > >
PUBLIC	??1SComboAttackData@CRaceData@@QAE@XZ		; CRaceData::SComboAttackData::~SComboAttackData
PUBLIC	?_Insert_node@?$_Tree_val@U?$_Tree_simple_types@U?$pair@$$CBKUSComboAttackData@CRaceData@@@std@@@std@@@std@@QAEPAU?$_Tree_node@U?$pair@$$CBKUSComboAttackData@CRaceData@@@std@@PAX@2@U?$_Tree_id@PAU?$_Tree_node@U?$pair@$$CBKUSComboAttackData@CRaceData@@@std@@PAX@std@@@2@QAU32@@Z ; std::_Tree_val<std::_Tree_simple_types<std::pair<unsigned long const ,CRaceData::SComboAttackData> > >::_Insert_node
PUBLIC	??1?$map@KUSComboAttackData@CRaceData@@U?$less@K@std@@V?$allocator@U?$pair@$$CBKUSComboAttackData@CRaceData@@@std@@@4@@std@@QAE@XZ ; std::map<unsigned long,CRaceData::SComboAttackData,std::less<unsigned long>,std::allocator<std::pair<unsigned long const ,CRaceData::SComboAttackData> > >::~map<unsigned long,CRaceData::SComboAttackData,std::less<unsigned long>,std::allocator<std::pair<unsigned long const ,CRaceData::SComboAttackData> > >
PUBLIC	??0SSkin@CRaceData@@QAE@ABU01@@Z		; CRaceData::SSkin::SSkin
PUBLIC	??1SSkin@CRaceData@@QAE@XZ			; CRaceData::SSkin::~SSkin
PUBLIC	?deallocate@?$allocator@USSkin@CRaceData@@@std@@QAEXQAUSSkin@CRaceData@@I@Z ; std::allocator<CRaceData::SSkin>::deallocate
PUBLIC	??1?$vector@USSkin@CRaceData@@V?$allocator@USSkin@CRaceData@@@std@@@std@@QAE@XZ ; std::vector<CRaceData::SSkin,std::allocator<CRaceData::SSkin> >::~vector<CRaceData::SSkin,std::allocator<CRaceData::SSkin> >
PUBLIC	?_Umove@?$vector@USSkin@CRaceData@@V?$allocator@USSkin@CRaceData@@@std@@@std@@AAEPAUSSkin@CRaceData@@PAU34@00@Z ; std::vector<CRaceData::SSkin,std::allocator<CRaceData::SSkin> >::_Umove
PUBLIC	?_Destroy@?$vector@USSkin@CRaceData@@V?$allocator@USSkin@CRaceData@@@std@@@std@@AAEXPAUSSkin@CRaceData@@0@Z ; std::vector<CRaceData::SSkin,std::allocator<CRaceData::SSkin> >::_Destroy
PUBLIC	?_Xlength@?$vector@USSkin@CRaceData@@V?$allocator@USSkin@CRaceData@@@std@@@std@@CAXXZ ; std::vector<CRaceData::SSkin,std::allocator<CRaceData::SSkin> >::_Xlength
PUBLIC	?New@CRaceData@@SAPAV1@XZ			; CRaceData::New
PUBLIC	?Delete@CRaceData@@SAXPAV1@@Z			; CRaceData::Delete
PUBLIC	?CreateSystem@CRaceData@@SAXII@Z		; CRaceData::CreateSystem
PUBLIC	?DestroySystem@CRaceData@@SAXXZ			; CRaceData::DestroySystem
PUBLIC	??0CRaceData@@QAE@XZ				; CRaceData::CRaceData
PUBLIC	??1CRaceData@@UAE@XZ				; CRaceData::~CRaceData
PUBLIC	?Destroy@CRaceData@@QAEXXZ			; CRaceData::Destroy
PUBLIC	?GetBaseModelFileName@CRaceData@@QBEPBDXZ	; CRaceData::GetBaseModelFileName
PUBLIC	?GetAttributeFileName@CRaceData@@QBEPBDXZ	; CRaceData::GetAttributeFileName
PUBLIC	?GetMotionListFileName@CRaceData@@QBEPBDXZ	; CRaceData::GetMotionListFileName
PUBLIC	?GetBaseModelThing@CRaceData@@QAEPAVCGraphicThing@@XZ ; CRaceData::GetBaseModelThing
PUBLIC	?GetLODModelThing@CRaceData@@QAEPAVCGraphicThing@@XZ ; CRaceData::GetLODModelThing
PUBLIC	?GetAttributeDataPtr@CRaceData@@QAEPAVCAttributeData@@XZ ; CRaceData::GetAttributeDataPtr
PUBLIC	?GetAttachingBoneName@CRaceData@@QAEHKPAPBD@Z	; CRaceData::GetAttachingBoneName
PUBLIC	?CreateMotionModeIterator@CRaceData@@QAEHAAV?$_Tree_iterator@V?$_Tree_val@U?$_Tree_simple_types@U?$pair@$$CBGPAUSMotionModeData@CRaceData@@@std@@@std@@@std@@@std@@@Z ; CRaceData::CreateMotionModeIterator
PUBLIC	?NextMotionModeIterator@CRaceData@@QAEHAAV?$_Tree_iterator@V?$_Tree_val@U?$_Tree_simple_types@U?$pair@$$CBGPAUSMotionModeData@CRaceData@@@std@@@std@@@std@@@std@@@Z ; CRaceData::NextMotionModeIterator
PUBLIC	?GetMotionKey@CRaceData@@QAEHGGPAK@Z		; CRaceData::GetMotionKey
PUBLIC	?GetMotionModeDataPointer@CRaceData@@QAEHGPAPAUSMotionModeData@1@@Z ; CRaceData::GetMotionModeDataPointer
PUBLIC	?GetModelDataPointer@CRaceData@@QAEHKPAPBUSModelData@1@@Z ; CRaceData::GetModelDataPointer
PUBLIC	?GetMotionVectorPointer@CRaceData@@QAEHGGPAPBV?$vector@USMotion@CRaceData@@V?$allocator@USMotion@CRaceData@@@std@@@std@@@Z ; CRaceData::GetMotionVectorPointer
PUBLIC	?GetMotionDataPointer@CRaceData@@QAEHGGGPAPAVCRaceMotionData@@@Z ; CRaceData::GetMotionDataPointer
PUBLIC	?GetMotionDataPointer@CRaceData@@QAEHKPAPAVCRaceMotionData@@@Z ; CRaceData::GetMotionDataPointer
PUBLIC	?GetAttachingDataCount@CRaceData@@QAEKXZ	; CRaceData::GetAttachingDataCount
PUBLIC	?GetAttachingDataPointer@CRaceData@@QAEHKPAPBUSAttachingData@NRaceData@@@Z ; CRaceData::GetAttachingDataPointer
PUBLIC	?GetCollisionDataPointer@CRaceData@@QAEHKPAPBUSAttachingData@NRaceData@@@Z ; CRaceData::GetCollisionDataPointer
PUBLIC	?GetBodyCollisionDataPointer@CRaceData@@QAEHPAPBUSAttachingData@NRaceData@@@Z ; CRaceData::GetBodyCollisionDataPointer
PUBLIC	?IsTree@CRaceData@@QAEHXZ			; CRaceData::IsTree
PUBLIC	?GetTreeFileName@CRaceData@@QAEPBDXZ		; CRaceData::GetTreeFileName
PUBLIC	?RegisterMotionData@CRaceData@@QAEPAVCGraphicThing@@GGPBDE@Z ; CRaceData::RegisterMotionData
PUBLIC	?SetRace@CRaceData@@QAEXK@Z			; CRaceData::SetRace
PUBLIC	?RegisterAttachingBoneName@CRaceData@@QAEXKPBD@Z ; CRaceData::RegisterAttachingBoneName
PUBLIC	?RegisterMotionMode@CRaceData@@QAEXG@Z		; CRaceData::RegisterMotionMode
PUBLIC	?OLD_RegisterMotion@CRaceData@@QAEXGGPBDE@Z	; CRaceData::OLD_RegisterMotion
PUBLIC	?NEW_RegisterMotion@CRaceData@@QAEPAVCGraphicThing@@PAVCRaceMotionData@@GGPBDE@Z ; CRaceData::NEW_RegisterMotion
PUBLIC	?SetMotionRandomWeight@CRaceData@@QAE_NGGGE@Z	; CRaceData::SetMotionRandomWeight
PUBLIC	?RegisterNormalAttack@CRaceData@@QAEXGG@Z	; CRaceData::RegisterNormalAttack
PUBLIC	?GetNormalAttackIndex@CRaceData@@QAEHGPAG@Z	; CRaceData::GetNormalAttackIndex
PUBLIC	?ReserveComboAttack@CRaceData@@QAEXGGK@Z	; CRaceData::ReserveComboAttack
PUBLIC	?RegisterComboAttack@CRaceData@@QAEXGGKG@Z	; CRaceData::RegisterComboAttack
PUBLIC	?GetComboDataPointer@CRaceData@@QAEHGGPAPAUSComboAttackData@1@@Z ; CRaceData::GetComboDataPointer
PUBLIC	?SetShapeModel@CRaceData@@QAEXIPBD@Z		; CRaceData::SetShapeModel
PUBLIC	?AppendShapeSkin@CRaceData@@QAEXIIPBD0@Z	; CRaceData::AppendShapeSkin
PUBLIC	?SetHairSkin@CRaceData@@QAEXIIPBD00@Z		; CRaceData::SetHairSkin
PUBLIC	?GetSmokeEffectID@CRaceData@@QAEKI@Z		; CRaceData::GetSmokeEffectID
PUBLIC	?GetSmokeBone@CRaceData@@QAEABV?$basic_string@DU?$char_traits@D@std@@V?$allocator@D@2@@std@@XZ ; CRaceData::GetSmokeBone
PUBLIC	?FindHair@CRaceData@@QAEPAUSHair@1@I@Z		; CRaceData::FindHair
PUBLIC	?FindShape@CRaceData@@QAEPAUSShape@1@I@Z	; CRaceData::FindShape
PUBLIC	?__Initialize@CRaceData@@IAEXXZ			; CRaceData::__Initialize
PUBLIC	?__OLD_RegisterMotion@CRaceData@@IAEXGGABUSMotion@1@@Z ; CRaceData::__OLD_RegisterMotion
PUBLIC	?GetMotionVectorPointer@CRaceData@@IAEHGGPAPAV?$vector@USMotion@CRaceData@@V?$allocator@USMotion@CRaceData@@@std@@@std@@@Z ; CRaceData::GetMotionVectorPointer
PUBLIC	??1?$_Tree@V?$_Tmap_traits@KKU?$less@K@std@@V?$allocator@U?$pair@$$CBKK@std@@@2@$0A@@std@@@std@@QAE@XZ ; std::_Tree<std::_Tmap_traits<unsigned long,unsigned long,std::less<unsigned long>,std::allocator<std::pair<unsigned long const ,unsigned long> >,0> >::~_Tree<std::_Tmap_traits<unsigned long,unsigned long,std::less<unsigned long>,std::allocator<std::pair<unsigned long const ,unsigned long> >,0> >
PUBLIC	?_Insert_node@?$_Tree_val@U?$_Tree_simple_types@U?$pair@$$CBKK@std@@@std@@@std@@QAEPAU?$_Tree_node@U?$pair@$$CBKK@std@@PAX@2@U?$_Tree_id@PAU?$_Tree_node@U?$pair@$$CBKK@std@@PAX@std@@@2@QAU32@@Z ; std::_Tree_val<std::_Tree_simple_types<std::pair<unsigned long const ,unsigned long> > >::_Insert_node
PUBLIC	??1?$map@KKU?$less@K@std@@V?$allocator@U?$pair@$$CBKK@std@@@2@@std@@QAE@XZ ; std::map<unsigned long,unsigned long,std::less<unsigned long>,std::allocator<std::pair<unsigned long const ,unsigned long> > >::~map<unsigned long,unsigned long,std::less<unsigned long>,std::allocator<std::pair<unsigned long const ,unsigned long> > >
PUBLIC	?_Insert_node@?$_Tree_val@U?$_Tree_simple_types@U?$pair@$$CBKUSHair@CRaceData@@@std@@@std@@@std@@QAEPAU?$_Tree_node@U?$pair@$$CBKUSHair@CRaceData@@@std@@PAX@2@U?$_Tree_id@PAU?$_Tree_node@U?$pair@$$CBKUSHair@CRaceData@@@std@@PAX@std@@@2@QAU32@@Z ; std::_Tree_val<std::_Tree_simple_types<std::pair<unsigned long const ,CRaceData::SHair> > >::_Insert_node
PUBLIC	??A?$map@KUSHair@CRaceData@@U?$less@K@std@@V?$allocator@U?$pair@$$CBKUSHair@CRaceData@@@std@@@4@@std@@QAEAAUSHair@CRaceData@@$$QAK@Z ; std::map<unsigned long,CRaceData::SHair,std::less<unsigned long>,std::allocator<std::pair<unsigned long const ,CRaceData::SHair> > >::operator[]
PUBLIC	??1?$map@KUSHair@CRaceData@@U?$less@K@std@@V?$allocator@U?$pair@$$CBKUSHair@CRaceData@@@std@@@4@@std@@QAE@XZ ; std::map<unsigned long,CRaceData::SHair,std::less<unsigned long>,std::allocator<std::pair<unsigned long const ,CRaceData::SHair> > >::~map<unsigned long,CRaceData::SHair,std::less<unsigned long>,std::allocator<std::pair<unsigned long const ,CRaceData::SHair> > >
PUBLIC	?_Insert_node@?$_Tree_val@U?$_Tree_simple_types@U?$pair@$$CBKUSShape@CRaceData@@@std@@@std@@@std@@QAEPAU?$_Tree_node@U?$pair@$$CBKUSShape@CRaceData@@@std@@PAX@2@U?$_Tree_id@PAU?$_Tree_node@U?$pair@$$CBKUSShape@CRaceData@@@std@@PAX@std@@@2@QAU32@@Z ; std::_Tree_val<std::_Tree_simple_types<std::pair<unsigned long const ,CRaceData::SShape> > >::_Insert_node
PUBLIC	??A?$map@KUSShape@CRaceData@@U?$less@K@std@@V?$allocator@U?$pair@$$CBKUSShape@CRaceData@@@std@@@4@@std@@QAEAAUSShape@CRaceData@@$$QAK@Z ; std::map<unsigned long,CRaceData::SShape,std::less<unsigned long>,std::allocator<std::pair<unsigned long const ,CRaceData::SShape> > >::operator[]
PUBLIC	??1?$map@KUSShape@CRaceData@@U?$less@K@std@@V?$allocator@U?$pair@$$CBKUSShape@CRaceData@@@std@@@4@@std@@QAE@XZ ; std::map<unsigned long,CRaceData::SShape,std::less<unsigned long>,std::allocator<std::pair<unsigned long const ,CRaceData::SShape> > >::~map<unsigned long,CRaceData::SShape,std::less<unsigned long>,std::allocator<std::pair<unsigned long const ,CRaceData::SShape> > >
PUBLIC	??_GCRaceData@@UAEPAXI@Z			; CRaceData::`scalar deleting destructor'
PUBLIC	??1?$CDynamicPool@VCRaceData@@@@UAE@XZ		; CDynamicPool<CRaceData>::~CDynamicPool<CRaceData>
PUBLIC	?Delete@?$CDynamicPool@VCRaceData@@@@KAXPAVCRaceData@@@Z ; CDynamicPool<CRaceData>::Delete
PUBLIC	?_Reallocate_exactly@?$vector@PAVCRaceData@@V?$allocator@PAVCRaceData@@@std@@@std@@AAEXI@Z ; std::vector<CRaceData *,std::allocator<CRaceData *> >::_Reallocate_exactly
PUBLIC	?_Change_array@?$vector@PAVCRaceData@@V?$allocator@PAVCRaceData@@@std@@@std@@AAEXQAPAVCRaceData@@II@Z ; std::vector<CRaceData *,std::allocator<CRaceData *> >::_Change_array
PUBLIC	?_Xlength@?$vector@PAVCRaceData@@V?$allocator@PAVCRaceData@@@std@@@std@@CAXXZ ; std::vector<CRaceData *,std::allocator<CRaceData *> >::_Xlength
PUBLIC	??1?$CDynamicPool@USMotionModeData@CRaceData@@@@UAE@XZ ; CDynamicPool<CRaceData::SMotionModeData>::~CDynamicPool<CRaceData::SMotionModeData>
PUBLIC	?Delete@?$CDynamicPool@USMotionModeData@CRaceData@@@@KAXPAUSMotionModeData@CRaceData@@@Z ; CDynamicPool<CRaceData::SMotionModeData>::Delete
PUBLIC	?_Reallocate_exactly@?$vector@PAUSMotionModeData@CRaceData@@V?$allocator@PAUSMotionModeData@CRaceData@@@std@@@std@@AAEXI@Z ; std::vector<CRaceData::SMotionModeData *,std::allocator<CRaceData::SMotionModeData *> >::_Reallocate_exactly
PUBLIC	?_Change_array@?$vector@PAUSMotionModeData@CRaceData@@V?$allocator@PAUSMotionModeData@CRaceData@@@std@@@std@@AAEXQAPAUSMotionModeData@CRaceData@@II@Z ; std::vector<CRaceData::SMotionModeData *,std::allocator<CRaceData::SMotionModeData *> >::_Change_array
PUBLIC	?_Xlength@?$vector@PAUSMotionModeData@CRaceData@@V?$allocator@PAUSMotionModeData@CRaceData@@@std@@@std@@CAXXZ ; std::vector<CRaceData::SMotionModeData *,std::allocator<CRaceData::SMotionModeData *> >::_Xlength
PUBLIC	??1?$pair@$$CBKUSHair@CRaceData@@@std@@QAE@XZ	; std::pair<unsigned long const ,CRaceData::SHair>::~pair<unsigned long const ,CRaceData::SHair>
PUBLIC	??1?$pair@$$CBKUSShape@CRaceData@@@std@@QAE@XZ	; std::pair<unsigned long const ,CRaceData::SShape>::~pair<unsigned long const ,CRaceData::SShape>
PUBLIC	??E?$_Tree_iterator@V?$_Tree_val@U?$_Tree_simple_types@U?$pair@$$CBGPAUSMotionModeData@CRaceData@@@std@@@std@@@std@@@std@@QAEAAV01@XZ ; std::_Tree_iterator<std::_Tree_val<std::_Tree_simple_types<std::pair<unsigned short const ,CRaceData::SMotionModeData *> > > >::operator++
PUBLIC	??1?$vector@USMotion@CRaceData@@V?$allocator@USMotion@CRaceData@@@std@@@std@@QAE@XZ ; std::vector<CRaceData::SMotion,std::allocator<CRaceData::SMotion> >::~vector<CRaceData::SMotion,std::allocator<CRaceData::SMotion> >
PUBLIC	?_Tidy@?$vector@USMotion@CRaceData@@V?$allocator@USMotion@CRaceData@@@std@@@std@@AAEXXZ ; std::vector<CRaceData::SMotion,std::allocator<CRaceData::SMotion> >::_Tidy
PUBLIC	?_Xlength@?$vector@USMotion@CRaceData@@V?$allocator@USMotion@CRaceData@@@std@@@std@@CAXXZ ; std::vector<CRaceData::SMotion,std::allocator<CRaceData::SMotion> >::_Xlength
PUBLIC	??1?$pair@$$CBGV?$vector@USMotion@CRaceData@@V?$allocator@USMotion@CRaceData@@@std@@@std@@@std@@QAE@XZ ; std::pair<unsigned short const ,std::vector<CRaceData::SMotion,std::allocator<CRaceData::SMotion> > >::~pair<unsigned short const ,std::vector<CRaceData::SMotion,std::allocator<CRaceData::SMotion> > >
PUBLIC	??1?$pair@$$CBKV?$basic_string@DU?$char_traits@D@std@@V?$allocator@D@2@@std@@@std@@QAE@XZ ; std::pair<unsigned long const ,std::basic_string<char,std::char_traits<char>,std::allocator<char> > >::~pair<unsigned long const ,std::basic_string<char,std::char_traits<char>,std::allocator<char> > >
PUBLIC	??1?$pair@$$CBKUSComboAttackData@CRaceData@@@std@@QAE@XZ ; std::pair<unsigned long const ,CRaceData::SComboAttackData>::~pair<unsigned long const ,CRaceData::SComboAttackData>
PUBLIC	??$_Emplace_reallocate@ABUSMotion@CRaceData@@@?$vector@USMotion@CRaceData@@V?$allocator@USMotion@CRaceData@@@std@@@std@@QAEPAUSMotion@CRaceData@@QAU23@ABU23@@Z ; std::vector<CRaceData::SMotion,std::allocator<CRaceData::SMotion> >::_Emplace_reallocate<CRaceData::SMotion const &>
PUBLIC	??1?$CDynamicPoolEx@VCRotationDecorator@NEffectUpdateDecorator@@@@UAE@XZ ; CDynamicPoolEx<NEffectUpdateDecorator::CRotationDecorator>::~CDynamicPoolEx<NEffectUpdateDecorator::CRotationDecorator>
PUBLIC	?Delete@?$CDynamicPoolEx@VCRotationDecorator@NEffectUpdateDecorator@@@@KAXPAVCRotationDecorator@NEffectUpdateDecorator@@@Z ; CDynamicPoolEx<NEffectUpdateDecorator::CRotationDecorator>::Delete
PUBLIC	??1?$CDynamicPoolEx@VCGravityDecorator@NEffectUpdateDecorator@@@@UAE@XZ ; CDynamicPoolEx<NEffectUpdateDecorator::CGravityDecorator>::~CDynamicPoolEx<NEffectUpdateDecorator::CGravityDecorator>
PUBLIC	?Delete@?$CDynamicPoolEx@VCGravityDecorator@NEffectUpdateDecorator@@@@KAXPAVCGravityDecorator@NEffectUpdateDecorator@@@Z ; CDynamicPoolEx<NEffectUpdateDecorator::CGravityDecorator>::Delete
PUBLIC	??1?$CDynamicPoolEx@VCAirResistanceDecorator@NEffectUpdateDecorator@@@@UAE@XZ ; CDynamicPoolEx<NEffectUpdateDecorator::CAirResistanceDecorator>::~CDynamicPoolEx<NEffectUpdateDecorator::CAirResistanceDecorator>
PUBLIC	?Delete@?$CDynamicPoolEx@VCAirResistanceDecorator@NEffectUpdateDecorator@@@@KAXPAVCAirResistanceDecorator@NEffectUpdateDecorator@@@Z ; CDynamicPoolEx<NEffectUpdateDecorator::CAirResistanceDecorator>::Delete
PUBLIC	??1?$CDynamicPoolEx@VCTextureAnimationRandomDecorator@NEffectUpdateDecorator@@@@UAE@XZ ; CDynamicPoolEx<NEffectUpdateDecorator::CTextureAnimationRandomDecorator>::~CDynamicPoolEx<NEffectUpdateDecorator::CTextureAnimationRandomDecorator>
PUBLIC	?Delete@?$CDynamicPoolEx@VCTextureAnimationRandomDecorator@NEffectUpdateDecorator@@@@KAXPAVCTextureAnimationRandomDecorator@NEffectUpdateDecorator@@@Z ; CDynamicPoolEx<NEffectUpdateDecorator::CTextureAnimationRandomDecorator>::Delete
PUBLIC	??1?$CDynamicPoolEx@VCTextureAnimationCCWDecorator@NEffectUpdateDecorator@@@@UAE@XZ ; CDynamicPoolEx<NEffectUpdateDecorator::CTextureAnimationCCWDecorator>::~CDynamicPoolEx<NEffectUpdateDecorator::CTextureAnimationCCWDecorator>
PUBLIC	?Delete@?$CDynamicPoolEx@VCTextureAnimationCCWDecorator@NEffectUpdateDecorator@@@@KAXPAVCTextureAnimationCCWDecorator@NEffectUpdateDecorator@@@Z ; CDynamicPoolEx<NEffectUpdateDecorator::CTextureAnimationCCWDecorator>::Delete
PUBLIC	??1?$CDynamicPoolEx@VCTextureAnimationCWDecorator@NEffectUpdateDecorator@@@@UAE@XZ ; CDynamicPoolEx<NEffectUpdateDecorator::CTextureAnimationCWDecorator>::~CDynamicPoolEx<NEffectUpdateDecorator::CTextureAnimationCWDecorator>
PUBLIC	?Delete@?$CDynamicPoolEx@VCTextureAnimationCWDecorator@NEffectUpdateDecorator@@@@KAXPAVCTextureAnimationCWDecorator@NEffectUpdateDecorator@@@Z ; CDynamicPoolEx<NEffectUpdateDecorator::CTextureAnimationCWDecorator>::Delete
PUBLIC	??1?$CDynamicPoolEx@VCNullDecorator@NEffectUpdateDecorator@@@@UAE@XZ ; CDynamicPoolEx<NEffectUpdateDecorator::CNullDecorator>::~CDynamicPoolEx<NEffectUpdateDecorator::CNullDecorator>
PUBLIC	?Delete@?$CDynamicPoolEx@VCNullDecorator@NEffectUpdateDecorator@@@@KAXPAVCNullDecorator@NEffectUpdateDecorator@@@Z ; CDynamicPoolEx<NEffectUpdateDecorator::CNullDecorator>::Delete
PUBLIC	??1?$CDynamicPoolEx@VCHeaderDecorator@NEffectUpdateDecorator@@@@UAE@XZ ; CDynamicPoolEx<NEffectUpdateDecorator::CHeaderDecorator>::~CDynamicPoolEx<NEffectUpdateDecorator::CHeaderDecorator>
PUBLIC	?Delete@?$CDynamicPoolEx@VCHeaderDecorator@NEffectUpdateDecorator@@@@KAXPAVCHeaderDecorator@NEffectUpdateDecorator@@@Z ; CDynamicPoolEx<NEffectUpdateDecorator::CHeaderDecorator>::Delete
PUBLIC	??$_Erase_tree@V?$allocator@U?$_Tree_node@U?$pair@$$CBKUSShape@CRaceData@@@std@@PAX@std@@@std@@@?$_Tree_val@U?$_Tree_simple_types@U?$pair@$$CBKUSShape@CRaceData@@@std@@@std@@@std@@QAEXAAV?$allocator@U?$_Tree_node@U?$pair@$$CBKUSShape@CRaceData@@@std@@PAX@std@@@1@PAU?$_Tree_node@U?$pair@$$CBKUSShape@CRaceData@@@std@@PAX@1@@Z ; std::_Tree_val<std::_Tree_simple_types<std::pair<unsigned long const ,CRaceData::SShape> > >::_Erase_tree<std::allocator<std::_Tree_node<std::pair<unsigned long const ,CRaceData::SShape>,void *> > >
PUBLIC	??$_Erase_tree@V?$allocator@U?$_Tree_node@U?$pair@$$CBKUSHair@CRaceData@@@std@@PAX@std@@@std@@@?$_Tree_val@U?$_Tree_simple_types@U?$pair@$$CBKUSHair@CRaceData@@@std@@@std@@@std@@QAEXAAV?$allocator@U?$_Tree_node@U?$pair@$$CBKUSHair@CRaceData@@@std@@PAX@std@@@1@PAU?$_Tree_node@U?$pair@$$CBKUSHair@CRaceData@@@std@@PAX@1@@Z ; std::_Tree_val<std::_Tree_simple_types<std::pair<unsigned long const ,CRaceData::SHair> > >::_Erase_tree<std::allocator<std::_Tree_node<std::pair<unsigned long const ,CRaceData::SHair>,void *> > >
PUBLIC	??$_Erase_tree@V?$allocator@U?$_Tree_node@U?$pair@$$CBKK@std@@PAX@std@@@std@@@?$_Tree_val@U?$_Tree_simple_types@U?$pair@$$CBKK@std@@@std@@@std@@QAEXAAV?$allocator@U?$_Tree_node@U?$pair@$$CBKK@std@@PAX@std@@@1@PAU?$_Tree_node@U?$pair@$$CBKK@std@@PAX@1@@Z ; std::_Tree_val<std::_Tree_simple_types<std::pair<unsigned long const ,unsigned long> > >::_Erase_tree<std::allocator<std::_Tree_node<std::pair<unsigned long const ,unsigned long>,void *> > >
PUBLIC	??$_Emplace_reallocate@ABUSSkin@CRaceData@@@?$vector@USSkin@CRaceData@@V?$allocator@USSkin@CRaceData@@@std@@@std@@QAEPAUSSkin@CRaceData@@QAU23@ABU23@@Z ; std::vector<CRaceData::SSkin,std::allocator<CRaceData::SSkin> >::_Emplace_reallocate<CRaceData::SSkin const &>
PUBLIC	??$_Erase_tree@V?$allocator@U?$_Tree_node@U?$pair@$$CBKUSComboAttackData@CRaceData@@@std@@PAX@std@@@std@@@?$_Tree_val@U?$_Tree_simple_types@U?$pair@$$CBKUSComboAttackData@CRaceData@@@std@@@std@@@std@@QAEXAAV?$allocator@U?$_Tree_node@U?$pair@$$CBKUSComboAttackData@CRaceData@@@std@@PAX@std@@@1@PAU?$_Tree_node@U?$pair@$$CBKUSComboAttackData@CRaceData@@@std@@PAX@1@@Z ; std::_Tree_val<std::_Tree_simple_types<std::pair<unsigned long const ,CRaceData::SComboAttackData> > >::_Erase_tree<std::allocator<std::_Tree_node<std::pair<unsigned long const ,CRaceData::SComboAttackData>,void *> > >
PUBLIC	??$_Erase_tree@V?$allocator@U?$_Tree_node@U?$pair@$$CBKUSModelData@CRaceData@@@std@@PAX@std@@@std@@@?$_Tree_val@U?$_Tree_simple_types@U?$pair@$$CBKUSModelData@CRaceData@@@std@@@std@@@std@@QAEXAAV?$allocator@U?$_Tree_node@U?$pair@$$CBKUSModelData@CRaceData@@@std@@PAX@std@@@1@PAU?$_Tree_node@U?$pair@$$CBKUSModelData@CRaceData@@@std@@PAX@1@@Z ; std::_Tree_val<std::_Tree_simple_types<std::pair<unsigned long const ,CRaceData::SModelData> > >::_Erase_tree<std::allocator<std::_Tree_node<std::pair<unsigned long const ,CRaceData::SModelData>,void *> > >
PUBLIC	??$_Erase_tree@V?$allocator@U?$_Tree_node@U?$pair@$$CBGPAUSMotionModeData@CRaceData@@@std@@PAX@std@@@std@@@?$_Tree_val@U?$_Tree_simple_types@U?$pair@$$CBGPAUSMotionModeData@CRaceData@@@std@@@std@@@std@@QAEXAAV?$allocator@U?$_Tree_node@U?$pair@$$CBGPAUSMotionModeData@CRaceData@@@std@@PAX@std@@@1@PAU?$_Tree_node@U?$pair@$$CBGPAUSMotionModeData@CRaceData@@@std@@PAX@1@@Z ; std::_Tree_val<std::_Tree_simple_types<std::pair<unsigned short const ,CRaceData::SMotionModeData *> > >::_Erase_tree<std::allocator<std::_Tree_node<std::pair<unsigned short const ,CRaceData::SMotionModeData *>,void *> > >
PUBLIC	??$_Erase_tree@V?$allocator@U?$_Tree_node@U?$pair@$$CBGV?$vector@USMotion@CRaceData@@V?$allocator@USMotion@CRaceData@@@std@@@std@@@std@@PAX@std@@@std@@@?$_Tree_val@U?$_Tree_simple_types@U?$pair@$$CBGV?$vector@USMotion@CRaceData@@V?$allocator@USMotion@CRaceData@@@std@@@std@@@std@@@std@@@std@@QAEXAAV?$allocator@U?$_Tree_node@U?$pair@$$CBGV?$vector@USMotion@CRaceData@@V?$allocator@USMotion@CRaceData@@@std@@@std@@@std@@PAX@std@@@1@PAU?$_Tree_node@U?$pair@$$CBGV?$vector@USMotion@CRaceData@@V?$allocator@USMotion@CRaceData@@@std@@@std@@@std@@PAX@1@@Z ; std::_Tree_val<std::_Tree_simple_types<std::pair<unsigned short const ,std::vector<CRaceData::SMotion,std::allocator<CRaceData::SMotion> > > > >::_Erase_tree<std::allocator<std::_Tree_node<std::pair<unsigned short const ,std::vector<CRaceData::SMotion,std::allocator<CRaceData::SMotion> > >,void *> > >
PUBLIC	??$_Erase_tree@V?$allocator@U?$_Tree_node@U?$pair@$$CBKV?$basic_string@DU?$char_traits@D@std@@V?$allocator@D@2@@std@@@std@@PAX@std@@@std@@@?$_Tree_val@U?$_Tree_simple_types@U?$pair@$$CBKV?$basic_string@DU?$char_traits@D@std@@V?$allocator@D@2@@std@@@std@@@std@@@std@@QAEXAAV?$allocator@U?$_Tree_node@U?$pair@$$CBKV?$basic_string@DU?$char_traits@D@std@@V?$allocator@D@2@@std@@@std@@PAX@std@@@1@PAU?$_Tree_node@U?$pair@$$CBKV?$basic_string@DU?$char_traits@D@std@@V?$allocator@D@2@@std@@@std@@PAX@1@@Z ; std::_Tree_val<std::_Tree_simple_types<std::pair<unsigned long const ,std::basic_string<char,std::char_traits<char>,std::allocator<char> > > > >::_Erase_tree<std::allocator<std::_Tree_node<std::pair<unsigned long const ,std::basic_string<char,std::char_traits<char>,std::allocator<char> > >,void *> > >
PUBLIC	??$_Emplace_reallocate@ABQAUSMotionModeData@CRaceData@@@?$vector@PAUSMotionModeData@CRaceData@@V?$allocator@PAUSMotionModeData@CRaceData@@@std@@@std@@QAEPAPAUSMotionModeData@CRaceData@@QAPAU23@ABQAU23@@Z ; std::vector<CRaceData::SMotionModeData *,std::allocator<CRaceData::SMotionModeData *> >::_Emplace_reallocate<CRaceData::SMotionModeData * const &>
PUBLIC	??$_Emplace_reallocate@ABQAVCRaceData@@@?$vector@PAVCRaceData@@V?$allocator@PAVCRaceData@@@std@@@std@@QAEPAPAVCRaceData@@QAPAV2@ABQAV2@@Z ; std::vector<CRaceData *,std::allocator<CRaceData *> >::_Emplace_reallocate<CRaceData * const &>
PUBLIC	??$_Find_lower_bound@K@?$_Tree@V?$_Tmap_traits@KUSShape@CRaceData@@U?$less@K@std@@V?$allocator@U?$pair@$$CBKUSShape@CRaceData@@@std@@@4@$0A@@std@@@std@@IBE?AU?$_Tree_find_result@PAU?$_Tree_node@U?$pair@$$CBKUSShape@CRaceData@@@std@@PAX@std@@@1@ABK@Z ; std::_Tree<std::_Tmap_traits<unsigned long,CRaceData::SShape,std::less<unsigned long>,std::allocator<std::pair<unsigned long const ,CRaceData::SShape> >,0> >::_Find_lower_bound<unsigned long>
PUBLIC	??1?$_Alloc_construct_ptr@V?$allocator@U?$_Tree_node@U?$pair@$$CBKUSShape@CRaceData@@@std@@PAX@std@@@std@@@std@@QAE@XZ ; std::_Alloc_construct_ptr<std::allocator<std::_Tree_node<std::pair<unsigned long const ,CRaceData::SShape>,void *> > >::~_Alloc_construct_ptr<std::allocator<std::_Tree_node<std::pair<unsigned long const ,CRaceData::SShape>,void *> > >
PUBLIC	??$_Find_lower_bound@K@?$_Tree@V?$_Tmap_traits@KUSHair@CRaceData@@U?$less@K@std@@V?$allocator@U?$pair@$$CBKUSHair@CRaceData@@@std@@@4@$0A@@std@@@std@@IBE?AU?$_Tree_find_result@PAU?$_Tree_node@U?$pair@$$CBKUSHair@CRaceData@@@std@@PAX@std@@@1@ABK@Z ; std::_Tree<std::_Tmap_traits<unsigned long,CRaceData::SHair,std::less<unsigned long>,std::allocator<std::pair<unsigned long const ,CRaceData::SHair> >,0> >::_Find_lower_bound<unsigned long>
PUBLIC	??1?$_Alloc_construct_ptr@V?$allocator@U?$_Tree_node@U?$pair@$$CBKUSHair@CRaceData@@@std@@PAX@std@@@std@@@std@@QAE@XZ ; std::_Alloc_construct_ptr<std::allocator<std::_Tree_node<std::pair<unsigned long const ,CRaceData::SHair>,void *> > >::~_Alloc_construct_ptr<std::allocator<std::_Tree_node<std::pair<unsigned long const ,CRaceData::SHair>,void *> > >
PUBLIC	??$_Find_lower_bound@K@?$_Tree@V?$_Tmap_traits@KKU?$less@K@std@@V?$allocator@U?$pair@$$CBKK@std@@@2@$0A@@std@@@std@@IBE?AU?$_Tree_find_result@PAU?$_Tree_node@U?$pair@$$CBKK@std@@PAX@std@@@1@ABK@Z ; std::_Tree<std::_Tmap_traits<unsigned long,unsigned long,std::less<unsigned long>,std::allocator<std::pair<unsigned long const ,unsigned long> >,0> >::_Find_lower_bound<unsigned long>
PUBLIC	??$_Find_lower_bound@K@?$_Tree@V?$_Tmap_traits@KUSComboAttackData@CRaceData@@U?$less@K@std@@V?$allocator@U?$pair@$$CBKUSComboAttackData@CRaceData@@@std@@@4@$0A@@std@@@std@@IBE?AU?$_Tree_find_result@PAU?$_Tree_node@U?$pair@$$CBKUSComboAttackData@CRaceData@@@std@@PAX@std@@@1@ABK@Z ; std::_Tree<std::_Tmap_traits<unsigned long,CRaceData::SComboAttackData,std::less<unsigned long>,std::allocator<std::pair<unsigned long const ,CRaceData::SComboAttackData> >,0> >::_Find_lower_bound<unsigned long>
PUBLIC	??$_Find_lower_bound@G@?$_Tree@V?$_Tmap_traits@GPAUSMotionModeData@CRaceData@@U?$less@G@std@@V?$allocator@U?$pair@$$CBGPAUSMotionModeData@CRaceData@@@std@@@4@$0A@@std@@@std@@IBE?AU?$_Tree_find_result@PAU?$_Tree_node@U?$pair@$$CBGPAUSMotionModeData@CRaceData@@@std@@PAX@std@@@1@ABG@Z ; std::_Tree<std::_Tmap_traits<unsigned short,CRaceData::SMotionModeData *,std::less<unsigned short>,std::allocator<std::pair<unsigned short const ,CRaceData::SMotionModeData *> >,0> >::_Find_lower_bound<unsigned short>
PUBLIC	??$_Find_lower_bound@G@?$_Tree@V?$_Tmap_traits@GV?$vector@USMotion@CRaceData@@V?$allocator@USMotion@CRaceData@@@std@@@std@@U?$less@G@2@V?$allocator@U?$pair@$$CBGV?$vector@USMotion@CRaceData@@V?$allocator@USMotion@CRaceData@@@std@@@std@@@std@@@2@$0A@@std@@@std@@IBE?AU?$_Tree_find_result@PAU?$_Tree_node@U?$pair@$$CBGV?$vector@USMotion@CRaceData@@V?$allocator@USMotion@CRaceData@@@std@@@std@@@std@@PAX@std@@@1@ABG@Z ; std::_Tree<std::_Tmap_traits<unsigned short,std::vector<CRaceData::SMotion,std::allocator<CRaceData::SMotion> >,std::less<unsigned short>,std::allocator<std::pair<unsigned short const ,std::vector<CRaceData::SMotion,std::allocator<CRaceData::SMotion> > > >,0> >::_Find_lower_bound<unsigned short>
PUBLIC	??1?$_Alloc_construct_ptr@V?$allocator@U?$_Tree_node@U?$pair@$$CBGV?$vector@USMotion@CRaceData@@V?$allocator@USMotion@CRaceData@@@std@@@std@@@std@@PAX@std@@@std@@@std@@QAE@XZ ; std::_Alloc_construct_ptr<std::allocator<std::_Tree_node<std::pair<unsigned short const ,std::vector<CRaceData::SMotion,std::allocator<CRaceData::SMotion> > >,void *> > >::~_Alloc_construct_ptr<std::allocator<std::_Tree_node<std::pair<unsigned short const ,std::vector<CRaceData::SMotion,std::allocator<CRaceData::SMotion> > >,void *> > >
PUBLIC	??$_Resize_reallocate@U_Value_init_tag@std@@@?$vector@KV?$allocator@K@std@@@std@@AAEXIABU_Value_init_tag@1@@Z ; std::vector<unsigned long,std::allocator<unsigned long> >::_Resize_reallocate<std::_Value_init_tag>
PUBLIC	??$_Find_lower_bound@K@?$_Tree@V?$_Tmap_traits@KV?$basic_string@DU?$char_traits@D@std@@V?$allocator@D@2@@std@@U?$less@K@2@V?$allocator@U?$pair@$$CBKV?$basic_string@DU?$char_traits@D@std@@V?$allocator@D@2@@std@@@std@@@2@$0A@@std@@@std@@IBE?AU?$_Tree_find_result@PAU?$_Tree_node@U?$pair@$$CBKV?$basic_string@DU?$char_traits@D@std@@V?$allocator@D@2@@std@@@std@@PAX@std@@@1@ABK@Z ; std::_Tree<std::_Tmap_traits<unsigned long,std::basic_string<char,std::char_traits<char>,std::allocator<char> >,std::less<unsigned long>,std::allocator<std::pair<unsigned long const ,std::basic_string<char,std::char_traits<char>,std::allocator<char> > > >,0> >::_Find_lower_bound<unsigned long>
PUBLIC	??$_Copy_memmove@PAPAUSMotionModeData@CRaceData@@PAPAU12@@std@@YAPAPAUSMotionModeData@CRaceData@@PAPAU12@00@Z ; std::_Copy_memmove<CRaceData::SMotionModeData * *,CRaceData::SMotionModeData * *>
PUBLIC	??$_Copy_memmove@PAPAVCRaceData@@PAPAV1@@std@@YAPAPAVCRaceData@@PAPAV1@00@Z ; std::_Copy_memmove<CRaceData * *,CRaceData * *>
PUBLIC	??1?$_Alloc_construct_ptr@V?$allocator@U?$_Tree_node@U?$pair@$$CBKV?$basic_string@DU?$char_traits@D@std@@V?$allocator@D@2@@std@@@std@@PAX@std@@@std@@@std@@QAE@XZ ; std::_Alloc_construct_ptr<std::allocator<std::_Tree_node<std::pair<unsigned long const ,std::basic_string<char,std::char_traits<char>,std::allocator<char> > >,void *> > >::~_Alloc_construct_ptr<std::allocator<std::_Tree_node<std::pair<unsigned long const ,std::basic_string<char,std::char_traits<char>,std::allocator<char> > >,void *> > >
PUBLIC	??1?$_Alloc_construct_ptr@V?$allocator@U?$_Tree_node@U?$pair@$$CBGPAUSMotionModeData@CRaceData@@@std@@PAX@std@@@std@@@std@@QAE@XZ ; std::_Alloc_construct_ptr<std::allocator<std::_Tree_node<std::pair<unsigned short const ,CRaceData::SMotionModeData *>,void *> > >::~_Alloc_construct_ptr<std::allocator<std::_Tree_node<std::pair<unsigned short const ,CRaceData::SMotionModeData *>,void *> > >
PUBLIC	??1?$_Alloc_construct_ptr@V?$allocator@U?$_Tree_node@U?$pair@$$CBKK@std@@PAX@std@@@std@@@std@@QAE@XZ ; std::_Alloc_construct_ptr<std::allocator<std::_Tree_node<std::pair<unsigned long const ,unsigned long>,void *> > >::~_Alloc_construct_ptr<std::allocator<std::_Tree_node<std::pair<unsigned long const ,unsigned long>,void *> > >
PUBLIC	??1?$_Alloc_construct_ptr@V?$allocator@U?$_Tree_node@U?$pair@$$CBKUSComboAttackData@CRaceData@@@std@@PAX@std@@@std@@@std@@QAE@XZ ; std::_Alloc_construct_ptr<std::allocator<std::_Tree_node<std::pair<unsigned long const ,CRaceData::SComboAttackData>,void *> > >::~_Alloc_construct_ptr<std::allocator<std::_Tree_node<std::pair<unsigned long const ,CRaceData::SComboAttackData>,void *> > >
PUBLIC	??$destroy@U?$pair@$$CBKUSComboAttackData@CRaceData@@@std@@@?$_Default_allocator_traits@V?$allocator@U?$_Tree_node@U?$pair@$$CBKUSComboAttackData@CRaceData@@@std@@PAX@std@@@std@@@std@@SAXAAV?$allocator@U?$_Tree_node@U?$pair@$$CBKUSComboAttackData@CRaceData@@@std@@PAX@std@@@1@QAU?$pair@$$CBKUSComboAttackData@CRaceData@@@1@@Z ; std::_Default_allocator_traits<std::allocator<std::_Tree_node<std::pair<unsigned long const ,CRaceData::SComboAttackData>,void *> > >::destroy<std::pair<unsigned long const ,CRaceData::SComboAttackData> >
PUBLIC	??$_Copy_memmove@PAUSMotion@CRaceData@@PAU12@@std@@YAPAUSMotion@CRaceData@@PAU12@00@Z ; std::_Copy_memmove<CRaceData::SMotion *,CRaceData::SMotion *>
PUBLIC	??1?$_Uninitialized_backout_al@V?$allocator@USSkin@CRaceData@@@std@@@std@@QAE@XZ ; std::_Uninitialized_backout_al<std::allocator<CRaceData::SSkin> >::~_Uninitialized_backout_al<std::allocator<CRaceData::SSkin> >
PUBLIC	??$_Zero_range@PAK@std@@YAPAKQAK0@Z		; std::_Zero_range<unsigned long *>
PUBLIC	??$_Copy_memmove@PAKPAK@std@@YAPAKPAK00@Z	; std::_Copy_memmove<unsigned long *,unsigned long *>
PUBLIC	??_7exception@std@@6B@				; std::exception::`vftable'
PUBLIC	??_C@_0BC@EOODALEL@Unknown?5exception@		; `string'
PUBLIC	??_7bad_alloc@std@@6B@				; std::bad_alloc::`vftable'
PUBLIC	??_7bad_array_new_length@std@@6B@		; std::bad_array_new_length::`vftable'
PUBLIC	??_C@_0BF@KINCDENJ@bad?5array?5new?5length@	; `string'
PUBLIC	__TI3?AVbad_array_new_length@std@@
PUBLIC	__CTA3?AVbad_array_new_length@std@@
PUBLIC	??_R0?AVbad_array_new_length@std@@@8		; std::bad_array_new_length `RTTI Type Descriptor'
PUBLIC	__CT??_R0?AVbad_array_new_length@std@@@8??0bad_array_new_length@std@@QAE@ABV01@@Z12
PUBLIC	??_R0?AVbad_alloc@std@@@8			; std::bad_alloc `RTTI Type Descriptor'
PUBLIC	__CT??_R0?AVbad_alloc@std@@@8??0bad_alloc@std@@QAE@ABV01@@Z12
PUBLIC	??_R0?AVexception@std@@@8			; std::exception `RTTI Type Descriptor'
PUBLIC	__CT??_R0?AVexception@std@@@8??0exception@std@@QAE@ABV01@@Z12
PUBLIC	??_C@_0BA@JFNIOLAK@string?5too?5long@		; `string'
PUBLIC	??_C@_0BB@GCADKGJO@map?1set?5too?5long@		; `string'
PUBLIC	??_C@_00CNPNBAHC@@				; `string'
PUBLIC	??_C@_0BI@CFPLBAOH@invalid?5string?5position@	; `string'
PUBLIC	??_R4exception@std@@6B@				; std::exception::`RTTI Complete Object Locator'
PUBLIC	??_R3exception@std@@8				; std::exception::`RTTI Class Hierarchy Descriptor'
PUBLIC	??_R2exception@std@@8				; std::exception::`RTTI Base Class Array'
PUBLIC	??_R1A@?0A@EA@exception@std@@8			; std::exception::`RTTI Base Class Descriptor at (0,-1,0,64)'
PUBLIC	??_R4bad_alloc@std@@6B@				; std::bad_alloc::`RTTI Complete Object Locator'
PUBLIC	??_R3bad_alloc@std@@8				; std::bad_alloc::`RTTI Class Hierarchy Descriptor'
PUBLIC	??_R2bad_alloc@std@@8				; std::bad_alloc::`RTTI Base Class Array'
PUBLIC	??_R1A@?0A@EA@bad_alloc@std@@8			; std::bad_alloc::`RTTI Base Class Descriptor at (0,-1,0,64)'
PUBLIC	??_R4bad_array_new_length@std@@6B@		; std::bad_array_new_length::`RTTI Complete Object Locator'
PUBLIC	??_R3bad_array_new_length@std@@8		; std::bad_array_new_length::`RTTI Class Hierarchy Descriptor'
PUBLIC	??_R2bad_array_new_length@std@@8		; std::bad_array_new_length::`RTTI Base Class Array'
PUBLIC	??_R1A@?0A@EA@bad_array_new_length@std@@8	; std::bad_array_new_length::`RTTI Base Class Descriptor at (0,-1,0,64)'
PUBLIC	?ms_singleton@?$CSingleton@VCResourceManager@@@@0PAVCResourceManager@@A ; CSingleton<CResourceManager>::ms_singleton
PUBLIC	??_7SMotionModeData@CRaceData@@6B@		; CRaceData::SMotionModeData::`vftable'
PUBLIC	?ms_MotionModeDataPool@CRaceData@@1V?$CDynamicPool@USMotionModeData@CRaceData@@@@A ; CRaceData::ms_MotionModeDataPool
PUBLIC	?ms_kPool@CRaceData@@1V?$CDynamicPool@VCRaceData@@@@A ; CRaceData::ms_kPool
PUBLIC	??_7CRaceData@@6B@				; CRaceData::`vftable'
PUBLIC	?ms_kPool@?$CPooledObject@VCHeaderDecorator@NEffectUpdateDecorator@@@@1V?$CDynamicPoolEx@VCHeaderDecorator@NEffectUpdateDecorator@@@@A ; CPooledObject<NEffectUpdateDecorator::CHeaderDecorator>::ms_kPool
PUBLIC	?ms_kPool@?$CPooledObject@VCNullDecorator@NEffectUpdateDecorator@@@@1V?$CDynamicPoolEx@VCNullDecorator@NEffectUpdateDecorator@@@@A ; CPooledObject<NEffectUpdateDecorator::CNullDecorator>::ms_kPool
PUBLIC	?ms_kPool@?$CPooledObject@VCTextureAnimationCWDecorator@NEffectUpdateDecorator@@@@1V?$CDynamicPoolEx@VCTextureAnimationCWDecorator@NEffectUpdateDecorator@@@@A ; CPooledObject<NEffectUpdateDecorator::CTextureAnimationCWDecorator>::ms_kPool
PUBLIC	?ms_kPool@?$CPooledObject@VCTextureAnimationCCWDecorator@NEffectUpdateDecorator@@@@1V?$CDynamicPoolEx@VCTextureAnimationCCWDecorator@NEffectUpdateDecorator@@@@A ; CPooledObject<NEffectUpdateDecorator::CTextureAnimationCCWDecorator>::ms_kPool
PUBLIC	?ms_kPool@?$CPooledObject@VCTextureAnimationRandomDecorator@NEffectUpdateDecorator@@@@1V?$CDynamicPoolEx@VCTextureAnimationRandomDecorator@NEffectUpdateDecorator@@@@A ; CPooledObject<NEffectUpdateDecorator::CTextureAnimationRandomDecorator>::ms_kPool
PUBLIC	?ms_kPool@?$CPooledObject@VCAirResistanceDecorator@NEffectUpdateDecorator@@@@1V?$CDynamicPoolEx@VCAirResistanceDecorator@NEffectUpdateDecorator@@@@A ; CPooledObject<NEffectUpdateDecorator::CAirResistanceDecorator>::ms_kPool
PUBLIC	?ms_kPool@?$CPooledObject@VCGravityDecorator@NEffectUpdateDecorator@@@@1V?$CDynamicPoolEx@VCGravityDecorator@NEffectUpdateDecorator@@@@A ; CPooledObject<NEffectUpdateDecorator::CGravityDecorator>::ms_kPool
PUBLIC	?ms_kPool@?$CPooledObject@VCRotationDecorator@NEffectUpdateDecorator@@@@1V?$CDynamicPoolEx@VCRotationDecorator@NEffectUpdateDecorator@@@@A ; CPooledObject<NEffectUpdateDecorator::CRotationDecorator>::ms_kPool
PUBLIC	??_C@_0CH@BMIMHJM@CRaceData?3?3GetSmokeEffectID?$CIeSm@ ; `string'
PUBLIC	??_C@_0BN@LKCBFCOE@Hair?5number?5?$CFd?5is?5not?5exist?4@ ; `string'
PUBLIC	??_C@_0CB@IBAKOHGK@Failed?5getting?5motion?5mode?5data@ ; `string'
PUBLIC	??_C@_0EG@DMPCLHEF@CRaceData?3?3RegisterMotionData?5?9@ ; `string'
PUBLIC	??_C@_0JC@NKNOKDIB@CRaceData?3?3SetMotionRandomWeigh@ ; `string'
PUBLIC	??_C@_0DA@ECNOMAND@CRaceData?3?3RegisterCombo?5?9?5Stra@ ; `string'
PUBLIC	??_C@_0M@DICOFBOH@_lod_01?4gr2@			; `string'
PUBLIC	??_C@_0M@LNIEHMJP@motlist?4txt@			; `string'
PUBLIC	??_C@_0BJ@DHFDPMIM@invalid?5vector?5subscript@	; `string'
PUBLIC	??_C@_0BA@FOIKENOD@vector?5too?5long@		; `string'
PUBLIC	??_R4CRaceData@@6B@				; CRaceData::`RTTI Complete Object Locator'
PUBLIC	??_R0?AVCRaceData@@@8				; CRaceData `RTTI Type Descriptor'
PUBLIC	??_R3CRaceData@@8				; CRaceData::`RTTI Class Hierarchy Descriptor'
PUBLIC	??_R2CRaceData@@8				; CRaceData::`RTTI Base Class Array'
PUBLIC	??_R1A@?0A@EA@CRaceData@@8			; CRaceData::`RTTI Base Class Descriptor at (0,-1,0,64)'
PUBLIC	??_R4SMotionModeData@CRaceData@@6B@		; CRaceData::SMotionModeData::`RTTI Complete Object Locator'
PUBLIC	??_R0?AUSMotionModeData@CRaceData@@@8		; CRaceData::SMotionModeData `RTTI Type Descriptor'
PUBLIC	??_R3SMotionModeData@CRaceData@@8		; CRaceData::SMotionModeData::`RTTI Class Hierarchy Descriptor'
PUBLIC	??_R2SMotionModeData@CRaceData@@8		; CRaceData::SMotionModeData::`RTTI Base Class Array'
PUBLIC	??_R1A@?0A@EA@SMotionModeData@CRaceData@@8	; CRaceData::SMotionModeData::`RTTI Base Class Descriptor at (0,-1,0,64)'
EXTRN	??2@YAPAXI@Z:PROC				; operator new
EXTRN	??3@YAXPAX@Z:PROC				; operator delete
EXTRN	??3@YAXPAXI@Z:PROC				; operator delete
EXTRN	_atexit:PROC
EXTRN	__invalid_parameter_noinfo_noreturn:PROC
EXTRN	___std_exception_copy:PROC
EXTRN	___std_exception_destroy:PROC
EXTRN	??_Eexception@std@@UAEPAXI@Z:PROC		; std::exception::`vector deleting destructor'
EXTRN	??_Ebad_alloc@std@@UAEPAXI@Z:PROC		; std::bad_alloc::`vector deleting destructor'
EXTRN	??_Ebad_array_new_length@std@@UAEPAXI@Z:PROC	; std::bad_array_new_length::`vector deleting destructor'
EXTRN	?_Xlength_error@std@@YAXPBD@Z:PROC		; std::_Xlength_error
EXTRN	?_Xout_of_range@std@@YAXPBD@Z:PROC		; std::_Xout_of_range
EXTRN	?TraceError@@YAXPBDZZ:PROC			; TraceError
EXTRN	?GetResourcePointer@CResourceManager@@QAEPAVCResource@@PBD@Z:PROC ; CResourceManager::GetResourcePointer
EXTRN	?IsFileExist@CResourceManager@@QAE_NPBD@Z:PROC	; CResourceManager::IsFileExist
EXTRN	??_ESMotionModeData@CRaceData@@UAEPAXI@Z:PROC	; CRaceData::SMotionModeData::`vector deleting destructor'
EXTRN	??_ECRaceData@@UAEPAXI@Z:PROC			; CRaceData::`vector deleting destructor'
EXTRN	?New@CRaceMotionData@@SAPAV1@XZ:PROC		; CRaceMotionData::New
EXTRN	?Delete@CRaceMotionData@@SAXPAV1@@Z:PROC	; CRaceMotionData::Delete
EXTRN	?SetName@CRaceMotionData@@QAEXI@Z:PROC		; CRaceMotionData::SetName
EXTRN	?GetMotionFileName@CRaceMotionData@@QBEPBDXZ:PROC ; CRaceMotionData::GetMotionFileName
EXTRN	?LoadMotionData@CRaceMotionData@@QAE_NPBD@Z:PROC ; CRaceMotionData::LoadMotionData
EXTRN	@__security_check_cookie@4:PROC
EXTRN	__CxxThrowException@8:PROC
EXTRN	___CxxFrameHandler3:PROC
EXTRN	_memcpy:PROC
EXTRN	_memmove:PROC
EXTRN	_memset:PROC
EXTRN	___security_cookie:DWORD
;	COMDAT ?ms_singleton@?$CSingleton@VCResourceManager@@@@0PAVCResourceManager@@A
_BSS	SEGMENT
?ms_singleton@?$CSingleton@VCResourceManager@@@@0PAVCResourceManager@@A DD 01H DUP (?) ; CSingleton<CResourceManager>::ms_singleton
_BSS	ENDS
CRT$XCU	SEGMENT
??ms_kPool$initializer$@CRaceData@@1P6AXXZA@@3P6AXXZA DD FLAT:??__E?ms_kPool@CRaceData@@1V?$CDynamicPool@VCRaceData@@@@A@@YAXXZ ; ??ms_kPool$initializer$@CRaceData@@1P6AXXZA@@3P6AXXZA
CRT$XCU	ENDS
;	COMDAT ??_R1A@?0A@EA@SMotionModeData@CRaceData@@8
rdata$r	SEGMENT
??_R1A@?0A@EA@SMotionModeData@CRaceData@@8 DD FLAT:??_R0?AUSMotionModeData@CRaceData@@@8 ; CRaceData::SMotionModeData::`RTTI Base Class Descriptor at (0,-1,0,64)'
	DD	00H
	DD	00H
	DD	0ffffffffH
	DD	00H
	DD	040H
	DD	FLAT:??_R3SMotionModeData@CRaceData@@8
rdata$r	ENDS
;	COMDAT ??_R2SMotionModeData@CRaceData@@8
rdata$r	SEGMENT
??_R2SMotionModeData@CRaceData@@8 DD FLAT:??_R1A@?0A@EA@SMotionModeData@CRaceData@@8 ; CRaceData::SMotionModeData::`RTTI Base Class Array'
rdata$r	ENDS
;	COMDAT ??_R3SMotionModeData@CRaceData@@8
rdata$r	SEGMENT
??_R3SMotionModeData@CRaceData@@8 DD 00H		; CRaceData::SMotionModeData::`RTTI Class Hierarchy Descriptor'
	DD	00H
	DD	01H
	DD	FLAT:??_R2SMotionModeData@CRaceData@@8
rdata$r	ENDS
;	COMDAT ??_R0?AUSMotionModeData@CRaceData@@@8
data$rs	SEGMENT
??_R0?AUSMotionModeData@CRaceData@@@8 DD FLAT:??_7type_info@@6B@ ; CRaceData::SMotionModeData `RTTI Type Descriptor'
	DD	00H
	DB	'.?AUSMotionModeData@CRaceData@@', 00H
data$rs	ENDS
;	COMDAT ??_R4SMotionModeData@CRaceData@@6B@
rdata$r	SEGMENT
??_R4SMotionModeData@CRaceData@@6B@ DD 00H		; CRaceData::SMotionModeData::`RTTI Complete Object Locator'
	DD	00H
	DD	00H
	DD	FLAT:??_R0?AUSMotionModeData@CRaceData@@@8
	DD	FLAT:??_R3SMotionModeData@CRaceData@@8
rdata$r	ENDS
;	COMDAT ??_R1A@?0A@EA@CRaceData@@8
rdata$r	SEGMENT
??_R1A@?0A@EA@CRaceData@@8 DD FLAT:??_R0?AVCRaceData@@@8 ; CRaceData::`RTTI Base Class Descriptor at (0,-1,0,64)'
	DD	00H
	DD	00H
	DD	0ffffffffH
	DD	00H
	DD	040H
	DD	FLAT:??_R3CRaceData@@8
rdata$r	ENDS
;	COMDAT ??_R2CRaceData@@8
rdata$r	SEGMENT
??_R2CRaceData@@8 DD FLAT:??_R1A@?0A@EA@CRaceData@@8	; CRaceData::`RTTI Base Class Array'
rdata$r	ENDS
;	COMDAT ??_R3CRaceData@@8
rdata$r	SEGMENT
??_R3CRaceData@@8 DD 00H				; CRaceData::`RTTI Class Hierarchy Descriptor'
	DD	00H
	DD	01H
	DD	FLAT:??_R2CRaceData@@8
rdata$r	ENDS
;	COMDAT ??_R0?AVCRaceData@@@8
data$rs	SEGMENT
??_R0?AVCRaceData@@@8 DD FLAT:??_7type_info@@6B@	; CRaceData `RTTI Type Descriptor'
	DD	00H
	DB	'.?AVCRaceData@@', 00H
data$rs	ENDS
;	COMDAT ??_R4CRaceData@@6B@
rdata$r	SEGMENT
??_R4CRaceData@@6B@ DD 00H				; CRaceData::`RTTI Complete Object Locator'
	DD	00H
	DD	00H
	DD	FLAT:??_R0?AVCRaceData@@@8
	DD	FLAT:??_R3CRaceData@@8
rdata$r	ENDS
;	COMDAT ??_C@_0BA@FOIKENOD@vector?5too?5long@
CONST	SEGMENT
??_C@_0BA@FOIKENOD@vector?5too?5long@ DB 'vector too long', 00H ; `string'
CONST	ENDS
;	COMDAT ??_C@_0BJ@DHFDPMIM@invalid?5vector?5subscript@
CONST	SEGMENT
??_C@_0BJ@DHFDPMIM@invalid?5vector?5subscript@ DB 'invalid vector subscri'
	DB	'pt', 00H					; `string'
CONST	ENDS
;	COMDAT ??_C@_0M@LNIEHMJP@motlist?4txt@
CONST	SEGMENT
??_C@_0M@LNIEHMJP@motlist?4txt@ DB 'motlist.txt', 00H	; `string'
CONST	ENDS
;	COMDAT ??_C@_0M@DICOFBOH@_lod_01?4gr2@
CONST	SEGMENT
??_C@_0M@DICOFBOH@_lod_01?4gr2@ DB '_lod_01.gr2', 00H	; `string'
CONST	ENDS
;	COMDAT ??_C@_0DA@ECNOMAND@CRaceData?3?3RegisterCombo?5?9?5Stra@
CONST	SEGMENT
??_C@_0DA@ECNOMAND@CRaceData?3?3RegisterCombo?5?9?5Stra@ DB 'CRaceData::R'
	DB	'egisterCombo - Strange combo index!', 00H	; `string'
CONST	ENDS
;	COMDAT ??_C@_0JC@NKNOKDIB@CRaceData?3?3SetMotionRandomWeigh@
CONST	SEGMENT
??_C@_0JC@NKNOKDIB@CRaceData?3?3SetMotionRandomWeigh@ DB 'CRaceData::SetM'
	DB	'otionRandomWeight(wMotionModeIndex=%d, wMotionIndex=%d, wMoti'
	DB	'onSubIndex=%d, byPercentage=%d) - Find Motion(wMotionIndex=%d'
	DB	') FAILED', 00H				; `string'
CONST	ENDS
;	COMDAT ??_C@_0EG@DMPCLHEF@CRaceData?3?3RegisterMotionData?5?9@
CONST	SEGMENT
??_C@_0EG@DMPCLHEF@CRaceData?3?3RegisterMotionData?5?9@ DB 'CRaceData::Re'
	DB	'gisterMotionData - LoadMotionData(c_szFileName=%s) ERROR', 00H ; `string'
CONST	ENDS
;	COMDAT ??_C@_0CB@IBAKOHGK@Failed?5getting?5motion?5mode?5data@
CONST	SEGMENT
??_C@_0CB@IBAKOHGK@Failed?5getting?5motion?5mode?5data@ DB 'Failed gettin'
	DB	'g motion mode data!', 00H			; `string'
CONST	ENDS
;	COMDAT ??_C@_0BN@LKCBFCOE@Hair?5number?5?$CFd?5is?5not?5exist?4@
CONST	SEGMENT
??_C@_0BN@LKCBFCOE@Hair?5number?5?$CFd?5is?5not?5exist?4@ DB 'Hair number'
	DB	' %d is not exist.', 00H			; `string'
CONST	ENDS
;	COMDAT ??_C@_0CH@BMIMHJM@CRaceData?3?3GetSmokeEffectID?$CIeSm@
CONST	SEGMENT
??_C@_0CH@BMIMHJM@CRaceData?3?3GetSmokeEffectID?$CIeSm@ DB 'CRaceData::Ge'
	DB	'tSmokeEffectID(eSmoke=%d)', 00H		; `string'
CONST	ENDS
;	COMDAT ?ms_kPool@?$CPooledObject@VCRotationDecorator@NEffectUpdateDecorator@@@@1V?$CDynamicPoolEx@VCRotationDecorator@NEffectUpdateDecorator@@@@A
_DATA	SEGMENT
?ms_kPool@?$CPooledObject@VCRotationDecorator@NEffectUpdateDecorator@@@@1V?$CDynamicPoolEx@VCRotationDecorator@NEffectUpdateDecorator@@@@A DD FLAT:??_7?$CDynamicPoolEx@VCRotationDecorator@NEffectUpdateDecorator@@@@6B@ ; CPooledObject<NEffectUpdateDecorator::CRotationDecorator>::ms_kPool
	DD	00H
	DD	00H
	DD	00H
	DD	00H
	DD	00H
	DD	00H
	DD	00H
	DD	00H
_DATA	ENDS
;	COMDAT ?ms_kPool@?$CPooledObject@VCGravityDecorator@NEffectUpdateDecorator@@@@1V?$CDynamicPoolEx@VCGravityDecorator@NEffectUpdateDecorator@@@@A
_DATA	SEGMENT
?ms_kPool@?$CPooledObject@VCGravityDecorator@NEffectUpdateDecorator@@@@1V?$CDynamicPoolEx@VCGravityDecorator@NEffectUpdateDecorator@@@@A DD FLAT:??_7?$CDynamicPoolEx@VCGravityDecorator@NEffectUpdateDecorator@@@@6B@ ; CPooledObject<NEffectUpdateDecorator::CGravityDecorator>::ms_kPool
	DD	00H
	DD	00H
	DD	00H
	DD	00H
	DD	00H
	DD	00H
	DD	00H
	DD	00H
_DATA	ENDS
;	COMDAT ?ms_kPool@?$CPooledObject@VCAirResistanceDecorator@NEffectUpdateDecorator@@@@1V?$CDynamicPoolEx@VCAirResistanceDecorator@NEffectUpdateDecorator@@@@A
_DATA	SEGMENT
?ms_kPool@?$CPooledObject@VCAirResistanceDecorator@NEffectUpdateDecorator@@@@1V?$CDynamicPoolEx@VCAirResistanceDecorator@NEffectUpdateDecorator@@@@A DD FLAT:??_7?$CDynamicPoolEx@VCAirResistanceDecorator@NEffectUpdateDecorator@@@@6B@ ; CPooledObject<NEffectUpdateDecorator::CAirResistanceDecorator>::ms_kPool
	DD	00H
	DD	00H
	DD	00H
	DD	00H
	DD	00H
	DD	00H
	DD	00H
	DD	00H
_DATA	ENDS
;	COMDAT ?ms_kPool@?$CPooledObject@VCTextureAnimationRandomDecorator@NEffectUpdateDecorator@@@@1V?$CDynamicPoolEx@VCTextureAnimationRandomDecorator@NEffectUpdateDecorator@@@@A
_DATA	SEGMENT
?ms_kPool@?$CPooledObject@VCTextureAnimationRandomDecorator@NEffectUpdateDecorator@@@@1V?$CDynamicPoolEx@VCTextureAnimationRandomDecorator@NEffectUpdateDecorator@@@@A DD FLAT:??_7?$CDynamicPoolEx@VCTextureAnimationRandomDecorator@NEffectUpdateDecorator@@@@6B@ ; CPooledObject<NEffectUpdateDecorator::CTextureAnimationRandomDecorator>::ms_kPool
	DD	00H
	DD	00H
	DD	00H
	DD	00H
	DD	00H
	DD	00H
	DD	00H
	DD	00H
_DATA	ENDS
;	COMDAT ?ms_kPool@?$CPooledObject@VCTextureAnimationCCWDecorator@NEffectUpdateDecorator@@@@1V?$CDynamicPoolEx@VCTextureAnimationCCWDecorator@NEffectUpdateDecorator@@@@A
_DATA	SEGMENT
?ms_kPool@?$CPooledObject@VCTextureAnimationCCWDecorator@NEffectUpdateDecorator@@@@1V?$CDynamicPoolEx@VCTextureAnimationCCWDecorator@NEffectUpdateDecorator@@@@A DD FLAT:??_7?$CDynamicPoolEx@VCTextureAnimationCCWDecorator@NEffectUpdateDecorator@@@@6B@ ; CPooledObject<NEffectUpdateDecorator::CTextureAnimationCCWDecorator>::ms_kPool
	DD	00H
	DD	00H
	DD	00H
	DD	00H
	DD	00H
	DD	00H
	DD	00H
	DD	00H
_DATA	ENDS
;	COMDAT ?ms_kPool@?$CPooledObject@VCTextureAnimationCWDecorator@NEffectUpdateDecorator@@@@1V?$CDynamicPoolEx@VCTextureAnimationCWDecorator@NEffectUpdateDecorator@@@@A
_DATA	SEGMENT
?ms_kPool@?$CPooledObject@VCTextureAnimationCWDecorator@NEffectUpdateDecorator@@@@1V?$CDynamicPoolEx@VCTextureAnimationCWDecorator@NEffectUpdateDecorator@@@@A DD FLAT:??_7?$CDynamicPoolEx@VCTextureAnimationCWDecorator@NEffectUpdateDecorator@@@@6B@ ; CPooledObject<NEffectUpdateDecorator::CTextureAnimationCWDecorator>::ms_kPool
	DD	00H
	DD	00H
	DD	00H
	DD	00H
	DD	00H
	DD	00H
	DD	00H
	DD	00H
_DATA	ENDS
;	COMDAT ?ms_kPool@?$CPooledObject@VCNullDecorator@NEffectUpdateDecorator@@@@1V?$CDynamicPoolEx@VCNullDecorator@NEffectUpdateDecorator@@@@A
_DATA	SEGMENT
?ms_kPool@?$CPooledObject@VCNullDecorator@NEffectUpdateDecorator@@@@1V?$CDynamicPoolEx@VCNullDecorator@NEffectUpdateDecorator@@@@A DD FLAT:??_7?$CDynamicPoolEx@VCNullDecorator@NEffectUpdateDecorator@@@@6B@ ; CPooledObject<NEffectUpdateDecorator::CNullDecorator>::ms_kPool
	DD	00H
	DD	00H
	DD	00H
	DD	00H
	DD	00H
	DD	00H
	DD	00H
	DD	00H
_DATA	ENDS
;	COMDAT ?ms_kPool@?$CPooledObject@VCHeaderDecorator@NEffectUpdateDecorator@@@@1V?$CDynamicPoolEx@VCHeaderDecorator@NEffectUpdateDecorator@@@@A
_DATA	SEGMENT
?ms_kPool@?$CPooledObject@VCHeaderDecorator@NEffectUpdateDecorator@@@@1V?$CDynamicPoolEx@VCHeaderDecorator@NEffectUpdateDecorator@@@@A DD FLAT:??_7?$CDynamicPoolEx@VCHeaderDecorator@NEffectUpdateDecorator@@@@6B@ ; CPooledObject<NEffectUpdateDecorator::CHeaderDecorator>::ms_kPool
	DD	00H
	DD	00H
	DD	00H
	DD	00H
	DD	00H
	DD	00H
	DD	00H
	DD	00H
_DATA	ENDS
;	COMDAT ??_7CRaceData@@6B@
CONST	SEGMENT
??_7CRaceData@@6B@ DD FLAT:??_R4CRaceData@@6B@		; CRaceData::`vftable'
	DD	FLAT:??_ECRaceData@@UAEPAXI@Z
CONST	ENDS
_DATA	SEGMENT
?ms_MotionModeDataPool@CRaceData@@1V?$CDynamicPool@USMotionModeData@CRaceData@@@@A DD FLAT:??_7?$CDynamicPool@USMotionModeData@CRaceData@@@@6B@ ; CRaceData::ms_MotionModeDataPool
	DD	00H
	DD	00H
	DD	00H
	DD	00H
	DD	00H
	DD	00H
	DD	00H
	DD	00H
?ms_kPool@CRaceData@@1V?$CDynamicPool@VCRaceData@@@@A DD FLAT:??_7?$CDynamicPool@VCRaceData@@@@6B@ ; CRaceData::ms_kPool
	DD	00H
	DD	00H
	DD	00H
	DD	00H
	DD	00H
	DD	00H
	DD	00H
	DD	00H
_DATA	ENDS
;	COMDAT ??_7SMotionModeData@CRaceData@@6B@
CONST	SEGMENT
??_7SMotionModeData@CRaceData@@6B@ DD FLAT:??_R4SMotionModeData@CRaceData@@6B@ ; CRaceData::SMotionModeData::`vftable'
	DD	FLAT:??_ESMotionModeData@CRaceData@@UAEPAXI@Z
CONST	ENDS
;	COMDAT ??_R1A@?0A@EA@bad_array_new_length@std@@8
rdata$r	SEGMENT
??_R1A@?0A@EA@bad_array_new_length@std@@8 DD FLAT:??_R0?AVbad_array_new_length@std@@@8 ; std::bad_array_new_length::`RTTI Base Class Descriptor at (0,-1,0,64)'
	DD	02H
	DD	00H
	DD	0ffffffffH
	DD	00H
	DD	040H
	DD	FLAT:??_R3bad_array_new_length@std@@8
rdata$r	ENDS
;	COMDAT ??_R2bad_array_new_length@std@@8
rdata$r	SEGMENT
??_R2bad_array_new_length@std@@8 DD FLAT:??_R1A@?0A@EA@bad_array_new_length@std@@8 ; std::bad_array_new_length::`RTTI Base Class Array'
	DD	FLAT:??_R1A@?0A@EA@bad_alloc@std@@8
	DD	FLAT:??_R1A@?0A@EA@exception@std@@8
rdata$r	ENDS
;	COMDAT ??_R3bad_array_new_length@std@@8
rdata$r	SEGMENT
??_R3bad_array_new_length@std@@8 DD 00H			; std::bad_array_new_length::`RTTI Class Hierarchy Descriptor'
	DD	00H
	DD	03H
	DD	FLAT:??_R2bad_array_new_length@std@@8
rdata$r	ENDS
;	COMDAT ??_R4bad_array_new_length@std@@6B@
rdata$r	SEGMENT
??_R4bad_array_new_length@std@@6B@ DD 00H		; std::bad_array_new_length::`RTTI Complete Object Locator'
	DD	00H
	DD	00H
	DD	FLAT:??_R0?AVbad_array_new_length@std@@@8
	DD	FLAT:??_R3bad_array_new_length@std@@8
rdata$r	ENDS
;	COMDAT ??_R1A@?0A@EA@bad_alloc@std@@8
rdata$r	SEGMENT
??_R1A@?0A@EA@bad_alloc@std@@8 DD FLAT:??_R0?AVbad_alloc@std@@@8 ; std::bad_alloc::`RTTI Base Class Descriptor at (0,-1,0,64)'
	DD	01H
	DD	00H
	DD	0ffffffffH
	DD	00H
	DD	040H
	DD	FLAT:??_R3bad_alloc@std@@8
rdata$r	ENDS
;	COMDAT ??_R2bad_alloc@std@@8
rdata$r	SEGMENT
??_R2bad_alloc@std@@8 DD FLAT:??_R1A@?0A@EA@bad_alloc@std@@8 ; std::bad_alloc::`RTTI Base Class Array'
	DD	FLAT:??_R1A@?0A@EA@exception@std@@8
rdata$r	ENDS
;	COMDAT ??_R3bad_alloc@std@@8
rdata$r	SEGMENT
??_R3bad_alloc@std@@8 DD 00H				; std::bad_alloc::`RTTI Class Hierarchy Descriptor'
	DD	00H
	DD	02H
	DD	FLAT:??_R2bad_alloc@std@@8
rdata$r	ENDS
;	COMDAT ??_R4bad_alloc@std@@6B@
rdata$r	SEGMENT
??_R4bad_alloc@std@@6B@ DD 00H				; std::bad_alloc::`RTTI Complete Object Locator'
	DD	00H
	DD	00H
	DD	FLAT:??_R0?AVbad_alloc@std@@@8
	DD	FLAT:??_R3bad_alloc@std@@8
rdata$r	ENDS
;	COMDAT ??_R1A@?0A@EA@exception@std@@8
rdata$r	SEGMENT
??_R1A@?0A@EA@exception@std@@8 DD FLAT:??_R0?AVexception@std@@@8 ; std::exception::`RTTI Base Class Descriptor at (0,-1,0,64)'
	DD	00H
	DD	00H
	DD	0ffffffffH
	DD	00H
	DD	040H
	DD	FLAT:??_R3exception@std@@8
rdata$r	ENDS
;	COMDAT ??_R2exception@std@@8
rdata$r	SEGMENT
??_R2exception@std@@8 DD FLAT:??_R1A@?0A@EA@exception@std@@8 ; std::exception::`RTTI Base Class Array'
rdata$r	ENDS
;	COMDAT ??_R3exception@std@@8
rdata$r	SEGMENT
??_R3exception@std@@8 DD 00H				; std::exception::`RTTI Class Hierarchy Descriptor'
	DD	00H
	DD	01H
	DD	FLAT:??_R2exception@std@@8
rdata$r	ENDS
;	COMDAT ??_R4exception@std@@6B@
rdata$r	SEGMENT
??_R4exception@std@@6B@ DD 00H				; std::exception::`RTTI Complete Object Locator'
	DD	00H
	DD	00H
	DD	FLAT:??_R0?AVexception@std@@@8
	DD	FLAT:??_R3exception@std@@8
rdata$r	ENDS
;	COMDAT ??_C@_0BI@CFPLBAOH@invalid?5string?5position@
CONST	SEGMENT
??_C@_0BI@CFPLBAOH@invalid?5string?5position@ DB 'invalid string position'
	DB	00H						; `string'
CONST	ENDS
;	COMDAT ??_C@_00CNPNBAHC@@
CONST	SEGMENT
??_C@_00CNPNBAHC@@ DB 00H				; `string'
CONST	ENDS
;	COMDAT ??_C@_0BB@GCADKGJO@map?1set?5too?5long@
CONST	SEGMENT
??_C@_0BB@GCADKGJO@map?1set?5too?5long@ DB 'map/set too long', 00H ; `string'
CONST	ENDS
;	COMDAT ??_C@_0BA@JFNIOLAK@string?5too?5long@
CONST	SEGMENT
??_C@_0BA@JFNIOLAK@string?5too?5long@ DB 'string too long', 00H ; `string'
CONST	ENDS
;	COMDAT __CT??_R0?AVexception@std@@@8??0exception@std@@QAE@ABV01@@Z12
xdata$x	SEGMENT
__CT??_R0?AVexception@std@@@8??0exception@std@@QAE@ABV01@@Z12 DD 00H
	DD	FLAT:??_R0?AVexception@std@@@8
	DD	00H
	DD	0ffffffffH
	ORG $+4
	DD	0cH
	DD	FLAT:??0exception@std@@QAE@ABV01@@Z
xdata$x	ENDS
;	COMDAT ??_R0?AVexception@std@@@8
data$r	SEGMENT
??_R0?AVexception@std@@@8 DD FLAT:??_7type_info@@6B@	; std::exception `RTTI Type Descriptor'
	DD	00H
	DB	'.?AVexception@std@@', 00H
data$r	ENDS
;	COMDAT __CT??_R0?AVbad_alloc@std@@@8??0bad_alloc@std@@QAE@ABV01@@Z12
xdata$x	SEGMENT
__CT??_R0?AVbad_alloc@std@@@8??0bad_alloc@std@@QAE@ABV01@@Z12 DD 010H
	DD	FLAT:??_R0?AVbad_alloc@std@@@8
	DD	00H
	DD	0ffffffffH
	ORG $+4
	DD	0cH
	DD	FLAT:??0bad_alloc@std@@QAE@ABV01@@Z
xdata$x	ENDS
;	COMDAT ??_R0?AVbad_alloc@std@@@8
data$r	SEGMENT
??_R0?AVbad_alloc@std@@@8 DD FLAT:??_7type_info@@6B@	; std::bad_alloc `RTTI Type Descriptor'
	DD	00H
	DB	'.?AVbad_alloc@std@@', 00H
data$r	ENDS
;	COMDAT __CT??_R0?AVbad_array_new_length@std@@@8??0bad_array_new_length@std@@QAE@ABV01@@Z12
xdata$x	SEGMENT
__CT??_R0?AVbad_array_new_length@std@@@8??0bad_array_new_length@std@@QAE@ABV01@@Z12 DD 00H
	DD	FLAT:??_R0?AVbad_array_new_length@std@@@8
	DD	00H
	DD	0ffffffffH
	ORG $+4
	DD	0cH
	DD	FLAT:??0bad_array_new_length@std@@QAE@ABV01@@Z
xdata$x	ENDS
;	COMDAT ??_R0?AVbad_array_new_length@std@@@8
data$r	SEGMENT
??_R0?AVbad_array_new_length@std@@@8 DD FLAT:??_7type_info@@6B@ ; std::bad_array_new_length `RTTI Type Descriptor'
	DD	00H
	DB	'.?AVbad_array_new_length@std@@', 00H
data$r	ENDS
;	COMDAT __CTA3?AVbad_array_new_length@std@@
xdata$x	SEGMENT
__CTA3?AVbad_array_new_length@std@@ DD 03H
	DD	FLAT:__CT??_R0?AVbad_array_new_length@std@@@8??0bad_array_new_length@std@@QAE@ABV01@@Z12
	DD	FLAT:__CT??_R0?AVbad_alloc@std@@@8??0bad_alloc@std@@QAE@ABV01@@Z12
	DD	FLAT:__CT??_R0?AVexception@std@@@8??0exception@std@@QAE@ABV01@@Z12
xdata$x	ENDS
;	COMDAT __TI3?AVbad_array_new_length@std@@
xdata$x	SEGMENT
__TI3?AVbad_array_new_length@std@@ DD 00H
	DD	FLAT:??1bad_array_new_length@std@@UAE@XZ
	DD	00H
	DD	FLAT:__CTA3?AVbad_array_new_length@std@@
xdata$x	ENDS
;	COMDAT ??_C@_0BF@KINCDENJ@bad?5array?5new?5length@
CONST	SEGMENT
??_C@_0BF@KINCDENJ@bad?5array?5new?5length@ DB 'bad array new length', 00H ; `string'
CONST	ENDS
;	COMDAT ??_7bad_array_new_length@std@@6B@
CONST	SEGMENT
??_7bad_array_new_length@std@@6B@ DD FLAT:??_R4bad_array_new_length@std@@6B@ ; std::bad_array_new_length::`vftable'
	DD	FLAT:??_Ebad_array_new_length@std@@UAEPAXI@Z
	DD	FLAT:?what@exception@std@@UBEPBDXZ
CONST	ENDS
;	COMDAT ??_7bad_alloc@std@@6B@
CONST	SEGMENT
??_7bad_alloc@std@@6B@ DD FLAT:??_R4bad_alloc@std@@6B@	; std::bad_alloc::`vftable'
	DD	FLAT:??_Ebad_alloc@std@@UAEPAXI@Z
	DD	FLAT:?what@exception@std@@UBEPBDXZ
CONST	ENDS
;	COMDAT ??_C@_0BC@EOODALEL@Unknown?5exception@
CONST	SEGMENT
??_C@_0BC@EOODALEL@Unknown?5exception@ DB 'Unknown exception', 00H ; `string'
CONST	ENDS
;	COMDAT ??_7exception@std@@6B@
CONST	SEGMENT
??_7exception@std@@6B@ DD FLAT:??_R4exception@std@@6B@	; std::exception::`vftable'
	DD	FLAT:??_Eexception@std@@UAEPAXI@Z
	DD	FLAT:?what@exception@std@@UBEPBDXZ
CONST	ENDS
;	COMDAT xdata$x
xdata$x	SEGMENT
__unwindtable$??$?0U?$pair@$$CBKUSComboAttackData@CRaceData@@@std@@@?$_Tree_temp_node@V?$allocator@U?$_Tree_node@U?$pair@$$CBKUSComboAttackData@CRaceData@@@std@@PAX@std@@@std@@@std@@QAE@AAV?$allocator@U?$_Tree_node@U?$pair@$$CBKUSComboAttackData@CRaceData@@@std@@PAX@std@@@1@PAU?$_Tree_node@U?$pair@$$CBKUSComboAttackData@CRaceData@@@std@@PAX@1@$$QAU?$pair@$$CBKUSComboAttackData@CRaceData@@@1@@Z DD 0ffffffffH
	DD	FLAT:__unwindfunclet$??$?0U?$pair@$$CBKUSComboAttackData@CRaceData@@@std@@@?$_Tree_temp_node@V?$allocator@U?$_Tree_node@U?$pair@$$CBKUSComboAttackData@CRaceData@@@std@@PAX@std@@@std@@@std@@QAE@AAV?$allocator@U?$_Tree_node@U?$pair@$$CBKUSComboAttackData@CRaceData@@@std@@PAX@std@@@1@PAU?$_Tree_node@U?$pair@$$CBKUSComboAttackData@CRaceData@@@std@@PAX@1@$$QAU?$pair@$$CBKUSComboAttackData@CRaceData@@@1@@Z$1
__ehfuncinfo$??$?0U?$pair@$$CBKUSComboAttackData@CRaceData@@@std@@@?$_Tree_temp_node@V?$allocator@U?$_Tree_node@U?$pair@$$CBKUSComboAttackData@CRaceData@@@std@@PAX@std@@@std@@@std@@QAE@AAV?$allocator@U?$_Tree_node@U?$pair@$$CBKUSComboAttackData@CRaceData@@@std@@PAX@std@@@1@PAU?$_Tree_node@U?$pair@$$CBKUSComboAttackData@CRaceData@@@std@@PAX@1@$$QAU?$pair@$$CBKUSComboAttackData@CRaceData@@@1@@Z DD 019930522H
	DD	01H
	DD	FLAT:__unwindtable$??$?0U?$pair@$$CBKUSComboAttackData@CRaceData@@@std@@@?$_Tree_temp_node@V?$allocator@U?$_Tree_node@U?$pair@$$CBKUSComboAttackData@CRaceData@@@std@@PAX@std@@@std@@@std@@QAE@AAV?$allocator@U?$_Tree_node@U?$pair@$$CBKUSComboAttackData@CRaceData@@@std@@PAX@std@@@1@PAU?$_Tree_node@U?$pair@$$CBKUSComboAttackData@CRaceData@@@std@@PAX@1@$$QAU?$pair@$$CBKUSComboAttackData@CRaceData@@@1@@Z
	DD	2 DUP(00H)
	DD	2 DUP(00H)
	DD	00H
	DD	01H
xdata$x	ENDS
;	COMDAT xdata$x
xdata$x	SEGMENT
__unwindtable$??0?$_Tree_temp_node_alloc@V?$allocator@U?$_Tree_node@U?$pair@$$CBKUSComboAttackData@CRaceData@@@std@@PAX@std@@@std@@@std@@QAE@AAV?$allocator@U?$_Tree_node@U?$pair@$$CBKUSComboAttackData@CRaceData@@@std@@PAX@std@@@1@@Z DD 0ffffffffH
	DD	FLAT:__unwindfunclet$??0?$_Tree_temp_node_alloc@V?$allocator@U?$_Tree_node@U?$pair@$$CBKUSComboAttackData@CRaceData@@@std@@PAX@std@@@std@@@std@@QAE@AAV?$allocator@U?$_Tree_node@U?$pair@$$CBKUSComboAttackData@CRaceData@@@std@@PAX@std@@@1@@Z$0
__ehfuncinfo$??0?$_Tree_temp_node_alloc@V?$allocator@U?$_Tree_node@U?$pair@$$CBKUSComboAttackData@CRaceData@@@std@@PAX@std@@@std@@@std@@QAE@AAV?$allocator@U?$_Tree_node@U?$pair@$$CBKUSComboAttackData@CRaceData@@@std@@PAX@std@@@1@@Z DD 019930522H
	DD	01H
	DD	FLAT:__unwindtable$??0?$_Tree_temp_node_alloc@V?$allocator@U?$_Tree_node@U?$pair@$$CBKUSComboAttackData@CRaceData@@@std@@PAX@std@@@std@@@std@@QAE@AAV?$allocator@U?$_Tree_node@U?$pair@$$CBKUSComboAttackData@CRaceData@@@std@@PAX@std@@@1@@Z
	DD	2 DUP(00H)
	DD	2 DUP(00H)
	DD	00H
	DD	01H
xdata$x	ENDS
;	COMDAT xdata$x
xdata$x	SEGMENT
__unwindtable$??$?0U?$pair@$$CBKK@std@@@?$_Tree_temp_node@V?$allocator@U?$_Tree_node@U?$pair@$$CBKK@std@@PAX@std@@@std@@@std@@QAE@AAV?$allocator@U?$_Tree_node@U?$pair@$$CBKK@std@@PAX@std@@@1@PAU?$_Tree_node@U?$pair@$$CBKK@std@@PAX@1@$$QAU?$pair@$$CBKK@1@@Z DD 0ffffffffH
	DD	FLAT:__unwindfunclet$??$?0U?$pair@$$CBKK@std@@@?$_Tree_temp_node@V?$allocator@U?$_Tree_node@U?$pair@$$CBKK@std@@PAX@std@@@std@@@std@@QAE@AAV?$allocator@U?$_Tree_node@U?$pair@$$CBKK@std@@PAX@std@@@1@PAU?$_Tree_node@U?$pair@$$CBKK@std@@PAX@1@$$QAU?$pair@$$CBKK@1@@Z$1
__ehfuncinfo$??$?0U?$pair@$$CBKK@std@@@?$_Tree_temp_node@V?$allocator@U?$_Tree_node@U?$pair@$$CBKK@std@@PAX@std@@@std@@@std@@QAE@AAV?$allocator@U?$_Tree_node@U?$pair@$$CBKK@std@@PAX@std@@@1@PAU?$_Tree_node@U?$pair@$$CBKK@std@@PAX@1@$$QAU?$pair@$$CBKK@1@@Z DD 019930522H
	DD	01H
	DD	FLAT:__unwindtable$??$?0U?$pair@$$CBKK@std@@@?$_Tree_temp_node@V?$allocator@U?$_Tree_node@U?$pair@$$CBKK@std@@PAX@std@@@std@@@std@@QAE@AAV?$allocator@U?$_Tree_node@U?$pair@$$CBKK@std@@PAX@std@@@1@PAU?$_Tree_node@U?$pair@$$CBKK@std@@PAX@1@$$QAU?$pair@$$CBKK@1@@Z
	DD	2 DUP(00H)
	DD	2 DUP(00H)
	DD	00H
	DD	01H
xdata$x	ENDS
;	COMDAT xdata$x
xdata$x	SEGMENT
__unwindtable$??0?$_Tree_temp_node_alloc@V?$allocator@U?$_Tree_node@U?$pair@$$CBKK@std@@PAX@std@@@std@@@std@@QAE@AAV?$allocator@U?$_Tree_node@U?$pair@$$CBKK@std@@PAX@std@@@1@@Z DD 0ffffffffH
	DD	FLAT:__unwindfunclet$??0?$_Tree_temp_node_alloc@V?$allocator@U?$_Tree_node@U?$pair@$$CBKK@std@@PAX@std@@@std@@@std@@QAE@AAV?$allocator@U?$_Tree_node@U?$pair@$$CBKK@std@@PAX@std@@@1@@Z$0
__ehfuncinfo$??0?$_Tree_temp_node_alloc@V?$allocator@U?$_Tree_node@U?$pair@$$CBKK@std@@PAX@std@@@std@@@std@@QAE@AAV?$allocator@U?$_Tree_node@U?$pair@$$CBKK@std@@PAX@std@@@1@@Z DD 019930522H
	DD	01H
	DD	FLAT:__unwindtable$??0?$_Tree_temp_node_alloc@V?$allocator@U?$_Tree_node@U?$pair@$$CBKK@std@@PAX@std@@@std@@@std@@QAE@AAV?$allocator@U?$_Tree_node@U?$pair@$$CBKK@std@@PAX@std@@@1@@Z
	DD	2 DUP(00H)
	DD	2 DUP(00H)
	DD	00H
	DD	01H
xdata$x	ENDS
;	COMDAT xdata$x
xdata$x	SEGMENT
__unwindtable$??$?0U?$pair@$$CBGV?$vector@USMotion@CRaceData@@V?$allocator@USMotion@CRaceData@@@std@@@std@@@std@@@?$_Tree_temp_node@V?$allocator@U?$_Tree_node@U?$pair@$$CBGV?$vector@USMotion@CRaceData@@V?$allocator@USMotion@CRaceData@@@std@@@std@@@std@@PAX@std@@@std@@@std@@QAE@AAV?$allocator@U?$_Tree_node@U?$pair@$$CBGV?$vector@USMotion@CRaceData@@V?$allocator@USMotion@CRaceData@@@std@@@std@@@std@@PAX@std@@@1@PAU?$_Tree_node@U?$pair@$$CBGV?$vector@USMotion@CRaceData@@V?$allocator@USMotion@CRaceData@@@std@@@std@@@std@@PAX@1@$$QAU?$pair@$$CBGV?$vector@USMotion@CRaceData@@V?$allocator@USMotion@CRaceData@@@std@@@std@@@1@@Z DD 0ffffffffH
	DD	FLAT:__unwindfunclet$??$?0U?$pair@$$CBGV?$vector@USMotion@CRaceData@@V?$allocator@USMotion@CRaceData@@@std@@@std@@@std@@@?$_Tree_temp_node@V?$allocator@U?$_Tree_node@U?$pair@$$CBGV?$vector@USMotion@CRaceData@@V?$allocator@USMotion@CRaceData@@@std@@@std@@@std@@PAX@std@@@std@@@std@@QAE@AAV?$allocator@U?$_Tree_node@U?$pair@$$CBGV?$vector@USMotion@CRaceData@@V?$allocator@USMotion@CRaceData@@@std@@@std@@@std@@PAX@std@@@1@PAU?$_Tree_node@U?$pair@$$CBGV?$vector@USMotion@CRaceData@@V?$allocator@USMotion@CRaceData@@@std@@@std@@@std@@PAX@1@$$QAU?$pair@$$CBGV?$vector@USMotion@CRaceData@@V?$allocator@USMotion@CRaceData@@@std@@@std@@@1@@Z$1
__ehfuncinfo$??$?0U?$pair@$$CBGV?$vector@USMotion@CRaceData@@V?$allocator@USMotion@CRaceData@@@std@@@std@@@std@@@?$_Tree_temp_node@V?$allocator@U?$_Tree_node@U?$pair@$$CBGV?$vector@USMotion@CRaceData@@V?$allocator@USMotion@CRaceData@@@std@@@std@@@std@@PAX@std@@@std@@@std@@QAE@AAV?$allocator@U?$_Tree_node@U?$pair@$$CBGV?$vector@USMotion@CRaceData@@V?$allocator@USMotion@CRaceData@@@std@@@std@@@std@@PAX@std@@@1@PAU?$_Tree_node@U?$pair@$$CBGV?$vector@USMotion@CRaceData@@V?$allocator@USMotion@CRaceData@@@std@@@std@@@std@@PAX@1@$$QAU?$pair@$$CBGV?$vector@USMotion@CRaceData@@V?$allocator@USMotion@CRaceData@@@std@@@std@@@1@@Z DD 019930522H
	DD	01H
	DD	FLAT:__unwindtable$??$?0U?$pair@$$CBGV?$vector@USMotion@CRaceData@@V?$allocator@USMotion@CRaceData@@@std@@@std@@@std@@@?$_Tree_temp_node@V?$allocator@U?$_Tree_node@U?$pair@$$CBGV?$vector@USMotion@CRaceData@@V?$allocator@USMotion@CRaceData@@@std@@@std@@@std@@PAX@std@@@std@@@std@@QAE@AAV?$allocator@U?$_Tree_node@U?$pair@$$CBGV?$vector@USMotion@CRaceData@@V?$allocator@USMotion@CRaceData@@@std@@@std@@@std@@PAX@std@@@1@PAU?$_Tree_node@U?$pair@$$CBGV?$vector@USMotion@CRaceData@@V?$allocator@USMotion@CRaceData@@@std@@@std@@@std@@PAX@1@$$QAU?$pair@$$CBGV?$vector@USMotion@CRaceData@@V?$allocator@USMotion@CRaceData@@@std@@@std@@@1@@Z
	DD	2 DUP(00H)
	DD	2 DUP(00H)
	DD	00H
	DD	01H
xdata$x	ENDS
;	COMDAT xdata$x
xdata$x	SEGMENT
__unwindtable$??$?0U?$pair@$$CBGPAUSMotionModeData@CRaceData@@@std@@@?$_Tree_temp_node@V?$allocator@U?$_Tree_node@U?$pair@$$CBGPAUSMotionModeData@CRaceData@@@std@@PAX@std@@@std@@@std@@QAE@AAV?$allocator@U?$_Tree_node@U?$pair@$$CBGPAUSMotionModeData@CRaceData@@@std@@PAX@std@@@1@PAU?$_Tree_node@U?$pair@$$CBGPAUSMotionModeData@CRaceData@@@std@@PAX@1@$$QAU?$pair@$$CBGPAUSMotionModeData@CRaceData@@@1@@Z DD 0ffffffffH
	DD	FLAT:__unwindfunclet$??$?0U?$pair@$$CBGPAUSMotionModeData@CRaceData@@@std@@@?$_Tree_temp_node@V?$allocator@U?$_Tree_node@U?$pair@$$CBGPAUSMotionModeData@CRaceData@@@std@@PAX@std@@@std@@@std@@QAE@AAV?$allocator@U?$_Tree_node@U?$pair@$$CBGPAUSMotionModeData@CRaceData@@@std@@PAX@std@@@1@PAU?$_Tree_node@U?$pair@$$CBGPAUSMotionModeData@CRaceData@@@std@@PAX@1@$$QAU?$pair@$$CBGPAUSMotionModeData@CRaceData@@@1@@Z$1
__ehfuncinfo$??$?0U?$pair@$$CBGPAUSMotionModeData@CRaceData@@@std@@@?$_Tree_temp_node@V?$allocator@U?$_Tree_node@U?$pair@$$CBGPAUSMotionModeData@CRaceData@@@std@@PAX@std@@@std@@@std@@QAE@AAV?$allocator@U?$_Tree_node@U?$pair@$$CBGPAUSMotionModeData@CRaceData@@@std@@PAX@std@@@1@PAU?$_Tree_node@U?$pair@$$CBGPAUSMotionModeData@CRaceData@@@std@@PAX@1@$$QAU?$pair@$$CBGPAUSMotionModeData@CRaceData@@@1@@Z DD 019930522H
	DD	01H
	DD	FLAT:__unwindtable$??$?0U?$pair@$$CBGPAUSMotionModeData@CRaceData@@@std@@@?$_Tree_temp_node@V?$allocator@U?$_Tree_node@U?$pair@$$CBGPAUSMotionModeData@CRaceData@@@std@@PAX@std@@@std@@@std@@QAE@AAV?$allocator@U?$_Tree_node@U?$pair@$$CBGPAUSMotionModeData@CRaceData@@@std@@PAX@std@@@1@PAU?$_Tree_node@U?$pair@$$CBGPAUSMotionModeData@CRaceData@@@std@@PAX@1@$$QAU?$pair@$$CBGPAUSMotionModeData@CRaceData@@@1@@Z
	DD	2 DUP(00H)
	DD	2 DUP(00H)
	DD	00H
	DD	01H
xdata$x	ENDS
;	COMDAT xdata$x
xdata$x	SEGMENT
__unwindtable$??0?$_Tree_temp_node_alloc@V?$allocator@U?$_Tree_node@U?$pair@$$CBGPAUSMotionModeData@CRaceData@@@std@@PAX@std@@@std@@@std@@QAE@AAV?$allocator@U?$_Tree_node@U?$pair@$$CBGPAUSMotionModeData@CRaceData@@@std@@PAX@std@@@1@@Z DD 0ffffffffH
	DD	FLAT:__unwindfunclet$??0?$_Tree_temp_node_alloc@V?$allocator@U?$_Tree_node@U?$pair@$$CBGPAUSMotionModeData@CRaceData@@@std@@PAX@std@@@std@@@std@@QAE@AAV?$allocator@U?$_Tree_node@U?$pair@$$CBGPAUSMotionModeData@CRaceData@@@std@@PAX@std@@@1@@Z$0
__ehfuncinfo$??0?$_Tree_temp_node_alloc@V?$allocator@U?$_Tree_node@U?$pair@$$CBGPAUSMotionModeData@CRaceData@@@std@@PAX@std@@@std@@@std@@QAE@AAV?$allocator@U?$_Tree_node@U?$pair@$$CBGPAUSMotionModeData@CRaceData@@@std@@PAX@std@@@1@@Z DD 019930522H
	DD	01H
	DD	FLAT:__unwindtable$??0?$_Tree_temp_node_alloc@V?$allocator@U?$_Tree_node@U?$pair@$$CBGPAUSMotionModeData@CRaceData@@@std@@PAX@std@@@std@@@std@@QAE@AAV?$allocator@U?$_Tree_node@U?$pair@$$CBGPAUSMotionModeData@CRaceData@@@std@@PAX@std@@@1@@Z
	DD	2 DUP(00H)
	DD	2 DUP(00H)
	DD	00H
	DD	01H
xdata$x	ENDS
;	COMDAT xdata$x
xdata$x	SEGMENT
__unwindtable$??$?0U?$pair@$$CBKV?$basic_string@DU?$char_traits@D@std@@V?$allocator@D@2@@std@@@std@@@?$_Tree_temp_node@V?$allocator@U?$_Tree_node@U?$pair@$$CBKV?$basic_string@DU?$char_traits@D@std@@V?$allocator@D@2@@std@@@std@@PAX@std@@@std@@@std@@QAE@AAV?$allocator@U?$_Tree_node@U?$pair@$$CBKV?$basic_string@DU?$char_traits@D@std@@V?$allocator@D@2@@std@@@std@@PAX@std@@@1@PAU?$_Tree_node@U?$pair@$$CBKV?$basic_string@DU?$char_traits@D@std@@V?$allocator@D@2@@std@@@std@@PAX@1@$$QAU?$pair@$$CBKV?$basic_string@DU?$char_traits@D@std@@V?$allocator@D@2@@std@@@1@@Z DD 0ffffffffH
	DD	FLAT:__unwindfunclet$??$?0U?$pair@$$CBKV?$basic_string@DU?$char_traits@D@std@@V?$allocator@D@2@@std@@@std@@@?$_Tree_temp_node@V?$allocator@U?$_Tree_node@U?$pair@$$CBKV?$basic_string@DU?$char_traits@D@std@@V?$allocator@D@2@@std@@@std@@PAX@std@@@std@@@std@@QAE@AAV?$allocator@U?$_Tree_node@U?$pair@$$CBKV?$basic_string@DU?$char_traits@D@std@@V?$allocator@D@2@@std@@@std@@PAX@std@@@1@PAU?$_Tree_node@U?$pair@$$CBKV?$basic_string@DU?$char_traits@D@std@@V?$allocator@D@2@@std@@@std@@PAX@1@$$QAU?$pair@$$CBKV?$basic_string@DU?$char_traits@D@std@@V?$allocator@D@2@@std@@@1@@Z$1
__ehfuncinfo$??$?0U?$pair@$$CBKV?$basic_string@DU?$char_traits@D@std@@V?$allocator@D@2@@std@@@std@@@?$_Tree_temp_node@V?$allocator@U?$_Tree_node@U?$pair@$$CBKV?$basic_string@DU?$char_traits@D@std@@V?$allocator@D@2@@std@@@std@@PAX@std@@@std@@@std@@QAE@AAV?$allocator@U?$_Tree_node@U?$pair@$$CBKV?$basic_string@DU?$char_traits@D@std@@V?$allocator@D@2@@std@@@std@@PAX@std@@@1@PAU?$_Tree_node@U?$pair@$$CBKV?$basic_string@DU?$char_traits@D@std@@V?$allocator@D@2@@std@@@std@@PAX@1@$$QAU?$pair@$$CBKV?$basic_string@DU?$char_traits@D@std@@V?$allocator@D@2@@std@@@1@@Z DD 019930522H
	DD	01H
	DD	FLAT:__unwindtable$??$?0U?$pair@$$CBKV?$basic_string@DU?$char_traits@D@std@@V?$allocator@D@2@@std@@@std@@@?$_Tree_temp_node@V?$allocator@U?$_Tree_node@U?$pair@$$CBKV?$basic_string@DU?$char_traits@D@std@@V?$allocator@D@2@@std@@@std@@PAX@std@@@std@@@std@@QAE@AAV?$allocator@U?$_Tree_node@U?$pair@$$CBKV?$basic_string@DU?$char_traits@D@std@@V?$allocator@D@2@@std@@@std@@PAX@std@@@1@PAU?$_Tree_node@U?$pair@$$CBKV?$basic_string@DU?$char_traits@D@std@@V?$allocator@D@2@@std@@@std@@PAX@1@$$QAU?$pair@$$CBKV?$basic_string@DU?$char_traits@D@std@@V?$allocator@D@2@@std@@@1@@Z
	DD	2 DUP(00H)
	DD	2 DUP(00H)
	DD	00H
	DD	01H
xdata$x	ENDS
;	COMDAT xdata$x
xdata$x	SEGMENT
__unwindtable$??0?$_Tree_temp_node_alloc@V?$allocator@U?$_Tree_node@U?$pair@$$CBKV?$basic_string@DU?$char_traits@D@std@@V?$allocator@D@2@@std@@@std@@PAX@std@@@std@@@std@@QAE@AAV?$allocator@U?$_Tree_node@U?$pair@$$CBKV?$basic_string@DU?$char_traits@D@std@@V?$allocator@D@2@@std@@@std@@PAX@std@@@1@@Z DD 0ffffffffH
	DD	FLAT:__unwindfunclet$??0?$_Tree_temp_node_alloc@V?$allocator@U?$_Tree_node@U?$pair@$$CBKV?$basic_string@DU?$char_traits@D@std@@V?$allocator@D@2@@std@@@std@@PAX@std@@@std@@@std@@QAE@AAV?$allocator@U?$_Tree_node@U?$pair@$$CBKV?$basic_string@DU?$char_traits@D@std@@V?$allocator@D@2@@std@@@std@@PAX@std@@@1@@Z$0
__ehfuncinfo$??0?$_Tree_temp_node_alloc@V?$allocator@U?$_Tree_node@U?$pair@$$CBKV?$basic_string@DU?$char_traits@D@std@@V?$allocator@D@2@@std@@@std@@PAX@std@@@std@@@std@@QAE@AAV?$allocator@U?$_Tree_node@U?$pair@$$CBKV?$basic_string@DU?$char_traits@D@std@@V?$allocator@D@2@@std@@@std@@PAX@std@@@1@@Z DD 019930522H
	DD	01H
	DD	FLAT:__unwindtable$??0?$_Tree_temp_node_alloc@V?$allocator@U?$_Tree_node@U?$pair@$$CBKV?$basic_string@DU?$char_traits@D@std@@V?$allocator@D@2@@std@@@std@@PAX@std@@@std@@@std@@QAE@AAV?$allocator@U?$_Tree_node@U?$pair@$$CBKV?$basic_string@DU?$char_traits@D@std@@V?$allocator@D@2@@std@@@std@@PAX@std@@@1@@Z
	DD	2 DUP(00H)
	DD	2 DUP(00H)
	DD	00H
	DD	01H
xdata$x	ENDS
;	COMDAT xdata$x
xdata$x	SEGMENT
__unwindtable$??$_Uninitialized_copy@PAUSSkin@CRaceData@@V?$allocator@USSkin@CRaceData@@@std@@@std@@YAPAUSSkin@CRaceData@@QAU12@0PAU12@AAV?$allocator@USSkin@CRaceData@@@0@@Z DD 0ffffffffH
	DD	FLAT:__unwindfunclet$??$_Uninitialized_copy@PAUSSkin@CRaceData@@V?$allocator@USSkin@CRaceData@@@std@@@std@@YAPAUSSkin@CRaceData@@QAU12@0PAU12@AAV?$allocator@USSkin@CRaceData@@@0@@Z$0
__ehfuncinfo$??$_Uninitialized_copy@PAUSSkin@CRaceData@@V?$allocator@USSkin@CRaceData@@@std@@@std@@YAPAUSSkin@CRaceData@@QAU12@0PAU12@AAV?$allocator@USSkin@CRaceData@@@0@@Z DD 019930522H
	DD	01H
	DD	FLAT:__unwindtable$??$_Uninitialized_copy@PAUSSkin@CRaceData@@V?$allocator@USSkin@CRaceData@@@std@@@std@@YAPAUSSkin@CRaceData@@QAU12@0PAU12@AAV?$allocator@USSkin@CRaceData@@@0@@Z
	DD	2 DUP(00H)
	DD	2 DUP(00H)
	DD	00H
	DD	01H
xdata$x	ENDS
;	COMDAT xdata$x
xdata$x	SEGMENT
__unwindtable$??$_Uninitialized_move@PAUSSkin@CRaceData@@V?$allocator@USSkin@CRaceData@@@std@@@std@@YAPAUSSkin@CRaceData@@QAU12@0PAU12@AAV?$allocator@USSkin@CRaceData@@@0@@Z DD 0ffffffffH
	DD	FLAT:__unwindfunclet$??$_Uninitialized_move@PAUSSkin@CRaceData@@V?$allocator@USSkin@CRaceData@@@std@@@std@@YAPAUSSkin@CRaceData@@QAU12@0PAU12@AAV?$allocator@USSkin@CRaceData@@@0@@Z$0
__ehfuncinfo$??$_Uninitialized_move@PAUSSkin@CRaceData@@V?$allocator@USSkin@CRaceData@@@std@@@std@@YAPAUSSkin@CRaceData@@QAU12@0PAU12@AAV?$allocator@USSkin@CRaceData@@@0@@Z DD 019930522H
	DD	01H
	DD	FLAT:__unwindtable$??$_Uninitialized_move@PAUSSkin@CRaceData@@V?$allocator@USSkin@CRaceData@@@std@@@std@@YAPAUSSkin@CRaceData@@QAU12@0PAU12@AAV?$allocator@USSkin@CRaceData@@@0@@Z
	DD	2 DUP(00H)
	DD	2 DUP(00H)
	DD	00H
	DD	01H
xdata$x	ENDS
;	COMDAT xdata$x
xdata$x	SEGMENT
__unwindtable$??$?0ABUpiecewise_construct_t@std@@V?$tuple@ABG@1@V?$tuple@$$V@1@@?$_Tree_temp_node@V?$allocator@U?$_Tree_node@U?$pair@$$CBGV?$vector@USMotion@CRaceData@@V?$allocator@USMotion@CRaceData@@@std@@@std@@@std@@PAX@std@@@std@@@std@@QAE@AAV?$allocator@U?$_Tree_node@U?$pair@$$CBGV?$vector@USMotion@CRaceData@@V?$allocator@USMotion@CRaceData@@@std@@@std@@@std@@PAX@std@@@1@PAU?$_Tree_node@U?$pair@$$CBGV?$vector@USMotion@CRaceData@@V?$allocator@USMotion@CRaceData@@@std@@@std@@@std@@PAX@1@ABUpiecewise_construct_t@1@$$QAV?$tuple@ABG@1@$$QAV?$tuple@$$V@1@@Z DD 0ffffffffH
	DD	FLAT:__unwindfunclet$??$?0ABUpiecewise_construct_t@std@@V?$tuple@ABG@1@V?$tuple@$$V@1@@?$_Tree_temp_node@V?$allocator@U?$_Tree_node@U?$pair@$$CBGV?$vector@USMotion@CRaceData@@V?$allocator@USMotion@CRaceData@@@std@@@std@@@std@@PAX@std@@@std@@@std@@QAE@AAV?$allocator@U?$_Tree_node@U?$pair@$$CBGV?$vector@USMotion@CRaceData@@V?$allocator@USMotion@CRaceData@@@std@@@std@@@std@@PAX@std@@@1@PAU?$_Tree_node@U?$pair@$$CBGV?$vector@USMotion@CRaceData@@V?$allocator@USMotion@CRaceData@@@std@@@std@@@std@@PAX@1@ABUpiecewise_construct_t@1@$$QAV?$tuple@ABG@1@$$QAV?$tuple@$$V@1@@Z$1
__ehfuncinfo$??$?0ABUpiecewise_construct_t@std@@V?$tuple@ABG@1@V?$tuple@$$V@1@@?$_Tree_temp_node@V?$allocator@U?$_Tree_node@U?$pair@$$CBGV?$vector@USMotion@CRaceData@@V?$allocator@USMotion@CRaceData@@@std@@@std@@@std@@PAX@std@@@std@@@std@@QAE@AAV?$allocator@U?$_Tree_node@U?$pair@$$CBGV?$vector@USMotion@CRaceData@@V?$allocator@USMotion@CRaceData@@@std@@@std@@@std@@PAX@std@@@1@PAU?$_Tree_node@U?$pair@$$CBGV?$vector@USMotion@CRaceData@@V?$allocator@USMotion@CRaceData@@@std@@@std@@@std@@PAX@1@ABUpiecewise_construct_t@1@$$QAV?$tuple@ABG@1@$$QAV?$tuple@$$V@1@@Z DD 019930522H
	DD	01H
	DD	FLAT:__unwindtable$??$?0ABUpiecewise_construct_t@std@@V?$tuple@ABG@1@V?$tuple@$$V@1@@?$_Tree_temp_node@V?$allocator@U?$_Tree_node@U?$pair@$$CBGV?$vector@USMotion@CRaceData@@V?$allocator@USMotion@CRaceData@@@std@@@std@@@std@@PAX@std@@@std@@@std@@QAE@AAV?$allocator@U?$_Tree_node@U?$pair@$$CBGV?$vector@USMotion@CRaceData@@V?$allocator@USMotion@CRaceData@@@std@@@std@@@std@@PAX@std@@@1@PAU?$_Tree_node@U?$pair@$$CBGV?$vector@USMotion@CRaceData@@V?$allocator@USMotion@CRaceData@@@std@@@std@@@std@@PAX@1@ABUpiecewise_construct_t@1@$$QAV?$tuple@ABG@1@$$QAV?$tuple@$$V@1@@Z
	DD	2 DUP(00H)
	DD	2 DUP(00H)
	DD	00H
	DD	01H
xdata$x	ENDS
;	COMDAT xdata$x
xdata$x	SEGMENT
__unwindtable$??0?$_Tree_temp_node_alloc@V?$allocator@U?$_Tree_node@U?$pair@$$CBGV?$vector@USMotion@CRaceData@@V?$allocator@USMotion@CRaceData@@@std@@@std@@@std@@PAX@std@@@std@@@std@@QAE@AAV?$allocator@U?$_Tree_node@U?$pair@$$CBGV?$vector@USMotion@CRaceData@@V?$allocator@USMotion@CRaceData@@@std@@@std@@@std@@PAX@std@@@1@@Z DD 0ffffffffH
	DD	FLAT:__unwindfunclet$??0?$_Tree_temp_node_alloc@V?$allocator@U?$_Tree_node@U?$pair@$$CBGV?$vector@USMotion@CRaceData@@V?$allocator@USMotion@CRaceData@@@std@@@std@@@std@@PAX@std@@@std@@@std@@QAE@AAV?$allocator@U?$_Tree_node@U?$pair@$$CBGV?$vector@USMotion@CRaceData@@V?$allocator@USMotion@CRaceData@@@std@@@std@@@std@@PAX@std@@@1@@Z$0
__ehfuncinfo$??0?$_Tree_temp_node_alloc@V?$allocator@U?$_Tree_node@U?$pair@$$CBGV?$vector@USMotion@CRaceData@@V?$allocator@USMotion@CRaceData@@@std@@@std@@@std@@PAX@std@@@std@@@std@@QAE@AAV?$allocator@U?$_Tree_node@U?$pair@$$CBGV?$vector@USMotion@CRaceData@@V?$allocator@USMotion@CRaceData@@@std@@@std@@@std@@PAX@std@@@1@@Z DD 019930522H
	DD	01H
	DD	FLAT:__unwindtable$??0?$_Tree_temp_node_alloc@V?$allocator@U?$_Tree_node@U?$pair@$$CBGV?$vector@USMotion@CRaceData@@V?$allocator@USMotion@CRaceData@@@std@@@std@@@std@@PAX@std@@@std@@@std@@QAE@AAV?$allocator@U?$_Tree_node@U?$pair@$$CBGV?$vector@USMotion@CRaceData@@V?$allocator@USMotion@CRaceData@@@std@@@std@@@std@@PAX@std@@@1@@Z
	DD	2 DUP(00H)
	DD	2 DUP(00H)
	DD	00H
	DD	01H
xdata$x	ENDS
;	COMDAT xdata$x
xdata$x	SEGMENT
__unwindtable$??$?0ABUpiecewise_construct_t@std@@V?$tuple@$$QAK@1@V?$tuple@$$V@1@@?$_Tree_temp_node@V?$allocator@U?$_Tree_node@U?$pair@$$CBKUSHair@CRaceData@@@std@@PAX@std@@@std@@@std@@QAE@AAV?$allocator@U?$_Tree_node@U?$pair@$$CBKUSHair@CRaceData@@@std@@PAX@std@@@1@PAU?$_Tree_node@U?$pair@$$CBKUSHair@CRaceData@@@std@@PAX@1@ABUpiecewise_construct_t@1@$$QAV?$tuple@$$QAK@1@$$QAV?$tuple@$$V@1@@Z DD 0ffffffffH
	DD	FLAT:__unwindfunclet$??$?0ABUpiecewise_construct_t@std@@V?$tuple@$$QAK@1@V?$tuple@$$V@1@@?$_Tree_temp_node@V?$allocator@U?$_Tree_node@U?$pair@$$CBKUSHair@CRaceData@@@std@@PAX@std@@@std@@@std@@QAE@AAV?$allocator@U?$_Tree_node@U?$pair@$$CBKUSHair@CRaceData@@@std@@PAX@std@@@1@PAU?$_Tree_node@U?$pair@$$CBKUSHair@CRaceData@@@std@@PAX@1@ABUpiecewise_construct_t@1@$$QAV?$tuple@$$QAK@1@$$QAV?$tuple@$$V@1@@Z$1
__ehfuncinfo$??$?0ABUpiecewise_construct_t@std@@V?$tuple@$$QAK@1@V?$tuple@$$V@1@@?$_Tree_temp_node@V?$allocator@U?$_Tree_node@U?$pair@$$CBKUSHair@CRaceData@@@std@@PAX@std@@@std@@@std@@QAE@AAV?$allocator@U?$_Tree_node@U?$pair@$$CBKUSHair@CRaceData@@@std@@PAX@std@@@1@PAU?$_Tree_node@U?$pair@$$CBKUSHair@CRaceData@@@std@@PAX@1@ABUpiecewise_construct_t@1@$$QAV?$tuple@$$QAK@1@$$QAV?$tuple@$$V@1@@Z DD 019930522H
	DD	01H
	DD	FLAT:__unwindtable$??$?0ABUpiecewise_construct_t@std@@V?$tuple@$$QAK@1@V?$tuple@$$V@1@@?$_Tree_temp_node@V?$allocator@U?$_Tree_node@U?$pair@$$CBKUSHair@CRaceData@@@std@@PAX@std@@@std@@@std@@QAE@AAV?$allocator@U?$_Tree_node@U?$pair@$$CBKUSHair@CRaceData@@@std@@PAX@std@@@1@PAU?$_Tree_node@U?$pair@$$CBKUSHair@CRaceData@@@std@@PAX@1@ABUpiecewise_construct_t@1@$$QAV?$tuple@$$QAK@1@$$QAV?$tuple@$$V@1@@Z
	DD	2 DUP(00H)
	DD	2 DUP(00H)
	DD	00H
	DD	01H
xdata$x	ENDS
;	COMDAT xdata$x
xdata$x	SEGMENT
__unwindtable$??0?$_Tree_temp_node_alloc@V?$allocator@U?$_Tree_node@U?$pair@$$CBKUSHair@CRaceData@@@std@@PAX@std@@@std@@@std@@QAE@AAV?$allocator@U?$_Tree_node@U?$pair@$$CBKUSHair@CRaceData@@@std@@PAX@std@@@1@@Z DD 0ffffffffH
	DD	FLAT:__unwindfunclet$??0?$_Tree_temp_node_alloc@V?$allocator@U?$_Tree_node@U?$pair@$$CBKUSHair@CRaceData@@@std@@PAX@std@@@std@@@std@@QAE@AAV?$allocator@U?$_Tree_node@U?$pair@$$CBKUSHair@CRaceData@@@std@@PAX@std@@@1@@Z$0
__ehfuncinfo$??0?$_Tree_temp_node_alloc@V?$allocator@U?$_Tree_node@U?$pair@$$CBKUSHair@CRaceData@@@std@@PAX@std@@@std@@@std@@QAE@AAV?$allocator@U?$_Tree_node@U?$pair@$$CBKUSHair@CRaceData@@@std@@PAX@std@@@1@@Z DD 019930522H
	DD	01H
	DD	FLAT:__unwindtable$??0?$_Tree_temp_node_alloc@V?$allocator@U?$_Tree_node@U?$pair@$$CBKUSHair@CRaceData@@@std@@PAX@std@@@std@@@std@@QAE@AAV?$allocator@U?$_Tree_node@U?$pair@$$CBKUSHair@CRaceData@@@std@@PAX@std@@@1@@Z
	DD	2 DUP(00H)
	DD	2 DUP(00H)
	DD	00H
	DD	01H
xdata$x	ENDS
;	COMDAT xdata$x
xdata$x	SEGMENT
__unwindtable$??$?0ABUpiecewise_construct_t@std@@V?$tuple@$$QAK@1@V?$tuple@$$V@1@@?$_Tree_temp_node@V?$allocator@U?$_Tree_node@U?$pair@$$CBKUSShape@CRaceData@@@std@@PAX@std@@@std@@@std@@QAE@AAV?$allocator@U?$_Tree_node@U?$pair@$$CBKUSShape@CRaceData@@@std@@PAX@std@@@1@PAU?$_Tree_node@U?$pair@$$CBKUSShape@CRaceData@@@std@@PAX@1@ABUpiecewise_construct_t@1@$$QAV?$tuple@$$QAK@1@$$QAV?$tuple@$$V@1@@Z DD 0ffffffffH
	DD	FLAT:__unwindfunclet$??$?0ABUpiecewise_construct_t@std@@V?$tuple@$$QAK@1@V?$tuple@$$V@1@@?$_Tree_temp_node@V?$allocator@U?$_Tree_node@U?$pair@$$CBKUSShape@CRaceData@@@std@@PAX@std@@@std@@@std@@QAE@AAV?$allocator@U?$_Tree_node@U?$pair@$$CBKUSShape@CRaceData@@@std@@PAX@std@@@1@PAU?$_Tree_node@U?$pair@$$CBKUSShape@CRaceData@@@std@@PAX@1@ABUpiecewise_construct_t@1@$$QAV?$tuple@$$QAK@1@$$QAV?$tuple@$$V@1@@Z$1
__ehfuncinfo$??$?0ABUpiecewise_construct_t@std@@V?$tuple@$$QAK@1@V?$tuple@$$V@1@@?$_Tree_temp_node@V?$allocator@U?$_Tree_node@U?$pair@$$CBKUSShape@CRaceData@@@std@@PAX@std@@@std@@@std@@QAE@AAV?$allocator@U?$_Tree_node@U?$pair@$$CBKUSShape@CRaceData@@@std@@PAX@std@@@1@PAU?$_Tree_node@U?$pair@$$CBKUSShape@CRaceData@@@std@@PAX@1@ABUpiecewise_construct_t@1@$$QAV?$tuple@$$QAK@1@$$QAV?$tuple@$$V@1@@Z DD 019930522H
	DD	01H
	DD	FLAT:__unwindtable$??$?0ABUpiecewise_construct_t@std@@V?$tuple@$$QAK@1@V?$tuple@$$V@1@@?$_Tree_temp_node@V?$allocator@U?$_Tree_node@U?$pair@$$CBKUSShape@CRaceData@@@std@@PAX@std@@@std@@@std@@QAE@AAV?$allocator@U?$_Tree_node@U?$pair@$$CBKUSShape@CRaceData@@@std@@PAX@std@@@1@PAU?$_Tree_node@U?$pair@$$CBKUSShape@CRaceData@@@std@@PAX@1@ABUpiecewise_construct_t@1@$$QAV?$tuple@$$QAK@1@$$QAV?$tuple@$$V@1@@Z
	DD	2 DUP(00H)
	DD	2 DUP(00H)
	DD	00H
	DD	01H
xdata$x	ENDS
;	COMDAT xdata$x
xdata$x	SEGMENT
__unwindtable$??0?$_Tree_temp_node_alloc@V?$allocator@U?$_Tree_node@U?$pair@$$CBKUSShape@CRaceData@@@std@@PAX@std@@@std@@@std@@QAE@AAV?$allocator@U?$_Tree_node@U?$pair@$$CBKUSShape@CRaceData@@@std@@PAX@std@@@1@@Z DD 0ffffffffH
	DD	FLAT:__unwindfunclet$??0?$_Tree_temp_node_alloc@V?$allocator@U?$_Tree_node@U?$pair@$$CBKUSShape@CRaceData@@@std@@PAX@std@@@std@@@std@@QAE@AAV?$allocator@U?$_Tree_node@U?$pair@$$CBKUSShape@CRaceData@@@std@@PAX@std@@@1@@Z$0
__ehfuncinfo$??0?$_Tree_temp_node_alloc@V?$allocator@U?$_Tree_node@U?$pair@$$CBKUSShape@CRaceData@@@std@@PAX@std@@@std@@@std@@QAE@AAV?$allocator@U?$_Tree_node@U?$pair@$$CBKUSShape@CRaceData@@@std@@PAX@std@@@1@@Z DD 019930522H
	DD	01H
	DD	FLAT:__unwindtable$??0?$_Tree_temp_node_alloc@V?$allocator@U?$_Tree_node@U?$pair@$$CBKUSShape@CRaceData@@@std@@PAX@std@@@std@@@std@@QAE@AAV?$allocator@U?$_Tree_node@U?$pair@$$CBKUSShape@CRaceData@@@std@@PAX@std@@@1@@Z
	DD	2 DUP(00H)
	DD	2 DUP(00H)
	DD	00H
	DD	01H
xdata$x	ENDS
;	COMDAT xdata$x
xdata$x	SEGMENT
__unwindtable$??$_Emplace@U?$pair@$$CBKUSComboAttackData@CRaceData@@@std@@@?$_Tree@V?$_Tmap_traits@KUSComboAttackData@CRaceData@@U?$less@K@std@@V?$allocator@U?$pair@$$CBKUSComboAttackData@CRaceData@@@std@@@4@$0A@@std@@@std@@IAE?AU?$pair@PAU?$_Tree_node@U?$pair@$$CBKUSComboAttackData@CRaceData@@@std@@PAX@std@@_N@1@$$QAU?$pair@$$CBKUSComboAttackData@CRaceData@@@1@@Z DD 0ffffffffH
	DD	FLAT:__unwindfunclet$??$_Emplace@U?$pair@$$CBKUSComboAttackData@CRaceData@@@std@@@?$_Tree@V?$_Tmap_traits@KUSComboAttackData@CRaceData@@U?$less@K@std@@V?$allocator@U?$pair@$$CBKUSComboAttackData@CRaceData@@@std@@@4@$0A@@std@@@std@@IAE?AU?$pair@PAU?$_Tree_node@U?$pair@$$CBKUSComboAttackData@CRaceData@@@std@@PAX@std@@_N@1@$$QAU?$pair@$$CBKUSComboAttackData@CRaceData@@@1@@Z$2
__ehfuncinfo$??$_Emplace@U?$pair@$$CBKUSComboAttackData@CRaceData@@@std@@@?$_Tree@V?$_Tmap_traits@KUSComboAttackData@CRaceData@@U?$less@K@std@@V?$allocator@U?$pair@$$CBKUSComboAttackData@CRaceData@@@std@@@4@$0A@@std@@@std@@IAE?AU?$pair@PAU?$_Tree_node@U?$pair@$$CBKUSComboAttackData@CRaceData@@@std@@PAX@std@@_N@1@$$QAU?$pair@$$CBKUSComboAttackData@CRaceData@@@1@@Z DD 019930522H
	DD	01H
	DD	FLAT:__unwindtable$??$_Emplace@U?$pair@$$CBKUSComboAttackData@CRaceData@@@std@@@?$_Tree@V?$_Tmap_traits@KUSComboAttackData@CRaceData@@U?$less@K@std@@V?$allocator@U?$pair@$$CBKUSComboAttackData@CRaceData@@@std@@@4@$0A@@std@@@std@@IAE?AU?$pair@PAU?$_Tree_node@U?$pair@$$CBKUSComboAttackData@CRaceData@@@std@@PAX@std@@_N@1@$$QAU?$pair@$$CBKUSComboAttackData@CRaceData@@@1@@Z
	DD	2 DUP(00H)
	DD	2 DUP(00H)
	DD	00H
	DD	01H
xdata$x	ENDS
;	COMDAT xdata$x
xdata$x	SEGMENT
__unwindtable$??$_Emplace@U?$pair@$$CBKK@std@@@?$_Tree@V?$_Tmap_traits@KKU?$less@K@std@@V?$allocator@U?$pair@$$CBKK@std@@@2@$0A@@std@@@std@@IAE?AU?$pair@PAU?$_Tree_node@U?$pair@$$CBKK@std@@PAX@std@@_N@1@$$QAU?$pair@$$CBKK@1@@Z DD 0ffffffffH
	DD	FLAT:__unwindfunclet$??$_Emplace@U?$pair@$$CBKK@std@@@?$_Tree@V?$_Tmap_traits@KKU?$less@K@std@@V?$allocator@U?$pair@$$CBKK@std@@@2@$0A@@std@@@std@@IAE?AU?$pair@PAU?$_Tree_node@U?$pair@$$CBKK@std@@PAX@std@@_N@1@$$QAU?$pair@$$CBKK@1@@Z$2
__ehfuncinfo$??$_Emplace@U?$pair@$$CBKK@std@@@?$_Tree@V?$_Tmap_traits@KKU?$less@K@std@@V?$allocator@U?$pair@$$CBKK@std@@@2@$0A@@std@@@std@@IAE?AU?$pair@PAU?$_Tree_node@U?$pair@$$CBKK@std@@PAX@std@@_N@1@$$QAU?$pair@$$CBKK@1@@Z DD 019930522H
	DD	01H
	DD	FLAT:__unwindtable$??$_Emplace@U?$pair@$$CBKK@std@@@?$_Tree@V?$_Tmap_traits@KKU?$less@K@std@@V?$allocator@U?$pair@$$CBKK@std@@@2@$0A@@std@@@std@@IAE?AU?$pair@PAU?$_Tree_node@U?$pair@$$CBKK@std@@PAX@std@@_N@1@$$QAU?$pair@$$CBKK@1@@Z
	DD	2 DUP(00H)
	DD	2 DUP(00H)
	DD	00H
	DD	01H
xdata$x	ENDS
;	COMDAT xdata$x
xdata$x	SEGMENT
__unwindtable$??$_Emplace@U?$pair@$$CBGV?$vector@USMotion@CRaceData@@V?$allocator@USMotion@CRaceData@@@std@@@std@@@std@@@?$_Tree@V?$_Tmap_traits@GV?$vector@USMotion@CRaceData@@V?$allocator@USMotion@CRaceData@@@std@@@std@@U?$less@G@2@V?$allocator@U?$pair@$$CBGV?$vector@USMotion@CRaceData@@V?$allocator@USMotion@CRaceData@@@std@@@std@@@std@@@2@$0A@@std@@@std@@IAE?AU?$pair@PAU?$_Tree_node@U?$pair@$$CBGV?$vector@USMotion@CRaceData@@V?$allocator@USMotion@CRaceData@@@std@@@std@@@std@@PAX@std@@_N@1@$$QAU?$pair@$$CBGV?$vector@USMotion@CRaceData@@V?$allocator@USMotion@CRaceData@@@std@@@std@@@1@@Z DD 0ffffffffH
	DD	FLAT:__unwindfunclet$??$_Emplace@U?$pair@$$CBGV?$vector@USMotion@CRaceData@@V?$allocator@USMotion@CRaceData@@@std@@@std@@@std@@@?$_Tree@V?$_Tmap_traits@GV?$vector@USMotion@CRaceData@@V?$allocator@USMotion@CRaceData@@@std@@@std@@U?$less@G@2@V?$allocator@U?$pair@$$CBGV?$vector@USMotion@CRaceData@@V?$allocator@USMotion@CRaceData@@@std@@@std@@@std@@@2@$0A@@std@@@std@@IAE?AU?$pair@PAU?$_Tree_node@U?$pair@$$CBGV?$vector@USMotion@CRaceData@@V?$allocator@USMotion@CRaceData@@@std@@@std@@@std@@PAX@std@@_N@1@$$QAU?$pair@$$CBGV?$vector@USMotion@CRaceData@@V?$allocator@USMotion@CRaceData@@@std@@@std@@@1@@Z$2
__ehfuncinfo$??$_Emplace@U?$pair@$$CBGV?$vector@USMotion@CRaceData@@V?$allocator@USMotion@CRaceData@@@std@@@std@@@std@@@?$_Tree@V?$_Tmap_traits@GV?$vector@USMotion@CRaceData@@V?$allocator@USMotion@CRaceData@@@std@@@std@@U?$less@G@2@V?$allocator@U?$pair@$$CBGV?$vector@USMotion@CRaceData@@V?$allocator@USMotion@CRaceData@@@std@@@std@@@std@@@2@$0A@@std@@@std@@IAE?AU?$pair@PAU?$_Tree_node@U?$pair@$$CBGV?$vector@USMotion@CRaceData@@V?$allocator@USMotion@CRaceData@@@std@@@std@@@std@@PAX@std@@_N@1@$$QAU?$pair@$$CBGV?$vector@USMotion@CRaceData@@V?$allocator@USMotion@CRaceData@@@std@@@std@@@1@@Z DD 019930522H
	DD	01H
	DD	FLAT:__unwindtable$??$_Emplace@U?$pair@$$CBGV?$vector@USMotion@CRaceData@@V?$allocator@USMotion@CRaceData@@@std@@@std@@@std@@@?$_Tree@V?$_Tmap_traits@GV?$vector@USMotion@CRaceData@@V?$allocator@USMotion@CRaceData@@@std@@@std@@U?$less@G@2@V?$allocator@U?$pair@$$CBGV?$vector@USMotion@CRaceData@@V?$allocator@USMotion@CRaceData@@@std@@@std@@@std@@@2@$0A@@std@@@std@@IAE?AU?$pair@PAU?$_Tree_node@U?$pair@$$CBGV?$vector@USMotion@CRaceData@@V?$allocator@USMotion@CRaceData@@@std@@@std@@@std@@PAX@std@@_N@1@$$QAU?$pair@$$CBGV?$vector@USMotion@CRaceData@@V?$allocator@USMotion@CRaceData@@@std@@@std@@@1@@Z
	DD	2 DUP(00H)
	DD	2 DUP(00H)
	DD	00H
	DD	01H
xdata$x	ENDS
;	COMDAT xdata$x
xdata$x	SEGMENT
__unwindtable$??$_Emplace@U?$pair@$$CBGPAUSMotionModeData@CRaceData@@@std@@@?$_Tree@V?$_Tmap_traits@GPAUSMotionModeData@CRaceData@@U?$less@G@std@@V?$allocator@U?$pair@$$CBGPAUSMotionModeData@CRaceData@@@std@@@4@$0A@@std@@@std@@IAE?AU?$pair@PAU?$_Tree_node@U?$pair@$$CBGPAUSMotionModeData@CRaceData@@@std@@PAX@std@@_N@1@$$QAU?$pair@$$CBGPAUSMotionModeData@CRaceData@@@1@@Z DD 0ffffffffH
	DD	FLAT:__unwindfunclet$??$_Emplace@U?$pair@$$CBGPAUSMotionModeData@CRaceData@@@std@@@?$_Tree@V?$_Tmap_traits@GPAUSMotionModeData@CRaceData@@U?$less@G@std@@V?$allocator@U?$pair@$$CBGPAUSMotionModeData@CRaceData@@@std@@@4@$0A@@std@@@std@@IAE?AU?$pair@PAU?$_Tree_node@U?$pair@$$CBGPAUSMotionModeData@CRaceData@@@std@@PAX@std@@_N@1@$$QAU?$pair@$$CBGPAUSMotionModeData@CRaceData@@@1@@Z$2
__ehfuncinfo$??$_Emplace@U?$pair@$$CBGPAUSMotionModeData@CRaceData@@@std@@@?$_Tree@V?$_Tmap_traits@GPAUSMotionModeData@CRaceData@@U?$less@G@std@@V?$allocator@U?$pair@$$CBGPAUSMotionModeData@CRaceData@@@std@@@4@$0A@@std@@@std@@IAE?AU?$pair@PAU?$_Tree_node@U?$pair@$$CBGPAUSMotionModeData@CRaceData@@@std@@PAX@std@@_N@1@$$QAU?$pair@$$CBGPAUSMotionModeData@CRaceData@@@1@@Z DD 019930522H
	DD	01H
	DD	FLAT:__unwindtable$??$_Emplace@U?$pair@$$CBGPAUSMotionModeData@CRaceData@@@std@@@?$_Tree@V?$_Tmap_traits@GPAUSMotionModeData@CRaceData@@U?$less@G@std@@V?$allocator@U?$pair@$$CBGPAUSMotionModeData@CRaceData@@@std@@@4@$0A@@std@@@std@@IAE?AU?$pair@PAU?$_Tree_node@U?$pair@$$CBGPAUSMotionModeData@CRaceData@@@std@@PAX@std@@_N@1@$$QAU?$pair@$$CBGPAUSMotionModeData@CRaceData@@@1@@Z
	DD	2 DUP(00H)
	DD	2 DUP(00H)
	DD	00H
	DD	01H
xdata$x	ENDS
;	COMDAT xdata$x
xdata$x	SEGMENT
__unwindtable$??$_Emplace@U?$pair@$$CBKV?$basic_string@DU?$char_traits@D@std@@V?$allocator@D@2@@std@@@std@@@?$_Tree@V?$_Tmap_traits@KV?$basic_string@DU?$char_traits@D@std@@V?$allocator@D@2@@std@@U?$less@K@2@V?$allocator@U?$pair@$$CBKV?$basic_string@DU?$char_traits@D@std@@V?$allocator@D@2@@std@@@std@@@2@$0A@@std@@@std@@IAE?AU?$pair@PAU?$_Tree_node@U?$pair@$$CBKV?$basic_string@DU?$char_traits@D@std@@V?$allocator@D@2@@std@@@std@@PAX@std@@_N@1@$$QAU?$pair@$$CBKV?$basic_string@DU?$char_traits@D@std@@V?$allocator@D@2@@std@@@1@@Z DD 0ffffffffH
	DD	FLAT:__unwindfunclet$??$_Emplace@U?$pair@$$CBKV?$basic_string@DU?$char_traits@D@std@@V?$allocator@D@2@@std@@@std@@@?$_Tree@V?$_Tmap_traits@KV?$basic_string@DU?$char_traits@D@std@@V?$allocator@D@2@@std@@U?$less@K@2@V?$allocator@U?$pair@$$CBKV?$basic_string@DU?$char_traits@D@std@@V?$allocator@D@2@@std@@@std@@@2@$0A@@std@@@std@@IAE?AU?$pair@PAU?$_Tree_node@U?$pair@$$CBKV?$basic_string@DU?$char_traits@D@std@@V?$allocator@D@2@@std@@@std@@PAX@std@@_N@1@$$QAU?$pair@$$CBKV?$basic_string@DU?$char_traits@D@std@@V?$allocator@D@2@@std@@@1@@Z$2
__ehfuncinfo$??$_Emplace@U?$pair@$$CBKV?$basic_string@DU?$char_traits@D@std@@V?$allocator@D@2@@std@@@std@@@?$_Tree@V?$_Tmap_traits@KV?$basic_string@DU?$char_traits@D@std@@V?$allocator@D@2@@std@@U?$less@K@2@V?$allocator@U?$pair@$$CBKV?$basic_string@DU?$char_traits@D@std@@V?$allocator@D@2@@std@@@std@@@2@$0A@@std@@@std@@IAE?AU?$pair@PAU?$_Tree_node@U?$pair@$$CBKV?$basic_string@DU?$char_traits@D@std@@V?$allocator@D@2@@std@@@std@@PAX@std@@_N@1@$$QAU?$pair@$$CBKV?$basic_string@DU?$char_traits@D@std@@V?$allocator@D@2@@std@@@1@@Z DD 019930522H
	DD	01H
	DD	FLAT:__unwindtable$??$_Emplace@U?$pair@$$CBKV?$basic_string@DU?$char_traits@D@std@@V?$allocator@D@2@@std@@@std@@@?$_Tree@V?$_Tmap_traits@KV?$basic_string@DU?$char_traits@D@std@@V?$allocator@D@2@@std@@U?$less@K@2@V?$allocator@U?$pair@$$CBKV?$basic_string@DU?$char_traits@D@std@@V?$allocator@D@2@@std@@@std@@@2@$0A@@std@@@std@@IAE?AU?$pair@PAU?$_Tree_node@U?$pair@$$CBKV?$basic_string@DU?$char_traits@D@std@@V?$allocator@D@2@@std@@@std@@PAX@std@@_N@1@$$QAU?$pair@$$CBKV?$basic_string@DU?$char_traits@D@std@@V?$allocator@D@2@@std@@@1@@Z
	DD	2 DUP(00H)
	DD	2 DUP(00H)
	DD	00H
	DD	01H
xdata$x	ENDS
;	COMDAT xdata$x
xdata$x	SEGMENT
__unwindtable$??$_Try_emplace@ABG$$V@?$map@GV?$vector@USMotion@CRaceData@@V?$allocator@USMotion@CRaceData@@@std@@@std@@U?$less@G@2@V?$allocator@U?$pair@$$CBGV?$vector@USMotion@CRaceData@@V?$allocator@USMotion@CRaceData@@@std@@@std@@@std@@@2@@std@@AAE?AU?$pair@PAU?$_Tree_node@U?$pair@$$CBGV?$vector@USMotion@CRaceData@@V?$allocator@USMotion@CRaceData@@@std@@@std@@@std@@PAX@std@@_N@1@ABG@Z DD 0ffffffffH
	DD	FLAT:__unwindfunclet$??$_Try_emplace@ABG$$V@?$map@GV?$vector@USMotion@CRaceData@@V?$allocator@USMotion@CRaceData@@@std@@@std@@U?$less@G@2@V?$allocator@U?$pair@$$CBGV?$vector@USMotion@CRaceData@@V?$allocator@USMotion@CRaceData@@@std@@@std@@@std@@@2@@std@@AAE?AU?$pair@PAU?$_Tree_node@U?$pair@$$CBGV?$vector@USMotion@CRaceData@@V?$allocator@USMotion@CRaceData@@@std@@@std@@@std@@PAX@std@@_N@1@ABG@Z$2
__ehfuncinfo$??$_Try_emplace@ABG$$V@?$map@GV?$vector@USMotion@CRaceData@@V?$allocator@USMotion@CRaceData@@@std@@@std@@U?$less@G@2@V?$allocator@U?$pair@$$CBGV?$vector@USMotion@CRaceData@@V?$allocator@USMotion@CRaceData@@@std@@@std@@@std@@@2@@std@@AAE?AU?$pair@PAU?$_Tree_node@U?$pair@$$CBGV?$vector@USMotion@CRaceData@@V?$allocator@USMotion@CRaceData@@@std@@@std@@@std@@PAX@std@@_N@1@ABG@Z DD 019930522H
	DD	01H
	DD	FLAT:__unwindtable$??$_Try_emplace@ABG$$V@?$map@GV?$vector@USMotion@CRaceData@@V?$allocator@USMotion@CRaceData@@@std@@@std@@U?$less@G@2@V?$allocator@U?$pair@$$CBGV?$vector@USMotion@CRaceData@@V?$allocator@USMotion@CRaceData@@@std@@@std@@@std@@@2@@std@@AAE?AU?$pair@PAU?$_Tree_node@U?$pair@$$CBGV?$vector@USMotion@CRaceData@@V?$allocator@USMotion@CRaceData@@@std@@@std@@@std@@PAX@std@@_N@1@ABG@Z
	DD	2 DUP(00H)
	DD	2 DUP(00H)
	DD	00H
	DD	01H
xdata$x	ENDS
;	COMDAT xdata$x
xdata$x	SEGMENT
__catchsym$??$_Emplace_reallocate@ABUSSkin@CRaceData@@@?$vector@USSkin@CRaceData@@V?$allocator@USSkin@CRaceData@@@std@@@std@@QAEPAUSSkin@CRaceData@@QAU23@ABU23@@Z$3 DD 040H
	DD	00H
	DD	00H
	DD	FLAT:__catch$??$_Emplace_reallocate@ABUSSkin@CRaceData@@@?$vector@USSkin@CRaceData@@V?$allocator@USSkin@CRaceData@@@std@@@std@@QAEPAUSSkin@CRaceData@@QAU23@ABU23@@Z$0
__tryblocktable$??$_Emplace_reallocate@ABUSSkin@CRaceData@@@?$vector@USSkin@CRaceData@@V?$allocator@USSkin@CRaceData@@@std@@@std@@QAEPAUSSkin@CRaceData@@QAU23@ABU23@@Z DD 00H
	DD	01H
	DD	02H
	DD	01H
	DD	FLAT:__catchsym$??$_Emplace_reallocate@ABUSSkin@CRaceData@@@?$vector@USSkin@CRaceData@@V?$allocator@USSkin@CRaceData@@@std@@@std@@QAEPAUSSkin@CRaceData@@QAU23@ABU23@@Z$3
__unwindtable$??$_Emplace_reallocate@ABUSSkin@CRaceData@@@?$vector@USSkin@CRaceData@@V?$allocator@USSkin@CRaceData@@@std@@@std@@QAEPAUSSkin@CRaceData@@QAU23@ABU23@@Z DD 0ffffffffH
	DD	00H
	DD	00H
	DD	FLAT:__unwindfunclet$??$_Emplace_reallocate@ABUSSkin@CRaceData@@@?$vector@USSkin@CRaceData@@V?$allocator@USSkin@CRaceData@@@std@@@std@@QAEPAUSSkin@CRaceData@@QAU23@ABU23@@Z$2
	DD	0ffffffffH
	DD	00H
__ehfuncinfo$??$_Emplace_reallocate@ABUSSkin@CRaceData@@@?$vector@USSkin@CRaceData@@V?$allocator@USSkin@CRaceData@@@std@@@std@@QAEPAUSSkin@CRaceData@@QAU23@ABU23@@Z DD 019930522H
	DD	03H
	DD	FLAT:__unwindtable$??$_Emplace_reallocate@ABUSSkin@CRaceData@@@?$vector@USSkin@CRaceData@@V?$allocator@USSkin@CRaceData@@@std@@@std@@QAEPAUSSkin@CRaceData@@QAU23@ABU23@@Z
	DD	01H
	DD	FLAT:__tryblocktable$??$_Emplace_reallocate@ABUSSkin@CRaceData@@@?$vector@USSkin@CRaceData@@V?$allocator@USSkin@CRaceData@@@std@@@std@@QAEPAUSSkin@CRaceData@@QAU23@ABU23@@Z
	DD	2 DUP(00H)
	DD	00H
	DD	01H
xdata$x	ENDS
;	COMDAT xdata$x
xdata$x	SEGMENT
__unwindtable$??$_Try_emplace@K$$V@?$map@KUSHair@CRaceData@@U?$less@K@std@@V?$allocator@U?$pair@$$CBKUSHair@CRaceData@@@std@@@4@@std@@AAE?AU?$pair@PAU?$_Tree_node@U?$pair@$$CBKUSHair@CRaceData@@@std@@PAX@std@@_N@1@$$QAK@Z DD 0ffffffffH
	DD	FLAT:__unwindfunclet$??$_Try_emplace@K$$V@?$map@KUSHair@CRaceData@@U?$less@K@std@@V?$allocator@U?$pair@$$CBKUSHair@CRaceData@@@std@@@4@@std@@AAE?AU?$pair@PAU?$_Tree_node@U?$pair@$$CBKUSHair@CRaceData@@@std@@PAX@std@@_N@1@$$QAK@Z$2
__ehfuncinfo$??$_Try_emplace@K$$V@?$map@KUSHair@CRaceData@@U?$less@K@std@@V?$allocator@U?$pair@$$CBKUSHair@CRaceData@@@std@@@4@@std@@AAE?AU?$pair@PAU?$_Tree_node@U?$pair@$$CBKUSHair@CRaceData@@@std@@PAX@std@@_N@1@$$QAK@Z DD 019930522H
	DD	01H
	DD	FLAT:__unwindtable$??$_Try_emplace@K$$V@?$map@KUSHair@CRaceData@@U?$less@K@std@@V?$allocator@U?$pair@$$CBKUSHair@CRaceData@@@std@@@4@@std@@AAE?AU?$pair@PAU?$_Tree_node@U?$pair@$$CBKUSHair@CRaceData@@@std@@PAX@std@@_N@1@$$QAK@Z
	DD	2 DUP(00H)
	DD	2 DUP(00H)
	DD	00H
	DD	01H
xdata$x	ENDS
;	COMDAT xdata$x
xdata$x	SEGMENT
__unwindtable$??$_Try_emplace@K$$V@?$map@KUSShape@CRaceData@@U?$less@K@std@@V?$allocator@U?$pair@$$CBKUSShape@CRaceData@@@std@@@4@@std@@AAE?AU?$pair@PAU?$_Tree_node@U?$pair@$$CBKUSShape@CRaceData@@@std@@PAX@std@@_N@1@$$QAK@Z DD 0ffffffffH
	DD	FLAT:__unwindfunclet$??$_Try_emplace@K$$V@?$map@KUSShape@CRaceData@@U?$less@K@std@@V?$allocator@U?$pair@$$CBKUSShape@CRaceData@@@std@@@4@@std@@AAE?AU?$pair@PAU?$_Tree_node@U?$pair@$$CBKUSShape@CRaceData@@@std@@PAX@std@@_N@1@$$QAK@Z$2
__ehfuncinfo$??$_Try_emplace@K$$V@?$map@KUSShape@CRaceData@@U?$less@K@std@@V?$allocator@U?$pair@$$CBKUSShape@CRaceData@@@std@@@4@@std@@AAE?AU?$pair@PAU?$_Tree_node@U?$pair@$$CBKUSShape@CRaceData@@@std@@PAX@std@@_N@1@$$QAK@Z DD 019930522H
	DD	01H
	DD	FLAT:__unwindtable$??$_Try_emplace@K$$V@?$map@KUSShape@CRaceData@@U?$less@K@std@@V?$allocator@U?$pair@$$CBKUSShape@CRaceData@@@std@@@4@@std@@AAE?AU?$pair@PAU?$_Tree_node@U?$pair@$$CBKUSShape@CRaceData@@@std@@PAX@std@@_N@1@$$QAK@Z
	DD	2 DUP(00H)
	DD	2 DUP(00H)
	DD	00H
	DD	01H
xdata$x	ENDS
;	COMDAT xdata$x
xdata$x	SEGMENT
__unwindtable$??$insert@$0A@$0A@@?$_Tree@V?$_Tmap_traits@KUSComboAttackData@CRaceData@@U?$less@K@std@@V?$allocator@U?$pair@$$CBKUSComboAttackData@CRaceData@@@std@@@4@$0A@@std@@@std@@QAE?AU?$pair@V?$_Tree_iterator@V?$_Tree_val@U?$_Tree_simple_types@U?$pair@$$CBKUSComboAttackData@CRaceData@@@std@@@std@@@std@@@std@@_N@1@$$QAU?$pair@$$CBKUSComboAttackData@CRaceData@@@1@@Z DD 0ffffffffH
	DD	FLAT:__unwindfunclet$??$insert@$0A@$0A@@?$_Tree@V?$_Tmap_traits@KUSComboAttackData@CRaceData@@U?$less@K@std@@V?$allocator@U?$pair@$$CBKUSComboAttackData@CRaceData@@@std@@@4@$0A@@std@@@std@@QAE?AU?$pair@V?$_Tree_iterator@V?$_Tree_val@U?$_Tree_simple_types@U?$pair@$$CBKUSComboAttackData@CRaceData@@@std@@@std@@@std@@@std@@_N@1@$$QAU?$pair@$$CBKUSComboAttackData@CRaceData@@@1@@Z$2
__ehfuncinfo$??$insert@$0A@$0A@@?$_Tree@V?$_Tmap_traits@KUSComboAttackData@CRaceData@@U?$less@K@std@@V?$allocator@U?$pair@$$CBKUSComboAttackData@CRaceData@@@std@@@4@$0A@@std@@@std@@QAE?AU?$pair@V?$_Tree_iterator@V?$_Tree_val@U?$_Tree_simple_types@U?$pair@$$CBKUSComboAttackData@CRaceData@@@std@@@std@@@std@@@std@@_N@1@$$QAU?$pair@$$CBKUSComboAttackData@CRaceData@@@1@@Z DD 019930522H
	DD	01H
	DD	FLAT:__unwindtable$??$insert@$0A@$0A@@?$_Tree@V?$_Tmap_traits@KUSComboAttackData@CRaceData@@U?$less@K@std@@V?$allocator@U?$pair@$$CBKUSComboAttackData@CRaceData@@@std@@@4@$0A@@std@@@std@@QAE?AU?$pair@V?$_Tree_iterator@V?$_Tree_val@U?$_Tree_simple_types@U?$pair@$$CBKUSComboAttackData@CRaceData@@@std@@@std@@@std@@@std@@_N@1@$$QAU?$pair@$$CBKUSComboAttackData@CRaceData@@@1@@Z
	DD	2 DUP(00H)
	DD	2 DUP(00H)
	DD	00H
	DD	01H
xdata$x	ENDS
;	COMDAT xdata$x
xdata$x	SEGMENT
__unwindtable$??$insert@$0A@$0A@@?$_Tree@V?$_Tmap_traits@KKU?$less@K@std@@V?$allocator@U?$pair@$$CBKK@std@@@2@$0A@@std@@@std@@QAE?AU?$pair@V?$_Tree_iterator@V?$_Tree_val@U?$_Tree_simple_types@U?$pair@$$CBKK@std@@@std@@@std@@@std@@_N@1@$$QAU?$pair@$$CBKK@1@@Z DD 0ffffffffH
	DD	FLAT:__unwindfunclet$??$insert@$0A@$0A@@?$_Tree@V?$_Tmap_traits@KKU?$less@K@std@@V?$allocator@U?$pair@$$CBKK@std@@@2@$0A@@std@@@std@@QAE?AU?$pair@V?$_Tree_iterator@V?$_Tree_val@U?$_Tree_simple_types@U?$pair@$$CBKK@std@@@std@@@std@@@std@@_N@1@$$QAU?$pair@$$CBKK@1@@Z$2
__ehfuncinfo$??$insert@$0A@$0A@@?$_Tree@V?$_Tmap_traits@KKU?$less@K@std@@V?$allocator@U?$pair@$$CBKK@std@@@2@$0A@@std@@@std@@QAE?AU?$pair@V?$_Tree_iterator@V?$_Tree_val@U?$_Tree_simple_types@U?$pair@$$CBKK@std@@@std@@@std@@@std@@_N@1@$$QAU?$pair@$$CBKK@1@@Z DD 019930522H
	DD	01H
	DD	FLAT:__unwindtable$??$insert@$0A@$0A@@?$_Tree@V?$_Tmap_traits@KKU?$less@K@std@@V?$allocator@U?$pair@$$CBKK@std@@@2@$0A@@std@@@std@@QAE?AU?$pair@V?$_Tree_iterator@V?$_Tree_val@U?$_Tree_simple_types@U?$pair@$$CBKK@std@@@std@@@std@@@std@@_N@1@$$QAU?$pair@$$CBKK@1@@Z
	DD	2 DUP(00H)
	DD	2 DUP(00H)
	DD	00H
	DD	01H
xdata$x	ENDS
;	COMDAT xdata$x
xdata$x	SEGMENT
__unwindtable$??$insert@$0A@$0A@@?$_Tree@V?$_Tmap_traits@GV?$vector@USMotion@CRaceData@@V?$allocator@USMotion@CRaceData@@@std@@@std@@U?$less@G@2@V?$allocator@U?$pair@$$CBGV?$vector@USMotion@CRaceData@@V?$allocator@USMotion@CRaceData@@@std@@@std@@@std@@@2@$0A@@std@@@std@@QAE?AU?$pair@V?$_Tree_iterator@V?$_Tree_val@U?$_Tree_simple_types@U?$pair@$$CBGV?$vector@USMotion@CRaceData@@V?$allocator@USMotion@CRaceData@@@std@@@std@@@std@@@std@@@std@@@std@@_N@1@$$QAU?$pair@$$CBGV?$vector@USMotion@CRaceData@@V?$allocator@USMotion@CRaceData@@@std@@@std@@@1@@Z DD 0ffffffffH
	DD	FLAT:__unwindfunclet$??$insert@$0A@$0A@@?$_Tree@V?$_Tmap_traits@GV?$vector@USMotion@CRaceData@@V?$allocator@USMotion@CRaceData@@@std@@@std@@U?$less@G@2@V?$allocator@U?$pair@$$CBGV?$vector@USMotion@CRaceData@@V?$allocator@USMotion@CRaceData@@@std@@@std@@@std@@@2@$0A@@std@@@std@@QAE?AU?$pair@V?$_Tree_iterator@V?$_Tree_val@U?$_Tree_simple_types@U?$pair@$$CBGV?$vector@USMotion@CRaceData@@V?$allocator@USMotion@CRaceData@@@std@@@std@@@std@@@std@@@std@@@std@@_N@1@$$QAU?$pair@$$CBGV?$vector@USMotion@CRaceData@@V?$allocator@USMotion@CRaceData@@@std@@@std@@@1@@Z$2
__ehfuncinfo$??$insert@$0A@$0A@@?$_Tree@V?$_Tmap_traits@GV?$vector@USMotion@CRaceData@@V?$allocator@USMotion@CRaceData@@@std@@@std@@U?$less@G@2@V?$allocator@U?$pair@$$CBGV?$vector@USMotion@CRaceData@@V?$allocator@USMotion@CRaceData@@@std@@@std@@@std@@@2@$0A@@std@@@std@@QAE?AU?$pair@V?$_Tree_iterator@V?$_Tree_val@U?$_Tree_simple_types@U?$pair@$$CBGV?$vector@USMotion@CRaceData@@V?$allocator@USMotion@CRaceData@@@std@@@std@@@std@@@std@@@std@@@std@@_N@1@$$QAU?$pair@$$CBGV?$vector@USMotion@CRaceData@@V?$allocator@USMotion@CRaceData@@@std@@@std@@@1@@Z DD 019930522H
	DD	01H
	DD	FLAT:__unwindtable$??$insert@$0A@$0A@@?$_Tree@V?$_Tmap_traits@GV?$vector@USMotion@CRaceData@@V?$allocator@USMotion@CRaceData@@@std@@@std@@U?$less@G@2@V?$allocator@U?$pair@$$CBGV?$vector@USMotion@CRaceData@@V?$allocator@USMotion@CRaceData@@@std@@@std@@@std@@@2@$0A@@std@@@std@@QAE?AU?$pair@V?$_Tree_iterator@V?$_Tree_val@U?$_Tree_simple_types@U?$pair@$$CBGV?$vector@USMotion@CRaceData@@V?$allocator@USMotion@CRaceData@@@std@@@std@@@std@@@std@@@std@@@std@@_N@1@$$QAU?$pair@$$CBGV?$vector@USMotion@CRaceData@@V?$allocator@USMotion@CRaceData@@@std@@@std@@@1@@Z
	DD	2 DUP(00H)
	DD	2 DUP(00H)
	DD	00H
	DD	01H
xdata$x	ENDS
;	COMDAT xdata$x
xdata$x	SEGMENT
__unwindtable$??$insert@$0A@$0A@@?$_Tree@V?$_Tmap_traits@GPAUSMotionModeData@CRaceData@@U?$less@G@std@@V?$allocator@U?$pair@$$CBGPAUSMotionModeData@CRaceData@@@std@@@4@$0A@@std@@@std@@QAE?AU?$pair@V?$_Tree_iterator@V?$_Tree_val@U?$_Tree_simple_types@U?$pair@$$CBGPAUSMotionModeData@CRaceData@@@std@@@std@@@std@@@std@@_N@1@$$QAU?$pair@$$CBGPAUSMotionModeData@CRaceData@@@1@@Z DD 0ffffffffH
	DD	FLAT:__unwindfunclet$??$insert@$0A@$0A@@?$_Tree@V?$_Tmap_traits@GPAUSMotionModeData@CRaceData@@U?$less@G@std@@V?$allocator@U?$pair@$$CBGPAUSMotionModeData@CRaceData@@@std@@@4@$0A@@std@@@std@@QAE?AU?$pair@V?$_Tree_iterator@V?$_Tree_val@U?$_Tree_simple_types@U?$pair@$$CBGPAUSMotionModeData@CRaceData@@@std@@@std@@@std@@@std@@_N@1@$$QAU?$pair@$$CBGPAUSMotionModeData@CRaceData@@@1@@Z$2
__ehfuncinfo$??$insert@$0A@$0A@@?$_Tree@V?$_Tmap_traits@GPAUSMotionModeData@CRaceData@@U?$less@G@std@@V?$allocator@U?$pair@$$CBGPAUSMotionModeData@CRaceData@@@std@@@4@$0A@@std@@@std@@QAE?AU?$pair@V?$_Tree_iterator@V?$_Tree_val@U?$_Tree_simple_types@U?$pair@$$CBGPAUSMotionModeData@CRaceData@@@std@@@std@@@std@@@std@@_N@1@$$QAU?$pair@$$CBGPAUSMotionModeData@CRaceData@@@1@@Z DD 019930522H
	DD	01H
	DD	FLAT:__unwindtable$??$insert@$0A@$0A@@?$_Tree@V?$_Tmap_traits@GPAUSMotionModeData@CRaceData@@U?$less@G@std@@V?$allocator@U?$pair@$$CBGPAUSMotionModeData@CRaceData@@@std@@@4@$0A@@std@@@std@@QAE?AU?$pair@V?$_Tree_iterator@V?$_Tree_val@U?$_Tree_simple_types@U?$pair@$$CBGPAUSMotionModeData@CRaceData@@@std@@@std@@@std@@@std@@_N@1@$$QAU?$pair@$$CBGPAUSMotionModeData@CRaceData@@@1@@Z
	DD	2 DUP(00H)
	DD	2 DUP(00H)
	DD	00H
	DD	01H
xdata$x	ENDS
;	COMDAT xdata$x
xdata$x	SEGMENT
__unwindtable$??$insert@$0A@$0A@@?$_Tree@V?$_Tmap_traits@KV?$basic_string@DU?$char_traits@D@std@@V?$allocator@D@2@@std@@U?$less@K@2@V?$allocator@U?$pair@$$CBKV?$basic_string@DU?$char_traits@D@std@@V?$allocator@D@2@@std@@@std@@@2@$0A@@std@@@std@@QAE?AU?$pair@V?$_Tree_iterator@V?$_Tree_val@U?$_Tree_simple_types@U?$pair@$$CBKV?$basic_string@DU?$char_traits@D@std@@V?$allocator@D@2@@std@@@std@@@std@@@std@@@std@@_N@1@$$QAU?$pair@$$CBKV?$basic_string@DU?$char_traits@D@std@@V?$allocator@D@2@@std@@@1@@Z DD 0ffffffffH
	DD	FLAT:__unwindfunclet$??$insert@$0A@$0A@@?$_Tree@V?$_Tmap_traits@KV?$basic_string@DU?$char_traits@D@std@@V?$allocator@D@2@@std@@U?$less@K@2@V?$allocator@U?$pair@$$CBKV?$basic_string@DU?$char_traits@D@std@@V?$allocator@D@2@@std@@@std@@@2@$0A@@std@@@std@@QAE?AU?$pair@V?$_Tree_iterator@V?$_Tree_val@U?$_Tree_simple_types@U?$pair@$$CBKV?$basic_string@DU?$char_traits@D@std@@V?$allocator@D@2@@std@@@std@@@std@@@std@@@std@@_N@1@$$QAU?$pair@$$CBKV?$basic_string@DU?$char_traits@D@std@@V?$allocator@D@2@@std@@@1@@Z$2
__ehfuncinfo$??$insert@$0A@$0A@@?$_Tree@V?$_Tmap_traits@KV?$basic_string@DU?$char_traits@D@std@@V?$allocator@D@2@@std@@U?$less@K@2@V?$allocator@U?$pair@$$CBKV?$basic_string@DU?$char_traits@D@std@@V?$allocator@D@2@@std@@@std@@@2@$0A@@std@@@std@@QAE?AU?$pair@V?$_Tree_iterator@V?$_Tree_val@U?$_Tree_simple_types@U?$pair@$$CBKV?$basic_string@DU?$char_traits@D@std@@V?$allocator@D@2@@std@@@std@@@std@@@std@@@std@@_N@1@$$QAU?$pair@$$CBKV?$basic_string@DU?$char_traits@D@std@@V?$allocator@D@2@@std@@@1@@Z DD 019930522H
	DD	01H
	DD	FLAT:__unwindtable$??$insert@$0A@$0A@@?$_Tree@V?$_Tmap_traits@KV?$basic_string@DU?$char_traits@D@std@@V?$allocator@D@2@@std@@U?$less@K@2@V?$allocator@U?$pair@$$CBKV?$basic_string@DU?$char_traits@D@std@@V?$allocator@D@2@@std@@@std@@@2@$0A@@std@@@std@@QAE?AU?$pair@V?$_Tree_iterator@V?$_Tree_val@U?$_Tree_simple_types@U?$pair@$$CBKV?$basic_string@DU?$char_traits@D@std@@V?$allocator@D@2@@std@@@std@@@std@@@std@@@std@@_N@1@$$QAU?$pair@$$CBKV?$basic_string@DU?$char_traits@D@std@@V?$allocator@D@2@@std@@@1@@Z
	DD	2 DUP(00H)
	DD	2 DUP(00H)
	DD	00H
	DD	01H
xdata$x	ENDS
;	COMDAT xdata$x
xdata$x	SEGMENT
__unwindtable$?Alloc@?$CDynamicPool@USMotionModeData@CRaceData@@@@QAEPAUSMotionModeData@CRaceData@@XZ DD 0ffffffffH
	DD	FLAT:__unwindfunclet$?Alloc@?$CDynamicPool@USMotionModeData@CRaceData@@@@QAEPAUSMotionModeData@CRaceData@@XZ$0
__ehfuncinfo$?Alloc@?$CDynamicPool@USMotionModeData@CRaceData@@@@QAEPAUSMotionModeData@CRaceData@@XZ DD 019930522H
	DD	01H
	DD	FLAT:__unwindtable$?Alloc@?$CDynamicPool@USMotionModeData@CRaceData@@@@QAEPAUSMotionModeData@CRaceData@@XZ
	DD	2 DUP(00H)
	DD	2 DUP(00H)
	DD	00H
	DD	01H
xdata$x	ENDS
;	COMDAT xdata$x
xdata$x	SEGMENT
__unwindtable$?Alloc@?$CDynamicPool@VCRaceData@@@@QAEPAVCRaceData@@XZ DD 0ffffffffH
	DD	FLAT:__unwindfunclet$?Alloc@?$CDynamicPool@VCRaceData@@@@QAEPAVCRaceData@@XZ$0
__ehfuncinfo$?Alloc@?$CDynamicPool@VCRaceData@@@@QAEPAVCRaceData@@XZ DD 019930522H
	DD	01H
	DD	FLAT:__unwindtable$?Alloc@?$CDynamicPool@VCRaceData@@@@QAEPAVCRaceData@@XZ
	DD	2 DUP(00H)
	DD	2 DUP(00H)
	DD	00H
	DD	01H
xdata$x	ENDS
;	COMDAT xdata$x
xdata$x	SEGMENT
__unwindtable$??A?$map@KUSShape@CRaceData@@U?$less@K@std@@V?$allocator@U?$pair@$$CBKUSShape@CRaceData@@@std@@@4@@std@@QAEAAUSShape@CRaceData@@$$QAK@Z DD 0ffffffffH
	DD	FLAT:__unwindfunclet$??A?$map@KUSShape@CRaceData@@U?$less@K@std@@V?$allocator@U?$pair@$$CBKUSShape@CRaceData@@@std@@@4@@std@@QAEAAUSShape@CRaceData@@$$QAK@Z$2
__ehfuncinfo$??A?$map@KUSShape@CRaceData@@U?$less@K@std@@V?$allocator@U?$pair@$$CBKUSShape@CRaceData@@@std@@@4@@std@@QAEAAUSShape@CRaceData@@$$QAK@Z DD 019930522H
	DD	01H
	DD	FLAT:__unwindtable$??A?$map@KUSShape@CRaceData@@U?$less@K@std@@V?$allocator@U?$pair@$$CBKUSShape@CRaceData@@@std@@@4@@std@@QAEAAUSShape@CRaceData@@$$QAK@Z
	DD	2 DUP(00H)
	DD	2 DUP(00H)
	DD	00H
	DD	01H
xdata$x	ENDS
;	COMDAT xdata$x
xdata$x	SEGMENT
__unwindtable$??A?$map@KUSHair@CRaceData@@U?$less@K@std@@V?$allocator@U?$pair@$$CBKUSHair@CRaceData@@@std@@@4@@std@@QAEAAUSHair@CRaceData@@$$QAK@Z DD 0ffffffffH
	DD	FLAT:__unwindfunclet$??A?$map@KUSHair@CRaceData@@U?$less@K@std@@V?$allocator@U?$pair@$$CBKUSHair@CRaceData@@@std@@@4@@std@@QAEAAUSHair@CRaceData@@$$QAK@Z$2
__ehfuncinfo$??A?$map@KUSHair@CRaceData@@U?$less@K@std@@V?$allocator@U?$pair@$$CBKUSHair@CRaceData@@@std@@@4@@std@@QAEAAUSHair@CRaceData@@$$QAK@Z DD 019930522H
	DD	01H
	DD	FLAT:__unwindtable$??A?$map@KUSHair@CRaceData@@U?$less@K@std@@V?$allocator@U?$pair@$$CBKUSHair@CRaceData@@@std@@@4@@std@@QAEAAUSHair@CRaceData@@$$QAK@Z
	DD	2 DUP(00H)
	DD	2 DUP(00H)
	DD	00H
	DD	01H
xdata$x	ENDS
;	COMDAT xdata$x
xdata$x	SEGMENT
__unwindtable$?__OLD_RegisterMotion@CRaceData@@IAEXGGABUSMotion@1@@Z DD 0ffffffffH
	DD	FLAT:__unwindfunclet$?__OLD_RegisterMotion@CRaceData@@IAEXGGABUSMotion@1@@Z$0
	DD	00H
	DD	FLAT:__unwindfunclet$?__OLD_RegisterMotion@CRaceData@@IAEXGGABUSMotion@1@@Z$1
	DD	01H
	DD	FLAT:__unwindfunclet$?__OLD_RegisterMotion@CRaceData@@IAEXGGABUSMotion@1@@Z$6
__ehfuncinfo$?__OLD_RegisterMotion@CRaceData@@IAEXGGABUSMotion@1@@Z DD 019930522H
	DD	03H
	DD	FLAT:__unwindtable$?__OLD_RegisterMotion@CRaceData@@IAEXGGABUSMotion@1@@Z
	DD	2 DUP(00H)
	DD	2 DUP(00H)
	DD	00H
	DD	01H
xdata$x	ENDS
;	COMDAT xdata$x
xdata$x	SEGMENT
__unwindtable$?SetHairSkin@CRaceData@@QAEXIIPBD00@Z DD 0ffffffffH
	DD	FLAT:__unwindfunclet$?SetHairSkin@CRaceData@@QAEXIIPBD00@Z$0
__ehfuncinfo$?SetHairSkin@CRaceData@@QAEXIIPBD00@Z DD 019930522H
	DD	01H
	DD	FLAT:__unwindtable$?SetHairSkin@CRaceData@@QAEXIIPBD00@Z
	DD	2 DUP(00H)
	DD	2 DUP(00H)
	DD	00H
	DD	01H
xdata$x	ENDS
;	COMDAT xdata$x
xdata$x	SEGMENT
__unwindtable$?AppendShapeSkin@CRaceData@@QAEXIIPBD0@Z DD 0ffffffffH
	DD	FLAT:__unwindfunclet$?AppendShapeSkin@CRaceData@@QAEXIIPBD0@Z$0
__ehfuncinfo$?AppendShapeSkin@CRaceData@@QAEXIIPBD0@Z DD 019930522H
	DD	01H
	DD	FLAT:__unwindtable$?AppendShapeSkin@CRaceData@@QAEXIIPBD0@Z
	DD	2 DUP(00H)
	DD	2 DUP(00H)
	DD	00H
	DD	01H
xdata$x	ENDS
;	COMDAT xdata$x
xdata$x	SEGMENT
__unwindtable$?ReserveComboAttack@CRaceData@@QAEXGGK@Z DD 0ffffffffH
	DD	FLAT:__unwindfunclet$?ReserveComboAttack@CRaceData@@QAEXGGK@Z$0
	DD	00H
	DD	FLAT:__unwindfunclet$?ReserveComboAttack@CRaceData@@QAEXGGK@Z$1
	DD	01H
	DD	FLAT:__unwindfunclet$?ReserveComboAttack@CRaceData@@QAEXGGK@Z$8
__ehfuncinfo$?ReserveComboAttack@CRaceData@@QAEXGGK@Z DD 019930522H
	DD	03H
	DD	FLAT:__unwindtable$?ReserveComboAttack@CRaceData@@QAEXGGK@Z
	DD	2 DUP(00H)
	DD	2 DUP(00H)
	DD	00H
	DD	01H
xdata$x	ENDS
;	COMDAT xdata$x
xdata$x	SEGMENT
__unwindtable$?RegisterNormalAttack@CRaceData@@QAEXGG@Z DD 0ffffffffH
	DD	FLAT:__unwindfunclet$?RegisterNormalAttack@CRaceData@@QAEXGG@Z$2
__ehfuncinfo$?RegisterNormalAttack@CRaceData@@QAEXGG@Z DD 019930522H
	DD	01H
	DD	FLAT:__unwindtable$?RegisterNormalAttack@CRaceData@@QAEXGG@Z
	DD	2 DUP(00H)
	DD	2 DUP(00H)
	DD	00H
	DD	01H
xdata$x	ENDS
;	COMDAT xdata$x
xdata$x	SEGMENT
__unwindtable$?NEW_RegisterMotion@CRaceData@@QAEPAVCGraphicThing@@PAVCRaceMotionData@@GGPBDE@Z DD 0ffffffffH
	DD	FLAT:__unwindfunclet$?NEW_RegisterMotion@CRaceData@@QAEPAVCGraphicThing@@PAVCRaceMotionData@@GGPBDE@Z$2
__ehfuncinfo$?NEW_RegisterMotion@CRaceData@@QAEPAVCGraphicThing@@PAVCRaceMotionData@@GGPBDE@Z DD 019930522H
	DD	01H
	DD	FLAT:__unwindtable$?NEW_RegisterMotion@CRaceData@@QAEPAVCGraphicThing@@PAVCRaceMotionData@@GGPBDE@Z
	DD	2 DUP(00H)
	DD	2 DUP(00H)
	DD	00H
	DD	01H
xdata$x	ENDS
;	COMDAT xdata$x
xdata$x	SEGMENT
__unwindtable$?RegisterMotionMode@CRaceData@@QAEXG@Z DD 0ffffffffH
	DD	FLAT:__unwindfunclet$?RegisterMotionMode@CRaceData@@QAEXG@Z$0
	DD	0ffffffffH
	DD	FLAT:__unwindfunclet$?RegisterMotionMode@CRaceData@@QAEXG@Z$5
__ehfuncinfo$?RegisterMotionMode@CRaceData@@QAEXG@Z DD 019930522H
	DD	02H
	DD	FLAT:__unwindtable$?RegisterMotionMode@CRaceData@@QAEXG@Z
	DD	2 DUP(00H)
	DD	2 DUP(00H)
	DD	00H
	DD	01H
xdata$x	ENDS
;	COMDAT xdata$x
xdata$x	SEGMENT
__unwindtable$?RegisterAttachingBoneName@CRaceData@@QAEXKPBD@Z DD 0ffffffffH
	DD	FLAT:__unwindfunclet$?RegisterAttachingBoneName@CRaceData@@QAEXKPBD@Z$0
	DD	00H
	DD	FLAT:__unwindfunclet$?RegisterAttachingBoneName@CRaceData@@QAEXKPBD@Z$6
__ehfuncinfo$?RegisterAttachingBoneName@CRaceData@@QAEXKPBD@Z DD 019930522H
	DD	02H
	DD	FLAT:__unwindtable$?RegisterAttachingBoneName@CRaceData@@QAEXKPBD@Z
	DD	2 DUP(00H)
	DD	2 DUP(00H)
	DD	00H
	DD	01H
xdata$x	ENDS
;	COMDAT xdata$x
xdata$x	SEGMENT
__unwindtable$?GetLODModelThing@CRaceData@@QAEPAVCGraphicThing@@XZ DD 0ffffffffH
	DD	FLAT:__unwindfunclet$?GetLODModelThing@CRaceData@@QAEPAVCGraphicThing@@XZ$0
	DD	00H
	DD	FLAT:__unwindfunclet$?GetLODModelThing@CRaceData@@QAEPAVCGraphicThing@@XZ$1
	DD	0ffffffffH
	DD	FLAT:__unwindfunclet$?GetLODModelThing@CRaceData@@QAEPAVCGraphicThing@@XZ$1
__ehfuncinfo$?GetLODModelThing@CRaceData@@QAEPAVCGraphicThing@@XZ DD 019930522H
	DD	03H
	DD	FLAT:__unwindtable$?GetLODModelThing@CRaceData@@QAEPAVCGraphicThing@@XZ
	DD	2 DUP(00H)
	DD	2 DUP(00H)
	DD	00H
	DD	01H
xdata$x	ENDS
;	COMDAT xdata$x
xdata$x	SEGMENT
__ehfuncinfo$??1CRaceData@@UAE@XZ DD 019930522H
	DD	00H
	DD	00H
	DD	2 DUP(00H)
	DD	2 DUP(00H)
	DD	00H
	DD	05H
xdata$x	ENDS
;	COMDAT xdata$x
xdata$x	SEGMENT
__ehfuncinfo$??0CRaceData@@QAE@XZ DD 019930522H
	DD	0dH
	DD	FLAT:__unwindtable$??0CRaceData@@QAE@XZ
	DD	2 DUP(00H)
	DD	2 DUP(00H)
	DD	00H
	DD	01H
__unwindtable$??0CRaceData@@QAE@XZ DD 0ffffffffH
	DD	FLAT:__unwindfunclet$??0CRaceData@@QAE@XZ$0
	DD	00H
	DD	FLAT:__unwindfunclet$??0CRaceData@@QAE@XZ$1
	DD	01H
	DD	FLAT:__unwindfunclet$??0CRaceData@@QAE@XZ$2
	DD	02H
	DD	FLAT:__unwindfunclet$??0CRaceData@@QAE@XZ$3
	DD	03H
	DD	FLAT:__unwindfunclet$??0CRaceData@@QAE@XZ$4
	DD	04H
	DD	FLAT:__unwindfunclet$??0CRaceData@@QAE@XZ$5
	DD	05H
	DD	FLAT:__unwindfunclet$??0CRaceData@@QAE@XZ$6
	DD	06H
	DD	FLAT:__unwindfunclet$??0CRaceData@@QAE@XZ$7
	DD	07H
	DD	FLAT:__unwindfunclet$??0CRaceData@@QAE@XZ$8
	DD	08H
	DD	FLAT:__unwindfunclet$??0CRaceData@@QAE@XZ$9
	DD	09H
	DD	FLAT:__unwindfunclet$??0CRaceData@@QAE@XZ$10
	DD	0aH
	DD	FLAT:__unwindfunclet$??0CRaceData@@QAE@XZ$11
	DD	0bH
	DD	FLAT:__unwindfunclet$??0CRaceData@@QAE@XZ$12
xdata$x	ENDS
;	COMDAT xdata$x
xdata$x	SEGMENT
__unwindtable$?New@CRaceData@@SAPAV1@XZ DD 0ffffffffH
	DD	FLAT:__unwindfunclet$?New@CRaceData@@SAPAV1@XZ$0
__ehfuncinfo$?New@CRaceData@@SAPAV1@XZ DD 019930522H
	DD	01H
	DD	FLAT:__unwindtable$?New@CRaceData@@SAPAV1@XZ
	DD	2 DUP(00H)
	DD	2 DUP(00H)
	DD	00H
	DD	01H
xdata$x	ENDS
;	COMDAT xdata$x
xdata$x	SEGMENT
__unwindtable$?_Umove_if_noexcept@?$vector@USSkin@CRaceData@@V?$allocator@USSkin@CRaceData@@@std@@@std@@AAEXPAUSSkin@CRaceData@@00@Z DD 0ffffffffH
	DD	FLAT:__unwindfunclet$?_Umove_if_noexcept@?$vector@USSkin@CRaceData@@V?$allocator@USSkin@CRaceData@@@std@@@std@@AAEXPAUSSkin@CRaceData@@00@Z$0
__ehfuncinfo$?_Umove_if_noexcept@?$vector@USSkin@CRaceData@@V?$allocator@USSkin@CRaceData@@@std@@@std@@AAEXPAUSSkin@CRaceData@@00@Z DD 019930522H
	DD	01H
	DD	FLAT:__unwindtable$?_Umove_if_noexcept@?$vector@USSkin@CRaceData@@V?$allocator@USSkin@CRaceData@@@std@@@std@@AAEXPAUSSkin@CRaceData@@00@Z
	DD	2 DUP(00H)
	DD	2 DUP(00H)
	DD	00H
	DD	01H
xdata$x	ENDS
;	COMDAT xdata$x
xdata$x	SEGMENT
__unwindtable$?_Umove_if_noexcept1@?$vector@USSkin@CRaceData@@V?$allocator@USSkin@CRaceData@@@std@@@std@@AAEXPAUSSkin@CRaceData@@00U?$integral_constant@_N$0A@@2@@Z DD 0ffffffffH
	DD	FLAT:__unwindfunclet$?_Umove_if_noexcept1@?$vector@USSkin@CRaceData@@V?$allocator@USSkin@CRaceData@@@std@@@std@@AAEXPAUSSkin@CRaceData@@00U?$integral_constant@_N$0A@@2@@Z$0
__ehfuncinfo$?_Umove_if_noexcept1@?$vector@USSkin@CRaceData@@V?$allocator@USSkin@CRaceData@@@std@@@std@@AAEXPAUSSkin@CRaceData@@00U?$integral_constant@_N$0A@@2@@Z DD 019930522H
	DD	01H
	DD	FLAT:__unwindtable$?_Umove_if_noexcept1@?$vector@USSkin@CRaceData@@V?$allocator@USSkin@CRaceData@@@std@@@std@@AAEXPAUSSkin@CRaceData@@00U?$integral_constant@_N$0A@@2@@Z
	DD	2 DUP(00H)
	DD	2 DUP(00H)
	DD	00H
	DD	01H
xdata$x	ENDS
;	COMDAT xdata$x
xdata$x	SEGMENT
__unwindtable$?_Umove@?$vector@USSkin@CRaceData@@V?$allocator@USSkin@CRaceData@@@std@@@std@@AAEPAUSSkin@CRaceData@@PAU34@00@Z DD 0ffffffffH
	DD	FLAT:__unwindfunclet$?_Umove@?$vector@USSkin@CRaceData@@V?$allocator@USSkin@CRaceData@@@std@@@std@@AAEPAUSSkin@CRaceData@@PAU34@00@Z$0
__ehfuncinfo$?_Umove@?$vector@USSkin@CRaceData@@V?$allocator@USSkin@CRaceData@@@std@@@std@@AAEPAUSSkin@CRaceData@@PAU34@00@Z DD 019930522H
	DD	01H
	DD	FLAT:__unwindtable$?_Umove@?$vector@USSkin@CRaceData@@V?$allocator@USSkin@CRaceData@@@std@@@std@@AAEPAUSSkin@CRaceData@@PAU34@00@Z
	DD	2 DUP(00H)
	DD	2 DUP(00H)
	DD	00H
	DD	01H
xdata$x	ENDS
;	COMDAT xdata$x
xdata$x	SEGMENT
__unwindtable$??0SSkin@CRaceData@@QAE@ABU01@@Z DD 0ffffffffH
	DD	FLAT:__unwindfunclet$??0SSkin@CRaceData@@QAE@ABU01@@Z$0
	DD	00H
	DD	FLAT:__unwindfunclet$??0SSkin@CRaceData@@QAE@ABU01@@Z$1
__ehfuncinfo$??0SSkin@CRaceData@@QAE@ABU01@@Z DD 019930522H
	DD	02H
	DD	FLAT:__unwindtable$??0SSkin@CRaceData@@QAE@ABU01@@Z
	DD	2 DUP(00H)
	DD	2 DUP(00H)
	DD	00H
	DD	01H
xdata$x	ENDS
;	COMDAT xdata$x
xdata$x	SEGMENT
__unwindtable$??A?$map@GV?$vector@USMotion@CRaceData@@V?$allocator@USMotion@CRaceData@@@std@@@std@@U?$less@G@2@V?$allocator@U?$pair@$$CBGV?$vector@USMotion@CRaceData@@V?$allocator@USMotion@CRaceData@@@std@@@std@@@std@@@2@@std@@QAEAAV?$vector@USMotion@CRaceData@@V?$allocator@USMotion@CRaceData@@@std@@@1@ABG@Z DD 0ffffffffH
	DD	FLAT:__unwindfunclet$??A?$map@GV?$vector@USMotion@CRaceData@@V?$allocator@USMotion@CRaceData@@@std@@@std@@U?$less@G@2@V?$allocator@U?$pair@$$CBGV?$vector@USMotion@CRaceData@@V?$allocator@USMotion@CRaceData@@@std@@@std@@@std@@@2@@std@@QAEAAV?$vector@USMotion@CRaceData@@V?$allocator@USMotion@CRaceData@@@std@@@1@ABG@Z$2
__ehfuncinfo$??A?$map@GV?$vector@USMotion@CRaceData@@V?$allocator@USMotion@CRaceData@@@std@@@std@@U?$less@G@2@V?$allocator@U?$pair@$$CBGV?$vector@USMotion@CRaceData@@V?$allocator@USMotion@CRaceData@@@std@@@std@@@std@@@2@@std@@QAEAAV?$vector@USMotion@CRaceData@@V?$allocator@USMotion@CRaceData@@@std@@@1@ABG@Z DD 019930522H
	DD	01H
	DD	FLAT:__unwindtable$??A?$map@GV?$vector@USMotion@CRaceData@@V?$allocator@USMotion@CRaceData@@@std@@@std@@U?$less@G@2@V?$allocator@U?$pair@$$CBGV?$vector@USMotion@CRaceData@@V?$allocator@USMotion@CRaceData@@@std@@@std@@@std@@@2@@std@@QAEAAV?$vector@USMotion@CRaceData@@V?$allocator@USMotion@CRaceData@@@std@@@1@ABG@Z
	DD	2 DUP(00H)
	DD	2 DUP(00H)
	DD	00H
	DD	01H
xdata$x	ENDS
CRT$XCU	SEGMENT
??ms_MotionModeDataPool$initializer$@CRaceData@@1P6AXXZA@@3P6AXXZA DD FLAT:??__E?ms_MotionModeDataPool@CRaceData@@1V?$CDynamicPool@USMotionModeData@CRaceData@@@@A@@YAXXZ ; ??ms_MotionModeDataPool$initializer$@CRaceData@@1P6AXXZA@@3P6AXXZA
CRT$XCU	ENDS
;	COMDAT CRT$XCU
CRT$XCU	SEGMENT
??ms_kPool$initializer$@?$CPooledObject@VCHeaderDecorator@NEffectUpdateDecorator@@@@1P6AXXZA@@3P6AXXZA DD FLAT:??__E?ms_kPool@?$CPooledObject@VCHeaderDecorator@NEffectUpdateDecorator@@@@1V?$CDynamicPoolEx@VCHeaderDecorator@NEffectUpdateDecorator@@@@A@@YAXXZ ; ??ms_kPool$initializer$@?$CPooledObject@VCHeaderDecorator@NEffectUpdateDecorator@@@@1P6AXXZA@@3P6AXXZA
CRT$XCU	ENDS
;	COMDAT CRT$XCU
CRT$XCU	SEGMENT
??ms_kPool$initializer$@?$CPooledObject@VCNullDecorator@NEffectUpdateDecorator@@@@1P6AXXZA@@3P6AXXZA DD FLAT:??__E?ms_kPool@?$CPooledObject@VCNullDecorator@NEffectUpdateDecorator@@@@1V?$CDynamicPoolEx@VCNullDecorator@NEffectUpdateDecorator@@@@A@@YAXXZ ; ??ms_kPool$initializer$@?$CPooledObject@VCNullDecorator@NEffectUpdateDecorator@@@@1P6AXXZA@@3P6AXXZA
CRT$XCU	ENDS
;	COMDAT CRT$XCU
CRT$XCU	SEGMENT
??ms_kPool$initializer$@?$CPooledObject@VCTextureAnimationCWDecorator@NEffectUpdateDecorator@@@@1P6AXXZA@@3P6AXXZA DD FLAT:??__E?ms_kPool@?$CPooledObject@VCTextureAnimationCWDecorator@NEffectUpdateDecorator@@@@1V?$CDynamicPoolEx@VCTextureAnimationCWDecorator@NEffectUpdateDecorator@@@@A@@YAXXZ ; ??ms_kPool$initializer$@?$CPooledObject@VCTextureAnimationCWDecorator@NEffectUpdateDecorator@@@@1P6AXXZA@@3P6AXXZA
CRT$XCU	ENDS
;	COMDAT CRT$XCU
CRT$XCU	SEGMENT
??ms_kPool$initializer$@?$CPooledObject@VCTextureAnimationCCWDecorator@NEffectUpdateDecorator@@@@1P6AXXZA@@3P6AXXZA DD FLAT:??__E?ms_kPool@?$CPooledObject@VCTextureAnimationCCWDecorator@NEffectUpdateDecorator@@@@1V?$CDynamicPoolEx@VCTextureAnimationCCWDecorator@NEffectUpdateDecorator@@@@A@@YAXXZ ; ??ms_kPool$initializer$@?$CPooledObject@VCTextureAnimationCCWDecorator@NEffectUpdateDecorator@@@@1P6AXXZA@@3P6AXXZA
CRT$XCU	ENDS
;	COMDAT CRT$XCU
CRT$XCU	SEGMENT
??ms_kPool$initializer$@?$CPooledObject@VCTextureAnimationRandomDecorator@NEffectUpdateDecorator@@@@1P6AXXZA@@3P6AXXZA DD FLAT:??__E?ms_kPool@?$CPooledObject@VCTextureAnimationRandomDecorator@NEffectUpdateDecorator@@@@1V?$CDynamicPoolEx@VCTextureAnimationRandomDecorator@NEffectUpdateDecorator@@@@A@@YAXXZ ; ??ms_kPool$initializer$@?$CPooledObject@VCTextureAnimationRandomDecorator@NEffectUpdateDecorator@@@@1P6AXXZA@@3P6AXXZA
CRT$XCU	ENDS
;	COMDAT CRT$XCU
CRT$XCU	SEGMENT
??ms_kPool$initializer$@?$CPooledObject@VCAirResistanceDecorator@NEffectUpdateDecorator@@@@1P6AXXZA@@3P6AXXZA DD FLAT:??__E?ms_kPool@?$CPooledObject@VCAirResistanceDecorator@NEffectUpdateDecorator@@@@1V?$CDynamicPoolEx@VCAirResistanceDecorator@NEffectUpdateDecorator@@@@A@@YAXXZ ; ??ms_kPool$initializer$@?$CPooledObject@VCAirResistanceDecorator@NEffectUpdateDecorator@@@@1P6AXXZA@@3P6AXXZA
CRT$XCU	ENDS
;	COMDAT CRT$XCU
CRT$XCU	SEGMENT
??ms_kPool$initializer$@?$CPooledObject@VCGravityDecorator@NEffectUpdateDecorator@@@@1P6AXXZA@@3P6AXXZA DD FLAT:??__E?ms_kPool@?$CPooledObject@VCGravityDecorator@NEffectUpdateDecorator@@@@1V?$CDynamicPoolEx@VCGravityDecorator@NEffectUpdateDecorator@@@@A@@YAXXZ ; ??ms_kPool$initializer$@?$CPooledObject@VCGravityDecorator@NEffectUpdateDecorator@@@@1P6AXXZA@@3P6AXXZA
CRT$XCU	ENDS
;	COMDAT CRT$XCU
CRT$XCU	SEGMENT
??ms_kPool$initializer$@?$CPooledObject@VCRotationDecorator@NEffectUpdateDecorator@@@@1P6AXXZA@@3P6AXXZA DD FLAT:??__E?ms_kPool@?$CPooledObject@VCRotationDecorator@NEffectUpdateDecorator@@@@1V?$CDynamicPoolEx@VCRotationDecorator@NEffectUpdateDecorator@@@@A@@YAXXZ ; ??ms_kPool$initializer$@?$CPooledObject@VCRotationDecorator@NEffectUpdateDecorator@@@@1P6AXXZA@@3P6AXXZA
CRT$XCU	ENDS
; Function compile flags: /Ogtp
; File C:\Program Files (x86)\Microsoft Visual Studio\2019\Professional\VC\Tools\MSVC\14.29.30133\include\xutility
;	COMDAT ??$_Copy_memmove@PAKPAK@std@@YAPAKPAK00@Z
_TEXT	SEGMENT
__First$ = 8						; size = 4
__Last$ = 12						; size = 4
__Dest$ = 16						; size = 4
??$_Copy_memmove@PAKPAK@std@@YAPAKPAK00@Z PROC		; std::_Copy_memmove<unsigned long *,unsigned long *>, COMDAT

; 4159 : _OutCtgIt _Copy_memmove(_CtgIt _First, _CtgIt _Last, _OutCtgIt _Dest) {

  00000	55		 push	 ebp
  00001	8b ec		 mov	 ebp, esp

; 4160 :     auto _FirstPtr              = _To_address(_First);
; 4161 :     auto _LastPtr               = _To_address(_Last);
; 4162 :     auto _DestPtr               = _To_address(_Dest);
; 4163 :     const char* const _First_ch = const_cast<const char*>(reinterpret_cast<const volatile char*>(_FirstPtr));
; 4164 :     const char* const _Last_ch  = const_cast<const char*>(reinterpret_cast<const volatile char*>(_LastPtr));
; 4165 :     char* const _Dest_ch        = const_cast<char*>(reinterpret_cast<const volatile char*>(_DestPtr));
; 4166 :     const auto _Count           = static_cast<size_t>(_Last_ch - _First_ch);

  00003	8b 45 08	 mov	 eax, DWORD PTR __First$[ebp]
  00006	56		 push	 esi

; 4167 :     _CSTD memmove(_Dest_ch, _First_ch, _Count);

  00007	8b 75 10	 mov	 esi, DWORD PTR __Dest$[ebp]
  0000a	57		 push	 edi
  0000b	8b 7d 0c	 mov	 edi, DWORD PTR __Last$[ebp]
  0000e	2b f8		 sub	 edi, eax
  00010	57		 push	 edi
  00011	50		 push	 eax
  00012	56		 push	 esi
  00013	e8 00 00 00 00	 call	 _memmove
  00018	83 c4 0c	 add	 esp, 12			; 0000000cH

; 4168 :     if constexpr (is_pointer_v<_OutCtgIt>) {
; 4169 :         return reinterpret_cast<_OutCtgIt>(_Dest_ch + _Count);

  0001b	8d 04 37	 lea	 eax, DWORD PTR [edi+esi]
  0001e	5f		 pop	 edi
  0001f	5e		 pop	 esi

; 4170 :     } else {
; 4171 :         return _Dest + (_LastPtr - _FirstPtr);
; 4172 :     }
; 4173 : }

  00020	5d		 pop	 ebp
  00021	c3		 ret	 0
??$_Copy_memmove@PAKPAK@std@@YAPAKPAK00@Z ENDP		; std::_Copy_memmove<unsigned long *,unsigned long *>
_TEXT	ENDS
; Function compile flags: /Ogtp
; File C:\Program Files (x86)\Microsoft Visual Studio\2019\Professional\VC\Tools\MSVC\14.29.30133\include\xmemory
;	COMDAT ??$_Zero_range@PAK@std@@YAPAKQAK0@Z
_TEXT	SEGMENT
__First$ = 8						; size = 4
__Last$ = 12						; size = 4
??$_Zero_range@PAK@std@@YAPAKQAK0@Z PROC		; std::_Zero_range<unsigned long *>, COMDAT

; 1806 : _Ptr _Zero_range(const _Ptr _First, const _Ptr _Last) { // fill [_First, _Last) with zeroes

  00000	55		 push	 ebp
  00001	8b ec		 mov	 ebp, esp

; 1807 :     char* const _First_ch = reinterpret_cast<char*>(_To_address(_First));
; 1808 :     char* const _Last_ch  = reinterpret_cast<char*>(_To_address(_Last));
; 1809 :     _CSTD memset(_First_ch, 0, static_cast<size_t>(_Last_ch - _First_ch));

  00003	8b 55 08	 mov	 edx, DWORD PTR __First$[ebp]
  00006	8b 4d 0c	 mov	 ecx, DWORD PTR __Last$[ebp]
  00009	2b ca		 sub	 ecx, edx
  0000b	51		 push	 ecx
  0000c	6a 00		 push	 0
  0000e	52		 push	 edx
  0000f	e8 00 00 00 00	 call	 _memset

; 1810 :     return _Last;

  00014	8b 45 0c	 mov	 eax, DWORD PTR __Last$[ebp]
  00017	83 c4 0c	 add	 esp, 12			; 0000000cH

; 1811 : }

  0001a	5d		 pop	 ebp
  0001b	c3		 ret	 0
??$_Zero_range@PAK@std@@YAPAKQAK0@Z ENDP		; std::_Zero_range<unsigned long *>
_TEXT	ENDS
; Function compile flags: /Ogtp
; File C:\Program Files (x86)\Microsoft Visual Studio\2019\Professional\VC\Tools\MSVC\14.29.30133\include\xmemory
;	COMDAT ??1?$_Uninitialized_backout_al@V?$allocator@USSkin@CRaceData@@@std@@@std@@QAE@XZ
_TEXT	SEGMENT
??1?$_Uninitialized_backout_al@V?$allocator@USSkin@CRaceData@@@std@@@std@@QAE@XZ PROC ; std::_Uninitialized_backout_al<std::allocator<CRaceData::SSkin> >::~_Uninitialized_backout_al<std::allocator<CRaceData::SSkin> >, COMDAT
; _this$ = ecx

; 1625 :     _CONSTEXPR20_DYNALLOC ~_Uninitialized_backout_al() {

  00000	56		 push	 esi

; 1626 :         _Destroy_range(_First, _Last, _Al);

  00001	8b 31		 mov	 esi, DWORD PTR [ecx]
  00003	57		 push	 edi
  00004	8b 79 04	 mov	 edi, DWORD PTR [ecx+4]

; 949  :         for (; _First != _Last; ++_First) {

  00007	3b f7		 cmp	 esi, edi
  00009	74 13		 je	 SHORT $LN5@Uninitiali
  0000b	0f 1f 44 00 00	 npad	 5
$LL6@Uninitiali:
  00010	8b ce		 mov	 ecx, esi
  00012	e8 00 00 00 00	 call	 ??1SSkin@CRaceData@@QAE@XZ
  00017	83 c6 34	 add	 esi, 52			; 00000034H
  0001a	3b f7		 cmp	 esi, edi
  0001c	75 f2		 jne	 SHORT $LL6@Uninitiali
$LN5@Uninitiali:
  0001e	5f		 pop	 edi

; 1627 :     }

  0001f	5e		 pop	 esi
  00020	c3		 ret	 0
??1?$_Uninitialized_backout_al@V?$allocator@USSkin@CRaceData@@@std@@@std@@QAE@XZ ENDP ; std::_Uninitialized_backout_al<std::allocator<CRaceData::SSkin> >::~_Uninitialized_backout_al<std::allocator<CRaceData::SSkin> >
_TEXT	ENDS
; Function compile flags: /Ogtp
; File C:\Program Files (x86)\Microsoft Visual Studio\2019\Professional\VC\Tools\MSVC\14.29.30133\include\xutility
;	COMDAT ??$_Copy_memmove@PAUSMotion@CRaceData@@PAU12@@std@@YAPAUSMotion@CRaceData@@PAU12@00@Z
_TEXT	SEGMENT
__First$ = 8						; size = 4
__Last$ = 12						; size = 4
__Dest$ = 16						; size = 4
??$_Copy_memmove@PAUSMotion@CRaceData@@PAU12@@std@@YAPAUSMotion@CRaceData@@PAU12@00@Z PROC ; std::_Copy_memmove<CRaceData::SMotion *,CRaceData::SMotion *>, COMDAT

; 4159 : _OutCtgIt _Copy_memmove(_CtgIt _First, _CtgIt _Last, _OutCtgIt _Dest) {

  00000	55		 push	 ebp
  00001	8b ec		 mov	 ebp, esp

; 4160 :     auto _FirstPtr              = _To_address(_First);
; 4161 :     auto _LastPtr               = _To_address(_Last);
; 4162 :     auto _DestPtr               = _To_address(_Dest);
; 4163 :     const char* const _First_ch = const_cast<const char*>(reinterpret_cast<const volatile char*>(_FirstPtr));
; 4164 :     const char* const _Last_ch  = const_cast<const char*>(reinterpret_cast<const volatile char*>(_LastPtr));
; 4165 :     char* const _Dest_ch        = const_cast<char*>(reinterpret_cast<const volatile char*>(_DestPtr));
; 4166 :     const auto _Count           = static_cast<size_t>(_Last_ch - _First_ch);

  00003	8b 45 08	 mov	 eax, DWORD PTR __First$[ebp]
  00006	56		 push	 esi

; 4167 :     _CSTD memmove(_Dest_ch, _First_ch, _Count);

  00007	8b 75 10	 mov	 esi, DWORD PTR __Dest$[ebp]
  0000a	57		 push	 edi
  0000b	8b 7d 0c	 mov	 edi, DWORD PTR __Last$[ebp]
  0000e	2b f8		 sub	 edi, eax
  00010	57		 push	 edi
  00011	50		 push	 eax
  00012	56		 push	 esi
  00013	e8 00 00 00 00	 call	 _memmove
  00018	83 c4 0c	 add	 esp, 12			; 0000000cH

; 4168 :     if constexpr (is_pointer_v<_OutCtgIt>) {
; 4169 :         return reinterpret_cast<_OutCtgIt>(_Dest_ch + _Count);

  0001b	8d 04 37	 lea	 eax, DWORD PTR [edi+esi]
  0001e	5f		 pop	 edi
  0001f	5e		 pop	 esi

; 4170 :     } else {
; 4171 :         return _Dest + (_LastPtr - _FirstPtr);
; 4172 :     }
; 4173 : }

  00020	5d		 pop	 ebp
  00021	c3		 ret	 0
??$_Copy_memmove@PAUSMotion@CRaceData@@PAU12@@std@@YAPAUSMotion@CRaceData@@PAU12@00@Z ENDP ; std::_Copy_memmove<CRaceData::SMotion *,CRaceData::SMotion *>
_TEXT	ENDS
; Function compile flags: /Ogtp
; File C:\Program Files (x86)\Microsoft Visual Studio\2019\Professional\VC\Tools\MSVC\14.29.30133\include\xmemory
; File C:\Program Files (x86)\Microsoft Visual Studio\2019\Professional\VC\Tools\MSVC\14.29.30133\include\vector
; File C:\Program Files (x86)\Microsoft Visual Studio\2019\Professional\VC\Tools\MSVC\14.29.30133\include\xmemory
; File C:\Program Files (x86)\Microsoft Visual Studio\2019\Professional\VC\Tools\MSVC\14.29.30133\include\vector
; File C:\Program Files (x86)\Microsoft Visual Studio\2019\Professional\VC\Tools\MSVC\14.29.30133\include\xmemory
; File C:\Program Files (x86)\Microsoft Visual Studio\2019\Professional\VC\Tools\MSVC\14.29.30133\include\vector
; File C:\Program Files (x86)\Microsoft Visual Studio\2019\Professional\VC\Tools\MSVC\14.29.30133\include\xmemory
;	COMDAT ??$destroy@U?$pair@$$CBKUSComboAttackData@CRaceData@@@std@@@?$_Default_allocator_traits@V?$allocator@U?$_Tree_node@U?$pair@$$CBKUSComboAttackData@CRaceData@@@std@@PAX@std@@@std@@@std@@SAXAAV?$allocator@U?$_Tree_node@U?$pair@$$CBKUSComboAttackData@CRaceData@@@std@@PAX@std@@@1@QAU?$pair@$$CBKUSComboAttackData@CRaceData@@@1@@Z
_TEXT	SEGMENT
___formal$ = 8						; size = 4
__Ptr$ = 12						; size = 4
??$destroy@U?$pair@$$CBKUSComboAttackData@CRaceData@@@std@@@?$_Default_allocator_traits@V?$allocator@U?$_Tree_node@U?$pair@$$CBKUSComboAttackData@CRaceData@@@std@@PAX@std@@@std@@@std@@SAXAAV?$allocator@U?$_Tree_node@U?$pair@$$CBKUSComboAttackData@CRaceData@@@std@@PAX@std@@@1@QAU?$pair@$$CBKUSComboAttackData@CRaceData@@@1@@Z PROC ; std::_Default_allocator_traits<std::allocator<std::_Tree_node<std::pair<unsigned long const ,CRaceData::SComboAttackData>,void *> > >::destroy<std::pair<unsigned long const ,CRaceData::SComboAttackData> >, COMDAT

; 719  :     static _CONSTEXPR20_DYNALLOC void destroy(_Alloc&, _Uty* const _Ptr) {

  00000	55		 push	 ebp
  00001	8b ec		 mov	 ebp, esp
  00003	56		 push	 esi
; File C:\Program Files (x86)\Microsoft Visual Studio\2019\Professional\VC\Tools\MSVC\14.29.30133\include\vector

; 1756 :         auto& _My_data    = _Mypair._Myval2;

  00004	8b 75 0c	 mov	 esi, DWORD PTR __Ptr$[ebp]

; 1757 :         pointer& _Myfirst = _My_data._Myfirst;
; 1758 :         pointer& _Mylast  = _My_data._Mylast;
; 1759 :         pointer& _Myend   = _My_data._Myend;
; 1760 : 
; 1761 :         _My_data._Orphan_all();
; 1762 : 
; 1763 :         if (_Myfirst) { // destroy and deallocate old array

  00007	8b 46 04	 mov	 eax, DWORD PTR [esi+4]
  0000a	85 c0		 test	 eax, eax
  0000c	74 41		 je	 SHORT $LN15@destroy

; 1764 :             _Destroy(_Myfirst, _Mylast);
; 1765 :             _Getal().deallocate(_Myfirst, static_cast<size_type>(_Myend - _Myfirst));

  0000e	8b 4e 0c	 mov	 ecx, DWORD PTR [esi+12]
  00011	2b c8		 sub	 ecx, eax
; File C:\Program Files (x86)\Microsoft Visual Studio\2019\Professional\VC\Tools\MSVC\14.29.30133\include\xmemory

; 835  :         _Deallocate<_New_alignof<_Ty>>(_Ptr, sizeof(_Ty) * _Count);

  00013	83 e1 fc	 and	 ecx, -4			; fffffffcH

; 260  :         if (_Bytes >= _Big_allocation_threshold) { // boost the alignment of big allocations to help autovectorization

  00016	81 f9 00 10 00
	00		 cmp	 ecx, 4096		; 00001000H
  0001c	72 12		 jb	 SHORT $LN31@destroy

; 158  :     const uintptr_t _Ptr_container   = _Ptr_user[-1];

  0001e	8b 50 fc	 mov	 edx, DWORD PTR [eax-4]
  00021	83 c1 23	 add	 ecx, 35			; 00000023H

; 159  : 
; 160  :     // If the following asserts, it likely means that we are performing
; 161  :     // an aligned delete on memory coming from an unaligned allocation.
; 162  :     _STL_ASSERT(_Ptr_user[-2] == _Big_allocation_sentinel, "invalid argument");
; 163  : 
; 164  :     // Extra paranoia on aligned allocation/deallocation; ensure _Ptr_container is
; 165  :     // in range [_Min_back_shift, _Non_user_size]
; 166  : #ifdef _DEBUG
; 167  :     constexpr uintptr_t _Min_back_shift = 2 * sizeof(void*);
; 168  : #else // ^^^ _DEBUG ^^^ // vvv !_DEBUG vvv
; 169  :     constexpr uintptr_t _Min_back_shift = sizeof(void*);
; 170  : #endif // _DEBUG
; 171  :     const uintptr_t _Back_shift = reinterpret_cast<uintptr_t>(_Ptr) - _Ptr_container;

  00024	2b c2		 sub	 eax, edx

; 172  :     _STL_VERIFY(_Back_shift >= _Min_back_shift && _Back_shift <= _Non_user_size, "invalid argument");

  00026	83 c0 fc	 add	 eax, -4			; fffffffcH
  00029	83 f8 1f	 cmp	 eax, 31			; 0000001fH
  0002c	77 24		 ja	 SHORT $LN28@destroy

; 173  :     _Ptr = reinterpret_cast<void*>(_Ptr_container);

  0002e	8b c2		 mov	 eax, edx
$LN31@destroy:

; 264  :         ::operator delete(_Ptr, _Bytes);

  00030	51		 push	 ecx
  00031	50		 push	 eax
  00032	e8 00 00 00 00	 call	 ??3@YAXPAXI@Z		; operator delete
; File C:\Program Files (x86)\Microsoft Visual Studio\2019\Professional\VC\Tools\MSVC\14.29.30133\include\vector

; 1767 :             _Myfirst = nullptr;

  00037	c7 46 04 00 00
	00 00		 mov	 DWORD PTR [esi+4], 0
; File C:\Program Files (x86)\Microsoft Visual Studio\2019\Professional\VC\Tools\MSVC\14.29.30133\include\xmemory

; 264  :         ::operator delete(_Ptr, _Bytes);

  0003e	83 c4 08	 add	 esp, 8
; File C:\Program Files (x86)\Microsoft Visual Studio\2019\Professional\VC\Tools\MSVC\14.29.30133\include\vector

; 1768 :             _Mylast  = nullptr;

  00041	c7 46 08 00 00
	00 00		 mov	 DWORD PTR [esi+8], 0

; 1769 :             _Myend   = nullptr;

  00048	c7 46 0c 00 00
	00 00		 mov	 DWORD PTR [esi+12], 0
$LN15@destroy:
  0004f	5e		 pop	 esi
; File C:\Program Files (x86)\Microsoft Visual Studio\2019\Professional\VC\Tools\MSVC\14.29.30133\include\xmemory

; 725  :     }

  00050	5d		 pop	 ebp
  00051	c3		 ret	 0
$LN28@destroy:

; 172  :     _STL_VERIFY(_Back_shift >= _Min_back_shift && _Back_shift <= _Non_user_size, "invalid argument");

  00052	e8 00 00 00 00	 call	 __invalid_parameter_noinfo_noreturn
$LN40@destroy:
  00057	cc		 int	 3
??$destroy@U?$pair@$$CBKUSComboAttackData@CRaceData@@@std@@@?$_Default_allocator_traits@V?$allocator@U?$_Tree_node@U?$pair@$$CBKUSComboAttackData@CRaceData@@@std@@PAX@std@@@std@@@std@@SAXAAV?$allocator@U?$_Tree_node@U?$pair@$$CBKUSComboAttackData@CRaceData@@@std@@PAX@std@@@1@QAU?$pair@$$CBKUSComboAttackData@CRaceData@@@1@@Z ENDP ; std::_Default_allocator_traits<std::allocator<std::_Tree_node<std::pair<unsigned long const ,CRaceData::SComboAttackData>,void *> > >::destroy<std::pair<unsigned long const ,CRaceData::SComboAttackData> >
_TEXT	ENDS
; Function compile flags: /Ogtp
; File C:\Program Files (x86)\Microsoft Visual Studio\2019\Professional\VC\Tools\MSVC\14.29.30133\include\xmemory
;	COMDAT ??1?$_Alloc_construct_ptr@V?$allocator@U?$_Tree_node@U?$pair@$$CBKUSComboAttackData@CRaceData@@@std@@PAX@std@@@std@@@std@@QAE@XZ
_TEXT	SEGMENT
??1?$_Alloc_construct_ptr@V?$allocator@U?$_Tree_node@U?$pair@$$CBKUSComboAttackData@CRaceData@@@std@@PAX@std@@@std@@@std@@QAE@XZ PROC ; std::_Alloc_construct_ptr<std::allocator<std::_Tree_node<std::pair<unsigned long const ,CRaceData::SComboAttackData>,void *> > >::~_Alloc_construct_ptr<std::allocator<std::_Tree_node<std::pair<unsigned long const ,CRaceData::SComboAttackData>,void *> > >, COMDAT
; _this$ = ecx

; 1024 :         if (_Ptr) {

  00000	8b 41 04	 mov	 eax, DWORD PTR [ecx+4]
  00003	85 c0		 test	 eax, eax
  00005	74 0b		 je	 SHORT $LN8@Alloc_cons

; 264  :         ::operator delete(_Ptr, _Bytes);

  00007	6a 20		 push	 32			; 00000020H
  00009	50		 push	 eax
  0000a	e8 00 00 00 00	 call	 ??3@YAXPAXI@Z		; operator delete
  0000f	83 c4 08	 add	 esp, 8
$LN8@Alloc_cons:

; 1025 :             _Al.deallocate(_Ptr, 1);
; 1026 :         }
; 1027 :     }

  00012	c3		 ret	 0
??1?$_Alloc_construct_ptr@V?$allocator@U?$_Tree_node@U?$pair@$$CBKUSComboAttackData@CRaceData@@@std@@PAX@std@@@std@@@std@@QAE@XZ ENDP ; std::_Alloc_construct_ptr<std::allocator<std::_Tree_node<std::pair<unsigned long const ,CRaceData::SComboAttackData>,void *> > >::~_Alloc_construct_ptr<std::allocator<std::_Tree_node<std::pair<unsigned long const ,CRaceData::SComboAttackData>,void *> > >
_TEXT	ENDS
; Function compile flags: /Ogtp
; File C:\Program Files (x86)\Microsoft Visual Studio\2019\Professional\VC\Tools\MSVC\14.29.30133\include\xmemory
;	COMDAT ??1?$_Alloc_construct_ptr@V?$allocator@U?$_Tree_node@U?$pair@$$CBKK@std@@PAX@std@@@std@@@std@@QAE@XZ
_TEXT	SEGMENT
??1?$_Alloc_construct_ptr@V?$allocator@U?$_Tree_node@U?$pair@$$CBKK@std@@PAX@std@@@std@@@std@@QAE@XZ PROC ; std::_Alloc_construct_ptr<std::allocator<std::_Tree_node<std::pair<unsigned long const ,unsigned long>,void *> > >::~_Alloc_construct_ptr<std::allocator<std::_Tree_node<std::pair<unsigned long const ,unsigned long>,void *> > >, COMDAT
; _this$ = ecx

; 1024 :         if (_Ptr) {

  00000	8b 41 04	 mov	 eax, DWORD PTR [ecx+4]
  00003	85 c0		 test	 eax, eax
  00005	74 0b		 je	 SHORT $LN8@Alloc_cons

; 264  :         ::operator delete(_Ptr, _Bytes);

  00007	6a 18		 push	 24			; 00000018H
  00009	50		 push	 eax
  0000a	e8 00 00 00 00	 call	 ??3@YAXPAXI@Z		; operator delete
  0000f	83 c4 08	 add	 esp, 8
$LN8@Alloc_cons:

; 1025 :             _Al.deallocate(_Ptr, 1);
; 1026 :         }
; 1027 :     }

  00012	c3		 ret	 0
??1?$_Alloc_construct_ptr@V?$allocator@U?$_Tree_node@U?$pair@$$CBKK@std@@PAX@std@@@std@@@std@@QAE@XZ ENDP ; std::_Alloc_construct_ptr<std::allocator<std::_Tree_node<std::pair<unsigned long const ,unsigned long>,void *> > >::~_Alloc_construct_ptr<std::allocator<std::_Tree_node<std::pair<unsigned long const ,unsigned long>,void *> > >
_TEXT	ENDS
; Function compile flags: /Ogtp
; File C:\Program Files (x86)\Microsoft Visual Studio\2019\Professional\VC\Tools\MSVC\14.29.30133\include\xmemory
;	COMDAT ??1?$_Alloc_construct_ptr@V?$allocator@U?$_Tree_node@U?$pair@$$CBGPAUSMotionModeData@CRaceData@@@std@@PAX@std@@@std@@@std@@QAE@XZ
_TEXT	SEGMENT
??1?$_Alloc_construct_ptr@V?$allocator@U?$_Tree_node@U?$pair@$$CBGPAUSMotionModeData@CRaceData@@@std@@PAX@std@@@std@@@std@@QAE@XZ PROC ; std::_Alloc_construct_ptr<std::allocator<std::_Tree_node<std::pair<unsigned short const ,CRaceData::SMotionModeData *>,void *> > >::~_Alloc_construct_ptr<std::allocator<std::_Tree_node<std::pair<unsigned short const ,CRaceData::SMotionModeData *>,void *> > >, COMDAT
; _this$ = ecx

; 1024 :         if (_Ptr) {

  00000	8b 41 04	 mov	 eax, DWORD PTR [ecx+4]
  00003	85 c0		 test	 eax, eax
  00005	74 0b		 je	 SHORT $LN8@Alloc_cons

; 264  :         ::operator delete(_Ptr, _Bytes);

  00007	6a 18		 push	 24			; 00000018H
  00009	50		 push	 eax
  0000a	e8 00 00 00 00	 call	 ??3@YAXPAXI@Z		; operator delete
  0000f	83 c4 08	 add	 esp, 8
$LN8@Alloc_cons:

; 1025 :             _Al.deallocate(_Ptr, 1);
; 1026 :         }
; 1027 :     }

  00012	c3		 ret	 0
??1?$_Alloc_construct_ptr@V?$allocator@U?$_Tree_node@U?$pair@$$CBGPAUSMotionModeData@CRaceData@@@std@@PAX@std@@@std@@@std@@QAE@XZ ENDP ; std::_Alloc_construct_ptr<std::allocator<std::_Tree_node<std::pair<unsigned short const ,CRaceData::SMotionModeData *>,void *> > >::~_Alloc_construct_ptr<std::allocator<std::_Tree_node<std::pair<unsigned short const ,CRaceData::SMotionModeData *>,void *> > >
_TEXT	ENDS
; Function compile flags: /Ogtp
; File C:\Program Files (x86)\Microsoft Visual Studio\2019\Professional\VC\Tools\MSVC\14.29.30133\include\xmemory
;	COMDAT ??1?$_Alloc_construct_ptr@V?$allocator@U?$_Tree_node@U?$pair@$$CBKV?$basic_string@DU?$char_traits@D@std@@V?$allocator@D@2@@std@@@std@@PAX@std@@@std@@@std@@QAE@XZ
_TEXT	SEGMENT
??1?$_Alloc_construct_ptr@V?$allocator@U?$_Tree_node@U?$pair@$$CBKV?$basic_string@DU?$char_traits@D@std@@V?$allocator@D@2@@std@@@std@@PAX@std@@@std@@@std@@QAE@XZ PROC ; std::_Alloc_construct_ptr<std::allocator<std::_Tree_node<std::pair<unsigned long const ,std::basic_string<char,std::char_traits<char>,std::allocator<char> > >,void *> > >::~_Alloc_construct_ptr<std::allocator<std::_Tree_node<std::pair<unsigned long const ,std::basic_string<char,std::char_traits<char>,std::allocator<char> > >,void *> > >, COMDAT
; _this$ = ecx

; 1024 :         if (_Ptr) {

  00000	8b 41 04	 mov	 eax, DWORD PTR [ecx+4]
  00003	85 c0		 test	 eax, eax
  00005	74 0b		 je	 SHORT $LN8@Alloc_cons

; 264  :         ::operator delete(_Ptr, _Bytes);

  00007	6a 2c		 push	 44			; 0000002cH
  00009	50		 push	 eax
  0000a	e8 00 00 00 00	 call	 ??3@YAXPAXI@Z		; operator delete
  0000f	83 c4 08	 add	 esp, 8
$LN8@Alloc_cons:

; 1025 :             _Al.deallocate(_Ptr, 1);
; 1026 :         }
; 1027 :     }

  00012	c3		 ret	 0
??1?$_Alloc_construct_ptr@V?$allocator@U?$_Tree_node@U?$pair@$$CBKV?$basic_string@DU?$char_traits@D@std@@V?$allocator@D@2@@std@@@std@@PAX@std@@@std@@@std@@QAE@XZ ENDP ; std::_Alloc_construct_ptr<std::allocator<std::_Tree_node<std::pair<unsigned long const ,std::basic_string<char,std::char_traits<char>,std::allocator<char> > >,void *> > >::~_Alloc_construct_ptr<std::allocator<std::_Tree_node<std::pair<unsigned long const ,std::basic_string<char,std::char_traits<char>,std::allocator<char> > >,void *> > >
_TEXT	ENDS
; Function compile flags: /Ogtp
; File C:\Program Files (x86)\Microsoft Visual Studio\2019\Professional\VC\Tools\MSVC\14.29.30133\include\xutility
;	COMDAT ??$_Copy_memmove@PAPAVCRaceData@@PAPAV1@@std@@YAPAPAVCRaceData@@PAPAV1@00@Z
_TEXT	SEGMENT
__First$ = 8						; size = 4
__Last$ = 12						; size = 4
__Dest$ = 16						; size = 4
??$_Copy_memmove@PAPAVCRaceData@@PAPAV1@@std@@YAPAPAVCRaceData@@PAPAV1@00@Z PROC ; std::_Copy_memmove<CRaceData * *,CRaceData * *>, COMDAT

; 4159 : _OutCtgIt _Copy_memmove(_CtgIt _First, _CtgIt _Last, _OutCtgIt _Dest) {

  00000	55		 push	 ebp
  00001	8b ec		 mov	 ebp, esp

; 4160 :     auto _FirstPtr              = _To_address(_First);
; 4161 :     auto _LastPtr               = _To_address(_Last);
; 4162 :     auto _DestPtr               = _To_address(_Dest);
; 4163 :     const char* const _First_ch = const_cast<const char*>(reinterpret_cast<const volatile char*>(_FirstPtr));
; 4164 :     const char* const _Last_ch  = const_cast<const char*>(reinterpret_cast<const volatile char*>(_LastPtr));
; 4165 :     char* const _Dest_ch        = const_cast<char*>(reinterpret_cast<const volatile char*>(_DestPtr));
; 4166 :     const auto _Count           = static_cast<size_t>(_Last_ch - _First_ch);

  00003	8b 45 08	 mov	 eax, DWORD PTR __First$[ebp]
  00006	56		 push	 esi

; 4167 :     _CSTD memmove(_Dest_ch, _First_ch, _Count);

  00007	8b 75 10	 mov	 esi, DWORD PTR __Dest$[ebp]
  0000a	57		 push	 edi
  0000b	8b 7d 0c	 mov	 edi, DWORD PTR __Last$[ebp]
  0000e	2b f8		 sub	 edi, eax
  00010	57		 push	 edi
  00011	50		 push	 eax
  00012	56		 push	 esi
  00013	e8 00 00 00 00	 call	 _memmove
  00018	83 c4 0c	 add	 esp, 12			; 0000000cH

; 4168 :     if constexpr (is_pointer_v<_OutCtgIt>) {
; 4169 :         return reinterpret_cast<_OutCtgIt>(_Dest_ch + _Count);

  0001b	8d 04 37	 lea	 eax, DWORD PTR [edi+esi]
  0001e	5f		 pop	 edi
  0001f	5e		 pop	 esi

; 4170 :     } else {
; 4171 :         return _Dest + (_LastPtr - _FirstPtr);
; 4172 :     }
; 4173 : }

  00020	5d		 pop	 ebp
  00021	c3		 ret	 0
??$_Copy_memmove@PAPAVCRaceData@@PAPAV1@@std@@YAPAPAVCRaceData@@PAPAV1@00@Z ENDP ; std::_Copy_memmove<CRaceData * *,CRaceData * *>
_TEXT	ENDS
; Function compile flags: /Ogtp
; File C:\Program Files (x86)\Microsoft Visual Studio\2019\Professional\VC\Tools\MSVC\14.29.30133\include\xutility
;	COMDAT ??$_Copy_memmove@PAPAUSMotionModeData@CRaceData@@PAPAU12@@std@@YAPAPAUSMotionModeData@CRaceData@@PAPAU12@00@Z
_TEXT	SEGMENT
__First$ = 8						; size = 4
__Last$ = 12						; size = 4
__Dest$ = 16						; size = 4
??$_Copy_memmove@PAPAUSMotionModeData@CRaceData@@PAPAU12@@std@@YAPAPAUSMotionModeData@CRaceData@@PAPAU12@00@Z PROC ; std::_Copy_memmove<CRaceData::SMotionModeData * *,CRaceData::SMotionModeData * *>, COMDAT

; 4159 : _OutCtgIt _Copy_memmove(_CtgIt _First, _CtgIt _Last, _OutCtgIt _Dest) {

  00000	55		 push	 ebp
  00001	8b ec		 mov	 ebp, esp

; 4160 :     auto _FirstPtr              = _To_address(_First);
; 4161 :     auto _LastPtr               = _To_address(_Last);
; 4162 :     auto _DestPtr               = _To_address(_Dest);
; 4163 :     const char* const _First_ch = const_cast<const char*>(reinterpret_cast<const volatile char*>(_FirstPtr));
; 4164 :     const char* const _Last_ch  = const_cast<const char*>(reinterpret_cast<const volatile char*>(_LastPtr));
; 4165 :     char* const _Dest_ch        = const_cast<char*>(reinterpret_cast<const volatile char*>(_DestPtr));
; 4166 :     const auto _Count           = static_cast<size_t>(_Last_ch - _First_ch);

  00003	8b 45 08	 mov	 eax, DWORD PTR __First$[ebp]
  00006	56		 push	 esi

; 4167 :     _CSTD memmove(_Dest_ch, _First_ch, _Count);

  00007	8b 75 10	 mov	 esi, DWORD PTR __Dest$[ebp]
  0000a	57		 push	 edi
  0000b	8b 7d 0c	 mov	 edi, DWORD PTR __Last$[ebp]
  0000e	2b f8		 sub	 edi, eax
  00010	57		 push	 edi
  00011	50		 push	 eax
  00012	56		 push	 esi
  00013	e8 00 00 00 00	 call	 _memmove
  00018	83 c4 0c	 add	 esp, 12			; 0000000cH

; 4168 :     if constexpr (is_pointer_v<_OutCtgIt>) {
; 4169 :         return reinterpret_cast<_OutCtgIt>(_Dest_ch + _Count);

  0001b	8d 04 37	 lea	 eax, DWORD PTR [edi+esi]
  0001e	5f		 pop	 edi
  0001f	5e		 pop	 esi

; 4170 :     } else {
; 4171 :         return _Dest + (_LastPtr - _FirstPtr);
; 4172 :     }
; 4173 : }

  00020	5d		 pop	 ebp
  00021	c3		 ret	 0
??$_Copy_memmove@PAPAUSMotionModeData@CRaceData@@PAPAU12@@std@@YAPAPAUSMotionModeData@CRaceData@@PAPAU12@00@Z ENDP ; std::_Copy_memmove<CRaceData::SMotionModeData * *,CRaceData::SMotionModeData * *>
_TEXT	ENDS
; Function compile flags: /Ogtp
; File C:\Program Files (x86)\Microsoft Visual Studio\2019\Professional\VC\Tools\MSVC\14.29.30133\include\xtree
; File C:\Program Files (x86)\Microsoft Visual Studio\2019\Professional\VC\Tools\MSVC\14.29.30133\include\xstddef
; File C:\Program Files (x86)\Microsoft Visual Studio\2019\Professional\VC\Tools\MSVC\14.29.30133\include\xtree
; File C:\Program Files (x86)\Microsoft Visual Studio\2019\Professional\VC\Tools\MSVC\14.29.30133\include\xstddef
; File C:\Program Files (x86)\Microsoft Visual Studio\2019\Professional\VC\Tools\MSVC\14.29.30133\include\xtree
;	COMDAT ??$_Find_lower_bound@K@?$_Tree@V?$_Tmap_traits@KV?$basic_string@DU?$char_traits@D@std@@V?$allocator@D@2@@std@@U?$less@K@2@V?$allocator@U?$pair@$$CBKV?$basic_string@DU?$char_traits@D@std@@V?$allocator@D@2@@std@@@std@@@2@$0A@@std@@@std@@IBE?AU?$_Tree_find_result@PAU?$_Tree_node@U?$pair@$$CBKV?$basic_string@DU?$char_traits@D@std@@V?$allocator@D@2@@std@@@std@@PAX@std@@@1@ABK@Z
_TEXT	SEGMENT
___$ReturnUdt$ = 8					; size = 4
__Keyval$ = 12						; size = 4
??$_Find_lower_bound@K@?$_Tree@V?$_Tmap_traits@KV?$basic_string@DU?$char_traits@D@std@@V?$allocator@D@2@@std@@U?$less@K@2@V?$allocator@U?$pair@$$CBKV?$basic_string@DU?$char_traits@D@std@@V?$allocator@D@2@@std@@@std@@@2@$0A@@std@@@std@@IBE?AU?$_Tree_find_result@PAU?$_Tree_node@U?$pair@$$CBKV?$basic_string@DU?$char_traits@D@std@@V?$allocator@D@2@@std@@@std@@PAX@std@@@1@ABK@Z PROC ; std::_Tree<std::_Tmap_traits<unsigned long,std::basic_string<char,std::char_traits<char>,std::allocator<char> >,std::less<unsigned long>,std::allocator<std::pair<unsigned long const ,std::basic_string<char,std::char_traits<char>,std::allocator<char> > > >,0> >::_Find_lower_bound<unsigned long>, COMDAT
; _this$ = ecx

; 1603 :     _Tree_find_result<_Nodeptr> _Find_lower_bound(const _Keyty& _Keyval) const {

  00000	55		 push	 ebp
  00001	8b ec		 mov	 ebp, esp

; 1604 :         const auto _Scary = _Get_scary();
; 1605 :         _Tree_find_result<_Nodeptr> _Result{{_Scary->_Myhead->_Parent, _Tree_child::_Right}, _Scary->_Myhead};

  00003	8b 09		 mov	 ecx, DWORD PTR [ecx]
  00005	8b 55 08	 mov	 edx, DWORD PTR ___$ReturnUdt$[ebp]
  00008	8b 41 04	 mov	 eax, DWORD PTR [ecx+4]
  0000b	89 02		 mov	 DWORD PTR [edx], eax
  0000d	c7 42 04 00 00
	00 00		 mov	 DWORD PTR [edx+4], 0
  00014	89 4a 08	 mov	 DWORD PTR [edx+8], ecx

; 1606 :         _Nodeptr _Trynode = _Result._Location._Parent;
; 1607 :         while (!_Trynode->_Isnil) {

  00017	80 78 0d 00	 cmp	 BYTE PTR [eax+13], 0
  0001b	75 28		 jne	 SHORT $LN12@Find_lower
; File C:\Program Files (x86)\Microsoft Visual Studio\2019\Professional\VC\Tools\MSVC\14.29.30133\include\xstddef

; 127  :         return _Left < _Right;

  0001d	8b 4d 0c	 mov	 ecx, DWORD PTR __Keyval$[ebp]
  00020	56		 push	 esi
  00021	8b 31		 mov	 esi, DWORD PTR [ecx]
$LL2@Find_lower:
; File C:\Program Files (x86)\Microsoft Visual Studio\2019\Professional\VC\Tools\MSVC\14.29.30133\include\xtree

; 1608 :             _Result._Location._Parent = _Trynode;

  00023	89 02		 mov	 DWORD PTR [edx], eax
; File C:\Program Files (x86)\Microsoft Visual Studio\2019\Professional\VC\Tools\MSVC\14.29.30133\include\xstddef

; 127  :         return _Left < _Right;

  00025	39 70 10	 cmp	 DWORD PTR [eax+16], esi
; File C:\Program Files (x86)\Microsoft Visual Studio\2019\Professional\VC\Tools\MSVC\14.29.30133\include\xtree

; 1609 :             if (_DEBUG_LT_PRED(_Getcomp(), _Traits::_Kfn(_Trynode->_Myval), _Keyval)) {

  00028	73 07		 jae	 SHORT $LN4@Find_lower

; 1610 :                 _Result._Location._Child = _Tree_child::_Right;
; 1611 :                 _Trynode                 = _Trynode->_Right;

  0002a	8b 40 08	 mov	 eax, DWORD PTR [eax+8]
  0002d	33 c9		 xor	 ecx, ecx

; 1612 :             } else {

  0002f	eb 0a		 jmp	 SHORT $LN5@Find_lower
$LN4@Find_lower:

; 1613 :                 _Result._Location._Child = _Tree_child::_Left;
; 1614 :                 _Result._Bound           = _Trynode;

  00031	89 42 08	 mov	 DWORD PTR [edx+8], eax

; 1615 :                 _Trynode                 = _Trynode->_Left;

  00034	b9 01 00 00 00	 mov	 ecx, 1
  00039	8b 00		 mov	 eax, DWORD PTR [eax]
$LN5@Find_lower:

; 1606 :         _Nodeptr _Trynode = _Result._Location._Parent;
; 1607 :         while (!_Trynode->_Isnil) {

  0003b	89 4a 04	 mov	 DWORD PTR [edx+4], ecx
  0003e	80 78 0d 00	 cmp	 BYTE PTR [eax+13], 0
  00042	74 df		 je	 SHORT $LL2@Find_lower

; 1616 :             }
; 1617 :         }
; 1618 : 
; 1619 :         return _Result;

  00044	5e		 pop	 esi
$LN12@Find_lower:

; 1620 :     }

  00045	8b c2		 mov	 eax, edx
  00047	5d		 pop	 ebp
  00048	c2 08 00	 ret	 8
??$_Find_lower_bound@K@?$_Tree@V?$_Tmap_traits@KV?$basic_string@DU?$char_traits@D@std@@V?$allocator@D@2@@std@@U?$less@K@2@V?$allocator@U?$pair@$$CBKV?$basic_string@DU?$char_traits@D@std@@V?$allocator@D@2@@std@@@std@@@2@$0A@@std@@@std@@IBE?AU?$_Tree_find_result@PAU?$_Tree_node@U?$pair@$$CBKV?$basic_string@DU?$char_traits@D@std@@V?$allocator@D@2@@std@@@std@@PAX@std@@@1@ABK@Z ENDP ; std::_Tree<std::_Tmap_traits<unsigned long,std::basic_string<char,std::char_traits<char>,std::allocator<char> >,std::less<unsigned long>,std::allocator<std::pair<unsigned long const ,std::basic_string<char,std::char_traits<char>,std::allocator<char> > > >,0> >::_Find_lower_bound<unsigned long>
_TEXT	ENDS
; Function compile flags: /Ogtp
; File C:\Program Files (x86)\Microsoft Visual Studio\2019\Professional\VC\Tools\MSVC\14.29.30133\include\vector
; File C:\Program Files (x86)\Microsoft Visual Studio\2019\Professional\VC\Tools\MSVC\14.29.30133\include\xmemory
; File C:\Program Files (x86)\Microsoft Visual Studio\2019\Professional\VC\Tools\MSVC\14.29.30133\include\vector
; File C:\Program Files (x86)\Microsoft Visual Studio\2019\Professional\VC\Tools\MSVC\14.29.30133\include\xmemory
; File C:\Program Files (x86)\Microsoft Visual Studio\2019\Professional\VC\Tools\MSVC\14.29.30133\include\vector
; File C:\Program Files (x86)\Microsoft Visual Studio\2019\Professional\VC\Tools\MSVC\14.29.30133\include\xmemory
; File C:\Program Files (x86)\Microsoft Visual Studio\2019\Professional\VC\Tools\MSVC\14.29.30133\include\vector
; File C:\Program Files (x86)\Microsoft Visual Studio\2019\Professional\VC\Tools\MSVC\14.29.30133\include\xmemory
; File C:\Program Files (x86)\Microsoft Visual Studio\2019\Professional\VC\Tools\MSVC\14.29.30133\include\vector
; File C:\Program Files (x86)\Microsoft Visual Studio\2019\Professional\VC\Tools\MSVC\14.29.30133\include\xmemory
; File C:\Program Files (x86)\Microsoft Visual Studio\2019\Professional\VC\Tools\MSVC\14.29.30133\include\vector
; File C:\Program Files (x86)\Microsoft Visual Studio\2019\Professional\VC\Tools\MSVC\14.29.30133\include\xmemory
; File C:\Program Files (x86)\Microsoft Visual Studio\2019\Professional\VC\Tools\MSVC\14.29.30133\include\vector
; File C:\Program Files (x86)\Microsoft Visual Studio\2019\Professional\VC\Tools\MSVC\14.29.30133\include\xmemory
; File C:\Program Files (x86)\Microsoft Visual Studio\2019\Professional\VC\Tools\MSVC\14.29.30133\include\vector
; File C:\Program Files (x86)\Microsoft Visual Studio\2019\Professional\VC\Tools\MSVC\14.29.30133\include\xmemory
; File C:\Program Files (x86)\Microsoft Visual Studio\2019\Professional\VC\Tools\MSVC\14.29.30133\include\vector
;	COMDAT ??$_Resize_reallocate@U_Value_init_tag@std@@@?$vector@KV?$allocator@K@std@@@std@@AAEXIABU_Value_init_tag@1@@Z
_TEXT	SEGMENT
__Oldsize$1$ = -4					; size = 4
__Newsize$ = 8						; size = 4
__Val$ = 12						; size = 4
??$_Resize_reallocate@U_Value_init_tag@std@@@?$vector@KV?$allocator@K@std@@@std@@AAEXIABU_Value_init_tag@1@@Z PROC ; std::vector<unsigned long,std::allocator<unsigned long> >::_Resize_reallocate<std::_Value_init_tag>, COMDAT
; _this$ = ecx

; 1229 :     _CONSTEXPR20_CONTAINER void _Resize_reallocate(const size_type _Newsize, const _Ty2& _Val) {

  00000	55		 push	 ebp
  00001	8b ec		 mov	 ebp, esp
  00003	51		 push	 ecx
  00004	53		 push	 ebx

; 1230 :         if (_Newsize > max_size()) {

  00005	8b 5d 08	 mov	 ebx, DWORD PTR __Newsize$[ebp]
  00008	56		 push	 esi
  00009	8b f1		 mov	 esi, ecx
  0000b	57		 push	 edi
  0000c	81 fb ff ff ff
	3f		 cmp	 ebx, 1073741823		; 3fffffffH
  00012	0f 87 ea 00 00
	00		 ja	 $LN82@Resize_rea

; 1232 :         }
; 1233 : 
; 1234 :         auto& _My_data    = _Mypair._Myval2;
; 1235 :         pointer& _Myfirst = _My_data._Myfirst;
; 1236 :         pointer& _Mylast  = _My_data._Mylast;
; 1237 : 
; 1238 :         const auto _Oldsize          = static_cast<size_type>(_Mylast - _Myfirst);

  00018	8b 4e 04	 mov	 ecx, DWORD PTR [esi+4]

; 1688 :         if (_Oldcapacity > _Max - _Oldcapacity / 2) {

  0001b	b8 ff ff ff 3f	 mov	 eax, 1073741823		; 3fffffffH

; 1232 :         }
; 1233 : 
; 1234 :         auto& _My_data    = _Mypair._Myval2;
; 1235 :         pointer& _Myfirst = _My_data._Myfirst;
; 1236 :         pointer& _Mylast  = _My_data._Mylast;
; 1237 : 
; 1238 :         const auto _Oldsize          = static_cast<size_type>(_Mylast - _Myfirst);

  00020	2b 0e		 sub	 ecx, DWORD PTR [esi]
  00022	c1 f9 02	 sar	 ecx, 2
  00025	89 4d fc	 mov	 DWORD PTR __Oldsize$1$[ebp], ecx

; 1559 :         return static_cast<size_type>(_My_data._Myend - _My_data._Myfirst);

  00028	8b 4e 08	 mov	 ecx, DWORD PTR [esi+8]
  0002b	2b 0e		 sub	 ecx, DWORD PTR [esi]
  0002d	c1 f9 02	 sar	 ecx, 2

; 1688 :         if (_Oldcapacity > _Max - _Oldcapacity / 2) {

  00030	8b d1		 mov	 edx, ecx
  00032	d1 ea		 shr	 edx, 1
  00034	2b c2		 sub	 eax, edx
  00036	3b c8		 cmp	 ecx, eax
  00038	76 12		 jbe	 SHORT $LN10@Resize_rea

; 1689 :             return _Max; // geometric growth would overflow

  0003a	bf fc ff ff ff	 mov	 edi, -4			; fffffffcH
; File C:\Program Files (x86)\Microsoft Visual Studio\2019\Professional\VC\Tools\MSVC\14.29.30133\include\xmemory

; 238  :             return _Allocate_manually_vector_aligned<_Traits>(_Bytes);

  0003f	57		 push	 edi
  00040	e8 00 00 00 00	 call	 ??$_Allocate_manually_vector_aligned@U_Default_allocate_traits@std@@@std@@YAPAXI@Z ; std::_Allocate_manually_vector_aligned<std::_Default_allocate_traits>
  00045	83 c4 04	 add	 esp, 4
  00048	8b d8		 mov	 ebx, eax
  0004a	eb 42		 jmp	 SHORT $LN21@Resize_rea
$LN10@Resize_rea:
; File C:\Program Files (x86)\Microsoft Visual Studio\2019\Professional\VC\Tools\MSVC\14.29.30133\include\vector

; 1692 :         const size_type _Geometric = _Oldcapacity + _Oldcapacity / 2;

  0004c	8d 3c 0a	 lea	 edi, DWORD PTR [edx+ecx]

; 1693 : 
; 1694 :         if (_Geometric < _Newsize) {

  0004f	3b fb		 cmp	 edi, ebx
  00051	73 1a		 jae	 SHORT $LN11@Resize_rea

; 1695 :             return _Newsize; // geometric growth would be insufficient

  00053	8b fb		 mov	 edi, ebx
$LN18@Resize_rea:
; File C:\Program Files (x86)\Microsoft Visual Studio\2019\Professional\VC\Tools\MSVC\14.29.30133\include\xmemory

; 69   :     return _Count * _Ty_size;

  00055	c1 e7 02	 shl	 edi, 2

; 237  :         if (_Bytes >= _Big_allocation_threshold) { // boost the alignment of big allocations to help autovectorization

  00058	81 ff 00 10 00
	00		 cmp	 edi, 4096		; 00001000H
  0005e	72 1b		 jb	 SHORT $LN22@Resize_rea

; 238  :             return _Allocate_manually_vector_aligned<_Traits>(_Bytes);

  00060	57		 push	 edi
  00061	e8 00 00 00 00	 call	 ??$_Allocate_manually_vector_aligned@U_Default_allocate_traits@std@@@std@@YAPAXI@Z ; std::_Allocate_manually_vector_aligned<std::_Default_allocate_traits>
  00066	83 c4 04	 add	 esp, 4
  00069	8b d8		 mov	 ebx, eax
  0006b	eb 21		 jmp	 SHORT $LN21@Resize_rea
$LN11@Resize_rea:

; 64   :         if (_Count > _Max_possible) {

  0006d	81 ff ff ff ff
	3f		 cmp	 edi, 1073741823		; 3fffffffH
  00073	0f 87 8e 00 00
	00		 ja	 $LN83@Resize_rea
  00079	eb da		 jmp	 SHORT $LN18@Resize_rea
$LN22@Resize_rea:

; 243  :     if (_Bytes != 0) {

  0007b	85 ff		 test	 edi, edi
  0007d	74 0d		 je	 SHORT $LN23@Resize_rea

; 85   :         return ::operator new(_Bytes);

  0007f	57		 push	 edi
  00080	e8 00 00 00 00	 call	 ??2@YAPAXI@Z		; operator new
  00085	83 c4 04	 add	 esp, 4

; 244  :         return _Traits::_Allocate(_Bytes);

  00088	8b d8		 mov	 ebx, eax
  0008a	eb 02		 jmp	 SHORT $LN21@Resize_rea
$LN23@Resize_rea:

; 245  :     }
; 246  : 
; 247  :     return nullptr;

  0008c	33 db		 xor	 ebx, ebx
$LN21@Resize_rea:
; File C:\Program Files (x86)\Microsoft Visual Studio\2019\Professional\VC\Tools\MSVC\14.29.30133\include\vector

; 1242 :         const pointer _Appended_first = _Newvec + _Oldsize;

  0008e	8b 55 fc	 mov	 edx, DWORD PTR __Oldsize$1$[ebp]
; File C:\Program Files (x86)\Microsoft Visual Studio\2019\Professional\VC\Tools\MSVC\14.29.30133\include\xmemory

; 1824 :             _Zero_range(_PFirst, _PFirst + _Count);

  00091	8b 45 08	 mov	 eax, DWORD PTR __Newsize$[ebp]
  00094	2b c2		 sub	 eax, edx
; File C:\Program Files (x86)\Microsoft Visual Studio\2019\Professional\VC\Tools\MSVC\14.29.30133\include\vector

; 1242 :         const pointer _Appended_first = _Newvec + _Oldsize;

  00096	8d 0c 93	 lea	 ecx, DWORD PTR [ebx+edx*4]
; File C:\Program Files (x86)\Microsoft Visual Studio\2019\Professional\VC\Tools\MSVC\14.29.30133\include\xmemory

; 1824 :             _Zero_range(_PFirst, _PFirst + _Count);

  00099	8d 04 81	 lea	 eax, DWORD PTR [ecx+eax*4]
  0009c	50		 push	 eax
  0009d	51		 push	 ecx
  0009e	e8 00 00 00 00	 call	 ??$_Zero_range@PAK@std@@YAPAKQAK0@Z ; std::_Zero_range<unsigned long *>

; 1725 :             _Copy_memmove(_UFirst, _ULast, _Unfancy(_Dest));

  000a3	53		 push	 ebx
  000a4	ff 76 04	 push	 DWORD PTR [esi+4]
  000a7	ff 36		 push	 DWORD PTR [esi]
  000a9	e8 00 00 00 00	 call	 ??$_Copy_memmove@PAKPAK@std@@YAPAKPAK00@Z ; std::_Copy_memmove<unsigned long *,unsigned long *>
; File C:\Program Files (x86)\Microsoft Visual Studio\2019\Professional\VC\Tools\MSVC\14.29.30133\include\vector

; 1745 :         if (_Myfirst) { // destroy and deallocate old array

  000ae	8b 06		 mov	 eax, DWORD PTR [esi]
; File C:\Program Files (x86)\Microsoft Visual Studio\2019\Professional\VC\Tools\MSVC\14.29.30133\include\xmemory

; 1725 :             _Copy_memmove(_UFirst, _ULast, _Unfancy(_Dest));

  000b0	83 c4 14	 add	 esp, 20			; 00000014H
; File C:\Program Files (x86)\Microsoft Visual Studio\2019\Professional\VC\Tools\MSVC\14.29.30133\include\vector

; 1745 :         if (_Myfirst) { // destroy and deallocate old array

  000b3	85 c0		 test	 eax, eax
  000b5	74 2c		 je	 SHORT $LN65@Resize_rea

; 1746 :             _Destroy(_Myfirst, _Mylast);
; 1747 :             _Getal().deallocate(_Myfirst, static_cast<size_type>(_Myend - _Myfirst));

  000b7	8b 4e 08	 mov	 ecx, DWORD PTR [esi+8]
  000ba	2b c8		 sub	 ecx, eax
; File C:\Program Files (x86)\Microsoft Visual Studio\2019\Professional\VC\Tools\MSVC\14.29.30133\include\xmemory

; 835  :         _Deallocate<_New_alignof<_Ty>>(_Ptr, sizeof(_Ty) * _Count);

  000bc	83 e1 fc	 and	 ecx, -4			; fffffffcH

; 260  :         if (_Bytes >= _Big_allocation_threshold) { // boost the alignment of big allocations to help autovectorization

  000bf	81 f9 00 10 00
	00		 cmp	 ecx, 4096		; 00001000H
  000c5	72 12		 jb	 SHORT $LN75@Resize_rea

; 158  :     const uintptr_t _Ptr_container   = _Ptr_user[-1];

  000c7	8b 50 fc	 mov	 edx, DWORD PTR [eax-4]
  000ca	83 c1 23	 add	 ecx, 35			; 00000023H

; 159  : 
; 160  :     // If the following asserts, it likely means that we are performing
; 161  :     // an aligned delete on memory coming from an unaligned allocation.
; 162  :     _STL_ASSERT(_Ptr_user[-2] == _Big_allocation_sentinel, "invalid argument");
; 163  : 
; 164  :     // Extra paranoia on aligned allocation/deallocation; ensure _Ptr_container is
; 165  :     // in range [_Min_back_shift, _Non_user_size]
; 166  : #ifdef _DEBUG
; 167  :     constexpr uintptr_t _Min_back_shift = 2 * sizeof(void*);
; 168  : #else // ^^^ _DEBUG ^^^ // vvv !_DEBUG vvv
; 169  :     constexpr uintptr_t _Min_back_shift = sizeof(void*);
; 170  : #endif // _DEBUG
; 171  :     const uintptr_t _Back_shift = reinterpret_cast<uintptr_t>(_Ptr) - _Ptr_container;

  000cd	2b c2		 sub	 eax, edx

; 172  :     _STL_VERIFY(_Back_shift >= _Min_back_shift && _Back_shift <= _Non_user_size, "invalid argument");

  000cf	83 c0 fc	 add	 eax, -4			; fffffffcH
  000d2	83 f8 1f	 cmp	 eax, 31			; 0000001fH
  000d5	77 26		 ja	 SHORT $LN72@Resize_rea

; 173  :     _Ptr = reinterpret_cast<void*>(_Ptr_container);

  000d7	8b c2		 mov	 eax, edx
$LN75@Resize_rea:

; 264  :         ::operator delete(_Ptr, _Bytes);

  000d9	51		 push	 ecx
  000da	50		 push	 eax
  000db	e8 00 00 00 00	 call	 ??3@YAXPAXI@Z		; operator delete
  000e0	83 c4 08	 add	 esp, 8
$LN65@Resize_rea:
; File C:\Program Files (x86)\Microsoft Visual Studio\2019\Professional\VC\Tools\MSVC\14.29.30133\include\vector

; 1751 :         _Mylast  = _Newvec + _Newsize;

  000e3	8b 45 08	 mov	 eax, DWORD PTR __Newsize$[ebp]
  000e6	89 1e		 mov	 DWORD PTR [esi], ebx
  000e8	8d 04 83	 lea	 eax, DWORD PTR [ebx+eax*4]
  000eb	89 46 04	 mov	 DWORD PTR [esi+4], eax

; 1752 :         _Myend   = _Newvec + _Newcapacity;

  000ee	8d 04 1f	 lea	 eax, DWORD PTR [edi+ebx]
  000f1	5f		 pop	 edi
  000f2	89 46 08	 mov	 DWORD PTR [esi+8], eax
  000f5	5e		 pop	 esi
  000f6	5b		 pop	 ebx

; 1255 :     }

  000f7	8b e5		 mov	 esp, ebp
  000f9	5d		 pop	 ebp
  000fa	c2 08 00	 ret	 8
$LN72@Resize_rea:
; File C:\Program Files (x86)\Microsoft Visual Studio\2019\Professional\VC\Tools\MSVC\14.29.30133\include\xmemory

; 172  :     _STL_VERIFY(_Back_shift >= _Min_back_shift && _Back_shift <= _Non_user_size, "invalid argument");

  000fd	e8 00 00 00 00	 call	 __invalid_parameter_noinfo_noreturn
$LN82@Resize_rea:
; File C:\Program Files (x86)\Microsoft Visual Studio\2019\Professional\VC\Tools\MSVC\14.29.30133\include\vector

; 1231 :             _Xlength();

  00102	e8 00 00 00 00	 call	 ?_Xlength@?$vector@KV?$allocator@K@std@@@std@@CAXXZ ; std::vector<unsigned long,std::allocator<unsigned long> >::_Xlength
$LN83@Resize_rea:
; File C:\Program Files (x86)\Microsoft Visual Studio\2019\Professional\VC\Tools\MSVC\14.29.30133\include\xmemory

; 65   :             _Throw_bad_array_new_length(); // multiply overflow

  00107	e8 00 00 00 00	 call	 ?_Throw_bad_array_new_length@std@@YAXXZ ; std::_Throw_bad_array_new_length
$LN80@Resize_rea:
  0010c	cc		 int	 3
??$_Resize_reallocate@U_Value_init_tag@std@@@?$vector@KV?$allocator@K@std@@@std@@AAEXIABU_Value_init_tag@1@@Z ENDP ; std::vector<unsigned long,std::allocator<unsigned long> >::_Resize_reallocate<std::_Value_init_tag>
_TEXT	ENDS
; Function compile flags: /Ogtp
; File C:\Program Files (x86)\Microsoft Visual Studio\2019\Professional\VC\Tools\MSVC\14.29.30133\include\xmemory
;	COMDAT ??1?$_Alloc_construct_ptr@V?$allocator@U?$_Tree_node@U?$pair@$$CBGV?$vector@USMotion@CRaceData@@V?$allocator@USMotion@CRaceData@@@std@@@std@@@std@@PAX@std@@@std@@@std@@QAE@XZ
_TEXT	SEGMENT
??1?$_Alloc_construct_ptr@V?$allocator@U?$_Tree_node@U?$pair@$$CBGV?$vector@USMotion@CRaceData@@V?$allocator@USMotion@CRaceData@@@std@@@std@@@std@@PAX@std@@@std@@@std@@QAE@XZ PROC ; std::_Alloc_construct_ptr<std::allocator<std::_Tree_node<std::pair<unsigned short const ,std::vector<CRaceData::SMotion,std::allocator<CRaceData::SMotion> > >,void *> > >::~_Alloc_construct_ptr<std::allocator<std::_Tree_node<std::pair<unsigned short const ,std::vector<CRaceData::SMotion,std::allocator<CRaceData::SMotion> > >,void *> > >, COMDAT
; _this$ = ecx

; 1024 :         if (_Ptr) {

  00000	8b 41 04	 mov	 eax, DWORD PTR [ecx+4]
  00003	85 c0		 test	 eax, eax
  00005	74 0b		 je	 SHORT $LN8@Alloc_cons

; 264  :         ::operator delete(_Ptr, _Bytes);

  00007	6a 20		 push	 32			; 00000020H
  00009	50		 push	 eax
  0000a	e8 00 00 00 00	 call	 ??3@YAXPAXI@Z		; operator delete
  0000f	83 c4 08	 add	 esp, 8
$LN8@Alloc_cons:

; 1025 :             _Al.deallocate(_Ptr, 1);
; 1026 :         }
; 1027 :     }

  00012	c3		 ret	 0
??1?$_Alloc_construct_ptr@V?$allocator@U?$_Tree_node@U?$pair@$$CBGV?$vector@USMotion@CRaceData@@V?$allocator@USMotion@CRaceData@@@std@@@std@@@std@@PAX@std@@@std@@@std@@QAE@XZ ENDP ; std::_Alloc_construct_ptr<std::allocator<std::_Tree_node<std::pair<unsigned short const ,std::vector<CRaceData::SMotion,std::allocator<CRaceData::SMotion> > >,void *> > >::~_Alloc_construct_ptr<std::allocator<std::_Tree_node<std::pair<unsigned short const ,std::vector<CRaceData::SMotion,std::allocator<CRaceData::SMotion> > >,void *> > >
_TEXT	ENDS
; Function compile flags: /Ogtp
; File C:\Program Files (x86)\Microsoft Visual Studio\2019\Professional\VC\Tools\MSVC\14.29.30133\include\xtree
; File C:\Program Files (x86)\Microsoft Visual Studio\2019\Professional\VC\Tools\MSVC\14.29.30133\include\xstddef
; File C:\Program Files (x86)\Microsoft Visual Studio\2019\Professional\VC\Tools\MSVC\14.29.30133\include\xtree
; File C:\Program Files (x86)\Microsoft Visual Studio\2019\Professional\VC\Tools\MSVC\14.29.30133\include\xstddef
; File C:\Program Files (x86)\Microsoft Visual Studio\2019\Professional\VC\Tools\MSVC\14.29.30133\include\xtree
;	COMDAT ??$_Find_lower_bound@G@?$_Tree@V?$_Tmap_traits@GV?$vector@USMotion@CRaceData@@V?$allocator@USMotion@CRaceData@@@std@@@std@@U?$less@G@2@V?$allocator@U?$pair@$$CBGV?$vector@USMotion@CRaceData@@V?$allocator@USMotion@CRaceData@@@std@@@std@@@std@@@2@$0A@@std@@@std@@IBE?AU?$_Tree_find_result@PAU?$_Tree_node@U?$pair@$$CBGV?$vector@USMotion@CRaceData@@V?$allocator@USMotion@CRaceData@@@std@@@std@@@std@@PAX@std@@@1@ABG@Z
_TEXT	SEGMENT
___$ReturnUdt$ = 8					; size = 4
__Keyval$ = 12						; size = 4
??$_Find_lower_bound@G@?$_Tree@V?$_Tmap_traits@GV?$vector@USMotion@CRaceData@@V?$allocator@USMotion@CRaceData@@@std@@@std@@U?$less@G@2@V?$allocator@U?$pair@$$CBGV?$vector@USMotion@CRaceData@@V?$allocator@USMotion@CRaceData@@@std@@@std@@@std@@@2@$0A@@std@@@std@@IBE?AU?$_Tree_find_result@PAU?$_Tree_node@U?$pair@$$CBGV?$vector@USMotion@CRaceData@@V?$allocator@USMotion@CRaceData@@@std@@@std@@@std@@PAX@std@@@1@ABG@Z PROC ; std::_Tree<std::_Tmap_traits<unsigned short,std::vector<CRaceData::SMotion,std::allocator<CRaceData::SMotion> >,std::less<unsigned short>,std::allocator<std::pair<unsigned short const ,std::vector<CRaceData::SMotion,std::allocator<CRaceData::SMotion> > > >,0> >::_Find_lower_bound<unsigned short>, COMDAT
; _this$ = ecx

; 1603 :     _Tree_find_result<_Nodeptr> _Find_lower_bound(const _Keyty& _Keyval) const {

  00000	55		 push	 ebp
  00001	8b ec		 mov	 ebp, esp

; 1604 :         const auto _Scary = _Get_scary();
; 1605 :         _Tree_find_result<_Nodeptr> _Result{{_Scary->_Myhead->_Parent, _Tree_child::_Right}, _Scary->_Myhead};

  00003	8b 09		 mov	 ecx, DWORD PTR [ecx]
  00005	8b 55 08	 mov	 edx, DWORD PTR ___$ReturnUdt$[ebp]
  00008	8b 41 04	 mov	 eax, DWORD PTR [ecx+4]
  0000b	89 02		 mov	 DWORD PTR [edx], eax
  0000d	c7 42 04 00 00
	00 00		 mov	 DWORD PTR [edx+4], 0
  00014	89 4a 08	 mov	 DWORD PTR [edx+8], ecx

; 1606 :         _Nodeptr _Trynode = _Result._Location._Parent;
; 1607 :         while (!_Trynode->_Isnil) {

  00017	80 78 0d 00	 cmp	 BYTE PTR [eax+13], 0
  0001b	75 2a		 jne	 SHORT $LN12@Find_lower
; File C:\Program Files (x86)\Microsoft Visual Studio\2019\Professional\VC\Tools\MSVC\14.29.30133\include\xstddef

; 127  :         return _Left < _Right;

  0001d	8b 4d 0c	 mov	 ecx, DWORD PTR __Keyval$[ebp]
  00020	56		 push	 esi
  00021	0f b7 31	 movzx	 esi, WORD PTR [ecx]
$LL2@Find_lower:
; File C:\Program Files (x86)\Microsoft Visual Studio\2019\Professional\VC\Tools\MSVC\14.29.30133\include\xtree

; 1608 :             _Result._Location._Parent = _Trynode;

  00024	89 02		 mov	 DWORD PTR [edx], eax
; File C:\Program Files (x86)\Microsoft Visual Studio\2019\Professional\VC\Tools\MSVC\14.29.30133\include\xstddef

; 127  :         return _Left < _Right;

  00026	66 39 70 10	 cmp	 WORD PTR [eax+16], si
; File C:\Program Files (x86)\Microsoft Visual Studio\2019\Professional\VC\Tools\MSVC\14.29.30133\include\xtree

; 1609 :             if (_DEBUG_LT_PRED(_Getcomp(), _Traits::_Kfn(_Trynode->_Myval), _Keyval)) {

  0002a	73 07		 jae	 SHORT $LN4@Find_lower

; 1610 :                 _Result._Location._Child = _Tree_child::_Right;
; 1611 :                 _Trynode                 = _Trynode->_Right;

  0002c	8b 40 08	 mov	 eax, DWORD PTR [eax+8]
  0002f	33 c9		 xor	 ecx, ecx

; 1612 :             } else {

  00031	eb 0a		 jmp	 SHORT $LN5@Find_lower
$LN4@Find_lower:

; 1613 :                 _Result._Location._Child = _Tree_child::_Left;
; 1614 :                 _Result._Bound           = _Trynode;

  00033	89 42 08	 mov	 DWORD PTR [edx+8], eax

; 1615 :                 _Trynode                 = _Trynode->_Left;

  00036	b9 01 00 00 00	 mov	 ecx, 1
  0003b	8b 00		 mov	 eax, DWORD PTR [eax]
$LN5@Find_lower:

; 1606 :         _Nodeptr _Trynode = _Result._Location._Parent;
; 1607 :         while (!_Trynode->_Isnil) {

  0003d	89 4a 04	 mov	 DWORD PTR [edx+4], ecx
  00040	80 78 0d 00	 cmp	 BYTE PTR [eax+13], 0
  00044	74 de		 je	 SHORT $LL2@Find_lower

; 1616 :             }
; 1617 :         }
; 1618 : 
; 1619 :         return _Result;

  00046	5e		 pop	 esi
$LN12@Find_lower:

; 1620 :     }

  00047	8b c2		 mov	 eax, edx
  00049	5d		 pop	 ebp
  0004a	c2 08 00	 ret	 8
??$_Find_lower_bound@G@?$_Tree@V?$_Tmap_traits@GV?$vector@USMotion@CRaceData@@V?$allocator@USMotion@CRaceData@@@std@@@std@@U?$less@G@2@V?$allocator@U?$pair@$$CBGV?$vector@USMotion@CRaceData@@V?$allocator@USMotion@CRaceData@@@std@@@std@@@std@@@2@$0A@@std@@@std@@IBE?AU?$_Tree_find_result@PAU?$_Tree_node@U?$pair@$$CBGV?$vector@USMotion@CRaceData@@V?$allocator@USMotion@CRaceData@@@std@@@std@@@std@@PAX@std@@@1@ABG@Z ENDP ; std::_Tree<std::_Tmap_traits<unsigned short,std::vector<CRaceData::SMotion,std::allocator<CRaceData::SMotion> >,std::less<unsigned short>,std::allocator<std::pair<unsigned short const ,std::vector<CRaceData::SMotion,std::allocator<CRaceData::SMotion> > > >,0> >::_Find_lower_bound<unsigned short>
_TEXT	ENDS
; Function compile flags: /Ogtp
; File C:\Program Files (x86)\Microsoft Visual Studio\2019\Professional\VC\Tools\MSVC\14.29.30133\include\xtree
; File C:\Program Files (x86)\Microsoft Visual Studio\2019\Professional\VC\Tools\MSVC\14.29.30133\include\xstddef
; File C:\Program Files (x86)\Microsoft Visual Studio\2019\Professional\VC\Tools\MSVC\14.29.30133\include\xtree
; File C:\Program Files (x86)\Microsoft Visual Studio\2019\Professional\VC\Tools\MSVC\14.29.30133\include\xstddef
; File C:\Program Files (x86)\Microsoft Visual Studio\2019\Professional\VC\Tools\MSVC\14.29.30133\include\xtree
;	COMDAT ??$_Find_lower_bound@G@?$_Tree@V?$_Tmap_traits@GPAUSMotionModeData@CRaceData@@U?$less@G@std@@V?$allocator@U?$pair@$$CBGPAUSMotionModeData@CRaceData@@@std@@@4@$0A@@std@@@std@@IBE?AU?$_Tree_find_result@PAU?$_Tree_node@U?$pair@$$CBGPAUSMotionModeData@CRaceData@@@std@@PAX@std@@@1@ABG@Z
_TEXT	SEGMENT
___$ReturnUdt$ = 8					; size = 4
__Keyval$ = 12						; size = 4
??$_Find_lower_bound@G@?$_Tree@V?$_Tmap_traits@GPAUSMotionModeData@CRaceData@@U?$less@G@std@@V?$allocator@U?$pair@$$CBGPAUSMotionModeData@CRaceData@@@std@@@4@$0A@@std@@@std@@IBE?AU?$_Tree_find_result@PAU?$_Tree_node@U?$pair@$$CBGPAUSMotionModeData@CRaceData@@@std@@PAX@std@@@1@ABG@Z PROC ; std::_Tree<std::_Tmap_traits<unsigned short,CRaceData::SMotionModeData *,std::less<unsigned short>,std::allocator<std::pair<unsigned short const ,CRaceData::SMotionModeData *> >,0> >::_Find_lower_bound<unsigned short>, COMDAT
; _this$ = ecx

; 1603 :     _Tree_find_result<_Nodeptr> _Find_lower_bound(const _Keyty& _Keyval) const {

  00000	55		 push	 ebp
  00001	8b ec		 mov	 ebp, esp

; 1604 :         const auto _Scary = _Get_scary();
; 1605 :         _Tree_find_result<_Nodeptr> _Result{{_Scary->_Myhead->_Parent, _Tree_child::_Right}, _Scary->_Myhead};

  00003	8b 09		 mov	 ecx, DWORD PTR [ecx]
  00005	8b 55 08	 mov	 edx, DWORD PTR ___$ReturnUdt$[ebp]
  00008	8b 41 04	 mov	 eax, DWORD PTR [ecx+4]
  0000b	89 02		 mov	 DWORD PTR [edx], eax
  0000d	c7 42 04 00 00
	00 00		 mov	 DWORD PTR [edx+4], 0
  00014	89 4a 08	 mov	 DWORD PTR [edx+8], ecx

; 1606 :         _Nodeptr _Trynode = _Result._Location._Parent;
; 1607 :         while (!_Trynode->_Isnil) {

  00017	80 78 0d 00	 cmp	 BYTE PTR [eax+13], 0
  0001b	75 2a		 jne	 SHORT $LN12@Find_lower
; File C:\Program Files (x86)\Microsoft Visual Studio\2019\Professional\VC\Tools\MSVC\14.29.30133\include\xstddef

; 127  :         return _Left < _Right;

  0001d	8b 4d 0c	 mov	 ecx, DWORD PTR __Keyval$[ebp]
  00020	56		 push	 esi
  00021	0f b7 31	 movzx	 esi, WORD PTR [ecx]
$LL2@Find_lower:
; File C:\Program Files (x86)\Microsoft Visual Studio\2019\Professional\VC\Tools\MSVC\14.29.30133\include\xtree

; 1608 :             _Result._Location._Parent = _Trynode;

  00024	89 02		 mov	 DWORD PTR [edx], eax
; File C:\Program Files (x86)\Microsoft Visual Studio\2019\Professional\VC\Tools\MSVC\14.29.30133\include\xstddef

; 127  :         return _Left < _Right;

  00026	66 39 70 10	 cmp	 WORD PTR [eax+16], si
; File C:\Program Files (x86)\Microsoft Visual Studio\2019\Professional\VC\Tools\MSVC\14.29.30133\include\xtree

; 1609 :             if (_DEBUG_LT_PRED(_Getcomp(), _Traits::_Kfn(_Trynode->_Myval), _Keyval)) {

  0002a	73 07		 jae	 SHORT $LN4@Find_lower

; 1610 :                 _Result._Location._Child = _Tree_child::_Right;
; 1611 :                 _Trynode                 = _Trynode->_Right;

  0002c	8b 40 08	 mov	 eax, DWORD PTR [eax+8]
  0002f	33 c9		 xor	 ecx, ecx

; 1612 :             } else {

  00031	eb 0a		 jmp	 SHORT $LN5@Find_lower
$LN4@Find_lower:

; 1613 :                 _Result._Location._Child = _Tree_child::_Left;
; 1614 :                 _Result._Bound           = _Trynode;

  00033	89 42 08	 mov	 DWORD PTR [edx+8], eax

; 1615 :                 _Trynode                 = _Trynode->_Left;

  00036	b9 01 00 00 00	 mov	 ecx, 1
  0003b	8b 00		 mov	 eax, DWORD PTR [eax]
$LN5@Find_lower:

; 1606 :         _Nodeptr _Trynode = _Result._Location._Parent;
; 1607 :         while (!_Trynode->_Isnil) {

  0003d	89 4a 04	 mov	 DWORD PTR [edx+4], ecx
  00040	80 78 0d 00	 cmp	 BYTE PTR [eax+13], 0
  00044	74 de		 je	 SHORT $LL2@Find_lower

; 1616 :             }
; 1617 :         }
; 1618 : 
; 1619 :         return _Result;

  00046	5e		 pop	 esi
$LN12@Find_lower:

; 1620 :     }

  00047	8b c2		 mov	 eax, edx
  00049	5d		 pop	 ebp
  0004a	c2 08 00	 ret	 8
??$_Find_lower_bound@G@?$_Tree@V?$_Tmap_traits@GPAUSMotionModeData@CRaceData@@U?$less@G@std@@V?$allocator@U?$pair@$$CBGPAUSMotionModeData@CRaceData@@@std@@@4@$0A@@std@@@std@@IBE?AU?$_Tree_find_result@PAU?$_Tree_node@U?$pair@$$CBGPAUSMotionModeData@CRaceData@@@std@@PAX@std@@@1@ABG@Z ENDP ; std::_Tree<std::_Tmap_traits<unsigned short,CRaceData::SMotionModeData *,std::less<unsigned short>,std::allocator<std::pair<unsigned short const ,CRaceData::SMotionModeData *> >,0> >::_Find_lower_bound<unsigned short>
_TEXT	ENDS
; Function compile flags: /Ogtp
; File C:\Program Files (x86)\Microsoft Visual Studio\2019\Professional\VC\Tools\MSVC\14.29.30133\include\xtree
; File C:\Program Files (x86)\Microsoft Visual Studio\2019\Professional\VC\Tools\MSVC\14.29.30133\include\xstddef
; File C:\Program Files (x86)\Microsoft Visual Studio\2019\Professional\VC\Tools\MSVC\14.29.30133\include\xtree
; File C:\Program Files (x86)\Microsoft Visual Studio\2019\Professional\VC\Tools\MSVC\14.29.30133\include\xstddef
; File C:\Program Files (x86)\Microsoft Visual Studio\2019\Professional\VC\Tools\MSVC\14.29.30133\include\xtree
;	COMDAT ??$_Find_lower_bound@K@?$_Tree@V?$_Tmap_traits@KUSComboAttackData@CRaceData@@U?$less@K@std@@V?$allocator@U?$pair@$$CBKUSComboAttackData@CRaceData@@@std@@@4@$0A@@std@@@std@@IBE?AU?$_Tree_find_result@PAU?$_Tree_node@U?$pair@$$CBKUSComboAttackData@CRaceData@@@std@@PAX@std@@@1@ABK@Z
_TEXT	SEGMENT
___$ReturnUdt$ = 8					; size = 4
__Keyval$ = 12						; size = 4
??$_Find_lower_bound@K@?$_Tree@V?$_Tmap_traits@KUSComboAttackData@CRaceData@@U?$less@K@std@@V?$allocator@U?$pair@$$CBKUSComboAttackData@CRaceData@@@std@@@4@$0A@@std@@@std@@IBE?AU?$_Tree_find_result@PAU?$_Tree_node@U?$pair@$$CBKUSComboAttackData@CRaceData@@@std@@PAX@std@@@1@ABK@Z PROC ; std::_Tree<std::_Tmap_traits<unsigned long,CRaceData::SComboAttackData,std::less<unsigned long>,std::allocator<std::pair<unsigned long const ,CRaceData::SComboAttackData> >,0> >::_Find_lower_bound<unsigned long>, COMDAT
; _this$ = ecx

; 1603 :     _Tree_find_result<_Nodeptr> _Find_lower_bound(const _Keyty& _Keyval) const {

  00000	55		 push	 ebp
  00001	8b ec		 mov	 ebp, esp

; 1604 :         const auto _Scary = _Get_scary();
; 1605 :         _Tree_find_result<_Nodeptr> _Result{{_Scary->_Myhead->_Parent, _Tree_child::_Right}, _Scary->_Myhead};

  00003	8b 09		 mov	 ecx, DWORD PTR [ecx]
  00005	8b 55 08	 mov	 edx, DWORD PTR ___$ReturnUdt$[ebp]
  00008	8b 41 04	 mov	 eax, DWORD PTR [ecx+4]
  0000b	89 02		 mov	 DWORD PTR [edx], eax
  0000d	c7 42 04 00 00
	00 00		 mov	 DWORD PTR [edx+4], 0
  00014	89 4a 08	 mov	 DWORD PTR [edx+8], ecx

; 1606 :         _Nodeptr _Trynode = _Result._Location._Parent;
; 1607 :         while (!_Trynode->_Isnil) {

  00017	80 78 0d 00	 cmp	 BYTE PTR [eax+13], 0
  0001b	75 28		 jne	 SHORT $LN12@Find_lower
; File C:\Program Files (x86)\Microsoft Visual Studio\2019\Professional\VC\Tools\MSVC\14.29.30133\include\xstddef

; 127  :         return _Left < _Right;

  0001d	8b 4d 0c	 mov	 ecx, DWORD PTR __Keyval$[ebp]
  00020	56		 push	 esi
  00021	8b 31		 mov	 esi, DWORD PTR [ecx]
$LL2@Find_lower:
; File C:\Program Files (x86)\Microsoft Visual Studio\2019\Professional\VC\Tools\MSVC\14.29.30133\include\xtree

; 1608 :             _Result._Location._Parent = _Trynode;

  00023	89 02		 mov	 DWORD PTR [edx], eax
; File C:\Program Files (x86)\Microsoft Visual Studio\2019\Professional\VC\Tools\MSVC\14.29.30133\include\xstddef

; 127  :         return _Left < _Right;

  00025	39 70 10	 cmp	 DWORD PTR [eax+16], esi
; File C:\Program Files (x86)\Microsoft Visual Studio\2019\Professional\VC\Tools\MSVC\14.29.30133\include\xtree

; 1609 :             if (_DEBUG_LT_PRED(_Getcomp(), _Traits::_Kfn(_Trynode->_Myval), _Keyval)) {

  00028	73 07		 jae	 SHORT $LN4@Find_lower

; 1610 :                 _Result._Location._Child = _Tree_child::_Right;
; 1611 :                 _Trynode                 = _Trynode->_Right;

  0002a	8b 40 08	 mov	 eax, DWORD PTR [eax+8]
  0002d	33 c9		 xor	 ecx, ecx

; 1612 :             } else {

  0002f	eb 0a		 jmp	 SHORT $LN5@Find_lower
$LN4@Find_lower:

; 1613 :                 _Result._Location._Child = _Tree_child::_Left;
; 1614 :                 _Result._Bound           = _Trynode;

  00031	89 42 08	 mov	 DWORD PTR [edx+8], eax

; 1615 :                 _Trynode                 = _Trynode->_Left;

  00034	b9 01 00 00 00	 mov	 ecx, 1
  00039	8b 00		 mov	 eax, DWORD PTR [eax]
$LN5@Find_lower:

; 1606 :         _Nodeptr _Trynode = _Result._Location._Parent;
; 1607 :         while (!_Trynode->_Isnil) {

  0003b	89 4a 04	 mov	 DWORD PTR [edx+4], ecx
  0003e	80 78 0d 00	 cmp	 BYTE PTR [eax+13], 0
  00042	74 df		 je	 SHORT $LL2@Find_lower

; 1616 :             }
; 1617 :         }
; 1618 : 
; 1619 :         return _Result;

  00044	5e		 pop	 esi
$LN12@Find_lower:

; 1620 :     }

  00045	8b c2		 mov	 eax, edx
  00047	5d		 pop	 ebp
  00048	c2 08 00	 ret	 8
??$_Find_lower_bound@K@?$_Tree@V?$_Tmap_traits@KUSComboAttackData@CRaceData@@U?$less@K@std@@V?$allocator@U?$pair@$$CBKUSComboAttackData@CRaceData@@@std@@@4@$0A@@std@@@std@@IBE?AU?$_Tree_find_result@PAU?$_Tree_node@U?$pair@$$CBKUSComboAttackData@CRaceData@@@std@@PAX@std@@@1@ABK@Z ENDP ; std::_Tree<std::_Tmap_traits<unsigned long,CRaceData::SComboAttackData,std::less<unsigned long>,std::allocator<std::pair<unsigned long const ,CRaceData::SComboAttackData> >,0> >::_Find_lower_bound<unsigned long>
_TEXT	ENDS
; Function compile flags: /Ogtp
; File C:\Program Files (x86)\Microsoft Visual Studio\2019\Professional\VC\Tools\MSVC\14.29.30133\include\xtree
; File C:\Program Files (x86)\Microsoft Visual Studio\2019\Professional\VC\Tools\MSVC\14.29.30133\include\xstddef
; File C:\Program Files (x86)\Microsoft Visual Studio\2019\Professional\VC\Tools\MSVC\14.29.30133\include\xtree
; File C:\Program Files (x86)\Microsoft Visual Studio\2019\Professional\VC\Tools\MSVC\14.29.30133\include\xstddef
; File C:\Program Files (x86)\Microsoft Visual Studio\2019\Professional\VC\Tools\MSVC\14.29.30133\include\xtree
;	COMDAT ??$_Find_lower_bound@K@?$_Tree@V?$_Tmap_traits@KKU?$less@K@std@@V?$allocator@U?$pair@$$CBKK@std@@@2@$0A@@std@@@std@@IBE?AU?$_Tree_find_result@PAU?$_Tree_node@U?$pair@$$CBKK@std@@PAX@std@@@1@ABK@Z
_TEXT	SEGMENT
___$ReturnUdt$ = 8					; size = 4
__Keyval$ = 12						; size = 4
??$_Find_lower_bound@K@?$_Tree@V?$_Tmap_traits@KKU?$less@K@std@@V?$allocator@U?$pair@$$CBKK@std@@@2@$0A@@std@@@std@@IBE?AU?$_Tree_find_result@PAU?$_Tree_node@U?$pair@$$CBKK@std@@PAX@std@@@1@ABK@Z PROC ; std::_Tree<std::_Tmap_traits<unsigned long,unsigned long,std::less<unsigned long>,std::allocator<std::pair<unsigned long const ,unsigned long> >,0> >::_Find_lower_bound<unsigned long>, COMDAT
; _this$ = ecx

; 1603 :     _Tree_find_result<_Nodeptr> _Find_lower_bound(const _Keyty& _Keyval) const {

  00000	55		 push	 ebp
  00001	8b ec		 mov	 ebp, esp

; 1604 :         const auto _Scary = _Get_scary();
; 1605 :         _Tree_find_result<_Nodeptr> _Result{{_Scary->_Myhead->_Parent, _Tree_child::_Right}, _Scary->_Myhead};

  00003	8b 09		 mov	 ecx, DWORD PTR [ecx]
  00005	8b 55 08	 mov	 edx, DWORD PTR ___$ReturnUdt$[ebp]
  00008	8b 41 04	 mov	 eax, DWORD PTR [ecx+4]
  0000b	89 02		 mov	 DWORD PTR [edx], eax
  0000d	c7 42 04 00 00
	00 00		 mov	 DWORD PTR [edx+4], 0
  00014	89 4a 08	 mov	 DWORD PTR [edx+8], ecx

; 1606 :         _Nodeptr _Trynode = _Result._Location._Parent;
; 1607 :         while (!_Trynode->_Isnil) {

  00017	80 78 0d 00	 cmp	 BYTE PTR [eax+13], 0
  0001b	75 28		 jne	 SHORT $LN12@Find_lower
; File C:\Program Files (x86)\Microsoft Visual Studio\2019\Professional\VC\Tools\MSVC\14.29.30133\include\xstddef

; 127  :         return _Left < _Right;

  0001d	8b 4d 0c	 mov	 ecx, DWORD PTR __Keyval$[ebp]
  00020	56		 push	 esi
  00021	8b 31		 mov	 esi, DWORD PTR [ecx]
$LL2@Find_lower:
; File C:\Program Files (x86)\Microsoft Visual Studio\2019\Professional\VC\Tools\MSVC\14.29.30133\include\xtree

; 1608 :             _Result._Location._Parent = _Trynode;

  00023	89 02		 mov	 DWORD PTR [edx], eax
; File C:\Program Files (x86)\Microsoft Visual Studio\2019\Professional\VC\Tools\MSVC\14.29.30133\include\xstddef

; 127  :         return _Left < _Right;

  00025	39 70 10	 cmp	 DWORD PTR [eax+16], esi
; File C:\Program Files (x86)\Microsoft Visual Studio\2019\Professional\VC\Tools\MSVC\14.29.30133\include\xtree

; 1609 :             if (_DEBUG_LT_PRED(_Getcomp(), _Traits::_Kfn(_Trynode->_Myval), _Keyval)) {

  00028	73 07		 jae	 SHORT $LN4@Find_lower

; 1610 :                 _Result._Location._Child = _Tree_child::_Right;
; 1611 :                 _Trynode                 = _Trynode->_Right;

  0002a	8b 40 08	 mov	 eax, DWORD PTR [eax+8]
  0002d	33 c9		 xor	 ecx, ecx

; 1612 :             } else {

  0002f	eb 0a		 jmp	 SHORT $LN5@Find_lower
$LN4@Find_lower:

; 1613 :                 _Result._Location._Child = _Tree_child::_Left;
; 1614 :                 _Result._Bound           = _Trynode;

  00031	89 42 08	 mov	 DWORD PTR [edx+8], eax

; 1615 :                 _Trynode                 = _Trynode->_Left;

  00034	b9 01 00 00 00	 mov	 ecx, 1
  00039	8b 00		 mov	 eax, DWORD PTR [eax]
$LN5@Find_lower:

; 1606 :         _Nodeptr _Trynode = _Result._Location._Parent;
; 1607 :         while (!_Trynode->_Isnil) {

  0003b	89 4a 04	 mov	 DWORD PTR [edx+4], ecx
  0003e	80 78 0d 00	 cmp	 BYTE PTR [eax+13], 0
  00042	74 df		 je	 SHORT $LL2@Find_lower

; 1616 :             }
; 1617 :         }
; 1618 : 
; 1619 :         return _Result;

  00044	5e		 pop	 esi
$LN12@Find_lower:

; 1620 :     }

  00045	8b c2		 mov	 eax, edx
  00047	5d		 pop	 ebp
  00048	c2 08 00	 ret	 8
??$_Find_lower_bound@K@?$_Tree@V?$_Tmap_traits@KKU?$less@K@std@@V?$allocator@U?$pair@$$CBKK@std@@@2@$0A@@std@@@std@@IBE?AU?$_Tree_find_result@PAU?$_Tree_node@U?$pair@$$CBKK@std@@PAX@std@@@1@ABK@Z ENDP ; std::_Tree<std::_Tmap_traits<unsigned long,unsigned long,std::less<unsigned long>,std::allocator<std::pair<unsigned long const ,unsigned long> >,0> >::_Find_lower_bound<unsigned long>
_TEXT	ENDS
; Function compile flags: /Ogtp
; File C:\Program Files (x86)\Microsoft Visual Studio\2019\Professional\VC\Tools\MSVC\14.29.30133\include\xmemory
;	COMDAT ??1?$_Alloc_construct_ptr@V?$allocator@U?$_Tree_node@U?$pair@$$CBKUSHair@CRaceData@@@std@@PAX@std@@@std@@@std@@QAE@XZ
_TEXT	SEGMENT
??1?$_Alloc_construct_ptr@V?$allocator@U?$_Tree_node@U?$pair@$$CBKUSHair@CRaceData@@@std@@PAX@std@@@std@@@std@@QAE@XZ PROC ; std::_Alloc_construct_ptr<std::allocator<std::_Tree_node<std::pair<unsigned long const ,CRaceData::SHair>,void *> > >::~_Alloc_construct_ptr<std::allocator<std::_Tree_node<std::pair<unsigned long const ,CRaceData::SHair>,void *> > >, COMDAT
; _this$ = ecx

; 1024 :         if (_Ptr) {

  00000	8b 41 04	 mov	 eax, DWORD PTR [ecx+4]
  00003	85 c0		 test	 eax, eax
  00005	74 0b		 je	 SHORT $LN8@Alloc_cons

; 264  :         ::operator delete(_Ptr, _Bytes);

  00007	6a 38		 push	 56			; 00000038H
  00009	50		 push	 eax
  0000a	e8 00 00 00 00	 call	 ??3@YAXPAXI@Z		; operator delete
  0000f	83 c4 08	 add	 esp, 8
$LN8@Alloc_cons:

; 1025 :             _Al.deallocate(_Ptr, 1);
; 1026 :         }
; 1027 :     }

  00012	c3		 ret	 0
??1?$_Alloc_construct_ptr@V?$allocator@U?$_Tree_node@U?$pair@$$CBKUSHair@CRaceData@@@std@@PAX@std@@@std@@@std@@QAE@XZ ENDP ; std::_Alloc_construct_ptr<std::allocator<std::_Tree_node<std::pair<unsigned long const ,CRaceData::SHair>,void *> > >::~_Alloc_construct_ptr<std::allocator<std::_Tree_node<std::pair<unsigned long const ,CRaceData::SHair>,void *> > >
_TEXT	ENDS
; Function compile flags: /Ogtp
; File C:\Program Files (x86)\Microsoft Visual Studio\2019\Professional\VC\Tools\MSVC\14.29.30133\include\xtree
; File C:\Program Files (x86)\Microsoft Visual Studio\2019\Professional\VC\Tools\MSVC\14.29.30133\include\xstddef
; File C:\Program Files (x86)\Microsoft Visual Studio\2019\Professional\VC\Tools\MSVC\14.29.30133\include\xtree
; File C:\Program Files (x86)\Microsoft Visual Studio\2019\Professional\VC\Tools\MSVC\14.29.30133\include\xstddef
; File C:\Program Files (x86)\Microsoft Visual Studio\2019\Professional\VC\Tools\MSVC\14.29.30133\include\xtree
;	COMDAT ??$_Find_lower_bound@K@?$_Tree@V?$_Tmap_traits@KUSHair@CRaceData@@U?$less@K@std@@V?$allocator@U?$pair@$$CBKUSHair@CRaceData@@@std@@@4@$0A@@std@@@std@@IBE?AU?$_Tree_find_result@PAU?$_Tree_node@U?$pair@$$CBKUSHair@CRaceData@@@std@@PAX@std@@@1@ABK@Z
_TEXT	SEGMENT
___$ReturnUdt$ = 8					; size = 4
__Keyval$ = 12						; size = 4
??$_Find_lower_bound@K@?$_Tree@V?$_Tmap_traits@KUSHair@CRaceData@@U?$less@K@std@@V?$allocator@U?$pair@$$CBKUSHair@CRaceData@@@std@@@4@$0A@@std@@@std@@IBE?AU?$_Tree_find_result@PAU?$_Tree_node@U?$pair@$$CBKUSHair@CRaceData@@@std@@PAX@std@@@1@ABK@Z PROC ; std::_Tree<std::_Tmap_traits<unsigned long,CRaceData::SHair,std::less<unsigned long>,std::allocator<std::pair<unsigned long const ,CRaceData::SHair> >,0> >::_Find_lower_bound<unsigned long>, COMDAT
; _this$ = ecx

; 1603 :     _Tree_find_result<_Nodeptr> _Find_lower_bound(const _Keyty& _Keyval) const {

  00000	55		 push	 ebp
  00001	8b ec		 mov	 ebp, esp

; 1604 :         const auto _Scary = _Get_scary();
; 1605 :         _Tree_find_result<_Nodeptr> _Result{{_Scary->_Myhead->_Parent, _Tree_child::_Right}, _Scary->_Myhead};

  00003	8b 09		 mov	 ecx, DWORD PTR [ecx]
  00005	8b 55 08	 mov	 edx, DWORD PTR ___$ReturnUdt$[ebp]
  00008	8b 41 04	 mov	 eax, DWORD PTR [ecx+4]
  0000b	89 02		 mov	 DWORD PTR [edx], eax
  0000d	c7 42 04 00 00
	00 00		 mov	 DWORD PTR [edx+4], 0
  00014	89 4a 08	 mov	 DWORD PTR [edx+8], ecx

; 1606 :         _Nodeptr _Trynode = _Result._Location._Parent;
; 1607 :         while (!_Trynode->_Isnil) {

  00017	80 78 0d 00	 cmp	 BYTE PTR [eax+13], 0
  0001b	75 28		 jne	 SHORT $LN12@Find_lower
; File C:\Program Files (x86)\Microsoft Visual Studio\2019\Professional\VC\Tools\MSVC\14.29.30133\include\xstddef

; 127  :         return _Left < _Right;

  0001d	8b 4d 0c	 mov	 ecx, DWORD PTR __Keyval$[ebp]
  00020	56		 push	 esi
  00021	8b 31		 mov	 esi, DWORD PTR [ecx]
$LL2@Find_lower:
; File C:\Program Files (x86)\Microsoft Visual Studio\2019\Professional\VC\Tools\MSVC\14.29.30133\include\xtree

; 1608 :             _Result._Location._Parent = _Trynode;

  00023	89 02		 mov	 DWORD PTR [edx], eax
; File C:\Program Files (x86)\Microsoft Visual Studio\2019\Professional\VC\Tools\MSVC\14.29.30133\include\xstddef

; 127  :         return _Left < _Right;

  00025	39 70 10	 cmp	 DWORD PTR [eax+16], esi
; File C:\Program Files (x86)\Microsoft Visual Studio\2019\Professional\VC\Tools\MSVC\14.29.30133\include\xtree

; 1609 :             if (_DEBUG_LT_PRED(_Getcomp(), _Traits::_Kfn(_Trynode->_Myval), _Keyval)) {

  00028	73 07		 jae	 SHORT $LN4@Find_lower

; 1610 :                 _Result._Location._Child = _Tree_child::_Right;
; 1611 :                 _Trynode                 = _Trynode->_Right;

  0002a	8b 40 08	 mov	 eax, DWORD PTR [eax+8]
  0002d	33 c9		 xor	 ecx, ecx

; 1612 :             } else {

  0002f	eb 0a		 jmp	 SHORT $LN5@Find_lower
$LN4@Find_lower:

; 1613 :                 _Result._Location._Child = _Tree_child::_Left;
; 1614 :                 _Result._Bound           = _Trynode;

  00031	89 42 08	 mov	 DWORD PTR [edx+8], eax

; 1615 :                 _Trynode                 = _Trynode->_Left;

  00034	b9 01 00 00 00	 mov	 ecx, 1
  00039	8b 00		 mov	 eax, DWORD PTR [eax]
$LN5@Find_lower:

; 1606 :         _Nodeptr _Trynode = _Result._Location._Parent;
; 1607 :         while (!_Trynode->_Isnil) {

  0003b	89 4a 04	 mov	 DWORD PTR [edx+4], ecx
  0003e	80 78 0d 00	 cmp	 BYTE PTR [eax+13], 0
  00042	74 df		 je	 SHORT $LL2@Find_lower

; 1616 :             }
; 1617 :         }
; 1618 : 
; 1619 :         return _Result;

  00044	5e		 pop	 esi
$LN12@Find_lower:

; 1620 :     }

  00045	8b c2		 mov	 eax, edx
  00047	5d		 pop	 ebp
  00048	c2 08 00	 ret	 8
??$_Find_lower_bound@K@?$_Tree@V?$_Tmap_traits@KUSHair@CRaceData@@U?$less@K@std@@V?$allocator@U?$pair@$$CBKUSHair@CRaceData@@@std@@@4@$0A@@std@@@std@@IBE?AU?$_Tree_find_result@PAU?$_Tree_node@U?$pair@$$CBKUSHair@CRaceData@@@std@@PAX@std@@@1@ABK@Z ENDP ; std::_Tree<std::_Tmap_traits<unsigned long,CRaceData::SHair,std::less<unsigned long>,std::allocator<std::pair<unsigned long const ,CRaceData::SHair> >,0> >::_Find_lower_bound<unsigned long>
_TEXT	ENDS
; Function compile flags: /Ogtp
; File C:\Program Files (x86)\Microsoft Visual Studio\2019\Professional\VC\Tools\MSVC\14.29.30133\include\xmemory
;	COMDAT ??1?$_Alloc_construct_ptr@V?$allocator@U?$_Tree_node@U?$pair@$$CBKUSShape@CRaceData@@@std@@PAX@std@@@std@@@std@@QAE@XZ
_TEXT	SEGMENT
??1?$_Alloc_construct_ptr@V?$allocator@U?$_Tree_node@U?$pair@$$CBKUSShape@CRaceData@@@std@@PAX@std@@@std@@@std@@QAE@XZ PROC ; std::_Alloc_construct_ptr<std::allocator<std::_Tree_node<std::pair<unsigned long const ,CRaceData::SShape>,void *> > >::~_Alloc_construct_ptr<std::allocator<std::_Tree_node<std::pair<unsigned long const ,CRaceData::SShape>,void *> > >, COMDAT
; _this$ = ecx

; 1024 :         if (_Ptr) {

  00000	8b 41 04	 mov	 eax, DWORD PTR [ecx+4]
  00003	85 c0		 test	 eax, eax
  00005	74 0b		 je	 SHORT $LN8@Alloc_cons

; 264  :         ::operator delete(_Ptr, _Bytes);

  00007	6a 38		 push	 56			; 00000038H
  00009	50		 push	 eax
  0000a	e8 00 00 00 00	 call	 ??3@YAXPAXI@Z		; operator delete
  0000f	83 c4 08	 add	 esp, 8
$LN8@Alloc_cons:

; 1025 :             _Al.deallocate(_Ptr, 1);
; 1026 :         }
; 1027 :     }

  00012	c3		 ret	 0
??1?$_Alloc_construct_ptr@V?$allocator@U?$_Tree_node@U?$pair@$$CBKUSShape@CRaceData@@@std@@PAX@std@@@std@@@std@@QAE@XZ ENDP ; std::_Alloc_construct_ptr<std::allocator<std::_Tree_node<std::pair<unsigned long const ,CRaceData::SShape>,void *> > >::~_Alloc_construct_ptr<std::allocator<std::_Tree_node<std::pair<unsigned long const ,CRaceData::SShape>,void *> > >
_TEXT	ENDS
; Function compile flags: /Ogtp
; File C:\Program Files (x86)\Microsoft Visual Studio\2019\Professional\VC\Tools\MSVC\14.29.30133\include\xtree
; File C:\Program Files (x86)\Microsoft Visual Studio\2019\Professional\VC\Tools\MSVC\14.29.30133\include\xstddef
; File C:\Program Files (x86)\Microsoft Visual Studio\2019\Professional\VC\Tools\MSVC\14.29.30133\include\xtree
; File C:\Program Files (x86)\Microsoft Visual Studio\2019\Professional\VC\Tools\MSVC\14.29.30133\include\xstddef
; File C:\Program Files (x86)\Microsoft Visual Studio\2019\Professional\VC\Tools\MSVC\14.29.30133\include\xtree
;	COMDAT ??$_Find_lower_bound@K@?$_Tree@V?$_Tmap_traits@KUSShape@CRaceData@@U?$less@K@std@@V?$allocator@U?$pair@$$CBKUSShape@CRaceData@@@std@@@4@$0A@@std@@@std@@IBE?AU?$_Tree_find_result@PAU?$_Tree_node@U?$pair@$$CBKUSShape@CRaceData@@@std@@PAX@std@@@1@ABK@Z
_TEXT	SEGMENT
___$ReturnUdt$ = 8					; size = 4
__Keyval$ = 12						; size = 4
??$_Find_lower_bound@K@?$_Tree@V?$_Tmap_traits@KUSShape@CRaceData@@U?$less@K@std@@V?$allocator@U?$pair@$$CBKUSShape@CRaceData@@@std@@@4@$0A@@std@@@std@@IBE?AU?$_Tree_find_result@PAU?$_Tree_node@U?$pair@$$CBKUSShape@CRaceData@@@std@@PAX@std@@@1@ABK@Z PROC ; std::_Tree<std::_Tmap_traits<unsigned long,CRaceData::SShape,std::less<unsigned long>,std::allocator<std::pair<unsigned long const ,CRaceData::SShape> >,0> >::_Find_lower_bound<unsigned long>, COMDAT
; _this$ = ecx

; 1603 :     _Tree_find_result<_Nodeptr> _Find_lower_bound(const _Keyty& _Keyval) const {

  00000	55		 push	 ebp
  00001	8b ec		 mov	 ebp, esp

; 1604 :         const auto _Scary = _Get_scary();
; 1605 :         _Tree_find_result<_Nodeptr> _Result{{_Scary->_Myhead->_Parent, _Tree_child::_Right}, _Scary->_Myhead};

  00003	8b 09		 mov	 ecx, DWORD PTR [ecx]
  00005	8b 55 08	 mov	 edx, DWORD PTR ___$ReturnUdt$[ebp]
  00008	8b 41 04	 mov	 eax, DWORD PTR [ecx+4]
  0000b	89 02		 mov	 DWORD PTR [edx], eax
  0000d	c7 42 04 00 00
	00 00		 mov	 DWORD PTR [edx+4], 0
  00014	89 4a 08	 mov	 DWORD PTR [edx+8], ecx

; 1606 :         _Nodeptr _Trynode = _Result._Location._Parent;
; 1607 :         while (!_Trynode->_Isnil) {

  00017	80 78 0d 00	 cmp	 BYTE PTR [eax+13], 0
  0001b	75 28		 jne	 SHORT $LN12@Find_lower
; File C:\Program Files (x86)\Microsoft Visual Studio\2019\Professional\VC\Tools\MSVC\14.29.30133\include\xstddef

; 127  :         return _Left < _Right;

  0001d	8b 4d 0c	 mov	 ecx, DWORD PTR __Keyval$[ebp]
  00020	56		 push	 esi
  00021	8b 31		 mov	 esi, DWORD PTR [ecx]
$LL2@Find_lower:
; File C:\Program Files (x86)\Microsoft Visual Studio\2019\Professional\VC\Tools\MSVC\14.29.30133\include\xtree

; 1608 :             _Result._Location._Parent = _Trynode;

  00023	89 02		 mov	 DWORD PTR [edx], eax
; File C:\Program Files (x86)\Microsoft Visual Studio\2019\Professional\VC\Tools\MSVC\14.29.30133\include\xstddef

; 127  :         return _Left < _Right;

  00025	39 70 10	 cmp	 DWORD PTR [eax+16], esi
; File C:\Program Files (x86)\Microsoft Visual Studio\2019\Professional\VC\Tools\MSVC\14.29.30133\include\xtree

; 1609 :             if (_DEBUG_LT_PRED(_Getcomp(), _Traits::_Kfn(_Trynode->_Myval), _Keyval)) {

  00028	73 07		 jae	 SHORT $LN4@Find_lower

; 1610 :                 _Result._Location._Child = _Tree_child::_Right;
; 1611 :                 _Trynode                 = _Trynode->_Right;

  0002a	8b 40 08	 mov	 eax, DWORD PTR [eax+8]
  0002d	33 c9		 xor	 ecx, ecx

; 1612 :             } else {

  0002f	eb 0a		 jmp	 SHORT $LN5@Find_lower
$LN4@Find_lower:

; 1613 :                 _Result._Location._Child = _Tree_child::_Left;
; 1614 :                 _Result._Bound           = _Trynode;

  00031	89 42 08	 mov	 DWORD PTR [edx+8], eax

; 1615 :                 _Trynode                 = _Trynode->_Left;

  00034	b9 01 00 00 00	 mov	 ecx, 1
  00039	8b 00		 mov	 eax, DWORD PTR [eax]
$LN5@Find_lower:

; 1606 :         _Nodeptr _Trynode = _Result._Location._Parent;
; 1607 :         while (!_Trynode->_Isnil) {

  0003b	89 4a 04	 mov	 DWORD PTR [edx+4], ecx
  0003e	80 78 0d 00	 cmp	 BYTE PTR [eax+13], 0
  00042	74 df		 je	 SHORT $LL2@Find_lower

; 1616 :             }
; 1617 :         }
; 1618 : 
; 1619 :         return _Result;

  00044	5e		 pop	 esi
$LN12@Find_lower:

; 1620 :     }

  00045	8b c2		 mov	 eax, edx
  00047	5d		 pop	 ebp
  00048	c2 08 00	 ret	 8
??$_Find_lower_bound@K@?$_Tree@V?$_Tmap_traits@KUSShape@CRaceData@@U?$less@K@std@@V?$allocator@U?$pair@$$CBKUSShape@CRaceData@@@std@@@4@$0A@@std@@@std@@IBE?AU?$_Tree_find_result@PAU?$_Tree_node@U?$pair@$$CBKUSShape@CRaceData@@@std@@PAX@std@@@1@ABK@Z ENDP ; std::_Tree<std::_Tmap_traits<unsigned long,CRaceData::SShape,std::less<unsigned long>,std::allocator<std::pair<unsigned long const ,CRaceData::SShape> >,0> >::_Find_lower_bound<unsigned long>
_TEXT	ENDS
; Function compile flags: /Ogtp
;	COMDAT ??__F?ms_kPool@?$CPooledObject@VCRotationDecorator@NEffectUpdateDecorator@@@@1V?$CDynamicPoolEx@VCRotationDecorator@NEffectUpdateDecorator@@@@A@@YAXXZ
text$yd	SEGMENT
??__F?ms_kPool@?$CPooledObject@VCRotationDecorator@NEffectUpdateDecorator@@@@1V?$CDynamicPoolEx@VCRotationDecorator@NEffectUpdateDecorator@@@@A@@YAXXZ PROC ; `dynamic atexit destructor for 'CPooledObject<NEffectUpdateDecorator::CRotationDecorator>::ms_kPool'', COMDAT
  00000	b9 00 00 00 00	 mov	 ecx, OFFSET ?ms_kPool@?$CPooledObject@VCRotationDecorator@NEffectUpdateDecorator@@@@1V?$CDynamicPoolEx@VCRotationDecorator@NEffectUpdateDecorator@@@@A ; CPooledObject<NEffectUpdateDecorator::CRotationDecorator>::ms_kPool
  00005	e9 00 00 00 00	 jmp	 ??1?$CDynamicPoolEx@VCRotationDecorator@NEffectUpdateDecorator@@@@UAE@XZ ; CDynamicPoolEx<NEffectUpdateDecorator::CRotationDecorator>::~CDynamicPoolEx<NEffectUpdateDecorator::CRotationDecorator>
??__F?ms_kPool@?$CPooledObject@VCRotationDecorator@NEffectUpdateDecorator@@@@1V?$CDynamicPoolEx@VCRotationDecorator@NEffectUpdateDecorator@@@@A@@YAXXZ ENDP ; `dynamic atexit destructor for 'CPooledObject<NEffectUpdateDecorator::CRotationDecorator>::ms_kPool''
text$yd	ENDS
; Function compile flags: /Ogtp
; File C:\Users\murat\Desktop\Siveps2-1-99-Project\source\client\Client\eterLib\Pool.h
;	COMDAT ??__E?ms_kPool@?$CPooledObject@VCRotationDecorator@NEffectUpdateDecorator@@@@1V?$CDynamicPoolEx@VCRotationDecorator@NEffectUpdateDecorator@@@@A@@YAXXZ
text$di	SEGMENT
??__E?ms_kPool@?$CPooledObject@VCRotationDecorator@NEffectUpdateDecorator@@@@1V?$CDynamicPoolEx@VCRotationDecorator@NEffectUpdateDecorator@@@@A@@YAXXZ PROC ; `dynamic initializer for 'CPooledObject<NEffectUpdateDecorator::CRotationDecorator>::ms_kPool'', COMDAT

; 272  : template <class T> CDynamicPoolEx<T> CPooledObject<T>::ms_kPool;

  00000	68 00 00 00 00	 push	 OFFSET ??__F?ms_kPool@?$CPooledObject@VCRotationDecorator@NEffectUpdateDecorator@@@@1V?$CDynamicPoolEx@VCRotationDecorator@NEffectUpdateDecorator@@@@A@@YAXXZ ; `dynamic atexit destructor for 'CPooledObject<NEffectUpdateDecorator::CRotationDecorator>::ms_kPool''
  00005	e8 00 00 00 00	 call	 _atexit
  0000a	59		 pop	 ecx
  0000b	c3		 ret	 0
??__E?ms_kPool@?$CPooledObject@VCRotationDecorator@NEffectUpdateDecorator@@@@1V?$CDynamicPoolEx@VCRotationDecorator@NEffectUpdateDecorator@@@@A@@YAXXZ ENDP ; `dynamic initializer for 'CPooledObject<NEffectUpdateDecorator::CRotationDecorator>::ms_kPool''
text$di	ENDS
; Function compile flags: /Ogtp
;	COMDAT ??__F?ms_kPool@?$CPooledObject@VCGravityDecorator@NEffectUpdateDecorator@@@@1V?$CDynamicPoolEx@VCGravityDecorator@NEffectUpdateDecorator@@@@A@@YAXXZ
text$yd	SEGMENT
??__F?ms_kPool@?$CPooledObject@VCGravityDecorator@NEffectUpdateDecorator@@@@1V?$CDynamicPoolEx@VCGravityDecorator@NEffectUpdateDecorator@@@@A@@YAXXZ PROC ; `dynamic atexit destructor for 'CPooledObject<NEffectUpdateDecorator::CGravityDecorator>::ms_kPool'', COMDAT
  00000	b9 00 00 00 00	 mov	 ecx, OFFSET ?ms_kPool@?$CPooledObject@VCGravityDecorator@NEffectUpdateDecorator@@@@1V?$CDynamicPoolEx@VCGravityDecorator@NEffectUpdateDecorator@@@@A ; CPooledObject<NEffectUpdateDecorator::CGravityDecorator>::ms_kPool
  00005	e9 00 00 00 00	 jmp	 ??1?$CDynamicPoolEx@VCGravityDecorator@NEffectUpdateDecorator@@@@UAE@XZ ; CDynamicPoolEx<NEffectUpdateDecorator::CGravityDecorator>::~CDynamicPoolEx<NEffectUpdateDecorator::CGravityDecorator>
??__F?ms_kPool@?$CPooledObject@VCGravityDecorator@NEffectUpdateDecorator@@@@1V?$CDynamicPoolEx@VCGravityDecorator@NEffectUpdateDecorator@@@@A@@YAXXZ ENDP ; `dynamic atexit destructor for 'CPooledObject<NEffectUpdateDecorator::CGravityDecorator>::ms_kPool''
text$yd	ENDS
; Function compile flags: /Ogtp
; File C:\Users\murat\Desktop\Siveps2-1-99-Project\source\client\Client\eterLib\Pool.h
;	COMDAT ??__E?ms_kPool@?$CPooledObject@VCGravityDecorator@NEffectUpdateDecorator@@@@1V?$CDynamicPoolEx@VCGravityDecorator@NEffectUpdateDecorator@@@@A@@YAXXZ
text$di	SEGMENT
??__E?ms_kPool@?$CPooledObject@VCGravityDecorator@NEffectUpdateDecorator@@@@1V?$CDynamicPoolEx@VCGravityDecorator@NEffectUpdateDecorator@@@@A@@YAXXZ PROC ; `dynamic initializer for 'CPooledObject<NEffectUpdateDecorator::CGravityDecorator>::ms_kPool'', COMDAT

; 272  : template <class T> CDynamicPoolEx<T> CPooledObject<T>::ms_kPool;

  00000	68 00 00 00 00	 push	 OFFSET ??__F?ms_kPool@?$CPooledObject@VCGravityDecorator@NEffectUpdateDecorator@@@@1V?$CDynamicPoolEx@VCGravityDecorator@NEffectUpdateDecorator@@@@A@@YAXXZ ; `dynamic atexit destructor for 'CPooledObject<NEffectUpdateDecorator::CGravityDecorator>::ms_kPool''
  00005	e8 00 00 00 00	 call	 _atexit
  0000a	59		 pop	 ecx
  0000b	c3		 ret	 0
??__E?ms_kPool@?$CPooledObject@VCGravityDecorator@NEffectUpdateDecorator@@@@1V?$CDynamicPoolEx@VCGravityDecorator@NEffectUpdateDecorator@@@@A@@YAXXZ ENDP ; `dynamic initializer for 'CPooledObject<NEffectUpdateDecorator::CGravityDecorator>::ms_kPool''
text$di	ENDS
; Function compile flags: /Ogtp
;	COMDAT ??__F?ms_kPool@?$CPooledObject@VCAirResistanceDecorator@NEffectUpdateDecorator@@@@1V?$CDynamicPoolEx@VCAirResistanceDecorator@NEffectUpdateDecorator@@@@A@@YAXXZ
text$yd	SEGMENT
??__F?ms_kPool@?$CPooledObject@VCAirResistanceDecorator@NEffectUpdateDecorator@@@@1V?$CDynamicPoolEx@VCAirResistanceDecorator@NEffectUpdateDecorator@@@@A@@YAXXZ PROC ; `dynamic atexit destructor for 'CPooledObject<NEffectUpdateDecorator::CAirResistanceDecorator>::ms_kPool'', COMDAT
  00000	b9 00 00 00 00	 mov	 ecx, OFFSET ?ms_kPool@?$CPooledObject@VCAirResistanceDecorator@NEffectUpdateDecorator@@@@1V?$CDynamicPoolEx@VCAirResistanceDecorator@NEffectUpdateDecorator@@@@A ; CPooledObject<NEffectUpdateDecorator::CAirResistanceDecorator>::ms_kPool
  00005	e9 00 00 00 00	 jmp	 ??1?$CDynamicPoolEx@VCAirResistanceDecorator@NEffectUpdateDecorator@@@@UAE@XZ ; CDynamicPoolEx<NEffectUpdateDecorator::CAirResistanceDecorator>::~CDynamicPoolEx<NEffectUpdateDecorator::CAirResistanceDecorator>
??__F?ms_kPool@?$CPooledObject@VCAirResistanceDecorator@NEffectUpdateDecorator@@@@1V?$CDynamicPoolEx@VCAirResistanceDecorator@NEffectUpdateDecorator@@@@A@@YAXXZ ENDP ; `dynamic atexit destructor for 'CPooledObject<NEffectUpdateDecorator::CAirResistanceDecorator>::ms_kPool''
text$yd	ENDS
; Function compile flags: /Ogtp
; File C:\Users\murat\Desktop\Siveps2-1-99-Project\source\client\Client\eterLib\Pool.h
;	COMDAT ??__E?ms_kPool@?$CPooledObject@VCAirResistanceDecorator@NEffectUpdateDecorator@@@@1V?$CDynamicPoolEx@VCAirResistanceDecorator@NEffectUpdateDecorator@@@@A@@YAXXZ
text$di	SEGMENT
??__E?ms_kPool@?$CPooledObject@VCAirResistanceDecorator@NEffectUpdateDecorator@@@@1V?$CDynamicPoolEx@VCAirResistanceDecorator@NEffectUpdateDecorator@@@@A@@YAXXZ PROC ; `dynamic initializer for 'CPooledObject<NEffectUpdateDecorator::CAirResistanceDecorator>::ms_kPool'', COMDAT

; 272  : template <class T> CDynamicPoolEx<T> CPooledObject<T>::ms_kPool;

  00000	68 00 00 00 00	 push	 OFFSET ??__F?ms_kPool@?$CPooledObject@VCAirResistanceDecorator@NEffectUpdateDecorator@@@@1V?$CDynamicPoolEx@VCAirResistanceDecorator@NEffectUpdateDecorator@@@@A@@YAXXZ ; `dynamic atexit destructor for 'CPooledObject<NEffectUpdateDecorator::CAirResistanceDecorator>::ms_kPool''
  00005	e8 00 00 00 00	 call	 _atexit
  0000a	59		 pop	 ecx
  0000b	c3		 ret	 0
??__E?ms_kPool@?$CPooledObject@VCAirResistanceDecorator@NEffectUpdateDecorator@@@@1V?$CDynamicPoolEx@VCAirResistanceDecorator@NEffectUpdateDecorator@@@@A@@YAXXZ ENDP ; `dynamic initializer for 'CPooledObject<NEffectUpdateDecorator::CAirResistanceDecorator>::ms_kPool''
text$di	ENDS
; Function compile flags: /Ogtp
