; Listing generated by Microsoft (R) Optimizing Compiler Version 19.29.30137.0 

	TITLE	C:\Users\murat\Desktop\Siveps2-1-99-Project\source\client\Client\GameLib\Distribute\WeaponTrace.obj
	.686P
	.XMM
	include listing.inc
	.model	flat

INCLUDELIB LIBCMT
INCLUDELIB OLDNAMES

PUBLIC	??_7?$CDynamicPool@VCWeaponTrace@@@@6B@		; CDynamicPool<CWeaponTrace>::`vftable'
PUBLIC	??_G?$CDynamicPool@VCWeaponTrace@@@@UAEPAXI@Z	; CDynamicPool<CWeaponTrace>::`scalar deleting destructor'
PUBLIC	??_R4?$CDynamicPool@VCWeaponTrace@@@@6B@	; CDynamicPool<CWeaponTrace>::`RTTI Complete Object Locator'
PUBLIC	??_R0?AV?$CDynamicPool@VCWeaponTrace@@@@@8	; CDynamicPool<CWeaponTrace> `RTTI Type Descriptor'
PUBLIC	??_R3?$CDynamicPool@VCWeaponTrace@@@@8		; CDynamicPool<CWeaponTrace>::`RTTI Class Hierarchy Descriptor'
PUBLIC	??_R2?$CDynamicPool@VCWeaponTrace@@@@8		; CDynamicPool<CWeaponTrace>::`RTTI Base Class Array'
PUBLIC	??_R1A@?0A@EA@?$CDynamicPool@VCWeaponTrace@@@@8	; CDynamicPool<CWeaponTrace>::`RTTI Base Class Descriptor at (0,-1,0,64)'
EXTRN	??_E?$CDynamicPool@VCWeaponTrace@@@@UAEPAXI@Z:PROC ; CDynamicPool<CWeaponTrace>::`vector deleting destructor'
EXTRN	??_7type_info@@6B@:QWORD			; type_info::`vftable'
;	COMDAT ??_R1A@?0A@EA@?$CDynamicPool@VCWeaponTrace@@@@8
rdata$r	SEGMENT
??_R1A@?0A@EA@?$CDynamicPool@VCWeaponTrace@@@@8 DD FLAT:??_R0?AV?$CDynamicPool@VCWeaponTrace@@@@@8 ; CDynamicPool<CWeaponTrace>::`RTTI Base Class Descriptor at (0,-1,0,64)'
	DD	00H
	DD	00H
	DD	0ffffffffH
	DD	00H
	DD	040H
	DD	FLAT:??_R3?$CDynamicPool@VCWeaponTrace@@@@8
rdata$r	ENDS
;	COMDAT ??_R2?$CDynamicPool@VCWeaponTrace@@@@8
rdata$r	SEGMENT
??_R2?$CDynamicPool@VCWeaponTrace@@@@8 DD FLAT:??_R1A@?0A@EA@?$CDynamicPool@VCWeaponTrace@@@@8 ; CDynamicPool<CWeaponTrace>::`RTTI Base Class Array'
rdata$r	ENDS
;	COMDAT ??_R3?$CDynamicPool@VCWeaponTrace@@@@8
rdata$r	SEGMENT
??_R3?$CDynamicPool@VCWeaponTrace@@@@8 DD 00H		; CDynamicPool<CWeaponTrace>::`RTTI Class Hierarchy Descriptor'
	DD	00H
	DD	01H
	DD	FLAT:??_R2?$CDynamicPool@VCWeaponTrace@@@@8
rdata$r	ENDS
;	COMDAT ??_R0?AV?$CDynamicPool@VCWeaponTrace@@@@@8
data$rs	SEGMENT
??_R0?AV?$CDynamicPool@VCWeaponTrace@@@@@8 DD FLAT:??_7type_info@@6B@ ; CDynamicPool<CWeaponTrace> `RTTI Type Descriptor'
	DD	00H
	DB	'.?AV?$CDynamicPool@VCWeaponTrace@@@@', 00H
data$rs	ENDS
;	COMDAT ??_R4?$CDynamicPool@VCWeaponTrace@@@@6B@
rdata$r	SEGMENT
??_R4?$CDynamicPool@VCWeaponTrace@@@@6B@ DD 00H		; CDynamicPool<CWeaponTrace>::`RTTI Complete Object Locator'
	DD	00H
	DD	00H
	DD	FLAT:??_R0?AV?$CDynamicPool@VCWeaponTrace@@@@@8
	DD	FLAT:??_R3?$CDynamicPool@VCWeaponTrace@@@@8
rdata$r	ENDS
CONST	SEGMENT
?_Fake_alloc@std@@3U_Fake_allocator@1@B	ORG $+1		; std::_Fake_alloc
CONST	ENDS
;	COMDAT ??_7?$CDynamicPool@VCWeaponTrace@@@@6B@
CONST	SEGMENT
??_7?$CDynamicPool@VCWeaponTrace@@@@6B@ DD FLAT:??_R4?$CDynamicPool@VCWeaponTrace@@@@6B@ ; CDynamicPool<CWeaponTrace>::`vftable'
	DD	FLAT:??_E?$CDynamicPool@VCWeaponTrace@@@@UAEPAXI@Z
CONST	ENDS
PUBLIC	??_H@YGXPAXIIP6EPAX0@Z@Z			; `vector constructor iterator'
PUBLIC	??0exception@std@@QAE@ABV01@@Z			; std::exception::exception
PUBLIC	??1exception@std@@UAE@XZ			; std::exception::~exception
PUBLIC	?what@exception@std@@UBEPBDXZ			; std::exception::what
PUBLIC	??_Gexception@std@@UAEPAXI@Z			; std::exception::`scalar deleting destructor'
PUBLIC	??0bad_alloc@std@@QAE@ABV01@@Z			; std::bad_alloc::bad_alloc
PUBLIC	??_Gbad_alloc@std@@UAEPAXI@Z			; std::bad_alloc::`scalar deleting destructor'
PUBLIC	??0bad_array_new_length@std@@QAE@XZ		; std::bad_array_new_length::bad_array_new_length
PUBLIC	??1bad_array_new_length@std@@UAE@XZ		; std::bad_array_new_length::~bad_array_new_length
PUBLIC	??0bad_array_new_length@std@@QAE@ABV01@@Z	; std::bad_array_new_length::bad_array_new_length
PUBLIC	??_Gbad_array_new_length@std@@UAEPAXI@Z		; std::bad_array_new_length::`scalar deleting destructor'
PUBLIC	?_Throw_bad_array_new_length@std@@YAXXZ		; std::_Throw_bad_array_new_length
PUBLIC	??0D3DXVECTOR3@@QAE@XZ				; D3DXVECTOR3::D3DXVECTOR3
PUBLIC	??0D3DXMATRIX@@QAE@XZ				; D3DXMATRIX::D3DXMATRIX
PUBLIC	??$_Allocate_manually_vector_aligned@U_Default_allocate_traits@std@@@std@@YAPAXI@Z ; std::_Allocate_manually_vector_aligned<std::_Default_allocate_traits>
PUBLIC	?DestroySystem@CWeaponTrace@@SAXXZ		; CWeaponTrace::DestroySystem
PUBLIC	?Delete@CWeaponTrace@@SAXPAV1@@Z		; CWeaponTrace::Delete
PUBLIC	?New@CWeaponTrace@@SAPAV1@XZ			; CWeaponTrace::New
PUBLIC	??0CWeaponTrace@@QAE@XZ				; CWeaponTrace::CWeaponTrace
PUBLIC	??1CWeaponTrace@@UAE@XZ				; CWeaponTrace::~CWeaponTrace
PUBLIC	?Clear@CWeaponTrace@@QAEXXZ			; CWeaponTrace::Clear
PUBLIC	?TurnOn@CWeaponTrace@@QAEXXZ			; CWeaponTrace::TurnOn
PUBLIC	?TurnOff@CWeaponTrace@@QAEXXZ			; CWeaponTrace::TurnOff
PUBLIC	?UseAlpha@CWeaponTrace@@QAEXXZ			; CWeaponTrace::UseAlpha
PUBLIC	?UseTexture@CWeaponTrace@@QAEXXZ		; CWeaponTrace::UseTexture
PUBLIC	?SetTexture@CWeaponTrace@@QAEXPBD@Z		; CWeaponTrace::SetTexture
PUBLIC	?SetWeaponInstance@CWeaponTrace@@QAE_NPAVCGraphicThingInstance@@KPBD@Z ; CWeaponTrace::SetWeaponInstance
PUBLIC	?SetPosition@CWeaponTrace@@QAEXMMM@Z		; CWeaponTrace::SetPosition
PUBLIC	?SetRotation@CWeaponTrace@@QAEXM@Z		; CWeaponTrace::SetRotation
PUBLIC	?SetLifeTime@CWeaponTrace@@QAEXM@Z		; CWeaponTrace::SetLifeTime
PUBLIC	?SetSamplingTime@CWeaponTrace@@QAEXM@Z		; CWeaponTrace::SetSamplingTime
PUBLIC	?Update@CWeaponTrace@@QAEXM@Z			; CWeaponTrace::Update
PUBLIC	?Render@CWeaponTrace@@QAEXXZ			; CWeaponTrace::Render
PUBLIC	?Initialize@CWeaponTrace@@QAEXXZ		; CWeaponTrace::Initialize
PUBLIC	?BuildVertex@CWeaponTrace@@IAE_NXZ		; CWeaponTrace::BuildVertex
PUBLIC	?push_front@?$deque@U?$pair@MUD3DXVECTOR3@@@std@@V?$allocator@U?$pair@MUD3DXVECTOR3@@@std@@@2@@std@@QAEX$$QAU?$pair@MUD3DXVECTOR3@@@2@@Z ; std::deque<std::pair<float,D3DXVECTOR3>,std::allocator<std::pair<float,D3DXVECTOR3> > >::push_front
PUBLIC	??1?$deque@U?$pair@MUD3DXVECTOR3@@@std@@V?$allocator@U?$pair@MUD3DXVECTOR3@@@std@@@2@@std@@QAE@XZ ; std::deque<std::pair<float,D3DXVECTOR3>,std::allocator<std::pair<float,D3DXVECTOR3> > >::~deque<std::pair<float,D3DXVECTOR3>,std::allocator<std::pair<float,D3DXVECTOR3> > >
PUBLIC	?erase@?$deque@U?$pair@MUD3DXVECTOR3@@@std@@V?$allocator@U?$pair@MUD3DXVECTOR3@@@std@@@2@@std@@QAE?AV?$_Deque_iterator@V?$_Deque_val@U?$_Deque_simple_types@U?$pair@MUD3DXVECTOR3@@@std@@@std@@@std@@@2@V?$_Deque_const_iterator@V?$_Deque_val@U?$_Deque_simple_types@U?$pair@MUD3DXVECTOR3@@@std@@@std@@@std@@@2@0@Z ; std::deque<std::pair<float,D3DXVECTOR3>,std::allocator<std::pair<float,D3DXVECTOR3> > >::erase
PUBLIC	?_Xlen@?$deque@U?$pair@MUD3DXVECTOR3@@@std@@V?$allocator@U?$pair@MUD3DXVECTOR3@@@std@@@2@@std@@ABEXXZ ; std::deque<std::pair<float,D3DXVECTOR3>,std::allocator<std::pair<float,D3DXVECTOR3> > >::_Xlen
PUBLIC	?_Growmap@?$deque@U?$pair@MUD3DXVECTOR3@@@std@@V?$allocator@U?$pair@MUD3DXVECTOR3@@@std@@@2@@std@@AAEXI@Z ; std::deque<std::pair<float,D3DXVECTOR3>,std::allocator<std::pair<float,D3DXVECTOR3> > >::_Growmap
PUBLIC	?_Tidy@?$deque@U?$pair@MUD3DXVECTOR3@@@std@@V?$allocator@U?$pair@MUD3DXVECTOR3@@@std@@@2@@std@@AAEXXZ ; std::deque<std::pair<float,D3DXVECTOR3>,std::allocator<std::pair<float,D3DXVECTOR3> > >::_Tidy
PUBLIC	??1?$vector@USPDTVertex@@V?$allocator@USPDTVertex@@@std@@@std@@QAE@XZ ; std::vector<SPDTVertex,std::allocator<SPDTVertex> >::~vector<SPDTVertex,std::allocator<SPDTVertex> >
PUBLIC	?_Xlength@?$vector@USPDTVertex@@V?$allocator@USPDTVertex@@@std@@@std@@CAXXZ ; std::vector<SPDTVertex,std::allocator<SPDTVertex> >::_Xlength
PUBLIC	??_GCWeaponTrace@@UAEPAXI@Z			; CWeaponTrace::`scalar deleting destructor'
PUBLIC	??1?$CDynamicPool@VCWeaponTrace@@@@UAE@XZ	; CDynamicPool<CWeaponTrace>::~CDynamicPool<CWeaponTrace>
PUBLIC	?Delete@?$CDynamicPool@VCWeaponTrace@@@@KAXPAVCWeaponTrace@@@Z ; CDynamicPool<CWeaponTrace>::Delete
PUBLIC	?_Xlength@?$vector@PAVCWeaponTrace@@V?$allocator@PAVCWeaponTrace@@@std@@@std@@CAXXZ ; std::vector<CWeaponTrace *,std::allocator<CWeaponTrace *> >::_Xlength
PUBLIC	??$_Emplace_reallocate@ABUSPDTVertex@@@?$vector@USPDTVertex@@V?$allocator@USPDTVertex@@@std@@@std@@QAEPAUSPDTVertex@@QAU2@ABU2@@Z ; std::vector<SPDTVertex,std::allocator<SPDTVertex> >::_Emplace_reallocate<SPDTVertex const &>
PUBLIC	??$_Emplace_reallocate@ABQAVCWeaponTrace@@@?$vector@PAVCWeaponTrace@@V?$allocator@PAVCWeaponTrace@@@std@@@std@@QAEPAPAVCWeaponTrace@@QAPAV2@ABQAV2@@Z ; std::vector<CWeaponTrace *,std::allocator<CWeaponTrace *> >::_Emplace_reallocate<CWeaponTrace * const &>
PUBLIC	??$uninitialized_copy@PAPAU?$pair@MUD3DXVECTOR3@@@std@@PAPAU12@@std@@YAPAPAU?$pair@MUD3DXVECTOR3@@@0@QAPAU10@0PAPAU10@@Z ; std::uninitialized_copy<std::pair<float,D3DXVECTOR3> * *,std::pair<float,D3DXVECTOR3> * *>
PUBLIC	??$_Uninitialized_value_construct_n_unchecked1@PAPAU?$pair@MUD3DXVECTOR3@@@std@@I@std@@YAPAPAU?$pair@MUD3DXVECTOR3@@@0@PAPAU10@I@Z ; std::_Uninitialized_value_construct_n_unchecked1<std::pair<float,D3DXVECTOR3> * *,unsigned int>
PUBLIC	??$_Zero_range@PAPAU?$pair@MUD3DXVECTOR3@@@std@@@std@@YAPAPAU?$pair@MUD3DXVECTOR3@@@0@QAPAU10@0@Z ; std::_Zero_range<std::pair<float,D3DXVECTOR3> * *>
PUBLIC	??$_Copy_memmove@PAPAU?$pair@MUD3DXVECTOR3@@@std@@PAPAU12@@std@@YAPAPAU?$pair@MUD3DXVECTOR3@@@0@PAPAU10@00@Z ; std::_Copy_memmove<std::pair<float,D3DXVECTOR3> * *,std::pair<float,D3DXVECTOR3> * *>
PUBLIC	??$_Copy_memmove@PAPAVCWeaponTrace@@PAPAV1@@std@@YAPAPAVCWeaponTrace@@PAPAV1@00@Z ; std::_Copy_memmove<CWeaponTrace * *,CWeaponTrace * *>
PUBLIC	??_7exception@std@@6B@				; std::exception::`vftable'
PUBLIC	??_C@_0BC@EOODALEL@Unknown?5exception@		; `string'
PUBLIC	??_7bad_alloc@std@@6B@				; std::bad_alloc::`vftable'
PUBLIC	??_7bad_array_new_length@std@@6B@		; std::bad_array_new_length::`vftable'
PUBLIC	??_C@_0BF@KINCDENJ@bad?5array?5new?5length@	; `string'
PUBLIC	__TI3?AVbad_array_new_length@std@@
PUBLIC	__CTA3?AVbad_array_new_length@std@@
PUBLIC	??_R0?AVbad_array_new_length@std@@@8		; std::bad_array_new_length `RTTI Type Descriptor'
PUBLIC	__CT??_R0?AVbad_array_new_length@std@@@8??0bad_array_new_length@std@@QAE@ABV01@@Z12
PUBLIC	??_R0?AVbad_alloc@std@@@8			; std::bad_alloc `RTTI Type Descriptor'
PUBLIC	__CT??_R0?AVbad_alloc@std@@@8??0bad_alloc@std@@QAE@ABV01@@Z12
PUBLIC	??_R0?AVexception@std@@@8			; std::exception `RTTI Type Descriptor'
PUBLIC	__CT??_R0?AVexception@std@@@8??0exception@std@@QAE@ABV01@@Z12
PUBLIC	?ms_singleton@?$CSingleton@VCTimer@@@@0PAVCTimer@@A ; CSingleton<CTimer>::ms_singleton
PUBLIC	??_R4exception@std@@6B@				; std::exception::`RTTI Complete Object Locator'
PUBLIC	??_R3exception@std@@8				; std::exception::`RTTI Class Hierarchy Descriptor'
PUBLIC	??_R2exception@std@@8				; std::exception::`RTTI Base Class Array'
PUBLIC	??_R1A@?0A@EA@exception@std@@8			; std::exception::`RTTI Base Class Descriptor at (0,-1,0,64)'
PUBLIC	??_R4bad_alloc@std@@6B@				; std::bad_alloc::`RTTI Complete Object Locator'
PUBLIC	??_R3bad_alloc@std@@8				; std::bad_alloc::`RTTI Class Hierarchy Descriptor'
PUBLIC	??_R2bad_alloc@std@@8				; std::bad_alloc::`RTTI Base Class Array'
PUBLIC	??_R1A@?0A@EA@bad_alloc@std@@8			; std::bad_alloc::`RTTI Base Class Descriptor at (0,-1,0,64)'
PUBLIC	??_R4bad_array_new_length@std@@6B@		; std::bad_array_new_length::`RTTI Complete Object Locator'
PUBLIC	??_R3bad_array_new_length@std@@8		; std::bad_array_new_length::`RTTI Class Hierarchy Descriptor'
PUBLIC	??_R2bad_array_new_length@std@@8		; std::bad_array_new_length::`RTTI Base Class Array'
PUBLIC	??_R1A@?0A@EA@bad_array_new_length@std@@8	; std::bad_array_new_length::`RTTI Base Class Descriptor at (0,-1,0,64)'
PUBLIC	?ms_singleton@?$CSingleton@VCResourceManager@@@@0PAVCResourceManager@@A ; CSingleton<CResourceManager>::ms_singleton
PUBLIC	?ms_singleton@?$CSingleton@VCStateManager@@@@0PAVCStateManager@@A ; CSingleton<CStateManager>::ms_singleton
PUBLIC	?ms_kPool@CWeaponTrace@@1V?$CDynamicPool@VCWeaponTrace@@@@A ; CWeaponTrace::ms_kPool
PUBLIC	??_7CWeaponTrace@@6B@				; CWeaponTrace::`vftable'
PUBLIC	??_C@_0BA@NCBBOAJD@lot_ade10?92?4tga@		; `string'
PUBLIC	??_C@_0BC@KBDMBKEH@deque?$DMT?$DO?5too?5long@	; `string'
PUBLIC	??_C@_0BA@FOIKENOD@vector?5too?5long@		; `string'
PUBLIC	??_R4CWeaponTrace@@6B@				; CWeaponTrace::`RTTI Complete Object Locator'
PUBLIC	??_R0?AVCWeaponTrace@@@8			; CWeaponTrace `RTTI Type Descriptor'
PUBLIC	??_R3CWeaponTrace@@8				; CWeaponTrace::`RTTI Class Hierarchy Descriptor'
PUBLIC	??_R2CWeaponTrace@@8				; CWeaponTrace::`RTTI Base Class Array'
PUBLIC	??_R1A@?0A@EA@CWeaponTrace@@8			; CWeaponTrace::`RTTI Base Class Descriptor at (0,-1,0,64)'
PUBLIC	__real@38d1b717
PUBLIC	__real@3c8efa35
PUBLIC	__real@3f000000
PUBLIC	__real@3f800000
PUBLIC	__real@3fb99999a0000000
PUBLIC	__real@3ff0000000000000
PUBLIC	__real@40000000
PUBLIC	__real@4004000000000000
PUBLIC	__real@40400000
PUBLIC	__real@40800000
PUBLIC	__real@437f0000
PUBLIC	__real@c0000000
EXTRN	??2@YAPAXI@Z:PROC				; operator new
EXTRN	??3@YAXPAXI@Z:PROC				; operator delete
EXTRN	_atexit:PROC
EXTRN	__invalid_parameter_noinfo_noreturn:PROC
EXTRN	___std_exception_copy:PROC
EXTRN	___std_exception_destroy:PROC
EXTRN	??_Eexception@std@@UAEPAXI@Z:PROC		; std::exception::`vector deleting destructor'
EXTRN	??_Ebad_alloc@std@@UAEPAXI@Z:PROC		; std::bad_alloc::`vector deleting destructor'
EXTRN	??_Ebad_array_new_length@std@@UAEPAXI@Z:PROC	; std::bad_array_new_length::`vector deleting destructor'
EXTRN	?_Xlength_error@std@@YAXPBD@Z:PROC		; std::_Xlength_error
EXTRN	?fMAX@@YAMMM@Z:PROC				; fMAX
EXTRN	_D3DXMatrixMultiply@12:PROC
EXTRN	_D3DXMatrixTranslation@16:PROC
EXTRN	_D3DXMatrixRotationZ@8:PROC
EXTRN	?GetCurrentSecond@CTimer@@QAEMXZ:PROC		; CTimer::GetCurrentSecond
EXTRN	??0CGraphicImageInstance@@QAE@XZ:PROC		; CGraphicImageInstance::CGraphicImageInstance
EXTRN	??1CGraphicImageInstance@@UAE@XZ:PROC		; CGraphicImageInstance::~CGraphicImageInstance
EXTRN	?SetImagePointer@CGraphicImageInstance@@QAEXPAVCGraphicImage@@@Z:PROC ; CGraphicImageInstance::SetImagePointer
EXTRN	?GetResourcePointer@CResourceManager@@QAEPAVCResource@@PBD@Z:PROC ; CResourceManager::GetResourcePointer
EXTRN	?SaveRenderState@CStateManager@@QAEXW4_D3DRENDERSTATETYPE@@K@Z:PROC ; CStateManager::SaveRenderState
EXTRN	?RestoreRenderState@CStateManager@@QAEXW4_D3DRENDERSTATETYPE@@@Z:PROC ; CStateManager::RestoreRenderState
EXTRN	?SetRenderState@CStateManager@@QAEXW4_D3DRENDERSTATETYPE@@K@Z:PROC ; CStateManager::SetRenderState
EXTRN	?SetTexture@CStateManager@@QAEXKPAUIDirect3DBaseTexture8@@@Z:PROC ; CStateManager::SetTexture
EXTRN	?SetTextureStageState@CStateManager@@QAEXKW4_D3DTEXTURESTAGESTATETYPE@@K@Z:PROC ; CStateManager::SetTextureStageState
EXTRN	?SaveVertexShader@CStateManager@@QAEXK@Z:PROC	; CStateManager::SaveVertexShader
EXTRN	?RestoreVertexShader@CStateManager@@QAEXXZ:PROC	; CStateManager::RestoreVertexShader
EXTRN	?SaveTransform@CStateManager@@QAEXW4_D3DTRANSFORMSTATETYPE@@PBU_D3DMATRIX@@@Z:PROC ; CStateManager::SaveTransform
EXTRN	?RestoreTransform@CStateManager@@QAEXW4_D3DTRANSFORMSTATETYPE@@@Z:PROC ; CStateManager::RestoreTransform
EXTRN	?DrawPrimitiveUP@CStateManager@@QAEJW4_D3DPRIMITIVETYPE@@IPBXI@Z:PROC ; CStateManager::DrawPrimitiveUP
EXTRN	?Update@CGraphicObjectInstance@@QAEXXZ:PROC	; CGraphicObjectInstance::Update
EXTRN	?DeformNoSkin@CGraphicThingInstance@@QAEXXZ:PROC ; CGraphicThingInstance::DeformNoSkin
EXTRN	?GetBoundBox@CGraphicThingInstance@@QAEHKPAUD3DXVECTOR3@@0@Z:PROC ; CGraphicThingInstance::GetBoundBox
EXTRN	?GetBoneMatrix@CGraphicThingInstance@@QAEHKKPAPAUD3DXMATRIX@@@Z:PROC ; CGraphicThingInstance::GetBoneMatrix
EXTRN	?GetCompositeBoneMatrix@CGraphicThingInstance@@QAEHKKPAPAUD3DXMATRIX@@@Z:PROC ; CGraphicThingInstance::GetCompositeBoneMatrix
EXTRN	??_ECWeaponTrace@@UAEPAXI@Z:PROC		; CWeaponTrace::`vector deleting destructor'
EXTRN	@__security_check_cookie@4:PROC
EXTRN	__CxxThrowException@8:PROC
EXTRN	___CxxFrameHandler3:PROC
EXTRN	__chkstk:PROC
EXTRN	__ftoui3:PROC
EXTRN	__libm_sse2_sqrt_precise:PROC
EXTRN	_memmove:PROC
EXTRN	_memset:PROC
EXTRN	___security_cookie:DWORD
EXTRN	__fltused:DWORD
;	COMDAT ?ms_singleton@?$CSingleton@VCTimer@@@@0PAVCTimer@@A
_BSS	SEGMENT
?ms_singleton@?$CSingleton@VCTimer@@@@0PAVCTimer@@A DD 01H DUP (?) ; CSingleton<CTimer>::ms_singleton
_BSS	ENDS
;	COMDAT ?ms_singleton@?$CSingleton@VCResourceManager@@@@0PAVCResourceManager@@A
_BSS	SEGMENT
?ms_singleton@?$CSingleton@VCResourceManager@@@@0PAVCResourceManager@@A DD 01H DUP (?) ; CSingleton<CResourceManager>::ms_singleton
_BSS	ENDS
;	COMDAT ?ms_singleton@?$CSingleton@VCStateManager@@@@0PAVCStateManager@@A
_BSS	SEGMENT
?ms_singleton@?$CSingleton@VCStateManager@@@@0PAVCStateManager@@A DD 01H DUP (?) ; CSingleton<CStateManager>::ms_singleton
_BSS	ENDS
CRT$XCU	SEGMENT
??ms_kPool$initializer$@CWeaponTrace@@1P6AXXZA@@3P6AXXZA DD FLAT:??__E?ms_kPool@CWeaponTrace@@1V?$CDynamicPool@VCWeaponTrace@@@@A@@YAXXZ ; ??ms_kPool$initializer$@CWeaponTrace@@1P6AXXZA@@3P6AXXZA
CRT$XCU	ENDS
;	COMDAT __real@c0000000
CONST	SEGMENT
__real@c0000000 DD 0c0000000r			; -2
CONST	ENDS
;	COMDAT __real@437f0000
CONST	SEGMENT
__real@437f0000 DD 0437f0000r			; 255
CONST	ENDS
;	COMDAT __real@40800000
CONST	SEGMENT
__real@40800000 DD 040800000r			; 4
CONST	ENDS
;	COMDAT __real@40400000
CONST	SEGMENT
__real@40400000 DD 040400000r			; 3
CONST	ENDS
;	COMDAT __real@4004000000000000
CONST	SEGMENT
__real@4004000000000000 DQ 04004000000000000r	; 2.5
CONST	ENDS
;	COMDAT __real@40000000
CONST	SEGMENT
__real@40000000 DD 040000000r			; 2
CONST	ENDS
;	COMDAT __real@3ff0000000000000
CONST	SEGMENT
__real@3ff0000000000000 DQ 03ff0000000000000r	; 1
CONST	ENDS
;	COMDAT __real@3fb99999a0000000
CONST	SEGMENT
__real@3fb99999a0000000 DQ 03fb99999a0000000r	; 0.1
CONST	ENDS
;	COMDAT __real@3f800000
CONST	SEGMENT
__real@3f800000 DD 03f800000r			; 1
CONST	ENDS
;	COMDAT __real@3f000000
CONST	SEGMENT
__real@3f000000 DD 03f000000r			; 0.5
CONST	ENDS
;	COMDAT __real@3c8efa35
CONST	SEGMENT
__real@3c8efa35 DD 03c8efa35r			; 0.0174533
CONST	ENDS
;	COMDAT __real@38d1b717
CONST	SEGMENT
__real@38d1b717 DD 038d1b717r			; 0.0001
CONST	ENDS
;	COMDAT ??_R1A@?0A@EA@CWeaponTrace@@8
rdata$r	SEGMENT
??_R1A@?0A@EA@CWeaponTrace@@8 DD FLAT:??_R0?AVCWeaponTrace@@@8 ; CWeaponTrace::`RTTI Base Class Descriptor at (0,-1,0,64)'
	DD	00H
	DD	00H
	DD	0ffffffffH
	DD	00H
	DD	040H
	DD	FLAT:??_R3CWeaponTrace@@8
rdata$r	ENDS
;	COMDAT ??_R2CWeaponTrace@@8
rdata$r	SEGMENT
??_R2CWeaponTrace@@8 DD FLAT:??_R1A@?0A@EA@CWeaponTrace@@8 ; CWeaponTrace::`RTTI Base Class Array'
rdata$r	ENDS
;	COMDAT ??_R3CWeaponTrace@@8
rdata$r	SEGMENT
??_R3CWeaponTrace@@8 DD 00H				; CWeaponTrace::`RTTI Class Hierarchy Descriptor'
	DD	00H
	DD	01H
	DD	FLAT:??_R2CWeaponTrace@@8
rdata$r	ENDS
;	COMDAT ??_R0?AVCWeaponTrace@@@8
data$rs	SEGMENT
??_R0?AVCWeaponTrace@@@8 DD FLAT:??_7type_info@@6B@	; CWeaponTrace `RTTI Type Descriptor'
	DD	00H
	DB	'.?AVCWeaponTrace@@', 00H
data$rs	ENDS
;	COMDAT ??_R4CWeaponTrace@@6B@
rdata$r	SEGMENT
??_R4CWeaponTrace@@6B@ DD 00H				; CWeaponTrace::`RTTI Complete Object Locator'
	DD	00H
	DD	00H
	DD	FLAT:??_R0?AVCWeaponTrace@@@8
	DD	FLAT:??_R3CWeaponTrace@@8
rdata$r	ENDS
;	COMDAT ??_C@_0BA@FOIKENOD@vector?5too?5long@
CONST	SEGMENT
??_C@_0BA@FOIKENOD@vector?5too?5long@ DB 'vector too long', 00H ; `string'
CONST	ENDS
;	COMDAT ??_C@_0BC@KBDMBKEH@deque?$DMT?$DO?5too?5long@
CONST	SEGMENT
??_C@_0BC@KBDMBKEH@deque?$DMT?$DO?5too?5long@ DB 'deque<T> too long', 00H ; `string'
CONST	ENDS
;	COMDAT ??_C@_0BA@NCBBOAJD@lot_ade10?92?4tga@
CONST	SEGMENT
??_C@_0BA@NCBBOAJD@lot_ade10?92?4tga@ DB 'lot_ade10-2.tga', 00H ; `string'
CONST	ENDS
;	COMDAT ??_7CWeaponTrace@@6B@
CONST	SEGMENT
??_7CWeaponTrace@@6B@ DD FLAT:??_R4CWeaponTrace@@6B@	; CWeaponTrace::`vftable'
	DD	FLAT:??_ECWeaponTrace@@UAEPAXI@Z
CONST	ENDS
_DATA	SEGMENT
?ms_kPool@CWeaponTrace@@1V?$CDynamicPool@VCWeaponTrace@@@@A DD FLAT:??_7?$CDynamicPool@VCWeaponTrace@@@@6B@ ; CWeaponTrace::ms_kPool
	DD	00H
	DD	00H
	DD	00H
	DD	00H
	DD	00H
	DD	00H
	DD	00H
	DD	00H
_DATA	ENDS
;	COMDAT ??_R1A@?0A@EA@bad_array_new_length@std@@8
rdata$r	SEGMENT
??_R1A@?0A@EA@bad_array_new_length@std@@8 DD FLAT:??_R0?AVbad_array_new_length@std@@@8 ; std::bad_array_new_length::`RTTI Base Class Descriptor at (0,-1,0,64)'
	DD	02H
	DD	00H
	DD	0ffffffffH
	DD	00H
	DD	040H
	DD	FLAT:??_R3bad_array_new_length@std@@8
rdata$r	ENDS
;	COMDAT ??_R2bad_array_new_length@std@@8
rdata$r	SEGMENT
??_R2bad_array_new_length@std@@8 DD FLAT:??_R1A@?0A@EA@bad_array_new_length@std@@8 ; std::bad_array_new_length::`RTTI Base Class Array'
	DD	FLAT:??_R1A@?0A@EA@bad_alloc@std@@8
	DD	FLAT:??_R1A@?0A@EA@exception@std@@8
rdata$r	ENDS
;	COMDAT ??_R3bad_array_new_length@std@@8
rdata$r	SEGMENT
??_R3bad_array_new_length@std@@8 DD 00H			; std::bad_array_new_length::`RTTI Class Hierarchy Descriptor'
	DD	00H
	DD	03H
	DD	FLAT:??_R2bad_array_new_length@std@@8
rdata$r	ENDS
;	COMDAT ??_R4bad_array_new_length@std@@6B@
rdata$r	SEGMENT
??_R4bad_array_new_length@std@@6B@ DD 00H		; std::bad_array_new_length::`RTTI Complete Object Locator'
	DD	00H
	DD	00H
	DD	FLAT:??_R0?AVbad_array_new_length@std@@@8
	DD	FLAT:??_R3bad_array_new_length@std@@8
rdata$r	ENDS
;	COMDAT ??_R1A@?0A@EA@bad_alloc@std@@8
rdata$r	SEGMENT
??_R1A@?0A@EA@bad_alloc@std@@8 DD FLAT:??_R0?AVbad_alloc@std@@@8 ; std::bad_alloc::`RTTI Base Class Descriptor at (0,-1,0,64)'
	DD	01H
	DD	00H
	DD	0ffffffffH
	DD	00H
	DD	040H
	DD	FLAT:??_R3bad_alloc@std@@8
rdata$r	ENDS
;	COMDAT ??_R2bad_alloc@std@@8
rdata$r	SEGMENT
??_R2bad_alloc@std@@8 DD FLAT:??_R1A@?0A@EA@bad_alloc@std@@8 ; std::bad_alloc::`RTTI Base Class Array'
	DD	FLAT:??_R1A@?0A@EA@exception@std@@8
rdata$r	ENDS
;	COMDAT ??_R3bad_alloc@std@@8
rdata$r	SEGMENT
??_R3bad_alloc@std@@8 DD 00H				; std::bad_alloc::`RTTI Class Hierarchy Descriptor'
	DD	00H
	DD	02H
	DD	FLAT:??_R2bad_alloc@std@@8
rdata$r	ENDS
;	COMDAT ??_R4bad_alloc@std@@6B@
rdata$r	SEGMENT
??_R4bad_alloc@std@@6B@ DD 00H				; std::bad_alloc::`RTTI Complete Object Locator'
	DD	00H
	DD	00H
	DD	FLAT:??_R0?AVbad_alloc@std@@@8
	DD	FLAT:??_R3bad_alloc@std@@8
rdata$r	ENDS
;	COMDAT ??_R1A@?0A@EA@exception@std@@8
rdata$r	SEGMENT
??_R1A@?0A@EA@exception@std@@8 DD FLAT:??_R0?AVexception@std@@@8 ; std::exception::`RTTI Base Class Descriptor at (0,-1,0,64)'
	DD	00H
	DD	00H
	DD	0ffffffffH
	DD	00H
	DD	040H
	DD	FLAT:??_R3exception@std@@8
rdata$r	ENDS
;	COMDAT ??_R2exception@std@@8
rdata$r	SEGMENT
??_R2exception@std@@8 DD FLAT:??_R1A@?0A@EA@exception@std@@8 ; std::exception::`RTTI Base Class Array'
rdata$r	ENDS
;	COMDAT ??_R3exception@std@@8
rdata$r	SEGMENT
??_R3exception@std@@8 DD 00H				; std::exception::`RTTI Class Hierarchy Descriptor'
	DD	00H
	DD	01H
	DD	FLAT:??_R2exception@std@@8
rdata$r	ENDS
;	COMDAT ??_R4exception@std@@6B@
rdata$r	SEGMENT
??_R4exception@std@@6B@ DD 00H				; std::exception::`RTTI Complete Object Locator'
	DD	00H
	DD	00H
	DD	FLAT:??_R0?AVexception@std@@@8
	DD	FLAT:??_R3exception@std@@8
rdata$r	ENDS
;	COMDAT __CT??_R0?AVexception@std@@@8??0exception@std@@QAE@ABV01@@Z12
xdata$x	SEGMENT
__CT??_R0?AVexception@std@@@8??0exception@std@@QAE@ABV01@@Z12 DD 00H
	DD	FLAT:??_R0?AVexception@std@@@8
	DD	00H
	DD	0ffffffffH
	ORG $+4
	DD	0cH
	DD	FLAT:??0exception@std@@QAE@ABV01@@Z
xdata$x	ENDS
;	COMDAT ??_R0?AVexception@std@@@8
data$r	SEGMENT
??_R0?AVexception@std@@@8 DD FLAT:??_7type_info@@6B@	; std::exception `RTTI Type Descriptor'
	DD	00H
	DB	'.?AVexception@std@@', 00H
data$r	ENDS
;	COMDAT __CT??_R0?AVbad_alloc@std@@@8??0bad_alloc@std@@QAE@ABV01@@Z12
xdata$x	SEGMENT
__CT??_R0?AVbad_alloc@std@@@8??0bad_alloc@std@@QAE@ABV01@@Z12 DD 010H
	DD	FLAT:??_R0?AVbad_alloc@std@@@8
	DD	00H
	DD	0ffffffffH
	ORG $+4
	DD	0cH
	DD	FLAT:??0bad_alloc@std@@QAE@ABV01@@Z
xdata$x	ENDS
;	COMDAT ??_R0?AVbad_alloc@std@@@8
data$r	SEGMENT
??_R0?AVbad_alloc@std@@@8 DD FLAT:??_7type_info@@6B@	; std::bad_alloc `RTTI Type Descriptor'
	DD	00H
	DB	'.?AVbad_alloc@std@@', 00H
data$r	ENDS
;	COMDAT __CT??_R0?AVbad_array_new_length@std@@@8??0bad_array_new_length@std@@QAE@ABV01@@Z12
xdata$x	SEGMENT
__CT??_R0?AVbad_array_new_length@std@@@8??0bad_array_new_length@std@@QAE@ABV01@@Z12 DD 00H
	DD	FLAT:??_R0?AVbad_array_new_length@std@@@8
	DD	00H
	DD	0ffffffffH
	ORG $+4
	DD	0cH
	DD	FLAT:??0bad_array_new_length@std@@QAE@ABV01@@Z
xdata$x	ENDS
;	COMDAT ??_R0?AVbad_array_new_length@std@@@8
data$r	SEGMENT
??_R0?AVbad_array_new_length@std@@@8 DD FLAT:??_7type_info@@6B@ ; std::bad_array_new_length `RTTI Type Descriptor'
	DD	00H
	DB	'.?AVbad_array_new_length@std@@', 00H
data$r	ENDS
;	COMDAT __CTA3?AVbad_array_new_length@std@@
xdata$x	SEGMENT
__CTA3?AVbad_array_new_length@std@@ DD 03H
	DD	FLAT:__CT??_R0?AVbad_array_new_length@std@@@8??0bad_array_new_length@std@@QAE@ABV01@@Z12
	DD	FLAT:__CT??_R0?AVbad_alloc@std@@@8??0bad_alloc@std@@QAE@ABV01@@Z12
	DD	FLAT:__CT??_R0?AVexception@std@@@8??0exception@std@@QAE@ABV01@@Z12
xdata$x	ENDS
;	COMDAT __TI3?AVbad_array_new_length@std@@
xdata$x	SEGMENT
__TI3?AVbad_array_new_length@std@@ DD 00H
	DD	FLAT:??1bad_array_new_length@std@@UAE@XZ
	DD	00H
	DD	FLAT:__CTA3?AVbad_array_new_length@std@@
xdata$x	ENDS
;	COMDAT ??_C@_0BF@KINCDENJ@bad?5array?5new?5length@
CONST	SEGMENT
??_C@_0BF@KINCDENJ@bad?5array?5new?5length@ DB 'bad array new length', 00H ; `string'
CONST	ENDS
;	COMDAT ??_7bad_array_new_length@std@@6B@
CONST	SEGMENT
??_7bad_array_new_length@std@@6B@ DD FLAT:??_R4bad_array_new_length@std@@6B@ ; std::bad_array_new_length::`vftable'
	DD	FLAT:??_Ebad_array_new_length@std@@UAEPAXI@Z
	DD	FLAT:?what@exception@std@@UBEPBDXZ
CONST	ENDS
;	COMDAT ??_7bad_alloc@std@@6B@
CONST	SEGMENT
??_7bad_alloc@std@@6B@ DD FLAT:??_R4bad_alloc@std@@6B@	; std::bad_alloc::`vftable'
	DD	FLAT:??_Ebad_alloc@std@@UAEPAXI@Z
	DD	FLAT:?what@exception@std@@UBEPBDXZ
CONST	ENDS
;	COMDAT ??_C@_0BC@EOODALEL@Unknown?5exception@
CONST	SEGMENT
??_C@_0BC@EOODALEL@Unknown?5exception@ DB 'Unknown exception', 00H ; `string'
CONST	ENDS
;	COMDAT ??_7exception@std@@6B@
CONST	SEGMENT
??_7exception@std@@6B@ DD FLAT:??_R4exception@std@@6B@	; std::exception::`vftable'
	DD	FLAT:??_Eexception@std@@UAEPAXI@Z
	DD	FLAT:?what@exception@std@@UBEPBDXZ
CONST	ENDS
;	COMDAT xdata$x
xdata$x	SEGMENT
__unwindtable$?Alloc@?$CDynamicPool@VCWeaponTrace@@@@QAEPAVCWeaponTrace@@XZ DD 0ffffffffH
	DD	FLAT:__unwindfunclet$?Alloc@?$CDynamicPool@VCWeaponTrace@@@@QAEPAVCWeaponTrace@@XZ$0
__ehfuncinfo$?Alloc@?$CDynamicPool@VCWeaponTrace@@@@QAEPAVCWeaponTrace@@XZ DD 019930522H
	DD	01H
	DD	FLAT:__unwindtable$?Alloc@?$CDynamicPool@VCWeaponTrace@@@@QAEPAVCWeaponTrace@@XZ
	DD	2 DUP(00H)
	DD	2 DUP(00H)
	DD	00H
	DD	01H
xdata$x	ENDS
;	COMDAT xdata$x
xdata$x	SEGMENT
__unwindtable$?BuildVertex@CWeaponTrace@@IAE_NXZ DD 0ffffffffH
	DD	FLAT:__unwindfunclet$?BuildVertex@CWeaponTrace@@IAE_NXZ$0
	DD	00H
	DD	FLAT:__unwindfunclet$?BuildVertex@CWeaponTrace@@IAE_NXZ$1
__ehfuncinfo$?BuildVertex@CWeaponTrace@@IAE_NXZ DD 019930522H
	DD	02H
	DD	FLAT:__unwindtable$?BuildVertex@CWeaponTrace@@IAE_NXZ
	DD	2 DUP(00H)
	DD	2 DUP(00H)
	DD	00H
	DD	01H
xdata$x	ENDS
;	COMDAT xdata$x
xdata$x	SEGMENT
__unwindtable$??0CWeaponTrace@@QAE@XZ DD 0ffffffffH
	DD	FLAT:__unwindfunclet$??0CWeaponTrace@@QAE@XZ$0
	DD	00H
	DD	FLAT:__unwindfunclet$??0CWeaponTrace@@QAE@XZ$1
	DD	01H
	DD	FLAT:__unwindfunclet$??0CWeaponTrace@@QAE@XZ$2
	DD	02H
	DD	FLAT:__unwindfunclet$??0CWeaponTrace@@QAE@XZ$3
__ehfuncinfo$??0CWeaponTrace@@QAE@XZ DD 019930522H
	DD	04H
	DD	FLAT:__unwindtable$??0CWeaponTrace@@QAE@XZ
	DD	2 DUP(00H)
	DD	2 DUP(00H)
	DD	00H
	DD	01H
xdata$x	ENDS
;	COMDAT xdata$x
xdata$x	SEGMENT
__unwindtable$?New@CWeaponTrace@@SAPAV1@XZ DD 0ffffffffH
	DD	FLAT:__unwindfunclet$?New@CWeaponTrace@@SAPAV1@XZ$0
__ehfuncinfo$?New@CWeaponTrace@@SAPAV1@XZ DD 019930522H
	DD	01H
	DD	FLAT:__unwindtable$?New@CWeaponTrace@@SAPAV1@XZ
	DD	2 DUP(00H)
	DD	2 DUP(00H)
	DD	00H
	DD	01H
xdata$x	ENDS
; Function compile flags: /Ogtp
; File C:\Program Files (x86)\Microsoft Visual Studio\2019\Professional\VC\Tools\MSVC\14.29.30133\include\xutility
;	COMDAT ??$_Copy_memmove@PAPAVCWeaponTrace@@PAPAV1@@std@@YAPAPAVCWeaponTrace@@PAPAV1@00@Z
_TEXT	SEGMENT
__First$ = 8						; size = 4
__Last$ = 12						; size = 4
__Dest$ = 16						; size = 4
??$_Copy_memmove@PAPAVCWeaponTrace@@PAPAV1@@std@@YAPAPAVCWeaponTrace@@PAPAV1@00@Z PROC ; std::_Copy_memmove<CWeaponTrace * *,CWeaponTrace * *>, COMDAT

; 4159 : _OutCtgIt _Copy_memmove(_CtgIt _First, _CtgIt _Last, _OutCtgIt _Dest) {

  00000	55		 push	 ebp
  00001	8b ec		 mov	 ebp, esp

; 4160 :     auto _FirstPtr              = _To_address(_First);
; 4161 :     auto _LastPtr               = _To_address(_Last);
; 4162 :     auto _DestPtr               = _To_address(_Dest);
; 4163 :     const char* const _First_ch = const_cast<const char*>(reinterpret_cast<const volatile char*>(_FirstPtr));
; 4164 :     const char* const _Last_ch  = const_cast<const char*>(reinterpret_cast<const volatile char*>(_LastPtr));
; 4165 :     char* const _Dest_ch        = const_cast<char*>(reinterpret_cast<const volatile char*>(_DestPtr));
; 4166 :     const auto _Count           = static_cast<size_t>(_Last_ch - _First_ch);

  00003	8b 45 08	 mov	 eax, DWORD PTR __First$[ebp]
  00006	56		 push	 esi

; 4167 :     _CSTD memmove(_Dest_ch, _First_ch, _Count);

  00007	8b 75 10	 mov	 esi, DWORD PTR __Dest$[ebp]
  0000a	57		 push	 edi
  0000b	8b 7d 0c	 mov	 edi, DWORD PTR __Last$[ebp]
  0000e	2b f8		 sub	 edi, eax
  00010	57		 push	 edi
  00011	50		 push	 eax
  00012	56		 push	 esi
  00013	e8 00 00 00 00	 call	 _memmove
  00018	83 c4 0c	 add	 esp, 12			; 0000000cH

; 4168 :     if constexpr (is_pointer_v<_OutCtgIt>) {
; 4169 :         return reinterpret_cast<_OutCtgIt>(_Dest_ch + _Count);

  0001b	8d 04 37	 lea	 eax, DWORD PTR [edi+esi]
  0001e	5f		 pop	 edi
  0001f	5e		 pop	 esi

; 4170 :     } else {
; 4171 :         return _Dest + (_LastPtr - _FirstPtr);
; 4172 :     }
; 4173 : }

  00020	5d		 pop	 ebp
  00021	c3		 ret	 0
??$_Copy_memmove@PAPAVCWeaponTrace@@PAPAV1@@std@@YAPAPAVCWeaponTrace@@PAPAV1@00@Z ENDP ; std::_Copy_memmove<CWeaponTrace * *,CWeaponTrace * *>
_TEXT	ENDS
; Function compile flags: /Ogtp
; File C:\Program Files (x86)\Microsoft Visual Studio\2019\Professional\VC\Tools\MSVC\14.29.30133\include\xutility
;	COMDAT ??$_Copy_memmove@PAPAU?$pair@MUD3DXVECTOR3@@@std@@PAPAU12@@std@@YAPAPAU?$pair@MUD3DXVECTOR3@@@0@PAPAU10@00@Z
_TEXT	SEGMENT
__First$ = 8						; size = 4
__Last$ = 12						; size = 4
__Dest$ = 16						; size = 4
??$_Copy_memmove@PAPAU?$pair@MUD3DXVECTOR3@@@std@@PAPAU12@@std@@YAPAPAU?$pair@MUD3DXVECTOR3@@@0@PAPAU10@00@Z PROC ; std::_Copy_memmove<std::pair<float,D3DXVECTOR3> * *,std::pair<float,D3DXVECTOR3> * *>, COMDAT

; 4159 : _OutCtgIt _Copy_memmove(_CtgIt _First, _CtgIt _Last, _OutCtgIt _Dest) {

  00000	55		 push	 ebp
  00001	8b ec		 mov	 ebp, esp

; 4160 :     auto _FirstPtr              = _To_address(_First);
; 4161 :     auto _LastPtr               = _To_address(_Last);
; 4162 :     auto _DestPtr               = _To_address(_Dest);
; 4163 :     const char* const _First_ch = const_cast<const char*>(reinterpret_cast<const volatile char*>(_FirstPtr));
; 4164 :     const char* const _Last_ch  = const_cast<const char*>(reinterpret_cast<const volatile char*>(_LastPtr));
; 4165 :     char* const _Dest_ch        = const_cast<char*>(reinterpret_cast<const volatile char*>(_DestPtr));
; 4166 :     const auto _Count           = static_cast<size_t>(_Last_ch - _First_ch);

  00003	8b 45 08	 mov	 eax, DWORD PTR __First$[ebp]
  00006	56		 push	 esi

; 4167 :     _CSTD memmove(_Dest_ch, _First_ch, _Count);

  00007	8b 75 10	 mov	 esi, DWORD PTR __Dest$[ebp]
  0000a	57		 push	 edi
  0000b	8b 7d 0c	 mov	 edi, DWORD PTR __Last$[ebp]
  0000e	2b f8		 sub	 edi, eax
  00010	57		 push	 edi
  00011	50		 push	 eax
  00012	56		 push	 esi
  00013	e8 00 00 00 00	 call	 _memmove
  00018	83 c4 0c	 add	 esp, 12			; 0000000cH

; 4168 :     if constexpr (is_pointer_v<_OutCtgIt>) {
; 4169 :         return reinterpret_cast<_OutCtgIt>(_Dest_ch + _Count);

  0001b	8d 04 37	 lea	 eax, DWORD PTR [edi+esi]
  0001e	5f		 pop	 edi
  0001f	5e		 pop	 esi

; 4170 :     } else {
; 4171 :         return _Dest + (_LastPtr - _FirstPtr);
; 4172 :     }
; 4173 : }

  00020	5d		 pop	 ebp
  00021	c3		 ret	 0
??$_Copy_memmove@PAPAU?$pair@MUD3DXVECTOR3@@@std@@PAPAU12@@std@@YAPAPAU?$pair@MUD3DXVECTOR3@@@0@PAPAU10@00@Z ENDP ; std::_Copy_memmove<std::pair<float,D3DXVECTOR3> * *,std::pair<float,D3DXVECTOR3> * *>
_TEXT	ENDS
; Function compile flags: /Ogtp
; File C:\Program Files (x86)\Microsoft Visual Studio\2019\Professional\VC\Tools\MSVC\14.29.30133\include\xmemory
;	COMDAT ??$_Zero_range@PAPAU?$pair@MUD3DXVECTOR3@@@std@@@std@@YAPAPAU?$pair@MUD3DXVECTOR3@@@0@QAPAU10@0@Z
_TEXT	SEGMENT
__First$ = 8						; size = 4
__Last$ = 12						; size = 4
??$_Zero_range@PAPAU?$pair@MUD3DXVECTOR3@@@std@@@std@@YAPAPAU?$pair@MUD3DXVECTOR3@@@0@QAPAU10@0@Z PROC ; std::_Zero_range<std::pair<float,D3DXVECTOR3> * *>, COMDAT

; 1806 : _Ptr _Zero_range(const _Ptr _First, const _Ptr _Last) { // fill [_First, _Last) with zeroes

  00000	55		 push	 ebp
  00001	8b ec		 mov	 ebp, esp

; 1807 :     char* const _First_ch = reinterpret_cast<char*>(_To_address(_First));
; 1808 :     char* const _Last_ch  = reinterpret_cast<char*>(_To_address(_Last));
; 1809 :     _CSTD memset(_First_ch, 0, static_cast<size_t>(_Last_ch - _First_ch));

  00003	8b 55 08	 mov	 edx, DWORD PTR __First$[ebp]
  00006	8b 4d 0c	 mov	 ecx, DWORD PTR __Last$[ebp]
  00009	2b ca		 sub	 ecx, edx
  0000b	51		 push	 ecx
  0000c	6a 00		 push	 0
  0000e	52		 push	 edx
  0000f	e8 00 00 00 00	 call	 _memset

; 1810 :     return _Last;

  00014	8b 45 0c	 mov	 eax, DWORD PTR __Last$[ebp]
  00017	83 c4 0c	 add	 esp, 12			; 0000000cH

; 1811 : }

  0001a	5d		 pop	 ebp
  0001b	c3		 ret	 0
??$_Zero_range@PAPAU?$pair@MUD3DXVECTOR3@@@std@@@std@@YAPAPAU?$pair@MUD3DXVECTOR3@@@0@QAPAU10@0@Z ENDP ; std::_Zero_range<std::pair<float,D3DXVECTOR3> * *>
_TEXT	ENDS
; Function compile flags: /Ogtp
; File C:\Program Files (x86)\Microsoft Visual Studio\2019\Professional\VC\Tools\MSVC\14.29.30133\include\xmemory
;	COMDAT ??$_Uninitialized_value_construct_n_unchecked1@PAPAU?$pair@MUD3DXVECTOR3@@@std@@I@std@@YAPAPAU?$pair@MUD3DXVECTOR3@@@0@PAPAU10@I@Z
_TEXT	SEGMENT
__UFirst$ = 8						; size = 4
__Count$ = 12						; size = 4
??$_Uninitialized_value_construct_n_unchecked1@PAPAU?$pair@MUD3DXVECTOR3@@@std@@I@std@@YAPAPAU?$pair@MUD3DXVECTOR3@@@0@PAPAU10@I@Z PROC ; std::_Uninitialized_value_construct_n_unchecked1<std::pair<float,D3DXVECTOR3> * *,unsigned int>, COMDAT

; 1838 : _NoThrowFwdIt _Uninitialized_value_construct_n_unchecked1(_NoThrowFwdIt _UFirst, _Diff _Count) {

  00000	55		 push	 ebp
  00001	8b ec		 mov	 ebp, esp

; 1839 :     // value-initialize all elements in [_UFirst, _UFirst + _Count_raw)
; 1840 :     _STL_INTERNAL_CHECK(_Count >= 0);
; 1841 :     if constexpr (_Use_memset_value_construct_v<_NoThrowFwdIt>) {
; 1842 :         return _Zero_range(_UFirst, _UFirst + _Count);

  00003	8b 4d 08	 mov	 ecx, DWORD PTR __UFirst$[ebp]
  00006	8b 45 0c	 mov	 eax, DWORD PTR __Count$[ebp]
  00009	8d 04 81	 lea	 eax, DWORD PTR [ecx+eax*4]
  0000c	89 45 0c	 mov	 DWORD PTR __Count$[ebp], eax
  0000f	89 4d 08	 mov	 DWORD PTR __UFirst$[ebp], ecx

; 1843 :     } else {
; 1844 :         _Uninitialized_backout<_NoThrowFwdIt> _Backout{_UFirst};
; 1845 :         for (; 0 < _Count; --_Count) {
; 1846 :             _Backout._Emplace_back();
; 1847 :         }
; 1848 : 
; 1849 :         return _Backout._Release();
; 1850 :     }
; 1851 : }

  00012	5d		 pop	 ebp

; 1839 :     // value-initialize all elements in [_UFirst, _UFirst + _Count_raw)
; 1840 :     _STL_INTERNAL_CHECK(_Count >= 0);
; 1841 :     if constexpr (_Use_memset_value_construct_v<_NoThrowFwdIt>) {
; 1842 :         return _Zero_range(_UFirst, _UFirst + _Count);

  00013	e9 00 00 00 00	 jmp	 ??$_Zero_range@PAPAU?$pair@MUD3DXVECTOR3@@@std@@@std@@YAPAPAU?$pair@MUD3DXVECTOR3@@@0@QAPAU10@0@Z ; std::_Zero_range<std::pair<float,D3DXVECTOR3> * *>
??$_Uninitialized_value_construct_n_unchecked1@PAPAU?$pair@MUD3DXVECTOR3@@@std@@I@std@@YAPAPAU?$pair@MUD3DXVECTOR3@@@0@PAPAU10@I@Z ENDP ; std::_Uninitialized_value_construct_n_unchecked1<std::pair<float,D3DXVECTOR3> * *,unsigned int>
_TEXT	ENDS
; Function compile flags: /Ogtp
; File C:\Program Files (x86)\Microsoft Visual Studio\2019\Professional\VC\Tools\MSVC\14.29.30133\include\xmemory
;	COMDAT ??$uninitialized_copy@PAPAU?$pair@MUD3DXVECTOR3@@@std@@PAPAU12@@std@@YAPAPAU?$pair@MUD3DXVECTOR3@@@0@QAPAU10@0PAPAU10@@Z
_TEXT	SEGMENT
__First$ = 8						; size = 4
__Last$ = 12						; size = 4
__Dest$ = 16						; size = 4
??$uninitialized_copy@PAPAU?$pair@MUD3DXVECTOR3@@@std@@PAPAU12@@std@@YAPAPAU?$pair@MUD3DXVECTOR3@@@0@QAPAU10@0PAPAU10@@Z PROC ; std::uninitialized_copy<std::pair<float,D3DXVECTOR3> * *,std::pair<float,D3DXVECTOR3> * *>, COMDAT

; 1700 : _NoThrowFwdIt uninitialized_copy(const _InIt _First, const _InIt _Last, _NoThrowFwdIt _Dest) {

  00000	55		 push	 ebp
  00001	8b ec		 mov	 ebp, esp

; 1701 :     // copy [_First, _Last) to raw [_Dest, ...)
; 1702 :     _Adl_verify_range(_First, _Last);
; 1703 :     auto _UFirst      = _Get_unwrapped(_First);
; 1704 :     const auto _ULast = _Get_unwrapped(_Last);
; 1705 :     auto _UDest       = _Get_unwrapped_n(_Dest, _Idl_distance<_InIt>(_UFirst, _ULast));
; 1706 :     _Seek_wrapped(_Dest, _Uninitialized_copy_unchecked(_UFirst, _ULast, _UDest));
; 1707 :     return _Dest;
; 1708 : }

  00003	5d		 pop	 ebp

; 1687 :             return _Copy_memmove(_First, _Last, _Dest);

  00004	e9 00 00 00 00	 jmp	 ??$_Copy_memmove@PAPAU?$pair@MUD3DXVECTOR3@@@std@@PAPAU12@@std@@YAPAPAU?$pair@MUD3DXVECTOR3@@@0@PAPAU10@00@Z ; std::_Copy_memmove<std::pair<float,D3DXVECTOR3> * *,std::pair<float,D3DXVECTOR3> * *>
??$uninitialized_copy@PAPAU?$pair@MUD3DXVECTOR3@@@std@@PAPAU12@@std@@YAPAPAU?$pair@MUD3DXVECTOR3@@@0@QAPAU10@0PAPAU10@@Z ENDP ; std::uninitialized_copy<std::pair<float,D3DXVECTOR3> * *,std::pair<float,D3DXVECTOR3> * *>
_TEXT	ENDS
; Function compile flags: /Ogtp
; File C:\Program Files (x86)\Microsoft Visual Studio\2019\Professional\VC\Tools\MSVC\14.29.30133\include\vector
; File C:\Program Files (x86)\Microsoft Visual Studio\2019\Professional\VC\Tools\MSVC\14.29.30133\include\xmemory
; File C:\Program Files (x86)\Microsoft Visual Studio\2019\Professional\VC\Tools\MSVC\14.29.30133\include\vector
; File C:\Program Files (x86)\Microsoft Visual Studio\2019\Professional\VC\Tools\MSVC\14.29.30133\include\xmemory
; File C:\Program Files (x86)\Microsoft Visual Studio\2019\Professional\VC\Tools\MSVC\14.29.30133\include\vector
; File C:\Program Files (x86)\Microsoft Visual Studio\2019\Professional\VC\Tools\MSVC\14.29.30133\include\xmemory
; File C:\Program Files (x86)\Microsoft Visual Studio\2019\Professional\VC\Tools\MSVC\14.29.30133\include\vector
; File C:\Program Files (x86)\Microsoft Visual Studio\2019\Professional\VC\Tools\MSVC\14.29.30133\include\xmemory
; File C:\Program Files (x86)\Microsoft Visual Studio\2019\Professional\VC\Tools\MSVC\14.29.30133\include\vector
; File C:\Program Files (x86)\Microsoft Visual Studio\2019\Professional\VC\Tools\MSVC\14.29.30133\include\xmemory
; File C:\Program Files (x86)\Microsoft Visual Studio\2019\Professional\VC\Tools\MSVC\14.29.30133\include\vector
; File C:\Program Files (x86)\Microsoft Visual Studio\2019\Professional\VC\Tools\MSVC\14.29.30133\include\xmemory
; File C:\Program Files (x86)\Microsoft Visual Studio\2019\Professional\VC\Tools\MSVC\14.29.30133\include\vector
; File C:\Program Files (x86)\Microsoft Visual Studio\2019\Professional\VC\Tools\MSVC\14.29.30133\include\xmemory
; File C:\Program Files (x86)\Microsoft Visual Studio\2019\Professional\VC\Tools\MSVC\14.29.30133\include\vector
; File C:\Program Files (x86)\Microsoft Visual Studio\2019\Professional\VC\Tools\MSVC\14.29.30133\include\xmemory
; File C:\Program Files (x86)\Microsoft Visual Studio\2019\Professional\VC\Tools\MSVC\14.29.30133\include\vector
; File C:\Program Files (x86)\Microsoft Visual Studio\2019\Professional\VC\Tools\MSVC\14.29.30133\include\xmemory
; File C:\Program Files (x86)\Microsoft Visual Studio\2019\Professional\VC\Tools\MSVC\14.29.30133\include\vector
;	COMDAT ??$_Emplace_reallocate@ABQAVCWeaponTrace@@@?$vector@PAVCWeaponTrace@@V?$allocator@PAVCWeaponTrace@@@std@@@std@@QAEPAPAVCWeaponTrace@@QAPAV2@ABQAV2@@Z
_TEXT	SEGMENT
__Newsize$1$ = -8					; size = 4
tv641 = -4						; size = 4
__Whereoff$1$ = -4					; size = 4
__Whereptr$ = 8						; size = 4
_<_Val_0>$ = 12						; size = 4
??$_Emplace_reallocate@ABQAVCWeaponTrace@@@?$vector@PAVCWeaponTrace@@V?$allocator@PAVCWeaponTrace@@@std@@@std@@QAEPAPAVCWeaponTrace@@QAPAV2@ABQAV2@@Z PROC ; std::vector<CWeaponTrace *,std::allocator<CWeaponTrace *> >::_Emplace_reallocate<CWeaponTrace * const &>, COMDAT
; _this$ = ecx

; 765  :     _CONSTEXPR20_CONTAINER pointer _Emplace_reallocate(const pointer _Whereptr, _Valty&&... _Val) {

  00000	55		 push	 ebp
  00001	8b ec		 mov	 ebp, esp
  00003	83 ec 08	 sub	 esp, 8

; 766  :         // reallocate and insert by perfectly forwarding _Val at _Whereptr
; 767  :         _Alty& _Al        = _Getal();
; 768  :         auto& _My_data    = _Mypair._Myval2;
; 769  :         pointer& _Myfirst = _My_data._Myfirst;
; 770  :         pointer& _Mylast  = _My_data._Mylast;
; 771  : 
; 772  :         _STL_INTERNAL_CHECK(_Mylast == _My_data._Myend); // check that we have no unused capacity
; 773  : 
; 774  :         const auto _Whereoff = static_cast<size_type>(_Whereptr - _Myfirst);

  00006	8b 45 08	 mov	 eax, DWORD PTR __Whereptr$[ebp]
  00009	53		 push	 ebx
  0000a	56		 push	 esi
  0000b	8b f1		 mov	 esi, ecx
  0000d	57		 push	 edi
  0000e	8b 0e		 mov	 ecx, DWORD PTR [esi]
  00010	2b c1		 sub	 eax, ecx
  00012	c1 f8 02	 sar	 eax, 2
  00015	89 45 fc	 mov	 DWORD PTR __Whereoff$1$[ebp], eax

; 775  :         const auto _Oldsize  = static_cast<size_type>(_Mylast - _Myfirst);

  00018	8b 46 04	 mov	 eax, DWORD PTR [esi+4]
  0001b	2b c1		 sub	 eax, ecx
  0001d	c1 f8 02	 sar	 eax, 2

; 776  : 
; 777  :         if (_Oldsize == max_size()) {

  00020	3d ff ff ff 3f	 cmp	 eax, 1073741823		; 3fffffffH
  00025	0f 84 06 01 00
	00		 je	 $LN96@Emplace_re

; 1559 :         return static_cast<size_type>(_My_data._Myend - _My_data._Myfirst);

  0002b	8b 56 08	 mov	 edx, DWORD PTR [esi+8]

; 779  :         }
; 780  : 
; 781  :         const size_type _Newsize     = _Oldsize + 1;

  0002e	8d 78 01	 lea	 edi, DWORD PTR [eax+1]

; 1559 :         return static_cast<size_type>(_My_data._Myend - _My_data._Myfirst);

  00031	2b d1		 sub	 edx, ecx

; 779  :         }
; 780  : 
; 781  :         const size_type _Newsize     = _Oldsize + 1;

  00033	89 7d f8	 mov	 DWORD PTR __Newsize$1$[ebp], edi

; 1559 :         return static_cast<size_type>(_My_data._Myend - _My_data._Myfirst);

  00036	c1 fa 02	 sar	 edx, 2

; 1688 :         if (_Oldcapacity > _Max - _Oldcapacity / 2) {

  00039	b8 ff ff ff 3f	 mov	 eax, 1073741823		; 3fffffffH
  0003e	8b ca		 mov	 ecx, edx
  00040	d1 e9		 shr	 ecx, 1
  00042	2b c1		 sub	 eax, ecx
  00044	3b d0		 cmp	 edx, eax
  00046	76 12		 jbe	 SHORT $LN12@Emplace_re

; 1689 :             return _Max; // geometric growth would overflow

  00048	bb fc ff ff ff	 mov	 ebx, -4			; fffffffcH
; File C:\Program Files (x86)\Microsoft Visual Studio\2019\Professional\VC\Tools\MSVC\14.29.30133\include\xmemory

; 238  :             return _Allocate_manually_vector_aligned<_Traits>(_Bytes);

  0004d	53		 push	 ebx
  0004e	e8 00 00 00 00	 call	 ??$_Allocate_manually_vector_aligned@U_Default_allocate_traits@std@@@std@@YAPAXI@Z ; std::_Allocate_manually_vector_aligned<std::_Default_allocate_traits>
  00053	83 c4 04	 add	 esp, 4
  00056	8b f8		 mov	 edi, eax
  00058	eb 41		 jmp	 SHORT $LN23@Emplace_re
$LN12@Emplace_re:
; File C:\Program Files (x86)\Microsoft Visual Studio\2019\Professional\VC\Tools\MSVC\14.29.30133\include\vector

; 1692 :         const size_type _Geometric = _Oldcapacity + _Oldcapacity / 2;

  0005a	8d 04 11	 lea	 eax, DWORD PTR [ecx+edx]
; File C:\Program Files (x86)\Microsoft Visual Studio\2019\Professional\VC\Tools\MSVC\14.29.30133\include\xmemory

; 64   :         if (_Count > _Max_possible) {

  0005d	8b df		 mov	 ebx, edi
  0005f	3b c7		 cmp	 eax, edi
  00061	0f 43 d8	 cmovae	 ebx, eax
  00064	81 fb ff ff ff
	3f		 cmp	 ebx, 1073741823		; 3fffffffH
  0006a	0f 87 c6 00 00
	00		 ja	 $LN97@Emplace_re

; 66   :         }
; 67   :     }
; 68   : 
; 69   :     return _Count * _Ty_size;

  00070	c1 e3 02	 shl	 ebx, 2

; 237  :         if (_Bytes >= _Big_allocation_threshold) { // boost the alignment of big allocations to help autovectorization

  00073	81 fb 00 10 00
	00		 cmp	 ebx, 4096		; 00001000H
  00079	72 0d		 jb	 SHORT $LN24@Emplace_re

; 238  :             return _Allocate_manually_vector_aligned<_Traits>(_Bytes);

  0007b	53		 push	 ebx
  0007c	e8 00 00 00 00	 call	 ??$_Allocate_manually_vector_aligned@U_Default_allocate_traits@std@@@std@@YAPAXI@Z ; std::_Allocate_manually_vector_aligned<std::_Default_allocate_traits>
  00081	83 c4 04	 add	 esp, 4
  00084	8b f8		 mov	 edi, eax
  00086	eb 13		 jmp	 SHORT $LN23@Emplace_re
$LN24@Emplace_re:

; 239  :         }
; 240  :     }
; 241  : #endif // defined(_M_IX86) || defined(_M_X64)
; 242  : 
; 243  :     if (_Bytes != 0) {

  00088	85 db		 test	 ebx, ebx
  0008a	74 0d		 je	 SHORT $LN25@Emplace_re

; 85   :         return ::operator new(_Bytes);

  0008c	53		 push	 ebx
  0008d	e8 00 00 00 00	 call	 ??2@YAPAXI@Z		; operator new
  00092	83 c4 04	 add	 esp, 4

; 244  :         return _Traits::_Allocate(_Bytes);

  00095	8b f8		 mov	 edi, eax
  00097	eb 02		 jmp	 SHORT $LN23@Emplace_re
$LN25@Emplace_re:

; 245  :     }
; 246  : 
; 247  :     return nullptr;

  00099	33 ff		 xor	 edi, edi
$LN23@Emplace_re:
; File C:\Program Files (x86)\Microsoft Visual Studio\2019\Professional\VC\Tools\MSVC\14.29.30133\include\vector

; 789  :         _Alty_traits::construct(_Al, _Unfancy(_Newvec + _Whereoff), _STD forward<_Valty>(_Val)...);

  0009b	8b 45 fc	 mov	 eax, DWORD PTR __Whereoff$1$[ebp]
  0009e	8d 0c 87	 lea	 ecx, DWORD PTR [edi+eax*4]
  000a1	8b 45 0c	 mov	 eax, DWORD PTR _<_Val_0>$[ebp]
  000a4	89 4d fc	 mov	 DWORD PTR tv641[ebp], ecx
  000a7	8b 00		 mov	 eax, DWORD PTR [eax]
  000a9	89 01		 mov	 DWORD PTR [ecx], eax

; 790  :         _Constructed_first = _Newvec + _Whereoff;
; 791  : 
; 792  :         if (_Whereptr == _Mylast) { // at back, provide strong guarantee

  000ab	8b 4e 04	 mov	 ecx, DWORD PTR [esi+4]
  000ae	8b 45 08	 mov	 eax, DWORD PTR __Whereptr$[ebp]
  000b1	8b 16		 mov	 edx, DWORD PTR [esi]
  000b3	3b c1		 cmp	 eax, ecx
  000b5	75 04		 jne	 SHORT $LN4@Emplace_re
; File C:\Program Files (x86)\Microsoft Visual Studio\2019\Professional\VC\Tools\MSVC\14.29.30133\include\xmemory

; 1725 :             _Copy_memmove(_UFirst, _ULast, _Unfancy(_Dest));

  000b7	8b c7		 mov	 eax, edi
; File C:\Program Files (x86)\Microsoft Visual Studio\2019\Professional\VC\Tools\MSVC\14.29.30133\include\vector

; 794  :         } else { // provide basic guarantee

  000b9	eb 17		 jmp	 SHORT $LN60@Emplace_re
$LN4@Emplace_re:
; File C:\Program Files (x86)\Microsoft Visual Studio\2019\Professional\VC\Tools\MSVC\14.29.30133\include\xmemory

; 1725 :             _Copy_memmove(_UFirst, _ULast, _Unfancy(_Dest));

  000bb	57		 push	 edi
  000bc	50		 push	 eax
  000bd	52		 push	 edx
  000be	e8 00 00 00 00	 call	 ??$_Copy_memmove@PAPAVCWeaponTrace@@PAPAV1@@std@@YAPAPAVCWeaponTrace@@PAPAV1@00@Z ; std::_Copy_memmove<CWeaponTrace * *,CWeaponTrace * *>
; File C:\Program Files (x86)\Microsoft Visual Studio\2019\Professional\VC\Tools\MSVC\14.29.30133\include\vector

; 797  :             _Umove(_Whereptr, _Mylast, _Newvec + _Whereoff + 1);

  000c3	8b 45 fc	 mov	 eax, DWORD PTR tv641[ebp]
; File C:\Program Files (x86)\Microsoft Visual Studio\2019\Professional\VC\Tools\MSVC\14.29.30133\include\xmemory

; 1725 :             _Copy_memmove(_UFirst, _ULast, _Unfancy(_Dest));

  000c6	83 c4 0c	 add	 esp, 12			; 0000000cH
  000c9	8b 55 08	 mov	 edx, DWORD PTR __Whereptr$[ebp]
; File C:\Program Files (x86)\Microsoft Visual Studio\2019\Professional\VC\Tools\MSVC\14.29.30133\include\vector

; 797  :             _Umove(_Whereptr, _Mylast, _Newvec + _Whereoff + 1);

  000cc	83 c0 04	 add	 eax, 4
; File C:\Program Files (x86)\Microsoft Visual Studio\2019\Professional\VC\Tools\MSVC\14.29.30133\include\xmemory

; 1725 :             _Copy_memmove(_UFirst, _ULast, _Unfancy(_Dest));

  000cf	8b 4e 04	 mov	 ecx, DWORD PTR [esi+4]
$LN60@Emplace_re:
; File C:\Program Files (x86)\Microsoft Visual Studio\2019\Professional\VC\Tools\MSVC\14.29.30133\include\vector

; 797  :             _Umove(_Whereptr, _Mylast, _Newvec + _Whereoff + 1);

  000d2	50		 push	 eax
  000d3	51		 push	 ecx
  000d4	52		 push	 edx
  000d5	e8 00 00 00 00	 call	 ??$_Copy_memmove@PAPAVCWeaponTrace@@PAPAV1@@std@@YAPAPAVCWeaponTrace@@PAPAV1@00@Z ; std::_Copy_memmove<CWeaponTrace * *,CWeaponTrace * *>

; 1745 :         if (_Myfirst) { // destroy and deallocate old array

  000da	8b 06		 mov	 eax, DWORD PTR [esi]

; 797  :             _Umove(_Whereptr, _Mylast, _Newvec + _Whereoff + 1);

  000dc	83 c4 0c	 add	 esp, 12			; 0000000cH

; 1745 :         if (_Myfirst) { // destroy and deallocate old array

  000df	85 c0		 test	 eax, eax
  000e1	74 2c		 je	 SHORT $LN78@Emplace_re

; 1746 :             _Destroy(_Myfirst, _Mylast);
; 1747 :             _Getal().deallocate(_Myfirst, static_cast<size_type>(_Myend - _Myfirst));

  000e3	8b 4e 08	 mov	 ecx, DWORD PTR [esi+8]
  000e6	2b c8		 sub	 ecx, eax
; File C:\Program Files (x86)\Microsoft Visual Studio\2019\Professional\VC\Tools\MSVC\14.29.30133\include\xmemory

; 835  :         _Deallocate<_New_alignof<_Ty>>(_Ptr, sizeof(_Ty) * _Count);

  000e8	83 e1 fc	 and	 ecx, -4			; fffffffcH

; 260  :         if (_Bytes >= _Big_allocation_threshold) { // boost the alignment of big allocations to help autovectorization

  000eb	81 f9 00 10 00
	00		 cmp	 ecx, 4096		; 00001000H
  000f1	72 12		 jb	 SHORT $LN88@Emplace_re

; 158  :     const uintptr_t _Ptr_container   = _Ptr_user[-1];

  000f3	8b 50 fc	 mov	 edx, DWORD PTR [eax-4]
  000f6	83 c1 23	 add	 ecx, 35			; 00000023H

; 159  : 
; 160  :     // If the following asserts, it likely means that we are performing
; 161  :     // an aligned delete on memory coming from an unaligned allocation.
; 162  :     _STL_ASSERT(_Ptr_user[-2] == _Big_allocation_sentinel, "invalid argument");
; 163  : 
; 164  :     // Extra paranoia on aligned allocation/deallocation; ensure _Ptr_container is
; 165  :     // in range [_Min_back_shift, _Non_user_size]
; 166  : #ifdef _DEBUG
; 167  :     constexpr uintptr_t _Min_back_shift = 2 * sizeof(void*);
; 168  : #else // ^^^ _DEBUG ^^^ // vvv !_DEBUG vvv
; 169  :     constexpr uintptr_t _Min_back_shift = sizeof(void*);
; 170  : #endif // _DEBUG
; 171  :     const uintptr_t _Back_shift = reinterpret_cast<uintptr_t>(_Ptr) - _Ptr_container;

  000f9	2b c2		 sub	 eax, edx

; 172  :     _STL_VERIFY(_Back_shift >= _Min_back_shift && _Back_shift <= _Non_user_size, "invalid argument");

  000fb	83 c0 fc	 add	 eax, -4			; fffffffcH
  000fe	83 f8 1f	 cmp	 eax, 31			; 0000001fH
  00101	77 29		 ja	 SHORT $LN85@Emplace_re

; 173  :     _Ptr = reinterpret_cast<void*>(_Ptr_container);

  00103	8b c2		 mov	 eax, edx
$LN88@Emplace_re:

; 264  :         ::operator delete(_Ptr, _Bytes);

  00105	51		 push	 ecx
  00106	50		 push	 eax
  00107	e8 00 00 00 00	 call	 ??3@YAXPAXI@Z		; operator delete
  0010c	83 c4 08	 add	 esp, 8
$LN78@Emplace_re:
; File C:\Program Files (x86)\Microsoft Visual Studio\2019\Professional\VC\Tools\MSVC\14.29.30133\include\vector

; 1751 :         _Mylast  = _Newvec + _Newsize;

  0010f	8b 45 f8	 mov	 eax, DWORD PTR __Newsize$1$[ebp]
  00112	89 3e		 mov	 DWORD PTR [esi], edi
  00114	8d 0c 87	 lea	 ecx, DWORD PTR [edi+eax*4]

; 798  :         }
; 799  :         _CATCH_ALL
; 800  :         _Destroy(_Constructed_first, _Constructed_last);
; 801  :         _Al.deallocate(_Newvec, _Newcapacity);
; 802  :         _RERAISE;
; 803  :         _CATCH_END
; 804  : 
; 805  :         _Change_array(_Newvec, _Newsize, _Newcapacity);
; 806  :         return _Newvec + _Whereoff;

  00117	8b 45 fc	 mov	 eax, DWORD PTR tv641[ebp]

; 1751 :         _Mylast  = _Newvec + _Newsize;

  0011a	89 4e 04	 mov	 DWORD PTR [esi+4], ecx

; 1752 :         _Myend   = _Newvec + _Newcapacity;

  0011d	8d 0c 3b	 lea	 ecx, DWORD PTR [ebx+edi]

; 798  :         }
; 799  :         _CATCH_ALL
; 800  :         _Destroy(_Constructed_first, _Constructed_last);
; 801  :         _Al.deallocate(_Newvec, _Newcapacity);
; 802  :         _RERAISE;
; 803  :         _CATCH_END
; 804  : 
; 805  :         _Change_array(_Newvec, _Newsize, _Newcapacity);
; 806  :         return _Newvec + _Whereoff;

  00120	5f		 pop	 edi

; 1752 :         _Myend   = _Newvec + _Newcapacity;

  00121	89 4e 08	 mov	 DWORD PTR [esi+8], ecx

; 798  :         }
; 799  :         _CATCH_ALL
; 800  :         _Destroy(_Constructed_first, _Constructed_last);
; 801  :         _Al.deallocate(_Newvec, _Newcapacity);
; 802  :         _RERAISE;
; 803  :         _CATCH_END
; 804  : 
; 805  :         _Change_array(_Newvec, _Newsize, _Newcapacity);
; 806  :         return _Newvec + _Whereoff;

  00124	5e		 pop	 esi
  00125	5b		 pop	 ebx

; 807  :     }

  00126	8b e5		 mov	 esp, ebp
  00128	5d		 pop	 ebp
  00129	c2 08 00	 ret	 8
$LN85@Emplace_re:
; File C:\Program Files (x86)\Microsoft Visual Studio\2019\Professional\VC\Tools\MSVC\14.29.30133\include\xmemory

; 172  :     _STL_VERIFY(_Back_shift >= _Min_back_shift && _Back_shift <= _Non_user_size, "invalid argument");

  0012c	e8 00 00 00 00	 call	 __invalid_parameter_noinfo_noreturn
$LN96@Emplace_re:
; File C:\Program Files (x86)\Microsoft Visual Studio\2019\Professional\VC\Tools\MSVC\14.29.30133\include\vector

; 778  :             _Xlength();

  00131	e8 00 00 00 00	 call	 ?_Xlength@?$vector@PAVCWeaponTrace@@V?$allocator@PAVCWeaponTrace@@@std@@@std@@CAXXZ ; std::vector<CWeaponTrace *,std::allocator<CWeaponTrace *> >::_Xlength
$LN97@Emplace_re:
; File C:\Program Files (x86)\Microsoft Visual Studio\2019\Professional\VC\Tools\MSVC\14.29.30133\include\xmemory

; 65   :             _Throw_bad_array_new_length(); // multiply overflow

  00136	e8 00 00 00 00	 call	 ?_Throw_bad_array_new_length@std@@YAXXZ ; std::_Throw_bad_array_new_length
$LN94@Emplace_re:
  0013b	cc		 int	 3
??$_Emplace_reallocate@ABQAVCWeaponTrace@@@?$vector@PAVCWeaponTrace@@V?$allocator@PAVCWeaponTrace@@@std@@@std@@QAEPAPAVCWeaponTrace@@QAPAV2@ABQAV2@@Z ENDP ; std::vector<CWeaponTrace *,std::allocator<CWeaponTrace *> >::_Emplace_reallocate<CWeaponTrace * const &>
_TEXT	ENDS
; Function compile flags: /Ogtp
; File C:\Program Files (x86)\Microsoft Visual Studio\2019\Professional\VC\Tools\MSVC\14.29.30133\include\vector
; File C:\Program Files (x86)\Microsoft Visual Studio\2019\Professional\VC\Tools\MSVC\14.29.30133\include\xmemory
; File C:\Program Files (x86)\Microsoft Visual Studio\2019\Professional\VC\Tools\MSVC\14.29.30133\include\vector
; File C:\Program Files (x86)\Microsoft Visual Studio\2019\Professional\VC\Tools\MSVC\14.29.30133\include\xmemory
; File C:\Program Files (x86)\Microsoft Visual Studio\2019\Professional\VC\Tools\MSVC\14.29.30133\include\vector
; File C:\Program Files (x86)\Microsoft Visual Studio\2019\Professional\VC\Tools\MSVC\14.29.30133\include\xmemory
; File C:\Program Files (x86)\Microsoft Visual Studio\2019\Professional\VC\Tools\MSVC\14.29.30133\include\vector
; File C:\Program Files (x86)\Microsoft Visual Studio\2019\Professional\VC\Tools\MSVC\14.29.30133\include\xmemory
; File C:\Program Files (x86)\Microsoft Visual Studio\2019\Professional\VC\Tools\MSVC\14.29.30133\include\vector
; File C:\Program Files (x86)\Microsoft Visual Studio\2019\Professional\VC\Tools\MSVC\14.29.30133\include\xmemory
; File C:\Program Files (x86)\Microsoft Visual Studio\2019\Professional\VC\Tools\MSVC\14.29.30133\include\vector
; File C:\Program Files (x86)\Microsoft Visual Studio\2019\Professional\VC\Tools\MSVC\14.29.30133\include\xmemory
; File C:\Program Files (x86)\Microsoft Visual Studio\2019\Professional\VC\Tools\MSVC\14.29.30133\include\vector
; File C:\Program Files (x86)\Microsoft Visual Studio\2019\Professional\VC\Tools\MSVC\14.29.30133\include\xmemory
; File C:\Program Files (x86)\Microsoft Visual Studio\2019\Professional\VC\Tools\MSVC\14.29.30133\include\vector
; File C:\Program Files (x86)\Microsoft Visual Studio\2019\Professional\VC\Tools\MSVC\14.29.30133\include\xmemory
; File C:\Program Files (x86)\Microsoft Visual Studio\2019\Professional\VC\Tools\MSVC\14.29.30133\include\vector
; File C:\Program Files (x86)\Microsoft Visual Studio\2019\Professional\VC\Tools\MSVC\14.29.30133\include\xmemory
; File C:\Program Files (x86)\Microsoft Visual Studio\2019\Professional\VC\Tools\MSVC\14.29.30133\include\vector
; File C:\Program Files (x86)\Microsoft Visual Studio\2019\Professional\VC\Tools\MSVC\14.29.30133\include\xmemory
; File C:\Program Files (x86)\Microsoft Visual Studio\2019\Professional\VC\Tools\MSVC\14.29.30133\include\vector
;	COMDAT ??$_Emplace_reallocate@ABUSPDTVertex@@@?$vector@USPDTVertex@@V?$allocator@USPDTVertex@@@std@@@std@@QAEPAUSPDTVertex@@QAU2@ABU2@@Z
_TEXT	SEGMENT
tv654 = -8						; size = 4
__Whereoff$1$ = -8					; size = 4
_this$1$ = -4						; size = 4
__Newsize$1$ = 8					; size = 4
__Whereptr$ = 8						; size = 4
_<_Val_0>$ = 12						; size = 4
??$_Emplace_reallocate@ABUSPDTVertex@@@?$vector@USPDTVertex@@V?$allocator@USPDTVertex@@@std@@@std@@QAEPAUSPDTVertex@@QAU2@ABU2@@Z PROC ; std::vector<SPDTVertex,std::allocator<SPDTVertex> >::_Emplace_reallocate<SPDTVertex const &>, COMDAT
; _this$ = ecx

; 765  :     _CONSTEXPR20_CONTAINER pointer _Emplace_reallocate(const pointer _Whereptr, _Valty&&... _Val) {

  00000	55		 push	 ebp
  00001	8b ec		 mov	 ebp, esp
  00003	83 ec 08	 sub	 esp, 8
  00006	53		 push	 ebx
  00007	8b d9		 mov	 ebx, ecx

; 766  :         // reallocate and insert by perfectly forwarding _Val at _Whereptr
; 767  :         _Alty& _Al        = _Getal();
; 768  :         auto& _My_data    = _Mypair._Myval2;
; 769  :         pointer& _Myfirst = _My_data._Myfirst;
; 770  :         pointer& _Mylast  = _My_data._Mylast;
; 771  : 
; 772  :         _STL_INTERNAL_CHECK(_Mylast == _My_data._Myend); // check that we have no unused capacity
; 773  : 
; 774  :         const auto _Whereoff = static_cast<size_type>(_Whereptr - _Myfirst);

  00009	b8 ab aa aa 2a	 mov	 eax, 715827883		; 2aaaaaabH
  0000e	56		 push	 esi
  0000f	8b 75 08	 mov	 esi, DWORD PTR __Whereptr$[ebp]
  00012	8b d6		 mov	 edx, esi
  00014	57		 push	 edi
  00015	8b 3b		 mov	 edi, DWORD PTR [ebx]
  00017	2b d7		 sub	 edx, edi

; 775  :         const auto _Oldsize  = static_cast<size_type>(_Mylast - _Myfirst);

  00019	8b 4b 04	 mov	 ecx, DWORD PTR [ebx+4]
  0001c	f7 ea		 imul	 edx
  0001e	2b cf		 sub	 ecx, edi
  00020	89 5d fc	 mov	 DWORD PTR _this$1$[ebp], ebx
  00023	c1 fa 02	 sar	 edx, 2
  00026	8b c2		 mov	 eax, edx
  00028	c1 e8 1f	 shr	 eax, 31			; 0000001fH
  0002b	03 c2		 add	 eax, edx
  0002d	89 45 f8	 mov	 DWORD PTR __Whereoff$1$[ebp], eax
  00030	b8 ab aa aa 2a	 mov	 eax, 715827883		; 2aaaaaabH
  00035	f7 e9		 imul	 ecx
  00037	c1 fa 02	 sar	 edx, 2
  0003a	8b c2		 mov	 eax, edx
  0003c	c1 e8 1f	 shr	 eax, 31			; 0000001fH
  0003f	03 c2		 add	 eax, edx

; 776  : 
; 777  :         if (_Oldsize == max_size()) {

  00041	3d aa aa aa 0a	 cmp	 eax, 178956970		; 0aaaaaaaH
  00046	0f 84 90 01 00
	00		 je	 $LN116@Emplace_re

; 1559 :         return static_cast<size_type>(_My_data._Myend - _My_data._Myfirst);

  0004c	8b 4b 08	 mov	 ecx, DWORD PTR [ebx+8]

; 779  :         }
; 780  : 
; 781  :         const size_type _Newsize     = _Oldsize + 1;

  0004f	40		 inc	 eax
  00050	89 45 08	 mov	 DWORD PTR __Newsize$1$[ebp], eax

; 1559 :         return static_cast<size_type>(_My_data._Myend - _My_data._Myfirst);

  00053	2b cf		 sub	 ecx, edi
  00055	b8 ab aa aa 2a	 mov	 eax, 715827883		; 2aaaaaabH
  0005a	f7 e9		 imul	 ecx

; 1688 :         if (_Oldcapacity > _Max - _Oldcapacity / 2) {

  0005c	b8 aa aa aa 0a	 mov	 eax, 178956970		; 0aaaaaaaH

; 1559 :         return static_cast<size_type>(_My_data._Myend - _My_data._Myfirst);

  00061	c1 fa 02	 sar	 edx, 2
  00064	8b ca		 mov	 ecx, edx
  00066	c1 e9 1f	 shr	 ecx, 31			; 0000001fH
  00069	03 ca		 add	 ecx, edx

; 1688 :         if (_Oldcapacity > _Max - _Oldcapacity / 2) {

  0006b	8b d1		 mov	 edx, ecx
  0006d	d1 ea		 shr	 edx, 1
  0006f	2b c2		 sub	 eax, edx
  00071	3b c8		 cmp	 ecx, eax
  00073	76 12		 jbe	 SHORT $LN12@Emplace_re

; 1689 :             return _Max; // geometric growth would overflow

  00075	bf f0 ff ff ff	 mov	 edi, -16		; fffffff0H
; File C:\Program Files (x86)\Microsoft Visual Studio\2019\Professional\VC\Tools\MSVC\14.29.30133\include\xmemory

; 238  :             return _Allocate_manually_vector_aligned<_Traits>(_Bytes);

  0007a	57		 push	 edi
  0007b	e8 00 00 00 00	 call	 ??$_Allocate_manually_vector_aligned@U_Default_allocate_traits@std@@@std@@YAPAXI@Z ; std::_Allocate_manually_vector_aligned<std::_Default_allocate_traits>
  00080	83 c4 04	 add	 esp, 4
  00083	8b d8		 mov	 ebx, eax
  00085	eb 45		 jmp	 SHORT $LN23@Emplace_re
$LN12@Emplace_re:
; File C:\Program Files (x86)\Microsoft Visual Studio\2019\Professional\VC\Tools\MSVC\14.29.30133\include\vector

; 1692 :         const size_type _Geometric = _Oldcapacity + _Oldcapacity / 2;

  00087	8d 04 0a	 lea	 eax, DWORD PTR [edx+ecx]
; File C:\Program Files (x86)\Microsoft Visual Studio\2019\Professional\VC\Tools\MSVC\14.29.30133\include\xmemory

; 64   :         if (_Count > _Max_possible) {

  0008a	8b 4d 08	 mov	 ecx, DWORD PTR __Newsize$1$[ebp]
  0008d	3b c1		 cmp	 eax, ecx
  0008f	0f 43 c8	 cmovae	 ecx, eax
  00092	81 f9 aa aa aa
	0a		 cmp	 ecx, 178956970		; 0aaaaaaaH
  00098	0f 87 43 01 00
	00		 ja	 $LN117@Emplace_re

; 66   :         }
; 67   :     }
; 68   : 
; 69   :     return _Count * _Ty_size;

  0009e	8d 3c 49	 lea	 edi, DWORD PTR [ecx+ecx*2]
  000a1	c1 e7 03	 shl	 edi, 3

; 237  :         if (_Bytes >= _Big_allocation_threshold) { // boost the alignment of big allocations to help autovectorization

  000a4	81 ff 00 10 00
	00		 cmp	 edi, 4096		; 00001000H
  000aa	72 0d		 jb	 SHORT $LN24@Emplace_re

; 238  :             return _Allocate_manually_vector_aligned<_Traits>(_Bytes);

  000ac	57		 push	 edi
  000ad	e8 00 00 00 00	 call	 ??$_Allocate_manually_vector_aligned@U_Default_allocate_traits@std@@@std@@YAPAXI@Z ; std::_Allocate_manually_vector_aligned<std::_Default_allocate_traits>
  000b2	83 c4 04	 add	 esp, 4
  000b5	8b d8		 mov	 ebx, eax
  000b7	eb 13		 jmp	 SHORT $LN23@Emplace_re
$LN24@Emplace_re:

; 239  :         }
; 240  :     }
; 241  : #endif // defined(_M_IX86) || defined(_M_X64)
; 242  : 
; 243  :     if (_Bytes != 0) {

  000b9	85 ff		 test	 edi, edi
  000bb	74 0d		 je	 SHORT $LN25@Emplace_re

; 85   :         return ::operator new(_Bytes);

  000bd	57		 push	 edi
  000be	e8 00 00 00 00	 call	 ??2@YAPAXI@Z		; operator new
  000c3	83 c4 04	 add	 esp, 4

; 244  :         return _Traits::_Allocate(_Bytes);

  000c6	8b d8		 mov	 ebx, eax
  000c8	eb 02		 jmp	 SHORT $LN23@Emplace_re
$LN25@Emplace_re:

; 245  :     }
; 246  : 
; 247  :     return nullptr;

  000ca	33 db		 xor	 ebx, ebx
$LN23@Emplace_re:
; File C:\Program Files (x86)\Microsoft Visual Studio\2019\Professional\VC\Tools\MSVC\14.29.30133\include\vector

; 789  :         _Alty_traits::construct(_Al, _Unfancy(_Newvec + _Whereoff), _STD forward<_Valty>(_Val)...);

  000cc	8b 45 f8	 mov	 eax, DWORD PTR __Whereoff$1$[ebp]
  000cf	8d 04 40	 lea	 eax, DWORD PTR [eax+eax*2]
  000d2	8d 0c c3	 lea	 ecx, DWORD PTR [ebx+eax*8]
; File C:\Program Files (x86)\Microsoft Visual Studio\2019\Professional\VC\Tools\MSVC\14.29.30133\include\xmemory

; 714  :             ::new (_Voidify_iter(_Ptr)) _Objty(_STD forward<_Types>(_Args)...);

  000d5	8b 45 0c	 mov	 eax, DWORD PTR _<_Val_0>$[ebp]
; File C:\Program Files (x86)\Microsoft Visual Studio\2019\Professional\VC\Tools\MSVC\14.29.30133\include\vector

; 789  :         _Alty_traits::construct(_Al, _Unfancy(_Newvec + _Whereoff), _STD forward<_Valty>(_Val)...);

  000d8	89 4d f8	 mov	 DWORD PTR tv654[ebp], ecx
; File C:\Program Files (x86)\Microsoft Visual Studio\2019\Professional\VC\Tools\MSVC\14.29.30133\include\xmemory

; 714  :             ::new (_Voidify_iter(_Ptr)) _Objty(_STD forward<_Types>(_Args)...);

  000db	0f 10 00	 movups	 xmm0, XMMWORD PTR [eax]
  000de	0f 11 01	 movups	 XMMWORD PTR [ecx], xmm0
  000e1	f3 0f 7e 40 10	 movq	 xmm0, QWORD PTR [eax+16]
; File C:\Program Files (x86)\Microsoft Visual Studio\2019\Professional\VC\Tools\MSVC\14.29.30133\include\vector

; 792  :         if (_Whereptr == _Mylast) { // at back, provide strong guarantee

  000e6	8b 45 fc	 mov	 eax, DWORD PTR _this$1$[ebp]
; File C:\Program Files (x86)\Microsoft Visual Studio\2019\Professional\VC\Tools\MSVC\14.29.30133\include\xmemory

; 714  :             ::new (_Voidify_iter(_Ptr)) _Objty(_STD forward<_Types>(_Args)...);

  000e9	66 0f d6 41 10	 movq	 QWORD PTR [ecx+16], xmm0
; File C:\Program Files (x86)\Microsoft Visual Studio\2019\Professional\VC\Tools\MSVC\14.29.30133\include\vector

; 792  :         if (_Whereptr == _Mylast) { // at back, provide strong guarantee

  000ee	8b cb		 mov	 ecx, ebx
  000f0	8b 50 04	 mov	 edx, DWORD PTR [eax+4]
  000f3	8b 00		 mov	 eax, DWORD PTR [eax]
  000f5	3b f2		 cmp	 esi, edx
  000f7	75 24		 jne	 SHORT $LN4@Emplace_re
; File C:\Program Files (x86)\Microsoft Visual Studio\2019\Professional\VC\Tools\MSVC\14.29.30133\include\xmemory

; 1731 :     for (; _UFirst != _ULast; ++_UFirst) {

  000f9	3b c2		 cmp	 eax, edx
  000fb	74 6e		 je	 SHORT $LN68@Emplace_re
  000fd	0f 1f 00	 npad	 3
$LL39@Emplace_re:

; 714  :             ::new (_Voidify_iter(_Ptr)) _Objty(_STD forward<_Types>(_Args)...);

  00100	0f 10 00	 movups	 xmm0, XMMWORD PTR [eax]

; 1632 :         ++_Last;

  00103	8d 49 18	 lea	 ecx, DWORD PTR [ecx+24]

; 714  :             ::new (_Voidify_iter(_Ptr)) _Objty(_STD forward<_Types>(_Args)...);

  00106	0f 11 41 e8	 movups	 XMMWORD PTR [ecx-24], xmm0
  0010a	f3 0f 7e 40 10	 movq	 xmm0, QWORD PTR [eax+16]

; 1731 :     for (; _UFirst != _ULast; ++_UFirst) {

  0010f	83 c0 18	 add	 eax, 24			; 00000018H

; 714  :             ::new (_Voidify_iter(_Ptr)) _Objty(_STD forward<_Types>(_Args)...);

  00112	66 0f d6 41 f8	 movq	 QWORD PTR [ecx-8], xmm0

; 1731 :     for (; _UFirst != _ULast; ++_UFirst) {

  00117	3b c2		 cmp	 eax, edx
  00119	75 e5		 jne	 SHORT $LL39@Emplace_re
; File C:\Program Files (x86)\Microsoft Visual Studio\2019\Professional\VC\Tools\MSVC\14.29.30133\include\vector

; 794  :         } else { // provide basic guarantee

  0011b	eb 4e		 jmp	 SHORT $LN68@Emplace_re
$LN4@Emplace_re:
; File C:\Program Files (x86)\Microsoft Visual Studio\2019\Professional\VC\Tools\MSVC\14.29.30133\include\xmemory

; 1731 :     for (; _UFirst != _ULast; ++_UFirst) {

  0011d	3b c6		 cmp	 eax, esi
  0011f	74 21		 je	 SHORT $LN53@Emplace_re
$LL54@Emplace_re:

; 714  :             ::new (_Voidify_iter(_Ptr)) _Objty(_STD forward<_Types>(_Args)...);

  00121	0f 10 00	 movups	 xmm0, XMMWORD PTR [eax]

; 1632 :         ++_Last;

  00124	8d 49 18	 lea	 ecx, DWORD PTR [ecx+24]

; 714  :             ::new (_Voidify_iter(_Ptr)) _Objty(_STD forward<_Types>(_Args)...);

  00127	0f 11 41 e8	 movups	 XMMWORD PTR [ecx-24], xmm0
  0012b	f3 0f 7e 40 10	 movq	 xmm0, QWORD PTR [eax+16]

; 1731 :     for (; _UFirst != _ULast; ++_UFirst) {

  00130	83 c0 18	 add	 eax, 24			; 00000018H

; 714  :             ::new (_Voidify_iter(_Ptr)) _Objty(_STD forward<_Types>(_Args)...);

  00133	66 0f d6 41 f8	 movq	 QWORD PTR [ecx-8], xmm0

; 1731 :     for (; _UFirst != _ULast; ++_UFirst) {

  00138	3b c6		 cmp	 eax, esi
  0013a	75 e5		 jne	 SHORT $LL54@Emplace_re
  0013c	8b 55 fc	 mov	 edx, DWORD PTR _this$1$[ebp]
  0013f	8b 52 04	 mov	 edx, DWORD PTR [edx+4]
$LN53@Emplace_re:
  00142	3b f2		 cmp	 esi, edx
  00144	74 25		 je	 SHORT $LN68@Emplace_re

; 1633 :     }
; 1634 : 
; 1635 :     constexpr pointer _Release() { // suppress any exception handling backout and return _Last
; 1636 :         _First = _Last;
; 1637 :         return _Last;
; 1638 :     }
; 1639 : 
; 1640 : private:
; 1641 :     pointer _First;
; 1642 :     pointer _Last;
; 1643 :     _Alloc& _Al;
; 1644 : };
; 1645 : 
; 1646 : // FUNCTION TEMPLATE _Uninitialized_copy WITH ALLOCATOR
; 1647 : template <class _InIt, class _Alloc>
; 1648 : _CONSTEXPR20_DYNALLOC _Alloc_ptr_t<_Alloc> _Uninitialized_copy(
; 1649 :     const _InIt _First, const _InIt _Last, _Alloc_ptr_t<_Alloc> _Dest, _Alloc& _Al) {
; 1650 :     // copy [_First, _Last) to raw _Dest, using _Al
; 1651 :     // note: only called internally from elsewhere in the STL
; 1652 :     using _Ptrval = typename _Alloc::value_type*;
; 1653 : 
; 1654 :     auto _UFirst      = _Get_unwrapped(_First);
; 1655 :     const auto _ULast = _Get_unwrapped(_Last);
; 1656 : 
; 1657 :     if constexpr (conjunction_v<bool_constant<_Ptr_copy_cat<decltype(_UFirst), _Ptrval>::_Really_trivial>,
; 1658 :                       _Uses_default_construct<_Alloc, _Ptrval, decltype(*_UFirst)>>) {
; 1659 : #ifdef __cpp_lib_constexpr_dynamic_alloc
; 1660 :         if (!_STD is_constant_evaluated())
; 1661 : #endif // __cpp_lib_constexpr_dynamic_alloc
; 1662 :         {
; 1663 :             _Copy_memmove(_UFirst, _ULast, _Unfancy(_Dest));
; 1664 :             _Dest += _ULast - _UFirst;
; 1665 :             return _Dest;
; 1666 :         }
; 1667 :     }
; 1668 : 
; 1669 :     _Uninitialized_backout_al<_Alloc> _Backout{_Dest, _Al};
; 1670 :     for (; _UFirst != _ULast; ++_UFirst) {
; 1671 :         _Backout._Emplace_back(*_UFirst);
; 1672 :     }
; 1673 : 
; 1674 :     return _Backout._Release();
; 1675 : }
; 1676 : 
; 1677 : // FUNCTION TEMPLATE uninitialized_copy
; 1678 : template <class _InIt, class _NoThrowFwdIt>
; 1679 : _CONSTEXPR20_DYNALLOC _NoThrowFwdIt _Uninitialized_copy_unchecked(
; 1680 :     _InIt _First, const _InIt _Last, _NoThrowFwdIt _Dest) {
; 1681 :     // copy [_First, _Last) to raw [_Dest, ...)
; 1682 :     if constexpr (_Ptr_copy_cat<_InIt, _NoThrowFwdIt>::_Really_trivial) {
; 1683 : #ifdef __cpp_lib_constexpr_dynamic_alloc
; 1684 :         if (!_STD is_constant_evaluated())
; 1685 : #endif // __cpp_lib_constexpr_dynamic_alloc
; 1686 :         {
; 1687 :             return _Copy_memmove(_First, _Last, _Dest);
; 1688 :         }
; 1689 :     }
; 1690 : 
; 1691 :     _Uninitialized_backout<_NoThrowFwdIt> _Backout{_Dest};
; 1692 :     for (; _First != _Last; ++_First) {
; 1693 :         _Backout._Emplace_back(*_First);
; 1694 :     }
; 1695 : 
; 1696 :     return _Backout._Release();
; 1697 : }
; 1698 : 
; 1699 : template <class _InIt, class _NoThrowFwdIt>
; 1700 : _NoThrowFwdIt uninitialized_copy(const _InIt _First, const _InIt _Last, _NoThrowFwdIt _Dest) {
; 1701 :     // copy [_First, _Last) to raw [_Dest, ...)
; 1702 :     _Adl_verify_range(_First, _Last);
; 1703 :     auto _UFirst      = _Get_unwrapped(_First);
; 1704 :     const auto _ULast = _Get_unwrapped(_Last);
; 1705 :     auto _UDest       = _Get_unwrapped_n(_Dest, _Idl_distance<_InIt>(_UFirst, _ULast));
; 1706 :     _Seek_wrapped(_Dest, _Uninitialized_copy_unchecked(_UFirst, _ULast, _UDest));
; 1707 :     return _Dest;
; 1708 : }
; 1709 : 
; 1710 : // FUNCTION TEMPLATE _Uninitialized_move WITH ALLOCATOR
; 1711 : template <class _InIt, class _Alloc>
; 1712 : _CONSTEXPR20_DYNALLOC _Alloc_ptr_t<_Alloc> _Uninitialized_move(
; 1713 :     const _InIt _First, const _InIt _Last, _Alloc_ptr_t<_Alloc> _Dest, _Alloc& _Al) {
; 1714 :     // move [_First, _Last) to raw _Dest, using _Al
; 1715 :     // note: only called internally from elsewhere in the STL
; 1716 :     using _Ptrval     = typename _Alloc::value_type*;
; 1717 :     auto _UFirst      = _Get_unwrapped(_First);

  00146	8b 45 f8	 mov	 eax, DWORD PTR tv654[ebp]
  00149	83 c0 18	 add	 eax, 24			; 00000018H
  0014c	0f 1f 40 00	 npad	 4
$LL69@Emplace_re:

; 714  :             ::new (_Voidify_iter(_Ptr)) _Objty(_STD forward<_Types>(_Args)...);

  00150	0f 10 06	 movups	 xmm0, XMMWORD PTR [esi]

; 1731 :     for (; _UFirst != _ULast; ++_UFirst) {

  00153	8d 40 18	 lea	 eax, DWORD PTR [eax+24]

; 714  :             ::new (_Voidify_iter(_Ptr)) _Objty(_STD forward<_Types>(_Args)...);

  00156	0f 11 40 e8	 movups	 XMMWORD PTR [eax-24], xmm0
  0015a	f3 0f 7e 46 10	 movq	 xmm0, QWORD PTR [esi+16]

; 1731 :     for (; _UFirst != _ULast; ++_UFirst) {

  0015f	83 c6 18	 add	 esi, 24			; 00000018H

; 714  :             ::new (_Voidify_iter(_Ptr)) _Objty(_STD forward<_Types>(_Args)...);

  00162	66 0f d6 40 f8	 movq	 QWORD PTR [eax-8], xmm0

; 1731 :     for (; _UFirst != _ULast; ++_UFirst) {

  00167	3b f2		 cmp	 esi, edx
  00169	75 e5		 jne	 SHORT $LL69@Emplace_re
$LN68@Emplace_re:
; File C:\Program Files (x86)\Microsoft Visual Studio\2019\Professional\VC\Tools\MSVC\14.29.30133\include\vector

; 1745 :         if (_Myfirst) { // destroy and deallocate old array

  0016b	8b 45 fc	 mov	 eax, DWORD PTR _this$1$[ebp]
  0016e	8b 30		 mov	 esi, DWORD PTR [eax]
  00170	85 f6		 test	 esi, esi
  00172	74 43		 je	 SHORT $LN86@Emplace_re

; 1746 :             _Destroy(_Myfirst, _Mylast);
; 1747 :             _Getal().deallocate(_Myfirst, static_cast<size_type>(_Myend - _Myfirst));

  00174	8b 48 08	 mov	 ecx, DWORD PTR [eax+8]
  00177	b8 ab aa aa 2a	 mov	 eax, 715827883		; 2aaaaaabH
  0017c	2b ce		 sub	 ecx, esi
  0017e	f7 e9		 imul	 ecx
  00180	c1 fa 02	 sar	 edx, 2
  00183	8b c2		 mov	 eax, edx
  00185	c1 e8 1f	 shr	 eax, 31			; 0000001fH
  00188	03 c2		 add	 eax, edx
; File C:\Program Files (x86)\Microsoft Visual Studio\2019\Professional\VC\Tools\MSVC\14.29.30133\include\xmemory

; 835  :         _Deallocate<_New_alignof<_Ty>>(_Ptr, sizeof(_Ty) * _Count);

  0018a	8d 0c 40	 lea	 ecx, DWORD PTR [eax+eax*2]
  0018d	c1 e1 03	 shl	 ecx, 3

; 260  :         if (_Bytes >= _Big_allocation_threshold) { // boost the alignment of big allocations to help autovectorization

  00190	81 f9 00 10 00
	00		 cmp	 ecx, 4096		; 00001000H
  00196	72 12		 jb	 SHORT $LN96@Emplace_re

; 158  :     const uintptr_t _Ptr_container   = _Ptr_user[-1];

  00198	8b 56 fc	 mov	 edx, DWORD PTR [esi-4]
  0019b	83 c1 23	 add	 ecx, 35			; 00000023H

; 159  : 
; 160  :     // If the following asserts, it likely means that we are performing
; 161  :     // an aligned delete on memory coming from an unaligned allocation.
; 162  :     _STL_ASSERT(_Ptr_user[-2] == _Big_allocation_sentinel, "invalid argument");
; 163  : 
; 164  :     // Extra paranoia on aligned allocation/deallocation; ensure _Ptr_container is
; 165  :     // in range [_Min_back_shift, _Non_user_size]
; 166  : #ifdef _DEBUG
; 167  :     constexpr uintptr_t _Min_back_shift = 2 * sizeof(void*);
; 168  : #else // ^^^ _DEBUG ^^^ // vvv !_DEBUG vvv
; 169  :     constexpr uintptr_t _Min_back_shift = sizeof(void*);
; 170  : #endif // _DEBUG
; 171  :     const uintptr_t _Back_shift = reinterpret_cast<uintptr_t>(_Ptr) - _Ptr_container;

  0019e	2b f2		 sub	 esi, edx

; 172  :     _STL_VERIFY(_Back_shift >= _Min_back_shift && _Back_shift <= _Non_user_size, "invalid argument");

  001a0	8d 46 fc	 lea	 eax, DWORD PTR [esi-4]
  001a3	83 f8 1f	 cmp	 eax, 31			; 0000001fH
  001a6	77 2f		 ja	 SHORT $LN93@Emplace_re

; 173  :     _Ptr = reinterpret_cast<void*>(_Ptr_container);

  001a8	8b f2		 mov	 esi, edx
$LN96@Emplace_re:

; 264  :         ::operator delete(_Ptr, _Bytes);

  001aa	51		 push	 ecx
  001ab	56		 push	 esi
  001ac	e8 00 00 00 00	 call	 ??3@YAXPAXI@Z		; operator delete
  001b1	8b 45 fc	 mov	 eax, DWORD PTR _this$1$[ebp]
  001b4	83 c4 08	 add	 esp, 8
$LN86@Emplace_re:
; File C:\Program Files (x86)\Microsoft Visual Studio\2019\Professional\VC\Tools\MSVC\14.29.30133\include\vector

; 1751 :         _Mylast  = _Newvec + _Newsize;

  001b7	8b 4d 08	 mov	 ecx, DWORD PTR __Newsize$1$[ebp]
  001ba	89 18		 mov	 DWORD PTR [eax], ebx
  001bc	8d 0c 49	 lea	 ecx, DWORD PTR [ecx+ecx*2]
  001bf	8d 0c cb	 lea	 ecx, DWORD PTR [ebx+ecx*8]
  001c2	89 48 04	 mov	 DWORD PTR [eax+4], ecx

; 1752 :         _Myend   = _Newvec + _Newcapacity;

  001c5	8d 0c 1f	 lea	 ecx, DWORD PTR [edi+ebx]

; 795  :             _Umove(_Myfirst, _Whereptr, _Newvec);
; 796  :             _Constructed_first = _Newvec;
; 797  :             _Umove(_Whereptr, _Mylast, _Newvec + _Whereoff + 1);
; 798  :         }
; 799  :         _CATCH_ALL
; 800  :         _Destroy(_Constructed_first, _Constructed_last);
; 801  :         _Al.deallocate(_Newvec, _Newcapacity);
; 802  :         _RERAISE;
; 803  :         _CATCH_END
; 804  : 
; 805  :         _Change_array(_Newvec, _Newsize, _Newcapacity);
; 806  :         return _Newvec + _Whereoff;

  001c8	5f		 pop	 edi
  001c9	5e		 pop	 esi

; 1752 :         _Myend   = _Newvec + _Newcapacity;

  001ca	89 48 08	 mov	 DWORD PTR [eax+8], ecx

; 795  :             _Umove(_Myfirst, _Whereptr, _Newvec);
; 796  :             _Constructed_first = _Newvec;
; 797  :             _Umove(_Whereptr, _Mylast, _Newvec + _Whereoff + 1);
; 798  :         }
; 799  :         _CATCH_ALL
; 800  :         _Destroy(_Constructed_first, _Constructed_last);
; 801  :         _Al.deallocate(_Newvec, _Newcapacity);
; 802  :         _RERAISE;
; 803  :         _CATCH_END
; 804  : 
; 805  :         _Change_array(_Newvec, _Newsize, _Newcapacity);
; 806  :         return _Newvec + _Whereoff;

  001cd	8b 45 f8	 mov	 eax, DWORD PTR tv654[ebp]
  001d0	5b		 pop	 ebx

; 807  :     }

  001d1	8b e5		 mov	 esp, ebp
  001d3	5d		 pop	 ebp
  001d4	c2 08 00	 ret	 8
$LN93@Emplace_re:
; File C:\Program Files (x86)\Microsoft Visual Studio\2019\Professional\VC\Tools\MSVC\14.29.30133\include\xmemory

; 172  :     _STL_VERIFY(_Back_shift >= _Min_back_shift && _Back_shift <= _Non_user_size, "invalid argument");

  001d7	e8 00 00 00 00	 call	 __invalid_parameter_noinfo_noreturn
$LN116@Emplace_re:
; File C:\Program Files (x86)\Microsoft Visual Studio\2019\Professional\VC\Tools\MSVC\14.29.30133\include\vector

; 778  :             _Xlength();

  001dc	e8 00 00 00 00	 call	 ?_Xlength@?$vector@USPDTVertex@@V?$allocator@USPDTVertex@@@std@@@std@@CAXXZ ; std::vector<SPDTVertex,std::allocator<SPDTVertex> >::_Xlength
$LN117@Emplace_re:
; File C:\Program Files (x86)\Microsoft Visual Studio\2019\Professional\VC\Tools\MSVC\14.29.30133\include\xmemory

; 65   :             _Throw_bad_array_new_length(); // multiply overflow

  001e1	e8 00 00 00 00	 call	 ?_Throw_bad_array_new_length@std@@YAXXZ ; std::_Throw_bad_array_new_length
$LN114@Emplace_re:
  001e6	cc		 int	 3
??$_Emplace_reallocate@ABUSPDTVertex@@@?$vector@USPDTVertex@@V?$allocator@USPDTVertex@@@std@@@std@@QAEPAUSPDTVertex@@QAU2@ABU2@@Z ENDP ; std::vector<SPDTVertex,std::allocator<SPDTVertex> >::_Emplace_reallocate<SPDTVertex const &>
_TEXT	ENDS
; Function compile flags: /Ogtp
;	COMDAT ??__F?ms_kPool@CWeaponTrace@@1V?$CDynamicPool@VCWeaponTrace@@@@A@@YAXXZ
text$yd	SEGMENT
??__F?ms_kPool@CWeaponTrace@@1V?$CDynamicPool@VCWeaponTrace@@@@A@@YAXXZ PROC ; `dynamic atexit destructor for 'CWeaponTrace::ms_kPool'', COMDAT
  00000	b9 00 00 00 00	 mov	 ecx, OFFSET ?ms_kPool@CWeaponTrace@@1V?$CDynamicPool@VCWeaponTrace@@@@A ; CWeaponTrace::ms_kPool
  00005	e9 00 00 00 00	 jmp	 ??1?$CDynamicPool@VCWeaponTrace@@@@UAE@XZ ; CDynamicPool<CWeaponTrace>::~CDynamicPool<CWeaponTrace>
??__F?ms_kPool@CWeaponTrace@@1V?$CDynamicPool@VCWeaponTrace@@@@A@@YAXXZ ENDP ; `dynamic atexit destructor for 'CWeaponTrace::ms_kPool''
text$yd	ENDS
; Function compile flags: /Ogtp
; File C:\Users\murat\Desktop\Siveps2-1-99-Project\source\client\Client\GameLib\WeaponTrace.cpp
;	COMDAT ??__E?ms_kPool@CWeaponTrace@@1V?$CDynamicPool@VCWeaponTrace@@@@A@@YAXXZ
text$di	SEGMENT
??__E?ms_kPool@CWeaponTrace@@1V?$CDynamicPool@VCWeaponTrace@@@@A@@YAXXZ PROC ; `dynamic initializer for 'CWeaponTrace::ms_kPool'', COMDAT

; 7    : CDynamicPool<CWeaponTrace> CWeaponTrace::ms_kPool;

  00000	68 00 00 00 00	 push	 OFFSET ??__F?ms_kPool@CWeaponTrace@@1V?$CDynamicPool@VCWeaponTrace@@@@A@@YAXXZ ; `dynamic atexit destructor for 'CWeaponTrace::ms_kPool''
  00005	e8 00 00 00 00	 call	 _atexit
  0000a	59		 pop	 ecx
  0000b	c3		 ret	 0
??__E?ms_kPool@CWeaponTrace@@1V?$CDynamicPool@VCWeaponTrace@@@@A@@YAXXZ ENDP ; `dynamic initializer for 'CWeaponTrace::ms_kPool''
text$di	ENDS
; Function compile flags: /Ogtp
;	COMDAT ??_G?$CDynamicPool@VCWeaponTrace@@@@UAEPAXI@Z
_TEXT	SEGMENT
___flags$ = 8						; size = 4
??_G?$CDynamicPool@VCWeaponTrace@@@@UAEPAXI@Z PROC	; CDynamicPool<CWeaponTrace>::`scalar deleting destructor', COMDAT
; _this$ = ecx
  00000	55		 push	 ebp
  00001	8b ec		 mov	 ebp, esp
  00003	56		 push	 esi
  00004	8b f1		 mov	 esi, ecx
  00006	e8 00 00 00 00	 call	 ??1?$CDynamicPool@VCWeaponTrace@@@@UAE@XZ ; CDynamicPool<CWeaponTrace>::~CDynamicPool<CWeaponTrace>
  0000b	f6 45 08 01	 test	 BYTE PTR ___flags$[ebp], 1
  0000f	74 0b		 je	 SHORT $LN4@scalar
  00011	6a 24		 push	 36			; 00000024H
  00013	56		 push	 esi
  00014	e8 00 00 00 00	 call	 ??3@YAXPAXI@Z		; operator delete
  00019	83 c4 08	 add	 esp, 8
$LN4@scalar:
  0001c	8b c6		 mov	 eax, esi
  0001e	5e		 pop	 esi
  0001f	5d		 pop	 ebp
  00020	c2 04 00	 ret	 4
??_G?$CDynamicPool@VCWeaponTrace@@@@UAEPAXI@Z ENDP	; CDynamicPool<CWeaponTrace>::`scalar deleting destructor'
_TEXT	ENDS
; Function compile flags: /Ogtp
; File C:\Program Files (x86)\Microsoft Visual Studio\2019\Professional\VC\Tools\MSVC\14.29.30133\include\vector
;	COMDAT ?_Xlength@?$vector@PAVCWeaponTrace@@V?$allocator@PAVCWeaponTrace@@@std@@@std@@CAXXZ
_TEXT	SEGMENT
?_Xlength@?$vector@PAVCWeaponTrace@@V?$allocator@PAVCWeaponTrace@@@std@@@std@@CAXXZ PROC ; std::vector<CWeaponTrace *,std::allocator<CWeaponTrace *> >::_Xlength, COMDAT

; 1774 :         _Xlength_error("vector too long");

  00000	68 00 00 00 00	 push	 OFFSET ??_C@_0BA@FOIKENOD@vector?5too?5long@
  00005	e8 00 00 00 00	 call	 ?_Xlength_error@std@@YAXPBD@Z ; std::_Xlength_error
$LN3@Xlength:
  0000a	cc		 int	 3
?_Xlength@?$vector@PAVCWeaponTrace@@V?$allocator@PAVCWeaponTrace@@@std@@@std@@CAXXZ ENDP ; std::vector<CWeaponTrace *,std::allocator<CWeaponTrace *> >::_Xlength
_TEXT	ENDS
; Function compile flags: /Ogtp
; File C:\Users\murat\Desktop\Siveps2-1-99-Project\source\client\Client\eterLib\Pool.h
;	COMDAT ?Delete@?$CDynamicPool@VCWeaponTrace@@@@KAXPAVCWeaponTrace@@@Z
_TEXT	SEGMENT
_pkData$ = 8						; size = 4
?Delete@?$CDynamicPool@VCWeaponTrace@@@@KAXPAVCWeaponTrace@@@Z PROC ; CDynamicPool<CWeaponTrace>::Delete, COMDAT

; 109  : 		{

  00000	55		 push	 ebp
  00001	8b ec		 mov	 ebp, esp

; 110  : 			delete pkData;

  00003	8b 4d 08	 mov	 ecx, DWORD PTR _pkData$[ebp]
  00006	85 c9		 test	 ecx, ecx
  00008	74 06		 je	 SHORT $LN3@Delete
  0000a	8b 01		 mov	 eax, DWORD PTR [ecx]
  0000c	6a 01		 push	 1
  0000e	ff 10		 call	 DWORD PTR [eax]
$LN3@Delete:

; 111  : 		}

  00010	5d		 pop	 ebp
  00011	c3		 ret	 0
?Delete@?$CDynamicPool@VCWeaponTrace@@@@KAXPAVCWeaponTrace@@@Z ENDP ; CDynamicPool<CWeaponTrace>::Delete
_TEXT	ENDS
; Function compile flags: /Ogtp
; File C:\Users\murat\Desktop\Siveps2-1-99-Project\source\client\Client\eterLib\Pool.h
; File C:\Program Files (x86)\Microsoft Visual Studio\2019\Professional\VC\Tools\MSVC\14.29.30133\include\vector
; File C:\Program Files (x86)\Microsoft Visual Studio\2019\Professional\VC\Tools\MSVC\14.29.30133\include\xmemory
; File C:\Program Files (x86)\Microsoft Visual Studio\2019\Professional\VC\Tools\MSVC\14.29.30133\include\vector
; File C:\Program Files (x86)\Microsoft Visual Studio\2019\Professional\VC\Tools\MSVC\14.29.30133\include\xmemory
; File C:\Program Files (x86)\Microsoft Visual Studio\2019\Professional\VC\Tools\MSVC\14.29.30133\include\vector
; File C:\Program Files (x86)\Microsoft Visual Studio\2019\Professional\VC\Tools\MSVC\14.29.30133\include\xmemory
; File C:\Program Files (x86)\Microsoft Visual Studio\2019\Professional\VC\Tools\MSVC\14.29.30133\include\vector
; File C:\Program Files (x86)\Microsoft Visual Studio\2019\Professional\VC\Tools\MSVC\14.29.30133\include\xmemory
; File C:\Program Files (x86)\Microsoft Visual Studio\2019\Professional\VC\Tools\MSVC\14.29.30133\include\vector
; File C:\Users\murat\Desktop\Siveps2-1-99-Project\source\client\Client\eterLib\Pool.h
; File C:\Program Files (x86)\Microsoft Visual Studio\2019\Professional\VC\Tools\MSVC\14.29.30133\include\xmemory
; File C:\Users\murat\Desktop\Siveps2-1-99-Project\source\client\Client\eterLib\Pool.h
;	COMDAT ??1?$CDynamicPool@VCWeaponTrace@@@@UAE@XZ
_TEXT	SEGMENT
??1?$CDynamicPool@VCWeaponTrace@@@@UAE@XZ PROC		; CDynamicPool<CWeaponTrace>::~CDynamicPool<CWeaponTrace>, COMDAT
; _this$ = ecx

; 18   : 		{

  00000	56		 push	 esi
  00001	8b f1		 mov	 esi, ecx
  00003	c7 06 00 00 00
	00		 mov	 DWORD PTR [esi], OFFSET ??_7?$CDynamicPool@VCWeaponTrace@@@@6B@
; File C:\Program Files (x86)\Microsoft Visual Studio\2019\Professional\VC\Tools\MSVC\14.29.30133\include\vector

; 1763 :         if (_Myfirst) { // destroy and deallocate old array

  00009	8b 46 10	 mov	 eax, DWORD PTR [esi+16]
  0000c	85 c0		 test	 eax, eax
  0000e	74 41		 je	 SHORT $LN6@CDynamicPo

; 1764 :             _Destroy(_Myfirst, _Mylast);
; 1765 :             _Getal().deallocate(_Myfirst, static_cast<size_type>(_Myend - _Myfirst));

  00010	8b 4e 18	 mov	 ecx, DWORD PTR [esi+24]
  00013	2b c8		 sub	 ecx, eax
; File C:\Program Files (x86)\Microsoft Visual Studio\2019\Professional\VC\Tools\MSVC\14.29.30133\include\xmemory

; 835  :         _Deallocate<_New_alignof<_Ty>>(_Ptr, sizeof(_Ty) * _Count);

  00015	83 e1 fc	 and	 ecx, -4			; fffffffcH

; 260  :         if (_Bytes >= _Big_allocation_threshold) { // boost the alignment of big allocations to help autovectorization

  00018	81 f9 00 10 00
	00		 cmp	 ecx, 4096		; 00001000H
  0001e	72 12		 jb	 SHORT $LN22@CDynamicPo

; 158  :     const uintptr_t _Ptr_container   = _Ptr_user[-1];

  00020	8b 50 fc	 mov	 edx, DWORD PTR [eax-4]
  00023	83 c1 23	 add	 ecx, 35			; 00000023H

; 159  : 
; 160  :     // If the following asserts, it likely means that we are performing
; 161  :     // an aligned delete on memory coming from an unaligned allocation.
; 162  :     _STL_ASSERT(_Ptr_user[-2] == _Big_allocation_sentinel, "invalid argument");
; 163  : 
; 164  :     // Extra paranoia on aligned allocation/deallocation; ensure _Ptr_container is
; 165  :     // in range [_Min_back_shift, _Non_user_size]
; 166  : #ifdef _DEBUG
; 167  :     constexpr uintptr_t _Min_back_shift = 2 * sizeof(void*);
; 168  : #else // ^^^ _DEBUG ^^^ // vvv !_DEBUG vvv
; 169  :     constexpr uintptr_t _Min_back_shift = sizeof(void*);
; 170  : #endif // _DEBUG
; 171  :     const uintptr_t _Back_shift = reinterpret_cast<uintptr_t>(_Ptr) - _Ptr_container;

  00026	2b c2		 sub	 eax, edx

; 172  :     _STL_VERIFY(_Back_shift >= _Min_back_shift && _Back_shift <= _Non_user_size, "invalid argument");

  00028	83 c0 fc	 add	 eax, -4			; fffffffcH
  0002b	83 f8 1f	 cmp	 eax, 31			; 0000001fH
  0002e	77 6b		 ja	 SHORT $LN44@CDynamicPo

; 173  :     _Ptr = reinterpret_cast<void*>(_Ptr_container);

  00030	8b c2		 mov	 eax, edx
$LN22@CDynamicPo:

; 264  :         ::operator delete(_Ptr, _Bytes);

  00032	51		 push	 ecx
  00033	50		 push	 eax
  00034	e8 00 00 00 00	 call	 ??3@YAXPAXI@Z		; operator delete
; File C:\Program Files (x86)\Microsoft Visual Studio\2019\Professional\VC\Tools\MSVC\14.29.30133\include\vector

; 1767 :             _Myfirst = nullptr;

  00039	c7 46 10 00 00
	00 00		 mov	 DWORD PTR [esi+16], 0
; File C:\Program Files (x86)\Microsoft Visual Studio\2019\Professional\VC\Tools\MSVC\14.29.30133\include\xmemory

; 264  :         ::operator delete(_Ptr, _Bytes);

  00040	83 c4 08	 add	 esp, 8
; File C:\Program Files (x86)\Microsoft Visual Studio\2019\Professional\VC\Tools\MSVC\14.29.30133\include\vector

; 1768 :             _Mylast  = nullptr;

  00043	c7 46 14 00 00
	00 00		 mov	 DWORD PTR [esi+20], 0

; 1769 :             _Myend   = nullptr;

  0004a	c7 46 18 00 00
	00 00		 mov	 DWORD PTR [esi+24], 0
$LN6@CDynamicPo:

; 1763 :         if (_Myfirst) { // destroy and deallocate old array

  00051	8b 46 04	 mov	 eax, DWORD PTR [esi+4]
  00054	85 c0		 test	 eax, eax
  00056	74 41		 je	 SHORT $LN31@CDynamicPo

; 1764 :             _Destroy(_Myfirst, _Mylast);
; 1765 :             _Getal().deallocate(_Myfirst, static_cast<size_type>(_Myend - _Myfirst));

  00058	8b 4e 0c	 mov	 ecx, DWORD PTR [esi+12]
  0005b	2b c8		 sub	 ecx, eax
; File C:\Program Files (x86)\Microsoft Visual Studio\2019\Professional\VC\Tools\MSVC\14.29.30133\include\xmemory

; 835  :         _Deallocate<_New_alignof<_Ty>>(_Ptr, sizeof(_Ty) * _Count);

  0005d	83 e1 fc	 and	 ecx, -4			; fffffffcH

; 260  :         if (_Bytes >= _Big_allocation_threshold) { // boost the alignment of big allocations to help autovectorization

  00060	81 f9 00 10 00
	00		 cmp	 ecx, 4096		; 00001000H
  00066	72 12		 jb	 SHORT $LN47@CDynamicPo

; 158  :     const uintptr_t _Ptr_container   = _Ptr_user[-1];

  00068	8b 50 fc	 mov	 edx, DWORD PTR [eax-4]
  0006b	83 c1 23	 add	 ecx, 35			; 00000023H

; 159  : 
; 160  :     // If the following asserts, it likely means that we are performing
; 161  :     // an aligned delete on memory coming from an unaligned allocation.
; 162  :     _STL_ASSERT(_Ptr_user[-2] == _Big_allocation_sentinel, "invalid argument");
; 163  : 
; 164  :     // Extra paranoia on aligned allocation/deallocation; ensure _Ptr_container is
; 165  :     // in range [_Min_back_shift, _Non_user_size]
; 166  : #ifdef _DEBUG
; 167  :     constexpr uintptr_t _Min_back_shift = 2 * sizeof(void*);
; 168  : #else // ^^^ _DEBUG ^^^ // vvv !_DEBUG vvv
; 169  :     constexpr uintptr_t _Min_back_shift = sizeof(void*);
; 170  : #endif // _DEBUG
; 171  :     const uintptr_t _Back_shift = reinterpret_cast<uintptr_t>(_Ptr) - _Ptr_container;

  0006e	2b c2		 sub	 eax, edx

; 172  :     _STL_VERIFY(_Back_shift >= _Min_back_shift && _Back_shift <= _Non_user_size, "invalid argument");

  00070	83 c0 fc	 add	 eax, -4			; fffffffcH
  00073	83 f8 1f	 cmp	 eax, 31			; 0000001fH
  00076	77 23		 ja	 SHORT $LN44@CDynamicPo

; 173  :     _Ptr = reinterpret_cast<void*>(_Ptr_container);

  00078	8b c2		 mov	 eax, edx
$LN47@CDynamicPo:

; 264  :         ::operator delete(_Ptr, _Bytes);

  0007a	51		 push	 ecx
  0007b	50		 push	 eax
  0007c	e8 00 00 00 00	 call	 ??3@YAXPAXI@Z		; operator delete
; File C:\Program Files (x86)\Microsoft Visual Studio\2019\Professional\VC\Tools\MSVC\14.29.30133\include\vector

; 1767 :             _Myfirst = nullptr;

  00081	c7 46 04 00 00
	00 00		 mov	 DWORD PTR [esi+4], 0
; File C:\Program Files (x86)\Microsoft Visual Studio\2019\Professional\VC\Tools\MSVC\14.29.30133\include\xmemory

; 264  :         ::operator delete(_Ptr, _Bytes);

  00088	83 c4 08	 add	 esp, 8
; File C:\Program Files (x86)\Microsoft Visual Studio\2019\Professional\VC\Tools\MSVC\14.29.30133\include\vector

; 1768 :             _Mylast  = nullptr;

  0008b	c7 46 08 00 00
	00 00		 mov	 DWORD PTR [esi+8], 0

; 1769 :             _Myend   = nullptr;

  00092	c7 46 0c 00 00
	00 00		 mov	 DWORD PTR [esi+12], 0
$LN31@CDynamicPo:
  00099	5e		 pop	 esi
; File C:\Users\murat\Desktop\Siveps2-1-99-Project\source\client\Client\eterLib\Pool.h

; 26   : 		}

  0009a	c3		 ret	 0
$LN44@CDynamicPo:
; File C:\Program Files (x86)\Microsoft Visual Studio\2019\Professional\VC\Tools\MSVC\14.29.30133\include\xmemory

; 172  :     _STL_VERIFY(_Back_shift >= _Min_back_shift && _Back_shift <= _Non_user_size, "invalid argument");

  0009b	e8 00 00 00 00	 call	 __invalid_parameter_noinfo_noreturn
$LN52@CDynamicPo:
  000a0	cc		 int	 3
??1?$CDynamicPool@VCWeaponTrace@@@@UAE@XZ ENDP		; CDynamicPool<CWeaponTrace>::~CDynamicPool<CWeaponTrace>
_TEXT	ENDS
; Function compile flags: /Ogtp
;	COMDAT ??_GCWeaponTrace@@UAEPAXI@Z
_TEXT	SEGMENT
___flags$ = 8						; size = 4
??_GCWeaponTrace@@UAEPAXI@Z PROC			; CWeaponTrace::`scalar deleting destructor', COMDAT
; _this$ = ecx
  00000	55		 push	 ebp
  00001	8b ec		 mov	 ebp, esp
  00003	56		 push	 esi
  00004	8b f1		 mov	 esi, ecx
  00006	e8 00 00 00 00	 call	 ??1CWeaponTrace@@UAE@XZ	; CWeaponTrace::~CWeaponTrace
  0000b	f6 45 08 01	 test	 BYTE PTR ___flags$[ebp], 1
  0000f	74 0e		 je	 SHORT $LN4@scalar
  00011	68 8c 00 00 00	 push	 140			; 0000008cH
  00016	56		 push	 esi
  00017	e8 00 00 00 00	 call	 ??3@YAXPAXI@Z		; operator delete
  0001c	83 c4 08	 add	 esp, 8
$LN4@scalar:
  0001f	8b c6		 mov	 eax, esi
  00021	5e		 pop	 esi
  00022	5d		 pop	 ebp
  00023	c2 04 00	 ret	 4
??_GCWeaponTrace@@UAEPAXI@Z ENDP			; CWeaponTrace::`scalar deleting destructor'
_TEXT	ENDS
; Function compile flags: /Ogtp
; File C:\Program Files (x86)\Microsoft Visual Studio\2019\Professional\VC\Tools\MSVC\14.29.30133\include\vector
;	COMDAT ?_Xlength@?$vector@USPDTVertex@@V?$allocator@USPDTVertex@@@std@@@std@@CAXXZ
_TEXT	SEGMENT
?_Xlength@?$vector@USPDTVertex@@V?$allocator@USPDTVertex@@@std@@@std@@CAXXZ PROC ; std::vector<SPDTVertex,std::allocator<SPDTVertex> >::_Xlength, COMDAT

; 1774 :         _Xlength_error("vector too long");

  00000	68 00 00 00 00	 push	 OFFSET ??_C@_0BA@FOIKENOD@vector?5too?5long@
  00005	e8 00 00 00 00	 call	 ?_Xlength_error@std@@YAXPBD@Z ; std::_Xlength_error
$LN3@Xlength:
  0000a	cc		 int	 3
?_Xlength@?$vector@USPDTVertex@@V?$allocator@USPDTVertex@@@std@@@std@@CAXXZ ENDP ; std::vector<SPDTVertex,std::allocator<SPDTVertex> >::_Xlength
_TEXT	ENDS
; Function compile flags: /Ogtp
; File C:\Program Files (x86)\Microsoft Visual Studio\2019\Professional\VC\Tools\MSVC\14.29.30133\include\vector
; File C:\Program Files (x86)\Microsoft Visual Studio\2019\Professional\VC\Tools\MSVC\14.29.30133\include\xmemory
; File C:\Program Files (x86)\Microsoft Visual Studio\2019\Professional\VC\Tools\MSVC\14.29.30133\include\vector
; File C:\Program Files (x86)\Microsoft Visual Studio\2019\Professional\VC\Tools\MSVC\14.29.30133\include\xmemory
; File C:\Program Files (x86)\Microsoft Visual Studio\2019\Professional\VC\Tools\MSVC\14.29.30133\include\vector
; File C:\Program Files (x86)\Microsoft Visual Studio\2019\Professional\VC\Tools\MSVC\14.29.30133\include\xmemory
; File C:\Program Files (x86)\Microsoft Visual Studio\2019\Professional\VC\Tools\MSVC\14.29.30133\include\vector
;	COMDAT ??1?$vector@USPDTVertex@@V?$allocator@USPDTVertex@@@std@@@std@@QAE@XZ
_TEXT	SEGMENT
??1?$vector@USPDTVertex@@V?$allocator@USPDTVertex@@@std@@@std@@QAE@XZ PROC ; std::vector<SPDTVertex,std::allocator<SPDTVertex> >::~vector<SPDTVertex,std::allocator<SPDTVertex> >, COMDAT
; _this$ = ecx

; 711  :     _CONSTEXPR20_CONTAINER ~vector() noexcept {

  00000	56		 push	 esi
  00001	57		 push	 edi
  00002	8b f9		 mov	 edi, ecx

; 1763 :         if (_Myfirst) { // destroy and deallocate old array

  00004	8b 37		 mov	 esi, DWORD PTR [edi]
  00006	85 f6		 test	 esi, esi
  00008	74 54		 je	 SHORT $LN4@vector

; 1764 :             _Destroy(_Myfirst, _Mylast);
; 1765 :             _Getal().deallocate(_Myfirst, static_cast<size_type>(_Myend - _Myfirst));

  0000a	8b 4f 08	 mov	 ecx, DWORD PTR [edi+8]
  0000d	b8 ab aa aa 2a	 mov	 eax, 715827883		; 2aaaaaabH
  00012	2b ce		 sub	 ecx, esi
  00014	f7 e9		 imul	 ecx
  00016	c1 fa 02	 sar	 edx, 2
  00019	8b c2		 mov	 eax, edx
  0001b	c1 e8 1f	 shr	 eax, 31			; 0000001fH
  0001e	03 c2		 add	 eax, edx
; File C:\Program Files (x86)\Microsoft Visual Studio\2019\Professional\VC\Tools\MSVC\14.29.30133\include\xmemory

; 835  :         _Deallocate<_New_alignof<_Ty>>(_Ptr, sizeof(_Ty) * _Count);

  00020	8d 0c 40	 lea	 ecx, DWORD PTR [eax+eax*2]
  00023	c1 e1 03	 shl	 ecx, 3

; 260  :         if (_Bytes >= _Big_allocation_threshold) { // boost the alignment of big allocations to help autovectorization

  00026	81 f9 00 10 00
	00		 cmp	 ecx, 4096		; 00001000H
  0002c	72 12		 jb	 SHORT $LN20@vector

; 158  :     const uintptr_t _Ptr_container   = _Ptr_user[-1];

  0002e	8b 56 fc	 mov	 edx, DWORD PTR [esi-4]
  00031	83 c1 23	 add	 ecx, 35			; 00000023H

; 159  : 
; 160  :     // If the following asserts, it likely means that we are performing
; 161  :     // an aligned delete on memory coming from an unaligned allocation.
; 162  :     _STL_ASSERT(_Ptr_user[-2] == _Big_allocation_sentinel, "invalid argument");
; 163  : 
; 164  :     // Extra paranoia on aligned allocation/deallocation; ensure _Ptr_container is
; 165  :     // in range [_Min_back_shift, _Non_user_size]
; 166  : #ifdef _DEBUG
; 167  :     constexpr uintptr_t _Min_back_shift = 2 * sizeof(void*);
; 168  : #else // ^^^ _DEBUG ^^^ // vvv !_DEBUG vvv
; 169  :     constexpr uintptr_t _Min_back_shift = sizeof(void*);
; 170  : #endif // _DEBUG
; 171  :     const uintptr_t _Back_shift = reinterpret_cast<uintptr_t>(_Ptr) - _Ptr_container;

  00034	2b f2		 sub	 esi, edx

; 172  :     _STL_VERIFY(_Back_shift >= _Min_back_shift && _Back_shift <= _Non_user_size, "invalid argument");

  00036	8d 46 fc	 lea	 eax, DWORD PTR [esi-4]
  00039	83 f8 1f	 cmp	 eax, 31			; 0000001fH
  0003c	77 23		 ja	 SHORT $LN17@vector

; 173  :     _Ptr = reinterpret_cast<void*>(_Ptr_container);

  0003e	8b f2		 mov	 esi, edx
$LN20@vector:

; 264  :         ::operator delete(_Ptr, _Bytes);

  00040	51		 push	 ecx
  00041	56		 push	 esi
  00042	e8 00 00 00 00	 call	 ??3@YAXPAXI@Z		; operator delete
; File C:\Program Files (x86)\Microsoft Visual Studio\2019\Professional\VC\Tools\MSVC\14.29.30133\include\vector

; 1767 :             _Myfirst = nullptr;

  00047	c7 07 00 00 00
	00		 mov	 DWORD PTR [edi], 0
; File C:\Program Files (x86)\Microsoft Visual Studio\2019\Professional\VC\Tools\MSVC\14.29.30133\include\xmemory

; 264  :         ::operator delete(_Ptr, _Bytes);

  0004d	83 c4 08	 add	 esp, 8
; File C:\Program Files (x86)\Microsoft Visual Studio\2019\Professional\VC\Tools\MSVC\14.29.30133\include\vector

; 1768 :             _Mylast  = nullptr;

  00050	c7 47 04 00 00
	00 00		 mov	 DWORD PTR [edi+4], 0

; 1769 :             _Myend   = nullptr;

  00057	c7 47 08 00 00
	00 00		 mov	 DWORD PTR [edi+8], 0
$LN4@vector:
  0005e	5f		 pop	 edi

; 717  :     }

  0005f	5e		 pop	 esi
  00060	c3		 ret	 0
$LN17@vector:
; File C:\Program Files (x86)\Microsoft Visual Studio\2019\Professional\VC\Tools\MSVC\14.29.30133\include\xmemory

; 172  :     _STL_VERIFY(_Back_shift >= _Min_back_shift && _Back_shift <= _Non_user_size, "invalid argument");

  00061	e8 00 00 00 00	 call	 __invalid_parameter_noinfo_noreturn
$LN25@vector:
  00066	cc		 int	 3
??1?$vector@USPDTVertex@@V?$allocator@USPDTVertex@@@std@@@std@@QAE@XZ ENDP ; std::vector<SPDTVertex,std::allocator<SPDTVertex> >::~vector<SPDTVertex,std::allocator<SPDTVertex> >
_TEXT	ENDS
; Function compile flags: /Ogtp
; File C:\Program Files (x86)\Microsoft Visual Studio\2019\Professional\VC\Tools\MSVC\14.29.30133\include\deque
; File C:\Program Files (x86)\Microsoft Visual Studio\2019\Professional\VC\Tools\MSVC\14.29.30133\include\xmemory
; File C:\Program Files (x86)\Microsoft Visual Studio\2019\Professional\VC\Tools\MSVC\14.29.30133\include\deque
; File C:\Program Files (x86)\Microsoft Visual Studio\2019\Professional\VC\Tools\MSVC\14.29.30133\include\xmemory
; File C:\Program Files (x86)\Microsoft Visual Studio\2019\Professional\VC\Tools\MSVC\14.29.30133\include\deque
; File C:\Program Files (x86)\Microsoft Visual Studio\2019\Professional\VC\Tools\MSVC\14.29.30133\include\xmemory
; File C:\Program Files (x86)\Microsoft Visual Studio\2019\Professional\VC\Tools\MSVC\14.29.30133\include\deque
;	COMDAT ?_Tidy@?$deque@U?$pair@MUD3DXVECTOR3@@@std@@V?$allocator@U?$pair@MUD3DXVECTOR3@@@std@@@2@@std@@AAEXXZ
_TEXT	SEGMENT
?_Tidy@?$deque@U?$pair@MUD3DXVECTOR3@@@std@@V?$allocator@U?$pair@MUD3DXVECTOR3@@@std@@@2@@std@@AAEXXZ PROC ; std::deque<std::pair<float,D3DXVECTOR3>,std::allocator<std::pair<float,D3DXVECTOR3> > >::_Tidy, COMDAT
; _this$ = ecx

; 1478 :     void _Tidy() noexcept { // free all storage

  00000	57		 push	 edi
  00001	8b f9		 mov	 edi, ecx

; 1009 :         return _Mysize() == 0;

  00003	8b 4f 10	 mov	 ecx, DWORD PTR [edi+16]
  00006	85 c9		 test	 ecx, ecx

; 1479 :         _Orphan_all();
; 1480 : 
; 1481 :         _Alpty _Almap(_Getal());
; 1482 :         while (!empty()) {

  00008	74 15		 je	 SHORT $LN60@Tidy
  0000a	66 0f 1f 44 00
	00		 npad	 6
$LL2@Tidy:

; 1153 :         if (--_Mysize() == 0) {

  00010	8d 41 ff	 lea	 eax, DWORD PTR [ecx-1]
  00013	89 47 10	 mov	 DWORD PTR [edi+16], eax
  00016	8b c8		 mov	 ecx, eax
  00018	85 c0		 test	 eax, eax
  0001a	75 f4		 jne	 SHORT $LL2@Tidy

; 1154 :             _Myoff() = 0;

  0001c	89 47 0c	 mov	 DWORD PTR [edi+12], eax
$LN60@Tidy:
  0001f	56		 push	 esi

; 1486 :         for (size_type _Block = _Mapsize(); 0 < _Block;) { // free storage for a block and destroy pointer

  00020	8b 77 08	 mov	 esi, DWORD PTR [edi+8]
  00023	85 f6		 test	 esi, esi
  00025	74 1a		 je	 SHORT $LN5@Tidy
$LL4@Tidy:

; 1487 :             if (_Map()[--_Block]) { // free block and destroy its pointer

  00027	8b 47 04	 mov	 eax, DWORD PTR [edi+4]
  0002a	4e		 dec	 esi
  0002b	8b 04 b0	 mov	 eax, DWORD PTR [eax+esi*4]
  0002e	85 c0		 test	 eax, eax
  00030	74 0b		 je	 SHORT $LN23@Tidy
; File C:\Program Files (x86)\Microsoft Visual Studio\2019\Professional\VC\Tools\MSVC\14.29.30133\include\xmemory

; 264  :         ::operator delete(_Ptr, _Bytes);

  00032	6a 10		 push	 16			; 00000010H
  00034	50		 push	 eax
  00035	e8 00 00 00 00	 call	 ??3@YAXPAXI@Z		; operator delete
  0003a	83 c4 08	 add	 esp, 8
$LN23@Tidy:
; File C:\Program Files (x86)\Microsoft Visual Studio\2019\Professional\VC\Tools\MSVC\14.29.30133\include\deque

; 1486 :         for (size_type _Block = _Mapsize(); 0 < _Block;) { // free storage for a block and destroy pointer

  0003d	85 f6		 test	 esi, esi
  0003f	75 e6		 jne	 SHORT $LL4@Tidy
$LN5@Tidy:

; 1488 :                 _Getal().deallocate(_Map()[_Block], _Block_size);
; 1489 :                 _Destroy_in_place(_Map()[_Block]);
; 1490 :             }
; 1491 :         }
; 1492 : 
; 1493 :         if (_Map() != _Mapptr()) {

  00041	8b 47 04	 mov	 eax, DWORD PTR [edi+4]
  00044	5e		 pop	 esi
  00045	85 c0		 test	 eax, eax
  00047	74 2a		 je	 SHORT $LN41@Tidy
; File C:\Program Files (x86)\Microsoft Visual Studio\2019\Professional\VC\Tools\MSVC\14.29.30133\include\xmemory

; 835  :         _Deallocate<_New_alignof<_Ty>>(_Ptr, sizeof(_Ty) * _Count);

  00049	8b 4f 08	 mov	 ecx, DWORD PTR [edi+8]
  0004c	c1 e1 02	 shl	 ecx, 2

; 260  :         if (_Bytes >= _Big_allocation_threshold) { // boost the alignment of big allocations to help autovectorization

  0004f	81 f9 00 10 00
	00		 cmp	 ecx, 4096		; 00001000H
  00055	72 12		 jb	 SHORT $LN51@Tidy

; 158  :     const uintptr_t _Ptr_container   = _Ptr_user[-1];

  00057	8b 50 fc	 mov	 edx, DWORD PTR [eax-4]
  0005a	83 c1 23	 add	 ecx, 35			; 00000023H

; 159  : 
; 160  :     // If the following asserts, it likely means that we are performing
; 161  :     // an aligned delete on memory coming from an unaligned allocation.
; 162  :     _STL_ASSERT(_Ptr_user[-2] == _Big_allocation_sentinel, "invalid argument");
; 163  : 
; 164  :     // Extra paranoia on aligned allocation/deallocation; ensure _Ptr_container is
; 165  :     // in range [_Min_back_shift, _Non_user_size]
; 166  : #ifdef _DEBUG
; 167  :     constexpr uintptr_t _Min_back_shift = 2 * sizeof(void*);
; 168  : #else // ^^^ _DEBUG ^^^ // vvv !_DEBUG vvv
; 169  :     constexpr uintptr_t _Min_back_shift = sizeof(void*);
; 170  : #endif // _DEBUG
; 171  :     const uintptr_t _Back_shift = reinterpret_cast<uintptr_t>(_Ptr) - _Ptr_container;

  0005d	2b c2		 sub	 eax, edx

; 172  :     _STL_VERIFY(_Back_shift >= _Min_back_shift && _Back_shift <= _Non_user_size, "invalid argument");

  0005f	83 c0 fc	 add	 eax, -4			; fffffffcH
  00062	83 f8 1f	 cmp	 eax, 31			; 0000001fH
  00065	77 1c		 ja	 SHORT $LN48@Tidy

; 173  :     _Ptr = reinterpret_cast<void*>(_Ptr_container);

  00067	8b c2		 mov	 eax, edx
$LN51@Tidy:

; 264  :         ::operator delete(_Ptr, _Bytes);

  00069	51		 push	 ecx
  0006a	50		 push	 eax
  0006b	e8 00 00 00 00	 call	 ??3@YAXPAXI@Z		; operator delete
  00070	83 c4 08	 add	 esp, 8
$LN41@Tidy:
; File C:\Program Files (x86)\Microsoft Visual Studio\2019\Professional\VC\Tools\MSVC\14.29.30133\include\deque

; 1497 :         _Mapsize() = 0;

  00073	c7 47 08 00 00
	00 00		 mov	 DWORD PTR [edi+8], 0

; 1498 :         _Map()     = _Mapptr();

  0007a	c7 47 04 00 00
	00 00		 mov	 DWORD PTR [edi+4], 0
  00081	5f		 pop	 edi

; 1499 :     }

  00082	c3		 ret	 0
$LN48@Tidy:
; File C:\Program Files (x86)\Microsoft Visual Studio\2019\Professional\VC\Tools\MSVC\14.29.30133\include\xmemory

; 172  :     _STL_VERIFY(_Back_shift >= _Min_back_shift && _Back_shift <= _Non_user_size, "invalid argument");

  00083	e8 00 00 00 00	 call	 __invalid_parameter_noinfo_noreturn
$LN62@Tidy:
  00088	cc		 int	 3
?_Tidy@?$deque@U?$pair@MUD3DXVECTOR3@@@std@@V?$allocator@U?$pair@MUD3DXVECTOR3@@@std@@@2@@std@@AAEXXZ ENDP ; std::deque<std::pair<float,D3DXVECTOR3>,std::allocator<std::pair<float,D3DXVECTOR3> > >::_Tidy
_TEXT	ENDS
; Function compile flags: /Ogtp
; File C:\Program Files (x86)\Microsoft Visual Studio\2019\Professional\VC\Tools\MSVC\14.29.30133\include\deque
; File C:\Program Files (x86)\Microsoft Visual Studio\2019\Professional\VC\Tools\MSVC\14.29.30133\include\xmemory
; File C:\Program Files (x86)\Microsoft Visual Studio\2019\Professional\VC\Tools\MSVC\14.29.30133\include\deque
; File C:\Program Files (x86)\Microsoft Visual Studio\2019\Professional\VC\Tools\MSVC\14.29.30133\include\xmemory
; File C:\Program Files (x86)\Microsoft Visual Studio\2019\Professional\VC\Tools\MSVC\14.29.30133\include\deque
; File C:\Program Files (x86)\Microsoft Visual Studio\2019\Professional\VC\Tools\MSVC\14.29.30133\include\xmemory
; File C:\Program Files (x86)\Microsoft Visual Studio\2019\Professional\VC\Tools\MSVC\14.29.30133\include\deque
;	COMDAT ?_Growmap@?$deque@U?$pair@MUD3DXVECTOR3@@@std@@V?$allocator@U?$pair@MUD3DXVECTOR3@@@std@@@2@@std@@AAEXI@Z
_TEXT	SEGMENT
tv483 = -4						; size = 4
$T1 = 8							; size = 4
__Count$ = 8						; size = 4
?_Growmap@?$deque@U?$pair@MUD3DXVECTOR3@@@std@@V?$allocator@U?$pair@MUD3DXVECTOR3@@@std@@@2@@std@@AAEXI@Z PROC ; std::deque<std::pair<float,D3DXVECTOR3>,std::allocator<std::pair<float,D3DXVECTOR3> > >::_Growmap, COMDAT
; _this$ = ecx

; 1439 :     void _Growmap(size_type _Count) { // grow map by at least _Count pointers, _Mapsize() a power of 2

  00000	55		 push	 ebp
  00001	8b ec		 mov	 ebp, esp
  00003	51		 push	 ecx
  00004	53		 push	 ebx

; 1440 :         static_assert(1 < _Minimum_map_size, "The _Xlen() test should always be performed.");
; 1441 : 
; 1442 :         _Alpty _Almap(_Getal());
; 1443 :         size_type _Newsize = 0 < _Mapsize() ? _Mapsize() : 1;

  00005	8b 5d 08	 mov	 ebx, DWORD PTR __Count$[ebp]
  00008	b8 01 00 00 00	 mov	 eax, 1
  0000d	56		 push	 esi
  0000e	57		 push	 edi
  0000f	8b f9		 mov	 edi, ecx
  00011	8b 57 08	 mov	 edx, DWORD PTR [edi+8]
  00014	85 d2		 test	 edx, edx
  00016	0f 45 c2	 cmovne	 eax, edx
  00019	0f 1f 80 00 00
	00 00		 npad	 7
$LL2@Growmap:

; 1444 :         while (_Newsize - _Mapsize() < _Count || _Newsize < _Minimum_map_size) {

  00020	8b f0		 mov	 esi, eax
  00022	2b f2		 sub	 esi, edx
  00024	3b f3		 cmp	 esi, ebx
  00026	72 05		 jb	 SHORT $LN4@Growmap
  00028	83 f8 08	 cmp	 eax, 8
  0002b	73 13		 jae	 SHORT $LN3@Growmap
$LN4@Growmap:

; 1445 :             // scale _Newsize to 2^N >= _Mapsize() + _Count
; 1446 :             if (max_size() / _Block_size - _Newsize < _Newsize) {

  0002d	b9 ff ff ff 0f	 mov	 ecx, 268435455		; 0fffffffH
  00032	2b c8		 sub	 ecx, eax
  00034	3b c8		 cmp	 ecx, eax
  00036	0f 82 fb 00 00
	00		 jb	 $LN44@Growmap

; 1448 :             }
; 1449 : 
; 1450 :             _Newsize *= 2;

  0003c	03 c0		 add	 eax, eax

; 1451 :         }

  0003e	eb e0		 jmp	 SHORT $LL2@Growmap
$LN3@Growmap:

; 1452 :         _Count = _Newsize - _Mapsize();
; 1453 : 
; 1454 :         size_type _Myboff = _Myoff() / _Block_size;

  00040	8b 5f 0c	 mov	 ebx, DWORD PTR [edi+12]
  00043	89 5d 08	 mov	 DWORD PTR $T1[ebp], ebx
; File C:\Program Files (x86)\Microsoft Visual Studio\2019\Professional\VC\Tools\MSVC\14.29.30133\include\xmemory

; 64   :         if (_Count > _Max_possible) {

  00046	3d ff ff ff 3f	 cmp	 eax, 1073741823		; 3fffffffH
  0004b	0f 87 ed 00 00
	00		 ja	 $LN51@Growmap

; 66   :         }
; 67   :     }
; 68   : 
; 69   :     return _Count * _Ty_size;

  00051	c1 e0 02	 shl	 eax, 2

; 237  :         if (_Bytes >= _Big_allocation_threshold) { // boost the alignment of big allocations to help autovectorization

  00054	3d 00 10 00 00	 cmp	 eax, 4096		; 00001000H
  00059	72 0d		 jb	 SHORT $LN19@Growmap

; 238  :             return _Allocate_manually_vector_aligned<_Traits>(_Bytes);

  0005b	50		 push	 eax
  0005c	e8 00 00 00 00	 call	 ??$_Allocate_manually_vector_aligned@U_Default_allocate_traits@std@@@std@@YAPAXI@Z ; std::_Allocate_manually_vector_aligned<std::_Default_allocate_traits>
  00061	83 c4 04	 add	 esp, 4
  00064	8b d8		 mov	 ebx, eax
  00066	eb 13		 jmp	 SHORT $LN18@Growmap
$LN19@Growmap:

; 239  :         }
; 240  :     }
; 241  : #endif // defined(_M_IX86) || defined(_M_X64)
; 242  : 
; 243  :     if (_Bytes != 0) {

  00068	85 c0		 test	 eax, eax
  0006a	74 0d		 je	 SHORT $LN20@Growmap

; 85   :         return ::operator new(_Bytes);

  0006c	50		 push	 eax
  0006d	e8 00 00 00 00	 call	 ??2@YAPAXI@Z		; operator new
  00072	83 c4 04	 add	 esp, 4

; 244  :         return _Traits::_Allocate(_Bytes);

  00075	8b d8		 mov	 ebx, eax
  00077	eb 02		 jmp	 SHORT $LN18@Growmap
$LN20@Growmap:

; 245  :     }
; 246  : 
; 247  :     return nullptr;

  00079	33 db		 xor	 ebx, ebx
$LN18@Growmap:
; File C:\Program Files (x86)\Microsoft Visual Studio\2019\Professional\VC\Tools\MSVC\14.29.30133\include\deque

; 1456 :         _Mapptr _Myptr    = _Newmap + _Myboff;

  0007b	8b 55 08	 mov	 edx, DWORD PTR $T1[ebp]

; 1457 : 
; 1458 :         _Myptr = _STD uninitialized_copy(_Map() + _Myboff, _Map() + _Mapsize(), _Myptr); // copy initial to end

  0007e	8b 4f 04	 mov	 ecx, DWORD PTR [edi+4]
  00081	c1 e2 02	 shl	 edx, 2
  00084	89 55 fc	 mov	 DWORD PTR tv483[ebp], edx
  00087	8d 04 1a	 lea	 eax, DWORD PTR [edx+ebx]
  0008a	50		 push	 eax
  0008b	8b 47 08	 mov	 eax, DWORD PTR [edi+8]
  0008e	8d 04 81	 lea	 eax, DWORD PTR [ecx+eax*4]
  00091	50		 push	 eax
  00092	8d 04 11	 lea	 eax, DWORD PTR [ecx+edx]
  00095	50		 push	 eax
  00096	e8 00 00 00 00	 call	 ??$uninitialized_copy@PAPAU?$pair@MUD3DXVECTOR3@@@std@@PAPAU12@@std@@YAPAPAU?$pair@MUD3DXVECTOR3@@@0@QAPAU10@0PAPAU10@@Z ; std::uninitialized_copy<std::pair<float,D3DXVECTOR3> * *,std::pair<float,D3DXVECTOR3> * *>
  0009b	8b 4f 04	 mov	 ecx, DWORD PTR [edi+4]
  0009e	83 c4 0c	 add	 esp, 12			; 0000000cH

; 1459 :         if (_Myboff <= _Count) { // increment greater than offset of initial block

  000a1	50		 push	 eax
  000a2	39 75 08	 cmp	 DWORD PTR $T1[ebp], esi
  000a5	77 22		 ja	 SHORT $LN6@Growmap

; 1460 :             _Myptr = _STD uninitialized_copy(_Map(), _Map() + _Myboff, _Myptr); // copy rest of old

  000a7	8b 45 fc	 mov	 eax, DWORD PTR tv483[ebp]
  000aa	03 c1		 add	 eax, ecx
  000ac	50		 push	 eax
  000ad	51		 push	 ecx
  000ae	e8 00 00 00 00	 call	 ??$uninitialized_copy@PAPAU?$pair@MUD3DXVECTOR3@@@std@@PAPAU12@@std@@YAPAPAU?$pair@MUD3DXVECTOR3@@@0@QAPAU10@0PAPAU10@@Z ; std::uninitialized_copy<std::pair<float,D3DXVECTOR3> * *,std::pair<float,D3DXVECTOR3> * *>

; 1461 :             _Uninitialized_value_construct_n_unchecked1(_Myptr, _Count - _Myboff); // clear suffix of new

  000b3	8b ce		 mov	 ecx, esi
  000b5	2b 4d 08	 sub	 ecx, DWORD PTR $T1[ebp]
  000b8	51		 push	 ecx
  000b9	50		 push	 eax
  000ba	e8 00 00 00 00	 call	 ??$_Uninitialized_value_construct_n_unchecked1@PAPAU?$pair@MUD3DXVECTOR3@@@std@@I@std@@YAPAPAU?$pair@MUD3DXVECTOR3@@@0@PAPAU10@I@Z ; std::_Uninitialized_value_construct_n_unchecked1<std::pair<float,D3DXVECTOR3> * *,unsigned int>

; 1462 :             _Uninitialized_value_construct_n_unchecked1(_Newmap, _Myboff); // clear prefix of new
; 1463 :         } else { // increment not greater than offset of initial block

  000bf	8b 45 08	 mov	 eax, DWORD PTR $T1[ebp]
  000c2	83 c4 14	 add	 esp, 20			; 00000014H
  000c5	8b cb		 mov	 ecx, ebx
  000c7	eb 24		 jmp	 SHORT $LN7@Growmap
$LN6@Growmap:

; 1464 :             _STD uninitialized_copy(_Map(), _Map() + _Count, _Myptr); // copy more old

  000c9	8d 04 b1	 lea	 eax, DWORD PTR [ecx+esi*4]
  000cc	50		 push	 eax
  000cd	51		 push	 ecx
  000ce	e8 00 00 00 00	 call	 ??$uninitialized_copy@PAPAU?$pair@MUD3DXVECTOR3@@@std@@PAPAU12@@std@@YAPAPAU?$pair@MUD3DXVECTOR3@@@0@QAPAU10@0PAPAU10@@Z ; std::uninitialized_copy<std::pair<float,D3DXVECTOR3> * *,std::pair<float,D3DXVECTOR3> * *>

; 1465 :             _Myptr = _STD uninitialized_copy(_Map() + _Count, _Map() + _Myboff, _Newmap); // copy rest of old

  000d3	8b 4f 04	 mov	 ecx, DWORD PTR [edi+4]
  000d6	8b 45 fc	 mov	 eax, DWORD PTR tv483[ebp]
  000d9	03 c1		 add	 eax, ecx
  000db	53		 push	 ebx
  000dc	50		 push	 eax
  000dd	8d 04 b1	 lea	 eax, DWORD PTR [ecx+esi*4]
  000e0	50		 push	 eax
  000e1	e8 00 00 00 00	 call	 ??$uninitialized_copy@PAPAU?$pair@MUD3DXVECTOR3@@@std@@PAPAU12@@std@@YAPAPAU?$pair@MUD3DXVECTOR3@@@0@QAPAU10@0PAPAU10@@Z ; std::uninitialized_copy<std::pair<float,D3DXVECTOR3> * *,std::pair<float,D3DXVECTOR3> * *>

; 1466 :             _Uninitialized_value_construct_n_unchecked1(_Myptr, _Count); // clear rest to initial block

  000e6	8b c8		 mov	 ecx, eax
  000e8	83 c4 18	 add	 esp, 24			; 00000018H
  000eb	8b c6		 mov	 eax, esi
$LN7@Growmap:

; 1467 :         }
; 1468 : 
; 1469 :         _Destroy_range(_Map() + _Myboff, _Map() + _Mapsize());
; 1470 :         if (_Map() != _Mapptr()) {

  000ed	50		 push	 eax
  000ee	51		 push	 ecx
  000ef	e8 00 00 00 00	 call	 ??$_Uninitialized_value_construct_n_unchecked1@PAPAU?$pair@MUD3DXVECTOR3@@@std@@I@std@@YAPAPAU?$pair@MUD3DXVECTOR3@@@0@PAPAU10@I@Z ; std::_Uninitialized_value_construct_n_unchecked1<std::pair<float,D3DXVECTOR3> * *,unsigned int>
  000f4	8b 47 04	 mov	 eax, DWORD PTR [edi+4]
  000f7	83 c4 08	 add	 esp, 8
  000fa	85 c0		 test	 eax, eax
  000fc	74 2a		 je	 SHORT $LN29@Growmap
; File C:\Program Files (x86)\Microsoft Visual Studio\2019\Professional\VC\Tools\MSVC\14.29.30133\include\xmemory

; 835  :         _Deallocate<_New_alignof<_Ty>>(_Ptr, sizeof(_Ty) * _Count);

  000fe	8b 4f 08	 mov	 ecx, DWORD PTR [edi+8]
  00101	c1 e1 02	 shl	 ecx, 2

; 260  :         if (_Bytes >= _Big_allocation_threshold) { // boost the alignment of big allocations to help autovectorization

  00104	81 f9 00 10 00
	00		 cmp	 ecx, 4096		; 00001000H
  0010a	72 12		 jb	 SHORT $LN39@Growmap

; 158  :     const uintptr_t _Ptr_container   = _Ptr_user[-1];

  0010c	8b 50 fc	 mov	 edx, DWORD PTR [eax-4]
  0010f	83 c1 23	 add	 ecx, 35			; 00000023H

; 159  : 
; 160  :     // If the following asserts, it likely means that we are performing
; 161  :     // an aligned delete on memory coming from an unaligned allocation.
; 162  :     _STL_ASSERT(_Ptr_user[-2] == _Big_allocation_sentinel, "invalid argument");
; 163  : 
; 164  :     // Extra paranoia on aligned allocation/deallocation; ensure _Ptr_container is
; 165  :     // in range [_Min_back_shift, _Non_user_size]
; 166  : #ifdef _DEBUG
; 167  :     constexpr uintptr_t _Min_back_shift = 2 * sizeof(void*);
; 168  : #else // ^^^ _DEBUG ^^^ // vvv !_DEBUG vvv
; 169  :     constexpr uintptr_t _Min_back_shift = sizeof(void*);
; 170  : #endif // _DEBUG
; 171  :     const uintptr_t _Back_shift = reinterpret_cast<uintptr_t>(_Ptr) - _Ptr_container;

  00112	2b c2		 sub	 eax, edx

; 172  :     _STL_VERIFY(_Back_shift >= _Min_back_shift && _Back_shift <= _Non_user_size, "invalid argument");

  00114	83 c0 fc	 add	 eax, -4			; fffffffcH
  00117	83 f8 1f	 cmp	 eax, 31			; 0000001fH
  0011a	77 27		 ja	 SHORT $LN36@Growmap

; 173  :     _Ptr = reinterpret_cast<void*>(_Ptr_container);

  0011c	8b c2		 mov	 eax, edx
$LN39@Growmap:

; 264  :         ::operator delete(_Ptr, _Bytes);

  0011e	51		 push	 ecx
  0011f	50		 push	 eax
  00120	e8 00 00 00 00	 call	 ??3@YAXPAXI@Z		; operator delete
  00125	83 c4 08	 add	 esp, 8
$LN29@Growmap:
; File C:\Program Files (x86)\Microsoft Visual Studio\2019\Professional\VC\Tools\MSVC\14.29.30133\include\deque

; 1475 :         _Mapsize() += _Count;

  00128	01 77 08	 add	 DWORD PTR [edi+8], esi
  0012b	89 5f 04	 mov	 DWORD PTR [edi+4], ebx
  0012e	5f		 pop	 edi
  0012f	5e		 pop	 esi
  00130	5b		 pop	 ebx

; 1476 :     }

  00131	8b e5		 mov	 esp, ebp
  00133	5d		 pop	 ebp
  00134	c2 04 00	 ret	 4
$LN44@Growmap:

; 1447 :                 _Xlen(); // result too long

  00137	8b cf		 mov	 ecx, edi
  00139	e8 00 00 00 00	 call	 ?_Xlen@?$deque@U?$pair@MUD3DXVECTOR3@@@std@@V?$allocator@U?$pair@MUD3DXVECTOR3@@@std@@@2@@std@@ABEXXZ ; std::deque<std::pair<float,D3DXVECTOR3>,std::allocator<std::pair<float,D3DXVECTOR3> > >::_Xlen
$LN51@Growmap:
; File C:\Program Files (x86)\Microsoft Visual Studio\2019\Professional\VC\Tools\MSVC\14.29.30133\include\xmemory

; 65   :             _Throw_bad_array_new_length(); // multiply overflow

  0013e	e8 00 00 00 00	 call	 ?_Throw_bad_array_new_length@std@@YAXXZ ; std::_Throw_bad_array_new_length
$LN36@Growmap:

; 172  :     _STL_VERIFY(_Back_shift >= _Min_back_shift && _Back_shift <= _Non_user_size, "invalid argument");

  00143	e8 00 00 00 00	 call	 __invalid_parameter_noinfo_noreturn
$LN49@Growmap:
  00148	cc		 int	 3
?_Growmap@?$deque@U?$pair@MUD3DXVECTOR3@@@std@@V?$allocator@U?$pair@MUD3DXVECTOR3@@@std@@@2@@std@@AAEXI@Z ENDP ; std::deque<std::pair<float,D3DXVECTOR3>,std::allocator<std::pair<float,D3DXVECTOR3> > >::_Growmap
_TEXT	ENDS
; Function compile flags: /Ogtp
; File C:\Program Files (x86)\Microsoft Visual Studio\2019\Professional\VC\Tools\MSVC\14.29.30133\include\deque
;	COMDAT ?_Xlen@?$deque@U?$pair@MUD3DXVECTOR3@@@std@@V?$allocator@U?$pair@MUD3DXVECTOR3@@@std@@@2@@std@@ABEXXZ
_TEXT	SEGMENT
?_Xlen@?$deque@U?$pair@MUD3DXVECTOR3@@@std@@V?$allocator@U?$pair@MUD3DXVECTOR3@@@std@@@2@@std@@ABEXXZ PROC ; std::deque<std::pair<float,D3DXVECTOR3>,std::allocator<std::pair<float,D3DXVECTOR3> > >::_Xlen, COMDAT
; _this$ = ecx

; 1432 :         _Xlength_error("deque<T> too long");

  00000	68 00 00 00 00	 push	 OFFSET ??_C@_0BC@KBDMBKEH@deque?$DMT?$DO?5too?5long@
  00005	e8 00 00 00 00	 call	 ?_Xlength_error@std@@YAXPBD@Z ; std::_Xlength_error
$LN3@Xlen:
  0000a	cc		 int	 3
?_Xlen@?$deque@U?$pair@MUD3DXVECTOR3@@@std@@V?$allocator@U?$pair@MUD3DXVECTOR3@@@std@@@2@@std@@ABEXXZ ENDP ; std::deque<std::pair<float,D3DXVECTOR3>,std::allocator<std::pair<float,D3DXVECTOR3> > >::_Xlen
_TEXT	ENDS
; Function compile flags: /Ogtp
; File C:\Program Files (x86)\Microsoft Visual Studio\2019\Professional\VC\Tools\MSVC\14.29.30133\include\deque
; File C:\Program Files (x86)\Microsoft Visual Studio\2019\Professional\VC\Tools\MSVC\14.29.30133\include\xmemory
; File C:\Program Files (x86)\Microsoft Visual Studio\2019\Professional\VC\Tools\MSVC\14.29.30133\include\deque
; File C:\Program Files (x86)\Microsoft Visual Studio\2019\Professional\VC\Tools\MSVC\14.29.30133\include\xmemory
; File C:\Program Files (x86)\Microsoft Visual Studio\2019\Professional\VC\Tools\MSVC\14.29.30133\include\deque
; File C:\Program Files (x86)\Microsoft Visual Studio\2019\Professional\VC\Tools\MSVC\14.29.30133\include\xmemory
; File C:\Program Files (x86)\Microsoft Visual Studio\2019\Professional\VC\Tools\MSVC\14.29.30133\include\xutility
; File C:\Program Files (x86)\Microsoft Visual Studio\2019\Professional\VC\Tools\MSVC\14.29.30133\include\deque
; File C:\Program Files (x86)\Microsoft Visual Studio\2019\Professional\VC\Tools\MSVC\14.29.30133\include\utility
; File C:\Program Files (x86)\Microsoft Visual Studio\2019\Professional\VC\Tools\MSVC\14.29.30133\include\xutility
; File C:\Program Files (x86)\Microsoft Visual Studio\2019\Professional\VC\Tools\MSVC\14.29.30133\include\deque
; File C:\Program Files (x86)\Microsoft Visual Studio\2019\Professional\VC\Tools\MSVC\14.29.30133\include\xutility
; File C:\Program Files (x86)\Microsoft Visual Studio\2019\Professional\VC\Tools\MSVC\14.29.30133\include\deque
; File C:\Program Files (x86)\Microsoft Visual Studio\2019\Professional\VC\Tools\MSVC\14.29.30133\include\xmemory
; File C:\Program Files (x86)\Microsoft Visual Studio\2019\Professional\VC\Tools\MSVC\14.29.30133\include\xutility
; File C:\Program Files (x86)\Microsoft Visual Studio\2019\Professional\VC\Tools\MSVC\14.29.30133\include\deque
; File C:\Program Files (x86)\Microsoft Visual Studio\2019\Professional\VC\Tools\MSVC\14.29.30133\include\utility
; File C:\Program Files (x86)\Microsoft Visual Studio\2019\Professional\VC\Tools\MSVC\14.29.30133\include\xutility
; File C:\Program Files (x86)\Microsoft Visual Studio\2019\Professional\VC\Tools\MSVC\14.29.30133\include\utility
; File C:\Program Files (x86)\Microsoft Visual Studio\2019\Professional\VC\Tools\MSVC\14.29.30133\include\deque
; File C:\Program Files (x86)\Microsoft Visual Studio\2019\Professional\VC\Tools\MSVC\14.29.30133\include\xutility
; File C:\Program Files (x86)\Microsoft Visual Studio\2019\Professional\VC\Tools\MSVC\14.29.30133\include\deque
; File C:\Program Files (x86)\Microsoft Visual Studio\2019\Professional\VC\Tools\MSVC\14.29.30133\include\xmemory
; File C:\Program Files (x86)\Microsoft Visual Studio\2019\Professional\VC\Tools\MSVC\14.29.30133\include\deque
; File C:\Program Files (x86)\Microsoft Visual Studio\2019\Professional\VC\Tools\MSVC\14.29.30133\include\xmemory
; File C:\Program Files (x86)\Microsoft Visual Studio\2019\Professional\VC\Tools\MSVC\14.29.30133\include\deque
;	COMDAT ?erase@?$deque@U?$pair@MUD3DXVECTOR3@@@std@@V?$allocator@U?$pair@MUD3DXVECTOR3@@@std@@@2@@std@@QAE?AV?$_Deque_iterator@V?$_Deque_val@U?$_Deque_simple_types@U?$pair@MUD3DXVECTOR3@@@std@@@std@@@std@@@2@V?$_Deque_const_iterator@V?$_Deque_val@U?$_Deque_simple_types@U?$pair@MUD3DXVECTOR3@@@std@@@std@@@std@@@2@0@Z
_TEXT	SEGMENT
__Off$1$ = -28						; size = 4
_this$1$ = -24						; size = 4
tv1990 = -16						; size = 4
__ULast$9$sroa$1088$1$ = -16				; size = 4
$T11 = -16						; size = 4
$T12 = -12						; size = 4
$T13 = -12						; size = 4
__Count$1$ = -8						; size = 4
__UFirst$3$sroa$1107$1$ = -4				; size = 4
$T14 = -4						; size = 4
___$ReturnUdt$ = 8					; size = 4
__First_arg$ = 12					; size = 12
__Last_arg$ = 24					; size = 12
?erase@?$deque@U?$pair@MUD3DXVECTOR3@@@std@@V?$allocator@U?$pair@MUD3DXVECTOR3@@@std@@@2@@std@@QAE?AV?$_Deque_iterator@V?$_Deque_val@U?$_Deque_simple_types@U?$pair@MUD3DXVECTOR3@@@std@@@std@@@std@@@2@V?$_Deque_const_iterator@V?$_Deque_val@U?$_Deque_simple_types@U?$pair@MUD3DXVECTOR3@@@std@@@std@@@std@@@2@0@Z PROC ; std::deque<std::pair<float,D3DXVECTOR3>,std::allocator<std::pair<float,D3DXVECTOR3> > >::erase, COMDAT
; _this$ = ecx

; 1288 :         is_nothrow_move_assignable_v<value_type>) /* strengthened */ {

  00000	55		 push	 ebp
  00001	8b ec		 mov	 ebp, esp
  00003	83 ec 1c	 sub	 esp, 28			; 0000001cH
  00006	53		 push	 ebx
  00007	56		 push	 esi
  00008	8b f1		 mov	 esi, ecx
  0000a	89 75 e8	 mov	 DWORD PTR _this$1$[ebp], esi
  0000d	57		 push	 edi
; File C:\Program Files (x86)\Microsoft Visual Studio\2019\Professional\VC\Tools\MSVC\14.29.30133\include\xmemory

; 1154 :         if (_Parent) { // have a parent, do adoption

  0000e	85 f6		 test	 esi, esi
  00010	74 04		 je	 SHORT $LN29@erase

; 1155 :             _Myproxy = _Parent->_Myproxy;

  00012	8b 16		 mov	 edx, DWORD PTR [esi]

; 1156 :         } else { // no future parent, just disown current parent

  00014	eb 02		 jmp	 SHORT $LN49@erase
$LN29@erase:

; 1157 :             _Myproxy = nullptr;

  00016	33 d2		 xor	 edx, edx
$LN49@erase:
; File C:\Program Files (x86)\Microsoft Visual Studio\2019\Professional\VC\Tools\MSVC\14.29.30133\include\deque

; 342  :         return static_cast<difference_type>(this->_Myoff - _Right._Myoff);

  00018	8b 5d 14	 mov	 ebx, DWORD PTR __First_arg$[ebp+8]
  0001b	8b cb		 mov	 ecx, ebx

; 256  :     _Deque_const_iterator(_Size_type _Off, const _Container_base12* _Pdeque) noexcept : _Myoff(_Off) {

  0001d	8b 46 0c	 mov	 eax, DWORD PTR [esi+12]

; 342  :         return static_cast<difference_type>(this->_Myoff - _Right._Myoff);

  00020	2b c8		 sub	 ecx, eax
  00022	89 4d e4	 mov	 DWORD PTR __Off$1$[ebp], ecx

; 1289 :         iterator _First = _Make_iter(_First_arg);
; 1290 :         iterator _Last  = _Make_iter(_Last_arg);
; 1291 : 
; 1292 : #if _ITERATOR_DEBUG_LEVEL == 2
; 1293 :         _STL_VERIFY(_First <= _Last && begin() <= _First && _Last <= end(), "deque erase iterator outside range");
; 1294 :         _Adl_verify_range(_First, _Last);
; 1295 : 
; 1296 :         auto _Off   = static_cast<size_type>(_First - begin());
; 1297 :         auto _Count = static_cast<size_type>(_Last - _First);
; 1298 :         bool _Moved = 0 < _Off && _Off + _Count < _Mysize();
; 1299 : 
; 1300 : #else // _ITERATOR_DEBUG_LEVEL == 2
; 1301 :         auto _Off   = static_cast<size_type>(_First - begin());

  00025	8b 4d 20	 mov	 ecx, DWORD PTR __Last_arg$[ebp+8]
  00028	8b f9		 mov	 edi, ecx
  0002a	2b fb		 sub	 edi, ebx

; 256  :     _Deque_const_iterator(_Size_type _Off, const _Container_base12* _Pdeque) noexcept : _Myoff(_Off) {

  0002c	89 45 fc	 mov	 DWORD PTR __UFirst$3$sroa$1107$1$[ebp], eax

; 1289 :         iterator _First = _Make_iter(_First_arg);
; 1290 :         iterator _Last  = _Make_iter(_Last_arg);
; 1291 : 
; 1292 : #if _ITERATOR_DEBUG_LEVEL == 2
; 1293 :         _STL_VERIFY(_First <= _Last && begin() <= _First && _Last <= end(), "deque erase iterator outside range");
; 1294 :         _Adl_verify_range(_First, _Last);
; 1295 : 
; 1296 :         auto _Off   = static_cast<size_type>(_First - begin());
; 1297 :         auto _Count = static_cast<size_type>(_Last - _First);
; 1298 :         bool _Moved = 0 < _Off && _Off + _Count < _Mysize();
; 1299 : 
; 1300 : #else // _ITERATOR_DEBUG_LEVEL == 2
; 1301 :         auto _Off   = static_cast<size_type>(_First - begin());

  0002f	89 7d f8	 mov	 DWORD PTR __Count$1$[ebp], edi

; 1302 :         auto _Count = static_cast<size_type>(_Last - _First);
; 1303 : #endif // _ITERATOR_DEBUG_LEVEL == 2
; 1304 : 
; 1305 :         if (_Count == 0) {

  00032	75 18		 jne	 SHORT $LN8@erase
; File C:\Program Files (x86)\Microsoft Visual Studio\2019\Professional\VC\Tools\MSVC\14.29.30133\include\xmemory

; 1169 :     mutable _Iterator_base12* _Mynextiter = nullptr;

  00034	8b 45 08	 mov	 eax, DWORD PTR ___$ReturnUdt$[ebp]

; 1125 :         _Myproxy = _Right._Myproxy;

  00037	89 10		 mov	 DWORD PTR [eax], edx
  00039	89 58 08	 mov	 DWORD PTR [eax+8], ebx
; File C:\Program Files (x86)\Microsoft Visual Studio\2019\Professional\VC\Tools\MSVC\14.29.30133\include\deque

; 1328 :     }

  0003c	c7 40 04 00 00
	00 00		 mov	 DWORD PTR [eax+4], 0
  00043	5f		 pop	 edi
  00044	5e		 pop	 esi
  00045	5b		 pop	 ebx
  00046	8b e5		 mov	 esp, ebp
  00048	5d		 pop	 ebp
  00049	c2 1c 00	 ret	 28			; 0000001cH
$LN8@erase:

; 904  :         return iterator(_Myoff() + _Mysize(), _STD addressof(_Get_data()));

  0004c	8b 46 10	 mov	 eax, DWORD PTR [esi+16]
  0004f	03 45 fc	 add	 eax, DWORD PTR __UFirst$3$sroa$1107$1$[ebp]
  00052	89 45 f0	 mov	 DWORD PTR tv1990[ebp], eax

; 342  :         return static_cast<difference_type>(this->_Myoff - _Right._Myoff);

  00055	2b c1		 sub	 eax, ecx

; 1306 :             return _First;
; 1307 :         }
; 1308 : 
; 1309 :         if (_Off < static_cast<size_type>(end() - _Last)) { // closer to front

  00057	39 45 e4	 cmp	 DWORD PTR __Off$1$[ebp], eax
  0005a	0f 83 7c 00 00
	00		 jae	 $LN9@erase

; 511  :         return {this->_Myoff, this->_Getcont()};

  00060	85 d2		 test	 edx, edx
; File C:\Program Files (x86)\Microsoft Visual Studio\2019\Professional\VC\Tools\MSVC\14.29.30133\include\xmemory

; 1163 :         return _Myproxy ? _Myproxy->_Mycont : nullptr;

  00062	74 07		 je	 SHORT $LN144@erase
  00064	8b 02		 mov	 eax, DWORD PTR [edx]
  00066	89 45 f4	 mov	 DWORD PTR $T13[ebp], eax
  00069	eb 05		 jmp	 SHORT $LN407@erase
$LN144@erase:
  0006b	33 c0		 xor	 eax, eax
  0006d	89 45 f4	 mov	 DWORD PTR $T13[ebp], eax
$LN407@erase:
; File C:\Program Files (x86)\Microsoft Visual Studio\2019\Professional\VC\Tools\MSVC\14.29.30133\include\xutility

; 4486 :     _Seek_wrapped(_Dest, _Move_backward_unchecked(_UFirst, _ULast, _UDest));

  00070	89 45 f0	 mov	 DWORD PTR $T11[ebp], eax
  00073	39 5d fc	 cmp	 DWORD PTR __UFirst$3$sroa$1107$1$[ebp], ebx

; 4472 :     while (_First != _Last) {

  00076	74 48		 je	 SHORT $LL403@erase
  00078	8b 75 fc	 mov	 esi, DWORD PTR __UFirst$3$sroa$1107$1$[ebp]
  0007b	8b f9		 mov	 edi, ecx
  0007d	0f 1f 00	 npad	 3
$LL169@erase:
; File C:\Program Files (x86)\Microsoft Visual Studio\2019\Professional\VC\Tools\MSVC\14.29.30133\include\deque

; 565  :         return (_Off / _Block_size) & (_Mapsize - 1);

  00080	8b 48 08	 mov	 ecx, DWORD PTR [eax+8]

; 68   :         --_Myoff;

  00083	4b		 dec	 ebx

; 169  :         return const_cast<reference>(_Mybase::operator*());

  00084	8b 40 04	 mov	 eax, DWORD PTR [eax+4]

; 565  :         return (_Off / _Block_size) & (_Mapsize - 1);

  00087	49		 dec	 ecx
  00088	23 cb		 and	 ecx, ebx

; 68   :         --_Myoff;

  0008a	4f		 dec	 edi

; 169  :         return const_cast<reference>(_Mybase::operator*());

  0008b	8b 14 88	 mov	 edx, DWORD PTR [eax+ecx*4]

; 565  :         return (_Off / _Block_size) & (_Mapsize - 1);

  0008e	8b 45 f4	 mov	 eax, DWORD PTR $T13[ebp]
  00091	8b 48 08	 mov	 ecx, DWORD PTR [eax+8]

; 169  :         return const_cast<reference>(_Mybase::operator*());

  00094	8b 40 04	 mov	 eax, DWORD PTR [eax+4]

; 565  :         return (_Off / _Block_size) & (_Mapsize - 1);

  00097	49		 dec	 ecx
  00098	23 cf		 and	 ecx, edi

; 169  :         return const_cast<reference>(_Mybase::operator*());

  0009a	8b 0c 88	 mov	 ecx, DWORD PTR [eax+ecx*4]
; File C:\Program Files (x86)\Microsoft Visual Studio\2019\Professional\VC\Tools\MSVC\14.29.30133\include\utility

; 295  :         first  = _STD forward<_Ty1>(_Right.first);

  0009d	8b 02		 mov	 eax, DWORD PTR [edx]
  0009f	89 01		 mov	 DWORD PTR [ecx], eax

; 296  :         second = _STD forward<_Ty2>(_Right.second);

  000a1	f3 0f 7e 42 04	 movq	 xmm0, QWORD PTR [edx+4]
  000a6	66 0f d6 41 04	 movq	 QWORD PTR [ecx+4], xmm0
  000ab	8b 42 0c	 mov	 eax, DWORD PTR [edx+12]
  000ae	89 41 0c	 mov	 DWORD PTR [ecx+12], eax
; File C:\Program Files (x86)\Microsoft Visual Studio\2019\Professional\VC\Tools\MSVC\14.29.30133\include\xutility

; 4472 :     while (_First != _Last) {

  000b1	8b 45 f0	 mov	 eax, DWORD PTR $T11[ebp]
; File C:\Program Files (x86)\Microsoft Visual Studio\2019\Professional\VC\Tools\MSVC\14.29.30133\include\deque

; 107  :         return _Myoff == _Right._Myoff;

  000b4	3b de		 cmp	 ebx, esi
; File C:\Program Files (x86)\Microsoft Visual Studio\2019\Professional\VC\Tools\MSVC\14.29.30133\include\xutility

; 4472 :     while (_First != _Last) {

  000b6	75 c8		 jne	 SHORT $LL169@erase
  000b8	8b 75 e8	 mov	 esi, DWORD PTR _this$1$[ebp]
  000bb	8b 7d f8	 mov	 edi, DWORD PTR __Count$1$[ebp]
  000be	66 90		 npad	 2
$LL403@erase:
; File C:\Program Files (x86)\Microsoft Visual Studio\2019\Professional\VC\Tools\MSVC\14.29.30133\include\deque

; 1102 :         if (--_Mysize() == 0) {

  000c0	83 46 10 ff	 add	 DWORD PTR [esi+16], -1
  000c4	75 09		 jne	 SHORT $LN207@erase

; 1103 :             _Myoff() = 0;

  000c6	c7 46 0c 00 00
	00 00		 mov	 DWORD PTR [esi+12], 0

; 1104 :         } else {

  000cd	eb 03		 jmp	 SHORT $LN2@erase
$LN207@erase:

; 1105 :             ++_Myoff();

  000cf	ff 46 0c	 inc	 DWORD PTR [esi+12]
$LN2@erase:

; 1310 :             _STD move_backward(begin(), _First, _Last); // copy over hole
; 1311 :             for (; 0 < _Count; --_Count) {

  000d2	83 ef 01	 sub	 edi, 1
  000d5	75 e9		 jne	 SHORT $LL403@erase

; 1312 :                 pop_front(); // pop copied elements
; 1313 :             }
; 1314 :         } else { // closer to back

  000d7	e9 86 00 00 00	 jmp	 $LN6@erase
$LN9@erase:

; 511  :         return {this->_Myoff, this->_Getcont()};

  000dc	85 d2		 test	 edx, edx
; File C:\Program Files (x86)\Microsoft Visual Studio\2019\Professional\VC\Tools\MSVC\14.29.30133\include\xmemory

; 1163 :         return _Myproxy ? _Myproxy->_Mycont : nullptr;

  000de	74 12		 je	 SHORT $LN252@erase
  000e0	8b 02		 mov	 eax, DWORD PTR [edx]
  000e2	8b d0		 mov	 edx, eax
  000e4	89 45 f4	 mov	 DWORD PTR $T12[ebp], eax
  000e7	89 45 fc	 mov	 DWORD PTR $T14[ebp], eax
  000ea	8b 45 f0	 mov	 eax, DWORD PTR tv1990[ebp]
  000ed	89 45 f0	 mov	 DWORD PTR __ULast$9$sroa$1088$1$[ebp], eax
  000f0	eb 14		 jmp	 SHORT $LN283@erase
$LN252@erase:
  000f2	8b 55 f0	 mov	 edx, DWORD PTR tv1990[ebp]
  000f5	8b c2		 mov	 eax, edx
  000f7	89 55 f0	 mov	 DWORD PTR __ULast$9$sroa$1088$1$[ebp], edx
  000fa	33 d2		 xor	 edx, edx
  000fc	c7 45 f4 00 00
	00 00		 mov	 DWORD PTR $T12[ebp], 0
  00103	89 55 fc	 mov	 DWORD PTR $T14[ebp], edx
$LN283@erase:
; File C:\Program Files (x86)\Microsoft Visual Studio\2019\Professional\VC\Tools\MSVC\14.29.30133\include\xutility

; 4443 :     _Seek_wrapped(_Dest, _Move_unchecked(_UFirst, _ULast, _UDest));

  00106	3b c8		 cmp	 ecx, eax

; 4429 :     for (; _First != _Last; ++_Dest, (void) ++_First) {

  00108	74 46		 je	 SHORT $LL405@erase
  0010a	8b 75 f4	 mov	 esi, DWORD PTR $T12[ebp]
  0010d	8b f9		 mov	 edi, ecx
  0010f	90		 npad	 1
$LL300@erase:
; File C:\Program Files (x86)\Microsoft Visual Studio\2019\Professional\VC\Tools\MSVC\14.29.30133\include\deque

; 565  :         return (_Off / _Block_size) & (_Mapsize - 1);

  00110	8b 4a 08	 mov	 ecx, DWORD PTR [edx+8]

; 169  :         return const_cast<reference>(_Mybase::operator*());

  00113	8b 42 04	 mov	 eax, DWORD PTR [edx+4]

; 565  :         return (_Off / _Block_size) & (_Mapsize - 1);

  00116	49		 dec	 ecx
  00117	23 cf		 and	 ecx, edi

; 57   :         ++_Myoff;

  00119	47		 inc	 edi

; 169  :         return const_cast<reference>(_Mybase::operator*());

  0011a	8b 14 88	 mov	 edx, DWORD PTR [eax+ecx*4]

; 565  :         return (_Off / _Block_size) & (_Mapsize - 1);

  0011d	8b 4e 08	 mov	 ecx, DWORD PTR [esi+8]

; 169  :         return const_cast<reference>(_Mybase::operator*());

  00120	8b 46 04	 mov	 eax, DWORD PTR [esi+4]

; 565  :         return (_Off / _Block_size) & (_Mapsize - 1);

  00123	49		 dec	 ecx
  00124	23 cb		 and	 ecx, ebx

; 57   :         ++_Myoff;

  00126	43		 inc	 ebx

; 169  :         return const_cast<reference>(_Mybase::operator*());

  00127	8b 0c 88	 mov	 ecx, DWORD PTR [eax+ecx*4]
; File C:\Program Files (x86)\Microsoft Visual Studio\2019\Professional\VC\Tools\MSVC\14.29.30133\include\utility

; 295  :         first  = _STD forward<_Ty1>(_Right.first);

  0012a	8b 02		 mov	 eax, DWORD PTR [edx]
  0012c	89 01		 mov	 DWORD PTR [ecx], eax

; 296  :         second = _STD forward<_Ty2>(_Right.second);

  0012e	f3 0f 7e 42 04	 movq	 xmm0, QWORD PTR [edx+4]
  00133	66 0f d6 41 04	 movq	 QWORD PTR [ecx+4], xmm0
  00138	8b 42 0c	 mov	 eax, DWORD PTR [edx+12]
; File C:\Program Files (x86)\Microsoft Visual Studio\2019\Professional\VC\Tools\MSVC\14.29.30133\include\xutility

; 4429 :     for (; _First != _Last; ++_Dest, (void) ++_First) {

  0013b	8b 55 fc	 mov	 edx, DWORD PTR $T14[ebp]
; File C:\Program Files (x86)\Microsoft Visual Studio\2019\Professional\VC\Tools\MSVC\14.29.30133\include\utility

; 296  :         second = _STD forward<_Ty2>(_Right.second);

  0013e	89 41 0c	 mov	 DWORD PTR [ecx+12], eax
; File C:\Program Files (x86)\Microsoft Visual Studio\2019\Professional\VC\Tools\MSVC\14.29.30133\include\deque

; 107  :         return _Myoff == _Right._Myoff;

  00141	3b 7d f0	 cmp	 edi, DWORD PTR __ULast$9$sroa$1088$1$[ebp]
; File C:\Program Files (x86)\Microsoft Visual Studio\2019\Professional\VC\Tools\MSVC\14.29.30133\include\xutility

; 4429 :     for (; _First != _Last; ++_Dest, (void) ++_First) {

  00144	75 ca		 jne	 SHORT $LL300@erase
  00146	8b 75 e8	 mov	 esi, DWORD PTR _this$1$[ebp]
  00149	8b 7d f8	 mov	 edi, DWORD PTR __Count$1$[ebp]
  0014c	0f 1f 40 00	 npad	 4
$LL405@erase:
; File C:\Program Files (x86)\Microsoft Visual Studio\2019\Professional\VC\Tools\MSVC\14.29.30133\include\deque

; 1153 :         if (--_Mysize() == 0) {

  00150	83 46 10 ff	 add	 DWORD PTR [esi+16], -1
  00154	75 07		 jne	 SHORT $LN5@erase

; 1154 :             _Myoff() = 0;

  00156	c7 46 0c 00 00
	00 00		 mov	 DWORD PTR [esi+12], 0
$LN5@erase:

; 1315 :             _STD move(_Last, end(), _First); // copy over hole
; 1316 :             for (; 0 < _Count; --_Count) {

  0015d	83 ef 01	 sub	 edi, 1
  00160	75 ee		 jne	 SHORT $LL405@erase
$LN6@erase:
; File C:\Program Files (x86)\Microsoft Visual Studio\2019\Professional\VC\Tools\MSVC\14.29.30133\include\xmemory

; 1169 :     mutable _Iterator_base12* _Mynextiter = nullptr;

  00162	8b 45 08	 mov	 eax, DWORD PTR ___$ReturnUdt$[ebp]

; 1155 :             _Myproxy = _Parent->_Myproxy;

  00165	8b 0e		 mov	 ecx, DWORD PTR [esi]
; File C:\Program Files (x86)\Microsoft Visual Studio\2019\Professional\VC\Tools\MSVC\14.29.30133\include\deque

; 1328 :     }

  00167	5f		 pop	 edi
; File C:\Program Files (x86)\Microsoft Visual Studio\2019\Professional\VC\Tools\MSVC\14.29.30133\include\xmemory

; 1125 :         _Myproxy = _Right._Myproxy;

  00168	89 08		 mov	 DWORD PTR [eax], ecx
; File C:\Program Files (x86)\Microsoft Visual Studio\2019\Professional\VC\Tools\MSVC\14.29.30133\include\deque

; 322  :         _Myoff += _Off;

  0016a	8b 4e 0c	 mov	 ecx, DWORD PTR [esi+12]
  0016d	03 4d e4	 add	 ecx, DWORD PTR __Off$1$[ebp]

; 1328 :     }

  00170	5e		 pop	 esi
  00171	89 48 08	 mov	 DWORD PTR [eax+8], ecx
  00174	c7 40 04 00 00
	00 00		 mov	 DWORD PTR [eax+4], 0
  0017b	5b		 pop	 ebx
  0017c	8b e5		 mov	 esp, ebp
  0017e	5d		 pop	 ebp
  0017f	c2 1c 00	 ret	 28			; 0000001cH
?erase@?$deque@U?$pair@MUD3DXVECTOR3@@@std@@V?$allocator@U?$pair@MUD3DXVECTOR3@@@std@@@2@@std@@QAE?AV?$_Deque_iterator@V?$_Deque_val@U?$_Deque_simple_types@U?$pair@MUD3DXVECTOR3@@@std@@@std@@@std@@@2@V?$_Deque_const_iterator@V?$_Deque_val@U?$_Deque_simple_types@U?$pair@MUD3DXVECTOR3@@@std@@@std@@@std@@@2@0@Z ENDP ; std::deque<std::pair<float,D3DXVECTOR3>,std::allocator<std::pair<float,D3DXVECTOR3> > >::erase
_TEXT	ENDS
; Function compile flags: /Ogtp
; File C:\Program Files (x86)\Microsoft Visual Studio\2019\Professional\VC\Tools\MSVC\14.29.30133\include\deque
; File C:\Program Files (x86)\Microsoft Visual Studio\2019\Professional\VC\Tools\MSVC\14.29.30133\include\utility
; File C:\Program Files (x86)\Microsoft Visual Studio\2019\Professional\VC\Tools\MSVC\14.29.30133\include\xmemory
; File C:\Program Files (x86)\Microsoft Visual Studio\2019\Professional\VC\Tools\MSVC\14.29.30133\include\utility
; File C:\Program Files (x86)\Microsoft Visual Studio\2019\Professional\VC\Tools\MSVC\14.29.30133\include\xmemory
; File C:\Program Files (x86)\Microsoft Visual Studio\2019\Professional\VC\Tools\MSVC\14.29.30133\include\deque
;	COMDAT ??1?$deque@U?$pair@MUD3DXVECTOR3@@@std@@V?$allocator@U?$pair@MUD3DXVECTOR3@@@std@@@2@@std@@QAE@XZ
_TEXT	SEGMENT
??1?$deque@U?$pair@MUD3DXVECTOR3@@@std@@V?$allocator@U?$pair@MUD3DXVECTOR3@@@std@@@2@@std@@QAE@XZ PROC ; std::deque<std::pair<float,D3DXVECTOR3>,std::allocator<std::pair<float,D3DXVECTOR3> > >::~deque<std::pair<float,D3DXVECTOR3>,std::allocator<std::pair<float,D3DXVECTOR3> > >, COMDAT
; _this$ = ecx

; 867  :     ~deque() noexcept {

  00000	56		 push	 esi
  00001	8b f1		 mov	 esi, ecx

; 868  :         _Tidy();

  00003	e8 00 00 00 00	 call	 ?_Tidy@?$deque@U?$pair@MUD3DXVECTOR3@@@std@@V?$allocator@U?$pair@MUD3DXVECTOR3@@@std@@@2@@std@@AAEXXZ ; std::deque<std::pair<float,D3DXVECTOR3>,std::allocator<std::pair<float,D3DXVECTOR3> > >::_Tidy
; File C:\Program Files (x86)\Microsoft Visual Studio\2019\Professional\VC\Tools\MSVC\14.29.30133\include\utility

; 616  :     _Ty _Old_val = static_cast<_Ty&&>(_Val);

  00008	8b 06		 mov	 eax, DWORD PTR [esi]
; File C:\Program Files (x86)\Microsoft Visual Studio\2019\Professional\VC\Tools\MSVC\14.29.30133\include\xmemory

; 264  :         ::operator delete(_Ptr, _Bytes);

  0000a	6a 08		 push	 8
  0000c	50		 push	 eax
; File C:\Program Files (x86)\Microsoft Visual Studio\2019\Professional\VC\Tools\MSVC\14.29.30133\include\utility

; 617  :     _Val         = static_cast<_Other&&>(_New_val);

  0000d	c7 06 00 00 00
	00		 mov	 DWORD PTR [esi], 0
; File C:\Program Files (x86)\Microsoft Visual Studio\2019\Professional\VC\Tools\MSVC\14.29.30133\include\xmemory

; 264  :         ::operator delete(_Ptr, _Bytes);

  00013	e8 00 00 00 00	 call	 ??3@YAXPAXI@Z		; operator delete
  00018	83 c4 08	 add	 esp, 8
  0001b	5e		 pop	 esi
; File C:\Program Files (x86)\Microsoft Visual Studio\2019\Professional\VC\Tools\MSVC\14.29.30133\include\deque

; 871  :     }

  0001c	c3		 ret	 0
??1?$deque@U?$pair@MUD3DXVECTOR3@@@std@@V?$allocator@U?$pair@MUD3DXVECTOR3@@@std@@@2@@std@@QAE@XZ ENDP ; std::deque<std::pair<float,D3DXVECTOR3>,std::allocator<std::pair<float,D3DXVECTOR3> > >::~deque<std::pair<float,D3DXVECTOR3>,std::allocator<std::pair<float,D3DXVECTOR3> > >
_TEXT	ENDS
; Function compile flags: /Ogtp
; File C:\Program Files (x86)\Microsoft Visual Studio\2019\Professional\VC\Tools\MSVC\14.29.30133\include\deque
; File C:\Program Files (x86)\Microsoft Visual Studio\2019\Professional\VC\Tools\MSVC\14.29.30133\include\xmemory
; File C:\Program Files (x86)\Microsoft Visual Studio\2019\Professional\VC\Tools\MSVC\14.29.30133\include\deque
; File C:\Program Files (x86)\Microsoft Visual Studio\2019\Professional\VC\Tools\MSVC\14.29.30133\include\xmemory
; File C:\Program Files (x86)\Microsoft Visual Studio\2019\Professional\VC\Tools\MSVC\14.29.30133\include\deque
; File C:\Program Files (x86)\Microsoft Visual Studio\2019\Professional\VC\Tools\MSVC\14.29.30133\include\xmemory
; File C:\Program Files (x86)\Microsoft Visual Studio\2019\Professional\VC\Tools\MSVC\14.29.30133\include\deque
;	COMDAT ?push_front@?$deque@U?$pair@MUD3DXVECTOR3@@@std@@V?$allocator@U?$pair@MUD3DXVECTOR3@@@std@@@2@@std@@QAEX$$QAU?$pair@MUD3DXVECTOR3@@@2@@Z
_TEXT	SEGMENT
__Val$ = 8						; size = 4
?push_front@?$deque@U?$pair@MUD3DXVECTOR3@@@std@@V?$allocator@U?$pair@MUD3DXVECTOR3@@@std@@@2@@std@@QAEX$$QAU?$pair@MUD3DXVECTOR3@@@2@@Z PROC ; std::deque<std::pair<float,D3DXVECTOR3>,std::allocator<std::pair<float,D3DXVECTOR3> > >::push_front, COMDAT
; _this$ = ecx

; 780  :     void push_front(_Ty&& _Val) {

  00000	55		 push	 ebp
  00001	8b ec		 mov	 ebp, esp
  00003	53		 push	 ebx
  00004	56		 push	 esi
  00005	8b f1		 mov	 esi, ecx
  00007	57		 push	 edi

; 797  :         if (_Myoff() % _Block_size == 0 && _Mapsize() <= (_Mysize() + _Block_size) / _Block_size) {

  00008	8b 46 10	 mov	 eax, DWORD PTR [esi+16]
  0000b	8b 4e 08	 mov	 ecx, DWORD PTR [esi+8]
  0000e	40		 inc	 eax
  0000f	3b c8		 cmp	 ecx, eax
  00011	77 0c		 ja	 SHORT $LN4@push_front

; 798  :             _Growmap(1);

  00013	6a 01		 push	 1
  00015	8b ce		 mov	 ecx, esi
  00017	e8 00 00 00 00	 call	 ?_Growmap@?$deque@U?$pair@MUD3DXVECTOR3@@@std@@V?$allocator@U?$pair@MUD3DXVECTOR3@@@std@@@2@@std@@AAEXI@Z ; std::deque<std::pair<float,D3DXVECTOR3>,std::allocator<std::pair<float,D3DXVECTOR3> > >::_Growmap
  0001c	8b 4e 08	 mov	 ecx, DWORD PTR [esi+8]
$LN4@push_front:

; 799  :         }
; 800  :         _Myoff() &= _Mapsize() * _Block_size - 1;

  0001f	8d 41 ff	 lea	 eax, DWORD PTR [ecx-1]
  00022	21 46 0c	 and	 DWORD PTR [esi+12], eax
  00025	8b 7e 0c	 mov	 edi, DWORD PTR [esi+12]

; 801  :         size_type _Newoff = _Myoff() != 0 ? _Myoff() : _Mapsize() * _Block_size;
; 802  :         size_type _Block  = _Getblock(--_Newoff);

  00028	0f 44 f9	 cmove	 edi, ecx

; 803  :         if (_Map()[_Block] == nullptr) {

  0002b	8b 4e 04	 mov	 ecx, DWORD PTR [esi+4]
  0002e	4f		 dec	 edi

; 565  :         return (_Off / _Block_size) & (_Mapsize - 1);

  0002f	23 c7		 and	 eax, edi

; 803  :         if (_Map()[_Block] == nullptr) {

  00031	83 3c 81 00	 cmp	 DWORD PTR [ecx+eax*4], 0
  00035	8d 1c 85 00 00
	00 00		 lea	 ebx, DWORD PTR [eax*4]
  0003c	75 13		 jne	 SHORT $LN5@push_front
; File C:\Program Files (x86)\Microsoft Visual Studio\2019\Professional\VC\Tools\MSVC\14.29.30133\include\xmemory

; 85   :         return ::operator new(_Bytes);

  0003e	6a 10		 push	 16			; 00000010H
  00040	e8 00 00 00 00	 call	 ??2@YAPAXI@Z		; operator new
; File C:\Program Files (x86)\Microsoft Visual Studio\2019\Professional\VC\Tools\MSVC\14.29.30133\include\deque

; 804  :             _Map()[_Block] = _Getal().allocate(_Block_size);

  00045	8b 4e 04	 mov	 ecx, DWORD PTR [esi+4]
; File C:\Program Files (x86)\Microsoft Visual Studio\2019\Professional\VC\Tools\MSVC\14.29.30133\include\xmemory

; 85   :         return ::operator new(_Bytes);

  00048	83 c4 04	 add	 esp, 4
; File C:\Program Files (x86)\Microsoft Visual Studio\2019\Professional\VC\Tools\MSVC\14.29.30133\include\deque

; 804  :             _Map()[_Block] = _Getal().allocate(_Block_size);

  0004b	89 04 0b	 mov	 DWORD PTR [ebx+ecx], eax
  0004e	8b 4e 04	 mov	 ecx, DWORD PTR [esi+4]
$LN5@push_front:
; File C:\Program Files (x86)\Microsoft Visual Studio\2019\Professional\VC\Tools\MSVC\14.29.30133\include\xmemory

; 714  :             ::new (_Voidify_iter(_Ptr)) _Objty(_STD forward<_Types>(_Args)...);

  00051	8b 45 08	 mov	 eax, DWORD PTR __Val$[ebp]
  00054	8b 0c 0b	 mov	 ecx, DWORD PTR [ebx+ecx]
  00057	0f 10 00	 movups	 xmm0, XMMWORD PTR [eax]
  0005a	0f 11 01	 movups	 XMMWORD PTR [ecx], xmm0
; File C:\Program Files (x86)\Microsoft Visual Studio\2019\Professional\VC\Tools\MSVC\14.29.30133\include\deque

; 811  :         ++_Mysize();

  0005d	ff 46 10	 inc	 DWORD PTR [esi+16]
  00060	89 7e 0c	 mov	 DWORD PTR [esi+12], edi
  00063	5f		 pop	 edi
  00064	5e		 pop	 esi
  00065	5b		 pop	 ebx

; 781  :         emplace_front(_STD move(_Val));
; 782  :     }

  00066	5d		 pop	 ebp
  00067	c2 04 00	 ret	 4
?push_front@?$deque@U?$pair@MUD3DXVECTOR3@@@std@@V?$allocator@U?$pair@MUD3DXVECTOR3@@@std@@@2@@std@@QAEX$$QAU?$pair@MUD3DXVECTOR3@@@2@@Z ENDP ; std::deque<std::pair<float,D3DXVECTOR3>,std::allocator<std::pair<float,D3DXVECTOR3> > >::push_front
_TEXT	ENDS
; Function compile flags: /Ogtp
; File C:\Users\murat\Desktop\Siveps2-1-99-Project\source\client\Client\GameLib\WeaponTrace.cpp
; File C:\Program Files (x86)\Microsoft Visual Studio\2019\Professional\VC\Tools\MSVC\14.29.30133\include\vector
; File C:\Users\murat\Desktop\Siveps2-1-99-Project\source\client\Client\GameLib\WeaponTrace.cpp
; File C:\Program Files (x86)\Microsoft Visual Studio\2019\Professional\VC\Tools\MSVC\14.29.30133\include\vector
; File C:\Program Files (x86)\Microsoft Visual Studio\2019\Professional\VC\Tools\MSVC\14.29.30133\include\deque
; File C:\Users\murat\Desktop\Siveps2-1-99-Project\source\client\Client\GameLib\WeaponTrace.cpp
; File C:\Program Files (x86)\Microsoft Visual Studio\2019\Professional\VC\Tools\MSVC\14.29.30133\include\deque
; File C:\Users\murat\Desktop\Siveps2-1-99-Project\source\client\Client\GameLib\WeaponTrace.cpp
; File C:\Program Files (x86)\Microsoft Visual Studio\2019\Professional\VC\Tools\MSVC\14.29.30133\include\deque
; File C:\Users\murat\Desktop\Siveps2-1-99-Project\source\client\Client\GameLib\WeaponTrace.cpp
; File C:\Program Files (x86)\Microsoft Visual Studio\2019\Professional\VC\Tools\MSVC\14.29.30133\include\deque
; File C:\Users\murat\Desktop\Siveps2-1-99-Project\source\client\Client\GameLib\WeaponTrace.cpp
; File C:\Program Files (x86)\Microsoft Visual Studio\2019\Professional\VC\Tools\MSVC\14.29.30133\include\deque
; File C:\Users\murat\Desktop\Siveps2-1-99-Project\source\client\Client\GameLib\WeaponTrace.cpp
; File C:\Program Files (x86)\Microsoft Visual Studio\2019\Professional\VC\Tools\MSVC\14.29.30133\include\deque
; File C:\Users\murat\Desktop\Siveps2-1-99-Project\source\client\Client\GameLib\WeaponTrace.cpp
; File C:\Program Files (x86)\Microsoft Visual Studio\2019\Professional\VC\Tools\MSVC\14.29.30133\include\deque
; File C:\Users\murat\Desktop\Siveps2-1-99-Project\source\client\Client\GameLib\WeaponTrace.cpp
; File C:\Program Files (x86)\Microsoft Visual Studio\2019\Professional\VC\Tools\MSVC\14.29.30133\include\deque
; File C:\Users\murat\Desktop\Siveps2-1-99-Project\source\client\Client\GameLib\WeaponTrace.cpp
; File C:\Program Files (x86)\Microsoft Visual Studio\2019\Professional\VC\Tools\MSVC\14.29.30133\include\deque
; File C:\Users\murat\Desktop\Siveps2-1-99-Project\source\client\Client\GameLib\WeaponTrace.cpp
; File C:\Program Files (x86)\Microsoft Visual Studio\2019\Professional\VC\Tools\MSVC\14.29.30133\include\deque
; File C:\Users\murat\Desktop\Siveps2-1-99-Project\source\client\Client\GameLib\WeaponTrace.cpp
; File C:\Program Files (x86)\Microsoft Visual Studio\2019\Professional\VC\Tools\MSVC\14.29.30133\include\deque
; File C:\Users\murat\Desktop\Siveps2-1-99-Project\source\client\Client\GameLib\WeaponTrace.cpp
; File C:\Users\murat\Desktop\Siveps2-1-99-Project\source\client\extern\include\d3dx8math.inl
; File C:\Users\murat\Desktop\Siveps2-1-99-Project\source\client\Client\GameLib\WeaponTrace.cpp
; File C:\Users\murat\Desktop\Siveps2-1-99-Project\source\client\extern\include\d3dx8math.inl
; File C:\Users\murat\Desktop\Siveps2-1-99-Project\source\client\Client\GameLib\WeaponTrace.cpp
; File C:\Users\murat\Desktop\Siveps2-1-99-Project\source\client\extern\include\d3dx8math.inl
; File C:\Users\murat\Desktop\Siveps2-1-99-Project\source\client\Client\GameLib\WeaponTrace.cpp
; File C:\Users\murat\Desktop\Siveps2-1-99-Project\source\client\extern\include\d3dx8math.inl
; File C:\Users\murat\Desktop\Siveps2-1-99-Project\source\client\Client\GameLib\WeaponTrace.cpp
; File C:\Users\murat\Desktop\Siveps2-1-99-Project\source\client\extern\include\d3dx8math.inl
; File C:\Users\murat\Desktop\Siveps2-1-99-Project\source\client\Client\GameLib\WeaponTrace.cpp
; File C:\Users\murat\Desktop\Siveps2-1-99-Project\source\client\extern\include\d3dx8math.inl
; File C:\Users\murat\Desktop\Siveps2-1-99-Project\source\client\Client\GameLib\WeaponTrace.cpp
; File C:\Users\murat\Desktop\Siveps2-1-99-Project\source\client\extern\include\d3dx8math.inl
; File C:\Users\murat\Desktop\Siveps2-1-99-Project\source\client\Client\GameLib\WeaponTrace.cpp
; File C:\Users\murat\Desktop\Siveps2-1-99-Project\source\client\extern\include\d3dx8math.inl
; File C:\Users\murat\Desktop\Siveps2-1-99-Project\source\client\Client\GameLib\WeaponTrace.cpp
; File C:\Users\murat\Desktop\Siveps2-1-99-Project\source\client\extern\include\d3dx8math.inl
; File C:\Users\murat\Desktop\Siveps2-1-99-Project\source\client\Client\GameLib\WeaponTrace.cpp
; File C:\Users\murat\Desktop\Siveps2-1-99-Project\source\client\extern\include\d3dx8math.inl
; File C:\Users\murat\Desktop\Siveps2-1-99-Project\source\client\Client\GameLib\WeaponTrace.cpp
; File C:\Users\murat\Desktop\Siveps2-1-99-Project\source\client\extern\include\d3dx8math.inl
; File C:\Users\murat\Desktop\Siveps2-1-99-Project\source\client\Client\GameLib\WeaponTrace.cpp
; File C:\Users\murat\Desktop\Siveps2-1-99-Project\source\client\extern\include\d3dx8math.inl
; File C:\Users\murat\Desktop\Siveps2-1-99-Project\source\client\Client\GameLib\WeaponTrace.cpp
; File C:\Users\murat\Desktop\Siveps2-1-99-Project\source\client\extern\include\d3dx8math.inl
; File C:\Users\murat\Desktop\Siveps2-1-99-Project\source\client\Client\GameLib\WeaponTrace.cpp
; File C:\Users\murat\Desktop\Siveps2-1-99-Project\source\client\extern\include\d3dx8math.inl
; File C:\Users\murat\Desktop\Siveps2-1-99-Project\source\client\Client\GameLib\WeaponTrace.cpp
; File C:\Users\murat\Desktop\Siveps2-1-99-Project\source\client\extern\include\d3dx8math.inl
; File C:\Users\murat\Desktop\Siveps2-1-99-Project\source\client\Client\GameLib\WeaponTrace.cpp
; File C:\Users\murat\Desktop\Siveps2-1-99-Project\source\client\extern\include\d3dx8math.inl
; File C:\Users\murat\Desktop\Siveps2-1-99-Project\source\client\Client\GameLib\WeaponTrace.cpp
; File C:\Users\murat\Desktop\Siveps2-1-99-Project\source\client\extern\include\d3dx8math.inl
; File C:\Users\murat\Desktop\Siveps2-1-99-Project\source\client\Client\GameLib\WeaponTrace.cpp
; File C:\Program Files (x86)\Microsoft Visual Studio\2019\Professional\VC\Tools\MSVC\14.29.30133\include\deque
; File C:\Users\murat\Desktop\Siveps2-1-99-Project\source\client\Client\GameLib\WeaponTrace.cpp
; File C:\Program Files (x86)\Microsoft Visual Studio\2019\Professional\VC\Tools\MSVC\14.29.30133\include\deque
; File C:\Users\murat\Desktop\Siveps2-1-99-Project\source\client\Client\GameLib\WeaponTrace.cpp
; File C:\Program Files (x86)\Microsoft Visual Studio\2019\Professional\VC\Tools\MSVC\14.29.30133\include\deque
; File C:\Users\murat\Desktop\Siveps2-1-99-Project\source\client\Client\GameLib\WeaponTrace.cpp
; File C:\Program Files (x86)\Microsoft Visual Studio\2019\Professional\VC\Tools\MSVC\14.29.30133\include\deque
; File C:\Users\murat\Desktop\Siveps2-1-99-Project\source\client\extern\include\d3dx8math.inl
; File C:\Program Files (x86)\Microsoft Visual Studio\2019\Professional\VC\Tools\MSVC\14.29.30133\include\deque
; File C:\Users\murat\Desktop\Siveps2-1-99-Project\source\client\extern\include\d3dx8math.inl
; File C:\Program Files (x86)\Microsoft Visual Studio\2019\Professional\VC\Tools\MSVC\14.29.30133\include\deque
; File C:\Users\murat\Desktop\Siveps2-1-99-Project\source\client\extern\include\d3dx8math.inl
; File C:\Program Files (x86)\Microsoft Visual Studio\2019\Professional\VC\Tools\MSVC\14.29.30133\include\deque
; File C:\Users\murat\Desktop\Siveps2-1-99-Project\source\client\extern\include\d3dx8math.inl
; File C:\Program Files (x86)\Microsoft Visual Studio\2019\Professional\VC\Tools\MSVC\14.29.30133\include\deque
; File C:\Users\murat\Desktop\Siveps2-1-99-Project\source\client\Client\GameLib\WeaponTrace.cpp
; File C:\Program Files (x86)\Microsoft Visual Studio\2019\Professional\VC\Tools\MSVC\14.29.30133\include\deque
; File C:\Users\murat\Desktop\Siveps2-1-99-Project\source\client\Client\GameLib\WeaponTrace.cpp
; File C:\Program Files (x86)\Microsoft Visual Studio\2019\Professional\VC\Tools\MSVC\14.29.30133\include\deque
; File C:\Users\murat\Desktop\Siveps2-1-99-Project\source\client\Client\GameLib\WeaponTrace.cpp
; File C:\Program Files (x86)\Microsoft Visual Studio\2019\Professional\VC\Tools\MSVC\14.29.30133\include\deque
; File C:\Users\murat\Desktop\Siveps2-1-99-Project\source\client\Client\GameLib\WeaponTrace.cpp
; File C:\Program Files (x86)\Microsoft Visual Studio\2019\Professional\VC\Tools\MSVC\14.29.30133\include\deque
; File C:\Users\murat\Desktop\Siveps2-1-99-Project\source\client\Client\GameLib\WeaponTrace.cpp
; File C:\Users\murat\Desktop\Siveps2-1-99-Project\source\client\extern\include\d3dx8math.inl
; File C:\Users\murat\Desktop\Siveps2-1-99-Project\source\client\Client\GameLib\WeaponTrace.cpp
; File C:\Users\murat\Desktop\Siveps2-1-99-Project\source\client\extern\include\d3dx8math.inl
; File C:\Users\murat\Desktop\Siveps2-1-99-Project\source\client\Client\GameLib\WeaponTrace.cpp
; File C:\Users\murat\Desktop\Siveps2-1-99-Project\source\client\extern\include\d3dx8math.inl
; File C:\Users\murat\Desktop\Siveps2-1-99-Project\source\client\Client\GameLib\WeaponTrace.cpp
; File C:\Users\murat\Desktop\Siveps2-1-99-Project\source\client\extern\include\d3dx8math.inl
; File C:\Users\murat\Desktop\Siveps2-1-99-Project\source\client\Client\GameLib\WeaponTrace.cpp
; File C:\Users\murat\Desktop\Siveps2-1-99-Project\source\client\extern\include\d3dx8math.inl
; File C:\Users\murat\Desktop\Siveps2-1-99-Project\source\client\Client\GameLib\WeaponTrace.cpp
; File C:\Users\murat\Desktop\Siveps2-1-99-Project\source\client\extern\include\d3dx8math.inl
; File C:\Users\murat\Desktop\Siveps2-1-99-Project\source\client\Client\GameLib\WeaponTrace.cpp
; File C:\Users\murat\Desktop\Siveps2-1-99-Project\source\client\extern\include\d3dx8math.inl
; File C:\Users\murat\Desktop\Siveps2-1-99-Project\source\client\Client\GameLib\WeaponTrace.cpp
; File C:\Users\murat\Desktop\Siveps2-1-99-Project\source\client\extern\include\d3dx8math.inl
; File C:\Users\murat\Desktop\Siveps2-1-99-Project\source\client\Client\GameLib\WeaponTrace.cpp
; File C:\Users\murat\Desktop\Siveps2-1-99-Project\source\client\extern\include\d3dx8math.inl
; File C:\Users\murat\Desktop\Siveps2-1-99-Project\source\client\Client\GameLib\WeaponTrace.cpp
; File C:\Users\murat\Desktop\Siveps2-1-99-Project\source\client\extern\include\d3dx8math.inl
; File C:\Users\murat\Desktop\Siveps2-1-99-Project\source\client\Client\GameLib\WeaponTrace.cpp
; File C:\Users\murat\Desktop\Siveps2-1-99-Project\source\client\extern\include\d3dx8math.inl
; File C:\Users\murat\Desktop\Siveps2-1-99-Project\source\client\Client\GameLib\WeaponTrace.cpp
; File C:\Users\murat\Desktop\Siveps2-1-99-Project\source\client\extern\include\d3dx8math.inl
; File C:\Users\murat\Desktop\Siveps2-1-99-Project\source\client\Client\GameLib\WeaponTrace.cpp
; File C:\Users\murat\Desktop\Siveps2-1-99-Project\source\client\extern\include\d3dx8math.inl
; File C:\Users\murat\Desktop\Siveps2-1-99-Project\source\client\Client\GameLib\WeaponTrace.cpp
; File C:\Users\murat\Desktop\Siveps2-1-99-Project\source\client\extern\include\d3dx8math.inl
; File C:\Users\murat\Desktop\Siveps2-1-99-Project\source\client\Client\GameLib\WeaponTrace.cpp
; File C:\Users\murat\Desktop\Siveps2-1-99-Project\source\client\extern\include\d3dx8math.inl
; File C:\Users\murat\Desktop\Siveps2-1-99-Project\source\client\Client\GameLib\WeaponTrace.cpp
; File C:\Users\murat\Desktop\Siveps2-1-99-Project\source\client\extern\include\d3dx8math.inl
; File C:\Users\murat\Desktop\Siveps2-1-99-Project\source\client\Client\GameLib\WeaponTrace.cpp
; File C:\Users\murat\Desktop\Siveps2-1-99-Project\source\client\extern\include\d3dx8math.inl
; File C:\Users\murat\Desktop\Siveps2-1-99-Project\source\client\Client\GameLib\WeaponTrace.cpp
; File C:\Program Files (x86)\Microsoft Visual Studio\2019\Professional\VC\Tools\MSVC\14.29.30133\include\deque
; File C:\Users\murat\Desktop\Siveps2-1-99-Project\source\client\Client\GameLib\WeaponTrace.cpp
; File C:\Program Files (x86)\Microsoft Visual Studio\2019\Professional\VC\Tools\MSVC\14.29.30133\include\deque
; File C:\Users\murat\Desktop\Siveps2-1-99-Project\source\client\Client\GameLib\WeaponTrace.cpp
; File C:\Program Files (x86)\Microsoft Visual Studio\2019\Professional\VC\Tools\MSVC\14.29.30133\include\deque
; File C:\Users\murat\Desktop\Siveps2-1-99-Project\source\client\Client\GameLib\WeaponTrace.cpp
; File C:\Program Files (x86)\Microsoft Visual Studio\2019\Professional\VC\Tools\MSVC\14.29.30133\include\deque
; File C:\Users\murat\Desktop\Siveps2-1-99-Project\source\client\Client\GameLib\WeaponTrace.cpp
; File C:\Users\murat\Desktop\Siveps2-1-99-Project\source\client\extern\include\d3dx8math.inl
; File C:\Program Files (x86)\Microsoft Visual Studio\2019\Professional\VC\Tools\MSVC\14.29.30133\include\deque
; File C:\Users\murat\Desktop\Siveps2-1-99-Project\source\client\extern\include\d3dx8math.inl
; File C:\Program Files (x86)\Microsoft Visual Studio\2019\Professional\VC\Tools\MSVC\14.29.30133\include\deque
; File C:\Users\murat\Desktop\Siveps2-1-99-Project\source\client\extern\include\d3dx8math.inl
; File C:\Program Files (x86)\Microsoft Visual Studio\2019\Professional\VC\Tools\MSVC\14.29.30133\include\deque
; File C:\Users\murat\Desktop\Siveps2-1-99-Project\source\client\Client\GameLib\WeaponTrace.cpp
; File C:\Users\murat\Desktop\Siveps2-1-99-Project\source\client\extern\include\d3dx8math.inl
; File C:\Users\murat\Desktop\Siveps2-1-99-Project\source\client\Client\GameLib\WeaponTrace.cpp
; File C:\Users\murat\Desktop\Siveps2-1-99-Project\source\client\extern\include\d3dx8math.inl
; File C:\Users\murat\Desktop\Siveps2-1-99-Project\source\client\Client\GameLib\WeaponTrace.cpp
; File C:\Users\murat\Desktop\Siveps2-1-99-Project\source\client\extern\include\d3dx8math.inl
; File C:\Users\murat\Desktop\Siveps2-1-99-Project\source\client\Client\GameLib\WeaponTrace.cpp
; File C:\Users\murat\Desktop\Siveps2-1-99-Project\source\client\extern\include\d3dx8math.inl
; File C:\Users\murat\Desktop\Siveps2-1-99-Project\source\client\Client\GameLib\WeaponTrace.cpp
; File C:\Users\murat\Desktop\Siveps2-1-99-Project\source\client\extern\include\d3dx8math.inl
; File C:\Users\murat\Desktop\Siveps2-1-99-Project\source\client\Client\GameLib\WeaponTrace.cpp
; File C:\Users\murat\Desktop\Siveps2-1-99-Project\source\client\extern\include\d3dx8math.inl
; File C:\Users\murat\Desktop\Siveps2-1-99-Project\source\client\Client\GameLib\WeaponTrace.cpp
; File C:\Users\murat\Desktop\Siveps2-1-99-Project\source\client\extern\include\d3dx8math.inl
; File C:\Users\murat\Desktop\Siveps2-1-99-Project\source\client\Client\GameLib\WeaponTrace.cpp
; File C:\Users\murat\Desktop\Siveps2-1-99-Project\source\client\extern\include\d3dx8math.inl
; File C:\Users\murat\Desktop\Siveps2-1-99-Project\source\client\Client\GameLib\WeaponTrace.cpp
; File C:\Users\murat\Desktop\Siveps2-1-99-Project\source\client\extern\include\d3dx8math.inl
; File C:\Users\murat\Desktop\Siveps2-1-99-Project\source\client\Client\GameLib\WeaponTrace.cpp
; File C:\Users\murat\Desktop\Siveps2-1-99-Project\source\client\extern\include\d3dx8math.inl
; File C:\Users\murat\Desktop\Siveps2-1-99-Project\source\client\Client\GameLib\WeaponTrace.cpp
; File C:\Users\murat\Desktop\Siveps2-1-99-Project\source\client\extern\include\d3dx8math.inl
; File C:\Users\murat\Desktop\Siveps2-1-99-Project\source\client\Client\GameLib\WeaponTrace.cpp
; File C:\Users\murat\Desktop\Siveps2-1-99-Project\source\client\extern\include\d3dx8math.inl
; File C:\Users\murat\Desktop\Siveps2-1-99-Project\source\client\Client\GameLib\WeaponTrace.cpp
; File C:\Program Files (x86)\Microsoft Visual Studio\2019\Professional\VC\Tools\MSVC\14.29.30133\include\deque
; File C:\Users\murat\Desktop\Siveps2-1-99-Project\source\client\Client\GameLib\WeaponTrace.cpp
; File C:\Program Files (x86)\Microsoft Visual Studio\2019\Professional\VC\Tools\MSVC\14.29.30133\include\deque
; File C:\Users\murat\Desktop\Siveps2-1-99-Project\source\client\Client\GameLib\WeaponTrace.cpp
; File C:\Program Files (x86)\Microsoft Visual Studio\2019\Professional\VC\Tools\MSVC\14.29.30133\include\deque
; File C:\Users\murat\Desktop\Siveps2-1-99-Project\source\client\Client\GameLib\WeaponTrace.cpp
; File C:\Program Files (x86)\Microsoft Visual Studio\2019\Professional\VC\Tools\MSVC\14.29.30133\include\deque
; File C:\Users\murat\Desktop\Siveps2-1-99-Project\source\client\Client\GameLib\WeaponTrace.cpp
; File C:\Program Files (x86)\Microsoft Visual Studio\2019\Professional\VC\Tools\MSVC\14.29.30133\include\deque
; File C:\Users\murat\Desktop\Siveps2-1-99-Project\source\client\Client\GameLib\WeaponTrace.cpp
; File C:\Program Files (x86)\Microsoft Visual Studio\2019\Professional\VC\Tools\MSVC\14.29.30133\include\deque
; File C:\Users\murat\Desktop\Siveps2-1-99-Project\source\client\Client\GameLib\WeaponTrace.cpp
; File C:\Program Files (x86)\Microsoft Visual Studio\2019\Professional\VC\Tools\MSVC\14.29.30133\include\deque
; File C:\Users\murat\Desktop\Siveps2-1-99-Project\source\client\Client\GameLib\WeaponTrace.cpp
; File C:\Program Files (x86)\Microsoft Visual Studio\2019\Professional\VC\Tools\MSVC\14.29.30133\include\deque
; File C:\Users\murat\Desktop\Siveps2-1-99-Project\source\client\Client\GameLib\WeaponTrace.cpp
; File C:\Program Files (x86)\Microsoft Visual Studio\2019\Professional\VC\Tools\MSVC\14.29.30133\include\deque
; File C:\Users\murat\Desktop\Siveps2-1-99-Project\source\client\Client\GameLib\WeaponTrace.cpp
; File C:\Users\murat\Desktop\Siveps2-1-99-Project\source\client\extern\include\d3dx8math.inl
; File C:\Users\murat\Desktop\Siveps2-1-99-Project\source\client\Client\GameLib\WeaponTrace.cpp
; File C:\Users\murat\Desktop\Siveps2-1-99-Project\source\client\extern\include\d3dx8math.inl
; File C:\Program Files (x86)\Microsoft Visual Studio\2019\Professional\VC\Tools\MSVC\14.29.30133\include\vector
; File C:\Users\murat\Desktop\Siveps2-1-99-Project\source\client\extern\include\d3dx8math.inl
; File C:\Users\murat\Desktop\Siveps2-1-99-Project\source\client\Client\GameLib\WeaponTrace.cpp
; File C:\Users\murat\Desktop\Siveps2-1-99-Project\source\client\extern\include\d3dx8math.inl
; File C:\Users\murat\Desktop\Siveps2-1-99-Project\source\client\Client\GameLib\WeaponTrace.cpp
; File C:\Users\murat\Desktop\Siveps2-1-99-Project\source\client\extern\include\d3dx8math.inl
; File C:\Program Files (x86)\Microsoft Visual Studio\2019\Professional\VC\Tools\MSVC\14.29.30133\include\vector
; File C:\Users\murat\Desktop\Siveps2-1-99-Project\source\client\Client\GameLib\WeaponTrace.cpp
; File C:\Program Files (x86)\Microsoft Visual Studio\2019\Professional\VC\Tools\MSVC\14.29.30133\include\vector
; File C:\Program Files (x86)\Microsoft Visual Studio\2019\Professional\VC\Tools\MSVC\14.29.30133\include\xmemory
; File C:\Program Files (x86)\Microsoft Visual Studio\2019\Professional\VC\Tools\MSVC\14.29.30133\include\vector
; File C:\Users\murat\Desktop\Siveps2-1-99-Project\source\client\Client\GameLib\WeaponTrace.cpp
; File C:\Program Files (x86)\Microsoft Visual Studio\2019\Professional\VC\Tools\MSVC\14.29.30133\include\vector
; File C:\Program Files (x86)\Microsoft Visual Studio\2019\Professional\VC\Tools\MSVC\14.29.30133\include\xmemory
; File C:\Program Files (x86)\Microsoft Visual Studio\2019\Professional\VC\Tools\MSVC\14.29.30133\include\vector
; File C:\Program Files (x86)\Microsoft Visual Studio\2019\Professional\VC\Tools\MSVC\14.29.30133\include\xmemory
; File C:\Program Files (x86)\Microsoft Visual Studio\2019\Professional\VC\Tools\MSVC\14.29.30133\include\vector
; File C:\Users\murat\Desktop\Siveps2-1-99-Project\source\client\Client\GameLib\WeaponTrace.cpp
; File C:\Program Files (x86)\Microsoft Visual Studio\2019\Professional\VC\Tools\MSVC\14.29.30133\include\vector
; File C:\Users\murat\Desktop\Siveps2-1-99-Project\source\client\Client\GameLib\WeaponTrace.cpp
; File C:\Program Files (x86)\Microsoft Visual Studio\2019\Professional\VC\Tools\MSVC\14.29.30133\include\vector
; File C:\Program Files (x86)\Microsoft Visual Studio\2019\Professional\VC\Tools\MSVC\14.29.30133\include\xmemory
; File C:\Program Files (x86)\Microsoft Visual Studio\2019\Professional\VC\Tools\MSVC\14.29.30133\include\vector
; File C:\Program Files (x86)\Microsoft Visual Studio\2019\Professional\VC\Tools\MSVC\14.29.30133\include\xmemory
; File C:\Users\murat\Desktop\Siveps2-1-99-Project\source\client\Client\GameLib\WeaponTrace.cpp
; File C:\Program Files (x86)\Microsoft Visual Studio\2019\Professional\VC\Tools\MSVC\14.29.30133\include\xmemory
; File C:\Users\murat\Desktop\Siveps2-1-99-Project\source\client\Client\GameLib\WeaponTrace.cpp
;	COMDAT ?BuildVertex@CWeaponTrace@@IAE_NXZ
_TEXT	SEGMENT
$T5 = -6256						; size = 12
$T6 = -6244						; size = 12
__real@3fb99999a0000000$1$ = -6232			; size = 8
__real@4004000000000000$1$ = -6224			; size = 8
_v$7 = -6216						; size = 24
__real@0000000000000000$1$ = -6192			; size = 8
__real@3ff0000000000000$1$ = -6184			; size = 8
__First$ = -6184					; size = 8
__First$ = -6184					; size = 8
_Output$1$ = -6176					; size = 4
tv7486 = -6172						; size = 4
tv7756 = -6168						; size = 4
_m_ShortVertexVector$ = -6164				; size = 12
_a$8 = -6152						; size = 12
_b$9 = -6140						; size = 12
__Tmp$10 = -6128					; size = 8
__Tmp$11 = -6128					; size = 8
__Tmp$12 = -6128					; size = 8
_dt$1$ = -6124						; size = 4
_timebase$1$ = -6120					; size = 4
tv7782 = -6116						; size = 4
_m_LongVertexVector$ = -6112				; size = 12
tv7588 = -6100						; size = 4
_cc$1$ = -6096						; size = 4
tv7733 = -6096						; size = 4
_length$1$ = -6092					; size = 4
__Tmp$13 = -6088					; size = 8
__Tmp$14 = -6088					; size = 8
__Tmp$15 = -6088					; size = 8
_c$1$sroa$2675$1$ = -6084				; size = 4
tv7768 = -6084						; size = 4
tv7590 = -6076						; size = 4
tv7527 = -6076						; size = 4
_n$1$ = -6072						; size = 4
_loop$1$ = -6068					; size = 4
$T16 = -6064						; size = 4
_sp$1$ = -6060						; size = 4
_d$2$sroa$2673$1$ = -6056				; size = 4
_c$1$sroa$2674$1$ = -6052				; size = 4
tv7746 = -6052						; size = 4
_d$2$sroa$2671$1$ = -6048				; size = 4
_d$2$sroa$2672$1$ = -6044				; size = 4
_t$1$ = -6040						; size = 4
_i$1$ = -6040						; size = 4
_timenext$1$ = -6036					; size = 4
$T17 = -6036						; size = 4
__Tmp$1$ = -6032					; size = 4
_c$1$sroa$2677$1$ = -6028				; size = 4
_this$GSCopy$1$ = -6024					; size = 4
tv7747 = -6020						; size = 4
tv7730 = -6020						; size = 4
tv7586 = -6020						; size = 4
tv7529 = -6020						; size = 4
_stk$ = -6016						; size = 1200
_h$ = -4816						; size = 1200
_r$ = -3616						; size = 3600
__$ArrayPad$ = -16					; size = 4
__$EHRec$ = -12						; size = 12
?BuildVertex@CWeaponTrace@@IAE_NXZ PROC			; CWeaponTrace::BuildVertex, COMDAT
; _this$ = ecx

; 124  : {

  00000	55		 push	 ebp
  00001	8b ec		 mov	 ebp, esp
  00003	6a ff		 push	 -1
  00005	68 00 00 00 00	 push	 __ehhandler$?BuildVertex@CWeaponTrace@@IAE_NXZ
  0000a	64 a1 00 00 00
	00		 mov	 eax, DWORD PTR fs:0
  00010	50		 push	 eax
  00011	b8 64 18 00 00	 mov	 eax, 6244		; 00001864H
  00016	e8 00 00 00 00	 call	 __chkstk
  0001b	a1 00 00 00 00	 mov	 eax, DWORD PTR ___security_cookie
  00020	33 c5		 xor	 eax, ebp
  00022	89 45 f0	 mov	 DWORD PTR __$ArrayPad$[ebp], eax
  00025	56		 push	 esi
  00026	57		 push	 edi
  00027	50		 push	 eax
  00028	8d 45 f4	 lea	 eax, DWORD PTR __$EHRec$[ebp]
  0002b	64 a3 00 00 00
	00		 mov	 DWORD PTR fs:0, eax
  00031	8b c1		 mov	 eax, ecx
  00033	89 85 78 e8 ff
	ff		 mov	 DWORD PTR _this$GSCopy$1$[ebp], eax

; 125  : 	const int max_size = 300;
; 126  : 	// calculate speed
; 127  : 	float h[max_size];
; 128  : 	float stk[max_size];
; 129  : 	int sp=0;
; 130  : 	D3DXVECTOR3 r[max_size];
; 131  : 
; 132  : 	if (m_LongTimePointList.size()<=1)

  00039	8b 78 2c	 mov	 edi, DWORD PTR [eax+44]
  0003c	33 f6		 xor	 esi, esi
  0003e	89 b5 54 e8 ff
	ff		 mov	 DWORD PTR _sp$1$[ebp], esi
  00044	83 ff 01	 cmp	 edi, 1
  00047	77 07		 ja	 SHORT $LN25@BuildVerte

; 133  : 		return false;

  00049	32 c0		 xor	 al, al
  0004b	e9 57 0e 00 00	 jmp	 $LN1@BuildVerte
$LN25@BuildVerte:
; File C:\Program Files (x86)\Microsoft Visual Studio\2019\Professional\VC\Tools\MSVC\14.29.30133\include\vector

; 401  :     _CONSTEXPR20_CONTAINER _Vector_val() noexcept : _Myfirst(), _Mylast(), _Myend() {}

  00050	89 b5 ec e7 ff
	ff		 mov	 DWORD PTR _m_ShortVertexVector$[ebp], esi
  00056	89 b5 f0 e7 ff
	ff		 mov	 DWORD PTR _m_ShortVertexVector$[ebp+4], esi
  0005c	89 b5 f4 e7 ff
	ff		 mov	 DWORD PTR _m_ShortVertexVector$[ebp+8], esi
; File C:\Users\murat\Desktop\Siveps2-1-99-Project\source\client\Client\GameLib\WeaponTrace.cpp

; 146  : 	std::vector<TPDTVertex> m_ShortVertexVector, m_LongVertexVector;

  00062	c7 45 fc 00 00
	00 00		 mov	 DWORD PTR __$EHRec$[ebp+8], 0
; File C:\Program Files (x86)\Microsoft Visual Studio\2019\Professional\VC\Tools\MSVC\14.29.30133\include\vector

; 401  :     _CONSTEXPR20_CONTAINER _Vector_val() noexcept : _Myfirst(), _Mylast(), _Myend() {}

  00069	c7 85 20 e8 ff
	ff 00 00 00 00	 mov	 DWORD PTR _m_LongVertexVector$[ebp], 0
  00073	c7 85 24 e8 ff
	ff 00 00 00 00	 mov	 DWORD PTR _m_LongVertexVector$[ebp+4], 0
  0007d	c7 85 28 e8 ff
	ff 00 00 00 00	 mov	 DWORD PTR _m_LongVertexVector$[ebp+8], 0
; File C:\Program Files (x86)\Microsoft Visual Studio\2019\Professional\VC\Tools\MSVC\14.29.30133\include\deque

; 920  :         return _Unchecked_iterator(_Myoff() + _Mysize(), _STD addressof(_Get_data()));

  00087	8b 50 28	 mov	 edx, DWORD PTR [eax+40]
; File C:\Users\murat\Desktop\Siveps2-1-99-Project\source\client\Client\GameLib\WeaponTrace.cpp

; 148  : 	float length = min(m_fLifeTime, m_LongTimePointList.back().first);

  0008a	8b 85 78 e8 ff
	ff		 mov	 eax, DWORD PTR _this$GSCopy$1$[ebp]
; File C:\Program Files (x86)\Microsoft Visual Studio\2019\Professional\VC\Tools\MSVC\14.29.30133\include\deque

; 920  :         return _Unchecked_iterator(_Myoff() + _Mysize(), _STD addressof(_Get_data()));

  00090	03 d7		 add	 edx, edi
; File C:\Users\murat\Desktop\Siveps2-1-99-Project\source\client\Client\GameLib\WeaponTrace.cpp

; 146  : 	std::vector<TPDTVertex> m_ShortVertexVector, m_LongVertexVector;

  00092	c6 45 fc 01	 mov	 BYTE PTR __$EHRec$[ebp+8], 1
; File C:\Program Files (x86)\Microsoft Visual Studio\2019\Professional\VC\Tools\MSVC\14.29.30133\include\deque

; 1069 :         return *_Prev_iter(_Unchecked_end());

  00096	89 95 dc e7 ff
	ff		 mov	 DWORD PTR __First$[ebp+4], edx
; File C:\Users\murat\Desktop\Siveps2-1-99-Project\source\client\Client\GameLib\WeaponTrace.cpp

; 148  : 	float length = min(m_fLifeTime, m_LongTimePointList.back().first);

  0009c	f3 0f 10 50 3c	 movss	 xmm2, DWORD PTR [eax+60]
; File C:\Program Files (x86)\Microsoft Visual Studio\2019\Professional\VC\Tools\MSVC\14.29.30133\include\deque

; 565  :         return (_Off / _Block_size) & (_Mapsize - 1);

  000a1	8b 48 24	 mov	 ecx, DWORD PTR [eax+36]

; 68   :         --_Myoff;

  000a4	8d 42 ff	 lea	 eax, DWORD PTR [edx-1]

; 565  :         return (_Off / _Block_size) & (_Mapsize - 1);

  000a7	49		 dec	 ecx
; File C:\Users\murat\Desktop\Siveps2-1-99-Project\source\client\Client\GameLib\WeaponTrace.cpp

; 148  : 	float length = min(m_fLifeTime, m_LongTimePointList.back().first);

  000a8	f3 0f 11 95 34
	e8 ff ff	 movss	 DWORD PTR _length$1$[ebp], xmm2
; File C:\Program Files (x86)\Microsoft Visual Studio\2019\Professional\VC\Tools\MSVC\14.29.30133\include\deque

; 565  :         return (_Off / _Block_size) & (_Mapsize - 1);

  000b0	23 c8		 and	 ecx, eax
; File C:\Users\murat\Desktop\Siveps2-1-99-Project\source\client\Client\GameLib\WeaponTrace.cpp

; 148  : 	float length = min(m_fLifeTime, m_LongTimePointList.back().first);

  000b2	8b 85 78 e8 ff
	ff		 mov	 eax, DWORD PTR _this$GSCopy$1$[ebp]
  000b8	8b 40 20	 mov	 eax, DWORD PTR [eax+32]
  000bb	8b 04 88	 mov	 eax, DWORD PTR [eax+ecx*4]
  000be	f3 0f 10 00	 movss	 xmm0, DWORD PTR [eax]
  000c2	0f 2f c2	 comiss	 xmm0, xmm2
  000c5	77 2d		 ja	 SHORT $LN32@BuildVerte
; File C:\Program Files (x86)\Microsoft Visual Studio\2019\Professional\VC\Tools\MSVC\14.29.30133\include\deque

; 565  :         return (_Off / _Block_size) & (_Mapsize - 1);

  000c7	8b 85 78 e8 ff
	ff		 mov	 eax, DWORD PTR _this$GSCopy$1$[ebp]

; 1069 :         return *_Prev_iter(_Unchecked_end());

  000cd	89 95 dc e7 ff
	ff		 mov	 DWORD PTR __First$[ebp+4], edx

; 565  :         return (_Off / _Block_size) & (_Mapsize - 1);

  000d3	8b 48 24	 mov	 ecx, DWORD PTR [eax+36]

; 68   :         --_Myoff;

  000d6	8d 42 ff	 lea	 eax, DWORD PTR [edx-1]

; 565  :         return (_Off / _Block_size) & (_Mapsize - 1);

  000d9	49		 dec	 ecx
  000da	23 c8		 and	 ecx, eax
; File C:\Users\murat\Desktop\Siveps2-1-99-Project\source\client\Client\GameLib\WeaponTrace.cpp

; 148  : 	float length = min(m_fLifeTime, m_LongTimePointList.back().first);

  000dc	8b 85 78 e8 ff
	ff		 mov	 eax, DWORD PTR _this$GSCopy$1$[ebp]
  000e2	8b 40 20	 mov	 eax, DWORD PTR [eax+32]
  000e5	8b 04 88	 mov	 eax, DWORD PTR [eax+ecx*4]
  000e8	f3 0f 10 00	 movss	 xmm0, DWORD PTR [eax]
  000ec	f3 0f 11 85 34
	e8 ff ff	 movss	 DWORD PTR _length$1$[ebp], xmm0
$LN32@BuildVerte:

; 183  : 		r[n]-=r[n-1];

  000f4	f2 0f 10 05 00
	00 00 00	 movsd	 xmm0, QWORD PTR __real@4004000000000000
  000fc	8d 4f ff	 lea	 ecx, DWORD PTR [edi-1]
  000ff	f3 0f 10 0d 00
	00 00 00	 movss	 xmm1, DWORD PTR __real@3f000000
  00107	8d 41 ff	 lea	 eax, DWORD PTR [ecx-1]
  0010a	f3 0f 10 2d 00
	00 00 00	 movss	 xmm5, DWORD PTR __real@40800000
  00112	33 d2		 xor	 edx, edx
  00114	f3 0f 10 3d 00
	00 00 00	 movss	 xmm7, DWORD PTR __real@3f800000
  0011c	0f 57 e4	 xorps	 xmm4, xmm4
  0011f	f2 0f 11 85 b0
	e7 ff ff	 movsd	 QWORD PTR __real@4004000000000000$1$[ebp], xmm0
  00127	f2 0f 10 05 00
	00 00 00	 movsd	 xmm0, QWORD PTR __real@3fb99999a0000000
  0012f	f2 0f 11 85 a8
	e7 ff ff	 movsd	 QWORD PTR __real@3fb99999a0000000$1$[ebp], xmm0
  00137	0f 57 c0	 xorps	 xmm0, xmm0
  0013a	f2 0f 11 85 d0
	e7 ff ff	 movsd	 QWORD PTR __real@0000000000000000$1$[ebp], xmm0
  00142	f2 0f 10 05 00
	00 00 00	 movsd	 xmm0, QWORD PTR __real@3ff0000000000000
  0014a	89 8d 48 e8 ff
	ff		 mov	 DWORD PTR _n$1$[ebp], ecx
  00150	89 95 4c e8 ff
	ff		 mov	 DWORD PTR _loop$1$[ebp], edx
  00156	89 85 e8 e7 ff
	ff		 mov	 DWORD PTR tv7756[ebp], eax
  0015c	c7 85 e4 e7 ff
	ff 10 00 00 00	 mov	 DWORD PTR tv7486[ebp], 16 ; 00000010H
  00166	f3 0f 11 a5 50
	e8 ff ff	 movss	 DWORD PTR $T16[ebp], xmm4
  0016e	f2 0f 11 85 d8
	e7 ff ff	 movsd	 QWORD PTR __real@3ff0000000000000$1$[ebp], xmm0
  00176	66 66 0f 1f 84
	00 00 00 00 00	 npad	 10
$LL4@BuildVerte:

; 156  : 	{
; 157  : 		TTimePointList & Input = (loop) ? m_LongTimePointList : m_ShortTimePointList;

  00180	85 d2		 test	 edx, edx
  00182	c7 85 68 e8 ff
	ff 00 00 00 00	 mov	 DWORD PTR _i$1$[ebp], 0
  0018c	b8 08 00 00 00	 mov	 eax, 8

; 158  : 		std::vector<TPDTVertex> & Output = (loop) ? m_LongVertexVector : m_ShortVertexVector;

  00191	8d b5 ec e7 ff
	ff		 lea	 esi, DWORD PTR _m_ShortVertexVector$[ebp]
  00197	bf 1c 00 00 00	 mov	 edi, 28			; 0000001cH
  0019c	0f 44 f8	 cmove	 edi, eax
  0019f	8d 85 20 e8 ff
	ff		 lea	 eax, DWORD PTR _m_LongVertexVector$[ebp]
  001a5	03 bd 78 e8 ff
	ff		 add	 edi, DWORD PTR _this$GSCopy$1$[ebp]
  001ab	85 d2		 test	 edx, edx
  001ad	89 bd 70 e8 ff
	ff		 mov	 DWORD PTR __Tmp$1$[ebp], edi
  001b3	0f 44 c6	 cmove	 eax, esi

; 162  : 		for(i=0;i<n;++i)

  001b6	8b b5 54 e8 ff
	ff		 mov	 esi, DWORD PTR _sp$1$[ebp]
  001bc	89 85 e0 e7 ff
	ff		 mov	 DWORD PTR _Output$1$[ebp], eax
  001c2	85 c9		 test	 ecx, ecx
  001c4	0f 8e 23 01 00
	00		 jle	 $LN720@BuildVerte
; File C:\Program Files (x86)\Microsoft Visual Studio\2019\Professional\VC\Tools\MSVC\14.29.30133\include\deque

; 912  :         return _Unchecked_iterator(_Myoff(), _STD addressof(_Get_data()));

  001ca	8b b5 78 e8 ff
	ff		 mov	 esi, DWORD PTR _this$GSCopy$1$[ebp]
  001d0	85 d2		 test	 edx, edx
  001d2	f3 0f 10 3d 00
	00 00 00	 movss	 xmm7, DWORD PTR __real@40400000
  001da	b9 14 00 00 00	 mov	 ecx, 20			; 00000014H
  001df	b8 28 00 00 00	 mov	 eax, 40			; 00000028H
  001e4	0f 44 c1	 cmove	 eax, ecx
  001e7	8d 8d e0 f1 ff
	ff		 lea	 ecx, DWORD PTR _r$[ebp]
  001ed	89 8d 5c e8 ff
	ff		 mov	 DWORD PTR tv7746[ebp], ecx
  001f3	8b 14 30	 mov	 edx, DWORD PTR [eax+esi]
  001f6	8b c2		 mov	 eax, edx
  001f8	89 95 6c e8 ff
	ff		 mov	 DWORD PTR $T17[ebp], edx
  001fe	89 85 7c e8 ff
	ff		 mov	 DWORD PTR tv7747[ebp], eax
$LL7@BuildVerte:

; 565  :         return (_Off / _Block_size) & (_Mapsize - 1);

  00204	8b 4f 08	 mov	 ecx, DWORD PTR [edi+8]
; File C:\Users\murat\Desktop\Siveps2-1-99-Project\source\client\Client\GameLib\WeaponTrace.cpp

; 165  : 			r[i] = (Input[i+1].second - Input[i].second)*(3/h[i]);

  00207	0f 28 d7	 movaps	 xmm2, xmm7
; File C:\Program Files (x86)\Microsoft Visual Studio\2019\Professional\VC\Tools\MSVC\14.29.30133\include\deque

; 565  :         return (_Off / _Block_size) & (_Mapsize - 1);

  0020a	49		 dec	 ecx

; 204  :         _Deque_unchecked_iterator _Tmp = *this;

  0020b	89 95 14 e8 ff
	ff		 mov	 DWORD PTR __Tmp$12[ebp+4], edx

; 565  :         return (_Off / _Block_size) & (_Mapsize - 1);

  00211	23 c8		 and	 ecx, eax

; 79   :         _Myoff += _Off;

  00213	8d 50 01	 lea	 edx, DWORD PTR [eax+1]
; File C:\Users\murat\Desktop\Siveps2-1-99-Project\source\client\Client\GameLib\WeaponTrace.cpp

; 164  : 			h[i] = Input[i+1].first - Input[i].first;

  00216	8b 47 04	 mov	 eax, DWORD PTR [edi+4]
  00219	8b 34 88	 mov	 esi, DWORD PTR [eax+ecx*4]
; File C:\Program Files (x86)\Microsoft Visual Studio\2019\Professional\VC\Tools\MSVC\14.29.30133\include\deque

; 565  :         return (_Off / _Block_size) & (_Mapsize - 1);

  0021c	8b 4f 08	 mov	 ecx, DWORD PTR [edi+8]
  0021f	49		 dec	 ecx
  00220	23 ca		 and	 ecx, edx
; File C:\Users\murat\Desktop\Siveps2-1-99-Project\source\client\Client\GameLib\WeaponTrace.cpp

; 164  : 			h[i] = Input[i+1].first - Input[i].first;

  00222	8b 04 88	 mov	 eax, DWORD PTR [eax+ecx*4]
; File C:\Program Files (x86)\Microsoft Visual Studio\2019\Professional\VC\Tools\MSVC\14.29.30133\include\deque

; 565  :         return (_Off / _Block_size) & (_Mapsize - 1);

  00225	8b 4f 08	 mov	 ecx, DWORD PTR [edi+8]
  00228	49		 dec	 ecx
  00229	23 ca		 and	 ecx, edx
; File C:\Users\murat\Desktop\Siveps2-1-99-Project\source\client\Client\GameLib\WeaponTrace.cpp

; 162  : 		for(i=0;i<n;++i)

  0022b	8b 95 68 e8 ff
	ff		 mov	 edx, DWORD PTR _i$1$[ebp]

; 164  : 			h[i] = Input[i+1].first - Input[i].first;

  00231	f3 0f 10 00	 movss	 xmm0, DWORD PTR [eax]
  00235	42		 inc	 edx
  00236	f3 0f 5c 06	 subss	 xmm0, DWORD PTR [esi]
  0023a	8b 85 68 e8 ff
	ff		 mov	 eax, DWORD PTR _i$1$[ebp]
  00240	89 95 68 e8 ff
	ff		 mov	 DWORD PTR _i$1$[ebp], edx

; 165  : 			r[i] = (Input[i+1].second - Input[i].second)*(3/h[i]);

  00246	f3 0f 5e d0	 divss	 xmm2, xmm0
  0024a	f3 0f 11 84 85
	30 ed ff ff	 movss	 DWORD PTR _h$[ebp+eax*4], xmm0
; File C:\Program Files (x86)\Microsoft Visual Studio\2019\Professional\VC\Tools\MSVC\14.29.30133\include\deque

; 204  :         _Deque_unchecked_iterator _Tmp = *this;

  00253	8b 85 6c e8 ff
	ff		 mov	 eax, DWORD PTR $T17[ebp]
  00259	89 85 14 e8 ff
	ff		 mov	 DWORD PTR __Tmp$11[ebp+4], eax
; File C:\Users\murat\Desktop\Siveps2-1-99-Project\source\client\Client\GameLib\WeaponTrace.cpp

; 165  : 			r[i] = (Input[i+1].second - Input[i].second)*(3/h[i]);

  0025f	8b 47 04	 mov	 eax, DWORD PTR [edi+4]
  00262	8b 04 88	 mov	 eax, DWORD PTR [eax+ecx*4]
  00265	8b 8d 5c e8 ff
	ff		 mov	 ecx, DWORD PTR tv7746[ebp]
; File C:\Users\murat\Desktop\Siveps2-1-99-Project\source\client\extern\include\d3dx8math.inl

; 263  :     return D3DXVECTOR3(x - v.x, y - v.y, z - v.z);

  0026b	f3 0f 10 58 04	 movss	 xmm3, DWORD PTR [eax+4]
  00270	f3 0f 10 48 08	 movss	 xmm1, DWORD PTR [eax+8]
  00275	f3 0f 10 40 0c	 movss	 xmm0, DWORD PTR [eax+12]
  0027a	f3 0f 5c 5e 04	 subss	 xmm3, DWORD PTR [esi+4]
  0027f	f3 0f 5c 4e 08	 subss	 xmm1, DWORD PTR [esi+8]
  00284	f3 0f 5c 46 0c	 subss	 xmm0, DWORD PTR [esi+12]
; File C:\Users\murat\Desktop\Siveps2-1-99-Project\source\client\Client\GameLib\WeaponTrace.cpp

; 165  : 			r[i] = (Input[i+1].second - Input[i].second)*(3/h[i]);

  00289	f3 0f 59 da	 mulss	 xmm3, xmm2
; File C:\Users\murat\Desktop\Siveps2-1-99-Project\source\client\extern\include\d3dx8math.inl

; 180  :     x = fx;

  0028d	f3 0f 59 ca	 mulss	 xmm1, xmm2

; 181  :     y = fy;

  00291	f3 0f 59 c2	 mulss	 xmm0, xmm2
; File C:\Users\murat\Desktop\Siveps2-1-99-Project\source\client\Client\GameLib\WeaponTrace.cpp

; 165  : 			r[i] = (Input[i+1].second - Input[i].second)*(3/h[i]);

  00295	0f 14 d9	 unpcklps xmm3, xmm1
  00298	66 0f d6 19	 movq	 QWORD PTR [ecx], xmm3
; File C:\Users\murat\Desktop\Siveps2-1-99-Project\source\client\extern\include\d3dx8math.inl

; 182  :     z = fz;

  0029c	f3 0f 11 85 a4
	e7 ff ff	 movss	 DWORD PTR $T6[ebp+8], xmm0
; File C:\Users\murat\Desktop\Siveps2-1-99-Project\source\client\Client\GameLib\WeaponTrace.cpp

; 165  : 			r[i] = (Input[i+1].second - Input[i].second)*(3/h[i]);

  002a4	8b 85 a4 e7 ff
	ff		 mov	 eax, DWORD PTR $T6[ebp+8]
  002aa	89 41 08	 mov	 DWORD PTR [ecx+8], eax
  002ad	83 c1 0c	 add	 ecx, 12			; 0000000cH
  002b0	8b 85 7c e8 ff
	ff		 mov	 eax, DWORD PTR tv7747[ebp]
  002b6	40		 inc	 eax
  002b7	89 8d 5c e8 ff
	ff		 mov	 DWORD PTR tv7746[ebp], ecx
  002bd	8b 8d 48 e8 ff
	ff		 mov	 ecx, DWORD PTR _n$1$[ebp]
  002c3	3b d1		 cmp	 edx, ecx
  002c5	8b 95 6c e8 ff
	ff		 mov	 edx, DWORD PTR $T17[ebp]
  002cb	89 85 7c e8 ff
	ff		 mov	 DWORD PTR tv7747[ebp], eax
  002d1	0f 8c 2d ff ff
	ff		 jl	 $LL7@BuildVerte
  002d7	f3 0f 10 3d 00
	00 00 00	 movss	 xmm7, DWORD PTR __real@3f800000
  002df	f3 0f 10 0d 00
	00 00 00	 movss	 xmm1, DWORD PTR __real@3f000000
  002e7	8b b5 54 e8 ff
	ff		 mov	 esi, DWORD PTR _sp$1$[ebp]
$LN720@BuildVerte:
; File C:\Users\murat\Desktop\Siveps2-1-99-Project\source\client\extern\include\d3dx8math.inl

; 182  :     z = fz;

  002ed	c7 85 98 e7 ff
	ff 00 00 00 00	 mov	 DWORD PTR $T5[ebp+8], 0
; File C:\Users\murat\Desktop\Siveps2-1-99-Project\source\client\Client\GameLib\WeaponTrace.cpp

; 167  : 		r[n] = D3DXVECTOR3(0.0f,0.0f,0.0f);

  002f7	0f 28 c4	 movaps	 xmm0, xmm4
  002fa	8b 85 98 e7 ff
	ff		 mov	 eax, DWORD PTR $T5[ebp+8]
  00300	8d 3c 49	 lea	 edi, DWORD PTR [ecx+ecx*2]
  00303	0f 14 c4	 unpcklps xmm0, xmm4

; 168  : 		for(i=n;i>0;i--)

  00306	8b d1		 mov	 edx, ecx
  00308	66 0f d6 84 bd
	e0 f1 ff ff	 movq	 QWORD PTR _r$[ebp+edi*4], xmm0
  00311	89 84 bd e8 f1
	ff ff		 mov	 DWORD PTR _r$[ebp+edi*4+8], eax
  00318	85 c9		 test	 ecx, ecx
  0031a	7e 3b		 jle	 SHORT $LN9@BuildVerte
; File C:\Users\murat\Desktop\Siveps2-1-99-Project\source\client\extern\include\d3dx8math.inl

; 180  :     x = fx;

  0031c	8d 84 bd dc f1
	ff ff		 lea	 eax, DWORD PTR _r$[ebp+edi*4-4]
$LL10@BuildVerte:

; 204  :     x += v.x;

  00323	f3 0f 10 40 f8	 movss	 xmm0, DWORD PTR [eax-8]
; File C:\Users\murat\Desktop\Siveps2-1-99-Project\source\client\Client\GameLib\WeaponTrace.cpp

; 168  : 		for(i=n;i>0;i--)

  00328	4a		 dec	 edx
; File C:\Users\murat\Desktop\Siveps2-1-99-Project\source\client\extern\include\d3dx8math.inl

; 204  :     x += v.x;

  00329	f3 0f 58 40 04	 addss	 xmm0, DWORD PTR [eax+4]
  0032e	f3 0f 11 40 04	 movss	 DWORD PTR [eax+4], xmm0

; 205  :     y += v.y;

  00333	f3 0f 10 40 fc	 movss	 xmm0, DWORD PTR [eax-4]
  00338	f3 0f 58 40 08	 addss	 xmm0, DWORD PTR [eax+8]
  0033d	f3 0f 11 40 08	 movss	 DWORD PTR [eax+8], xmm0

; 206  :     z += v.z;

  00342	f3 0f 10 40 0c	 movss	 xmm0, DWORD PTR [eax+12]
  00347	f3 0f 58 00	 addss	 xmm0, DWORD PTR [eax]
  0034b	f3 0f 11 40 0c	 movss	 DWORD PTR [eax+12], xmm0
; File C:\Users\murat\Desktop\Siveps2-1-99-Project\source\client\Client\GameLib\WeaponTrace.cpp

; 168  : 		for(i=n;i>0;i--)

  00350	83 e8 0c	 sub	 eax, 12			; 0000000cH
  00353	85 d2		 test	 edx, edx
  00355	7f cc		 jg	 SHORT $LL10@BuildVerte
$LN9@BuildVerte:
; File C:\Users\murat\Desktop\Siveps2-1-99-Project\source\client\extern\include\d3dx8math.inl

; 222  :     x *= f;

  00357	f3 0f 10 85 e0
	f1 ff ff	 movss	 xmm0, DWORD PTR _r$[ebp]
; File C:\Users\murat\Desktop\Siveps2-1-99-Project\source\client\Client\GameLib\WeaponTrace.cpp

; 173  : 		float rate = 0.5f;

  0035f	0f 28 f1	 movaps	 xmm6, xmm1
; File C:\Users\murat\Desktop\Siveps2-1-99-Project\source\client\extern\include\d3dx8math.inl

; 222  :     x *= f;

  00362	f3 0f 59 c1	 mulss	 xmm0, xmm1
; File C:\Users\murat\Desktop\Siveps2-1-99-Project\source\client\Client\GameLib\WeaponTrace.cpp

; 175  : 		stk[sp++] = rate;

  00366	c7 84 b5 80 e8
	ff ff 00 00 00
	3f		 mov	 DWORD PTR _stk$[ebp+esi*4], 1056964608 ; 3f000000H
  00371	46		 inc	 esi
  00372	89 b5 54 e8 ff
	ff		 mov	 DWORD PTR _sp$1$[ebp], esi
; File C:\Users\murat\Desktop\Siveps2-1-99-Project\source\client\extern\include\d3dx8math.inl

; 222  :     x *= f;

  00378	f3 0f 11 85 e0
	f1 ff ff	 movss	 DWORD PTR _r$[ebp], xmm0

; 223  :     y *= f;

  00380	f3 0f 10 85 e4
	f1 ff ff	 movss	 xmm0, DWORD PTR _r$[ebp+4]
  00388	f3 0f 59 c1	 mulss	 xmm0, xmm1
  0038c	f3 0f 11 85 e4
	f1 ff ff	 movss	 DWORD PTR _r$[ebp+4], xmm0

; 224  :     z *= f;

  00394	f3 0f 10 85 e8
	f1 ff ff	 movss	 xmm0, DWORD PTR _r$[ebp+8]
  0039c	f3 0f 59 c1	 mulss	 xmm0, xmm1
  003a0	f3 0f 11 85 e8
	f1 ff ff	 movss	 DWORD PTR _r$[ebp+8], xmm0
; File C:\Users\murat\Desktop\Siveps2-1-99-Project\source\client\Client\GameLib\WeaponTrace.cpp

; 176  : 		for(i=1;i<n;i++)

  003a8	83 f9 01	 cmp	 ecx, 1
  003ab	7e 64		 jle	 SHORT $LN12@BuildVerte

; 173  : 		float rate = 0.5f;

  003ad	8d 85 f0 f1 ff
	ff		 lea	 eax, DWORD PTR _r$[ebp+16]
  003b3	49		 dec	 ecx
$LL13@BuildVerte:

; 179  : 			rate = 1/(4-rate);

  003b4	0f 28 c5	 movaps	 xmm0, xmm5
; File C:\Users\murat\Desktop\Siveps2-1-99-Project\source\client\extern\include\d3dx8math.inl

; 213  :     x -= v.x;

  003b7	f3 0f 10 58 fc	 movss	 xmm3, DWORD PTR [eax-4]
; File C:\Users\murat\Desktop\Siveps2-1-99-Project\source\client\Client\GameLib\WeaponTrace.cpp

; 179  : 			rate = 1/(4-rate);

  003bc	f3 0f 5c c6	 subss	 xmm0, xmm6
  003c0	0f 28 f7	 movaps	 xmm6, xmm7
; File C:\Users\murat\Desktop\Siveps2-1-99-Project\source\client\extern\include\d3dx8math.inl

; 213  :     x -= v.x;

  003c3	f3 0f 5c 58 f0	 subss	 xmm3, DWORD PTR [eax-16]
; File C:\Users\murat\Desktop\Siveps2-1-99-Project\source\client\Client\GameLib\WeaponTrace.cpp

; 179  : 			rate = 1/(4-rate);

  003c8	f3 0f 5e f0	 divss	 xmm6, xmm0
; File C:\Users\murat\Desktop\Siveps2-1-99-Project\source\client\extern\include\d3dx8math.inl

; 214  :     y -= v.y;

  003cc	f3 0f 10 00	 movss	 xmm0, DWORD PTR [eax]

; 222  :     x *= f;

  003d0	f3 0f 59 de	 mulss	 xmm3, xmm6
; File C:\Users\murat\Desktop\Siveps2-1-99-Project\source\client\Client\GameLib\WeaponTrace.cpp

; 181  : 			stk[sp++]=rate;

  003d4	f3 0f 11 b4 b5
	80 e8 ff ff	 movss	 DWORD PTR _stk$[ebp+esi*4], xmm6
  003dd	46		 inc	 esi
; File C:\Users\murat\Desktop\Siveps2-1-99-Project\source\client\extern\include\d3dx8math.inl

; 222  :     x *= f;

  003de	f3 0f 11 58 fc	 movss	 DWORD PTR [eax-4], xmm3

; 214  :     y -= v.y;

  003e3	f3 0f 5c 40 f4	 subss	 xmm0, DWORD PTR [eax-12]

; 223  :     y *= f;

  003e8	f3 0f 59 c6	 mulss	 xmm0, xmm6
  003ec	f3 0f 11 00	 movss	 DWORD PTR [eax], xmm0

; 215  :     z -= v.z;

  003f0	f3 0f 10 40 04	 movss	 xmm0, DWORD PTR [eax+4]
  003f5	f3 0f 5c 40 f8	 subss	 xmm0, DWORD PTR [eax-8]

; 224  :     z *= f;

  003fa	f3 0f 59 c6	 mulss	 xmm0, xmm6
  003fe	f3 0f 11 40 04	 movss	 DWORD PTR [eax+4], xmm0
; File C:\Users\murat\Desktop\Siveps2-1-99-Project\source\client\Client\GameLib\WeaponTrace.cpp

; 176  : 		for(i=1;i<n;i++)

  00403	83 c0 0c	 add	 eax, 12			; 0000000cH
  00406	83 e9 01	 sub	 ecx, 1
  00409	75 a9		 jne	 SHORT $LL13@BuildVerte
  0040b	89 b5 54 e8 ff
	ff		 mov	 DWORD PTR _sp$1$[ebp], esi
$LN12@BuildVerte:

; 184  : 		rate = 1/(2-rate);

  00411	f3 0f 10 05 00
	00 00 00	 movss	 xmm0, DWORD PTR __real@40000000
  00419	0f 28 cf	 movaps	 xmm1, xmm7
; File C:\Users\murat\Desktop\Siveps2-1-99-Project\source\client\extern\include\d3dx8math.inl

; 213  :     x -= v.x;

  0041c	f3 0f 10 ac bd
	e0 f1 ff ff	 movss	 xmm5, DWORD PTR _r$[ebp+edi*4]
; File C:\Users\murat\Desktop\Siveps2-1-99-Project\source\client\Client\GameLib\WeaponTrace.cpp

; 184  : 		rate = 1/(2-rate);

  00425	f3 0f 5c c6	 subss	 xmm0, xmm6
; File C:\Users\murat\Desktop\Siveps2-1-99-Project\source\client\extern\include\d3dx8math.inl

; 213  :     x -= v.x;

  00429	f3 0f 5c ac bd
	d4 f1 ff ff	 subss	 xmm5, DWORD PTR _r$[ebp+edi*4-12]

; 214  :     y -= v.y;

  00432	f3 0f 10 a4 bd
	e4 f1 ff ff	 movss	 xmm4, DWORD PTR _r$[ebp+edi*4+4]

; 215  :     z -= v.z;

  0043b	f3 0f 10 9c bd
	e8 f1 ff ff	 movss	 xmm3, DWORD PTR _r$[ebp+edi*4+8]
; File C:\Users\murat\Desktop\Siveps2-1-99-Project\source\client\Client\GameLib\WeaponTrace.cpp

; 183  : 		r[n]-=r[n-1];

  00444	8b 8d e8 e7 ff
	ff		 mov	 ecx, DWORD PTR tv7756[ebp]

; 184  : 		rate = 1/(2-rate);

  0044a	f3 0f 5e c8	 divss	 xmm1, xmm0
; File C:\Users\murat\Desktop\Siveps2-1-99-Project\source\client\extern\include\d3dx8math.inl

; 213  :     x -= v.x;

  0044e	f3 0f 11 ac bd
	e0 f1 ff ff	 movss	 DWORD PTR _r$[ebp+edi*4], xmm5

; 222  :     x *= f;

  00457	f3 0f 59 e9	 mulss	 xmm5, xmm1

; 214  :     y -= v.y;

  0045b	f3 0f 5c a4 bd
	d8 f1 ff ff	 subss	 xmm4, DWORD PTR _r$[ebp+edi*4-8]

; 222  :     x *= f;

  00464	f3 0f 11 ac bd
	e0 f1 ff ff	 movss	 DWORD PTR _r$[ebp+edi*4], xmm5

; 223  :     y *= f;

  0046d	f3 0f 59 e1	 mulss	 xmm4, xmm1
  00471	f3 0f 11 a4 bd
	e4 f1 ff ff	 movss	 DWORD PTR _r$[ebp+edi*4+4], xmm4

; 215  :     z -= v.z;

  0047a	f3 0f 5c 9c bd
	dc f1 ff ff	 subss	 xmm3, DWORD PTR _r$[ebp+edi*4-4]

; 224  :     z *= f;

  00483	f3 0f 59 d9	 mulss	 xmm3, xmm1
  00487	f3 0f 11 9c bd
	e8 f1 ff ff	 movss	 DWORD PTR _r$[ebp+edi*4+8], xmm3
; File C:\Users\murat\Desktop\Siveps2-1-99-Project\source\client\Client\GameLib\WeaponTrace.cpp

; 187  : 		for(i=n-1;i>=0;i--)

  00490	85 c9		 test	 ecx, ecx
  00492	78 66		 js	 SHORT $LN15@BuildVerte

; 183  : 		r[n]-=r[n-1];

  00494	8d 04 49	 lea	 eax, DWORD PTR [ecx+ecx*2]
  00497	8d 84 85 e4 f1
	ff ff		 lea	 eax, DWORD PTR _r$[ebp+eax*4+4]
  0049e	66 90		 npad	 2
$LL16@BuildVerte:

; 188  : 		{
; 189  : 			r[i] -= stk[--sp] * r[i+1];

  004a0	f3 0f 10 a4 b5
	7c e8 ff ff	 movss	 xmm4, DWORD PTR _stk$[ebp+esi*4-4]
  004a9	4e		 dec	 esi
; File C:\Users\murat\Desktop\Siveps2-1-99-Project\source\client\extern\include\d3dx8math.inl

; 213  :     x -= v.x;

  004aa	f3 0f 10 40 fc	 movss	 xmm0, DWORD PTR [eax-4]

; 283  :     return D3DXVECTOR3(f * v.x, f * v.y, f * v.z);

  004af	0f 28 cc	 movaps	 xmm1, xmm4
  004b2	f3 0f 59 48 08	 mulss	 xmm1, DWORD PTR [eax+8]
  004b7	f3 0f 10 50 0c	 movss	 xmm2, DWORD PTR [eax+12]
  004bc	f3 0f 10 58 10	 movss	 xmm3, DWORD PTR [eax+16]

; 213  :     x -= v.x;

  004c1	f3 0f 5c c1	 subss	 xmm0, xmm1

; 283  :     return D3DXVECTOR3(f * v.x, f * v.y, f * v.z);

  004c5	f3 0f 59 d4	 mulss	 xmm2, xmm4
  004c9	f3 0f 59 dc	 mulss	 xmm3, xmm4

; 213  :     x -= v.x;

  004cd	f3 0f 11 40 fc	 movss	 DWORD PTR [eax-4], xmm0

; 214  :     y -= v.y;

  004d2	f3 0f 10 00	 movss	 xmm0, DWORD PTR [eax]
  004d6	f3 0f 5c c2	 subss	 xmm0, xmm2
  004da	f3 0f 11 00	 movss	 DWORD PTR [eax], xmm0

; 215  :     z -= v.z;

  004de	f3 0f 10 40 04	 movss	 xmm0, DWORD PTR [eax+4]
  004e3	f3 0f 5c c3	 subss	 xmm0, xmm3
  004e7	f3 0f 11 40 04	 movss	 DWORD PTR [eax+4], xmm0
; File C:\Users\murat\Desktop\Siveps2-1-99-Project\source\client\Client\GameLib\WeaponTrace.cpp

; 187  : 		for(i=n-1;i>=0;i--)

  004ec	83 e8 0c	 sub	 eax, 12			; 0000000cH
  004ef	83 e9 01	 sub	 ecx, 1
  004f2	79 ac		 jns	 SHORT $LL16@BuildVerte
  004f4	89 b5 54 e8 ff
	ff		 mov	 DWORD PTR _sp$1$[ebp], esi
$LN15@BuildVerte:
; File C:\Program Files (x86)\Microsoft Visual Studio\2019\Professional\VC\Tools\MSVC\14.29.30133\include\deque

; 912  :         return _Unchecked_iterator(_Myoff(), _STD addressof(_Get_data()));

  004fa	8b b5 4c e8 ff
	ff		 mov	 esi, DWORD PTR _loop$1$[ebp]
; File C:\Users\murat\Desktop\Siveps2-1-99-Project\source\client\Client\GameLib\WeaponTrace.cpp

; 192  : 		int base = 0;

  00500	33 ff		 xor	 edi, edi
; File C:\Program Files (x86)\Microsoft Visual Studio\2019\Professional\VC\Tools\MSVC\14.29.30133\include\deque

; 912  :         return _Unchecked_iterator(_Myoff(), _STD addressof(_Get_data()));

  00502	85 f6		 test	 esi, esi
; File C:\Users\murat\Desktop\Siveps2-1-99-Project\source\client\Client\GameLib\WeaponTrace.cpp

; 195  : 		float timebase=0,timenext=h[base], dt=m_fSamplingTime;

  00504	f3 0f 10 9d 30
	ed ff ff	 movss	 xmm3, DWORD PTR _h$[ebp]
; File C:\Program Files (x86)\Microsoft Visual Studio\2019\Professional\VC\Tools\MSVC\14.29.30133\include\deque

; 912  :         return _Unchecked_iterator(_Myoff(), _STD addressof(_Get_data()));

  0050c	b9 14 00 00 00	 mov	 ecx, 20			; 00000014H
; File C:\Users\murat\Desktop\Siveps2-1-99-Project\source\client\Client\GameLib\WeaponTrace.cpp

; 198  : 		c = ( 3*v3Tmp - r[base+1]*h[base] - (2*h[base])*r[base] )

  00511	f3 0f 10 0d 00
	00 00 00	 movss	 xmm1, DWORD PTR __real@3f800000
; File C:\Program Files (x86)\Microsoft Visual Studio\2019\Professional\VC\Tools\MSVC\14.29.30133\include\deque

; 912  :         return _Unchecked_iterator(_Myoff(), _STD addressof(_Get_data()));

  00519	b8 28 00 00 00	 mov	 eax, 40			; 00000028H
; File C:\Users\murat\Desktop\Siveps2-1-99-Project\source\client\extern\include\d3dx8math.inl

; 283  :     return D3DXVECTOR3(f * v.x, f * v.y, f * v.z);

  0051e	f3 0f 10 a5 ec
	f1 ff ff	 movss	 xmm4, DWORD PTR _r$[ebp+12]
; File C:\Program Files (x86)\Microsoft Visual Studio\2019\Professional\VC\Tools\MSVC\14.29.30133\include\deque

; 912  :         return _Unchecked_iterator(_Myoff(), _STD addressof(_Get_data()));

  00526	0f 44 c1	 cmove	 eax, ecx
; File C:\Users\murat\Desktop\Siveps2-1-99-Project\source\client\extern\include\d3dx8math.inl

; 283  :     return D3DXVECTOR3(f * v.x, f * v.y, f * v.z);

  00529	f3 0f 11 a5 58
	e8 ff ff	 movss	 DWORD PTR _d$2$sroa$2673$1$[ebp], xmm4
; File C:\Program Files (x86)\Microsoft Visual Studio\2019\Professional\VC\Tools\MSVC\14.29.30133\include\deque

; 912  :         return _Unchecked_iterator(_Myoff(), _STD addressof(_Get_data()));

  00531	8b 8d 78 e8 ff
	ff		 mov	 ecx, DWORD PTR _this$GSCopy$1$[ebp]
; File C:\Users\murat\Desktop\Siveps2-1-99-Project\source\client\extern\include\d3dx8math.inl

; 269  :     return D3DXVECTOR3(x * f, y * f, z * f);

  00537	0f 28 f3	 movaps	 xmm6, xmm3
; File C:\Program Files (x86)\Microsoft Visual Studio\2019\Professional\VC\Tools\MSVC\14.29.30133\include\deque

; 912  :         return _Unchecked_iterator(_Myoff(), _STD addressof(_Get_data()));

  0053a	03 c1		 add	 eax, ecx
; File C:\Users\murat\Desktop\Siveps2-1-99-Project\source\client\extern\include\d3dx8math.inl

; 269  :     return D3DXVECTOR3(x * f, y * f, z * f);

  0053c	f3 0f 59 f3	 mulss	 xmm6, xmm3
; File C:\Program Files (x86)\Microsoft Visual Studio\2019\Professional\VC\Tools\MSVC\14.29.30133\include\deque

; 912  :         return _Unchecked_iterator(_Myoff(), _STD addressof(_Get_data()));

  00540	89 85 1c e8 ff
	ff		 mov	 DWORD PTR tv7782[ebp], eax

; 565  :         return (_Off / _Block_size) & (_Mapsize - 1);

  00546	85 f6		 test	 esi, esi
; File C:\Users\murat\Desktop\Siveps2-1-99-Project\source\client\Client\GameLib\WeaponTrace.cpp

; 197  : 		b = r[base];

  00548	0f 28 eb	 movaps	 xmm5, xmm3
  0054b	f3 0f 11 9d 6c
	e8 ff ff	 movss	 DWORD PTR _timenext$1$[ebp], xmm3
  00553	f3 0f 58 eb	 addss	 xmm5, xmm3
; File C:\Program Files (x86)\Microsoft Visual Studio\2019\Professional\VC\Tools\MSVC\14.29.30133\include\deque

; 44   :         : _Mycont(static_cast<const _Mydeque*>(_Pdeque)), _Myoff(_Off) {}

  00557	8b 10		 mov	 edx, DWORD PTR [eax]

; 565  :         return (_Off / _Block_size) & (_Mapsize - 1);

  00559	b8 24 00 00 00	 mov	 eax, 36			; 00000024H
  0055e	0f 44 85 e4 e7
	ff ff		 cmove	 eax, DWORD PTR tv7486[ebp]

; 204  :         _Deque_unchecked_iterator _Tmp = *this;

  00565	89 95 14 e8 ff
	ff		 mov	 DWORD PTR __Tmp$10[ebp+4], edx
; File C:\Users\murat\Desktop\Siveps2-1-99-Project\source\client\Client\GameLib\WeaponTrace.cpp

; 198  : 		c = ( 3*v3Tmp - r[base+1]*h[base] - (2*h[base])*r[base] )

  0056b	f3 0f 5e ce	 divss	 xmm1, xmm6
; File C:\Program Files (x86)\Microsoft Visual Studio\2019\Professional\VC\Tools\MSVC\14.29.30133\include\deque

; 565  :         return (_Off / _Block_size) & (_Mapsize - 1);

  0056f	8b 0c 08	 mov	 ecx, DWORD PTR [eax+ecx]

; 49   :         return _Mycont->_Map[_Block][_Off];

  00572	b8 20 00 00 00	 mov	 eax, 32			; 00000020H

; 565  :         return (_Off / _Block_size) & (_Mapsize - 1);

  00577	49		 dec	 ecx
  00578	23 ca		 and	 ecx, edx

; 49   :         return _Mycont->_Map[_Block][_Off];

  0057a	85 f6		 test	 esi, esi
  0057c	be 0c 00 00 00	 mov	 esi, 12			; 0000000cH
  00581	0f 44 c6	 cmove	 eax, esi
; File C:\Users\murat\Desktop\Siveps2-1-99-Project\source\client\Client\GameLib\WeaponTrace.cpp

; 194  : 		D3DXVECTOR3 v3Tmp = Input[base+1].second-Input[base].second;

  00584	8b b5 78 e8 ff
	ff		 mov	 esi, DWORD PTR _this$GSCopy$1$[ebp]
  0058a	8b 04 30	 mov	 eax, DWORD PTR [eax+esi]
  0058d	8b 34 88	 mov	 esi, DWORD PTR [eax+ecx*4]
; File C:\Program Files (x86)\Microsoft Visual Studio\2019\Professional\VC\Tools\MSVC\14.29.30133\include\deque

; 79   :         _Myoff += _Off;

  00590	8d 42 01	 lea	 eax, DWORD PTR [edx+1]

; 565  :         return (_Off / _Block_size) & (_Mapsize - 1);

  00593	8b 8d 70 e8 ff
	ff		 mov	 ecx, DWORD PTR __Tmp$1$[ebp]
; File C:\Users\murat\Desktop\Siveps2-1-99-Project\source\client\Client\GameLib\WeaponTrace.cpp

; 194  : 		D3DXVECTOR3 v3Tmp = Input[base+1].second-Input[base].second;

  00599	8b 95 70 e8 ff
	ff		 mov	 edx, DWORD PTR __Tmp$1$[ebp]
; File C:\Program Files (x86)\Microsoft Visual Studio\2019\Professional\VC\Tools\MSVC\14.29.30133\include\deque

; 565  :         return (_Off / _Block_size) & (_Mapsize - 1);

  0059f	8b 49 08	 mov	 ecx, DWORD PTR [ecx+8]
  005a2	49		 dec	 ecx
  005a3	23 c8		 and	 ecx, eax
; File C:\Users\murat\Desktop\Siveps2-1-99-Project\source\client\Client\GameLib\WeaponTrace.cpp

; 194  : 		D3DXVECTOR3 v3Tmp = Input[base+1].second-Input[base].second;

  005a5	8b 42 04	 mov	 eax, DWORD PTR [edx+4]
  005a8	8b 04 88	 mov	 eax, DWORD PTR [eax+ecx*4]
; File C:\Users\murat\Desktop\Siveps2-1-99-Project\source\client\extern\include\d3dx8math.inl

; 263  :     return D3DXVECTOR3(x - v.x, y - v.y, z - v.z);

  005ab	f3 0f 10 40 0c	 movss	 xmm0, DWORD PTR [eax+12]
  005b0	f3 0f 5c 46 0c	 subss	 xmm0, DWORD PTR [esi+12]
  005b5	f3 0f 10 78 04	 movss	 xmm7, DWORD PTR [eax+4]
  005ba	f3 0f 10 50 08	 movss	 xmm2, DWORD PTR [eax+8]
; File C:\Users\murat\Desktop\Siveps2-1-99-Project\source\client\Client\GameLib\WeaponTrace.cpp

; 195  : 		float timebase=0,timenext=h[base], dt=m_fSamplingTime;

  005bf	8b 85 78 e8 ff
	ff		 mov	 eax, DWORD PTR _this$GSCopy$1$[ebp]
; File C:\Users\murat\Desktop\Siveps2-1-99-Project\source\client\extern\include\d3dx8math.inl

; 263  :     return D3DXVECTOR3(x - v.x, y - v.y, z - v.z);

  005c5	f3 0f 5c 7e 04	 subss	 xmm7, DWORD PTR [esi+4]
  005ca	f3 0f 11 85 7c
	e8 ff ff	 movss	 DWORD PTR tv7529[ebp], xmm0
; File C:\Users\murat\Desktop\Siveps2-1-99-Project\source\client\Client\GameLib\WeaponTrace.cpp

; 195  : 		float timebase=0,timenext=h[base], dt=m_fSamplingTime;

  005d2	f3 0f 10 85 50
	e8 ff ff	 movss	 xmm0, DWORD PTR $T16[ebp]
  005da	f3 0f 11 85 18
	e8 ff ff	 movss	 DWORD PTR _timebase$1$[ebp], xmm0
  005e2	f3 0f 10 40 40	 movss	 xmm0, DWORD PTR [eax+64]
  005e7	f3 0f 11 85 14
	e8 ff ff	 movss	 DWORD PTR _dt$1$[ebp], xmm0

; 196  : 		a = Input[base].second;

  005ef	f3 0f 7e 46 04	 movq	 xmm0, QWORD PTR [esi+4]
  005f4	66 0f d6 85 f8
	e7 ff ff	 movq	 QWORD PTR _a$8[ebp], xmm0

; 197  : 		b = r[base];

  005fc	f3 0f 7e 85 e0
	f1 ff ff	 movq	 xmm0, QWORD PTR _r$[ebp]
  00604	66 0f d6 85 04
	e8 ff ff	 movq	 QWORD PTR _b$9[ebp], xmm0
; File C:\Users\murat\Desktop\Siveps2-1-99-Project\source\client\extern\include\d3dx8math.inl

; 182  :     z = fz;

  0060c	0f 28 c7	 movaps	 xmm0, xmm7
  0060f	f3 0f 59 05 00
	00 00 00	 mulss	 xmm0, DWORD PTR __real@40400000
; File C:\Users\murat\Desktop\Siveps2-1-99-Project\source\client\Client\GameLib\WeaponTrace.cpp

; 196  : 		a = Input[base].second;

  00617	8b 46 0c	 mov	 eax, DWORD PTR [esi+12]
; File C:\Users\murat\Desktop\Siveps2-1-99-Project\source\client\extern\include\d3dx8math.inl

; 263  :     return D3DXVECTOR3(x - v.x, y - v.y, z - v.z);

  0061a	f3 0f 5c 56 08	 subss	 xmm2, DWORD PTR [esi+8]
; File C:\Users\murat\Desktop\Siveps2-1-99-Project\source\client\Client\GameLib\WeaponTrace.cpp

; 196  : 		a = Input[base].second;

  0061f	89 85 00 e8 ff
	ff		 mov	 DWORD PTR _a$8[ebp+8], eax
; File C:\Users\murat\Desktop\Siveps2-1-99-Project\source\client\extern\include\d3dx8math.inl

; 182  :     z = fz;

  00625	f3 0f 11 85 74
	e8 ff ff	 movss	 DWORD PTR _c$1$sroa$2677$1$[ebp], xmm0

; 283  :     return D3DXVECTOR3(f * v.x, f * v.y, f * v.z);

  0062d	0f 28 c3	 movaps	 xmm0, xmm3
  00630	f3 0f 59 c4	 mulss	 xmm0, xmm4
; File C:\Users\murat\Desktop\Siveps2-1-99-Project\source\client\Client\GameLib\WeaponTrace.cpp

; 197  : 		b = r[base];

  00634	8b 85 e8 f1 ff
	ff		 mov	 eax, DWORD PTR _r$[ebp+8]
; File C:\Users\murat\Desktop\Siveps2-1-99-Project\source\client\extern\include\d3dx8math.inl

; 182  :     z = fz;

  0063a	f3 0f 10 a5 74
	e8 ff ff	 movss	 xmm4, DWORD PTR _c$1$sroa$2677$1$[ebp]

; 263  :     return D3DXVECTOR3(x - v.x, y - v.y, z - v.z);

  00642	f3 0f 11 95 44
	e8 ff ff	 movss	 DWORD PTR tv7527[ebp], xmm2

; 182  :     z = fz;

  0064a	f3 0f 5c e0	 subss	 xmm4, xmm0
; File C:\Users\murat\Desktop\Siveps2-1-99-Project\source\client\Client\GameLib\WeaponTrace.cpp

; 197  : 		b = r[base];

  0064e	89 85 0c e8 ff
	ff		 mov	 DWORD PTR _b$9[ebp+8], eax
; File C:\Users\murat\Desktop\Siveps2-1-99-Project\source\client\extern\include\d3dx8math.inl

; 283  :     return D3DXVECTOR3(f * v.x, f * v.y, f * v.z);

  00654	0f 28 c5	 movaps	 xmm0, xmm5
  00657	f3 0f 59 85 e0
	f1 ff ff	 mulss	 xmm0, DWORD PTR _r$[ebp]

; 182  :     z = fz;

  0065f	f3 0f 11 a5 74
	e8 ff ff	 movss	 DWORD PTR _c$1$sroa$2677$1$[ebp], xmm4
  00667	f3 0f 5c e0	 subss	 xmm4, xmm0
; File C:\Users\murat\Desktop\Siveps2-1-99-Project\source\client\Client\GameLib\WeaponTrace.cpp

; 198  : 		c = ( 3*v3Tmp - r[base+1]*h[base] - (2*h[base])*r[base] )

  0066b	0f 28 c4	 movaps	 xmm0, xmm4
; File C:\Users\murat\Desktop\Siveps2-1-99-Project\source\client\extern\include\d3dx8math.inl

; 182  :     z = fz;

  0066e	f3 0f 11 a5 74
	e8 ff ff	 movss	 DWORD PTR _c$1$sroa$2677$1$[ebp], xmm4
; File C:\Users\murat\Desktop\Siveps2-1-99-Project\source\client\Client\GameLib\WeaponTrace.cpp

; 198  : 		c = ( 3*v3Tmp - r[base+1]*h[base] - (2*h[base])*r[base] )

  00676	f3 0f 59 c1	 mulss	 xmm0, xmm1
; File C:\Users\murat\Desktop\Siveps2-1-99-Project\source\client\extern\include\d3dx8math.inl

; 180  :     x = fx;

  0067a	0f 28 e2	 movaps	 xmm4, xmm2
  0067d	f3 0f 59 25 00
	00 00 00	 mulss	 xmm4, DWORD PTR __real@40400000
; File C:\Users\murat\Desktop\Siveps2-1-99-Project\source\client\Client\GameLib\WeaponTrace.cpp

; 198  : 		c = ( 3*v3Tmp - r[base+1]*h[base] - (2*h[base])*r[base] )

  00685	f3 0f 11 85 74
	e8 ff ff	 movss	 DWORD PTR _c$1$sroa$2677$1$[ebp], xmm0
; File C:\Users\murat\Desktop\Siveps2-1-99-Project\source\client\extern\include\d3dx8math.inl

; 269  :     return D3DXVECTOR3(x * f, y * f, z * f);

  0068d	0f 28 c3	 movaps	 xmm0, xmm3
  00690	f3 0f 10 95 f0
	f1 ff ff	 movss	 xmm2, DWORD PTR _r$[ebp+16]
  00698	f3 0f 59 c2	 mulss	 xmm0, xmm2
  0069c	f3 0f 11 95 64
	e8 ff ff	 movss	 DWORD PTR _d$2$sroa$2672$1$[ebp], xmm2
  006a4	f3 0f 10 95 f4
	f1 ff ff	 movss	 xmm2, DWORD PTR _r$[ebp+20]

; 180  :     x = fx;

  006ac	f3 0f 5c e0	 subss	 xmm4, xmm0

; 182  :     z = fz;

  006b0	f3 0f 59 3d 00
	00 00 00	 mulss	 xmm7, DWORD PTR __real@c0000000

; 283  :     return D3DXVECTOR3(f * v.x, f * v.y, f * v.z);

  006b8	0f 28 c5	 movaps	 xmm0, xmm5
  006bb	f3 0f 59 ad e8
	f1 ff ff	 mulss	 xmm5, DWORD PTR _r$[ebp+8]
  006c3	f3 0f 59 85 e4
	f1 ff ff	 mulss	 xmm0, DWORD PTR _r$[ebp+4]

; 180  :     x = fx;

  006cb	f3 0f 5c e0	 subss	 xmm4, xmm0

; 269  :     return D3DXVECTOR3(x * f, y * f, z * f);

  006cf	0f 28 c3	 movaps	 xmm0, xmm3
  006d2	f3 0f 59 c2	 mulss	 xmm0, xmm2

; 180  :     x = fx;

  006d6	f3 0f 59 e1	 mulss	 xmm4, xmm1
  006da	f3 0f 11 a5 3c
	e8 ff ff	 movss	 DWORD PTR _c$1$sroa$2675$1$[ebp], xmm4

; 181  :     y = fy;

  006e2	f3 0f 10 a5 7c
	e8 ff ff	 movss	 xmm4, DWORD PTR tv7529[ebp]
  006ea	f3 0f 59 25 00
	00 00 00	 mulss	 xmm4, DWORD PTR __real@40400000
  006f2	f3 0f 5c e0	 subss	 xmm4, xmm0
  006f6	f3 0f 5c e5	 subss	 xmm4, xmm5

; 257  :     return D3DXVECTOR3(x + v.x, y + v.y, z + v.z);

  006fa	0f 28 eb	 movaps	 xmm5, xmm3
  006fd	0f 28 c5	 movaps	 xmm0, xmm5
  00700	0f 28 da	 movaps	 xmm3, xmm2
  00703	f3 0f 59 c6	 mulss	 xmm0, xmm6
; File C:\Users\murat\Desktop\Siveps2-1-99-Project\source\client\Client\GameLib\WeaponTrace.cpp

; 200  : 		d = ( -2*v3Tmp + (r[base+1]+r[base])*h[base])

  00707	f3 0f 10 35 00
	00 00 00	 movss	 xmm6, DWORD PTR __real@3f800000
; File C:\Users\murat\Desktop\Siveps2-1-99-Project\source\client\extern\include\d3dx8math.inl

; 181  :     y = fy;

  0070f	f3 0f 59 e1	 mulss	 xmm4, xmm1
; File C:\Users\murat\Desktop\Siveps2-1-99-Project\source\client\Client\GameLib\WeaponTrace.cpp

; 200  : 		d = ( -2*v3Tmp + (r[base+1]+r[base])*h[base])

  00713	0f 28 ce	 movaps	 xmm1, xmm6
  00716	f3 0f 5e c8	 divss	 xmm1, xmm0
; File C:\Users\murat\Desktop\Siveps2-1-99-Project\source\client\extern\include\d3dx8math.inl

; 257  :     return D3DXVECTOR3(x + v.x, y + v.y, z + v.z);

  0071a	f3 0f 10 85 58
	e8 ff ff	 movss	 xmm0, DWORD PTR _d$2$sroa$2673$1$[ebp]
  00722	f3 0f 58 85 e0
	f1 ff ff	 addss	 xmm0, DWORD PTR _r$[ebp]
  0072a	f3 0f 58 9d e8
	f1 ff ff	 addss	 xmm3, DWORD PTR _r$[ebp+8]

; 181  :     y = fy;

  00732	f3 0f 11 a5 5c
	e8 ff ff	 movss	 DWORD PTR _c$1$sroa$2674$1$[ebp], xmm4

; 257  :     return D3DXVECTOR3(x + v.x, y + v.y, z + v.z);

  0073a	f3 0f 10 a5 64
	e8 ff ff	 movss	 xmm4, DWORD PTR _d$2$sroa$2672$1$[ebp]
  00742	f3 0f 58 a5 e4
	f1 ff ff	 addss	 xmm4, DWORD PTR _r$[ebp+4]
; File C:\Users\murat\Desktop\Siveps2-1-99-Project\source\client\Client\GameLib\WeaponTrace.cpp

; 200  : 		d = ( -2*v3Tmp + (r[base+1]+r[base])*h[base])

  0074a	f3 0f 59 c5	 mulss	 xmm0, xmm5
  0074e	f3 0f 59 dd	 mulss	 xmm3, xmm5
; File C:\Users\murat\Desktop\Siveps2-1-99-Project\source\client\extern\include\d3dx8math.inl

; 182  :     z = fz;

  00752	f3 0f 58 c7	 addss	 xmm0, xmm7
; File C:\Users\murat\Desktop\Siveps2-1-99-Project\source\client\Client\GameLib\WeaponTrace.cpp

; 200  : 		d = ( -2*v3Tmp + (r[base+1]+r[base])*h[base])

  00756	f3 0f 59 e5	 mulss	 xmm4, xmm5
  0075a	f3 0f 59 c1	 mulss	 xmm0, xmm1
  0075e	f3 0f 11 85 58
	e8 ff ff	 movss	 DWORD PTR _d$2$sroa$2673$1$[ebp], xmm0
; File C:\Users\murat\Desktop\Siveps2-1-99-Project\source\client\extern\include\d3dx8math.inl

; 180  :     x = fx;

  00766	f3 0f 10 85 44
	e8 ff ff	 movss	 xmm0, DWORD PTR tv7527[ebp]
  0076e	f3 0f 59 05 00
	00 00 00	 mulss	 xmm0, DWORD PTR __real@c0000000
  00776	f3 0f 58 e0	 addss	 xmm4, xmm0

; 181  :     y = fy;

  0077a	f3 0f 10 85 7c
	e8 ff ff	 movss	 xmm0, DWORD PTR tv7529[ebp]
  00782	f3 0f 59 05 00
	00 00 00	 mulss	 xmm0, DWORD PTR __real@c0000000
  0078a	f3 0f 58 d8	 addss	 xmm3, xmm0

; 180  :     x = fx;

  0078e	f3 0f 59 e1	 mulss	 xmm4, xmm1
; File C:\Users\murat\Desktop\Siveps2-1-99-Project\source\client\Client\GameLib\WeaponTrace.cpp

; 203  : 		for(float t = 0; t<=length; t+=dt)

  00792	f3 0f 10 85 34
	e8 ff ff	 movss	 xmm0, DWORD PTR _length$1$[ebp]
; File C:\Users\murat\Desktop\Siveps2-1-99-Project\source\client\extern\include\d3dx8math.inl

; 180  :     x = fx;

  0079a	f3 0f 11 a5 64
	e8 ff ff	 movss	 DWORD PTR _d$2$sroa$2672$1$[ebp], xmm4
; File C:\Users\murat\Desktop\Siveps2-1-99-Project\source\client\Client\GameLib\WeaponTrace.cpp

; 203  : 		for(float t = 0; t<=length; t+=dt)

  007a2	f3 0f 10 a5 50
	e8 ff ff	 movss	 xmm4, DWORD PTR $T16[ebp]
  007aa	0f 2f c4	 comiss	 xmm0, xmm4
; File C:\Users\murat\Desktop\Siveps2-1-99-Project\source\client\extern\include\d3dx8math.inl

; 181  :     y = fy;

  007ad	f3 0f 59 d9	 mulss	 xmm3, xmm1
; File C:\Users\murat\Desktop\Siveps2-1-99-Project\source\client\Client\GameLib\WeaponTrace.cpp

; 203  : 		for(float t = 0; t<=length; t+=dt)

  007b1	0f 28 cc	 movaps	 xmm1, xmm4
  007b4	f3 0f 11 a5 68
	e8 ff ff	 movss	 DWORD PTR _t$1$[ebp], xmm4
; File C:\Users\murat\Desktop\Siveps2-1-99-Project\source\client\extern\include\d3dx8math.inl

; 181  :     y = fy;

  007bc	f3 0f 11 9d 60
	e8 ff ff	 movss	 DWORD PTR _d$2$sroa$2671$1$[ebp], xmm3
; File C:\Users\murat\Desktop\Siveps2-1-99-Project\source\client\Client\GameLib\WeaponTrace.cpp

; 203  : 		for(float t = 0; t<=length; t+=dt)

  007c4	0f 82 7a 05 00
	00		 jb	 $LN2@BuildVerte
  007ca	66 0f 1f 44 00
	00		 npad	 6
$LL19@BuildVerte:

; 205  : 			while (t>timenext)

  007d0	0f 2f cd	 comiss	 xmm1, xmm5
  007d3	0f 86 cf 02 00
	00		 jbe	 $LN721@BuildVerte
  007d9	8d 04 7f	 lea	 eax, DWORD PTR [edi+edi*2]
  007dc	8d 8d e8 f1 ff
	ff		 lea	 ecx, DWORD PTR _r$[ebp+8]
  007e2	8d 0c 81	 lea	 ecx, DWORD PTR [ecx+eax*4]
  007e5	66 66 66 0f 1f
	84 00 00 00 00
	00		 npad	 11
$LL20@BuildVerte:

; 206  : 			{
; 207  : 				timebase = timenext;
; 208  : 				base++;

  007f0	47		 inc	 edi
  007f1	f3 0f 11 ad 18
	e8 ff ff	 movss	 DWORD PTR _timebase$1$[ebp], xmm5
  007f9	83 c1 0c	 add	 ecx, 12			; 0000000cH
  007fc	89 8d 30 e8 ff
	ff		 mov	 DWORD PTR tv7733[ebp], ecx

; 209  : 				if (base>=n) break;

  00802	3b bd 48 e8 ff
	ff		 cmp	 edi, DWORD PTR _n$1$[ebp]
  00808	0f 8d 8a 02 00
	00		 jge	 $LN722@BuildVerte
; File C:\Program Files (x86)\Microsoft Visual Studio\2019\Professional\VC\Tools\MSVC\14.29.30133\include\deque

; 44   :         : _Mycont(static_cast<const _Mydeque*>(_Pdeque)), _Myoff(_Off) {}

  0080e	8b 85 1c e8 ff
	ff		 mov	 eax, DWORD PTR tv7782[ebp]

; 565  :         return (_Off / _Block_size) & (_Mapsize - 1);

  00814	8b 4a 08	 mov	 ecx, DWORD PTR [edx+8]
  00817	49		 dec	 ecx
; File C:\Users\murat\Desktop\Siveps2-1-99-Project\source\client\Client\GameLib\WeaponTrace.cpp

; 213  : 				c = ( 3*v3Tmp - r[base+1]*h[base] - (2*h[base])*r[base] )

  00818	f3 0f 10 bc bd
	30 ed ff ff	 movss	 xmm7, DWORD PTR _h$[ebp+edi*4]
  00821	0f 28 d7	 movaps	 xmm2, xmm7
  00824	0f 28 df	 movaps	 xmm3, xmm7
; File C:\Program Files (x86)\Microsoft Visual Studio\2019\Professional\VC\Tools\MSVC\14.29.30133\include\deque

; 44   :         : _Mycont(static_cast<const _Mydeque*>(_Pdeque)), _Myoff(_Off) {}

  00827	8b 30		 mov	 esi, DWORD PTR [eax]
; File C:\Users\murat\Desktop\Siveps2-1-99-Project\source\client\Client\GameLib\WeaponTrace.cpp

; 213  : 				c = ( 3*v3Tmp - r[base+1]*h[base] - (2*h[base])*r[base] )

  00829	f3 0f 58 df	 addss	 xmm3, xmm7
  0082d	f3 0f 59 d7	 mulss	 xmm2, xmm7
; File C:\Program Files (x86)\Microsoft Visual Studio\2019\Professional\VC\Tools\MSVC\14.29.30133\include\deque

; 204  :         _Deque_unchecked_iterator _Tmp = *this;

  00831	89 b5 3c e8 ff
	ff		 mov	 DWORD PTR __Tmp$15[ebp+4], esi
  00837	89 b5 3c e8 ff
	ff		 mov	 DWORD PTR __Tmp$14[ebp+4], esi

; 79   :         _Myoff += _Off;

  0083d	8d 04 3e	 lea	 eax, DWORD PTR [esi+edi]

; 204  :         _Deque_unchecked_iterator _Tmp = *this;

  00840	89 b5 3c e8 ff
	ff		 mov	 DWORD PTR __Tmp$13[ebp+4], esi

; 565  :         return (_Off / _Block_size) & (_Mapsize - 1);

  00846	23 c8		 and	 ecx, eax
; File C:\Users\murat\Desktop\Siveps2-1-99-Project\source\client\Client\GameLib\WeaponTrace.cpp

; 210  : 				D3DXVECTOR3 v3Tmp = Input[base+1].second-Input[base].second;

  00848	8b 42 04	 mov	 eax, DWORD PTR [edx+4]
  0084b	8b 14 88	 mov	 edx, DWORD PTR [eax+ecx*4]
; File C:\Program Files (x86)\Microsoft Visual Studio\2019\Professional\VC\Tools\MSVC\14.29.30133\include\deque

; 79   :         _Myoff += _Off;

  0084e	8d 46 01	 lea	 eax, DWORD PTR [esi+1]

; 565  :         return (_Off / _Block_size) & (_Mapsize - 1);

  00851	8b 8d 70 e8 ff
	ff		 mov	 ecx, DWORD PTR __Tmp$1$[ebp]

; 79   :         _Myoff += _Off;

  00857	03 c7		 add	 eax, edi

; 565  :         return (_Off / _Block_size) & (_Mapsize - 1);

  00859	8b 49 08	 mov	 ecx, DWORD PTR [ecx+8]
  0085c	49		 dec	 ecx
  0085d	23 c8		 and	 ecx, eax
; File C:\Users\murat\Desktop\Siveps2-1-99-Project\source\client\Client\GameLib\WeaponTrace.cpp

; 210  : 				D3DXVECTOR3 v3Tmp = Input[base+1].second-Input[base].second;

  0085f	8b 85 70 e8 ff
	ff		 mov	 eax, DWORD PTR __Tmp$1$[ebp]
  00865	8b 40 04	 mov	 eax, DWORD PTR [eax+4]
  00868	8b 04 88	 mov	 eax, DWORD PTR [eax+ecx*4]
; File C:\Users\murat\Desktop\Siveps2-1-99-Project\source\client\extern\include\d3dx8math.inl

; 263  :     return D3DXVECTOR3(x - v.x, y - v.y, z - v.z);

  0086b	f3 0f 10 40 04	 movss	 xmm0, DWORD PTR [eax+4]
  00870	f3 0f 5c 42 04	 subss	 xmm0, DWORD PTR [edx+4]
  00875	f3 0f 11 85 7c
	e8 ff ff	 movss	 DWORD PTR tv7586[ebp], xmm0
  0087d	f3 0f 10 40 08	 movss	 xmm0, DWORD PTR [eax+8]
  00882	f3 0f 5c 42 08	 subss	 xmm0, DWORD PTR [edx+8]

; 182  :     z = fz;

  00887	f3 0f 10 b5 7c
	e8 ff ff	 movss	 xmm6, DWORD PTR tv7586[ebp]
  0088f	f3 0f 59 35 00
	00 00 00	 mulss	 xmm6, DWORD PTR __real@40400000

; 263  :     return D3DXVECTOR3(x - v.x, y - v.y, z - v.z);

  00897	f3 0f 11 85 2c
	e8 ff ff	 movss	 DWORD PTR tv7588[ebp], xmm0
  0089f	f3 0f 10 40 0c	 movss	 xmm0, DWORD PTR [eax+12]
; File C:\Program Files (x86)\Microsoft Visual Studio\2019\Professional\VC\Tools\MSVC\14.29.30133\include\deque

; 79   :         _Myoff += _Off;

  008a4	8d 04 3e	 lea	 eax, DWORD PTR [esi+edi]
; File C:\Users\murat\Desktop\Siveps2-1-99-Project\source\client\extern\include\d3dx8math.inl

; 263  :     return D3DXVECTOR3(x - v.x, y - v.y, z - v.z);

  008a7	f3 0f 5c 42 0c	 subss	 xmm0, DWORD PTR [edx+12]
; File C:\Program Files (x86)\Microsoft Visual Studio\2019\Professional\VC\Tools\MSVC\14.29.30133\include\deque

; 565  :         return (_Off / _Block_size) & (_Mapsize - 1);

  008ac	8b 95 70 e8 ff
	ff		 mov	 edx, DWORD PTR __Tmp$1$[ebp]
  008b2	8b 4a 08	 mov	 ecx, DWORD PTR [edx+8]
  008b5	49		 dec	 ecx
; File C:\Users\murat\Desktop\Siveps2-1-99-Project\source\client\extern\include\d3dx8math.inl

; 263  :     return D3DXVECTOR3(x - v.x, y - v.y, z - v.z);

  008b6	f3 0f 11 85 44
	e8 ff ff	 movss	 DWORD PTR tv7590[ebp], xmm0
; File C:\Program Files (x86)\Microsoft Visual Studio\2019\Professional\VC\Tools\MSVC\14.29.30133\include\deque

; 565  :         return (_Off / _Block_size) & (_Mapsize - 1);

  008be	23 c8		 and	 ecx, eax
; File C:\Users\murat\Desktop\Siveps2-1-99-Project\source\client\Client\GameLib\WeaponTrace.cpp

; 211  : 				a = Input[base].second;

  008c0	8b 42 04	 mov	 eax, DWORD PTR [edx+4]
  008c3	8b 04 88	 mov	 eax, DWORD PTR [eax+ecx*4]

; 212  : 				b = r[base];

  008c6	8b 8d 30 e8 ff
	ff		 mov	 ecx, DWORD PTR tv7733[ebp]
  008cc	f3 0f 7e 40 04	 movq	 xmm0, QWORD PTR [eax+4]
; File C:\Users\murat\Desktop\Siveps2-1-99-Project\source\client\extern\include\d3dx8math.inl

; 269  :     return D3DXVECTOR3(x * f, y * f, z * f);

  008d1	f3 0f 10 49 08	 movss	 xmm1, DWORD PTR [ecx+8]
  008d6	f3 0f 11 8d 64
	e8 ff ff	 movss	 DWORD PTR _d$2$sroa$2672$1$[ebp], xmm1
  008de	f3 0f 10 49 0c	 movss	 xmm1, DWORD PTR [ecx+12]
  008e3	f3 0f 11 8d 60
	e8 ff ff	 movss	 DWORD PTR _d$2$sroa$2671$1$[ebp], xmm1
; File C:\Users\murat\Desktop\Siveps2-1-99-Project\source\client\Client\GameLib\WeaponTrace.cpp

; 213  : 				c = ( 3*v3Tmp - r[base+1]*h[base] - (2*h[base])*r[base] )

  008eb	f3 0f 10 0d 00
	00 00 00	 movss	 xmm1, DWORD PTR __real@3f800000
  008f3	66 0f d6 85 f8
	e7 ff ff	 movq	 QWORD PTR _a$8[ebp], xmm0
  008fb	f3 0f 7e 41 f8	 movq	 xmm0, QWORD PTR [ecx-8]
  00900	f3 0f 5e ca	 divss	 xmm1, xmm2
  00904	8b 40 0c	 mov	 eax, DWORD PTR [eax+12]
  00907	89 85 00 e8 ff
	ff		 mov	 DWORD PTR _a$8[ebp+8], eax
  0090d	8b 01		 mov	 eax, DWORD PTR [ecx]
  0090f	89 85 0c e8 ff
	ff		 mov	 DWORD PTR _b$9[ebp+8], eax
  00915	66 0f d6 85 04
	e8 ff ff	 movq	 QWORD PTR _b$9[ebp], xmm0
; File C:\Users\murat\Desktop\Siveps2-1-99-Project\source\client\extern\include\d3dx8math.inl

; 269  :     return D3DXVECTOR3(x * f, y * f, z * f);

  0091d	f3 0f 10 41 04	 movss	 xmm0, DWORD PTR [ecx+4]
  00922	f3 0f 11 85 58
	e8 ff ff	 movss	 DWORD PTR _d$2$sroa$2673$1$[ebp], xmm0
  0092a	f3 0f 59 c7	 mulss	 xmm0, xmm7

; 182  :     z = fz;

  0092e	f3 0f 5c f0	 subss	 xmm6, xmm0

; 283  :     return D3DXVECTOR3(f * v.x, f * v.y, f * v.z);

  00932	f3 0f 10 41 f8	 movss	 xmm0, DWORD PTR [ecx-8]
  00937	f3 0f 59 c3	 mulss	 xmm0, xmm3

; 182  :     z = fz;

  0093b	f3 0f 5c f0	 subss	 xmm6, xmm0
; File C:\Users\murat\Desktop\Siveps2-1-99-Project\source\client\Client\GameLib\WeaponTrace.cpp

; 213  : 				c = ( 3*v3Tmp - r[base+1]*h[base] - (2*h[base])*r[base] )

  0093f	0f 28 c6	 movaps	 xmm0, xmm6
; File C:\Users\murat\Desktop\Siveps2-1-99-Project\source\client\extern\include\d3dx8math.inl

; 182  :     z = fz;

  00942	f3 0f 11 b5 74
	e8 ff ff	 movss	 DWORD PTR _c$1$sroa$2677$1$[ebp], xmm6

; 180  :     x = fx;

  0094a	f3 0f 10 b5 2c
	e8 ff ff	 movss	 xmm6, DWORD PTR tv7588[ebp]
  00952	f3 0f 59 35 00
	00 00 00	 mulss	 xmm6, DWORD PTR __real@40400000
; File C:\Users\murat\Desktop\Siveps2-1-99-Project\source\client\Client\GameLib\WeaponTrace.cpp

; 213  : 				c = ( 3*v3Tmp - r[base+1]*h[base] - (2*h[base])*r[base] )

  0095a	f3 0f 59 c1	 mulss	 xmm0, xmm1
  0095e	f3 0f 11 85 74
	e8 ff ff	 movss	 DWORD PTR _c$1$sroa$2677$1$[ebp], xmm0
; File C:\Users\murat\Desktop\Siveps2-1-99-Project\source\client\extern\include\d3dx8math.inl

; 269  :     return D3DXVECTOR3(x * f, y * f, z * f);

  00966	f3 0f 10 85 64
	e8 ff ff	 movss	 xmm0, DWORD PTR _d$2$sroa$2672$1$[ebp]
  0096e	f3 0f 59 c7	 mulss	 xmm0, xmm7

; 180  :     x = fx;

  00972	f3 0f 5c f0	 subss	 xmm6, xmm0

; 283  :     return D3DXVECTOR3(f * v.x, f * v.y, f * v.z);

  00976	f3 0f 10 41 fc	 movss	 xmm0, DWORD PTR [ecx-4]
  0097b	f3 0f 59 c3	 mulss	 xmm0, xmm3

; 180  :     x = fx;

  0097f	f3 0f 5c f0	 subss	 xmm6, xmm0
  00983	f3 0f 59 f1	 mulss	 xmm6, xmm1
  00987	f3 0f 11 b5 3c
	e8 ff ff	 movss	 DWORD PTR _c$1$sroa$2675$1$[ebp], xmm6

; 181  :     y = fy;

  0098f	f3 0f 10 b5 44
	e8 ff ff	 movss	 xmm6, DWORD PTR tv7590[ebp]
  00997	f3 0f 59 35 00
	00 00 00	 mulss	 xmm6, DWORD PTR __real@40400000

; 269  :     return D3DXVECTOR3(x * f, y * f, z * f);

  0099f	f3 0f 10 85 60
	e8 ff ff	 movss	 xmm0, DWORD PTR _d$2$sroa$2671$1$[ebp]
  009a7	f3 0f 59 c7	 mulss	 xmm0, xmm7

; 182  :     z = fz;

  009ab	f3 0f 10 25 00
	00 00 00	 movss	 xmm4, DWORD PTR __real@c0000000
; File C:\Users\murat\Desktop\Siveps2-1-99-Project\source\client\Client\GameLib\WeaponTrace.cpp

; 218  : 				timenext+=h[base];

  009b3	f3 0f 10 ad 6c
	e8 ff ff	 movss	 xmm5, DWORD PTR _timenext$1$[ebp]
; File C:\Users\murat\Desktop\Siveps2-1-99-Project\source\client\extern\include\d3dx8math.inl

; 181  :     y = fy;

  009bb	f3 0f 5c f0	 subss	 xmm6, xmm0

; 283  :     return D3DXVECTOR3(f * v.x, f * v.y, f * v.z);

  009bf	f3 0f 10 01	 movss	 xmm0, DWORD PTR [ecx]
  009c3	f3 0f 59 c3	 mulss	 xmm0, xmm3
; File C:\Users\murat\Desktop\Siveps2-1-99-Project\source\client\Client\GameLib\WeaponTrace.cpp

; 218  : 				timenext+=h[base];

  009c7	f3 0f 58 ef	 addss	 xmm5, xmm7
; File C:\Users\murat\Desktop\Siveps2-1-99-Project\source\client\extern\include\d3dx8math.inl

; 181  :     y = fy;

  009cb	0f 28 de	 movaps	 xmm3, xmm6
  009ce	f3 0f 11 b5 5c
	e8 ff ff	 movss	 DWORD PTR _c$1$sroa$2674$1$[ebp], xmm6
  009d6	f3 0f 5c d8	 subss	 xmm3, xmm0
; File C:\Users\murat\Desktop\Siveps2-1-99-Project\source\client\Client\GameLib\WeaponTrace.cpp

; 218  : 				timenext+=h[base];

  009da	f3 0f 11 ad 6c
	e8 ff ff	 movss	 DWORD PTR _timenext$1$[ebp], xmm5
  009e2	0f 28 c7	 movaps	 xmm0, xmm7
  009e5	f3 0f 59 c2	 mulss	 xmm0, xmm2
; File C:\Users\murat\Desktop\Siveps2-1-99-Project\source\client\extern\include\d3dx8math.inl

; 257  :     return D3DXVECTOR3(x + v.x, y + v.y, z + v.z);

  009e9	f3 0f 10 95 58
	e8 ff ff	 movss	 xmm2, DWORD PTR _d$2$sroa$2673$1$[ebp]
  009f1	f3 0f 58 51 f8	 addss	 xmm2, DWORD PTR [ecx-8]

; 181  :     y = fy;

  009f6	f3 0f 59 d9	 mulss	 xmm3, xmm1
; File C:\Users\murat\Desktop\Siveps2-1-99-Project\source\client\Client\GameLib\WeaponTrace.cpp

; 215  : 				d = ( -2*v3Tmp + (r[base+1]+r[base])*h[base])

  009fa	f3 0f 10 0d 00
	00 00 00	 movss	 xmm1, DWORD PTR __real@3f800000
  00a02	f3 0f 5e c8	 divss	 xmm1, xmm0
; File C:\Users\murat\Desktop\Siveps2-1-99-Project\source\client\extern\include\d3dx8math.inl

; 182  :     z = fz;

  00a06	f3 0f 10 85 7c
	e8 ff ff	 movss	 xmm0, DWORD PTR tv7586[ebp]

; 181  :     y = fy;

  00a0e	f3 0f 11 9d 5c
	e8 ff ff	 movss	 DWORD PTR _c$1$sroa$2674$1$[ebp], xmm3

; 257  :     return D3DXVECTOR3(x + v.x, y + v.y, z + v.z);

  00a16	f3 0f 10 9d 64
	e8 ff ff	 movss	 xmm3, DWORD PTR _d$2$sroa$2672$1$[ebp]
  00a1e	f3 0f 58 59 fc	 addss	 xmm3, DWORD PTR [ecx-4]

; 182  :     z = fz;

  00a23	f3 0f 59 c4	 mulss	 xmm0, xmm4
; File C:\Users\murat\Desktop\Siveps2-1-99-Project\source\client\Client\GameLib\WeaponTrace.cpp

; 215  : 				d = ( -2*v3Tmp + (r[base+1]+r[base])*h[base])

  00a27	f3 0f 59 d7	 mulss	 xmm2, xmm7
; File C:\Users\murat\Desktop\Siveps2-1-99-Project\source\client\extern\include\d3dx8math.inl

; 180  :     x = fx;

  00a2b	f3 0f 59 df	 mulss	 xmm3, xmm7

; 182  :     z = fz;

  00a2f	f3 0f 58 d0	 addss	 xmm2, xmm0
  00a33	f3 0f 10 85 2c
	e8 ff ff	 movss	 xmm0, DWORD PTR tv7588[ebp]
  00a3b	f3 0f 59 c4	 mulss	 xmm0, xmm4

; 180  :     x = fx;

  00a3f	f3 0f 58 d8	 addss	 xmm3, xmm0
; File C:\Users\murat\Desktop\Siveps2-1-99-Project\source\client\Client\GameLib\WeaponTrace.cpp

; 215  : 				d = ( -2*v3Tmp + (r[base+1]+r[base])*h[base])

  00a43	f3 0f 59 d1	 mulss	 xmm2, xmm1
; File C:\Users\murat\Desktop\Siveps2-1-99-Project\source\client\extern\include\d3dx8math.inl

; 181  :     y = fy;

  00a47	f3 0f 10 85 44
	e8 ff ff	 movss	 xmm0, DWORD PTR tv7590[ebp]
  00a4f	f3 0f 59 c4	 mulss	 xmm0, xmm4

; 180  :     x = fx;

  00a53	f3 0f 59 d9	 mulss	 xmm3, xmm1
; File C:\Users\murat\Desktop\Siveps2-1-99-Project\source\client\Client\GameLib\WeaponTrace.cpp

; 215  : 				d = ( -2*v3Tmp + (r[base+1]+r[base])*h[base])

  00a57	f3 0f 11 95 58
	e8 ff ff	 movss	 DWORD PTR _d$2$sroa$2673$1$[ebp], xmm2
; File C:\Users\murat\Desktop\Siveps2-1-99-Project\source\client\extern\include\d3dx8math.inl

; 180  :     x = fx;

  00a5f	f3 0f 11 9d 64
	e8 ff ff	 movss	 DWORD PTR _d$2$sroa$2672$1$[ebp], xmm3

; 257  :     return D3DXVECTOR3(x + v.x, y + v.y, z + v.z);

  00a67	f3 0f 10 9d 60
	e8 ff ff	 movss	 xmm3, DWORD PTR _d$2$sroa$2671$1$[ebp]
  00a6f	f3 0f 58 19	 addss	 xmm3, DWORD PTR [ecx]

; 181  :     y = fy;

  00a73	f3 0f 59 df	 mulss	 xmm3, xmm7
  00a77	f3 0f 58 d8	 addss	 xmm3, xmm0
  00a7b	f3 0f 59 d9	 mulss	 xmm3, xmm1
; File C:\Users\murat\Desktop\Siveps2-1-99-Project\source\client\Client\GameLib\WeaponTrace.cpp

; 205  : 			while (t>timenext)

  00a7f	f3 0f 10 8d 68
	e8 ff ff	 movss	 xmm1, DWORD PTR _t$1$[ebp]
  00a87	0f 2f cd	 comiss	 xmm1, xmm5
; File C:\Users\murat\Desktop\Siveps2-1-99-Project\source\client\extern\include\d3dx8math.inl

; 181  :     y = fy;

  00a8a	f3 0f 11 9d 60
	e8 ff ff	 movss	 DWORD PTR _d$2$sroa$2671$1$[ebp], xmm3
; File C:\Users\murat\Desktop\Siveps2-1-99-Project\source\client\Client\GameLib\WeaponTrace.cpp

; 205  : 			while (t>timenext)

  00a92	0f 87 58 fd ff
	ff		 ja	 $LL20@BuildVerte
$LN722@BuildVerte:
  00a98	f3 0f 10 35 00
	00 00 00	 movss	 xmm6, DWORD PTR __real@3f800000
  00aa0	f3 0f 10 a5 50
	e8 ff ff	 movss	 xmm4, DWORD PTR $T16[ebp]
$LN721@BuildVerte:

; 219  : 				if (loop)
; 220  : 				{
; 221  : 					//Tracef("%f:%f %f %f\n",Input[base].first,Input[base].second.x,Input[base].second.y,Input[base].second.z);
; 222  : 				}
; 223  : 			}
; 224  : 			if (base>n) break;

  00aa8	3b bd 48 e8 ff
	ff		 cmp	 edi, DWORD PTR _n$1$[ebp]
  00aae	0f 8f 88 02 00
	00		 jg	 $LN723@BuildVerte
; File C:\Program Files (x86)\Microsoft Visual Studio\2019\Professional\VC\Tools\MSVC\14.29.30133\include\deque

; 44   :         : _Mycont(static_cast<const _Mydeque*>(_Pdeque)), _Myoff(_Off) {}

  00ab4	8b 85 1c e8 ff
	ff		 mov	 eax, DWORD PTR tv7782[ebp]
; File C:\Users\murat\Desktop\Siveps2-1-99-Project\source\client\Client\GameLib\WeaponTrace.cpp

; 229  : 			float ttt = min(max((t+Input[0].first)/m_fLifeTime,0.0f),1.0f);

  00aba	0f 28 c1	 movaps	 xmm0, xmm1
; File C:\Program Files (x86)\Microsoft Visual Studio\2019\Professional\VC\Tools\MSVC\14.29.30133\include\deque

; 565  :         return (_Off / _Block_size) & (_Mapsize - 1);

  00abd	8b 72 08	 mov	 esi, DWORD PTR [edx+8]
; File C:\Users\murat\Desktop\Siveps2-1-99-Project\source\client\Client\GameLib\WeaponTrace.cpp

; 225  : 			float cc = t - timebase;

  00ac0	0f 28 d9	 movaps	 xmm3, xmm1
; File C:\Program Files (x86)\Microsoft Visual Studio\2019\Professional\VC\Tools\MSVC\14.29.30133\include\deque

; 565  :         return (_Off / _Block_size) & (_Mapsize - 1);

  00ac3	4e		 dec	 esi
; File C:\Users\murat\Desktop\Siveps2-1-99-Project\source\client\Client\GameLib\WeaponTrace.cpp

; 225  : 			float cc = t - timebase;

  00ac4	f3 0f 5c 9d 18
	e8 ff ff	 subss	 xmm3, DWORD PTR _timebase$1$[ebp]
; File C:\Program Files (x86)\Microsoft Visual Studio\2019\Professional\VC\Tools\MSVC\14.29.30133\include\deque

; 44   :         : _Mycont(static_cast<const _Mydeque*>(_Pdeque)), _Myoff(_Off) {}

  00acc	8b 08		 mov	 ecx, DWORD PTR [eax]

; 49   :         return _Mycont->_Map[_Block][_Off];

  00ace	8b 42 04	 mov	 eax, DWORD PTR [edx+4]
  00ad1	89 85 7c e8 ff
	ff		 mov	 DWORD PTR tv7730[ebp], eax
; File C:\Users\murat\Desktop\Siveps2-1-99-Project\source\client\Client\GameLib\WeaponTrace.cpp

; 229  : 			float ttt = min(max((t+Input[0].first)/m_fLifeTime,0.0f),1.0f);

  00ad7	8b 85 78 e8 ff
	ff		 mov	 eax, DWORD PTR _this$GSCopy$1$[ebp]
  00add	8b 95 7c e8 ff
	ff		 mov	 edx, DWORD PTR tv7730[ebp]
  00ae3	f3 0f 11 9d 30
	e8 ff ff	 movss	 DWORD PTR _cc$1$[ebp], xmm3
  00aeb	f3 0f 10 50 3c	 movss	 xmm2, DWORD PTR [eax+60]
; File C:\Program Files (x86)\Microsoft Visual Studio\2019\Professional\VC\Tools\MSVC\14.29.30133\include\deque

; 205  :         return _Tmp += _Off;

  00af0	8b c1		 mov	 eax, ecx

; 565  :         return (_Off / _Block_size) & (_Mapsize - 1);

  00af2	23 c6		 and	 eax, esi
; File C:\Users\murat\Desktop\Siveps2-1-99-Project\source\client\Client\GameLib\WeaponTrace.cpp

; 229  : 			float ttt = min(max((t+Input[0].first)/m_fLifeTime,0.0f),1.0f);

  00af4	8b 04 82	 mov	 eax, DWORD PTR [edx+eax*4]
  00af7	f3 0f 58 00	 addss	 xmm0, DWORD PTR [eax]
  00afb	f3 0f 5e c2	 divss	 xmm0, xmm2
  00aff	0f 2f c4	 comiss	 xmm0, xmm4
  00b02	76 1c		 jbe	 SHORT $LN719@BuildVerte
; File C:\Program Files (x86)\Microsoft Visual Studio\2019\Professional\VC\Tools\MSVC\14.29.30133\include\deque

; 205  :         return _Tmp += _Off;

  00b04	8b c1		 mov	 eax, ecx
; File C:\Users\murat\Desktop\Siveps2-1-99-Project\source\client\Client\GameLib\WeaponTrace.cpp

; 229  : 			float ttt = min(max((t+Input[0].first)/m_fLifeTime,0.0f),1.0f);

  00b06	0f 28 c1	 movaps	 xmm0, xmm1
; File C:\Program Files (x86)\Microsoft Visual Studio\2019\Professional\VC\Tools\MSVC\14.29.30133\include\deque

; 565  :         return (_Off / _Block_size) & (_Mapsize - 1);

  00b09	23 c6		 and	 eax, esi
; File C:\Users\murat\Desktop\Siveps2-1-99-Project\source\client\Client\GameLib\WeaponTrace.cpp

; 229  : 			float ttt = min(max((t+Input[0].first)/m_fLifeTime,0.0f),1.0f);

  00b0b	8b 04 82	 mov	 eax, DWORD PTR [edx+eax*4]
  00b0e	f3 0f 58 00	 addss	 xmm0, DWORD PTR [eax]
  00b12	f3 0f 5e c2	 divss	 xmm0, xmm2
  00b16	0f 2f f0	 comiss	 xmm6, xmm0
  00b19	77 05		 ja	 SHORT $LN719@BuildVerte
  00b1b	0f 28 ce	 movaps	 xmm1, xmm6
  00b1e	eb 38		 jmp	 SHORT $LN40@BuildVerte
$LN719@BuildVerte:
  00b20	8b 95 7c e8 ff
	ff		 mov	 edx, DWORD PTR tv7730[ebp]
; File C:\Program Files (x86)\Microsoft Visual Studio\2019\Professional\VC\Tools\MSVC\14.29.30133\include\deque

; 205  :         return _Tmp += _Off;

  00b26	8b c1		 mov	 eax, ecx

; 565  :         return (_Off / _Block_size) & (_Mapsize - 1);

  00b28	23 c6		 and	 eax, esi
; File C:\Users\murat\Desktop\Siveps2-1-99-Project\source\client\Client\GameLib\WeaponTrace.cpp

; 229  : 			float ttt = min(max((t+Input[0].first)/m_fLifeTime,0.0f),1.0f);

  00b2a	0f 28 c1	 movaps	 xmm0, xmm1
  00b2d	8b 04 82	 mov	 eax, DWORD PTR [edx+eax*4]
  00b30	8b 95 70 e8 ff
	ff		 mov	 edx, DWORD PTR __Tmp$1$[ebp]
  00b36	f3 0f 58 00	 addss	 xmm0, DWORD PTR [eax]
  00b3a	f3 0f 5e c2	 divss	 xmm0, xmm2
  00b3e	0f 2f c4	 comiss	 xmm0, xmm4
  00b41	76 12		 jbe	 SHORT $LN37@BuildVerte
  00b43	8b 42 04	 mov	 eax, DWORD PTR [edx+4]
; File C:\Program Files (x86)\Microsoft Visual Studio\2019\Professional\VC\Tools\MSVC\14.29.30133\include\deque

; 565  :         return (_Off / _Block_size) & (_Mapsize - 1);

  00b46	23 ce		 and	 ecx, esi
; File C:\Users\murat\Desktop\Siveps2-1-99-Project\source\client\Client\GameLib\WeaponTrace.cpp

; 229  : 			float ttt = min(max((t+Input[0].first)/m_fLifeTime,0.0f),1.0f);

  00b48	8b 04 88	 mov	 eax, DWORD PTR [eax+ecx*4]
  00b4b	f3 0f 58 08	 addss	 xmm1, DWORD PTR [eax]
  00b4f	f3 0f 5e ca	 divss	 xmm1, xmm2
  00b53	eb 03		 jmp	 SHORT $LN40@BuildVerte
$LN37@BuildVerte:
  00b55	0f 28 cc	 movaps	 xmm1, xmm4
$LN40@BuildVerte:

; 230  : 			v.diffuse = D3DXCOLOR(0.3f,0.8f,1.0f, (loop)?min(max((1.0f-ttt)*(1.0f-ttt)/2.5-0.1f,0.0f),1.0f):0.0f );

  00b58	8b b5 4c e8 ff
	ff		 mov	 esi, DWORD PTR _loop$1$[ebp]
  00b5e	85 f6		 test	 esi, esi
  00b60	74 39		 je	 SHORT $LN47@BuildVerte
  00b62	0f 28 c6	 movaps	 xmm0, xmm6
  00b65	f3 0f 5c c1	 subss	 xmm0, xmm1
  00b69	f2 0f 10 8d d8
	e7 ff ff	 movsd	 xmm1, QWORD PTR __real@3ff0000000000000$1$[ebp]
  00b71	f3 0f 59 c0	 mulss	 xmm0, xmm0
  00b75	0f 5a c0	 cvtps2pd xmm0, xmm0
  00b78	f2 0f 5e 85 b0
	e7 ff ff	 divsd	 xmm0, QWORD PTR __real@4004000000000000$1$[ebp]
  00b80	f2 0f 5c 85 a8
	e7 ff ff	 subsd	 xmm0, QWORD PTR __real@3fb99999a0000000$1$[ebp]
  00b88	f2 0f 5f 85 d0
	e7 ff ff	 maxsd	 xmm0, QWORD PTR __real@0000000000000000$1$[ebp]
  00b90	66 0f 2f c8	 comisd	 xmm1, xmm0
  00b94	77 0d		 ja	 SHORT $LN48@BuildVerte
  00b96	0f 28 c1	 movaps	 xmm0, xmm1
  00b99	eb 08		 jmp	 SHORT $LN48@BuildVerte
$LN47@BuildVerte:
  00b9b	f2 0f 10 85 d0
	e7 ff ff	 movsd	 xmm0, QWORD PTR __real@0000000000000000$1$[ebp]
$LN48@BuildVerte:
  00ba3	66 0f 5a c0	 cvtpd2ps xmm0, xmm0
; File C:\Users\murat\Desktop\Siveps2-1-99-Project\source\client\extern\include\d3dx8math.inl

; 934  :     DWORD dwA = a >= 1.0f ? 0xff : a <= 0.0f ? 0x00 : (DWORD) (a * 255.0f + 0.5f);

  00ba7	0f 2f c6	 comiss	 xmm0, xmm6
  00baa	72 07		 jb	 SHORT $LN541@BuildVerte
  00bac	b9 ff 00 00 00	 mov	 ecx, 255		; 000000ffH
  00bb1	eb 28		 jmp	 SHORT $LN540@BuildVerte
$LN541@BuildVerte:
  00bb3	0f 2f e0	 comiss	 xmm4, xmm0
  00bb6	72 04		 jb	 SHORT $LN539@BuildVerte
  00bb8	33 c9		 xor	 ecx, ecx
  00bba	eb 1f		 jmp	 SHORT $LN540@BuildVerte
$LN539@BuildVerte:
  00bbc	f3 0f 59 05 00
	00 00 00	 mulss	 xmm0, DWORD PTR __real@437f0000
  00bc4	f3 0f 58 05 00
	00 00 00	 addss	 xmm0, DWORD PTR __real@3f000000
  00bcc	e8 00 00 00 00	 call	 __ftoui3
  00bd1	f3 0f 10 9d 30
	e8 ff ff	 movss	 xmm3, DWORD PTR _cc$1$[ebp]
  00bd9	8b c8		 mov	 ecx, eax
$LN540@BuildVerte:

; 283  :     return D3DXVECTOR3(f * v.x, f * v.y, f * v.z);

  00bdb	f3 0f 10 85 58
	e8 ff ff	 movss	 xmm0, DWORD PTR _d$2$sroa$2673$1$[ebp]
  00be3	f3 0f 10 8d 64
	e8 ff ff	 movss	 xmm1, DWORD PTR _d$2$sroa$2672$1$[ebp]
  00beb	f3 0f 10 95 60
	e8 ff ff	 movss	 xmm2, DWORD PTR _d$2$sroa$2671$1$[ebp]
; File C:\Users\murat\Desktop\Siveps2-1-99-Project\source\client\Client\GameLib\WeaponTrace.cpp

; 234  : 			v.texCoord.x = t/m_fLifeTime;

  00bf3	8b 85 78 e8 ff
	ff		 mov	 eax, DWORD PTR _this$GSCopy$1$[ebp]
; File C:\Users\murat\Desktop\Siveps2-1-99-Project\source\client\extern\include\d3dx8math.inl

; 283  :     return D3DXVECTOR3(f * v.x, f * v.y, f * v.z);

  00bf9	f3 0f 59 c3	 mulss	 xmm0, xmm3
; File C:\Program Files (x86)\Microsoft Visual Studio\2019\Professional\VC\Tools\MSVC\14.29.30133\include\vector

; 743  :         if (_Mylast != _My_data._Myend) {

  00bfd	8b 95 e0 e7 ff
	ff		 mov	 edx, DWORD PTR _Output$1$[ebp]
; File C:\Users\murat\Desktop\Siveps2-1-99-Project\source\client\extern\include\d3dx8math.inl

; 283  :     return D3DXVECTOR3(f * v.x, f * v.y, f * v.z);

  00c03	f3 0f 59 cb	 mulss	 xmm1, xmm3

; 936  :     return (dwA << 24) | (dwR << 16) | (dwG << 8) | dwB;

  00c07	c1 e1 18	 shl	 ecx, 24			; 00000018H

; 182  :     z = fz;

  00c0a	f3 0f 58 85 74
	e8 ff ff	 addss	 xmm0, DWORD PTR _c$1$sroa$2677$1$[ebp]

; 283  :     return D3DXVECTOR3(f * v.x, f * v.y, f * v.z);

  00c12	f3 0f 59 d3	 mulss	 xmm2, xmm3

; 936  :     return (dwA << 24) | (dwR << 16) | (dwG << 8) | dwB;

  00c16	81 c9 ff cc 4d
	00		 or	 ecx, 5098751		; 004dccffH
; File C:\Users\murat\Desktop\Siveps2-1-99-Project\source\client\Client\GameLib\WeaponTrace.cpp

; 230  : 			v.diffuse = D3DXCOLOR(0.3f,0.8f,1.0f, (loop)?min(max((1.0f-ttt)*(1.0f-ttt)/2.5-0.1f,0.0f),1.0f):0.0f );

  00c1c	89 8d c4 e7 ff
	ff		 mov	 DWORD PTR _v$7[ebp+12], ecx
; File C:\Users\murat\Desktop\Siveps2-1-99-Project\source\client\extern\include\d3dx8math.inl

; 180  :     x = fx;

  00c22	f3 0f 58 8d 3c
	e8 ff ff	 addss	 xmm1, DWORD PTR _c$1$sroa$2675$1$[ebp]

; 181  :     y = fy;

  00c2a	f3 0f 58 95 5c
	e8 ff ff	 addss	 xmm2, DWORD PTR _c$1$sroa$2674$1$[ebp]

; 182  :     z = fz;

  00c32	f3 0f 59 c3	 mulss	 xmm0, xmm3

; 180  :     x = fx;

  00c36	f3 0f 59 cb	 mulss	 xmm1, xmm3

; 182  :     z = fz;

  00c3a	f3 0f 58 85 04
	e8 ff ff	 addss	 xmm0, DWORD PTR _b$9[ebp]
  00c42	f3 0f 59 d3	 mulss	 xmm2, xmm3

; 180  :     x = fx;

  00c46	f3 0f 58 8d 08
	e8 ff ff	 addss	 xmm1, DWORD PTR _b$9[ebp+4]

; 181  :     y = fy;

  00c4e	f3 0f 58 95 0c
	e8 ff ff	 addss	 xmm2, DWORD PTR _b$9[ebp+8]

; 182  :     z = fz;

  00c56	f3 0f 59 c3	 mulss	 xmm0, xmm3

; 180  :     x = fx;

  00c5a	f3 0f 59 cb	 mulss	 xmm1, xmm3

; 181  :     y = fy;

  00c5e	f3 0f 59 d3	 mulss	 xmm2, xmm3
; File C:\Users\murat\Desktop\Siveps2-1-99-Project\source\client\Client\GameLib\WeaponTrace.cpp

; 234  : 			v.texCoord.x = t/m_fLifeTime;

  00c62	f3 0f 10 9d 68
	e8 ff ff	 movss	 xmm3, DWORD PTR _t$1$[ebp]
  00c6a	f3 0f 5e 58 3c	 divss	 xmm3, DWORD PTR [eax+60]

; 235  : 			v.texCoord.y = loop ? 0 : 1;

  00c6f	33 c0		 xor	 eax, eax
  00c71	85 f6		 test	 esi, esi
  00c73	0f 94 c0	 sete	 al
; File C:\Users\murat\Desktop\Siveps2-1-99-Project\source\client\extern\include\d3dx8math.inl

; 182  :     z = fz;

  00c76	f3 0f 58 85 f8
	e7 ff ff	 addss	 xmm0, DWORD PTR _a$8[ebp]

; 180  :     x = fx;

  00c7e	f3 0f 58 8d fc
	e7 ff ff	 addss	 xmm1, DWORD PTR _a$8[ebp+4]

; 181  :     y = fy;

  00c86	f3 0f 58 95 00
	e8 ff ff	 addss	 xmm2, DWORD PTR _a$8[ebp+8]
  00c8e	66 0f 6e e0	 movd	 xmm4, eax
; File C:\Program Files (x86)\Microsoft Visual Studio\2019\Professional\VC\Tools\MSVC\14.29.30133\include\vector

; 743  :         if (_Mylast != _My_data._Myend) {

  00c92	8b 42 04	 mov	 eax, DWORD PTR [edx+4]
; File C:\Users\murat\Desktop\Siveps2-1-99-Project\source\client\Client\GameLib\WeaponTrace.cpp

; 235  : 			v.texCoord.y = loop ? 0 : 1;

  00c95	0f 5b e4	 cvtdq2ps xmm4, xmm4
  00c98	f3 0f 11 85 b8
	e7 ff ff	 movss	 DWORD PTR _v$7[ebp], xmm0
  00ca0	f3 0f 11 8d bc
	e7 ff ff	 movss	 DWORD PTR _v$7[ebp+4], xmm1
  00ca8	f3 0f 11 95 c0
	e7 ff ff	 movss	 DWORD PTR _v$7[ebp+8], xmm2
  00cb0	f3 0f 11 9d c8
	e7 ff ff	 movss	 DWORD PTR _v$7[ebp+16], xmm3
  00cb8	f3 0f 11 a5 cc
	e7 ff ff	 movss	 DWORD PTR _v$7[ebp+20], xmm4
; File C:\Program Files (x86)\Microsoft Visual Studio\2019\Professional\VC\Tools\MSVC\14.29.30133\include\vector

; 743  :         if (_Mylast != _My_data._Myend) {

  00cc0	3b 42 08	 cmp	 eax, DWORD PTR [edx+8]
  00cc3	74 21		 je	 SHORT $LN570@BuildVerte
; File C:\Program Files (x86)\Microsoft Visual Studio\2019\Professional\VC\Tools\MSVC\14.29.30133\include\xmemory

; 714  :             ::new (_Voidify_iter(_Ptr)) _Objty(_STD forward<_Types>(_Args)...);

  00cc5	f3 0f 11 00	 movss	 DWORD PTR [eax], xmm0
  00cc9	f3 0f 11 48 04	 movss	 DWORD PTR [eax+4], xmm1
  00cce	f3 0f 11 50 08	 movss	 DWORD PTR [eax+8], xmm2
  00cd3	89 48 0c	 mov	 DWORD PTR [eax+12], ecx
  00cd6	f3 0f 11 58 10	 movss	 DWORD PTR [eax+16], xmm3
  00cdb	f3 0f 11 60 14	 movss	 DWORD PTR [eax+20], xmm4
; File C:\Program Files (x86)\Microsoft Visual Studio\2019\Professional\VC\Tools\MSVC\14.29.30133\include\vector

; 729  :         ++_Mylast;

  00ce0	83 42 04 18	 add	 DWORD PTR [edx+4], 24	; 00000018H

; 744  :             return _Emplace_back_with_unused_capacity(_STD forward<_Valty>(_Val)...);

  00ce4	eb 0f		 jmp	 SHORT $LN17@BuildVerte
$LN570@BuildVerte:

; 745  :         }
; 746  : 
; 747  :         _Ty& _Result = *_Emplace_reallocate(_Mylast, _STD forward<_Valty>(_Val)...);

  00ce6	8d 8d b8 e7 ff
	ff		 lea	 ecx, DWORD PTR _v$7[ebp]
  00cec	51		 push	 ecx
  00ced	50		 push	 eax
  00cee	8b ca		 mov	 ecx, edx
  00cf0	e8 00 00 00 00	 call	 ??$_Emplace_reallocate@ABUSPDTVertex@@@?$vector@USPDTVertex@@V?$allocator@USPDTVertex@@@std@@@std@@QAEPAUSPDTVertex@@QAU2@ABU2@@Z ; std::vector<SPDTVertex,std::allocator<SPDTVertex> >::_Emplace_reallocate<SPDTVertex const &>
$LN17@BuildVerte:
; File C:\Users\murat\Desktop\Siveps2-1-99-Project\source\client\Client\GameLib\WeaponTrace.cpp

; 203  : 		for(float t = 0; t<=length; t+=dt)

  00cf5	f3 0f 10 8d 68
	e8 ff ff	 movss	 xmm1, DWORD PTR _t$1$[ebp]
  00cfd	f3 0f 58 8d 14
	e8 ff ff	 addss	 xmm1, DWORD PTR _dt$1$[ebp]
  00d05	f3 0f 10 95 34
	e8 ff ff	 movss	 xmm2, DWORD PTR _length$1$[ebp]
  00d0d	f3 0f 10 ad 6c
	e8 ff ff	 movss	 xmm5, DWORD PTR _timenext$1$[ebp]
  00d15	f3 0f 10 35 00
	00 00 00	 movss	 xmm6, DWORD PTR __real@3f800000
  00d1d	f3 0f 10 a5 50
	e8 ff ff	 movss	 xmm4, DWORD PTR $T16[ebp]
  00d25	0f 2f d1	 comiss	 xmm2, xmm1
  00d28	8b 95 70 e8 ff
	ff		 mov	 edx, DWORD PTR __Tmp$1$[ebp]
  00d2e	f3 0f 11 8d 68
	e8 ff ff	 movss	 DWORD PTR _t$1$[ebp], xmm1
  00d36	0f 83 94 fa ff
	ff		 jae	 $LL19@BuildVerte
$LN723@BuildVerte:
  00d3c	f3 0f 10 a5 50
	e8 ff ff	 movss	 xmm4, DWORD PTR $T16[ebp]
$LN2@BuildVerte:

; 149  : 
; 150  : 	int n = m_LongTimePointList.size()-1;
; 151  : 	assert(n<max_size-1);
; 152  : 
; 153  : 	// cubic spline
; 154  : 
; 155  : 	for(int loop = 0; loop<=1; ++loop)

  00d44	8b 95 4c e8 ff
	ff		 mov	 edx, DWORD PTR _loop$1$[ebp]
  00d4a	f3 0f 10 3d 00
	00 00 00	 movss	 xmm7, DWORD PTR __real@3f800000
  00d52	42		 inc	 edx
  00d53	f3 0f 10 0d 00
	00 00 00	 movss	 xmm1, DWORD PTR __real@3f000000
  00d5b	f3 0f 10 2d 00
	00 00 00	 movss	 xmm5, DWORD PTR __real@40800000
  00d63	8b 8d 48 e8 ff
	ff		 mov	 ecx, DWORD PTR _n$1$[ebp]
  00d69	89 95 4c e8 ff
	ff		 mov	 DWORD PTR _loop$1$[ebp], edx
  00d6f	83 fa 01	 cmp	 edx, 1
  00d72	0f 8e 08 f4 ff
	ff		 jle	 $LL4@BuildVerte

; 236  : 			Output.push_back(v);
; 237  : 			if (loop)
; 238  : 			{
; 239  : 			//	Tracef("%f %f %f\n", timebase,t,timenext);
; 240  : 				//Tracef("a:%f %f %f\nb:%f %f %f \nc:%f %f %f \nd:%f %f %f, \n",,a.x,a.y,a.z,b.x,b.y,b.z,c.x,c.y,c.z,d.x,d.y,d.z);
; 241  : 
; 242  : 				//Tracef("%f %f %f\n",v.position.x,v.position.y,v.position.z);
; 243  : 				/*D3DXMATRIX * pBoneMat;
; 244  : 				m_pInstance->GetBoneMatrix(m_dwModelInstanceIndex, 55, &pBoneMat);
; 245  : 				D3DXVECTOR3 vbone(m_fx+pBoneMat->_41,m_fy+pBoneMat->_42,m_fz+pBoneMat->_43);
; 246  : 				float len = D3DXVec3Length(&(v.position-vbone));*/
; 247  : 			}
; 248  : 		}
; 249  : 	}
; 250  : 
; 251  : 	// build vertex
; 252  : 
; 253  : 	m_PDTVertexVector.clear();

  00d78	8b bd 78 e8 ff
	ff		 mov	 edi, DWORD PTR _this$GSCopy$1$[ebp]
  00d7e	8b 47 30	 mov	 eax, DWORD PTR [edi+48]
  00d81	89 47 34	 mov	 DWORD PTR [edi+52], eax

; 254  : 
; 255  : 	/*
; 256  : 	TTimePointList::iterator lit1,lit2, sit1,sit2;
; 257  : 
; 258  : 	lit2 = lit1 = m_LongTimePointList.begin();
; 259  : 	++lit2;
; 260  : 
; 261  : 	sit2 = sit1 = m_ShortTimePointList.begin();
; 262  : 	++sit2;
; 263  : 	*/
; 264  : 	std::vector<TPDTVertex>::iterator lit,sit;
; 265  : 	for(lit = m_LongVertexVector.begin(), sit = m_ShortVertexVector.begin();

  00d84	8b 85 20 e8 ff
	ff		 mov	 eax, DWORD PTR _m_LongVertexVector$[ebp]
  00d8a	8b f0		 mov	 esi, eax
  00d8c	3b b5 24 e8 ff
	ff		 cmp	 esi, DWORD PTR _m_LongVertexVector$[ebp+4]

; 266  : 		lit != m_LongVertexVector.end();

  00d92	74 77		 je	 SHORT $LN23@BuildVerte
  00d94	8b 8d ec e7 ff
	ff		 mov	 ecx, DWORD PTR _m_ShortVertexVector$[ebp]
  00d9a	2b c8		 sub	 ecx, eax
  00d9c	89 8d 3c e8 ff
	ff		 mov	 DWORD PTR tv7768[ebp], ecx
$LL603@BuildVerte:
; File C:\Program Files (x86)\Microsoft Visual Studio\2019\Professional\VC\Tools\MSVC\14.29.30133\include\vector

; 743  :         if (_Mylast != _My_data._Myend) {

  00da2	8b 47 34	 mov	 eax, DWORD PTR [edi+52]
  00da5	3b 47 38	 cmp	 eax, DWORD PTR [edi+56]
  00da8	74 16		 je	 SHORT $LN617@BuildVerte
; File C:\Program Files (x86)\Microsoft Visual Studio\2019\Professional\VC\Tools\MSVC\14.29.30133\include\xmemory

; 714  :             ::new (_Voidify_iter(_Ptr)) _Objty(_STD forward<_Types>(_Args)...);

  00daa	0f 10 06	 movups	 xmm0, XMMWORD PTR [esi]
  00dad	0f 11 00	 movups	 XMMWORD PTR [eax], xmm0
  00db0	f3 0f 7e 46 10	 movq	 xmm0, QWORD PTR [esi+16]
  00db5	66 0f d6 40 10	 movq	 QWORD PTR [eax+16], xmm0
; File C:\Program Files (x86)\Microsoft Visual Studio\2019\Professional\VC\Tools\MSVC\14.29.30133\include\vector

; 729  :         ++_Mylast;

  00dba	83 47 34 18	 add	 DWORD PTR [edi+52], 24	; 00000018H

; 744  :             return _Emplace_back_with_unused_capacity(_STD forward<_Valty>(_Val)...);

  00dbe	eb 10		 jmp	 SHORT $LN726@BuildVerte
$LN617@BuildVerte:

; 745  :         }
; 746  : 
; 747  :         _Ty& _Result = *_Emplace_reallocate(_Mylast, _STD forward<_Valty>(_Val)...);

  00dc0	56		 push	 esi
  00dc1	50		 push	 eax
  00dc2	8d 4f 30	 lea	 ecx, DWORD PTR [edi+48]
  00dc5	e8 00 00 00 00	 call	 ??$_Emplace_reallocate@ABUSPDTVertex@@@?$vector@USPDTVertex@@V?$allocator@USPDTVertex@@@std@@@std@@QAEPAUSPDTVertex@@QAU2@ABU2@@Z ; std::vector<SPDTVertex,std::allocator<SPDTVertex> >::_Emplace_reallocate<SPDTVertex const &>
  00dca	8b 8d 3c e8 ff
	ff		 mov	 ecx, DWORD PTR tv7768[ebp]
$LN726@BuildVerte:

; 743  :         if (_Mylast != _My_data._Myend) {

  00dd0	8b 47 34	 mov	 eax, DWORD PTR [edi+52]
  00dd3	03 ce		 add	 ecx, esi
  00dd5	3b 47 38	 cmp	 eax, DWORD PTR [edi+56]
  00dd8	74 16		 je	 SHORT $LN626@BuildVerte
; File C:\Program Files (x86)\Microsoft Visual Studio\2019\Professional\VC\Tools\MSVC\14.29.30133\include\xmemory

; 714  :             ::new (_Voidify_iter(_Ptr)) _Objty(_STD forward<_Types>(_Args)...);

  00dda	0f 10 01	 movups	 xmm0, XMMWORD PTR [ecx]
  00ddd	0f 11 00	 movups	 XMMWORD PTR [eax], xmm0
  00de0	f3 0f 7e 41 10	 movq	 xmm0, QWORD PTR [ecx+16]
  00de5	66 0f d6 40 10	 movq	 QWORD PTR [eax+16], xmm0
; File C:\Program Files (x86)\Microsoft Visual Studio\2019\Professional\VC\Tools\MSVC\14.29.30133\include\vector

; 729  :         ++_Mylast;

  00dea	83 47 34 18	 add	 DWORD PTR [edi+52], 24	; 00000018H

; 744  :             return _Emplace_back_with_unused_capacity(_STD forward<_Valty>(_Val)...);

  00dee	eb 0a		 jmp	 SHORT $LN22@BuildVerte
$LN626@BuildVerte:

; 745  :         }
; 746  : 
; 747  :         _Ty& _Result = *_Emplace_reallocate(_Mylast, _STD forward<_Valty>(_Val)...);

  00df0	51		 push	 ecx
  00df1	50		 push	 eax
  00df2	8d 4f 30	 lea	 ecx, DWORD PTR [edi+48]
  00df5	e8 00 00 00 00	 call	 ??$_Emplace_reallocate@ABUSPDTVertex@@@?$vector@USPDTVertex@@V?$allocator@USPDTVertex@@@std@@@std@@QAEPAUSPDTVertex@@QAU2@ABU2@@Z ; std::vector<SPDTVertex,std::allocator<SPDTVertex> >::_Emplace_reallocate<SPDTVertex const &>
$LN22@BuildVerte:
; File C:\Users\murat\Desktop\Siveps2-1-99-Project\source\client\Client\GameLib\WeaponTrace.cpp

; 266  : 		lit != m_LongVertexVector.end();

  00dfa	8b 8d 3c e8 ff
	ff		 mov	 ecx, DWORD PTR tv7768[ebp]
; File C:\Program Files (x86)\Microsoft Visual Studio\2019\Professional\VC\Tools\MSVC\14.29.30133\include\vector

; 78   :         ++_Ptr;

  00e00	83 c6 18	 add	 esi, 24			; 00000018H

; 154  :         return _Ptr == _Right._Ptr;

  00e03	3b b5 24 e8 ff
	ff		 cmp	 esi, DWORD PTR _m_LongVertexVector$[ebp+4]
; File C:\Users\murat\Desktop\Siveps2-1-99-Project\source\client\Client\GameLib\WeaponTrace.cpp

; 266  : 		lit != m_LongVertexVector.end();

  00e09	75 97		 jne	 SHORT $LL603@BuildVerte
$LN23@BuildVerte:
; File C:\Program Files (x86)\Microsoft Visual Studio\2019\Professional\VC\Tools\MSVC\14.29.30133\include\vector

; 1763 :         if (_Myfirst) { // destroy and deallocate old array

  00e0b	8b b5 20 e8 ff
	ff		 mov	 esi, DWORD PTR _m_LongVertexVector$[ebp]
  00e11	85 f6		 test	 esi, esi
  00e13	74 43		 je	 SHORT $LN635@BuildVerte

; 1764 :             _Destroy(_Myfirst, _Mylast);
; 1765 :             _Getal().deallocate(_Myfirst, static_cast<size_type>(_Myend - _Myfirst));

  00e15	8b 8d 28 e8 ff
	ff		 mov	 ecx, DWORD PTR _m_LongVertexVector$[ebp+8]
  00e1b	b8 ab aa aa 2a	 mov	 eax, 715827883		; 2aaaaaabH
  00e20	2b ce		 sub	 ecx, esi
  00e22	f7 e9		 imul	 ecx
  00e24	c1 fa 02	 sar	 edx, 2
  00e27	8b c2		 mov	 eax, edx
  00e29	c1 e8 1f	 shr	 eax, 31			; 0000001fH
  00e2c	03 c2		 add	 eax, edx
; File C:\Program Files (x86)\Microsoft Visual Studio\2019\Professional\VC\Tools\MSVC\14.29.30133\include\xmemory

; 835  :         _Deallocate<_New_alignof<_Ty>>(_Ptr, sizeof(_Ty) * _Count);

  00e2e	8d 0c 40	 lea	 ecx, DWORD PTR [eax+eax*2]
  00e31	8b c6		 mov	 eax, esi
  00e33	c1 e1 03	 shl	 ecx, 3

; 260  :         if (_Bytes >= _Big_allocation_threshold) { // boost the alignment of big allocations to help autovectorization

  00e36	81 f9 00 10 00
	00		 cmp	 ecx, 4096		; 00001000H
  00e3c	72 10		 jb	 SHORT $LN651@BuildVerte

; 158  :     const uintptr_t _Ptr_container   = _Ptr_user[-1];

  00e3e	8b 76 fc	 mov	 esi, DWORD PTR [esi-4]
  00e41	83 c1 23	 add	 ecx, 35			; 00000023H
  00e44	2b c6		 sub	 eax, esi

; 172  :     _STL_VERIFY(_Back_shift >= _Min_back_shift && _Back_shift <= _Non_user_size, "invalid argument");

  00e46	83 c0 fc	 add	 eax, -4			; fffffffcH
  00e49	83 f8 1f	 cmp	 eax, 31			; 0000001fH
  00e4c	77 74		 ja	 SHORT $LN673@BuildVerte
$LN651@BuildVerte:

; 264  :         ::operator delete(_Ptr, _Bytes);

  00e4e	51		 push	 ecx
  00e4f	56		 push	 esi
  00e50	e8 00 00 00 00	 call	 ??3@YAXPAXI@Z		; operator delete
  00e55	83 c4 08	 add	 esp, 8
$LN635@BuildVerte:
; File C:\Program Files (x86)\Microsoft Visual Studio\2019\Professional\VC\Tools\MSVC\14.29.30133\include\vector

; 1763 :         if (_Myfirst) { // destroy and deallocate old array

  00e58	8b b5 ec e7 ff
	ff		 mov	 esi, DWORD PTR _m_ShortVertexVector$[ebp]
  00e5e	85 f6		 test	 esi, esi
  00e60	74 43		 je	 SHORT $LN660@BuildVerte

; 1764 :             _Destroy(_Myfirst, _Mylast);
; 1765 :             _Getal().deallocate(_Myfirst, static_cast<size_type>(_Myend - _Myfirst));

  00e62	8b 8d f4 e7 ff
	ff		 mov	 ecx, DWORD PTR _m_ShortVertexVector$[ebp+8]
  00e68	b8 ab aa aa 2a	 mov	 eax, 715827883		; 2aaaaaabH
  00e6d	2b ce		 sub	 ecx, esi
  00e6f	f7 e9		 imul	 ecx
  00e71	c1 fa 02	 sar	 edx, 2
  00e74	8b c2		 mov	 eax, edx
  00e76	c1 e8 1f	 shr	 eax, 31			; 0000001fH
  00e79	03 c2		 add	 eax, edx
; File C:\Program Files (x86)\Microsoft Visual Studio\2019\Professional\VC\Tools\MSVC\14.29.30133\include\xmemory

; 835  :         _Deallocate<_New_alignof<_Ty>>(_Ptr, sizeof(_Ty) * _Count);

  00e7b	8d 0c 40	 lea	 ecx, DWORD PTR [eax+eax*2]
  00e7e	8b c6		 mov	 eax, esi
  00e80	c1 e1 03	 shl	 ecx, 3

; 260  :         if (_Bytes >= _Big_allocation_threshold) { // boost the alignment of big allocations to help autovectorization

  00e83	81 f9 00 10 00
	00		 cmp	 ecx, 4096		; 00001000H
  00e89	72 10		 jb	 SHORT $LN676@BuildVerte

; 158  :     const uintptr_t _Ptr_container   = _Ptr_user[-1];

  00e8b	8b 76 fc	 mov	 esi, DWORD PTR [esi-4]
  00e8e	83 c1 23	 add	 ecx, 35			; 00000023H
  00e91	2b c6		 sub	 eax, esi

; 172  :     _STL_VERIFY(_Back_shift >= _Min_back_shift && _Back_shift <= _Non_user_size, "invalid argument");

  00e93	83 c0 fc	 add	 eax, -4			; fffffffcH
  00e96	83 f8 1f	 cmp	 eax, 31			; 0000001fH
  00e99	77 27		 ja	 SHORT $LN673@BuildVerte
$LN676@BuildVerte:

; 264  :         ::operator delete(_Ptr, _Bytes);

  00e9b	51		 push	 ecx
  00e9c	56		 push	 esi
  00e9d	e8 00 00 00 00	 call	 ??3@YAXPAXI@Z		; operator delete
  00ea2	83 c4 08	 add	 esp, 8
$LN660@BuildVerte:
; File C:\Users\murat\Desktop\Siveps2-1-99-Project\source\client\Client\GameLib\WeaponTrace.cpp

; 276  : 	return true;

  00ea5	b0 01		 mov	 al, 1
$LN1@BuildVerte:

; 277  : }

  00ea7	8b 4d f4	 mov	 ecx, DWORD PTR __$EHRec$[ebp]
  00eaa	64 89 0d 00 00
	00 00		 mov	 DWORD PTR fs:0, ecx
  00eb1	59		 pop	 ecx
  00eb2	5f		 pop	 edi
  00eb3	5e		 pop	 esi
  00eb4	8b 4d f0	 mov	 ecx, DWORD PTR __$ArrayPad$[ebp]
  00eb7	33 cd		 xor	 ecx, ebp
  00eb9	e8 00 00 00 00	 call	 @__security_check_cookie@4
  00ebe	8b e5		 mov	 esp, ebp
  00ec0	5d		 pop	 ebp
  00ec1	c3		 ret	 0
$LN673@BuildVerte:
; File C:\Program Files (x86)\Microsoft Visual Studio\2019\Professional\VC\Tools\MSVC\14.29.30133\include\xmemory

; 172  :     _STL_VERIFY(_Back_shift >= _Min_back_shift && _Back_shift <= _Non_user_size, "invalid argument");

  00ec2	e8 00 00 00 00	 call	 __invalid_parameter_noinfo_noreturn
$LN725@BuildVerte:
  00ec7	cc		 int	 3
_TEXT	ENDS
;	COMDAT text$x
text$x	SEGMENT
__unwindfunclet$?BuildVertex@CWeaponTrace@@IAE_NXZ$0:
  00000	8d 8d ec e7 ff
	ff		 lea	 ecx, DWORD PTR _m_ShortVertexVector$[ebp]
  00006	e9 00 00 00 00	 jmp	 ??1?$vector@USPDTVertex@@V?$allocator@USPDTVertex@@@std@@@std@@QAE@XZ ; std::vector<SPDTVertex,std::allocator<SPDTVertex> >::~vector<SPDTVertex,std::allocator<SPDTVertex> >
__unwindfunclet$?BuildVertex@CWeaponTrace@@IAE_NXZ$1:
  0000b	8d 8d 20 e8 ff
	ff		 lea	 ecx, DWORD PTR _m_LongVertexVector$[ebp]
  00011	e9 00 00 00 00	 jmp	 ??1?$vector@USPDTVertex@@V?$allocator@USPDTVertex@@@std@@@std@@QAE@XZ ; std::vector<SPDTVertex,std::allocator<SPDTVertex> >::~vector<SPDTVertex,std::allocator<SPDTVertex> >
  00016	cc		 int	 3
  00017	cc		 int	 3
  00018	cc		 int	 3
  00019	cc		 int	 3
  0001a	cc		 int	 3
__ehhandler$?BuildVertex@CWeaponTrace@@IAE_NXZ:
  0001b	90		 npad	 1
  0001c	90		 npad	 1
  0001d	8b 54 24 08	 mov	 edx, DWORD PTR [esp+8]
  00021	8d 42 0c	 lea	 eax, DWORD PTR [edx+12]
  00024	8b 8a 90 e7 ff
	ff		 mov	 ecx, DWORD PTR [edx-6256]
  0002a	33 c8		 xor	 ecx, eax
  0002c	e8 00 00 00 00	 call	 @__security_check_cookie@4
  00031	8b 4a fc	 mov	 ecx, DWORD PTR [edx-4]
  00034	33 c8		 xor	 ecx, eax
  00036	e8 00 00 00 00	 call	 @__security_check_cookie@4
  0003b	b8 00 00 00 00	 mov	 eax, OFFSET __ehfuncinfo$?BuildVertex@CWeaponTrace@@IAE_NXZ
  00040	e9 00 00 00 00	 jmp	 ___CxxFrameHandler3
text$x	ENDS
?BuildVertex@CWeaponTrace@@IAE_NXZ ENDP			; CWeaponTrace::BuildVertex
; Function compile flags: /Ogtp
; File C:\Users\murat\Desktop\Siveps2-1-99-Project\source\client\Client\GameLib\WeaponTrace.cpp
;	COMDAT ?Initialize@CWeaponTrace@@QAEXXZ
_TEXT	SEGMENT
?Initialize@CWeaponTrace@@QAEXXZ PROC			; CWeaponTrace::Initialize, COMDAT
; _this$ = ecx

; 444  : {

  00000	56		 push	 esi
  00001	8b f1		 mov	 esi, ecx

; 445  : 	m_pInstance = NULL;

  00003	c7 46 44 00 00
	00 00		 mov	 DWORD PTR [esi+68], 0

; 446  : 	m_dwModelInstanceIndex = 0;

  0000a	c7 46 48 00 00
	00 00		 mov	 DWORD PTR [esi+72], 0

; 447  : 
; 448  : 	m_fx = 0.0f;

  00011	c7 46 6c 00 00
	00 00		 mov	 DWORD PTR [esi+108], 0

; 449  : 	m_fy = 0.0f;

  00018	c7 46 70 00 00
	00 00		 mov	 DWORD PTR [esi+112], 0

; 450  : 	m_fz = 0.0f;

  0001f	c7 46 74 00 00
	00 00		 mov	 DWORD PTR [esi+116], 0

; 451  : 	m_fRotation = 0.0f;

  00026	c7 46 78 00 00
	00 00		 mov	 DWORD PTR [esi+120], 0

; 452  : 
; 453  : 	m_fLifeTime = 0.18f;

  0002d	c7 46 3c ec 51
	38 3e		 mov	 DWORD PTR [esi+60], 1043878380 ; 3e3851ecH

; 454  : 	//m_fLifeTime = 3.0f;
; 455  : 	m_fSamplingTime = 0.003f;

  00034	c7 46 40 a6 9b
	44 3b		 mov	 DWORD PTR [esi+64], 994352038 ; 3b449ba6H

; 456  : 	//m_fLifeTime = 3.0f;
; 457  : 	//m_fSamplingTime = 0.003f;
; 458  : 
; 459  : 	m_isPlaying = FALSE;

  0003b	c7 86 80 00 00
	00 00 00 00 00	 mov	 DWORD PTR [esi+128], 0

; 460  : 
; 461  : 	m_bUseTexture = false;

  00045	c6 86 84 00 00
	00 00		 mov	 BYTE PTR [esi+132], 0

; 462  : 
; 463  : 	m_iBoneIndex = 0;

  0004c	c7 86 88 00 00
	00 00 00 00 00	 mov	 DWORD PTR [esi+136], 0

; 464  : 
; 465  : 	m_fLastUpdate = CTimer::Instance().GetCurrentSecond();

  00056	8b 0d 00 00 00
	00		 mov	 ecx, DWORD PTR ?ms_singleton@?$CSingleton@VCTimer@@@@0PAVCTimer@@A ; CSingleton<CTimer>::ms_singleton
  0005c	e8 00 00 00 00	 call	 ?GetCurrentSecond@CTimer@@QAEMXZ ; CTimer::GetCurrentSecond
  00061	d9 5e 04	 fstp	 DWORD PTR [esi+4]
  00064	5e		 pop	 esi

; 466  : 	///////////////////////////////////////////////////////////////////////
; 467  : 
; 468  : 	//const int c_iSplineCount = 8;
; 469  : 	//m_SplineValueVector.clear();
; 470  : 	//m_SplineValueVector.resize(c_iSplineCount);
; 471  : 
; 472  : 	//for (int i = 0; i < c_iSplineCount; ++i)
; 473  : 	//{
; 474  : 	//	float fValue = float(i) / float(c_iSplineCount);
; 475  : 	//	m_SplineValueVector[i].fValue1 = fValue;
; 476  : 	//	m_SplineValueVector[i].fValue2 = fValue * fValue;
; 477  : 	//	m_SplineValueVector[i].fValue3 = fValue * fValue * fValue;
; 478  : 	//}
; 479  : 
; 480  : }

  00065	c3		 ret	 0
?Initialize@CWeaponTrace@@QAEXXZ ENDP			; CWeaponTrace::Initialize
_TEXT	ENDS
; Function compile flags: /Ogtp
; File C:\Users\murat\Desktop\Siveps2-1-99-Project\source\client\Client\GameLib\WeaponTrace.cpp
; File C:\Program Files (x86)\Microsoft Visual Studio\2019\Professional\VC\Tools\MSVC\14.29.30133\include\vector
; File C:\Users\murat\Desktop\Siveps2-1-99-Project\source\client\Client\GameLib\WeaponTrace.cpp
; File C:\Users\murat\Desktop\Siveps2-1-99-Project\source\client\extern\include\d3dx8math.inl
; File C:\Users\murat\Desktop\Siveps2-1-99-Project\source\client\Client\GameLib\WeaponTrace.cpp
; File C:\Program Files (x86)\Microsoft Visual Studio\2019\Professional\VC\Tools\MSVC\14.29.30133\include\vector
; File C:\Users\murat\Desktop\Siveps2-1-99-Project\source\client\Client\GameLib\WeaponTrace.cpp
; File C:\Program Files (x86)\Microsoft Visual Studio\2019\Professional\VC\Tools\MSVC\14.29.30133\include\vector
; File C:\Users\murat\Desktop\Siveps2-1-99-Project\source\client\Client\GameLib\WeaponTrace.cpp
; File C:\Program Files (x86)\Microsoft Visual Studio\2019\Professional\VC\Tools\MSVC\14.29.30133\include\vector
; File C:\Users\murat\Desktop\Siveps2-1-99-Project\source\client\Client\GameLib\WeaponTrace.cpp
;	COMDAT ?Render@CWeaponTrace@@QAEXXZ
_TEXT	SEGMENT
_matWorld$ = -68					; size = 64
__$ArrayPad$ = -4					; size = 4
?Render@CWeaponTrace@@QAEXXZ PROC			; CWeaponTrace::Render, COMDAT
; _this$ = ecx

; 280  : {

  00000	55		 push	 ebp
  00001	8b ec		 mov	 ebp, esp
  00003	83 ec 44	 sub	 esp, 68			; 00000044H
  00006	a1 00 00 00 00	 mov	 eax, DWORD PTR ___security_cookie
  0000b	33 c5		 xor	 eax, ebp
  0000d	89 45 fc	 mov	 DWORD PTR __$ArrayPad$[ebp], eax
  00010	56		 push	 esi
  00011	8b f1		 mov	 esi, ecx

; 281  : 	//if (!m_isPlaying)
; 282  : 	//	return;
; 283  : 	//if (m_CurvingTraceVector.size() < 4)
; 284  : 	//	return;
; 285  : 
; 286  : 	if (!BuildVertex())

  00013	e8 00 00 00 00	 call	 ?BuildVertex@CWeaponTrace@@IAE_NXZ ; CWeaponTrace::BuildVertex
  00018	84 c0		 test	 al, al
  0001a	0f 84 f8 02 00
	00		 je	 $LN1@Render
; File C:\Program Files (x86)\Microsoft Visual Studio\2019\Professional\VC\Tools\MSVC\14.29.30133\include\vector

; 1549 :         return static_cast<size_type>(_My_data._Mylast - _My_data._Myfirst);

  00020	8b 4e 34	 mov	 ecx, DWORD PTR [esi+52]
  00023	b8 ab aa aa 2a	 mov	 eax, 715827883		; 2aaaaaabH
  00028	2b 4e 30	 sub	 ecx, DWORD PTR [esi+48]
  0002b	f7 e9		 imul	 ecx
  0002d	c1 fa 02	 sar	 edx, 2
  00030	8b c2		 mov	 eax, edx
  00032	c1 e8 1f	 shr	 eax, 31			; 0000001fH
  00035	03 c2		 add	 eax, edx
; File C:\Users\murat\Desktop\Siveps2-1-99-Project\source\client\Client\GameLib\WeaponTrace.cpp

; 289  : 	if (m_PDTVertexVector.size()<4)

  00037	83 f8 04	 cmp	 eax, 4
  0003a	0f 82 d8 02 00
	00		 jb	 $LN1@Render

; 299  : 	STATEMANAGER.SaveTransform(D3DTS_WORLD, &matWorld);

  00040	8b 0d 00 00 00
	00		 mov	 ecx, DWORD PTR ?ms_singleton@?$CSingleton@VCStateManager@@@@0PAVCStateManager@@A ; CSingleton<CStateManager>::ms_singleton
  00046	8d 45 bc	 lea	 eax, DWORD PTR _matWorld$[ebp]
  00049	50		 push	 eax
  0004a	68 00 01 00 00	 push	 256			; 00000100H
; File C:\Users\murat\Desktop\Siveps2-1-99-Project\source\client\extern\include\d3dx8math.inl

; 1516 :     pOut->m[0][1] = pOut->m[0][2] = pOut->m[0][3] =

  0004f	c7 45 f4 00 00
	00 00		 mov	 DWORD PTR _matWorld$[ebp+56], 0
  00056	c7 45 f0 00 00
	00 00		 mov	 DWORD PTR _matWorld$[ebp+52], 0
  0005d	c7 45 ec 00 00
	00 00		 mov	 DWORD PTR _matWorld$[ebp+48], 0
  00064	c7 45 e8 00 00
	00 00		 mov	 DWORD PTR _matWorld$[ebp+44], 0
  0006b	c7 45 e0 00 00
	00 00		 mov	 DWORD PTR _matWorld$[ebp+36], 0
  00072	c7 45 dc 00 00
	00 00		 mov	 DWORD PTR _matWorld$[ebp+32], 0
  00079	c7 45 d8 00 00
	00 00		 mov	 DWORD PTR _matWorld$[ebp+28], 0
  00080	c7 45 d4 00 00
	00 00		 mov	 DWORD PTR _matWorld$[ebp+24], 0
  00087	c7 45 cc 00 00
	00 00		 mov	 DWORD PTR _matWorld$[ebp+16], 0
  0008e	c7 45 c8 00 00
	00 00		 mov	 DWORD PTR _matWorld$[ebp+12], 0
  00095	c7 45 c4 00 00
	00 00		 mov	 DWORD PTR _matWorld$[ebp+8], 0
  0009c	c7 45 c0 00 00
	00 00		 mov	 DWORD PTR _matWorld$[ebp+4], 0

; 1517 :     pOut->m[1][0] = pOut->m[1][2] = pOut->m[1][3] =
; 1518 :     pOut->m[2][0] = pOut->m[2][1] = pOut->m[2][3] =
; 1519 :     pOut->m[3][0] = pOut->m[3][1] = pOut->m[3][2] = 0.0f;
; 1520 : 
; 1521 :     pOut->m[0][0] = pOut->m[1][1] = pOut->m[2][2] = pOut->m[3][3] = 1.0f;

  000a3	c7 45 f8 00 00
	80 3f		 mov	 DWORD PTR _matWorld$[ebp+60], 1065353216 ; 3f800000H
  000aa	c7 45 e4 00 00
	80 3f		 mov	 DWORD PTR _matWorld$[ebp+40], 1065353216 ; 3f800000H
  000b1	c7 45 d0 00 00
	80 3f		 mov	 DWORD PTR _matWorld$[ebp+20], 1065353216 ; 3f800000H
  000b8	c7 45 bc 00 00
	80 3f		 mov	 DWORD PTR _matWorld$[ebp], 1065353216 ; 3f800000H
; File C:\Users\murat\Desktop\Siveps2-1-99-Project\source\client\Client\GameLib\WeaponTrace.cpp

; 299  : 	STATEMANAGER.SaveTransform(D3DTS_WORLD, &matWorld);

  000bf	e8 00 00 00 00	 call	 ?SaveTransform@CStateManager@@QAEXW4_D3DTRANSFORMSTATETYPE@@PBU_D3DMATRIX@@@Z ; CStateManager::SaveTransform

; 300  : 	STATEMANAGER.SaveVertexShader(D3DFVF_XYZ | D3DFVF_DIFFUSE | D3DFVF_TEX1);

  000c4	8b 0d 00 00 00
	00		 mov	 ecx, DWORD PTR ?ms_singleton@?$CSingleton@VCStateManager@@@@0PAVCStateManager@@A ; CSingleton<CStateManager>::ms_singleton
  000ca	68 42 01 00 00	 push	 322			; 00000142H
  000cf	e8 00 00 00 00	 call	 ?SaveVertexShader@CStateManager@@QAEXK@Z ; CStateManager::SaveVertexShader

; 301  : 	STATEMANAGER.SaveRenderState(D3DRS_CULLMODE, D3DCULL_NONE);

  000d4	8b 0d 00 00 00
	00		 mov	 ecx, DWORD PTR ?ms_singleton@?$CSingleton@VCStateManager@@@@0PAVCStateManager@@A ; CSingleton<CStateManager>::ms_singleton
  000da	6a 01		 push	 1
  000dc	6a 16		 push	 22			; 00000016H
  000de	e8 00 00 00 00	 call	 ?SaveRenderState@CStateManager@@QAEXW4_D3DRENDERSTATETYPE@@K@Z ; CStateManager::SaveRenderState

; 302  : 
; 303  : 	STATEMANAGER.SaveRenderState(D3DRS_ALPHABLENDENABLE, TRUE);

  000e3	8b 0d 00 00 00
	00		 mov	 ecx, DWORD PTR ?ms_singleton@?$CSingleton@VCStateManager@@@@0PAVCStateManager@@A ; CSingleton<CStateManager>::ms_singleton
  000e9	6a 01		 push	 1
  000eb	6a 1b		 push	 27			; 0000001bH
  000ed	e8 00 00 00 00	 call	 ?SaveRenderState@CStateManager@@QAEXW4_D3DRENDERSTATETYPE@@K@Z ; CStateManager::SaveRenderState

; 304  : 	STATEMANAGER.SaveRenderState(D3DRS_SRCBLEND, D3DBLEND_SRCALPHA);

  000f2	8b 0d 00 00 00
	00		 mov	 ecx, DWORD PTR ?ms_singleton@?$CSingleton@VCStateManager@@@@0PAVCStateManager@@A ; CSingleton<CStateManager>::ms_singleton
  000f8	6a 05		 push	 5
  000fa	6a 13		 push	 19			; 00000013H
  000fc	e8 00 00 00 00	 call	 ?SaveRenderState@CStateManager@@QAEXW4_D3DRENDERSTATETYPE@@K@Z ; CStateManager::SaveRenderState

; 305  : 	STATEMANAGER.SaveRenderState(D3DRS_DESTBLEND, D3DBLEND_INVSRCALPHA);

  00101	8b 0d 00 00 00
	00		 mov	 ecx, DWORD PTR ?ms_singleton@?$CSingleton@VCStateManager@@@@0PAVCStateManager@@A ; CSingleton<CStateManager>::ms_singleton
  00107	6a 06		 push	 6
  00109	6a 14		 push	 20			; 00000014H
  0010b	e8 00 00 00 00	 call	 ?SaveRenderState@CStateManager@@QAEXW4_D3DRENDERSTATETYPE@@K@Z ; CStateManager::SaveRenderState

; 306  : 
; 307  : 	STATEMANAGER.SaveRenderState(D3DRS_ALPHATESTENABLE, FALSE);

  00110	8b 0d 00 00 00
	00		 mov	 ecx, DWORD PTR ?ms_singleton@?$CSingleton@VCStateManager@@@@0PAVCStateManager@@A ; CSingleton<CStateManager>::ms_singleton
  00116	6a 00		 push	 0
  00118	6a 0f		 push	 15			; 0000000fH
  0011a	e8 00 00 00 00	 call	 ?SaveRenderState@CStateManager@@QAEXW4_D3DRENDERSTATETYPE@@K@Z ; CStateManager::SaveRenderState

; 308  : 	STATEMANAGER.SaveRenderState(D3DRS_ALPHAREF, 0x00000011);

  0011f	8b 0d 00 00 00
	00		 mov	 ecx, DWORD PTR ?ms_singleton@?$CSingleton@VCStateManager@@@@0PAVCStateManager@@A ; CSingleton<CStateManager>::ms_singleton
  00125	6a 11		 push	 17			; 00000011H
  00127	6a 18		 push	 24			; 00000018H
  00129	e8 00 00 00 00	 call	 ?SaveRenderState@CStateManager@@QAEXW4_D3DRENDERSTATETYPE@@K@Z ; CStateManager::SaveRenderState

; 309  : 	STATEMANAGER.SaveRenderState(D3DRS_ALPHAFUNC, D3DCMP_GREATER);

  0012e	8b 0d 00 00 00
	00		 mov	 ecx, DWORD PTR ?ms_singleton@?$CSingleton@VCStateManager@@@@0PAVCStateManager@@A ; CSingleton<CStateManager>::ms_singleton
  00134	6a 05		 push	 5
  00136	6a 19		 push	 25			; 00000019H
  00138	e8 00 00 00 00	 call	 ?SaveRenderState@CStateManager@@QAEXW4_D3DRENDERSTATETYPE@@K@Z ; CStateManager::SaveRenderState

; 310  : 
; 311  : 	STATEMANAGER.SaveRenderState(D3DRS_ZENABLE, TRUE);

  0013d	8b 0d 00 00 00
	00		 mov	 ecx, DWORD PTR ?ms_singleton@?$CSingleton@VCStateManager@@@@0PAVCStateManager@@A ; CSingleton<CStateManager>::ms_singleton
  00143	6a 01		 push	 1
  00145	6a 07		 push	 7
  00147	e8 00 00 00 00	 call	 ?SaveRenderState@CStateManager@@QAEXW4_D3DRENDERSTATETYPE@@K@Z ; CStateManager::SaveRenderState

; 312  : 	STATEMANAGER.SaveRenderState(D3DRS_ZFUNC, D3DCMP_LESSEQUAL);

  0014c	8b 0d 00 00 00
	00		 mov	 ecx, DWORD PTR ?ms_singleton@?$CSingleton@VCStateManager@@@@0PAVCStateManager@@A ; CSingleton<CStateManager>::ms_singleton
  00152	6a 04		 push	 4
  00154	6a 17		 push	 23			; 00000017H
  00156	e8 00 00 00 00	 call	 ?SaveRenderState@CStateManager@@QAEXW4_D3DRENDERSTATETYPE@@K@Z ; CStateManager::SaveRenderState

; 313  : 	STATEMANAGER.SaveRenderState(D3DRS_ZWRITEENABLE, FALSE);

  0015b	8b 0d 00 00 00
	00		 mov	 ecx, DWORD PTR ?ms_singleton@?$CSingleton@VCStateManager@@@@0PAVCStateManager@@A ; CSingleton<CStateManager>::ms_singleton
  00161	6a 00		 push	 0
  00163	6a 0e		 push	 14			; 0000000eH
  00165	e8 00 00 00 00	 call	 ?SaveRenderState@CStateManager@@QAEXW4_D3DRENDERSTATETYPE@@K@Z ; CStateManager::SaveRenderState

; 314  : 
; 315  : 	STATEMANAGER.SetTextureStageState(0, D3DTSS_COLORARG1, D3DTA_DIFFUSE);

  0016a	8b 0d 00 00 00
	00		 mov	 ecx, DWORD PTR ?ms_singleton@?$CSingleton@VCStateManager@@@@0PAVCStateManager@@A ; CSingleton<CStateManager>::ms_singleton
  00170	6a 00		 push	 0
  00172	6a 02		 push	 2
  00174	6a 00		 push	 0
  00176	e8 00 00 00 00	 call	 ?SetTextureStageState@CStateManager@@QAEXKW4_D3DTEXTURESTAGESTATETYPE@@K@Z ; CStateManager::SetTextureStageState

; 316  : 	STATEMANAGER.SetTextureStageState(0, D3DTSS_COLORARG2, D3DTA_TEXTURE);

  0017b	8b 0d 00 00 00
	00		 mov	 ecx, DWORD PTR ?ms_singleton@?$CSingleton@VCStateManager@@@@0PAVCStateManager@@A ; CSingleton<CStateManager>::ms_singleton
  00181	6a 02		 push	 2
  00183	6a 03		 push	 3
  00185	6a 00		 push	 0
  00187	e8 00 00 00 00	 call	 ?SetTextureStageState@CStateManager@@QAEXKW4_D3DTEXTURESTAGESTATETYPE@@K@Z ; CStateManager::SetTextureStageState

; 317  : 	STATEMANAGER.SetTextureStageState(0, D3DTSS_COLOROP, (m_bUseTexture)?D3DTOP_SELECTARG2:D3DTOP_SELECTARG1);

  0018c	33 c0		 xor	 eax, eax
  0018e	38 86 84 00 00
	00		 cmp	 BYTE PTR [esi+132], al
  00194	0f 95 c0	 setne	 al
  00197	83 c0 02	 add	 eax, 2
  0019a	50		 push	 eax
  0019b	6a 01		 push	 1
  0019d	6a 00		 push	 0
  0019f	8b 0d 00 00 00
	00		 mov	 ecx, DWORD PTR ?ms_singleton@?$CSingleton@VCStateManager@@@@0PAVCStateManager@@A ; CSingleton<CStateManager>::ms_singleton
  001a5	e8 00 00 00 00	 call	 ?SetTextureStageState@CStateManager@@QAEXKW4_D3DTEXTURESTAGESTATETYPE@@K@Z ; CStateManager::SetTextureStageState

; 318  : 	//STATEMANAGER.SetTextureStageState(0, D3DTSS_COLOROP, D3DTOP_SELECTARG1);
; 319  : 	//STATEMANAGER.SetTextureStageState(0, D3DTSS_COLOROP, D3DTOP_MODULATE);
; 320  : 	STATEMANAGER.SetTextureStageState(0, D3DTSS_ALPHAARG1, D3DTA_DIFFUSE);

  001aa	8b 0d 00 00 00
	00		 mov	 ecx, DWORD PTR ?ms_singleton@?$CSingleton@VCStateManager@@@@0PAVCStateManager@@A ; CSingleton<CStateManager>::ms_singleton
  001b0	6a 00		 push	 0
  001b2	6a 05		 push	 5
  001b4	6a 00		 push	 0
  001b6	e8 00 00 00 00	 call	 ?SetTextureStageState@CStateManager@@QAEXKW4_D3DTEXTURESTAGESTATETYPE@@K@Z ; CStateManager::SetTextureStageState

; 321  : 	STATEMANAGER.SetTextureStageState(0, D3DTSS_ALPHAARG2, D3DTA_TEXTURE);

  001bb	8b 0d 00 00 00
	00		 mov	 ecx, DWORD PTR ?ms_singleton@?$CSingleton@VCStateManager@@@@0PAVCStateManager@@A ; CSingleton<CStateManager>::ms_singleton
  001c1	6a 02		 push	 2
  001c3	6a 06		 push	 6
  001c5	6a 00		 push	 0
  001c7	e8 00 00 00 00	 call	 ?SetTextureStageState@CStateManager@@QAEXKW4_D3DTEXTURESTAGESTATETYPE@@K@Z ; CStateManager::SetTextureStageState

; 322  : 	//STATEMANAGER.SetTextureStageState(0, D3DTSS_ALPHAOP, D3DTOP_MODULATE);
; 323  : 	STATEMANAGER.SetTextureStageState(0, D3DTSS_ALPHAOP, (m_bUseTexture)?D3DTOP_SELECTARG2:D3DTOP_SELECTARG1);

  001cc	8b 0d 00 00 00
	00		 mov	 ecx, DWORD PTR ?ms_singleton@?$CSingleton@VCStateManager@@@@0PAVCStateManager@@A ; CSingleton<CStateManager>::ms_singleton
  001d2	33 c0		 xor	 eax, eax
  001d4	38 86 84 00 00
	00		 cmp	 BYTE PTR [esi+132], al
  001da	0f 95 c0	 setne	 al
  001dd	83 c0 02	 add	 eax, 2
  001e0	50		 push	 eax
  001e1	6a 04		 push	 4
  001e3	6a 00		 push	 0
  001e5	e8 00 00 00 00	 call	 ?SetTextureStageState@CStateManager@@QAEXKW4_D3DTEXTURESTAGESTATETYPE@@K@Z ; CStateManager::SetTextureStageState

; 324  : 	STATEMANAGER.SetTextureStageState(1, D3DTSS_COLOROP, D3DTOP_DISABLE);

  001ea	8b 0d 00 00 00
	00		 mov	 ecx, DWORD PTR ?ms_singleton@?$CSingleton@VCStateManager@@@@0PAVCStateManager@@A ; CSingleton<CStateManager>::ms_singleton
  001f0	6a 01		 push	 1
  001f2	6a 01		 push	 1
  001f4	6a 01		 push	 1
  001f6	e8 00 00 00 00	 call	 ?SetTextureStageState@CStateManager@@QAEXKW4_D3DTEXTURESTAGESTATETYPE@@K@Z ; CStateManager::SetTextureStageState

; 325  : 	STATEMANAGER.SetTextureStageState(1, D3DTSS_ALPHAOP, D3DTOP_DISABLE);

  001fb	8b 0d 00 00 00
	00		 mov	 ecx, DWORD PTR ?ms_singleton@?$CSingleton@VCStateManager@@@@0PAVCStateManager@@A ; CSingleton<CStateManager>::ms_singleton
  00201	6a 01		 push	 1
  00203	6a 04		 push	 4
  00205	6a 01		 push	 1
  00207	e8 00 00 00 00	 call	 ?SetTextureStageState@CStateManager@@QAEXKW4_D3DTEXTURESTAGESTATETYPE@@K@Z ; CStateManager::SetTextureStageState

; 326  : 	STATEMANAGER.SetRenderState(D3DRS_LIGHTING, FALSE);

  0020c	8b 0d 00 00 00
	00		 mov	 ecx, DWORD PTR ?ms_singleton@?$CSingleton@VCStateManager@@@@0PAVCStateManager@@A ; CSingleton<CStateManager>::ms_singleton
  00212	6a 00		 push	 0
  00214	68 89 00 00 00	 push	 137			; 00000089H
  00219	e8 00 00 00 00	 call	 ?SetRenderState@CStateManager@@QAEXW4_D3DRENDERSTATETYPE@@K@Z ; CStateManager::SetRenderState

; 327  : 	STATEMANAGER.SetTexture(0, lpTexture);

  0021e	8b 0d 00 00 00
	00		 mov	 ecx, DWORD PTR ?ms_singleton@?$CSingleton@VCStateManager@@@@0PAVCStateManager@@A ; CSingleton<CStateManager>::ms_singleton
  00224	6a 00		 push	 0
  00226	6a 00		 push	 0
  00228	e8 00 00 00 00	 call	 ?SetTexture@CStateManager@@QAEXKPAUIDirect3DBaseTexture8@@@Z ; CStateManager::SetTexture

; 328  : 	STATEMANAGER.SetTexture(1, NULL);

  0022d	8b 0d 00 00 00
	00		 mov	 ecx, DWORD PTR ?ms_singleton@?$CSingleton@VCStateManager@@@@0PAVCStateManager@@A ; CSingleton<CStateManager>::ms_singleton
  00233	6a 00		 push	 0
  00235	6a 01		 push	 1
  00237	e8 00 00 00 00	 call	 ?SetTexture@CStateManager@@QAEXKPAUIDirect3DBaseTexture8@@@Z ; CStateManager::SetTexture

; 329  : 	STATEMANAGER.DrawPrimitiveUP(D3DPT_TRIANGLESTRIP,

  0023c	8b 4e 30	 mov	 ecx, DWORD PTR [esi+48]
; File C:\Program Files (x86)\Microsoft Visual Studio\2019\Professional\VC\Tools\MSVC\14.29.30133\include\vector

; 1549 :         return static_cast<size_type>(_My_data._Mylast - _My_data._Myfirst);

  0023f	b8 ab aa aa 2a	 mov	 eax, 715827883		; 2aaaaaabH
  00244	8b 56 34	 mov	 edx, DWORD PTR [esi+52]
  00247	2b d1		 sub	 edx, ecx
  00249	f7 ea		 imul	 edx
; File C:\Users\murat\Desktop\Siveps2-1-99-Project\source\client\Client\GameLib\WeaponTrace.cpp

; 329  : 	STATEMANAGER.DrawPrimitiveUP(D3DPT_TRIANGLESTRIP,

  0024b	6a 18		 push	 24			; 00000018H
; File C:\Program Files (x86)\Microsoft Visual Studio\2019\Professional\VC\Tools\MSVC\14.29.30133\include\vector

; 1549 :         return static_cast<size_type>(_My_data._Mylast - _My_data._Myfirst);

  0024d	c1 fa 02	 sar	 edx, 2
  00250	8b c2		 mov	 eax, edx
; File C:\Users\murat\Desktop\Siveps2-1-99-Project\source\client\Client\GameLib\WeaponTrace.cpp

; 329  : 	STATEMANAGER.DrawPrimitiveUP(D3DPT_TRIANGLESTRIP,

  00252	83 c2 fe	 add	 edx, -2			; fffffffeH
  00255	51		 push	 ecx
  00256	8b 0d 00 00 00
	00		 mov	 ecx, DWORD PTR ?ms_singleton@?$CSingleton@VCStateManager@@@@0PAVCStateManager@@A ; CSingleton<CStateManager>::ms_singleton
; File C:\Program Files (x86)\Microsoft Visual Studio\2019\Professional\VC\Tools\MSVC\14.29.30133\include\vector

; 1549 :         return static_cast<size_type>(_My_data._Mylast - _My_data._Myfirst);

  0025c	c1 e8 1f	 shr	 eax, 31			; 0000001fH
; File C:\Users\murat\Desktop\Siveps2-1-99-Project\source\client\Client\GameLib\WeaponTrace.cpp

; 329  : 	STATEMANAGER.DrawPrimitiveUP(D3DPT_TRIANGLESTRIP,

  0025f	03 c2		 add	 eax, edx
  00261	50		 push	 eax
  00262	6a 05		 push	 5
  00264	e8 00 00 00 00	 call	 ?DrawPrimitiveUP@CStateManager@@QAEJW4_D3DPRIMITIVETYPE@@IPBXI@Z ; CStateManager::DrawPrimitiveUP

; 330  : 								 int(m_PDTVertexVector.size() - 2),
; 331  : 								 &m_PDTVertexVector[0],
; 332  : 								 sizeof(TPDTVertex));
; 333  : 
; 334  : 	STATEMANAGER.SetRenderState(D3DRS_LIGHTING, TRUE);

  00269	8b 0d 00 00 00
	00		 mov	 ecx, DWORD PTR ?ms_singleton@?$CSingleton@VCStateManager@@@@0PAVCStateManager@@A ; CSingleton<CStateManager>::ms_singleton
  0026f	6a 01		 push	 1
  00271	68 89 00 00 00	 push	 137			; 00000089H
  00276	e8 00 00 00 00	 call	 ?SetRenderState@CStateManager@@QAEXW4_D3DRENDERSTATETYPE@@K@Z ; CStateManager::SetRenderState

; 335  : 
; 336  : 	STATEMANAGER.RestoreRenderState(D3DRS_ZENABLE);

  0027b	8b 0d 00 00 00
	00		 mov	 ecx, DWORD PTR ?ms_singleton@?$CSingleton@VCStateManager@@@@0PAVCStateManager@@A ; CSingleton<CStateManager>::ms_singleton
  00281	6a 07		 push	 7
  00283	e8 00 00 00 00	 call	 ?RestoreRenderState@CStateManager@@QAEXW4_D3DRENDERSTATETYPE@@@Z ; CStateManager::RestoreRenderState

; 337  : 	STATEMANAGER.RestoreRenderState(D3DRS_ZFUNC);

  00288	8b 0d 00 00 00
	00		 mov	 ecx, DWORD PTR ?ms_singleton@?$CSingleton@VCStateManager@@@@0PAVCStateManager@@A ; CSingleton<CStateManager>::ms_singleton
  0028e	6a 17		 push	 23			; 00000017H
  00290	e8 00 00 00 00	 call	 ?RestoreRenderState@CStateManager@@QAEXW4_D3DRENDERSTATETYPE@@@Z ; CStateManager::RestoreRenderState

; 338  : 	STATEMANAGER.RestoreRenderState(D3DRS_ZWRITEENABLE);

  00295	8b 0d 00 00 00
	00		 mov	 ecx, DWORD PTR ?ms_singleton@?$CSingleton@VCStateManager@@@@0PAVCStateManager@@A ; CSingleton<CStateManager>::ms_singleton
  0029b	6a 0e		 push	 14			; 0000000eH
  0029d	e8 00 00 00 00	 call	 ?RestoreRenderState@CStateManager@@QAEXW4_D3DRENDERSTATETYPE@@@Z ; CStateManager::RestoreRenderState

; 339  : 
; 340  : 	STATEMANAGER.RestoreRenderState(D3DRS_ALPHATESTENABLE);

  002a2	8b 0d 00 00 00
	00		 mov	 ecx, DWORD PTR ?ms_singleton@?$CSingleton@VCStateManager@@@@0PAVCStateManager@@A ; CSingleton<CStateManager>::ms_singleton
  002a8	6a 0f		 push	 15			; 0000000fH
  002aa	e8 00 00 00 00	 call	 ?RestoreRenderState@CStateManager@@QAEXW4_D3DRENDERSTATETYPE@@@Z ; CStateManager::RestoreRenderState

; 341  : 	STATEMANAGER.RestoreRenderState(D3DRS_ALPHAREF);

  002af	8b 0d 00 00 00
	00		 mov	 ecx, DWORD PTR ?ms_singleton@?$CSingleton@VCStateManager@@@@0PAVCStateManager@@A ; CSingleton<CStateManager>::ms_singleton
  002b5	6a 18		 push	 24			; 00000018H
  002b7	e8 00 00 00 00	 call	 ?RestoreRenderState@CStateManager@@QAEXW4_D3DRENDERSTATETYPE@@@Z ; CStateManager::RestoreRenderState

; 342  : 	STATEMANAGER.RestoreRenderState(D3DRS_ALPHAFUNC);

  002bc	8b 0d 00 00 00
	00		 mov	 ecx, DWORD PTR ?ms_singleton@?$CSingleton@VCStateManager@@@@0PAVCStateManager@@A ; CSingleton<CStateManager>::ms_singleton
  002c2	6a 19		 push	 25			; 00000019H
  002c4	e8 00 00 00 00	 call	 ?RestoreRenderState@CStateManager@@QAEXW4_D3DRENDERSTATETYPE@@@Z ; CStateManager::RestoreRenderState

; 343  : 
; 344  : 	STATEMANAGER.RestoreRenderState(D3DRS_ALPHABLENDENABLE);

  002c9	8b 0d 00 00 00
	00		 mov	 ecx, DWORD PTR ?ms_singleton@?$CSingleton@VCStateManager@@@@0PAVCStateManager@@A ; CSingleton<CStateManager>::ms_singleton
  002cf	6a 1b		 push	 27			; 0000001bH
  002d1	e8 00 00 00 00	 call	 ?RestoreRenderState@CStateManager@@QAEXW4_D3DRENDERSTATETYPE@@@Z ; CStateManager::RestoreRenderState

; 345  : 	STATEMANAGER.RestoreRenderState(D3DRS_SRCBLEND);

  002d6	8b 0d 00 00 00
	00		 mov	 ecx, DWORD PTR ?ms_singleton@?$CSingleton@VCStateManager@@@@0PAVCStateManager@@A ; CSingleton<CStateManager>::ms_singleton
  002dc	6a 13		 push	 19			; 00000013H
  002de	e8 00 00 00 00	 call	 ?RestoreRenderState@CStateManager@@QAEXW4_D3DRENDERSTATETYPE@@@Z ; CStateManager::RestoreRenderState

; 346  : 	STATEMANAGER.RestoreRenderState(D3DRS_DESTBLEND);

  002e3	8b 0d 00 00 00
	00		 mov	 ecx, DWORD PTR ?ms_singleton@?$CSingleton@VCStateManager@@@@0PAVCStateManager@@A ; CSingleton<CStateManager>::ms_singleton
  002e9	6a 14		 push	 20			; 00000014H
  002eb	e8 00 00 00 00	 call	 ?RestoreRenderState@CStateManager@@QAEXW4_D3DRENDERSTATETYPE@@@Z ; CStateManager::RestoreRenderState

; 347  : 
; 348  : 	STATEMANAGER.RestoreTransform(D3DTS_WORLD);

  002f0	8b 0d 00 00 00
	00		 mov	 ecx, DWORD PTR ?ms_singleton@?$CSingleton@VCStateManager@@@@0PAVCStateManager@@A ; CSingleton<CStateManager>::ms_singleton
  002f6	68 00 01 00 00	 push	 256			; 00000100H
  002fb	e8 00 00 00 00	 call	 ?RestoreTransform@CStateManager@@QAEXW4_D3DTRANSFORMSTATETYPE@@@Z ; CStateManager::RestoreTransform

; 349  : 	STATEMANAGER.RestoreVertexShader();

  00300	8b 0d 00 00 00
	00		 mov	 ecx, DWORD PTR ?ms_singleton@?$CSingleton@VCStateManager@@@@0PAVCStateManager@@A ; CSingleton<CStateManager>::ms_singleton
  00306	e8 00 00 00 00	 call	 ?RestoreVertexShader@CStateManager@@QAEXXZ ; CStateManager::RestoreVertexShader

; 350  : 	STATEMANAGER.RestoreRenderState(D3DRS_CULLMODE);

  0030b	8b 0d 00 00 00
	00		 mov	 ecx, DWORD PTR ?ms_singleton@?$CSingleton@VCStateManager@@@@0PAVCStateManager@@A ; CSingleton<CStateManager>::ms_singleton
  00311	6a 16		 push	 22			; 00000016H
  00313	e8 00 00 00 00	 call	 ?RestoreRenderState@CStateManager@@QAEXW4_D3DRENDERSTATETYPE@@@Z ; CStateManager::RestoreRenderState
$LN1@Render:

; 351  : }

  00318	8b 4d fc	 mov	 ecx, DWORD PTR __$ArrayPad$[ebp]
  0031b	33 cd		 xor	 ecx, ebp
  0031d	5e		 pop	 esi
  0031e	e8 00 00 00 00	 call	 @__security_check_cookie@4
  00323	8b e5		 mov	 esp, ebp
  00325	5d		 pop	 ebp
  00326	c3		 ret	 0
?Render@CWeaponTrace@@QAEXXZ ENDP			; CWeaponTrace::Render
_TEXT	ENDS
; Function compile flags: /Ogtp
; File C:\Users\murat\Desktop\Siveps2-1-99-Project\source\client\Client\GameLib\WeaponTrace.cpp
; File C:\Program Files (x86)\Microsoft Visual Studio\2019\Professional\VC\Tools\MSVC\14.29.30133\include\xmemory
; File C:\Users\murat\Desktop\Siveps2-1-99-Project\source\client\Client\GameLib\WeaponTrace.cpp
; File C:\Program Files (x86)\Microsoft Visual Studio\2019\Professional\VC\Tools\MSVC\14.29.30133\include\deque
; File C:\Users\murat\Desktop\Siveps2-1-99-Project\source\client\Client\GameLib\WeaponTrace.cpp
; File C:\Program Files (x86)\Microsoft Visual Studio\2019\Professional\VC\Tools\MSVC\14.29.30133\include\xmemory
; File C:\Program Files (x86)\Microsoft Visual Studio\2019\Professional\VC\Tools\MSVC\14.29.30133\include\deque
; File C:\Users\murat\Desktop\Siveps2-1-99-Project\source\client\Client\GameLib\WeaponTrace.cpp
; File C:\Program Files (x86)\Microsoft Visual Studio\2019\Professional\VC\Tools\MSVC\14.29.30133\include\deque
; File C:\Users\murat\Desktop\Siveps2-1-99-Project\source\client\Client\GameLib\WeaponTrace.cpp
; File C:\Program Files (x86)\Microsoft Visual Studio\2019\Professional\VC\Tools\MSVC\14.29.30133\include\xmemory
; File C:\Program Files (x86)\Microsoft Visual Studio\2019\Professional\VC\Tools\MSVC\14.29.30133\include\deque
; File C:\Users\murat\Desktop\Siveps2-1-99-Project\source\client\Client\GameLib\WeaponTrace.cpp
; File C:\Program Files (x86)\Microsoft Visual Studio\2019\Professional\VC\Tools\MSVC\14.29.30133\include\deque
; File C:\Users\murat\Desktop\Siveps2-1-99-Project\source\client\Client\GameLib\WeaponTrace.cpp
; File C:\Program Files (x86)\Microsoft Visual Studio\2019\Professional\VC\Tools\MSVC\14.29.30133\include\deque
; File C:\Users\murat\Desktop\Siveps2-1-99-Project\source\client\Client\GameLib\WeaponTrace.cpp
; File C:\Program Files (x86)\Microsoft Visual Studio\2019\Professional\VC\Tools\MSVC\14.29.30133\include\xmemory
; File C:\Users\murat\Desktop\Siveps2-1-99-Project\source\client\Client\GameLib\WeaponTrace.cpp
; File C:\Program Files (x86)\Microsoft Visual Studio\2019\Professional\VC\Tools\MSVC\14.29.30133\include\xmemory
; File C:\Users\murat\Desktop\Siveps2-1-99-Project\source\client\Client\GameLib\WeaponTrace.cpp
; File C:\Program Files (x86)\Microsoft Visual Studio\2019\Professional\VC\Tools\MSVC\14.29.30133\include\xmemory
; File C:\Users\murat\Desktop\Siveps2-1-99-Project\source\client\Client\GameLib\WeaponTrace.cpp
; File C:\Program Files (x86)\Microsoft Visual Studio\2019\Professional\VC\Tools\MSVC\14.29.30133\include\xmemory
; File C:\Program Files (x86)\Microsoft Visual Studio\2019\Professional\VC\Tools\MSVC\14.29.30133\include\deque
; File C:\Users\murat\Desktop\Siveps2-1-99-Project\source\client\Client\GameLib\WeaponTrace.cpp
; File C:\Program Files (x86)\Microsoft Visual Studio\2019\Professional\VC\Tools\MSVC\14.29.30133\include\xmemory
; File C:\Program Files (x86)\Microsoft Visual Studio\2019\Professional\VC\Tools\MSVC\14.29.30133\include\deque
; File C:\Users\murat\Desktop\Siveps2-1-99-Project\source\client\Client\GameLib\WeaponTrace.cpp
; File C:\Program Files (x86)\Microsoft Visual Studio\2019\Professional\VC\Tools\MSVC\14.29.30133\include\deque
; File C:\Users\murat\Desktop\Siveps2-1-99-Project\source\client\Client\GameLib\WeaponTrace.cpp
; File C:\Program Files (x86)\Microsoft Visual Studio\2019\Professional\VC\Tools\MSVC\14.29.30133\include\xmemory
; File C:\Program Files (x86)\Microsoft Visual Studio\2019\Professional\VC\Tools\MSVC\14.29.30133\include\deque
; File C:\Users\murat\Desktop\Siveps2-1-99-Project\source\client\Client\GameLib\WeaponTrace.cpp
; File C:\Program Files (x86)\Microsoft Visual Studio\2019\Professional\VC\Tools\MSVC\14.29.30133\include\deque
; File C:\Users\murat\Desktop\Siveps2-1-99-Project\source\client\Client\GameLib\WeaponTrace.cpp
; File C:\Program Files (x86)\Microsoft Visual Studio\2019\Professional\VC\Tools\MSVC\14.29.30133\include\deque
; File C:\Users\murat\Desktop\Siveps2-1-99-Project\source\client\Client\GameLib\WeaponTrace.cpp
; File C:\Program Files (x86)\Microsoft Visual Studio\2019\Professional\VC\Tools\MSVC\14.29.30133\include\xmemory
; File C:\Users\murat\Desktop\Siveps2-1-99-Project\source\client\Client\GameLib\WeaponTrace.cpp
; File C:\Program Files (x86)\Microsoft Visual Studio\2019\Professional\VC\Tools\MSVC\14.29.30133\include\xmemory
; File C:\Users\murat\Desktop\Siveps2-1-99-Project\source\client\Client\GameLib\WeaponTrace.cpp
; File C:\Program Files (x86)\Microsoft Visual Studio\2019\Professional\VC\Tools\MSVC\14.29.30133\include\xmemory
; File C:\Users\murat\Desktop\Siveps2-1-99-Project\source\client\Client\GameLib\WeaponTrace.cpp
; File C:\Program Files (x86)\Microsoft Visual Studio\2019\Professional\VC\Tools\MSVC\14.29.30133\include\xmemory
; File C:\Users\murat\Desktop\Siveps2-1-99-Project\source\client\Client\GameLib\WeaponTrace.cpp
; File C:\Users\murat\Desktop\Siveps2-1-99-Project\source\client\extern\include\d3dx8math.inl
; File C:\Users\murat\Desktop\Siveps2-1-99-Project\source\client\Client\GameLib\WeaponTrace.cpp
; File C:\Program Files (x86)\Microsoft Visual Studio\2019\Professional\VC\Tools\MSVC\14.29.30133\include\utility
; File C:\Users\murat\Desktop\Siveps2-1-99-Project\source\client\Client\GameLib\WeaponTrace.cpp
; File C:\Program Files (x86)\Microsoft Visual Studio\2019\Professional\VC\Tools\MSVC\14.29.30133\include\utility
; File C:\Users\murat\Desktop\Siveps2-1-99-Project\source\client\Client\GameLib\WeaponTrace.cpp
; File C:\Program Files (x86)\Microsoft Visual Studio\2019\Professional\VC\Tools\MSVC\14.29.30133\include\utility
; File C:\Users\murat\Desktop\Siveps2-1-99-Project\source\client\Client\GameLib\WeaponTrace.cpp
; File C:\Users\murat\Desktop\Siveps2-1-99-Project\source\client\extern\include\d3dx8math.inl
; File C:\Users\murat\Desktop\Siveps2-1-99-Project\source\client\Client\GameLib\WeaponTrace.cpp
; File C:\Program Files (x86)\Microsoft Visual Studio\2019\Professional\VC\Tools\MSVC\14.29.30133\include\utility
; File C:\Users\murat\Desktop\Siveps2-1-99-Project\source\client\Client\GameLib\WeaponTrace.cpp
; File C:\Program Files (x86)\Microsoft Visual Studio\2019\Professional\VC\Tools\MSVC\14.29.30133\include\utility
; File C:\Users\murat\Desktop\Siveps2-1-99-Project\source\client\Client\GameLib\WeaponTrace.cpp
; File C:\Program Files (x86)\Microsoft Visual Studio\2019\Professional\VC\Tools\MSVC\14.29.30133\include\utility
; File C:\Users\murat\Desktop\Siveps2-1-99-Project\source\client\Client\GameLib\WeaponTrace.cpp
;	COMDAT ?Update@CWeaponTrace@@QAEXM@Z
_TEXT	SEGMENT
$T2 = -348						; size = 16
$T3 = -348						; size = 16
$T4 = -344						; size = 12
$T5 = -344						; size = 12
_pBoneMat$6 = -332					; size = 4
_fElapsedTime$ = -332					; size = 4
tv1736 = -328						; size = 4
tv1735 = -328						; size = 4
_pMatrix$7 = -328					; size = 4
_matPoint$8 = -324					; size = 64
_matTranslation$9 = -260				; size = 64
_matRotation$10 = -196					; size = 64
_mat$11 = -132						; size = 64
$T12 = -68						; size = 64
$T13 = -68						; size = 64
__$ArrayPad$ = -4					; size = 4
_fReachScale$ = 8					; size = 4
?Update@CWeaponTrace@@QAEXM@Z PROC			; CWeaponTrace::Update, COMDAT
; _this$ = ecx

; 28   : {

  00000	55		 push	 ebp
  00001	8b ec		 mov	 ebp, esp
  00003	81 ec 5c 01 00
	00		 sub	 esp, 348		; 0000015cH
  00009	a1 00 00 00 00	 mov	 eax, DWORD PTR ___security_cookie
  0000e	33 c5		 xor	 eax, ebp
  00010	89 45 fc	 mov	 DWORD PTR __$ArrayPad$[ebp], eax
  00013	53		 push	 ebx
  00014	56		 push	 esi
  00015	8b f1		 mov	 esi, ecx

; 29   : 	float fElapsedTime = CTimer::Instance().GetCurrentSecond() - m_fLastUpdate;

  00017	8b 0d 00 00 00
	00		 mov	 ecx, DWORD PTR ?ms_singleton@?$CSingleton@VCTimer@@@@0PAVCTimer@@A ; CSingleton<CTimer>::ms_singleton
  0001d	57		 push	 edi
  0001e	e8 00 00 00 00	 call	 ?GetCurrentSecond@CTimer@@QAEMXZ ; CTimer::GetCurrentSecond
  00023	d8 66 04	 fsub	 DWORD PTR [esi+4]

; 30   : 	m_fLastUpdate = CTimer::Instance().GetCurrentSecond();

  00026	8b 0d 00 00 00
	00		 mov	 ecx, DWORD PTR ?ms_singleton@?$CSingleton@VCTimer@@@@0PAVCTimer@@A ; CSingleton<CTimer>::ms_singleton
  0002c	d9 9d b4 fe ff
	ff		 fstp	 DWORD PTR _fElapsedTime$[ebp]
  00032	e8 00 00 00 00	 call	 ?GetCurrentSecond@CTimer@@QAEMXZ ; CTimer::GetCurrentSecond

; 31   : 
; 32   : 	if (!m_pInstance)

  00037	83 7e 44 00	 cmp	 DWORD PTR [esi+68], 0
  0003b	d9 5e 04	 fstp	 DWORD PTR [esi+4]
  0003e	0f 84 75 03 00
	00		 je	 $LN14@Update
; File C:\Program Files (x86)\Microsoft Visual Studio\2019\Professional\VC\Tools\MSVC\14.29.30133\include\xmemory

; 1155 :             _Myproxy = _Parent->_Myproxy;

  00044	8b 7e 08	 mov	 edi, DWORD PTR [esi+8]
  00047	8b 56 14	 mov	 edx, DWORD PTR [esi+20]
; File C:\Users\murat\Desktop\Siveps2-1-99-Project\source\client\Client\GameLib\WeaponTrace.cpp

; 37   : 		for(it=m_ShortTimePointList.begin();it!=m_ShortTimePointList.end();++it)

  0004a	f3 0f 10 8d b4
	fe ff ff	 movss	 xmm1, DWORD PTR _fElapsedTime$[ebp]
$LL51@Update:
; File C:\Program Files (x86)\Microsoft Visual Studio\2019\Professional\VC\Tools\MSVC\14.29.30133\include\deque

; 904  :         return iterator(_Myoff() + _Mysize(), _STD addressof(_Get_data()));

  00052	8b 4e 18	 mov	 ecx, DWORD PTR [esi+24]
  00055	8b 5e 14	 mov	 ebx, DWORD PTR [esi+20]
  00058	8d 04 0b	 lea	 eax, DWORD PTR [ebx+ecx]
; File C:\Users\murat\Desktop\Siveps2-1-99-Project\source\client\Client\GameLib\WeaponTrace.cpp

; 37   : 		for(it=m_ShortTimePointList.begin();it!=m_ShortTimePointList.end();++it)

  0005b	3b d0		 cmp	 edx, eax
  0005d	74 48		 je	 SHORT $LN3@Update
; File C:\Program Files (x86)\Microsoft Visual Studio\2019\Professional\VC\Tools\MSVC\14.29.30133\include\xmemory

; 1163 :         return _Myproxy ? _Myproxy->_Mycont : nullptr;

  0005f	85 ff		 test	 edi, edi
  00061	74 04		 je	 SHORT $LN78@Update
  00063	8b 07		 mov	 eax, DWORD PTR [edi]
  00065	eb 02		 jmp	 SHORT $LN79@Update
$LN78@Update:
  00067	33 c0		 xor	 eax, eax
$LN79@Update:
; File C:\Program Files (x86)\Microsoft Visual Studio\2019\Professional\VC\Tools\MSVC\14.29.30133\include\deque

; 565  :         return (_Off / _Block_size) & (_Mapsize - 1);

  00069	8b 48 08	 mov	 ecx, DWORD PTR [eax+8]
; File C:\Users\murat\Desktop\Siveps2-1-99-Project\source\client\Client\GameLib\WeaponTrace.cpp

; 39   : 			it->first += fElapsedTime;

  0006c	0f 28 c1	 movaps	 xmm0, xmm1
; File C:\Program Files (x86)\Microsoft Visual Studio\2019\Professional\VC\Tools\MSVC\14.29.30133\include\deque

; 270  :         return _Mycont->_Map[_Block][_Off];

  0006f	8b 40 04	 mov	 eax, DWORD PTR [eax+4]

; 565  :         return (_Off / _Block_size) & (_Mapsize - 1);

  00072	49		 dec	 ecx
  00073	23 ca		 and	 ecx, edx

; 270  :         return _Mycont->_Map[_Block][_Off];

  00075	8b 04 88	 mov	 eax, DWORD PTR [eax+ecx*4]
; File C:\Users\murat\Desktop\Siveps2-1-99-Project\source\client\Client\GameLib\WeaponTrace.cpp

; 39   : 			it->first += fElapsedTime;

  00078	f3 0f 58 00	 addss	 xmm0, DWORD PTR [eax]
  0007c	f3 0f 11 00	 movss	 DWORD PTR [eax], xmm0
; File C:\Program Files (x86)\Microsoft Visual Studio\2019\Professional\VC\Tools\MSVC\14.29.30133\include\xmemory

; 1163 :         return _Myproxy ? _Myproxy->_Mycont : nullptr;

  00080	85 ff		 test	 edi, edi
  00082	74 04		 je	 SHORT $LN90@Update
  00084	8b 07		 mov	 eax, DWORD PTR [edi]
  00086	eb 02		 jmp	 SHORT $LN91@Update
$LN90@Update:
  00088	33 c0		 xor	 eax, eax
$LN91@Update:
; File C:\Program Files (x86)\Microsoft Visual Studio\2019\Professional\VC\Tools\MSVC\14.29.30133\include\deque

; 565  :         return (_Off / _Block_size) & (_Mapsize - 1);

  0008a	8b 48 08	 mov	 ecx, DWORD PTR [eax+8]

; 457  :         return pointer_traits<pointer>::pointer_to(**this);

  0008d	8b 40 04	 mov	 eax, DWORD PTR [eax+4]

; 565  :         return (_Off / _Block_size) & (_Mapsize - 1);

  00090	49		 dec	 ecx
  00091	23 ca		 and	 ecx, edx
; File C:\Users\murat\Desktop\Siveps2-1-99-Project\source\client\Client\GameLib\WeaponTrace.cpp

; 40   : 			if (it->first>m_fLifeTime)

  00093	42		 inc	 edx
; File C:\Program Files (x86)\Microsoft Visual Studio\2019\Professional\VC\Tools\MSVC\14.29.30133\include\deque

; 457  :         return pointer_traits<pointer>::pointer_to(**this);

  00094	8b 04 88	 mov	 eax, DWORD PTR [eax+ecx*4]
; File C:\Users\murat\Desktop\Siveps2-1-99-Project\source\client\Client\GameLib\WeaponTrace.cpp

; 40   : 			if (it->first>m_fLifeTime)

  00097	f3 0f 10 00	 movss	 xmm0, DWORD PTR [eax]
  0009b	0f 2f 46 3c	 comiss	 xmm0, DWORD PTR [esi+60]
  0009f	76 b1		 jbe	 SHORT $LL51@Update
; File C:\Program Files (x86)\Microsoft Visual Studio\2019\Professional\VC\Tools\MSVC\14.29.30133\include\deque

; 284  :         ++_Myoff;

  000a1	8b 4e 18	 mov	 ecx, DWORD PTR [esi+24]
  000a4	8b 5e 14	 mov	 ebx, DWORD PTR [esi+20]
$LN3@Update:

; 904  :         return iterator(_Myoff() + _Mysize(), _STD addressof(_Get_data()));

  000a7	8d 04 0b	 lea	 eax, DWORD PTR [ebx+ecx]
  000aa	89 85 b8 fe ff
	ff		 mov	 DWORD PTR tv1736[ebp], eax
; File C:\Users\murat\Desktop\Siveps2-1-99-Project\source\client\Client\GameLib\WeaponTrace.cpp

; 46   : 		if (it!=m_ShortTimePointList.end())

  000b0	3b d0		 cmp	 edx, eax
  000b2	74 49		 je	 SHORT $LN10@Update
; File C:\Program Files (x86)\Microsoft Visual Studio\2019\Professional\VC\Tools\MSVC\14.29.30133\include\xmemory

; 1154 :         if (_Parent) { // have a parent, do adoption

  000b4	8d 4e 08	 lea	 ecx, DWORD PTR [esi+8]
  000b7	85 c9		 test	 ecx, ecx
  000b9	74 04		 je	 SHORT $LN135@Update

; 1155 :             _Myproxy = _Parent->_Myproxy;

  000bb	8b 19		 mov	 ebx, DWORD PTR [ecx]

; 1156 :         } else { // no future parent, just disown current parent

  000bd	eb 02		 jmp	 SHORT $LN136@Update
$LN135@Update:

; 1157 :             _Myproxy = nullptr;

  000bf	33 db		 xor	 ebx, ebx
$LN136@Update:
; File C:\Users\murat\Desktop\Siveps2-1-99-Project\source\client\Client\GameLib\WeaponTrace.cpp

; 47   : 		m_ShortTimePointList.erase(it,m_ShortTimePointList.end());

  000c1	83 ec 0c	 sub	 esp, 12			; 0000000cH
  000c4	8b c4		 mov	 eax, esp
  000c6	83 ec 0c	 sub	 esp, 12			; 0000000cH
; File C:\Program Files (x86)\Microsoft Visual Studio\2019\Professional\VC\Tools\MSVC\14.29.30133\include\xmemory

; 1125 :         _Myproxy = _Right._Myproxy;

  000c9	89 18		 mov	 DWORD PTR [eax], ebx
  000cb	8b 9d b8 fe ff
	ff		 mov	 ebx, DWORD PTR tv1736[ebp]

; 1169 :     mutable _Iterator_base12* _Mynextiter = nullptr;

  000d1	c7 40 04 00 00
	00 00		 mov	 DWORD PTR [eax+4], 0
  000d8	89 58 08	 mov	 DWORD PTR [eax+8], ebx
; File C:\Users\murat\Desktop\Siveps2-1-99-Project\source\client\Client\GameLib\WeaponTrace.cpp

; 47   : 		m_ShortTimePointList.erase(it,m_ShortTimePointList.end());

  000db	8b c4		 mov	 eax, esp
; File C:\Program Files (x86)\Microsoft Visual Studio\2019\Professional\VC\Tools\MSVC\14.29.30133\include\xmemory

; 1169 :     mutable _Iterator_base12* _Mynextiter = nullptr;

  000dd	c7 40 04 00 00
	00 00		 mov	 DWORD PTR [eax+4], 0

; 1125 :         _Myproxy = _Right._Myproxy;

  000e4	89 38		 mov	 DWORD PTR [eax], edi
  000e6	89 50 08	 mov	 DWORD PTR [eax+8], edx
; File C:\Users\murat\Desktop\Siveps2-1-99-Project\source\client\Client\GameLib\WeaponTrace.cpp

; 47   : 		m_ShortTimePointList.erase(it,m_ShortTimePointList.end());

  000e9	8d 85 a8 fe ff
	ff		 lea	 eax, DWORD PTR $T5[ebp]
  000ef	50		 push	 eax
  000f0	e8 00 00 00 00	 call	 ?erase@?$deque@U?$pair@MUD3DXVECTOR3@@@std@@V?$allocator@U?$pair@MUD3DXVECTOR3@@@std@@@2@@std@@QAE?AV?$_Deque_iterator@V?$_Deque_val@U?$_Deque_simple_types@U?$pair@MUD3DXVECTOR3@@@std@@@std@@@std@@@2@V?$_Deque_const_iterator@V?$_Deque_val@U?$_Deque_simple_types@U?$pair@MUD3DXVECTOR3@@@std@@@std@@@std@@@2@0@Z ; std::deque<std::pair<float,D3DXVECTOR3>,std::allocator<std::pair<float,D3DXVECTOR3> > >::erase
  000f5	f3 0f 10 8d b4
	fe ff ff	 movss	 xmm1, DWORD PTR _fElapsedTime$[ebp]
$LN10@Update:
; File C:\Program Files (x86)\Microsoft Visual Studio\2019\Professional\VC\Tools\MSVC\14.29.30133\include\xmemory

; 1155 :             _Myproxy = _Parent->_Myproxy;

  000fd	8b 7e 1c	 mov	 edi, DWORD PTR [esi+28]
  00100	8b 56 28	 mov	 edx, DWORD PTR [esi+40]
$LL173@Update:
; File C:\Program Files (x86)\Microsoft Visual Studio\2019\Professional\VC\Tools\MSVC\14.29.30133\include\deque

; 904  :         return iterator(_Myoff() + _Mysize(), _STD addressof(_Get_data()));

  00103	8b 4e 2c	 mov	 ecx, DWORD PTR [esi+44]
  00106	8b 5e 28	 mov	 ebx, DWORD PTR [esi+40]
  00109	8d 04 0b	 lea	 eax, DWORD PTR [ebx+ecx]
; File C:\Users\murat\Desktop\Siveps2-1-99-Project\source\client\Client\GameLib\WeaponTrace.cpp

; 48   : 		for(it=m_LongTimePointList.begin();it!=m_LongTimePointList.end();++it)

  0010c	3b d0		 cmp	 edx, eax
  0010e	74 48		 je	 SHORT $LN6@Update
; File C:\Program Files (x86)\Microsoft Visual Studio\2019\Professional\VC\Tools\MSVC\14.29.30133\include\xmemory

; 1163 :         return _Myproxy ? _Myproxy->_Mycont : nullptr;

  00110	85 ff		 test	 edi, edi
  00112	74 04		 je	 SHORT $LN200@Update
  00114	8b 07		 mov	 eax, DWORD PTR [edi]
  00116	eb 02		 jmp	 SHORT $LN201@Update
$LN200@Update:
  00118	33 c0		 xor	 eax, eax
$LN201@Update:
; File C:\Program Files (x86)\Microsoft Visual Studio\2019\Professional\VC\Tools\MSVC\14.29.30133\include\deque

; 565  :         return (_Off / _Block_size) & (_Mapsize - 1);

  0011a	8b 48 08	 mov	 ecx, DWORD PTR [eax+8]
; File C:\Users\murat\Desktop\Siveps2-1-99-Project\source\client\Client\GameLib\WeaponTrace.cpp

; 50   : 			it->first += fElapsedTime;

  0011d	0f 28 c1	 movaps	 xmm0, xmm1
; File C:\Program Files (x86)\Microsoft Visual Studio\2019\Professional\VC\Tools\MSVC\14.29.30133\include\deque

; 270  :         return _Mycont->_Map[_Block][_Off];

  00120	8b 40 04	 mov	 eax, DWORD PTR [eax+4]

; 565  :         return (_Off / _Block_size) & (_Mapsize - 1);

  00123	49		 dec	 ecx
  00124	23 ca		 and	 ecx, edx

; 270  :         return _Mycont->_Map[_Block][_Off];

  00126	8b 04 88	 mov	 eax, DWORD PTR [eax+ecx*4]
; File C:\Users\murat\Desktop\Siveps2-1-99-Project\source\client\Client\GameLib\WeaponTrace.cpp

; 50   : 			it->first += fElapsedTime;

  00129	f3 0f 58 00	 addss	 xmm0, DWORD PTR [eax]
  0012d	f3 0f 11 00	 movss	 DWORD PTR [eax], xmm0
; File C:\Program Files (x86)\Microsoft Visual Studio\2019\Professional\VC\Tools\MSVC\14.29.30133\include\xmemory

; 1163 :         return _Myproxy ? _Myproxy->_Mycont : nullptr;

  00131	85 ff		 test	 edi, edi
  00133	74 04		 je	 SHORT $LN212@Update
  00135	8b 07		 mov	 eax, DWORD PTR [edi]
  00137	eb 02		 jmp	 SHORT $LN213@Update
$LN212@Update:
  00139	33 c0		 xor	 eax, eax
$LN213@Update:
; File C:\Program Files (x86)\Microsoft Visual Studio\2019\Professional\VC\Tools\MSVC\14.29.30133\include\deque

; 565  :         return (_Off / _Block_size) & (_Mapsize - 1);

  0013b	8b 48 08	 mov	 ecx, DWORD PTR [eax+8]

; 457  :         return pointer_traits<pointer>::pointer_to(**this);

  0013e	8b 40 04	 mov	 eax, DWORD PTR [eax+4]

; 565  :         return (_Off / _Block_size) & (_Mapsize - 1);

  00141	49		 dec	 ecx
  00142	23 ca		 and	 ecx, edx
; File C:\Users\murat\Desktop\Siveps2-1-99-Project\source\client\Client\GameLib\WeaponTrace.cpp

; 51   : 			if (it->first>m_fLifeTime)

  00144	42		 inc	 edx
; File C:\Program Files (x86)\Microsoft Visual Studio\2019\Professional\VC\Tools\MSVC\14.29.30133\include\deque

; 457  :         return pointer_traits<pointer>::pointer_to(**this);

  00145	8b 04 88	 mov	 eax, DWORD PTR [eax+ecx*4]
; File C:\Users\murat\Desktop\Siveps2-1-99-Project\source\client\Client\GameLib\WeaponTrace.cpp

; 51   : 			if (it->first>m_fLifeTime)

  00148	f3 0f 10 00	 movss	 xmm0, DWORD PTR [eax]
  0014c	0f 2f 46 3c	 comiss	 xmm0, DWORD PTR [esi+60]
  00150	76 b1		 jbe	 SHORT $LL173@Update
; File C:\Program Files (x86)\Microsoft Visual Studio\2019\Professional\VC\Tools\MSVC\14.29.30133\include\deque

; 284  :         ++_Myoff;

  00152	8b 4e 2c	 mov	 ecx, DWORD PTR [esi+44]
  00155	8b 5e 28	 mov	 ebx, DWORD PTR [esi+40]
$LN6@Update:

; 904  :         return iterator(_Myoff() + _Mysize(), _STD addressof(_Get_data()));

  00158	8d 04 19	 lea	 eax, DWORD PTR [ecx+ebx]
  0015b	89 85 b8 fe ff
	ff		 mov	 DWORD PTR tv1735[ebp], eax
; File C:\Users\murat\Desktop\Siveps2-1-99-Project\source\client\Client\GameLib\WeaponTrace.cpp

; 57   : 		if (it!=m_LongTimePointList.end())

  00161	8d 5e 1c	 lea	 ebx, DWORD PTR [esi+28]
  00164	3b d0		 cmp	 edx, eax
  00166	74 40		 je	 SHORT $LN12@Update
; File C:\Program Files (x86)\Microsoft Visual Studio\2019\Professional\VC\Tools\MSVC\14.29.30133\include\xmemory

; 1154 :         if (_Parent) { // have a parent, do adoption

  00168	85 db		 test	 ebx, ebx
  0016a	74 04		 je	 SHORT $LN257@Update

; 1155 :             _Myproxy = _Parent->_Myproxy;

  0016c	8b 0b		 mov	 ecx, DWORD PTR [ebx]

; 1156 :         } else { // no future parent, just disown current parent

  0016e	eb 02		 jmp	 SHORT $LN258@Update
$LN257@Update:

; 1157 :             _Myproxy = nullptr;

  00170	33 c9		 xor	 ecx, ecx
$LN258@Update:
; File C:\Users\murat\Desktop\Siveps2-1-99-Project\source\client\Client\GameLib\WeaponTrace.cpp

; 58   : 			m_LongTimePointList.erase(it, m_LongTimePointList.end());

  00172	83 ec 0c	 sub	 esp, 12			; 0000000cH
  00175	8b c4		 mov	 eax, esp
  00177	83 ec 0c	 sub	 esp, 12			; 0000000cH
; File C:\Program Files (x86)\Microsoft Visual Studio\2019\Professional\VC\Tools\MSVC\14.29.30133\include\xmemory

; 1125 :         _Myproxy = _Right._Myproxy;

  0017a	89 08		 mov	 DWORD PTR [eax], ecx
  0017c	8b 8d b8 fe ff
	ff		 mov	 ecx, DWORD PTR tv1735[ebp]
  00182	89 48 08	 mov	 DWORD PTR [eax+8], ecx
; File C:\Users\murat\Desktop\Siveps2-1-99-Project\source\client\Client\GameLib\WeaponTrace.cpp

; 58   : 			m_LongTimePointList.erase(it, m_LongTimePointList.end());

  00185	8b cb		 mov	 ecx, ebx
; File C:\Program Files (x86)\Microsoft Visual Studio\2019\Professional\VC\Tools\MSVC\14.29.30133\include\xmemory

; 1169 :     mutable _Iterator_base12* _Mynextiter = nullptr;

  00187	c7 40 04 00 00
	00 00		 mov	 DWORD PTR [eax+4], 0
; File C:\Users\murat\Desktop\Siveps2-1-99-Project\source\client\Client\GameLib\WeaponTrace.cpp

; 58   : 			m_LongTimePointList.erase(it, m_LongTimePointList.end());

  0018e	8b c4		 mov	 eax, esp
; File C:\Program Files (x86)\Microsoft Visual Studio\2019\Professional\VC\Tools\MSVC\14.29.30133\include\xmemory

; 1169 :     mutable _Iterator_base12* _Mynextiter = nullptr;

  00190	c7 40 04 00 00
	00 00		 mov	 DWORD PTR [eax+4], 0

; 1125 :         _Myproxy = _Right._Myproxy;

  00197	89 38		 mov	 DWORD PTR [eax], edi
  00199	89 50 08	 mov	 DWORD PTR [eax+8], edx
; File C:\Users\murat\Desktop\Siveps2-1-99-Project\source\client\Client\GameLib\WeaponTrace.cpp

; 58   : 			m_LongTimePointList.erase(it, m_LongTimePointList.end());

  0019c	8d 85 a8 fe ff
	ff		 lea	 eax, DWORD PTR $T4[ebp]
  001a2	50		 push	 eax
  001a3	e8 00 00 00 00	 call	 ?erase@?$deque@U?$pair@MUD3DXVECTOR3@@@std@@V?$allocator@U?$pair@MUD3DXVECTOR3@@@std@@@2@@std@@QAE?AV?$_Deque_iterator@V?$_Deque_val@U?$_Deque_simple_types@U?$pair@MUD3DXVECTOR3@@@std@@@std@@@std@@@2@V?$_Deque_const_iterator@V?$_Deque_val@U?$_Deque_simple_types@U?$pair@MUD3DXVECTOR3@@@std@@@std@@@std@@@2@0@Z ; std::deque<std::pair<float,D3DXVECTOR3>,std::allocator<std::pair<float,D3DXVECTOR3> > >::erase
$LN12@Update:

; 59   : 	}
; 60   : 
; 61   : 	if (m_isPlaying && m_fz>=0.0001f)

  001a8	83 be 80 00 00
	00 00		 cmp	 DWORD PTR [esi+128], 0
  001af	0f 84 04 02 00
	00		 je	 $LN14@Update
  001b5	f3 0f 10 46 74	 movss	 xmm0, DWORD PTR [esi+116]
  001ba	0f 2f 05 00 00
	00 00		 comiss	 xmm0, DWORD PTR __real@38d1b717
  001c1	0f 82 f2 01 00
	00		 jb	 $LN14@Update

; 62   : 	{
; 63   : 		D3DXMATRIX * pMatrix;
; 64   : 		if (m_pInstance->GetCompositeBoneMatrix(m_dwModelInstanceIndex, m_iBoneIndex, &pMatrix))

  001c7	8b 4e 44	 mov	 ecx, DWORD PTR [esi+68]
  001ca	8d 85 b8 fe ff
	ff		 lea	 eax, DWORD PTR _pMatrix$7[ebp]
  001d0	50		 push	 eax
  001d1	ff b6 88 00 00
	00		 push	 DWORD PTR [esi+136]
  001d7	ff 76 48	 push	 DWORD PTR [esi+72]
  001da	e8 00 00 00 00	 call	 ?GetCompositeBoneMatrix@CGraphicThingInstance@@QAEHKKPAPAUD3DXMATRIX@@@Z ; CGraphicThingInstance::GetCompositeBoneMatrix
  001df	85 c0		 test	 eax, eax
  001e1	0f 84 d2 01 00
	00		 je	 $LN14@Update

; 65   : 		{
; 66   : 			D3DXMATRIX * pBoneMat;
; 67   : 			m_pInstance->GetBoneMatrix(m_dwModelInstanceIndex, m_iBoneIndex, &pBoneMat);

  001e7	8b 4e 44	 mov	 ecx, DWORD PTR [esi+68]
  001ea	8d 85 b4 fe ff
	ff		 lea	 eax, DWORD PTR _pBoneMat$6[ebp]
  001f0	50		 push	 eax
  001f1	ff b6 88 00 00
	00		 push	 DWORD PTR [esi+136]
  001f7	ff 76 48	 push	 DWORD PTR [esi+72]
  001fa	e8 00 00 00 00	 call	 ?GetBoneMatrix@CGraphicThingInstance@@QAEHKKPAPAUD3DXMATRIX@@@Z ; CGraphicThingInstance::GetBoneMatrix

; 68   : 			D3DXMATRIX mat = *pMatrix;

  001ff	8b 85 b8 fe ff
	ff		 mov	 eax, DWORD PTR _pMatrix$7[ebp]

; 69   : 			mat._41 = pBoneMat->_41;
; 70   : 			mat._42 = pBoneMat->_42;
; 71   : 			mat._43 = pBoneMat->_43;
; 72   : 			//   .
; 73   : 			D3DXMATRIX matPoint;
; 74   : 			D3DXMATRIX matTranslation;
; 75   : 			D3DXMATRIX matRotation;
; 76   : 
; 77   : 			//D3DXMatrixTranslation(&matTranslation, 0.0f, m_fLength, 0.0f);
; 78   : 			D3DXMatrixTranslation(&matTranslation, 0.0f, 0.0f, m_fLength*fReachScale);

  00205	83 ec 0c	 sub	 esp, 12			; 0000000cH
  00208	0f 10 00	 movups	 xmm0, XMMWORD PTR [eax]
  0020b	0f 11 85 7c ff
	ff ff		 movups	 XMMWORD PTR _mat$11[ebp], xmm0
  00212	0f 10 40 10	 movups	 xmm0, XMMWORD PTR [eax+16]
  00216	0f 11 45 8c	 movups	 XMMWORD PTR _mat$11[ebp+16], xmm0
  0021a	0f 10 40 20	 movups	 xmm0, XMMWORD PTR [eax+32]
  0021e	0f 11 45 9c	 movups	 XMMWORD PTR _mat$11[ebp+32], xmm0
  00222	0f 10 40 30	 movups	 xmm0, XMMWORD PTR [eax+48]
  00226	8b 85 b4 fe ff
	ff		 mov	 eax, DWORD PTR _pBoneMat$6[ebp]
  0022c	0f 11 45 ac	 movups	 XMMWORD PTR _mat$11[ebp+48], xmm0
  00230	f3 0f 10 40 30	 movss	 xmm0, DWORD PTR [eax+48]
  00235	f3 0f 11 45 ac	 movss	 DWORD PTR _mat$11[ebp+48], xmm0
  0023a	f3 0f 10 40 34	 movss	 xmm0, DWORD PTR [eax+52]
  0023f	f3 0f 11 45 b0	 movss	 DWORD PTR _mat$11[ebp+52], xmm0
  00244	f3 0f 10 40 38	 movss	 xmm0, DWORD PTR [eax+56]
  00249	8d 85 fc fe ff
	ff		 lea	 eax, DWORD PTR _matTranslation$9[ebp]
  0024f	f3 0f 11 45 b4	 movss	 DWORD PTR _mat$11[ebp+56], xmm0
  00254	f3 0f 10 45 08	 movss	 xmm0, DWORD PTR _fReachScale$[ebp]
  00259	f3 0f 59 46 7c	 mulss	 xmm0, DWORD PTR [esi+124]
  0025e	f3 0f 11 44 24
	08		 movss	 DWORD PTR [esp+8], xmm0
  00264	c7 44 24 04 00
	00 00 00	 mov	 DWORD PTR [esp+4], 0
  0026c	c7 04 24 00 00
	00 00		 mov	 DWORD PTR [esp], 0
  00273	50		 push	 eax
  00274	e8 00 00 00 00	 call	 _D3DXMatrixTranslation@16

; 79   : 			D3DXMatrixRotationZ(&matRotation, D3DXToRadian(m_fRotation));

  00279	f3 0f 10 46 78	 movss	 xmm0, DWORD PTR [esi+120]
  0027e	8d 85 3c ff ff
	ff		 lea	 eax, DWORD PTR _matRotation$10[ebp]
  00284	f3 0f 59 05 00
	00 00 00	 mulss	 xmm0, DWORD PTR __real@3c8efa35
  0028c	51		 push	 ecx
  0028d	f3 0f 11 04 24	 movss	 DWORD PTR [esp], xmm0
  00292	50		 push	 eax
  00293	e8 00 00 00 00	 call	 _D3DXMatrixRotationZ@8
; File C:\Users\murat\Desktop\Siveps2-1-99-Project\source\client\extern\include\d3dx8math.inl

; 580  :     D3DXMatrixMultiply(&matT, this, &mat);

  00298	8d 85 3c ff ff
	ff		 lea	 eax, DWORD PTR _matRotation$10[ebp]
  0029e	50		 push	 eax
  0029f	8d 85 7c ff ff
	ff		 lea	 eax, DWORD PTR _mat$11[ebp]
  002a5	50		 push	 eax
  002a6	8d 45 bc	 lea	 eax, DWORD PTR $T13[ebp]
  002a9	50		 push	 eax
  002aa	e8 00 00 00 00	 call	 _D3DXMatrixMultiply@12
; File C:\Users\murat\Desktop\Siveps2-1-99-Project\source\client\Client\GameLib\WeaponTrace.cpp

; 82   : 			matPoint = /**pMatrix*/mat * matRotation;

  002af	0f 10 45 bc	 movups	 xmm0, XMMWORD PTR $T13[ebp]

; 89   : 			m_ShortTimePointList.push_front(

  002b3	8d 85 a4 fe ff
	ff		 lea	 eax, DWORD PTR $T3[ebp]
; File C:\Program Files (x86)\Microsoft Visual Studio\2019\Professional\VC\Tools\MSVC\14.29.30133\include\utility

; 193  :         : first(_STD forward<_Other1>(_Val1)), second(_STD forward<_Other2>(_Val2)) {}

  002b9	c7 85 a4 fe ff
	ff 00 00 00 00	 mov	 DWORD PTR $T3[ebp], 0
; File C:\Users\murat\Desktop\Siveps2-1-99-Project\source\client\Client\GameLib\WeaponTrace.cpp

; 82   : 			matPoint = /**pMatrix*/mat * matRotation;

  002c3	0f 10 4d ec	 movups	 xmm1, XMMWORD PTR $T13[ebp+48]

; 89   : 			m_ShortTimePointList.push_front(

  002c7	50		 push	 eax
  002c8	0f 11 85 bc fe
	ff ff		 movups	 XMMWORD PTR _matPoint$8[ebp], xmm0
  002cf	8d 4e 08	 lea	 ecx, DWORD PTR [esi+8]
  002d2	0f 10 45 cc	 movups	 xmm0, XMMWORD PTR $T13[ebp+16]
  002d6	0f 11 8d ec fe
	ff ff		 movups	 XMMWORD PTR _matPoint$8[ebp+48], xmm1
  002dd	0f 11 85 cc fe
	ff ff		 movups	 XMMWORD PTR _matPoint$8[ebp+16], xmm0
  002e4	0f 10 45 dc	 movups	 xmm0, XMMWORD PTR $T13[ebp+32]
  002e8	0f 11 85 dc fe
	ff ff		 movups	 XMMWORD PTR _matPoint$8[ebp+32], xmm0
  002ef	0f 28 c1	 movaps	 xmm0, xmm1
  002f2	f3 0f 58 46 6c	 addss	 xmm0, DWORD PTR [esi+108]
; File C:\Program Files (x86)\Microsoft Visual Studio\2019\Professional\VC\Tools\MSVC\14.29.30133\include\utility

; 193  :         : first(_STD forward<_Other1>(_Val1)), second(_STD forward<_Other2>(_Val2)) {}

  002f7	f3 0f 11 85 a8
	fe ff ff	 movss	 DWORD PTR $T3[ebp+4], xmm0
; File C:\Users\murat\Desktop\Siveps2-1-99-Project\source\client\Client\GameLib\WeaponTrace.cpp

; 89   : 			m_ShortTimePointList.push_front(

  002ff	0f 28 c1	 movaps	 xmm0, xmm1
  00302	0f c6 c1 55	 shufps	 xmm0, xmm1, 85		; 00000055H
  00306	f3 0f 58 46 70	 addss	 xmm0, DWORD PTR [esi+112]
  0030b	0f c6 c9 aa	 shufps	 xmm1, xmm1, 170		; 000000aaH
  0030f	f3 0f 58 4e 74	 addss	 xmm1, DWORD PTR [esi+116]
; File C:\Program Files (x86)\Microsoft Visual Studio\2019\Professional\VC\Tools\MSVC\14.29.30133\include\utility

; 193  :         : first(_STD forward<_Other1>(_Val1)), second(_STD forward<_Other2>(_Val2)) {}

  00314	f3 0f 11 85 ac
	fe ff ff	 movss	 DWORD PTR $T3[ebp+8], xmm0
  0031c	f3 0f 11 8d b0
	fe ff ff	 movss	 DWORD PTR $T3[ebp+12], xmm1
; File C:\Users\murat\Desktop\Siveps2-1-99-Project\source\client\Client\GameLib\WeaponTrace.cpp

; 89   : 			m_ShortTimePointList.push_front(

  00324	e8 00 00 00 00	 call	 ?push_front@?$deque@U?$pair@MUD3DXVECTOR3@@@std@@V?$allocator@U?$pair@MUD3DXVECTOR3@@@std@@@2@@std@@QAEX$$QAU?$pair@MUD3DXVECTOR3@@@2@@Z ; std::deque<std::pair<float,D3DXVECTOR3>,std::allocator<std::pair<float,D3DXVECTOR3> > >::push_front
; File C:\Users\murat\Desktop\Siveps2-1-99-Project\source\client\extern\include\d3dx8math.inl

; 580  :     D3DXMatrixMultiply(&matT, this, &mat);

  00329	8d 85 bc fe ff
	ff		 lea	 eax, DWORD PTR _matPoint$8[ebp]
  0032f	50		 push	 eax
  00330	8d 85 fc fe ff
	ff		 lea	 eax, DWORD PTR _matTranslation$9[ebp]
  00336	50		 push	 eax
  00337	8d 45 bc	 lea	 eax, DWORD PTR $T12[ebp]
  0033a	50		 push	 eax
  0033b	e8 00 00 00 00	 call	 _D3DXMatrixMultiply@12
; File C:\Users\murat\Desktop\Siveps2-1-99-Project\source\client\Client\GameLib\WeaponTrace.cpp

; 100  : 			matPoint = matTranslation * matPoint;

  00340	0f 10 45 bc	 movups	 xmm0, XMMWORD PTR $T12[ebp]
  00344	0f 11 85 bc fe
	ff ff		 movups	 XMMWORD PTR _matPoint$8[ebp], xmm0
  0034b	0f 10 45 cc	 movups	 xmm0, XMMWORD PTR $T12[ebp+16]
  0034f	0f 11 85 cc fe
	ff ff		 movups	 XMMWORD PTR _matPoint$8[ebp+16], xmm0
  00356	0f 10 45 dc	 movups	 xmm0, XMMWORD PTR $T12[ebp+32]
  0035a	0f 11 85 dc fe
	ff ff		 movups	 XMMWORD PTR _matPoint$8[ebp+32], xmm0
  00361	0f 10 4d ec	 movups	 xmm1, XMMWORD PTR $T12[ebp+48]

; 106  : 			m_LongTimePointList.push_front(

  00365	8d 85 a4 fe ff
	ff		 lea	 eax, DWORD PTR $T2[ebp]
; File C:\Program Files (x86)\Microsoft Visual Studio\2019\Professional\VC\Tools\MSVC\14.29.30133\include\utility

; 193  :         : first(_STD forward<_Other1>(_Val1)), second(_STD forward<_Other2>(_Val2)) {}

  0036b	c7 85 a4 fe ff
	ff 00 00 00 00	 mov	 DWORD PTR $T2[ebp], 0
; File C:\Users\murat\Desktop\Siveps2-1-99-Project\source\client\Client\GameLib\WeaponTrace.cpp

; 106  : 			m_LongTimePointList.push_front(

  00375	50		 push	 eax
  00376	0f 28 c1	 movaps	 xmm0, xmm1
  00379	8b cb		 mov	 ecx, ebx
  0037b	f3 0f 58 46 6c	 addss	 xmm0, DWORD PTR [esi+108]
  00380	0f 11 8d ec fe
	ff ff		 movups	 XMMWORD PTR _matPoint$8[ebp+48], xmm1
; File C:\Program Files (x86)\Microsoft Visual Studio\2019\Professional\VC\Tools\MSVC\14.29.30133\include\utility

; 193  :         : first(_STD forward<_Other1>(_Val1)), second(_STD forward<_Other2>(_Val2)) {}

  00387	f3 0f 11 85 a8
	fe ff ff	 movss	 DWORD PTR $T2[ebp+4], xmm0
; File C:\Users\murat\Desktop\Siveps2-1-99-Project\source\client\Client\GameLib\WeaponTrace.cpp

; 106  : 			m_LongTimePointList.push_front(

  0038f	0f 28 c1	 movaps	 xmm0, xmm1
  00392	0f c6 c1 55	 shufps	 xmm0, xmm1, 85		; 00000055H
  00396	f3 0f 58 46 70	 addss	 xmm0, DWORD PTR [esi+112]
  0039b	0f c6 c9 aa	 shufps	 xmm1, xmm1, 170		; 000000aaH
  0039f	f3 0f 58 4e 74	 addss	 xmm1, DWORD PTR [esi+116]
; File C:\Program Files (x86)\Microsoft Visual Studio\2019\Professional\VC\Tools\MSVC\14.29.30133\include\utility

; 193  :         : first(_STD forward<_Other1>(_Val1)), second(_STD forward<_Other2>(_Val2)) {}

  003a4	f3 0f 11 85 ac
	fe ff ff	 movss	 DWORD PTR $T2[ebp+8], xmm0
  003ac	f3 0f 11 8d b0
	fe ff ff	 movss	 DWORD PTR $T2[ebp+12], xmm1
; File C:\Users\murat\Desktop\Siveps2-1-99-Project\source\client\Client\GameLib\WeaponTrace.cpp

; 106  : 			m_LongTimePointList.push_front(

  003b4	e8 00 00 00 00	 call	 ?push_front@?$deque@U?$pair@MUD3DXVECTOR3@@@std@@V?$allocator@U?$pair@MUD3DXVECTOR3@@@std@@@2@@std@@QAEX$$QAU?$pair@MUD3DXVECTOR3@@@2@@Z ; std::deque<std::pair<float,D3DXVECTOR3>,std::allocator<std::pair<float,D3DXVECTOR3> > >::push_front
$LN14@Update:

; 107  : 				TTimePoint(
; 108  : 					0.0f,
; 109  : 					D3DXVECTOR3(
; 110  : 						m_fx + matPoint._41,
; 111  : 						m_fy + matPoint._42,
; 112  : 						m_fz + matPoint._43
; 113  : 						)
; 114  : 					)
; 115  : 				);
; 116  : 		}
; 117  : 	}
; 118  : 
; 119  : 	//if (!BuildVertex())
; 120  : 	//	return;
; 121  : }

  003b9	8b 4d fc	 mov	 ecx, DWORD PTR __$ArrayPad$[ebp]
  003bc	5f		 pop	 edi
  003bd	5e		 pop	 esi
  003be	33 cd		 xor	 ecx, ebp
  003c0	5b		 pop	 ebx
  003c1	e8 00 00 00 00	 call	 @__security_check_cookie@4
  003c6	8b e5		 mov	 esp, ebp
  003c8	5d		 pop	 ebp
  003c9	c2 04 00	 ret	 4
?Update@CWeaponTrace@@QAEXM@Z ENDP			; CWeaponTrace::Update
_TEXT	ENDS
; Function compile flags: /Ogtp
; File C:\Users\murat\Desktop\Siveps2-1-99-Project\source\client\Client\GameLib\WeaponTrace.cpp
;	COMDAT ?SetSamplingTime@CWeaponTrace@@QAEXM@Z
_TEXT	SEGMENT
_fSamplingTime$ = 8					; size = 4
?SetSamplingTime@CWeaponTrace@@QAEXM@Z PROC		; CWeaponTrace::SetSamplingTime, COMDAT
; _this$ = ecx

; 419  : {

  00000	55		 push	 ebp
  00001	8b ec		 mov	 ebp, esp

; 420  : 	m_fSamplingTime = fSamplingTime;

  00003	f3 0f 10 45 08	 movss	 xmm0, DWORD PTR _fSamplingTime$[ebp]
  00008	f3 0f 11 41 40	 movss	 DWORD PTR [ecx+64], xmm0

; 421  : }

  0000d	5d		 pop	 ebp
  0000e	c2 04 00	 ret	 4
?SetSamplingTime@CWeaponTrace@@QAEXM@Z ENDP		; CWeaponTrace::SetSamplingTime
_TEXT	ENDS
; Function compile flags: /Ogtp
; File C:\Users\murat\Desktop\Siveps2-1-99-Project\source\client\Client\GameLib\WeaponTrace.cpp
;	COMDAT ?SetLifeTime@CWeaponTrace@@QAEXM@Z
_TEXT	SEGMENT
_fLifeTime$ = 8						; size = 4
?SetLifeTime@CWeaponTrace@@QAEXM@Z PROC			; CWeaponTrace::SetLifeTime, COMDAT
; _this$ = ecx

; 414  : {

  00000	55		 push	 ebp
  00001	8b ec		 mov	 ebp, esp

; 415  : 	m_fLifeTime = fLifeTime;

  00003	f3 0f 10 45 08	 movss	 xmm0, DWORD PTR _fLifeTime$[ebp]
  00008	f3 0f 11 41 3c	 movss	 DWORD PTR [ecx+60], xmm0

; 416  : }

  0000d	5d		 pop	 ebp
  0000e	c2 04 00	 ret	 4
?SetLifeTime@CWeaponTrace@@QAEXM@Z ENDP			; CWeaponTrace::SetLifeTime
_TEXT	ENDS
; Function compile flags: /Ogtp
; File C:\Users\murat\Desktop\Siveps2-1-99-Project\source\client\Client\GameLib\WeaponTrace.cpp
;	COMDAT ?SetRotation@CWeaponTrace@@QAEXM@Z
_TEXT	SEGMENT
_fRotation$ = 8						; size = 4
?SetRotation@CWeaponTrace@@QAEXM@Z PROC			; CWeaponTrace::SetRotation, COMDAT
; _this$ = ecx

; 409  : {

  00000	55		 push	 ebp
  00001	8b ec		 mov	 ebp, esp

; 410  : 	m_fRotation = fRotation;

  00003	f3 0f 10 45 08	 movss	 xmm0, DWORD PTR _fRotation$[ebp]
  00008	f3 0f 11 41 78	 movss	 DWORD PTR [ecx+120], xmm0

; 411  : }

  0000d	5d		 pop	 ebp
  0000e	c2 04 00	 ret	 4
?SetRotation@CWeaponTrace@@QAEXM@Z ENDP			; CWeaponTrace::SetRotation
_TEXT	ENDS
; Function compile flags: /Ogtp
; File C:\Users\murat\Desktop\Siveps2-1-99-Project\source\client\Client\GameLib\WeaponTrace.cpp
;	COMDAT ?SetPosition@CWeaponTrace@@QAEXMMM@Z
_TEXT	SEGMENT
_fx$ = 8						; size = 4
_fy$ = 12						; size = 4
_fz$ = 16						; size = 4
?SetPosition@CWeaponTrace@@QAEXMMM@Z PROC		; CWeaponTrace::SetPosition, COMDAT
; _this$ = ecx

; 402  : {

  00000	55		 push	 ebp
  00001	8b ec		 mov	 ebp, esp

; 403  : 	m_fx = fx;

  00003	f3 0f 10 45 08	 movss	 xmm0, DWORD PTR _fx$[ebp]
  00008	f3 0f 11 41 6c	 movss	 DWORD PTR [ecx+108], xmm0

; 404  : 	m_fy = fy;

  0000d	f3 0f 10 45 0c	 movss	 xmm0, DWORD PTR _fy$[ebp]
  00012	f3 0f 11 41 70	 movss	 DWORD PTR [ecx+112], xmm0

; 405  : 	m_fz = fz;

  00017	f3 0f 10 45 10	 movss	 xmm0, DWORD PTR _fz$[ebp]
  0001c	f3 0f 11 41 74	 movss	 DWORD PTR [ecx+116], xmm0

; 406  : }

  00021	5d		 pop	 ebp
  00022	c2 0c 00	 ret	 12			; 0000000cH
?SetPosition@CWeaponTrace@@QAEXMMM@Z ENDP		; CWeaponTrace::SetPosition
_TEXT	ENDS
; Function compile flags: /Ogtp
; File C:\Users\murat\Desktop\Siveps2-1-99-Project\source\client\Client\GameLib\WeaponTrace.cpp
; File C:\Users\murat\Desktop\Siveps2-1-99-Project\source\client\extern\include\d3dx8math.inl
; File C:\Users\murat\Desktop\Siveps2-1-99-Project\source\client\Client\GameLib\WeaponTrace.cpp
; File C:\Users\murat\Desktop\Siveps2-1-99-Project\source\client\extern\include\d3dx8math.inl
; File C:\Users\murat\Desktop\Siveps2-1-99-Project\source\client\Client\GameLib\WeaponTrace.cpp
; File C:\Users\murat\Desktop\Siveps2-1-99-Project\source\client\extern\include\d3dx8math.inl
; File C:\Users\murat\Desktop\Siveps2-1-99-Project\source\client\Client\GameLib\WeaponTrace.cpp
; File C:\Program Files (x86)\Windows Kits\10\Include\10.0.19041.0\ucrt\corecrt_math.h
; File C:\Users\murat\Desktop\Siveps2-1-99-Project\source\client\Client\GameLib\WeaponTrace.cpp
; File C:\Program Files (x86)\Windows Kits\10\Include\10.0.19041.0\ucrt\corecrt_math.h
; File C:\Users\murat\Desktop\Siveps2-1-99-Project\source\client\Client\GameLib\WeaponTrace.cpp
; File C:\Program Files (x86)\Windows Kits\10\Include\10.0.19041.0\ucrt\corecrt_math.h
; File C:\Users\murat\Desktop\Siveps2-1-99-Project\source\client\Client\GameLib\WeaponTrace.cpp
;	COMDAT ?SetWeaponInstance@CWeaponTrace@@QAE_NPAVCGraphicThingInstance@@KPBD@Z
_TEXT	SEGMENT
tv459 = -40						; size = 8
_pmat$ = -40						; size = 4
_v3Max$ = -28						; size = 12
_v3Min$ = -16						; size = 12
__$ArrayPad$ = -4					; size = 4
_pInstance$ = 8						; size = 4
_dwModelIndex$ = 12					; size = 4
_c_szBoneName$ = 16					; size = 4
?SetWeaponInstance@CWeaponTrace@@QAE_NPAVCGraphicThingInstance@@KPBD@Z PROC ; CWeaponTrace::SetWeaponInstance, COMDAT
; _this$ = ecx

; 373  : {

  00000	55		 push	 ebp
  00001	8b ec		 mov	 ebp, esp
  00003	83 e4 f8	 and	 esp, -8			; fffffff8H
  00006	83 ec 2c	 sub	 esp, 44			; 0000002cH
  00009	a1 00 00 00 00	 mov	 eax, DWORD PTR ___security_cookie
  0000e	33 c4		 xor	 eax, esp
  00010	89 44 24 28	 mov	 DWORD PTR __$ArrayPad$[esp+44], eax
  00014	53		 push	 ebx
  00015	56		 push	 esi
  00016	8b 75 08	 mov	 esi, DWORD PTR _pInstance$[ebp]
  00019	8b d9		 mov	 ebx, ecx
  0001b	57		 push	 edi

; 374  : 	pInstance->Update();

  0001c	8b ce		 mov	 ecx, esi
  0001e	e8 00 00 00 00	 call	 ?Update@CGraphicObjectInstance@@QAEXXZ ; CGraphicObjectInstance::Update

; 375  : 	pInstance->DeformNoSkin();

  00023	8b ce		 mov	 ecx, esi
  00025	e8 00 00 00 00	 call	 ?DeformNoSkin@CGraphicThingInstance@@QAEXXZ ; CGraphicThingInstance::DeformNoSkin

; 376  : 
; 377  : 	D3DXVECTOR3 v3Min;
; 378  : 	D3DXVECTOR3 v3Max;
; 379  : 	if (!pInstance->GetBoundBox(dwModelIndex, &v3Min, &v3Max))

  0002a	8b 7d 0c	 mov	 edi, DWORD PTR _dwModelIndex$[ebp]
  0002d	8d 44 24 1c	 lea	 eax, DWORD PTR _v3Max$[esp+56]
  00031	50		 push	 eax
  00032	8d 44 24 2c	 lea	 eax, DWORD PTR _v3Min$[esp+60]
  00036	8b ce		 mov	 ecx, esi
  00038	50		 push	 eax
  00039	57		 push	 edi
  0003a	e8 00 00 00 00	 call	 ?GetBoundBox@CGraphicThingInstance@@QAEHKPAUD3DXVECTOR3@@0@Z ; CGraphicThingInstance::GetBoundBox
  0003f	85 c0		 test	 eax, eax
  00041	75 16		 jne	 SHORT $LN2@SetWeaponI

; 380  : 		return false;

  00043	32 c0		 xor	 al, al

; 399  : }

  00045	5f		 pop	 edi
  00046	5e		 pop	 esi
  00047	5b		 pop	 ebx
  00048	8b 4c 24 28	 mov	 ecx, DWORD PTR __$ArrayPad$[esp+44]
  0004c	33 cc		 xor	 ecx, esp
  0004e	e8 00 00 00 00	 call	 @__security_check_cookie@4
  00053	8b e5		 mov	 esp, ebp
  00055	5d		 pop	 ebp
  00056	c2 0c 00	 ret	 12			; 0000000cH
$LN2@SetWeaponI:

; 381  : 
; 382  : 	m_iBoneIndex = 0;
; 383  : 	m_dwModelInstanceIndex = dwModelIndex;
; 384  : 
; 385  : 	m_pInstance = pInstance;
; 386  : 	D3DXMATRIX * pmat;
; 387  : 	pInstance->GetBoneMatrix(dwModelIndex, 0, &pmat);

  00059	8d 44 24 10	 lea	 eax, DWORD PTR _pmat$[esp+56]
  0005d	c7 83 88 00 00
	00 00 00 00 00	 mov	 DWORD PTR [ebx+136], 0
  00067	50		 push	 eax
  00068	6a 00		 push	 0
  0006a	57		 push	 edi
  0006b	8b ce		 mov	 ecx, esi
  0006d	89 7b 48	 mov	 DWORD PTR [ebx+72], edi
  00070	89 73 44	 mov	 DWORD PTR [ebx+68], esi
  00073	e8 00 00 00 00	 call	 ?GetBoneMatrix@CGraphicThingInstance@@QAEHKKPAPAUD3DXMATRIX@@@Z ; CGraphicThingInstance::GetBoneMatrix
; File C:\Users\murat\Desktop\Siveps2-1-99-Project\source\client\extern\include\d3dx8math.inl

; 180  :     x = fx;

  00078	8b 44 24 10	 mov	 eax, DWORD PTR _pmat$[esp+56]
; File C:\Users\murat\Desktop\Siveps2-1-99-Project\source\client\Client\GameLib\WeaponTrace.cpp

; 390  : 	m_fLength =

  0007c	83 ec 08	 sub	 esp, 8
; File C:\Users\murat\Desktop\Siveps2-1-99-Project\source\client\extern\include\d3dx8math.inl

; 180  :     x = fx;

  0007f	f3 0f 10 60 30	 movss	 xmm4, DWORD PTR [eax+48]

; 181  :     y = fy;

  00084	f3 0f 10 68 34	 movss	 xmm5, DWORD PTR [eax+52]

; 182  :     z = fz;

  00089	0f 28 cc	 movaps	 xmm1, xmm4
  0008c	f3 0f 5c 4c 24
	24		 subss	 xmm1, DWORD PTR _v3Max$[esp+64]
  00092	f3 0f 10 58 38	 movss	 xmm3, DWORD PTR [eax+56]

; 180  :     x = fx;

  00097	0f 28 d5	 movaps	 xmm2, xmm5
  0009a	f3 0f 5c 54 24
	28		 subss	 xmm2, DWORD PTR _v3Max$[esp+68]
  000a0	f3 0f 5c 6c 24
	34		 subss	 xmm5, DWORD PTR _v3Min$[esp+68]

; 182  :     z = fz;

  000a6	f3 0f 5c 64 24
	30		 subss	 xmm4, DWORD PTR _v3Min$[esp+64]
  000ac	0f 28 c3	 movaps	 xmm0, xmm3

; 1253 :     return pV->x * pV->x + pV->y * pV->y + pV->z * pV->z;

  000af	f3 0f 59 c9	 mulss	 xmm1, xmm1

; 181  :     y = fy;

  000b3	f3 0f 5c 44 24
	2c		 subss	 xmm0, DWORD PTR _v3Max$[esp+72]
  000b9	f3 0f 5c 5c 24
	38		 subss	 xmm3, DWORD PTR _v3Min$[esp+72]

; 182  :     z = fz;

  000bf	f3 0f 59 d2	 mulss	 xmm2, xmm2
; File C:\Users\murat\Desktop\Siveps2-1-99-Project\source\client\Client\GameLib\WeaponTrace.cpp

; 390  : 	m_fLength =

  000c3	f3 0f 59 ed	 mulss	 xmm5, xmm5
; File C:\Users\murat\Desktop\Siveps2-1-99-Project\source\client\extern\include\d3dx8math.inl

; 1253 :     return pV->x * pV->x + pV->y * pV->y + pV->z * pV->z;

  000c7	f3 0f 59 e4	 mulss	 xmm4, xmm4
  000cb	f3 0f 58 d1	 addss	 xmm2, xmm1
  000cf	f3 0f 59 c0	 mulss	 xmm0, xmm0
  000d3	f3 0f 58 ec	 addss	 xmm5, xmm4
  000d7	f3 0f 59 db	 mulss	 xmm3, xmm3
  000db	f3 0f 58 d0	 addss	 xmm2, xmm0
  000df	f3 0f 58 eb	 addss	 xmm5, xmm3
; File C:\Users\murat\Desktop\Siveps2-1-99-Project\source\client\Client\GameLib\WeaponTrace.cpp

; 390  : 	m_fLength =

  000e3	f3 0f 11 54 24
	04		 movss	 DWORD PTR [esp+4], xmm2
  000e9	f3 0f 11 2c 24	 movss	 DWORD PTR [esp], xmm5
  000ee	e8 00 00 00 00	 call	 ?fMAX@@YAMMM@Z		; fMAX
; File C:\Program Files (x86)\Windows Kits\10\Include\10.0.19041.0\ucrt\corecrt_math.h

; 758  :             return (float)sqrt(_X);

  000f3	dd 5c 24 18	 fstp	 QWORD PTR tv459[esp+64]
  000f7	f2 0f 10 44 24
	18		 movsd	 xmm0, QWORD PTR tv459[esp+64]
  000fd	0f 57 c9	 xorps	 xmm1, xmm1
; File C:\Users\murat\Desktop\Siveps2-1-99-Project\source\client\Client\GameLib\WeaponTrace.cpp

; 390  : 	m_fLength =

  00100	83 c4 08	 add	 esp, 8
; File C:\Program Files (x86)\Windows Kits\10\Include\10.0.19041.0\ucrt\corecrt_math.h

; 758  :             return (float)sqrt(_X);

  00103	66 0f 2e c8	 ucomisd xmm1, xmm0
  00107	77 06		 ja	 SHORT $LN20@SetWeaponI
  00109	f2 0f 51 c0	 sqrtsd	 xmm0, xmm0
  0010d	eb 05		 jmp	 SHORT $LN21@SetWeaponI
$LN20@SetWeaponI:
  0010f	e8 00 00 00 00	 call	 __libm_sse2_sqrt_precise
$LN21@SetWeaponI:
; File C:\Users\murat\Desktop\Siveps2-1-99-Project\source\client\Client\GameLib\WeaponTrace.cpp

; 399  : }

  00114	8b 4c 24 34	 mov	 ecx, DWORD PTR __$ArrayPad$[esp+56]
  00118	b0 01		 mov	 al, 1
; File C:\Program Files (x86)\Windows Kits\10\Include\10.0.19041.0\ucrt\corecrt_math.h

; 758  :             return (float)sqrt(_X);

  0011a	f2 0f 5a c0	 cvtsd2ss xmm0, xmm0
; File C:\Users\murat\Desktop\Siveps2-1-99-Project\source\client\Client\GameLib\WeaponTrace.cpp

; 399  : }

  0011e	5f		 pop	 edi
  0011f	5e		 pop	 esi
  00120	f3 0f 11 43 7c	 movss	 DWORD PTR [ebx+124], xmm0
  00125	5b		 pop	 ebx
  00126	33 cc		 xor	 ecx, esp
  00128	e8 00 00 00 00	 call	 @__security_check_cookie@4
  0012d	8b e5		 mov	 esp, ebp
  0012f	5d		 pop	 ebp
  00130	c2 0c 00	 ret	 12			; 0000000cH
?SetWeaponInstance@CWeaponTrace@@QAE_NPAVCGraphicThingInstance@@KPBD@Z ENDP ; CWeaponTrace::SetWeaponInstance
_TEXT	ENDS
; Function compile flags: /Ogtp
; File C:\Users\murat\Desktop\Siveps2-1-99-Project\source\client\Client\GameLib\WeaponTrace.cpp
;	COMDAT ?SetTexture@CWeaponTrace@@QAEXPBD@Z
_TEXT	SEGMENT
_c_szFileName$ = 8					; size = 4
?SetTexture@CWeaponTrace@@QAEXPBD@Z PROC		; CWeaponTrace::SetTexture, COMDAT
; _this$ = ecx

; 364  : {

  00000	56		 push	 esi
  00001	8b f1		 mov	 esi, ecx

; 365  : 	CGraphicImage * pImage = (CGraphicImage *)CResourceManager::Instance().GetResourcePointer("lot_ade10-2.tga");

  00003	8b 0d 00 00 00
	00		 mov	 ecx, DWORD PTR ?ms_singleton@?$CSingleton@VCResourceManager@@@@0PAVCResourceManager@@A ; CSingleton<CResourceManager>::ms_singleton
  00009	68 00 00 00 00	 push	 OFFSET ??_C@_0BA@NCBBOAJD@lot_ade10?92?4tga@
  0000e	e8 00 00 00 00	 call	 ?GetResourcePointer@CResourceManager@@QAEPAVCResource@@PBD@Z ; CResourceManager::GetResourcePointer

; 366  : 	m_ImageInstance.SetImagePointer(pImage);

  00013	50		 push	 eax
  00014	8d 4e 4c	 lea	 ecx, DWORD PTR [esi+76]
  00017	e8 00 00 00 00	 call	 ?SetImagePointer@CGraphicImageInstance@@QAEXPAVCGraphicImage@@@Z ; CGraphicImageInstance::SetImagePointer
  0001c	5e		 pop	 esi

; 367  : 
; 368  : 	//CGraphicTexture * pTexture = m_ImageInstance.GetTexturePointer();
; 369  : 	//m_lpTexture = pTexture->GetD3DTexture();
; 370  : }

  0001d	c2 04 00	 ret	 4
?SetTexture@CWeaponTrace@@QAEXPBD@Z ENDP		; CWeaponTrace::SetTexture
_TEXT	ENDS
; Function compile flags: /Ogtp
; File C:\Users\murat\Desktop\Siveps2-1-99-Project\source\client\Client\GameLib\WeaponTrace.cpp
;	COMDAT ?UseTexture@CWeaponTrace@@QAEXXZ
_TEXT	SEGMENT
?UseTexture@CWeaponTrace@@QAEXXZ PROC			; CWeaponTrace::UseTexture, COMDAT
; _this$ = ecx

; 360  : 	m_bUseTexture = true;

  00000	c6 81 84 00 00
	00 01		 mov	 BYTE PTR [ecx+132], 1

; 361  : }

  00007	c3		 ret	 0
?UseTexture@CWeaponTrace@@QAEXXZ ENDP			; CWeaponTrace::UseTexture
_TEXT	ENDS
; Function compile flags: /Ogtp
; File C:\Users\murat\Desktop\Siveps2-1-99-Project\source\client\Client\GameLib\WeaponTrace.cpp
;	COMDAT ?UseAlpha@CWeaponTrace@@QAEXXZ
_TEXT	SEGMENT
?UseAlpha@CWeaponTrace@@QAEXXZ PROC			; CWeaponTrace::UseAlpha, COMDAT
; _this$ = ecx

; 355  : 	m_bUseTexture = false;

  00000	c6 81 84 00 00
	00 00		 mov	 BYTE PTR [ecx+132], 0

; 356  : }

  00007	c3		 ret	 0
?UseAlpha@CWeaponTrace@@QAEXXZ ENDP			; CWeaponTrace::UseAlpha
_TEXT	ENDS
; Function compile flags: /Ogtp
; File C:\Users\murat\Desktop\Siveps2-1-99-Project\source\client\Client\GameLib\WeaponTrace.cpp
;	COMDAT ?TurnOff@CWeaponTrace@@QAEXXZ
_TEXT	SEGMENT
?TurnOff@CWeaponTrace@@QAEXXZ PROC			; CWeaponTrace::TurnOff, COMDAT
; _this$ = ecx

; 429  : 	m_isPlaying = FALSE;

  00000	c7 81 80 00 00
	00 00 00 00 00	 mov	 DWORD PTR [ecx+128], 0

; 430  : 	//Clear();
; 431  : }

  0000a	c3		 ret	 0
?TurnOff@CWeaponTrace@@QAEXXZ ENDP			; CWeaponTrace::TurnOff
_TEXT	ENDS
; Function compile flags: /Ogtp
; File C:\Users\murat\Desktop\Siveps2-1-99-Project\source\client\Client\GameLib\WeaponTrace.cpp
;	COMDAT ?TurnOn@CWeaponTrace@@QAEXXZ
_TEXT	SEGMENT
?TurnOn@CWeaponTrace@@QAEXXZ PROC			; CWeaponTrace::TurnOn, COMDAT
; _this$ = ecx

; 425  : 	m_isPlaying = TRUE;

  00000	c7 81 80 00 00
	00 01 00 00 00	 mov	 DWORD PTR [ecx+128], 1

; 426  : }

  0000a	c3		 ret	 0
?TurnOn@CWeaponTrace@@QAEXXZ ENDP			; CWeaponTrace::TurnOn
_TEXT	ENDS
; Function compile flags: /Ogtp
; File C:\Users\murat\Desktop\Siveps2-1-99-Project\source\client\Client\GameLib\WeaponTrace.cpp
; File C:\Program Files (x86)\Microsoft Visual Studio\2019\Professional\VC\Tools\MSVC\14.29.30133\include\deque
; File C:\Users\murat\Desktop\Siveps2-1-99-Project\source\client\Client\GameLib\WeaponTrace.cpp
; File C:\Program Files (x86)\Microsoft Visual Studio\2019\Professional\VC\Tools\MSVC\14.29.30133\include\deque
; File C:\Users\murat\Desktop\Siveps2-1-99-Project\source\client\Client\GameLib\WeaponTrace.cpp
;	COMDAT ?Clear@CWeaponTrace@@QAEXXZ
_TEXT	SEGMENT
?Clear@CWeaponTrace@@QAEXXZ PROC			; CWeaponTrace::Clear, COMDAT
; _this$ = ecx

; 434  : {

  00000	56		 push	 esi
  00001	8b f1		 mov	 esi, ecx

; 435  : 	//m_PDTVertexVector.clear();
; 436  : 	//m_CurvingTraceVector.clear();
; 437  : 
; 438  : 	m_ShortTimePointList.clear();

  00003	8d 4e 08	 lea	 ecx, DWORD PTR [esi+8]
; File C:\Program Files (x86)\Microsoft Visual Studio\2019\Professional\VC\Tools\MSVC\14.29.30133\include\deque

; 1339 :         _Tidy();

  00006	e8 00 00 00 00	 call	 ?_Tidy@?$deque@U?$pair@MUD3DXVECTOR3@@@std@@V?$allocator@U?$pair@MUD3DXVECTOR3@@@std@@@2@@std@@AAEXXZ ; std::deque<std::pair<float,D3DXVECTOR3>,std::allocator<std::pair<float,D3DXVECTOR3> > >::_Tidy
; File C:\Users\murat\Desktop\Siveps2-1-99-Project\source\client\Client\GameLib\WeaponTrace.cpp

; 439  : 	m_LongTimePointList.clear();

  0000b	8d 4e 1c	 lea	 ecx, DWORD PTR [esi+28]
; File C:\Program Files (x86)\Microsoft Visual Studio\2019\Professional\VC\Tools\MSVC\14.29.30133\include\deque

; 1339 :         _Tidy();

  0000e	e8 00 00 00 00	 call	 ?_Tidy@?$deque@U?$pair@MUD3DXVECTOR3@@@std@@V?$allocator@U?$pair@MUD3DXVECTOR3@@@std@@@2@@std@@AAEXXZ ; std::deque<std::pair<float,D3DXVECTOR3>,std::allocator<std::pair<float,D3DXVECTOR3> > >::_Tidy
; File C:\Users\murat\Desktop\Siveps2-1-99-Project\source\client\Client\GameLib\WeaponTrace.cpp

; 440  : 	Initialize();

  00013	8b ce		 mov	 ecx, esi
  00015	5e		 pop	 esi
  00016	e9 00 00 00 00	 jmp	 ?Initialize@CWeaponTrace@@QAEXXZ ; CWeaponTrace::Initialize
?Clear@CWeaponTrace@@QAEXXZ ENDP			; CWeaponTrace::Clear
_TEXT	ENDS
; Function compile flags: /Ogtp
; File C:\Users\murat\Desktop\Siveps2-1-99-Project\source\client\Client\GameLib\WeaponTrace.cpp
; File C:\Program Files (x86)\Microsoft Visual Studio\2019\Professional\VC\Tools\MSVC\14.29.30133\include\deque
; File C:\Program Files (x86)\Microsoft Visual Studio\2019\Professional\VC\Tools\MSVC\14.29.30133\include\utility
; File C:\Program Files (x86)\Microsoft Visual Studio\2019\Professional\VC\Tools\MSVC\14.29.30133\include\xmemory
; File C:\Program Files (x86)\Microsoft Visual Studio\2019\Professional\VC\Tools\MSVC\14.29.30133\include\utility
; File C:\Program Files (x86)\Microsoft Visual Studio\2019\Professional\VC\Tools\MSVC\14.29.30133\include\xmemory
; File C:\Program Files (x86)\Microsoft Visual Studio\2019\Professional\VC\Tools\MSVC\14.29.30133\include\deque
; File C:\Program Files (x86)\Microsoft Visual Studio\2019\Professional\VC\Tools\MSVC\14.29.30133\include\utility
; File C:\Program Files (x86)\Microsoft Visual Studio\2019\Professional\VC\Tools\MSVC\14.29.30133\include\xmemory
; File C:\Program Files (x86)\Microsoft Visual Studio\2019\Professional\VC\Tools\MSVC\14.29.30133\include\utility
; File C:\Program Files (x86)\Microsoft Visual Studio\2019\Professional\VC\Tools\MSVC\14.29.30133\include\xmemory
; File C:\Users\murat\Desktop\Siveps2-1-99-Project\source\client\Client\GameLib\WeaponTrace.cpp
;	COMDAT ??1CWeaponTrace@@UAE@XZ
_TEXT	SEGMENT
??1CWeaponTrace@@UAE@XZ PROC				; CWeaponTrace::~CWeaponTrace, COMDAT
; _this$ = ecx

; 487  : {

  00000	56		 push	 esi
  00001	57		 push	 edi
  00002	8b f9		 mov	 edi, ecx

; 488  : }

  00004	8d 4f 4c	 lea	 ecx, DWORD PTR [edi+76]
  00007	c7 07 00 00 00
	00		 mov	 DWORD PTR [edi], OFFSET ??_7CWeaponTrace@@6B@
  0000d	e8 00 00 00 00	 call	 ??1CGraphicImageInstance@@UAE@XZ ; CGraphicImageInstance::~CGraphicImageInstance
  00012	8d 4f 30	 lea	 ecx, DWORD PTR [edi+48]
  00015	e8 00 00 00 00	 call	 ??1?$vector@USPDTVertex@@V?$allocator@USPDTVertex@@@std@@@std@@QAE@XZ ; std::vector<SPDTVertex,std::allocator<SPDTVertex> >::~vector<SPDTVertex,std::allocator<SPDTVertex> >
; File C:\Program Files (x86)\Microsoft Visual Studio\2019\Professional\VC\Tools\MSVC\14.29.30133\include\deque

; 868  :         _Tidy();

  0001a	8d 4f 1c	 lea	 ecx, DWORD PTR [edi+28]
  0001d	e8 00 00 00 00	 call	 ?_Tidy@?$deque@U?$pair@MUD3DXVECTOR3@@@std@@V?$allocator@U?$pair@MUD3DXVECTOR3@@@std@@@2@@std@@AAEXXZ ; std::deque<std::pair<float,D3DXVECTOR3>,std::allocator<std::pair<float,D3DXVECTOR3> > >::_Tidy
; File C:\Program Files (x86)\Microsoft Visual Studio\2019\Professional\VC\Tools\MSVC\14.29.30133\include\utility

; 616  :     _Ty _Old_val = static_cast<_Ty&&>(_Val);

  00022	8b 47 1c	 mov	 eax, DWORD PTR [edi+28]
; File C:\Program Files (x86)\Microsoft Visual Studio\2019\Professional\VC\Tools\MSVC\14.29.30133\include\xmemory

; 264  :         ::operator delete(_Ptr, _Bytes);

  00025	6a 08		 push	 8
  00027	50		 push	 eax
; File C:\Program Files (x86)\Microsoft Visual Studio\2019\Professional\VC\Tools\MSVC\14.29.30133\include\utility

; 617  :     _Val         = static_cast<_Other&&>(_New_val);

  00028	c7 47 1c 00 00
	00 00		 mov	 DWORD PTR [edi+28], 0
; File C:\Program Files (x86)\Microsoft Visual Studio\2019\Professional\VC\Tools\MSVC\14.29.30133\include\xmemory

; 264  :         ::operator delete(_Ptr, _Bytes);

  0002f	e8 00 00 00 00	 call	 ??3@YAXPAXI@Z		; operator delete
  00034	83 c4 08	 add	 esp, 8
; File C:\Program Files (x86)\Microsoft Visual Studio\2019\Professional\VC\Tools\MSVC\14.29.30133\include\deque

; 868  :         _Tidy();

  00037	8d 4f 08	 lea	 ecx, DWORD PTR [edi+8]
  0003a	e8 00 00 00 00	 call	 ?_Tidy@?$deque@U?$pair@MUD3DXVECTOR3@@@std@@V?$allocator@U?$pair@MUD3DXVECTOR3@@@std@@@2@@std@@AAEXXZ ; std::deque<std::pair<float,D3DXVECTOR3>,std::allocator<std::pair<float,D3DXVECTOR3> > >::_Tidy
; File C:\Program Files (x86)\Microsoft Visual Studio\2019\Professional\VC\Tools\MSVC\14.29.30133\include\utility

; 616  :     _Ty _Old_val = static_cast<_Ty&&>(_Val);

  0003f	8b 47 08	 mov	 eax, DWORD PTR [edi+8]
; File C:\Program Files (x86)\Microsoft Visual Studio\2019\Professional\VC\Tools\MSVC\14.29.30133\include\xmemory

; 264  :         ::operator delete(_Ptr, _Bytes);

  00042	6a 08		 push	 8
  00044	50		 push	 eax
; File C:\Program Files (x86)\Microsoft Visual Studio\2019\Professional\VC\Tools\MSVC\14.29.30133\include\utility

; 617  :     _Val         = static_cast<_Other&&>(_New_val);

  00045	c7 47 08 00 00
	00 00		 mov	 DWORD PTR [edi+8], 0
; File C:\Program Files (x86)\Microsoft Visual Studio\2019\Professional\VC\Tools\MSVC\14.29.30133\include\xmemory

; 264  :         ::operator delete(_Ptr, _Bytes);

  0004c	e8 00 00 00 00	 call	 ??3@YAXPAXI@Z		; operator delete
  00051	83 c4 08	 add	 esp, 8
  00054	5f		 pop	 edi
  00055	5e		 pop	 esi
; File C:\Users\murat\Desktop\Siveps2-1-99-Project\source\client\Client\GameLib\WeaponTrace.cpp

; 488  : }

  00056	c3		 ret	 0
??1CWeaponTrace@@UAE@XZ ENDP				; CWeaponTrace::~CWeaponTrace
_TEXT	ENDS
; Function compile flags: /Ogtp
; File C:\Users\murat\Desktop\Siveps2-1-99-Project\source\client\Client\GameLib\WeaponTrace.cpp
; File C:\Program Files (x86)\Microsoft Visual Studio\2019\Professional\VC\Tools\MSVC\14.29.30133\include\xmemory
; File C:\Program Files (x86)\Microsoft Visual Studio\2019\Professional\VC\Tools\MSVC\14.29.30133\include\deque
; File C:\Program Files (x86)\Microsoft Visual Studio\2019\Professional\VC\Tools\MSVC\14.29.30133\include\xmemory
; File C:\Users\murat\Desktop\Siveps2-1-99-Project\source\client\Client\GameLib\WeaponTrace.cpp
; File C:\Program Files (x86)\Microsoft Visual Studio\2019\Professional\VC\Tools\MSVC\14.29.30133\include\xmemory
; File C:\Program Files (x86)\Microsoft Visual Studio\2019\Professional\VC\Tools\MSVC\14.29.30133\include\deque
; File C:\Program Files (x86)\Microsoft Visual Studio\2019\Professional\VC\Tools\MSVC\14.29.30133\include\xmemory
; File C:\Program Files (x86)\Microsoft Visual Studio\2019\Professional\VC\Tools\MSVC\14.29.30133\include\vector
; File C:\Users\murat\Desktop\Siveps2-1-99-Project\source\client\Client\GameLib\WeaponTrace.cpp
;	COMDAT ??0CWeaponTrace@@QAE@XZ
_TEXT	SEGMENT
_this$ = -16						; size = 4
__$EHRec$ = -12						; size = 12
??0CWeaponTrace@@QAE@XZ PROC				; CWeaponTrace::CWeaponTrace, COMDAT
; _this$ = ecx

; 483  : {

  00000	55		 push	 ebp
  00001	8b ec		 mov	 ebp, esp
  00003	6a ff		 push	 -1
  00005	68 00 00 00 00	 push	 __ehhandler$??0CWeaponTrace@@QAE@XZ
  0000a	64 a1 00 00 00
	00		 mov	 eax, DWORD PTR fs:0
  00010	50		 push	 eax
  00011	51		 push	 ecx
  00012	56		 push	 esi
  00013	57		 push	 edi
  00014	a1 00 00 00 00	 mov	 eax, DWORD PTR ___security_cookie
  00019	33 c5		 xor	 eax, ebp
  0001b	50		 push	 eax
  0001c	8d 45 f4	 lea	 eax, DWORD PTR __$EHRec$[ebp]
  0001f	64 a3 00 00 00
	00		 mov	 DWORD PTR fs:0, eax
  00025	8b f9		 mov	 edi, ecx
  00027	89 7d f0	 mov	 DWORD PTR _this$[ebp], edi
  0002a	c7 07 00 00 00
	00		 mov	 DWORD PTR [edi], OFFSET ??_7CWeaponTrace@@6B@
  00030	8d 77 08	 lea	 esi, DWORD PTR [edi+8]
; File C:\Program Files (x86)\Microsoft Visual Studio\2019\Professional\VC\Tools\MSVC\14.29.30133\include\xmemory

; 85   :         return ::operator new(_Bytes);

  00033	6a 08		 push	 8

; 1089 :     _Container_proxy* _Myproxy = nullptr;

  00035	c7 06 00 00 00
	00		 mov	 DWORD PTR [esi], 0
; File C:\Program Files (x86)\Microsoft Visual Studio\2019\Professional\VC\Tools\MSVC\14.29.30133\include\deque

; 561  :     _Deque_val() noexcept : _Map(), _Mapsize(0), _Myoff(0), _Mysize(0) {}

  0003b	c7 46 04 00 00
	00 00		 mov	 DWORD PTR [esi+4], 0
  00042	c7 46 08 00 00
	00 00		 mov	 DWORD PTR [esi+8], 0
  00049	c7 46 0c 00 00
	00 00		 mov	 DWORD PTR [esi+12], 0
  00050	c7 46 10 00 00
	00 00		 mov	 DWORD PTR [esi+16], 0
; File C:\Program Files (x86)\Microsoft Visual Studio\2019\Professional\VC\Tools\MSVC\14.29.30133\include\xmemory

; 85   :         return ::operator new(_Bytes);

  00057	e8 00 00 00 00	 call	 ??2@YAPAXI@Z		; operator new

; 1059 :     mutable _Iterator_base12* _Myfirstiter = nullptr;

  0005c	c7 40 04 00 00
	00 00		 mov	 DWORD PTR [eax+4], 0

; 1076 :         _Myproxy            = _New_proxy;

  00063	89 06		 mov	 DWORD PTR [esi], eax

; 1077 :         _New_proxy->_Mycont = this;

  00065	89 30		 mov	 DWORD PTR [eax], esi
; File C:\Users\murat\Desktop\Siveps2-1-99-Project\source\client\Client\GameLib\WeaponTrace.cpp

; 483  : {

  00067	8d 77 1c	 lea	 esi, DWORD PTR [edi+28]
  0006a	c7 45 fc 00 00
	00 00		 mov	 DWORD PTR __$EHRec$[ebp+8], 0
; File C:\Program Files (x86)\Microsoft Visual Studio\2019\Professional\VC\Tools\MSVC\14.29.30133\include\xmemory

; 85   :         return ::operator new(_Bytes);

  00071	6a 08		 push	 8

; 1089 :     _Container_proxy* _Myproxy = nullptr;

  00073	c7 06 00 00 00
	00		 mov	 DWORD PTR [esi], 0
; File C:\Program Files (x86)\Microsoft Visual Studio\2019\Professional\VC\Tools\MSVC\14.29.30133\include\deque

; 561  :     _Deque_val() noexcept : _Map(), _Mapsize(0), _Myoff(0), _Mysize(0) {}

  00079	c7 46 04 00 00
	00 00		 mov	 DWORD PTR [esi+4], 0
  00080	c7 46 08 00 00
	00 00		 mov	 DWORD PTR [esi+8], 0
  00087	c7 46 0c 00 00
	00 00		 mov	 DWORD PTR [esi+12], 0
  0008e	c7 46 10 00 00
	00 00		 mov	 DWORD PTR [esi+16], 0
; File C:\Program Files (x86)\Microsoft Visual Studio\2019\Professional\VC\Tools\MSVC\14.29.30133\include\xmemory

; 85   :         return ::operator new(_Bytes);

  00095	e8 00 00 00 00	 call	 ??2@YAPAXI@Z		; operator new
  0009a	83 c4 08	 add	 esp, 8

; 1059 :     mutable _Iterator_base12* _Myfirstiter = nullptr;

  0009d	c7 40 04 00 00
	00 00		 mov	 DWORD PTR [eax+4], 0

; 1076 :         _Myproxy            = _New_proxy;

  000a4	89 06		 mov	 DWORD PTR [esi], eax

; 1077 :         _New_proxy->_Mycont = this;

  000a6	89 30		 mov	 DWORD PTR [eax], esi
; File C:\Program Files (x86)\Microsoft Visual Studio\2019\Professional\VC\Tools\MSVC\14.29.30133\include\vector

; 401  :     _CONSTEXPR20_CONTAINER _Vector_val() noexcept : _Myfirst(), _Mylast(), _Myend() {}

  000a8	c7 47 30 00 00
	00 00		 mov	 DWORD PTR [edi+48], 0
  000af	c7 47 34 00 00
	00 00		 mov	 DWORD PTR [edi+52], 0
  000b6	c7 47 38 00 00
	00 00		 mov	 DWORD PTR [edi+56], 0
; File C:\Users\murat\Desktop\Siveps2-1-99-Project\source\client\Client\GameLib\WeaponTrace.cpp

; 483  : {

  000bd	8d 4f 4c	 lea	 ecx, DWORD PTR [edi+76]
  000c0	c6 45 fc 02	 mov	 BYTE PTR __$EHRec$[ebp+8], 2
  000c4	e8 00 00 00 00	 call	 ??0CGraphicImageInstance@@QAE@XZ ; CGraphicImageInstance::CGraphicImageInstance

; 484  : 	Initialize();

  000c9	8b cf		 mov	 ecx, edi
  000cb	c6 45 fc 03	 mov	 BYTE PTR __$EHRec$[ebp+8], 3
  000cf	e8 00 00 00 00	 call	 ?Initialize@CWeaponTrace@@QAEXXZ ; CWeaponTrace::Initialize

; 485  : }

  000d4	8b c7		 mov	 eax, edi
  000d6	8b 4d f4	 mov	 ecx, DWORD PTR __$EHRec$[ebp]
  000d9	64 89 0d 00 00
	00 00		 mov	 DWORD PTR fs:0, ecx
  000e0	59		 pop	 ecx
  000e1	5f		 pop	 edi
  000e2	5e		 pop	 esi
  000e3	8b e5		 mov	 esp, ebp
  000e5	5d		 pop	 ebp
  000e6	c3		 ret	 0
_TEXT	ENDS
;	COMDAT text$x
text$x	SEGMENT
__unwindfunclet$??0CWeaponTrace@@QAE@XZ$0:
  00000	8b 4d f0	 mov	 ecx, DWORD PTR _this$[ebp]
  00003	83 c1 08	 add	 ecx, 8
  00006	e9 00 00 00 00	 jmp	 ??1?$deque@U?$pair@MUD3DXVECTOR3@@@std@@V?$allocator@U?$pair@MUD3DXVECTOR3@@@std@@@2@@std@@QAE@XZ ; std::deque<std::pair<float,D3DXVECTOR3>,std::allocator<std::pair<float,D3DXVECTOR3> > >::~deque<std::pair<float,D3DXVECTOR3>,std::allocator<std::pair<float,D3DXVECTOR3> > >
__unwindfunclet$??0CWeaponTrace@@QAE@XZ$1:
  0000b	8b 4d f0	 mov	 ecx, DWORD PTR _this$[ebp]
  0000e	83 c1 1c	 add	 ecx, 28			; 0000001cH
  00011	e9 00 00 00 00	 jmp	 ??1?$deque@U?$pair@MUD3DXVECTOR3@@@std@@V?$allocator@U?$pair@MUD3DXVECTOR3@@@std@@@2@@std@@QAE@XZ ; std::deque<std::pair<float,D3DXVECTOR3>,std::allocator<std::pair<float,D3DXVECTOR3> > >::~deque<std::pair<float,D3DXVECTOR3>,std::allocator<std::pair<float,D3DXVECTOR3> > >
__unwindfunclet$??0CWeaponTrace@@QAE@XZ$2:
  00016	8b 4d f0	 mov	 ecx, DWORD PTR _this$[ebp]
  00019	83 c1 30	 add	 ecx, 48			; 00000030H
  0001c	e9 00 00 00 00	 jmp	 ??1?$vector@USPDTVertex@@V?$allocator@USPDTVertex@@@std@@@std@@QAE@XZ ; std::vector<SPDTVertex,std::allocator<SPDTVertex> >::~vector<SPDTVertex,std::allocator<SPDTVertex> >
__unwindfunclet$??0CWeaponTrace@@QAE@XZ$3:
  00021	8b 4d f0	 mov	 ecx, DWORD PTR _this$[ebp]
  00024	83 c1 4c	 add	 ecx, 76			; 0000004cH
  00027	e9 00 00 00 00	 jmp	 ??1CGraphicImageInstance@@UAE@XZ ; CGraphicImageInstance::~CGraphicImageInstance
  0002c	cc		 int	 3
  0002d	cc		 int	 3
  0002e	cc		 int	 3
  0002f	cc		 int	 3
  00030	cc		 int	 3
__ehhandler$??0CWeaponTrace@@QAE@XZ:
  00031	90		 npad	 1
  00032	90		 npad	 1
  00033	8b 54 24 08	 mov	 edx, DWORD PTR [esp+8]
  00037	8d 42 0c	 lea	 eax, DWORD PTR [edx+12]
  0003a	8b 4a f0	 mov	 ecx, DWORD PTR [edx-16]
  0003d	33 c8		 xor	 ecx, eax
  0003f	e8 00 00 00 00	 call	 @__security_check_cookie@4
  00044	b8 00 00 00 00	 mov	 eax, OFFSET __ehfuncinfo$??0CWeaponTrace@@QAE@XZ
  00049	e9 00 00 00 00	 jmp	 ___CxxFrameHandler3
text$x	ENDS
??0CWeaponTrace@@QAE@XZ ENDP				; CWeaponTrace::CWeaponTrace
; Function compile flags: /Ogtp
; File C:\Users\murat\Desktop\Siveps2-1-99-Project\source\client\Client\GameLib\WeaponTrace.cpp
; File C:\Users\murat\Desktop\Siveps2-1-99-Project\source\client\Client\eterLib\Pool.h
; File C:\Program Files (x86)\Microsoft Visual Studio\2019\Professional\VC\Tools\MSVC\14.29.30133\include\vector
; File C:\Users\murat\Desktop\Siveps2-1-99-Project\source\client\Client\eterLib\Pool.h
; File C:\Program Files (x86)\Microsoft Visual Studio\2019\Professional\VC\Tools\MSVC\14.29.30133\include\vector
; File C:\Users\murat\Desktop\Siveps2-1-99-Project\source\client\Client\GameLib\WeaponTrace.cpp
; File C:\Program Files (x86)\Microsoft Visual Studio\2019\Professional\VC\Tools\MSVC\14.29.30133\include\vector
; File C:\Users\murat\Desktop\Siveps2-1-99-Project\source\client\Client\eterLib\Pool.h
; File C:\Users\murat\Desktop\Siveps2-1-99-Project\source\client\Client\GameLib\WeaponTrace.cpp
; File C:\Program Files (x86)\Microsoft Visual Studio\2019\Professional\VC\Tools\MSVC\14.29.30133\include\vector
; File C:\Users\murat\Desktop\Siveps2-1-99-Project\source\client\Client\eterLib\Pool.h
; File C:\Users\murat\Desktop\Siveps2-1-99-Project\source\client\Client\GameLib\WeaponTrace.cpp
; File C:\Users\murat\Desktop\Siveps2-1-99-Project\source\client\Client\eterLib\Pool.h
; File C:\Program Files (x86)\Microsoft Visual Studio\2019\Professional\VC\Tools\MSVC\14.29.30133\include\vector
; File C:\Users\murat\Desktop\Siveps2-1-99-Project\source\client\Client\GameLib\WeaponTrace.cpp
;	COMDAT ?New@CWeaponTrace@@SAPAV1@XZ
_TEXT	SEGMENT
$T2 = -16						; size = 4
_pkNewData$3 = -16					; size = 4
__$EHRec$ = -12						; size = 12
?New@CWeaponTrace@@SAPAV1@XZ PROC			; CWeaponTrace::New, COMDAT

; 23   : {

  00000	55		 push	 ebp
  00001	8b ec		 mov	 ebp, esp
  00003	6a ff		 push	 -1
  00005	68 00 00 00 00	 push	 __ehhandler$?New@CWeaponTrace@@SAPAV1@XZ
  0000a	64 a1 00 00 00
	00		 mov	 eax, DWORD PTR fs:0
  00010	50		 push	 eax
  00011	51		 push	 ecx
  00012	56		 push	 esi
  00013	a1 00 00 00 00	 mov	 eax, DWORD PTR ___security_cookie
  00018	33 c5		 xor	 eax, ebp
  0001a	50		 push	 eax
  0001b	8d 45 f4	 lea	 eax, DWORD PTR __$EHRec$[ebp]
  0001e	64 a3 00 00 00
	00		 mov	 DWORD PTR fs:0, eax
; File C:\Users\murat\Desktop\Siveps2-1-99-Project\source\client\Client\eterLib\Pool.h

; 63   : 			if (m_kVct_pkFree.empty())

  00024	8b 0d 14 00 00
	00		 mov	 ecx, DWORD PTR ?ms_kPool@CWeaponTrace@@1V?$CDynamicPool@VCWeaponTrace@@@@A+20
  0002a	39 0d 10 00 00
	00		 cmp	 DWORD PTR ?ms_kPool@CWeaponTrace@@1V?$CDynamicPool@VCWeaponTrace@@@@A+16, ecx
  00030	0f 85 87 00 00
	00		 jne	 $LN4@New

; 65   : 				T* pkNewData=new T;

  00036	68 8c 00 00 00	 push	 140			; 0000008cH
  0003b	e8 00 00 00 00	 call	 ??2@YAPAXI@Z		; operator new
  00040	83 c4 04	 add	 esp, 4
  00043	89 45 f0	 mov	 DWORD PTR $T2[ebp], eax
  00046	c7 45 fc 00 00
	00 00		 mov	 DWORD PTR __$EHRec$[ebp+8], 0
  0004d	85 c0		 test	 eax, eax
  0004f	74 0b		 je	 SHORT $LN6@New
  00051	8b c8		 mov	 ecx, eax
  00053	e8 00 00 00 00	 call	 ??0CWeaponTrace@@QAE@XZ	; CWeaponTrace::CWeaponTrace
  00058	8b f0		 mov	 esi, eax
  0005a	eb 02		 jmp	 SHORT $LN7@New
$LN6@New:
  0005c	33 f6		 xor	 esi, esi
$LN7@New:
; File C:\Program Files (x86)\Microsoft Visual Studio\2019\Professional\VC\Tools\MSVC\14.29.30133\include\vector

; 743  :         if (_Mylast != _My_data._Myend) {

  0005e	a1 08 00 00 00	 mov	 eax, DWORD PTR ?ms_kPool@CWeaponTrace@@1V?$CDynamicPool@VCWeaponTrace@@@@A+8
; File C:\Users\murat\Desktop\Siveps2-1-99-Project\source\client\Client\eterLib\Pool.h

; 65   : 				T* pkNewData=new T;

  00063	c7 45 fc ff ff
	ff ff		 mov	 DWORD PTR __$EHRec$[ebp+8], -1
  0006a	89 75 f0	 mov	 DWORD PTR _pkNewData$3[ebp], esi
; File C:\Program Files (x86)\Microsoft Visual Studio\2019\Professional\VC\Tools\MSVC\14.29.30133\include\vector

; 743  :         if (_Mylast != _My_data._Myend) {

  0006d	3b 05 0c 00 00
	00		 cmp	 eax, DWORD PTR ?ms_kPool@CWeaponTrace@@1V?$CDynamicPool@VCWeaponTrace@@@@A+12
  00073	74 21		 je	 SHORT $LN14@New

; 726  :         _Alty_traits::construct(_Getal(), _Unfancy(_Mylast), _STD forward<_Valty>(_Val)...);

  00075	89 30		 mov	 DWORD PTR [eax], esi
; File C:\Users\murat\Desktop\Siveps2-1-99-Project\source\client\Client\GameLib\WeaponTrace.cpp

; 24   : 	return ms_kPool.Alloc();

  00077	8b c6		 mov	 eax, esi
; File C:\Program Files (x86)\Microsoft Visual Studio\2019\Professional\VC\Tools\MSVC\14.29.30133\include\vector

; 729  :         ++_Mylast;

  00079	83 05 08 00 00
	00 04		 add	 DWORD PTR ?ms_kPool@CWeaponTrace@@1V?$CDynamicPool@VCWeaponTrace@@@@A+8, 4
; File C:\Users\murat\Desktop\Siveps2-1-99-Project\source\client\Client\eterLib\Pool.h

; 67   : 				++m_uUsedCapacity;

  00080	ff 05 20 00 00
	00		 inc	 DWORD PTR ?ms_kPool@CWeaponTrace@@1V?$CDynamicPool@VCWeaponTrace@@@@A+32
; File C:\Users\murat\Desktop\Siveps2-1-99-Project\source\client\Client\GameLib\WeaponTrace.cpp

; 25   : }

  00086	8b 4d f4	 mov	 ecx, DWORD PTR __$EHRec$[ebp]
  00089	64 89 0d 00 00
	00 00		 mov	 DWORD PTR fs:0, ecx
  00090	59		 pop	 ecx
  00091	5e		 pop	 esi
  00092	8b e5		 mov	 esp, ebp
  00094	5d		 pop	 ebp
  00095	c3		 ret	 0
$LN14@New:
; File C:\Program Files (x86)\Microsoft Visual Studio\2019\Professional\VC\Tools\MSVC\14.29.30133\include\vector

; 747  :         _Ty& _Result = *_Emplace_reallocate(_Mylast, _STD forward<_Valty>(_Val)...);

  00096	8d 4d f0	 lea	 ecx, DWORD PTR _pkNewData$3[ebp]
  00099	51		 push	 ecx
  0009a	50		 push	 eax
  0009b	b9 04 00 00 00	 mov	 ecx, OFFSET ?ms_kPool@CWeaponTrace@@1V?$CDynamicPool@VCWeaponTrace@@@@A+4
  000a0	e8 00 00 00 00	 call	 ??$_Emplace_reallocate@ABQAVCWeaponTrace@@@?$vector@PAVCWeaponTrace@@V?$allocator@PAVCWeaponTrace@@@std@@@std@@QAEPAPAVCWeaponTrace@@QAPAV2@ABQAV2@@Z ; std::vector<CWeaponTrace *,std::allocator<CWeaponTrace *> >::_Emplace_reallocate<CWeaponTrace * const &>
; File C:\Users\murat\Desktop\Siveps2-1-99-Project\source\client\Client\eterLib\Pool.h

; 67   : 				++m_uUsedCapacity;

  000a5	ff 05 20 00 00
	00		 inc	 DWORD PTR ?ms_kPool@CWeaponTrace@@1V?$CDynamicPool@VCWeaponTrace@@@@A+32
; File C:\Users\murat\Desktop\Siveps2-1-99-Project\source\client\Client\GameLib\WeaponTrace.cpp

; 24   : 	return ms_kPool.Alloc();

  000ab	8b c6		 mov	 eax, esi

; 25   : }

  000ad	8b 4d f4	 mov	 ecx, DWORD PTR __$EHRec$[ebp]
  000b0	64 89 0d 00 00
	00 00		 mov	 DWORD PTR fs:0, ecx
  000b7	59		 pop	 ecx
  000b8	5e		 pop	 esi
  000b9	8b e5		 mov	 esp, ebp
  000bb	5d		 pop	 ebp
  000bc	c3		 ret	 0
$LN4@New:
; File C:\Users\murat\Desktop\Siveps2-1-99-Project\source\client\Client\eterLib\Pool.h

; 71   : 			T* pkFreeData=m_kVct_pkFree.back();

  000bd	8b 41 fc	 mov	 eax, DWORD PTR [ecx-4]
; File C:\Program Files (x86)\Microsoft Visual Studio\2019\Professional\VC\Tools\MSVC\14.29.30133\include\vector

; 1624 :         return _My_data._Mylast[-1];

  000c0	83 c1 fc	 add	 ecx, -4			; fffffffcH

; 1403 :         --_Mylast;

  000c3	89 0d 14 00 00
	00		 mov	 DWORD PTR ?ms_kPool@CWeaponTrace@@1V?$CDynamicPool@VCWeaponTrace@@@@A+20, ecx
; File C:\Users\murat\Desktop\Siveps2-1-99-Project\source\client\Client\GameLib\WeaponTrace.cpp

; 25   : }

  000c9	8b 4d f4	 mov	 ecx, DWORD PTR __$EHRec$[ebp]
  000cc	64 89 0d 00 00
	00 00		 mov	 DWORD PTR fs:0, ecx
  000d3	59		 pop	 ecx
  000d4	5e		 pop	 esi
  000d5	8b e5		 mov	 esp, ebp
  000d7	5d		 pop	 ebp
  000d8	c3		 ret	 0
_TEXT	ENDS
;	COMDAT text$x
text$x	SEGMENT
__unwindfunclet$?New@CWeaponTrace@@SAPAV1@XZ$0:
  00000	68 8c 00 00 00	 push	 140			; 0000008cH
  00005	8b 45 f0	 mov	 eax, DWORD PTR $T2[ebp]
  00008	50		 push	 eax
  00009	e8 00 00 00 00	 call	 ??3@YAXPAXI@Z		; operator delete
  0000e	83 c4 08	 add	 esp, 8
  00011	c3		 ret	 0
  00012	cc		 int	 3
  00013	cc		 int	 3
  00014	cc		 int	 3
  00015	cc		 int	 3
  00016	cc		 int	 3
__ehhandler$?New@CWeaponTrace@@SAPAV1@XZ:
  00017	90		 npad	 1
  00018	90		 npad	 1
  00019	8b 54 24 08	 mov	 edx, DWORD PTR [esp+8]
  0001d	8d 42 0c	 lea	 eax, DWORD PTR [edx+12]
  00020	8b 4a f4	 mov	 ecx, DWORD PTR [edx-12]
  00023	33 c8		 xor	 ecx, eax
  00025	e8 00 00 00 00	 call	 @__security_check_cookie@4
  0002a	b8 00 00 00 00	 mov	 eax, OFFSET __ehfuncinfo$?New@CWeaponTrace@@SAPAV1@XZ
  0002f	e9 00 00 00 00	 jmp	 ___CxxFrameHandler3
text$x	ENDS
?New@CWeaponTrace@@SAPAV1@XZ ENDP			; CWeaponTrace::New
; Function compile flags: /Ogtp
; File C:\Users\murat\Desktop\Siveps2-1-99-Project\source\client\Client\GameLib\WeaponTrace.cpp
; File C:\Program Files (x86)\Microsoft Visual Studio\2019\Professional\VC\Tools\MSVC\14.29.30133\include\vector
; File C:\Users\murat\Desktop\Siveps2-1-99-Project\source\client\Client\GameLib\WeaponTrace.cpp
; File C:\Program Files (x86)\Microsoft Visual Studio\2019\Professional\VC\Tools\MSVC\14.29.30133\include\vector
; File C:\Users\murat\Desktop\Siveps2-1-99-Project\source\client\Client\GameLib\WeaponTrace.cpp
; File C:\Program Files (x86)\Microsoft Visual Studio\2019\Professional\VC\Tools\MSVC\14.29.30133\include\vector
; File C:\Users\murat\Desktop\Siveps2-1-99-Project\source\client\Client\GameLib\WeaponTrace.cpp
;	COMDAT ?Delete@CWeaponTrace@@SAXPAV1@@Z
_TEXT	SEGMENT
_pkData$ = 8						; size = 4
_pkWTDel$ = 8						; size = 4
?Delete@CWeaponTrace@@SAXPAV1@@Z PROC			; CWeaponTrace::Delete, COMDAT

; 15   : {

  00000	55		 push	 ebp
  00001	8b ec		 mov	 ebp, esp
  00003	56		 push	 esi

; 16   : 	assert(pkWTDel!=NULL && "CWeaponTrace::Delete");
; 17   : 
; 18   : 	pkWTDel->Clear();

  00004	8b 75 08	 mov	 esi, DWORD PTR _pkWTDel$[ebp]
  00007	8b ce		 mov	 ecx, esi
  00009	e8 00 00 00 00	 call	 ?Clear@CWeaponTrace@@QAEXXZ ; CWeaponTrace::Clear
; File C:\Program Files (x86)\Microsoft Visual Studio\2019\Professional\VC\Tools\MSVC\14.29.30133\include\vector

; 743  :         if (_Mylast != _My_data._Myend) {

  0000e	a1 14 00 00 00	 mov	 eax, DWORD PTR ?ms_kPool@CWeaponTrace@@1V?$CDynamicPool@VCWeaponTrace@@@@A+20
; File C:\Users\murat\Desktop\Siveps2-1-99-Project\source\client\Client\GameLib\WeaponTrace.cpp

; 19   : 	ms_kPool.Free(pkWTDel);

  00013	89 75 08	 mov	 DWORD PTR _pkData$[ebp], esi
; File C:\Program Files (x86)\Microsoft Visual Studio\2019\Professional\VC\Tools\MSVC\14.29.30133\include\vector

; 743  :         if (_Mylast != _My_data._Myend) {

  00016	3b 05 18 00 00
	00		 cmp	 eax, DWORD PTR ?ms_kPool@CWeaponTrace@@1V?$CDynamicPool@VCWeaponTrace@@@@A+24
  0001c	74 0c		 je	 SHORT $LN8@Delete

; 726  :         _Alty_traits::construct(_Getal(), _Unfancy(_Mylast), _STD forward<_Valty>(_Val)...);

  0001e	89 30		 mov	 DWORD PTR [eax], esi

; 727  :         _Orphan_range(_Mylast, _Mylast);
; 728  :         _Ty& _Result = *_Mylast;
; 729  :         ++_Mylast;

  00020	83 05 14 00 00
	00 04		 add	 DWORD PTR ?ms_kPool@CWeaponTrace@@1V?$CDynamicPool@VCWeaponTrace@@@@A+20, 4
  00027	5e		 pop	 esi
; File C:\Users\murat\Desktop\Siveps2-1-99-Project\source\client\Client\GameLib\WeaponTrace.cpp

; 20   : }

  00028	5d		 pop	 ebp
  00029	c3		 ret	 0
$LN8@Delete:
; File C:\Program Files (x86)\Microsoft Visual Studio\2019\Professional\VC\Tools\MSVC\14.29.30133\include\vector

; 747  :         _Ty& _Result = *_Emplace_reallocate(_Mylast, _STD forward<_Valty>(_Val)...);

  0002a	8d 4d 08	 lea	 ecx, DWORD PTR _pkData$[ebp]
  0002d	51		 push	 ecx
  0002e	50		 push	 eax
  0002f	b9 10 00 00 00	 mov	 ecx, OFFSET ?ms_kPool@CWeaponTrace@@1V?$CDynamicPool@VCWeaponTrace@@@@A+16
  00034	e8 00 00 00 00	 call	 ??$_Emplace_reallocate@ABQAVCWeaponTrace@@@?$vector@PAVCWeaponTrace@@V?$allocator@PAVCWeaponTrace@@@std@@@std@@QAEPAPAVCWeaponTrace@@QAPAV2@ABQAV2@@Z ; std::vector<CWeaponTrace *,std::allocator<CWeaponTrace *> >::_Emplace_reallocate<CWeaponTrace * const &>
  00039	5e		 pop	 esi
; File C:\Users\murat\Desktop\Siveps2-1-99-Project\source\client\Client\GameLib\WeaponTrace.cpp

; 20   : }

  0003a	5d		 pop	 ebp
  0003b	c3		 ret	 0
?Delete@CWeaponTrace@@SAXPAV1@@Z ENDP			; CWeaponTrace::Delete
_TEXT	ENDS
; Function compile flags: /Ogtp
; File C:\Users\murat\Desktop\Siveps2-1-99-Project\source\client\Client\GameLib\WeaponTrace.cpp
; File C:\Program Files (x86)\Microsoft Visual Studio\2019\Professional\VC\Tools\MSVC\14.29.30133\include\algorithm
; File C:\Users\murat\Desktop\Siveps2-1-99-Project\source\client\Client\GameLib\WeaponTrace.cpp
; File C:\Program Files (x86)\Microsoft Visual Studio\2019\Professional\VC\Tools\MSVC\14.29.30133\include\algorithm
; File C:\Users\murat\Desktop\Siveps2-1-99-Project\source\client\Client\eterLib\Pool.h
; File C:\Program Files (x86)\Microsoft Visual Studio\2019\Professional\VC\Tools\MSVC\14.29.30133\include\algorithm
; File C:\Users\murat\Desktop\Siveps2-1-99-Project\source\client\Client\eterLib\Pool.h
; File C:\Users\murat\Desktop\Siveps2-1-99-Project\source\client\Client\GameLib\WeaponTrace.cpp
; File C:\Users\murat\Desktop\Siveps2-1-99-Project\source\client\Client\eterLib\Pool.h
; File C:\Users\murat\Desktop\Siveps2-1-99-Project\source\client\Client\GameLib\WeaponTrace.cpp
;	COMDAT ?DestroySystem@CWeaponTrace@@SAXXZ
_TEXT	SEGMENT
?DestroySystem@CWeaponTrace@@SAXXZ PROC			; CWeaponTrace::DestroySystem, COMDAT

; 10   : {

  00000	56		 push	 esi
; File C:\Program Files (x86)\Microsoft Visual Studio\2019\Professional\VC\Tools\MSVC\14.29.30133\include\algorithm

; 270  :     for (; _UFirst != _ULast; ++_UFirst) {

  00001	8b 35 04 00 00
	00		 mov	 esi, DWORD PTR ?ms_kPool@CWeaponTrace@@1V?$CDynamicPool@VCWeaponTrace@@@@A+4
; File C:\Users\murat\Desktop\Siveps2-1-99-Project\source\client\Client\GameLib\WeaponTrace.cpp

; 10   : {

  00007	57		 push	 edi
; File C:\Program Files (x86)\Microsoft Visual Studio\2019\Professional\VC\Tools\MSVC\14.29.30133\include\algorithm

; 269  :     const auto _ULast = _Get_unwrapped(_Last);

  00008	8b 3d 08 00 00
	00		 mov	 edi, DWORD PTR ?ms_kPool@CWeaponTrace@@1V?$CDynamicPool@VCWeaponTrace@@@@A+8

; 270  :     for (; _UFirst != _ULast; ++_UFirst) {

  0000e	3b f7		 cmp	 esi, edi
  00010	74 2a		 je	 SHORT $LN30@DestroySys
$LL20@DestroySys:
; File C:\Users\murat\Desktop\Siveps2-1-99-Project\source\client\Client\eterLib\Pool.h

; 110  : 			delete pkData;

  00012	8b 0e		 mov	 ecx, DWORD PTR [esi]
  00014	85 c9		 test	 ecx, ecx
  00016	74 06		 je	 SHORT $LN18@DestroySys
  00018	8b 01		 mov	 eax, DWORD PTR [ecx]
  0001a	6a 01		 push	 1
  0001c	ff 10		 call	 DWORD PTR [eax]
$LN18@DestroySys:
; File C:\Program Files (x86)\Microsoft Visual Studio\2019\Professional\VC\Tools\MSVC\14.29.30133\include\algorithm

; 270  :     for (; _UFirst != _ULast; ++_UFirst) {

  0001e	83 c6 04	 add	 esi, 4
  00021	3b f7		 cmp	 esi, edi
  00023	75 ed		 jne	 SHORT $LL20@DestroySys
; File C:\Users\murat\Desktop\Siveps2-1-99-Project\source\client\Client\eterLib\Pool.h

; 51   : 			m_kVct_pkData.clear();

  00025	a1 04 00 00 00	 mov	 eax, DWORD PTR ?ms_kPool@CWeaponTrace@@1V?$CDynamicPool@VCWeaponTrace@@@@A+4
  0002a	a3 08 00 00 00	 mov	 DWORD PTR ?ms_kPool@CWeaponTrace@@1V?$CDynamicPool@VCWeaponTrace@@@@A+8, eax
; File C:\Users\murat\Desktop\Siveps2-1-99-Project\source\client\Client\GameLib\WeaponTrace.cpp

; 12   : }

  0002f	a1 10 00 00 00	 mov	 eax, DWORD PTR ?ms_kPool@CWeaponTrace@@1V?$CDynamicPool@VCWeaponTrace@@@@A+16
  00034	5f		 pop	 edi
  00035	a3 14 00 00 00	 mov	 DWORD PTR ?ms_kPool@CWeaponTrace@@1V?$CDynamicPool@VCWeaponTrace@@@@A+20, eax
  0003a	5e		 pop	 esi
  0003b	c3		 ret	 0
$LN30@DestroySys:
  0003c	a1 10 00 00 00	 mov	 eax, DWORD PTR ?ms_kPool@CWeaponTrace@@1V?$CDynamicPool@VCWeaponTrace@@@@A+16
  00041	5f		 pop	 edi
; File C:\Users\murat\Desktop\Siveps2-1-99-Project\source\client\Client\eterLib\Pool.h

; 51   : 			m_kVct_pkData.clear();

  00042	89 35 08 00 00
	00		 mov	 DWORD PTR ?ms_kPool@CWeaponTrace@@1V?$CDynamicPool@VCWeaponTrace@@@@A+8, esi
; File C:\Users\murat\Desktop\Siveps2-1-99-Project\source\client\Client\GameLib\WeaponTrace.cpp

; 12   : }

  00048	a3 14 00 00 00	 mov	 DWORD PTR ?ms_kPool@CWeaponTrace@@1V?$CDynamicPool@VCWeaponTrace@@@@A+20, eax
  0004d	5e		 pop	 esi
  0004e	c3		 ret	 0
?DestroySystem@CWeaponTrace@@SAXXZ ENDP			; CWeaponTrace::DestroySystem
_TEXT	ENDS
; Function compile flags: /Ogtp
; File C:\Program Files (x86)\Microsoft Visual Studio\2019\Professional\VC\Tools\MSVC\14.29.30133\include\xmemory
;	COMDAT ??$_Allocate_manually_vector_aligned@U_Default_allocate_traits@std@@@std@@YAPAXI@Z
_TEXT	SEGMENT
__Bytes$ = 8						; size = 4
??$_Allocate_manually_vector_aligned@U_Default_allocate_traits@std@@@std@@YAPAXI@Z PROC ; std::_Allocate_manually_vector_aligned<std::_Default_allocate_traits>, COMDAT

; 134  : __declspec(allocator) void* _Allocate_manually_vector_aligned(const size_t _Bytes) {

  00000	55		 push	 ebp
  00001	8b ec		 mov	 ebp, esp

; 135  :     // allocate _Bytes manually aligned to at least _Big_allocation_alignment
; 136  :     const size_t _Block_size = _Non_user_size + _Bytes;

  00003	8b 45 08	 mov	 eax, DWORD PTR __Bytes$[ebp]
  00006	8d 48 23	 lea	 ecx, DWORD PTR [eax+35]

; 137  :     if (_Block_size <= _Bytes) {

  00009	3b c8		 cmp	 ecx, eax
  0000b	0f 86 00 00 00
	00		 jbe	 ?_Throw_bad_array_new_length@std@@YAXXZ ; std::_Throw_bad_array_new_length

; 85   :         return ::operator new(_Bytes);

  00011	51		 push	 ecx
  00012	e8 00 00 00 00	 call	 ??2@YAPAXI@Z		; operator new

; 138  :         _Throw_bad_array_new_length(); // add overflow
; 139  :     }
; 140  : 
; 141  :     const uintptr_t _Ptr_container = reinterpret_cast<uintptr_t>(_Traits::_Allocate(_Block_size));

  00017	8b c8		 mov	 ecx, eax

; 85   :         return ::operator new(_Bytes);

  00019	83 c4 04	 add	 esp, 4

; 142  :     _STL_VERIFY(_Ptr_container != 0, "invalid argument"); // validate even in release since we're doing p[-1]

  0001c	85 c9		 test	 ecx, ecx
  0001e	74 0b		 je	 SHORT $LN7@Allocate_m

; 143  :     void* const _Ptr = reinterpret_cast<void*>((_Ptr_container + _Non_user_size) & ~(_Big_allocation_alignment - 1));

  00020	8d 41 23	 lea	 eax, DWORD PTR [ecx+35]
  00023	83 e0 e0	 and	 eax, -32		; ffffffe0H

; 144  :     static_cast<uintptr_t*>(_Ptr)[-1] = _Ptr_container;

  00026	89 48 fc	 mov	 DWORD PTR [eax-4], ecx

; 145  : 
; 146  : #ifdef _DEBUG
; 147  :     static_cast<uintptr_t*>(_Ptr)[-2] = _Big_allocation_sentinel;
; 148  : #endif // _DEBUG
; 149  :     return _Ptr;
; 150  : }

  00029	5d		 pop	 ebp
  0002a	c3		 ret	 0
$LN7@Allocate_m:

; 142  :     _STL_VERIFY(_Ptr_container != 0, "invalid argument"); // validate even in release since we're doing p[-1]

  0002b	e9 00 00 00 00	 jmp	 __invalid_parameter_noinfo_noreturn
??$_Allocate_manually_vector_aligned@U_Default_allocate_traits@std@@@std@@YAPAXI@Z ENDP ; std::_Allocate_manually_vector_aligned<std::_Default_allocate_traits>
_TEXT	ENDS
; Function compile flags: /Ogtp
; File C:\Users\murat\Desktop\Siveps2-1-99-Project\source\client\extern\include\d3dx8math.h
;	COMDAT ??0D3DXMATRIX@@QAE@XZ
_TEXT	SEGMENT
??0D3DXMATRIX@@QAE@XZ PROC				; D3DXMATRIX::D3DXMATRIX, COMDAT
; _this$ = ecx

; 177  :     D3DXMATRIX() {};

  00000	8b c1		 mov	 eax, ecx
  00002	c3		 ret	 0
??0D3DXMATRIX@@QAE@XZ ENDP				; D3DXMATRIX::D3DXMATRIX
_TEXT	ENDS
; Function compile flags: /Ogtp
; File C:\Users\murat\Desktop\Siveps2-1-99-Project\source\client\extern\include\d3dx8math.h
;	COMDAT ??0D3DXVECTOR3@@QAE@XZ
_TEXT	SEGMENT
??0D3DXVECTOR3@@QAE@XZ PROC				; D3DXVECTOR3::D3DXVECTOR3, COMDAT
; _this$ = ecx

; 89   :     D3DXVECTOR3() {};

  00000	8b c1		 mov	 eax, ecx
  00002	c3		 ret	 0
??0D3DXVECTOR3@@QAE@XZ ENDP				; D3DXVECTOR3::D3DXVECTOR3
_TEXT	ENDS
; Function compile flags: /Ogtp
; File C:\Program Files (x86)\Microsoft Visual Studio\2019\Professional\VC\Tools\MSVC\14.29.30133\include\exception
;	COMDAT ?_Throw_bad_array_new_length@std@@YAXXZ
_TEXT	SEGMENT
$T1 = -12						; size = 12
?_Throw_bad_array_new_length@std@@YAXXZ PROC		; std::_Throw_bad_array_new_length, COMDAT

; 320  : [[noreturn]] inline void _Throw_bad_array_new_length() {

  00000	55		 push	 ebp
  00001	8b ec		 mov	 ebp, esp
  00003	83 ec 0c	 sub	 esp, 12			; 0000000cH

; 321  :     _THROW(bad_array_new_length{});

  00006	8d 4d f4	 lea	 ecx, DWORD PTR $T1[ebp]
  00009	e8 00 00 00 00	 call	 ??0bad_array_new_length@std@@QAE@XZ ; std::bad_array_new_length::bad_array_new_length
  0000e	68 00 00 00 00	 push	 OFFSET __TI3?AVbad_array_new_length@std@@
  00013	8d 45 f4	 lea	 eax, DWORD PTR $T1[ebp]
  00016	50		 push	 eax
  00017	e8 00 00 00 00	 call	 __CxxThrowException@8
$LN3@Throw_bad_:
  0001c	cc		 int	 3
?_Throw_bad_array_new_length@std@@YAXXZ ENDP		; std::_Throw_bad_array_new_length
_TEXT	ENDS
; Function compile flags: /Ogtp
; File C:\Program Files (x86)\Microsoft Visual Studio\2019\Professional\VC\Tools\MSVC\14.29.30133\include\vcruntime_exception.h
;	COMDAT ??_Gbad_array_new_length@std@@UAEPAXI@Z
_TEXT	SEGMENT
___flags$ = 8						; size = 4
??_Gbad_array_new_length@std@@UAEPAXI@Z PROC		; std::bad_array_new_length::`scalar deleting destructor', COMDAT
; _this$ = ecx
  00000	55		 push	 ebp
  00001	8b ec		 mov	 ebp, esp

; 89   :     {

  00003	56		 push	 esi
  00004	8b f1		 mov	 esi, ecx

; 90   :         __std_exception_destroy(&_Data);

  00006	8d 46 04	 lea	 eax, DWORD PTR [esi+4]
  00009	c7 06 00 00 00
	00		 mov	 DWORD PTR [esi], OFFSET ??_7exception@std@@6B@
  0000f	50		 push	 eax
  00010	e8 00 00 00 00	 call	 ___std_exception_destroy
  00015	83 c4 04	 add	 esp, 4
  00018	f6 45 08 01	 test	 BYTE PTR ___flags$[ebp], 1
  0001c	74 0b		 je	 SHORT $LN12@scalar
  0001e	6a 0c		 push	 12			; 0000000cH
  00020	56		 push	 esi
  00021	e8 00 00 00 00	 call	 ??3@YAXPAXI@Z		; operator delete
  00026	83 c4 08	 add	 esp, 8
$LN12@scalar:
  00029	8b c6		 mov	 eax, esi
  0002b	5e		 pop	 esi
  0002c	5d		 pop	 ebp
  0002d	c2 04 00	 ret	 4
??_Gbad_array_new_length@std@@UAEPAXI@Z ENDP		; std::bad_array_new_length::`scalar deleting destructor'
_TEXT	ENDS
; Function compile flags: /Ogtp
; File C:\Program Files (x86)\Microsoft Visual Studio\2019\Professional\VC\Tools\MSVC\14.29.30133\include\vcruntime_exception.h
;	COMDAT ??0bad_array_new_length@std@@QAE@ABV01@@Z
_TEXT	SEGMENT
___that$ = 8						; size = 4
??0bad_array_new_length@std@@QAE@ABV01@@Z PROC		; std::bad_array_new_length::bad_array_new_length, COMDAT
; _this$ = ecx
  00000	55		 push	 ebp
  00001	8b ec		 mov	 ebp, esp

; 72   :     {

  00003	56		 push	 esi
  00004	8b f1		 mov	 esi, ecx
  00006	0f 57 c0	 xorps	 xmm0, xmm0

; 71   :         : _Data()

  00009	8d 46 04	 lea	 eax, DWORD PTR [esi+4]

; 73   :         __std_exception_copy(&_Other._Data, &_Data);

  0000c	50		 push	 eax
  0000d	c7 06 00 00 00
	00		 mov	 DWORD PTR [esi], OFFSET ??_7exception@std@@6B@
  00013	66 0f d6 00	 movq	 QWORD PTR [eax], xmm0
  00017	8b 45 08	 mov	 eax, DWORD PTR ___that$[ebp]
  0001a	83 c0 04	 add	 eax, 4
  0001d	50		 push	 eax
  0001e	e8 00 00 00 00	 call	 ___std_exception_copy
  00023	83 c4 08	 add	 esp, 8
  00026	c7 06 00 00 00
	00		 mov	 DWORD PTR [esi], OFFSET ??_7bad_array_new_length@std@@6B@
  0002c	8b c6		 mov	 eax, esi
  0002e	5e		 pop	 esi
  0002f	5d		 pop	 ebp
  00030	c2 04 00	 ret	 4
??0bad_array_new_length@std@@QAE@ABV01@@Z ENDP		; std::bad_array_new_length::bad_array_new_length
_TEXT	ENDS
; Function compile flags: /Ogtp
; File C:\Program Files (x86)\Microsoft Visual Studio\2019\Professional\VC\Tools\MSVC\14.29.30133\include\vcruntime_exception.h
;	COMDAT ??1bad_array_new_length@std@@UAE@XZ
_TEXT	SEGMENT
??1bad_array_new_length@std@@UAE@XZ PROC		; std::bad_array_new_length::~bad_array_new_length, COMDAT
; _this$ = ecx

; 90   :         __std_exception_destroy(&_Data);

  00000	8d 41 04	 lea	 eax, DWORD PTR [ecx+4]
  00003	c7 01 00 00 00
	00		 mov	 DWORD PTR [ecx], OFFSET ??_7exception@std@@6B@
  00009	50		 push	 eax
  0000a	e8 00 00 00 00	 call	 ___std_exception_destroy
  0000f	59		 pop	 ecx
  00010	c3		 ret	 0
??1bad_array_new_length@std@@UAE@XZ ENDP		; std::bad_array_new_length::~bad_array_new_length
_TEXT	ENDS
; Function compile flags: /Ogtp
; File C:\Program Files (x86)\Microsoft Visual Studio\2019\Professional\VC\Tools\MSVC\14.29.30133\include\vcruntime_exception.h
;	COMDAT ??0bad_array_new_length@std@@QAE@XZ
_TEXT	SEGMENT
??0bad_array_new_length@std@@QAE@XZ PROC		; std::bad_array_new_length::bad_array_new_length, COMDAT
; _this$ = ecx

; 141  :     {

  00000	0f 57 c0	 xorps	 xmm0, xmm0

; 142  :     }

  00003	8b c1		 mov	 eax, ecx

; 65   :         : _Data()

  00005	66 0f d6 41 04	 movq	 QWORD PTR [ecx+4], xmm0

; 66   :     {
; 67   :         _Data._What = _Message;

  0000a	c7 41 04 00 00
	00 00		 mov	 DWORD PTR [ecx+4], OFFSET ??_C@_0BF@KINCDENJ@bad?5array?5new?5length@

; 141  :     {

  00011	c7 01 00 00 00
	00		 mov	 DWORD PTR [ecx], OFFSET ??_7bad_array_new_length@std@@6B@

; 142  :     }

  00017	c3		 ret	 0
??0bad_array_new_length@std@@QAE@XZ ENDP		; std::bad_array_new_length::bad_array_new_length
_TEXT	ENDS
; Function compile flags: /Ogtp
; File C:\Program Files (x86)\Microsoft Visual Studio\2019\Professional\VC\Tools\MSVC\14.29.30133\include\vcruntime_exception.h
;	COMDAT ??_Gbad_alloc@std@@UAEPAXI@Z
_TEXT	SEGMENT
___flags$ = 8						; size = 4
??_Gbad_alloc@std@@UAEPAXI@Z PROC			; std::bad_alloc::`scalar deleting destructor', COMDAT
; _this$ = ecx
  00000	55		 push	 ebp
  00001	8b ec		 mov	 ebp, esp

; 89   :     {

  00003	56		 push	 esi
  00004	8b f1		 mov	 esi, ecx

; 90   :         __std_exception_destroy(&_Data);

  00006	8d 46 04	 lea	 eax, DWORD PTR [esi+4]
  00009	c7 06 00 00 00
	00		 mov	 DWORD PTR [esi], OFFSET ??_7exception@std@@6B@
  0000f	50		 push	 eax
  00010	e8 00 00 00 00	 call	 ___std_exception_destroy
  00015	83 c4 04	 add	 esp, 4
  00018	f6 45 08 01	 test	 BYTE PTR ___flags$[ebp], 1
  0001c	74 0b		 je	 SHORT $LN9@scalar
  0001e	6a 0c		 push	 12			; 0000000cH
  00020	56		 push	 esi
  00021	e8 00 00 00 00	 call	 ??3@YAXPAXI@Z		; operator delete
  00026	83 c4 08	 add	 esp, 8
$LN9@scalar:
  00029	8b c6		 mov	 eax, esi
  0002b	5e		 pop	 esi
  0002c	5d		 pop	 ebp
  0002d	c2 04 00	 ret	 4
??_Gbad_alloc@std@@UAEPAXI@Z ENDP			; std::bad_alloc::`scalar deleting destructor'
_TEXT	ENDS
; Function compile flags: /Ogtp
; File C:\Program Files (x86)\Microsoft Visual Studio\2019\Professional\VC\Tools\MSVC\14.29.30133\include\vcruntime_exception.h
;	COMDAT ??0bad_alloc@std@@QAE@ABV01@@Z
_TEXT	SEGMENT
___that$ = 8						; size = 4
??0bad_alloc@std@@QAE@ABV01@@Z PROC			; std::bad_alloc::bad_alloc, COMDAT
; _this$ = ecx
  00000	55		 push	 ebp
  00001	8b ec		 mov	 ebp, esp

; 72   :     {

  00003	56		 push	 esi
  00004	8b f1		 mov	 esi, ecx
  00006	0f 57 c0	 xorps	 xmm0, xmm0

; 71   :         : _Data()

  00009	8d 46 04	 lea	 eax, DWORD PTR [esi+4]

; 73   :         __std_exception_copy(&_Other._Data, &_Data);

  0000c	50		 push	 eax
  0000d	c7 06 00 00 00
	00		 mov	 DWORD PTR [esi], OFFSET ??_7exception@std@@6B@
  00013	66 0f d6 00	 movq	 QWORD PTR [eax], xmm0
  00017	8b 45 08	 mov	 eax, DWORD PTR ___that$[ebp]
  0001a	83 c0 04	 add	 eax, 4
  0001d	50		 push	 eax
  0001e	e8 00 00 00 00	 call	 ___std_exception_copy
  00023	83 c4 08	 add	 esp, 8
  00026	c7 06 00 00 00
	00		 mov	 DWORD PTR [esi], OFFSET ??_7bad_alloc@std@@6B@
  0002c	8b c6		 mov	 eax, esi
  0002e	5e		 pop	 esi
  0002f	5d		 pop	 ebp
  00030	c2 04 00	 ret	 4
??0bad_alloc@std@@QAE@ABV01@@Z ENDP			; std::bad_alloc::bad_alloc
_TEXT	ENDS
; Function compile flags: /Ogtp
; File C:\Program Files (x86)\Microsoft Visual Studio\2019\Professional\VC\Tools\MSVC\14.29.30133\include\vcruntime_exception.h
;	COMDAT ??_Gexception@std@@UAEPAXI@Z
_TEXT	SEGMENT
___flags$ = 8						; size = 4
??_Gexception@std@@UAEPAXI@Z PROC			; std::exception::`scalar deleting destructor', COMDAT
; _this$ = ecx
  00000	55		 push	 ebp
  00001	8b ec		 mov	 ebp, esp

; 89   :     {

  00003	56		 push	 esi
  00004	8b f1		 mov	 esi, ecx

; 90   :         __std_exception_destroy(&_Data);

  00006	8d 46 04	 lea	 eax, DWORD PTR [esi+4]
  00009	c7 06 00 00 00
	00		 mov	 DWORD PTR [esi], OFFSET ??_7exception@std@@6B@
  0000f	50		 push	 eax
  00010	e8 00 00 00 00	 call	 ___std_exception_destroy
  00015	83 c4 04	 add	 esp, 4
  00018	f6 45 08 01	 test	 BYTE PTR ___flags$[ebp], 1
  0001c	74 0b		 je	 SHORT $LN6@scalar
  0001e	6a 0c		 push	 12			; 0000000cH
  00020	56		 push	 esi
  00021	e8 00 00 00 00	 call	 ??3@YAXPAXI@Z		; operator delete
  00026	83 c4 08	 add	 esp, 8
$LN6@scalar:
  00029	8b c6		 mov	 eax, esi
  0002b	5e		 pop	 esi
  0002c	5d		 pop	 ebp
  0002d	c2 04 00	 ret	 4
??_Gexception@std@@UAEPAXI@Z ENDP			; std::exception::`scalar deleting destructor'
_TEXT	ENDS
; Function compile flags: /Ogtp
; File C:\Program Files (x86)\Microsoft Visual Studio\2019\Professional\VC\Tools\MSVC\14.29.30133\include\vcruntime_exception.h
;	COMDAT ?what@exception@std@@UBEPBDXZ
_TEXT	SEGMENT
?what@exception@std@@UBEPBDXZ PROC			; std::exception::what, COMDAT
; _this$ = ecx

; 95   :         return _Data._What ? _Data._What : "Unknown exception";

  00000	8b 49 04	 mov	 ecx, DWORD PTR [ecx+4]
  00003	b8 00 00 00 00	 mov	 eax, OFFSET ??_C@_0BC@EOODALEL@Unknown?5exception@
  00008	85 c9		 test	 ecx, ecx
  0000a	0f 45 c1	 cmovne	 eax, ecx

; 96   :     }

  0000d	c3		 ret	 0
?what@exception@std@@UBEPBDXZ ENDP			; std::exception::what
_TEXT	ENDS
; Function compile flags: /Ogtp
; File C:\Program Files (x86)\Microsoft Visual Studio\2019\Professional\VC\Tools\MSVC\14.29.30133\include\vcruntime_exception.h
;	COMDAT ??1exception@std@@UAE@XZ
_TEXT	SEGMENT
??1exception@std@@UAE@XZ PROC				; std::exception::~exception, COMDAT
; _this$ = ecx

; 90   :         __std_exception_destroy(&_Data);

  00000	8d 41 04	 lea	 eax, DWORD PTR [ecx+4]
  00003	c7 01 00 00 00
	00		 mov	 DWORD PTR [ecx], OFFSET ??_7exception@std@@6B@
  00009	50		 push	 eax
  0000a	e8 00 00 00 00	 call	 ___std_exception_destroy
  0000f	59		 pop	 ecx

; 91   :     }

  00010	c3		 ret	 0
??1exception@std@@UAE@XZ ENDP				; std::exception::~exception
_TEXT	ENDS
; Function compile flags: /Ogtp
; File C:\Program Files (x86)\Microsoft Visual Studio\2019\Professional\VC\Tools\MSVC\14.29.30133\include\vcruntime_exception.h
;	COMDAT ??0exception@std@@QAE@ABV01@@Z
_TEXT	SEGMENT
__Other$ = 8						; size = 4
??0exception@std@@QAE@ABV01@@Z PROC			; std::exception::exception, COMDAT
; _this$ = ecx

; 72   :     {

  00000	55		 push	 ebp
  00001	8b ec		 mov	 ebp, esp
  00003	56		 push	 esi
  00004	8b f1		 mov	 esi, ecx
  00006	0f 57 c0	 xorps	 xmm0, xmm0
  00009	8d 46 04	 lea	 eax, DWORD PTR [esi+4]

; 73   :         __std_exception_copy(&_Other._Data, &_Data);

  0000c	50		 push	 eax
  0000d	c7 06 00 00 00
	00		 mov	 DWORD PTR [esi], OFFSET ??_7exception@std@@6B@
  00013	66 0f d6 00	 movq	 QWORD PTR [eax], xmm0
  00017	8b 45 08	 mov	 eax, DWORD PTR __Other$[ebp]
  0001a	83 c0 04	 add	 eax, 4
  0001d	50		 push	 eax
  0001e	e8 00 00 00 00	 call	 ___std_exception_copy
  00023	83 c4 08	 add	 esp, 8

; 74   :     }

  00026	8b c6		 mov	 eax, esi
  00028	5e		 pop	 esi
  00029	5d		 pop	 ebp
  0002a	c2 04 00	 ret	 4
??0exception@std@@QAE@ABV01@@Z ENDP			; std::exception::exception
_TEXT	ENDS
; Function compile flags: /Ogtp
;	COMDAT ??_H@YGXPAXIIP6EPAX0@Z@Z
_TEXT	SEGMENT
___t$ = 8						; size = 4
___s$ = 12						; size = 4
___n$ = 16						; size = 4
___f$ = 20						; size = 4
??_H@YGXPAXIIP6EPAX0@Z@Z PROC				; `vector constructor iterator', COMDAT
  00000	55		 push	 ebp
  00001	8b ec		 mov	 ebp, esp
  00003	56		 push	 esi
  00004	8b 75 10	 mov	 esi, DWORD PTR ___n$[ebp]
  00007	85 f6		 test	 esi, esi
  00009	74 16		 je	 SHORT $LN6@vector
  0000b	53		 push	 ebx
  0000c	8b 5d 14	 mov	 ebx, DWORD PTR ___f$[ebp]
  0000f	57		 push	 edi
  00010	8b 7d 08	 mov	 edi, DWORD PTR ___t$[ebp]
$LL2@vector:
  00013	8b cf		 mov	 ecx, edi
  00015	ff d3		 call	 ebx
  00017	03 7d 0c	 add	 edi, DWORD PTR ___s$[ebp]
  0001a	83 ee 01	 sub	 esi, 1
  0001d	75 f4		 jne	 SHORT $LL2@vector
  0001f	5f		 pop	 edi
  00020	5b		 pop	 ebx
$LN6@vector:
  00021	5e		 pop	 esi
  00022	5d		 pop	 ebp
  00023	c2 10 00	 ret	 16			; 00000010H
??_H@YGXPAXIIP6EPAX0@Z@Z ENDP				; `vector constructor iterator'
_TEXT	ENDS
END
