; Listing generated by Microsoft (R) Optimizing Compiler Version 19.29.30137.0 

	TITLE	C:\Users\murat\Desktop\Siveps2-1-99-Project\source\client\Client\EterPack\Distribute\EterPackManager.obj
	.686P
	.XMM
	include listing.inc
	.model	flat

INCLUDELIB LIBCMT
INCLUDELIB OLDNAMES

CONST	SEGMENT
?_Fake_alloc@std@@3U_Fake_allocator@1@B	ORG $+1		; std::_Fake_alloc
CONST	ENDS
PUBLIC	??0exception@std@@QAE@ABV01@@Z			; std::exception::exception
PUBLIC	??1exception@std@@UAE@XZ			; std::exception::~exception
PUBLIC	?what@exception@std@@UBEPBDXZ			; std::exception::what
PUBLIC	??_Gexception@std@@UAEPAXI@Z			; std::exception::`scalar deleting destructor'
PUBLIC	??0bad_alloc@std@@QAE@ABV01@@Z			; std::bad_alloc::bad_alloc
PUBLIC	??_Gbad_alloc@std@@UAEPAXI@Z			; std::bad_alloc::`scalar deleting destructor'
PUBLIC	??0bad_array_new_length@std@@QAE@XZ		; std::bad_array_new_length::bad_array_new_length
PUBLIC	??1bad_array_new_length@std@@UAE@XZ		; std::bad_array_new_length::~bad_array_new_length
PUBLIC	??0bad_array_new_length@std@@QAE@ABV01@@Z	; std::bad_array_new_length::bad_array_new_length
PUBLIC	??_Gbad_array_new_length@std@@UAEPAXI@Z		; std::bad_array_new_length::`scalar deleting destructor'
PUBLIC	?_Throw_bad_array_new_length@std@@YAXXZ		; std::_Throw_bad_array_new_length
PUBLIC	?_Xlen_string@std@@YAXXZ			; std::_Xlen_string
PUBLIC	??0?$basic_string@DU?$char_traits@D@std@@V?$allocator@D@2@@std@@QAE@ABV01@@Z ; std::basic_string<char,std::char_traits<char>,std::allocator<char> >::basic_string<char,std::char_traits<char>,std::allocator<char> >
PUBLIC	??1?$basic_string@DU?$char_traits@D@std@@V?$allocator@D@2@@std@@QAE@XZ ; std::basic_string<char,std::char_traits<char>,std::allocator<char> >::~basic_string<char,std::char_traits<char>,std::allocator<char> >
PUBLIC	?assign@?$basic_string@DU?$char_traits@D@std@@V?$allocator@D@2@@std@@QAEAAV12@QBDI@Z ; std::basic_string<char,std::char_traits<char>,std::allocator<char> >::assign
PUBLIC	?NoPath@CFileNameHelper@@SA?AV?$basic_string@DU?$char_traits@D@std@@V?$allocator@D@2@@std@@AAV23@@Z ; CFileNameHelper::NoPath
PUBLIC	??$hash_value@K@boost@@YAIK@Z			; boost::hash_value<unsigned long>
PUBLIC	??1?$table@U?$map@V?$allocator@U?$pair@$$CBKUItem@CEterFileDict@@@std@@@std@@KUItem@CEterFileDict@@U?$hash@K@boost@@U?$equal_to@K@2@@detail@unordered@boost@@@detail@unordered@boost@@QAE@XZ ; boost::unordered::detail::table<boost::unordered::detail::map<std::allocator<std::pair<unsigned long const ,CEterFileDict::Item> >,unsigned long,CEterFileDict::Item,boost::hash<unsigned long>,std::equal_to<unsigned long> > >::~table<boost::unordered::detail::map<std::allocator<std::pair<unsigned long const ,CEterFileDict::Item> >,unsigned long,CEterFileDict::Item,boost::hash<unsigned long>,std::equal_to<unsigned long> > >
PUBLIC	??0?$unordered_multimap@KUItem@CEterFileDict@@U?$hash@K@boost@@U?$equal_to@K@std@@V?$allocator@U?$pair@$$CBKUItem@CEterFileDict@@@std@@@6@@unordered@boost@@QAE@XZ ; boost::unordered::unordered_multimap<unsigned long,CEterFileDict::Item,boost::hash<unsigned long>,std::equal_to<unsigned long>,std::allocator<std::pair<unsigned long const ,CEterFileDict::Item> > >::unordered_multimap<unsigned long,CEterFileDict::Item,boost::hash<unsigned long>,std::equal_to<unsigned long>,std::allocator<std::pair<unsigned long const ,CEterFileDict::Item> > >
PUBLIC	??1?$unordered_multimap@KUItem@CEterFileDict@@U?$hash@K@boost@@U?$equal_to@K@std@@V?$allocator@U?$pair@$$CBKUItem@CEterFileDict@@@std@@@6@@unordered@boost@@QAE@XZ ; boost::unordered::unordered_multimap<unsigned long,CEterFileDict::Item,boost::hash<unsigned long>,std::equal_to<unsigned long>,std::allocator<std::pair<unsigned long const ,CEterFileDict::Item> > >::~unordered_multimap<unsigned long,CEterFileDict::Item,boost::hash<unsigned long>,std::equal_to<unsigned long>,std::allocator<std::pair<unsigned long const ,CEterFileDict::Item> > >
PUBLIC	??1CEterFileDict@@QAE@XZ			; CEterFileDict::~CEterFileDict
PUBLIC	??1?$CSingleton@VCEterPackManager@@@@UAE@XZ	; CSingleton<CEterPackManager>::~CSingleton<CEterPackManager>
PUBLIC	??_G?$CSingleton@VCEterPackManager@@@@UAEPAXI@Z	; CSingleton<CEterPackManager>::`scalar deleting destructor'
PUBLIC	??0CEterPackManager@@QAE@XZ			; CEterPackManager::CEterPackManager
PUBLIC	??1CEterPackManager@@UAE@XZ			; CEterPackManager::~CEterPackManager
PUBLIC	?SetCacheMode@CEterPackManager@@QAEXXZ		; CEterPackManager::SetCacheMode
PUBLIC	?SetRelativePathMode@CEterPackManager@@QAEXXZ	; CEterPackManager::SetRelativePathMode
PUBLIC	?LoadStaticCache@CEterPackManager@@QAEXPBD@Z	; CEterPackManager::LoadStaticCache
PUBLIC	?SetSearchMode@CEterPackManager@@QAEX_N@Z	; CEterPackManager::SetSearchMode
PUBLIC	?GetSearchMode@CEterPackManager@@QAEHXZ		; CEterPackManager::GetSearchMode
PUBLIC	?Get@CEterPackManager@@QAE_NAAVCMappedFile@@PBDPAPBX@Z ; CEterPackManager::Get
PUBLIC	?GetFromPack@CEterPackManager@@QAE_NAAVCMappedFile@@PBDPAPBX@Z ; CEterPackManager::GetFromPack
PUBLIC	?GetFromFile@CEterPackManager@@QAE_NAAVCMappedFile@@PBDPAPBX@Z ; CEterPackManager::GetFromFile
PUBLIC	?isExist@CEterPackManager@@QAE_NPBD@Z		; CEterPackManager::isExist
PUBLIC	?isExistInPack@CEterPackManager@@QAE_NPBD@Z	; CEterPackManager::isExistInPack
PUBLIC	?RegisterPack@CEterPackManager@@QAE_NPBD0PBE@Z	; CEterPackManager::RegisterPack
PUBLIC	?RegisterRootPack@CEterPackManager@@QAEXPBD@Z	; CEterPackManager::RegisterRootPack
PUBLIC	?RegisterPackWhenPackMaking@CEterPackManager@@QAE_NPBD0PAVCEterPack@@@Z ; CEterPackManager::RegisterPackWhenPackMaking
PUBLIC	?DecryptPackIV@CEterPackManager@@QAE_NK@Z	; CEterPackManager::DecryptPackIV
PUBLIC	?GetRootPackFileName@CEterPackManager@@QAEPBDXZ	; CEterPackManager::GetRootPackFileName
PUBLIC	?WriteHybridCryptPackInfo@CEterPackManager@@QAEXPBD@Z ; CEterPackManager::WriteHybridCryptPackInfo
PUBLIC	?RetrieveHybridCryptPackKeys@CEterPackManager@@QAEXPBE@Z ; CEterPackManager::RetrieveHybridCryptPackKeys
PUBLIC	?RetrieveHybridCryptPackSDB@CEterPackManager@@QAEXPBE@Z ; CEterPackManager::RetrieveHybridCryptPackSDB
PUBLIC	?ArrangeMemoryMappedPack@CEterPackManager@@QAEXXZ ; CEterPackManager::ArrangeMemoryMappedPack
PUBLIC	?ConvertFileName@CEterPackManager@@IAEHPBDAAV?$basic_string@DU?$char_traits@D@std@@V?$allocator@D@2@@std@@@Z ; CEterPackManager::ConvertFileName
PUBLIC	?CompareName@CEterPackManager@@IAE_NPBDK0@Z	; CEterPackManager::CompareName
PUBLIC	?FindPack@CEterPackManager@@IAEPAVCEterPack@@PBD@Z ; CEterPackManager::FindPack
PUBLIC	?__FindCache@CEterPackManager@@IAEPAUSCache@1@K@Z ; CEterPackManager::__FindCache
PUBLIC	?__ClearCacheMap@CEterPackManager@@IAEXXZ	; CEterPackManager::__ClearCacheMap
PUBLIC	?push_front@?$list@PAVCEterPack@@V?$allocator@PAVCEterPack@@@std@@@std@@QAEXABQAVCEterPack@@@Z ; std::list<CEterPack *,std::allocator<CEterPack *> >::push_front
PUBLIC	?min_buckets_for_size@?$table@U?$map@V?$allocator@U?$pair@$$CBV?$basic_string@DU?$char_traits@D@std@@V?$allocator@D@2@@std@@PAVCEterPack@@@std@@@std@@V?$basic_string@DU?$char_traits@D@std@@V?$allocator@D@2@@2@PAVCEterPack@@Ustringhash@@U?$equal_to@V?$basic_string@DU?$char_traits@D@std@@V?$allocator@D@2@@std@@@2@@detail@unordered@boost@@@detail@unordered@boost@@QBEII@Z ; boost::unordered::detail::table<boost::unordered::detail::map<std::allocator<std::pair<std::basic_string<char,std::char_traits<char>,std::allocator<char> > const ,CEterPack *> >,std::basic_string<char,std::char_traits<char>,std::allocator<char> >,CEterPack *,stringhash,std::equal_to<std::basic_string<char,std::char_traits<char>,std::allocator<char> > > > >::min_buckets_for_size
PUBLIC	?create_buckets@?$table@U?$map@V?$allocator@U?$pair@$$CBV?$basic_string@DU?$char_traits@D@std@@V?$allocator@D@2@@std@@PAVCEterPack@@@std@@@std@@V?$basic_string@DU?$char_traits@D@std@@V?$allocator@D@2@@2@PAVCEterPack@@Ustringhash@@U?$equal_to@V?$basic_string@DU?$char_traits@D@std@@V?$allocator@D@2@@std@@@2@@detail@unordered@boost@@@detail@unordered@boost@@QAEXI@Z ; boost::unordered::detail::table<boost::unordered::detail::map<std::allocator<std::pair<std::basic_string<char,std::char_traits<char>,std::allocator<char> > const ,CEterPack *> >,std::basic_string<char,std::char_traits<char>,std::allocator<char> >,CEterPack *,stringhash,std::equal_to<std::basic_string<char,std::char_traits<char>,std::allocator<char> > > > >::create_buckets
PUBLIC	??1?$table@U?$map@V?$allocator@U?$pair@$$CBV?$basic_string@DU?$char_traits@D@std@@V?$allocator@D@2@@std@@PAVCEterPack@@@std@@@std@@V?$basic_string@DU?$char_traits@D@std@@V?$allocator@D@2@@2@PAVCEterPack@@Ustringhash@@U?$equal_to@V?$basic_string@DU?$char_traits@D@std@@V?$allocator@D@2@@std@@@2@@detail@unordered@boost@@@detail@unordered@boost@@QAE@XZ ; boost::unordered::detail::table<boost::unordered::detail::map<std::allocator<std::pair<std::basic_string<char,std::char_traits<char>,std::allocator<char> > const ,CEterPack *> >,std::basic_string<char,std::char_traits<char>,std::allocator<char> >,CEterPack *,stringhash,std::equal_to<std::basic_string<char,std::char_traits<char>,std::allocator<char> > > > >::~table<boost::unordered::detail::map<std::allocator<std::pair<std::basic_string<char,std::char_traits<char>,std::allocator<char> > const ,CEterPack *> >,std::basic_string<char,std::char_traits<char>,std::allocator<char> >,CEterPack *,stringhash,std::equal_to<std::basic_string<char,std::char_traits<char>,std::allocator<char> > > > >
PUBLIC	?rehash_impl@?$table@U?$map@V?$allocator@U?$pair@$$CBV?$basic_string@DU?$char_traits@D@std@@V?$allocator@D@2@@std@@PAVCEterPack@@@std@@@std@@V?$basic_string@DU?$char_traits@D@std@@V?$allocator@D@2@@2@PAVCEterPack@@Ustringhash@@U?$equal_to@V?$basic_string@DU?$char_traits@D@std@@V?$allocator@D@2@@std@@@2@@detail@unordered@boost@@@detail@unordered@boost@@QAEXI@Z ; boost::unordered::detail::table<boost::unordered::detail::map<std::allocator<std::pair<std::basic_string<char,std::char_traits<char>,std::allocator<char> > const ,CEterPack *> >,std::basic_string<char,std::char_traits<char>,std::allocator<char> >,CEterPack *,stringhash,std::equal_to<std::basic_string<char,std::char_traits<char>,std::allocator<char> > > > >::rehash_impl
PUBLIC	??0?$unordered_map@V?$basic_string@DU?$char_traits@D@std@@V?$allocator@D@2@@std@@PAVCEterPack@@Ustringhash@@U?$equal_to@V?$basic_string@DU?$char_traits@D@std@@V?$allocator@D@2@@std@@@2@V?$allocator@U?$pair@$$CBV?$basic_string@DU?$char_traits@D@std@@V?$allocator@D@2@@std@@PAVCEterPack@@@std@@@2@@unordered@boost@@QAE@XZ ; boost::unordered::unordered_map<std::basic_string<char,std::char_traits<char>,std::allocator<char> >,CEterPack *,stringhash,std::equal_to<std::basic_string<char,std::char_traits<char>,std::allocator<char> > >,std::allocator<std::pair<std::basic_string<char,std::char_traits<char>,std::allocator<char> > const ,CEterPack *> > >::unordered_map<std::basic_string<char,std::char_traits<char>,std::allocator<char> >,CEterPack *,stringhash,std::equal_to<std::basic_string<char,std::char_traits<char>,std::allocator<char> > >,std::allocator<std::pair<std::basic_string<char,std::char_traits<char>,std::allocator<char> > const ,CEterPack *> > >
PUBLIC	??1?$unordered_map@V?$basic_string@DU?$char_traits@D@std@@V?$allocator@D@2@@std@@PAVCEterPack@@Ustringhash@@U?$equal_to@V?$basic_string@DU?$char_traits@D@std@@V?$allocator@D@2@@std@@@2@V?$allocator@U?$pair@$$CBV?$basic_string@DU?$char_traits@D@std@@V?$allocator@D@2@@std@@PAVCEterPack@@@std@@@2@@unordered@boost@@QAE@XZ ; boost::unordered::unordered_map<std::basic_string<char,std::char_traits<char>,std::allocator<char> >,CEterPack *,stringhash,std::equal_to<std::basic_string<char,std::char_traits<char>,std::allocator<char> > >,std::allocator<std::pair<std::basic_string<char,std::char_traits<char>,std::allocator<char> > const ,CEterPack *> > >::~unordered_map<std::basic_string<char,std::char_traits<char>,std::allocator<char> >,CEterPack *,stringhash,std::equal_to<std::basic_string<char,std::char_traits<char>,std::allocator<char> > >,std::allocator<std::pair<std::basic_string<char,std::char_traits<char>,std::allocator<char> > const ,CEterPack *> > >
PUBLIC	?find@?$unordered_map@V?$basic_string@DU?$char_traits@D@std@@V?$allocator@D@2@@std@@PAVCEterPack@@Ustringhash@@U?$equal_to@V?$basic_string@DU?$char_traits@D@std@@V?$allocator@D@2@@std@@@2@V?$allocator@U?$pair@$$CBV?$basic_string@DU?$char_traits@D@std@@V?$allocator@D@2@@std@@PAVCEterPack@@@std@@@2@@unordered@boost@@QAE?AU?$iterator@U?$ptr_node@U?$pair@$$CBV?$basic_string@DU?$char_traits@D@std@@V?$allocator@D@2@@std@@PAVCEterPack@@@std@@@detail@unordered@boost@@@iterator_detail@23@ABV?$basic_string@DU?$char_traits@D@std@@V?$allocator@D@2@@std@@@Z ; boost::unordered::unordered_map<std::basic_string<char,std::char_traits<char>,std::allocator<char> >,CEterPack *,stringhash,std::equal_to<std::basic_string<char,std::char_traits<char>,std::allocator<char> > >,std::allocator<std::pair<std::basic_string<char,std::char_traits<char>,std::allocator<char> > const ,CEterPack *> > >::find
PUBLIC	?min_buckets_for_size@?$table@U?$map@V?$allocator@U?$pair@$$CBKUSCache@CEterPackManager@@@std@@@std@@KUSCache@CEterPackManager@@U?$hash@K@boost@@U?$equal_to@K@2@@detail@unordered@boost@@@detail@unordered@boost@@QBEII@Z ; boost::unordered::detail::table<boost::unordered::detail::map<std::allocator<std::pair<unsigned long const ,CEterPackManager::SCache> >,unsigned long,CEterPackManager::SCache,boost::hash<unsigned long>,std::equal_to<unsigned long> > >::min_buckets_for_size
PUBLIC	?create_buckets@?$table@U?$map@V?$allocator@U?$pair@$$CBKUSCache@CEterPackManager@@@std@@@std@@KUSCache@CEterPackManager@@U?$hash@K@boost@@U?$equal_to@K@2@@detail@unordered@boost@@@detail@unordered@boost@@QAEXI@Z ; boost::unordered::detail::table<boost::unordered::detail::map<std::allocator<std::pair<unsigned long const ,CEterPackManager::SCache> >,unsigned long,CEterPackManager::SCache,boost::hash<unsigned long>,std::equal_to<unsigned long> > >::create_buckets
PUBLIC	??1?$table@U?$map@V?$allocator@U?$pair@$$CBKUSCache@CEterPackManager@@@std@@@std@@KUSCache@CEterPackManager@@U?$hash@K@boost@@U?$equal_to@K@2@@detail@unordered@boost@@@detail@unordered@boost@@QAE@XZ ; boost::unordered::detail::table<boost::unordered::detail::map<std::allocator<std::pair<unsigned long const ,CEterPackManager::SCache> >,unsigned long,CEterPackManager::SCache,boost::hash<unsigned long>,std::equal_to<unsigned long> > >::~table<boost::unordered::detail::map<std::allocator<std::pair<unsigned long const ,CEterPackManager::SCache> >,unsigned long,CEterPackManager::SCache,boost::hash<unsigned long>,std::equal_to<unsigned long> > >
PUBLIC	?rehash_impl@?$table@U?$map@V?$allocator@U?$pair@$$CBKUSCache@CEterPackManager@@@std@@@std@@KUSCache@CEterPackManager@@U?$hash@K@boost@@U?$equal_to@K@2@@detail@unordered@boost@@@detail@unordered@boost@@QAEXI@Z ; boost::unordered::detail::table<boost::unordered::detail::map<std::allocator<std::pair<unsigned long const ,CEterPackManager::SCache> >,unsigned long,CEterPackManager::SCache,boost::hash<unsigned long>,std::equal_to<unsigned long> > >::rehash_impl
PUBLIC	??0?$unordered_map@KUSCache@CEterPackManager@@U?$hash@K@boost@@U?$equal_to@K@std@@V?$allocator@U?$pair@$$CBKUSCache@CEterPackManager@@@std@@@6@@unordered@boost@@QAE@XZ ; boost::unordered::unordered_map<unsigned long,CEterPackManager::SCache,boost::hash<unsigned long>,std::equal_to<unsigned long>,std::allocator<std::pair<unsigned long const ,CEterPackManager::SCache> > >::unordered_map<unsigned long,CEterPackManager::SCache,boost::hash<unsigned long>,std::equal_to<unsigned long>,std::allocator<std::pair<unsigned long const ,CEterPackManager::SCache> > >
PUBLIC	??1?$unordered_map@KUSCache@CEterPackManager@@U?$hash@K@boost@@U?$equal_to@K@std@@V?$allocator@U?$pair@$$CBKUSCache@CEterPackManager@@@std@@@6@@unordered@boost@@QAE@XZ ; boost::unordered::unordered_map<unsigned long,CEterPackManager::SCache,boost::hash<unsigned long>,std::equal_to<unsigned long>,std::allocator<std::pair<unsigned long const ,CEterPackManager::SCache> > >::~unordered_map<unsigned long,CEterPackManager::SCache,boost::hash<unsigned long>,std::equal_to<unsigned long>,std::allocator<std::pair<unsigned long const ,CEterPackManager::SCache> > >
PUBLIC	?find@?$unordered_map@KUSCache@CEterPackManager@@U?$hash@K@boost@@U?$equal_to@K@std@@V?$allocator@U?$pair@$$CBKUSCache@CEterPackManager@@@std@@@6@@unordered@boost@@QAE?AU?$iterator@U?$ptr_node@U?$pair@$$CBKUSCache@CEterPackManager@@@std@@@detail@unordered@boost@@@iterator_detail@23@ABK@Z ; boost::unordered::unordered_map<unsigned long,CEterPackManager::SCache,boost::hash<unsigned long>,std::equal_to<unsigned long>,std::allocator<std::pair<unsigned long const ,CEterPackManager::SCache> > >::find
PUBLIC	??_GCEterPackManager@@UAEPAXI@Z			; CEterPackManager::`scalar deleting destructor'
PUBLIC	??1?$pair@$$CBV?$basic_string@DU?$char_traits@D@std@@V?$allocator@D@2@@std@@PAVCEterPack@@@std@@QAE@XZ ; std::pair<std::basic_string<char,std::char_traits<char>,std::allocator<char> > const ,CEterPack *>::~pair<std::basic_string<char,std::char_traits<char>,std::allocator<char> > const ,CEterPack *>
PUBLIC	??1FinderLock@@QAE@XZ				; FinderLock::~FinderLock
PUBLIC	??$emplace_unique@U?$pair@$$CBKUSCache@CEterPackManager@@@std@@@?$table@U?$map@V?$allocator@U?$pair@$$CBKUSCache@CEterPackManager@@@std@@@std@@KUSCache@CEterPackManager@@U?$hash@K@boost@@U?$equal_to@K@2@@detail@unordered@boost@@@detail@unordered@boost@@QAE?AU?$pair@U?$iterator@U?$ptr_node@U?$pair@$$CBKUSCache@CEterPackManager@@@std@@@detail@unordered@boost@@@iterator_detail@unordered@boost@@_N@std@@ABK$$QAU?$pair@$$CBKUSCache@CEterPackManager@@@5@@Z ; boost::unordered::detail::table<boost::unordered::detail::map<std::allocator<std::pair<unsigned long const ,CEterPackManager::SCache> >,unsigned long,CEterPackManager::SCache,boost::hash<unsigned long>,std::equal_to<unsigned long> > >::emplace_unique<std::pair<unsigned long const ,CEterPackManager::SCache> >
PUBLIC	??$emplace_unique@U?$pair@$$CBV?$basic_string@DU?$char_traits@D@std@@V?$allocator@D@2@@std@@PAVCEterPack@@@std@@@?$table@U?$map@V?$allocator@U?$pair@$$CBV?$basic_string@DU?$char_traits@D@std@@V?$allocator@D@2@@std@@PAVCEterPack@@@std@@@std@@V?$basic_string@DU?$char_traits@D@std@@V?$allocator@D@2@@2@PAVCEterPack@@Ustringhash@@U?$equal_to@V?$basic_string@DU?$char_traits@D@std@@V?$allocator@D@2@@std@@@2@@detail@unordered@boost@@@detail@unordered@boost@@QAE?AU?$pair@U?$iterator@U?$ptr_node@U?$pair@$$CBV?$basic_string@DU?$char_traits@D@std@@V?$allocator@D@2@@std@@PAVCEterPack@@@std@@@detail@unordered@boost@@@iterator_detail@unordered@boost@@_N@std@@ABV?$basic_string@DU?$char_traits@D@std@@V?$allocator@D@2@@5@$$QAU?$pair@$$CBV?$basic_string@DU?$char_traits@D@std@@V?$allocator@D@2@@std@@PAVCEterPack@@@5@@Z ; boost::unordered::detail::table<boost::unordered::detail::map<std::allocator<std::pair<std::basic_string<char,std::char_traits<char>,std::allocator<char> > const ,CEterPack *> >,std::basic_string<char,std::char_traits<char>,std::allocator<char> >,CEterPack *,stringhash,std::equal_to<std::basic_string<char,std::char_traits<char>,std::allocator<char> > > > >::emplace_unique<std::pair<std::basic_string<char,std::char_traits<char>,std::allocator<char> > const ,CEterPack *> >
PUBLIC	??1?$_Alloc_construct_ptr@V?$allocator@U?$_List_node@PAVCEterPack@@PAX@std@@@std@@@std@@QAE@XZ ; std::_Alloc_construct_ptr<std::allocator<std::_List_node<CEterPack *,void *> > >::~_Alloc_construct_ptr<std::allocator<std::_List_node<CEterPack *,void *> > >
PUBLIC	??$_Allocate_manually_vector_aligned@U_Default_allocate_traits@std@@@std@@YAPAXI@Z ; std::_Allocate_manually_vector_aligned<std::_Default_allocate_traits>
PUBLIC	??$find_node_impl@KU?$equal_to@K@std@@@?$table@U?$map@V?$allocator@U?$pair@$$CBKUSCache@CEterPackManager@@@std@@@std@@KUSCache@CEterPackManager@@U?$hash@K@boost@@U?$equal_to@K@2@@detail@unordered@boost@@@detail@unordered@boost@@QBEPAU?$ptr_node@U?$pair@$$CBKUSCache@CEterPackManager@@@std@@@123@IABKABU?$equal_to@K@std@@@Z ; boost::unordered::detail::table<boost::unordered::detail::map<std::allocator<std::pair<unsigned long const ,CEterPackManager::SCache> >,unsigned long,CEterPackManager::SCache,boost::hash<unsigned long>,std::equal_to<unsigned long> > >::find_node_impl<unsigned long,std::equal_to<unsigned long> >
PUBLIC	?new_bucket_count@?$prime_policy@I@detail@unordered@boost@@SAII@Z ; boost::unordered::detail::prime_policy<unsigned int>::new_bucket_count
PUBLIC	??$find_node_impl@V?$basic_string@DU?$char_traits@D@std@@V?$allocator@D@2@@std@@U?$equal_to@V?$basic_string@DU?$char_traits@D@std@@V?$allocator@D@2@@std@@@2@@?$table@U?$map@V?$allocator@U?$pair@$$CBV?$basic_string@DU?$char_traits@D@std@@V?$allocator@D@2@@std@@PAVCEterPack@@@std@@@std@@V?$basic_string@DU?$char_traits@D@std@@V?$allocator@D@2@@2@PAVCEterPack@@Ustringhash@@U?$equal_to@V?$basic_string@DU?$char_traits@D@std@@V?$allocator@D@2@@std@@@2@@detail@unordered@boost@@@detail@unordered@boost@@QBEPAU?$ptr_node@U?$pair@$$CBV?$basic_string@DU?$char_traits@D@std@@V?$allocator@D@2@@std@@PAVCEterPack@@@std@@@123@IABV?$basic_string@DU?$char_traits@D@std@@V?$allocator@D@2@@std@@ABU?$equal_to@V?$basic_string@DU?$char_traits@D@std@@V?$allocator@D@2@@std@@@6@@Z ; boost::unordered::detail::table<boost::unordered::detail::map<std::allocator<std::pair<std::basic_string<char,std::char_traits<char>,std::allocator<char> > const ,CEterPack *> >,std::basic_string<char,std::char_traits<char>,std::allocator<char> >,CEterPack *,stringhash,std::equal_to<std::basic_string<char,std::char_traits<char>,std::allocator<char> > > > >::find_node_impl<std::basic_string<char,std::char_traits<char>,std::allocator<char> >,std::equal_to<std::basic_string<char,std::char_traits<char>,std::allocator<char> > > >
PUBLIC	??$destroy@U?$pair@$$CBV?$basic_string@DU?$char_traits@D@std@@V?$allocator@D@2@@std@@PAVCEterPack@@@std@@@?$_Default_allocator_traits@V?$allocator@U?$ptr_node@U?$pair@$$CBV?$basic_string@DU?$char_traits@D@std@@V?$allocator@D@2@@std@@PAVCEterPack@@@std@@@detail@unordered@boost@@@std@@@std@@SAXAAV?$allocator@U?$ptr_node@U?$pair@$$CBV?$basic_string@DU?$char_traits@D@std@@V?$allocator@D@2@@std@@PAVCEterPack@@@std@@@detail@unordered@boost@@@1@QAU?$pair@$$CBV?$basic_string@DU?$char_traits@D@std@@V?$allocator@D@2@@std@@PAVCEterPack@@@1@@Z ; std::_Default_allocator_traits<std::allocator<boost::unordered::detail::ptr_node<std::pair<std::basic_string<char,std::char_traits<char>,std::allocator<char> > const ,CEterPack *> > > >::destroy<std::pair<std::basic_string<char,std::char_traits<char>,std::allocator<char> > const ,CEterPack *> >
PUBLIC	??1?$node_tmp@V?$allocator@U?$ptr_node@U?$pair@$$CBKUSCache@CEterPackManager@@@std@@@detail@unordered@boost@@@std@@@detail@unordered@boost@@QAE@XZ ; boost::unordered::detail::node_tmp<std::allocator<boost::unordered::detail::ptr_node<std::pair<unsigned long const ,CEterPackManager::SCache> > > >::~node_tmp<std::allocator<boost::unordered::detail::ptr_node<std::pair<unsigned long const ,CEterPackManager::SCache> > > >
PUBLIC	??1?$node_tmp@V?$allocator@U?$ptr_node@U?$pair@$$CBV?$basic_string@DU?$char_traits@D@std@@V?$allocator@D@2@@std@@PAVCEterPack@@@std@@@detail@unordered@boost@@@std@@@detail@unordered@boost@@QAE@XZ ; boost::unordered::detail::node_tmp<std::allocator<boost::unordered::detail::ptr_node<std::pair<std::basic_string<char,std::char_traits<char>,std::allocator<char> > const ,CEterPack *> > > >::~node_tmp<std::allocator<boost::unordered::detail::ptr_node<std::pair<std::basic_string<char,std::char_traits<char>,std::allocator<char> > const ,CEterPack *> > > >
PUBLIC	??1?$node_constructor@V?$allocator@U?$ptr_node@U?$pair@$$CBKUSCache@CEterPackManager@@@std@@@detail@unordered@boost@@@std@@@detail@unordered@boost@@QAE@XZ ; boost::unordered::detail::node_constructor<std::allocator<boost::unordered::detail::ptr_node<std::pair<unsigned long const ,CEterPackManager::SCache> > > >::~node_constructor<std::allocator<boost::unordered::detail::ptr_node<std::pair<unsigned long const ,CEterPackManager::SCache> > > >
PUBLIC	?create_node@?$node_constructor@V?$allocator@U?$ptr_node@U?$pair@$$CBKUSCache@CEterPackManager@@@std@@@detail@unordered@boost@@@std@@@detail@unordered@boost@@QAEXXZ ; boost::unordered::detail::node_constructor<std::allocator<boost::unordered::detail::ptr_node<std::pair<unsigned long const ,CEterPackManager::SCache> > > >::create_node
PUBLIC	??1?$node_constructor@V?$allocator@U?$ptr_node@U?$pair@$$CBV?$basic_string@DU?$char_traits@D@std@@V?$allocator@D@2@@std@@PAVCEterPack@@@std@@@detail@unordered@boost@@@std@@@detail@unordered@boost@@QAE@XZ ; boost::unordered::detail::node_constructor<std::allocator<boost::unordered::detail::ptr_node<std::pair<std::basic_string<char,std::char_traits<char>,std::allocator<char> > const ,CEterPack *> > > >::~node_constructor<std::allocator<boost::unordered::detail::ptr_node<std::pair<std::basic_string<char,std::char_traits<char>,std::allocator<char> > const ,CEterPack *> > > >
PUBLIC	?create_node@?$node_constructor@V?$allocator@U?$ptr_node@U?$pair@$$CBV?$basic_string@DU?$char_traits@D@std@@V?$allocator@D@2@@std@@PAVCEterPack@@@std@@@detail@unordered@boost@@@std@@@detail@unordered@boost@@QAEXXZ ; boost::unordered::detail::node_constructor<std::allocator<boost::unordered::detail::ptr_node<std::pair<std::basic_string<char,std::char_traits<char>,std::allocator<char> > const ,CEterPack *> > > >::create_node
PUBLIC	??_7exception@std@@6B@				; std::exception::`vftable'
PUBLIC	??_C@_0BC@EOODALEL@Unknown?5exception@		; `string'
PUBLIC	??_7bad_alloc@std@@6B@				; std::bad_alloc::`vftable'
PUBLIC	??_7bad_array_new_length@std@@6B@		; std::bad_array_new_length::`vftable'
PUBLIC	??_C@_0BF@KINCDENJ@bad?5array?5new?5length@	; `string'
PUBLIC	__TI3?AVbad_array_new_length@std@@
PUBLIC	__CTA3?AVbad_array_new_length@std@@
PUBLIC	??_R0?AVbad_array_new_length@std@@@8		; std::bad_array_new_length `RTTI Type Descriptor'
PUBLIC	__CT??_R0?AVbad_array_new_length@std@@@8??0bad_array_new_length@std@@QAE@ABV01@@Z12
PUBLIC	??_R0?AVbad_alloc@std@@@8			; std::bad_alloc `RTTI Type Descriptor'
PUBLIC	__CT??_R0?AVbad_alloc@std@@@8??0bad_alloc@std@@QAE@ABV01@@Z12
PUBLIC	??_R0?AVexception@std@@@8			; std::exception `RTTI Type Descriptor'
PUBLIC	__CT??_R0?AVexception@std@@@8??0exception@std@@QAE@ABV01@@Z12
PUBLIC	??_C@_0BA@JFNIOLAK@string?5too?5long@		; `string'
PUBLIC	??_C@_00CNPNBAHC@@				; `string'
PUBLIC	?value@?$prime_list_template@I@detail@unordered@boost@@2QBIB ; boost::unordered::detail::prime_list_template<unsigned int>::value
PUBLIC	?ms_singleton@?$CSingleton@VCEterPackManager@@@@0PAVCEterPackManager@@A ; CSingleton<CEterPackManager>::ms_singleton
PUBLIC	??_7?$CSingleton@VCEterPackManager@@@@6B@	; CSingleton<CEterPackManager>::`vftable'
PUBLIC	??_7CEterPackManager@@6B@			; CEterPackManager::`vftable'
PUBLIC	??_C@_02DKCKIIND@?$CFs@				; `string'
PUBLIC	??_C@_0BN@HIHPGCNI@?$CFs?3?5Pack?5file?5does?5not?5exist@ ; `string'
PUBLIC	??_C@_0HF@OJFMMEDP@CEterPackManager?3?3RetrieveHybri@ ; `string'
PUBLIC	??_C@_0EE@JEJDAIPD@CEterPackManager?3?3WriteHybridCr@ ; `string'
PUBLIC	??_C@_0O@NKNMEGII@list?5too?5long@		; `string'
PUBLIC	??_R4exception@std@@6B@				; std::exception::`RTTI Complete Object Locator'
PUBLIC	??_R3exception@std@@8				; std::exception::`RTTI Class Hierarchy Descriptor'
PUBLIC	??_R2exception@std@@8				; std::exception::`RTTI Base Class Array'
PUBLIC	??_R1A@?0A@EA@exception@std@@8			; std::exception::`RTTI Base Class Descriptor at (0,-1,0,64)'
PUBLIC	??_R4bad_alloc@std@@6B@				; std::bad_alloc::`RTTI Complete Object Locator'
PUBLIC	??_R3bad_alloc@std@@8				; std::bad_alloc::`RTTI Class Hierarchy Descriptor'
PUBLIC	??_R2bad_alloc@std@@8				; std::bad_alloc::`RTTI Base Class Array'
PUBLIC	??_R1A@?0A@EA@bad_alloc@std@@8			; std::bad_alloc::`RTTI Base Class Descriptor at (0,-1,0,64)'
PUBLIC	??_R4bad_array_new_length@std@@6B@		; std::bad_array_new_length::`RTTI Complete Object Locator'
PUBLIC	??_R3bad_array_new_length@std@@8		; std::bad_array_new_length::`RTTI Class Hierarchy Descriptor'
PUBLIC	??_R2bad_array_new_length@std@@8		; std::bad_array_new_length::`RTTI Base Class Array'
PUBLIC	??_R1A@?0A@EA@bad_array_new_length@std@@8	; std::bad_array_new_length::`RTTI Base Class Descriptor at (0,-1,0,64)'
PUBLIC	??_R4CEterPackManager@@6B@			; CEterPackManager::`RTTI Complete Object Locator'
PUBLIC	??_R0?AVCEterPackManager@@@8			; CEterPackManager `RTTI Type Descriptor'
PUBLIC	??_R3CEterPackManager@@8			; CEterPackManager::`RTTI Class Hierarchy Descriptor'
PUBLIC	??_R2CEterPackManager@@8			; CEterPackManager::`RTTI Base Class Array'
PUBLIC	??_R1A@?0A@EA@CEterPackManager@@8		; CEterPackManager::`RTTI Base Class Descriptor at (0,-1,0,64)'
PUBLIC	??_R1A@?0A@EA@?$CSingleton@VCEterPackManager@@@@8 ; CSingleton<CEterPackManager>::`RTTI Base Class Descriptor at (0,-1,0,64)'
PUBLIC	??_R0?AV?$CSingleton@VCEterPackManager@@@@@8	; CSingleton<CEterPackManager> `RTTI Type Descriptor'
PUBLIC	??_R3?$CSingleton@VCEterPackManager@@@@8	; CSingleton<CEterPackManager>::`RTTI Class Hierarchy Descriptor'
PUBLIC	??_R2?$CSingleton@VCEterPackManager@@@@8	; CSingleton<CEterPackManager>::`RTTI Base Class Array'
PUBLIC	??_R4?$CSingleton@VCEterPackManager@@@@6B@	; CSingleton<CEterPackManager>::`RTTI Complete Object Locator'
PUBLIC	__real@3ff0000000000000
PUBLIC	__real@41efffffffe00000
PUBLIC	__xmm@41f00000000000000000000000000000
EXTRN	??2@YAPAXI@Z:PROC				; operator new
EXTRN	??3@YAXPAXI@Z:PROC				; operator delete
EXTRN	??_U@YAPAXI@Z:PROC				; operator new[]
EXTRN	??_V@YAXPAX@Z:PROC				; operator delete[]
EXTRN	_atexit:PROC
EXTRN	___report_rangecheckfailure:PROC
EXTRN	__Init_thread_header:PROC
EXTRN	__Init_thread_footer:PROC
EXTRN	__invalid_parameter_noinfo_noreturn:PROC
EXTRN	__imp__InitializeCriticalSection@4:PROC
EXTRN	__imp__EnterCriticalSection@4:PROC
EXTRN	__imp__LeaveCriticalSection@4:PROC
EXTRN	__imp__DeleteCriticalSection@4:PROC
EXTRN	___std_exception_copy:PROC
EXTRN	___std_exception_destroy:PROC
EXTRN	??_Eexception@std@@UAEPAXI@Z:PROC		; std::exception::`vector deleting destructor'
EXTRN	??_Ebad_alloc@std@@UAEPAXI@Z:PROC		; std::bad_alloc::`vector deleting destructor'
EXTRN	??_Ebad_array_new_length@std@@UAEPAXI@Z:PROC	; std::bad_array_new_length::`vector deleting destructor'
EXTRN	?_Xlength_error@std@@YAXPBD@Z:PROC		; std::_Xlength_error
EXTRN	?stl_lowers@@YAXAAV?$basic_string@DU?$char_traits@D@std@@V?$allocator@D@2@@std@@@Z:PROC ; stl_lowers
EXTRN	??0CFileBase@@QAE@XZ:PROC			; CFileBase::CFileBase
EXTRN	??1CFileBase@@UAE@XZ:PROC			; CFileBase::~CFileBase
EXTRN	?Close@CFileBase@@QAEXXZ:PROC			; CFileBase::Close
EXTRN	?Create@CFileBase@@QAEHPBDW4EFileMode@1@@Z:PROC	; CFileBase::Create
EXTRN	?SeekCur@CFileBase@@QAEXK@Z:PROC		; CFileBase::SeekCur
EXTRN	?Seek@CFileBase@@QAEXK@Z:PROC			; CFileBase::Seek
EXTRN	?GetPosition@CFileBase@@QAEKXZ:PROC		; CFileBase::GetPosition
EXTRN	?Write@CFileBase@@UAEHPBXH@Z:PROC		; CFileBase::Write
EXTRN	??0CMappedFile@@QAE@XZ:PROC			; CMappedFile::CMappedFile
EXTRN	??1CMappedFile@@UAE@XZ:PROC			; CMappedFile::~CMappedFile
EXTRN	?Link@CMappedFile@@QAEXKPBX@Z:PROC		; CMappedFile::Link
EXTRN	?Create@CMappedFile@@QAEHPBDPAPBXHH@Z:PROC	; CMappedFile::Create
EXTRN	?Size@CMappedFile@@QAEKXZ:PROC			; CMappedFile::Size
EXTRN	?GetItem@CEterFileDict@@QAEPAUItem@1@KPBD@Z:PROC ; CEterFileDict::GetItem
EXTRN	??0CEterPack@@QAE@XZ:PROC			; CEterPack::CEterPack
EXTRN	??1CEterPack@@UAE@XZ:PROC			; CEterPack::~CEterPack
EXTRN	?Create@CEterPack@@QAE_NAAVCEterFileDict@@PBD1_NPBE@Z:PROC ; CEterPack::Create
EXTRN	?DecryptIV@CEterPack@@QAE_NK@Z:PROC		; CEterPack::DecryptIV
EXTRN	?GetDBName@CEterPack@@QAEPBDXZ:PROC		; CEterPack::GetDBName
EXTRN	?Get@CEterPack@@QAE_NAAVCMappedFile@@PBDPAPBX@Z:PROC ; CEterPack::Get
EXTRN	?Get2@CEterPack@@QAE_NAAVCMappedFile@@PBDPAUSEterPackIndex@@PAPBX@Z:PROC ; CEterPack::Get2
EXTRN	?IsExist@CEterPack@@QAE_NPBD@Z:PROC		; CEterPack::IsExist
EXTRN	?GetPackPolicy_HybridCrypt@CEterPack@@QBEPAVEterPackPolicy_CSHybridCrypt@@XZ:PROC ; CEterPack::GetPackPolicy_HybridCrypt
EXTRN	?GetSingleton@CMakePackLog@@SAAAV1@XZ:PROC	; CMakePackLog::GetSingleton
EXTRN	?Writef@CMakePackLog@@QAAXPBDZZ:PROC		; CMakePackLog::Writef
EXTRN	??_E?$CSingleton@VCEterPackManager@@@@UAEPAXI@Z:PROC ; CSingleton<CEterPackManager>::`vector deleting destructor'
EXTRN	??_ECEterPackManager@@UAEPAXI@Z:PROC		; CEterPackManager::`vector deleting destructor'
EXTRN	?IsContainingCryptKey@EterPackPolicy_CSHybridCrypt@@QBE_NXZ:PROC ; EterPackPolicy_CSHybridCrypt::IsContainingCryptKey
EXTRN	?IsContainingSDBFile@EterPackPolicy_CSHybridCrypt@@QBE_NXZ:PROC ; EterPackPolicy_CSHybridCrypt::IsContainingSDBFile
EXTRN	?WriteCryptKeyToFile@EterPackPolicy_CSHybridCrypt@@QAEXAAVCFileBase@@@Z:PROC ; EterPackPolicy_CSHybridCrypt::WriteCryptKeyToFile
EXTRN	?ReadCryptKeyInfoFromStream@EterPackPolicy_CSHybridCrypt@@QAEHPBE@Z:PROC ; EterPackPolicy_CSHybridCrypt::ReadCryptKeyInfoFromStream
EXTRN	?WriteSupplementaryDataBlockToFile@EterPackPolicy_CSHybridCrypt@@QAEXAAVCFileBase@@@Z:PROC ; EterPackPolicy_CSHybridCrypt::WriteSupplementaryDataBlockToFile
EXTRN	?ReadSupplementatyDataBlockFromStream@EterPackPolicy_CSHybridCrypt@@QAEHPBE@Z:PROC ; EterPackPolicy_CSHybridCrypt::ReadSupplementatyDataBlockFromStream
EXTRN	?TraceError@@YAXPBDZZ:PROC			; TraceError
EXTRN	?GetCRC32@@YAKPBDI@Z:PROC			; GetCRC32
EXTRN	@__security_check_cookie@4:PROC
EXTRN	__CxxThrowException@8:PROC
EXTRN	___CxxFrameHandler3:PROC
EXTRN	__dtoui3:PROC
EXTRN	_ceil:PROC
EXTRN	_floor:PROC
EXTRN	_memcpy:PROC
EXTRN	_memmove:PROC
EXTRN	__Init_thread_epoch:DWORD
EXTRN	??_7type_info@@6B@:QWORD			; type_info::`vftable'
EXTRN	___security_cookie:DWORD
EXTRN	__fltused:DWORD
EXTRN	__tls_array:DWORD
EXTRN	__tls_index:DWORD
;	COMDAT ?ms_singleton@?$CSingleton@VCEterPackManager@@@@0PAVCEterPackManager@@A
_BSS	SEGMENT
?ms_singleton@?$CSingleton@VCEterPackManager@@@@0PAVCEterPackManager@@A DD 01H DUP (?) ; CSingleton<CEterPackManager>::ms_singleton
_BSS	ENDS
;	COMDAT ?$TSS0@?1??GetFromPack@CEterPackManager@@QAE_NAAVCMappedFile@@PBDPAPBX@Z@4HA
_BSS	SEGMENT
?$TSS0@?1??GetFromPack@CEterPackManager@@QAE_NAAVCMappedFile@@PBDPAPBX@Z@4HA DD 01H DUP (?) ; `CEterPackManager::GetFromPack'::`2'::$TSS0
_BSS	ENDS
;	COMDAT __xmm@41f00000000000000000000000000000
CONST	SEGMENT
__xmm@41f00000000000000000000000000000 DB 00H, 00H, 00H, 00H, 00H, 00H, 00H
	DB	00H, 00H, 00H, 00H, 00H, 00H, 00H, 0f0H, 'A'
CONST	ENDS
;	COMDAT __real@41efffffffe00000
CONST	SEGMENT
__real@41efffffffe00000 DQ 041efffffffe00000r	; 4.29497e+09
CONST	ENDS
;	COMDAT __real@3ff0000000000000
CONST	SEGMENT
__real@3ff0000000000000 DQ 03ff0000000000000r	; 1
CONST	ENDS
;	COMDAT ??_R4?$CSingleton@VCEterPackManager@@@@6B@
rdata$r	SEGMENT
??_R4?$CSingleton@VCEterPackManager@@@@6B@ DD 00H	; CSingleton<CEterPackManager>::`RTTI Complete Object Locator'
	DD	00H
	DD	00H
	DD	FLAT:??_R0?AV?$CSingleton@VCEterPackManager@@@@@8
	DD	FLAT:??_R3?$CSingleton@VCEterPackManager@@@@8
rdata$r	ENDS
;	COMDAT ??_R2?$CSingleton@VCEterPackManager@@@@8
rdata$r	SEGMENT
??_R2?$CSingleton@VCEterPackManager@@@@8 DD FLAT:??_R1A@?0A@EA@?$CSingleton@VCEterPackManager@@@@8 ; CSingleton<CEterPackManager>::`RTTI Base Class Array'
rdata$r	ENDS
;	COMDAT ??_R3?$CSingleton@VCEterPackManager@@@@8
rdata$r	SEGMENT
??_R3?$CSingleton@VCEterPackManager@@@@8 DD 00H		; CSingleton<CEterPackManager>::`RTTI Class Hierarchy Descriptor'
	DD	00H
	DD	01H
	DD	FLAT:??_R2?$CSingleton@VCEterPackManager@@@@8
rdata$r	ENDS
;	COMDAT ??_R0?AV?$CSingleton@VCEterPackManager@@@@@8
data$rs	SEGMENT
??_R0?AV?$CSingleton@VCEterPackManager@@@@@8 DD FLAT:??_7type_info@@6B@ ; CSingleton<CEterPackManager> `RTTI Type Descriptor'
	DD	00H
	DB	'.?AV?$CSingleton@VCEterPackManager@@@@', 00H
data$rs	ENDS
;	COMDAT ??_R1A@?0A@EA@?$CSingleton@VCEterPackManager@@@@8
rdata$r	SEGMENT
??_R1A@?0A@EA@?$CSingleton@VCEterPackManager@@@@8 DD FLAT:??_R0?AV?$CSingleton@VCEterPackManager@@@@@8 ; CSingleton<CEterPackManager>::`RTTI Base Class Descriptor at (0,-1,0,64)'
	DD	00H
	DD	00H
	DD	0ffffffffH
	DD	00H
	DD	040H
	DD	FLAT:??_R3?$CSingleton@VCEterPackManager@@@@8
rdata$r	ENDS
;	COMDAT ??_R1A@?0A@EA@CEterPackManager@@8
rdata$r	SEGMENT
??_R1A@?0A@EA@CEterPackManager@@8 DD FLAT:??_R0?AVCEterPackManager@@@8 ; CEterPackManager::`RTTI Base Class Descriptor at (0,-1,0,64)'
	DD	01H
	DD	00H
	DD	0ffffffffH
	DD	00H
	DD	040H
	DD	FLAT:??_R3CEterPackManager@@8
rdata$r	ENDS
;	COMDAT ??_R2CEterPackManager@@8
rdata$r	SEGMENT
??_R2CEterPackManager@@8 DD FLAT:??_R1A@?0A@EA@CEterPackManager@@8 ; CEterPackManager::`RTTI Base Class Array'
	DD	FLAT:??_R1A@?0A@EA@?$CSingleton@VCEterPackManager@@@@8
rdata$r	ENDS
;	COMDAT ??_R3CEterPackManager@@8
rdata$r	SEGMENT
??_R3CEterPackManager@@8 DD 00H				; CEterPackManager::`RTTI Class Hierarchy Descriptor'
	DD	00H
	DD	02H
	DD	FLAT:??_R2CEterPackManager@@8
rdata$r	ENDS
;	COMDAT ??_R0?AVCEterPackManager@@@8
data$rs	SEGMENT
??_R0?AVCEterPackManager@@@8 DD FLAT:??_7type_info@@6B@	; CEterPackManager `RTTI Type Descriptor'
	DD	00H
	DB	'.?AVCEterPackManager@@', 00H
data$rs	ENDS
;	COMDAT ??_R4CEterPackManager@@6B@
rdata$r	SEGMENT
??_R4CEterPackManager@@6B@ DD 00H			; CEterPackManager::`RTTI Complete Object Locator'
	DD	00H
	DD	00H
	DD	FLAT:??_R0?AVCEterPackManager@@@8
	DD	FLAT:??_R3CEterPackManager@@8
rdata$r	ENDS
;	COMDAT ??_R1A@?0A@EA@bad_array_new_length@std@@8
rdata$r	SEGMENT
??_R1A@?0A@EA@bad_array_new_length@std@@8 DD FLAT:??_R0?AVbad_array_new_length@std@@@8 ; std::bad_array_new_length::`RTTI Base Class Descriptor at (0,-1,0,64)'
	DD	02H
	DD	00H
	DD	0ffffffffH
	DD	00H
	DD	040H
	DD	FLAT:??_R3bad_array_new_length@std@@8
rdata$r	ENDS
;	COMDAT ??_R2bad_array_new_length@std@@8
rdata$r	SEGMENT
??_R2bad_array_new_length@std@@8 DD FLAT:??_R1A@?0A@EA@bad_array_new_length@std@@8 ; std::bad_array_new_length::`RTTI Base Class Array'
	DD	FLAT:??_R1A@?0A@EA@bad_alloc@std@@8
	DD	FLAT:??_R1A@?0A@EA@exception@std@@8
rdata$r	ENDS
;	COMDAT ??_R3bad_array_new_length@std@@8
rdata$r	SEGMENT
??_R3bad_array_new_length@std@@8 DD 00H			; std::bad_array_new_length::`RTTI Class Hierarchy Descriptor'
	DD	00H
	DD	03H
	DD	FLAT:??_R2bad_array_new_length@std@@8
rdata$r	ENDS
;	COMDAT ??_R4bad_array_new_length@std@@6B@
rdata$r	SEGMENT
??_R4bad_array_new_length@std@@6B@ DD 00H		; std::bad_array_new_length::`RTTI Complete Object Locator'
	DD	00H
	DD	00H
	DD	FLAT:??_R0?AVbad_array_new_length@std@@@8
	DD	FLAT:??_R3bad_array_new_length@std@@8
rdata$r	ENDS
;	COMDAT ??_R1A@?0A@EA@bad_alloc@std@@8
rdata$r	SEGMENT
??_R1A@?0A@EA@bad_alloc@std@@8 DD FLAT:??_R0?AVbad_alloc@std@@@8 ; std::bad_alloc::`RTTI Base Class Descriptor at (0,-1,0,64)'
	DD	01H
	DD	00H
	DD	0ffffffffH
	DD	00H
	DD	040H
	DD	FLAT:??_R3bad_alloc@std@@8
rdata$r	ENDS
;	COMDAT ??_R2bad_alloc@std@@8
rdata$r	SEGMENT
??_R2bad_alloc@std@@8 DD FLAT:??_R1A@?0A@EA@bad_alloc@std@@8 ; std::bad_alloc::`RTTI Base Class Array'
	DD	FLAT:??_R1A@?0A@EA@exception@std@@8
rdata$r	ENDS
;	COMDAT ??_R3bad_alloc@std@@8
rdata$r	SEGMENT
??_R3bad_alloc@std@@8 DD 00H				; std::bad_alloc::`RTTI Class Hierarchy Descriptor'
	DD	00H
	DD	02H
	DD	FLAT:??_R2bad_alloc@std@@8
rdata$r	ENDS
;	COMDAT ??_R4bad_alloc@std@@6B@
rdata$r	SEGMENT
??_R4bad_alloc@std@@6B@ DD 00H				; std::bad_alloc::`RTTI Complete Object Locator'
	DD	00H
	DD	00H
	DD	FLAT:??_R0?AVbad_alloc@std@@@8
	DD	FLAT:??_R3bad_alloc@std@@8
rdata$r	ENDS
;	COMDAT ??_R1A@?0A@EA@exception@std@@8
rdata$r	SEGMENT
??_R1A@?0A@EA@exception@std@@8 DD FLAT:??_R0?AVexception@std@@@8 ; std::exception::`RTTI Base Class Descriptor at (0,-1,0,64)'
	DD	00H
	DD	00H
	DD	0ffffffffH
	DD	00H
	DD	040H
	DD	FLAT:??_R3exception@std@@8
rdata$r	ENDS
;	COMDAT ??_R2exception@std@@8
rdata$r	SEGMENT
??_R2exception@std@@8 DD FLAT:??_R1A@?0A@EA@exception@std@@8 ; std::exception::`RTTI Base Class Array'
rdata$r	ENDS
;	COMDAT ??_R3exception@std@@8
rdata$r	SEGMENT
??_R3exception@std@@8 DD 00H				; std::exception::`RTTI Class Hierarchy Descriptor'
	DD	00H
	DD	01H
	DD	FLAT:??_R2exception@std@@8
rdata$r	ENDS
;	COMDAT ??_R4exception@std@@6B@
rdata$r	SEGMENT
??_R4exception@std@@6B@ DD 00H				; std::exception::`RTTI Complete Object Locator'
	DD	00H
	DD	00H
	DD	FLAT:??_R0?AVexception@std@@@8
	DD	FLAT:??_R3exception@std@@8
rdata$r	ENDS
;	COMDAT ??_C@_0O@NKNMEGII@list?5too?5long@
CONST	SEGMENT
??_C@_0O@NKNMEGII@list?5too?5long@ DB 'list too long', 00H ; `string'
CONST	ENDS
;	COMDAT ??_C@_0EE@JEJDAIPD@CEterPackManager?3?3WriteHybridCr@
CONST	SEGMENT
??_C@_0EE@JEJDAIPD@CEterPackManager?3?3WriteHybridCr@ DB 'CEterPackManage'
	DB	'r::WriteHybridCryptPackInfo PackName : %s, Hash : %x', 00H ; `string'
CONST	ENDS
;	COMDAT ??_C@_0HF@OJFMMEDP@CEterPackManager?3?3RetrieveHybri@
CONST	SEGMENT
??_C@_0HF@OJFMMEDP@CEterPackManager?3?3RetrieveHybri@ DB 'CEterPackManage'
	DB	'r::RetrieveHybridCryptPackKeys', 09H, 'cryptokey length of fi'
	DB	'le(%s) is not matched. received(%d) != haved(%d)', 00H ; `string'
CONST	ENDS
;	COMDAT ??_C@_0BN@HIHPGCNI@?$CFs?3?5Pack?5file?5does?5not?5exist@
CONST	SEGMENT
??_C@_0BN@HIHPGCNI@?$CFs?3?5Pack?5file?5does?5not?5exist@ DB '%s: Pack fi'
	DB	'le does not exist', 00H			; `string'
CONST	ENDS
;	COMDAT ?strFileName@?1??GetFromPack@CEterPackManager@@QAE_NAAVCMappedFile@@PBDPAPBX@Z@4V?$basic_string@DU?$char_traits@D@std@@V?$allocator@D@2@@std@@A
_DATA	SEGMENT
?strFileName@?1??GetFromPack@CEterPackManager@@QAE_NAAVCMappedFile@@PBDPAPBX@Z@4V?$basic_string@DU?$char_traits@D@std@@V?$allocator@D@2@@std@@A DB 014H DUP (?)
	DD	0fH					; `CEterPackManager::GetFromPack'::`2'::strFileName
_DATA	ENDS
;	COMDAT ??_C@_02DKCKIIND@?$CFs@
CONST	SEGMENT
??_C@_02DKCKIIND@?$CFs@ DB '%s', 00H			; `string'
CONST	ENDS
;	COMDAT ??_7CEterPackManager@@6B@
CONST	SEGMENT
??_7CEterPackManager@@6B@ DD FLAT:??_R4CEterPackManager@@6B@ ; CEterPackManager::`vftable'
	DD	FLAT:??_ECEterPackManager@@UAEPAXI@Z
CONST	ENDS
;	COMDAT ??_7?$CSingleton@VCEterPackManager@@@@6B@
CONST	SEGMENT
??_7?$CSingleton@VCEterPackManager@@@@6B@ DD FLAT:??_R4?$CSingleton@VCEterPackManager@@@@6B@ ; CSingleton<CEterPackManager>::`vftable'
	DD	FLAT:??_E?$CSingleton@VCEterPackManager@@@@UAEPAXI@Z
CONST	ENDS
;	COMDAT ?value@?$prime_list_template@I@detail@unordered@boost@@2QBIB
CONST	SEGMENT
?value@?$prime_list_template@I@detail@unordered@boost@@2QBIB DD 011H ; boost::unordered::detail::prime_list_template<unsigned int>::value
	DD	01dH
	DD	025H
	DD	035H
	DD	043H
	DD	04fH
	DD	061H
	DD	083H
	DD	0c1H
	DD	0101H
	DD	0185H
	DD	0209H
	DD	0301H
	DD	0407H
	DD	0607H
	DD	0805H
	DD	0c07H
	DD	01807H
	DD	03001H
	DD	06011H
	DD	0c005H
	DD	01800dH
	DD	030005H
	DD	060019H
	DD	0c0001H
	DD	0180005H
	DD	030000bH
	DD	060000dH
	DD	0c00005H
	DD	01800013H
	DD	03000005H
	DD	06000017H
	DD	0c000013H
	DD	018000005H
	DD	030000059H
	DD	060000005H
	DD	0c0000001H
	DD	0fffffffbH
CONST	ENDS
;	COMDAT ??_C@_00CNPNBAHC@@
CONST	SEGMENT
??_C@_00CNPNBAHC@@ DB 00H				; `string'
CONST	ENDS
;	COMDAT ??_C@_0BA@JFNIOLAK@string?5too?5long@
CONST	SEGMENT
??_C@_0BA@JFNIOLAK@string?5too?5long@ DB 'string too long', 00H ; `string'
CONST	ENDS
;	COMDAT __CT??_R0?AVexception@std@@@8??0exception@std@@QAE@ABV01@@Z12
xdata$x	SEGMENT
__CT??_R0?AVexception@std@@@8??0exception@std@@QAE@ABV01@@Z12 DD 00H
	DD	FLAT:??_R0?AVexception@std@@@8
	DD	00H
	DD	0ffffffffH
	ORG $+4
	DD	0cH
	DD	FLAT:??0exception@std@@QAE@ABV01@@Z
xdata$x	ENDS
;	COMDAT ??_R0?AVexception@std@@@8
data$r	SEGMENT
??_R0?AVexception@std@@@8 DD FLAT:??_7type_info@@6B@	; std::exception `RTTI Type Descriptor'
	DD	00H
	DB	'.?AVexception@std@@', 00H
data$r	ENDS
;	COMDAT __CT??_R0?AVbad_alloc@std@@@8??0bad_alloc@std@@QAE@ABV01@@Z12
xdata$x	SEGMENT
__CT??_R0?AVbad_alloc@std@@@8??0bad_alloc@std@@QAE@ABV01@@Z12 DD 010H
	DD	FLAT:??_R0?AVbad_alloc@std@@@8
	DD	00H
	DD	0ffffffffH
	ORG $+4
	DD	0cH
	DD	FLAT:??0bad_alloc@std@@QAE@ABV01@@Z
xdata$x	ENDS
;	COMDAT ??_R0?AVbad_alloc@std@@@8
data$r	SEGMENT
??_R0?AVbad_alloc@std@@@8 DD FLAT:??_7type_info@@6B@	; std::bad_alloc `RTTI Type Descriptor'
	DD	00H
	DB	'.?AVbad_alloc@std@@', 00H
data$r	ENDS
;	COMDAT __CT??_R0?AVbad_array_new_length@std@@@8??0bad_array_new_length@std@@QAE@ABV01@@Z12
xdata$x	SEGMENT
__CT??_R0?AVbad_array_new_length@std@@@8??0bad_array_new_length@std@@QAE@ABV01@@Z12 DD 00H
	DD	FLAT:??_R0?AVbad_array_new_length@std@@@8
	DD	00H
	DD	0ffffffffH
	ORG $+4
	DD	0cH
	DD	FLAT:??0bad_array_new_length@std@@QAE@ABV01@@Z
xdata$x	ENDS
;	COMDAT ??_R0?AVbad_array_new_length@std@@@8
data$r	SEGMENT
??_R0?AVbad_array_new_length@std@@@8 DD FLAT:??_7type_info@@6B@ ; std::bad_array_new_length `RTTI Type Descriptor'
	DD	00H
	DB	'.?AVbad_array_new_length@std@@', 00H
data$r	ENDS
;	COMDAT __CTA3?AVbad_array_new_length@std@@
xdata$x	SEGMENT
__CTA3?AVbad_array_new_length@std@@ DD 03H
	DD	FLAT:__CT??_R0?AVbad_array_new_length@std@@@8??0bad_array_new_length@std@@QAE@ABV01@@Z12
	DD	FLAT:__CT??_R0?AVbad_alloc@std@@@8??0bad_alloc@std@@QAE@ABV01@@Z12
	DD	FLAT:__CT??_R0?AVexception@std@@@8??0exception@std@@QAE@ABV01@@Z12
xdata$x	ENDS
;	COMDAT __TI3?AVbad_array_new_length@std@@
xdata$x	SEGMENT
__TI3?AVbad_array_new_length@std@@ DD 00H
	DD	FLAT:??1bad_array_new_length@std@@UAE@XZ
	DD	00H
	DD	FLAT:__CTA3?AVbad_array_new_length@std@@
xdata$x	ENDS
;	COMDAT ??_C@_0BF@KINCDENJ@bad?5array?5new?5length@
CONST	SEGMENT
??_C@_0BF@KINCDENJ@bad?5array?5new?5length@ DB 'bad array new length', 00H ; `string'
CONST	ENDS
;	COMDAT ??_7bad_array_new_length@std@@6B@
CONST	SEGMENT
??_7bad_array_new_length@std@@6B@ DD FLAT:??_R4bad_array_new_length@std@@6B@ ; std::bad_array_new_length::`vftable'
	DD	FLAT:??_Ebad_array_new_length@std@@UAEPAXI@Z
	DD	FLAT:?what@exception@std@@UBEPBDXZ
CONST	ENDS
;	COMDAT ??_7bad_alloc@std@@6B@
CONST	SEGMENT
??_7bad_alloc@std@@6B@ DD FLAT:??_R4bad_alloc@std@@6B@	; std::bad_alloc::`vftable'
	DD	FLAT:??_Ebad_alloc@std@@UAEPAXI@Z
	DD	FLAT:?what@exception@std@@UBEPBDXZ
CONST	ENDS
;	COMDAT ??_C@_0BC@EOODALEL@Unknown?5exception@
CONST	SEGMENT
??_C@_0BC@EOODALEL@Unknown?5exception@ DB 'Unknown exception', 00H ; `string'
CONST	ENDS
;	COMDAT ??_7exception@std@@6B@
CONST	SEGMENT
??_7exception@std@@6B@ DD FLAT:??_R4exception@std@@6B@	; std::exception::`vftable'
	DD	FLAT:??_Eexception@std@@UAEPAXI@Z
	DD	FLAT:?what@exception@std@@UBEPBDXZ
CONST	ENDS
;	COMDAT xdata$x
xdata$x	SEGMENT
__unwindtable$??$construct_node_from_args@V?$allocator@U?$ptr_node@U?$pair@$$CBV?$basic_string@DU?$char_traits@D@std@@V?$allocator@D@2@@std@@PAVCEterPack@@@std@@@detail@unordered@boost@@@std@@U?$pair@$$CBV?$basic_string@DU?$char_traits@D@std@@V?$allocator@D@2@@std@@PAVCEterPack@@@2@@func@detail@unordered@boost@@YAPAU?$ptr_node@U?$pair@$$CBV?$basic_string@DU?$char_traits@D@std@@V?$allocator@D@2@@std@@PAVCEterPack@@@std@@@123@AAV?$allocator@U?$ptr_node@U?$pair@$$CBV?$basic_string@DU?$char_traits@D@std@@V?$allocator@D@2@@std@@PAVCEterPack@@@std@@@detail@unordered@boost@@@std@@$$QAU?$pair@$$CBV?$basic_string@DU?$char_traits@D@std@@V?$allocator@D@2@@std@@PAVCEterPack@@@6@@Z DD 0ffffffffH
	DD	FLAT:__unwindfunclet$??$construct_node_from_args@V?$allocator@U?$ptr_node@U?$pair@$$CBV?$basic_string@DU?$char_traits@D@std@@V?$allocator@D@2@@std@@PAVCEterPack@@@std@@@detail@unordered@boost@@@std@@U?$pair@$$CBV?$basic_string@DU?$char_traits@D@std@@V?$allocator@D@2@@std@@PAVCEterPack@@@2@@func@detail@unordered@boost@@YAPAU?$ptr_node@U?$pair@$$CBV?$basic_string@DU?$char_traits@D@std@@V?$allocator@D@2@@std@@PAVCEterPack@@@std@@@123@AAV?$allocator@U?$ptr_node@U?$pair@$$CBV?$basic_string@DU?$char_traits@D@std@@V?$allocator@D@2@@std@@PAVCEterPack@@@std@@@detail@unordered@boost@@@std@@$$QAU?$pair@$$CBV?$basic_string@DU?$char_traits@D@std@@V?$allocator@D@2@@std@@PAVCEterPack@@@6@@Z$0
__ehfuncinfo$??$construct_node_from_args@V?$allocator@U?$ptr_node@U?$pair@$$CBV?$basic_string@DU?$char_traits@D@std@@V?$allocator@D@2@@std@@PAVCEterPack@@@std@@@detail@unordered@boost@@@std@@U?$pair@$$CBV?$basic_string@DU?$char_traits@D@std@@V?$allocator@D@2@@std@@PAVCEterPack@@@2@@func@detail@unordered@boost@@YAPAU?$ptr_node@U?$pair@$$CBV?$basic_string@DU?$char_traits@D@std@@V?$allocator@D@2@@std@@PAVCEterPack@@@std@@@123@AAV?$allocator@U?$ptr_node@U?$pair@$$CBV?$basic_string@DU?$char_traits@D@std@@V?$allocator@D@2@@std@@PAVCEterPack@@@std@@@detail@unordered@boost@@@std@@$$QAU?$pair@$$CBV?$basic_string@DU?$char_traits@D@std@@V?$allocator@D@2@@std@@PAVCEterPack@@@6@@Z DD 019930522H
	DD	01H
	DD	FLAT:__unwindtable$??$construct_node_from_args@V?$allocator@U?$ptr_node@U?$pair@$$CBV?$basic_string@DU?$char_traits@D@std@@V?$allocator@D@2@@std@@PAVCEterPack@@@std@@@detail@unordered@boost@@@std@@U?$pair@$$CBV?$basic_string@DU?$char_traits@D@std@@V?$allocator@D@2@@std@@PAVCEterPack@@@2@@func@detail@unordered@boost@@YAPAU?$ptr_node@U?$pair@$$CBV?$basic_string@DU?$char_traits@D@std@@V?$allocator@D@2@@std@@PAVCEterPack@@@std@@@123@AAV?$allocator@U?$ptr_node@U?$pair@$$CBV?$basic_string@DU?$char_traits@D@std@@V?$allocator@D@2@@std@@PAVCEterPack@@@std@@@detail@unordered@boost@@@std@@$$QAU?$pair@$$CBV?$basic_string@DU?$char_traits@D@std@@V?$allocator@D@2@@std@@PAVCEterPack@@@6@@Z
	DD	2 DUP(00H)
	DD	2 DUP(00H)
	DD	00H
	DD	01H
xdata$x	ENDS
;	COMDAT xdata$x
xdata$x	SEGMENT
__unwindtable$??$construct_node_from_args@V?$allocator@U?$ptr_node@U?$pair@$$CBKUSCache@CEterPackManager@@@std@@@detail@unordered@boost@@@std@@U?$pair@$$CBKUSCache@CEterPackManager@@@2@@func@detail@unordered@boost@@YAPAU?$ptr_node@U?$pair@$$CBKUSCache@CEterPackManager@@@std@@@123@AAV?$allocator@U?$ptr_node@U?$pair@$$CBKUSCache@CEterPackManager@@@std@@@detail@unordered@boost@@@std@@$$QAU?$pair@$$CBKUSCache@CEterPackManager@@@6@@Z DD 0ffffffffH
	DD	FLAT:__unwindfunclet$??$construct_node_from_args@V?$allocator@U?$ptr_node@U?$pair@$$CBKUSCache@CEterPackManager@@@std@@@detail@unordered@boost@@@std@@U?$pair@$$CBKUSCache@CEterPackManager@@@2@@func@detail@unordered@boost@@YAPAU?$ptr_node@U?$pair@$$CBKUSCache@CEterPackManager@@@std@@@123@AAV?$allocator@U?$ptr_node@U?$pair@$$CBKUSCache@CEterPackManager@@@std@@@detail@unordered@boost@@@std@@$$QAU?$pair@$$CBKUSCache@CEterPackManager@@@6@@Z$0
__ehfuncinfo$??$construct_node_from_args@V?$allocator@U?$ptr_node@U?$pair@$$CBKUSCache@CEterPackManager@@@std@@@detail@unordered@boost@@@std@@U?$pair@$$CBKUSCache@CEterPackManager@@@2@@func@detail@unordered@boost@@YAPAU?$ptr_node@U?$pair@$$CBKUSCache@CEterPackManager@@@std@@@123@AAV?$allocator@U?$ptr_node@U?$pair@$$CBKUSCache@CEterPackManager@@@std@@@detail@unordered@boost@@@std@@$$QAU?$pair@$$CBKUSCache@CEterPackManager@@@6@@Z DD 019930522H
	DD	01H
	DD	FLAT:__unwindtable$??$construct_node_from_args@V?$allocator@U?$ptr_node@U?$pair@$$CBKUSCache@CEterPackManager@@@std@@@detail@unordered@boost@@@std@@U?$pair@$$CBKUSCache@CEterPackManager@@@2@@func@detail@unordered@boost@@YAPAU?$ptr_node@U?$pair@$$CBKUSCache@CEterPackManager@@@std@@@123@AAV?$allocator@U?$ptr_node@U?$pair@$$CBKUSCache@CEterPackManager@@@std@@@detail@unordered@boost@@@std@@$$QAU?$pair@$$CBKUSCache@CEterPackManager@@@6@@Z
	DD	2 DUP(00H)
	DD	2 DUP(00H)
	DD	00H
	DD	01H
xdata$x	ENDS
;	COMDAT xdata$x
xdata$x	SEGMENT
__unwindtable$??$?0ABQAVCEterPack@@@?$_List_node_emplace_op2@V?$allocator@U?$_List_node@PAVCEterPack@@PAX@std@@@std@@@std@@QAE@AAV?$allocator@U?$_List_node@PAVCEterPack@@PAX@std@@@1@ABQAVCEterPack@@@Z DD 0ffffffffH
	DD	FLAT:__unwindfunclet$??$?0ABQAVCEterPack@@@?$_List_node_emplace_op2@V?$allocator@U?$_List_node@PAVCEterPack@@PAX@std@@@std@@@std@@QAE@AAV?$allocator@U?$_List_node@PAVCEterPack@@PAX@std@@@1@ABQAVCEterPack@@@Z$0
__ehfuncinfo$??$?0ABQAVCEterPack@@@?$_List_node_emplace_op2@V?$allocator@U?$_List_node@PAVCEterPack@@PAX@std@@@std@@@std@@QAE@AAV?$allocator@U?$_List_node@PAVCEterPack@@PAX@std@@@1@ABQAVCEterPack@@@Z DD 019930522H
	DD	01H
	DD	FLAT:__unwindtable$??$?0ABQAVCEterPack@@@?$_List_node_emplace_op2@V?$allocator@U?$_List_node@PAVCEterPack@@PAX@std@@@std@@@std@@QAE@AAV?$allocator@U?$_List_node@PAVCEterPack@@PAX@std@@@1@ABQAVCEterPack@@@Z
	DD	2 DUP(00H)
	DD	2 DUP(00H)
	DD	00H
	DD	01H
xdata$x	ENDS
;	COMDAT xdata$x
xdata$x	SEGMENT
__unwindtable$??$emplace_unique@U?$pair@$$CBV?$basic_string@DU?$char_traits@D@std@@V?$allocator@D@2@@std@@PAVCEterPack@@@std@@@?$table@U?$map@V?$allocator@U?$pair@$$CBV?$basic_string@DU?$char_traits@D@std@@V?$allocator@D@2@@std@@PAVCEterPack@@@std@@@std@@V?$basic_string@DU?$char_traits@D@std@@V?$allocator@D@2@@2@PAVCEterPack@@Ustringhash@@U?$equal_to@V?$basic_string@DU?$char_traits@D@std@@V?$allocator@D@2@@std@@@2@@detail@unordered@boost@@@detail@unordered@boost@@QAE?AU?$pair@U?$iterator@U?$ptr_node@U?$pair@$$CBV?$basic_string@DU?$char_traits@D@std@@V?$allocator@D@2@@std@@PAVCEterPack@@@std@@@detail@unordered@boost@@@iterator_detail@unordered@boost@@_N@std@@ABV?$basic_string@DU?$char_traits@D@std@@V?$allocator@D@2@@5@$$QAU?$pair@$$CBV?$basic_string@DU?$char_traits@D@std@@V?$allocator@D@2@@std@@PAVCEterPack@@@5@@Z DD 0ffffffffH
	DD	FLAT:__unwindfunclet$??$emplace_unique@U?$pair@$$CBV?$basic_string@DU?$char_traits@D@std@@V?$allocator@D@2@@std@@PAVCEterPack@@@std@@@?$table@U?$map@V?$allocator@U?$pair@$$CBV?$basic_string@DU?$char_traits@D@std@@V?$allocator@D@2@@std@@PAVCEterPack@@@std@@@std@@V?$basic_string@DU?$char_traits@D@std@@V?$allocator@D@2@@2@PAVCEterPack@@Ustringhash@@U?$equal_to@V?$basic_string@DU?$char_traits@D@std@@V?$allocator@D@2@@std@@@2@@detail@unordered@boost@@@detail@unordered@boost@@QAE?AU?$pair@U?$iterator@U?$ptr_node@U?$pair@$$CBV?$basic_string@DU?$char_traits@D@std@@V?$allocator@D@2@@std@@PAVCEterPack@@@std@@@detail@unordered@boost@@@iterator_detail@unordered@boost@@_N@std@@ABV?$basic_string@DU?$char_traits@D@std@@V?$allocator@D@2@@5@$$QAU?$pair@$$CBV?$basic_string@DU?$char_traits@D@std@@V?$allocator@D@2@@std@@PAVCEterPack@@@5@@Z$0
	DD	0ffffffffH
	DD	FLAT:__unwindfunclet$??$emplace_unique@U?$pair@$$CBV?$basic_string@DU?$char_traits@D@std@@V?$allocator@D@2@@std@@PAVCEterPack@@@std@@@?$table@U?$map@V?$allocator@U?$pair@$$CBV?$basic_string@DU?$char_traits@D@std@@V?$allocator@D@2@@std@@PAVCEterPack@@@std@@@std@@V?$basic_string@DU?$char_traits@D@std@@V?$allocator@D@2@@2@PAVCEterPack@@Ustringhash@@U?$equal_to@V?$basic_string@DU?$char_traits@D@std@@V?$allocator@D@2@@std@@@2@@detail@unordered@boost@@@detail@unordered@boost@@QAE?AU?$pair@U?$iterator@U?$ptr_node@U?$pair@$$CBV?$basic_string@DU?$char_traits@D@std@@V?$allocator@D@2@@std@@PAVCEterPack@@@std@@@detail@unordered@boost@@@iterator_detail@unordered@boost@@_N@std@@ABV?$basic_string@DU?$char_traits@D@std@@V?$allocator@D@2@@5@$$QAU?$pair@$$CBV?$basic_string@DU?$char_traits@D@std@@V?$allocator@D@2@@std@@PAVCEterPack@@@5@@Z$2
__ehfuncinfo$??$emplace_unique@U?$pair@$$CBV?$basic_string@DU?$char_traits@D@std@@V?$allocator@D@2@@std@@PAVCEterPack@@@std@@@?$table@U?$map@V?$allocator@U?$pair@$$CBV?$basic_string@DU?$char_traits@D@std@@V?$allocator@D@2@@std@@PAVCEterPack@@@std@@@std@@V?$basic_string@DU?$char_traits@D@std@@V?$allocator@D@2@@2@PAVCEterPack@@Ustringhash@@U?$equal_to@V?$basic_string@DU?$char_traits@D@std@@V?$allocator@D@2@@std@@@2@@detail@unordered@boost@@@detail@unordered@boost@@QAE?AU?$pair@U?$iterator@U?$ptr_node@U?$pair@$$CBV?$basic_string@DU?$char_traits@D@std@@V?$allocator@D@2@@std@@PAVCEterPack@@@std@@@detail@unordered@boost@@@iterator_detail@unordered@boost@@_N@std@@ABV?$basic_string@DU?$char_traits@D@std@@V?$allocator@D@2@@5@$$QAU?$pair@$$CBV?$basic_string@DU?$char_traits@D@std@@V?$allocator@D@2@@std@@PAVCEterPack@@@5@@Z DD 019930522H
	DD	02H
	DD	FLAT:__unwindtable$??$emplace_unique@U?$pair@$$CBV?$basic_string@DU?$char_traits@D@std@@V?$allocator@D@2@@std@@PAVCEterPack@@@std@@@?$table@U?$map@V?$allocator@U?$pair@$$CBV?$basic_string@DU?$char_traits@D@std@@V?$allocator@D@2@@std@@PAVCEterPack@@@std@@@std@@V?$basic_string@DU?$char_traits@D@std@@V?$allocator@D@2@@2@PAVCEterPack@@Ustringhash@@U?$equal_to@V?$basic_string@DU?$char_traits@D@std@@V?$allocator@D@2@@std@@@2@@detail@unordered@boost@@@detail@unordered@boost@@QAE?AU?$pair@U?$iterator@U?$ptr_node@U?$pair@$$CBV?$basic_string@DU?$char_traits@D@std@@V?$allocator@D@2@@std@@PAVCEterPack@@@std@@@detail@unordered@boost@@@iterator_detail@unordered@boost@@_N@std@@ABV?$basic_string@DU?$char_traits@D@std@@V?$allocator@D@2@@5@$$QAU?$pair@$$CBV?$basic_string@DU?$char_traits@D@std@@V?$allocator@D@2@@std@@PAVCEterPack@@@5@@Z
	DD	2 DUP(00H)
	DD	2 DUP(00H)
	DD	00H
	DD	01H
xdata$x	ENDS
;	COMDAT xdata$x
xdata$x	SEGMENT
__unwindtable$??$emplace_unique@U?$pair@$$CBKUSCache@CEterPackManager@@@std@@@?$table@U?$map@V?$allocator@U?$pair@$$CBKUSCache@CEterPackManager@@@std@@@std@@KUSCache@CEterPackManager@@U?$hash@K@boost@@U?$equal_to@K@2@@detail@unordered@boost@@@detail@unordered@boost@@QAE?AU?$pair@U?$iterator@U?$ptr_node@U?$pair@$$CBKUSCache@CEterPackManager@@@std@@@detail@unordered@boost@@@iterator_detail@unordered@boost@@_N@std@@ABK$$QAU?$pair@$$CBKUSCache@CEterPackManager@@@5@@Z DD 0ffffffffH
	DD	FLAT:__unwindfunclet$??$emplace_unique@U?$pair@$$CBKUSCache@CEterPackManager@@@std@@@?$table@U?$map@V?$allocator@U?$pair@$$CBKUSCache@CEterPackManager@@@std@@@std@@KUSCache@CEterPackManager@@U?$hash@K@boost@@U?$equal_to@K@2@@detail@unordered@boost@@@detail@unordered@boost@@QAE?AU?$pair@U?$iterator@U?$ptr_node@U?$pair@$$CBKUSCache@CEterPackManager@@@std@@@detail@unordered@boost@@@iterator_detail@unordered@boost@@_N@std@@ABK$$QAU?$pair@$$CBKUSCache@CEterPackManager@@@5@@Z$0
	DD	0ffffffffH
	DD	FLAT:__unwindfunclet$??$emplace_unique@U?$pair@$$CBKUSCache@CEterPackManager@@@std@@@?$table@U?$map@V?$allocator@U?$pair@$$CBKUSCache@CEterPackManager@@@std@@@std@@KUSCache@CEterPackManager@@U?$hash@K@boost@@U?$equal_to@K@2@@detail@unordered@boost@@@detail@unordered@boost@@QAE?AU?$pair@U?$iterator@U?$ptr_node@U?$pair@$$CBKUSCache@CEterPackManager@@@std@@@detail@unordered@boost@@@iterator_detail@unordered@boost@@_N@std@@ABK$$QAU?$pair@$$CBKUSCache@CEterPackManager@@@5@@Z$1
__ehfuncinfo$??$emplace_unique@U?$pair@$$CBKUSCache@CEterPackManager@@@std@@@?$table@U?$map@V?$allocator@U?$pair@$$CBKUSCache@CEterPackManager@@@std@@@std@@KUSCache@CEterPackManager@@U?$hash@K@boost@@U?$equal_to@K@2@@detail@unordered@boost@@@detail@unordered@boost@@QAE?AU?$pair@U?$iterator@U?$ptr_node@U?$pair@$$CBKUSCache@CEterPackManager@@@std@@@detail@unordered@boost@@@iterator_detail@unordered@boost@@_N@std@@ABK$$QAU?$pair@$$CBKUSCache@CEterPackManager@@@5@@Z DD 019930522H
	DD	02H
	DD	FLAT:__unwindtable$??$emplace_unique@U?$pair@$$CBKUSCache@CEterPackManager@@@std@@@?$table@U?$map@V?$allocator@U?$pair@$$CBKUSCache@CEterPackManager@@@std@@@std@@KUSCache@CEterPackManager@@U?$hash@K@boost@@U?$equal_to@K@2@@detail@unordered@boost@@@detail@unordered@boost@@QAE?AU?$pair@U?$iterator@U?$ptr_node@U?$pair@$$CBKUSCache@CEterPackManager@@@std@@@detail@unordered@boost@@@iterator_detail@unordered@boost@@_N@std@@ABK$$QAU?$pair@$$CBKUSCache@CEterPackManager@@@5@@Z
	DD	2 DUP(00H)
	DD	2 DUP(00H)
	DD	00H
	DD	01H
xdata$x	ENDS
;	COMDAT xdata$x
xdata$x	SEGMENT
__unwindtable$??$_Emplace@ABQAVCEterPack@@@?$list@PAVCEterPack@@V?$allocator@PAVCEterPack@@@std@@@std@@QAEPAU?$_List_node@PAVCEterPack@@PAX@1@QAU21@ABQAVCEterPack@@@Z DD 0ffffffffH
	DD	FLAT:__unwindfunclet$??$_Emplace@ABQAVCEterPack@@@?$list@PAVCEterPack@@V?$allocator@PAVCEterPack@@@std@@@std@@QAEPAU?$_List_node@PAVCEterPack@@PAX@1@QAU21@ABQAVCEterPack@@@Z$1
__ehfuncinfo$??$_Emplace@ABQAVCEterPack@@@?$list@PAVCEterPack@@V?$allocator@PAVCEterPack@@@std@@@std@@QAEPAU?$_List_node@PAVCEterPack@@PAX@1@QAU21@ABQAVCEterPack@@@Z DD 019930522H
	DD	01H
	DD	FLAT:__unwindtable$??$_Emplace@ABQAVCEterPack@@@?$list@PAVCEterPack@@V?$allocator@PAVCEterPack@@@std@@@std@@QAEPAU?$_List_node@PAVCEterPack@@PAX@1@QAU21@ABQAVCEterPack@@@Z
	DD	2 DUP(00H)
	DD	2 DUP(00H)
	DD	00H
	DD	01H
xdata$x	ENDS
;	COMDAT xdata$x
xdata$x	SEGMENT
__unwindtable$?resize_and_add_node_unique@?$table@U?$map@V?$allocator@U?$pair@$$CBKUSCache@CEterPackManager@@@std@@@std@@KUSCache@CEterPackManager@@U?$hash@K@boost@@U?$equal_to@K@2@@detail@unordered@boost@@@detail@unordered@boost@@QAEPAU?$ptr_node@U?$pair@$$CBKUSCache@CEterPackManager@@@std@@@234@PAU5234@I@Z DD 0ffffffffH
	DD	FLAT:__unwindfunclet$?resize_and_add_node_unique@?$table@U?$map@V?$allocator@U?$pair@$$CBKUSCache@CEterPackManager@@@std@@@std@@KUSCache@CEterPackManager@@U?$hash@K@boost@@U?$equal_to@K@2@@detail@unordered@boost@@@detail@unordered@boost@@QAEPAU?$ptr_node@U?$pair@$$CBKUSCache@CEterPackManager@@@std@@@234@PAU5234@I@Z$0
__ehfuncinfo$?resize_and_add_node_unique@?$table@U?$map@V?$allocator@U?$pair@$$CBKUSCache@CEterPackManager@@@std@@@std@@KUSCache@CEterPackManager@@U?$hash@K@boost@@U?$equal_to@K@2@@detail@unordered@boost@@@detail@unordered@boost@@QAEPAU?$ptr_node@U?$pair@$$CBKUSCache@CEterPackManager@@@std@@@234@PAU5234@I@Z DD 019930522H
	DD	01H
	DD	FLAT:__unwindtable$?resize_and_add_node_unique@?$table@U?$map@V?$allocator@U?$pair@$$CBKUSCache@CEterPackManager@@@std@@@std@@KUSCache@CEterPackManager@@U?$hash@K@boost@@U?$equal_to@K@2@@detail@unordered@boost@@@detail@unordered@boost@@QAEPAU?$ptr_node@U?$pair@$$CBKUSCache@CEterPackManager@@@std@@@234@PAU5234@I@Z
	DD	2 DUP(00H)
	DD	2 DUP(00H)
	DD	00H
	DD	01H
xdata$x	ENDS
;	COMDAT xdata$x
xdata$x	SEGMENT
__unwindtable$?resize_and_add_node_unique@?$table@U?$map@V?$allocator@U?$pair@$$CBV?$basic_string@DU?$char_traits@D@std@@V?$allocator@D@2@@std@@PAVCEterPack@@@std@@@std@@V?$basic_string@DU?$char_traits@D@std@@V?$allocator@D@2@@2@PAVCEterPack@@Ustringhash@@U?$equal_to@V?$basic_string@DU?$char_traits@D@std@@V?$allocator@D@2@@std@@@2@@detail@unordered@boost@@@detail@unordered@boost@@QAEPAU?$ptr_node@U?$pair@$$CBV?$basic_string@DU?$char_traits@D@std@@V?$allocator@D@2@@std@@PAVCEterPack@@@std@@@234@PAU5234@I@Z DD 0ffffffffH
	DD	FLAT:__unwindfunclet$?resize_and_add_node_unique@?$table@U?$map@V?$allocator@U?$pair@$$CBV?$basic_string@DU?$char_traits@D@std@@V?$allocator@D@2@@std@@PAVCEterPack@@@std@@@std@@V?$basic_string@DU?$char_traits@D@std@@V?$allocator@D@2@@2@PAVCEterPack@@Ustringhash@@U?$equal_to@V?$basic_string@DU?$char_traits@D@std@@V?$allocator@D@2@@std@@@2@@detail@unordered@boost@@@detail@unordered@boost@@QAEPAU?$ptr_node@U?$pair@$$CBV?$basic_string@DU?$char_traits@D@std@@V?$allocator@D@2@@std@@PAVCEterPack@@@std@@@234@PAU5234@I@Z$0
__ehfuncinfo$?resize_and_add_node_unique@?$table@U?$map@V?$allocator@U?$pair@$$CBV?$basic_string@DU?$char_traits@D@std@@V?$allocator@D@2@@std@@PAVCEterPack@@@std@@@std@@V?$basic_string@DU?$char_traits@D@std@@V?$allocator@D@2@@2@PAVCEterPack@@Ustringhash@@U?$equal_to@V?$basic_string@DU?$char_traits@D@std@@V?$allocator@D@2@@std@@@2@@detail@unordered@boost@@@detail@unordered@boost@@QAEPAU?$ptr_node@U?$pair@$$CBV?$basic_string@DU?$char_traits@D@std@@V?$allocator@D@2@@std@@PAVCEterPack@@@std@@@234@PAU5234@I@Z DD 019930522H
	DD	01H
	DD	FLAT:__unwindtable$?resize_and_add_node_unique@?$table@U?$map@V?$allocator@U?$pair@$$CBV?$basic_string@DU?$char_traits@D@std@@V?$allocator@D@2@@std@@PAVCEterPack@@@std@@@std@@V?$basic_string@DU?$char_traits@D@std@@V?$allocator@D@2@@2@PAVCEterPack@@Ustringhash@@U?$equal_to@V?$basic_string@DU?$char_traits@D@std@@V?$allocator@D@2@@std@@@2@@detail@unordered@boost@@@detail@unordered@boost@@QAEPAU?$ptr_node@U?$pair@$$CBV?$basic_string@DU?$char_traits@D@std@@V?$allocator@D@2@@std@@PAVCEterPack@@@std@@@234@PAU5234@I@Z
	DD	2 DUP(00H)
	DD	2 DUP(00H)
	DD	00H
	DD	01H
xdata$x	ENDS
;	COMDAT xdata$x
xdata$x	SEGMENT
__unwindtable$?push_front@?$list@PAVCEterPack@@V?$allocator@PAVCEterPack@@@std@@@std@@QAEXABQAVCEterPack@@@Z DD 0ffffffffH
	DD	FLAT:__unwindfunclet$?push_front@?$list@PAVCEterPack@@V?$allocator@PAVCEterPack@@@std@@@std@@QAEXABQAVCEterPack@@@Z$1
__ehfuncinfo$?push_front@?$list@PAVCEterPack@@V?$allocator@PAVCEterPack@@@std@@@std@@QAEXABQAVCEterPack@@@Z DD 019930522H
	DD	01H
	DD	FLAT:__unwindtable$?push_front@?$list@PAVCEterPack@@V?$allocator@PAVCEterPack@@@std@@@std@@QAEXABQAVCEterPack@@@Z
	DD	2 DUP(00H)
	DD	2 DUP(00H)
	DD	00H
	DD	01H
xdata$x	ENDS
;	COMDAT xdata$x
xdata$x	SEGMENT
__unwindtable$?FindPack@CEterPackManager@@IAEPAVCEterPack@@PBD@Z DD 0ffffffffH
	DD	FLAT:__unwindfunclet$?FindPack@CEterPackManager@@IAEPAVCEterPack@@PBD@Z$0
__ehfuncinfo$?FindPack@CEterPackManager@@IAEPAVCEterPack@@PBD@Z DD 019930522H
	DD	01H
	DD	FLAT:__unwindtable$?FindPack@CEterPackManager@@IAEPAVCEterPack@@PBD@Z
	DD	2 DUP(00H)
	DD	2 DUP(00H)
	DD	00H
	DD	01H
xdata$x	ENDS
;	COMDAT xdata$x
xdata$x	SEGMENT
__unwindtable$?RetrieveHybridCryptPackSDB@CEterPackManager@@QAEXPBE@Z DD 0ffffffffH
	DD	FLAT:__unwindfunclet$?RetrieveHybridCryptPackSDB@CEterPackManager@@QAEXPBE@Z$0
	DD	00H
	DD	FLAT:__unwindfunclet$?RetrieveHybridCryptPackSDB@CEterPackManager@@QAEXPBE@Z$1
	DD	0ffffffffH
	DD	FLAT:__unwindfunclet$?RetrieveHybridCryptPackSDB@CEterPackManager@@QAEXPBE@Z$1
__ehfuncinfo$?RetrieveHybridCryptPackSDB@CEterPackManager@@QAEXPBE@Z DD 019930522H
	DD	03H
	DD	FLAT:__unwindtable$?RetrieveHybridCryptPackSDB@CEterPackManager@@QAEXPBE@Z
	DD	2 DUP(00H)
	DD	2 DUP(00H)
	DD	00H
	DD	01H
xdata$x	ENDS
;	COMDAT xdata$x
xdata$x	SEGMENT
__unwindtable$?RetrieveHybridCryptPackKeys@CEterPackManager@@QAEXPBE@Z DD 0ffffffffH
	DD	FLAT:__unwindfunclet$?RetrieveHybridCryptPackKeys@CEterPackManager@@QAEXPBE@Z$0
	DD	00H
	DD	FLAT:__unwindfunclet$?RetrieveHybridCryptPackKeys@CEterPackManager@@QAEXPBE@Z$1
	DD	0ffffffffH
	DD	FLAT:__unwindfunclet$?RetrieveHybridCryptPackKeys@CEterPackManager@@QAEXPBE@Z$1
__ehfuncinfo$?RetrieveHybridCryptPackKeys@CEterPackManager@@QAEXPBE@Z DD 019930522H
	DD	03H
	DD	FLAT:__unwindtable$?RetrieveHybridCryptPackKeys@CEterPackManager@@QAEXPBE@Z
	DD	2 DUP(00H)
	DD	2 DUP(00H)
	DD	00H
	DD	01H
xdata$x	ENDS
;	COMDAT xdata$x
xdata$x	SEGMENT
__ehfuncinfo$?WriteHybridCryptPackInfo@CEterPackManager@@QAEXPBD@Z DD 019930522H
	DD	07H
	DD	FLAT:__unwindtable$?WriteHybridCryptPackInfo@CEterPackManager@@QAEXPBD@Z
	DD	2 DUP(00H)
	DD	2 DUP(00H)
	DD	00H
	DD	01H
__unwindtable$?WriteHybridCryptPackInfo@CEterPackManager@@QAEXPBD@Z DD 0ffffffffH
	DD	FLAT:__unwindfunclet$?WriteHybridCryptPackInfo@CEterPackManager@@QAEXPBD@Z$0
	DD	00H
	DD	FLAT:__unwindfunclet$?WriteHybridCryptPackInfo@CEterPackManager@@QAEXPBD@Z$1
	DD	01H
	DD	FLAT:__unwindfunclet$?WriteHybridCryptPackInfo@CEterPackManager@@QAEXPBD@Z$2
	DD	00H
	DD	FLAT:__unwindfunclet$?WriteHybridCryptPackInfo@CEterPackManager@@QAEXPBD@Z$2
	DD	00H
	DD	FLAT:__unwindfunclet$?WriteHybridCryptPackInfo@CEterPackManager@@QAEXPBD@Z$3
	DD	04H
	DD	FLAT:__unwindfunclet$?WriteHybridCryptPackInfo@CEterPackManager@@QAEXPBD@Z$4
	DD	00H
	DD	FLAT:__unwindfunclet$?WriteHybridCryptPackInfo@CEterPackManager@@QAEXPBD@Z$4
xdata$x	ENDS
;	COMDAT xdata$x
xdata$x	SEGMENT
__unwindtable$?RegisterPackWhenPackMaking@CEterPackManager@@QAE_NPBD0PAVCEterPack@@@Z DD 0ffffffffH
	DD	FLAT:__unwindfunclet$?RegisterPackWhenPackMaking@CEterPackManager@@QAE_NPBD0PAVCEterPack@@@Z$0
	DD	0ffffffffH
	DD	FLAT:__unwindfunclet$?RegisterPackWhenPackMaking@CEterPackManager@@QAE_NPBD0PAVCEterPack@@@Z$1
__ehfuncinfo$?RegisterPackWhenPackMaking@CEterPackManager@@QAE_NPBD0PAVCEterPack@@@Z DD 019930522H
	DD	02H
	DD	FLAT:__unwindtable$?RegisterPackWhenPackMaking@CEterPackManager@@QAE_NPBD0PAVCEterPack@@@Z
	DD	2 DUP(00H)
	DD	2 DUP(00H)
	DD	00H
	DD	01H
xdata$x	ENDS
;	COMDAT xdata$x
xdata$x	SEGMENT
__unwindtable$?RegisterPack@CEterPackManager@@QAE_NPBD0PBE@Z DD 0ffffffffH
	DD	FLAT:__unwindfunclet$?RegisterPack@CEterPackManager@@QAE_NPBD0PBE@Z$1
	DD	0ffffffffH
	DD	FLAT:__unwindfunclet$?RegisterPack@CEterPackManager@@QAE_NPBD0PBE@Z$2
	DD	0ffffffffH
	DD	FLAT:__unwindfunclet$?RegisterPack@CEterPackManager@@QAE_NPBD0PBE@Z$4
__ehfuncinfo$?RegisterPack@CEterPackManager@@QAE_NPBD0PBE@Z DD 019930522H
	DD	03H
	DD	FLAT:__unwindtable$?RegisterPack@CEterPackManager@@QAE_NPBD0PBE@Z
	DD	2 DUP(00H)
	DD	2 DUP(00H)
	DD	00H
	DD	01H
xdata$x	ENDS
;	COMDAT xdata$x
xdata$x	SEGMENT
__unwindtable$?isExistInPack@CEterPackManager@@QAE_NPBD@Z DD 0ffffffffH
	DD	FLAT:__unwindfunclet$?isExistInPack@CEterPackManager@@QAE_NPBD@Z$0
__ehfuncinfo$?isExistInPack@CEterPackManager@@QAE_NPBD@Z DD 019930522H
	DD	01H
	DD	FLAT:__unwindtable$?isExistInPack@CEterPackManager@@QAE_NPBD@Z
	DD	2 DUP(00H)
	DD	2 DUP(00H)
	DD	00H
	DD	01H
xdata$x	ENDS
;	COMDAT xdata$x
xdata$x	SEGMENT
__unwindtable$?GetFromPack@CEterPackManager@@QAE_NAAVCMappedFile@@PBDPAPBX@Z DD 0ffffffffH
	DD	FLAT:__unwindfunclet$?GetFromPack@CEterPackManager@@QAE_NAAVCMappedFile@@PBDPAPBX@Z$0
__ehfuncinfo$?GetFromPack@CEterPackManager@@QAE_NAAVCMappedFile@@PBDPAPBX@Z DD 019930522H
	DD	01H
	DD	FLAT:__unwindtable$?GetFromPack@CEterPackManager@@QAE_NAAVCMappedFile@@PBDPAPBX@Z
	DD	2 DUP(00H)
	DD	2 DUP(00H)
	DD	00H
	DD	01H
xdata$x	ENDS
;	COMDAT xdata$x
xdata$x	SEGMENT
__unwindtable$?LoadStaticCache@CEterPackManager@@QAEXPBD@Z DD 0ffffffffH
	DD	FLAT:__unwindfunclet$?LoadStaticCache@CEterPackManager@@QAEXPBD@Z$0
	DD	00H
	DD	FLAT:__unwindfunclet$?LoadStaticCache@CEterPackManager@@QAEXPBD@Z$1
__ehfuncinfo$?LoadStaticCache@CEterPackManager@@QAEXPBD@Z DD 019930522H
	DD	02H
	DD	FLAT:__unwindtable$?LoadStaticCache@CEterPackManager@@QAEXPBD@Z
	DD	2 DUP(00H)
	DD	2 DUP(00H)
	DD	00H
	DD	01H
xdata$x	ENDS
;	COMDAT xdata$x
xdata$x	SEGMENT
__unwindtable$??0CEterPackManager@@QAE@XZ DD 0ffffffffH
	DD	FLAT:__unwindfunclet$??0CEterPackManager@@QAE@XZ$0
	DD	00H
	DD	FLAT:__unwindfunclet$??0CEterPackManager@@QAE@XZ$1
	DD	01H
	DD	FLAT:__unwindfunclet$??0CEterPackManager@@QAE@XZ$2
__ehfuncinfo$??0CEterPackManager@@QAE@XZ DD 019930522H
	DD	03H
	DD	FLAT:__unwindtable$??0CEterPackManager@@QAE@XZ
	DD	2 DUP(00H)
	DD	2 DUP(00H)
	DD	00H
	DD	01H
xdata$x	ENDS
; Function compile flags: /Ogtp
; File C:\Users\murat\Desktop\Siveps2-1-99-Project\source\client\extern\include\boost\unordered\detail\implementation.hpp
; File C:\Program Files (x86)\Microsoft Visual Studio\2019\Professional\VC\Tools\MSVC\14.29.30133\include\xmemory
; File C:\Users\murat\Desktop\Siveps2-1-99-Project\source\client\extern\include\boost\unordered\detail\implementation.hpp
; File C:\Program Files (x86)\Microsoft Visual Studio\2019\Professional\VC\Tools\MSVC\14.29.30133\include\xmemory
; File C:\Users\murat\Desktop\Siveps2-1-99-Project\source\client\extern\include\boost\unordered\detail\implementation.hpp
; File C:\Program Files (x86)\Microsoft Visual Studio\2019\Professional\VC\Tools\MSVC\14.29.30133\include\xmemory
; File C:\Users\murat\Desktop\Siveps2-1-99-Project\source\client\extern\include\boost\unordered\detail\implementation.hpp
;	COMDAT ?create_node@?$node_constructor@V?$allocator@U?$ptr_node@U?$pair@$$CBV?$basic_string@DU?$char_traits@D@std@@V?$allocator@D@2@@std@@PAVCEterPack@@@std@@@detail@unordered@boost@@@std@@@detail@unordered@boost@@QAEXXZ
_TEXT	SEGMENT
?create_node@?$node_constructor@V?$allocator@U?$ptr_node@U?$pair@$$CBV?$basic_string@DU?$char_traits@D@std@@V?$allocator@D@2@@std@@PAVCEterPack@@@std@@@detail@unordered@boost@@@std@@@detail@unordered@boost@@QAEXXZ PROC ; boost::unordered::detail::node_constructor<std::allocator<boost::unordered::detail::ptr_node<std::pair<std::basic_string<char,std::char_traits<char>,std::allocator<char> > const ,CEterPack *> > > >::create_node, COMDAT
; _this$ = ecx

; 1983 :       {

  00000	56		 push	 esi
; File C:\Program Files (x86)\Microsoft Visual Studio\2019\Professional\VC\Tools\MSVC\14.29.30133\include\xmemory

; 85   :         return ::operator new(_Bytes);

  00001	6a 24		 push	 36			; 00000024H
; File C:\Users\murat\Desktop\Siveps2-1-99-Project\source\client\extern\include\boost\unordered\detail\implementation.hpp

; 1983 :       {

  00003	8b f1		 mov	 esi, ecx
; File C:\Program Files (x86)\Microsoft Visual Studio\2019\Professional\VC\Tools\MSVC\14.29.30133\include\xmemory

; 85   :         return ::operator new(_Bytes);

  00005	e8 00 00 00 00	 call	 ??2@YAPAXI@Z		; operator new
; File C:\Users\murat\Desktop\Siveps2-1-99-Project\source\client\extern\include\boost\unordered\detail\implementation.hpp

; 1985 :         node_ = node_allocator_traits::allocate(alloc_, 1);

  0000a	89 46 04	 mov	 DWORD PTR [esi+4], eax
; File C:\Program Files (x86)\Microsoft Visual Studio\2019\Professional\VC\Tools\MSVC\14.29.30133\include\xmemory

; 85   :         return ::operator new(_Bytes);

  0000d	83 c4 04	 add	 esp, 4
  00010	0f 57 c0	 xorps	 xmm0, xmm0
; File C:\Users\murat\Desktop\Siveps2-1-99-Project\source\client\extern\include\boost\unordered\detail\implementation.hpp

; 2579 :         ptr_bucket() : next_(0) {}

  00013	c7 00 00 00 00
	00		 mov	 DWORD PTR [eax], 0

; 4865 :         ptr_node() : bucket_base(), bucket_info_(0) {}

  00019	c7 40 04 00 00
	00 00		 mov	 DWORD PTR [eax+4], 0

; 754  :         value_base() : data_() {}

  00020	0f 11 40 08	 movups	 XMMWORD PTR [eax+8], xmm0
  00024	5e		 pop	 esi
  00025	66 0f d6 40 18	 movq	 QWORD PTR [eax+24], xmm0
  0002a	c7 40 20 00 00
	00 00		 mov	 DWORD PTR [eax+32], 0

; 1986 :         new ((void*)boost::to_address(node_)) node();
; 1987 :       }

  00031	c3		 ret	 0
?create_node@?$node_constructor@V?$allocator@U?$ptr_node@U?$pair@$$CBV?$basic_string@DU?$char_traits@D@std@@V?$allocator@D@2@@std@@PAVCEterPack@@@std@@@detail@unordered@boost@@@std@@@detail@unordered@boost@@QAEXXZ ENDP ; boost::unordered::detail::node_constructor<std::allocator<boost::unordered::detail::ptr_node<std::pair<std::basic_string<char,std::char_traits<char>,std::allocator<char> > const ,CEterPack *> > > >::create_node
_TEXT	ENDS
; Function compile flags: /Ogtp
; File C:\Users\murat\Desktop\Siveps2-1-99-Project\source\client\extern\include\boost\unordered\detail\implementation.hpp
; File C:\Program Files (x86)\Microsoft Visual Studio\2019\Professional\VC\Tools\MSVC\14.29.30133\include\xmemory
; File C:\Users\murat\Desktop\Siveps2-1-99-Project\source\client\extern\include\boost\unordered\detail\implementation.hpp
;	COMDAT ??1?$node_constructor@V?$allocator@U?$ptr_node@U?$pair@$$CBV?$basic_string@DU?$char_traits@D@std@@V?$allocator@D@2@@std@@PAVCEterPack@@@std@@@detail@unordered@boost@@@std@@@detail@unordered@boost@@QAE@XZ
_TEXT	SEGMENT
??1?$node_constructor@V?$allocator@U?$ptr_node@U?$pair@$$CBV?$basic_string@DU?$char_traits@D@std@@V?$allocator@D@2@@std@@PAVCEterPack@@@std@@@detail@unordered@boost@@@std@@@detail@unordered@boost@@QAE@XZ PROC ; boost::unordered::detail::node_constructor<std::allocator<boost::unordered::detail::ptr_node<std::pair<std::basic_string<char,std::char_traits<char>,std::allocator<char> > const ,CEterPack *> > > >::~node_constructor<std::allocator<boost::unordered::detail::ptr_node<std::pair<std::basic_string<char,std::char_traits<char>,std::allocator<char> > const ,CEterPack *> > > >, COMDAT
; _this$ = ecx

; 1976 :         if (node_) {

  00000	8b 41 04	 mov	 eax, DWORD PTR [ecx+4]
  00003	85 c0		 test	 eax, eax
  00005	74 0b		 je	 SHORT $LN8@node_const
; File C:\Program Files (x86)\Microsoft Visual Studio\2019\Professional\VC\Tools\MSVC\14.29.30133\include\xmemory

; 264  :         ::operator delete(_Ptr, _Bytes);

  00007	6a 24		 push	 36			; 00000024H
  00009	50		 push	 eax
  0000a	e8 00 00 00 00	 call	 ??3@YAXPAXI@Z		; operator delete
  0000f	83 c4 08	 add	 esp, 8
$LN8@node_const:
; File C:\Users\murat\Desktop\Siveps2-1-99-Project\source\client\extern\include\boost\unordered\detail\implementation.hpp

; 1980 :       }

  00012	c3		 ret	 0
??1?$node_constructor@V?$allocator@U?$ptr_node@U?$pair@$$CBV?$basic_string@DU?$char_traits@D@std@@V?$allocator@D@2@@std@@PAVCEterPack@@@std@@@detail@unordered@boost@@@std@@@detail@unordered@boost@@QAE@XZ ENDP ; boost::unordered::detail::node_constructor<std::allocator<boost::unordered::detail::ptr_node<std::pair<std::basic_string<char,std::char_traits<char>,std::allocator<char> > const ,CEterPack *> > > >::~node_constructor<std::allocator<boost::unordered::detail::ptr_node<std::pair<std::basic_string<char,std::char_traits<char>,std::allocator<char> > const ,CEterPack *> > > >
_TEXT	ENDS
; Function compile flags: /Ogtp
; File C:\Users\murat\Desktop\Siveps2-1-99-Project\source\client\extern\include\boost\unordered\detail\implementation.hpp
; File C:\Program Files (x86)\Microsoft Visual Studio\2019\Professional\VC\Tools\MSVC\14.29.30133\include\xmemory
; File C:\Users\murat\Desktop\Siveps2-1-99-Project\source\client\extern\include\boost\unordered\detail\implementation.hpp
; File C:\Program Files (x86)\Microsoft Visual Studio\2019\Professional\VC\Tools\MSVC\14.29.30133\include\xmemory
; File C:\Users\murat\Desktop\Siveps2-1-99-Project\source\client\extern\include\boost\unordered\detail\implementation.hpp
; File C:\Program Files (x86)\Microsoft Visual Studio\2019\Professional\VC\Tools\MSVC\14.29.30133\include\xmemory
; File C:\Users\murat\Desktop\Siveps2-1-99-Project\source\client\extern\include\boost\unordered\detail\implementation.hpp
;	COMDAT ?create_node@?$node_constructor@V?$allocator@U?$ptr_node@U?$pair@$$CBKUSCache@CEterPackManager@@@std@@@detail@unordered@boost@@@std@@@detail@unordered@boost@@QAEXXZ
_TEXT	SEGMENT
?create_node@?$node_constructor@V?$allocator@U?$ptr_node@U?$pair@$$CBKUSCache@CEterPackManager@@@std@@@detail@unordered@boost@@@std@@@detail@unordered@boost@@QAEXXZ PROC ; boost::unordered::detail::node_constructor<std::allocator<boost::unordered::detail::ptr_node<std::pair<unsigned long const ,CEterPackManager::SCache> > > >::create_node, COMDAT
; _this$ = ecx

; 1983 :       {

  00000	56		 push	 esi
; File C:\Program Files (x86)\Microsoft Visual Studio\2019\Professional\VC\Tools\MSVC\14.29.30133\include\xmemory

; 85   :         return ::operator new(_Bytes);

  00001	6a 14		 push	 20			; 00000014H
; File C:\Users\murat\Desktop\Siveps2-1-99-Project\source\client\extern\include\boost\unordered\detail\implementation.hpp

; 1983 :       {

  00003	8b f1		 mov	 esi, ecx
; File C:\Program Files (x86)\Microsoft Visual Studio\2019\Professional\VC\Tools\MSVC\14.29.30133\include\xmemory

; 85   :         return ::operator new(_Bytes);

  00005	e8 00 00 00 00	 call	 ??2@YAPAXI@Z		; operator new
; File C:\Users\murat\Desktop\Siveps2-1-99-Project\source\client\extern\include\boost\unordered\detail\implementation.hpp

; 1985 :         node_ = node_allocator_traits::allocate(alloc_, 1);

  0000a	89 46 04	 mov	 DWORD PTR [esi+4], eax
; File C:\Program Files (x86)\Microsoft Visual Studio\2019\Professional\VC\Tools\MSVC\14.29.30133\include\xmemory

; 85   :         return ::operator new(_Bytes);

  0000d	83 c4 04	 add	 esp, 4
  00010	0f 57 c0	 xorps	 xmm0, xmm0
; File C:\Users\murat\Desktop\Siveps2-1-99-Project\source\client\extern\include\boost\unordered\detail\implementation.hpp

; 2579 :         ptr_bucket() : next_(0) {}

  00013	c7 00 00 00 00
	00		 mov	 DWORD PTR [eax], 0

; 4865 :         ptr_node() : bucket_base(), bucket_info_(0) {}

  00019	c7 40 04 00 00
	00 00		 mov	 DWORD PTR [eax+4], 0

; 754  :         value_base() : data_() {}

  00020	66 0f d6 40 08	 movq	 QWORD PTR [eax+8], xmm0
  00025	c7 40 10 00 00
	00 00		 mov	 DWORD PTR [eax+16], 0
  0002c	5e		 pop	 esi

; 1986 :         new ((void*)boost::to_address(node_)) node();
; 1987 :       }

  0002d	c3		 ret	 0
?create_node@?$node_constructor@V?$allocator@U?$ptr_node@U?$pair@$$CBKUSCache@CEterPackManager@@@std@@@detail@unordered@boost@@@std@@@detail@unordered@boost@@QAEXXZ ENDP ; boost::unordered::detail::node_constructor<std::allocator<boost::unordered::detail::ptr_node<std::pair<unsigned long const ,CEterPackManager::SCache> > > >::create_node
_TEXT	ENDS
; Function compile flags: /Ogtp
; File C:\Users\murat\Desktop\Siveps2-1-99-Project\source\client\extern\include\boost\unordered\detail\implementation.hpp
; File C:\Program Files (x86)\Microsoft Visual Studio\2019\Professional\VC\Tools\MSVC\14.29.30133\include\xmemory
; File C:\Users\murat\Desktop\Siveps2-1-99-Project\source\client\extern\include\boost\unordered\detail\implementation.hpp
;	COMDAT ??1?$node_constructor@V?$allocator@U?$ptr_node@U?$pair@$$CBKUSCache@CEterPackManager@@@std@@@detail@unordered@boost@@@std@@@detail@unordered@boost@@QAE@XZ
_TEXT	SEGMENT
??1?$node_constructor@V?$allocator@U?$ptr_node@U?$pair@$$CBKUSCache@CEterPackManager@@@std@@@detail@unordered@boost@@@std@@@detail@unordered@boost@@QAE@XZ PROC ; boost::unordered::detail::node_constructor<std::allocator<boost::unordered::detail::ptr_node<std::pair<unsigned long const ,CEterPackManager::SCache> > > >::~node_constructor<std::allocator<boost::unordered::detail::ptr_node<std::pair<unsigned long const ,CEterPackManager::SCache> > > >, COMDAT
; _this$ = ecx

; 1976 :         if (node_) {

  00000	8b 41 04	 mov	 eax, DWORD PTR [ecx+4]
  00003	85 c0		 test	 eax, eax
  00005	74 0b		 je	 SHORT $LN8@node_const
; File C:\Program Files (x86)\Microsoft Visual Studio\2019\Professional\VC\Tools\MSVC\14.29.30133\include\xmemory

; 264  :         ::operator delete(_Ptr, _Bytes);

  00007	6a 14		 push	 20			; 00000014H
  00009	50		 push	 eax
  0000a	e8 00 00 00 00	 call	 ??3@YAXPAXI@Z		; operator delete
  0000f	83 c4 08	 add	 esp, 8
$LN8@node_const:
; File C:\Users\murat\Desktop\Siveps2-1-99-Project\source\client\extern\include\boost\unordered\detail\implementation.hpp

; 1980 :       }

  00012	c3		 ret	 0
??1?$node_constructor@V?$allocator@U?$ptr_node@U?$pair@$$CBKUSCache@CEterPackManager@@@std@@@detail@unordered@boost@@@std@@@detail@unordered@boost@@QAE@XZ ENDP ; boost::unordered::detail::node_constructor<std::allocator<boost::unordered::detail::ptr_node<std::pair<unsigned long const ,CEterPackManager::SCache> > > >::~node_constructor<std::allocator<boost::unordered::detail::ptr_node<std::pair<unsigned long const ,CEterPackManager::SCache> > > >
_TEXT	ENDS
; Function compile flags: /Ogtp
; File C:\Users\murat\Desktop\Siveps2-1-99-Project\source\client\extern\include\boost\unordered\detail\implementation.hpp
; File C:\Program Files (x86)\Microsoft Visual Studio\2019\Professional\VC\Tools\MSVC\14.29.30133\include\xmemory
; File C:\Users\murat\Desktop\Siveps2-1-99-Project\source\client\extern\include\boost\unordered\detail\implementation.hpp
;	COMDAT ??1?$node_tmp@V?$allocator@U?$ptr_node@U?$pair@$$CBV?$basic_string@DU?$char_traits@D@std@@V?$allocator@D@2@@std@@PAVCEterPack@@@std@@@detail@unordered@boost@@@std@@@detail@unordered@boost@@QAE@XZ
_TEXT	SEGMENT
??1?$node_tmp@V?$allocator@U?$ptr_node@U?$pair@$$CBV?$basic_string@DU?$char_traits@D@std@@V?$allocator@D@2@@std@@PAVCEterPack@@@std@@@detail@unordered@boost@@@std@@@detail@unordered@boost@@QAE@XZ PROC ; boost::unordered::detail::node_tmp<std::allocator<boost::unordered::detail::ptr_node<std::pair<std::basic_string<char,std::char_traits<char>,std::allocator<char> > const ,CEterPack *> > > >::~node_tmp<std::allocator<boost::unordered::detail::ptr_node<std::pair<std::basic_string<char,std::char_traits<char>,std::allocator<char> > const ,CEterPack *> > > >, COMDAT
; _this$ = ecx

; 2013 :       {

  00000	56		 push	 esi
  00001	8b f1		 mov	 esi, ecx

; 2014 :         if (node_) {

  00003	8b 46 04	 mov	 eax, DWORD PTR [esi+4]
  00006	85 c0		 test	 eax, eax
  00008	74 18		 je	 SHORT $LN8@node_tmp

; 2015 :           BOOST_UNORDERED_CALL_DESTROY(

  0000a	83 c0 08	 add	 eax, 8
  0000d	50		 push	 eax
  0000e	ff 36		 push	 DWORD PTR [esi]
  00010	e8 00 00 00 00	 call	 ??$destroy@U?$pair@$$CBV?$basic_string@DU?$char_traits@D@std@@V?$allocator@D@2@@std@@PAVCEterPack@@@std@@@?$_Default_allocator_traits@V?$allocator@U?$ptr_node@U?$pair@$$CBV?$basic_string@DU?$char_traits@D@std@@V?$allocator@D@2@@std@@PAVCEterPack@@@std@@@detail@unordered@boost@@@std@@@std@@SAXAAV?$allocator@U?$ptr_node@U?$pair@$$CBV?$basic_string@DU?$char_traits@D@std@@V?$allocator@D@2@@std@@PAVCEterPack@@@std@@@detail@unordered@boost@@@1@QAU?$pair@$$CBV?$basic_string@DU?$char_traits@D@std@@V?$allocator@D@2@@std@@PAVCEterPack@@@1@@Z ; std::_Default_allocator_traits<std::allocator<boost::unordered::detail::ptr_node<std::pair<std::basic_string<char,std::char_traits<char>,std::allocator<char> > const ,CEterPack *> > > >::destroy<std::pair<std::basic_string<char,std::char_traits<char>,std::allocator<char> > const ,CEterPack *> >
; File C:\Program Files (x86)\Microsoft Visual Studio\2019\Professional\VC\Tools\MSVC\14.29.30133\include\xmemory

; 264  :         ::operator delete(_Ptr, _Bytes);

  00015	6a 24		 push	 36			; 00000024H
  00017	ff 76 04	 push	 DWORD PTR [esi+4]
  0001a	e8 00 00 00 00	 call	 ??3@YAXPAXI@Z		; operator delete
  0001f	83 c4 10	 add	 esp, 16			; 00000010H
$LN8@node_tmp:
  00022	5e		 pop	 esi
; File C:\Users\murat\Desktop\Siveps2-1-99-Project\source\client\extern\include\boost\unordered\detail\implementation.hpp

; 2020 :       }

  00023	c3		 ret	 0
??1?$node_tmp@V?$allocator@U?$ptr_node@U?$pair@$$CBV?$basic_string@DU?$char_traits@D@std@@V?$allocator@D@2@@std@@PAVCEterPack@@@std@@@detail@unordered@boost@@@std@@@detail@unordered@boost@@QAE@XZ ENDP ; boost::unordered::detail::node_tmp<std::allocator<boost::unordered::detail::ptr_node<std::pair<std::basic_string<char,std::char_traits<char>,std::allocator<char> > const ,CEterPack *> > > >::~node_tmp<std::allocator<boost::unordered::detail::ptr_node<std::pair<std::basic_string<char,std::char_traits<char>,std::allocator<char> > const ,CEterPack *> > > >
_TEXT	ENDS
; Function compile flags: /Ogtp
; File C:\Users\murat\Desktop\Siveps2-1-99-Project\source\client\extern\include\boost\unordered\detail\implementation.hpp
; File C:\Program Files (x86)\Microsoft Visual Studio\2019\Professional\VC\Tools\MSVC\14.29.30133\include\xmemory
; File C:\Users\murat\Desktop\Siveps2-1-99-Project\source\client\extern\include\boost\unordered\detail\implementation.hpp
;	COMDAT ??1?$node_tmp@V?$allocator@U?$ptr_node@U?$pair@$$CBKUSCache@CEterPackManager@@@std@@@detail@unordered@boost@@@std@@@detail@unordered@boost@@QAE@XZ
_TEXT	SEGMENT
??1?$node_tmp@V?$allocator@U?$ptr_node@U?$pair@$$CBKUSCache@CEterPackManager@@@std@@@detail@unordered@boost@@@std@@@detail@unordered@boost@@QAE@XZ PROC ; boost::unordered::detail::node_tmp<std::allocator<boost::unordered::detail::ptr_node<std::pair<unsigned long const ,CEterPackManager::SCache> > > >::~node_tmp<std::allocator<boost::unordered::detail::ptr_node<std::pair<unsigned long const ,CEterPackManager::SCache> > > >, COMDAT
; _this$ = ecx

; 2014 :         if (node_) {

  00000	8b 41 04	 mov	 eax, DWORD PTR [ecx+4]
  00003	85 c0		 test	 eax, eax
  00005	74 0b		 je	 SHORT $LN8@node_tmp
; File C:\Program Files (x86)\Microsoft Visual Studio\2019\Professional\VC\Tools\MSVC\14.29.30133\include\xmemory

; 264  :         ::operator delete(_Ptr, _Bytes);

  00007	6a 14		 push	 20			; 00000014H
  00009	50		 push	 eax
  0000a	e8 00 00 00 00	 call	 ??3@YAXPAXI@Z		; operator delete
  0000f	83 c4 08	 add	 esp, 8
$LN8@node_tmp:
; File C:\Users\murat\Desktop\Siveps2-1-99-Project\source\client\extern\include\boost\unordered\detail\implementation.hpp

; 2020 :       }

  00012	c3		 ret	 0
??1?$node_tmp@V?$allocator@U?$ptr_node@U?$pair@$$CBKUSCache@CEterPackManager@@@std@@@detail@unordered@boost@@@std@@@detail@unordered@boost@@QAE@XZ ENDP ; boost::unordered::detail::node_tmp<std::allocator<boost::unordered::detail::ptr_node<std::pair<unsigned long const ,CEterPackManager::SCache> > > >::~node_tmp<std::allocator<boost::unordered::detail::ptr_node<std::pair<unsigned long const ,CEterPackManager::SCache> > > >
_TEXT	ENDS
; Function compile flags: /Ogtp
; File C:\Program Files (x86)\Microsoft Visual Studio\2019\Professional\VC\Tools\MSVC\14.29.30133\include\xmemory
; File C:\Program Files (x86)\Microsoft Visual Studio\2019\Professional\VC\Tools\MSVC\14.29.30133\include\xstring
; File C:\Program Files (x86)\Microsoft Visual Studio\2019\Professional\VC\Tools\MSVC\14.29.30133\include\xmemory
; File C:\Program Files (x86)\Microsoft Visual Studio\2019\Professional\VC\Tools\MSVC\14.29.30133\include\xstring
; File C:\Program Files (x86)\Microsoft Visual Studio\2019\Professional\VC\Tools\MSVC\14.29.30133\include\xmemory
; File C:\Program Files (x86)\Microsoft Visual Studio\2019\Professional\VC\Tools\MSVC\14.29.30133\include\xstring
; File C:\Program Files (x86)\Microsoft Visual Studio\2019\Professional\VC\Tools\MSVC\14.29.30133\include\xmemory
;	COMDAT ??$destroy@U?$pair@$$CBV?$basic_string@DU?$char_traits@D@std@@V?$allocator@D@2@@std@@PAVCEterPack@@@std@@@?$_Default_allocator_traits@V?$allocator@U?$ptr_node@U?$pair@$$CBV?$basic_string@DU?$char_traits@D@std@@V?$allocator@D@2@@std@@PAVCEterPack@@@std@@@detail@unordered@boost@@@std@@@std@@SAXAAV?$allocator@U?$ptr_node@U?$pair@$$CBV?$basic_string@DU?$char_traits@D@std@@V?$allocator@D@2@@std@@PAVCEterPack@@@std@@@detail@unordered@boost@@@1@QAU?$pair@$$CBV?$basic_string@DU?$char_traits@D@std@@V?$allocator@D@2@@std@@PAVCEterPack@@@1@@Z
_TEXT	SEGMENT
___formal$ = 8						; size = 4
__Ptr$ = 12						; size = 4
??$destroy@U?$pair@$$CBV?$basic_string@DU?$char_traits@D@std@@V?$allocator@D@2@@std@@PAVCEterPack@@@std@@@?$_Default_allocator_traits@V?$allocator@U?$ptr_node@U?$pair@$$CBV?$basic_string@DU?$char_traits@D@std@@V?$allocator@D@2@@std@@PAVCEterPack@@@std@@@detail@unordered@boost@@@std@@@std@@SAXAAV?$allocator@U?$ptr_node@U?$pair@$$CBV?$basic_string@DU?$char_traits@D@std@@V?$allocator@D@2@@std@@PAVCEterPack@@@std@@@detail@unordered@boost@@@1@QAU?$pair@$$CBV?$basic_string@DU?$char_traits@D@std@@V?$allocator@D@2@@std@@PAVCEterPack@@@1@@Z PROC ; std::_Default_allocator_traits<std::allocator<boost::unordered::detail::ptr_node<std::pair<std::basic_string<char,std::char_traits<char>,std::allocator<char> > const ,CEterPack *> > > >::destroy<std::pair<std::basic_string<char,std::char_traits<char>,std::allocator<char> > const ,CEterPack *> >, COMDAT

; 719  :     static _CONSTEXPR20_DYNALLOC void destroy(_Alloc&, _Uty* const _Ptr) {

  00000	55		 push	 ebp
  00001	8b ec		 mov	 ebp, esp
  00003	56		 push	 esi
; File C:\Program Files (x86)\Microsoft Visual Studio\2019\Professional\VC\Tools\MSVC\14.29.30133\include\xstring

; 2319 :         return _BUF_SIZE <= _Myres;

  00004	8b 75 0c	 mov	 esi, DWORD PTR __Ptr$[ebp]
  00007	8b 4e 14	 mov	 ecx, DWORD PTR [esi+20]
  0000a	83 f9 10	 cmp	 ecx, 16			; 00000010H

; 4618 :         if (_Mypair._Myval2._Large_string_engaged()) {

  0000d	72 27		 jb	 SHORT $LN21@destroy
; File C:\Program Files (x86)\Microsoft Visual Studio\2019\Professional\VC\Tools\MSVC\14.29.30133\include\xmemory

; 835  :         _Deallocate<_New_alignof<_Ty>>(_Ptr, sizeof(_Ty) * _Count);

  0000f	8b 06		 mov	 eax, DWORD PTR [esi]
; File C:\Program Files (x86)\Microsoft Visual Studio\2019\Professional\VC\Tools\MSVC\14.29.30133\include\xstring

; 4622 :             _Al.deallocate(_Ptr, _Mypair._Myval2._Myres + 1);

  00011	41		 inc	 ecx
; File C:\Program Files (x86)\Microsoft Visual Studio\2019\Professional\VC\Tools\MSVC\14.29.30133\include\xmemory

; 260  :         if (_Bytes >= _Big_allocation_threshold) { // boost the alignment of big allocations to help autovectorization

  00012	81 f9 00 10 00
	00		 cmp	 ecx, 4096		; 00001000H
  00018	72 12		 jb	 SHORT $LN31@destroy

; 158  :     const uintptr_t _Ptr_container   = _Ptr_user[-1];

  0001a	8b 50 fc	 mov	 edx, DWORD PTR [eax-4]
  0001d	83 c1 23	 add	 ecx, 35			; 00000023H

; 159  : 
; 160  :     // If the following asserts, it likely means that we are performing
; 161  :     // an aligned delete on memory coming from an unaligned allocation.
; 162  :     _STL_ASSERT(_Ptr_user[-2] == _Big_allocation_sentinel, "invalid argument");
; 163  : 
; 164  :     // Extra paranoia on aligned allocation/deallocation; ensure _Ptr_container is
; 165  :     // in range [_Min_back_shift, _Non_user_size]
; 166  : #ifdef _DEBUG
; 167  :     constexpr uintptr_t _Min_back_shift = 2 * sizeof(void*);
; 168  : #else // ^^^ _DEBUG ^^^ // vvv !_DEBUG vvv
; 169  :     constexpr uintptr_t _Min_back_shift = sizeof(void*);
; 170  : #endif // _DEBUG
; 171  :     const uintptr_t _Back_shift = reinterpret_cast<uintptr_t>(_Ptr) - _Ptr_container;

  00020	2b c2		 sub	 eax, edx

; 172  :     _STL_VERIFY(_Back_shift >= _Min_back_shift && _Back_shift <= _Non_user_size, "invalid argument");

  00022	83 c0 fc	 add	 eax, -4			; fffffffcH
  00025	83 f8 1f	 cmp	 eax, 31			; 0000001fH
  00028	77 20		 ja	 SHORT $LN28@destroy

; 173  :     _Ptr = reinterpret_cast<void*>(_Ptr_container);

  0002a	8b c2		 mov	 eax, edx
$LN31@destroy:

; 264  :         ::operator delete(_Ptr, _Bytes);

  0002c	51		 push	 ecx
  0002d	50		 push	 eax
  0002e	e8 00 00 00 00	 call	 ??3@YAXPAXI@Z		; operator delete
  00033	83 c4 08	 add	 esp, 8
$LN21@destroy:
; File C:\Program Files (x86)\Microsoft Visual Studio\2019\Professional\VC\Tools\MSVC\14.29.30133\include\xstring

; 4633 :             _Mypair._Myval2._Mysize = 0;

  00036	c7 46 10 00 00
	00 00		 mov	 DWORD PTR [esi+16], 0

; 4634 :             _Mypair._Myval2._Myres  = _BUF_SIZE - 1;

  0003d	c7 46 14 0f 00
	00 00		 mov	 DWORD PTR [esi+20], 15	; 0000000fH

; 4635 :             // the _Traits::assign is last so the codegen doesn't think the char write can alias this
; 4636 :             _Traits::assign(_Mypair._Myval2._Bx._Buf[0], _Elem());

  00044	c6 06 00	 mov	 BYTE PTR [esi], 0
  00047	5e		 pop	 esi
; File C:\Program Files (x86)\Microsoft Visual Studio\2019\Professional\VC\Tools\MSVC\14.29.30133\include\xmemory

; 725  :     }

  00048	5d		 pop	 ebp
  00049	c3		 ret	 0
$LN28@destroy:

; 172  :     _STL_VERIFY(_Back_shift >= _Min_back_shift && _Back_shift <= _Non_user_size, "invalid argument");

  0004a	e8 00 00 00 00	 call	 __invalid_parameter_noinfo_noreturn
$LN39@destroy:
  0004f	cc		 int	 3
??$destroy@U?$pair@$$CBV?$basic_string@DU?$char_traits@D@std@@V?$allocator@D@2@@std@@PAVCEterPack@@@std@@@?$_Default_allocator_traits@V?$allocator@U?$ptr_node@U?$pair@$$CBV?$basic_string@DU?$char_traits@D@std@@V?$allocator@D@2@@std@@PAVCEterPack@@@std@@@detail@unordered@boost@@@std@@@std@@SAXAAV?$allocator@U?$ptr_node@U?$pair@$$CBV?$basic_string@DU?$char_traits@D@std@@V?$allocator@D@2@@std@@PAVCEterPack@@@std@@@detail@unordered@boost@@@1@QAU?$pair@$$CBV?$basic_string@DU?$char_traits@D@std@@V?$allocator@D@2@@std@@PAVCEterPack@@@1@@Z ENDP ; std::_Default_allocator_traits<std::allocator<boost::unordered::detail::ptr_node<std::pair<std::basic_string<char,std::char_traits<char>,std::allocator<char> > const ,CEterPack *> > > >::destroy<std::pair<std::basic_string<char,std::char_traits<char>,std::allocator<char> > const ,CEterPack *> >
_TEXT	ENDS
; Function compile flags: /Ogtp
; File C:\Users\murat\Desktop\Siveps2-1-99-Project\source\client\extern\include\boost\unordered\detail\implementation.hpp
; File C:\Program Files (x86)\Microsoft Visual Studio\2019\Professional\VC\Tools\MSVC\14.29.30133\include\xstring
; File C:\Users\murat\Desktop\Siveps2-1-99-Project\source\client\extern\include\boost\unordered\detail\implementation.hpp
;	COMDAT ??$find_node_impl@V?$basic_string@DU?$char_traits@D@std@@V?$allocator@D@2@@std@@U?$equal_to@V?$basic_string@DU?$char_traits@D@std@@V?$allocator@D@2@@std@@@2@@?$table@U?$map@V?$allocator@U?$pair@$$CBV?$basic_string@DU?$char_traits@D@std@@V?$allocator@D@2@@std@@PAVCEterPack@@@std@@@std@@V?$basic_string@DU?$char_traits@D@std@@V?$allocator@D@2@@2@PAVCEterPack@@Ustringhash@@U?$equal_to@V?$basic_string@DU?$char_traits@D@std@@V?$allocator@D@2@@std@@@2@@detail@unordered@boost@@@detail@unordered@boost@@QBEPAU?$ptr_node@U?$pair@$$CBV?$basic_string@DU?$char_traits@D@std@@V?$allocator@D@2@@std@@PAVCEterPack@@@std@@@123@IABV?$basic_string@DU?$char_traits@D@std@@V?$allocator@D@2@@std@@ABU?$equal_to@V?$basic_string@DU?$char_traits@D@std@@V?$allocator@D@2@@std@@@6@@Z
_TEXT	SEGMENT
_bucket_index$1$ = 8					; size = 4
_key_hash$ = 8						; size = 4
_k$ = 12						; size = 4
_eq$ = 16						; size = 4
??$find_node_impl@V?$basic_string@DU?$char_traits@D@std@@V?$allocator@D@2@@std@@U?$equal_to@V?$basic_string@DU?$char_traits@D@std@@V?$allocator@D@2@@std@@@2@@?$table@U?$map@V?$allocator@U?$pair@$$CBV?$basic_string@DU?$char_traits@D@std@@V?$allocator@D@2@@std@@PAVCEterPack@@@std@@@std@@V?$basic_string@DU?$char_traits@D@std@@V?$allocator@D@2@@2@PAVCEterPack@@Ustringhash@@U?$equal_to@V?$basic_string@DU?$char_traits@D@std@@V?$allocator@D@2@@std@@@2@@detail@unordered@boost@@@detail@unordered@boost@@QBEPAU?$ptr_node@U?$pair@$$CBV?$basic_string@DU?$char_traits@D@std@@V?$allocator@D@2@@std@@PAVCEterPack@@@std@@@123@IABV?$basic_string@DU?$char_traits@D@std@@V?$allocator@D@2@@std@@ABU?$equal_to@V?$basic_string@DU?$char_traits@D@std@@V?$allocator@D@2@@std@@@6@@Z PROC ; boost::unordered::detail::table<boost::unordered::detail::map<std::allocator<std::pair<std::basic_string<char,std::char_traits<char>,std::allocator<char> > const ,CEterPack *> >,std::basic_string<char,std::char_traits<char>,std::allocator<char> >,CEterPack *,stringhash,std::equal_to<std::basic_string<char,std::char_traits<char>,std::allocator<char> > > > >::find_node_impl<std::basic_string<char,std::char_traits<char>,std::allocator<char> >,std::equal_to<std::basic_string<char,std::char_traits<char>,std::allocator<char> > > >, COMDAT
; _this$ = ecx

; 3587 :         {

  00000	55		 push	 ebp
  00001	8b ec		 mov	 ebp, esp

; 2604 :           return hash % bucket_count;

  00003	8b 45 08	 mov	 eax, DWORD PTR _key_hash$[ebp]
  00006	33 d2		 xor	 edx, edx
  00008	f7 71 04	 div	 DWORD PTR [ecx+4]

; 3046 :           if (!size_)

  0000b	83 79 08 00	 cmp	 DWORD PTR [ecx+8], 0

; 3587 :         {

  0000f	53		 push	 ebx
  00010	56		 push	 esi
  00011	57		 push	 edi

; 3588 :           std::size_t bucket_index = this->hash_to_bucket(key_hash);

  00012	89 55 08	 mov	 DWORD PTR _bucket_index$1$[ebp], edx

; 3046 :           if (!size_)

  00015	0f 84 c8 00 00
	00		 je	 $LN17@find_node_

; 3036 :           return get_bucket_pointer(bucket_index)->next_;

  0001b	8b 41 14	 mov	 eax, DWORD PTR [ecx+20]
  0001e	8b 04 90	 mov	 eax, DWORD PTR [eax+edx*4]

; 3049 :           return prev ? next_node(prev) : node_pointer();

  00021	85 c0		 test	 eax, eax
  00023	0f 84 ba 00 00
	00		 je	 $LN17@find_node_
  00029	8b 00		 mov	 eax, DWORD PTR [eax]

; 3589 :           node_pointer n = this->begin(bucket_index);
; 3590 : 
; 3591 :           for (;;) {
; 3592 :             if (!n)

  0002b	85 c0		 test	 eax, eax
  0002d	0f 84 b2 00 00
	00		 je	 $LN3@find_node_
; File C:\Program Files (x86)\Microsoft Visual Studio\2019\Professional\VC\Tools\MSVC\14.29.30133\include\xstring

; 2319 :         return _BUF_SIZE <= _Myres;

  00033	8b 5d 0c	 mov	 ebx, DWORD PTR _k$[ebp]

; 4372 :         return _Traits_equal<_Traits>(_Mypair._Myval2._Myptr(), _Mypair._Myval2._Mysize,

  00036	8b 7b 10	 mov	 edi, DWORD PTR [ebx+16]
  00039	0f 1f 80 00 00
	00 00		 npad	 7
$LL2@find_node_:

; 2319 :         return _BUF_SIZE <= _Myres;

  00040	83 78 1c 10	 cmp	 DWORD PTR [eax+28], 16	; 00000010H

; 2305 :         const value_type* _Result = _Bx._Buf;

  00044	8d 70 08	 lea	 esi, DWORD PTR [eax+8]

; 2306 :         if (_Large_string_engaged()) {

  00047	72 03		 jb	 SHORT $LN30@find_node_

; 2307 :             _Result = _Unfancy(_Bx._Ptr);

  00049	8b 70 08	 mov	 esi, DWORD PTR [eax+8]
$LN30@find_node_:

; 2319 :         return _BUF_SIZE <= _Myres;

  0004c	83 7b 14 10	 cmp	 DWORD PTR [ebx+20], 16	; 00000010H

; 2305 :         const value_type* _Result = _Bx._Buf;

  00050	8b d3		 mov	 edx, ebx

; 2306 :         if (_Large_string_engaged()) {

  00052	72 02		 jb	 SHORT $LN35@find_node_

; 2307 :             _Result = _Unfancy(_Bx._Ptr);

  00054	8b 13		 mov	 edx, DWORD PTR [ebx]
$LN35@find_node_:

; 583  :     return _Left_size == _Right_size && _Traits::compare(_Left, _Right, _Left_size) == 0;

  00056	3b 78 18	 cmp	 edi, DWORD PTR [eax+24]
  00059	75 58		 jne	 SHORT $LN41@find_node_

; 392  :         return _CSTD memcmp(_First1, _First2, _Count);

  0005b	83 ef 04	 sub	 edi, 4
  0005e	72 11		 jb	 SHORT $LN72@find_node_
$LL73@find_node_:
  00060	8b 0a		 mov	 ecx, DWORD PTR [edx]
  00062	3b 0e		 cmp	 ecx, DWORD PTR [esi]
  00064	75 10		 jne	 SHORT $LN71@find_node_
  00066	83 c2 04	 add	 edx, 4
  00069	83 c6 04	 add	 esi, 4
  0006c	83 ef 04	 sub	 edi, 4
  0006f	73 ef		 jae	 SHORT $LL73@find_node_
$LN72@find_node_:
  00071	83 ff fc	 cmp	 edi, -4			; fffffffcH
  00074	74 34		 je	 SHORT $LN70@find_node_
$LN71@find_node_:
  00076	8a 0a		 mov	 cl, BYTE PTR [edx]
  00078	3a 0e		 cmp	 cl, BYTE PTR [esi]
  0007a	75 27		 jne	 SHORT $LN74@find_node_
  0007c	83 ff fd	 cmp	 edi, -3			; fffffffdH
  0007f	74 29		 je	 SHORT $LN70@find_node_
  00081	8a 4a 01	 mov	 cl, BYTE PTR [edx+1]
  00084	3a 4e 01	 cmp	 cl, BYTE PTR [esi+1]
  00087	75 1a		 jne	 SHORT $LN74@find_node_
  00089	83 ff fe	 cmp	 edi, -2			; fffffffeH
  0008c	74 1c		 je	 SHORT $LN70@find_node_
  0008e	8a 4a 02	 mov	 cl, BYTE PTR [edx+2]
  00091	3a 4e 02	 cmp	 cl, BYTE PTR [esi+2]
  00094	75 0d		 jne	 SHORT $LN74@find_node_
  00096	83 ff ff	 cmp	 edi, -1
  00099	74 0f		 je	 SHORT $LN70@find_node_
  0009b	8a 4a 03	 mov	 cl, BYTE PTR [edx+3]
  0009e	3a 4e 03	 cmp	 cl, BYTE PTR [esi+3]
  000a1	74 07		 je	 SHORT $LN70@find_node_
$LN74@find_node_:
  000a3	1b c9		 sbb	 ecx, ecx
  000a5	83 c9 01	 or	 ecx, 1
  000a8	eb 02		 jmp	 SHORT $LN75@find_node_
$LN70@find_node_:
  000aa	33 c9		 xor	 ecx, ecx
$LN75@find_node_:

; 583  :     return _Left_size == _Right_size && _Traits::compare(_Left, _Right, _Left_size) == 0;

  000ac	85 c9		 test	 ecx, ecx
  000ae	74 35		 je	 SHORT $LN3@find_node_
  000b0	8b 7b 10	 mov	 edi, DWORD PTR [ebx+16]
$LN41@find_node_:
; File C:\Users\murat\Desktop\Siveps2-1-99-Project\source\client\extern\include\boost\unordered\detail\implementation.hpp

; 4873 :           return bucket_info_ & ((std::size_t)-1 >> 1);

  000b3	8b 48 04	 mov	 ecx, DWORD PTR [eax+4]
  000b6	81 e1 ff ff ff
	7f		 and	 ecx, 2147483647		; 7fffffffH

; 3593 :               return n;
; 3594 : 
; 3595 :             if (eq(k, this->get_key(n))) {
; 3596 :               return n;
; 3597 :             } else if (this->node_bucket(n) != bucket_index) {

  000bc	3b 4d 08	 cmp	 ecx, DWORD PTR _bucket_index$1$[ebp]
  000bf	75 22		 jne	 SHORT $LN17@find_node_
$LL52@find_node_:

; 2971 :             n2 = next_node(n2);

  000c1	8b 00		 mov	 eax, DWORD PTR [eax]

; 2972 :           } while (n2 && !n2->is_first_in_group());

  000c3	85 c0		 test	 eax, eax
  000c5	74 1e		 je	 SHORT $LN3@find_node_

; 4878 :           return !(bucket_info_ & ~((std::size_t)-1 >> 1));

  000c7	8b 48 04	 mov	 ecx, DWORD PTR [eax+4]
  000ca	c1 e9 1f	 shr	 ecx, 31			; 0000001fH
  000cd	f7 d1		 not	 ecx
  000cf	f6 c1 01	 test	 cl, 1

; 2972 :           } while (n2 && !n2->is_first_in_group());

  000d2	74 ed		 je	 SHORT $LL52@find_node_

; 3589 :           node_pointer n = this->begin(bucket_index);
; 3590 : 
; 3591 :           for (;;) {
; 3592 :             if (!n)

  000d4	85 c0		 test	 eax, eax
  000d6	0f 85 64 ff ff
	ff		 jne	 $LL2@find_node_

; 3598 :               return node_pointer();
; 3599 :             }
; 3600 : 
; 3601 :             n = next_for_find(n);
; 3602 :           }
; 3603 :         }

  000dc	5f		 pop	 edi
  000dd	5e		 pop	 esi
  000de	5b		 pop	 ebx
  000df	5d		 pop	 ebp
  000e0	c2 0c 00	 ret	 12			; 0000000cH
$LN17@find_node_:
  000e3	33 c0		 xor	 eax, eax
$LN3@find_node_:
  000e5	5f		 pop	 edi
  000e6	5e		 pop	 esi
  000e7	5b		 pop	 ebx
  000e8	5d		 pop	 ebp
  000e9	c2 0c 00	 ret	 12			; 0000000cH
??$find_node_impl@V?$basic_string@DU?$char_traits@D@std@@V?$allocator@D@2@@std@@U?$equal_to@V?$basic_string@DU?$char_traits@D@std@@V?$allocator@D@2@@std@@@2@@?$table@U?$map@V?$allocator@U?$pair@$$CBV?$basic_string@DU?$char_traits@D@std@@V?$allocator@D@2@@std@@PAVCEterPack@@@std@@@std@@V?$basic_string@DU?$char_traits@D@std@@V?$allocator@D@2@@2@PAVCEterPack@@Ustringhash@@U?$equal_to@V?$basic_string@DU?$char_traits@D@std@@V?$allocator@D@2@@std@@@2@@detail@unordered@boost@@@detail@unordered@boost@@QBEPAU?$ptr_node@U?$pair@$$CBV?$basic_string@DU?$char_traits@D@std@@V?$allocator@D@2@@std@@PAVCEterPack@@@std@@@123@IABV?$basic_string@DU?$char_traits@D@std@@V?$allocator@D@2@@std@@ABU?$equal_to@V?$basic_string@DU?$char_traits@D@std@@V?$allocator@D@2@@std@@@6@@Z ENDP ; boost::unordered::detail::table<boost::unordered::detail::map<std::allocator<std::pair<std::basic_string<char,std::char_traits<char>,std::allocator<char> > const ,CEterPack *> >,std::basic_string<char,std::char_traits<char>,std::allocator<char> >,CEterPack *,stringhash,std::equal_to<std::basic_string<char,std::char_traits<char>,std::allocator<char> > > > >::find_node_impl<std::basic_string<char,std::char_traits<char>,std::allocator<char> >,std::equal_to<std::basic_string<char,std::char_traits<char>,std::allocator<char> > > >
_TEXT	ENDS
; Function compile flags: /Ogtp
; File C:\Users\murat\Desktop\Siveps2-1-99-Project\source\client\extern\include\boost\unordered\detail\implementation.hpp
; File C:\Program Files (x86)\Microsoft Visual Studio\2019\Professional\VC\Tools\MSVC\14.29.30133\include\xutility
; File C:\Program Files (x86)\Microsoft Visual Studio\2019\Professional\VC\Tools\MSVC\14.29.30133\include\xstddef
; File C:\Program Files (x86)\Microsoft Visual Studio\2019\Professional\VC\Tools\MSVC\14.29.30133\include\xutility
; File C:\Users\murat\Desktop\Siveps2-1-99-Project\source\client\extern\include\boost\unordered\detail\implementation.hpp
;	COMDAT ?new_bucket_count@?$prime_policy@I@detail@unordered@boost@@SAII@Z
_TEXT	SEGMENT
_min$ = 8						; size = 4
?new_bucket_count@?$prime_policy@I@detail@unordered@boost@@SAII@Z PROC ; boost::unordered::detail::prime_policy<unsigned int>::new_bucket_count, COMDAT

; 2608 :         {

  00000	55		 push	 ebp
  00001	8b ec		 mov	 ebp, esp
  00003	56		 push	 esi
  00004	57		 push	 edi
; File C:\Program Files (x86)\Microsoft Visual Studio\2019\Professional\VC\Tools\MSVC\14.29.30133\include\xutility

; 5757 :     _Iter_diff_t<_FwdIt> _Count = _STD distance(_UFirst, _Get_unwrapped(_Last));

  00005	8b 7d 08	 mov	 edi, DWORD PTR _min$[ebp]
  00008	be 00 00 00 00	 mov	 esi, OFFSET ?value@?$prime_list_template@I@detail@unordered@boost@@2QBIB ; boost::unordered::detail::prime_list_template<unsigned int>::value
  0000d	b8 26 00 00 00	 mov	 eax, 38			; 00000026H
$LL9@new_bucket:

; 5760 :         const _Iter_diff_t<_FwdIt> _Count2 = _Count / 2;

  00012	8b d0		 mov	 edx, eax
  00014	d1 ea		 shr	 edx, 1
; File C:\Program Files (x86)\Microsoft Visual Studio\2019\Professional\VC\Tools\MSVC\14.29.30133\include\xstddef

; 240  :         return static_cast<_Ty1&&>(_Left) < static_cast<_Ty2&&>(_Right);

  00016	39 3c 96	 cmp	 DWORD PTR [esi+edx*4], edi
; File C:\Program Files (x86)\Microsoft Visual Studio\2019\Professional\VC\Tools\MSVC\14.29.30133\include\xutility

; 1561 :         _Where += _Off;

  00019	8d 0c 96	 lea	 ecx, DWORD PTR [esi+edx*4]

; 5762 :         if (_Pred(*_UMid, _Val)) { // try top half

  0001c	73 0c		 jae	 SHORT $LN11@new_bucket

; 5763 :             _UFirst = _Next_iter(_UMid);

  0001e	8d 71 04	 lea	 esi, DWORD PTR [ecx+4]

; 5764 :             _Count -= _Count2 + 1;

  00021	83 c9 ff	 or	 ecx, -1
  00024	2b ca		 sub	 ecx, edx
  00026	03 c1		 add	 eax, ecx

; 5765 :         } else {

  00028	eb 02		 jmp	 SHORT $LN12@new_bucket
$LN11@new_bucket:

; 5766 :             _Count = _Count2;

  0002a	8b c2		 mov	 eax, edx
$LN12@new_bucket:

; 5758 : 
; 5759 :     while (0 < _Count) { // divide and conquer, find half that contains answer

  0002c	85 c0		 test	 eax, eax
  0002e	7f e2		 jg	 SHORT $LL9@new_bucket
; File C:\Users\murat\Desktop\Siveps2-1-99-Project\source\client\extern\include\boost\unordered\detail\implementation.hpp

; 2609 :           return boost::unordered::detail::next_prime(min);

  00030	81 fe 98 00 00
	00		 cmp	 esi, OFFSET ?value@?$prime_list_template@I@detail@unordered@boost@@2QBIB+152
  00036	8d 46 fc	 lea	 eax, DWORD PTR [esi-4]
  00039	5f		 pop	 edi
  0003a	0f 45 c6	 cmovne	 eax, esi
  0003d	5e		 pop	 esi
  0003e	8b 00		 mov	 eax, DWORD PTR [eax]

; 2610 :         }

  00040	5d		 pop	 ebp
  00041	c3		 ret	 0
?new_bucket_count@?$prime_policy@I@detail@unordered@boost@@SAII@Z ENDP ; boost::unordered::detail::prime_policy<unsigned int>::new_bucket_count
_TEXT	ENDS
; Function compile flags: /Ogtp
; File C:\Users\murat\Desktop\Siveps2-1-99-Project\source\client\extern\include\boost\unordered\detail\implementation.hpp
; File C:\Program Files (x86)\Microsoft Visual Studio\2019\Professional\VC\Tools\MSVC\14.29.30133\include\xstddef
; File C:\Users\murat\Desktop\Siveps2-1-99-Project\source\client\extern\include\boost\unordered\detail\implementation.hpp
;	COMDAT ??$find_node_impl@KU?$equal_to@K@std@@@?$table@U?$map@V?$allocator@U?$pair@$$CBKUSCache@CEterPackManager@@@std@@@std@@KUSCache@CEterPackManager@@U?$hash@K@boost@@U?$equal_to@K@2@@detail@unordered@boost@@@detail@unordered@boost@@QBEPAU?$ptr_node@U?$pair@$$CBKUSCache@CEterPackManager@@@std@@@123@IABKABU?$equal_to@K@std@@@Z
_TEXT	SEGMENT
_key_hash$ = 8						; size = 4
_k$ = 12						; size = 4
_eq$ = 16						; size = 4
??$find_node_impl@KU?$equal_to@K@std@@@?$table@U?$map@V?$allocator@U?$pair@$$CBKUSCache@CEterPackManager@@@std@@@std@@KUSCache@CEterPackManager@@U?$hash@K@boost@@U?$equal_to@K@2@@detail@unordered@boost@@@detail@unordered@boost@@QBEPAU?$ptr_node@U?$pair@$$CBKUSCache@CEterPackManager@@@std@@@123@IABKABU?$equal_to@K@std@@@Z PROC ; boost::unordered::detail::table<boost::unordered::detail::map<std::allocator<std::pair<unsigned long const ,CEterPackManager::SCache> >,unsigned long,CEterPackManager::SCache,boost::hash<unsigned long>,std::equal_to<unsigned long> > >::find_node_impl<unsigned long,std::equal_to<unsigned long> >, COMDAT
; _this$ = ecx

; 3587 :         {

  00000	55		 push	 ebp
  00001	8b ec		 mov	 ebp, esp

; 2604 :           return hash % bucket_count;

  00003	8b 45 08	 mov	 eax, DWORD PTR _key_hash$[ebp]
  00006	33 d2		 xor	 edx, edx
  00008	f7 71 04	 div	 DWORD PTR [ecx+4]

; 3046 :           if (!size_)

  0000b	83 79 08 00	 cmp	 DWORD PTR [ecx+8], 0

; 3587 :         {

  0000f	56		 push	 esi

; 3588 :           std::size_t bucket_index = this->hash_to_bucket(key_hash);

  00010	8b f2		 mov	 esi, edx

; 3046 :           if (!size_)

  00012	74 4a		 je	 SHORT $LN17@find_node_

; 3036 :           return get_bucket_pointer(bucket_index)->next_;

  00014	8b 41 14	 mov	 eax, DWORD PTR [ecx+20]
  00017	8b 04 b0	 mov	 eax, DWORD PTR [eax+esi*4]

; 3049 :           return prev ? next_node(prev) : node_pointer();

  0001a	85 c0		 test	 eax, eax
  0001c	74 40		 je	 SHORT $LN17@find_node_
  0001e	8b 00		 mov	 eax, DWORD PTR [eax]

; 3589 :           node_pointer n = this->begin(bucket_index);
; 3590 : 
; 3591 :           for (;;) {
; 3592 :             if (!n)

  00020	85 c0		 test	 eax, eax
  00022	74 3c		 je	 SHORT $LN3@find_node_
; File C:\Program Files (x86)\Microsoft Visual Studio\2019\Professional\VC\Tools\MSVC\14.29.30133\include\xstddef

; 91   :         return _Left == _Right;

  00024	8b 4d 0c	 mov	 ecx, DWORD PTR _k$[ebp]
  00027	8b 11		 mov	 edx, DWORD PTR [ecx]
  00029	0f 1f 80 00 00
	00 00		 npad	 7
$LL2@find_node_:
  00030	3b 50 08	 cmp	 edx, DWORD PTR [eax+8]
; File C:\Users\murat\Desktop\Siveps2-1-99-Project\source\client\extern\include\boost\unordered\detail\implementation.hpp

; 3595 :             if (eq(k, this->get_key(n))) {

  00033	74 2b		 je	 SHORT $LN3@find_node_

; 4873 :           return bucket_info_ & ((std::size_t)-1 >> 1);

  00035	8b 48 04	 mov	 ecx, DWORD PTR [eax+4]
  00038	81 e1 ff ff ff
	7f		 and	 ecx, 2147483647		; 7fffffffH

; 3596 :               return n;
; 3597 :             } else if (this->node_bucket(n) != bucket_index) {

  0003e	3b ce		 cmp	 ecx, esi
  00040	75 1c		 jne	 SHORT $LN17@find_node_
$LL32@find_node_:

; 2971 :             n2 = next_node(n2);

  00042	8b 00		 mov	 eax, DWORD PTR [eax]

; 2972 :           } while (n2 && !n2->is_first_in_group());

  00044	85 c0		 test	 eax, eax
  00046	74 18		 je	 SHORT $LN3@find_node_

; 4878 :           return !(bucket_info_ & ~((std::size_t)-1 >> 1));

  00048	8b 48 04	 mov	 ecx, DWORD PTR [eax+4]
  0004b	c1 e9 1f	 shr	 ecx, 31			; 0000001fH
  0004e	f7 d1		 not	 ecx
  00050	f6 c1 01	 test	 cl, 1

; 2972 :           } while (n2 && !n2->is_first_in_group());

  00053	74 ed		 je	 SHORT $LL32@find_node_

; 3589 :           node_pointer n = this->begin(bucket_index);
; 3590 : 
; 3591 :           for (;;) {
; 3592 :             if (!n)

  00055	85 c0		 test	 eax, eax
  00057	75 d7		 jne	 SHORT $LL2@find_node_
  00059	5e		 pop	 esi

; 3598 :               return node_pointer();
; 3599 :             }
; 3600 : 
; 3601 :             n = next_for_find(n);
; 3602 :           }
; 3603 :         }

  0005a	5d		 pop	 ebp
  0005b	c2 0c 00	 ret	 12			; 0000000cH
$LN17@find_node_:
  0005e	33 c0		 xor	 eax, eax
$LN3@find_node_:
  00060	5e		 pop	 esi
  00061	5d		 pop	 ebp
  00062	c2 0c 00	 ret	 12			; 0000000cH
??$find_node_impl@KU?$equal_to@K@std@@@?$table@U?$map@V?$allocator@U?$pair@$$CBKUSCache@CEterPackManager@@@std@@@std@@KUSCache@CEterPackManager@@U?$hash@K@boost@@U?$equal_to@K@2@@detail@unordered@boost@@@detail@unordered@boost@@QBEPAU?$ptr_node@U?$pair@$$CBKUSCache@CEterPackManager@@@std@@@123@IABKABU?$equal_to@K@std@@@Z ENDP ; boost::unordered::detail::table<boost::unordered::detail::map<std::allocator<std::pair<unsigned long const ,CEterPackManager::SCache> >,unsigned long,CEterPackManager::SCache,boost::hash<unsigned long>,std::equal_to<unsigned long> > >::find_node_impl<unsigned long,std::equal_to<unsigned long> >
_TEXT	ENDS
; Function compile flags: /Ogtp
; File C:\Program Files (x86)\Microsoft Visual Studio\2019\Professional\VC\Tools\MSVC\14.29.30133\include\xmemory
;	COMDAT ??$_Allocate_manually_vector_aligned@U_Default_allocate_traits@std@@@std@@YAPAXI@Z
_TEXT	SEGMENT
__Bytes$ = 8						; size = 4
??$_Allocate_manually_vector_aligned@U_Default_allocate_traits@std@@@std@@YAPAXI@Z PROC ; std::_Allocate_manually_vector_aligned<std::_Default_allocate_traits>, COMDAT

; 134  : __declspec(allocator) void* _Allocate_manually_vector_aligned(const size_t _Bytes) {

  00000	55		 push	 ebp
  00001	8b ec		 mov	 ebp, esp

; 135  :     // allocate _Bytes manually aligned to at least _Big_allocation_alignment
; 136  :     const size_t _Block_size = _Non_user_size + _Bytes;

  00003	8b 45 08	 mov	 eax, DWORD PTR __Bytes$[ebp]
  00006	8d 48 23	 lea	 ecx, DWORD PTR [eax+35]

; 137  :     if (_Block_size <= _Bytes) {

  00009	3b c8		 cmp	 ecx, eax
  0000b	0f 86 00 00 00
	00		 jbe	 ?_Throw_bad_array_new_length@std@@YAXXZ ; std::_Throw_bad_array_new_length

; 85   :         return ::operator new(_Bytes);

  00011	51		 push	 ecx
  00012	e8 00 00 00 00	 call	 ??2@YAPAXI@Z		; operator new

; 138  :         _Throw_bad_array_new_length(); // add overflow
; 139  :     }
; 140  : 
; 141  :     const uintptr_t _Ptr_container = reinterpret_cast<uintptr_t>(_Traits::_Allocate(_Block_size));

  00017	8b c8		 mov	 ecx, eax

; 85   :         return ::operator new(_Bytes);

  00019	83 c4 04	 add	 esp, 4

; 142  :     _STL_VERIFY(_Ptr_container != 0, "invalid argument"); // validate even in release since we're doing p[-1]

  0001c	85 c9		 test	 ecx, ecx
  0001e	74 0b		 je	 SHORT $LN7@Allocate_m

; 143  :     void* const _Ptr = reinterpret_cast<void*>((_Ptr_container + _Non_user_size) & ~(_Big_allocation_alignment - 1));

  00020	8d 41 23	 lea	 eax, DWORD PTR [ecx+35]
  00023	83 e0 e0	 and	 eax, -32		; ffffffe0H

; 144  :     static_cast<uintptr_t*>(_Ptr)[-1] = _Ptr_container;

  00026	89 48 fc	 mov	 DWORD PTR [eax-4], ecx

; 145  : 
; 146  : #ifdef _DEBUG
; 147  :     static_cast<uintptr_t*>(_Ptr)[-2] = _Big_allocation_sentinel;
; 148  : #endif // _DEBUG
; 149  :     return _Ptr;
; 150  : }

  00029	5d		 pop	 ebp
  0002a	c3		 ret	 0
$LN7@Allocate_m:

; 142  :     _STL_VERIFY(_Ptr_container != 0, "invalid argument"); // validate even in release since we're doing p[-1]

  0002b	e9 00 00 00 00	 jmp	 __invalid_parameter_noinfo_noreturn
??$_Allocate_manually_vector_aligned@U_Default_allocate_traits@std@@@std@@YAPAXI@Z ENDP ; std::_Allocate_manually_vector_aligned<std::_Default_allocate_traits>
_TEXT	ENDS
; Function compile flags: /Ogtp
; File C:\Program Files (x86)\Microsoft Visual Studio\2019\Professional\VC\Tools\MSVC\14.29.30133\include\xmemory
;	COMDAT ??1?$_Alloc_construct_ptr@V?$allocator@U?$_List_node@PAVCEterPack@@PAX@std@@@std@@@std@@QAE@XZ
_TEXT	SEGMENT
??1?$_Alloc_construct_ptr@V?$allocator@U?$_List_node@PAVCEterPack@@PAX@std@@@std@@@std@@QAE@XZ PROC ; std::_Alloc_construct_ptr<std::allocator<std::_List_node<CEterPack *,void *> > >::~_Alloc_construct_ptr<std::allocator<std::_List_node<CEterPack *,void *> > >, COMDAT
; _this$ = ecx

; 1024 :         if (_Ptr) {

  00000	8b 41 04	 mov	 eax, DWORD PTR [ecx+4]
  00003	85 c0		 test	 eax, eax
  00005	74 0b		 je	 SHORT $LN8@Alloc_cons

; 264  :         ::operator delete(_Ptr, _Bytes);

  00007	6a 0c		 push	 12			; 0000000cH
  00009	50		 push	 eax
  0000a	e8 00 00 00 00	 call	 ??3@YAXPAXI@Z		; operator delete
  0000f	83 c4 08	 add	 esp, 8
$LN8@Alloc_cons:

; 1025 :             _Al.deallocate(_Ptr, 1);
; 1026 :         }
; 1027 :     }

  00012	c3		 ret	 0
??1?$_Alloc_construct_ptr@V?$allocator@U?$_List_node@PAVCEterPack@@PAX@std@@@std@@@std@@QAE@XZ ENDP ; std::_Alloc_construct_ptr<std::allocator<std::_List_node<CEterPack *,void *> > >::~_Alloc_construct_ptr<std::allocator<std::_List_node<CEterPack *,void *> > >
_TEXT	ENDS
; Function compile flags: /Ogtp
; File C:\Users\murat\Desktop\Siveps2-1-99-Project\source\client\extern\include\boost\unordered\detail\implementation.hpp
; File C:\Program Files (x86)\Microsoft Visual Studio\2019\Professional\VC\Tools\MSVC\14.29.30133\include\xstring
; File C:\Users\murat\Desktop\Siveps2-1-99-Project\source\client\Client\eterBase\Stl.h
; File C:\Users\murat\Desktop\Siveps2-1-99-Project\source\client\extern\include\boost\unordered\detail\implementation.hpp
; File C:\Program Files (x86)\Microsoft Visual Studio\2019\Professional\VC\Tools\MSVC\14.29.30133\include\utility
; File C:\Users\murat\Desktop\Siveps2-1-99-Project\source\client\extern\include\boost\unordered\detail\implementation.hpp
; File C:\Program Files (x86)\Microsoft Visual Studio\2019\Professional\VC\Tools\MSVC\14.29.30133\include\utility
; File C:\Users\murat\Desktop\Siveps2-1-99-Project\source\client\extern\include\boost\unordered\detail\implementation.hpp
; File C:\Program Files (x86)\Microsoft Visual Studio\2019\Professional\VC\Tools\MSVC\14.29.30133\include\utility
; File C:\Users\murat\Desktop\Siveps2-1-99-Project\source\client\extern\include\boost\unordered\detail\implementation.hpp
; File C:\Program Files (x86)\Microsoft Visual Studio\2019\Professional\VC\Tools\MSVC\14.29.30133\include\utility
; File C:\Users\murat\Desktop\Siveps2-1-99-Project\source\client\extern\include\boost\unordered\detail\implementation.hpp
; File C:\Program Files (x86)\Microsoft Visual Studio\2019\Professional\VC\Tools\MSVC\14.29.30133\include\utility
; File C:\Users\murat\Desktop\Siveps2-1-99-Project\source\client\extern\include\boost\unordered\detail\implementation.hpp
; File C:\Program Files (x86)\Microsoft Visual Studio\2019\Professional\VC\Tools\MSVC\14.29.30133\include\utility
; File C:\Users\murat\Desktop\Siveps2-1-99-Project\source\client\extern\include\boost\unordered\detail\implementation.hpp
; File C:\Program Files (x86)\Microsoft Visual Studio\2019\Professional\VC\Tools\MSVC\14.29.30133\include\utility
; File C:\Users\murat\Desktop\Siveps2-1-99-Project\source\client\extern\include\boost\unordered\detail\implementation.hpp
; File C:\Program Files (x86)\Microsoft Visual Studio\2019\Professional\VC\Tools\MSVC\14.29.30133\include\utility
; File C:\Users\murat\Desktop\Siveps2-1-99-Project\source\client\extern\include\boost\unordered\detail\implementation.hpp
;	COMDAT ??$emplace_unique@U?$pair@$$CBV?$basic_string@DU?$char_traits@D@std@@V?$allocator@D@2@@std@@PAVCEterPack@@@std@@@?$table@U?$map@V?$allocator@U?$pair@$$CBV?$basic_string@DU?$char_traits@D@std@@V?$allocator@D@2@@std@@PAVCEterPack@@@std@@@std@@V?$basic_string@DU?$char_traits@D@std@@V?$allocator@D@2@@2@PAVCEterPack@@Ustringhash@@U?$equal_to@V?$basic_string@DU?$char_traits@D@std@@V?$allocator@D@2@@std@@@2@@detail@unordered@boost@@@detail@unordered@boost@@QAE?AU?$pair@U?$iterator@U?$ptr_node@U?$pair@$$CBV?$basic_string@DU?$char_traits@D@std@@V?$allocator@D@2@@std@@PAVCEterPack@@@std@@@detail@unordered@boost@@@iterator_detail@unordered@boost@@_N@std@@ABV?$basic_string@DU?$char_traits@D@std@@V?$allocator@D@2@@5@$$QAU?$pair@$$CBV?$basic_string@DU?$char_traits@D@std@@V?$allocator@D@2@@std@@PAVCEterPack@@@5@@Z
_TEXT	SEGMENT
_b$2 = -28						; size = 8
_a$3 = -28						; size = 8
_this$1$ = -20						; size = 4
__$EHRec$ = -12						; size = 12
___$ReturnUdt$ = 8					; size = 4
_h$1$ = 12						; size = 4
_k$ = 12						; size = 4
_<args_0>$ = 16						; size = 4
??$emplace_unique@U?$pair@$$CBV?$basic_string@DU?$char_traits@D@std@@V?$allocator@D@2@@std@@PAVCEterPack@@@std@@@?$table@U?$map@V?$allocator@U?$pair@$$CBV?$basic_string@DU?$char_traits@D@std@@V?$allocator@D@2@@std@@PAVCEterPack@@@std@@@std@@V?$basic_string@DU?$char_traits@D@std@@V?$allocator@D@2@@2@PAVCEterPack@@Ustringhash@@U?$equal_to@V?$basic_string@DU?$char_traits@D@std@@V?$allocator@D@2@@std@@@2@@detail@unordered@boost@@@detail@unordered@boost@@QAE?AU?$pair@U?$iterator@U?$ptr_node@U?$pair@$$CBV?$basic_string@DU?$char_traits@D@std@@V?$allocator@D@2@@std@@PAVCEterPack@@@std@@@detail@unordered@boost@@@iterator_detail@unordered@boost@@_N@std@@ABV?$basic_string@DU?$char_traits@D@std@@V?$allocator@D@2@@5@$$QAU?$pair@$$CBV?$basic_string@DU?$char_traits@D@std@@V?$allocator@D@2@@std@@PAVCEterPack@@@5@@Z PROC ; boost::unordered::detail::table<boost::unordered::detail::map<std::allocator<std::pair<std::basic_string<char,std::char_traits<char>,std::allocator<char> > const ,CEterPack *> >,std::basic_string<char,std::char_traits<char>,std::allocator<char> >,CEterPack *,stringhash,std::equal_to<std::basic_string<char,std::char_traits<char>,std::allocator<char> > > > >::emplace_unique<std::pair<std::basic_string<char,std::char_traits<char>,std::allocator<char> > const ,CEterPack *> >, COMDAT
; _this$ = ecx

; 3735 :         {

  00000	55		 push	 ebp
  00001	8b ec		 mov	 ebp, esp
  00003	6a ff		 push	 -1
  00005	68 00 00 00 00	 push	 __ehhandler$??$emplace_unique@U?$pair@$$CBV?$basic_string@DU?$char_traits@D@std@@V?$allocator@D@2@@std@@PAVCEterPack@@@std@@@?$table@U?$map@V?$allocator@U?$pair@$$CBV?$basic_string@DU?$char_traits@D@std@@V?$allocator@D@2@@std@@PAVCEterPack@@@std@@@std@@V?$basic_string@DU?$char_traits@D@std@@V?$allocator@D@2@@2@PAVCEterPack@@Ustringhash@@U?$equal_to@V?$basic_string@DU?$char_traits@D@std@@V?$allocator@D@2@@std@@@2@@detail@unordered@boost@@@detail@unordered@boost@@QAE?AU?$pair@U?$iterator@U?$ptr_node@U?$pair@$$CBV?$basic_string@DU?$char_traits@D@std@@V?$allocator@D@2@@std@@PAVCEterPack@@@std@@@detail@unordered@boost@@@iterator_detail@unordered@boost@@_N@std@@ABV?$basic_string@DU?$char_traits@D@std@@V?$allocator@D@2@@5@$$QAU?$pair@$$CBV?$basic_string@DU?$char_traits@D@std@@V?$allocator@D@2@@std@@PAVCEterPack@@@5@@Z
  0000a	64 a1 00 00 00
	00		 mov	 eax, DWORD PTR fs:0
  00010	50		 push	 eax
  00011	83 ec 10	 sub	 esp, 16			; 00000010H
  00014	53		 push	 ebx
  00015	56		 push	 esi
  00016	57		 push	 edi
  00017	a1 00 00 00 00	 mov	 eax, DWORD PTR ___security_cookie
  0001c	33 c5		 xor	 eax, ebp
  0001e	50		 push	 eax
  0001f	8d 45 f4	 lea	 eax, DWORD PTR __$EHRec$[ebp]
  00022	64 a3 00 00 00
	00		 mov	 DWORD PTR fs:0, eax
  00028	8b f1		 mov	 esi, ecx
  0002a	89 75 ec	 mov	 DWORD PTR _this$1$[ebp], esi
; File C:\Program Files (x86)\Microsoft Visual Studio\2019\Professional\VC\Tools\MSVC\14.29.30133\include\xstring

; 2305 :         const value_type* _Result = _Bx._Buf;

  0002d	8b 7d 0c	 mov	 edi, DWORD PTR _k$[ebp]
  00030	8b d7		 mov	 edx, edi

; 2306 :         if (_Large_string_engaged()) {

  00032	83 7f 14 10	 cmp	 DWORD PTR [edi+20], 16	; 00000010H
  00036	72 02		 jb	 SHORT $LN22@emplace_un

; 2307 :             _Result = _Unfancy(_Bx._Ptr);

  00038	8b 17		 mov	 edx, DWORD PTR [edi]
$LN22@emplace_un:
; File C:\Users\murat\Desktop\Siveps2-1-99-Project\source\client\Client\eterBase\Stl.h

; 478  :        const unsigned char * end = s + str.size();

  0003a	8b 4f 10	 mov	 ecx, DWORD PTR [edi+16]

; 479  :        size_t h = 0;

  0003d	33 db		 xor	 ebx, ebx
  0003f	03 ca		 add	 ecx, edx
  00041	89 5d 0c	 mov	 DWORD PTR _h$1$[ebp], ebx

; 480  : 
; 481  :        while (s < end)

  00044	3b d1		 cmp	 edx, ecx
  00046	73 1b		 jae	 SHORT $LN17@emplace_un
  00048	0f 1f 84 00 00
	00 00 00	 npad	 8
$LL112@emplace_un:

; 482  :        {
; 483  :            h *= 16777619;
; 484  :            h ^= (unsigned char) *(unsigned char *) (s++);

  00050	0f b6 02	 movzx	 eax, BYTE PTR [edx]
  00053	42		 inc	 edx
  00054	69 db 93 01 00
	01		 imul	 ebx, ebx, 16777619
  0005a	33 d8		 xor	 ebx, eax
  0005c	3b d1		 cmp	 edx, ecx
  0005e	72 f0		 jb	 SHORT $LL112@emplace_un
  00060	89 5d 0c	 mov	 DWORD PTR _h$1$[ebp], ebx
$LN17@emplace_un:
; File C:\Users\murat\Desktop\Siveps2-1-99-Project\source\client\extern\include\boost\unordered\detail\implementation.hpp

; 2791 :           return *static_cast<function_pair const*>(

  00063	0f b6 06	 movzx	 eax, BYTE PTR [esi]
  00066	8d 4e 01	 lea	 ecx, DWORD PTR [esi+1]
  00069	83 e0 01	 and	 eax, 1
  0006c	03 c8		 add	 ecx, eax

; 3576 :           return this->find_node_impl(key_hash, k, this->key_eq());

  0006e	8d 41 01	 lea	 eax, DWORD PTR [ecx+1]
  00071	f7 d9		 neg	 ecx
  00073	1b c9		 sbb	 ecx, ecx
  00075	23 c8		 and	 ecx, eax
  00077	51		 push	 ecx
  00078	57		 push	 edi
  00079	53		 push	 ebx
  0007a	8b ce		 mov	 ecx, esi
  0007c	e8 00 00 00 00	 call	 ??$find_node_impl@V?$basic_string@DU?$char_traits@D@std@@V?$allocator@D@2@@std@@U?$equal_to@V?$basic_string@DU?$char_traits@D@std@@V?$allocator@D@2@@std@@@2@@?$table@U?$map@V?$allocator@U?$pair@$$CBV?$basic_string@DU?$char_traits@D@std@@V?$allocator@D@2@@std@@PAVCEterPack@@@std@@@std@@V?$basic_string@DU?$char_traits@D@std@@V?$allocator@D@2@@2@PAVCEterPack@@Ustringhash@@U?$equal_to@V?$basic_string@DU?$char_traits@D@std@@V?$allocator@D@2@@std@@@2@@detail@unordered@boost@@@detail@unordered@boost@@QBEPAU?$ptr_node@U?$pair@$$CBV?$basic_string@DU?$char_traits@D@std@@V?$allocator@D@2@@std@@PAVCEterPack@@@std@@@123@IABV?$basic_string@DU?$char_traits@D@std@@V?$allocator@D@2@@std@@ABU?$equal_to@V?$basic_string@DU?$char_traits@D@std@@V?$allocator@D@2@@std@@@6@@Z ; boost::unordered::detail::table<boost::unordered::detail::map<std::allocator<std::pair<std::basic_string<char,std::char_traits<char>,std::allocator<char> > const ,CEterPack *> >,std::basic_string<char,std::char_traits<char>,std::allocator<char> >,CEterPack *,stringhash,std::equal_to<std::basic_string<char,std::char_traits<char>,std::allocator<char> > > > >::find_node_impl<std::basic_string<char,std::char_traits<char>,std::allocator<char> >,std::equal_to<std::basic_string<char,std::char_traits<char>,std::allocator<char> > > >

; 3736 :           std::size_t key_hash = this->hash(k);
; 3737 :           node_pointer pos = this->find_node(key_hash, k);

  00081	8b c8		 mov	 ecx, eax

; 3738 :           if (pos) {

  00083	85 c9		 test	 ecx, ecx
  00085	74 1d		 je	 SHORT $LN2@emplace_un
; File C:\Program Files (x86)\Microsoft Visual Studio\2019\Professional\VC\Tools\MSVC\14.29.30133\include\utility

; 193  :         : first(_STD forward<_Other1>(_Val1)), second(_STD forward<_Other2>(_Val2)) {}

  00087	8b 45 08	 mov	 eax, DWORD PTR ___$ReturnUdt$[ebp]
  0008a	89 08		 mov	 DWORD PTR [eax], ecx
  0008c	c6 40 04 00	 mov	 BYTE PTR [eax+4], 0
; File C:\Users\murat\Desktop\Siveps2-1-99-Project\source\client\extern\include\boost\unordered\detail\implementation.hpp

; 3748 :         }

  00090	8b 4d f4	 mov	 ecx, DWORD PTR __$EHRec$[ebp]
  00093	64 89 0d 00 00
	00 00		 mov	 DWORD PTR fs:0, ecx
  0009a	59		 pop	 ecx
  0009b	5f		 pop	 edi
  0009c	5e		 pop	 esi
  0009d	5b		 pop	 ebx
  0009e	8b e5		 mov	 esp, ebp
  000a0	5d		 pop	 ebp
  000a1	c2 0c 00	 ret	 12			; 0000000cH
$LN2@emplace_un:

; 3014 :         node_allocator& node_alloc() { return allocators_.second(); }

  000a4	8d 5e 03	 lea	 ebx, DWORD PTR [esi+3]

; 1946 :         node_constructor(node_allocator& n) : alloc_(n), node_() {}

  000a7	c7 45 e8 00 00
	00 00		 mov	 DWORD PTR _a$3[ebp+4], 0
  000ae	8d 43 01	 lea	 eax, DWORD PTR [ebx+1]
  000b1	f7 db		 neg	 ebx
  000b3	1b db		 sbb	 ebx, ebx
  000b5	23 d8		 and	 ebx, eax
  000b7	89 5d e4	 mov	 DWORD PTR _a$3[ebp], ebx

; 2039 :           a.create_node();

  000ba	8d 4d e4	 lea	 ecx, DWORD PTR _a$3[ebp]
  000bd	c7 45 fc 00 00
	00 00		 mov	 DWORD PTR __$EHRec$[ebp+8], 0
  000c4	e8 00 00 00 00	 call	 ?create_node@?$node_constructor@V?$allocator@U?$ptr_node@U?$pair@$$CBV?$basic_string@DU?$char_traits@D@std@@V?$allocator@D@2@@std@@PAVCEterPack@@@std@@@detail@unordered@boost@@@std@@@detail@unordered@boost@@QAEXXZ ; boost::unordered::detail::node_constructor<std::allocator<boost::unordered::detail::ptr_node<std::pair<std::basic_string<char,std::char_traits<char>,std::allocator<char> > const ,CEterPack *> > > >::create_node

; 2040 :           construct_from_args(

  000c9	8b 7d e8	 mov	 edi, DWORD PTR _a$3[ebp+4]
; File C:\Program Files (x86)\Microsoft Visual Studio\2019\Professional\VC\Tools\MSVC\14.29.30133\include\utility

; 213  :     pair(pair&&)      = default;

  000cc	8b 75 10	 mov	 esi, DWORD PTR _<args_0>$[ebp]
  000cf	56		 push	 esi
  000d0	8d 4f 08	 lea	 ecx, DWORD PTR [edi+8]
  000d3	e8 00 00 00 00	 call	 ??0?$basic_string@DU?$char_traits@D@std@@V?$allocator@D@2@@std@@QAE@ABV01@@Z ; std::basic_string<char,std::char_traits<char>,std::allocator<char> >::basic_string<char,std::char_traits<char>,std::allocator<char> >
  000d8	8b 46 18	 mov	 eax, DWORD PTR [esi+24]
; File C:\Users\murat\Desktop\Siveps2-1-99-Project\source\client\extern\include\boost\unordered\detail\implementation.hpp

; 2042 :           return a.release();

  000db	8d 4d e4	 lea	 ecx, DWORD PTR _a$3[ebp]
; File C:\Program Files (x86)\Microsoft Visual Studio\2019\Professional\VC\Tools\MSVC\14.29.30133\include\utility

; 213  :     pair(pair&&)      = default;

  000de	89 47 20	 mov	 DWORD PTR [edi+32], eax
; File C:\Users\murat\Desktop\Siveps2-1-99-Project\source\client\extern\include\boost\unordered\detail\implementation.hpp

; 1957 :           node_ = node_pointer();

  000e1	c7 45 e8 00 00
	00 00		 mov	 DWORD PTR _a$3[ebp+4], 0

; 2042 :           return a.release();

  000e8	e8 00 00 00 00	 call	 ??1?$node_constructor@V?$allocator@U?$ptr_node@U?$pair@$$CBV?$basic_string@DU?$char_traits@D@std@@V?$allocator@D@2@@std@@PAVCEterPack@@@std@@@detail@unordered@boost@@@std@@@detail@unordered@boost@@QAE@XZ ; boost::unordered::detail::node_constructor<std::allocator<boost::unordered::detail::ptr_node<std::pair<std::basic_string<char,std::char_traits<char>,std::allocator<char> > const ,CEterPack *> > > >::~node_constructor<std::allocator<boost::unordered::detail::ptr_node<std::pair<std::basic_string<char,std::char_traits<char>,std::allocator<char> > const ,CEterPack *> > > >

; 1999 :         explicit node_tmp(node_pointer n, NodeAlloc& a) : alloc_(a), node_(n) {}

  000ed	8b f7		 mov	 esi, edi
  000ef	89 5d e4	 mov	 DWORD PTR _b$2[ebp], ebx
  000f2	89 75 e8	 mov	 DWORD PTR _b$2[ebp+4], esi

; 3717 :           this->reserve_for_insert(this->size_ + 1);

  000f5	8b 5d ec	 mov	 ebx, DWORD PTR _this$1$[ebp]
  000f8	c7 45 fc 01 00
	00 00		 mov	 DWORD PTR __$EHRec$[ebp+8], 1

; 4542 :         if (!buckets_) {

  000ff	83 7b 14 00	 cmp	 DWORD PTR [ebx+20], 0

; 3717 :           this->reserve_for_insert(this->size_ + 1);

  00103	8b 43 08	 mov	 eax, DWORD PTR [ebx+8]
  00106	8d 78 01	 lea	 edi, DWORD PTR [eax+1]

; 4542 :         if (!buckets_) {

  00109	75 1a		 jne	 SHORT $LN72@emplace_un

; 4543 :           create_buckets((std::max)(bucket_count_, min_buckets_for_size(size)));

  0010b	57		 push	 edi
  0010c	8b cb		 mov	 ecx, ebx
  0010e	e8 00 00 00 00	 call	 ?min_buckets_for_size@?$table@U?$map@V?$allocator@U?$pair@$$CBV?$basic_string@DU?$char_traits@D@std@@V?$allocator@D@2@@std@@PAVCEterPack@@@std@@@std@@V?$basic_string@DU?$char_traits@D@std@@V?$allocator@D@2@@2@PAVCEterPack@@Ustringhash@@U?$equal_to@V?$basic_string@DU?$char_traits@D@std@@V?$allocator@D@2@@std@@@2@@detail@unordered@boost@@@detail@unordered@boost@@QBEII@Z ; boost::unordered::detail::table<boost::unordered::detail::map<std::allocator<std::pair<std::basic_string<char,std::char_traits<char>,std::allocator<char> > const ,CEterPack *> >,std::basic_string<char,std::char_traits<char>,std::allocator<char> >,CEterPack *,stringhash,std::equal_to<std::basic_string<char,std::char_traits<char>,std::allocator<char> > > > >::min_buckets_for_size
; File C:\Program Files (x86)\Microsoft Visual Studio\2019\Professional\VC\Tools\MSVC\14.29.30133\include\utility

; 44   :     return _Left < _Right ? _Right : _Left;

  00113	8b 4b 04	 mov	 ecx, DWORD PTR [ebx+4]
  00116	3b c8		 cmp	 ecx, eax
  00118	0f 42 c8	 cmovb	 ecx, eax
; File C:\Users\murat\Desktop\Siveps2-1-99-Project\source\client\extern\include\boost\unordered\detail\implementation.hpp

; 4543 :           create_buckets((std::max)(bucket_count_, min_buckets_for_size(size)));

  0011b	51		 push	 ecx
  0011c	8b cb		 mov	 ecx, ebx
  0011e	e8 00 00 00 00	 call	 ?create_buckets@?$table@U?$map@V?$allocator@U?$pair@$$CBV?$basic_string@DU?$char_traits@D@std@@V?$allocator@D@2@@std@@PAVCEterPack@@@std@@@std@@V?$basic_string@DU?$char_traits@D@std@@V?$allocator@D@2@@2@PAVCEterPack@@Ustringhash@@U?$equal_to@V?$basic_string@DU?$char_traits@D@std@@V?$allocator@D@2@@std@@@2@@detail@unordered@boost@@@detail@unordered@boost@@QAEXI@Z ; boost::unordered::detail::table<boost::unordered::detail::map<std::allocator<std::pair<std::basic_string<char,std::char_traits<char>,std::allocator<char> > const ,CEterPack *> >,std::basic_string<char,std::char_traits<char>,std::allocator<char> >,CEterPack *,stringhash,std::equal_to<std::basic_string<char,std::char_traits<char>,std::allocator<char> > > > >::create_buckets
  00123	eb 2d		 jmp	 SHORT $LN75@emplace_un
$LN72@emplace_un:

; 4544 :         } else if (size > max_load_) {

  00125	3b 7b 10	 cmp	 edi, DWORD PTR [ebx+16]
  00128	76 28		 jbe	 SHORT $LN75@emplace_un

; 4545 :           std::size_t num_buckets =

  0012a	8b c8		 mov	 ecx, eax
; File C:\Program Files (x86)\Microsoft Visual Studio\2019\Professional\VC\Tools\MSVC\14.29.30133\include\utility

; 44   :     return _Left < _Right ? _Right : _Left;

  0012c	ba 01 00 00 00	 mov	 edx, 1
; File C:\Users\murat\Desktop\Siveps2-1-99-Project\source\client\extern\include\boost\unordered\detail\implementation.hpp

; 4545 :           std::size_t num_buckets =

  00131	d1 e9		 shr	 ecx, 1
  00133	03 c1		 add	 eax, ecx
; File C:\Program Files (x86)\Microsoft Visual Studio\2019\Professional\VC\Tools\MSVC\14.29.30133\include\utility

; 44   :     return _Left < _Right ? _Right : _Left;

  00135	3b f8		 cmp	 edi, eax
  00137	0f 42 d1	 cmovb	 edx, ecx
; File C:\Users\murat\Desktop\Siveps2-1-99-Project\source\client\extern\include\boost\unordered\detail\implementation.hpp

; 4545 :           std::size_t num_buckets =

  0013a	8b cb		 mov	 ecx, ebx
; File C:\Program Files (x86)\Microsoft Visual Studio\2019\Professional\VC\Tools\MSVC\14.29.30133\include\utility

; 44   :     return _Left < _Right ? _Right : _Left;

  0013c	03 53 08	 add	 edx, DWORD PTR [ebx+8]
; File C:\Users\murat\Desktop\Siveps2-1-99-Project\source\client\extern\include\boost\unordered\detail\implementation.hpp

; 4545 :           std::size_t num_buckets =

  0013f	52		 push	 edx
  00140	e8 00 00 00 00	 call	 ?min_buckets_for_size@?$table@U?$map@V?$allocator@U?$pair@$$CBV?$basic_string@DU?$char_traits@D@std@@V?$allocator@D@2@@std@@PAVCEterPack@@@std@@@std@@V?$basic_string@DU?$char_traits@D@std@@V?$allocator@D@2@@2@PAVCEterPack@@Ustringhash@@U?$equal_to@V?$basic_string@DU?$char_traits@D@std@@V?$allocator@D@2@@std@@@2@@detail@unordered@boost@@@detail@unordered@boost@@QBEII@Z ; boost::unordered::detail::table<boost::unordered::detail::map<std::allocator<std::pair<std::basic_string<char,std::char_traits<char>,std::allocator<char> > const ,CEterPack *> >,std::basic_string<char,std::char_traits<char>,std::allocator<char> >,CEterPack *,stringhash,std::equal_to<std::basic_string<char,std::char_traits<char>,std::allocator<char> > > > >::min_buckets_for_size

; 4546 :             min_buckets_for_size((std::max)(size, size_ + (size_ >> 1)));
; 4547 : 
; 4548 :           if (num_buckets != bucket_count_)

  00145	3b 43 04	 cmp	 eax, DWORD PTR [ebx+4]
  00148	74 08		 je	 SHORT $LN75@emplace_un

; 4549 :             this->rehash_impl(num_buckets);

  0014a	50		 push	 eax
  0014b	8b cb		 mov	 ecx, ebx
  0014d	e8 00 00 00 00	 call	 ?rehash_impl@?$table@U?$map@V?$allocator@U?$pair@$$CBV?$basic_string@DU?$char_traits@D@std@@V?$allocator@D@2@@std@@PAVCEterPack@@@std@@@std@@V?$basic_string@DU?$char_traits@D@std@@V?$allocator@D@2@@2@PAVCEterPack@@Ustringhash@@U?$equal_to@V?$basic_string@DU?$char_traits@D@std@@V?$allocator@D@2@@std@@@2@@detail@unordered@boost@@@detail@unordered@boost@@QAEXI@Z ; boost::unordered::detail::table<boost::unordered::detail::map<std::allocator<std::pair<std::basic_string<char,std::char_traits<char>,std::allocator<char> > const ,CEterPack *> >,std::basic_string<char,std::char_traits<char>,std::allocator<char> >,CEterPack *,stringhash,std::equal_to<std::basic_string<char,std::char_traits<char>,std::allocator<char> > > > >::rehash_impl
$LN75@emplace_un:

; 2604 :           return hash % bucket_count;

  00152	8b 45 0c	 mov	 eax, DWORD PTR _h$1$[ebp]
  00155	33 d2		 xor	 edx, edx
  00157	f7 73 04	 div	 DWORD PTR [ebx+4]

; 3026 :           return buckets_ + static_cast<std::ptrdiff_t>(bucket_index);

  0015a	8b 43 14	 mov	 eax, DWORD PTR [ebx+20]

; 2007 :           node_ = node_pointer();

  0015d	c7 45 e8 00 00
	00 00		 mov	 DWORD PTR _b$2[ebp+4], 0

; 3026 :           return buckets_ + static_cast<std::ptrdiff_t>(bucket_index);

  00164	8d 3c 90	 lea	 edi, DWORD PTR [eax+edx*4]

; 4883 :           bucket_info_ = bucket_info_ & ((std::size_t)-1 >> 1);

  00167	81 e2 ff ff ff
	7f		 and	 edx, 2147483647		; 7fffffffH
  0016d	89 56 04	 mov	 DWORD PTR [esi+4], edx

; 3693 :           if (!b->next_) {

  00170	8b 07		 mov	 eax, DWORD PTR [edi]
  00172	85 c0		 test	 eax, eax
  00174	75 24		 jne	 SHORT $LN84@emplace_un

; 3026 :           return buckets_ + static_cast<std::ptrdiff_t>(bucket_index);

  00176	8b 43 04	 mov	 eax, DWORD PTR [ebx+4]
  00179	8b 53 14	 mov	 edx, DWORD PTR [ebx+20]
  0017c	8d 0c 82	 lea	 ecx, DWORD PTR [edx+eax*4]

; 3696 :             if (start_node->next_) {

  0017f	8b 01		 mov	 eax, DWORD PTR [ecx]
  00181	85 c0		 test	 eax, eax
  00183	74 0b		 je	 SHORT $LN86@emplace_un

; 4873 :           return bucket_info_ & ((std::size_t)-1 >> 1);

  00185	8b 40 04	 mov	 eax, DWORD PTR [eax+4]
  00188	25 ff ff ff 7f	 and	 eax, 2147483647		; 7fffffffH

; 3697 :               this->get_bucket_pointer(node_bucket(next_node(start_node)))

  0018d	89 34 82	 mov	 DWORD PTR [edx+eax*4], esi
$LN86@emplace_un:

; 3698 :                 ->next_ = n;
; 3699 :             }
; 3700 : 
; 3701 :             b->next_ = start_node;

  00190	89 0f		 mov	 DWORD PTR [edi], ecx

; 3702 :             n->next_ = start_node->next_;

  00192	8b 01		 mov	 eax, DWORD PTR [ecx]
  00194	89 06		 mov	 DWORD PTR [esi], eax

; 3703 :             start_node->next_ = n;

  00196	89 31		 mov	 DWORD PTR [ecx], esi

; 3704 :           } else {

  00198	eb 08		 jmp	 SHORT $LN85@emplace_un
$LN84@emplace_un:

; 3705 :             n->next_ = b->next_->next_;

  0019a	8b 00		 mov	 eax, DWORD PTR [eax]
  0019c	89 06		 mov	 DWORD PTR [esi], eax

; 3706 :             b->next_->next_ = n;

  0019e	8b 07		 mov	 eax, DWORD PTR [edi]
  001a0	89 30		 mov	 DWORD PTR [eax], esi
$LN85@emplace_un:

; 3707 :           }
; 3708 : 
; 3709 :           ++this->size_;

  001a2	ff 43 08	 inc	 DWORD PTR [ebx+8]

; 3718 :           return this->add_node_unique(b.release(), key_hash);

  001a5	8d 4d e4	 lea	 ecx, DWORD PTR _b$2[ebp]
  001a8	e8 00 00 00 00	 call	 ??1?$node_tmp@V?$allocator@U?$ptr_node@U?$pair@$$CBV?$basic_string@DU?$char_traits@D@std@@V?$allocator@D@2@@std@@PAVCEterPack@@@std@@@detail@unordered@boost@@@std@@@detail@unordered@boost@@QAE@XZ ; boost::unordered::detail::node_tmp<std::allocator<boost::unordered::detail::ptr_node<std::pair<std::basic_string<char,std::char_traits<char>,std::allocator<char> > const ,CEterPack *> > > >::~node_tmp<std::allocator<boost::unordered::detail::ptr_node<std::pair<std::basic_string<char,std::char_traits<char>,std::allocator<char> > const ,CEterPack *> > > >
; File C:\Program Files (x86)\Microsoft Visual Studio\2019\Professional\VC\Tools\MSVC\14.29.30133\include\utility

; 193  :         : first(_STD forward<_Other1>(_Val1)), second(_STD forward<_Other2>(_Val2)) {}

  001ad	8b 45 08	 mov	 eax, DWORD PTR ___$ReturnUdt$[ebp]
  001b0	89 30		 mov	 DWORD PTR [eax], esi
  001b2	c6 40 04 01	 mov	 BYTE PTR [eax+4], 1
; File C:\Users\murat\Desktop\Siveps2-1-99-Project\source\client\extern\include\boost\unordered\detail\implementation.hpp

; 3748 :         }

  001b6	8b 4d f4	 mov	 ecx, DWORD PTR __$EHRec$[ebp]
  001b9	64 89 0d 00 00
	00 00		 mov	 DWORD PTR fs:0, ecx
  001c0	59		 pop	 ecx
  001c1	5f		 pop	 edi
  001c2	5e		 pop	 esi
  001c3	5b		 pop	 ebx
  001c4	8b e5		 mov	 esp, ebp
  001c6	5d		 pop	 ebp
  001c7	c2 0c 00	 ret	 12			; 0000000cH
_TEXT	ENDS
;	COMDAT text$x
text$x	SEGMENT
__unwindfunclet$??$emplace_unique@U?$pair@$$CBV?$basic_string@DU?$char_traits@D@std@@V?$allocator@D@2@@std@@PAVCEterPack@@@std@@@?$table@U?$map@V?$allocator@U?$pair@$$CBV?$basic_string@DU?$char_traits@D@std@@V?$allocator@D@2@@std@@PAVCEterPack@@@std@@@std@@V?$basic_string@DU?$char_traits@D@std@@V?$allocator@D@2@@2@PAVCEterPack@@Ustringhash@@U?$equal_to@V?$basic_string@DU?$char_traits@D@std@@V?$allocator@D@2@@std@@@2@@detail@unordered@boost@@@detail@unordered@boost@@QAE?AU?$pair@U?$iterator@U?$ptr_node@U?$pair@$$CBV?$basic_string@DU?$char_traits@D@std@@V?$allocator@D@2@@std@@PAVCEterPack@@@std@@@detail@unordered@boost@@@iterator_detail@unordered@boost@@_N@std@@ABV?$basic_string@DU?$char_traits@D@std@@V?$allocator@D@2@@5@$$QAU?$pair@$$CBV?$basic_string@DU?$char_traits@D@std@@V?$allocator@D@2@@std@@PAVCEterPack@@@5@@Z$0:
  00000	8d 4d e4	 lea	 ecx, DWORD PTR _a$3[ebp]
  00003	e9 00 00 00 00	 jmp	 ??1?$node_constructor@V?$allocator@U?$ptr_node@U?$pair@$$CBV?$basic_string@DU?$char_traits@D@std@@V?$allocator@D@2@@std@@PAVCEterPack@@@std@@@detail@unordered@boost@@@std@@@detail@unordered@boost@@QAE@XZ ; boost::unordered::detail::node_constructor<std::allocator<boost::unordered::detail::ptr_node<std::pair<std::basic_string<char,std::char_traits<char>,std::allocator<char> > const ,CEterPack *> > > >::~node_constructor<std::allocator<boost::unordered::detail::ptr_node<std::pair<std::basic_string<char,std::char_traits<char>,std::allocator<char> > const ,CEterPack *> > > >
__unwindfunclet$??$emplace_unique@U?$pair@$$CBV?$basic_string@DU?$char_traits@D@std@@V?$allocator@D@2@@std@@PAVCEterPack@@@std@@@?$table@U?$map@V?$allocator@U?$pair@$$CBV?$basic_string@DU?$char_traits@D@std@@V?$allocator@D@2@@std@@PAVCEterPack@@@std@@@std@@V?$basic_string@DU?$char_traits@D@std@@V?$allocator@D@2@@2@PAVCEterPack@@Ustringhash@@U?$equal_to@V?$basic_string@DU?$char_traits@D@std@@V?$allocator@D@2@@std@@@2@@detail@unordered@boost@@@detail@unordered@boost@@QAE?AU?$pair@U?$iterator@U?$ptr_node@U?$pair@$$CBV?$basic_string@DU?$char_traits@D@std@@V?$allocator@D@2@@std@@PAVCEterPack@@@std@@@detail@unordered@boost@@@iterator_detail@unordered@boost@@_N@std@@ABV?$basic_string@DU?$char_traits@D@std@@V?$allocator@D@2@@5@$$QAU?$pair@$$CBV?$basic_string@DU?$char_traits@D@std@@V?$allocator@D@2@@std@@PAVCEterPack@@@5@@Z$2:
  00008	8d 4d e4	 lea	 ecx, DWORD PTR _b$2[ebp]
  0000b	e9 00 00 00 00	 jmp	 ??1?$node_tmp@V?$allocator@U?$ptr_node@U?$pair@$$CBV?$basic_string@DU?$char_traits@D@std@@V?$allocator@D@2@@std@@PAVCEterPack@@@std@@@detail@unordered@boost@@@std@@@detail@unordered@boost@@QAE@XZ ; boost::unordered::detail::node_tmp<std::allocator<boost::unordered::detail::ptr_node<std::pair<std::basic_string<char,std::char_traits<char>,std::allocator<char> > const ,CEterPack *> > > >::~node_tmp<std::allocator<boost::unordered::detail::ptr_node<std::pair<std::basic_string<char,std::char_traits<char>,std::allocator<char> > const ,CEterPack *> > > >
  00010	cc		 int	 3
  00011	cc		 int	 3
  00012	cc		 int	 3
  00013	cc		 int	 3
  00014	cc		 int	 3
__ehhandler$??$emplace_unique@U?$pair@$$CBV?$basic_string@DU?$char_traits@D@std@@V?$allocator@D@2@@std@@PAVCEterPack@@@std@@@?$table@U?$map@V?$allocator@U?$pair@$$CBV?$basic_string@DU?$char_traits@D@std@@V?$allocator@D@2@@std@@PAVCEterPack@@@std@@@std@@V?$basic_string@DU?$char_traits@D@std@@V?$allocator@D@2@@2@PAVCEterPack@@Ustringhash@@U?$equal_to@V?$basic_string@DU?$char_traits@D@std@@V?$allocator@D@2@@std@@@2@@detail@unordered@boost@@@detail@unordered@boost@@QAE?AU?$pair@U?$iterator@U?$ptr_node@U?$pair@$$CBV?$basic_string@DU?$char_traits@D@std@@V?$allocator@D@2@@std@@PAVCEterPack@@@std@@@detail@unordered@boost@@@iterator_detail@unordered@boost@@_N@std@@ABV?$basic_string@DU?$char_traits@D@std@@V?$allocator@D@2@@5@$$QAU?$pair@$$CBV?$basic_string@DU?$char_traits@D@std@@V?$allocator@D@2@@std@@PAVCEterPack@@@5@@Z:
  00015	90		 npad	 1
  00016	90		 npad	 1
  00017	8b 54 24 08	 mov	 edx, DWORD PTR [esp+8]
  0001b	8d 42 0c	 lea	 eax, DWORD PTR [edx+12]
  0001e	8b 4a e0	 mov	 ecx, DWORD PTR [edx-32]
  00021	33 c8		 xor	 ecx, eax
  00023	e8 00 00 00 00	 call	 @__security_check_cookie@4
  00028	b8 00 00 00 00	 mov	 eax, OFFSET __ehfuncinfo$??$emplace_unique@U?$pair@$$CBV?$basic_string@DU?$char_traits@D@std@@V?$allocator@D@2@@std@@PAVCEterPack@@@std@@@?$table@U?$map@V?$allocator@U?$pair@$$CBV?$basic_string@DU?$char_traits@D@std@@V?$allocator@D@2@@std@@PAVCEterPack@@@std@@@std@@V?$basic_string@DU?$char_traits@D@std@@V?$allocator@D@2@@2@PAVCEterPack@@Ustringhash@@U?$equal_to@V?$basic_string@DU?$char_traits@D@std@@V?$allocator@D@2@@std@@@2@@detail@unordered@boost@@@detail@unordered@boost@@QAE?AU?$pair@U?$iterator@U?$ptr_node@U?$pair@$$CBV?$basic_string@DU?$char_traits@D@std@@V?$allocator@D@2@@std@@PAVCEterPack@@@std@@@detail@unordered@boost@@@iterator_detail@unordered@boost@@_N@std@@ABV?$basic_string@DU?$char_traits@D@std@@V?$allocator@D@2@@5@$$QAU?$pair@$$CBV?$basic_string@DU?$char_traits@D@std@@V?$allocator@D@2@@std@@PAVCEterPack@@@5@@Z
  0002d	e9 00 00 00 00	 jmp	 ___CxxFrameHandler3
text$x	ENDS
??$emplace_unique@U?$pair@$$CBV?$basic_string@DU?$char_traits@D@std@@V?$allocator@D@2@@std@@PAVCEterPack@@@std@@@?$table@U?$map@V?$allocator@U?$pair@$$CBV?$basic_string@DU?$char_traits@D@std@@V?$allocator@D@2@@std@@PAVCEterPack@@@std@@@std@@V?$basic_string@DU?$char_traits@D@std@@V?$allocator@D@2@@2@PAVCEterPack@@Ustringhash@@U?$equal_to@V?$basic_string@DU?$char_traits@D@std@@V?$allocator@D@2@@std@@@2@@detail@unordered@boost@@@detail@unordered@boost@@QAE?AU?$pair@U?$iterator@U?$ptr_node@U?$pair@$$CBV?$basic_string@DU?$char_traits@D@std@@V?$allocator@D@2@@std@@PAVCEterPack@@@std@@@detail@unordered@boost@@@iterator_detail@unordered@boost@@_N@std@@ABV?$basic_string@DU?$char_traits@D@std@@V?$allocator@D@2@@5@$$QAU?$pair@$$CBV?$basic_string@DU?$char_traits@D@std@@V?$allocator@D@2@@std@@PAVCEterPack@@@5@@Z ENDP ; boost::unordered::detail::table<boost::unordered::detail::map<std::allocator<std::pair<std::basic_string<char,std::char_traits<char>,std::allocator<char> > const ,CEterPack *> >,std::basic_string<char,std::char_traits<char>,std::allocator<char> >,CEterPack *,stringhash,std::equal_to<std::basic_string<char,std::char_traits<char>,std::allocator<char> > > > >::emplace_unique<std::pair<std::basic_string<char,std::char_traits<char>,std::allocator<char> > const ,CEterPack *> >
; Function compile flags: /Ogtp
; File C:\Users\murat\Desktop\Siveps2-1-99-Project\source\client\extern\include\boost\unordered\detail\implementation.hpp
; File C:\Users\murat\Desktop\Siveps2-1-99-Project\source\client\extern\include\boost\container_hash\hash.hpp
; File C:\Users\murat\Desktop\Siveps2-1-99-Project\source\client\extern\include\boost\unordered\detail\implementation.hpp
; File C:\Users\murat\Desktop\Siveps2-1-99-Project\source\client\extern\include\boost\container_hash\hash.hpp
; File C:\Users\murat\Desktop\Siveps2-1-99-Project\source\client\extern\include\boost\unordered\detail\implementation.hpp
; File C:\Program Files (x86)\Microsoft Visual Studio\2019\Professional\VC\Tools\MSVC\14.29.30133\include\utility
; File C:\Users\murat\Desktop\Siveps2-1-99-Project\source\client\extern\include\boost\unordered\detail\implementation.hpp
; File C:\Program Files (x86)\Microsoft Visual Studio\2019\Professional\VC\Tools\MSVC\14.29.30133\include\xmemory
; File C:\Users\murat\Desktop\Siveps2-1-99-Project\source\client\extern\include\boost\unordered\detail\implementation.hpp
; File C:\Program Files (x86)\Microsoft Visual Studio\2019\Professional\VC\Tools\MSVC\14.29.30133\include\xmemory
; File C:\Users\murat\Desktop\Siveps2-1-99-Project\source\client\extern\include\boost\unordered\detail\implementation.hpp
; File C:\Program Files (x86)\Microsoft Visual Studio\2019\Professional\VC\Tools\MSVC\14.29.30133\include\utility
; File C:\Users\murat\Desktop\Siveps2-1-99-Project\source\client\extern\include\boost\unordered\detail\implementation.hpp
; File C:\Program Files (x86)\Microsoft Visual Studio\2019\Professional\VC\Tools\MSVC\14.29.30133\include\utility
; File C:\Users\murat\Desktop\Siveps2-1-99-Project\source\client\extern\include\boost\unordered\detail\implementation.hpp
; File C:\Program Files (x86)\Microsoft Visual Studio\2019\Professional\VC\Tools\MSVC\14.29.30133\include\utility
; File C:\Users\murat\Desktop\Siveps2-1-99-Project\source\client\extern\include\boost\unordered\detail\implementation.hpp
; File C:\Program Files (x86)\Microsoft Visual Studio\2019\Professional\VC\Tools\MSVC\14.29.30133\include\utility
; File C:\Users\murat\Desktop\Siveps2-1-99-Project\source\client\extern\include\boost\unordered\detail\implementation.hpp
; File C:\Program Files (x86)\Microsoft Visual Studio\2019\Professional\VC\Tools\MSVC\14.29.30133\include\utility
; File C:\Users\murat\Desktop\Siveps2-1-99-Project\source\client\extern\include\boost\unordered\detail\implementation.hpp
;	COMDAT ??$emplace_unique@U?$pair@$$CBKUSCache@CEterPackManager@@@std@@@?$table@U?$map@V?$allocator@U?$pair@$$CBKUSCache@CEterPackManager@@@std@@@std@@KUSCache@CEterPackManager@@U?$hash@K@boost@@U?$equal_to@K@2@@detail@unordered@boost@@@detail@unordered@boost@@QAE?AU?$pair@U?$iterator@U?$ptr_node@U?$pair@$$CBKUSCache@CEterPackManager@@@std@@@detail@unordered@boost@@@iterator_detail@unordered@boost@@_N@std@@ABK$$QAU?$pair@$$CBKUSCache@CEterPackManager@@@5@@Z
_TEXT	SEGMENT
_b$2 = -20						; size = 8
_a$3 = -20						; size = 8
__$EHRec$ = -12						; size = 12
___$ReturnUdt$ = 8					; size = 4
_key_hash$1$ = 12					; size = 4
_k$ = 12						; size = 4
_<args_0>$ = 16						; size = 4
??$emplace_unique@U?$pair@$$CBKUSCache@CEterPackManager@@@std@@@?$table@U?$map@V?$allocator@U?$pair@$$CBKUSCache@CEterPackManager@@@std@@@std@@KUSCache@CEterPackManager@@U?$hash@K@boost@@U?$equal_to@K@2@@detail@unordered@boost@@@detail@unordered@boost@@QAE?AU?$pair@U?$iterator@U?$ptr_node@U?$pair@$$CBKUSCache@CEterPackManager@@@std@@@detail@unordered@boost@@@iterator_detail@unordered@boost@@_N@std@@ABK$$QAU?$pair@$$CBKUSCache@CEterPackManager@@@5@@Z PROC ; boost::unordered::detail::table<boost::unordered::detail::map<std::allocator<std::pair<unsigned long const ,CEterPackManager::SCache> >,unsigned long,CEterPackManager::SCache,boost::hash<unsigned long>,std::equal_to<unsigned long> > >::emplace_unique<std::pair<unsigned long const ,CEterPackManager::SCache> >, COMDAT
; _this$ = ecx

; 3735 :         {

  00000	55		 push	 ebp
  00001	8b ec		 mov	 ebp, esp
  00003	6a ff		 push	 -1
  00005	68 00 00 00 00	 push	 __ehhandler$??$emplace_unique@U?$pair@$$CBKUSCache@CEterPackManager@@@std@@@?$table@U?$map@V?$allocator@U?$pair@$$CBKUSCache@CEterPackManager@@@std@@@std@@KUSCache@CEterPackManager@@U?$hash@K@boost@@U?$equal_to@K@2@@detail@unordered@boost@@@detail@unordered@boost@@QAE?AU?$pair@U?$iterator@U?$ptr_node@U?$pair@$$CBKUSCache@CEterPackManager@@@std@@@detail@unordered@boost@@@iterator_detail@unordered@boost@@_N@std@@ABK$$QAU?$pair@$$CBKUSCache@CEterPackManager@@@5@@Z
  0000a	64 a1 00 00 00
	00		 mov	 eax, DWORD PTR fs:0
  00010	50		 push	 eax
  00011	83 ec 08	 sub	 esp, 8
  00014	53		 push	 ebx
  00015	56		 push	 esi
  00016	57		 push	 edi
  00017	a1 00 00 00 00	 mov	 eax, DWORD PTR ___security_cookie
  0001c	33 c5		 xor	 eax, ebp
  0001e	50		 push	 eax
  0001f	8d 45 f4	 lea	 eax, DWORD PTR __$EHRec$[ebp]
  00022	64 a3 00 00 00
	00		 mov	 DWORD PTR fs:0, eax
  00028	8b f9		 mov	 edi, ecx
; File C:\Users\murat\Desktop\Siveps2-1-99-Project\source\client\extern\include\boost\container_hash\hash.hpp

; 621  :     BOOST_HASH_SPECIALIZE(unsigned long)

  0002a	8b 75 0c	 mov	 esi, DWORD PTR _k$[ebp]
  0002d	ff 36		 push	 DWORD PTR [esi]
  0002f	e8 00 00 00 00	 call	 ??$hash_value@K@boost@@YAIK@Z ; boost::hash_value<unsigned long>
; File C:\Users\murat\Desktop\Siveps2-1-99-Project\source\client\extern\include\boost\unordered\detail\implementation.hpp

; 2791 :           return *static_cast<function_pair const*>(

  00034	0f b6 17	 movzx	 edx, BYTE PTR [edi]
; File C:\Users\murat\Desktop\Siveps2-1-99-Project\source\client\extern\include\boost\container_hash\hash.hpp

; 621  :     BOOST_HASH_SPECIALIZE(unsigned long)

  00037	83 c4 04	 add	 esp, 4
; File C:\Users\murat\Desktop\Siveps2-1-99-Project\source\client\extern\include\boost\unordered\detail\implementation.hpp

; 2791 :           return *static_cast<function_pair const*>(

  0003a	83 e2 01	 and	 edx, 1

; 3736 :           std::size_t key_hash = this->hash(k);

  0003d	89 45 0c	 mov	 DWORD PTR _key_hash$1$[ebp], eax

; 2791 :           return *static_cast<function_pair const*>(

  00040	42		 inc	 edx
  00041	03 d7		 add	 edx, edi

; 3576 :           return this->find_node_impl(key_hash, k, this->key_eq());

  00043	8d 4a 01	 lea	 ecx, DWORD PTR [edx+1]
  00046	f7 da		 neg	 edx
  00048	1b d2		 sbb	 edx, edx
  0004a	23 d1		 and	 edx, ecx
  0004c	8b cf		 mov	 ecx, edi
  0004e	52		 push	 edx
  0004f	56		 push	 esi
  00050	50		 push	 eax
  00051	e8 00 00 00 00	 call	 ??$find_node_impl@KU?$equal_to@K@std@@@?$table@U?$map@V?$allocator@U?$pair@$$CBKUSCache@CEterPackManager@@@std@@@std@@KUSCache@CEterPackManager@@U?$hash@K@boost@@U?$equal_to@K@2@@detail@unordered@boost@@@detail@unordered@boost@@QBEPAU?$ptr_node@U?$pair@$$CBKUSCache@CEterPackManager@@@std@@@123@IABKABU?$equal_to@K@std@@@Z ; boost::unordered::detail::table<boost::unordered::detail::map<std::allocator<std::pair<unsigned long const ,CEterPackManager::SCache> >,unsigned long,CEterPackManager::SCache,boost::hash<unsigned long>,std::equal_to<unsigned long> > >::find_node_impl<unsigned long,std::equal_to<unsigned long> >

; 3737 :           node_pointer pos = this->find_node(key_hash, k);

  00056	8b c8		 mov	 ecx, eax

; 3738 :           if (pos) {

  00058	85 c9		 test	 ecx, ecx
  0005a	74 1d		 je	 SHORT $LN2@emplace_un
; File C:\Program Files (x86)\Microsoft Visual Studio\2019\Professional\VC\Tools\MSVC\14.29.30133\include\utility

; 193  :         : first(_STD forward<_Other1>(_Val1)), second(_STD forward<_Other2>(_Val2)) {}

  0005c	8b 45 08	 mov	 eax, DWORD PTR ___$ReturnUdt$[ebp]
  0005f	89 08		 mov	 DWORD PTR [eax], ecx
  00061	c6 40 04 00	 mov	 BYTE PTR [eax+4], 0
; File C:\Users\murat\Desktop\Siveps2-1-99-Project\source\client\extern\include\boost\unordered\detail\implementation.hpp

; 3748 :         }

  00065	8b 4d f4	 mov	 ecx, DWORD PTR __$EHRec$[ebp]
  00068	64 89 0d 00 00
	00 00		 mov	 DWORD PTR fs:0, ecx
  0006f	59		 pop	 ecx
  00070	5f		 pop	 edi
  00071	5e		 pop	 esi
  00072	5b		 pop	 ebx
  00073	8b e5		 mov	 esp, ebp
  00075	5d		 pop	 ebp
  00076	c2 0c 00	 ret	 12			; 0000000cH
$LN2@emplace_un:

; 3014 :         node_allocator& node_alloc() { return allocators_.second(); }

  00079	8d 77 03	 lea	 esi, DWORD PTR [edi+3]

; 1946 :         node_constructor(node_allocator& n) : alloc_(n), node_() {}

  0007c	c7 45 f0 00 00
	00 00		 mov	 DWORD PTR _a$3[ebp+4], 0
  00083	8d 46 01	 lea	 eax, DWORD PTR [esi+1]
  00086	f7 de		 neg	 esi
  00088	1b f6		 sbb	 esi, esi
  0008a	23 f0		 and	 esi, eax
  0008c	89 75 ec	 mov	 DWORD PTR _a$3[ebp], esi

; 2039 :           a.create_node();

  0008f	8d 4d ec	 lea	 ecx, DWORD PTR _a$3[ebp]
  00092	c7 45 fc 00 00
	00 00		 mov	 DWORD PTR __$EHRec$[ebp+8], 0
  00099	e8 00 00 00 00	 call	 ?create_node@?$node_constructor@V?$allocator@U?$ptr_node@U?$pair@$$CBKUSCache@CEterPackManager@@@std@@@detail@unordered@boost@@@std@@@detail@unordered@boost@@QAEXXZ ; boost::unordered::detail::node_constructor<std::allocator<boost::unordered::detail::ptr_node<std::pair<unsigned long const ,CEterPackManager::SCache> > > >::create_node
; File C:\Program Files (x86)\Microsoft Visual Studio\2019\Professional\VC\Tools\MSVC\14.29.30133\include\xmemory

; 714  :             ::new (_Voidify_iter(_Ptr)) _Objty(_STD forward<_Types>(_Args)...);

  0009e	8b 45 10	 mov	 eax, DWORD PTR _<args_0>$[ebp]
; File C:\Users\murat\Desktop\Siveps2-1-99-Project\source\client\extern\include\boost\unordered\detail\implementation.hpp

; 2042 :           return a.release();

  000a1	8d 4d ec	 lea	 ecx, DWORD PTR _a$3[ebp]
  000a4	8b 5d f0	 mov	 ebx, DWORD PTR _a$3[ebp+4]

; 1957 :           node_ = node_pointer();

  000a7	c7 45 f0 00 00
	00 00		 mov	 DWORD PTR _a$3[ebp+4], 0
; File C:\Program Files (x86)\Microsoft Visual Studio\2019\Professional\VC\Tools\MSVC\14.29.30133\include\xmemory

; 714  :             ::new (_Voidify_iter(_Ptr)) _Objty(_STD forward<_Types>(_Args)...);

  000ae	f3 0f 7e 00	 movq	 xmm0, QWORD PTR [eax]
  000b2	66 0f d6 43 08	 movq	 QWORD PTR [ebx+8], xmm0
  000b7	8b 40 08	 mov	 eax, DWORD PTR [eax+8]
  000ba	89 43 10	 mov	 DWORD PTR [ebx+16], eax
; File C:\Users\murat\Desktop\Siveps2-1-99-Project\source\client\extern\include\boost\unordered\detail\implementation.hpp

; 2042 :           return a.release();

  000bd	e8 00 00 00 00	 call	 ??1?$node_constructor@V?$allocator@U?$ptr_node@U?$pair@$$CBKUSCache@CEterPackManager@@@std@@@detail@unordered@boost@@@std@@@detail@unordered@boost@@QAE@XZ ; boost::unordered::detail::node_constructor<std::allocator<boost::unordered::detail::ptr_node<std::pair<unsigned long const ,CEterPackManager::SCache> > > >::~node_constructor<std::allocator<boost::unordered::detail::ptr_node<std::pair<unsigned long const ,CEterPackManager::SCache> > > >

; 1999 :         explicit node_tmp(node_pointer n, NodeAlloc& a) : alloc_(a), node_(n) {}

  000c2	89 75 ec	 mov	 DWORD PTR _b$2[ebp], esi
  000c5	89 5d f0	 mov	 DWORD PTR _b$2[ebp+4], ebx

; 4542 :         if (!buckets_) {

  000c8	83 7f 14 00	 cmp	 DWORD PTR [edi+20], 0

; 3717 :           this->reserve_for_insert(this->size_ + 1);

  000cc	8b 47 08	 mov	 eax, DWORD PTR [edi+8]
  000cf	c7 45 fc 01 00
	00 00		 mov	 DWORD PTR __$EHRec$[ebp+8], 1
  000d6	8d 70 01	 lea	 esi, DWORD PTR [eax+1]

; 4542 :         if (!buckets_) {

  000d9	75 1a		 jne	 SHORT $LN58@emplace_un

; 4543 :           create_buckets((std::max)(bucket_count_, min_buckets_for_size(size)));

  000db	56		 push	 esi
  000dc	8b cf		 mov	 ecx, edi
  000de	e8 00 00 00 00	 call	 ?min_buckets_for_size@?$table@U?$map@V?$allocator@U?$pair@$$CBKUSCache@CEterPackManager@@@std@@@std@@KUSCache@CEterPackManager@@U?$hash@K@boost@@U?$equal_to@K@2@@detail@unordered@boost@@@detail@unordered@boost@@QBEII@Z ; boost::unordered::detail::table<boost::unordered::detail::map<std::allocator<std::pair<unsigned long const ,CEterPackManager::SCache> >,unsigned long,CEterPackManager::SCache,boost::hash<unsigned long>,std::equal_to<unsigned long> > >::min_buckets_for_size
; File C:\Program Files (x86)\Microsoft Visual Studio\2019\Professional\VC\Tools\MSVC\14.29.30133\include\utility

; 44   :     return _Left < _Right ? _Right : _Left;

  000e3	8b 4f 04	 mov	 ecx, DWORD PTR [edi+4]
  000e6	3b c8		 cmp	 ecx, eax
  000e8	0f 42 c8	 cmovb	 ecx, eax
; File C:\Users\murat\Desktop\Siveps2-1-99-Project\source\client\extern\include\boost\unordered\detail\implementation.hpp

; 4543 :           create_buckets((std::max)(bucket_count_, min_buckets_for_size(size)));

  000eb	51		 push	 ecx
  000ec	8b cf		 mov	 ecx, edi
  000ee	e8 00 00 00 00	 call	 ?create_buckets@?$table@U?$map@V?$allocator@U?$pair@$$CBKUSCache@CEterPackManager@@@std@@@std@@KUSCache@CEterPackManager@@U?$hash@K@boost@@U?$equal_to@K@2@@detail@unordered@boost@@@detail@unordered@boost@@QAEXI@Z ; boost::unordered::detail::table<boost::unordered::detail::map<std::allocator<std::pair<unsigned long const ,CEterPackManager::SCache> >,unsigned long,CEterPackManager::SCache,boost::hash<unsigned long>,std::equal_to<unsigned long> > >::create_buckets
  000f3	eb 2d		 jmp	 SHORT $LN61@emplace_un
$LN58@emplace_un:

; 4544 :         } else if (size > max_load_) {

  000f5	3b 77 10	 cmp	 esi, DWORD PTR [edi+16]
  000f8	76 28		 jbe	 SHORT $LN61@emplace_un

; 4545 :           std::size_t num_buckets =

  000fa	8b c8		 mov	 ecx, eax
; File C:\Program Files (x86)\Microsoft Visual Studio\2019\Professional\VC\Tools\MSVC\14.29.30133\include\utility

; 44   :     return _Left < _Right ? _Right : _Left;

  000fc	ba 01 00 00 00	 mov	 edx, 1
; File C:\Users\murat\Desktop\Siveps2-1-99-Project\source\client\extern\include\boost\unordered\detail\implementation.hpp

; 4545 :           std::size_t num_buckets =

  00101	d1 e9		 shr	 ecx, 1
  00103	03 c1		 add	 eax, ecx
; File C:\Program Files (x86)\Microsoft Visual Studio\2019\Professional\VC\Tools\MSVC\14.29.30133\include\utility

; 44   :     return _Left < _Right ? _Right : _Left;

  00105	3b f0		 cmp	 esi, eax
  00107	0f 42 d1	 cmovb	 edx, ecx
; File C:\Users\murat\Desktop\Siveps2-1-99-Project\source\client\extern\include\boost\unordered\detail\implementation.hpp

; 4545 :           std::size_t num_buckets =

  0010a	8b cf		 mov	 ecx, edi
; File C:\Program Files (x86)\Microsoft Visual Studio\2019\Professional\VC\Tools\MSVC\14.29.30133\include\utility

; 44   :     return _Left < _Right ? _Right : _Left;

  0010c	03 57 08	 add	 edx, DWORD PTR [edi+8]
; File C:\Users\murat\Desktop\Siveps2-1-99-Project\source\client\extern\include\boost\unordered\detail\implementation.hpp

; 4545 :           std::size_t num_buckets =

  0010f	52		 push	 edx
  00110	e8 00 00 00 00	 call	 ?min_buckets_for_size@?$table@U?$map@V?$allocator@U?$pair@$$CBKUSCache@CEterPackManager@@@std@@@std@@KUSCache@CEterPackManager@@U?$hash@K@boost@@U?$equal_to@K@2@@detail@unordered@boost@@@detail@unordered@boost@@QBEII@Z ; boost::unordered::detail::table<boost::unordered::detail::map<std::allocator<std::pair<unsigned long const ,CEterPackManager::SCache> >,unsigned long,CEterPackManager::SCache,boost::hash<unsigned long>,std::equal_to<unsigned long> > >::min_buckets_for_size

; 4546 :             min_buckets_for_size((std::max)(size, size_ + (size_ >> 1)));
; 4547 : 
; 4548 :           if (num_buckets != bucket_count_)

  00115	3b 47 04	 cmp	 eax, DWORD PTR [edi+4]
  00118	74 08		 je	 SHORT $LN61@emplace_un

; 4549 :             this->rehash_impl(num_buckets);

  0011a	50		 push	 eax
  0011b	8b cf		 mov	 ecx, edi
  0011d	e8 00 00 00 00	 call	 ?rehash_impl@?$table@U?$map@V?$allocator@U?$pair@$$CBKUSCache@CEterPackManager@@@std@@@std@@KUSCache@CEterPackManager@@U?$hash@K@boost@@U?$equal_to@K@2@@detail@unordered@boost@@@detail@unordered@boost@@QAEXI@Z ; boost::unordered::detail::table<boost::unordered::detail::map<std::allocator<std::pair<unsigned long const ,CEterPackManager::SCache> >,unsigned long,CEterPackManager::SCache,boost::hash<unsigned long>,std::equal_to<unsigned long> > >::rehash_impl
$LN61@emplace_un:

; 2604 :           return hash % bucket_count;

  00122	8b 45 0c	 mov	 eax, DWORD PTR _key_hash$1$[ebp]
  00125	33 d2		 xor	 edx, edx
  00127	f7 77 04	 div	 DWORD PTR [edi+4]

; 3026 :           return buckets_ + static_cast<std::ptrdiff_t>(bucket_index);

  0012a	8b 47 14	 mov	 eax, DWORD PTR [edi+20]

; 2007 :           node_ = node_pointer();

  0012d	c7 45 f0 00 00
	00 00		 mov	 DWORD PTR _b$2[ebp+4], 0

; 3026 :           return buckets_ + static_cast<std::ptrdiff_t>(bucket_index);

  00134	8d 34 90	 lea	 esi, DWORD PTR [eax+edx*4]

; 4883 :           bucket_info_ = bucket_info_ & ((std::size_t)-1 >> 1);

  00137	81 e2 ff ff ff
	7f		 and	 edx, 2147483647		; 7fffffffH
  0013d	89 53 04	 mov	 DWORD PTR [ebx+4], edx

; 3693 :           if (!b->next_) {

  00140	8b 06		 mov	 eax, DWORD PTR [esi]
  00142	85 c0		 test	 eax, eax
  00144	75 24		 jne	 SHORT $LN70@emplace_un

; 3026 :           return buckets_ + static_cast<std::ptrdiff_t>(bucket_index);

  00146	8b 47 04	 mov	 eax, DWORD PTR [edi+4]
  00149	8b 57 14	 mov	 edx, DWORD PTR [edi+20]
  0014c	8d 0c 82	 lea	 ecx, DWORD PTR [edx+eax*4]

; 3696 :             if (start_node->next_) {

  0014f	8b 01		 mov	 eax, DWORD PTR [ecx]
  00151	85 c0		 test	 eax, eax
  00153	74 0b		 je	 SHORT $LN72@emplace_un

; 4873 :           return bucket_info_ & ((std::size_t)-1 >> 1);

  00155	8b 40 04	 mov	 eax, DWORD PTR [eax+4]
  00158	25 ff ff ff 7f	 and	 eax, 2147483647		; 7fffffffH

; 3697 :               this->get_bucket_pointer(node_bucket(next_node(start_node)))

  0015d	89 1c 82	 mov	 DWORD PTR [edx+eax*4], ebx
$LN72@emplace_un:

; 3698 :                 ->next_ = n;
; 3699 :             }
; 3700 : 
; 3701 :             b->next_ = start_node;

  00160	89 0e		 mov	 DWORD PTR [esi], ecx

; 3702 :             n->next_ = start_node->next_;

  00162	8b 01		 mov	 eax, DWORD PTR [ecx]
  00164	89 03		 mov	 DWORD PTR [ebx], eax

; 3703 :             start_node->next_ = n;

  00166	89 19		 mov	 DWORD PTR [ecx], ebx

; 3704 :           } else {

  00168	eb 08		 jmp	 SHORT $LN71@emplace_un
$LN70@emplace_un:

; 3705 :             n->next_ = b->next_->next_;

  0016a	8b 00		 mov	 eax, DWORD PTR [eax]
  0016c	89 03		 mov	 DWORD PTR [ebx], eax

; 3706 :             b->next_->next_ = n;

  0016e	8b 06		 mov	 eax, DWORD PTR [esi]
  00170	89 18		 mov	 DWORD PTR [eax], ebx
$LN71@emplace_un:

; 3707 :           }
; 3708 : 
; 3709 :           ++this->size_;

  00172	ff 47 08	 inc	 DWORD PTR [edi+8]

; 3718 :           return this->add_node_unique(b.release(), key_hash);

  00175	8d 4d ec	 lea	 ecx, DWORD PTR _b$2[ebp]
  00178	e8 00 00 00 00	 call	 ??1?$node_tmp@V?$allocator@U?$ptr_node@U?$pair@$$CBKUSCache@CEterPackManager@@@std@@@detail@unordered@boost@@@std@@@detail@unordered@boost@@QAE@XZ ; boost::unordered::detail::node_tmp<std::allocator<boost::unordered::detail::ptr_node<std::pair<unsigned long const ,CEterPackManager::SCache> > > >::~node_tmp<std::allocator<boost::unordered::detail::ptr_node<std::pair<unsigned long const ,CEterPackManager::SCache> > > >
; File C:\Program Files (x86)\Microsoft Visual Studio\2019\Professional\VC\Tools\MSVC\14.29.30133\include\utility

; 193  :         : first(_STD forward<_Other1>(_Val1)), second(_STD forward<_Other2>(_Val2)) {}

  0017d	8b 45 08	 mov	 eax, DWORD PTR ___$ReturnUdt$[ebp]
  00180	89 18		 mov	 DWORD PTR [eax], ebx
  00182	c6 40 04 01	 mov	 BYTE PTR [eax+4], 1
; File C:\Users\murat\Desktop\Siveps2-1-99-Project\source\client\extern\include\boost\unordered\detail\implementation.hpp

; 3748 :         }

  00186	8b 4d f4	 mov	 ecx, DWORD PTR __$EHRec$[ebp]
  00189	64 89 0d 00 00
	00 00		 mov	 DWORD PTR fs:0, ecx
  00190	59		 pop	 ecx
  00191	5f		 pop	 edi
  00192	5e		 pop	 esi
  00193	5b		 pop	 ebx
  00194	8b e5		 mov	 esp, ebp
  00196	5d		 pop	 ebp
  00197	c2 0c 00	 ret	 12			; 0000000cH
_TEXT	ENDS
;	COMDAT text$x
text$x	SEGMENT
__unwindfunclet$??$emplace_unique@U?$pair@$$CBKUSCache@CEterPackManager@@@std@@@?$table@U?$map@V?$allocator@U?$pair@$$CBKUSCache@CEterPackManager@@@std@@@std@@KUSCache@CEterPackManager@@U?$hash@K@boost@@U?$equal_to@K@2@@detail@unordered@boost@@@detail@unordered@boost@@QAE?AU?$pair@U?$iterator@U?$ptr_node@U?$pair@$$CBKUSCache@CEterPackManager@@@std@@@detail@unordered@boost@@@iterator_detail@unordered@boost@@_N@std@@ABK$$QAU?$pair@$$CBKUSCache@CEterPackManager@@@5@@Z$0:
  00000	8d 4d ec	 lea	 ecx, DWORD PTR _a$3[ebp]
  00003	e9 00 00 00 00	 jmp	 ??1?$node_constructor@V?$allocator@U?$ptr_node@U?$pair@$$CBKUSCache@CEterPackManager@@@std@@@detail@unordered@boost@@@std@@@detail@unordered@boost@@QAE@XZ ; boost::unordered::detail::node_constructor<std::allocator<boost::unordered::detail::ptr_node<std::pair<unsigned long const ,CEterPackManager::SCache> > > >::~node_constructor<std::allocator<boost::unordered::detail::ptr_node<std::pair<unsigned long const ,CEterPackManager::SCache> > > >
__unwindfunclet$??$emplace_unique@U?$pair@$$CBKUSCache@CEterPackManager@@@std@@@?$table@U?$map@V?$allocator@U?$pair@$$CBKUSCache@CEterPackManager@@@std@@@std@@KUSCache@CEterPackManager@@U?$hash@K@boost@@U?$equal_to@K@2@@detail@unordered@boost@@@detail@unordered@boost@@QAE?AU?$pair@U?$iterator@U?$ptr_node@U?$pair@$$CBKUSCache@CEterPackManager@@@std@@@detail@unordered@boost@@@iterator_detail@unordered@boost@@_N@std@@ABK$$QAU?$pair@$$CBKUSCache@CEterPackManager@@@5@@Z$1:
  00008	8d 4d ec	 lea	 ecx, DWORD PTR _b$2[ebp]
  0000b	e9 00 00 00 00	 jmp	 ??1?$node_tmp@V?$allocator@U?$ptr_node@U?$pair@$$CBKUSCache@CEterPackManager@@@std@@@detail@unordered@boost@@@std@@@detail@unordered@boost@@QAE@XZ ; boost::unordered::detail::node_tmp<std::allocator<boost::unordered::detail::ptr_node<std::pair<unsigned long const ,CEterPackManager::SCache> > > >::~node_tmp<std::allocator<boost::unordered::detail::ptr_node<std::pair<unsigned long const ,CEterPackManager::SCache> > > >
  00010	cc		 int	 3
  00011	cc		 int	 3
  00012	cc		 int	 3
  00013	cc		 int	 3
  00014	cc		 int	 3
__ehhandler$??$emplace_unique@U?$pair@$$CBKUSCache@CEterPackManager@@@std@@@?$table@U?$map@V?$allocator@U?$pair@$$CBKUSCache@CEterPackManager@@@std@@@std@@KUSCache@CEterPackManager@@U?$hash@K@boost@@U?$equal_to@K@2@@detail@unordered@boost@@@detail@unordered@boost@@QAE?AU?$pair@U?$iterator@U?$ptr_node@U?$pair@$$CBKUSCache@CEterPackManager@@@std@@@detail@unordered@boost@@@iterator_detail@unordered@boost@@_N@std@@ABK$$QAU?$pair@$$CBKUSCache@CEterPackManager@@@5@@Z:
  00015	90		 npad	 1
  00016	90		 npad	 1
  00017	8b 54 24 08	 mov	 edx, DWORD PTR [esp+8]
  0001b	8d 42 0c	 lea	 eax, DWORD PTR [edx+12]
  0001e	8b 4a e8	 mov	 ecx, DWORD PTR [edx-24]
  00021	33 c8		 xor	 ecx, eax
  00023	e8 00 00 00 00	 call	 @__security_check_cookie@4
  00028	b8 00 00 00 00	 mov	 eax, OFFSET __ehfuncinfo$??$emplace_unique@U?$pair@$$CBKUSCache@CEterPackManager@@@std@@@?$table@U?$map@V?$allocator@U?$pair@$$CBKUSCache@CEterPackManager@@@std@@@std@@KUSCache@CEterPackManager@@U?$hash@K@boost@@U?$equal_to@K@2@@detail@unordered@boost@@@detail@unordered@boost@@QAE?AU?$pair@U?$iterator@U?$ptr_node@U?$pair@$$CBKUSCache@CEterPackManager@@@std@@@detail@unordered@boost@@@iterator_detail@unordered@boost@@_N@std@@ABK$$QAU?$pair@$$CBKUSCache@CEterPackManager@@@5@@Z
  0002d	e9 00 00 00 00	 jmp	 ___CxxFrameHandler3
text$x	ENDS
??$emplace_unique@U?$pair@$$CBKUSCache@CEterPackManager@@@std@@@?$table@U?$map@V?$allocator@U?$pair@$$CBKUSCache@CEterPackManager@@@std@@@std@@KUSCache@CEterPackManager@@U?$hash@K@boost@@U?$equal_to@K@2@@detail@unordered@boost@@@detail@unordered@boost@@QAE?AU?$pair@U?$iterator@U?$ptr_node@U?$pair@$$CBKUSCache@CEterPackManager@@@std@@@detail@unordered@boost@@@iterator_detail@unordered@boost@@_N@std@@ABK$$QAU?$pair@$$CBKUSCache@CEterPackManager@@@5@@Z ENDP ; boost::unordered::detail::table<boost::unordered::detail::map<std::allocator<std::pair<unsigned long const ,CEterPackManager::SCache> >,unsigned long,CEterPackManager::SCache,boost::hash<unsigned long>,std::equal_to<unsigned long> > >::emplace_unique<std::pair<unsigned long const ,CEterPackManager::SCache> >
; Function compile flags: /Ogtp
; File C:\Program Files (x86)\Microsoft Visual Studio\2019\Professional\VC\Tools\MSVC\14.29.30133\include\xstring
; File C:\Program Files (x86)\Microsoft Visual Studio\2019\Professional\VC\Tools\MSVC\14.29.30133\include\xmemory
; File C:\Program Files (x86)\Microsoft Visual Studio\2019\Professional\VC\Tools\MSVC\14.29.30133\include\xstring
; File C:\Program Files (x86)\Microsoft Visual Studio\2019\Professional\VC\Tools\MSVC\14.29.30133\include\xmemory
; File C:\Program Files (x86)\Microsoft Visual Studio\2019\Professional\VC\Tools\MSVC\14.29.30133\include\xstring
;	COMDAT ??__FstrFileName@?1??GetFromPack@CEterPackManager@@QAE_NAAVCMappedFile@@PBDPAPBX@Z@YAXXZ
text$yd	SEGMENT
??__FstrFileName@?1??GetFromPack@CEterPackManager@@QAE_NAAVCMappedFile@@PBDPAPBX@Z@YAXXZ PROC ; `CEterPackManager::GetFromPack'::`2'::`dynamic atexit destructor for 'strFileName'', COMDAT

; 2319 :         return _BUF_SIZE <= _Myres;

  00000	8b 15 14 00 00
	00		 mov	 edx, DWORD PTR ?strFileName@?1??GetFromPack@CEterPackManager@@QAE_NAAVCMappedFile@@PBDPAPBX@Z@4V?$basic_string@DU?$char_traits@D@std@@V?$allocator@D@2@@std@@A+20
  00006	83 fa 10	 cmp	 edx, 16			; 00000010H

; 4618 :         if (_Mypair._Myval2._Large_string_engaged()) {

  00009	72 2f		 jb	 SHORT $LN15@dynamic
; File C:\Program Files (x86)\Microsoft Visual Studio\2019\Professional\VC\Tools\MSVC\14.29.30133\include\xmemory

; 835  :         _Deallocate<_New_alignof<_Ty>>(_Ptr, sizeof(_Ty) * _Count);

  0000b	8b 0d 00 00 00
	00		 mov	 ecx, DWORD PTR ?strFileName@?1??GetFromPack@CEterPackManager@@QAE_NAAVCMappedFile@@PBDPAPBX@Z@4V?$basic_string@DU?$char_traits@D@std@@V?$allocator@D@2@@std@@A
; File C:\Program Files (x86)\Microsoft Visual Studio\2019\Professional\VC\Tools\MSVC\14.29.30133\include\xstring

; 4622 :             _Al.deallocate(_Ptr, _Mypair._Myval2._Myres + 1);

  00011	42		 inc	 edx
; File C:\Program Files (x86)\Microsoft Visual Studio\2019\Professional\VC\Tools\MSVC\14.29.30133\include\xmemory

; 835  :         _Deallocate<_New_alignof<_Ty>>(_Ptr, sizeof(_Ty) * _Count);

  00012	8b c1		 mov	 eax, ecx

; 260  :         if (_Bytes >= _Big_allocation_threshold) { // boost the alignment of big allocations to help autovectorization

  00014	81 fa 00 10 00
	00		 cmp	 edx, 4096		; 00001000H
  0001a	72 14		 jb	 SHORT $LN25@dynamic

; 158  :     const uintptr_t _Ptr_container   = _Ptr_user[-1];

  0001c	8b 49 fc	 mov	 ecx, DWORD PTR [ecx-4]
  0001f	83 c2 23	 add	 edx, 35			; 00000023H
  00022	2b c1		 sub	 eax, ecx

; 159  : 
; 160  :     // If the following asserts, it likely means that we are performing
; 161  :     // an aligned delete on memory coming from an unaligned allocation.
; 162  :     _STL_ASSERT(_Ptr_user[-2] == _Big_allocation_sentinel, "invalid argument");
; 163  : 
; 164  :     // Extra paranoia on aligned allocation/deallocation; ensure _Ptr_container is
; 165  :     // in range [_Min_back_shift, _Non_user_size]
; 166  : #ifdef _DEBUG
; 167  :     constexpr uintptr_t _Min_back_shift = 2 * sizeof(void*);
; 168  : #else // ^^^ _DEBUG ^^^ // vvv !_DEBUG vvv
; 169  :     constexpr uintptr_t _Min_back_shift = sizeof(void*);
; 170  : #endif // _DEBUG
; 171  :     const uintptr_t _Back_shift = reinterpret_cast<uintptr_t>(_Ptr) - _Ptr_container;
; 172  :     _STL_VERIFY(_Back_shift >= _Min_back_shift && _Back_shift <= _Non_user_size, "invalid argument");

  00024	83 c0 fc	 add	 eax, -4			; fffffffcH
  00027	83 f8 1f	 cmp	 eax, 31			; 0000001fH
  0002a	0f 87 00 00 00
	00		 ja	 __invalid_parameter_noinfo_noreturn
$LN25@dynamic:

; 264  :         ::operator delete(_Ptr, _Bytes);

  00030	52		 push	 edx
  00031	51		 push	 ecx
  00032	e8 00 00 00 00	 call	 ??3@YAXPAXI@Z		; operator delete
  00037	83 c4 08	 add	 esp, 8
$LN15@dynamic:
; File C:\Program Files (x86)\Microsoft Visual Studio\2019\Professional\VC\Tools\MSVC\14.29.30133\include\xstring

; 4633 :             _Mypair._Myval2._Mysize = 0;

  0003a	c7 05 10 00 00
	00 00 00 00 00	 mov	 DWORD PTR ?strFileName@?1??GetFromPack@CEterPackManager@@QAE_NAAVCMappedFile@@PBDPAPBX@Z@4V?$basic_string@DU?$char_traits@D@std@@V?$allocator@D@2@@std@@A+16, 0

; 4634 :             _Mypair._Myval2._Myres  = _BUF_SIZE - 1;

  00044	c7 05 14 00 00
	00 0f 00 00 00	 mov	 DWORD PTR ?strFileName@?1??GetFromPack@CEterPackManager@@QAE_NAAVCMappedFile@@PBDPAPBX@Z@4V?$basic_string@DU?$char_traits@D@std@@V?$allocator@D@2@@std@@A+20, 15 ; 0000000fH

; 4635 :             // the _Traits::assign is last so the codegen doesn't think the char write can alias this
; 4636 :             _Traits::assign(_Mypair._Myval2._Bx._Buf[0], _Elem());

  0004e	c6 05 00 00 00
	00 00		 mov	 BYTE PTR ?strFileName@?1??GetFromPack@CEterPackManager@@QAE_NAAVCMappedFile@@PBDPAPBX@Z@4V?$basic_string@DU?$char_traits@D@std@@V?$allocator@D@2@@std@@A, 0
  00055	c3		 ret	 0
??__FstrFileName@?1??GetFromPack@CEterPackManager@@QAE_NAAVCMappedFile@@PBDPAPBX@Z@YAXXZ ENDP ; `CEterPackManager::GetFromPack'::`2'::`dynamic atexit destructor for 'strFileName''
text$yd	ENDS
; Function compile flags: /Ogtp
; File C:\Users\murat\Desktop\Siveps2-1-99-Project\source\client\Client\EterPack\EterPackManager.cpp
;	COMDAT ??1FinderLock@@QAE@XZ
_TEXT	SEGMENT
??1FinderLock@@QAE@XZ PROC				; FinderLock::~FinderLock, COMDAT
; _this$ = ecx

; 192  : 		LeaveCriticalSection(p_cs);

  00000	ff 31		 push	 DWORD PTR [ecx]
  00002	ff 15 00 00 00
	00		 call	 DWORD PTR __imp__LeaveCriticalSection@4

; 193  : 	}

  00008	c3		 ret	 0
??1FinderLock@@QAE@XZ ENDP				; FinderLock::~FinderLock
_TEXT	ENDS
; Function compile flags: /Ogtp
; File C:\Program Files (x86)\Microsoft Visual Studio\2019\Professional\VC\Tools\MSVC\14.29.30133\include\xstring
; File C:\Program Files (x86)\Microsoft Visual Studio\2019\Professional\VC\Tools\MSVC\14.29.30133\include\xmemory
; File C:\Program Files (x86)\Microsoft Visual Studio\2019\Professional\VC\Tools\MSVC\14.29.30133\include\xstring
; File C:\Program Files (x86)\Microsoft Visual Studio\2019\Professional\VC\Tools\MSVC\14.29.30133\include\xmemory
; File C:\Program Files (x86)\Microsoft Visual Studio\2019\Professional\VC\Tools\MSVC\14.29.30133\include\xstring
; File C:\Program Files (x86)\Microsoft Visual Studio\2019\Professional\VC\Tools\MSVC\14.29.30133\include\xmemory
;	COMDAT ??1?$pair@$$CBV?$basic_string@DU?$char_traits@D@std@@V?$allocator@D@2@@std@@PAVCEterPack@@@std@@QAE@XZ
_TEXT	SEGMENT
??1?$pair@$$CBV?$basic_string@DU?$char_traits@D@std@@V?$allocator@D@2@@std@@PAVCEterPack@@@std@@QAE@XZ PROC ; std::pair<std::basic_string<char,std::char_traits<char>,std::allocator<char> > const ,CEterPack *>::~pair<std::basic_string<char,std::char_traits<char>,std::allocator<char> > const ,CEterPack *>, COMDAT
; _this$ = ecx
; File C:\Program Files (x86)\Microsoft Visual Studio\2019\Professional\VC\Tools\MSVC\14.29.30133\include\xstring

; 2319 :         return _BUF_SIZE <= _Myres;

  00000	56		 push	 esi
  00001	8b f1		 mov	 esi, ecx
  00003	8b 4e 14	 mov	 ecx, DWORD PTR [esi+20]
  00006	83 f9 10	 cmp	 ecx, 16			; 00000010H

; 4618 :         if (_Mypair._Myval2._Large_string_engaged()) {

  00009	72 27		 jb	 SHORT $LN15@pair
; File C:\Program Files (x86)\Microsoft Visual Studio\2019\Professional\VC\Tools\MSVC\14.29.30133\include\xmemory

; 835  :         _Deallocate<_New_alignof<_Ty>>(_Ptr, sizeof(_Ty) * _Count);

  0000b	8b 06		 mov	 eax, DWORD PTR [esi]
; File C:\Program Files (x86)\Microsoft Visual Studio\2019\Professional\VC\Tools\MSVC\14.29.30133\include\xstring

; 4622 :             _Al.deallocate(_Ptr, _Mypair._Myval2._Myres + 1);

  0000d	41		 inc	 ecx
; File C:\Program Files (x86)\Microsoft Visual Studio\2019\Professional\VC\Tools\MSVC\14.29.30133\include\xmemory

; 260  :         if (_Bytes >= _Big_allocation_threshold) { // boost the alignment of big allocations to help autovectorization

  0000e	81 f9 00 10 00
	00		 cmp	 ecx, 4096		; 00001000H
  00014	72 12		 jb	 SHORT $LN25@pair

; 158  :     const uintptr_t _Ptr_container   = _Ptr_user[-1];

  00016	8b 50 fc	 mov	 edx, DWORD PTR [eax-4]
  00019	83 c1 23	 add	 ecx, 35			; 00000023H

; 159  : 
; 160  :     // If the following asserts, it likely means that we are performing
; 161  :     // an aligned delete on memory coming from an unaligned allocation.
; 162  :     _STL_ASSERT(_Ptr_user[-2] == _Big_allocation_sentinel, "invalid argument");
; 163  : 
; 164  :     // Extra paranoia on aligned allocation/deallocation; ensure _Ptr_container is
; 165  :     // in range [_Min_back_shift, _Non_user_size]
; 166  : #ifdef _DEBUG
; 167  :     constexpr uintptr_t _Min_back_shift = 2 * sizeof(void*);
; 168  : #else // ^^^ _DEBUG ^^^ // vvv !_DEBUG vvv
; 169  :     constexpr uintptr_t _Min_back_shift = sizeof(void*);
; 170  : #endif // _DEBUG
; 171  :     const uintptr_t _Back_shift = reinterpret_cast<uintptr_t>(_Ptr) - _Ptr_container;

  0001c	2b c2		 sub	 eax, edx

; 172  :     _STL_VERIFY(_Back_shift >= _Min_back_shift && _Back_shift <= _Non_user_size, "invalid argument");

  0001e	83 c0 fc	 add	 eax, -4			; fffffffcH
  00021	83 f8 1f	 cmp	 eax, 31			; 0000001fH
  00024	77 1f		 ja	 SHORT $LN22@pair

; 173  :     _Ptr = reinterpret_cast<void*>(_Ptr_container);

  00026	8b c2		 mov	 eax, edx
$LN25@pair:

; 264  :         ::operator delete(_Ptr, _Bytes);

  00028	51		 push	 ecx
  00029	50		 push	 eax
  0002a	e8 00 00 00 00	 call	 ??3@YAXPAXI@Z		; operator delete
  0002f	83 c4 08	 add	 esp, 8
$LN15@pair:
; File C:\Program Files (x86)\Microsoft Visual Studio\2019\Professional\VC\Tools\MSVC\14.29.30133\include\xstring

; 4633 :             _Mypair._Myval2._Mysize = 0;

  00032	c7 46 10 00 00
	00 00		 mov	 DWORD PTR [esi+16], 0

; 4634 :             _Mypair._Myval2._Myres  = _BUF_SIZE - 1;

  00039	c7 46 14 0f 00
	00 00		 mov	 DWORD PTR [esi+20], 15	; 0000000fH

; 4635 :             // the _Traits::assign is last so the codegen doesn't think the char write can alias this
; 4636 :             _Traits::assign(_Mypair._Myval2._Bx._Buf[0], _Elem());

  00040	c6 06 00	 mov	 BYTE PTR [esi], 0
  00043	5e		 pop	 esi
  00044	c3		 ret	 0
$LN22@pair:
; File C:\Program Files (x86)\Microsoft Visual Studio\2019\Professional\VC\Tools\MSVC\14.29.30133\include\xmemory

; 172  :     _STL_VERIFY(_Back_shift >= _Min_back_shift && _Back_shift <= _Non_user_size, "invalid argument");

  00045	e8 00 00 00 00	 call	 __invalid_parameter_noinfo_noreturn
$LN31@pair:
  0004a	cc		 int	 3
??1?$pair@$$CBV?$basic_string@DU?$char_traits@D@std@@V?$allocator@D@2@@std@@PAVCEterPack@@@std@@QAE@XZ ENDP ; std::pair<std::basic_string<char,std::char_traits<char>,std::allocator<char> > const ,CEterPack *>::~pair<std::basic_string<char,std::char_traits<char>,std::allocator<char> > const ,CEterPack *>
_TEXT	ENDS
; Function compile flags: /Ogtp
;	COMDAT ??_GCEterPackManager@@UAEPAXI@Z
_TEXT	SEGMENT
___flags$ = 8						; size = 4
??_GCEterPackManager@@UAEPAXI@Z PROC			; CEterPackManager::`scalar deleting destructor', COMDAT
; _this$ = ecx
  00000	55		 push	 ebp
  00001	8b ec		 mov	 ebp, esp
  00003	56		 push	 esi
  00004	8b f1		 mov	 esi, ecx
  00006	e8 00 00 00 00	 call	 ??1CEterPackManager@@UAE@XZ ; CEterPackManager::~CEterPackManager
  0000b	f6 45 08 01	 test	 BYTE PTR ___flags$[ebp], 1
  0000f	74 0e		 je	 SHORT $LN4@scalar
  00011	68 78 14 00 00	 push	 5240			; 00001478H
  00016	56		 push	 esi
  00017	e8 00 00 00 00	 call	 ??3@YAXPAXI@Z		; operator delete
  0001c	83 c4 08	 add	 esp, 8
$LN4@scalar:
  0001f	8b c6		 mov	 eax, esi
  00021	5e		 pop	 esi
  00022	5d		 pop	 ebp
  00023	c2 04 00	 ret	 4
??_GCEterPackManager@@UAEPAXI@Z ENDP			; CEterPackManager::`scalar deleting destructor'
_TEXT	ENDS
; Function compile flags: /Ogtp
; File C:\Users\murat\Desktop\Siveps2-1-99-Project\source\client\extern\include\boost\unordered\unordered_map.hpp
; File C:\Users\murat\Desktop\Siveps2-1-99-Project\source\client\extern\include\boost\unordered\detail\implementation.hpp
; File C:\Users\murat\Desktop\Siveps2-1-99-Project\source\client\extern\include\boost\container_hash\hash.hpp
; File C:\Users\murat\Desktop\Siveps2-1-99-Project\source\client\extern\include\boost\unordered\detail\implementation.hpp
; File C:\Users\murat\Desktop\Siveps2-1-99-Project\source\client\extern\include\boost\unordered\unordered_map.hpp
; File C:\Users\murat\Desktop\Siveps2-1-99-Project\source\client\extern\include\boost\unordered\detail\implementation.hpp
; File C:\Users\murat\Desktop\Siveps2-1-99-Project\source\client\extern\include\boost\unordered\unordered_map.hpp
;	COMDAT ?find@?$unordered_map@KUSCache@CEterPackManager@@U?$hash@K@boost@@U?$equal_to@K@std@@V?$allocator@U?$pair@$$CBKUSCache@CEterPackManager@@@std@@@6@@unordered@boost@@QAE?AU?$iterator@U?$ptr_node@U?$pair@$$CBKUSCache@CEterPackManager@@@std@@@detail@unordered@boost@@@iterator_detail@23@ABK@Z
_TEXT	SEGMENT
___$ReturnUdt$ = 8					; size = 4
_k$ = 12						; size = 4
?find@?$unordered_map@KUSCache@CEterPackManager@@U?$hash@K@boost@@U?$equal_to@K@std@@V?$allocator@U?$pair@$$CBKUSCache@CEterPackManager@@@std@@@6@@unordered@boost@@QAE?AU?$iterator@U?$ptr_node@U?$pair@$$CBKUSCache@CEterPackManager@@@std@@@detail@unordered@boost@@@iterator_detail@23@ABK@Z PROC ; boost::unordered::unordered_map<unsigned long,CEterPackManager::SCache,boost::hash<unsigned long>,std::equal_to<unsigned long>,std::allocator<std::pair<unsigned long const ,CEterPackManager::SCache> > >::find, COMDAT
; _this$ = ecx

; 1803 :     {

  00000	55		 push	 ebp
  00001	8b ec		 mov	 ebp, esp
  00003	56		 push	 esi
  00004	8b f1		 mov	 esi, ecx
; File C:\Users\murat\Desktop\Siveps2-1-99-Project\source\client\extern\include\boost\unordered\detail\implementation.hpp

; 2791 :           return *static_cast<function_pair const*>(

  00006	0f b6 06	 movzx	 eax, BYTE PTR [esi]
  00009	8d 56 01	 lea	 edx, DWORD PTR [esi+1]
  0000c	83 e0 01	 and	 eax, 1
  0000f	03 d0		 add	 edx, eax

; 3581 :           return this->find_node_impl(hash(k), k, this->key_eq());

  00011	8d 42 01	 lea	 eax, DWORD PTR [edx+1]
  00014	f7 da		 neg	 edx
  00016	1b d2		 sbb	 edx, edx
  00018	23 d0		 and	 edx, eax
  0001a	8b 45 0c	 mov	 eax, DWORD PTR _k$[ebp]
  0001d	52		 push	 edx
  0001e	50		 push	 eax
; File C:\Users\murat\Desktop\Siveps2-1-99-Project\source\client\extern\include\boost\container_hash\hash.hpp

; 621  :     BOOST_HASH_SPECIALIZE(unsigned long)

  0001f	ff 30		 push	 DWORD PTR [eax]
  00021	e8 00 00 00 00	 call	 ??$hash_value@K@boost@@YAIK@Z ; boost::hash_value<unsigned long>
  00026	83 c4 04	 add	 esp, 4
; File C:\Users\murat\Desktop\Siveps2-1-99-Project\source\client\extern\include\boost\unordered\detail\implementation.hpp

; 3581 :           return this->find_node_impl(hash(k), k, this->key_eq());

  00029	8b ce		 mov	 ecx, esi
  0002b	50		 push	 eax
  0002c	e8 00 00 00 00	 call	 ??$find_node_impl@KU?$equal_to@K@std@@@?$table@U?$map@V?$allocator@U?$pair@$$CBKUSCache@CEterPackManager@@@std@@@std@@KUSCache@CEterPackManager@@U?$hash@K@boost@@U?$equal_to@K@2@@detail@unordered@boost@@@detail@unordered@boost@@QBEPAU?$ptr_node@U?$pair@$$CBKUSCache@CEterPackManager@@@std@@@123@IABKABU?$equal_to@K@std@@@Z ; boost::unordered::detail::table<boost::unordered::detail::map<std::allocator<std::pair<unsigned long const ,CEterPackManager::SCache> >,unsigned long,CEterPackManager::SCache,boost::hash<unsigned long>,std::equal_to<unsigned long> > >::find_node_impl<unsigned long,std::equal_to<unsigned long> >

; 2371 :           : node_(static_cast<node_pointer>(x))

  00031	8b 4d 08	 mov	 ecx, DWORD PTR ___$ReturnUdt$[ebp]
; File C:\Users\murat\Desktop\Siveps2-1-99-Project\source\client\extern\include\boost\unordered\unordered_map.hpp

; 1804 :       return iterator(table_.find_node(k));

  00034	5e		 pop	 esi
; File C:\Users\murat\Desktop\Siveps2-1-99-Project\source\client\extern\include\boost\unordered\detail\implementation.hpp

; 2371 :           : node_(static_cast<node_pointer>(x))

  00035	89 01		 mov	 DWORD PTR [ecx], eax
; File C:\Users\murat\Desktop\Siveps2-1-99-Project\source\client\extern\include\boost\unordered\unordered_map.hpp

; 1804 :       return iterator(table_.find_node(k));

  00037	8b c1		 mov	 eax, ecx

; 1805 :     }

  00039	5d		 pop	 ebp
  0003a	c2 08 00	 ret	 8
?find@?$unordered_map@KUSCache@CEterPackManager@@U?$hash@K@boost@@U?$equal_to@K@std@@V?$allocator@U?$pair@$$CBKUSCache@CEterPackManager@@@std@@@6@@unordered@boost@@QAE?AU?$iterator@U?$ptr_node@U?$pair@$$CBKUSCache@CEterPackManager@@@std@@@detail@unordered@boost@@@iterator_detail@23@ABK@Z ENDP ; boost::unordered::unordered_map<unsigned long,CEterPackManager::SCache,boost::hash<unsigned long>,std::equal_to<unsigned long>,std::allocator<std::pair<unsigned long const ,CEterPackManager::SCache> > >::find
_TEXT	ENDS
; Function compile flags: /Ogtp
; File C:\Users\murat\Desktop\Siveps2-1-99-Project\source\client\extern\include\boost\unordered\unordered_map.hpp
;	COMDAT ??1?$unordered_map@KUSCache@CEterPackManager@@U?$hash@K@boost@@U?$equal_to@K@std@@V?$allocator@U?$pair@$$CBKUSCache@CEterPackManager@@@std@@@6@@unordered@boost@@QAE@XZ
_TEXT	SEGMENT
??1?$unordered_map@KUSCache@CEterPackManager@@U?$hash@K@boost@@U?$equal_to@K@std@@V?$allocator@U?$pair@$$CBKUSCache@CEterPackManager@@@std@@@6@@unordered@boost@@QAE@XZ PROC ; boost::unordered::unordered_map<unsigned long,CEterPackManager::SCache,boost::hash<unsigned long>,std::equal_to<unsigned long>,std::allocator<std::pair<unsigned long const ,CEterPackManager::SCache> > >::~unordered_map<unsigned long,CEterPackManager::SCache,boost::hash<unsigned long>,std::equal_to<unsigned long>,std::allocator<std::pair<unsigned long const ,CEterPackManager::SCache> > >, COMDAT
; _this$ = ecx

; 1646 :     }

  00000	e9 00 00 00 00	 jmp	 ??1?$table@U?$map@V?$allocator@U?$pair@$$CBKUSCache@CEterPackManager@@@std@@@std@@KUSCache@CEterPackManager@@U?$hash@K@boost@@U?$equal_to@K@2@@detail@unordered@boost@@@detail@unordered@boost@@QAE@XZ ; boost::unordered::detail::table<boost::unordered::detail::map<std::allocator<std::pair<unsigned long const ,CEterPackManager::SCache> >,unsigned long,CEterPackManager::SCache,boost::hash<unsigned long>,std::equal_to<unsigned long> > >::~table<boost::unordered::detail::map<std::allocator<std::pair<unsigned long const ,CEterPackManager::SCache> >,unsigned long,CEterPackManager::SCache,boost::hash<unsigned long>,std::equal_to<unsigned long> > >
??1?$unordered_map@KUSCache@CEterPackManager@@U?$hash@K@boost@@U?$equal_to@K@std@@V?$allocator@U?$pair@$$CBKUSCache@CEterPackManager@@@std@@@6@@unordered@boost@@QAE@XZ ENDP ; boost::unordered::unordered_map<unsigned long,CEterPackManager::SCache,boost::hash<unsigned long>,std::equal_to<unsigned long>,std::allocator<std::pair<unsigned long const ,CEterPackManager::SCache> > >::~unordered_map<unsigned long,CEterPackManager::SCache,boost::hash<unsigned long>,std::equal_to<unsigned long>,std::allocator<std::pair<unsigned long const ,CEterPackManager::SCache> > >
_TEXT	ENDS
; Function compile flags: /Ogtp
; File C:\Users\murat\Desktop\Siveps2-1-99-Project\source\client\extern\include\boost\unordered\unordered_map.hpp
; File C:\Users\murat\Desktop\Siveps2-1-99-Project\source\client\extern\include\boost\unordered\detail\implementation.hpp
; File C:\Users\murat\Desktop\Siveps2-1-99-Project\source\client\extern\include\boost\unordered\unordered_map.hpp
; File C:\Users\murat\Desktop\Siveps2-1-99-Project\source\client\extern\include\boost\unordered\detail\implementation.hpp
; File C:\Users\murat\Desktop\Siveps2-1-99-Project\source\client\extern\include\boost\unordered\unordered_map.hpp
; File C:\Users\murat\Desktop\Siveps2-1-99-Project\source\client\extern\include\boost\unordered\detail\implementation.hpp
; File C:\Users\murat\Desktop\Siveps2-1-99-Project\source\client\extern\include\boost\unordered\unordered_map.hpp
;	COMDAT ??0?$unordered_map@KUSCache@CEterPackManager@@U?$hash@K@boost@@U?$equal_to@K@std@@V?$allocator@U?$pair@$$CBKUSCache@CEterPackManager@@@std@@@6@@unordered@boost@@QAE@XZ
_TEXT	SEGMENT
_this$ = -4						; size = 4
??0?$unordered_map@KUSCache@CEterPackManager@@U?$hash@K@boost@@U?$equal_to@K@std@@V?$allocator@U?$pair@$$CBKUSCache@CEterPackManager@@@std@@@6@@unordered@boost@@QAE@XZ PROC ; boost::unordered::unordered_map<unsigned long,CEterPackManager::SCache,boost::hash<unsigned long>,std::equal_to<unsigned long>,std::allocator<std::pair<unsigned long const ,CEterPackManager::SCache> > >::unordered_map<unsigned long,CEterPackManager::SCache,boost::hash<unsigned long>,std::equal_to<unsigned long>,std::allocator<std::pair<unsigned long const ,CEterPackManager::SCache> > >, COMDAT
; _this$ = ecx

; 1510 :     {

  00000	55		 push	 ebp
  00001	8b ec		 mov	 ebp, esp
  00003	51		 push	 ecx
  00004	56		 push	 esi
  00005	8b f1		 mov	 esi, ecx
; File C:\Users\murat\Desktop\Siveps2-1-99-Project\source\client\extern\include\boost\unordered\detail\implementation.hpp

; 3121 :               bucket_count_(policy::new_bucket_count(num_buckets)), size_(0),

  00007	6a 0b		 push	 11			; 0000000bH
; File C:\Users\murat\Desktop\Siveps2-1-99-Project\source\client\extern\include\boost\unordered\unordered_map.hpp

; 1510 :     {

  00009	89 75 fc	 mov	 DWORD PTR _this$[ebp], esi
; File C:\Users\murat\Desktop\Siveps2-1-99-Project\source\client\extern\include\boost\unordered\detail\implementation.hpp

; 2761 :         functions(H const& hf, P const& eq) : current_(0)

  0000c	c6 06 00	 mov	 BYTE PTR [esi], 0

; 3121 :               bucket_count_(policy::new_bucket_count(num_buckets)), size_(0),

  0000f	e8 00 00 00 00	 call	 ?new_bucket_count@?$prime_policy@I@detail@unordered@boost@@SAII@Z ; boost::unordered::detail::prime_policy<unsigned int>::new_bucket_count
  00014	83 c4 04	 add	 esp, 4
  00017	89 46 04	 mov	 DWORD PTR [esi+4], eax
  0001a	c7 46 08 00 00
	00 00		 mov	 DWORD PTR [esi+8], 0
; File C:\Users\murat\Desktop\Siveps2-1-99-Project\source\client\extern\include\boost\unordered\unordered_map.hpp

; 1511 :     }

  00021	8b c6		 mov	 eax, esi
; File C:\Users\murat\Desktop\Siveps2-1-99-Project\source\client\extern\include\boost\unordered\detail\implementation.hpp

; 3122 :               mlf_(1.0f), max_load_(0), buckets_()

  00023	c7 46 0c 00 00
	80 3f		 mov	 DWORD PTR [esi+12], 1065353216 ; 3f800000H
  0002a	c7 46 10 00 00
	00 00		 mov	 DWORD PTR [esi+16], 0
  00031	c7 46 14 00 00
	00 00		 mov	 DWORD PTR [esi+20], 0
; File C:\Users\murat\Desktop\Siveps2-1-99-Project\source\client\extern\include\boost\unordered\unordered_map.hpp

; 1511 :     }

  00038	5e		 pop	 esi
  00039	8b e5		 mov	 esp, ebp
  0003b	5d		 pop	 ebp
  0003c	c3		 ret	 0
??0?$unordered_map@KUSCache@CEterPackManager@@U?$hash@K@boost@@U?$equal_to@K@std@@V?$allocator@U?$pair@$$CBKUSCache@CEterPackManager@@@std@@@6@@unordered@boost@@QAE@XZ ENDP ; boost::unordered::unordered_map<unsigned long,CEterPackManager::SCache,boost::hash<unsigned long>,std::equal_to<unsigned long>,std::allocator<std::pair<unsigned long const ,CEterPackManager::SCache> > >::unordered_map<unsigned long,CEterPackManager::SCache,boost::hash<unsigned long>,std::equal_to<unsigned long>,std::allocator<std::pair<unsigned long const ,CEterPackManager::SCache> > >
_TEXT	ENDS
; Function compile flags: /Ogtp
; File C:\Users\murat\Desktop\Siveps2-1-99-Project\source\client\extern\include\boost\unordered\detail\implementation.hpp
; File C:\Users\murat\Desktop\Siveps2-1-99-Project\source\client\extern\include\boost\container_hash\hash.hpp
; File C:\Users\murat\Desktop\Siveps2-1-99-Project\source\client\extern\include\boost\unordered\detail\implementation.hpp
; File C:\Users\murat\Desktop\Siveps2-1-99-Project\source\client\extern\include\boost\container_hash\hash.hpp
; File C:\Users\murat\Desktop\Siveps2-1-99-Project\source\client\extern\include\boost\unordered\detail\implementation.hpp
; File C:\Users\murat\Desktop\Siveps2-1-99-Project\source\client\extern\include\boost\container_hash\hash.hpp
; File C:\Users\murat\Desktop\Siveps2-1-99-Project\source\client\extern\include\boost\unordered\detail\implementation.hpp
;	COMDAT ?rehash_impl@?$table@U?$map@V?$allocator@U?$pair@$$CBKUSCache@CEterPackManager@@@std@@@std@@KUSCache@CEterPackManager@@U?$hash@K@boost@@U?$equal_to@K@2@@detail@unordered@boost@@@detail@unordered@boost@@QAEXI@Z
_TEXT	SEGMENT
_this$1$ = -4						; size = 4
_num_buckets$ = 8					; size = 4
?rehash_impl@?$table@U?$map@V?$allocator@U?$pair@$$CBKUSCache@CEterPackManager@@@std@@@std@@KUSCache@CEterPackManager@@U?$hash@K@boost@@U?$equal_to@K@2@@detail@unordered@boost@@@detail@unordered@boost@@QAEXI@Z PROC ; boost::unordered::detail::table<boost::unordered::detail::map<std::allocator<std::pair<unsigned long const ,CEterPackManager::SCache> >,unsigned long,CEterPackManager::SCache,boost::hash<unsigned long>,std::equal_to<unsigned long> > >::rehash_impl, COMDAT
; _this$ = ecx

; 4577 :       {

  00000	55		 push	 ebp
  00001	8b ec		 mov	 ebp, esp
  00003	51		 push	 ecx
  00004	53		 push	 ebx
  00005	57		 push	 edi

; 4578 :         BOOST_ASSERT(this->buckets_);
; 4579 : 
; 4580 :         this->create_buckets(num_buckets);

  00006	ff 75 08	 push	 DWORD PTR _num_buckets$[ebp]
  00009	8b d9		 mov	 ebx, ecx
  0000b	89 5d fc	 mov	 DWORD PTR _this$1$[ebp], ebx
  0000e	e8 00 00 00 00	 call	 ?create_buckets@?$table@U?$map@V?$allocator@U?$pair@$$CBKUSCache@CEterPackManager@@@std@@@std@@KUSCache@CEterPackManager@@U?$hash@K@boost@@U?$equal_to@K@2@@detail@unordered@boost@@@detail@unordered@boost@@QAEXI@Z ; boost::unordered::detail::table<boost::unordered::detail::map<std::allocator<std::pair<unsigned long const ,CEterPackManager::SCache> >,unsigned long,CEterPackManager::SCache,boost::hash<unsigned long>,std::equal_to<unsigned long> > >::create_buckets

; 3026 :           return buckets_ + static_cast<std::ptrdiff_t>(bucket_index);

  00013	8b 53 04	 mov	 edx, DWORD PTR [ebx+4]
  00016	8b 43 14	 mov	 eax, DWORD PTR [ebx+20]

; 4581 :         link_pointer prev = this->get_previous_start();
; 4582 :         BOOST_TRY
; 4583 :         {
; 4584 :           while (prev->next_) {

  00019	8b 3c 90	 mov	 edi, DWORD PTR [eax+edx*4]

; 3026 :           return buckets_ + static_cast<std::ptrdiff_t>(bucket_index);

  0001c	8d 1c 90	 lea	 ebx, DWORD PTR [eax+edx*4]

; 4581 :         link_pointer prev = this->get_previous_start();
; 4582 :         BOOST_TRY
; 4583 :         {
; 4584 :           while (prev->next_) {

  0001f	85 ff		 test	 edi, edi
  00021	74 77		 je	 SHORT $LN3@rehash_imp
  00023	56		 push	 esi
$LL2@rehash_imp:
; File C:\Users\murat\Desktop\Siveps2-1-99-Project\source\client\extern\include\boost\container_hash\hash.hpp

; 621  :     BOOST_HASH_SPECIALIZE(unsigned long)

  00024	ff 77 08	 push	 DWORD PTR [edi+8]
; File C:\Users\murat\Desktop\Siveps2-1-99-Project\source\client\extern\include\boost\unordered\detail\implementation.hpp

; 4585 :             node_pointer n = next_node(prev);

  00027	8b f7		 mov	 esi, edi
; File C:\Users\murat\Desktop\Siveps2-1-99-Project\source\client\extern\include\boost\container_hash\hash.hpp

; 621  :     BOOST_HASH_SPECIALIZE(unsigned long)

  00029	e8 00 00 00 00	 call	 ??$hash_value@K@boost@@YAIK@Z ; boost::hash_value<unsigned long>
; File C:\Users\murat\Desktop\Siveps2-1-99-Project\source\client\extern\include\boost\unordered\detail\implementation.hpp

; 2604 :           return hash % bucket_count;

  0002e	8b 4d fc	 mov	 ecx, DWORD PTR _this$1$[ebp]
  00031	33 d2		 xor	 edx, edx
; File C:\Users\murat\Desktop\Siveps2-1-99-Project\source\client\extern\include\boost\container_hash\hash.hpp

; 621  :     BOOST_HASH_SPECIALIZE(unsigned long)

  00033	83 c4 04	 add	 esp, 4
; File C:\Users\murat\Desktop\Siveps2-1-99-Project\source\client\extern\include\boost\unordered\detail\implementation.hpp

; 2604 :           return hash % bucket_count;

  00036	f7 71 04	 div	 DWORD PTR [ecx+4]

; 4883 :           bucket_info_ = bucket_info_ & ((std::size_t)-1 >> 1);

  00039	8b c2		 mov	 eax, edx
  0003b	25 ff ff ff 7f	 and	 eax, 2147483647		; 7fffffffH
  00040	89 47 04	 mov	 DWORD PTR [edi+4], eax

; 4586 :             std::size_t key_hash = this->hash(this->get_key(n));
; 4587 :             std::size_t bucket_index = this->hash_to_bucket(key_hash);
; 4588 : 
; 4589 :             n->bucket_info_ = bucket_index;
; 4590 :             n->set_first_in_group();
; 4591 : 
; 4592 :             // Iterator through the rest of the group of equal nodes,
; 4593 :             // setting the bucket.
; 4594 :             for (;;) {
; 4595 :               node_pointer next = next_node(n);

  00043	8b 07		 mov	 eax, DWORD PTR [edi]

; 4596 :               if (!next || next->is_first_in_group()) {

  00045	85 c0		 test	 eax, eax
  00047	74 27		 je	 SHORT $LN53@rehash_imp
  00049	0f 1f 80 00 00
	00 00		 npad	 7
$LL4@rehash_imp:

; 4878 :           return !(bucket_info_ & ~((std::size_t)-1 >> 1));

  00050	8b 48 04	 mov	 ecx, DWORD PTR [eax+4]
  00053	c1 e9 1f	 shr	 ecx, 31			; 0000001fH
  00056	f7 d1		 not	 ecx
  00058	f6 c1 01	 test	 cl, 1

; 4596 :               if (!next || next->is_first_in_group()) {

  0005b	75 13		 jne	 SHORT $LN53@rehash_imp

; 4888 :           bucket_info_ = bucket_info_ | ~((std::size_t)-1 >> 1);

  0005d	8b ca		 mov	 ecx, edx

; 4597 :                 break;
; 4598 :               }
; 4599 :               n = next;

  0005f	8b f0		 mov	 esi, eax

; 4888 :           bucket_info_ = bucket_info_ | ~((std::size_t)-1 >> 1);

  00061	81 c9 00 00 00
	80		 or	 ecx, -2147483648	; 80000000H
  00067	89 48 04	 mov	 DWORD PTR [eax+4], ecx

; 4586 :             std::size_t key_hash = this->hash(this->get_key(n));
; 4587 :             std::size_t bucket_index = this->hash_to_bucket(key_hash);
; 4588 : 
; 4589 :             n->bucket_info_ = bucket_index;
; 4590 :             n->set_first_in_group();
; 4591 : 
; 4592 :             // Iterator through the rest of the group of equal nodes,
; 4593 :             // setting the bucket.
; 4594 :             for (;;) {
; 4595 :               node_pointer next = next_node(n);

  0006a	8b 00		 mov	 eax, DWORD PTR [eax]

; 4596 :               if (!next || next->is_first_in_group()) {

  0006c	85 c0		 test	 eax, eax
  0006e	75 e0		 jne	 SHORT $LL4@rehash_imp
$LN53@rehash_imp:

; 3026 :           return buckets_ + static_cast<std::ptrdiff_t>(bucket_index);

  00070	8b 45 fc	 mov	 eax, DWORD PTR _this$1$[ebp]
  00073	8b 40 14	 mov	 eax, DWORD PTR [eax+20]
  00076	8d 0c 90	 lea	 ecx, DWORD PTR [eax+edx*4]

; 4600 :               n->bucket_info_ = bucket_index;
; 4601 :               n->reset_first_in_group();
; 4602 :             }
; 4603 : 
; 4604 :             // n is now the last node in the group
; 4605 :             bucket_pointer b = this->get_bucket_pointer(bucket_index);
; 4606 :             if (!b->next_) {

  00079	8b 01		 mov	 eax, DWORD PTR [ecx]
  0007b	85 c0		 test	 eax, eax
  0007d	75 08		 jne	 SHORT $LN12@rehash_imp

; 4607 :               b->next_ = prev;

  0007f	89 19		 mov	 DWORD PTR [ecx], ebx

; 4608 :               prev = n;

  00081	8b de		 mov	 ebx, esi
  00083	8b 3e		 mov	 edi, DWORD PTR [esi]

; 4609 :             } else {

  00085	eb 0e		 jmp	 SHORT $LN13@rehash_imp
$LN12@rehash_imp:

; 4610 :               link_pointer next = n->next_;
; 4611 :               n->next_ = b->next_->next_;

  00087	8b 00		 mov	 eax, DWORD PTR [eax]
  00089	8b 3e		 mov	 edi, DWORD PTR [esi]
  0008b	89 06		 mov	 DWORD PTR [esi], eax

; 4612 :               b->next_->next_ = prev->next_;

  0008d	8b 09		 mov	 ecx, DWORD PTR [ecx]
  0008f	8b 03		 mov	 eax, DWORD PTR [ebx]
  00091	89 01		 mov	 DWORD PTR [ecx], eax

; 4613 :               prev->next_ = next;

  00093	89 3b		 mov	 DWORD PTR [ebx], edi
$LN13@rehash_imp:

; 4581 :         link_pointer prev = this->get_previous_start();
; 4582 :         BOOST_TRY
; 4583 :         {
; 4584 :           while (prev->next_) {

  00095	85 ff		 test	 edi, edi
  00097	75 8b		 jne	 SHORT $LL2@rehash_imp
  00099	5e		 pop	 esi
$LN3@rehash_imp:
  0009a	5f		 pop	 edi

; 4614 :             }
; 4615 :           }
; 4616 :         }
; 4617 :         BOOST_CATCH(...)
; 4618 :         {
; 4619 :           node_pointer n = next_node(prev);
; 4620 :           prev->next_ = node_pointer();
; 4621 :           while (n) {
; 4622 :             node_pointer next = next_node(n);
; 4623 :             destroy_node(n);
; 4624 :             --size_;
; 4625 :             n = next;
; 4626 :           }
; 4627 :           BOOST_RETHROW
; 4628 :         }
; 4629 :         BOOST_CATCH_END
; 4630 :       }

  0009b	5b		 pop	 ebx
  0009c	8b e5		 mov	 esp, ebp
  0009e	5d		 pop	 ebp
  0009f	c2 04 00	 ret	 4
?rehash_impl@?$table@U?$map@V?$allocator@U?$pair@$$CBKUSCache@CEterPackManager@@@std@@@std@@KUSCache@CEterPackManager@@U?$hash@K@boost@@U?$equal_to@K@2@@detail@unordered@boost@@@detail@unordered@boost@@QAEXI@Z ENDP ; boost::unordered::detail::table<boost::unordered::detail::map<std::allocator<std::pair<unsigned long const ,CEterPackManager::SCache> >,unsigned long,CEterPackManager::SCache,boost::hash<unsigned long>,std::equal_to<unsigned long> > >::rehash_impl
_TEXT	ENDS
; Function compile flags: /Ogtp
; File C:\Users\murat\Desktop\Siveps2-1-99-Project\source\client\extern\include\boost\unordered\detail\implementation.hpp
; File C:\Program Files (x86)\Microsoft Visual Studio\2019\Professional\VC\Tools\MSVC\14.29.30133\include\xmemory
; File C:\Users\murat\Desktop\Siveps2-1-99-Project\source\client\extern\include\boost\unordered\detail\implementation.hpp
; File C:\Program Files (x86)\Microsoft Visual Studio\2019\Professional\VC\Tools\MSVC\14.29.30133\include\xmemory
; File C:\Users\murat\Desktop\Siveps2-1-99-Project\source\client\extern\include\boost\unordered\detail\implementation.hpp
; File C:\Program Files (x86)\Microsoft Visual Studio\2019\Professional\VC\Tools\MSVC\14.29.30133\include\xmemory
; File C:\Users\murat\Desktop\Siveps2-1-99-Project\source\client\extern\include\boost\unordered\detail\implementation.hpp
; File C:\Program Files (x86)\Microsoft Visual Studio\2019\Professional\VC\Tools\MSVC\14.29.30133\include\xmemory
; File C:\Users\murat\Desktop\Siveps2-1-99-Project\source\client\extern\include\boost\unordered\detail\implementation.hpp
;	COMDAT ??1?$table@U?$map@V?$allocator@U?$pair@$$CBKUSCache@CEterPackManager@@@std@@@std@@KUSCache@CEterPackManager@@U?$hash@K@boost@@U?$equal_to@K@2@@detail@unordered@boost@@@detail@unordered@boost@@QAE@XZ
_TEXT	SEGMENT
??1?$table@U?$map@V?$allocator@U?$pair@$$CBKUSCache@CEterPackManager@@@std@@@std@@KUSCache@CEterPackManager@@U?$hash@K@boost@@U?$equal_to@K@2@@detail@unordered@boost@@@detail@unordered@boost@@QAE@XZ PROC ; boost::unordered::detail::table<boost::unordered::detail::map<std::allocator<std::pair<unsigned long const ,CEterPackManager::SCache> >,unsigned long,CEterPackManager::SCache,boost::hash<unsigned long>,std::equal_to<unsigned long> > >::~table<boost::unordered::detail::map<std::allocator<std::pair<unsigned long const ,CEterPackManager::SCache> >,unsigned long,CEterPackManager::SCache,boost::hash<unsigned long>,std::equal_to<unsigned long> > >, COMDAT
; _this$ = ecx

; 3333 :         ~table() { delete_buckets(); }

  00000	57		 push	 edi
  00001	8b f9		 mov	 edi, ecx

; 3345 :           if (buckets_) {

  00003	8b 57 14	 mov	 edx, DWORD PTR [edi+20]
  00006	85 d2		 test	 edx, edx
  00008	0f 84 7f 00 00
	00		 je	 $LN6@table

; 3026 :           return buckets_ + static_cast<std::ptrdiff_t>(bucket_index);

  0000e	8b 4f 04	 mov	 ecx, DWORD PTR [edi+4]
  00011	53		 push	 ebx
  00012	56		 push	 esi

; 3346 :             node_pointer n = static_cast<node_pointer>(

  00013	8b d9		 mov	 ebx, ecx
  00015	8b f2		 mov	 esi, edx
  00017	8b 04 8a	 mov	 eax, DWORD PTR [edx+ecx*4]

; 3347 :               get_bucket_pointer(bucket_count_)->next_);
; 3348 : 
; 3349 :             if (bucket::extra_node) {
; 3350 :               node_pointer next = next_node(n);
; 3351 :               boost::unordered::detail::func::destroy(boost::to_address(n));
; 3352 :               node_allocator_traits::deallocate(node_alloc(), n, 1);
; 3353 :               n = next;
; 3354 :             }
; 3355 : 
; 3356 :             while (n) {

  0001a	85 c0		 test	 eax, eax
  0001c	74 1f		 je	 SHORT $LN5@table
  0001e	66 90		 npad	 2
$LL4@table:

; 3357 :               node_pointer next = next_node(n);

  00020	8b 30		 mov	 esi, DWORD PTR [eax]
; File C:\Program Files (x86)\Microsoft Visual Studio\2019\Professional\VC\Tools\MSVC\14.29.30133\include\xmemory

; 264  :         ::operator delete(_Ptr, _Bytes);

  00022	6a 14		 push	 20			; 00000014H
  00024	50		 push	 eax
  00025	e8 00 00 00 00	 call	 ??3@YAXPAXI@Z		; operator delete
  0002a	83 c4 08	 add	 esp, 8
; File C:\Users\murat\Desktop\Siveps2-1-99-Project\source\client\extern\include\boost\unordered\detail\implementation.hpp

; 3359 :               n = next;

  0002d	8b c6		 mov	 eax, esi
  0002f	85 f6		 test	 esi, esi
  00031	75 ed		 jne	 SHORT $LL4@table
; File C:\Program Files (x86)\Microsoft Visual Studio\2019\Professional\VC\Tools\MSVC\14.29.30133\include\xmemory

; 173  :     _Ptr = reinterpret_cast<void*>(_Ptr_container);

  00033	8b 4f 04	 mov	 ecx, DWORD PTR [edi+4]
  00036	8b d9		 mov	 ebx, ecx
  00038	8b 57 14	 mov	 edx, DWORD PTR [edi+20]
  0003b	8b f2		 mov	 esi, edx
$LN5@table:
; File C:\Users\murat\Desktop\Siveps2-1-99-Project\source\client\extern\include\boost\unordered\detail\implementation.hpp

; 3026 :           return buckets_ + static_cast<std::ptrdiff_t>(bucket_index);

  0003d	8d 43 01	 lea	 eax, DWORD PTR [ebx+1]
  00040	8d 04 86	 lea	 eax, DWORD PTR [esi+eax*4]

; 3376 :           bucket_allocator_traits::deallocate(

  00043	3b f0		 cmp	 esi, eax
  00045	0f 44 cb	 cmove	 ecx, ebx
  00048	0f 44 d6	 cmove	 edx, esi
; File C:\Program Files (x86)\Microsoft Visual Studio\2019\Professional\VC\Tools\MSVC\14.29.30133\include\xmemory

; 702  :             _Deallocate<_New_alignof<value_type>>(_Ptr, sizeof(value_type) * _Count);

  0004b	8d 0c 8d 04 00
	00 00		 lea	 ecx, DWORD PTR [ecx*4+4]

; 260  :         if (_Bytes >= _Big_allocation_threshold) { // boost the alignment of big allocations to help autovectorization

  00052	81 f9 00 10 00
	00		 cmp	 ecx, 4096		; 00001000H
  00058	72 12		 jb	 SHORT $LN88@table

; 158  :     const uintptr_t _Ptr_container   = _Ptr_user[-1];

  0005a	8b 72 fc	 mov	 esi, DWORD PTR [edx-4]
  0005d	83 c1 23	 add	 ecx, 35			; 00000023H

; 159  : 
; 160  :     // If the following asserts, it likely means that we are performing
; 161  :     // an aligned delete on memory coming from an unaligned allocation.
; 162  :     _STL_ASSERT(_Ptr_user[-2] == _Big_allocation_sentinel, "invalid argument");
; 163  : 
; 164  :     // Extra paranoia on aligned allocation/deallocation; ensure _Ptr_container is
; 165  :     // in range [_Min_back_shift, _Non_user_size]
; 166  : #ifdef _DEBUG
; 167  :     constexpr uintptr_t _Min_back_shift = 2 * sizeof(void*);
; 168  : #else // ^^^ _DEBUG ^^^ // vvv !_DEBUG vvv
; 169  :     constexpr uintptr_t _Min_back_shift = sizeof(void*);
; 170  : #endif // _DEBUG
; 171  :     const uintptr_t _Back_shift = reinterpret_cast<uintptr_t>(_Ptr) - _Ptr_container;

  00060	2b d6		 sub	 edx, esi

; 172  :     _STL_VERIFY(_Back_shift >= _Min_back_shift && _Back_shift <= _Non_user_size, "invalid argument");

  00062	8d 42 fc	 lea	 eax, DWORD PTR [edx-4]
  00065	83 f8 1f	 cmp	 eax, 31			; 0000001fH
  00068	77 25		 ja	 SHORT $LN85@table

; 173  :     _Ptr = reinterpret_cast<void*>(_Ptr_container);

  0006a	8b d6		 mov	 edx, esi
$LN88@table:

; 264  :         ::operator delete(_Ptr, _Bytes);

  0006c	51		 push	 ecx
  0006d	52		 push	 edx
  0006e	e8 00 00 00 00	 call	 ??3@YAXPAXI@Z		; operator delete
  00073	83 c4 08	 add	 esp, 8
; File C:\Users\murat\Desktop\Siveps2-1-99-Project\source\client\extern\include\boost\unordered\detail\implementation.hpp

; 3363 :             buckets_ = bucket_pointer();

  00076	c7 47 14 00 00
	00 00		 mov	 DWORD PTR [edi+20], 0

; 3364 :             max_load_ = 0;

  0007d	c7 47 10 00 00
	00 00		 mov	 DWORD PTR [edi+16], 0

; 3365 :             size_ = 0;

  00084	c7 47 08 00 00
	00 00		 mov	 DWORD PTR [edi+8], 0
  0008b	5e		 pop	 esi
  0008c	5b		 pop	 ebx
$LN6@table:
  0008d	5f		 pop	 edi

; 3333 :         ~table() { delete_buckets(); }

  0008e	c3		 ret	 0
$LN85@table:
; File C:\Program Files (x86)\Microsoft Visual Studio\2019\Professional\VC\Tools\MSVC\14.29.30133\include\xmemory

; 172  :     _STL_VERIFY(_Back_shift >= _Min_back_shift && _Back_shift <= _Non_user_size, "invalid argument");

  0008f	e8 00 00 00 00	 call	 __invalid_parameter_noinfo_noreturn
$LN101@table:
  00094	cc		 int	 3
??1?$table@U?$map@V?$allocator@U?$pair@$$CBKUSCache@CEterPackManager@@@std@@@std@@KUSCache@CEterPackManager@@U?$hash@K@boost@@U?$equal_to@K@2@@detail@unordered@boost@@@detail@unordered@boost@@QAE@XZ ENDP ; boost::unordered::detail::table<boost::unordered::detail::map<std::allocator<std::pair<unsigned long const ,CEterPackManager::SCache> >,unsigned long,CEterPackManager::SCache,boost::hash<unsigned long>,std::equal_to<unsigned long> > >::~table<boost::unordered::detail::map<std::allocator<std::pair<unsigned long const ,CEterPackManager::SCache> >,unsigned long,CEterPackManager::SCache,boost::hash<unsigned long>,std::equal_to<unsigned long> > >
_TEXT	ENDS
; Function compile flags: /Ogtp
; File C:\Users\murat\Desktop\Siveps2-1-99-Project\source\client\extern\include\boost\unordered\detail\implementation.hpp
; File C:\Program Files (x86)\Microsoft Visual Studio\2019\Professional\VC\Tools\MSVC\14.29.30133\include\xmemory
; File C:\Users\murat\Desktop\Siveps2-1-99-Project\source\client\extern\include\boost\unordered\detail\implementation.hpp
; File C:\Program Files (x86)\Microsoft Visual Studio\2019\Professional\VC\Tools\MSVC\14.29.30133\include\xmemory
; File C:\Users\murat\Desktop\Siveps2-1-99-Project\source\client\extern\include\boost\unordered\detail\implementation.hpp
; File C:\Program Files (x86)\Microsoft Visual Studio\2019\Professional\VC\Tools\MSVC\14.29.30133\include\xmemory
; File C:\Users\murat\Desktop\Siveps2-1-99-Project\source\client\extern\include\boost\unordered\detail\implementation.hpp
;	COMDAT ?create_buckets@?$table@U?$map@V?$allocator@U?$pair@$$CBKUSCache@CEterPackManager@@@std@@@std@@KUSCache@CEterPackManager@@U?$hash@K@boost@@U?$equal_to@K@2@@detail@unordered@boost@@@detail@unordered@boost@@QAEXI@Z
_TEXT	SEGMENT
tv583 = -8						; size = 8
_f$ = -8						; size = 8
_dummy_node$1$ = 8					; size = 4
_new_count$ = 8						; size = 4
?create_buckets@?$table@U?$map@V?$allocator@U?$pair@$$CBKUSCache@CEterPackManager@@@std@@@std@@KUSCache@CEterPackManager@@U?$hash@K@boost@@U?$equal_to@K@2@@detail@unordered@boost@@@detail@unordered@boost@@QAEXI@Z PROC ; boost::unordered::detail::table<boost::unordered::detail::map<std::allocator<std::pair<unsigned long const ,CEterPackManager::SCache> >,unsigned long,CEterPackManager::SCache,boost::hash<unsigned long>,std::equal_to<unsigned long> > >::create_buckets, COMDAT
; _this$ = ecx

; 3178 :         {

  00000	55		 push	 ebp
  00001	8b ec		 mov	 ebp, esp
  00003	83 ec 08	 sub	 esp, 8
  00006	53		 push	 ebx

; 3179 :           link_pointer dummy_node;
; 3180 : 
; 3181 :           // Construct the new buckets and dummy node, and destroy the old
; 3182 :           // buckets
; 3183 :           if (buckets_) {

  00007	8b 5d 08	 mov	 ebx, DWORD PTR _new_count$[ebp]
  0000a	56		 push	 esi
  0000b	57		 push	 edi
  0000c	8b f9		 mov	 edi, ecx
  0000e	8d 4b 01	 lea	 ecx, DWORD PTR [ebx+1]
  00011	8b 57 14	 mov	 edx, DWORD PTR [edi+20]
  00014	85 d2		 test	 edx, edx
  00016	74 77		 je	 SHORT $LN5@create_buc

; 3184 :             dummy_node =

  00018	8b 47 04	 mov	 eax, DWORD PTR [edi+4]
  0001b	8b 04 82	 mov	 eax, DWORD PTR [edx+eax*4]
  0001e	89 45 08	 mov	 DWORD PTR _dummy_node$1$[ebp], eax
; File C:\Program Files (x86)\Microsoft Visual Studio\2019\Professional\VC\Tools\MSVC\14.29.30133\include\xmemory

; 64   :         if (_Count > _Max_possible) {

  00021	81 f9 ff ff ff
	3f		 cmp	 ecx, 1073741823		; 3fffffffH
  00027	0f 87 33 01 00
	00		 ja	 $LN103@create_buc

; 66   :         }
; 67   :     }
; 68   : 
; 69   :     return _Count * _Ty_size;

  0002d	c1 e1 02	 shl	 ecx, 2

; 237  :         if (_Bytes >= _Big_allocation_threshold) { // boost the alignment of big allocations to help autovectorization

  00030	81 f9 00 10 00
	00		 cmp	 ecx, 4096		; 00001000H
  00036	72 0d		 jb	 SHORT $LN18@create_buc

; 238  :             return _Allocate_manually_vector_aligned<_Traits>(_Bytes);

  00038	51		 push	 ecx
  00039	e8 00 00 00 00	 call	 ??$_Allocate_manually_vector_aligned@U_Default_allocate_traits@std@@@std@@YAPAXI@Z ; std::_Allocate_manually_vector_aligned<std::_Default_allocate_traits>
  0003e	83 c4 04	 add	 esp, 4
  00041	8b f0		 mov	 esi, eax
  00043	eb 13		 jmp	 SHORT $LN17@create_buc
$LN18@create_buc:

; 239  :         }
; 240  :     }
; 241  : #endif // defined(_M_IX86) || defined(_M_X64)
; 242  : 
; 243  :     if (_Bytes != 0) {

  00045	85 c9		 test	 ecx, ecx
  00047	74 0d		 je	 SHORT $LN19@create_buc

; 85   :         return ::operator new(_Bytes);

  00049	51		 push	 ecx
  0004a	e8 00 00 00 00	 call	 ??2@YAPAXI@Z		; operator new
  0004f	83 c4 04	 add	 esp, 4

; 244  :         return _Traits::_Allocate(_Bytes);

  00052	8b f0		 mov	 esi, eax
  00054	eb 02		 jmp	 SHORT $LN17@create_buc
$LN19@create_buc:

; 245  :     }
; 246  : 
; 247  :     return nullptr;

  00056	33 f6		 xor	 esi, esi
$LN17@create_buc:

; 702  :             _Deallocate<_New_alignof<value_type>>(_Ptr, sizeof(value_type) * _Count);

  00058	8b 47 04	 mov	 eax, DWORD PTR [edi+4]
  0005b	8d 0c 85 04 00
	00 00		 lea	 ecx, DWORD PTR [eax*4+4]
  00062	8b 47 14	 mov	 eax, DWORD PTR [edi+20]

; 260  :         if (_Bytes >= _Big_allocation_threshold) { // boost the alignment of big allocations to help autovectorization

  00065	81 f9 00 10 00
	00		 cmp	 ecx, 4096		; 00001000H
  0006b	72 16		 jb	 SHORT $LN45@create_buc

; 158  :     const uintptr_t _Ptr_container   = _Ptr_user[-1];

  0006d	8b 50 fc	 mov	 edx, DWORD PTR [eax-4]
  00070	83 c1 23	 add	 ecx, 35			; 00000023H

; 159  : 
; 160  :     // If the following asserts, it likely means that we are performing
; 161  :     // an aligned delete on memory coming from an unaligned allocation.
; 162  :     _STL_ASSERT(_Ptr_user[-2] == _Big_allocation_sentinel, "invalid argument");
; 163  : 
; 164  :     // Extra paranoia on aligned allocation/deallocation; ensure _Ptr_container is
; 165  :     // in range [_Min_back_shift, _Non_user_size]
; 166  : #ifdef _DEBUG
; 167  :     constexpr uintptr_t _Min_back_shift = 2 * sizeof(void*);
; 168  : #else // ^^^ _DEBUG ^^^ // vvv !_DEBUG vvv
; 169  :     constexpr uintptr_t _Min_back_shift = sizeof(void*);
; 170  : #endif // _DEBUG
; 171  :     const uintptr_t _Back_shift = reinterpret_cast<uintptr_t>(_Ptr) - _Ptr_container;

  00073	2b c2		 sub	 eax, edx

; 172  :     _STL_VERIFY(_Back_shift >= _Min_back_shift && _Back_shift <= _Non_user_size, "invalid argument");

  00075	83 c0 fc	 add	 eax, -4			; fffffffcH
  00078	83 f8 1f	 cmp	 eax, 31			; 0000001fH
  0007b	0f 87 da 00 00
	00		 ja	 $LN42@create_buc

; 173  :     _Ptr = reinterpret_cast<void*>(_Ptr_container);

  00081	8b c2		 mov	 eax, edx
$LN45@create_buc:

; 264  :         ::operator delete(_Ptr, _Bytes);

  00083	51		 push	 ecx
  00084	50		 push	 eax
  00085	e8 00 00 00 00	 call	 ??3@YAXPAXI@Z		; operator delete
  0008a	83 c4 08	 add	 esp, 8
; File C:\Users\murat\Desktop\Siveps2-1-99-Project\source\client\extern\include\boost\unordered\detail\implementation.hpp

; 3189 :             buckets_ = new_buckets;

  0008d	eb 41		 jmp	 SHORT $LN77@create_buc
$LN5@create_buc:

; 3190 :           } else if (bucket::extra_node) {
; 3191 :             node_constructor a(node_alloc());
; 3192 :             a.create_node();
; 3193 :             buckets_ =
; 3194 :               bucket_allocator_traits::allocate(bucket_alloc(), new_count + 1);
; 3195 :             dummy_node = a.release();
; 3196 :           } else {
; 3197 :             dummy_node = link_pointer();

  0008f	c7 45 08 00 00
	00 00		 mov	 DWORD PTR _dummy_node$1$[ebp], 0
; File C:\Program Files (x86)\Microsoft Visual Studio\2019\Professional\VC\Tools\MSVC\14.29.30133\include\xmemory

; 64   :         if (_Count > _Max_possible) {

  00096	81 f9 ff ff ff
	3f		 cmp	 ecx, 1073741823		; 3fffffffH
  0009c	0f 87 be 00 00
	00		 ja	 $LN103@create_buc

; 66   :         }
; 67   :     }
; 68   : 
; 69   :     return _Count * _Ty_size;

  000a2	8d 04 8d 00 00
	00 00		 lea	 eax, DWORD PTR [ecx*4]

; 237  :         if (_Bytes >= _Big_allocation_threshold) { // boost the alignment of big allocations to help autovectorization

  000a9	3d 00 10 00 00	 cmp	 eax, 4096		; 00001000H
  000ae	72 0d		 jb	 SHORT $LN78@create_buc

; 238  :             return _Allocate_manually_vector_aligned<_Traits>(_Bytes);

  000b0	50		 push	 eax
  000b1	e8 00 00 00 00	 call	 ??$_Allocate_manually_vector_aligned@U_Default_allocate_traits@std@@@std@@YAPAXI@Z ; std::_Allocate_manually_vector_aligned<std::_Default_allocate_traits>
  000b6	83 c4 04	 add	 esp, 4
  000b9	8b f0		 mov	 esi, eax
  000bb	eb 13		 jmp	 SHORT $LN77@create_buc
$LN78@create_buc:

; 239  :         }
; 240  :     }
; 241  : #endif // defined(_M_IX86) || defined(_M_X64)
; 242  : 
; 243  :     if (_Bytes != 0) {

  000bd	85 c0		 test	 eax, eax
  000bf	74 0d		 je	 SHORT $LN79@create_buc

; 85   :         return ::operator new(_Bytes);

  000c1	50		 push	 eax
  000c2	e8 00 00 00 00	 call	 ??2@YAPAXI@Z		; operator new
  000c7	83 c4 04	 add	 esp, 4

; 244  :         return _Traits::_Allocate(_Bytes);

  000ca	8b f0		 mov	 esi, eax
  000cc	eb 02		 jmp	 SHORT $LN77@create_buc
$LN79@create_buc:

; 245  :     }
; 246  : 
; 247  :     return nullptr;

  000ce	33 f6		 xor	 esi, esi
$LN77@create_buc:
; File C:\Users\murat\Desktop\Siveps2-1-99-Project\source\client\extern\include\boost\unordered\detail\implementation.hpp

; 3203 :           bucket_count_ = new_count;

  000d0	89 77 14	 mov	 DWORD PTR [edi+20], esi
  000d3	89 5f 04	 mov	 DWORD PTR [edi+4], ebx

; 3081 :           max_load_ = buckets_ ? boost::unordered::detail::double_to_size(

  000d6	85 f6		 test	 esi, esi
  000d8	74 55		 je	 SHORT $LN85@create_buc
  000da	f3 0f 10 4f 0c	 movss	 xmm1, DWORD PTR [edi+12]
  000df	0f 57 c0	 xorps	 xmm0, xmm0
  000e2	f2 0f 2a c3	 cvtsi2sd xmm0, ebx
  000e6	8b c3		 mov	 eax, ebx
  000e8	83 ec 08	 sub	 esp, 8
  000eb	c1 e8 1f	 shr	 eax, 31			; 0000001fH
  000ee	0f 5a c9	 cvtps2pd xmm1, xmm1
  000f1	f2 0f 58 04 c5
	00 00 00 00	 addsd	 xmm0, QWORD PTR __xmm@41f00000000000000000000000000000[eax*8]
  000fa	f2 0f 59 c8	 mulsd	 xmm1, xmm0
  000fe	f2 0f 11 4d f8	 movsd	 QWORD PTR tv583[ebp], xmm1
  00103	dd 45 f8	 fld	 QWORD PTR tv583[ebp]
  00106	dd 1c 24	 fstp	 QWORD PTR [esp]
  00109	e8 00 00 00 00	 call	 _ceil
  0010e	dd 5d f8	 fstp	 QWORD PTR _f$[ebp]

; 2893 :         return f >= static_cast<double>(

  00111	f2 0f 10 45 f8	 movsd	 xmm0, QWORD PTR _f$[ebp]

; 3081 :           max_load_ = buckets_ ? boost::unordered::detail::double_to_size(

  00116	83 c4 08	 add	 esp, 8

; 2893 :         return f >= static_cast<double>(

  00119	66 0f 2f 05 00
	00 00 00	 comisd	 xmm0, QWORD PTR __real@41efffffffe00000
  00121	72 05		 jb	 SHORT $LN89@create_buc
  00123	83 c8 ff	 or	 eax, -1
  00126	eb 09		 jmp	 SHORT $LN86@create_buc
$LN89@create_buc:
  00128	e8 00 00 00 00	 call	 __dtoui3

; 3081 :           max_load_ = buckets_ ? boost::unordered::detail::double_to_size(

  0012d	eb 02		 jmp	 SHORT $LN86@create_buc
$LN85@create_buc:
  0012f	33 c0		 xor	 eax, eax
$LN86@create_buc:
  00131	89 47 10	 mov	 DWORD PTR [edi+16], eax

; 3204 :           recalculate_max_load();
; 3205 : 
; 3206 :           bucket_pointer end =

  00134	8d 04 9e	 lea	 eax, DWORD PTR [esi+ebx*4]

; 3207 :             buckets_ + static_cast<std::ptrdiff_t>(new_count);
; 3208 :           for (bucket_pointer i = buckets_; i != end; ++i) {

  00137	3b f0		 cmp	 esi, eax
  00139	74 12		 je	 SHORT $LN3@create_buc
  0013b	0f 1f 44 00 00	 npad	 5
$LL4@create_buc:

; 2579 :         ptr_bucket() : next_(0) {}

  00140	c7 06 00 00 00
	00		 mov	 DWORD PTR [esi], 0

; 3207 :             buckets_ + static_cast<std::ptrdiff_t>(new_count);
; 3208 :           for (bucket_pointer i = buckets_; i != end; ++i) {

  00146	83 c6 04	 add	 esi, 4
  00149	3b f0		 cmp	 esi, eax
  0014b	75 f3		 jne	 SHORT $LL4@create_buc
$LN3@create_buc:

; 2580 :         ptr_bucket(link_pointer n) : next_(n) {}

  0014d	8b 4d 08	 mov	 ecx, DWORD PTR _dummy_node$1$[ebp]
  00150	5f		 pop	 edi
  00151	5e		 pop	 esi
  00152	89 08		 mov	 DWORD PTR [eax], ecx
  00154	5b		 pop	 ebx

; 3212 :         }

  00155	8b e5		 mov	 esp, ebp
  00157	5d		 pop	 ebp
  00158	c2 04 00	 ret	 4
$LN42@create_buc:
; File C:\Program Files (x86)\Microsoft Visual Studio\2019\Professional\VC\Tools\MSVC\14.29.30133\include\xmemory

; 172  :     _STL_VERIFY(_Back_shift >= _Min_back_shift && _Back_shift <= _Non_user_size, "invalid argument");

  0015b	e8 00 00 00 00	 call	 __invalid_parameter_noinfo_noreturn
$LN103@create_buc:

; 65   :             _Throw_bad_array_new_length(); // multiply overflow

  00160	e8 00 00 00 00	 call	 ?_Throw_bad_array_new_length@std@@YAXXZ ; std::_Throw_bad_array_new_length
$LN104@create_buc:
  00165	cc		 int	 3
?create_buckets@?$table@U?$map@V?$allocator@U?$pair@$$CBKUSCache@CEterPackManager@@@std@@@std@@KUSCache@CEterPackManager@@U?$hash@K@boost@@U?$equal_to@K@2@@detail@unordered@boost@@@detail@unordered@boost@@QAEXI@Z ENDP ; boost::unordered::detail::table<boost::unordered::detail::map<std::allocator<std::pair<unsigned long const ,CEterPackManager::SCache> >,unsigned long,CEterPackManager::SCache,boost::hash<unsigned long>,std::equal_to<unsigned long> > >::create_buckets
_TEXT	ENDS
; Function compile flags: /Ogtp
; File C:\Users\murat\Desktop\Siveps2-1-99-Project\source\client\extern\include\boost\unordered\detail\implementation.hpp
;	COMDAT ?min_buckets_for_size@?$table@U?$map@V?$allocator@U?$pair@$$CBKUSCache@CEterPackManager@@@std@@@std@@KUSCache@CEterPackManager@@U?$hash@K@boost@@U?$equal_to@K@2@@detail@unordered@boost@@@detail@unordered@boost@@QBEII@Z
_TEXT	SEGMENT
tv132 = -8						; size = 8
tv75 = -8						; size = 8
_size$ = 8						; size = 4
?min_buckets_for_size@?$table@U?$map@V?$allocator@U?$pair@$$CBKUSCache@CEterPackManager@@@std@@@std@@KUSCache@CEterPackManager@@U?$hash@K@boost@@U?$equal_to@K@2@@detail@unordered@boost@@@detail@unordered@boost@@QBEII@Z PROC ; boost::unordered::detail::table<boost::unordered::detail::map<std::allocator<std::pair<unsigned long const ,CEterPackManager::SCache> >,unsigned long,CEterPackManager::SCache,boost::hash<unsigned long>,std::equal_to<unsigned long> > >::min_buckets_for_size, COMDAT
; _this$ = ecx

; 3095 :         {

  00000	55		 push	 ebp
  00001	8b ec		 mov	 ebp, esp
  00003	83 ec 08	 sub	 esp, 8

; 3096 :           BOOST_ASSERT(mlf_ >= minimum_max_load_factor);
; 3097 : 
; 3098 :           using namespace std;
; 3099 : 
; 3100 :           // From insert/emplace requirements:
; 3101 :           //
; 3102 :           // size <= mlf_ * count
; 3103 :           // => count >= size / mlf_
; 3104 :           //
; 3105 :           // Or from rehash post-condition:
; 3106 :           //
; 3107 :           // count >= size / mlf_
; 3108 : 
; 3109 :           return policy::new_bucket_count(

  00006	8b 45 08	 mov	 eax, DWORD PTR _size$[ebp]
  00009	83 ec 08	 sub	 esp, 8
  0000c	f3 0f 10 41 0c	 movss	 xmm0, DWORD PTR [ecx+12]
  00011	0f 5a c0	 cvtps2pd xmm0, xmm0
  00014	66 0f 6e c8	 movd	 xmm1, eax
  00018	f3 0f e6 c9	 cvtdq2pd xmm1, xmm1
  0001c	c1 e8 1f	 shr	 eax, 31			; 0000001fH
  0001f	f2 0f 58 0c c5
	00 00 00 00	 addsd	 xmm1, QWORD PTR __xmm@41f00000000000000000000000000000[eax*8]
  00028	f2 0f 5e c8	 divsd	 xmm1, xmm0
  0002c	f2 0f 11 4d f8	 movsd	 QWORD PTR tv132[ebp], xmm1
  00031	dd 45 f8	 fld	 QWORD PTR tv132[ebp]
  00034	dd 1c 24	 fstp	 QWORD PTR [esp]
  00037	e8 00 00 00 00	 call	 _floor
  0003c	dd 5d f8	 fstp	 QWORD PTR tv75[ebp]
  0003f	f2 0f 10 45 f8	 movsd	 xmm0, QWORD PTR tv75[ebp]
  00044	83 c4 08	 add	 esp, 8
  00047	f2 0f 58 05 00
	00 00 00	 addsd	 xmm0, QWORD PTR __real@3ff0000000000000

; 2893 :         return f >= static_cast<double>(

  0004f	66 0f 2f 05 00
	00 00 00	 comisd	 xmm0, QWORD PTR __real@41efffffffe00000
  00057	72 12		 jb	 SHORT $LN5@min_bucket
  00059	83 c8 ff	 or	 eax, -1

; 3096 :           BOOST_ASSERT(mlf_ >= minimum_max_load_factor);
; 3097 : 
; 3098 :           using namespace std;
; 3099 : 
; 3100 :           // From insert/emplace requirements:
; 3101 :           //
; 3102 :           // size <= mlf_ * count
; 3103 :           // => count >= size / mlf_
; 3104 :           //
; 3105 :           // Or from rehash post-condition:
; 3106 :           //
; 3107 :           // count >= size / mlf_
; 3108 : 
; 3109 :           return policy::new_bucket_count(

  0005c	50		 push	 eax
  0005d	e8 00 00 00 00	 call	 ?new_bucket_count@?$prime_policy@I@detail@unordered@boost@@SAII@Z ; boost::unordered::detail::prime_policy<unsigned int>::new_bucket_count
  00062	83 c4 04	 add	 esp, 4

; 3110 :             boost::unordered::detail::double_to_size(
; 3111 :               floor(static_cast<double>(size) / static_cast<double>(mlf_)) +
; 3112 :               1));
; 3113 :         }

  00065	8b e5		 mov	 esp, ebp
  00067	5d		 pop	 ebp
  00068	c2 04 00	 ret	 4
$LN5@min_bucket:

; 2893 :         return f >= static_cast<double>(

  0006b	e8 00 00 00 00	 call	 __dtoui3

; 3096 :           BOOST_ASSERT(mlf_ >= minimum_max_load_factor);
; 3097 : 
; 3098 :           using namespace std;
; 3099 : 
; 3100 :           // From insert/emplace requirements:
; 3101 :           //
; 3102 :           // size <= mlf_ * count
; 3103 :           // => count >= size / mlf_
; 3104 :           //
; 3105 :           // Or from rehash post-condition:
; 3106 :           //
; 3107 :           // count >= size / mlf_
; 3108 : 
; 3109 :           return policy::new_bucket_count(

  00070	50		 push	 eax
  00071	e8 00 00 00 00	 call	 ?new_bucket_count@?$prime_policy@I@detail@unordered@boost@@SAII@Z ; boost::unordered::detail::prime_policy<unsigned int>::new_bucket_count
  00076	83 c4 04	 add	 esp, 4

; 3110 :             boost::unordered::detail::double_to_size(
; 3111 :               floor(static_cast<double>(size) / static_cast<double>(mlf_)) +
; 3112 :               1));
; 3113 :         }

  00079	8b e5		 mov	 esp, ebp
  0007b	5d		 pop	 ebp
  0007c	c2 04 00	 ret	 4
?min_buckets_for_size@?$table@U?$map@V?$allocator@U?$pair@$$CBKUSCache@CEterPackManager@@@std@@@std@@KUSCache@CEterPackManager@@U?$hash@K@boost@@U?$equal_to@K@2@@detail@unordered@boost@@@detail@unordered@boost@@QBEII@Z ENDP ; boost::unordered::detail::table<boost::unordered::detail::map<std::allocator<std::pair<unsigned long const ,CEterPackManager::SCache> >,unsigned long,CEterPackManager::SCache,boost::hash<unsigned long>,std::equal_to<unsigned long> > >::min_buckets_for_size
_TEXT	ENDS
; Function compile flags: /Ogtp
; File C:\Users\murat\Desktop\Siveps2-1-99-Project\source\client\extern\include\boost\unordered\unordered_map.hpp
; File C:\Users\murat\Desktop\Siveps2-1-99-Project\source\client\extern\include\boost\unordered\detail\implementation.hpp
; File C:\Users\murat\Desktop\Siveps2-1-99-Project\source\client\extern\include\boost\unordered\unordered_map.hpp
; File C:\Program Files (x86)\Microsoft Visual Studio\2019\Professional\VC\Tools\MSVC\14.29.30133\include\xstring
; File C:\Users\murat\Desktop\Siveps2-1-99-Project\source\client\extern\include\boost\unordered\detail\implementation.hpp
; File C:\Users\murat\Desktop\Siveps2-1-99-Project\source\client\extern\include\boost\unordered\unordered_map.hpp
; File C:\Users\murat\Desktop\Siveps2-1-99-Project\source\client\extern\include\boost\unordered\detail\implementation.hpp
; File C:\Users\murat\Desktop\Siveps2-1-99-Project\source\client\extern\include\boost\unordered\unordered_map.hpp
; File C:\Users\murat\Desktop\Siveps2-1-99-Project\source\client\extern\include\boost\unordered\detail\implementation.hpp
; File C:\Program Files (x86)\Microsoft Visual Studio\2019\Professional\VC\Tools\MSVC\14.29.30133\include\xstring
; File C:\Users\murat\Desktop\Siveps2-1-99-Project\source\client\Client\eterBase\Stl.h
; File C:\Users\murat\Desktop\Siveps2-1-99-Project\source\client\extern\include\boost\unordered\detail\implementation.hpp
; File C:\Users\murat\Desktop\Siveps2-1-99-Project\source\client\extern\include\boost\unordered\unordered_map.hpp
; File C:\Users\murat\Desktop\Siveps2-1-99-Project\source\client\extern\include\boost\unordered\detail\implementation.hpp
; File C:\Users\murat\Desktop\Siveps2-1-99-Project\source\client\extern\include\boost\unordered\unordered_map.hpp
;	COMDAT ?find@?$unordered_map@V?$basic_string@DU?$char_traits@D@std@@V?$allocator@D@2@@std@@PAVCEterPack@@Ustringhash@@U?$equal_to@V?$basic_string@DU?$char_traits@D@std@@V?$allocator@D@2@@std@@@2@V?$allocator@U?$pair@$$CBV?$basic_string@DU?$char_traits@D@std@@V?$allocator@D@2@@std@@PAVCEterPack@@@std@@@2@@unordered@boost@@QAE?AU?$iterator@U?$ptr_node@U?$pair@$$CBV?$basic_string@DU?$char_traits@D@std@@V?$allocator@D@2@@std@@PAVCEterPack@@@std@@@detail@unordered@boost@@@iterator_detail@23@ABV?$basic_string@DU?$char_traits@D@std@@V?$allocator@D@2@@std@@@Z
_TEXT	SEGMENT
_this$1$ = -4						; size = 4
___$ReturnUdt$ = 8					; size = 4
_k$ = 12						; size = 4
?find@?$unordered_map@V?$basic_string@DU?$char_traits@D@std@@V?$allocator@D@2@@std@@PAVCEterPack@@Ustringhash@@U?$equal_to@V?$basic_string@DU?$char_traits@D@std@@V?$allocator@D@2@@std@@@2@V?$allocator@U?$pair@$$CBV?$basic_string@DU?$char_traits@D@std@@V?$allocator@D@2@@std@@PAVCEterPack@@@std@@@2@@unordered@boost@@QAE?AU?$iterator@U?$ptr_node@U?$pair@$$CBV?$basic_string@DU?$char_traits@D@std@@V?$allocator@D@2@@std@@PAVCEterPack@@@std@@@detail@unordered@boost@@@iterator_detail@23@ABV?$basic_string@DU?$char_traits@D@std@@V?$allocator@D@2@@std@@@Z PROC ; boost::unordered::unordered_map<std::basic_string<char,std::char_traits<char>,std::allocator<char> >,CEterPack *,stringhash,std::equal_to<std::basic_string<char,std::char_traits<char>,std::allocator<char> > >,std::allocator<std::pair<std::basic_string<char,std::char_traits<char>,std::allocator<char> > const ,CEterPack *> > >::find, COMDAT
; _this$ = ecx

; 1803 :     {

  00000	55		 push	 ebp
  00001	8b ec		 mov	 ebp, esp
  00003	51		 push	 ecx
; File C:\Users\murat\Desktop\Siveps2-1-99-Project\source\client\extern\include\boost\unordered\detail\implementation.hpp

; 2791 :           return *static_cast<function_pair const*>(

  00004	0f b6 01	 movzx	 eax, BYTE PTR [ecx]
; File C:\Users\murat\Desktop\Siveps2-1-99-Project\source\client\extern\include\boost\unordered\unordered_map.hpp

; 1803 :     {

  00007	53		 push	 ebx
; File C:\Program Files (x86)\Microsoft Visual Studio\2019\Professional\VC\Tools\MSVC\14.29.30133\include\xstring

; 2305 :         const value_type* _Result = _Bx._Buf;

  00008	8b 5d 0c	 mov	 ebx, DWORD PTR _k$[ebp]
; File C:\Users\murat\Desktop\Siveps2-1-99-Project\source\client\extern\include\boost\unordered\detail\implementation.hpp

; 2791 :           return *static_cast<function_pair const*>(

  0000b	83 e0 01	 and	 eax, 1
; File C:\Users\murat\Desktop\Siveps2-1-99-Project\source\client\extern\include\boost\unordered\unordered_map.hpp

; 1803 :     {

  0000e	56		 push	 esi
  0000f	57		 push	 edi
; File C:\Users\murat\Desktop\Siveps2-1-99-Project\source\client\extern\include\boost\unordered\detail\implementation.hpp

; 2791 :           return *static_cast<function_pair const*>(

  00010	8d 79 01	 lea	 edi, DWORD PTR [ecx+1]
; File C:\Users\murat\Desktop\Siveps2-1-99-Project\source\client\extern\include\boost\unordered\unordered_map.hpp

; 1803 :     {

  00013	89 4d fc	 mov	 DWORD PTR _this$1$[ebp], ecx
; File C:\Users\murat\Desktop\Siveps2-1-99-Project\source\client\extern\include\boost\unordered\detail\implementation.hpp

; 2791 :           return *static_cast<function_pair const*>(

  00016	03 f8		 add	 edi, eax
; File C:\Program Files (x86)\Microsoft Visual Studio\2019\Professional\VC\Tools\MSVC\14.29.30133\include\xstring

; 2305 :         const value_type* _Result = _Bx._Buf;

  00018	8b cb		 mov	 ecx, ebx

; 3922 :         return _Mypair._Myval2._Myptr();

  0001a	8d 47 01	 lea	 eax, DWORD PTR [edi+1]
  0001d	f7 df		 neg	 edi
  0001f	1b ff		 sbb	 edi, edi
  00021	23 f8		 and	 edi, eax

; 2319 :         return _BUF_SIZE <= _Myres;

  00023	83 7b 14 10	 cmp	 DWORD PTR [ebx+20], 16	; 00000010H

; 2306 :         if (_Large_string_engaged()) {

  00027	72 02		 jb	 SHORT $LN30@find

; 2307 :             _Result = _Unfancy(_Bx._Ptr);

  00029	8b 0b		 mov	 ecx, DWORD PTR [ebx]
$LN30@find:
; File C:\Users\murat\Desktop\Siveps2-1-99-Project\source\client\Client\eterBase\Stl.h

; 478  :        const unsigned char * end = s + str.size();

  0002b	8b 73 10	 mov	 esi, DWORD PTR [ebx+16]

; 479  :        size_t h = 0;

  0002e	33 d2		 xor	 edx, edx
  00030	03 f1		 add	 esi, ecx

; 480  : 
; 481  :        while (s < end)

  00032	3b ce		 cmp	 ecx, esi
  00034	73 10		 jae	 SHORT $LN25@find
$LL38@find:

; 482  :        {
; 483  :            h *= 16777619;
; 484  :            h ^= (unsigned char) *(unsigned char *) (s++);

  00036	0f b6 01	 movzx	 eax, BYTE PTR [ecx]
  00039	41		 inc	 ecx
  0003a	69 d2 93 01 00
	01		 imul	 edx, edx, 16777619
  00040	33 d0		 xor	 edx, eax
  00042	3b ce		 cmp	 ecx, esi
  00044	72 f0		 jb	 SHORT $LL38@find
$LN25@find:
; File C:\Users\murat\Desktop\Siveps2-1-99-Project\source\client\extern\include\boost\unordered\detail\implementation.hpp

; 3581 :           return this->find_node_impl(hash(k), k, this->key_eq());

  00046	8b 4d fc	 mov	 ecx, DWORD PTR _this$1$[ebp]
  00049	57		 push	 edi
  0004a	53		 push	 ebx
  0004b	52		 push	 edx
  0004c	e8 00 00 00 00	 call	 ??$find_node_impl@V?$basic_string@DU?$char_traits@D@std@@V?$allocator@D@2@@std@@U?$equal_to@V?$basic_string@DU?$char_traits@D@std@@V?$allocator@D@2@@std@@@2@@?$table@U?$map@V?$allocator@U?$pair@$$CBV?$basic_string@DU?$char_traits@D@std@@V?$allocator@D@2@@std@@PAVCEterPack@@@std@@@std@@V?$basic_string@DU?$char_traits@D@std@@V?$allocator@D@2@@2@PAVCEterPack@@Ustringhash@@U?$equal_to@V?$basic_string@DU?$char_traits@D@std@@V?$allocator@D@2@@std@@@2@@detail@unordered@boost@@@detail@unordered@boost@@QBEPAU?$ptr_node@U?$pair@$$CBV?$basic_string@DU?$char_traits@D@std@@V?$allocator@D@2@@std@@PAVCEterPack@@@std@@@123@IABV?$basic_string@DU?$char_traits@D@std@@V?$allocator@D@2@@std@@ABU?$equal_to@V?$basic_string@DU?$char_traits@D@std@@V?$allocator@D@2@@std@@@6@@Z ; boost::unordered::detail::table<boost::unordered::detail::map<std::allocator<std::pair<std::basic_string<char,std::char_traits<char>,std::allocator<char> > const ,CEterPack *> >,std::basic_string<char,std::char_traits<char>,std::allocator<char> >,CEterPack *,stringhash,std::equal_to<std::basic_string<char,std::char_traits<char>,std::allocator<char> > > > >::find_node_impl<std::basic_string<char,std::char_traits<char>,std::allocator<char> >,std::equal_to<std::basic_string<char,std::char_traits<char>,std::allocator<char> > > >

; 2371 :           : node_(static_cast<node_pointer>(x))

  00051	8b 4d 08	 mov	 ecx, DWORD PTR ___$ReturnUdt$[ebp]
; File C:\Users\murat\Desktop\Siveps2-1-99-Project\source\client\extern\include\boost\unordered\unordered_map.hpp

; 1804 :       return iterator(table_.find_node(k));

  00054	5f		 pop	 edi
  00055	5e		 pop	 esi
  00056	5b		 pop	 ebx
; File C:\Users\murat\Desktop\Siveps2-1-99-Project\source\client\extern\include\boost\unordered\detail\implementation.hpp

; 2371 :           : node_(static_cast<node_pointer>(x))

  00057	89 01		 mov	 DWORD PTR [ecx], eax
; File C:\Users\murat\Desktop\Siveps2-1-99-Project\source\client\extern\include\boost\unordered\unordered_map.hpp

; 1804 :       return iterator(table_.find_node(k));

  00059	8b c1		 mov	 eax, ecx

; 1805 :     }

  0005b	8b e5		 mov	 esp, ebp
  0005d	5d		 pop	 ebp
  0005e	c2 08 00	 ret	 8
?find@?$unordered_map@V?$basic_string@DU?$char_traits@D@std@@V?$allocator@D@2@@std@@PAVCEterPack@@Ustringhash@@U?$equal_to@V?$basic_string@DU?$char_traits@D@std@@V?$allocator@D@2@@std@@@2@V?$allocator@U?$pair@$$CBV?$basic_string@DU?$char_traits@D@std@@V?$allocator@D@2@@std@@PAVCEterPack@@@std@@@2@@unordered@boost@@QAE?AU?$iterator@U?$ptr_node@U?$pair@$$CBV?$basic_string@DU?$char_traits@D@std@@V?$allocator@D@2@@std@@PAVCEterPack@@@std@@@detail@unordered@boost@@@iterator_detail@23@ABV?$basic_string@DU?$char_traits@D@std@@V?$allocator@D@2@@std@@@Z ENDP ; boost::unordered::unordered_map<std::basic_string<char,std::char_traits<char>,std::allocator<char> >,CEterPack *,stringhash,std::equal_to<std::basic_string<char,std::char_traits<char>,std::allocator<char> > >,std::allocator<std::pair<std::basic_string<char,std::char_traits<char>,std::allocator<char> > const ,CEterPack *> > >::find
_TEXT	ENDS
; Function compile flags: /Ogtp
; File C:\Users\murat\Desktop\Siveps2-1-99-Project\source\client\extern\include\boost\unordered\unordered_map.hpp
;	COMDAT ??1?$unordered_map@V?$basic_string@DU?$char_traits@D@std@@V?$allocator@D@2@@std@@PAVCEterPack@@Ustringhash@@U?$equal_to@V?$basic_string@DU?$char_traits@D@std@@V?$allocator@D@2@@std@@@2@V?$allocator@U?$pair@$$CBV?$basic_string@DU?$char_traits@D@std@@V?$allocator@D@2@@std@@PAVCEterPack@@@std@@@2@@unordered@boost@@QAE@XZ
_TEXT	SEGMENT
??1?$unordered_map@V?$basic_string@DU?$char_traits@D@std@@V?$allocator@D@2@@std@@PAVCEterPack@@Ustringhash@@U?$equal_to@V?$basic_string@DU?$char_traits@D@std@@V?$allocator@D@2@@std@@@2@V?$allocator@U?$pair@$$CBV?$basic_string@DU?$char_traits@D@std@@V?$allocator@D@2@@std@@PAVCEterPack@@@std@@@2@@unordered@boost@@QAE@XZ PROC ; boost::unordered::unordered_map<std::basic_string<char,std::char_traits<char>,std::allocator<char> >,CEterPack *,stringhash,std::equal_to<std::basic_string<char,std::char_traits<char>,std::allocator<char> > >,std::allocator<std::pair<std::basic_string<char,std::char_traits<char>,std::allocator<char> > const ,CEterPack *> > >::~unordered_map<std::basic_string<char,std::char_traits<char>,std::allocator<char> >,CEterPack *,stringhash,std::equal_to<std::basic_string<char,std::char_traits<char>,std::allocator<char> > >,std::allocator<std::pair<std::basic_string<char,std::char_traits<char>,std::allocator<char> > const ,CEterPack *> > >, COMDAT
; _this$ = ecx

; 1646 :     }

  00000	e9 00 00 00 00	 jmp	 ??1?$table@U?$map@V?$allocator@U?$pair@$$CBV?$basic_string@DU?$char_traits@D@std@@V?$allocator@D@2@@std@@PAVCEterPack@@@std@@@std@@V?$basic_string@DU?$char_traits@D@std@@V?$allocator@D@2@@2@PAVCEterPack@@Ustringhash@@U?$equal_to@V?$basic_string@DU?$char_traits@D@std@@V?$allocator@D@2@@std@@@2@@detail@unordered@boost@@@detail@unordered@boost@@QAE@XZ ; boost::unordered::detail::table<boost::unordered::detail::map<std::allocator<std::pair<std::basic_string<char,std::char_traits<char>,std::allocator<char> > const ,CEterPack *> >,std::basic_string<char,std::char_traits<char>,std::allocator<char> >,CEterPack *,stringhash,std::equal_to<std::basic_string<char,std::char_traits<char>,std::allocator<char> > > > >::~table<boost::unordered::detail::map<std::allocator<std::pair<std::basic_string<char,std::char_traits<char>,std::allocator<char> > const ,CEterPack *> >,std::basic_string<char,std::char_traits<char>,std::allocator<char> >,CEterPack *,stringhash,std::equal_to<std::basic_string<char,std::char_traits<char>,std::allocator<char> > > > >
??1?$unordered_map@V?$basic_string@DU?$char_traits@D@std@@V?$allocator@D@2@@std@@PAVCEterPack@@Ustringhash@@U?$equal_to@V?$basic_string@DU?$char_traits@D@std@@V?$allocator@D@2@@std@@@2@V?$allocator@U?$pair@$$CBV?$basic_string@DU?$char_traits@D@std@@V?$allocator@D@2@@std@@PAVCEterPack@@@std@@@2@@unordered@boost@@QAE@XZ ENDP ; boost::unordered::unordered_map<std::basic_string<char,std::char_traits<char>,std::allocator<char> >,CEterPack *,stringhash,std::equal_to<std::basic_string<char,std::char_traits<char>,std::allocator<char> > >,std::allocator<std::pair<std::basic_string<char,std::char_traits<char>,std::allocator<char> > const ,CEterPack *> > >::~unordered_map<std::basic_string<char,std::char_traits<char>,std::allocator<char> >,CEterPack *,stringhash,std::equal_to<std::basic_string<char,std::char_traits<char>,std::allocator<char> > >,std::allocator<std::pair<std::basic_string<char,std::char_traits<char>,std::allocator<char> > const ,CEterPack *> > >
_TEXT	ENDS
; Function compile flags: /Ogtp
; File C:\Users\murat\Desktop\Siveps2-1-99-Project\source\client\extern\include\boost\unordered\unordered_map.hpp
; File C:\Users\murat\Desktop\Siveps2-1-99-Project\source\client\extern\include\boost\unordered\detail\implementation.hpp
; File C:\Users\murat\Desktop\Siveps2-1-99-Project\source\client\extern\include\boost\unordered\unordered_map.hpp
; File C:\Users\murat\Desktop\Siveps2-1-99-Project\source\client\extern\include\boost\unordered\detail\implementation.hpp
; File C:\Users\murat\Desktop\Siveps2-1-99-Project\source\client\extern\include\boost\unordered\unordered_map.hpp
; File C:\Users\murat\Desktop\Siveps2-1-99-Project\source\client\extern\include\boost\unordered\detail\implementation.hpp
; File C:\Users\murat\Desktop\Siveps2-1-99-Project\source\client\extern\include\boost\unordered\unordered_map.hpp
;	COMDAT ??0?$unordered_map@V?$basic_string@DU?$char_traits@D@std@@V?$allocator@D@2@@std@@PAVCEterPack@@Ustringhash@@U?$equal_to@V?$basic_string@DU?$char_traits@D@std@@V?$allocator@D@2@@std@@@2@V?$allocator@U?$pair@$$CBV?$basic_string@DU?$char_traits@D@std@@V?$allocator@D@2@@std@@PAVCEterPack@@@std@@@2@@unordered@boost@@QAE@XZ
_TEXT	SEGMENT
_this$ = -4						; size = 4
??0?$unordered_map@V?$basic_string@DU?$char_traits@D@std@@V?$allocator@D@2@@std@@PAVCEterPack@@Ustringhash@@U?$equal_to@V?$basic_string@DU?$char_traits@D@std@@V?$allocator@D@2@@std@@@2@V?$allocator@U?$pair@$$CBV?$basic_string@DU?$char_traits@D@std@@V?$allocator@D@2@@std@@PAVCEterPack@@@std@@@2@@unordered@boost@@QAE@XZ PROC ; boost::unordered::unordered_map<std::basic_string<char,std::char_traits<char>,std::allocator<char> >,CEterPack *,stringhash,std::equal_to<std::basic_string<char,std::char_traits<char>,std::allocator<char> > >,std::allocator<std::pair<std::basic_string<char,std::char_traits<char>,std::allocator<char> > const ,CEterPack *> > >::unordered_map<std::basic_string<char,std::char_traits<char>,std::allocator<char> >,CEterPack *,stringhash,std::equal_to<std::basic_string<char,std::char_traits<char>,std::allocator<char> > >,std::allocator<std::pair<std::basic_string<char,std::char_traits<char>,std::allocator<char> > const ,CEterPack *> > >, COMDAT
; _this$ = ecx

; 1510 :     {

  00000	55		 push	 ebp
  00001	8b ec		 mov	 ebp, esp
  00003	51		 push	 ecx
  00004	56		 push	 esi
  00005	8b f1		 mov	 esi, ecx
; File C:\Users\murat\Desktop\Siveps2-1-99-Project\source\client\extern\include\boost\unordered\detail\implementation.hpp

; 3121 :               bucket_count_(policy::new_bucket_count(num_buckets)), size_(0),

  00007	6a 0b		 push	 11			; 0000000bH
; File C:\Users\murat\Desktop\Siveps2-1-99-Project\source\client\extern\include\boost\unordered\unordered_map.hpp

; 1510 :     {

  00009	89 75 fc	 mov	 DWORD PTR _this$[ebp], esi
; File C:\Users\murat\Desktop\Siveps2-1-99-Project\source\client\extern\include\boost\unordered\detail\implementation.hpp

; 2761 :         functions(H const& hf, P const& eq) : current_(0)

  0000c	c6 06 00	 mov	 BYTE PTR [esi], 0

; 3121 :               bucket_count_(policy::new_bucket_count(num_buckets)), size_(0),

  0000f	e8 00 00 00 00	 call	 ?new_bucket_count@?$prime_policy@I@detail@unordered@boost@@SAII@Z ; boost::unordered::detail::prime_policy<unsigned int>::new_bucket_count
  00014	83 c4 04	 add	 esp, 4
  00017	89 46 04	 mov	 DWORD PTR [esi+4], eax
  0001a	c7 46 08 00 00
	00 00		 mov	 DWORD PTR [esi+8], 0
; File C:\Users\murat\Desktop\Siveps2-1-99-Project\source\client\extern\include\boost\unordered\unordered_map.hpp

; 1511 :     }

  00021	8b c6		 mov	 eax, esi
; File C:\Users\murat\Desktop\Siveps2-1-99-Project\source\client\extern\include\boost\unordered\detail\implementation.hpp

; 3122 :               mlf_(1.0f), max_load_(0), buckets_()

  00023	c7 46 0c 00 00
	80 3f		 mov	 DWORD PTR [esi+12], 1065353216 ; 3f800000H
  0002a	c7 46 10 00 00
	00 00		 mov	 DWORD PTR [esi+16], 0
  00031	c7 46 14 00 00
	00 00		 mov	 DWORD PTR [esi+20], 0
; File C:\Users\murat\Desktop\Siveps2-1-99-Project\source\client\extern\include\boost\unordered\unordered_map.hpp

; 1511 :     }

  00038	5e		 pop	 esi
  00039	8b e5		 mov	 esp, ebp
  0003b	5d		 pop	 ebp
  0003c	c3		 ret	 0
??0?$unordered_map@V?$basic_string@DU?$char_traits@D@std@@V?$allocator@D@2@@std@@PAVCEterPack@@Ustringhash@@U?$equal_to@V?$basic_string@DU?$char_traits@D@std@@V?$allocator@D@2@@std@@@2@V?$allocator@U?$pair@$$CBV?$basic_string@DU?$char_traits@D@std@@V?$allocator@D@2@@std@@PAVCEterPack@@@std@@@2@@unordered@boost@@QAE@XZ ENDP ; boost::unordered::unordered_map<std::basic_string<char,std::char_traits<char>,std::allocator<char> >,CEterPack *,stringhash,std::equal_to<std::basic_string<char,std::char_traits<char>,std::allocator<char> > >,std::allocator<std::pair<std::basic_string<char,std::char_traits<char>,std::allocator<char> > const ,CEterPack *> > >::unordered_map<std::basic_string<char,std::char_traits<char>,std::allocator<char> >,CEterPack *,stringhash,std::equal_to<std::basic_string<char,std::char_traits<char>,std::allocator<char> > >,std::allocator<std::pair<std::basic_string<char,std::char_traits<char>,std::allocator<char> > const ,CEterPack *> > >
_TEXT	ENDS
; Function compile flags: /Ogtp
; File C:\Users\murat\Desktop\Siveps2-1-99-Project\source\client\extern\include\boost\unordered\detail\implementation.hpp
; File C:\Program Files (x86)\Microsoft Visual Studio\2019\Professional\VC\Tools\MSVC\14.29.30133\include\xstring
; File C:\Users\murat\Desktop\Siveps2-1-99-Project\source\client\extern\include\boost\unordered\detail\implementation.hpp
; File C:\Program Files (x86)\Microsoft Visual Studio\2019\Professional\VC\Tools\MSVC\14.29.30133\include\xstring
; File C:\Users\murat\Desktop\Siveps2-1-99-Project\source\client\Client\eterBase\Stl.h
; File C:\Users\murat\Desktop\Siveps2-1-99-Project\source\client\extern\include\boost\unordered\detail\implementation.hpp
;	COMDAT ?rehash_impl@?$table@U?$map@V?$allocator@U?$pair@$$CBV?$basic_string@DU?$char_traits@D@std@@V?$allocator@D@2@@std@@PAVCEterPack@@@std@@@std@@V?$basic_string@DU?$char_traits@D@std@@V?$allocator@D@2@@2@PAVCEterPack@@Ustringhash@@U?$equal_to@V?$basic_string@DU?$char_traits@D@std@@V?$allocator@D@2@@std@@@2@@detail@unordered@boost@@@detail@unordered@boost@@QAEXI@Z
_TEXT	SEGMENT
_this$1$ = -4						; size = 4
_prev$1$ = 8						; size = 4
_num_buckets$ = 8					; size = 4
?rehash_impl@?$table@U?$map@V?$allocator@U?$pair@$$CBV?$basic_string@DU?$char_traits@D@std@@V?$allocator@D@2@@std@@PAVCEterPack@@@std@@@std@@V?$basic_string@DU?$char_traits@D@std@@V?$allocator@D@2@@2@PAVCEterPack@@Ustringhash@@U?$equal_to@V?$basic_string@DU?$char_traits@D@std@@V?$allocator@D@2@@std@@@2@@detail@unordered@boost@@@detail@unordered@boost@@QAEXI@Z PROC ; boost::unordered::detail::table<boost::unordered::detail::map<std::allocator<std::pair<std::basic_string<char,std::char_traits<char>,std::allocator<char> > const ,CEterPack *> >,std::basic_string<char,std::char_traits<char>,std::allocator<char> >,CEterPack *,stringhash,std::equal_to<std::basic_string<char,std::char_traits<char>,std::allocator<char> > > > >::rehash_impl, COMDAT
; _this$ = ecx

; 4577 :       {

  00000	55		 push	 ebp
  00001	8b ec		 mov	 ebp, esp
  00003	51		 push	 ecx
  00004	56		 push	 esi
  00005	57		 push	 edi

; 4578 :         BOOST_ASSERT(this->buckets_);
; 4579 : 
; 4580 :         this->create_buckets(num_buckets);

  00006	ff 75 08	 push	 DWORD PTR _num_buckets$[ebp]
  00009	8b f1		 mov	 esi, ecx
  0000b	89 75 fc	 mov	 DWORD PTR _this$1$[ebp], esi
  0000e	e8 00 00 00 00	 call	 ?create_buckets@?$table@U?$map@V?$allocator@U?$pair@$$CBV?$basic_string@DU?$char_traits@D@std@@V?$allocator@D@2@@std@@PAVCEterPack@@@std@@@std@@V?$basic_string@DU?$char_traits@D@std@@V?$allocator@D@2@@2@PAVCEterPack@@Ustringhash@@U?$equal_to@V?$basic_string@DU?$char_traits@D@std@@V?$allocator@D@2@@std@@@2@@detail@unordered@boost@@@detail@unordered@boost@@QAEXI@Z ; boost::unordered::detail::table<boost::unordered::detail::map<std::allocator<std::pair<std::basic_string<char,std::char_traits<char>,std::allocator<char> > const ,CEterPack *> >,std::basic_string<char,std::char_traits<char>,std::allocator<char> >,CEterPack *,stringhash,std::equal_to<std::basic_string<char,std::char_traits<char>,std::allocator<char> > > > >::create_buckets

; 3026 :           return buckets_ + static_cast<std::ptrdiff_t>(bucket_index);

  00013	8b 56 04	 mov	 edx, DWORD PTR [esi+4]
  00016	8b 46 14	 mov	 eax, DWORD PTR [esi+20]
  00019	8d 3c 90	 lea	 edi, DWORD PTR [eax+edx*4]
  0001c	89 7d 08	 mov	 DWORD PTR _prev$1$[ebp], edi

; 4581 :         link_pointer prev = this->get_previous_start();
; 4582 :         BOOST_TRY
; 4583 :         {
; 4584 :           while (prev->next_) {

  0001f	8b 3f		 mov	 edi, DWORD PTR [edi]
  00021	85 ff		 test	 edi, edi
  00023	0f 84 a6 00 00
	00		 je	 $LN3@rehash_imp
  00029	53		 push	 ebx
  0002a	66 0f 1f 44 00
	00		 npad	 6
$LL2@rehash_imp:
; File C:\Program Files (x86)\Microsoft Visual Studio\2019\Professional\VC\Tools\MSVC\14.29.30133\include\xstring

; 2319 :         return _BUF_SIZE <= _Myres;

  00030	83 7f 1c 10	 cmp	 DWORD PTR [edi+28], 16	; 00000010H

; 2305 :         const value_type* _Result = _Bx._Buf;

  00034	8d 47 08	 lea	 eax, DWORD PTR [edi+8]
; File C:\Users\murat\Desktop\Siveps2-1-99-Project\source\client\extern\include\boost\unordered\detail\implementation.hpp

; 4585 :             node_pointer n = next_node(prev);

  00037	8b f7		 mov	 esi, edi
; File C:\Program Files (x86)\Microsoft Visual Studio\2019\Professional\VC\Tools\MSVC\14.29.30133\include\xstring

; 2306 :         if (_Large_string_engaged()) {

  00039	72 03		 jb	 SHORT $LN40@rehash_imp

; 2307 :             _Result = _Unfancy(_Bx._Ptr);

  0003b	8b 47 08	 mov	 eax, DWORD PTR [edi+8]
$LN40@rehash_imp:
; File C:\Users\murat\Desktop\Siveps2-1-99-Project\source\client\Client\eterBase\Stl.h

; 478  :        const unsigned char * end = s + str.size();

  0003e	8b 5f 18	 mov	 ebx, DWORD PTR [edi+24]

; 479  :        size_t h = 0;

  00041	33 d2		 xor	 edx, edx
  00043	03 d8		 add	 ebx, eax

; 480  : 
; 481  :        while (s < end)

  00045	3b c3		 cmp	 eax, ebx
  00047	73 17		 jae	 SHORT $LN35@rehash_imp
  00049	0f 1f 80 00 00
	00 00		 npad	 7
$LL62@rehash_imp:

; 482  :        {
; 483  :            h *= 16777619;
; 484  :            h ^= (unsigned char) *(unsigned char *) (s++);

  00050	0f b6 08	 movzx	 ecx, BYTE PTR [eax]
  00053	40		 inc	 eax
  00054	69 d2 93 01 00
	01		 imul	 edx, edx, 16777619
  0005a	33 d1		 xor	 edx, ecx
  0005c	3b c3		 cmp	 eax, ebx
  0005e	72 f0		 jb	 SHORT $LL62@rehash_imp
$LN35@rehash_imp:
; File C:\Users\murat\Desktop\Siveps2-1-99-Project\source\client\extern\include\boost\unordered\detail\implementation.hpp

; 2604 :           return hash % bucket_count;

  00060	8b 5d fc	 mov	 ebx, DWORD PTR _this$1$[ebp]
  00063	8b c2		 mov	 eax, edx
  00065	33 d2		 xor	 edx, edx
  00067	f7 73 04	 div	 DWORD PTR [ebx+4]

; 4883 :           bucket_info_ = bucket_info_ & ((std::size_t)-1 >> 1);

  0006a	8b c2		 mov	 eax, edx
  0006c	25 ff ff ff 7f	 and	 eax, 2147483647		; 7fffffffH
  00071	89 47 04	 mov	 DWORD PTR [edi+4], eax

; 4586 :             std::size_t key_hash = this->hash(this->get_key(n));
; 4587 :             std::size_t bucket_index = this->hash_to_bucket(key_hash);
; 4588 : 
; 4589 :             n->bucket_info_ = bucket_index;
; 4590 :             n->set_first_in_group();
; 4591 : 
; 4592 :             // Iterator through the rest of the group of equal nodes,
; 4593 :             // setting the bucket.
; 4594 :             for (;;) {
; 4595 :               node_pointer next = next_node(n);

  00074	8b 07		 mov	 eax, DWORD PTR [edi]

; 4596 :               if (!next || next->is_first_in_group()) {

  00076	85 c0		 test	 eax, eax
  00078	74 26		 je	 SHORT $LN70@rehash_imp
  0007a	66 0f 1f 44 00
	00		 npad	 6
$LL4@rehash_imp:

; 4878 :           return !(bucket_info_ & ~((std::size_t)-1 >> 1));

  00080	8b 48 04	 mov	 ecx, DWORD PTR [eax+4]
  00083	c1 e9 1f	 shr	 ecx, 31			; 0000001fH
  00086	f7 d1		 not	 ecx
  00088	f6 c1 01	 test	 cl, 1

; 4596 :               if (!next || next->is_first_in_group()) {

  0008b	75 13		 jne	 SHORT $LN70@rehash_imp

; 4888 :           bucket_info_ = bucket_info_ | ~((std::size_t)-1 >> 1);

  0008d	8b ca		 mov	 ecx, edx

; 4597 :                 break;
; 4598 :               }
; 4599 :               n = next;

  0008f	8b f0		 mov	 esi, eax

; 4888 :           bucket_info_ = bucket_info_ | ~((std::size_t)-1 >> 1);

  00091	81 c9 00 00 00
	80		 or	 ecx, -2147483648	; 80000000H
  00097	89 48 04	 mov	 DWORD PTR [eax+4], ecx

; 4586 :             std::size_t key_hash = this->hash(this->get_key(n));
; 4587 :             std::size_t bucket_index = this->hash_to_bucket(key_hash);
; 4588 : 
; 4589 :             n->bucket_info_ = bucket_index;
; 4590 :             n->set_first_in_group();
; 4591 : 
; 4592 :             // Iterator through the rest of the group of equal nodes,
; 4593 :             // setting the bucket.
; 4594 :             for (;;) {
; 4595 :               node_pointer next = next_node(n);

  0009a	8b 00		 mov	 eax, DWORD PTR [eax]

; 4596 :               if (!next || next->is_first_in_group()) {

  0009c	85 c0		 test	 eax, eax
  0009e	75 e0		 jne	 SHORT $LL4@rehash_imp
$LN70@rehash_imp:

; 3026 :           return buckets_ + static_cast<std::ptrdiff_t>(bucket_index);

  000a0	8b 43 14	 mov	 eax, DWORD PTR [ebx+20]
  000a3	8d 0c 90	 lea	 ecx, DWORD PTR [eax+edx*4]

; 4600 :               n->bucket_info_ = bucket_index;
; 4601 :               n->reset_first_in_group();
; 4602 :             }
; 4603 : 
; 4604 :             // n is now the last node in the group
; 4605 :             bucket_pointer b = this->get_bucket_pointer(bucket_index);
; 4606 :             if (!b->next_) {

  000a6	8b 55 08	 mov	 edx, DWORD PTR _prev$1$[ebp]
  000a9	8b 01		 mov	 eax, DWORD PTR [ecx]
  000ab	85 c0		 test	 eax, eax
  000ad	75 09		 jne	 SHORT $LN12@rehash_imp

; 4607 :               b->next_ = prev;

  000af	89 11		 mov	 DWORD PTR [ecx], edx

; 4608 :               prev = n;

  000b1	8b 3e		 mov	 edi, DWORD PTR [esi]
  000b3	89 75 08	 mov	 DWORD PTR _prev$1$[ebp], esi

; 4609 :             } else {

  000b6	eb 0e		 jmp	 SHORT $LN13@rehash_imp
$LN12@rehash_imp:

; 4610 :               link_pointer next = n->next_;
; 4611 :               n->next_ = b->next_->next_;

  000b8	8b 00		 mov	 eax, DWORD PTR [eax]
  000ba	8b 3e		 mov	 edi, DWORD PTR [esi]
  000bc	89 06		 mov	 DWORD PTR [esi], eax

; 4612 :               b->next_->next_ = prev->next_;

  000be	8b 09		 mov	 ecx, DWORD PTR [ecx]
  000c0	8b 02		 mov	 eax, DWORD PTR [edx]
  000c2	89 01		 mov	 DWORD PTR [ecx], eax

; 4613 :               prev->next_ = next;

  000c4	89 3a		 mov	 DWORD PTR [edx], edi
$LN13@rehash_imp:

; 4581 :         link_pointer prev = this->get_previous_start();
; 4582 :         BOOST_TRY
; 4583 :         {
; 4584 :           while (prev->next_) {

  000c6	85 ff		 test	 edi, edi
  000c8	0f 85 62 ff ff
	ff		 jne	 $LL2@rehash_imp
  000ce	5b		 pop	 ebx
$LN3@rehash_imp:
  000cf	5f		 pop	 edi

; 4614 :             }
; 4615 :           }
; 4616 :         }
; 4617 :         BOOST_CATCH(...)
; 4618 :         {
; 4619 :           node_pointer n = next_node(prev);
; 4620 :           prev->next_ = node_pointer();
; 4621 :           while (n) {
; 4622 :             node_pointer next = next_node(n);
; 4623 :             destroy_node(n);
; 4624 :             --size_;
; 4625 :             n = next;
; 4626 :           }
; 4627 :           BOOST_RETHROW
; 4628 :         }
; 4629 :         BOOST_CATCH_END
; 4630 :       }

  000d0	5e		 pop	 esi
  000d1	8b e5		 mov	 esp, ebp
  000d3	5d		 pop	 ebp
  000d4	c2 04 00	 ret	 4
?rehash_impl@?$table@U?$map@V?$allocator@U?$pair@$$CBV?$basic_string@DU?$char_traits@D@std@@V?$allocator@D@2@@std@@PAVCEterPack@@@std@@@std@@V?$basic_string@DU?$char_traits@D@std@@V?$allocator@D@2@@2@PAVCEterPack@@Ustringhash@@U?$equal_to@V?$basic_string@DU?$char_traits@D@std@@V?$allocator@D@2@@std@@@2@@detail@unordered@boost@@@detail@unordered@boost@@QAEXI@Z ENDP ; boost::unordered::detail::table<boost::unordered::detail::map<std::allocator<std::pair<std::basic_string<char,std::char_traits<char>,std::allocator<char> > const ,CEterPack *> >,std::basic_string<char,std::char_traits<char>,std::allocator<char> >,CEterPack *,stringhash,std::equal_to<std::basic_string<char,std::char_traits<char>,std::allocator<char> > > > >::rehash_impl
_TEXT	ENDS
; Function compile flags: /Ogtp
; File C:\Users\murat\Desktop\Siveps2-1-99-Project\source\client\extern\include\boost\unordered\detail\implementation.hpp
; File C:\Program Files (x86)\Microsoft Visual Studio\2019\Professional\VC\Tools\MSVC\14.29.30133\include\xstring
; File C:\Users\murat\Desktop\Siveps2-1-99-Project\source\client\extern\include\boost\unordered\detail\implementation.hpp
; File C:\Program Files (x86)\Microsoft Visual Studio\2019\Professional\VC\Tools\MSVC\14.29.30133\include\xstring
; File C:\Program Files (x86)\Microsoft Visual Studio\2019\Professional\VC\Tools\MSVC\14.29.30133\include\xmemory
; File C:\Program Files (x86)\Microsoft Visual Studio\2019\Professional\VC\Tools\MSVC\14.29.30133\include\xstring
; File C:\Program Files (x86)\Microsoft Visual Studio\2019\Professional\VC\Tools\MSVC\14.29.30133\include\xmemory
; File C:\Program Files (x86)\Microsoft Visual Studio\2019\Professional\VC\Tools\MSVC\14.29.30133\include\xstring
; File C:\Program Files (x86)\Microsoft Visual Studio\2019\Professional\VC\Tools\MSVC\14.29.30133\include\xmemory
; File C:\Users\murat\Desktop\Siveps2-1-99-Project\source\client\extern\include\boost\unordered\detail\implementation.hpp
; File C:\Program Files (x86)\Microsoft Visual Studio\2019\Professional\VC\Tools\MSVC\14.29.30133\include\xmemory
; File C:\Users\murat\Desktop\Siveps2-1-99-Project\source\client\extern\include\boost\unordered\detail\implementation.hpp
; File C:\Program Files (x86)\Microsoft Visual Studio\2019\Professional\VC\Tools\MSVC\14.29.30133\include\xmemory
; File C:\Users\murat\Desktop\Siveps2-1-99-Project\source\client\extern\include\boost\unordered\detail\implementation.hpp
; File C:\Program Files (x86)\Microsoft Visual Studio\2019\Professional\VC\Tools\MSVC\14.29.30133\include\xmemory
; File C:\Users\murat\Desktop\Siveps2-1-99-Project\source\client\extern\include\boost\unordered\detail\implementation.hpp
;	COMDAT ??1?$table@U?$map@V?$allocator@U?$pair@$$CBV?$basic_string@DU?$char_traits@D@std@@V?$allocator@D@2@@std@@PAVCEterPack@@@std@@@std@@V?$basic_string@DU?$char_traits@D@std@@V?$allocator@D@2@@2@PAVCEterPack@@Ustringhash@@U?$equal_to@V?$basic_string@DU?$char_traits@D@std@@V?$allocator@D@2@@std@@@2@@detail@unordered@boost@@@detail@unordered@boost@@QAE@XZ
_TEXT	SEGMENT
$T1 = -4						; size = 4
??1?$table@U?$map@V?$allocator@U?$pair@$$CBV?$basic_string@DU?$char_traits@D@std@@V?$allocator@D@2@@std@@PAVCEterPack@@@std@@@std@@V?$basic_string@DU?$char_traits@D@std@@V?$allocator@D@2@@2@PAVCEterPack@@Ustringhash@@U?$equal_to@V?$basic_string@DU?$char_traits@D@std@@V?$allocator@D@2@@std@@@2@@detail@unordered@boost@@@detail@unordered@boost@@QAE@XZ PROC ; boost::unordered::detail::table<boost::unordered::detail::map<std::allocator<std::pair<std::basic_string<char,std::char_traits<char>,std::allocator<char> > const ,CEterPack *> >,std::basic_string<char,std::char_traits<char>,std::allocator<char> >,CEterPack *,stringhash,std::equal_to<std::basic_string<char,std::char_traits<char>,std::allocator<char> > > > >::~table<boost::unordered::detail::map<std::allocator<std::pair<std::basic_string<char,std::char_traits<char>,std::allocator<char> > const ,CEterPack *> >,std::basic_string<char,std::char_traits<char>,std::allocator<char> >,CEterPack *,stringhash,std::equal_to<std::basic_string<char,std::char_traits<char>,std::allocator<char> > > > >, COMDAT
; _this$ = ecx

; 3333 :         ~table() { delete_buckets(); }

  00000	55		 push	 ebp
  00001	8b ec		 mov	 ebp, esp
  00003	51		 push	 ecx
  00004	53		 push	 ebx
  00005	8b d9		 mov	 ebx, ecx

; 3345 :           if (buckets_) {

  00007	8b 53 14	 mov	 edx, DWORD PTR [ebx+20]
  0000a	85 d2		 test	 edx, edx
  0000c	0f 84 ca 00 00
	00		 je	 $LN6@table

; 3026 :           return buckets_ + static_cast<std::ptrdiff_t>(bucket_index);

  00012	8b 4b 04	 mov	 ecx, DWORD PTR [ebx+4]

; 3346 :             node_pointer n = static_cast<node_pointer>(

  00015	8b c1		 mov	 eax, ecx

; 3026 :           return buckets_ + static_cast<std::ptrdiff_t>(bucket_index);

  00017	56		 push	 esi
  00018	57		 push	 edi

; 3346 :             node_pointer n = static_cast<node_pointer>(

  00019	89 45 fc	 mov	 DWORD PTR $T1[ebp], eax
  0001c	8b fa		 mov	 edi, edx
  0001e	8b 34 8a	 mov	 esi, DWORD PTR [edx+ecx*4]

; 3347 :               get_bucket_pointer(bucket_count_)->next_);
; 3348 : 
; 3349 :             if (bucket::extra_node) {
; 3350 :               node_pointer next = next_node(n);
; 3351 :               boost::unordered::detail::func::destroy(boost::to_address(n));
; 3352 :               node_allocator_traits::deallocate(node_alloc(), n, 1);
; 3353 :               n = next;
; 3354 :             }
; 3355 : 
; 3356 :             while (n) {

  00021	85 f6		 test	 esi, esi
  00023	74 66		 je	 SHORT $LN5@table
$LL4@table:
; File C:\Program Files (x86)\Microsoft Visual Studio\2019\Professional\VC\Tools\MSVC\14.29.30133\include\xstring

; 2319 :         return _BUF_SIZE <= _Myres;

  00025	8b 4e 1c	 mov	 ecx, DWORD PTR [esi+28]
; File C:\Users\murat\Desktop\Siveps2-1-99-Project\source\client\extern\include\boost\unordered\detail\implementation.hpp

; 3357 :               node_pointer next = next_node(n);

  00028	8b 3e		 mov	 edi, DWORD PTR [esi]
; File C:\Program Files (x86)\Microsoft Visual Studio\2019\Professional\VC\Tools\MSVC\14.29.30133\include\xstring

; 2319 :         return _BUF_SIZE <= _Myres;

  0002a	83 f9 10	 cmp	 ecx, 16			; 00000010H

; 4618 :         if (_Mypair._Myval2._Large_string_engaged()) {

  0002d	72 2c		 jb	 SHORT $LN63@table
; File C:\Program Files (x86)\Microsoft Visual Studio\2019\Professional\VC\Tools\MSVC\14.29.30133\include\xmemory

; 835  :         _Deallocate<_New_alignof<_Ty>>(_Ptr, sizeof(_Ty) * _Count);

  0002f	8b 46 08	 mov	 eax, DWORD PTR [esi+8]
; File C:\Program Files (x86)\Microsoft Visual Studio\2019\Professional\VC\Tools\MSVC\14.29.30133\include\xstring

; 4622 :             _Al.deallocate(_Ptr, _Mypair._Myval2._Myres + 1);

  00032	41		 inc	 ecx
; File C:\Program Files (x86)\Microsoft Visual Studio\2019\Professional\VC\Tools\MSVC\14.29.30133\include\xmemory

; 260  :         if (_Bytes >= _Big_allocation_threshold) { // boost the alignment of big allocations to help autovectorization

  00033	81 f9 00 10 00
	00		 cmp	 ecx, 4096		; 00001000H
  00039	72 16		 jb	 SHORT $LN73@table

; 158  :     const uintptr_t _Ptr_container   = _Ptr_user[-1];

  0003b	8b 50 fc	 mov	 edx, DWORD PTR [eax-4]
  0003e	83 c1 23	 add	 ecx, 35			; 00000023H

; 159  : 
; 160  :     // If the following asserts, it likely means that we are performing
; 161  :     // an aligned delete on memory coming from an unaligned allocation.
; 162  :     _STL_ASSERT(_Ptr_user[-2] == _Big_allocation_sentinel, "invalid argument");
; 163  : 
; 164  :     // Extra paranoia on aligned allocation/deallocation; ensure _Ptr_container is
; 165  :     // in range [_Min_back_shift, _Non_user_size]
; 166  : #ifdef _DEBUG
; 167  :     constexpr uintptr_t _Min_back_shift = 2 * sizeof(void*);
; 168  : #else // ^^^ _DEBUG ^^^ // vvv !_DEBUG vvv
; 169  :     constexpr uintptr_t _Min_back_shift = sizeof(void*);
; 170  : #endif // _DEBUG
; 171  :     const uintptr_t _Back_shift = reinterpret_cast<uintptr_t>(_Ptr) - _Ptr_container;

  00041	2b c2		 sub	 eax, edx

; 172  :     _STL_VERIFY(_Back_shift >= _Min_back_shift && _Back_shift <= _Non_user_size, "invalid argument");

  00043	83 c0 fc	 add	 eax, -4			; fffffffcH
  00046	83 f8 1f	 cmp	 eax, 31			; 0000001fH
  00049	0f 87 92 00 00
	00		 ja	 $LN123@table

; 173  :     _Ptr = reinterpret_cast<void*>(_Ptr_container);

  0004f	8b c2		 mov	 eax, edx
$LN73@table:

; 264  :         ::operator delete(_Ptr, _Bytes);

  00051	51		 push	 ecx
  00052	50		 push	 eax
  00053	e8 00 00 00 00	 call	 ??3@YAXPAXI@Z		; operator delete
  00058	83 c4 08	 add	 esp, 8
$LN63@table:
  0005b	6a 24		 push	 36			; 00000024H
  0005d	56		 push	 esi
; File C:\Program Files (x86)\Microsoft Visual Studio\2019\Professional\VC\Tools\MSVC\14.29.30133\include\xstring

; 4633 :             _Mypair._Myval2._Mysize = 0;

  0005e	c7 46 18 00 00
	00 00		 mov	 DWORD PTR [esi+24], 0

; 4634 :             _Mypair._Myval2._Myres  = _BUF_SIZE - 1;

  00065	c7 46 1c 0f 00
	00 00		 mov	 DWORD PTR [esi+28], 15	; 0000000fH

; 4635 :             // the _Traits::assign is last so the codegen doesn't think the char write can alias this
; 4636 :             _Traits::assign(_Mypair._Myval2._Bx._Buf[0], _Elem());

  0006c	c6 46 08 00	 mov	 BYTE PTR [esi+8], 0
; File C:\Program Files (x86)\Microsoft Visual Studio\2019\Professional\VC\Tools\MSVC\14.29.30133\include\xmemory

; 264  :         ::operator delete(_Ptr, _Bytes);

  00070	e8 00 00 00 00	 call	 ??3@YAXPAXI@Z		; operator delete
  00075	83 c4 08	 add	 esp, 8
; File C:\Users\murat\Desktop\Siveps2-1-99-Project\source\client\extern\include\boost\unordered\detail\implementation.hpp

; 3359 :               n = next;

  00078	8b f7		 mov	 esi, edi
  0007a	85 ff		 test	 edi, edi
  0007c	75 a7		 jne	 SHORT $LL4@table
; File C:\Program Files (x86)\Microsoft Visual Studio\2019\Professional\VC\Tools\MSVC\14.29.30133\include\xmemory

; 173  :     _Ptr = reinterpret_cast<void*>(_Ptr_container);

  0007e	8b 4b 04	 mov	 ecx, DWORD PTR [ebx+4]
  00081	8b c1		 mov	 eax, ecx
  00083	8b 53 14	 mov	 edx, DWORD PTR [ebx+20]
  00086	8b fa		 mov	 edi, edx
  00088	89 4d fc	 mov	 DWORD PTR $T1[ebp], ecx
$LN5@table:
; File C:\Users\murat\Desktop\Siveps2-1-99-Project\source\client\extern\include\boost\unordered\detail\implementation.hpp

; 3026 :           return buckets_ + static_cast<std::ptrdiff_t>(bucket_index);

  0008b	8d 40 01	 lea	 eax, DWORD PTR [eax+1]
  0008e	8d 04 87	 lea	 eax, DWORD PTR [edi+eax*4]

; 3376 :           bucket_allocator_traits::deallocate(

  00091	3b f8		 cmp	 edi, eax
  00093	0f 44 4d fc	 cmove	 ecx, DWORD PTR $T1[ebp]
  00097	0f 44 d7	 cmove	 edx, edi
; File C:\Program Files (x86)\Microsoft Visual Studio\2019\Professional\VC\Tools\MSVC\14.29.30133\include\xmemory

; 702  :             _Deallocate<_New_alignof<value_type>>(_Ptr, sizeof(value_type) * _Count);

  0009a	8d 0c 8d 04 00
	00 00		 lea	 ecx, DWORD PTR [ecx*4+4]

; 260  :         if (_Bytes >= _Big_allocation_threshold) { // boost the alignment of big allocations to help autovectorization

  000a1	81 f9 00 10 00
	00		 cmp	 ecx, 4096		; 00001000H
  000a7	72 12		 jb	 SHORT $LN126@table

; 158  :     const uintptr_t _Ptr_container   = _Ptr_user[-1];

  000a9	8b 72 fc	 mov	 esi, DWORD PTR [edx-4]
  000ac	83 c1 23	 add	 ecx, 35			; 00000023H

; 159  : 
; 160  :     // If the following asserts, it likely means that we are performing
; 161  :     // an aligned delete on memory coming from an unaligned allocation.
; 162  :     _STL_ASSERT(_Ptr_user[-2] == _Big_allocation_sentinel, "invalid argument");
; 163  : 
; 164  :     // Extra paranoia on aligned allocation/deallocation; ensure _Ptr_container is
; 165  :     // in range [_Min_back_shift, _Non_user_size]
; 166  : #ifdef _DEBUG
; 167  :     constexpr uintptr_t _Min_back_shift = 2 * sizeof(void*);
; 168  : #else // ^^^ _DEBUG ^^^ // vvv !_DEBUG vvv
; 169  :     constexpr uintptr_t _Min_back_shift = sizeof(void*);
; 170  : #endif // _DEBUG
; 171  :     const uintptr_t _Back_shift = reinterpret_cast<uintptr_t>(_Ptr) - _Ptr_container;

  000af	2b d6		 sub	 edx, esi

; 172  :     _STL_VERIFY(_Back_shift >= _Min_back_shift && _Back_shift <= _Non_user_size, "invalid argument");

  000b1	8d 42 fc	 lea	 eax, DWORD PTR [edx-4]
  000b4	83 f8 1f	 cmp	 eax, 31			; 0000001fH
  000b7	77 28		 ja	 SHORT $LN123@table

; 173  :     _Ptr = reinterpret_cast<void*>(_Ptr_container);

  000b9	8b d6		 mov	 edx, esi
$LN126@table:

; 264  :         ::operator delete(_Ptr, _Bytes);

  000bb	51		 push	 ecx
  000bc	52		 push	 edx
  000bd	e8 00 00 00 00	 call	 ??3@YAXPAXI@Z		; operator delete
  000c2	83 c4 08	 add	 esp, 8
; File C:\Users\murat\Desktop\Siveps2-1-99-Project\source\client\extern\include\boost\unordered\detail\implementation.hpp

; 3363 :             buckets_ = bucket_pointer();

  000c5	c7 43 14 00 00
	00 00		 mov	 DWORD PTR [ebx+20], 0

; 3364 :             max_load_ = 0;

  000cc	c7 43 10 00 00
	00 00		 mov	 DWORD PTR [ebx+16], 0

; 3365 :             size_ = 0;

  000d3	c7 43 08 00 00
	00 00		 mov	 DWORD PTR [ebx+8], 0
  000da	5f		 pop	 edi
  000db	5e		 pop	 esi
$LN6@table:
  000dc	5b		 pop	 ebx

; 3333 :         ~table() { delete_buckets(); }

  000dd	8b e5		 mov	 esp, ebp
  000df	5d		 pop	 ebp
  000e0	c3		 ret	 0
$LN123@table:
; File C:\Program Files (x86)\Microsoft Visual Studio\2019\Professional\VC\Tools\MSVC\14.29.30133\include\xmemory

; 172  :     _STL_VERIFY(_Back_shift >= _Min_back_shift && _Back_shift <= _Non_user_size, "invalid argument");

  000e1	e8 00 00 00 00	 call	 __invalid_parameter_noinfo_noreturn
$LN139@table:
  000e6	cc		 int	 3
??1?$table@U?$map@V?$allocator@U?$pair@$$CBV?$basic_string@DU?$char_traits@D@std@@V?$allocator@D@2@@std@@PAVCEterPack@@@std@@@std@@V?$basic_string@DU?$char_traits@D@std@@V?$allocator@D@2@@2@PAVCEterPack@@Ustringhash@@U?$equal_to@V?$basic_string@DU?$char_traits@D@std@@V?$allocator@D@2@@std@@@2@@detail@unordered@boost@@@detail@unordered@boost@@QAE@XZ ENDP ; boost::unordered::detail::table<boost::unordered::detail::map<std::allocator<std::pair<std::basic_string<char,std::char_traits<char>,std::allocator<char> > const ,CEterPack *> >,std::basic_string<char,std::char_traits<char>,std::allocator<char> >,CEterPack *,stringhash,std::equal_to<std::basic_string<char,std::char_traits<char>,std::allocator<char> > > > >::~table<boost::unordered::detail::map<std::allocator<std::pair<std::basic_string<char,std::char_traits<char>,std::allocator<char> > const ,CEterPack *> >,std::basic_string<char,std::char_traits<char>,std::allocator<char> >,CEterPack *,stringhash,std::equal_to<std::basic_string<char,std::char_traits<char>,std::allocator<char> > > > >
_TEXT	ENDS
; Function compile flags: /Ogtp
; File C:\Users\murat\Desktop\Siveps2-1-99-Project\source\client\extern\include\boost\unordered\detail\implementation.hpp
; File C:\Program Files (x86)\Microsoft Visual Studio\2019\Professional\VC\Tools\MSVC\14.29.30133\include\xmemory
; File C:\Users\murat\Desktop\Siveps2-1-99-Project\source\client\extern\include\boost\unordered\detail\implementation.hpp
; File C:\Program Files (x86)\Microsoft Visual Studio\2019\Professional\VC\Tools\MSVC\14.29.30133\include\xmemory
; File C:\Users\murat\Desktop\Siveps2-1-99-Project\source\client\extern\include\boost\unordered\detail\implementation.hpp
; File C:\Program Files (x86)\Microsoft Visual Studio\2019\Professional\VC\Tools\MSVC\14.29.30133\include\xmemory
; File C:\Users\murat\Desktop\Siveps2-1-99-Project\source\client\extern\include\boost\unordered\detail\implementation.hpp
;	COMDAT ?create_buckets@?$table@U?$map@V?$allocator@U?$pair@$$CBV?$basic_string@DU?$char_traits@D@std@@V?$allocator@D@2@@std@@PAVCEterPack@@@std@@@std@@V?$basic_string@DU?$char_traits@D@std@@V?$allocator@D@2@@2@PAVCEterPack@@Ustringhash@@U?$equal_to@V?$basic_string@DU?$char_traits@D@std@@V?$allocator@D@2@@std@@@2@@detail@unordered@boost@@@detail@unordered@boost@@QAEXI@Z
_TEXT	SEGMENT
tv583 = -8						; size = 8
_f$ = -8						; size = 8
_dummy_node$1$ = 8					; size = 4
_new_count$ = 8						; size = 4
?create_buckets@?$table@U?$map@V?$allocator@U?$pair@$$CBV?$basic_string@DU?$char_traits@D@std@@V?$allocator@D@2@@std@@PAVCEterPack@@@std@@@std@@V?$basic_string@DU?$char_traits@D@std@@V?$allocator@D@2@@2@PAVCEterPack@@Ustringhash@@U?$equal_to@V?$basic_string@DU?$char_traits@D@std@@V?$allocator@D@2@@std@@@2@@detail@unordered@boost@@@detail@unordered@boost@@QAEXI@Z PROC ; boost::unordered::detail::table<boost::unordered::detail::map<std::allocator<std::pair<std::basic_string<char,std::char_traits<char>,std::allocator<char> > const ,CEterPack *> >,std::basic_string<char,std::char_traits<char>,std::allocator<char> >,CEterPack *,stringhash,std::equal_to<std::basic_string<char,std::char_traits<char>,std::allocator<char> > > > >::create_buckets, COMDAT
; _this$ = ecx

; 3178 :         {

  00000	55		 push	 ebp
  00001	8b ec		 mov	 ebp, esp
  00003	83 ec 08	 sub	 esp, 8
  00006	53		 push	 ebx

; 3179 :           link_pointer dummy_node;
; 3180 : 
; 3181 :           // Construct the new buckets and dummy node, and destroy the old
; 3182 :           // buckets
; 3183 :           if (buckets_) {

  00007	8b 5d 08	 mov	 ebx, DWORD PTR _new_count$[ebp]
  0000a	56		 push	 esi
  0000b	57		 push	 edi
  0000c	8b f9		 mov	 edi, ecx
  0000e	8d 4b 01	 lea	 ecx, DWORD PTR [ebx+1]
  00011	8b 57 14	 mov	 edx, DWORD PTR [edi+20]
  00014	85 d2		 test	 edx, edx
  00016	74 77		 je	 SHORT $LN5@create_buc

; 3184 :             dummy_node =

  00018	8b 47 04	 mov	 eax, DWORD PTR [edi+4]
  0001b	8b 04 82	 mov	 eax, DWORD PTR [edx+eax*4]
  0001e	89 45 08	 mov	 DWORD PTR _dummy_node$1$[ebp], eax
; File C:\Program Files (x86)\Microsoft Visual Studio\2019\Professional\VC\Tools\MSVC\14.29.30133\include\xmemory

; 64   :         if (_Count > _Max_possible) {

  00021	81 f9 ff ff ff
	3f		 cmp	 ecx, 1073741823		; 3fffffffH
  00027	0f 87 33 01 00
	00		 ja	 $LN103@create_buc

; 66   :         }
; 67   :     }
; 68   : 
; 69   :     return _Count * _Ty_size;

  0002d	c1 e1 02	 shl	 ecx, 2

; 237  :         if (_Bytes >= _Big_allocation_threshold) { // boost the alignment of big allocations to help autovectorization

  00030	81 f9 00 10 00
	00		 cmp	 ecx, 4096		; 00001000H
  00036	72 0d		 jb	 SHORT $LN18@create_buc

; 238  :             return _Allocate_manually_vector_aligned<_Traits>(_Bytes);

  00038	51		 push	 ecx
  00039	e8 00 00 00 00	 call	 ??$_Allocate_manually_vector_aligned@U_Default_allocate_traits@std@@@std@@YAPAXI@Z ; std::_Allocate_manually_vector_aligned<std::_Default_allocate_traits>
  0003e	83 c4 04	 add	 esp, 4
  00041	8b f0		 mov	 esi, eax
  00043	eb 13		 jmp	 SHORT $LN17@create_buc
$LN18@create_buc:

; 239  :         }
; 240  :     }
; 241  : #endif // defined(_M_IX86) || defined(_M_X64)
; 242  : 
; 243  :     if (_Bytes != 0) {

  00045	85 c9		 test	 ecx, ecx
  00047	74 0d		 je	 SHORT $LN19@create_buc

; 85   :         return ::operator new(_Bytes);

  00049	51		 push	 ecx
  0004a	e8 00 00 00 00	 call	 ??2@YAPAXI@Z		; operator new
  0004f	83 c4 04	 add	 esp, 4

; 244  :         return _Traits::_Allocate(_Bytes);

  00052	8b f0		 mov	 esi, eax
  00054	eb 02		 jmp	 SHORT $LN17@create_buc
$LN19@create_buc:

; 245  :     }
; 246  : 
; 247  :     return nullptr;

  00056	33 f6		 xor	 esi, esi
$LN17@create_buc:

; 702  :             _Deallocate<_New_alignof<value_type>>(_Ptr, sizeof(value_type) * _Count);

  00058	8b 47 04	 mov	 eax, DWORD PTR [edi+4]
  0005b	8d 0c 85 04 00
	00 00		 lea	 ecx, DWORD PTR [eax*4+4]
  00062	8b 47 14	 mov	 eax, DWORD PTR [edi+20]

; 260  :         if (_Bytes >= _Big_allocation_threshold) { // boost the alignment of big allocations to help autovectorization

  00065	81 f9 00 10 00
	00		 cmp	 ecx, 4096		; 00001000H
  0006b	72 16		 jb	 SHORT $LN45@create_buc

; 158  :     const uintptr_t _Ptr_container   = _Ptr_user[-1];

  0006d	8b 50 fc	 mov	 edx, DWORD PTR [eax-4]
  00070	83 c1 23	 add	 ecx, 35			; 00000023H

; 159  : 
; 160  :     // If the following asserts, it likely means that we are performing
; 161  :     // an aligned delete on memory coming from an unaligned allocation.
; 162  :     _STL_ASSERT(_Ptr_user[-2] == _Big_allocation_sentinel, "invalid argument");
; 163  : 
; 164  :     // Extra paranoia on aligned allocation/deallocation; ensure _Ptr_container is
; 165  :     // in range [_Min_back_shift, _Non_user_size]
; 166  : #ifdef _DEBUG
; 167  :     constexpr uintptr_t _Min_back_shift = 2 * sizeof(void*);
; 168  : #else // ^^^ _DEBUG ^^^ // vvv !_DEBUG vvv
; 169  :     constexpr uintptr_t _Min_back_shift = sizeof(void*);
; 170  : #endif // _DEBUG
; 171  :     const uintptr_t _Back_shift = reinterpret_cast<uintptr_t>(_Ptr) - _Ptr_container;

  00073	2b c2		 sub	 eax, edx

; 172  :     _STL_VERIFY(_Back_shift >= _Min_back_shift && _Back_shift <= _Non_user_size, "invalid argument");

  00075	83 c0 fc	 add	 eax, -4			; fffffffcH
  00078	83 f8 1f	 cmp	 eax, 31			; 0000001fH
  0007b	0f 87 da 00 00
	00		 ja	 $LN42@create_buc

; 173  :     _Ptr = reinterpret_cast<void*>(_Ptr_container);

  00081	8b c2		 mov	 eax, edx
$LN45@create_buc:

; 264  :         ::operator delete(_Ptr, _Bytes);

  00083	51		 push	 ecx
  00084	50		 push	 eax
  00085	e8 00 00 00 00	 call	 ??3@YAXPAXI@Z		; operator delete
  0008a	83 c4 08	 add	 esp, 8
; File C:\Users\murat\Desktop\Siveps2-1-99-Project\source\client\extern\include\boost\unordered\detail\implementation.hpp

; 3189 :             buckets_ = new_buckets;

  0008d	eb 41		 jmp	 SHORT $LN77@create_buc
$LN5@create_buc:

; 3190 :           } else if (bucket::extra_node) {
; 3191 :             node_constructor a(node_alloc());
; 3192 :             a.create_node();
; 3193 :             buckets_ =
; 3194 :               bucket_allocator_traits::allocate(bucket_alloc(), new_count + 1);
; 3195 :             dummy_node = a.release();
; 3196 :           } else {
; 3197 :             dummy_node = link_pointer();

  0008f	c7 45 08 00 00
	00 00		 mov	 DWORD PTR _dummy_node$1$[ebp], 0
; File C:\Program Files (x86)\Microsoft Visual Studio\2019\Professional\VC\Tools\MSVC\14.29.30133\include\xmemory

; 64   :         if (_Count > _Max_possible) {

  00096	81 f9 ff ff ff
	3f		 cmp	 ecx, 1073741823		; 3fffffffH
  0009c	0f 87 be 00 00
	00		 ja	 $LN103@create_buc

; 66   :         }
; 67   :     }
; 68   : 
; 69   :     return _Count * _Ty_size;

  000a2	8d 04 8d 00 00
	00 00		 lea	 eax, DWORD PTR [ecx*4]

; 237  :         if (_Bytes >= _Big_allocation_threshold) { // boost the alignment of big allocations to help autovectorization

  000a9	3d 00 10 00 00	 cmp	 eax, 4096		; 00001000H
  000ae	72 0d		 jb	 SHORT $LN78@create_buc

; 238  :             return _Allocate_manually_vector_aligned<_Traits>(_Bytes);

  000b0	50		 push	 eax
  000b1	e8 00 00 00 00	 call	 ??$_Allocate_manually_vector_aligned@U_Default_allocate_traits@std@@@std@@YAPAXI@Z ; std::_Allocate_manually_vector_aligned<std::_Default_allocate_traits>
  000b6	83 c4 04	 add	 esp, 4
  000b9	8b f0		 mov	 esi, eax
  000bb	eb 13		 jmp	 SHORT $LN77@create_buc
$LN78@create_buc:

; 239  :         }
; 240  :     }
; 241  : #endif // defined(_M_IX86) || defined(_M_X64)
; 242  : 
; 243  :     if (_Bytes != 0) {

  000bd	85 c0		 test	 eax, eax
  000bf	74 0d		 je	 SHORT $LN79@create_buc

; 85   :         return ::operator new(_Bytes);

  000c1	50		 push	 eax
  000c2	e8 00 00 00 00	 call	 ??2@YAPAXI@Z		; operator new
  000c7	83 c4 04	 add	 esp, 4

; 244  :         return _Traits::_Allocate(_Bytes);

  000ca	8b f0		 mov	 esi, eax
  000cc	eb 02		 jmp	 SHORT $LN77@create_buc
$LN79@create_buc:

; 245  :     }
; 246  : 
; 247  :     return nullptr;

  000ce	33 f6		 xor	 esi, esi
$LN77@create_buc:
; File C:\Users\murat\Desktop\Siveps2-1-99-Project\source\client\extern\include\boost\unordered\detail\implementation.hpp

; 3203 :           bucket_count_ = new_count;

  000d0	89 77 14	 mov	 DWORD PTR [edi+20], esi
  000d3	89 5f 04	 mov	 DWORD PTR [edi+4], ebx

; 3081 :           max_load_ = buckets_ ? boost::unordered::detail::double_to_size(

  000d6	85 f6		 test	 esi, esi
  000d8	74 55		 je	 SHORT $LN85@create_buc
  000da	f3 0f 10 4f 0c	 movss	 xmm1, DWORD PTR [edi+12]
  000df	0f 57 c0	 xorps	 xmm0, xmm0
  000e2	f2 0f 2a c3	 cvtsi2sd xmm0, ebx
  000e6	8b c3		 mov	 eax, ebx
  000e8	83 ec 08	 sub	 esp, 8
  000eb	c1 e8 1f	 shr	 eax, 31			; 0000001fH
  000ee	0f 5a c9	 cvtps2pd xmm1, xmm1
  000f1	f2 0f 58 04 c5
	00 00 00 00	 addsd	 xmm0, QWORD PTR __xmm@41f00000000000000000000000000000[eax*8]
  000fa	f2 0f 59 c8	 mulsd	 xmm1, xmm0
  000fe	f2 0f 11 4d f8	 movsd	 QWORD PTR tv583[ebp], xmm1
  00103	dd 45 f8	 fld	 QWORD PTR tv583[ebp]
  00106	dd 1c 24	 fstp	 QWORD PTR [esp]
  00109	e8 00 00 00 00	 call	 _ceil
  0010e	dd 5d f8	 fstp	 QWORD PTR _f$[ebp]

; 2893 :         return f >= static_cast<double>(

  00111	f2 0f 10 45 f8	 movsd	 xmm0, QWORD PTR _f$[ebp]

; 3081 :           max_load_ = buckets_ ? boost::unordered::detail::double_to_size(

  00116	83 c4 08	 add	 esp, 8

; 2893 :         return f >= static_cast<double>(

  00119	66 0f 2f 05 00
	00 00 00	 comisd	 xmm0, QWORD PTR __real@41efffffffe00000
  00121	72 05		 jb	 SHORT $LN89@create_buc
  00123	83 c8 ff	 or	 eax, -1
  00126	eb 09		 jmp	 SHORT $LN86@create_buc
$LN89@create_buc:
  00128	e8 00 00 00 00	 call	 __dtoui3

; 3081 :           max_load_ = buckets_ ? boost::unordered::detail::double_to_size(

  0012d	eb 02		 jmp	 SHORT $LN86@create_buc
$LN85@create_buc:
  0012f	33 c0		 xor	 eax, eax
$LN86@create_buc:
  00131	89 47 10	 mov	 DWORD PTR [edi+16], eax

; 3204 :           recalculate_max_load();
; 3205 : 
; 3206 :           bucket_pointer end =

  00134	8d 04 9e	 lea	 eax, DWORD PTR [esi+ebx*4]

; 3207 :             buckets_ + static_cast<std::ptrdiff_t>(new_count);
; 3208 :           for (bucket_pointer i = buckets_; i != end; ++i) {

  00137	3b f0		 cmp	 esi, eax
  00139	74 12		 je	 SHORT $LN3@create_buc
  0013b	0f 1f 44 00 00	 npad	 5
$LL4@create_buc:

; 2579 :         ptr_bucket() : next_(0) {}

  00140	c7 06 00 00 00
	00		 mov	 DWORD PTR [esi], 0

; 3207 :             buckets_ + static_cast<std::ptrdiff_t>(new_count);
; 3208 :           for (bucket_pointer i = buckets_; i != end; ++i) {

  00146	83 c6 04	 add	 esi, 4
  00149	3b f0		 cmp	 esi, eax
  0014b	75 f3		 jne	 SHORT $LL4@create_buc
$LN3@create_buc:

; 2580 :         ptr_bucket(link_pointer n) : next_(n) {}

  0014d	8b 4d 08	 mov	 ecx, DWORD PTR _dummy_node$1$[ebp]
  00150	5f		 pop	 edi
  00151	5e		 pop	 esi
  00152	89 08		 mov	 DWORD PTR [eax], ecx
  00154	5b		 pop	 ebx

; 3212 :         }

  00155	8b e5		 mov	 esp, ebp
  00157	5d		 pop	 ebp
  00158	c2 04 00	 ret	 4
$LN42@create_buc:
; File C:\Program Files (x86)\Microsoft Visual Studio\2019\Professional\VC\Tools\MSVC\14.29.30133\include\xmemory

; 172  :     _STL_VERIFY(_Back_shift >= _Min_back_shift && _Back_shift <= _Non_user_size, "invalid argument");

  0015b	e8 00 00 00 00	 call	 __invalid_parameter_noinfo_noreturn
$LN103@create_buc:

; 65   :             _Throw_bad_array_new_length(); // multiply overflow

  00160	e8 00 00 00 00	 call	 ?_Throw_bad_array_new_length@std@@YAXXZ ; std::_Throw_bad_array_new_length
$LN104@create_buc:
  00165	cc		 int	 3
?create_buckets@?$table@U?$map@V?$allocator@U?$pair@$$CBV?$basic_string@DU?$char_traits@D@std@@V?$allocator@D@2@@std@@PAVCEterPack@@@std@@@std@@V?$basic_string@DU?$char_traits@D@std@@V?$allocator@D@2@@2@PAVCEterPack@@Ustringhash@@U?$equal_to@V?$basic_string@DU?$char_traits@D@std@@V?$allocator@D@2@@std@@@2@@detail@unordered@boost@@@detail@unordered@boost@@QAEXI@Z ENDP ; boost::unordered::detail::table<boost::unordered::detail::map<std::allocator<std::pair<std::basic_string<char,std::char_traits<char>,std::allocator<char> > const ,CEterPack *> >,std::basic_string<char,std::char_traits<char>,std::allocator<char> >,CEterPack *,stringhash,std::equal_to<std::basic_string<char,std::char_traits<char>,std::allocator<char> > > > >::create_buckets
_TEXT	ENDS
; Function compile flags: /Ogtp
; File C:\Users\murat\Desktop\Siveps2-1-99-Project\source\client\extern\include\boost\unordered\detail\implementation.hpp
;	COMDAT ?min_buckets_for_size@?$table@U?$map@V?$allocator@U?$pair@$$CBV?$basic_string@DU?$char_traits@D@std@@V?$allocator@D@2@@std@@PAVCEterPack@@@std@@@std@@V?$basic_string@DU?$char_traits@D@std@@V?$allocator@D@2@@2@PAVCEterPack@@Ustringhash@@U?$equal_to@V?$basic_string@DU?$char_traits@D@std@@V?$allocator@D@2@@std@@@2@@detail@unordered@boost@@@detail@unordered@boost@@QBEII@Z
_TEXT	SEGMENT
tv132 = -8						; size = 8
tv75 = -8						; size = 8
_size$ = 8						; size = 4
?min_buckets_for_size@?$table@U?$map@V?$allocator@U?$pair@$$CBV?$basic_string@DU?$char_traits@D@std@@V?$allocator@D@2@@std@@PAVCEterPack@@@std@@@std@@V?$basic_string@DU?$char_traits@D@std@@V?$allocator@D@2@@2@PAVCEterPack@@Ustringhash@@U?$equal_to@V?$basic_string@DU?$char_traits@D@std@@V?$allocator@D@2@@std@@@2@@detail@unordered@boost@@@detail@unordered@boost@@QBEII@Z PROC ; boost::unordered::detail::table<boost::unordered::detail::map<std::allocator<std::pair<std::basic_string<char,std::char_traits<char>,std::allocator<char> > const ,CEterPack *> >,std::basic_string<char,std::char_traits<char>,std::allocator<char> >,CEterPack *,stringhash,std::equal_to<std::basic_string<char,std::char_traits<char>,std::allocator<char> > > > >::min_buckets_for_size, COMDAT
; _this$ = ecx

; 3095 :         {

  00000	55		 push	 ebp
  00001	8b ec		 mov	 ebp, esp
  00003	83 ec 08	 sub	 esp, 8

; 3096 :           BOOST_ASSERT(mlf_ >= minimum_max_load_factor);
; 3097 : 
; 3098 :           using namespace std;
; 3099 : 
; 3100 :           // From insert/emplace requirements:
; 3101 :           //
; 3102 :           // size <= mlf_ * count
; 3103 :           // => count >= size / mlf_
; 3104 :           //
; 3105 :           // Or from rehash post-condition:
; 3106 :           //
; 3107 :           // count >= size / mlf_
; 3108 : 
; 3109 :           return policy::new_bucket_count(

  00006	8b 45 08	 mov	 eax, DWORD PTR _size$[ebp]
  00009	83 ec 08	 sub	 esp, 8
  0000c	f3 0f 10 41 0c	 movss	 xmm0, DWORD PTR [ecx+12]
  00011	0f 5a c0	 cvtps2pd xmm0, xmm0
  00014	66 0f 6e c8	 movd	 xmm1, eax
  00018	f3 0f e6 c9	 cvtdq2pd xmm1, xmm1
  0001c	c1 e8 1f	 shr	 eax, 31			; 0000001fH
  0001f	f2 0f 58 0c c5
	00 00 00 00	 addsd	 xmm1, QWORD PTR __xmm@41f00000000000000000000000000000[eax*8]
  00028	f2 0f 5e c8	 divsd	 xmm1, xmm0
  0002c	f2 0f 11 4d f8	 movsd	 QWORD PTR tv132[ebp], xmm1
  00031	dd 45 f8	 fld	 QWORD PTR tv132[ebp]
  00034	dd 1c 24	 fstp	 QWORD PTR [esp]
  00037	e8 00 00 00 00	 call	 _floor
  0003c	dd 5d f8	 fstp	 QWORD PTR tv75[ebp]
  0003f	f2 0f 10 45 f8	 movsd	 xmm0, QWORD PTR tv75[ebp]
  00044	83 c4 08	 add	 esp, 8
  00047	f2 0f 58 05 00
	00 00 00	 addsd	 xmm0, QWORD PTR __real@3ff0000000000000

; 2893 :         return f >= static_cast<double>(

  0004f	66 0f 2f 05 00
	00 00 00	 comisd	 xmm0, QWORD PTR __real@41efffffffe00000
  00057	72 12		 jb	 SHORT $LN5@min_bucket
  00059	83 c8 ff	 or	 eax, -1

; 3096 :           BOOST_ASSERT(mlf_ >= minimum_max_load_factor);
; 3097 : 
; 3098 :           using namespace std;
; 3099 : 
; 3100 :           // From insert/emplace requirements:
; 3101 :           //
; 3102 :           // size <= mlf_ * count
; 3103 :           // => count >= size / mlf_
; 3104 :           //
; 3105 :           // Or from rehash post-condition:
; 3106 :           //
; 3107 :           // count >= size / mlf_
; 3108 : 
; 3109 :           return policy::new_bucket_count(

  0005c	50		 push	 eax
  0005d	e8 00 00 00 00	 call	 ?new_bucket_count@?$prime_policy@I@detail@unordered@boost@@SAII@Z ; boost::unordered::detail::prime_policy<unsigned int>::new_bucket_count
  00062	83 c4 04	 add	 esp, 4

; 3110 :             boost::unordered::detail::double_to_size(
; 3111 :               floor(static_cast<double>(size) / static_cast<double>(mlf_)) +
; 3112 :               1));
; 3113 :         }

  00065	8b e5		 mov	 esp, ebp
  00067	5d		 pop	 ebp
  00068	c2 04 00	 ret	 4
$LN5@min_bucket:

; 2893 :         return f >= static_cast<double>(

  0006b	e8 00 00 00 00	 call	 __dtoui3

; 3096 :           BOOST_ASSERT(mlf_ >= minimum_max_load_factor);
; 3097 : 
; 3098 :           using namespace std;
; 3099 : 
; 3100 :           // From insert/emplace requirements:
; 3101 :           //
; 3102 :           // size <= mlf_ * count
; 3103 :           // => count >= size / mlf_
; 3104 :           //
; 3105 :           // Or from rehash post-condition:
; 3106 :           //
; 3107 :           // count >= size / mlf_
; 3108 : 
; 3109 :           return policy::new_bucket_count(

  00070	50		 push	 eax
  00071	e8 00 00 00 00	 call	 ?new_bucket_count@?$prime_policy@I@detail@unordered@boost@@SAII@Z ; boost::unordered::detail::prime_policy<unsigned int>::new_bucket_count
  00076	83 c4 04	 add	 esp, 4

; 3110 :             boost::unordered::detail::double_to_size(
; 3111 :               floor(static_cast<double>(size) / static_cast<double>(mlf_)) +
; 3112 :               1));
; 3113 :         }

  00079	8b e5		 mov	 esp, ebp
  0007b	5d		 pop	 ebp
  0007c	c2 04 00	 ret	 4
?min_buckets_for_size@?$table@U?$map@V?$allocator@U?$pair@$$CBV?$basic_string@DU?$char_traits@D@std@@V?$allocator@D@2@@std@@PAVCEterPack@@@std@@@std@@V?$basic_string@DU?$char_traits@D@std@@V?$allocator@D@2@@2@PAVCEterPack@@Ustringhash@@U?$equal_to@V?$basic_string@DU?$char_traits@D@std@@V?$allocator@D@2@@std@@@2@@detail@unordered@boost@@@detail@unordered@boost@@QBEII@Z ENDP ; boost::unordered::detail::table<boost::unordered::detail::map<std::allocator<std::pair<std::basic_string<char,std::char_traits<char>,std::allocator<char> > const ,CEterPack *> >,std::basic_string<char,std::char_traits<char>,std::allocator<char> >,CEterPack *,stringhash,std::equal_to<std::basic_string<char,std::char_traits<char>,std::allocator<char> > > > >::min_buckets_for_size
_TEXT	ENDS
; Function compile flags: /Ogtp
; File C:\Program Files (x86)\Microsoft Visual Studio\2019\Professional\VC\Tools\MSVC\14.29.30133\include\list
; File C:\Program Files (x86)\Microsoft Visual Studio\2019\Professional\VC\Tools\MSVC\14.29.30133\include\xmemory
; File C:\Program Files (x86)\Microsoft Visual Studio\2019\Professional\VC\Tools\MSVC\14.29.30133\include\list
; File C:\Program Files (x86)\Microsoft Visual Studio\2019\Professional\VC\Tools\MSVC\14.29.30133\include\xmemory
; File C:\Program Files (x86)\Microsoft Visual Studio\2019\Professional\VC\Tools\MSVC\14.29.30133\include\list
; File C:\Program Files (x86)\Microsoft Visual Studio\2019\Professional\VC\Tools\MSVC\14.29.30133\include\xmemory
; File C:\Program Files (x86)\Microsoft Visual Studio\2019\Professional\VC\Tools\MSVC\14.29.30133\include\list
;	COMDAT ?push_front@?$list@PAVCEterPack@@V?$allocator@PAVCEterPack@@@std@@@std@@QAEXABQAVCEterPack@@@Z
_TEXT	SEGMENT
__Op$2 = -20						; size = 8
__$EHRec$ = -12						; size = 12
__Val$ = 8						; size = 4
?push_front@?$list@PAVCEterPack@@V?$allocator@PAVCEterPack@@@std@@@std@@QAEXABQAVCEterPack@@@Z PROC ; std::list<CEterPack *,std::allocator<CEterPack *> >::push_front, COMDAT
; _this$ = ecx

; 1239 :     void push_front(const _Ty& _Val) {

  00000	55		 push	 ebp
  00001	8b ec		 mov	 ebp, esp
  00003	6a ff		 push	 -1
  00005	68 00 00 00 00	 push	 __ehhandler$?push_front@?$list@PAVCEterPack@@V?$allocator@PAVCEterPack@@@std@@@std@@QAEXABQAVCEterPack@@@Z
  0000a	64 a1 00 00 00
	00		 mov	 eax, DWORD PTR fs:0
  00010	50		 push	 eax
  00011	83 ec 08	 sub	 esp, 8
  00014	56		 push	 esi
  00015	57		 push	 edi
  00016	a1 00 00 00 00	 mov	 eax, DWORD PTR ___security_cookie
  0001b	33 c5		 xor	 eax, ebp
  0001d	50		 push	 eax
  0001e	8d 45 f4	 lea	 eax, DWORD PTR __$EHRec$[ebp]
  00021	64 a3 00 00 00
	00		 mov	 DWORD PTR fs:0, eax
  00027	8b f1		 mov	 esi, ecx

; 1014 :         if (_Mysize == max_size()) {

  00029	81 7e 04 55 55
	55 15		 cmp	 DWORD PTR [esi+4], 357913941 ; 15555555H

; 1240 :         _Emplace(_Mypair._Myval2._Myhead->_Next, _Val);

  00030	8b 06		 mov	 eax, DWORD PTR [esi]
  00032	8b 38		 mov	 edi, DWORD PTR [eax]

; 1014 :         if (_Mysize == max_size()) {

  00034	74 46		 je	 SHORT $LN62@push_front
; File C:\Program Files (x86)\Microsoft Visual Studio\2019\Professional\VC\Tools\MSVC\14.29.30133\include\xmemory

; 1012 :     _CONSTEXPR20_DYNALLOC explicit _Alloc_construct_ptr(_Alloc& _Al_) : _Al(_Al_), _Ptr(nullptr) {}

  00036	89 75 ec	 mov	 DWORD PTR __Op$2[ebp], esi

; 85   :         return ::operator new(_Bytes);

  00039	6a 0c		 push	 12			; 0000000cH
; File C:\Program Files (x86)\Microsoft Visual Studio\2019\Professional\VC\Tools\MSVC\14.29.30133\include\list

; 589  :     explicit _List_node_emplace_op2(_Alnode& _Al_, _Valtys&&... _Vals) : _Alloc_construct_ptr<_Alnode>(_Al_) {

  0003b	c7 45 fc 00 00
	00 00		 mov	 DWORD PTR __$EHRec$[ebp+8], 0
; File C:\Program Files (x86)\Microsoft Visual Studio\2019\Professional\VC\Tools\MSVC\14.29.30133\include\xmemory

; 1019 :         _Ptr = nullptr; // if allocate throws, prevents double-free

  00042	c7 45 f0 00 00
	00 00		 mov	 DWORD PTR __Op$2[ebp+4], 0

; 85   :         return ::operator new(_Bytes);

  00049	e8 00 00 00 00	 call	 ??2@YAPAXI@Z		; operator new
; File C:\Program Files (x86)\Microsoft Visual Studio\2019\Professional\VC\Tools\MSVC\14.29.30133\include\list

; 591  :         _Alnode_traits::construct(this->_Al, _STD addressof(this->_Ptr->_Myval), _STD forward<_Valtys>(_Vals)...);

  0004e	8b 4d 08	 mov	 ecx, DWORD PTR __Val$[ebp]
; File C:\Program Files (x86)\Microsoft Visual Studio\2019\Professional\VC\Tools\MSVC\14.29.30133\include\xmemory

; 85   :         return ::operator new(_Bytes);

  00051	83 c4 04	 add	 esp, 4
; File C:\Program Files (x86)\Microsoft Visual Studio\2019\Professional\VC\Tools\MSVC\14.29.30133\include\list

; 591  :         _Alnode_traits::construct(this->_Al, _STD addressof(this->_Ptr->_Myval), _STD forward<_Valtys>(_Vals)...);

  00054	8b 09		 mov	 ecx, DWORD PTR [ecx]
  00056	89 48 08	 mov	 DWORD PTR [eax+8], ecx

; 1019 :         ++_Mysize;

  00059	ff 46 04	 inc	 DWORD PTR [esi+4]

; 604  :         const pointer _Insert_after = _Insert_before->_Prev;

  0005c	8b 4f 04	 mov	 ecx, DWORD PTR [edi+4]

; 605  :         _Construct_in_place(this->_Ptr->_Next, _Insert_before);

  0005f	89 38		 mov	 DWORD PTR [eax], edi

; 606  :         _Construct_in_place(this->_Ptr->_Prev, _Insert_after);

  00061	89 48 04	 mov	 DWORD PTR [eax+4], ecx

; 607  :         const auto _Result    = this->_Ptr;
; 608  :         this->_Ptr            = pointer{};
; 609  :         _Insert_before->_Prev = _Result;

  00064	89 47 04	 mov	 DWORD PTR [edi+4], eax

; 610  :         _Insert_after->_Next  = _Result;

  00067	89 01		 mov	 DWORD PTR [ecx], eax

; 1241 :     }

  00069	8b 4d f4	 mov	 ecx, DWORD PTR __$EHRec$[ebp]
  0006c	64 89 0d 00 00
	00 00		 mov	 DWORD PTR fs:0, ecx
  00073	59		 pop	 ecx
  00074	5f		 pop	 edi
  00075	5e		 pop	 esi
  00076	8b e5		 mov	 esp, ebp
  00078	5d		 pop	 ebp
  00079	c2 04 00	 ret	 4
$LN62@push_front:

; 1015 :             _Xlength_error("list too long");

  0007c	68 00 00 00 00	 push	 OFFSET ??_C@_0O@NKNMEGII@list?5too?5long@
  00081	e8 00 00 00 00	 call	 ?_Xlength_error@std@@YAXPBD@Z ; std::_Xlength_error
$LN60@push_front:
  00086	cc		 int	 3
_TEXT	ENDS
;	COMDAT text$x
text$x	SEGMENT
__unwindfunclet$?push_front@?$list@PAVCEterPack@@V?$allocator@PAVCEterPack@@@std@@@std@@QAEXABQAVCEterPack@@@Z$1:
  00000	8d 4d ec	 lea	 ecx, DWORD PTR __Op$2[ebp]
  00003	e9 00 00 00 00	 jmp	 ??1?$_Alloc_construct_ptr@V?$allocator@U?$_List_node@PAVCEterPack@@PAX@std@@@std@@@std@@QAE@XZ ; std::_Alloc_construct_ptr<std::allocator<std::_List_node<CEterPack *,void *> > >::~_Alloc_construct_ptr<std::allocator<std::_List_node<CEterPack *,void *> > >
  00008	cc		 int	 3
  00009	cc		 int	 3
  0000a	cc		 int	 3
  0000b	cc		 int	 3
  0000c	cc		 int	 3
__ehhandler$?push_front@?$list@PAVCEterPack@@V?$allocator@PAVCEterPack@@@std@@@std@@QAEXABQAVCEterPack@@@Z:
  0000d	90		 npad	 1
  0000e	90		 npad	 1
  0000f	8b 54 24 08	 mov	 edx, DWORD PTR [esp+8]
  00013	8d 42 0c	 lea	 eax, DWORD PTR [edx+12]
  00016	8b 4a ec	 mov	 ecx, DWORD PTR [edx-20]
  00019	33 c8		 xor	 ecx, eax
  0001b	e8 00 00 00 00	 call	 @__security_check_cookie@4
  00020	b8 00 00 00 00	 mov	 eax, OFFSET __ehfuncinfo$?push_front@?$list@PAVCEterPack@@V?$allocator@PAVCEterPack@@@std@@@std@@QAEXABQAVCEterPack@@@Z
  00025	e9 00 00 00 00	 jmp	 ___CxxFrameHandler3
text$x	ENDS
?push_front@?$list@PAVCEterPack@@V?$allocator@PAVCEterPack@@@std@@@std@@QAEXABQAVCEterPack@@@Z ENDP ; std::list<CEterPack *,std::allocator<CEterPack *> >::push_front
; Function compile flags: /Ogtp
; File C:\Users\murat\Desktop\Siveps2-1-99-Project\source\client\Client\EterPack\EterPackManager.cpp
; File C:\Users\murat\Desktop\Siveps2-1-99-Project\source\client\extern\include\boost\unordered\detail\implementation.hpp
; File C:\Users\murat\Desktop\Siveps2-1-99-Project\source\client\Client\EterPack\EterPackManager.cpp
; File C:\Users\murat\Desktop\Siveps2-1-99-Project\source\client\extern\include\boost\unordered\detail\implementation.hpp
; File C:\Users\murat\Desktop\Siveps2-1-99-Project\source\client\Client\EterPack\EterPackManager.cpp
; File C:\Users\murat\Desktop\Siveps2-1-99-Project\source\client\extern\include\boost\unordered\detail\implementation.hpp
; File C:\Users\murat\Desktop\Siveps2-1-99-Project\source\client\Client\EterPack\EterPackManager.cpp
; File C:\Users\murat\Desktop\Siveps2-1-99-Project\source\client\extern\include\boost\unordered\detail\implementation.hpp
; File C:\Program Files (x86)\Microsoft Visual Studio\2019\Professional\VC\Tools\MSVC\14.29.30133\include\xmemory
; File C:\Users\murat\Desktop\Siveps2-1-99-Project\source\client\extern\include\boost\unordered\detail\implementation.hpp
; File C:\Users\murat\Desktop\Siveps2-1-99-Project\source\client\Client\EterPack\EterPackManager.cpp
;	COMDAT ?__ClearCacheMap@CEterPackManager@@IAEXXZ
_TEXT	SEGMENT
?__ClearCacheMap@CEterPackManager@@IAEXXZ PROC		; CEterPackManager::__ClearCacheMap, COMDAT
; _this$ = ecx

; 134  : {

  00000	57		 push	 edi
  00001	8b f9		 mov	 edi, ecx
; File C:\Users\murat\Desktop\Siveps2-1-99-Project\source\client\extern\include\boost\unordered\detail\implementation.hpp

; 3041 :           return size_ ? next_node(get_previous_start()) : node_pointer();

  00003	83 bf 50 14 00
	00 00		 cmp	 DWORD PTR [edi+5200], 0
  0000a	74 7b		 je	 SHORT $LN37@ClearCache

; 3026 :           return buckets_ + static_cast<std::ptrdiff_t>(bucket_index);

  0000c	8b 87 4c 14 00
	00		 mov	 eax, DWORD PTR [edi+5196]
  00012	56		 push	 esi

; 3041 :           return size_ ? next_node(get_previous_start()) : node_pointer();

  00013	8b b7 5c 14 00
	00		 mov	 esi, DWORD PTR [edi+5212]
  00019	8b 34 86	 mov	 esi, DWORD PTR [esi+eax*4]

; 2368 :         iterator() BOOST_NOEXCEPT : node_() {}

  0001c	85 f6		 test	 esi, esi
; File C:\Users\murat\Desktop\Siveps2-1-99-Project\source\client\Client\EterPack\EterPackManager.cpp

; 137  : 	for (i = m_kMap_dwNameKey_kCache.begin(); i != m_kMap_dwNameKey_kCache.end(); ++i)

  0001e	74 19		 je	 SHORT $LN89@ClearCache
$LL4@ClearCache:

; 138  : 		delete [] i->second.m_abBufData;

  00020	ff 76 0c	 push	 DWORD PTR [esi+12]
  00023	e8 00 00 00 00	 call	 ??_V@YAXPAX@Z		; operator delete[]
; File C:\Users\murat\Desktop\Siveps2-1-99-Project\source\client\extern\include\boost\unordered\detail\implementation.hpp

; 2381 :           node_ = static_cast<node_pointer>(node_->next_);

  00028	8b 36		 mov	 esi, DWORD PTR [esi]
; File C:\Users\murat\Desktop\Siveps2-1-99-Project\source\client\Client\EterPack\EterPackManager.cpp

; 138  : 		delete [] i->second.m_abBufData;

  0002a	83 c4 04	 add	 esp, 4
; File C:\Users\murat\Desktop\Siveps2-1-99-Project\source\client\extern\include\boost\unordered\detail\implementation.hpp

; 2399 :           return node_ != x.node_;

  0002d	85 f6		 test	 esi, esi
; File C:\Users\murat\Desktop\Siveps2-1-99-Project\source\client\Client\EterPack\EterPackManager.cpp

; 137  : 	for (i = m_kMap_dwNameKey_kCache.begin(); i != m_kMap_dwNameKey_kCache.end(); ++i)

  0002f	75 ef		 jne	 SHORT $LL4@ClearCache
; File C:\Users\murat\Desktop\Siveps2-1-99-Project\source\client\extern\include\boost\unordered\detail\implementation.hpp

; 4516 :         if (size_) {

  00031	39 b7 50 14 00
	00		 cmp	 DWORD PTR [edi+5200], esi
  00037	74 4d		 je	 SHORT $LN90@ClearCache
$LN89@ClearCache:

; 3026 :           return buckets_ + static_cast<std::ptrdiff_t>(bucket_index);

  00039	8b 8f 5c 14 00
	00		 mov	 ecx, DWORD PTR [edi+5212]
  0003f	8b 87 4c 14 00
	00		 mov	 eax, DWORD PTR [edi+5196]
  00045	8d 14 81	 lea	 edx, DWORD PTR [ecx+eax*4]

; 4518 :           for (bucket_pointer it = buckets_; it != end; ++it) {

  00048	3b ca		 cmp	 ecx, edx
  0004a	74 11		 je	 SHORT $LN34@ClearCache
  0004c	0f 1f 40 00	 npad	 4
$LL35@ClearCache:

; 4519 :             it->next_ = node_pointer();

  00050	c7 01 00 00 00
	00		 mov	 DWORD PTR [ecx], 0
  00056	83 c1 04	 add	 ecx, 4
  00059	3b ca		 cmp	 ecx, edx
  0005b	75 f3		 jne	 SHORT $LL35@ClearCache
$LN34@ClearCache:

; 4520 :           }
; 4521 : 
; 4522 :           link_pointer prev = end->first_from_start();
; 4523 :           node_pointer n = next_node(prev);

  0005d	8b 02		 mov	 eax, DWORD PTR [edx]

; 4524 :           prev->next_ = node_pointer();

  0005f	c7 02 00 00 00
	00		 mov	 DWORD PTR [edx], 0

; 4525 :           size_ = 0;

  00065	c7 87 50 14 00
	00 00 00 00 00	 mov	 DWORD PTR [edi+5200], 0

; 4526 : 
; 4527 :           while (n) {

  0006f	85 c0		 test	 eax, eax
  00071	74 13		 je	 SHORT $LN90@ClearCache
$LL36@ClearCache:

; 4528 :             node_pointer next = next_node(n);

  00073	8b 30		 mov	 esi, DWORD PTR [eax]
; File C:\Program Files (x86)\Microsoft Visual Studio\2019\Professional\VC\Tools\MSVC\14.29.30133\include\xmemory

; 264  :         ::operator delete(_Ptr, _Bytes);

  00075	6a 14		 push	 20			; 00000014H
  00077	50		 push	 eax
  00078	e8 00 00 00 00	 call	 ??3@YAXPAXI@Z		; operator delete
  0007d	83 c4 08	 add	 esp, 8
; File C:\Users\murat\Desktop\Siveps2-1-99-Project\source\client\extern\include\boost\unordered\detail\implementation.hpp

; 4530 :             n = next;

  00080	8b c6		 mov	 eax, esi
  00082	85 f6		 test	 esi, esi
  00084	75 ed		 jne	 SHORT $LL36@ClearCache
$LN90@ClearCache:
  00086	5e		 pop	 esi
$LN37@ClearCache:
  00087	5f		 pop	 edi
; File C:\Users\murat\Desktop\Siveps2-1-99-Project\source\client\Client\EterPack\EterPackManager.cpp

; 141  : }

  00088	c3		 ret	 0
?__ClearCacheMap@CEterPackManager@@IAEXXZ ENDP		; CEterPackManager::__ClearCacheMap
_TEXT	ENDS
; Function compile flags: /Ogtp
; File C:\Users\murat\Desktop\Siveps2-1-99-Project\source\client\Client\EterPack\EterPackManager.cpp
; File C:\Users\murat\Desktop\Siveps2-1-99-Project\source\client\extern\include\boost\unordered\detail\implementation.hpp
; File C:\Users\murat\Desktop\Siveps2-1-99-Project\source\client\Client\EterPack\EterPackManager.cpp
;	COMDAT ?__FindCache@CEterPackManager@@IAEPAUSCache@1@K@Z
_TEXT	SEGMENT
_f$ = -4						; size = 4
_dwFileNameHash$ = 8					; size = 4
?__FindCache@CEterPackManager@@IAEPAUSCache@1@K@Z PROC	; CEterPackManager::__FindCache, COMDAT
; _this$ = ecx

; 125  : {

  00000	55		 push	 ebp
  00001	8b ec		 mov	 ebp, esp
  00003	51		 push	 ecx

; 126  : 	boost::unordered_map<DWORD, SCache>::iterator f=m_kMap_dwNameKey_kCache.find(dwFileNameHash);

  00004	8d 45 08	 lea	 eax, DWORD PTR _dwFileNameHash$[ebp]
  00007	81 c1 48 14 00
	00		 add	 ecx, 5192		; 00001448H
  0000d	50		 push	 eax
  0000e	8d 45 fc	 lea	 eax, DWORD PTR _f$[ebp]
  00011	50		 push	 eax
  00012	e8 00 00 00 00	 call	 ?find@?$unordered_map@KUSCache@CEterPackManager@@U?$hash@K@boost@@U?$equal_to@K@std@@V?$allocator@U?$pair@$$CBKUSCache@CEterPackManager@@@std@@@6@@unordered@boost@@QAE?AU?$iterator@U?$ptr_node@U?$pair@$$CBKUSCache@CEterPackManager@@@std@@@detail@unordered@boost@@@iterator_detail@23@ABK@Z ; boost::unordered::unordered_map<unsigned long,CEterPackManager::SCache,boost::hash<unsigned long>,std::equal_to<unsigned long>,std::allocator<std::pair<unsigned long const ,CEterPackManager::SCache> > >::find
; File C:\Users\murat\Desktop\Siveps2-1-99-Project\source\client\extern\include\boost\unordered\detail\implementation.hpp

; 2368 :         iterator() BOOST_NOEXCEPT : node_() {}

  00017	8b 45 fc	 mov	 eax, DWORD PTR _f$[ebp]
  0001a	85 c0		 test	 eax, eax
; File C:\Users\murat\Desktop\Siveps2-1-99-Project\source\client\Client\EterPack\EterPackManager.cpp

; 127  : 	if (m_kMap_dwNameKey_kCache.end()==f)

  0001c	75 06		 jne	 SHORT $LN2@FindCache

; 131  : }

  0001e	8b e5		 mov	 esp, ebp
  00020	5d		 pop	 ebp
  00021	c2 04 00	 ret	 4
$LN2@FindCache:

; 128  : 		return NULL;
; 129  : 
; 130  : 	return &f->second;

  00024	83 c0 0c	 add	 eax, 12			; 0000000cH

; 131  : }

  00027	8b e5		 mov	 esp, ebp
  00029	5d		 pop	 ebp
  0002a	c2 04 00	 ret	 4
?__FindCache@CEterPackManager@@IAEPAUSCache@1@K@Z ENDP	; CEterPackManager::__FindCache
_TEXT	ENDS
; Function compile flags: /Ogtp
; File C:\Users\murat\Desktop\Siveps2-1-99-Project\source\client\Client\EterPack\EterPackManager.cpp
; File C:\Program Files (x86)\Microsoft Visual Studio\2019\Professional\VC\Tools\MSVC\14.29.30133\include\xstring
; File C:\Users\murat\Desktop\Siveps2-1-99-Project\source\client\Client\EterPack\EterPackManager.cpp
; File C:\Users\murat\Desktop\Siveps2-1-99-Project\source\client\extern\include\boost\unordered\detail\implementation.hpp
; File C:\Users\murat\Desktop\Siveps2-1-99-Project\source\client\Client\EterPack\EterPackManager.cpp
; File C:\Program Files (x86)\Microsoft Visual Studio\2019\Professional\VC\Tools\MSVC\14.29.30133\include\xstring
; File C:\Users\murat\Desktop\Siveps2-1-99-Project\source\client\Client\EterPack\EterPackManager.cpp
; File C:\Program Files (x86)\Microsoft Visual Studio\2019\Professional\VC\Tools\MSVC\14.29.30133\include\xstring
; File C:\Users\murat\Desktop\Siveps2-1-99-Project\source\client\Client\EterPack\EterPackManager.cpp
; File C:\Users\murat\Desktop\Siveps2-1-99-Project\source\client\extern\include\boost\unordered\detail\implementation.hpp
; File C:\Users\murat\Desktop\Siveps2-1-99-Project\source\client\Client\EterPack\EterPackManager.cpp
; File C:\Program Files (x86)\Microsoft Visual Studio\2019\Professional\VC\Tools\MSVC\14.29.30133\include\xstring
; File C:\Program Files (x86)\Microsoft Visual Studio\2019\Professional\VC\Tools\MSVC\14.29.30133\include\xmemory
; File C:\Users\murat\Desktop\Siveps2-1-99-Project\source\client\Client\EterPack\EterPackManager.cpp
; File C:\Program Files (x86)\Microsoft Visual Studio\2019\Professional\VC\Tools\MSVC\14.29.30133\include\xmemory
; File C:\Users\murat\Desktop\Siveps2-1-99-Project\source\client\Client\EterPack\EterPackManager.cpp
;	COMDAT ?FindPack@CEterPackManager@@IAEPAVCEterPack@@PBD@Z
_TEXT	SEGMENT
$T2 = -44						; size = 4
_strFileName$ = -40					; size = 24
__$ArrayPad$ = -16					; size = 4
__$EHRec$ = -12						; size = 12
_c_szPathName$ = 8					; size = 4
?FindPack@CEterPackManager@@IAEPAVCEterPack@@PBD@Z PROC	; CEterPackManager::FindPack, COMDAT
; _this$ = ecx

; 21   : {

  00000	55		 push	 ebp
  00001	8b ec		 mov	 ebp, esp
  00003	6a ff		 push	 -1
  00005	68 00 00 00 00	 push	 __ehhandler$?FindPack@CEterPackManager@@IAEPAVCEterPack@@PBD@Z
  0000a	64 a1 00 00 00
	00		 mov	 eax, DWORD PTR fs:0
  00010	50		 push	 eax
  00011	83 ec 20	 sub	 esp, 32			; 00000020H
  00014	a1 00 00 00 00	 mov	 eax, DWORD PTR ___security_cookie
  00019	33 c5		 xor	 eax, ebp
  0001b	89 45 f0	 mov	 DWORD PTR __$ArrayPad$[ebp], eax
  0001e	53		 push	 ebx
  0001f	56		 push	 esi
  00020	57		 push	 edi
  00021	50		 push	 eax
  00022	8d 45 f4	 lea	 eax, DWORD PTR __$EHRec$[ebp]
  00025	64 a3 00 00 00
	00		 mov	 DWORD PTR fs:0, eax
  0002b	8b d9		 mov	 ebx, ecx
  0002d	8b 45 08	 mov	 eax, DWORD PTR _c_szPathName$[ebp]
; File C:\Program Files (x86)\Microsoft Visual Studio\2019\Professional\VC\Tools\MSVC\14.29.30133\include\xstring

; 2346 :         _CONSTEXPR20_CONTAINER _Bxty() noexcept : _Ptr() {} // user-provided, for fancy pointers

  00030	c7 45 d8 00 00
	00 00		 mov	 DWORD PTR _strFileName$[ebp], 0

; 4596 :         _My_data._Mysize = 0;

  00037	c7 45 e8 00 00
	00 00		 mov	 DWORD PTR _strFileName$[ebp+16], 0

; 4597 : 
; 4598 : #ifdef __cpp_lib_constexpr_string
; 4599 :         if (_STD is_constant_evaluated()) {
; 4600 :             _My_data._Myres        = _BUF_SIZE; // SSO disabled in constexpr context
; 4601 :             auto& _Al              = _Getal();
; 4602 :             const pointer _New_ptr = _Al.allocate(_BUF_SIZE + 1); // throws
; 4603 :             _My_data._Bx._Ptr      = _New_ptr;
; 4604 : 
; 4605 :             _Elem* const _Raw_new = _Unfancy(_New_ptr);
; 4606 :             _Traits::assign(_Raw_new, _BUF_SIZE + 1, _Elem());
; 4607 :         } else
; 4608 : #endif // __cpp_lib_constexpr_string
; 4609 :         {
; 4610 :             _My_data._Myres = _BUF_SIZE - 1;

  0003e	c7 45 ec 0f 00
	00 00		 mov	 DWORD PTR _strFileName$[ebp+20], 15 ; 0000000fH

; 4611 :             // the _Traits::assign is last so the codegen doesn't think the char write can alias this
; 4612 :             _Traits::assign(_My_data._Bx._Buf[0], _Elem());

  00045	c6 45 d8 00	 mov	 BYTE PTR _strFileName$[ebp], 0
; File C:\Users\murat\Desktop\Siveps2-1-99-Project\source\client\Client\EterPack\EterPackManager.cpp

; 24   : 	if (0 == ConvertFileName(c_szPathName, strFileName))

  00049	8d 4d d8	 lea	 ecx, DWORD PTR _strFileName$[ebp]
  0004c	c7 45 fc 00 00
	00 00		 mov	 DWORD PTR __$EHRec$[ebp+8], 0
  00053	51		 push	 ecx
  00054	50		 push	 eax
  00055	8b cb		 mov	 ecx, ebx
  00057	e8 00 00 00 00	 call	 ?ConvertFileName@CEterPackManager@@IAEHPBDAAV?$basic_string@DU?$char_traits@D@std@@V?$allocator@D@2@@std@@@Z ; CEterPackManager::ConvertFileName
  0005c	8b 7d d8	 mov	 edi, DWORD PTR _strFileName$[ebp]
  0005f	85 c0		 test	 eax, eax
  00061	75 05		 jne	 SHORT $LN5@FindPack

; 25   : 	{
; 26   : 		return &m_RootPack;

  00063	83 c3 24	 add	 ebx, 36			; 00000024H
  00066	eb 50		 jmp	 SHORT $LN11@FindPack
$LN5@FindPack:
; File C:\Users\murat\Desktop\Siveps2-1-99-Project\source\client\extern\include\boost\unordered\detail\implementation.hpp

; 3041 :           return size_ ? next_node(get_previous_start()) : node_pointer();

  00068	83 bb 38 14 00
	00 00		 cmp	 DWORD PTR [ebx+5176], 0
  0006f	74 45		 je	 SHORT $LN3@FindPack

; 3026 :           return buckets_ + static_cast<std::ptrdiff_t>(bucket_index);

  00071	8b 83 34 14 00
	00		 mov	 eax, DWORD PTR [ebx+5172]

; 3041 :           return size_ ? next_node(get_previous_start()) : node_pointer();

  00077	8b b3 44 14 00
	00		 mov	 esi, DWORD PTR [ebx+5188]
  0007d	8b 34 86	 mov	 esi, DWORD PTR [esi+eax*4]

; 2368 :         iterator() BOOST_NOEXCEPT : node_() {}

  00080	85 f6		 test	 esi, esi
; File C:\Users\murat\Desktop\Siveps2-1-99-Project\source\client\Client\EterPack\EterPackManager.cpp

; 30   : 		for (TEterPackMap::iterator itor = m_DirPackMap.begin(); itor != m_DirPackMap.end(); ++itor)

  00082	74 32		 je	 SHORT $LN3@FindPack
$LL4@FindPack:

; 33   : 			CEterPack * pEterPack = itor->second;

  00084	8b 4e 20	 mov	 ecx, DWORD PTR [esi+32]
; File C:\Program Files (x86)\Microsoft Visual Studio\2019\Professional\VC\Tools\MSVC\14.29.30133\include\xstring

; 2305 :         const value_type* _Result = _Bx._Buf;

  00087	8d 56 08	 lea	 edx, DWORD PTR [esi+8]

; 2319 :         return _BUF_SIZE <= _Myres;

  0008a	83 7d ec 10	 cmp	 DWORD PTR _strFileName$[ebp+20], 16 ; 00000010H
; File C:\Users\murat\Desktop\Siveps2-1-99-Project\source\client\Client\EterPack\EterPackManager.cpp

; 33   : 			CEterPack * pEterPack = itor->second;

  0008e	89 4d d4	 mov	 DWORD PTR $T2[ebp], ecx
; File C:\Program Files (x86)\Microsoft Visual Studio\2019\Professional\VC\Tools\MSVC\14.29.30133\include\xstring

; 2305 :         const value_type* _Result = _Bx._Buf;

  00091	8d 4d d8	 lea	 ecx, DWORD PTR _strFileName$[ebp]

; 2306 :         if (_Large_string_engaged()) {

  00094	0f 43 cf	 cmovae	 ecx, edi

; 2319 :         return _BUF_SIZE <= _Myres;

  00097	83 7e 1c 10	 cmp	 DWORD PTR [esi+28], 16	; 00000010H

; 2306 :         if (_Large_string_engaged()) {

  0009b	72 03		 jb	 SHORT $LN87@FindPack

; 2307 :             _Result = _Unfancy(_Bx._Ptr);

  0009d	8b 56 08	 mov	 edx, DWORD PTR [esi+8]
$LN87@FindPack:
; File C:\Users\murat\Desktop\Siveps2-1-99-Project\source\client\Client\EterPack\EterPackManager.cpp

; 35   : 			if (CompareName(c_rstrName.c_str(), c_rstrName.length(), strFileName.c_str()))

  000a0	51		 push	 ecx
  000a1	ff 76 18	 push	 DWORD PTR [esi+24]
  000a4	8b cb		 mov	 ecx, ebx
  000a6	52		 push	 edx
  000a7	e8 00 00 00 00	 call	 ?CompareName@CEterPackManager@@IAE_NPBDK0@Z ; CEterPackManager::CompareName
  000ac	84 c0		 test	 al, al
  000ae	75 2f		 jne	 SHORT $LN146@FindPack
; File C:\Users\murat\Desktop\Siveps2-1-99-Project\source\client\extern\include\boost\unordered\detail\implementation.hpp

; 2381 :           node_ = static_cast<node_pointer>(node_->next_);

  000b0	8b 36		 mov	 esi, DWORD PTR [esi]

; 2399 :           return node_ != x.node_;

  000b2	85 f6		 test	 esi, esi
; File C:\Users\murat\Desktop\Siveps2-1-99-Project\source\client\Client\EterPack\EterPackManager.cpp

; 30   : 		for (TEterPackMap::iterator itor = m_DirPackMap.begin(); itor != m_DirPackMap.end(); ++itor)

  000b4	75 ce		 jne	 SHORT $LL4@FindPack
$LN3@FindPack:

; 42   : 	return NULL;

  000b6	33 db		 xor	 ebx, ebx
$LN11@FindPack:
; File C:\Program Files (x86)\Microsoft Visual Studio\2019\Professional\VC\Tools\MSVC\14.29.30133\include\xstring

; 2319 :         return _BUF_SIZE <= _Myres;

  000b8	8b 45 ec	 mov	 eax, DWORD PTR _strFileName$[ebp+20]
  000bb	83 f8 10	 cmp	 eax, 16			; 00000010H

; 4618 :         if (_Mypair._Myval2._Large_string_engaged()) {

  000be	72 2e		 jb	 SHORT $LN130@FindPack

; 4619 :             const pointer _Ptr = _Mypair._Myval2._Bx._Ptr;
; 4620 :             auto& _Al          = _Getal();
; 4621 :             _Destroy_in_place(_Mypair._Myval2._Bx._Ptr);
; 4622 :             _Al.deallocate(_Ptr, _Mypair._Myval2._Myres + 1);

  000c0	8d 48 01	 lea	 ecx, DWORD PTR [eax+1]
; File C:\Program Files (x86)\Microsoft Visual Studio\2019\Professional\VC\Tools\MSVC\14.29.30133\include\xmemory

; 835  :         _Deallocate<_New_alignof<_Ty>>(_Ptr, sizeof(_Ty) * _Count);

  000c3	8b c7		 mov	 eax, edi

; 260  :         if (_Bytes >= _Big_allocation_threshold) { // boost the alignment of big allocations to help autovectorization

  000c5	81 f9 00 10 00
	00		 cmp	 ecx, 4096		; 00001000H
  000cb	72 17		 jb	 SHORT $LN140@FindPack

; 158  :     const uintptr_t _Ptr_container   = _Ptr_user[-1];

  000cd	8b 7f fc	 mov	 edi, DWORD PTR [edi-4]
  000d0	83 c1 23	 add	 ecx, 35			; 00000023H
  000d3	2b c7		 sub	 eax, edi

; 172  :     _STL_VERIFY(_Back_shift >= _Min_back_shift && _Back_shift <= _Non_user_size, "invalid argument");

  000d5	83 c0 fc	 add	 eax, -4			; fffffffcH
  000d8	83 f8 1f	 cmp	 eax, 31			; 0000001fH
  000db	77 31		 ja	 SHORT $LN153@FindPack
  000dd	eb 05		 jmp	 SHORT $LN140@FindPack
$LN146@FindPack:
  000df	8b 5d d4	 mov	 ebx, DWORD PTR $T2[ebp]
  000e2	eb d4		 jmp	 SHORT $LN11@FindPack
$LN140@FindPack:

; 264  :         ::operator delete(_Ptr, _Bytes);

  000e4	51		 push	 ecx
  000e5	57		 push	 edi
  000e6	e8 00 00 00 00	 call	 ??3@YAXPAXI@Z		; operator delete
  000eb	83 c4 08	 add	 esp, 8
$LN130@FindPack:
; File C:\Users\murat\Desktop\Siveps2-1-99-Project\source\client\Client\EterPack\EterPackManager.cpp

; 42   : 	return NULL;

  000ee	8b c3		 mov	 eax, ebx

; 43   : }

  000f0	8b 4d f4	 mov	 ecx, DWORD PTR __$EHRec$[ebp]
  000f3	64 89 0d 00 00
	00 00		 mov	 DWORD PTR fs:0, ecx
  000fa	59		 pop	 ecx
  000fb	5f		 pop	 edi
  000fc	5e		 pop	 esi
  000fd	5b		 pop	 ebx
  000fe	8b 4d f0	 mov	 ecx, DWORD PTR __$ArrayPad$[ebp]
  00101	33 cd		 xor	 ecx, ebp
  00103	e8 00 00 00 00	 call	 @__security_check_cookie@4
  00108	8b e5		 mov	 esp, ebp
  0010a	5d		 pop	 ebp
  0010b	c2 04 00	 ret	 4
$LN153@FindPack:
; File C:\Program Files (x86)\Microsoft Visual Studio\2019\Professional\VC\Tools\MSVC\14.29.30133\include\xmemory

; 172  :     _STL_VERIFY(_Back_shift >= _Min_back_shift && _Back_shift <= _Non_user_size, "invalid argument");

  0010e	e8 00 00 00 00	 call	 __invalid_parameter_noinfo_noreturn
$LN151@FindPack:
  00113	cc		 int	 3
_TEXT	ENDS
;	COMDAT text$x
text$x	SEGMENT
__unwindfunclet$?FindPack@CEterPackManager@@IAEPAVCEterPack@@PBD@Z$0:
  00000	8d 4d d8	 lea	 ecx, DWORD PTR _strFileName$[ebp]
  00003	e9 00 00 00 00	 jmp	 ??1?$basic_string@DU?$char_traits@D@std@@V?$allocator@D@2@@std@@QAE@XZ ; std::basic_string<char,std::char_traits<char>,std::allocator<char> >::~basic_string<char,std::char_traits<char>,std::allocator<char> >
  00008	cc		 int	 3
  00009	cc		 int	 3
  0000a	cc		 int	 3
  0000b	cc		 int	 3
  0000c	cc		 int	 3
__ehhandler$?FindPack@CEterPackManager@@IAEPAVCEterPack@@PBD@Z:
  0000d	90		 npad	 1
  0000e	90		 npad	 1
  0000f	8b 54 24 08	 mov	 edx, DWORD PTR [esp+8]
  00013	8d 42 0c	 lea	 eax, DWORD PTR [edx+12]
  00016	8b 4a d0	 mov	 ecx, DWORD PTR [edx-48]
  00019	33 c8		 xor	 ecx, eax
  0001b	e8 00 00 00 00	 call	 @__security_check_cookie@4
  00020	8b 4a fc	 mov	 ecx, DWORD PTR [edx-4]
  00023	33 c8		 xor	 ecx, eax
  00025	e8 00 00 00 00	 call	 @__security_check_cookie@4
  0002a	b8 00 00 00 00	 mov	 eax, OFFSET __ehfuncinfo$?FindPack@CEterPackManager@@IAEPAVCEterPack@@PBD@Z
  0002f	e9 00 00 00 00	 jmp	 ___CxxFrameHandler3
text$x	ENDS
?FindPack@CEterPackManager@@IAEPAVCEterPack@@PBD@Z ENDP	; CEterPackManager::FindPack
; Function compile flags: /Ogtp
; File C:\Users\murat\Desktop\Siveps2-1-99-Project\source\client\Client\EterPack\EterPackManager.cpp
;	COMDAT ?CompareName@CEterPackManager@@IAE_NPBDK0@Z
_TEXT	SEGMENT
_c_szDirectoryName$ = 8					; size = 4
___formal$ = 12						; size = 4
_c_szFileName$ = 16					; size = 4
?CompareName@CEterPackManager@@IAE_NPBDK0@Z PROC	; CEterPackManager::CompareName, COMDAT
; _this$ = ecx

; 79   : {

  00000	55		 push	 ebp
  00001	8b ec		 mov	 ebp, esp

; 80   : 	const char * c_pszSrc = c_szDirectoryName;

  00003	8b 45 08	 mov	 eax, DWORD PTR _c_szDirectoryName$[ebp]
  00006	56		 push	 esi

; 81   : 	const char * c_pszCmp = c_szFileName;
; 82   : 
; 83   : 	while (*c_pszSrc)

  00007	8a 10		 mov	 dl, BYTE PTR [eax]
  00009	84 d2		 test	 dl, dl
  0000b	74 19		 je	 SHORT $LN3@CompareNam
  0000d	8b 75 10	 mov	 esi, DWORD PTR _c_szFileName$[ebp]
  00010	8a 0e		 mov	 cl, BYTE PTR [esi]
  00012	2b f0		 sub	 esi, eax
$LL2@CompareNam:

; 84   : 	{
; 85   : 		if (*(c_pszSrc++) != *(c_pszCmp++))

  00014	40		 inc	 eax
  00015	3a d1		 cmp	 dl, cl
  00017	75 14		 jne	 SHORT $LN9@CompareNam

; 86   : 			return false;
; 87   : 
; 88   : 		if (!*c_pszCmp)

  00019	8a 0c 06	 mov	 cl, BYTE PTR [esi+eax]
  0001c	84 c9		 test	 cl, cl
  0001e	74 0d		 je	 SHORT $LN9@CompareNam

; 81   : 	const char * c_pszCmp = c_szFileName;
; 82   : 
; 83   : 	while (*c_pszSrc)

  00020	8a 10		 mov	 dl, BYTE PTR [eax]
  00022	84 d2		 test	 dl, dl
  00024	75 ee		 jne	 SHORT $LL2@CompareNam
$LN3@CompareNam:

; 90   : 	}
; 91   : 
; 92   : 	return true;

  00026	b0 01		 mov	 al, 1
  00028	5e		 pop	 esi

; 93   : }

  00029	5d		 pop	 ebp
  0002a	c2 0c 00	 ret	 12			; 0000000cH
$LN9@CompareNam:

; 89   : 			return false;

  0002d	32 c0		 xor	 al, al
  0002f	5e		 pop	 esi

; 93   : }

  00030	5d		 pop	 ebp
  00031	c2 0c 00	 ret	 12			; 0000000cH
?CompareName@CEterPackManager@@IAE_NPBDK0@Z ENDP	; CEterPackManager::CompareName
_TEXT	ENDS
; Function compile flags: /Ogtp
; File C:\Users\murat\Desktop\Siveps2-1-99-Project\source\client\Client\EterPack\EterPackManager.cpp
; File C:\Program Files (x86)\Microsoft Visual Studio\2019\Professional\VC\Tools\MSVC\14.29.30133\include\xstring
; File C:\Users\murat\Desktop\Siveps2-1-99-Project\source\client\Client\EterPack\EterPackManager.cpp
; File C:\Program Files (x86)\Microsoft Visual Studio\2019\Professional\VC\Tools\MSVC\14.29.30133\include\xstring
; File C:\Users\murat\Desktop\Siveps2-1-99-Project\source\client\Client\EterPack\EterPackManager.cpp
; File C:\Program Files (x86)\Microsoft Visual Studio\2019\Professional\VC\Tools\MSVC\14.29.30133\include\xstring
; File C:\Users\murat\Desktop\Siveps2-1-99-Project\source\client\Client\EterPack\EterPackManager.cpp
; File C:\Program Files (x86)\Microsoft Visual Studio\2019\Professional\VC\Tools\MSVC\14.29.30133\include\xstring
; File C:\Users\murat\Desktop\Siveps2-1-99-Project\source\client\Client\EterPack\EterPackManager.cpp
; File C:\Program Files (x86)\Microsoft Visual Studio\2019\Professional\VC\Tools\MSVC\14.29.30133\include\xstring
; File C:\Users\murat\Desktop\Siveps2-1-99-Project\source\client\Client\EterPack\EterPackManager.cpp
;	COMDAT ?ConvertFileName@CEterPackManager@@IAEHPBDAAV?$basic_string@DU?$char_traits@D@std@@V?$allocator@D@2@@std@@@Z
_TEXT	SEGMENT
_c_szFileName$ = 8					; size = 4
_rstrFileName$ = 12					; size = 4
?ConvertFileName@CEterPackManager@@IAEHPBDAAV?$basic_string@DU?$char_traits@D@std@@V?$allocator@D@2@@std@@@Z PROC ; CEterPackManager::ConvertFileName, COMDAT
; _this$ = ecx

; 58   : {

  00000	55		 push	 ebp
  00001	8b ec		 mov	 ebp, esp
; File C:\Program Files (x86)\Microsoft Visual Studio\2019\Professional\VC\Tools\MSVC\14.29.30133\include\xstring

; 412  :         return _CSTD strlen(reinterpret_cast<const char*>(_First));

  00003	8b 55 08	 mov	 edx, DWORD PTR _c_szFileName$[ebp]
  00006	8b ca		 mov	 ecx, edx
; File C:\Users\murat\Desktop\Siveps2-1-99-Project\source\client\Client\EterPack\EterPackManager.cpp

; 58   : {

  00008	56		 push	 esi
; File C:\Program Files (x86)\Microsoft Visual Studio\2019\Professional\VC\Tools\MSVC\14.29.30133\include\xstring

; 412  :         return _CSTD strlen(reinterpret_cast<const char*>(_First));

  00009	8d 71 01	 lea	 esi, DWORD PTR [ecx+1]
  0000c	0f 1f 40 00	 npad	 4
$LL44@ConvertFil:
  00010	8a 01		 mov	 al, BYTE PTR [ecx]
  00012	41		 inc	 ecx
  00013	84 c0		 test	 al, al
  00015	75 f9		 jne	 SHORT $LL44@ConvertFil
  00017	2b ce		 sub	 ecx, esi

; 3264 :         return assign(_Ptr, _Convert_size<size_type>(_Traits::length(_Ptr)));

  00019	8b 75 0c	 mov	 esi, DWORD PTR _rstrFileName$[ebp]
  0001c	51		 push	 ecx
  0001d	52		 push	 edx
  0001e	8b ce		 mov	 ecx, esi
  00020	e8 00 00 00 00	 call	 ?assign@?$basic_string@DU?$char_traits@D@std@@V?$allocator@D@2@@std@@QAEAAV12@QBDI@Z ; std::basic_string<char,std::char_traits<char>,std::allocator<char> >::assign
; File C:\Users\murat\Desktop\Siveps2-1-99-Project\source\client\Client\EterPack\EterPackManager.cpp

; 60   : 	stl_lowers(rstrFileName);

  00025	56		 push	 esi
  00026	e8 00 00 00 00	 call	 ?stl_lowers@@YAXAAV?$basic_string@DU?$char_traits@D@std@@V?$allocator@D@2@@std@@@Z ; stl_lowers

; 61   : 
; 62   : 	int iCount = 0;
; 63   : 
; 64   : 	for (DWORD i = 0; i < rstrFileName.length(); ++i)

  0002b	33 c0		 xor	 eax, eax
  0002d	83 c4 04	 add	 esp, 4
  00030	33 c9		 xor	 ecx, ecx
  00032	39 46 10	 cmp	 DWORD PTR [esi+16], eax
  00035	76 39		 jbe	 SHORT $LN3@ConvertFil
  00037	57		 push	 edi
$LL4@ConvertFil:
; File C:\Program Files (x86)\Microsoft Visual Studio\2019\Professional\VC\Tools\MSVC\14.29.30133\include\xstring

; 2319 :         return _BUF_SIZE <= _Myres;

  00038	8b 56 14	 mov	 edx, DWORD PTR [esi+20]

; 2296 :         value_type* _Result = _Bx._Buf;

  0003b	8b fe		 mov	 edi, esi

; 2319 :         return _BUF_SIZE <= _Myres;

  0003d	83 fa 10	 cmp	 edx, 16			; 00000010H

; 2297 :         if (_Large_string_engaged()) {

  00040	72 02		 jb	 SHORT $LN43@ConvertFil

; 2298 :             _Result = _Unfancy(_Bx._Ptr);

  00042	8b 3e		 mov	 edi, DWORD PTR [esi]
$LN43@ConvertFil:
; File C:\Users\murat\Desktop\Siveps2-1-99-Project\source\client\Client\EterPack\EterPackManager.cpp

; 66   : 		if (rstrFileName[i] == '/')

  00044	80 3c 07 2f	 cmp	 BYTE PTR [edi+eax], 47	; 0000002fH
  00048	74 1c		 je	 SHORT $LN46@ConvertFil
; File C:\Program Files (x86)\Microsoft Visual Studio\2019\Professional\VC\Tools\MSVC\14.29.30133\include\xstring

; 2296 :         value_type* _Result = _Bx._Buf;

  0004a	8b fe		 mov	 edi, esi

; 2319 :         return _BUF_SIZE <= _Myres;

  0004c	83 fa 10	 cmp	 edx, 16			; 00000010H

; 2297 :         if (_Large_string_engaged()) {

  0004f	72 02		 jb	 SHORT $LN42@ConvertFil

; 2298 :             _Result = _Unfancy(_Bx._Ptr);

  00051	8b 3e		 mov	 edi, DWORD PTR [esi]
$LN42@ConvertFil:
; File C:\Users\murat\Desktop\Siveps2-1-99-Project\source\client\Client\EterPack\EterPackManager.cpp

; 68   : 		else if (rstrFileName[i] == '\\')

  00053	80 3c 07 5c	 cmp	 BYTE PTR [edi+eax], 92	; 0000005cH
  00057	75 0e		 jne	 SHORT $LN2@ConvertFil
; File C:\Program Files (x86)\Microsoft Visual Studio\2019\Professional\VC\Tools\MSVC\14.29.30133\include\xstring

; 2296 :         value_type* _Result = _Bx._Buf;

  00059	8b fe		 mov	 edi, esi

; 2319 :         return _BUF_SIZE <= _Myres;

  0005b	83 fa 10	 cmp	 edx, 16			; 00000010H

; 2297 :         if (_Large_string_engaged()) {

  0005e	72 02		 jb	 SHORT $LN32@ConvertFil

; 2298 :             _Result = _Unfancy(_Bx._Ptr);

  00060	8b 3e		 mov	 edi, DWORD PTR [esi]
$LN32@ConvertFil:
; File C:\Users\murat\Desktop\Siveps2-1-99-Project\source\client\Client\EterPack\EterPackManager.cpp

; 70   : 			rstrFileName[i] = '/';

  00062	c6 04 07 2f	 mov	 BYTE PTR [edi+eax], 47	; 0000002fH
$LN46@ConvertFil:

; 61   : 
; 62   : 	int iCount = 0;
; 63   : 
; 64   : 	for (DWORD i = 0; i < rstrFileName.length(); ++i)

  00066	41		 inc	 ecx
$LN2@ConvertFil:
  00067	40		 inc	 eax
  00068	3b 46 10	 cmp	 eax, DWORD PTR [esi+16]
  0006b	72 cb		 jb	 SHORT $LL4@ConvertFil

; 71   : 			++iCount;
; 72   : 		}
; 73   : 	}
; 74   : 
; 75   : 	return iCount;

  0006d	8b c1		 mov	 eax, ecx
  0006f	5f		 pop	 edi
$LN3@ConvertFil:
  00070	5e		 pop	 esi

; 76   : }

  00071	5d		 pop	 ebp
  00072	c2 08 00	 ret	 8
?ConvertFileName@CEterPackManager@@IAEHPBDAAV?$basic_string@DU?$char_traits@D@std@@V?$allocator@D@2@@std@@@Z ENDP ; CEterPackManager::ConvertFileName
_TEXT	ENDS
; Function compile flags: /Ogtp
; File C:\Users\murat\Desktop\Siveps2-1-99-Project\source\client\Client\EterPack\EterPackManager.cpp
;	COMDAT ?ArrangeMemoryMappedPack@CEterPackManager@@QAEXXZ
_TEXT	SEGMENT
?ArrangeMemoryMappedPack@CEterPackManager@@QAEXXZ PROC	; CEterPackManager::ArrangeMemoryMappedPack, COMDAT
; _this$ = ecx

; 239  : 	//time_t curTime = time(NULL);
; 240  : 	//CEterFileDict::TDict dict = m_FileDict.GetDict();
; 241  : 	//for (CEterFileDict::TDict::iterator it = dict.begin(); it != dict.end(); ++it)
; 242  : 	//{
; 243  : 	//	CEterFileDict::Item &rFileItem = it->second;
; 244  : 	//	CEterPack* pkPack = rFileItem.pkPack;
; 245  : 	//	if (pkPack)
; 246  : 	//	{
; 247  : 	//		if (curTime - pkPack->GetLastAccessTime() > g_tCachingInterval)
; 248  : 	//		{
; 249  : 	//			pkPack->ClearDataMemoryMap();
; 250  : 	//		}
; 251  : 	//	}
; 252  : 	//}
; 253  : }

  00000	c2 00 00	 ret	 0
?ArrangeMemoryMappedPack@CEterPackManager@@QAEXXZ ENDP	; CEterPackManager::ArrangeMemoryMappedPack
_TEXT	ENDS
; Function compile flags: /Ogtp
; File C:\Users\murat\Desktop\Siveps2-1-99-Project\source\client\Client\EterPack\EterPackManager.cpp
; File C:\Users\murat\Desktop\Siveps2-1-99-Project\source\client\extern\include\boost\unordered\detail\implementation.hpp
; File C:\Users\murat\Desktop\Siveps2-1-99-Project\source\client\Client\EterPack\EterPackManager.cpp
; File C:\Users\murat\Desktop\Siveps2-1-99-Project\source\client\extern\include\boost\unordered\detail\implementation.hpp
; File C:\Users\murat\Desktop\Siveps2-1-99-Project\source\client\Client\EterPack\EterPackManager.cpp
; File C:\Program Files (x86)\Microsoft Visual Studio\2019\Professional\VC\Tools\MSVC\14.29.30133\include\xstring
; File C:\Users\murat\Desktop\Siveps2-1-99-Project\source\client\extern\include\boost\unordered\detail\implementation.hpp
; File C:\Program Files (x86)\Microsoft Visual Studio\2019\Professional\VC\Tools\MSVC\14.29.30133\include\xstring
; File C:\Users\murat\Desktop\Siveps2-1-99-Project\source\client\extern\include\boost\unordered\detail\implementation.hpp
; File C:\Program Files (x86)\Microsoft Visual Studio\2019\Professional\VC\Tools\MSVC\14.29.30133\include\xstring
; File C:\Program Files (x86)\Microsoft Visual Studio\2019\Professional\VC\Tools\MSVC\14.29.30133\include\xmemory
; File C:\Program Files (x86)\Microsoft Visual Studio\2019\Professional\VC\Tools\MSVC\14.29.30133\include\xstring
; File C:\Users\murat\Desktop\Siveps2-1-99-Project\source\client\Client\EterPack\EterPackManager.cpp
; File C:\Users\murat\Desktop\Siveps2-1-99-Project\source\client\Client\eterBase\filename.h
; File C:\Program Files (x86)\Microsoft Visual Studio\2019\Professional\VC\Tools\MSVC\14.29.30133\include\xstring
; File C:\Users\murat\Desktop\Siveps2-1-99-Project\source\client\Client\eterBase\filename.h
; File C:\Program Files (x86)\Microsoft Visual Studio\2019\Professional\VC\Tools\MSVC\14.29.30133\include\xstring
; File C:\Users\murat\Desktop\Siveps2-1-99-Project\source\client\Client\eterBase\filename.h
; File C:\Program Files (x86)\Microsoft Visual Studio\2019\Professional\VC\Tools\MSVC\14.29.30133\include\xstring
; File C:\Users\murat\Desktop\Siveps2-1-99-Project\source\client\Client\eterBase\filename.h
; File C:\Users\murat\Desktop\Siveps2-1-99-Project\source\client\Client\EterPack\EterPackManager.cpp
; File C:\Users\murat\Desktop\Siveps2-1-99-Project\source\client\Client\eterBase\filename.h
; File C:\Program Files (x86)\Microsoft Visual Studio\2019\Professional\VC\Tools\MSVC\14.29.30133\include\xstring
; File C:\Users\murat\Desktop\Siveps2-1-99-Project\source\client\Client\eterBase\filename.h
; File C:\Program Files (x86)\Microsoft Visual Studio\2019\Professional\VC\Tools\MSVC\14.29.30133\include\xstring
; File C:\Users\murat\Desktop\Siveps2-1-99-Project\source\client\Client\eterBase\filename.h
; File C:\Program Files (x86)\Microsoft Visual Studio\2019\Professional\VC\Tools\MSVC\14.29.30133\include\xstring
; File C:\Users\murat\Desktop\Siveps2-1-99-Project\source\client\Client\EterPack\EterPackManager.cpp
; File C:\Program Files (x86)\Microsoft Visual Studio\2019\Professional\VC\Tools\MSVC\14.29.30133\include\xstring
; File C:\Program Files (x86)\Microsoft Visual Studio\2019\Professional\VC\Tools\MSVC\14.29.30133\include\xmemory
; File C:\Program Files (x86)\Microsoft Visual Studio\2019\Professional\VC\Tools\MSVC\14.29.30133\include\xstring
; File C:\Users\murat\Desktop\Siveps2-1-99-Project\source\client\Client\eterBase\Stl.h
; File C:\Program Files (x86)\Microsoft Visual Studio\2019\Professional\VC\Tools\MSVC\14.29.30133\include\xstring
; File C:\Users\murat\Desktop\Siveps2-1-99-Project\source\client\Client\eterBase\Stl.h
; File C:\Users\murat\Desktop\Siveps2-1-99-Project\source\client\Client\EterPack\EterPackManager.cpp
; File C:\Program Files (x86)\Microsoft Visual Studio\2019\Professional\VC\Tools\MSVC\14.29.30133\include\xstring
; File C:\Users\murat\Desktop\Siveps2-1-99-Project\source\client\Client\EterPack\EterPackManager.cpp
; File C:\Program Files (x86)\Microsoft Visual Studio\2019\Professional\VC\Tools\MSVC\14.29.30133\include\xstring
; File C:\Program Files (x86)\Microsoft Visual Studio\2019\Professional\VC\Tools\MSVC\14.29.30133\include\xmemory
; File C:\Users\murat\Desktop\Siveps2-1-99-Project\source\client\extern\include\boost\unordered\detail\implementation.hpp
; File C:\Users\murat\Desktop\Siveps2-1-99-Project\source\client\Client\EterPack\EterPackManager.cpp
; File C:\Program Files (x86)\Microsoft Visual Studio\2019\Professional\VC\Tools\MSVC\14.29.30133\include\xstring
; File C:\Program Files (x86)\Microsoft Visual Studio\2019\Professional\VC\Tools\MSVC\14.29.30133\include\xmemory
; File C:\Users\murat\Desktop\Siveps2-1-99-Project\source\client\Client\EterPack\EterPackManager.cpp
; File C:\Users\murat\Desktop\Siveps2-1-99-Project\source\client\Client\eterBase\filename.h
; File C:\Program Files (x86)\Microsoft Visual Studio\2019\Professional\VC\Tools\MSVC\14.29.30133\include\xmemory
; File C:\Users\murat\Desktop\Siveps2-1-99-Project\source\client\Client\EterPack\EterPackManager.cpp
;	COMDAT ?RetrieveHybridCryptPackSDB@CEterPackManager@@QAEXPBE@Z
_TEXT	SEGMENT
_dwPackgeIdentifier$1$ = -1136				; size = 4
_pStream$GSCopy$1$ = -1132				; size = 4
_i$1$ = -1128						; size = 4
$T2 = -1124						; size = 4
_k$1$ = -1120						; size = 4
_this$1$ = -1116					; size = 4
_iReadOffset$1$ = -1112					; size = 4
_iSDBInfoCount$1$ = -1108				; size = 4
_cit$1$ = -1104						; size = 4
$T3 = -1100						; size = 4
tv1286 = -1096						; size = 4
tv1284 = -1096						; size = 4
__Result$1$ = -1096					; size = 4
__Right_size$1$ = -1092					; size = 4
_noPathName$4 = -1088					; size = 24
$T5 = -1064						; size = 24
_szPath$6 = -1040					; size = 1024
__$ArrayPad$ = -16					; size = 4
__$EHRec$ = -12						; size = 12
_pStream$ = 8						; size = 4
?RetrieveHybridCryptPackSDB@CEterPackManager@@QAEXPBE@Z PROC ; CEterPackManager::RetrieveHybridCryptPackSDB, COMDAT
; _this$ = ecx

; 464  : {

  00000	55		 push	 ebp
  00001	8b ec		 mov	 ebp, esp
  00003	6a ff		 push	 -1
  00005	68 00 00 00 00	 push	 __ehhandler$?RetrieveHybridCryptPackSDB@CEterPackManager@@QAEXPBE@Z
  0000a	64 a1 00 00 00
	00		 mov	 eax, DWORD PTR fs:0
  00010	50		 push	 eax
  00011	81 ec 64 04 00
	00		 sub	 esp, 1124		; 00000464H
  00017	a1 00 00 00 00	 mov	 eax, DWORD PTR ___security_cookie
  0001c	33 c5		 xor	 eax, ebp
  0001e	89 45 f0	 mov	 DWORD PTR __$ArrayPad$[ebp], eax
  00021	56		 push	 esi
  00022	57		 push	 edi
  00023	50		 push	 eax
  00024	8d 45 f4	 lea	 eax, DWORD PTR __$EHRec$[ebp]
  00027	64 a3 00 00 00
	00		 mov	 DWORD PTR fs:0, eax
  0002d	89 8d a4 fb ff
	ff		 mov	 DWORD PTR _this$1$[ebp], ecx
  00033	8b 45 08	 mov	 eax, DWORD PTR _pStream$[ebp]
  00036	89 85 94 fb ff
	ff		 mov	 DWORD PTR _pStream$GSCopy$1$[ebp], eax
  0003c	c7 85 9c fb ff
	ff 00 00 00 00	 mov	 DWORD PTR $T2[ebp], 0

; 465  : 	//cnt
; 466  : 	//for cnt
; 467  : 	//DWORD				dwPackageIdentifier;
; 468  : 	//DWORD				dwFileIdentifier;
; 469  : 	//std::vector<BYTE>	vecSDBStream;
; 470  : 	int iReadOffset = 0;
; 471  : 	int iSDBInfoCount = 0;
; 472  : 
; 473  : 	memcpy( &iSDBInfoCount, pStream+iReadOffset, sizeof(int) );
; 474  : 	iReadOffset += sizeof(int);
; 475  : 
; 476  : 	for( int i = 0; i < iSDBInfoCount; ++i )

  00046	c7 85 98 fb ff
	ff 00 00 00 00	 mov	 DWORD PTR _i$1$[ebp], 0
  00050	8b 30		 mov	 esi, DWORD PTR [eax]
  00052	89 b5 ac fb ff
	ff		 mov	 DWORD PTR _iSDBInfoCount$1$[ebp], esi
  00058	be 04 00 00 00	 mov	 esi, 4
  0005d	8b 95 ac fb ff
	ff		 mov	 edx, DWORD PTR _iSDBInfoCount$1$[ebp]
  00063	85 d2		 test	 edx, edx
  00065	0f 8e bc 03 00
	00		 jle	 $LN260@RetrieveHy
  0006b	0f 1f 44 00 00	 npad	 5
$LL4@RetrieveHy:

; 479  : 		memcpy( &dwPackgeIdentifier, pStream+iReadOffset, sizeof(DWORD) );

  00070	8b 04 30	 mov	 eax, DWORD PTR [eax+esi]

; 480  : 		iReadOffset += sizeof(DWORD);

  00073	83 c6 04	 add	 esi, 4
; File C:\Users\murat\Desktop\Siveps2-1-99-Project\source\client\extern\include\boost\unordered\detail\implementation.hpp

; 3041 :           return size_ ? next_node(get_previous_start()) : node_pointer();

  00076	83 b9 20 14 00
	00 00		 cmp	 DWORD PTR [ecx+5152], 0
; File C:\Users\murat\Desktop\Siveps2-1-99-Project\source\client\Client\EterPack\EterPackManager.cpp

; 479  : 		memcpy( &dwPackgeIdentifier, pStream+iReadOffset, sizeof(DWORD) );

  0007d	89 85 90 fb ff
	ff		 mov	 DWORD PTR _dwPackgeIdentifier$1$[ebp], eax

; 480  : 		iReadOffset += sizeof(DWORD);

  00083	89 b5 a8 fb ff
	ff		 mov	 DWORD PTR _iReadOffset$1$[ebp], esi
; File C:\Users\murat\Desktop\Siveps2-1-99-Project\source\client\extern\include\boost\unordered\detail\implementation.hpp

; 3041 :           return size_ ? next_node(get_previous_start()) : node_pointer();

  00089	74 11		 je	 SHORT $LN18@RetrieveHy

; 3026 :           return buckets_ + static_cast<std::ptrdiff_t>(bucket_index);

  0008b	8b 81 1c 14 00
	00		 mov	 eax, DWORD PTR [ecx+5148]

; 3041 :           return size_ ? next_node(get_previous_start()) : node_pointer();

  00091	8b b1 2c 14 00
	00		 mov	 esi, DWORD PTR [ecx+5164]
  00097	8b 34 86	 mov	 esi, DWORD PTR [esi+eax*4]
  0009a	eb 02		 jmp	 SHORT $LN270@RetrieveHy
$LN18@RetrieveHy:
  0009c	33 f6		 xor	 esi, esi
$LN270@RetrieveHy:
; File C:\Users\murat\Desktop\Siveps2-1-99-Project\source\client\Client\EterPack\EterPackManager.cpp

; 483  : 		for( cit = m_PackMap.begin(); cit != m_PackMap.end(); ++cit )

  0009e	89 b5 b0 fb ff
	ff		 mov	 DWORD PTR _cit$1$[ebp], esi
  000a4	85 f6		 test	 esi, esi
  000a6	0f 84 70 03 00
	00		 je	 $LN266@RetrieveHy
  000ac	0f 1f 40 00	 npad	 4
$LL7@RetrieveHy:
; File C:\Program Files (x86)\Microsoft Visual Studio\2019\Professional\VC\Tools\MSVC\14.29.30133\include\xstring

; 2306 :         if (_Large_string_engaged()) {

  000b0	83 7e 1c 10	 cmp	 DWORD PTR [esi+28], 16	; 00000010H
; File C:\Users\murat\Desktop\Siveps2-1-99-Project\source\client\extern\include\boost\unordered\detail\implementation.hpp

; 2435 :         value_type const* operator->() const { return node_->value_ptr(); }

  000b4	8d 46 08	 lea	 eax, DWORD PTR [esi+8]
; File C:\Program Files (x86)\Microsoft Visual Studio\2019\Professional\VC\Tools\MSVC\14.29.30133\include\xstring

; 2921 :         const size_type _Right_size   = _Right_data._Mysize;

  000b7	8b 78 10	 mov	 edi, DWORD PTR [eax+16]
; File C:\Users\murat\Desktop\Siveps2-1-99-Project\source\client\extern\include\boost\unordered\detail\implementation.hpp

; 2435 :         value_type const* operator->() const { return node_->value_ptr(); }

  000ba	89 85 b8 fb ff
	ff		 mov	 DWORD PTR __Result$1$[ebp], eax
; File C:\Program Files (x86)\Microsoft Visual Studio\2019\Professional\VC\Tools\MSVC\14.29.30133\include\xstring

; 2921 :         const size_type _Right_size   = _Right_data._Mysize;

  000c0	89 bd bc fb ff
	ff		 mov	 DWORD PTR __Right_size$1$[ebp], edi

; 2306 :         if (_Large_string_engaged()) {

  000c6	72 08		 jb	 SHORT $LN54@RetrieveHy

; 2307 :             _Result = _Unfancy(_Bx._Ptr);

  000c8	8b 00		 mov	 eax, DWORD PTR [eax]
  000ca	89 85 b8 fb ff
	ff		 mov	 DWORD PTR __Result$1$[ebp], eax
$LN54@RetrieveHy:

; 2933 :         if (_Stay_small) { // stay small, don't allocate

  000d0	83 ff 10	 cmp	 edi, 16			; 00000010H
  000d3	73 29		 jae	 SHORT $LN51@RetrieveHy

; 65   :         _CSTD memcpy(_First1, _First2, _Count * sizeof(_Elem));

  000d5	0f 10 00	 movups	 xmm0, XMMWORD PTR [eax]

; 2937 :             return;

  000d8	8b 85 bc fb ff
	ff		 mov	 eax, DWORD PTR __Right_size$1$[ebp]
  000de	ba 0f 00 00 00	 mov	 edx, 15			; 0000000fH
  000e3	89 bd e8 fb ff
	ff		 mov	 DWORD PTR $T5[ebp+16], edi

; 65   :         _CSTD memcpy(_First1, _First2, _Count * sizeof(_Elem));

  000e9	0f 11 85 d8 fb
	ff ff		 movups	 XMMWORD PTR $T5[ebp], xmm0

; 2937 :             return;

  000f0	8b bd d8 fb ff
	ff		 mov	 edi, DWORD PTR $T5[ebp]
  000f6	89 95 b4 fb ff
	ff		 mov	 DWORD PTR $T3[ebp], edx
  000fc	eb 6f		 jmp	 SHORT $LN271@RetrieveHy
$LN51@RetrieveHy:

; 2938 :         }
; 2939 : 
; 2940 :         auto& _Al                     = _Getal();
; 2941 :         const size_type _New_capacity = (_STD min)(_Right_size | _ALLOC_MASK, max_size());

  000fe	8b c7		 mov	 eax, edi
  00100	b9 ff ff ff 7f	 mov	 ecx, 2147483647		; 7fffffffH
  00105	83 c8 0f	 or	 eax, 15			; 0000000fH
  00108	3d ff ff ff 7f	 cmp	 eax, 2147483647		; 7fffffffH
  0010d	0f 47 c1	 cmova	 eax, ecx
  00110	89 85 b4 fb ff
	ff		 mov	 DWORD PTR $T3[ebp], eax

; 2942 :         const pointer _New_array      = _Al.allocate(_New_capacity + 1); // throws

  00116	40		 inc	 eax
; File C:\Program Files (x86)\Microsoft Visual Studio\2019\Professional\VC\Tools\MSVC\14.29.30133\include\xmemory

; 237  :         if (_Bytes >= _Big_allocation_threshold) { // boost the alignment of big allocations to help autovectorization

  00117	3d 00 10 00 00	 cmp	 eax, 4096		; 00001000H
  0011c	72 0d		 jb	 SHORT $LN65@RetrieveHy

; 238  :             return _Allocate_manually_vector_aligned<_Traits>(_Bytes);

  0011e	50		 push	 eax
  0011f	e8 00 00 00 00	 call	 ??$_Allocate_manually_vector_aligned@U_Default_allocate_traits@std@@@std@@YAPAXI@Z ; std::_Allocate_manually_vector_aligned<std::_Default_allocate_traits>
  00124	83 c4 04	 add	 esp, 4
  00127	8b f8		 mov	 edi, eax
  00129	eb 13		 jmp	 SHORT $LN64@RetrieveHy
$LN65@RetrieveHy:

; 239  :         }
; 240  :     }
; 241  : #endif // defined(_M_IX86) || defined(_M_X64)
; 242  : 
; 243  :     if (_Bytes != 0) {

  0012b	85 c0		 test	 eax, eax
  0012d	74 0d		 je	 SHORT $LN66@RetrieveHy

; 85   :         return ::operator new(_Bytes);

  0012f	50		 push	 eax
  00130	e8 00 00 00 00	 call	 ??2@YAPAXI@Z		; operator new
  00135	83 c4 04	 add	 esp, 4

; 244  :         return _Traits::_Allocate(_Bytes);

  00138	8b f8		 mov	 edi, eax
  0013a	eb 02		 jmp	 SHORT $LN64@RetrieveHy
$LN66@RetrieveHy:

; 245  :     }
; 246  : 
; 247  :     return nullptr;

  0013c	33 ff		 xor	 edi, edi
$LN64@RetrieveHy:
; File C:\Program Files (x86)\Microsoft Visual Studio\2019\Professional\VC\Tools\MSVC\14.29.30133\include\xstring

; 2950 :         _Traits::copy(_Unfancy(_New_array), _Right_ptr, _Right_size + 1);

  0013e	8b 85 bc fb ff
	ff		 mov	 eax, DWORD PTR __Right_size$1$[ebp]
  00144	40		 inc	 eax
  00145	89 bd d8 fb ff
	ff		 mov	 DWORD PTR $T5[ebp], edi

; 65   :         _CSTD memcpy(_First1, _First2, _Count * sizeof(_Elem));

  0014b	50		 push	 eax
  0014c	ff b5 b8 fb ff
	ff		 push	 DWORD PTR __Result$1$[ebp]
  00152	57		 push	 edi
  00153	e8 00 00 00 00	 call	 _memcpy

; 2951 :         _My_data._Mysize = _Right_size;

  00158	8b 85 bc fb ff
	ff		 mov	 eax, DWORD PTR __Right_size$1$[ebp]

; 65   :         _CSTD memcpy(_First1, _First2, _Count * sizeof(_Elem));

  0015e	83 c4 0c	 add	 esp, 12			; 0000000cH

; 2952 :         _My_data._Myres  = _New_capacity;

  00161	8b 95 b4 fb ff
	ff		 mov	 edx, DWORD PTR $T3[ebp]
  00167	89 85 e8 fb ff
	ff		 mov	 DWORD PTR $T5[ebp+16], eax
$LN271@RetrieveHy:
; File C:\Users\murat\Desktop\Siveps2-1-99-Project\source\client\Client\EterPack\EterPackManager.cpp

; 485  : 			std::string noPathName = CFileNameHelper::NoPath(string(cit->first));

  0016d	89 95 ec fb ff
	ff		 mov	 DWORD PTR $T5[ebp+20], edx
  00173	c7 45 fc 00 00
	00 00		 mov	 DWORD PTR __$EHRec$[ebp+8], 0
; File C:\Users\murat\Desktop\Siveps2-1-99-Project\source\client\Client\eterBase\filename.h

; 348  : 	szPath[0] = '\0';

  0017a	c6 85 f0 fb ff
	ff 00		 mov	 BYTE PTR _szPath$6[ebp], 0

; 349  : 
; 350  : 	size_t nLength = str.length();
; 351  : 
; 352  : 	if (nLength > 0)

  00181	85 c0		 test	 eax, eax
  00183	0f 84 eb 00 00
	00		 je	 $LN74@RetrieveHy
; File C:\Program Files (x86)\Microsoft Visual Studio\2019\Professional\VC\Tools\MSVC\14.29.30133\include\xstring

; 2306 :         if (_Large_string_engaged()) {

  00189	83 fa 10	 cmp	 edx, 16			; 00000010H
  0018c	8d 8d d8 fb ff
	ff		 lea	 ecx, DWORD PTR $T5[ebp]

; 2308 :         }
; 2309 : 
; 2310 :         return _Result;

  00192	8d 85 f0 fb ff
	ff		 lea	 eax, DWORD PTR _szPath$6[ebp]
  00198	0f 43 cf	 cmovae	 ecx, edi
  0019b	2b c1		 sub	 eax, ecx
  0019d	89 85 b8 fb ff
	ff		 mov	 DWORD PTR tv1284[ebp], eax
  001a3	8b d0		 mov	 edx, eax
$LL86@RetrieveHy:
; File C:\Users\murat\Desktop\Siveps2-1-99-Project\source\client\Client\eterBase\filename.h

; 354  : 		strcpy(szPath, str.c_str());

  001a5	8a 01		 mov	 al, BYTE PTR [ecx]
  001a7	8d 49 01	 lea	 ecx, DWORD PTR [ecx+1]
  001aa	88 44 0a ff	 mov	 BYTE PTR [edx+ecx-1], al
  001ae	84 c0		 test	 al, al
  001b0	75 f3		 jne	 SHORT $LL86@RetrieveHy

; 355  : 
; 356  : 		for (size_t i = nLength - 1; i > 0; i--)

  001b2	8b 85 bc fb ff
	ff		 mov	 eax, DWORD PTR __Right_size$1$[ebp]
  001b8	8b 95 b4 fb ff
	ff		 mov	 edx, DWORD PTR $T3[ebp]
  001be	83 c0 ff	 add	 eax, -1
  001c1	0f 84 ad 00 00
	00		 je	 $LN74@RetrieveHy
  001c7	66 0f 1f 84 00
	00 00 00 00	 npad	 9
$LL75@RetrieveHy:
; File C:\Program Files (x86)\Microsoft Visual Studio\2019\Professional\VC\Tools\MSVC\14.29.30133\include\xstring

; 2297 :         if (_Large_string_engaged()) {

  001d0	83 fa 10	 cmp	 edx, 16			; 00000010H
  001d3	8d 8d d8 fb ff
	ff		 lea	 ecx, DWORD PTR $T5[ebp]
  001d9	0f 43 cf	 cmovae	 ecx, edi
; File C:\Users\murat\Desktop\Siveps2-1-99-Project\source\client\Client\eterBase\filename.h

; 358  : 			if (str[i] == '/' || str[i] == '\\')

  001dc	80 3c 01 2f	 cmp	 BYTE PTR [ecx+eax], 47	; 0000002fH
  001e0	74 1d		 je	 SHORT $LN81@RetrieveHy
; File C:\Program Files (x86)\Microsoft Visual Studio\2019\Professional\VC\Tools\MSVC\14.29.30133\include\xstring

; 2297 :         if (_Large_string_engaged()) {

  001e2	83 fa 10	 cmp	 edx, 16			; 00000010H
  001e5	8d 8d d8 fb ff
	ff		 lea	 ecx, DWORD PTR $T5[ebp]
  001eb	0f 43 cf	 cmovae	 ecx, edi
; File C:\Users\murat\Desktop\Siveps2-1-99-Project\source\client\Client\eterBase\filename.h

; 358  : 			if (str[i] == '/' || str[i] == '\\')

  001ee	80 3c 01 5c	 cmp	 BYTE PTR [ecx+eax], 92	; 0000005cH
  001f2	74 0b		 je	 SHORT $LN81@RetrieveHy

; 364  : 				break;
; 365  : 			}
; 366  : 
; 367  : 			if (0 == i)

  001f4	85 c0		 test	 eax, eax
  001f6	74 7c		 je	 SHORT $LN74@RetrieveHy

; 355  : 
; 356  : 		for (size_t i = nLength - 1; i > 0; i--)

  001f8	83 e8 01	 sub	 eax, 1
  001fb	75 d3		 jne	 SHORT $LL75@RetrieveHy
; File C:\Users\murat\Desktop\Siveps2-1-99-Project\source\client\Client\EterPack\EterPackManager.cpp

; 486  : 			if( dwPackgeIdentifier == stringhash().GetHash(noPathName) )

  001fd	eb 75		 jmp	 SHORT $LN74@RetrieveHy
$LN81@RetrieveHy:
; File C:\Users\murat\Desktop\Siveps2-1-99-Project\source\client\Client\eterBase\filename.h

; 361  : 				for (size_t j = i + 1; j < nLength; j++, k++)

  001ff	8d 48 01	 lea	 ecx, DWORD PTR [eax+1]
  00202	8b 85 bc fb ff
	ff		 mov	 eax, DWORD PTR __Right_size$1$[ebp]
  00208	3b c8		 cmp	 ecx, eax
  0020a	73 5e		 jae	 SHORT $LN265@RetrieveHy
  0020c	8d b5 f0 fb ff
	ff		 lea	 esi, DWORD PTR _szPath$6[ebp]
  00212	2b f1		 sub	 esi, ecx
  00214	2b c1		 sub	 eax, ecx
  00216	89 b5 b8 fb ff
	ff		 mov	 DWORD PTR tv1286[ebp], esi
  0021c	89 85 a0 fb ff
	ff		 mov	 DWORD PTR _k$1$[ebp], eax
  00222	0f 1f 40 00 66
	66 0f 1f 84 00
	00 00 00 00	 npad	 14
$LL78@RetrieveHy:

; 362  : 					szPath[k] = str[j];

  00230	8b b5 b8 fb ff
	ff		 mov	 esi, DWORD PTR tv1286[ebp]
; File C:\Program Files (x86)\Microsoft Visual Studio\2019\Professional\VC\Tools\MSVC\14.29.30133\include\xstring

; 2296 :         value_type* _Result = _Bx._Buf;

  00236	8d 85 d8 fb ff
	ff		 lea	 eax, DWORD PTR $T5[ebp]

; 2297 :         if (_Large_string_engaged()) {

  0023c	83 fa 10	 cmp	 edx, 16			; 00000010H
  0023f	0f 43 c7	 cmovae	 eax, edi
; File C:\Users\murat\Desktop\Siveps2-1-99-Project\source\client\Client\eterBase\filename.h

; 362  : 					szPath[k] = str[j];

  00242	8a 04 08	 mov	 al, BYTE PTR [eax+ecx]
  00245	88 04 0e	 mov	 BYTE PTR [esi+ecx], al
  00248	41		 inc	 ecx
  00249	3b 8d bc fb ff
	ff		 cmp	 ecx, DWORD PTR __Right_size$1$[ebp]
  0024f	72 df		 jb	 SHORT $LL78@RetrieveHy

; 363  : 				szPath[k] = '\0';

  00251	8b 85 a0 fb ff
	ff		 mov	 eax, DWORD PTR _k$1$[ebp]
  00257	8b b5 b0 fb ff
	ff		 mov	 esi, DWORD PTR _cit$1$[ebp]
  0025d	3d 00 04 00 00	 cmp	 eax, 1024		; 00000400H
  00262	0f 83 dc 01 00
	00		 jae	 $LN87@RetrieveHy
  00268	eb 02		 jmp	 SHORT $LN258@RetrieveHy
$LN265@RetrieveHy:

; 361  : 				for (size_t j = i + 1; j < nLength; j++, k++)

  0026a	33 c0		 xor	 eax, eax
$LN258@RetrieveHy:

; 363  : 				szPath[k] = '\0';

  0026c	c6 84 05 f0 fb
	ff ff 00	 mov	 BYTE PTR _szPath$6[ebp+eax], 0
$LN74@RetrieveHy:
; File C:\Program Files (x86)\Microsoft Visual Studio\2019\Professional\VC\Tools\MSVC\14.29.30133\include\xstring

; 412  :         return _CSTD strlen(reinterpret_cast<const char*>(_First));

  00274	8d 8d f0 fb ff
	ff		 lea	 ecx, DWORD PTR _szPath$6[ebp]

; 2346 :         _CONSTEXPR20_CONTAINER _Bxty() noexcept : _Ptr() {} // user-provided, for fancy pointers

  0027a	c7 85 c0 fb ff
	ff 00 00 00 00	 mov	 DWORD PTR _noPathName$4[ebp], 0

; 4596 :         _My_data._Mysize = 0;

  00284	c7 85 d0 fb ff
	ff 00 00 00 00	 mov	 DWORD PTR _noPathName$4[ebp+16], 0

; 412  :         return _CSTD strlen(reinterpret_cast<const char*>(_First));

  0028e	8d 51 01	 lea	 edx, DWORD PTR [ecx+1]

; 4610 :             _My_data._Myres = _BUF_SIZE - 1;

  00291	c7 85 d4 fb ff
	ff 0f 00 00 00	 mov	 DWORD PTR _noPathName$4[ebp+20], 15 ; 0000000fH

; 4611 :             // the _Traits::assign is last so the codegen doesn't think the char write can alias this
; 4612 :             _Traits::assign(_My_data._Bx._Buf[0], _Elem());

  0029b	c6 85 c0 fb ff
	ff 00		 mov	 BYTE PTR _noPathName$4[ebp], 0
$LL262@RetrieveHy:

; 412  :         return _CSTD strlen(reinterpret_cast<const char*>(_First));

  002a2	8a 01		 mov	 al, BYTE PTR [ecx]
  002a4	41		 inc	 ecx
  002a5	84 c0		 test	 al, al
  002a7	75 f9		 jne	 SHORT $LL262@RetrieveHy
  002a9	2b ca		 sub	 ecx, edx

; 3264 :         return assign(_Ptr, _Convert_size<size_type>(_Traits::length(_Ptr)));

  002ab	8d 85 f0 fb ff
	ff		 lea	 eax, DWORD PTR _szPath$6[ebp]
  002b1	51		 push	 ecx
  002b2	50		 push	 eax
  002b3	8d 8d c0 fb ff
	ff		 lea	 ecx, DWORD PTR _noPathName$4[ebp]
  002b9	e8 00 00 00 00	 call	 ?assign@?$basic_string@DU?$char_traits@D@std@@V?$allocator@D@2@@std@@QAEAAV12@QBDI@Z ; std::basic_string<char,std::char_traits<char>,std::allocator<char> >::assign
; File C:\Users\murat\Desktop\Siveps2-1-99-Project\source\client\Client\eterBase\filename.h

; 372  : 	return szPath;

  002be	83 8d 9c fb ff
	ff 01		 or	 DWORD PTR $T2[ebp], 1
; File C:\Program Files (x86)\Microsoft Visual Studio\2019\Professional\VC\Tools\MSVC\14.29.30133\include\xstring

; 4618 :         if (_Mypair._Myval2._Large_string_engaged()) {

  002c5	8b 85 b4 fb ff
	ff		 mov	 eax, DWORD PTR $T3[ebp]
; File C:\Users\murat\Desktop\Siveps2-1-99-Project\source\client\Client\EterPack\EterPackManager.cpp

; 485  : 			std::string noPathName = CFileNameHelper::NoPath(string(cit->first));

  002cb	c6 45 fc 02	 mov	 BYTE PTR __$EHRec$[ebp+8], 2
; File C:\Program Files (x86)\Microsoft Visual Studio\2019\Professional\VC\Tools\MSVC\14.29.30133\include\xstring

; 4618 :         if (_Mypair._Myval2._Large_string_engaged()) {

  002cf	83 f8 10	 cmp	 eax, 16			; 00000010H
  002d2	72 2b		 jb	 SHORT $LN148@RetrieveHy

; 4619 :             const pointer _Ptr = _Mypair._Myval2._Bx._Ptr;
; 4620 :             auto& _Al          = _Getal();
; 4621 :             _Destroy_in_place(_Mypair._Myval2._Bx._Ptr);
; 4622 :             _Al.deallocate(_Ptr, _Mypair._Myval2._Myres + 1);

  002d4	8d 48 01	 lea	 ecx, DWORD PTR [eax+1]
; File C:\Program Files (x86)\Microsoft Visual Studio\2019\Professional\VC\Tools\MSVC\14.29.30133\include\xmemory

; 835  :         _Deallocate<_New_alignof<_Ty>>(_Ptr, sizeof(_Ty) * _Count);

  002d7	8b c7		 mov	 eax, edi

; 260  :         if (_Bytes >= _Big_allocation_threshold) { // boost the alignment of big allocations to help autovectorization

  002d9	81 f9 00 10 00
	00		 cmp	 ecx, 4096		; 00001000H
  002df	72 14		 jb	 SHORT $LN158@RetrieveHy

; 158  :     const uintptr_t _Ptr_container   = _Ptr_user[-1];

  002e1	8b 7f fc	 mov	 edi, DWORD PTR [edi-4]
  002e4	83 c1 23	 add	 ecx, 35			; 00000023H
  002e7	2b c7		 sub	 eax, edi

; 172  :     _STL_VERIFY(_Back_shift >= _Min_back_shift && _Back_shift <= _Non_user_size, "invalid argument");

  002e9	83 c0 fc	 add	 eax, -4			; fffffffcH
  002ec	83 f8 1f	 cmp	 eax, 31			; 0000001fH
  002ef	0f 87 54 01 00
	00		 ja	 $LN222@RetrieveHy
$LN158@RetrieveHy:

; 264  :         ::operator delete(_Ptr, _Bytes);

  002f5	51		 push	 ecx
  002f6	57		 push	 edi
  002f7	e8 00 00 00 00	 call	 ??3@YAXPAXI@Z		; operator delete
  002fc	83 c4 08	 add	 esp, 8
$LN148@RetrieveHy:
; File C:\Program Files (x86)\Microsoft Visual Studio\2019\Professional\VC\Tools\MSVC\14.29.30133\include\xstring

; 2306 :         if (_Large_string_engaged()) {

  002ff	83 bd d4 fb ff
	ff 10		 cmp	 DWORD PTR _noPathName$4[ebp+20], 16 ; 00000010H
  00306	8d 8d c0 fb ff
	ff		 lea	 ecx, DWORD PTR _noPathName$4[ebp]
  0030c	8b bd c0 fb ff
	ff		 mov	 edi, DWORD PTR _noPathName$4[ebp]
; File C:\Users\murat\Desktop\Siveps2-1-99-Project\source\client\Client\eterBase\Stl.h

; 478  :        const unsigned char * end = s + str.size();

  00312	8b 85 d0 fb ff
	ff		 mov	 eax, DWORD PTR _noPathName$4[ebp+16]
; File C:\Program Files (x86)\Microsoft Visual Studio\2019\Professional\VC\Tools\MSVC\14.29.30133\include\xstring

; 2306 :         if (_Large_string_engaged()) {

  00318	0f 43 cf	 cmovae	 ecx, edi
; File C:\Users\murat\Desktop\Siveps2-1-99-Project\source\client\Client\eterBase\Stl.h

; 478  :        const unsigned char * end = s + str.size();

  0031b	03 c1		 add	 eax, ecx

; 479  :        size_t h = 0;

  0031d	33 d2		 xor	 edx, edx

; 480  : 
; 481  :        while (s < end)

  0031f	3b c8		 cmp	 ecx, eax
  00321	73 18		 jae	 SHORT $LN165@RetrieveHy
  00323	8b f0		 mov	 esi, eax
$LL244@RetrieveHy:

; 482  :        {
; 483  :            h *= 16777619;
; 484  :            h ^= (unsigned char) *(unsigned char *) (s++);

  00325	0f b6 01	 movzx	 eax, BYTE PTR [ecx]
  00328	41		 inc	 ecx
  00329	69 d2 93 01 00
	01		 imul	 edx, edx, 16777619
  0032f	33 d0		 xor	 edx, eax
  00331	3b ce		 cmp	 ecx, esi
  00333	72 f0		 jb	 SHORT $LL244@RetrieveHy
  00335	8b b5 b0 fb ff
	ff		 mov	 esi, DWORD PTR _cit$1$[ebp]
$LN165@RetrieveHy:
; File C:\Users\murat\Desktop\Siveps2-1-99-Project\source\client\Client\EterPack\EterPackManager.cpp

; 486  : 			if( dwPackgeIdentifier == stringhash().GetHash(noPathName) )

  0033b	39 95 90 fb ff
	ff		 cmp	 DWORD PTR _dwPackgeIdentifier$1$[ebp], edx
  00341	74 7b		 je	 SHORT $LN238@RetrieveHy
; File C:\Program Files (x86)\Microsoft Visual Studio\2019\Professional\VC\Tools\MSVC\14.29.30133\include\xstring

; 2319 :         return _BUF_SIZE <= _Myres;

  00343	8b 85 d4 fb ff
	ff		 mov	 eax, DWORD PTR _noPathName$4[ebp+20]
; File C:\Users\murat\Desktop\Siveps2-1-99-Project\source\client\Client\EterPack\EterPackManager.cpp

; 492  : 		}

  00349	c7 45 fc ff ff
	ff ff		 mov	 DWORD PTR __$EHRec$[ebp+8], -1
; File C:\Program Files (x86)\Microsoft Visual Studio\2019\Professional\VC\Tools\MSVC\14.29.30133\include\xstring

; 2319 :         return _BUF_SIZE <= _Myres;

  00350	83 f8 10	 cmp	 eax, 16			; 00000010H

; 4618 :         if (_Mypair._Myval2._Large_string_engaged()) {

  00353	72 2b		 jb	 SHORT $LN215@RetrieveHy

; 4619 :             const pointer _Ptr = _Mypair._Myval2._Bx._Ptr;
; 4620 :             auto& _Al          = _Getal();
; 4621 :             _Destroy_in_place(_Mypair._Myval2._Bx._Ptr);
; 4622 :             _Al.deallocate(_Ptr, _Mypair._Myval2._Myres + 1);

  00355	8d 48 01	 lea	 ecx, DWORD PTR [eax+1]
; File C:\Program Files (x86)\Microsoft Visual Studio\2019\Professional\VC\Tools\MSVC\14.29.30133\include\xmemory

; 835  :         _Deallocate<_New_alignof<_Ty>>(_Ptr, sizeof(_Ty) * _Count);

  00358	8b c7		 mov	 eax, edi

; 260  :         if (_Bytes >= _Big_allocation_threshold) { // boost the alignment of big allocations to help autovectorization

  0035a	81 f9 00 10 00
	00		 cmp	 ecx, 4096		; 00001000H
  00360	72 14		 jb	 SHORT $LN225@RetrieveHy

; 158  :     const uintptr_t _Ptr_container   = _Ptr_user[-1];

  00362	8b 7f fc	 mov	 edi, DWORD PTR [edi-4]
  00365	83 c1 23	 add	 ecx, 35			; 00000023H
  00368	2b c7		 sub	 eax, edi

; 172  :     _STL_VERIFY(_Back_shift >= _Min_back_shift && _Back_shift <= _Non_user_size, "invalid argument");

  0036a	83 c0 fc	 add	 eax, -4			; fffffffcH
  0036d	83 f8 1f	 cmp	 eax, 31			; 0000001fH
  00370	0f 87 d3 00 00
	00		 ja	 $LN222@RetrieveHy
$LN225@RetrieveHy:

; 264  :         ::operator delete(_Ptr, _Bytes);

  00376	51		 push	 ecx
  00377	57		 push	 edi
  00378	e8 00 00 00 00	 call	 ??3@YAXPAXI@Z		; operator delete
  0037d	83 c4 08	 add	 esp, 8
$LN215@RetrieveHy:
; File C:\Users\murat\Desktop\Siveps2-1-99-Project\source\client\extern\include\boost\unordered\detail\implementation.hpp

; 2439 :           node_ = static_cast<node_pointer>(node_->next_);

  00380	8b 36		 mov	 esi, DWORD PTR [esi]
  00382	89 b5 b0 fb ff
	ff		 mov	 DWORD PTR _cit$1$[ebp], esi

; 2459 :           return x.node_ != y.node_;

  00388	85 f6		 test	 esi, esi
; File C:\Users\murat\Desktop\Siveps2-1-99-Project\source\client\Client\EterPack\EterPackManager.cpp

; 483  : 		for( cit = m_PackMap.begin(); cit != m_PackMap.end(); ++cit )

  0038a	0f 85 20 fd ff
	ff		 jne	 $LL7@RetrieveHy

; 486  : 			if( dwPackgeIdentifier == stringhash().GetHash(noPathName) )

  00390	8b b5 a8 fb ff
	ff		 mov	 esi, DWORD PTR _iReadOffset$1$[ebp]
$LN267@RetrieveHy:

; 465  : 	//cnt
; 466  : 	//for cnt
; 467  : 	//DWORD				dwPackageIdentifier;
; 468  : 	//DWORD				dwFileIdentifier;
; 469  : 	//std::vector<BYTE>	vecSDBStream;
; 470  : 	int iReadOffset = 0;
; 471  : 	int iSDBInfoCount = 0;
; 472  : 
; 473  : 	memcpy( &iSDBInfoCount, pStream+iReadOffset, sizeof(int) );
; 474  : 	iReadOffset += sizeof(int);
; 475  : 
; 476  : 	for( int i = 0; i < iSDBInfoCount; ++i )

  00396	8b 8d a4 fb ff
	ff		 mov	 ecx, DWORD PTR _this$1$[ebp]
  0039c	8b 95 ac fb ff
	ff		 mov	 edx, DWORD PTR _iSDBInfoCount$1$[ebp]
$LN2@RetrieveHy:
  003a2	8b 85 98 fb ff
	ff		 mov	 eax, DWORD PTR _i$1$[ebp]
  003a8	40		 inc	 eax
  003a9	89 85 98 fb ff
	ff		 mov	 DWORD PTR _i$1$[ebp], eax
  003af	3b c2		 cmp	 eax, edx
  003b1	7d 74		 jge	 SHORT $LN260@RetrieveHy
  003b3	8b 85 94 fb ff
	ff		 mov	 eax, DWORD PTR _pStream$GSCopy$1$[ebp]
  003b9	e9 b2 fc ff ff	 jmp	 $LL4@RetrieveHy
$LN238@RetrieveHy:

; 487  : 			{
; 488  : 				EterPackPolicy_CSHybridCrypt* pCryptPolicy = cit->second->GetPackPolicy_HybridCrypt();

  003be	8b 4e 20	 mov	 ecx, DWORD PTR [esi+32]
  003c1	e8 00 00 00 00	 call	 ?GetPackPolicy_HybridCrypt@CEterPack@@QBEPAVEterPackPolicy_CSHybridCrypt@@XZ ; CEterPack::GetPackPolicy_HybridCrypt

; 489  : 				iReadOffset += pCryptPolicy->ReadSupplementatyDataBlockFromStream( pStream+iReadOffset );

  003c6	8b 8d 94 fb ff
	ff		 mov	 ecx, DWORD PTR _pStream$GSCopy$1$[ebp]
  003cc	8b b5 a8 fb ff
	ff		 mov	 esi, DWORD PTR _iReadOffset$1$[ebp]
  003d2	03 ce		 add	 ecx, esi
  003d4	51		 push	 ecx
  003d5	8b c8		 mov	 ecx, eax
  003d7	e8 00 00 00 00	 call	 ?ReadSupplementatyDataBlockFromStream@EterPackPolicy_CSHybridCrypt@@QAEHPBE@Z ; EterPackPolicy_CSHybridCrypt::ReadSupplementatyDataBlockFromStream
  003dc	03 f0		 add	 esi, eax

; 490  : 				break;

  003de	c7 45 fc ff ff
	ff ff		 mov	 DWORD PTR __$EHRec$[ebp+8], -1
; File C:\Program Files (x86)\Microsoft Visual Studio\2019\Professional\VC\Tools\MSVC\14.29.30133\include\xstring

; 2319 :         return _BUF_SIZE <= _Myres;

  003e5	8b 85 d4 fb ff
	ff		 mov	 eax, DWORD PTR _noPathName$4[ebp+20]
  003eb	83 f8 10	 cmp	 eax, 16			; 00000010H

; 4618 :         if (_Mypair._Myval2._Large_string_engaged()) {

  003ee	72 a6		 jb	 SHORT $LN267@RetrieveHy

; 4619 :             const pointer _Ptr = _Mypair._Myval2._Bx._Ptr;
; 4620 :             auto& _Al          = _Getal();
; 4621 :             _Destroy_in_place(_Mypair._Myval2._Bx._Ptr);
; 4622 :             _Al.deallocate(_Ptr, _Mypair._Myval2._Myres + 1);

  003f0	8d 48 01	 lea	 ecx, DWORD PTR [eax+1]
; File C:\Program Files (x86)\Microsoft Visual Studio\2019\Professional\VC\Tools\MSVC\14.29.30133\include\xmemory

; 835  :         _Deallocate<_New_alignof<_Ty>>(_Ptr, sizeof(_Ty) * _Count);

  003f3	8b c7		 mov	 eax, edi

; 260  :         if (_Bytes >= _Big_allocation_threshold) { // boost the alignment of big allocations to help autovectorization

  003f5	81 f9 00 10 00
	00		 cmp	 ecx, 4096		; 00001000H
  003fb	72 10		 jb	 SHORT $LN198@RetrieveHy

; 158  :     const uintptr_t _Ptr_container   = _Ptr_user[-1];

  003fd	8b 7f fc	 mov	 edi, DWORD PTR [edi-4]
  00400	83 c1 23	 add	 ecx, 35			; 00000023H
  00403	2b c7		 sub	 eax, edi

; 172  :     _STL_VERIFY(_Back_shift >= _Min_back_shift && _Back_shift <= _Non_user_size, "invalid argument");

  00405	83 c0 fc	 add	 eax, -4			; fffffffcH
  00408	83 f8 1f	 cmp	 eax, 31			; 0000001fH
  0040b	77 3c		 ja	 SHORT $LN222@RetrieveHy
$LN198@RetrieveHy:

; 264  :         ::operator delete(_Ptr, _Bytes);

  0040d	51		 push	 ecx
  0040e	57		 push	 edi
  0040f	e8 00 00 00 00	 call	 ??3@YAXPAXI@Z		; operator delete
  00414	83 c4 08	 add	 esp, 8
; File C:\Users\murat\Desktop\Siveps2-1-99-Project\source\client\Client\EterPack\EterPackManager.cpp

; 483  : 		for( cit = m_PackMap.begin(); cit != m_PackMap.end(); ++cit )

  00417	e9 7a ff ff ff	 jmp	 $LN267@RetrieveHy
$LN266@RetrieveHy:
  0041c	8b b5 a8 fb ff
	ff		 mov	 esi, DWORD PTR _iReadOffset$1$[ebp]
  00422	e9 7b ff ff ff	 jmp	 $LN2@RetrieveHy
$LN260@RetrieveHy:

; 494  : }

  00427	8b 4d f4	 mov	 ecx, DWORD PTR __$EHRec$[ebp]
  0042a	64 89 0d 00 00
	00 00		 mov	 DWORD PTR fs:0, ecx
  00431	59		 pop	 ecx
  00432	5f		 pop	 edi
  00433	5e		 pop	 esi
  00434	8b 4d f0	 mov	 ecx, DWORD PTR __$ArrayPad$[ebp]
  00437	33 cd		 xor	 ecx, ebp
  00439	e8 00 00 00 00	 call	 @__security_check_cookie@4
  0043e	8b e5		 mov	 esp, ebp
  00440	5d		 pop	 ebp
  00441	c2 04 00	 ret	 4
$LN87@RetrieveHy:
; File C:\Users\murat\Desktop\Siveps2-1-99-Project\source\client\Client\eterBase\filename.h

; 363  : 				szPath[k] = '\0';

  00444	e8 00 00 00 00	 call	 ___report_rangecheckfailure
$LN222@RetrieveHy:
; File C:\Program Files (x86)\Microsoft Visual Studio\2019\Professional\VC\Tools\MSVC\14.29.30133\include\xmemory

; 172  :     _STL_VERIFY(_Back_shift >= _Min_back_shift && _Back_shift <= _Non_user_size, "invalid argument");

  00449	e8 00 00 00 00	 call	 __invalid_parameter_noinfo_noreturn
$LN269@RetrieveHy:
  0044e	cc		 int	 3
_TEXT	ENDS
;	COMDAT text$x
text$x	SEGMENT
__unwindfunclet$?RetrieveHybridCryptPackSDB@CEterPackManager@@QAEXPBE@Z$0:
  00000	8d 8d d8 fb ff
	ff		 lea	 ecx, DWORD PTR $T5[ebp]
  00006	e9 00 00 00 00	 jmp	 ??1?$basic_string@DU?$char_traits@D@std@@V?$allocator@D@2@@std@@QAE@XZ ; std::basic_string<char,std::char_traits<char>,std::allocator<char> >::~basic_string<char,std::char_traits<char>,std::allocator<char> >
__unwindfunclet$?RetrieveHybridCryptPackSDB@CEterPackManager@@QAEXPBE@Z$1:
  0000b	8d 8d c0 fb ff
	ff		 lea	 ecx, DWORD PTR _noPathName$4[ebp]
  00011	e9 00 00 00 00	 jmp	 ??1?$basic_string@DU?$char_traits@D@std@@V?$allocator@D@2@@std@@QAE@XZ ; std::basic_string<char,std::char_traits<char>,std::allocator<char> >::~basic_string<char,std::char_traits<char>,std::allocator<char> >
  00016	cc		 int	 3
  00017	cc		 int	 3
  00018	cc		 int	 3
  00019	cc		 int	 3
  0001a	cc		 int	 3
__ehhandler$?RetrieveHybridCryptPackSDB@CEterPackManager@@QAEXPBE@Z:
  0001b	90		 npad	 1
  0001c	90		 npad	 1
  0001d	8b 54 24 08	 mov	 edx, DWORD PTR [esp+8]
  00021	8d 42 0c	 lea	 eax, DWORD PTR [edx+12]
  00024	8b 8a 90 fb ff
	ff		 mov	 ecx, DWORD PTR [edx-1136]
  0002a	33 c8		 xor	 ecx, eax
  0002c	e8 00 00 00 00	 call	 @__security_check_cookie@4
  00031	8b 4a fc	 mov	 ecx, DWORD PTR [edx-4]
  00034	33 c8		 xor	 ecx, eax
  00036	e8 00 00 00 00	 call	 @__security_check_cookie@4
  0003b	b8 00 00 00 00	 mov	 eax, OFFSET __ehfuncinfo$?RetrieveHybridCryptPackSDB@CEterPackManager@@QAEXPBE@Z
  00040	e9 00 00 00 00	 jmp	 ___CxxFrameHandler3
text$x	ENDS
?RetrieveHybridCryptPackSDB@CEterPackManager@@QAEXPBE@Z ENDP ; CEterPackManager::RetrieveHybridCryptPackSDB
; Function compile flags: /Ogtp
; File C:\Users\murat\Desktop\Siveps2-1-99-Project\source\client\Client\EterPack\EterPackManager.cpp
; File C:\Users\murat\Desktop\Siveps2-1-99-Project\source\client\extern\include\boost\unordered\detail\implementation.hpp
; File C:\Users\murat\Desktop\Siveps2-1-99-Project\source\client\Client\EterPack\EterPackManager.cpp
; File C:\Users\murat\Desktop\Siveps2-1-99-Project\source\client\extern\include\boost\unordered\detail\implementation.hpp
; File C:\Users\murat\Desktop\Siveps2-1-99-Project\source\client\Client\EterPack\EterPackManager.cpp
; File C:\Program Files (x86)\Microsoft Visual Studio\2019\Professional\VC\Tools\MSVC\14.29.30133\include\xstring
; File C:\Users\murat\Desktop\Siveps2-1-99-Project\source\client\extern\include\boost\unordered\detail\implementation.hpp
; File C:\Program Files (x86)\Microsoft Visual Studio\2019\Professional\VC\Tools\MSVC\14.29.30133\include\xstring
; File C:\Users\murat\Desktop\Siveps2-1-99-Project\source\client\extern\include\boost\unordered\detail\implementation.hpp
; File C:\Program Files (x86)\Microsoft Visual Studio\2019\Professional\VC\Tools\MSVC\14.29.30133\include\xstring
; File C:\Program Files (x86)\Microsoft Visual Studio\2019\Professional\VC\Tools\MSVC\14.29.30133\include\xmemory
; File C:\Program Files (x86)\Microsoft Visual Studio\2019\Professional\VC\Tools\MSVC\14.29.30133\include\xstring
; File C:\Users\murat\Desktop\Siveps2-1-99-Project\source\client\Client\EterPack\EterPackManager.cpp
; File C:\Users\murat\Desktop\Siveps2-1-99-Project\source\client\Client\eterBase\filename.h
; File C:\Program Files (x86)\Microsoft Visual Studio\2019\Professional\VC\Tools\MSVC\14.29.30133\include\xstring
; File C:\Users\murat\Desktop\Siveps2-1-99-Project\source\client\Client\eterBase\filename.h
; File C:\Program Files (x86)\Microsoft Visual Studio\2019\Professional\VC\Tools\MSVC\14.29.30133\include\xstring
; File C:\Users\murat\Desktop\Siveps2-1-99-Project\source\client\Client\eterBase\filename.h
; File C:\Program Files (x86)\Microsoft Visual Studio\2019\Professional\VC\Tools\MSVC\14.29.30133\include\xstring
; File C:\Users\murat\Desktop\Siveps2-1-99-Project\source\client\Client\eterBase\filename.h
; File C:\Users\murat\Desktop\Siveps2-1-99-Project\source\client\Client\EterPack\EterPackManager.cpp
; File C:\Users\murat\Desktop\Siveps2-1-99-Project\source\client\Client\eterBase\filename.h
; File C:\Program Files (x86)\Microsoft Visual Studio\2019\Professional\VC\Tools\MSVC\14.29.30133\include\xstring
; File C:\Users\murat\Desktop\Siveps2-1-99-Project\source\client\Client\eterBase\filename.h
; File C:\Program Files (x86)\Microsoft Visual Studio\2019\Professional\VC\Tools\MSVC\14.29.30133\include\xstring
; File C:\Users\murat\Desktop\Siveps2-1-99-Project\source\client\Client\eterBase\filename.h
; File C:\Program Files (x86)\Microsoft Visual Studio\2019\Professional\VC\Tools\MSVC\14.29.30133\include\xstring
; File C:\Users\murat\Desktop\Siveps2-1-99-Project\source\client\Client\EterPack\EterPackManager.cpp
; File C:\Program Files (x86)\Microsoft Visual Studio\2019\Professional\VC\Tools\MSVC\14.29.30133\include\xstring
; File C:\Program Files (x86)\Microsoft Visual Studio\2019\Professional\VC\Tools\MSVC\14.29.30133\include\xmemory
; File C:\Program Files (x86)\Microsoft Visual Studio\2019\Professional\VC\Tools\MSVC\14.29.30133\include\xstring
; File C:\Users\murat\Desktop\Siveps2-1-99-Project\source\client\Client\eterBase\Stl.h
; File C:\Program Files (x86)\Microsoft Visual Studio\2019\Professional\VC\Tools\MSVC\14.29.30133\include\xstring
; File C:\Users\murat\Desktop\Siveps2-1-99-Project\source\client\Client\eterBase\Stl.h
; File C:\Users\murat\Desktop\Siveps2-1-99-Project\source\client\Client\EterPack\EterPackManager.cpp
; File C:\Program Files (x86)\Microsoft Visual Studio\2019\Professional\VC\Tools\MSVC\14.29.30133\include\xstring
; File C:\Users\murat\Desktop\Siveps2-1-99-Project\source\client\Client\EterPack\EterPackManager.cpp
; File C:\Program Files (x86)\Microsoft Visual Studio\2019\Professional\VC\Tools\MSVC\14.29.30133\include\xstring
; File C:\Program Files (x86)\Microsoft Visual Studio\2019\Professional\VC\Tools\MSVC\14.29.30133\include\xmemory
; File C:\Users\murat\Desktop\Siveps2-1-99-Project\source\client\extern\include\boost\unordered\detail\implementation.hpp
; File C:\Users\murat\Desktop\Siveps2-1-99-Project\source\client\Client\EterPack\EterPackManager.cpp
; File C:\Program Files (x86)\Microsoft Visual Studio\2019\Professional\VC\Tools\MSVC\14.29.30133\include\xstring
; File C:\Users\murat\Desktop\Siveps2-1-99-Project\source\client\Client\EterPack\EterPackManager.cpp
; File C:\Program Files (x86)\Microsoft Visual Studio\2019\Professional\VC\Tools\MSVC\14.29.30133\include\xstring
; File C:\Users\murat\Desktop\Siveps2-1-99-Project\source\client\Client\EterPack\EterPackManager.cpp
; File C:\Program Files (x86)\Microsoft Visual Studio\2019\Professional\VC\Tools\MSVC\14.29.30133\include\xstring
; File C:\Users\murat\Desktop\Siveps2-1-99-Project\source\client\Client\EterPack\EterPackManager.cpp
; File C:\Program Files (x86)\Microsoft Visual Studio\2019\Professional\VC\Tools\MSVC\14.29.30133\include\xstring
; File C:\Program Files (x86)\Microsoft Visual Studio\2019\Professional\VC\Tools\MSVC\14.29.30133\include\xmemory
; File C:\Program Files (x86)\Microsoft Visual Studio\2019\Professional\VC\Tools\MSVC\14.29.30133\include\xstring
; File C:\Program Files (x86)\Microsoft Visual Studio\2019\Professional\VC\Tools\MSVC\14.29.30133\include\xmemory
; File C:\Users\murat\Desktop\Siveps2-1-99-Project\source\client\Client\EterPack\EterPackManager.cpp
; File C:\Users\murat\Desktop\Siveps2-1-99-Project\source\client\Client\eterBase\filename.h
; File C:\Program Files (x86)\Microsoft Visual Studio\2019\Professional\VC\Tools\MSVC\14.29.30133\include\xmemory
; File C:\Users\murat\Desktop\Siveps2-1-99-Project\source\client\Client\EterPack\EterPackManager.cpp
;	COMDAT ?RetrieveHybridCryptPackKeys@CEterPackManager@@QAEXPBE@Z
_TEXT	SEGMENT
_iPackageCnt$1$ = -1140					; size = 4
_dwPackageNameHash$1$ = -1136				; size = 4
_pStream$GSCopy$1$ = -1132				; size = 4
_i$1$ = -1128						; size = 4
$T2 = -1124						; size = 4
_k$1$ = -1120						; size = 4
_iRecvedCryptKeySize$1$ = -1116				; size = 4
_this$1$ = -1112					; size = 4
_cit$1$ = -1108						; size = 4
$T3 = -1104						; size = 4
_iMemOffset$1$ = -1100					; size = 4
__Result$1$ = -1096					; size = 4
tv1319 = -1096						; size = 4
tv1317 = -1096						; size = 4
__Right_size$1$ = -1092					; size = 4
$T4 = -1088						; size = 24
_noPathName$5 = -1064					; size = 24
_szPath$6 = -1040					; size = 1024
__$ArrayPad$ = -16					; size = 4
__$EHRec$ = -12						; size = 12
_pStream$ = 8						; size = 4
?RetrieveHybridCryptPackKeys@CEterPackManager@@QAEXPBE@Z PROC ; CEterPackManager::RetrieveHybridCryptPackKeys, COMDAT
; _this$ = ecx

; 416  : {

  00000	55		 push	 ebp
  00001	8b ec		 mov	 ebp, esp
  00003	6a ff		 push	 -1
  00005	68 00 00 00 00	 push	 __ehhandler$?RetrieveHybridCryptPackKeys@CEterPackManager@@QAEXPBE@Z
  0000a	64 a1 00 00 00
	00		 mov	 eax, DWORD PTR fs:0
  00010	50		 push	 eax
  00011	81 ec 68 04 00
	00		 sub	 esp, 1128		; 00000468H
  00017	a1 00 00 00 00	 mov	 eax, DWORD PTR ___security_cookie
  0001c	33 c5		 xor	 eax, ebp
  0001e	89 45 f0	 mov	 DWORD PTR __$ArrayPad$[ebp], eax
  00021	56		 push	 esi
  00022	57		 push	 edi
  00023	50		 push	 eax
  00024	8d 45 f4	 lea	 eax, DWORD PTR __$EHRec$[ebp]
  00027	64 a3 00 00 00
	00		 mov	 DWORD PTR fs:0, eax
  0002d	8b d1		 mov	 edx, ecx
  0002f	89 95 a8 fb ff
	ff		 mov	 DWORD PTR _this$1$[ebp], edx
  00035	8b 4d 08	 mov	 ecx, DWORD PTR _pStream$[ebp]

; 417  : 	////dump file format
; 418  : 	//total packagecnt (4byte)
; 419  : 	//	for	packagecntpackage
; 420  : 	//		db name hash ( stl.h stringhash )
; 421  : 	//		extension cnt( 4byte)
; 422  : 	//		for	extension cnt
; 423  : 	//			ext hash ( stl.h stringhash )
; 424  : 	//			key-16byte
; 425  : 	//			iv-16byte
; 426  : 	int iMemOffset = 0;
; 427  : 
; 428  : 	int		iPackageCnt;
; 429  : 	DWORD	dwPackageNameHash;
; 430  : 
; 431  : 	memcpy( &iPackageCnt, pStream + iMemOffset, sizeof(int) );
; 432  : 	iMemOffset += sizeof(iPackageCnt);

  00038	b8 04 00 00 00	 mov	 eax, 4
  0003d	89 8d 94 fb ff
	ff		 mov	 DWORD PTR _pStream$GSCopy$1$[ebp], ecx
  00043	c7 85 9c fb ff
	ff 00 00 00 00	 mov	 DWORD PTR $T2[ebp], 0

; 433  : 
; 434  : 	for( int i = 0; i < iPackageCnt; ++i )

  0004d	c7 85 98 fb ff
	ff 00 00 00 00	 mov	 DWORD PTR _i$1$[ebp], 0
  00057	8b 31		 mov	 esi, DWORD PTR [ecx]
  00059	89 b5 8c fb ff
	ff		 mov	 DWORD PTR _iPackageCnt$1$[ebp], esi
  0005f	85 f6		 test	 esi, esi
  00061	0f 8e 0d 04 00
	00		 jle	 $LN268@RetrieveHy
  00067	66 0f 1f 84 00
	00 00 00 00	 npad	 9
$LL4@RetrieveHy:

; 435  : 	{
; 436  : 		int iRecvedCryptKeySize = 0;
; 437  : 		memcpy( &iRecvedCryptKeySize, pStream + iMemOffset, sizeof(iRecvedCryptKeySize) );
; 438  : 		iRecvedCryptKeySize -= sizeof(dwPackageNameHash); //   key stream filename hash  , hash   .

  00070	8b 34 01	 mov	 esi, DWORD PTR [ecx+eax]

; 441  : 		memcpy( &dwPackageNameHash, pStream + iMemOffset, sizeof(dwPackageNameHash) );

  00073	8b 4c 01 04	 mov	 ecx, DWORD PTR [ecx+eax+4]
  00077	83 ee 04	 sub	 esi, 4

; 442  : 		iMemOffset += sizeof(dwPackageNameHash);

  0007a	83 c0 08	 add	 eax, 8
  0007d	89 b5 a4 fb ff
	ff		 mov	 DWORD PTR _iRecvedCryptKeySize$1$[ebp], esi
; File C:\Users\murat\Desktop\Siveps2-1-99-Project\source\client\extern\include\boost\unordered\detail\implementation.hpp

; 3041 :           return size_ ? next_node(get_previous_start()) : node_pointer();

  00083	83 ba 20 14 00
	00 00		 cmp	 DWORD PTR [edx+5152], 0
; File C:\Users\murat\Desktop\Siveps2-1-99-Project\source\client\Client\EterPack\EterPackManager.cpp

; 441  : 		memcpy( &dwPackageNameHash, pStream + iMemOffset, sizeof(dwPackageNameHash) );

  0008a	89 8d 90 fb ff
	ff		 mov	 DWORD PTR _dwPackageNameHash$1$[ebp], ecx

; 442  : 		iMemOffset += sizeof(dwPackageNameHash);

  00090	89 85 b4 fb ff
	ff		 mov	 DWORD PTR _iMemOffset$1$[ebp], eax
; File C:\Users\murat\Desktop\Siveps2-1-99-Project\source\client\extern\include\boost\unordered\detail\implementation.hpp

; 3041 :           return size_ ? next_node(get_previous_start()) : node_pointer();

  00096	74 17		 je	 SHORT $LN19@RetrieveHy

; 3026 :           return buckets_ + static_cast<std::ptrdiff_t>(bucket_index);

  00098	8b 82 1c 14 00
	00		 mov	 eax, DWORD PTR [edx+5148]

; 3041 :           return size_ ? next_node(get_previous_start()) : node_pointer();

  0009e	8b b2 2c 14 00
	00		 mov	 esi, DWORD PTR [edx+5164]
  000a4	8b 34 86	 mov	 esi, DWORD PTR [esi+eax*4]
  000a7	8b 85 b4 fb ff
	ff		 mov	 eax, DWORD PTR _iMemOffset$1$[ebp]
  000ad	eb 02		 jmp	 SHORT $LN278@RetrieveHy
$LN19@RetrieveHy:
  000af	33 f6		 xor	 esi, esi
$LN278@RetrieveHy:
; File C:\Users\murat\Desktop\Siveps2-1-99-Project\source\client\Client\EterPack\EterPackManager.cpp

; 445  : 		for( cit = m_PackMap.begin(); cit != m_PackMap.end(); ++cit )

  000b1	89 b5 ac fb ff
	ff		 mov	 DWORD PTR _cit$1$[ebp], esi
  000b7	85 f6		 test	 esi, esi
  000b9	0f 84 f1 02 00
	00		 je	 $LN275@RetrieveHy
  000bf	90		 npad	 1
$LL7@RetrieveHy:
; File C:\Program Files (x86)\Microsoft Visual Studio\2019\Professional\VC\Tools\MSVC\14.29.30133\include\xstring

; 2306 :         if (_Large_string_engaged()) {

  000c0	83 7e 1c 10	 cmp	 DWORD PTR [esi+28], 16	; 00000010H
; File C:\Users\murat\Desktop\Siveps2-1-99-Project\source\client\extern\include\boost\unordered\detail\implementation.hpp

; 2435 :         value_type const* operator->() const { return node_->value_ptr(); }

  000c4	8d 46 08	 lea	 eax, DWORD PTR [esi+8]
; File C:\Program Files (x86)\Microsoft Visual Studio\2019\Professional\VC\Tools\MSVC\14.29.30133\include\xstring

; 2921 :         const size_type _Right_size   = _Right_data._Mysize;

  000c7	8b 78 10	 mov	 edi, DWORD PTR [eax+16]
; File C:\Users\murat\Desktop\Siveps2-1-99-Project\source\client\extern\include\boost\unordered\detail\implementation.hpp

; 2435 :         value_type const* operator->() const { return node_->value_ptr(); }

  000ca	89 85 b8 fb ff
	ff		 mov	 DWORD PTR __Result$1$[ebp], eax
; File C:\Program Files (x86)\Microsoft Visual Studio\2019\Professional\VC\Tools\MSVC\14.29.30133\include\xstring

; 2921 :         const size_type _Right_size   = _Right_data._Mysize;

  000d0	89 bd bc fb ff
	ff		 mov	 DWORD PTR __Right_size$1$[ebp], edi

; 2306 :         if (_Large_string_engaged()) {

  000d6	72 08		 jb	 SHORT $LN55@RetrieveHy

; 2307 :             _Result = _Unfancy(_Bx._Ptr);

  000d8	8b 00		 mov	 eax, DWORD PTR [eax]
  000da	89 85 b8 fb ff
	ff		 mov	 DWORD PTR __Result$1$[ebp], eax
$LN55@RetrieveHy:

; 2933 :         if (_Stay_small) { // stay small, don't allocate

  000e0	83 ff 10	 cmp	 edi, 16			; 00000010H
  000e3	73 29		 jae	 SHORT $LN52@RetrieveHy

; 65   :         _CSTD memcpy(_First1, _First2, _Count * sizeof(_Elem));

  000e5	0f 10 00	 movups	 xmm0, XMMWORD PTR [eax]

; 2937 :             return;

  000e8	8b 85 bc fb ff
	ff		 mov	 eax, DWORD PTR __Right_size$1$[ebp]
  000ee	ba 0f 00 00 00	 mov	 edx, 15			; 0000000fH
  000f3	89 bd d0 fb ff
	ff		 mov	 DWORD PTR $T4[ebp+16], edi

; 65   :         _CSTD memcpy(_First1, _First2, _Count * sizeof(_Elem));

  000f9	0f 11 85 c0 fb
	ff ff		 movups	 XMMWORD PTR $T4[ebp], xmm0

; 2937 :             return;

  00100	8b bd c0 fb ff
	ff		 mov	 edi, DWORD PTR $T4[ebp]
  00106	89 95 b0 fb ff
	ff		 mov	 DWORD PTR $T3[ebp], edx
  0010c	eb 6f		 jmp	 SHORT $LN279@RetrieveHy
$LN52@RetrieveHy:

; 2938 :         }
; 2939 : 
; 2940 :         auto& _Al                     = _Getal();
; 2941 :         const size_type _New_capacity = (_STD min)(_Right_size | _ALLOC_MASK, max_size());

  0010e	8b c7		 mov	 eax, edi
  00110	b9 ff ff ff 7f	 mov	 ecx, 2147483647		; 7fffffffH
  00115	83 c8 0f	 or	 eax, 15			; 0000000fH
  00118	3d ff ff ff 7f	 cmp	 eax, 2147483647		; 7fffffffH
  0011d	0f 47 c1	 cmova	 eax, ecx
  00120	89 85 b0 fb ff
	ff		 mov	 DWORD PTR $T3[ebp], eax

; 2942 :         const pointer _New_array      = _Al.allocate(_New_capacity + 1); // throws

  00126	40		 inc	 eax
; File C:\Program Files (x86)\Microsoft Visual Studio\2019\Professional\VC\Tools\MSVC\14.29.30133\include\xmemory

; 237  :         if (_Bytes >= _Big_allocation_threshold) { // boost the alignment of big allocations to help autovectorization

  00127	3d 00 10 00 00	 cmp	 eax, 4096		; 00001000H
  0012c	72 0d		 jb	 SHORT $LN66@RetrieveHy

; 238  :             return _Allocate_manually_vector_aligned<_Traits>(_Bytes);

  0012e	50		 push	 eax
  0012f	e8 00 00 00 00	 call	 ??$_Allocate_manually_vector_aligned@U_Default_allocate_traits@std@@@std@@YAPAXI@Z ; std::_Allocate_manually_vector_aligned<std::_Default_allocate_traits>
  00134	83 c4 04	 add	 esp, 4
  00137	8b f8		 mov	 edi, eax
  00139	eb 13		 jmp	 SHORT $LN65@RetrieveHy
$LN66@RetrieveHy:

; 239  :         }
; 240  :     }
; 241  : #endif // defined(_M_IX86) || defined(_M_X64)
; 242  : 
; 243  :     if (_Bytes != 0) {

  0013b	85 c0		 test	 eax, eax
  0013d	74 0d		 je	 SHORT $LN67@RetrieveHy

; 85   :         return ::operator new(_Bytes);

  0013f	50		 push	 eax
  00140	e8 00 00 00 00	 call	 ??2@YAPAXI@Z		; operator new
  00145	83 c4 04	 add	 esp, 4

; 244  :         return _Traits::_Allocate(_Bytes);

  00148	8b f8		 mov	 edi, eax
  0014a	eb 02		 jmp	 SHORT $LN65@RetrieveHy
$LN67@RetrieveHy:

; 245  :     }
; 246  : 
; 247  :     return nullptr;

  0014c	33 ff		 xor	 edi, edi
$LN65@RetrieveHy:
; File C:\Program Files (x86)\Microsoft Visual Studio\2019\Professional\VC\Tools\MSVC\14.29.30133\include\xstring

; 2950 :         _Traits::copy(_Unfancy(_New_array), _Right_ptr, _Right_size + 1);

  0014e	8b 85 bc fb ff
	ff		 mov	 eax, DWORD PTR __Right_size$1$[ebp]
  00154	40		 inc	 eax
  00155	89 bd c0 fb ff
	ff		 mov	 DWORD PTR $T4[ebp], edi

; 65   :         _CSTD memcpy(_First1, _First2, _Count * sizeof(_Elem));

  0015b	50		 push	 eax
  0015c	ff b5 b8 fb ff
	ff		 push	 DWORD PTR __Result$1$[ebp]
  00162	57		 push	 edi
  00163	e8 00 00 00 00	 call	 _memcpy

; 2951 :         _My_data._Mysize = _Right_size;

  00168	8b 85 bc fb ff
	ff		 mov	 eax, DWORD PTR __Right_size$1$[ebp]

; 65   :         _CSTD memcpy(_First1, _First2, _Count * sizeof(_Elem));

  0016e	83 c4 0c	 add	 esp, 12			; 0000000cH

; 2952 :         _My_data._Myres  = _New_capacity;

  00171	8b 95 b0 fb ff
	ff		 mov	 edx, DWORD PTR $T3[ebp]
  00177	89 85 d0 fb ff
	ff		 mov	 DWORD PTR $T4[ebp+16], eax
$LN279@RetrieveHy:
; File C:\Users\murat\Desktop\Siveps2-1-99-Project\source\client\Client\EterPack\EterPackManager.cpp

; 447  : 			std::string noPathName = CFileNameHelper::NoPath(string(cit->first));

  0017d	89 95 d4 fb ff
	ff		 mov	 DWORD PTR $T4[ebp+20], edx
  00183	c7 45 fc 00 00
	00 00		 mov	 DWORD PTR __$EHRec$[ebp+8], 0
; File C:\Users\murat\Desktop\Siveps2-1-99-Project\source\client\Client\eterBase\filename.h

; 348  : 	szPath[0] = '\0';

  0018a	c6 85 f0 fb ff
	ff 00		 mov	 BYTE PTR _szPath$6[ebp], 0

; 349  : 
; 350  : 	size_t nLength = str.length();
; 351  : 
; 352  : 	if (nLength > 0)

  00191	85 c0		 test	 eax, eax
  00193	0f 84 eb 00 00
	00		 je	 $LN75@RetrieveHy
; File C:\Program Files (x86)\Microsoft Visual Studio\2019\Professional\VC\Tools\MSVC\14.29.30133\include\xstring

; 2306 :         if (_Large_string_engaged()) {

  00199	83 fa 10	 cmp	 edx, 16			; 00000010H
  0019c	8d 8d c0 fb ff
	ff		 lea	 ecx, DWORD PTR $T4[ebp]

; 2308 :         }
; 2309 : 
; 2310 :         return _Result;

  001a2	8d 85 f0 fb ff
	ff		 lea	 eax, DWORD PTR _szPath$6[ebp]
  001a8	0f 43 cf	 cmovae	 ecx, edi
  001ab	2b c1		 sub	 eax, ecx
  001ad	89 85 b8 fb ff
	ff		 mov	 DWORD PTR tv1317[ebp], eax
  001b3	8b d0		 mov	 edx, eax
$LL87@RetrieveHy:
; File C:\Users\murat\Desktop\Siveps2-1-99-Project\source\client\Client\eterBase\filename.h

; 354  : 		strcpy(szPath, str.c_str());

  001b5	8a 01		 mov	 al, BYTE PTR [ecx]
  001b7	8d 49 01	 lea	 ecx, DWORD PTR [ecx+1]
  001ba	88 44 0a ff	 mov	 BYTE PTR [edx+ecx-1], al
  001be	84 c0		 test	 al, al
  001c0	75 f3		 jne	 SHORT $LL87@RetrieveHy

; 355  : 
; 356  : 		for (size_t i = nLength - 1; i > 0; i--)

  001c2	8b 85 bc fb ff
	ff		 mov	 eax, DWORD PTR __Right_size$1$[ebp]
  001c8	8b 95 b0 fb ff
	ff		 mov	 edx, DWORD PTR $T3[ebp]
  001ce	83 c0 ff	 add	 eax, -1
  001d1	0f 84 ad 00 00
	00		 je	 $LN75@RetrieveHy
  001d7	66 0f 1f 84 00
	00 00 00 00	 npad	 9
$LL76@RetrieveHy:
; File C:\Program Files (x86)\Microsoft Visual Studio\2019\Professional\VC\Tools\MSVC\14.29.30133\include\xstring

; 2297 :         if (_Large_string_engaged()) {

  001e0	83 fa 10	 cmp	 edx, 16			; 00000010H
  001e3	8d 8d c0 fb ff
	ff		 lea	 ecx, DWORD PTR $T4[ebp]
  001e9	0f 43 cf	 cmovae	 ecx, edi
; File C:\Users\murat\Desktop\Siveps2-1-99-Project\source\client\Client\eterBase\filename.h

; 358  : 			if (str[i] == '/' || str[i] == '\\')

  001ec	80 3c 01 2f	 cmp	 BYTE PTR [ecx+eax], 47	; 0000002fH
  001f0	74 1d		 je	 SHORT $LN82@RetrieveHy
; File C:\Program Files (x86)\Microsoft Visual Studio\2019\Professional\VC\Tools\MSVC\14.29.30133\include\xstring

; 2297 :         if (_Large_string_engaged()) {

  001f2	83 fa 10	 cmp	 edx, 16			; 00000010H
  001f5	8d 8d c0 fb ff
	ff		 lea	 ecx, DWORD PTR $T4[ebp]
  001fb	0f 43 cf	 cmovae	 ecx, edi
; File C:\Users\murat\Desktop\Siveps2-1-99-Project\source\client\Client\eterBase\filename.h

; 358  : 			if (str[i] == '/' || str[i] == '\\')

  001fe	80 3c 01 5c	 cmp	 BYTE PTR [ecx+eax], 92	; 0000005cH
  00202	74 0b		 je	 SHORT $LN82@RetrieveHy

; 364  : 				break;
; 365  : 			}
; 366  : 
; 367  : 			if (0 == i)

  00204	85 c0		 test	 eax, eax
  00206	74 7c		 je	 SHORT $LN75@RetrieveHy

; 355  : 
; 356  : 		for (size_t i = nLength - 1; i > 0; i--)

  00208	83 e8 01	 sub	 eax, 1
  0020b	75 d3		 jne	 SHORT $LL76@RetrieveHy
; File C:\Users\murat\Desktop\Siveps2-1-99-Project\source\client\Client\EterPack\EterPackManager.cpp

; 448  : 			if( dwPackageNameHash == stringhash().GetHash(noPathName) )

  0020d	eb 75		 jmp	 SHORT $LN75@RetrieveHy
$LN82@RetrieveHy:
; File C:\Users\murat\Desktop\Siveps2-1-99-Project\source\client\Client\eterBase\filename.h

; 361  : 				for (size_t j = i + 1; j < nLength; j++, k++)

  0020f	8d 48 01	 lea	 ecx, DWORD PTR [eax+1]
  00212	8b 85 bc fb ff
	ff		 mov	 eax, DWORD PTR __Right_size$1$[ebp]
  00218	3b c8		 cmp	 ecx, eax
  0021a	73 5e		 jae	 SHORT $LN273@RetrieveHy
  0021c	8d b5 f0 fb ff
	ff		 lea	 esi, DWORD PTR _szPath$6[ebp]
  00222	2b f1		 sub	 esi, ecx
  00224	2b c1		 sub	 eax, ecx
  00226	89 b5 b8 fb ff
	ff		 mov	 DWORD PTR tv1319[ebp], esi
  0022c	89 85 a0 fb ff
	ff		 mov	 DWORD PTR _k$1$[ebp], eax
  00232	0f 1f 40 00 66
	66 0f 1f 84 00
	00 00 00 00	 npad	 14
$LL79@RetrieveHy:

; 362  : 					szPath[k] = str[j];

  00240	8b b5 b8 fb ff
	ff		 mov	 esi, DWORD PTR tv1319[ebp]
; File C:\Program Files (x86)\Microsoft Visual Studio\2019\Professional\VC\Tools\MSVC\14.29.30133\include\xstring

; 2296 :         value_type* _Result = _Bx._Buf;

  00246	8d 85 c0 fb ff
	ff		 lea	 eax, DWORD PTR $T4[ebp]

; 2297 :         if (_Large_string_engaged()) {

  0024c	83 fa 10	 cmp	 edx, 16			; 00000010H
  0024f	0f 43 c7	 cmovae	 eax, edi
; File C:\Users\murat\Desktop\Siveps2-1-99-Project\source\client\Client\eterBase\filename.h

; 362  : 					szPath[k] = str[j];

  00252	8a 04 08	 mov	 al, BYTE PTR [eax+ecx]
  00255	88 04 0e	 mov	 BYTE PTR [esi+ecx], al
  00258	41		 inc	 ecx
  00259	3b 8d bc fb ff
	ff		 cmp	 ecx, DWORD PTR __Right_size$1$[ebp]
  0025f	72 df		 jb	 SHORT $LL79@RetrieveHy

; 363  : 				szPath[k] = '\0';

  00261	8b 85 a0 fb ff
	ff		 mov	 eax, DWORD PTR _k$1$[ebp]
  00267	8b b5 ac fb ff
	ff		 mov	 esi, DWORD PTR _cit$1$[ebp]
  0026d	3d 00 04 00 00	 cmp	 eax, 1024		; 00000400H
  00272	0f 83 19 02 00
	00		 jae	 $LN88@RetrieveHy
  00278	eb 02		 jmp	 SHORT $LN266@RetrieveHy
$LN273@RetrieveHy:

; 361  : 				for (size_t j = i + 1; j < nLength; j++, k++)

  0027a	33 c0		 xor	 eax, eax
$LN266@RetrieveHy:

; 363  : 				szPath[k] = '\0';

  0027c	c6 84 05 f0 fb
	ff ff 00	 mov	 BYTE PTR _szPath$6[ebp+eax], 0
$LN75@RetrieveHy:
; File C:\Program Files (x86)\Microsoft Visual Studio\2019\Professional\VC\Tools\MSVC\14.29.30133\include\xstring

; 412  :         return _CSTD strlen(reinterpret_cast<const char*>(_First));

  00284	8d 8d f0 fb ff
	ff		 lea	 ecx, DWORD PTR _szPath$6[ebp]

; 2346 :         _CONSTEXPR20_CONTAINER _Bxty() noexcept : _Ptr() {} // user-provided, for fancy pointers

  0028a	c7 85 d8 fb ff
	ff 00 00 00 00	 mov	 DWORD PTR _noPathName$5[ebp], 0

; 4596 :         _My_data._Mysize = 0;

  00294	c7 85 e8 fb ff
	ff 00 00 00 00	 mov	 DWORD PTR _noPathName$5[ebp+16], 0

; 412  :         return _CSTD strlen(reinterpret_cast<const char*>(_First));

  0029e	8d 51 01	 lea	 edx, DWORD PTR [ecx+1]

; 4610 :             _My_data._Myres = _BUF_SIZE - 1;

  002a1	c7 85 ec fb ff
	ff 0f 00 00 00	 mov	 DWORD PTR _noPathName$5[ebp+20], 15 ; 0000000fH

; 4611 :             // the _Traits::assign is last so the codegen doesn't think the char write can alias this
; 4612 :             _Traits::assign(_My_data._Bx._Buf[0], _Elem());

  002ab	c6 85 d8 fb ff
	ff 00		 mov	 BYTE PTR _noPathName$5[ebp], 0
$LL270@RetrieveHy:

; 412  :         return _CSTD strlen(reinterpret_cast<const char*>(_First));

  002b2	8a 01		 mov	 al, BYTE PTR [ecx]
  002b4	41		 inc	 ecx
  002b5	84 c0		 test	 al, al
  002b7	75 f9		 jne	 SHORT $LL270@RetrieveHy
  002b9	2b ca		 sub	 ecx, edx

; 3264 :         return assign(_Ptr, _Convert_size<size_type>(_Traits::length(_Ptr)));

  002bb	8d 85 f0 fb ff
	ff		 lea	 eax, DWORD PTR _szPath$6[ebp]
  002c1	51		 push	 ecx
  002c2	50		 push	 eax
  002c3	8d 8d d8 fb ff
	ff		 lea	 ecx, DWORD PTR _noPathName$5[ebp]
  002c9	e8 00 00 00 00	 call	 ?assign@?$basic_string@DU?$char_traits@D@std@@V?$allocator@D@2@@std@@QAEAAV12@QBDI@Z ; std::basic_string<char,std::char_traits<char>,std::allocator<char> >::assign
; File C:\Users\murat\Desktop\Siveps2-1-99-Project\source\client\Client\eterBase\filename.h

; 372  : 	return szPath;

  002ce	83 8d 9c fb ff
	ff 01		 or	 DWORD PTR $T2[ebp], 1
; File C:\Program Files (x86)\Microsoft Visual Studio\2019\Professional\VC\Tools\MSVC\14.29.30133\include\xstring

; 4618 :         if (_Mypair._Myval2._Large_string_engaged()) {

  002d5	8b 85 b0 fb ff
	ff		 mov	 eax, DWORD PTR $T3[ebp]
; File C:\Users\murat\Desktop\Siveps2-1-99-Project\source\client\Client\EterPack\EterPackManager.cpp

; 447  : 			std::string noPathName = CFileNameHelper::NoPath(string(cit->first));

  002db	c6 45 fc 02	 mov	 BYTE PTR __$EHRec$[ebp+8], 2
; File C:\Program Files (x86)\Microsoft Visual Studio\2019\Professional\VC\Tools\MSVC\14.29.30133\include\xstring

; 4618 :         if (_Mypair._Myval2._Large_string_engaged()) {

  002df	83 f8 10	 cmp	 eax, 16			; 00000010H
  002e2	72 2b		 jb	 SHORT $LN149@RetrieveHy

; 4622 :             _Al.deallocate(_Ptr, _Mypair._Myval2._Myres + 1);

  002e4	8d 48 01	 lea	 ecx, DWORD PTR [eax+1]
; File C:\Program Files (x86)\Microsoft Visual Studio\2019\Professional\VC\Tools\MSVC\14.29.30133\include\xmemory

; 835  :         _Deallocate<_New_alignof<_Ty>>(_Ptr, sizeof(_Ty) * _Count);

  002e7	8b c7		 mov	 eax, edi

; 260  :         if (_Bytes >= _Big_allocation_threshold) { // boost the alignment of big allocations to help autovectorization

  002e9	81 f9 00 10 00
	00		 cmp	 ecx, 4096		; 00001000H
  002ef	72 14		 jb	 SHORT $LN159@RetrieveHy

; 158  :     const uintptr_t _Ptr_container   = _Ptr_user[-1];

  002f1	8b 7f fc	 mov	 edi, DWORD PTR [edi-4]
  002f4	83 c1 23	 add	 ecx, 35			; 00000023H
  002f7	2b c7		 sub	 eax, edi

; 172  :     _STL_VERIFY(_Back_shift >= _Min_back_shift && _Back_shift <= _Non_user_size, "invalid argument");

  002f9	83 c0 fc	 add	 eax, -4			; fffffffcH
  002fc	83 f8 1f	 cmp	 eax, 31			; 0000001fH
  002ff	0f 87 91 01 00
	00		 ja	 $LN230@RetrieveHy
$LN159@RetrieveHy:

; 264  :         ::operator delete(_Ptr, _Bytes);

  00305	51		 push	 ecx
  00306	57		 push	 edi
  00307	e8 00 00 00 00	 call	 ??3@YAXPAXI@Z		; operator delete
  0030c	83 c4 08	 add	 esp, 8
$LN149@RetrieveHy:
; File C:\Program Files (x86)\Microsoft Visual Studio\2019\Professional\VC\Tools\MSVC\14.29.30133\include\xstring

; 2306 :         if (_Large_string_engaged()) {

  0030f	83 bd ec fb ff
	ff 10		 cmp	 DWORD PTR _noPathName$5[ebp+20], 16 ; 00000010H
  00316	8d 8d d8 fb ff
	ff		 lea	 ecx, DWORD PTR _noPathName$5[ebp]
  0031c	8b bd d8 fb ff
	ff		 mov	 edi, DWORD PTR _noPathName$5[ebp]
; File C:\Users\murat\Desktop\Siveps2-1-99-Project\source\client\Client\eterBase\Stl.h

; 478  :        const unsigned char * end = s + str.size();

  00322	8b 85 e8 fb ff
	ff		 mov	 eax, DWORD PTR _noPathName$5[ebp+16]
; File C:\Program Files (x86)\Microsoft Visual Studio\2019\Professional\VC\Tools\MSVC\14.29.30133\include\xstring

; 2306 :         if (_Large_string_engaged()) {

  00328	0f 43 cf	 cmovae	 ecx, edi
; File C:\Users\murat\Desktop\Siveps2-1-99-Project\source\client\Client\eterBase\Stl.h

; 478  :        const unsigned char * end = s + str.size();

  0032b	03 c1		 add	 eax, ecx

; 479  :        size_t h = 0;

  0032d	33 d2		 xor	 edx, edx

; 480  : 
; 481  :        while (s < end)

  0032f	3b c8		 cmp	 ecx, eax
  00331	73 18		 jae	 SHORT $LN166@RetrieveHy
  00333	8b f0		 mov	 esi, eax
$LL252@RetrieveHy:

; 482  :        {
; 483  :            h *= 16777619;
; 484  :            h ^= (unsigned char) *(unsigned char *) (s++);

  00335	0f b6 01	 movzx	 eax, BYTE PTR [ecx]
  00338	41		 inc	 ecx
  00339	69 d2 93 01 00
	01		 imul	 edx, edx, 16777619
  0033f	33 d0		 xor	 edx, eax
  00341	3b ce		 cmp	 ecx, esi
  00343	72 f0		 jb	 SHORT $LL252@RetrieveHy
  00345	8b b5 ac fb ff
	ff		 mov	 esi, DWORD PTR _cit$1$[ebp]
$LN166@RetrieveHy:
; File C:\Users\murat\Desktop\Siveps2-1-99-Project\source\client\Client\EterPack\EterPackManager.cpp

; 448  : 			if( dwPackageNameHash == stringhash().GetHash(noPathName) )

  0034b	39 95 90 fb ff
	ff		 cmp	 DWORD PTR _dwPackageNameHash$1$[ebp], edx
  00351	0f 84 85 00 00
	00		 je	 $LN246@RetrieveHy
; File C:\Program Files (x86)\Microsoft Visual Studio\2019\Professional\VC\Tools\MSVC\14.29.30133\include\xstring

; 2319 :         return _BUF_SIZE <= _Myres;

  00357	8b 85 ec fb ff
	ff		 mov	 eax, DWORD PTR _noPathName$5[ebp+20]
; File C:\Users\murat\Desktop\Siveps2-1-99-Project\source\client\Client\EterPack\EterPackManager.cpp

; 458  : 		}

  0035d	c7 45 fc ff ff
	ff ff		 mov	 DWORD PTR __$EHRec$[ebp+8], -1
; File C:\Program Files (x86)\Microsoft Visual Studio\2019\Professional\VC\Tools\MSVC\14.29.30133\include\xstring

; 2319 :         return _BUF_SIZE <= _Myres;

  00364	83 f8 10	 cmp	 eax, 16			; 00000010H

; 4618 :         if (_Mypair._Myval2._Large_string_engaged()) {

  00367	72 2b		 jb	 SHORT $LN223@RetrieveHy

; 4622 :             _Al.deallocate(_Ptr, _Mypair._Myval2._Myres + 1);

  00369	8d 48 01	 lea	 ecx, DWORD PTR [eax+1]
; File C:\Program Files (x86)\Microsoft Visual Studio\2019\Professional\VC\Tools\MSVC\14.29.30133\include\xmemory

; 835  :         _Deallocate<_New_alignof<_Ty>>(_Ptr, sizeof(_Ty) * _Count);

  0036c	8b c7		 mov	 eax, edi

; 260  :         if (_Bytes >= _Big_allocation_threshold) { // boost the alignment of big allocations to help autovectorization

  0036e	81 f9 00 10 00
	00		 cmp	 ecx, 4096		; 00001000H
  00374	72 14		 jb	 SHORT $LN233@RetrieveHy

; 158  :     const uintptr_t _Ptr_container   = _Ptr_user[-1];

  00376	8b 7f fc	 mov	 edi, DWORD PTR [edi-4]
  00379	83 c1 23	 add	 ecx, 35			; 00000023H
  0037c	2b c7		 sub	 eax, edi

; 172  :     _STL_VERIFY(_Back_shift >= _Min_back_shift && _Back_shift <= _Non_user_size, "invalid argument");

  0037e	83 c0 fc	 add	 eax, -4			; fffffffcH
  00381	83 f8 1f	 cmp	 eax, 31			; 0000001fH
  00384	0f 87 0c 01 00
	00		 ja	 $LN230@RetrieveHy
$LN233@RetrieveHy:

; 264  :         ::operator delete(_Ptr, _Bytes);

  0038a	51		 push	 ecx
  0038b	57		 push	 edi
  0038c	e8 00 00 00 00	 call	 ??3@YAXPAXI@Z		; operator delete
  00391	83 c4 08	 add	 esp, 8
$LN223@RetrieveHy:
; File C:\Users\murat\Desktop\Siveps2-1-99-Project\source\client\extern\include\boost\unordered\detail\implementation.hpp

; 2439 :           node_ = static_cast<node_pointer>(node_->next_);

  00394	8b 36		 mov	 esi, DWORD PTR [esi]
  00396	89 b5 ac fb ff
	ff		 mov	 DWORD PTR _cit$1$[ebp], esi

; 2459 :           return x.node_ != y.node_;

  0039c	85 f6		 test	 esi, esi
; File C:\Users\murat\Desktop\Siveps2-1-99-Project\source\client\Client\EterPack\EterPackManager.cpp

; 445  : 		for( cit = m_PackMap.begin(); cit != m_PackMap.end(); ++cit )

  0039e	0f 85 1c fd ff
	ff		 jne	 $LL7@RetrieveHy

; 448  : 			if( dwPackageNameHash == stringhash().GetHash(noPathName) )

  003a4	8b 85 b4 fb ff
	ff		 mov	 eax, DWORD PTR _iMemOffset$1$[ebp]
  003aa	8b 95 a8 fb ff
	ff		 mov	 edx, DWORD PTR _this$1$[ebp]
$LN275@RetrieveHy:

; 459  : 		iMemOffset += iRecvedCryptKeySize;

  003b0	8b b5 a4 fb ff
	ff		 mov	 esi, DWORD PTR _iRecvedCryptKeySize$1$[ebp]
$LN196@RetrieveHy:

; 433  : 
; 434  : 	for( int i = 0; i < iPackageCnt; ++i )

  003b6	8b 8d 98 fb ff
	ff		 mov	 ecx, DWORD PTR _i$1$[ebp]

; 459  : 		iMemOffset += iRecvedCryptKeySize;

  003bc	03 c6		 add	 eax, esi
  003be	41		 inc	 ecx
  003bf	89 8d 98 fb ff
	ff		 mov	 DWORD PTR _i$1$[ebp], ecx
  003c5	3b 8d 8c fb ff
	ff		 cmp	 ecx, DWORD PTR _iPackageCnt$1$[ebp]
  003cb	0f 8d a3 00 00
	00		 jge	 $LN268@RetrieveHy

; 433  : 
; 434  : 	for( int i = 0; i < iPackageCnt; ++i )

  003d1	8b 8d 94 fb ff
	ff		 mov	 ecx, DWORD PTR _pStream$GSCopy$1$[ebp]
  003d7	e9 94 fc ff ff	 jmp	 $LL4@RetrieveHy
$LN246@RetrieveHy:

; 449  : 			{
; 450  : 				EterPackPolicy_CSHybridCrypt* pCryptPolicy = cit->second->GetPackPolicy_HybridCrypt();

  003dc	8b 4e 20	 mov	 ecx, DWORD PTR [esi+32]
  003df	e8 00 00 00 00	 call	 ?GetPackPolicy_HybridCrypt@CEterPack@@QBEPAVEterPackPolicy_CSHybridCrypt@@XZ ; CEterPack::GetPackPolicy_HybridCrypt

; 451  : 				int iHavedCryptKeySize = pCryptPolicy->ReadCryptKeyInfoFromStream( pStream + iMemOffset );

  003e4	8b 8d b4 fb ff
	ff		 mov	 ecx, DWORD PTR _iMemOffset$1$[ebp]
  003ea	03 8d 94 fb ff
	ff		 add	 ecx, DWORD PTR _pStream$GSCopy$1$[ebp]
  003f0	51		 push	 ecx
  003f1	8b c8		 mov	 ecx, eax
  003f3	e8 00 00 00 00	 call	 ?ReadCryptKeyInfoFromStream@EterPackPolicy_CSHybridCrypt@@QAEHPBE@Z ; EterPackPolicy_CSHybridCrypt::ReadCryptKeyInfoFromStream

; 452  : 				if (iRecvedCryptKeySize != iHavedCryptKeySize)

  003f8	8b b5 a4 fb ff
	ff		 mov	 esi, DWORD PTR _iRecvedCryptKeySize$1$[ebp]
  003fe	3b f0		 cmp	 esi, eax
  00400	74 24		 je	 SHORT $LN9@RetrieveHy
; File C:\Program Files (x86)\Microsoft Visual Studio\2019\Professional\VC\Tools\MSVC\14.29.30133\include\xstring

; 2306 :         if (_Large_string_engaged()) {

  00402	83 bd ec fb ff
	ff 10		 cmp	 DWORD PTR _noPathName$5[ebp+20], 16 ; 00000010H
  00409	8d 8d d8 fb ff
	ff		 lea	 ecx, DWORD PTR _noPathName$5[ebp]
; File C:\Users\murat\Desktop\Siveps2-1-99-Project\source\client\Client\EterPack\EterPackManager.cpp

; 454  : 					TraceError("CEterPackManager::RetrieveHybridCryptPackKeys	cryptokey length of file(%s) is not matched. received(%d) != haved(%d)", noPathName.c_str(), iRecvedCryptKeySize, iHavedCryptKeySize);

  0040f	50		 push	 eax
; File C:\Program Files (x86)\Microsoft Visual Studio\2019\Professional\VC\Tools\MSVC\14.29.30133\include\xstring

; 2306 :         if (_Large_string_engaged()) {

  00410	0f 43 8d d8 fb
	ff ff		 cmovae	 ecx, DWORD PTR _noPathName$5[ebp]
; File C:\Users\murat\Desktop\Siveps2-1-99-Project\source\client\Client\EterPack\EterPackManager.cpp

; 454  : 					TraceError("CEterPackManager::RetrieveHybridCryptPackKeys	cryptokey length of file(%s) is not matched. received(%d) != haved(%d)", noPathName.c_str(), iRecvedCryptKeySize, iHavedCryptKeySize);

  00417	56		 push	 esi
  00418	51		 push	 ecx
  00419	68 00 00 00 00	 push	 OFFSET ??_C@_0HF@OJFMMEDP@CEterPackManager?3?3RetrieveHybri@
  0041e	e8 00 00 00 00	 call	 ?TraceError@@YAXPBDZZ	; TraceError
  00423	83 c4 10	 add	 esp, 16			; 00000010H
$LN9@RetrieveHy:
; File C:\Program Files (x86)\Microsoft Visual Studio\2019\Professional\VC\Tools\MSVC\14.29.30133\include\xstring

; 2319 :         return _BUF_SIZE <= _Myres;

  00426	8b 95 ec fb ff
	ff		 mov	 edx, DWORD PTR _noPathName$5[ebp+20]
; File C:\Users\murat\Desktop\Siveps2-1-99-Project\source\client\Client\EterPack\EterPackManager.cpp

; 456  : 				break;

  0042c	c7 45 fc ff ff
	ff ff		 mov	 DWORD PTR __$EHRec$[ebp+8], -1
; File C:\Program Files (x86)\Microsoft Visual Studio\2019\Professional\VC\Tools\MSVC\14.29.30133\include\xstring

; 2319 :         return _BUF_SIZE <= _Myres;

  00433	83 fa 10	 cmp	 edx, 16			; 00000010H

; 4618 :         if (_Mypair._Myval2._Large_string_engaged()) {

  00436	72 2b		 jb	 SHORT $LN274@RetrieveHy
; File C:\Program Files (x86)\Microsoft Visual Studio\2019\Professional\VC\Tools\MSVC\14.29.30133\include\xmemory

; 835  :         _Deallocate<_New_alignof<_Ty>>(_Ptr, sizeof(_Ty) * _Count);

  00438	8b 8d d8 fb ff
	ff		 mov	 ecx, DWORD PTR _noPathName$5[ebp]
; File C:\Program Files (x86)\Microsoft Visual Studio\2019\Professional\VC\Tools\MSVC\14.29.30133\include\xstring

; 4622 :             _Al.deallocate(_Ptr, _Mypair._Myval2._Myres + 1);

  0043e	42		 inc	 edx
; File C:\Program Files (x86)\Microsoft Visual Studio\2019\Professional\VC\Tools\MSVC\14.29.30133\include\xmemory

; 835  :         _Deallocate<_New_alignof<_Ty>>(_Ptr, sizeof(_Ty) * _Count);

  0043f	8b c1		 mov	 eax, ecx

; 260  :         if (_Bytes >= _Big_allocation_threshold) { // boost the alignment of big allocations to help autovectorization

  00441	81 fa 00 10 00
	00		 cmp	 edx, 4096		; 00001000H
  00447	72 10		 jb	 SHORT $LN206@RetrieveHy

; 158  :     const uintptr_t _Ptr_container   = _Ptr_user[-1];

  00449	8b 49 fc	 mov	 ecx, DWORD PTR [ecx-4]
  0044c	83 c2 23	 add	 edx, 35			; 00000023H
  0044f	2b c1		 sub	 eax, ecx

; 172  :     _STL_VERIFY(_Back_shift >= _Min_back_shift && _Back_shift <= _Non_user_size, "invalid argument");

  00451	83 c0 fc	 add	 eax, -4			; fffffffcH
  00454	83 f8 1f	 cmp	 eax, 31			; 0000001fH
  00457	77 3d		 ja	 SHORT $LN230@RetrieveHy
$LN206@RetrieveHy:

; 264  :         ::operator delete(_Ptr, _Bytes);

  00459	52		 push	 edx
  0045a	51		 push	 ecx
  0045b	e8 00 00 00 00	 call	 ??3@YAXPAXI@Z		; operator delete
  00460	83 c4 08	 add	 esp, 8
$LN274@RetrieveHy:
; File C:\Users\murat\Desktop\Siveps2-1-99-Project\source\client\Client\EterPack\EterPackManager.cpp

; 459  : 		iMemOffset += iRecvedCryptKeySize;

  00463	8b 85 b4 fb ff
	ff		 mov	 eax, DWORD PTR _iMemOffset$1$[ebp]
  00469	8b 95 a8 fb ff
	ff		 mov	 edx, DWORD PTR _this$1$[ebp]
  0046f	e9 42 ff ff ff	 jmp	 $LN196@RetrieveHy
$LN268@RetrieveHy:

; 461  : }

  00474	8b 4d f4	 mov	 ecx, DWORD PTR __$EHRec$[ebp]
  00477	64 89 0d 00 00
	00 00		 mov	 DWORD PTR fs:0, ecx
  0047e	59		 pop	 ecx
  0047f	5f		 pop	 edi
  00480	5e		 pop	 esi
  00481	8b 4d f0	 mov	 ecx, DWORD PTR __$ArrayPad$[ebp]
  00484	33 cd		 xor	 ecx, ebp
  00486	e8 00 00 00 00	 call	 @__security_check_cookie@4
  0048b	8b e5		 mov	 esp, ebp
  0048d	5d		 pop	 ebp
  0048e	c2 04 00	 ret	 4
$LN88@RetrieveHy:
; File C:\Users\murat\Desktop\Siveps2-1-99-Project\source\client\Client\eterBase\filename.h

; 363  : 				szPath[k] = '\0';

  00491	e8 00 00 00 00	 call	 ___report_rangecheckfailure
$LN230@RetrieveHy:
; File C:\Program Files (x86)\Microsoft Visual Studio\2019\Professional\VC\Tools\MSVC\14.29.30133\include\xmemory

; 172  :     _STL_VERIFY(_Back_shift >= _Min_back_shift && _Back_shift <= _Non_user_size, "invalid argument");

  00496	e8 00 00 00 00	 call	 __invalid_parameter_noinfo_noreturn
$LN277@RetrieveHy:
  0049b	cc		 int	 3
_TEXT	ENDS
;	COMDAT text$x
text$x	SEGMENT
__unwindfunclet$?RetrieveHybridCryptPackKeys@CEterPackManager@@QAEXPBE@Z$0:
  00000	8d 8d c0 fb ff
	ff		 lea	 ecx, DWORD PTR $T4[ebp]
  00006	e9 00 00 00 00	 jmp	 ??1?$basic_string@DU?$char_traits@D@std@@V?$allocator@D@2@@std@@QAE@XZ ; std::basic_string<char,std::char_traits<char>,std::allocator<char> >::~basic_string<char,std::char_traits<char>,std::allocator<char> >
__unwindfunclet$?RetrieveHybridCryptPackKeys@CEterPackManager@@QAEXPBE@Z$1:
  0000b	8d 8d d8 fb ff
	ff		 lea	 ecx, DWORD PTR _noPathName$5[ebp]
  00011	e9 00 00 00 00	 jmp	 ??1?$basic_string@DU?$char_traits@D@std@@V?$allocator@D@2@@std@@QAE@XZ ; std::basic_string<char,std::char_traits<char>,std::allocator<char> >::~basic_string<char,std::char_traits<char>,std::allocator<char> >
  00016	cc		 int	 3
  00017	cc		 int	 3
  00018	cc		 int	 3
  00019	cc		 int	 3
  0001a	cc		 int	 3
__ehhandler$?RetrieveHybridCryptPackKeys@CEterPackManager@@QAEXPBE@Z:
  0001b	90		 npad	 1
  0001c	90		 npad	 1
  0001d	8b 54 24 08	 mov	 edx, DWORD PTR [esp+8]
  00021	8d 42 0c	 lea	 eax, DWORD PTR [edx+12]
  00024	8b 8a 8c fb ff
	ff		 mov	 ecx, DWORD PTR [edx-1140]
  0002a	33 c8		 xor	 ecx, eax
  0002c	e8 00 00 00 00	 call	 @__security_check_cookie@4
  00031	8b 4a fc	 mov	 ecx, DWORD PTR [edx-4]
  00034	33 c8		 xor	 ecx, eax
  00036	e8 00 00 00 00	 call	 @__security_check_cookie@4
  0003b	b8 00 00 00 00	 mov	 eax, OFFSET __ehfuncinfo$?RetrieveHybridCryptPackKeys@CEterPackManager@@QAEXPBE@Z
  00040	e9 00 00 00 00	 jmp	 ___CxxFrameHandler3
text$x	ENDS
?RetrieveHybridCryptPackKeys@CEterPackManager@@QAEXPBE@Z ENDP ; CEterPackManager::RetrieveHybridCryptPackKeys
; Function compile flags: /Ogtp
; File C:\Users\murat\Desktop\Siveps2-1-99-Project\source\client\Client\EterPack\EterPackManager.cpp
; File C:\Users\murat\Desktop\Siveps2-1-99-Project\source\client\extern\include\boost\unordered\detail\implementation.hpp
; File C:\Users\murat\Desktop\Siveps2-1-99-Project\source\client\Client\EterPack\EterPackManager.cpp
; File C:\Users\murat\Desktop\Siveps2-1-99-Project\source\client\extern\include\boost\unordered\detail\implementation.hpp
; File C:\Users\murat\Desktop\Siveps2-1-99-Project\source\client\Client\EterPack\EterPackManager.cpp
; File C:\Program Files (x86)\Microsoft Visual Studio\2019\Professional\VC\Tools\MSVC\14.29.30133\include\xstring
; File C:\Users\murat\Desktop\Siveps2-1-99-Project\source\client\Client\EterPack\EterPackManager.cpp
; File C:\Program Files (x86)\Microsoft Visual Studio\2019\Professional\VC\Tools\MSVC\14.29.30133\include\xstring
; File C:\Program Files (x86)\Microsoft Visual Studio\2019\Professional\VC\Tools\MSVC\14.29.30133\include\xmemory
; File C:\Program Files (x86)\Microsoft Visual Studio\2019\Professional\VC\Tools\MSVC\14.29.30133\include\xstring
; File C:\Program Files (x86)\Microsoft Visual Studio\2019\Professional\VC\Tools\MSVC\14.29.30133\include\xmemory
; File C:\Program Files (x86)\Microsoft Visual Studio\2019\Professional\VC\Tools\MSVC\14.29.30133\include\xstring
; File C:\Users\murat\Desktop\Siveps2-1-99-Project\source\client\Client\eterBase\Stl.h
; File C:\Program Files (x86)\Microsoft Visual Studio\2019\Professional\VC\Tools\MSVC\14.29.30133\include\xstring
; File C:\Users\murat\Desktop\Siveps2-1-99-Project\source\client\Client\eterBase\Stl.h
; File C:\Program Files (x86)\Microsoft Visual Studio\2019\Professional\VC\Tools\MSVC\14.29.30133\include\xstring
; File C:\Users\murat\Desktop\Siveps2-1-99-Project\source\client\Client\eterBase\Stl.h
; File C:\Program Files (x86)\Microsoft Visual Studio\2019\Professional\VC\Tools\MSVC\14.29.30133\include\xstring
; File C:\Users\murat\Desktop\Siveps2-1-99-Project\source\client\Client\EterPack\EterPackManager.cpp
; File C:\Program Files (x86)\Microsoft Visual Studio\2019\Professional\VC\Tools\MSVC\14.29.30133\include\xstring
; File C:\Users\murat\Desktop\Siveps2-1-99-Project\source\client\Client\EterPack\EterPackManager.cpp
; File C:\Program Files (x86)\Microsoft Visual Studio\2019\Professional\VC\Tools\MSVC\14.29.30133\include\xstring
; File C:\Users\murat\Desktop\Siveps2-1-99-Project\source\client\Client\EterPack\EterPackManager.cpp
; File C:\Program Files (x86)\Microsoft Visual Studio\2019\Professional\VC\Tools\MSVC\14.29.30133\include\xstring
; File C:\Program Files (x86)\Microsoft Visual Studio\2019\Professional\VC\Tools\MSVC\14.29.30133\include\xmemory
; File C:\Program Files (x86)\Microsoft Visual Studio\2019\Professional\VC\Tools\MSVC\14.29.30133\include\xstring
; File C:\Program Files (x86)\Microsoft Visual Studio\2019\Professional\VC\Tools\MSVC\14.29.30133\include\xmemory
; File C:\Users\murat\Desktop\Siveps2-1-99-Project\source\client\extern\include\boost\unordered\detail\implementation.hpp
; File C:\Users\murat\Desktop\Siveps2-1-99-Project\source\client\Client\EterPack\EterPackManager.cpp
; File C:\Users\murat\Desktop\Siveps2-1-99-Project\source\client\extern\include\boost\unordered\detail\implementation.hpp
; File C:\Users\murat\Desktop\Siveps2-1-99-Project\source\client\Client\EterPack\EterPackManager.cpp
; File C:\Users\murat\Desktop\Siveps2-1-99-Project\source\client\extern\include\boost\unordered\detail\implementation.hpp
; File C:\Program Files (x86)\Microsoft Visual Studio\2019\Professional\VC\Tools\MSVC\14.29.30133\include\xstring
; File C:\Users\murat\Desktop\Siveps2-1-99-Project\source\client\extern\include\boost\unordered\detail\implementation.hpp
; File C:\Program Files (x86)\Microsoft Visual Studio\2019\Professional\VC\Tools\MSVC\14.29.30133\include\xstring
; File C:\Program Files (x86)\Microsoft Visual Studio\2019\Professional\VC\Tools\MSVC\14.29.30133\include\xmemory
; File C:\Program Files (x86)\Microsoft Visual Studio\2019\Professional\VC\Tools\MSVC\14.29.30133\include\xstring
; File C:\Users\murat\Desktop\Siveps2-1-99-Project\source\client\Client\EterPack\EterPackManager.cpp
; File C:\Users\murat\Desktop\Siveps2-1-99-Project\source\client\Client\eterBase\filename.h
; File C:\Program Files (x86)\Microsoft Visual Studio\2019\Professional\VC\Tools\MSVC\14.29.30133\include\xstring
; File C:\Users\murat\Desktop\Siveps2-1-99-Project\source\client\Client\eterBase\filename.h
; File C:\Program Files (x86)\Microsoft Visual Studio\2019\Professional\VC\Tools\MSVC\14.29.30133\include\xstring
; File C:\Users\murat\Desktop\Siveps2-1-99-Project\source\client\Client\eterBase\filename.h
; File C:\Program Files (x86)\Microsoft Visual Studio\2019\Professional\VC\Tools\MSVC\14.29.30133\include\xstring
; File C:\Users\murat\Desktop\Siveps2-1-99-Project\source\client\Client\eterBase\filename.h
; File C:\Program Files (x86)\Microsoft Visual Studio\2019\Professional\VC\Tools\MSVC\14.29.30133\include\xstring
; File C:\Users\murat\Desktop\Siveps2-1-99-Project\source\client\Client\eterBase\filename.h
; File C:\Program Files (x86)\Microsoft Visual Studio\2019\Professional\VC\Tools\MSVC\14.29.30133\include\xstring
; File C:\Users\murat\Desktop\Siveps2-1-99-Project\source\client\Client\EterPack\EterPackManager.cpp
; File C:\Program Files (x86)\Microsoft Visual Studio\2019\Professional\VC\Tools\MSVC\14.29.30133\include\xstring
; File C:\Program Files (x86)\Microsoft Visual Studio\2019\Professional\VC\Tools\MSVC\14.29.30133\include\xmemory
; File C:\Program Files (x86)\Microsoft Visual Studio\2019\Professional\VC\Tools\MSVC\14.29.30133\include\xstring
; File C:\Users\murat\Desktop\Siveps2-1-99-Project\source\client\Client\eterBase\Stl.h
; File C:\Program Files (x86)\Microsoft Visual Studio\2019\Professional\VC\Tools\MSVC\14.29.30133\include\xstring
; File C:\Users\murat\Desktop\Siveps2-1-99-Project\source\client\Client\eterBase\Stl.h
; File C:\Program Files (x86)\Microsoft Visual Studio\2019\Professional\VC\Tools\MSVC\14.29.30133\include\xstring
; File C:\Users\murat\Desktop\Siveps2-1-99-Project\source\client\Client\eterBase\Stl.h
; File C:\Users\murat\Desktop\Siveps2-1-99-Project\source\client\Client\EterPack\EterPackManager.cpp
; File C:\Program Files (x86)\Microsoft Visual Studio\2019\Professional\VC\Tools\MSVC\14.29.30133\include\xstring
; File C:\Users\murat\Desktop\Siveps2-1-99-Project\source\client\Client\EterPack\EterPackManager.cpp
; File C:\Program Files (x86)\Microsoft Visual Studio\2019\Professional\VC\Tools\MSVC\14.29.30133\include\xstring
; File C:\Program Files (x86)\Microsoft Visual Studio\2019\Professional\VC\Tools\MSVC\14.29.30133\include\xmemory
; File C:\Program Files (x86)\Microsoft Visual Studio\2019\Professional\VC\Tools\MSVC\14.29.30133\include\xstring
; File C:\Program Files (x86)\Microsoft Visual Studio\2019\Professional\VC\Tools\MSVC\14.29.30133\include\xmemory
; File C:\Users\murat\Desktop\Siveps2-1-99-Project\source\client\extern\include\boost\unordered\detail\implementation.hpp
; File C:\Users\murat\Desktop\Siveps2-1-99-Project\source\client\Client\EterPack\EterPackManager.cpp
; File C:\Users\murat\Desktop\Siveps2-1-99-Project\source\client\Client\eterBase\filename.h
; File C:\Users\murat\Desktop\Siveps2-1-99-Project\source\client\Client\EterPack\EterPackManager.cpp
;	COMDAT ?WriteHybridCryptPackInfo@CEterPackManager@@QAEXPBD@Z
_TEXT	SEGMENT
_iSDBSize$2 = -1412					; size = 4
_pPolicy$1$ = -1408					; size = 4
_dwPackNamehash$3 = -1404				; size = 4
_iSDBDataOffset$ = -1400				; size = 4
__Ptr$1$ = -1396					; size = 4
_k$1$ = -1396						; size = 4
_iSDBPackageCnt$ = -1392				; size = 4
_iKeyPackageCount$ = -1388				; size = 4
_pPolicy$1$ = -1384					; size = 4
_cit$2$ = -1384						; size = 4
$T4 = -1380						; size = 4
_this$1$ = -1380					; size = 4
__Right_size$1$ = -1376					; size = 4
__Result$1$ = -1372					; size = 4
tv1638 = -1372						; size = 4
tv1636 = -1372						; size = 4
_iSDBSizeWriteOffset$1$ = -1372				; size = 4
_dwPackNamehash$5 = -1372				; size = 4
_keyFile$ = -1368					; size = 280
_noPathName$6 = -1088					; size = 24
$T7 = -1088						; size = 24
$T8 = -1064						; size = 24
_noPathName$9 = -1064					; size = 24
_szPath$10 = -1040					; size = 1024
__$ArrayPad$ = -16					; size = 4
__$EHRec$ = -12						; size = 12
_pFileName$ = 8						; size = 4
?WriteHybridCryptPackInfo@CEterPackManager@@QAEXPBD@Z PROC ; CEterPackManager::WriteHybridCryptPackInfo, COMDAT
; _this$ = ecx

; 498  : {

  00000	55		 push	 ebp
  00001	8b ec		 mov	 ebp, esp
  00003	6a ff		 push	 -1
  00005	68 00 00 00 00	 push	 __ehhandler$?WriteHybridCryptPackInfo@CEterPackManager@@QAEXPBD@Z
  0000a	64 a1 00 00 00
	00		 mov	 eax, DWORD PTR fs:0
  00010	50		 push	 eax
  00011	81 ec 78 05 00
	00		 sub	 esp, 1400		; 00000578H
  00017	a1 00 00 00 00	 mov	 eax, DWORD PTR ___security_cookie
  0001c	33 c5		 xor	 eax, ebp
  0001e	89 45 f0	 mov	 DWORD PTR __$ArrayPad$[ebp], eax
  00021	56		 push	 esi
  00022	57		 push	 edi
  00023	50		 push	 eax
  00024	8d 45 f4	 lea	 eax, DWORD PTR __$EHRec$[ebp]
  00027	64 a3 00 00 00
	00		 mov	 DWORD PTR fs:0, eax
  0002d	8b f9		 mov	 edi, ecx
  0002f	89 bd 9c fa ff
	ff		 mov	 DWORD PTR _this$1$[ebp], edi
  00035	8b 75 08	 mov	 esi, DWORD PTR _pFileName$[ebp]

; 499  : 	//NOTE : this file format contains a little bit of redundant data.
; 500  : 	//however it`s better for seperating cryptkey & supplementary data block.
; 501  : 
; 502  : 	//dump file format
; 503  : 
; 504  : 	//SDB data offset(4)
; 505  : 
; 506  : 	// about cryptkey
; 507  : 	//total packagecnt (4byte)
; 508  : 	//	for	packagecnt
; 509  : 	//		db name hash 4byte( stl.h stringhash )
; 510  : 	//		extension cnt( 4byte)
; 511  : 	//		for	extension cnt
; 512  : 	//			ext hash ( stl.h stringhash )
; 513  : 	//			key-16byte
; 514  : 	//			iv-16byte
; 515  : 
; 516  : 	//about SDB data
; 517  : 	//total packagecnt (4byte)
; 518  : 	//	for	packagecnt
; 519  : 	//		db name hash 4byte( stl.h stringhash ) +child node size(4byte)
; 520  : 	//		sdb file cnt( 4byte )
; 521  : 	//		for	sdb file cnt
; 522  : 	//			filename hash ( stl.h stringhash )
; 523  : 	//			related map name size(4), relate map name
; 524  : 	//			sdb block size( 1byte )
; 525  : 	//			sdb blocks
; 526  : 
; 527  : 	CFileBase keyFile;

  00038	8d 8d a8 fa ff
	ff		 lea	 ecx, DWORD PTR _keyFile$[ebp]
  0003e	e8 00 00 00 00	 call	 ??0CFileBase@@QAE@XZ	; CFileBase::CFileBase

; 528  : 
; 529  : 	if( !keyFile.Create( pFileName, CFileBase::FILEMODE_WRITE) )

  00043	6a 02		 push	 2
  00045	56		 push	 esi
  00046	8d 8d a8 fa ff
	ff		 lea	 ecx, DWORD PTR _keyFile$[ebp]
  0004c	c7 45 fc 00 00
	00 00		 mov	 DWORD PTR __$EHRec$[ebp+8], 0
  00053	e8 00 00 00 00	 call	 ?Create@CFileBase@@QAEHPBDW4EFileMode@1@@Z ; CFileBase::Create
  00058	85 c0		 test	 eax, eax
  0005a	0f 84 00 06 00
	00		 je	 $LN19@WriteHybri

; 530  : 	{
; 531  : 		//TODO : write log
; 532  : 		return;
; 533  : 	}
; 534  : 
; 535  : 	int iKeyPackageCount = 0;
; 536  : 
; 537  : 	//write later ( SDB Offset & PackageCnt for Key )
; 538  : 	keyFile.SeekCur(2*sizeof(int));

  00060	6a 08		 push	 8
  00062	8d 8d a8 fa ff
	ff		 lea	 ecx, DWORD PTR _keyFile$[ebp]
  00068	c7 85 94 fa ff
	ff 00 00 00 00	 mov	 DWORD PTR _iKeyPackageCount$[ebp], 0
  00072	e8 00 00 00 00	 call	 ?SeekCur@CFileBase@@QAEXK@Z ; CFileBase::SeekCur
; File C:\Users\murat\Desktop\Siveps2-1-99-Project\source\client\extern\include\boost\unordered\detail\implementation.hpp

; 3041 :           return size_ ? next_node(get_previous_start()) : node_pointer();

  00077	83 bf 20 14 00
	00 00		 cmp	 DWORD PTR [edi+5152], 0
  0007e	0f 84 a1 01 00
	00		 je	 $LN345@WriteHybri

; 3026 :           return buckets_ + static_cast<std::ptrdiff_t>(bucket_index);

  00084	8b 87 1c 14 00
	00		 mov	 eax, DWORD PTR [edi+5148]

; 3041 :           return size_ ? next_node(get_previous_start()) : node_pointer();

  0008a	8b b7 2c 14 00
	00		 mov	 esi, DWORD PTR [edi+5164]
  00090	8b 34 86	 mov	 esi, DWORD PTR [esi+eax*4]
; File C:\Users\murat\Desktop\Siveps2-1-99-Project\source\client\Client\EterPack\EterPackManager.cpp

; 541  : 	for( cit = m_PackMap.begin(); cit != m_PackMap.end(); ++cit )

  00093	85 f6		 test	 esi, esi
  00095	0f 84 8a 01 00
	00		 je	 $LN345@WriteHybri
  0009b	0f 1f 44 00 00	 npad	 5
$LL4@WriteHybri:

; 542  : 	{
; 543  : 		EterPackPolicy_CSHybridCrypt* pPolicy = cit->second->GetPackPolicy_HybridCrypt();

  000a0	8b 4e 20	 mov	 ecx, DWORD PTR [esi+32]
  000a3	e8 00 00 00 00	 call	 ?GetPackPolicy_HybridCrypt@CEterPack@@QBEPAVEterPackPolicy_CSHybridCrypt@@XZ ; CEterPack::GetPackPolicy_HybridCrypt
  000a8	89 85 98 fa ff
	ff		 mov	 DWORD PTR _pPolicy$1$[ebp], eax

; 544  : 		if( !pPolicy || !pPolicy->IsContainingCryptKey() )

  000ae	85 c0		 test	 eax, eax
  000b0	0f 84 5d 01 00
	00		 je	 $LN2@WriteHybri
  000b6	8b c8		 mov	 ecx, eax
  000b8	e8 00 00 00 00	 call	 ?IsContainingCryptKey@EterPackPolicy_CSHybridCrypt@@QBE_NXZ ; EterPackPolicy_CSHybridCrypt::IsContainingCryptKey
  000bd	84 c0		 test	 al, al
  000bf	0f 84 4e 01 00
	00		 je	 $LN2@WriteHybri

; 545  : 			continue;
; 546  : 
; 547  : 		iKeyPackageCount++;

  000c5	ff 85 94 fa ff
	ff		 inc	 DWORD PTR _iKeyPackageCount$[ebp]
; File C:\Users\murat\Desktop\Siveps2-1-99-Project\source\client\extern\include\boost\unordered\detail\implementation.hpp

; 2435 :         value_type const* operator->() const { return node_->value_ptr(); }

  000cb	8d 46 08	 lea	 eax, DWORD PTR [esi+8]
; File C:\Users\murat\Desktop\Siveps2-1-99-Project\source\client\Client\EterPack\EterPackManager.cpp

; 549  : 		std::string noPathName = CFileNameHelper::NoPath(string(cit->first));

  000ce	50		 push	 eax
  000cf	8d 8d c0 fb ff
	ff		 lea	 ecx, DWORD PTR $T7[ebp]
  000d5	e8 00 00 00 00	 call	 ??0?$basic_string@DU?$char_traits@D@std@@V?$allocator@D@2@@std@@QAE@ABV01@@Z ; std::basic_string<char,std::char_traits<char>,std::allocator<char> >::basic_string<char,std::char_traits<char>,std::allocator<char> >
  000da	50		 push	 eax
  000db	8d 85 d8 fb ff
	ff		 lea	 eax, DWORD PTR _noPathName$9[ebp]
  000e1	c6 45 fc 01	 mov	 BYTE PTR __$EHRec$[ebp+8], 1
  000e5	50		 push	 eax
  000e6	e8 00 00 00 00	 call	 ?NoPath@CFileNameHelper@@SA?AV?$basic_string@DU?$char_traits@D@std@@V?$allocator@D@2@@std@@AAV23@@Z ; CFileNameHelper::NoPath
  000eb	83 c4 08	 add	 esp, 8
; File C:\Program Files (x86)\Microsoft Visual Studio\2019\Professional\VC\Tools\MSVC\14.29.30133\include\xstring

; 4618 :         if (_Mypair._Myval2._Large_string_engaged()) {

  000ee	8b 95 d4 fb ff
	ff		 mov	 edx, DWORD PTR $T7[ebp+20]
; File C:\Users\murat\Desktop\Siveps2-1-99-Project\source\client\Client\EterPack\EterPackManager.cpp

; 549  : 		std::string noPathName = CFileNameHelper::NoPath(string(cit->first));

  000f4	c6 45 fc 03	 mov	 BYTE PTR __$EHRec$[ebp+8], 3
; File C:\Program Files (x86)\Microsoft Visual Studio\2019\Professional\VC\Tools\MSVC\14.29.30133\include\xstring

; 4618 :         if (_Mypair._Myval2._Large_string_engaged()) {

  000f8	83 fa 10	 cmp	 edx, 16			; 00000010H
  000fb	72 2f		 jb	 SHORT $LN62@WriteHybri
; File C:\Program Files (x86)\Microsoft Visual Studio\2019\Professional\VC\Tools\MSVC\14.29.30133\include\xmemory

; 835  :         _Deallocate<_New_alignof<_Ty>>(_Ptr, sizeof(_Ty) * _Count);

  000fd	8b 8d c0 fb ff
	ff		 mov	 ecx, DWORD PTR $T7[ebp]
; File C:\Program Files (x86)\Microsoft Visual Studio\2019\Professional\VC\Tools\MSVC\14.29.30133\include\xstring

; 4622 :             _Al.deallocate(_Ptr, _Mypair._Myval2._Myres + 1);

  00103	42		 inc	 edx
; File C:\Program Files (x86)\Microsoft Visual Studio\2019\Professional\VC\Tools\MSVC\14.29.30133\include\xmemory

; 835  :         _Deallocate<_New_alignof<_Ty>>(_Ptr, sizeof(_Ty) * _Count);

  00104	8b c1		 mov	 eax, ecx

; 260  :         if (_Bytes >= _Big_allocation_threshold) { // boost the alignment of big allocations to help autovectorization

  00106	81 fa 00 10 00
	00		 cmp	 edx, 4096		; 00001000H
  0010c	72 14		 jb	 SHORT $LN72@WriteHybri

; 158  :     const uintptr_t _Ptr_container   = _Ptr_user[-1];

  0010e	8b 49 fc	 mov	 ecx, DWORD PTR [ecx-4]
  00111	83 c2 23	 add	 edx, 35			; 00000023H
  00114	2b c1		 sub	 eax, ecx

; 159  : 
; 160  :     // If the following asserts, it likely means that we are performing
; 161  :     // an aligned delete on memory coming from an unaligned allocation.
; 162  :     _STL_ASSERT(_Ptr_user[-2] == _Big_allocation_sentinel, "invalid argument");
; 163  : 
; 164  :     // Extra paranoia on aligned allocation/deallocation; ensure _Ptr_container is
; 165  :     // in range [_Min_back_shift, _Non_user_size]
; 166  : #ifdef _DEBUG
; 167  :     constexpr uintptr_t _Min_back_shift = 2 * sizeof(void*);
; 168  : #else // ^^^ _DEBUG ^^^ // vvv !_DEBUG vvv
; 169  :     constexpr uintptr_t _Min_back_shift = sizeof(void*);
; 170  : #endif // _DEBUG
; 171  :     const uintptr_t _Back_shift = reinterpret_cast<uintptr_t>(_Ptr) - _Ptr_container;
; 172  :     _STL_VERIFY(_Back_shift >= _Min_back_shift && _Back_shift <= _Non_user_size, "invalid argument");

  00116	83 c0 fc	 add	 eax, -4			; fffffffcH
  00119	83 f8 1f	 cmp	 eax, 31			; 0000001fH
  0011c	0f 87 66 05 00
	00		 ja	 $LN69@WriteHybri
$LN72@WriteHybri:

; 264  :         ::operator delete(_Ptr, _Bytes);

  00122	52		 push	 edx
  00123	51		 push	 ecx
  00124	e8 00 00 00 00	 call	 ??3@YAXPAXI@Z		; operator delete
  00129	83 c4 08	 add	 esp, 8
$LN62@WriteHybri:
; File C:\Program Files (x86)\Microsoft Visual Studio\2019\Professional\VC\Tools\MSVC\14.29.30133\include\xstring

; 2306 :         if (_Large_string_engaged()) {

  0012c	83 bd ec fb ff
	ff 10		 cmp	 DWORD PTR _noPathName$9[ebp+20], 16 ; 00000010H
  00133	8d 8d d8 fb ff
	ff		 lea	 ecx, DWORD PTR _noPathName$9[ebp]
; File C:\Users\murat\Desktop\Siveps2-1-99-Project\source\client\Client\eterBase\Stl.h

; 478  :        const unsigned char * end = s + str.size();

  00139	8b bd e8 fb ff
	ff		 mov	 edi, DWORD PTR _noPathName$9[ebp+16]
; File C:\Program Files (x86)\Microsoft Visual Studio\2019\Professional\VC\Tools\MSVC\14.29.30133\include\xstring

; 2306 :         if (_Large_string_engaged()) {

  0013f	0f 43 8d d8 fb
	ff ff		 cmovae	 ecx, DWORD PTR _noPathName$9[ebp]
; File C:\Users\murat\Desktop\Siveps2-1-99-Project\source\client\Client\eterBase\Stl.h

; 479  :        size_t h = 0;

  00146	33 d2		 xor	 edx, edx
  00148	03 f9		 add	 edi, ecx
; File C:\Program Files (x86)\Microsoft Visual Studio\2019\Professional\VC\Tools\MSVC\14.29.30133\include\xstring

; 4633 :             _Mypair._Myval2._Mysize = 0;

  0014a	c7 85 d0 fb ff
	ff 00 00 00 00	 mov	 DWORD PTR $T7[ebp+16], 0

; 4634 :             _Mypair._Myval2._Myres  = _BUF_SIZE - 1;

  00154	c7 85 d4 fb ff
	ff 0f 00 00 00	 mov	 DWORD PTR $T7[ebp+20], 15 ; 0000000fH

; 4635 :             // the _Traits::assign is last so the codegen doesn't think the char write can alias this
; 4636 :             _Traits::assign(_Mypair._Myval2._Bx._Buf[0], _Elem());

  0015e	c6 85 c0 fb ff
	ff 00		 mov	 BYTE PTR $T7[ebp], 0
; File C:\Users\murat\Desktop\Siveps2-1-99-Project\source\client\Client\eterBase\Stl.h

; 481  :        while (s < end)

  00165	3b cf		 cmp	 ecx, edi
  00167	73 17		 jae	 SHORT $LN80@WriteHybri
  00169	0f 1f 80 00 00
	00 00		 npad	 7
$LL326@WriteHybri:

; 482  :        {
; 483  :            h *= 16777619;
; 484  :            h ^= (unsigned char) *(unsigned char *) (s++);

  00170	0f b6 01	 movzx	 eax, BYTE PTR [ecx]
  00173	41		 inc	 ecx
  00174	69 d2 93 01 00
	01		 imul	 edx, edx, 16777619
  0017a	33 d0		 xor	 edx, eax
  0017c	3b cf		 cmp	 ecx, edi
  0017e	72 f0		 jb	 SHORT $LL326@WriteHybri
$LN80@WriteHybri:
; File C:\Program Files (x86)\Microsoft Visual Studio\2019\Professional\VC\Tools\MSVC\14.29.30133\include\xstring

; 2306 :         if (_Large_string_engaged()) {

  00180	83 bd ec fb ff
	ff 10		 cmp	 DWORD PTR _noPathName$9[ebp+20], 16 ; 00000010H
  00187	8d 85 d8 fb ff
	ff		 lea	 eax, DWORD PTR _noPathName$9[ebp]
; File C:\Users\murat\Desktop\Siveps2-1-99-Project\source\client\Client\EterPack\EterPackManager.cpp

; 553  : 		CMakePackLog::GetSingleton().Writef("CEterPackManager::WriteHybridCryptPackInfo PackName : %s, Hash : %x", noPathName.c_str(), dwPackNamehash);

  0018d	52		 push	 edx
; File C:\Program Files (x86)\Microsoft Visual Studio\2019\Professional\VC\Tools\MSVC\14.29.30133\include\xstring

; 2306 :         if (_Large_string_engaged()) {

  0018e	0f 43 85 d8 fb
	ff ff		 cmovae	 eax, DWORD PTR _noPathName$9[ebp]
; File C:\Users\murat\Desktop\Siveps2-1-99-Project\source\client\Client\EterPack\EterPackManager.cpp

; 553  : 		CMakePackLog::GetSingleton().Writef("CEterPackManager::WriteHybridCryptPackInfo PackName : %s, Hash : %x", noPathName.c_str(), dwPackNamehash);

  00195	50		 push	 eax
  00196	68 00 00 00 00	 push	 OFFSET ??_C@_0EE@JEJDAIPD@CEterPackManager?3?3WriteHybridCr@
  0019b	89 95 a4 fa ff
	ff		 mov	 DWORD PTR _dwPackNamehash$5[ebp], edx
  001a1	e8 00 00 00 00	 call	 ?GetSingleton@CMakePackLog@@SAAAV1@XZ ; CMakePackLog::GetSingleton
  001a6	50		 push	 eax
  001a7	e8 00 00 00 00	 call	 ?Writef@CMakePackLog@@QAAXPBDZZ ; CMakePackLog::Writef
  001ac	83 c4 10	 add	 esp, 16			; 00000010H

; 554  : 		keyFile.Write( &dwPackNamehash, sizeof(DWORD) );

  001af	8d 85 a4 fa ff
	ff		 lea	 eax, DWORD PTR _dwPackNamehash$5[ebp]
  001b5	8d 8d a8 fa ff
	ff		 lea	 ecx, DWORD PTR _keyFile$[ebp]
  001bb	6a 04		 push	 4
  001bd	50		 push	 eax
  001be	e8 00 00 00 00	 call	 ?Write@CFileBase@@UAEHPBXH@Z ; CFileBase::Write

; 555  : 
; 556  : 		pPolicy->WriteCryptKeyToFile( keyFile );

  001c3	8b 8d 98 fa ff
	ff		 mov	 ecx, DWORD PTR _pPolicy$1$[ebp]
  001c9	8d 85 a8 fa ff
	ff		 lea	 eax, DWORD PTR _keyFile$[ebp]
  001cf	50		 push	 eax
  001d0	e8 00 00 00 00	 call	 ?WriteCryptKeyToFile@EterPackPolicy_CSHybridCrypt@@QAEXAAVCFileBase@@@Z ; EterPackPolicy_CSHybridCrypt::WriteCryptKeyToFile
; File C:\Program Files (x86)\Microsoft Visual Studio\2019\Professional\VC\Tools\MSVC\14.29.30133\include\xstring

; 4618 :         if (_Mypair._Myval2._Large_string_engaged()) {

  001d5	8b 95 ec fb ff
	ff		 mov	 edx, DWORD PTR _noPathName$9[ebp+20]
; File C:\Users\murat\Desktop\Siveps2-1-99-Project\source\client\Client\EterPack\EterPackManager.cpp

; 557  : 	}

  001db	c6 45 fc 00	 mov	 BYTE PTR __$EHRec$[ebp+8], 0
; File C:\Program Files (x86)\Microsoft Visual Studio\2019\Professional\VC\Tools\MSVC\14.29.30133\include\xstring

; 4618 :         if (_Mypair._Myval2._Large_string_engaged()) {

  001df	83 fa 10	 cmp	 edx, 16			; 00000010H
  001e2	72 2f		 jb	 SHORT $LN2@WriteHybri
; File C:\Program Files (x86)\Microsoft Visual Studio\2019\Professional\VC\Tools\MSVC\14.29.30133\include\xmemory

; 835  :         _Deallocate<_New_alignof<_Ty>>(_Ptr, sizeof(_Ty) * _Count);

  001e4	8b 8d d8 fb ff
	ff		 mov	 ecx, DWORD PTR _noPathName$9[ebp]
; File C:\Program Files (x86)\Microsoft Visual Studio\2019\Professional\VC\Tools\MSVC\14.29.30133\include\xstring

; 4622 :             _Al.deallocate(_Ptr, _Mypair._Myval2._Myres + 1);

  001ea	42		 inc	 edx
; File C:\Program Files (x86)\Microsoft Visual Studio\2019\Professional\VC\Tools\MSVC\14.29.30133\include\xmemory

; 835  :         _Deallocate<_New_alignof<_Ty>>(_Ptr, sizeof(_Ty) * _Count);

  001eb	8b c1		 mov	 eax, ecx

; 260  :         if (_Bytes >= _Big_allocation_threshold) { // boost the alignment of big allocations to help autovectorization

  001ed	81 fa 00 10 00
	00		 cmp	 edx, 4096		; 00001000H
  001f3	72 14		 jb	 SHORT $LN118@WriteHybri

; 158  :     const uintptr_t _Ptr_container   = _Ptr_user[-1];

  001f5	8b 49 fc	 mov	 ecx, DWORD PTR [ecx-4]
  001f8	83 c2 23	 add	 edx, 35			; 00000023H
  001fb	2b c1		 sub	 eax, ecx

; 159  : 
; 160  :     // If the following asserts, it likely means that we are performing
; 161  :     // an aligned delete on memory coming from an unaligned allocation.
; 162  :     _STL_ASSERT(_Ptr_user[-2] == _Big_allocation_sentinel, "invalid argument");
; 163  : 
; 164  :     // Extra paranoia on aligned allocation/deallocation; ensure _Ptr_container is
; 165  :     // in range [_Min_back_shift, _Non_user_size]
; 166  : #ifdef _DEBUG
; 167  :     constexpr uintptr_t _Min_back_shift = 2 * sizeof(void*);
; 168  : #else // ^^^ _DEBUG ^^^ // vvv !_DEBUG vvv
; 169  :     constexpr uintptr_t _Min_back_shift = sizeof(void*);
; 170  : #endif // _DEBUG
; 171  :     const uintptr_t _Back_shift = reinterpret_cast<uintptr_t>(_Ptr) - _Ptr_container;
; 172  :     _STL_VERIFY(_Back_shift >= _Min_back_shift && _Back_shift <= _Non_user_size, "invalid argument");

  001fd	83 c0 fc	 add	 eax, -4			; fffffffcH
  00200	83 f8 1f	 cmp	 eax, 31			; 0000001fH
  00203	0f 87 7f 04 00
	00		 ja	 $LN69@WriteHybri
$LN118@WriteHybri:

; 264  :         ::operator delete(_Ptr, _Bytes);

  00209	52		 push	 edx
  0020a	51		 push	 ecx
  0020b	e8 00 00 00 00	 call	 ??3@YAXPAXI@Z		; operator delete
  00210	83 c4 08	 add	 esp, 8
$LN2@WriteHybri:
; File C:\Users\murat\Desktop\Siveps2-1-99-Project\source\client\extern\include\boost\unordered\detail\implementation.hpp

; 2439 :           node_ = static_cast<node_pointer>(node_->next_);

  00213	8b 06		 mov	 eax, DWORD PTR [esi]
  00215	8b f0		 mov	 esi, eax
; File C:\Users\murat\Desktop\Siveps2-1-99-Project\source\client\Client\EterPack\EterPackManager.cpp

; 541  : 	for( cit = m_PackMap.begin(); cit != m_PackMap.end(); ++cit )

  00217	85 c0		 test	 eax, eax
  00219	0f 85 81 fe ff
	ff		 jne	 $LL4@WriteHybri
  0021f	8b bd 9c fa ff
	ff		 mov	 edi, DWORD PTR _this$1$[ebp]
$LN345@WriteHybri:

; 558  : 
; 559  : 	//Write SDB Data
; 560  : 	int iSDBDataOffset = keyFile.GetPosition();

  00225	8d 8d a8 fa ff
	ff		 lea	 ecx, DWORD PTR _keyFile$[ebp]
  0022b	e8 00 00 00 00	 call	 ?GetPosition@CFileBase@@QAEKXZ ; CFileBase::GetPosition

; 561  : 	int iSDBPackageCnt = 0;
; 562  : 
; 563  : 	//Write SDB PackageCnt Later
; 564  : 	keyFile.SeekCur(sizeof(int));

  00230	6a 04		 push	 4
  00232	8d 8d a8 fa ff
	ff		 lea	 ecx, DWORD PTR _keyFile$[ebp]
  00238	89 85 88 fa ff
	ff		 mov	 DWORD PTR _iSDBDataOffset$[ebp], eax
  0023e	c7 85 90 fa ff
	ff 00 00 00 00	 mov	 DWORD PTR _iSDBPackageCnt$[ebp], 0
  00248	e8 00 00 00 00	 call	 ?SeekCur@CFileBase@@QAEXK@Z ; CFileBase::SeekCur
; File C:\Users\murat\Desktop\Siveps2-1-99-Project\source\client\extern\include\boost\unordered\detail\implementation.hpp

; 3041 :           return size_ ? next_node(get_previous_start()) : node_pointer();

  0024d	83 bf 20 14 00
	00 00		 cmp	 DWORD PTR [edi+5152], 0
  00254	0f 84 a1 03 00
	00		 je	 $LN346@WriteHybri

; 3026 :           return buckets_ + static_cast<std::ptrdiff_t>(bucket_index);

  0025a	8b 87 1c 14 00
	00		 mov	 eax, DWORD PTR [edi+5148]

; 3041 :           return size_ ? next_node(get_previous_start()) : node_pointer();

  00260	8b b7 2c 14 00
	00		 mov	 esi, DWORD PTR [edi+5164]
  00266	8b 34 86	 mov	 esi, DWORD PTR [esi+eax*4]
  00269	89 b5 98 fa ff
	ff		 mov	 DWORD PTR _cit$2$[ebp], esi
; File C:\Users\murat\Desktop\Siveps2-1-99-Project\source\client\Client\EterPack\EterPackManager.cpp

; 565  : 	for( cit = m_PackMap.begin(); cit != m_PackMap.end(); ++cit )

  0026f	85 f6		 test	 esi, esi
  00271	0f 84 84 03 00
	00		 je	 $LN346@WriteHybri
$LL7@WriteHybri:

; 566  : 	{
; 567  : 		EterPackPolicy_CSHybridCrypt* pPolicy = cit->second->GetPackPolicy_HybridCrypt();

  00277	8b 4e 20	 mov	 ecx, DWORD PTR [esi+32]
  0027a	e8 00 00 00 00	 call	 ?GetPackPolicy_HybridCrypt@CEterPack@@QBEPAVEterPackPolicy_CSHybridCrypt@@XZ ; CEterPack::GetPackPolicy_HybridCrypt
  0027f	89 85 80 fa ff
	ff		 mov	 DWORD PTR _pPolicy$1$[ebp], eax

; 568  : 		if( !pPolicy || !pPolicy->IsContainingSDBFile() )

  00285	85 c0		 test	 eax, eax
  00287	0f 84 5e 03 00
	00		 je	 $LN5@WriteHybri
  0028d	8b c8		 mov	 ecx, eax
  0028f	e8 00 00 00 00	 call	 ?IsContainingSDBFile@EterPackPolicy_CSHybridCrypt@@QBE_NXZ ; EterPackPolicy_CSHybridCrypt::IsContainingSDBFile
  00294	84 c0		 test	 al, al
  00296	0f 84 4f 03 00
	00		 je	 $LN5@WriteHybri

; 569  : 			continue;
; 570  : 
; 571  : 		iSDBPackageCnt++;

  0029c	ff 85 90 fa ff
	ff		 inc	 DWORD PTR _iSDBPackageCnt$[ebp]
; File C:\Users\murat\Desktop\Siveps2-1-99-Project\source\client\extern\include\boost\unordered\detail\implementation.hpp

; 2435 :         value_type const* operator->() const { return node_->value_ptr(); }

  002a2	8d 7e 08	 lea	 edi, DWORD PTR [esi+8]
; File C:\Program Files (x86)\Microsoft Visual Studio\2019\Professional\VC\Tools\MSVC\14.29.30133\include\xstring

; 2306 :         if (_Large_string_engaged()) {

  002a5	83 7f 14 10	 cmp	 DWORD PTR [edi+20], 16	; 00000010H

; 2921 :         const size_type _Right_size   = _Right_data._Mysize;

  002a9	8b 47 10	 mov	 eax, DWORD PTR [edi+16]
; File C:\Users\murat\Desktop\Siveps2-1-99-Project\source\client\extern\include\boost\unordered\detail\implementation.hpp

; 2435 :         value_type const* operator->() const { return node_->value_ptr(); }

  002ac	89 bd a4 fa ff
	ff		 mov	 DWORD PTR __Result$1$[ebp], edi
; File C:\Program Files (x86)\Microsoft Visual Studio\2019\Professional\VC\Tools\MSVC\14.29.30133\include\xstring

; 2921 :         const size_type _Right_size   = _Right_data._Mysize;

  002b2	89 85 a0 fa ff
	ff		 mov	 DWORD PTR __Right_size$1$[ebp], eax

; 2306 :         if (_Large_string_engaged()) {

  002b8	72 08		 jb	 SHORT $LN165@WriteHybri

; 2307 :             _Result = _Unfancy(_Bx._Ptr);

  002ba	8b 3f		 mov	 edi, DWORD PTR [edi]
  002bc	89 bd a4 fa ff
	ff		 mov	 DWORD PTR __Result$1$[ebp], edi
$LN165@WriteHybri:

; 2933 :         if (_Stay_small) { // stay small, don't allocate

  002c2	83 f8 10	 cmp	 eax, 16			; 00000010H
  002c5	73 1d		 jae	 SHORT $LN162@WriteHybri

; 65   :         _CSTD memcpy(_First1, _First2, _Count * sizeof(_Elem));

  002c7	0f 10 07	 movups	 xmm0, XMMWORD PTR [edi]

; 2936 :             _My_data._Myres  = _BUF_SIZE - 1;

  002ca	ba 0f 00 00 00	 mov	 edx, 15			; 0000000fH
  002cf	89 95 9c fa ff
	ff		 mov	 DWORD PTR $T4[ebp], edx

; 65   :         _CSTD memcpy(_First1, _First2, _Count * sizeof(_Elem));

  002d5	0f 11 85 d8 fb
	ff ff		 movups	 XMMWORD PTR $T8[ebp], xmm0

; 2937 :             return;

  002dc	8b bd d8 fb ff
	ff		 mov	 edi, DWORD PTR $T8[ebp]
  002e2	eb 67		 jmp	 SHORT $LN352@WriteHybri
$LN162@WriteHybri:

; 2938 :         }
; 2939 : 
; 2940 :         auto& _Al                     = _Getal();
; 2941 :         const size_type _New_capacity = (_STD min)(_Right_size | _ALLOC_MASK, max_size());

  002e4	83 c8 0f	 or	 eax, 15			; 0000000fH
  002e7	b9 ff ff ff 7f	 mov	 ecx, 2147483647		; 7fffffffH
  002ec	3d ff ff ff 7f	 cmp	 eax, 2147483647		; 7fffffffH
  002f1	0f 47 c1	 cmova	 eax, ecx
  002f4	89 85 9c fa ff
	ff		 mov	 DWORD PTR $T4[ebp], eax

; 2942 :         const pointer _New_array      = _Al.allocate(_New_capacity + 1); // throws

  002fa	40		 inc	 eax
; File C:\Program Files (x86)\Microsoft Visual Studio\2019\Professional\VC\Tools\MSVC\14.29.30133\include\xmemory

; 237  :         if (_Bytes >= _Big_allocation_threshold) { // boost the alignment of big allocations to help autovectorization

  002fb	3d 00 10 00 00	 cmp	 eax, 4096		; 00001000H
  00300	72 0d		 jb	 SHORT $LN176@WriteHybri

; 238  :             return _Allocate_manually_vector_aligned<_Traits>(_Bytes);

  00302	50		 push	 eax
  00303	e8 00 00 00 00	 call	 ??$_Allocate_manually_vector_aligned@U_Default_allocate_traits@std@@@std@@YAPAXI@Z ; std::_Allocate_manually_vector_aligned<std::_Default_allocate_traits>
  00308	83 c4 04	 add	 esp, 4
  0030b	8b f8		 mov	 edi, eax
  0030d	eb 13		 jmp	 SHORT $LN175@WriteHybri
$LN176@WriteHybri:

; 239  :         }
; 240  :     }
; 241  : #endif // defined(_M_IX86) || defined(_M_X64)
; 242  : 
; 243  :     if (_Bytes != 0) {

  0030f	85 c0		 test	 eax, eax
  00311	74 0d		 je	 SHORT $LN177@WriteHybri

; 85   :         return ::operator new(_Bytes);

  00313	50		 push	 eax
  00314	e8 00 00 00 00	 call	 ??2@YAPAXI@Z		; operator new
  00319	83 c4 04	 add	 esp, 4

; 244  :         return _Traits::_Allocate(_Bytes);

  0031c	8b f8		 mov	 edi, eax
  0031e	eb 02		 jmp	 SHORT $LN175@WriteHybri
$LN177@WriteHybri:

; 245  :     }
; 246  : 
; 247  :     return nullptr;

  00320	33 ff		 xor	 edi, edi
$LN175@WriteHybri:
; File C:\Program Files (x86)\Microsoft Visual Studio\2019\Professional\VC\Tools\MSVC\14.29.30133\include\xstring

; 2950 :         _Traits::copy(_Unfancy(_New_array), _Right_ptr, _Right_size + 1);

  00322	8b 85 a0 fa ff
	ff		 mov	 eax, DWORD PTR __Right_size$1$[ebp]
  00328	40		 inc	 eax
  00329	89 bd d8 fb ff
	ff		 mov	 DWORD PTR $T8[ebp], edi

; 65   :         _CSTD memcpy(_First1, _First2, _Count * sizeof(_Elem));

  0032f	50		 push	 eax
  00330	ff b5 a4 fa ff
	ff		 push	 DWORD PTR __Result$1$[ebp]
  00336	57		 push	 edi
  00337	e8 00 00 00 00	 call	 _memcpy

; 2951 :         _My_data._Mysize = _Right_size;

  0033c	8b 85 a0 fa ff
	ff		 mov	 eax, DWORD PTR __Right_size$1$[ebp]

; 65   :         _CSTD memcpy(_First1, _First2, _Count * sizeof(_Elem));

  00342	83 c4 0c	 add	 esp, 12			; 0000000cH

; 2952 :         _My_data._Myres  = _New_capacity;

  00345	8b 95 9c fa ff
	ff		 mov	 edx, DWORD PTR $T4[ebp]
$LN352@WriteHybri:
; File C:\Users\murat\Desktop\Siveps2-1-99-Project\source\client\Client\EterPack\EterPackManager.cpp

; 573  : 		std::string noPathName = CFileNameHelper::NoPath(string(cit->first));

  0034b	89 95 ec fb ff
	ff		 mov	 DWORD PTR $T8[ebp+20], edx
  00351	89 85 e8 fb ff
	ff		 mov	 DWORD PTR $T8[ebp+16], eax
  00357	c6 45 fc 04	 mov	 BYTE PTR __$EHRec$[ebp+8], 4
; File C:\Users\murat\Desktop\Siveps2-1-99-Project\source\client\Client\eterBase\filename.h

; 348  : 	szPath[0] = '\0';

  0035b	c6 85 f0 fb ff
	ff 00		 mov	 BYTE PTR _szPath$10[ebp], 0

; 349  : 
; 350  : 	size_t nLength = str.length();
; 351  : 
; 352  : 	if (nLength > 0)

  00362	85 c0		 test	 eax, eax
  00364	0f 84 ea 00 00
	00		 je	 $LN185@WriteHybri
; File C:\Program Files (x86)\Microsoft Visual Studio\2019\Professional\VC\Tools\MSVC\14.29.30133\include\xstring

; 2306 :         if (_Large_string_engaged()) {

  0036a	83 fa 10	 cmp	 edx, 16			; 00000010H
  0036d	8d 8d d8 fb ff
	ff		 lea	 ecx, DWORD PTR $T8[ebp]

; 2308 :         }
; 2309 : 
; 2310 :         return _Result;

  00373	8d 85 f0 fb ff
	ff		 lea	 eax, DWORD PTR _szPath$10[ebp]
  00379	0f 43 cf	 cmovae	 ecx, edi
  0037c	2b c1		 sub	 eax, ecx
  0037e	89 85 a4 fa ff
	ff		 mov	 DWORD PTR tv1636[ebp], eax
  00384	8b f0		 mov	 esi, eax
$LL197@WriteHybri:
; File C:\Users\murat\Desktop\Siveps2-1-99-Project\source\client\Client\eterBase\filename.h

; 354  : 		strcpy(szPath, str.c_str());

  00386	8a 01		 mov	 al, BYTE PTR [ecx]
  00388	8d 49 01	 lea	 ecx, DWORD PTR [ecx+1]
  0038b	88 44 31 ff	 mov	 BYTE PTR [ecx+esi-1], al
  0038f	84 c0		 test	 al, al
  00391	75 f3		 jne	 SHORT $LL197@WriteHybri

; 355  : 
; 356  : 		for (size_t i = nLength - 1; i > 0; i--)

  00393	8b 85 a0 fa ff
	ff		 mov	 eax, DWORD PTR __Right_size$1$[ebp]
  00399	8b b5 98 fa ff
	ff		 mov	 esi, DWORD PTR _cit$2$[ebp]
  0039f	83 c0 ff	 add	 eax, -1
  003a2	0f 84 ac 00 00
	00		 je	 $LN185@WriteHybri
  003a8	0f 1f 84 00 00
	00 00 00	 npad	 8
$LL186@WriteHybri:
; File C:\Program Files (x86)\Microsoft Visual Studio\2019\Professional\VC\Tools\MSVC\14.29.30133\include\xstring

; 2297 :         if (_Large_string_engaged()) {

  003b0	83 fa 10	 cmp	 edx, 16			; 00000010H
  003b3	8d 8d d8 fb ff
	ff		 lea	 ecx, DWORD PTR $T8[ebp]
  003b9	0f 43 cf	 cmovae	 ecx, edi
; File C:\Users\murat\Desktop\Siveps2-1-99-Project\source\client\Client\eterBase\filename.h

; 358  : 			if (str[i] == '/' || str[i] == '\\')

  003bc	80 3c 01 2f	 cmp	 BYTE PTR [ecx+eax], 47	; 0000002fH
  003c0	74 1d		 je	 SHORT $LN192@WriteHybri
; File C:\Program Files (x86)\Microsoft Visual Studio\2019\Professional\VC\Tools\MSVC\14.29.30133\include\xstring

; 2297 :         if (_Large_string_engaged()) {

  003c2	83 fa 10	 cmp	 edx, 16			; 00000010H
  003c5	8d 8d d8 fb ff
	ff		 lea	 ecx, DWORD PTR $T8[ebp]
  003cb	0f 43 cf	 cmovae	 ecx, edi
; File C:\Users\murat\Desktop\Siveps2-1-99-Project\source\client\Client\eterBase\filename.h

; 358  : 			if (str[i] == '/' || str[i] == '\\')

  003ce	80 3c 01 5c	 cmp	 BYTE PTR [ecx+eax], 92	; 0000005cH
  003d2	74 0b		 je	 SHORT $LN192@WriteHybri

; 364  : 				break;
; 365  : 			}
; 366  : 
; 367  : 			if (0 == i)

  003d4	85 c0		 test	 eax, eax
  003d6	74 7c		 je	 SHORT $LN185@WriteHybri

; 355  : 
; 356  : 		for (size_t i = nLength - 1; i > 0; i--)

  003d8	83 e8 01	 sub	 eax, 1
  003db	75 d3		 jne	 SHORT $LL186@WriteHybri

; 364  : 				break;
; 365  : 			}
; 366  : 
; 367  : 			if (0 == i)

  003dd	eb 75		 jmp	 SHORT $LN185@WriteHybri
$LN192@WriteHybri:

; 359  : 			{
; 360  : 				int k = 0;
; 361  : 				for (size_t j = i + 1; j < nLength; j++, k++)

  003df	8d 48 01	 lea	 ecx, DWORD PTR [eax+1]
  003e2	8b 85 a0 fa ff
	ff		 mov	 eax, DWORD PTR __Right_size$1$[ebp]
  003e8	3b c8		 cmp	 ecx, eax
  003ea	73 5e		 jae	 SHORT $LN348@WriteHybri
  003ec	8d b5 f0 fb ff
	ff		 lea	 esi, DWORD PTR _szPath$10[ebp]
  003f2	2b f1		 sub	 esi, ecx
  003f4	2b c1		 sub	 eax, ecx
  003f6	89 b5 a4 fa ff
	ff		 mov	 DWORD PTR tv1638[ebp], esi
  003fc	89 85 8c fa ff
	ff		 mov	 DWORD PTR _k$1$[ebp], eax
  00402	0f 1f 40 00 66
	66 0f 1f 84 00
	00 00 00 00	 npad	 14
$LL189@WriteHybri:

; 362  : 					szPath[k] = str[j];

  00410	8b b5 a4 fa ff
	ff		 mov	 esi, DWORD PTR tv1638[ebp]
; File C:\Program Files (x86)\Microsoft Visual Studio\2019\Professional\VC\Tools\MSVC\14.29.30133\include\xstring

; 2296 :         value_type* _Result = _Bx._Buf;

  00416	8d 85 d8 fb ff
	ff		 lea	 eax, DWORD PTR $T8[ebp]

; 2297 :         if (_Large_string_engaged()) {

  0041c	83 fa 10	 cmp	 edx, 16			; 00000010H
  0041f	0f 43 c7	 cmovae	 eax, edi
; File C:\Users\murat\Desktop\Siveps2-1-99-Project\source\client\Client\eterBase\filename.h

; 362  : 					szPath[k] = str[j];

  00422	8a 04 08	 mov	 al, BYTE PTR [eax+ecx]
  00425	88 04 0e	 mov	 BYTE PTR [esi+ecx], al
  00428	41		 inc	 ecx
  00429	3b 8d a0 fa ff
	ff		 cmp	 ecx, DWORD PTR __Right_size$1$[ebp]
  0042f	72 df		 jb	 SHORT $LL189@WriteHybri

; 363  : 				szPath[k] = '\0';

  00431	8b 85 8c fa ff
	ff		 mov	 eax, DWORD PTR _k$1$[ebp]
  00437	8b b5 98 fa ff
	ff		 mov	 esi, DWORD PTR _cit$2$[ebp]
  0043d	3d 00 04 00 00	 cmp	 eax, 1024		; 00000400H
  00442	0f 83 45 02 00
	00		 jae	 $LN198@WriteHybri
  00448	eb 02		 jmp	 SHORT $LN344@WriteHybri
$LN348@WriteHybri:

; 359  : 			{
; 360  : 				int k = 0;
; 361  : 				for (size_t j = i + 1; j < nLength; j++, k++)

  0044a	33 c0		 xor	 eax, eax
$LN344@WriteHybri:

; 363  : 				szPath[k] = '\0';

  0044c	c6 84 05 f0 fb
	ff ff 00	 mov	 BYTE PTR _szPath$10[ebp+eax], 0
$LN185@WriteHybri:
; File C:\Program Files (x86)\Microsoft Visual Studio\2019\Professional\VC\Tools\MSVC\14.29.30133\include\xstring

; 412  :         return _CSTD strlen(reinterpret_cast<const char*>(_First));

  00454	8d 8d f0 fb ff
	ff		 lea	 ecx, DWORD PTR _szPath$10[ebp]

; 2346 :         _CONSTEXPR20_CONTAINER _Bxty() noexcept : _Ptr() {} // user-provided, for fancy pointers

  0045a	c7 85 c0 fb ff
	ff 00 00 00 00	 mov	 DWORD PTR _noPathName$6[ebp], 0

; 4596 :         _My_data._Mysize = 0;

  00464	c7 85 d0 fb ff
	ff 00 00 00 00	 mov	 DWORD PTR _noPathName$6[ebp+16], 0

; 412  :         return _CSTD strlen(reinterpret_cast<const char*>(_First));

  0046e	8d 51 01	 lea	 edx, DWORD PTR [ecx+1]

; 4610 :             _My_data._Myres = _BUF_SIZE - 1;

  00471	c7 85 d4 fb ff
	ff 0f 00 00 00	 mov	 DWORD PTR _noPathName$6[ebp+20], 15 ; 0000000fH

; 4611 :             // the _Traits::assign is last so the codegen doesn't think the char write can alias this
; 4612 :             _Traits::assign(_My_data._Bx._Buf[0], _Elem());

  0047b	c6 85 c0 fb ff
	ff 00		 mov	 BYTE PTR _noPathName$6[ebp], 0
$LL347@WriteHybri:

; 412  :         return _CSTD strlen(reinterpret_cast<const char*>(_First));

  00482	8a 01		 mov	 al, BYTE PTR [ecx]
  00484	41		 inc	 ecx
  00485	84 c0		 test	 al, al
  00487	75 f9		 jne	 SHORT $LL347@WriteHybri
  00489	2b ca		 sub	 ecx, edx

; 3264 :         return assign(_Ptr, _Convert_size<size_type>(_Traits::length(_Ptr)));

  0048b	8d 85 f0 fb ff
	ff		 lea	 eax, DWORD PTR _szPath$10[ebp]
  00491	51		 push	 ecx
  00492	50		 push	 eax
  00493	8d 8d c0 fb ff
	ff		 lea	 ecx, DWORD PTR _noPathName$6[ebp]
  00499	e8 00 00 00 00	 call	 ?assign@?$basic_string@DU?$char_traits@D@std@@V?$allocator@D@2@@std@@QAEAAV12@QBDI@Z ; std::basic_string<char,std::char_traits<char>,std::allocator<char> >::assign

; 4618 :         if (_Mypair._Myval2._Large_string_engaged()) {

  0049e	8b 85 9c fa ff
	ff		 mov	 eax, DWORD PTR $T4[ebp]
; File C:\Users\murat\Desktop\Siveps2-1-99-Project\source\client\Client\EterPack\EterPackManager.cpp

; 573  : 		std::string noPathName = CFileNameHelper::NoPath(string(cit->first));

  004a4	c6 45 fc 06	 mov	 BYTE PTR __$EHRec$[ebp+8], 6
; File C:\Program Files (x86)\Microsoft Visual Studio\2019\Professional\VC\Tools\MSVC\14.29.30133\include\xstring

; 4618 :         if (_Mypair._Myval2._Large_string_engaged()) {

  004a8	83 f8 10	 cmp	 eax, 16			; 00000010H
  004ab	72 2b		 jb	 SHORT $LN258@WriteHybri

; 4622 :             _Al.deallocate(_Ptr, _Mypair._Myval2._Myres + 1);

  004ad	8d 48 01	 lea	 ecx, DWORD PTR [eax+1]
; File C:\Program Files (x86)\Microsoft Visual Studio\2019\Professional\VC\Tools\MSVC\14.29.30133\include\xmemory

; 835  :         _Deallocate<_New_alignof<_Ty>>(_Ptr, sizeof(_Ty) * _Count);

  004b0	8b c7		 mov	 eax, edi

; 260  :         if (_Bytes >= _Big_allocation_threshold) { // boost the alignment of big allocations to help autovectorization

  004b2	81 f9 00 10 00
	00		 cmp	 ecx, 4096		; 00001000H
  004b8	72 14		 jb	 SHORT $LN268@WriteHybri

; 158  :     const uintptr_t _Ptr_container   = _Ptr_user[-1];

  004ba	8b 7f fc	 mov	 edi, DWORD PTR [edi-4]
  004bd	83 c1 23	 add	 ecx, 35			; 00000023H
  004c0	2b c7		 sub	 eax, edi

; 159  : 
; 160  :     // If the following asserts, it likely means that we are performing
; 161  :     // an aligned delete on memory coming from an unaligned allocation.
; 162  :     _STL_ASSERT(_Ptr_user[-2] == _Big_allocation_sentinel, "invalid argument");
; 163  : 
; 164  :     // Extra paranoia on aligned allocation/deallocation; ensure _Ptr_container is
; 165  :     // in range [_Min_back_shift, _Non_user_size]
; 166  : #ifdef _DEBUG
; 167  :     constexpr uintptr_t _Min_back_shift = 2 * sizeof(void*);
; 168  : #else // ^^^ _DEBUG ^^^ // vvv !_DEBUG vvv
; 169  :     constexpr uintptr_t _Min_back_shift = sizeof(void*);
; 170  : #endif // _DEBUG
; 171  :     const uintptr_t _Back_shift = reinterpret_cast<uintptr_t>(_Ptr) - _Ptr_container;
; 172  :     _STL_VERIFY(_Back_shift >= _Min_back_shift && _Back_shift <= _Non_user_size, "invalid argument");

  004c2	83 c0 fc	 add	 eax, -4			; fffffffcH
  004c5	83 f8 1f	 cmp	 eax, 31			; 0000001fH
  004c8	0f 87 ba 01 00
	00		 ja	 $LN69@WriteHybri
$LN268@WriteHybri:

; 264  :         ::operator delete(_Ptr, _Bytes);

  004ce	51		 push	 ecx
  004cf	57		 push	 edi
  004d0	e8 00 00 00 00	 call	 ??3@YAXPAXI@Z		; operator delete
  004d5	83 c4 08	 add	 esp, 8
$LN258@WriteHybri:
; File C:\Program Files (x86)\Microsoft Visual Studio\2019\Professional\VC\Tools\MSVC\14.29.30133\include\xstring

; 2306 :         if (_Large_string_engaged()) {

  004d8	83 bd d4 fb ff
	ff 10		 cmp	 DWORD PTR _noPathName$6[ebp+20], 16 ; 00000010H
  004df	8d 8d c0 fb ff
	ff		 lea	 ecx, DWORD PTR _noPathName$6[ebp]
  004e5	8b 85 c0 fb ff
	ff		 mov	 eax, DWORD PTR _noPathName$6[ebp]
; File C:\Users\murat\Desktop\Siveps2-1-99-Project\source\client\Client\eterBase\Stl.h

; 478  :        const unsigned char * end = s + str.size();

  004eb	8b bd d0 fb ff
	ff		 mov	 edi, DWORD PTR _noPathName$6[ebp+16]
; File C:\Program Files (x86)\Microsoft Visual Studio\2019\Professional\VC\Tools\MSVC\14.29.30133\include\xstring

; 2306 :         if (_Large_string_engaged()) {

  004f1	0f 43 c8	 cmovae	 ecx, eax
; File C:\Users\murat\Desktop\Siveps2-1-99-Project\source\client\Client\eterBase\Stl.h

; 478  :        const unsigned char * end = s + str.size();

  004f4	03 f9		 add	 edi, ecx
; File C:\Program Files (x86)\Microsoft Visual Studio\2019\Professional\VC\Tools\MSVC\14.29.30133\include\xstring

; 2306 :         if (_Large_string_engaged()) {

  004f6	89 85 8c fa ff
	ff		 mov	 DWORD PTR __Ptr$1$[ebp], eax
; File C:\Users\murat\Desktop\Siveps2-1-99-Project\source\client\Client\eterBase\Stl.h

; 479  :        size_t h = 0;

  004fc	33 d2		 xor	 edx, edx

; 481  :        while (s < end)

  004fe	3b cf		 cmp	 ecx, edi
  00500	73 10		 jae	 SHORT $LN275@WriteHybri
$LL328@WriteHybri:

; 482  :        {
; 483  :            h *= 16777619;
; 484  :            h ^= (unsigned char) *(unsigned char *) (s++);

  00502	0f b6 01	 movzx	 eax, BYTE PTR [ecx]
  00505	41		 inc	 ecx
  00506	69 d2 93 01 00
	01		 imul	 edx, edx, 16777619
  0050c	33 d0		 xor	 edx, eax
  0050e	3b cf		 cmp	 ecx, edi
  00510	72 f0		 jb	 SHORT $LL328@WriteHybri
$LN275@WriteHybri:
; File C:\Users\murat\Desktop\Siveps2-1-99-Project\source\client\Client\EterPack\EterPackManager.cpp

; 576  : 		keyFile.Write( &dwPackNamehash, sizeof(DWORD) );

  00512	6a 04		 push	 4
  00514	8d 85 84 fa ff
	ff		 lea	 eax, DWORD PTR _dwPackNamehash$3[ebp]
  0051a	89 95 84 fa ff
	ff		 mov	 DWORD PTR _dwPackNamehash$3[ebp], edx
  00520	50		 push	 eax
  00521	8d 8d a8 fa ff
	ff		 lea	 ecx, DWORD PTR _keyFile$[ebp]
  00527	e8 00 00 00 00	 call	 ?Write@CFileBase@@UAEHPBXH@Z ; CFileBase::Write

; 577  : 
; 578  : 		int iSDBSizeWriteOffset = keyFile.GetPosition();

  0052c	8d 8d a8 fa ff
	ff		 lea	 ecx, DWORD PTR _keyFile$[ebp]
  00532	e8 00 00 00 00	 call	 ?GetPosition@CFileBase@@QAEKXZ ; CFileBase::GetPosition

; 579  : 		keyFile.SeekCur(sizeof(int));

  00537	6a 04		 push	 4
  00539	8d 8d a8 fa ff
	ff		 lea	 ecx, DWORD PTR _keyFile$[ebp]
  0053f	89 85 a4 fa ff
	ff		 mov	 DWORD PTR _iSDBSizeWriteOffset$1$[ebp], eax
  00545	e8 00 00 00 00	 call	 ?SeekCur@CFileBase@@QAEXK@Z ; CFileBase::SeekCur

; 580  : 
; 581  : 		pPolicy->WriteSupplementaryDataBlockToFile( keyFile );

  0054a	8b 8d 80 fa ff
	ff		 mov	 ecx, DWORD PTR _pPolicy$1$[ebp]
  00550	8d 85 a8 fa ff
	ff		 lea	 eax, DWORD PTR _keyFile$[ebp]
  00556	50		 push	 eax
  00557	e8 00 00 00 00	 call	 ?WriteSupplementaryDataBlockToFile@EterPackPolicy_CSHybridCrypt@@QAEXAAVCFileBase@@@Z ; EterPackPolicy_CSHybridCrypt::WriteSupplementaryDataBlockToFile

; 582  : 		int iSDBSizeAfterWrite = keyFile.GetPosition();

  0055c	8d 8d a8 fa ff
	ff		 lea	 ecx, DWORD PTR _keyFile$[ebp]
  00562	e8 00 00 00 00	 call	 ?GetPosition@CFileBase@@QAEKXZ ; CFileBase::GetPosition

; 583  : 
; 584  : 		keyFile.Seek(iSDBSizeWriteOffset);

  00567	ff b5 a4 fa ff
	ff		 push	 DWORD PTR _iSDBSizeWriteOffset$1$[ebp]
  0056d	8d 8d a8 fa ff
	ff		 lea	 ecx, DWORD PTR _keyFile$[ebp]
  00573	8b f8		 mov	 edi, eax
  00575	e8 00 00 00 00	 call	 ?Seek@CFileBase@@QAEXK@Z ; CFileBase::Seek

; 585  : 
; 586  : 		int iSDBSize = iSDBSizeAfterWrite-(iSDBSizeWriteOffset+4);

  0057a	8b cf		 mov	 ecx, edi

; 587  : 		keyFile.Write( &iSDBSize, sizeof(int) );

  0057c	8d 85 7c fa ff
	ff		 lea	 eax, DWORD PTR _iSDBSize$2[ebp]
  00582	2b 8d a4 fa ff
	ff		 sub	 ecx, DWORD PTR _iSDBSizeWriteOffset$1$[ebp]
  00588	83 e9 04	 sub	 ecx, 4
  0058b	6a 04		 push	 4
  0058d	89 8d 7c fa ff
	ff		 mov	 DWORD PTR _iSDBSize$2[ebp], ecx
  00593	8d 8d a8 fa ff
	ff		 lea	 ecx, DWORD PTR _keyFile$[ebp]
  00599	50		 push	 eax
  0059a	e8 00 00 00 00	 call	 ?Write@CFileBase@@UAEHPBXH@Z ; CFileBase::Write

; 588  : 
; 589  : 		keyFile.Seek(iSDBSizeAfterWrite);

  0059f	57		 push	 edi
  005a0	8d 8d a8 fa ff
	ff		 lea	 ecx, DWORD PTR _keyFile$[ebp]
  005a6	e8 00 00 00 00	 call	 ?Seek@CFileBase@@QAEXK@Z ; CFileBase::Seek
; File C:\Program Files (x86)\Microsoft Visual Studio\2019\Professional\VC\Tools\MSVC\14.29.30133\include\xstring

; 2319 :         return _BUF_SIZE <= _Myres;

  005ab	8b 85 d4 fb ff
	ff		 mov	 eax, DWORD PTR _noPathName$6[ebp+20]
; File C:\Users\murat\Desktop\Siveps2-1-99-Project\source\client\Client\EterPack\EterPackManager.cpp

; 590  : 	}

  005b1	c6 45 fc 00	 mov	 BYTE PTR __$EHRec$[ebp+8], 0
; File C:\Program Files (x86)\Microsoft Visual Studio\2019\Professional\VC\Tools\MSVC\14.29.30133\include\xstring

; 2319 :         return _BUF_SIZE <= _Myres;

  005b5	83 f8 10	 cmp	 eax, 16			; 00000010H

; 4618 :         if (_Mypair._Myval2._Large_string_engaged()) {

  005b8	72 31		 jb	 SHORT $LN5@WriteHybri
; File C:\Program Files (x86)\Microsoft Visual Studio\2019\Professional\VC\Tools\MSVC\14.29.30133\include\xmemory

; 835  :         _Deallocate<_New_alignof<_Ty>>(_Ptr, sizeof(_Ty) * _Count);

  005ba	8b 8d 8c fa ff
	ff		 mov	 ecx, DWORD PTR __Ptr$1$[ebp]
; File C:\Program Files (x86)\Microsoft Visual Studio\2019\Professional\VC\Tools\MSVC\14.29.30133\include\xstring

; 4622 :             _Al.deallocate(_Ptr, _Mypair._Myval2._Myres + 1);

  005c0	8d 50 01	 lea	 edx, DWORD PTR [eax+1]
; File C:\Program Files (x86)\Microsoft Visual Studio\2019\Professional\VC\Tools\MSVC\14.29.30133\include\xmemory

; 835  :         _Deallocate<_New_alignof<_Ty>>(_Ptr, sizeof(_Ty) * _Count);

  005c3	8b c1		 mov	 eax, ecx

; 260  :         if (_Bytes >= _Big_allocation_threshold) { // boost the alignment of big allocations to help autovectorization

  005c5	81 fa 00 10 00
	00		 cmp	 edx, 4096		; 00001000H
  005cb	72 14		 jb	 SHORT $LN306@WriteHybri

; 158  :     const uintptr_t _Ptr_container   = _Ptr_user[-1];

  005cd	8b 49 fc	 mov	 ecx, DWORD PTR [ecx-4]
  005d0	83 c2 23	 add	 edx, 35			; 00000023H
  005d3	2b c1		 sub	 eax, ecx

; 159  : 
; 160  :     // If the following asserts, it likely means that we are performing
; 161  :     // an aligned delete on memory coming from an unaligned allocation.
; 162  :     _STL_ASSERT(_Ptr_user[-2] == _Big_allocation_sentinel, "invalid argument");
; 163  : 
; 164  :     // Extra paranoia on aligned allocation/deallocation; ensure _Ptr_container is
; 165  :     // in range [_Min_back_shift, _Non_user_size]
; 166  : #ifdef _DEBUG
; 167  :     constexpr uintptr_t _Min_back_shift = 2 * sizeof(void*);
; 168  : #else // ^^^ _DEBUG ^^^ // vvv !_DEBUG vvv
; 169  :     constexpr uintptr_t _Min_back_shift = sizeof(void*);
; 170  : #endif // _DEBUG
; 171  :     const uintptr_t _Back_shift = reinterpret_cast<uintptr_t>(_Ptr) - _Ptr_container;
; 172  :     _STL_VERIFY(_Back_shift >= _Min_back_shift && _Back_shift <= _Non_user_size, "invalid argument");

  005d5	83 c0 fc	 add	 eax, -4			; fffffffcH
  005d8	83 f8 1f	 cmp	 eax, 31			; 0000001fH
  005db	0f 87 a7 00 00
	00		 ja	 $LN69@WriteHybri
$LN306@WriteHybri:

; 264  :         ::operator delete(_Ptr, _Bytes);

  005e1	52		 push	 edx
  005e2	51		 push	 ecx
  005e3	e8 00 00 00 00	 call	 ??3@YAXPAXI@Z		; operator delete
  005e8	83 c4 08	 add	 esp, 8
$LN5@WriteHybri:
; File C:\Users\murat\Desktop\Siveps2-1-99-Project\source\client\extern\include\boost\unordered\detail\implementation.hpp

; 2439 :           node_ = static_cast<node_pointer>(node_->next_);

  005eb	8b 36		 mov	 esi, DWORD PTR [esi]
  005ed	89 b5 98 fa ff
	ff		 mov	 DWORD PTR _cit$2$[ebp], esi

; 2459 :           return x.node_ != y.node_;

  005f3	85 f6		 test	 esi, esi
; File C:\Users\murat\Desktop\Siveps2-1-99-Project\source\client\Client\EterPack\EterPackManager.cpp

; 565  : 	for( cit = m_PackMap.begin(); cit != m_PackMap.end(); ++cit )

  005f5	0f 85 7c fc ff
	ff		 jne	 $LL7@WriteHybri
$LN346@WriteHybri:

; 591  : 
; 592  : 	//write sdb data start offset & package cnt
; 593  : 	keyFile.Seek(0);

  005fb	6a 00		 push	 0
  005fd	8d 8d a8 fa ff
	ff		 lea	 ecx, DWORD PTR _keyFile$[ebp]
  00603	e8 00 00 00 00	 call	 ?Seek@CFileBase@@QAEXK@Z ; CFileBase::Seek

; 594  : 	keyFile.Write( &iSDBDataOffset, sizeof(int));

  00608	6a 04		 push	 4
  0060a	8d 85 88 fa ff
	ff		 lea	 eax, DWORD PTR _iSDBDataOffset$[ebp]
  00610	50		 push	 eax
  00611	8d 8d a8 fa ff
	ff		 lea	 ecx, DWORD PTR _keyFile$[ebp]
  00617	e8 00 00 00 00	 call	 ?Write@CFileBase@@UAEHPBXH@Z ; CFileBase::Write

; 595  : 	keyFile.Write( &iKeyPackageCount, sizeof(int));

  0061c	6a 04		 push	 4
  0061e	8d 85 94 fa ff
	ff		 lea	 eax, DWORD PTR _iKeyPackageCount$[ebp]
  00624	50		 push	 eax
  00625	8d 8d a8 fa ff
	ff		 lea	 ecx, DWORD PTR _keyFile$[ebp]
  0062b	e8 00 00 00 00	 call	 ?Write@CFileBase@@UAEHPBXH@Z ; CFileBase::Write

; 596  : 
; 597  : 	keyFile.Seek(iSDBDataOffset);

  00630	ff b5 88 fa ff
	ff		 push	 DWORD PTR _iSDBDataOffset$[ebp]
  00636	8d 8d a8 fa ff
	ff		 lea	 ecx, DWORD PTR _keyFile$[ebp]
  0063c	e8 00 00 00 00	 call	 ?Seek@CFileBase@@QAEXK@Z ; CFileBase::Seek

; 598  : 	keyFile.Write( &iSDBPackageCnt, sizeof(int));

  00641	6a 04		 push	 4
  00643	8d 85 90 fa ff
	ff		 lea	 eax, DWORD PTR _iSDBPackageCnt$[ebp]
  00649	50		 push	 eax
  0064a	8d 8d a8 fa ff
	ff		 lea	 ecx, DWORD PTR _keyFile$[ebp]
  00650	e8 00 00 00 00	 call	 ?Write@CFileBase@@UAEHPBXH@Z ; CFileBase::Write

; 599  : 
; 600  : 	keyFile.Close();

  00655	8d 8d a8 fa ff
	ff		 lea	 ecx, DWORD PTR _keyFile$[ebp]
  0065b	e8 00 00 00 00	 call	 ?Close@CFileBase@@QAEXXZ ; CFileBase::Close
$LN19@WriteHybri:

; 601  : }

  00660	8d 8d a8 fa ff
	ff		 lea	 ecx, DWORD PTR _keyFile$[ebp]
  00666	e8 00 00 00 00	 call	 ??1CFileBase@@UAE@XZ	; CFileBase::~CFileBase
  0066b	8b 4d f4	 mov	 ecx, DWORD PTR __$EHRec$[ebp]
  0066e	64 89 0d 00 00
	00 00		 mov	 DWORD PTR fs:0, ecx
  00675	59		 pop	 ecx
  00676	5f		 pop	 edi
  00677	5e		 pop	 esi
  00678	8b 4d f0	 mov	 ecx, DWORD PTR __$ArrayPad$[ebp]
  0067b	33 cd		 xor	 ecx, ebp
  0067d	e8 00 00 00 00	 call	 @__security_check_cookie@4
  00682	8b e5		 mov	 esp, ebp
  00684	5d		 pop	 ebp
  00685	c2 04 00	 ret	 4
$LN69@WriteHybri:
  00688	e8 00 00 00 00	 call	 __invalid_parameter_noinfo_noreturn
$LN198@WriteHybri:
; File C:\Users\murat\Desktop\Siveps2-1-99-Project\source\client\Client\eterBase\filename.h

; 363  : 				szPath[k] = '\0';

  0068d	e8 00 00 00 00	 call	 ___report_rangecheckfailure
$LN351@WriteHybri:
  00692	cc		 int	 3
_TEXT	ENDS
;	COMDAT text$x
text$x	SEGMENT
__unwindfunclet$?WriteHybridCryptPackInfo@CEterPackManager@@QAEXPBD@Z$0:
  00000	8d 8d a8 fa ff
	ff		 lea	 ecx, DWORD PTR _keyFile$[ebp]
  00006	e9 00 00 00 00	 jmp	 ??1CFileBase@@UAE@XZ	; CFileBase::~CFileBase
__unwindfunclet$?WriteHybridCryptPackInfo@CEterPackManager@@QAEXPBD@Z$1:
  0000b	8d 8d c0 fb ff
	ff		 lea	 ecx, DWORD PTR $T7[ebp]
  00011	e9 00 00 00 00	 jmp	 ??1?$basic_string@DU?$char_traits@D@std@@V?$allocator@D@2@@std@@QAE@XZ ; std::basic_string<char,std::char_traits<char>,std::allocator<char> >::~basic_string<char,std::char_traits<char>,std::allocator<char> >
__unwindfunclet$?WriteHybridCryptPackInfo@CEterPackManager@@QAEXPBD@Z$2:
  00016	8d 8d d8 fb ff
	ff		 lea	 ecx, DWORD PTR _noPathName$9[ebp]
  0001c	e9 00 00 00 00	 jmp	 ??1?$basic_string@DU?$char_traits@D@std@@V?$allocator@D@2@@std@@QAE@XZ ; std::basic_string<char,std::char_traits<char>,std::allocator<char> >::~basic_string<char,std::char_traits<char>,std::allocator<char> >
__unwindfunclet$?WriteHybridCryptPackInfo@CEterPackManager@@QAEXPBD@Z$3:
  00021	8d 8d d8 fb ff
	ff		 lea	 ecx, DWORD PTR $T8[ebp]
  00027	e9 00 00 00 00	 jmp	 ??1?$basic_string@DU?$char_traits@D@std@@V?$allocator@D@2@@std@@QAE@XZ ; std::basic_string<char,std::char_traits<char>,std::allocator<char> >::~basic_string<char,std::char_traits<char>,std::allocator<char> >
__unwindfunclet$?WriteHybridCryptPackInfo@CEterPackManager@@QAEXPBD@Z$4:
  0002c	8d 8d c0 fb ff
	ff		 lea	 ecx, DWORD PTR _noPathName$6[ebp]
  00032	e9 00 00 00 00	 jmp	 ??1?$basic_string@DU?$char_traits@D@std@@V?$allocator@D@2@@std@@QAE@XZ ; std::basic_string<char,std::char_traits<char>,std::allocator<char> >::~basic_string<char,std::char_traits<char>,std::allocator<char> >
  00037	cc		 int	 3
  00038	cc		 int	 3
  00039	cc		 int	 3
  0003a	cc		 int	 3
  0003b	cc		 int	 3
__ehhandler$?WriteHybridCryptPackInfo@CEterPackManager@@QAEXPBD@Z:
  0003c	90		 npad	 1
  0003d	90		 npad	 1
  0003e	8b 54 24 08	 mov	 edx, DWORD PTR [esp+8]
  00042	8d 42 0c	 lea	 eax, DWORD PTR [edx+12]
  00045	8b 8a 7c fa ff
	ff		 mov	 ecx, DWORD PTR [edx-1412]
  0004b	33 c8		 xor	 ecx, eax
  0004d	e8 00 00 00 00	 call	 @__security_check_cookie@4
  00052	8b 4a fc	 mov	 ecx, DWORD PTR [edx-4]
  00055	33 c8		 xor	 ecx, eax
  00057	e8 00 00 00 00	 call	 @__security_check_cookie@4
  0005c	b8 00 00 00 00	 mov	 eax, OFFSET __ehfuncinfo$?WriteHybridCryptPackInfo@CEterPackManager@@QAEXPBD@Z
  00061	e9 00 00 00 00	 jmp	 ___CxxFrameHandler3
text$x	ENDS
?WriteHybridCryptPackInfo@CEterPackManager@@QAEXPBD@Z ENDP ; CEterPackManager::WriteHybridCryptPackInfo
; Function compile flags: /Ogtp
; File C:\Users\murat\Desktop\Siveps2-1-99-Project\source\client\Client\EterPack\EterPackManager.cpp
;	COMDAT ?GetRootPackFileName@CEterPackManager@@QAEPBDXZ
_TEXT	SEGMENT
?GetRootPackFileName@CEterPackManager@@QAEPBDXZ PROC	; CEterPackManager::GetRootPackFileName, COMDAT
; _this$ = ecx

; 318  : 	return m_RootPack.GetDBName();

  00000	83 c1 24	 add	 ecx, 36			; 00000024H
  00003	e9 00 00 00 00	 jmp	 ?GetDBName@CEterPack@@QAEPBDXZ ; CEterPack::GetDBName
?GetRootPackFileName@CEterPackManager@@QAEPBDXZ ENDP	; CEterPackManager::GetRootPackFileName
_TEXT	ENDS
; Function compile flags: /Ogtp
; File C:\Users\murat\Desktop\Siveps2-1-99-Project\source\client\Client\EterPack\EterPackManager.cpp
; File C:\Users\murat\Desktop\Siveps2-1-99-Project\source\client\extern\include\boost\unordered\detail\implementation.hpp
; File C:\Users\murat\Desktop\Siveps2-1-99-Project\source\client\Client\EterPack\EterPackManager.cpp
; File C:\Users\murat\Desktop\Siveps2-1-99-Project\source\client\extern\include\boost\unordered\detail\implementation.hpp
; File C:\Users\murat\Desktop\Siveps2-1-99-Project\source\client\Client\EterPack\EterPackManager.cpp
;	COMDAT ?DecryptPackIV@CEterPackManager@@QAE_NK@Z
_TEXT	SEGMENT
_dwPanamaKey$ = 8					; size = 4
?DecryptPackIV@CEterPackManager@@QAE_NK@Z PROC		; CEterPackManager::DecryptPackIV, COMDAT
; _this$ = ecx

; 322  : {

  00000	55		 push	 ebp
  00001	8b ec		 mov	 ebp, esp
; File C:\Users\murat\Desktop\Siveps2-1-99-Project\source\client\extern\include\boost\unordered\detail\implementation.hpp

; 3041 :           return size_ ? next_node(get_previous_start()) : node_pointer();

  00003	83 b9 20 14 00
	00 00		 cmp	 DWORD PTR [ecx+5152], 0
  0000a	74 36		 je	 SHORT $LN34@DecryptPac

; 3026 :           return buckets_ + static_cast<std::ptrdiff_t>(bucket_index);

  0000c	8b 81 1c 14 00
	00		 mov	 eax, DWORD PTR [ecx+5148]
  00012	56		 push	 esi

; 3041 :           return size_ ? next_node(get_previous_start()) : node_pointer();

  00013	8b b1 2c 14 00
	00		 mov	 esi, DWORD PTR [ecx+5164]
  00019	8b 34 86	 mov	 esi, DWORD PTR [esi+eax*4]

; 2368 :         iterator() BOOST_NOEXCEPT : node_() {}

  0001c	85 f6		 test	 esi, esi
; File C:\Users\murat\Desktop\Siveps2-1-99-Project\source\client\Client\EterPack\EterPackManager.cpp

; 324  : 	while (itor != m_PackMap.end())

  0001e	74 1b		 je	 SHORT $LN33@DecryptPac
  00020	57		 push	 edi
  00021	8b 7d 08	 mov	 edi, DWORD PTR _dwPanamaKey$[ebp]
$LL2@DecryptPac:

; 325  : 	{
; 326  : 		itor->second->DecryptIV(dwPanamaKey);

  00024	8b 4e 20	 mov	 ecx, DWORD PTR [esi+32]
  00027	57		 push	 edi
  00028	e8 00 00 00 00	 call	 ?DecryptIV@CEterPack@@QAE_NK@Z ; CEterPack::DecryptIV
; File C:\Users\murat\Desktop\Siveps2-1-99-Project\source\client\extern\include\boost\unordered\detail\implementation.hpp

; 2388 :           node_ = static_cast<node_pointer>(node_->next_);

  0002d	8b 36		 mov	 esi, DWORD PTR [esi]

; 2399 :           return node_ != x.node_;

  0002f	85 f6		 test	 esi, esi
; File C:\Users\murat\Desktop\Siveps2-1-99-Project\source\client\Client\EterPack\EterPackManager.cpp

; 324  : 	while (itor != m_PackMap.end())

  00031	75 f1		 jne	 SHORT $LL2@DecryptPac

; 327  : 		itor++;
; 328  : 	}
; 329  : 	return true;

  00033	5f		 pop	 edi
  00034	b0 01		 mov	 al, 1
  00036	5e		 pop	 esi

; 330  : }

  00037	5d		 pop	 ebp
  00038	c2 04 00	 ret	 4
$LN33@DecryptPac:

; 327  : 		itor++;
; 328  : 	}
; 329  : 	return true;

  0003b	b0 01		 mov	 al, 1
  0003d	5e		 pop	 esi

; 330  : }

  0003e	5d		 pop	 ebp
  0003f	c2 04 00	 ret	 4
$LN34@DecryptPac:

; 327  : 		itor++;
; 328  : 	}
; 329  : 	return true;

  00042	b0 01		 mov	 al, 1

; 330  : }

  00044	5d		 pop	 ebp
  00045	c2 04 00	 ret	 4
?DecryptPackIV@CEterPackManager@@QAE_NK@Z ENDP		; CEterPackManager::DecryptPackIV
_TEXT	ENDS
; Function compile flags: /Ogtp
; File C:\Users\murat\Desktop\Siveps2-1-99-Project\source\client\Client\EterPack\EterPackManager.cpp
; File C:\Program Files (x86)\Microsoft Visual Studio\2019\Professional\VC\Tools\MSVC\14.29.30133\include\xstring
; File C:\Users\murat\Desktop\Siveps2-1-99-Project\source\client\Client\EterPack\EterPackManager.cpp
; File C:\Program Files (x86)\Microsoft Visual Studio\2019\Professional\VC\Tools\MSVC\14.29.30133\include\xstring
; File C:\Program Files (x86)\Microsoft Visual Studio\2019\Professional\VC\Tools\MSVC\14.29.30133\include\utility
; File C:\Users\murat\Desktop\Siveps2-1-99-Project\source\client\extern\include\boost\unordered\unordered_map.hpp
; File C:\Users\murat\Desktop\Siveps2-1-99-Project\source\client\Client\EterPack\EterPackManager.cpp
; File C:\Users\murat\Desktop\Siveps2-1-99-Project\source\client\extern\include\boost\unordered\unordered_map.hpp
; File C:\Program Files (x86)\Microsoft Visual Studio\2019\Professional\VC\Tools\MSVC\14.29.30133\include\xstring
; File C:\Users\murat\Desktop\Siveps2-1-99-Project\source\client\Client\EterPack\EterPackManager.cpp
; File C:\Program Files (x86)\Microsoft Visual Studio\2019\Professional\VC\Tools\MSVC\14.29.30133\include\xstring
; File C:\Program Files (x86)\Microsoft Visual Studio\2019\Professional\VC\Tools\MSVC\14.29.30133\include\xmemory
; File C:\Program Files (x86)\Microsoft Visual Studio\2019\Professional\VC\Tools\MSVC\14.29.30133\include\xstring
; File C:\Program Files (x86)\Microsoft Visual Studio\2019\Professional\VC\Tools\MSVC\14.29.30133\include\xmemory
; File C:\Users\murat\Desktop\Siveps2-1-99-Project\source\client\Client\EterPack\EterPackManager.cpp
; File C:\Program Files (x86)\Microsoft Visual Studio\2019\Professional\VC\Tools\MSVC\14.29.30133\include\xstring
; File C:\Program Files (x86)\Microsoft Visual Studio\2019\Professional\VC\Tools\MSVC\14.29.30133\include\utility
; File C:\Users\murat\Desktop\Siveps2-1-99-Project\source\client\extern\include\boost\unordered\unordered_map.hpp
; File C:\Users\murat\Desktop\Siveps2-1-99-Project\source\client\Client\EterPack\EterPackManager.cpp
; File C:\Users\murat\Desktop\Siveps2-1-99-Project\source\client\extern\include\boost\unordered\unordered_map.hpp
; File C:\Program Files (x86)\Microsoft Visual Studio\2019\Professional\VC\Tools\MSVC\14.29.30133\include\xstring
; File C:\Program Files (x86)\Microsoft Visual Studio\2019\Professional\VC\Tools\MSVC\14.29.30133\include\xmemory
; File C:\Program Files (x86)\Microsoft Visual Studio\2019\Professional\VC\Tools\MSVC\14.29.30133\include\xstring
; File C:\Program Files (x86)\Microsoft Visual Studio\2019\Professional\VC\Tools\MSVC\14.29.30133\include\xmemory
; File C:\Users\murat\Desktop\Siveps2-1-99-Project\source\client\Client\EterPack\EterPackManager.cpp
; File C:\Program Files (x86)\Microsoft Visual Studio\2019\Professional\VC\Tools\MSVC\14.29.30133\include\xmemory
; File C:\Users\murat\Desktop\Siveps2-1-99-Project\source\client\Client\EterPack\EterPackManager.cpp
;	COMDAT ?RegisterPackWhenPackMaking@CEterPackManager@@QAE_NPBD0PAVCEterPack@@@Z
_TEXT	SEGMENT
$T2 = -52						; size = 8
$T3 = -52						; size = 8
$T4 = -44						; size = 28
$T5 = -44						; size = 28
__$ArrayPad$ = -16					; size = 4
__$EHRec$ = -12						; size = 12
_c_szName$ = 8						; size = 4
_c_szDirectory$ = 12					; size = 4
_pPack$ = 16						; size = 4
?RegisterPackWhenPackMaking@CEterPackManager@@QAE_NPBD0PAVCEterPack@@@Z PROC ; CEterPackManager::RegisterPackWhenPackMaking, COMDAT
; _this$ = ecx

; 333  : {

  00000	55		 push	 ebp
  00001	8b ec		 mov	 ebp, esp
  00003	6a ff		 push	 -1
  00005	68 00 00 00 00	 push	 __ehhandler$?RegisterPackWhenPackMaking@CEterPackManager@@QAE_NPBD0PAVCEterPack@@@Z
  0000a	64 a1 00 00 00
	00		 mov	 eax, DWORD PTR fs:0
  00010	50		 push	 eax
  00011	83 ec 28	 sub	 esp, 40			; 00000028H
  00014	a1 00 00 00 00	 mov	 eax, DWORD PTR ___security_cookie
  00019	33 c5		 xor	 eax, ebp
  0001b	89 45 f0	 mov	 DWORD PTR __$ArrayPad$[ebp], eax
  0001e	53		 push	 ebx
  0001f	56		 push	 esi
  00020	57		 push	 edi
  00021	50		 push	 eax
  00022	8d 45 f4	 lea	 eax, DWORD PTR __$EHRec$[ebp]
  00025	64 a3 00 00 00
	00		 mov	 DWORD PTR fs:0, eax
  0002b	8b f1		 mov	 esi, ecx
  0002d	8b 55 08	 mov	 edx, DWORD PTR _c_szName$[ebp]
; File C:\Program Files (x86)\Microsoft Visual Studio\2019\Professional\VC\Tools\MSVC\14.29.30133\include\xstring

; 412  :         return _CSTD strlen(reinterpret_cast<const char*>(_First));

  00030	8b ca		 mov	 ecx, edx
; File C:\Users\murat\Desktop\Siveps2-1-99-Project\source\client\Client\EterPack\EterPackManager.cpp

; 333  : {

  00032	8b 7d 0c	 mov	 edi, DWORD PTR _c_szDirectory$[ebp]
; File C:\Program Files (x86)\Microsoft Visual Studio\2019\Professional\VC\Tools\MSVC\14.29.30133\include\xstring

; 2346 :         _CONSTEXPR20_CONTAINER _Bxty() noexcept : _Ptr() {} // user-provided, for fancy pointers

  00035	c7 45 d4 00 00
	00 00		 mov	 DWORD PTR $T5[ebp], 0

; 4596 :         _My_data._Mysize = 0;

  0003c	c7 45 e4 00 00
	00 00		 mov	 DWORD PTR $T5[ebp+16], 0

; 4597 : 
; 4598 : #ifdef __cpp_lib_constexpr_string
; 4599 :         if (_STD is_constant_evaluated()) {
; 4600 :             _My_data._Myres        = _BUF_SIZE; // SSO disabled in constexpr context
; 4601 :             auto& _Al              = _Getal();
; 4602 :             const pointer _New_ptr = _Al.allocate(_BUF_SIZE + 1); // throws
; 4603 :             _My_data._Bx._Ptr      = _New_ptr;
; 4604 : 
; 4605 :             _Elem* const _Raw_new = _Unfancy(_New_ptr);
; 4606 :             _Traits::assign(_Raw_new, _BUF_SIZE + 1, _Elem());
; 4607 :         } else
; 4608 : #endif // __cpp_lib_constexpr_string
; 4609 :         {
; 4610 :             _My_data._Myres = _BUF_SIZE - 1;

  00043	c7 45 e8 0f 00
	00 00		 mov	 DWORD PTR $T5[ebp+20], 15 ; 0000000fH

; 412  :         return _CSTD strlen(reinterpret_cast<const char*>(_First));

  0004a	8d 59 01	 lea	 ebx, DWORD PTR [ecx+1]

; 4612 :             _Traits::assign(_My_data._Bx._Buf[0], _Elem());

  0004d	c6 45 d4 00	 mov	 BYTE PTR $T5[ebp], 0
$LL114@RegisterPa:

; 412  :         return _CSTD strlen(reinterpret_cast<const char*>(_First));

  00051	8a 01		 mov	 al, BYTE PTR [ecx]
  00053	41		 inc	 ecx
  00054	84 c0		 test	 al, al
  00056	75 f9		 jne	 SHORT $LL114@RegisterPa
  00058	2b cb		 sub	 ecx, ebx

; 3264 :         return assign(_Ptr, _Convert_size<size_type>(_Traits::length(_Ptr)));

  0005a	51		 push	 ecx
  0005b	52		 push	 edx
  0005c	8d 4d d4	 lea	 ecx, DWORD PTR $T5[ebp]
  0005f	e8 00 00 00 00	 call	 ?assign@?$basic_string@DU?$char_traits@D@std@@V?$allocator@D@2@@std@@QAEAAV12@QBDI@Z ; std::basic_string<char,std::char_traits<char>,std::allocator<char> >::assign
; File C:\Program Files (x86)\Microsoft Visual Studio\2019\Professional\VC\Tools\MSVC\14.29.30133\include\utility

; 193  :         : first(_STD forward<_Other1>(_Val1)), second(_STD forward<_Other2>(_Val2)) {}

  00064	8b 45 10	 mov	 eax, DWORD PTR _pPack$[ebp]
  00067	89 45 ec	 mov	 DWORD PTR $T5[ebp+24], eax
; File C:\Users\murat\Desktop\Siveps2-1-99-Project\source\client\extern\include\boost\unordered\unordered_map.hpp

; 226  :         return table_.emplace_unique(

  0006a	8d 45 d4	 lea	 eax, DWORD PTR $T5[ebp]
; File C:\Users\murat\Desktop\Siveps2-1-99-Project\source\client\Client\EterPack\EterPackManager.cpp

; 334  : 	m_PackMap.insert(TEterPackMap::value_type(c_szName, pPack));

  0006d	c7 45 fc 00 00
	00 00		 mov	 DWORD PTR __$EHRec$[ebp+8], 0
; File C:\Users\murat\Desktop\Siveps2-1-99-Project\source\client\extern\include\boost\unordered\unordered_map.hpp

; 226  :         return table_.emplace_unique(

  00074	50		 push	 eax
  00075	50		 push	 eax
  00076	8d 45 cc	 lea	 eax, DWORD PTR $T3[ebp]
  00079	50		 push	 eax
  0007a	8d 8e 18 14 00
	00		 lea	 ecx, DWORD PTR [esi+5144]
  00080	e8 00 00 00 00	 call	 ??$emplace_unique@U?$pair@$$CBV?$basic_string@DU?$char_traits@D@std@@V?$allocator@D@2@@std@@PAVCEterPack@@@std@@@?$table@U?$map@V?$allocator@U?$pair@$$CBV?$basic_string@DU?$char_traits@D@std@@V?$allocator@D@2@@std@@PAVCEterPack@@@std@@@std@@V?$basic_string@DU?$char_traits@D@std@@V?$allocator@D@2@@2@PAVCEterPack@@Ustringhash@@U?$equal_to@V?$basic_string@DU?$char_traits@D@std@@V?$allocator@D@2@@std@@@2@@detail@unordered@boost@@@detail@unordered@boost@@QAE?AU?$pair@U?$iterator@U?$ptr_node@U?$pair@$$CBV?$basic_string@DU?$char_traits@D@std@@V?$allocator@D@2@@std@@PAVCEterPack@@@std@@@detail@unordered@boost@@@iterator_detail@unordered@boost@@_N@std@@ABV?$basic_string@DU?$char_traits@D@std@@V?$allocator@D@2@@5@$$QAU?$pair@$$CBV?$basic_string@DU?$char_traits@D@std@@V?$allocator@D@2@@std@@PAVCEterPack@@@5@@Z ; boost::unordered::detail::table<boost::unordered::detail::map<std::allocator<std::pair<std::basic_string<char,std::char_traits<char>,std::allocator<char> > const ,CEterPack *> >,std::basic_string<char,std::char_traits<char>,std::allocator<char> >,CEterPack *,stringhash,std::equal_to<std::basic_string<char,std::char_traits<char>,std::allocator<char> > > > >::emplace_unique<std::pair<std::basic_string<char,std::char_traits<char>,std::allocator<char> > const ,CEterPack *> >
; File C:\Program Files (x86)\Microsoft Visual Studio\2019\Professional\VC\Tools\MSVC\14.29.30133\include\xstring

; 4618 :         if (_Mypair._Myval2._Large_string_engaged()) {

  00085	8b 55 e8	 mov	 edx, DWORD PTR $T5[ebp+20]
; File C:\Users\murat\Desktop\Siveps2-1-99-Project\source\client\Client\EterPack\EterPackManager.cpp

; 334  : 	m_PackMap.insert(TEterPackMap::value_type(c_szName, pPack));

  00088	c7 45 fc ff ff
	ff ff		 mov	 DWORD PTR __$EHRec$[ebp+8], -1
; File C:\Program Files (x86)\Microsoft Visual Studio\2019\Professional\VC\Tools\MSVC\14.29.30133\include\xstring

; 4618 :         if (_Mypair._Myval2._Large_string_engaged()) {

  0008f	83 fa 10	 cmp	 edx, 16			; 00000010H
  00092	72 2c		 jb	 SHORT $LN43@RegisterPa
; File C:\Program Files (x86)\Microsoft Visual Studio\2019\Professional\VC\Tools\MSVC\14.29.30133\include\xmemory

; 835  :         _Deallocate<_New_alignof<_Ty>>(_Ptr, sizeof(_Ty) * _Count);

  00094	8b 4d d4	 mov	 ecx, DWORD PTR $T5[ebp]
; File C:\Program Files (x86)\Microsoft Visual Studio\2019\Professional\VC\Tools\MSVC\14.29.30133\include\xstring

; 4622 :             _Al.deallocate(_Ptr, _Mypair._Myval2._Myres + 1);

  00097	42		 inc	 edx
; File C:\Program Files (x86)\Microsoft Visual Studio\2019\Professional\VC\Tools\MSVC\14.29.30133\include\xmemory

; 835  :         _Deallocate<_New_alignof<_Ty>>(_Ptr, sizeof(_Ty) * _Count);

  00098	8b c1		 mov	 eax, ecx

; 260  :         if (_Bytes >= _Big_allocation_threshold) { // boost the alignment of big allocations to help autovectorization

  0009a	81 fa 00 10 00
	00		 cmp	 edx, 4096		; 00001000H
  000a0	72 14		 jb	 SHORT $LN53@RegisterPa

; 158  :     const uintptr_t _Ptr_container   = _Ptr_user[-1];

  000a2	8b 49 fc	 mov	 ecx, DWORD PTR [ecx-4]
  000a5	83 c2 23	 add	 edx, 35			; 00000023H
  000a8	2b c1		 sub	 eax, ecx

; 172  :     _STL_VERIFY(_Back_shift >= _Min_back_shift && _Back_shift <= _Non_user_size, "invalid argument");

  000aa	83 c0 fc	 add	 eax, -4			; fffffffcH
  000ad	83 f8 1f	 cmp	 eax, 31			; 0000001fH
  000b0	0f 87 be 00 00
	00		 ja	 $LN105@RegisterPa
$LN53@RegisterPa:

; 264  :         ::operator delete(_Ptr, _Bytes);

  000b6	52		 push	 edx
  000b7	51		 push	 ecx
  000b8	e8 00 00 00 00	 call	 ??3@YAXPAXI@Z		; operator delete
  000bd	83 c4 08	 add	 esp, 8
$LN43@RegisterPa:
; File C:\Users\murat\Desktop\Siveps2-1-99-Project\source\client\Client\EterPack\EterPackManager.cpp

; 335  : 	m_PackList.push_front(pPack);

  000c0	8d 45 10	 lea	 eax, DWORD PTR _pPack$[ebp]
  000c3	50		 push	 eax
  000c4	8d 8e 10 14 00
	00		 lea	 ecx, DWORD PTR [esi+5136]
  000ca	e8 00 00 00 00	 call	 ?push_front@?$list@PAVCEterPack@@V?$allocator@PAVCEterPack@@@std@@@std@@QAEXABQAVCEterPack@@@Z ; std::list<CEterPack *,std::allocator<CEterPack *> >::push_front
; File C:\Program Files (x86)\Microsoft Visual Studio\2019\Professional\VC\Tools\MSVC\14.29.30133\include\xstring

; 412  :         return _CSTD strlen(reinterpret_cast<const char*>(_First));

  000cf	8b cf		 mov	 ecx, edi

; 2346 :         _CONSTEXPR20_CONTAINER _Bxty() noexcept : _Ptr() {} // user-provided, for fancy pointers

  000d1	c7 45 d4 00 00
	00 00		 mov	 DWORD PTR $T4[ebp], 0

; 4596 :         _My_data._Mysize = 0;

  000d8	c7 45 e4 00 00
	00 00		 mov	 DWORD PTR $T4[ebp+16], 0

; 4597 : 
; 4598 : #ifdef __cpp_lib_constexpr_string
; 4599 :         if (_STD is_constant_evaluated()) {
; 4600 :             _My_data._Myres        = _BUF_SIZE; // SSO disabled in constexpr context
; 4601 :             auto& _Al              = _Getal();
; 4602 :             const pointer _New_ptr = _Al.allocate(_BUF_SIZE + 1); // throws
; 4603 :             _My_data._Bx._Ptr      = _New_ptr;
; 4604 : 
; 4605 :             _Elem* const _Raw_new = _Unfancy(_New_ptr);
; 4606 :             _Traits::assign(_Raw_new, _BUF_SIZE + 1, _Elem());
; 4607 :         } else
; 4608 : #endif // __cpp_lib_constexpr_string
; 4609 :         {
; 4610 :             _My_data._Myres = _BUF_SIZE - 1;

  000df	c7 45 e8 0f 00
	00 00		 mov	 DWORD PTR $T4[ebp+20], 15 ; 0000000fH

; 4611 :             // the _Traits::assign is last so the codegen doesn't think the char write can alias this
; 4612 :             _Traits::assign(_My_data._Bx._Buf[0], _Elem());

  000e6	c6 45 d4 00	 mov	 BYTE PTR $T4[ebp], 0

; 412  :         return _CSTD strlen(reinterpret_cast<const char*>(_First));

  000ea	8d 51 01	 lea	 edx, DWORD PTR [ecx+1]
  000ed	0f 1f 00	 npad	 3
$LL115@RegisterPa:
  000f0	8a 01		 mov	 al, BYTE PTR [ecx]
  000f2	41		 inc	 ecx
  000f3	84 c0		 test	 al, al
  000f5	75 f9		 jne	 SHORT $LL115@RegisterPa
  000f7	2b ca		 sub	 ecx, edx

; 3264 :         return assign(_Ptr, _Convert_size<size_type>(_Traits::length(_Ptr)));

  000f9	51		 push	 ecx
  000fa	57		 push	 edi
  000fb	8d 4d d4	 lea	 ecx, DWORD PTR $T4[ebp]
  000fe	e8 00 00 00 00	 call	 ?assign@?$basic_string@DU?$char_traits@D@std@@V?$allocator@D@2@@std@@QAEAAV12@QBDI@Z ; std::basic_string<char,std::char_traits<char>,std::allocator<char> >::assign
; File C:\Program Files (x86)\Microsoft Visual Studio\2019\Professional\VC\Tools\MSVC\14.29.30133\include\utility

; 193  :         : first(_STD forward<_Other1>(_Val1)), second(_STD forward<_Other2>(_Val2)) {}

  00103	8b 45 10	 mov	 eax, DWORD PTR _pPack$[ebp]
  00106	89 45 ec	 mov	 DWORD PTR $T4[ebp+24], eax
; File C:\Users\murat\Desktop\Siveps2-1-99-Project\source\client\extern\include\boost\unordered\unordered_map.hpp

; 226  :         return table_.emplace_unique(

  00109	8d 45 d4	 lea	 eax, DWORD PTR $T4[ebp]
; File C:\Users\murat\Desktop\Siveps2-1-99-Project\source\client\Client\EterPack\EterPackManager.cpp

; 337  : 	m_DirPackMap.insert(TEterPackMap::value_type(c_szDirectory, pPack));

  0010c	c7 45 fc 01 00
	00 00		 mov	 DWORD PTR __$EHRec$[ebp+8], 1
; File C:\Users\murat\Desktop\Siveps2-1-99-Project\source\client\extern\include\boost\unordered\unordered_map.hpp

; 226  :         return table_.emplace_unique(

  00113	50		 push	 eax
  00114	50		 push	 eax
  00115	8d 45 cc	 lea	 eax, DWORD PTR $T2[ebp]
  00118	50		 push	 eax
  00119	8d 8e 30 14 00
	00		 lea	 ecx, DWORD PTR [esi+5168]
  0011f	e8 00 00 00 00	 call	 ??$emplace_unique@U?$pair@$$CBV?$basic_string@DU?$char_traits@D@std@@V?$allocator@D@2@@std@@PAVCEterPack@@@std@@@?$table@U?$map@V?$allocator@U?$pair@$$CBV?$basic_string@DU?$char_traits@D@std@@V?$allocator@D@2@@std@@PAVCEterPack@@@std@@@std@@V?$basic_string@DU?$char_traits@D@std@@V?$allocator@D@2@@2@PAVCEterPack@@Ustringhash@@U?$equal_to@V?$basic_string@DU?$char_traits@D@std@@V?$allocator@D@2@@std@@@2@@detail@unordered@boost@@@detail@unordered@boost@@QAE?AU?$pair@U?$iterator@U?$ptr_node@U?$pair@$$CBV?$basic_string@DU?$char_traits@D@std@@V?$allocator@D@2@@std@@PAVCEterPack@@@std@@@detail@unordered@boost@@@iterator_detail@unordered@boost@@_N@std@@ABV?$basic_string@DU?$char_traits@D@std@@V?$allocator@D@2@@5@$$QAU?$pair@$$CBV?$basic_string@DU?$char_traits@D@std@@V?$allocator@D@2@@std@@PAVCEterPack@@@5@@Z ; boost::unordered::detail::table<boost::unordered::detail::map<std::allocator<std::pair<std::basic_string<char,std::char_traits<char>,std::allocator<char> > const ,CEterPack *> >,std::basic_string<char,std::char_traits<char>,std::allocator<char> >,CEterPack *,stringhash,std::equal_to<std::basic_string<char,std::char_traits<char>,std::allocator<char> > > > >::emplace_unique<std::pair<std::basic_string<char,std::char_traits<char>,std::allocator<char> > const ,CEterPack *> >
; File C:\Program Files (x86)\Microsoft Visual Studio\2019\Professional\VC\Tools\MSVC\14.29.30133\include\xstring

; 2319 :         return _BUF_SIZE <= _Myres;

  00124	8b 55 e8	 mov	 edx, DWORD PTR $T4[ebp+20]
  00127	83 fa 10	 cmp	 edx, 16			; 00000010H

; 4618 :         if (_Mypair._Myval2._Large_string_engaged()) {

  0012a	72 28		 jb	 SHORT $LN98@RegisterPa
; File C:\Program Files (x86)\Microsoft Visual Studio\2019\Professional\VC\Tools\MSVC\14.29.30133\include\xmemory

; 835  :         _Deallocate<_New_alignof<_Ty>>(_Ptr, sizeof(_Ty) * _Count);

  0012c	8b 4d d4	 mov	 ecx, DWORD PTR $T4[ebp]
; File C:\Program Files (x86)\Microsoft Visual Studio\2019\Professional\VC\Tools\MSVC\14.29.30133\include\xstring

; 4622 :             _Al.deallocate(_Ptr, _Mypair._Myval2._Myres + 1);

  0012f	42		 inc	 edx
; File C:\Program Files (x86)\Microsoft Visual Studio\2019\Professional\VC\Tools\MSVC\14.29.30133\include\xmemory

; 835  :         _Deallocate<_New_alignof<_Ty>>(_Ptr, sizeof(_Ty) * _Count);

  00130	8b c1		 mov	 eax, ecx

; 260  :         if (_Bytes >= _Big_allocation_threshold) { // boost the alignment of big allocations to help autovectorization

  00132	81 fa 00 10 00
	00		 cmp	 edx, 4096		; 00001000H
  00138	72 10		 jb	 SHORT $LN108@RegisterPa

; 158  :     const uintptr_t _Ptr_container   = _Ptr_user[-1];

  0013a	8b 49 fc	 mov	 ecx, DWORD PTR [ecx-4]
  0013d	83 c2 23	 add	 edx, 35			; 00000023H
  00140	2b c1		 sub	 eax, ecx

; 172  :     _STL_VERIFY(_Back_shift >= _Min_back_shift && _Back_shift <= _Non_user_size, "invalid argument");

  00142	83 c0 fc	 add	 eax, -4			; fffffffcH
  00145	83 f8 1f	 cmp	 eax, 31			; 0000001fH
  00148	77 2a		 ja	 SHORT $LN105@RegisterPa
$LN108@RegisterPa:

; 264  :         ::operator delete(_Ptr, _Bytes);

  0014a	52		 push	 edx
  0014b	51		 push	 ecx
  0014c	e8 00 00 00 00	 call	 ??3@YAXPAXI@Z		; operator delete
  00151	83 c4 08	 add	 esp, 8
$LN98@RegisterPa:
; File C:\Users\murat\Desktop\Siveps2-1-99-Project\source\client\Client\EterPack\EterPackManager.cpp

; 338  : 	return true;

  00154	b0 01		 mov	 al, 1

; 339  : }

  00156	8b 4d f4	 mov	 ecx, DWORD PTR __$EHRec$[ebp]
  00159	64 89 0d 00 00
	00 00		 mov	 DWORD PTR fs:0, ecx
  00160	59		 pop	 ecx
  00161	5f		 pop	 edi
  00162	5e		 pop	 esi
  00163	5b		 pop	 ebx
  00164	8b 4d f0	 mov	 ecx, DWORD PTR __$ArrayPad$[ebp]
  00167	33 cd		 xor	 ecx, ebp
  00169	e8 00 00 00 00	 call	 @__security_check_cookie@4
  0016e	8b e5		 mov	 esp, ebp
  00170	5d		 pop	 ebp
  00171	c2 0c 00	 ret	 12			; 0000000cH
$LN105@RegisterPa:
; File C:\Program Files (x86)\Microsoft Visual Studio\2019\Professional\VC\Tools\MSVC\14.29.30133\include\xmemory

; 172  :     _STL_VERIFY(_Back_shift >= _Min_back_shift && _Back_shift <= _Non_user_size, "invalid argument");

  00174	e8 00 00 00 00	 call	 __invalid_parameter_noinfo_noreturn
$LN117@RegisterPa:
  00179	cc		 int	 3
_TEXT	ENDS
;	COMDAT text$x
text$x	SEGMENT
__unwindfunclet$?RegisterPackWhenPackMaking@CEterPackManager@@QAE_NPBD0PAVCEterPack@@@Z$0:
  00000	8d 4d d4	 lea	 ecx, DWORD PTR $T5[ebp]
  00003	e9 00 00 00 00	 jmp	 ??1?$pair@$$CBV?$basic_string@DU?$char_traits@D@std@@V?$allocator@D@2@@std@@PAVCEterPack@@@std@@QAE@XZ
__unwindfunclet$?RegisterPackWhenPackMaking@CEterPackManager@@QAE_NPBD0PAVCEterPack@@@Z$1:
  00008	8d 4d d4	 lea	 ecx, DWORD PTR $T4[ebp]
  0000b	e9 00 00 00 00	 jmp	 ??1?$pair@$$CBV?$basic_string@DU?$char_traits@D@std@@V?$allocator@D@2@@std@@PAVCEterPack@@@std@@QAE@XZ
  00010	cc		 int	 3
  00011	cc		 int	 3
  00012	cc		 int	 3
  00013	cc		 int	 3
  00014	cc		 int	 3
__ehhandler$?RegisterPackWhenPackMaking@CEterPackManager@@QAE_NPBD0PAVCEterPack@@@Z:
  00015	90		 npad	 1
  00016	90		 npad	 1
  00017	8b 54 24 08	 mov	 edx, DWORD PTR [esp+8]
  0001b	8d 42 0c	 lea	 eax, DWORD PTR [edx+12]
  0001e	8b 4a c8	 mov	 ecx, DWORD PTR [edx-56]
  00021	33 c8		 xor	 ecx, eax
  00023	e8 00 00 00 00	 call	 @__security_check_cookie@4
  00028	8b 4a fc	 mov	 ecx, DWORD PTR [edx-4]
  0002b	33 c8		 xor	 ecx, eax
  0002d	e8 00 00 00 00	 call	 @__security_check_cookie@4
  00032	b8 00 00 00 00	 mov	 eax, OFFSET __ehfuncinfo$?RegisterPackWhenPackMaking@CEterPackManager@@QAE_NPBD0PAVCEterPack@@@Z
  00037	e9 00 00 00 00	 jmp	 ___CxxFrameHandler3
text$x	ENDS
?RegisterPackWhenPackMaking@CEterPackManager@@QAE_NPBD0PAVCEterPack@@@Z ENDP ; CEterPackManager::RegisterPackWhenPackMaking
; Function compile flags: /Ogtp
; File C:\Users\murat\Desktop\Siveps2-1-99-Project\source\client\Client\EterPack\EterPackManager.cpp
;	COMDAT ?RegisterRootPack@CEterPackManager@@QAEXPBD@Z
_TEXT	SEGMENT
_c_szName$ = 8						; size = 4
?RegisterRootPack@CEterPackManager@@QAEXPBD@Z PROC	; CEterPackManager::RegisterRootPack, COMDAT
; _this$ = ecx

; 309  : {

  00000	55		 push	 ebp
  00001	8b ec		 mov	 ebp, esp

; 310  : 	if (!m_RootPack.Create(m_FileDict, c_szName, ""))

  00003	6a 00		 push	 0
  00005	6a 01		 push	 1
  00007	68 00 00 00 00	 push	 OFFSET ??_C@_00CNPNBAHC@@
  0000c	ff 75 08	 push	 DWORD PTR _c_szName$[ebp]
  0000f	8d 41 0c	 lea	 eax, DWORD PTR [ecx+12]
  00012	83 c1 24	 add	 ecx, 36			; 00000024H
  00015	50		 push	 eax
  00016	e8 00 00 00 00	 call	 ?Create@CEterPack@@QAE_NAAVCEterFileDict@@PBD1_NPBE@Z ; CEterPack::Create
  0001b	84 c0		 test	 al, al
  0001d	75 10		 jne	 SHORT $LN2@RegisterRo

; 311  : 	{
; 312  : 		TraceError("%s: Pack file does not exist", c_szName);

  0001f	ff 75 08	 push	 DWORD PTR _c_szName$[ebp]
  00022	68 00 00 00 00	 push	 OFFSET ??_C@_0BN@HIHPGCNI@?$CFs?3?5Pack?5file?5does?5not?5exist@
  00027	e8 00 00 00 00	 call	 ?TraceError@@YAXPBDZZ	; TraceError
  0002c	83 c4 08	 add	 esp, 8
$LN2@RegisterRo:

; 313  : 	}
; 314  : }

  0002f	5d		 pop	 ebp
  00030	c2 04 00	 ret	 4
?RegisterRootPack@CEterPackManager@@QAEXPBD@Z ENDP	; CEterPackManager::RegisterRootPack
_TEXT	ENDS
; Function compile flags: /Ogtp
; File C:\Users\murat\Desktop\Siveps2-1-99-Project\source\client\Client\EterPack\EterPackManager.cpp
; File C:\Program Files (x86)\Microsoft Visual Studio\2019\Professional\VC\Tools\MSVC\14.29.30133\include\xstring
; File C:\Users\murat\Desktop\Siveps2-1-99-Project\source\client\Client\EterPack\EterPackManager.cpp
; File C:\Program Files (x86)\Microsoft Visual Studio\2019\Professional\VC\Tools\MSVC\14.29.30133\include\xstring
; File C:\Users\murat\Desktop\Siveps2-1-99-Project\source\client\Client\EterPack\EterPackManager.cpp
; File C:\Program Files (x86)\Microsoft Visual Studio\2019\Professional\VC\Tools\MSVC\14.29.30133\include\xstring
; File C:\Program Files (x86)\Microsoft Visual Studio\2019\Professional\VC\Tools\MSVC\14.29.30133\include\xmemory
; File C:\Program Files (x86)\Microsoft Visual Studio\2019\Professional\VC\Tools\MSVC\14.29.30133\include\xstring
; File C:\Program Files (x86)\Microsoft Visual Studio\2019\Professional\VC\Tools\MSVC\14.29.30133\include\xmemory
; File C:\Users\murat\Desktop\Siveps2-1-99-Project\source\client\Client\EterPack\EterPackManager.cpp
; File C:\Program Files (x86)\Microsoft Visual Studio\2019\Professional\VC\Tools\MSVC\14.29.30133\include\xstring
; File C:\Program Files (x86)\Microsoft Visual Studio\2019\Professional\VC\Tools\MSVC\14.29.30133\include\utility
; File C:\Users\murat\Desktop\Siveps2-1-99-Project\source\client\extern\include\boost\unordered\unordered_map.hpp
; File C:\Users\murat\Desktop\Siveps2-1-99-Project\source\client\Client\EterPack\EterPackManager.cpp
; File C:\Users\murat\Desktop\Siveps2-1-99-Project\source\client\extern\include\boost\unordered\unordered_map.hpp
; File C:\Program Files (x86)\Microsoft Visual Studio\2019\Professional\VC\Tools\MSVC\14.29.30133\include\xstring
; File C:\Users\murat\Desktop\Siveps2-1-99-Project\source\client\Client\EterPack\EterPackManager.cpp
; File C:\Program Files (x86)\Microsoft Visual Studio\2019\Professional\VC\Tools\MSVC\14.29.30133\include\xstring
; File C:\Program Files (x86)\Microsoft Visual Studio\2019\Professional\VC\Tools\MSVC\14.29.30133\include\xmemory
; File C:\Program Files (x86)\Microsoft Visual Studio\2019\Professional\VC\Tools\MSVC\14.29.30133\include\xstring
; File C:\Program Files (x86)\Microsoft Visual Studio\2019\Professional\VC\Tools\MSVC\14.29.30133\include\xmemory
; File C:\Users\murat\Desktop\Siveps2-1-99-Project\source\client\Client\EterPack\EterPackManager.cpp
; File C:\Program Files (x86)\Microsoft Visual Studio\2019\Professional\VC\Tools\MSVC\14.29.30133\include\xstring
; File C:\Users\murat\Desktop\Siveps2-1-99-Project\source\client\Client\EterPack\EterPackManager.cpp
; File C:\Program Files (x86)\Microsoft Visual Studio\2019\Professional\VC\Tools\MSVC\14.29.30133\include\xstring
; File C:\Program Files (x86)\Microsoft Visual Studio\2019\Professional\VC\Tools\MSVC\14.29.30133\include\xmemory
; File C:\Program Files (x86)\Microsoft Visual Studio\2019\Professional\VC\Tools\MSVC\14.29.30133\include\xstring
; File C:\Program Files (x86)\Microsoft Visual Studio\2019\Professional\VC\Tools\MSVC\14.29.30133\include\xmemory
; File C:\Users\murat\Desktop\Siveps2-1-99-Project\source\client\Client\EterPack\EterPackManager.cpp
; File C:\Program Files (x86)\Microsoft Visual Studio\2019\Professional\VC\Tools\MSVC\14.29.30133\include\xstring
; File C:\Program Files (x86)\Microsoft Visual Studio\2019\Professional\VC\Tools\MSVC\14.29.30133\include\utility
; File C:\Users\murat\Desktop\Siveps2-1-99-Project\source\client\extern\include\boost\unordered\unordered_map.hpp
; File C:\Users\murat\Desktop\Siveps2-1-99-Project\source\client\Client\EterPack\EterPackManager.cpp
; File C:\Users\murat\Desktop\Siveps2-1-99-Project\source\client\extern\include\boost\unordered\unordered_map.hpp
; File C:\Program Files (x86)\Microsoft Visual Studio\2019\Professional\VC\Tools\MSVC\14.29.30133\include\xstring
; File C:\Program Files (x86)\Microsoft Visual Studio\2019\Professional\VC\Tools\MSVC\14.29.30133\include\xmemory
; File C:\Program Files (x86)\Microsoft Visual Studio\2019\Professional\VC\Tools\MSVC\14.29.30133\include\xstring
; File C:\Program Files (x86)\Microsoft Visual Studio\2019\Professional\VC\Tools\MSVC\14.29.30133\include\xmemory
; File C:\Users\murat\Desktop\Siveps2-1-99-Project\source\client\Client\EterPack\EterPackManager.cpp
; File C:\Program Files (x86)\Microsoft Visual Studio\2019\Professional\VC\Tools\MSVC\14.29.30133\include\xstring
; File C:\Program Files (x86)\Microsoft Visual Studio\2019\Professional\VC\Tools\MSVC\14.29.30133\include\xmemory
; File C:\Users\murat\Desktop\Siveps2-1-99-Project\source\client\Client\EterPack\EterPackManager.cpp
; File C:\Program Files (x86)\Microsoft Visual Studio\2019\Professional\VC\Tools\MSVC\14.29.30133\include\xmemory
; File C:\Users\murat\Desktop\Siveps2-1-99-Project\source\client\Client\EterPack\EterPackManager.cpp
;	COMDAT ?RegisterPack@CEterPackManager@@QAE_NPBD0PBE@Z
_TEXT	SEGMENT
$T2 = -68						; size = 8
_c_pbIV$GSCopy$1$ = -64					; size = 4
$T3 = -60						; size = 8
tv1020 = -56						; size = 4
_itor$4 = -56						; size = 4
_this$GSCopy$1$ = -52					; size = 4
$T5 = -48						; size = 4
_itor$6 = -48						; size = 4
_pEterPack$ = -48					; size = 4
$T7 = -44						; size = 28
$T8 = -44						; size = 28
$T9 = -40						; size = 24
$T10 = -40						; size = 24
__$ArrayPad$ = -16					; size = 4
__$EHRec$ = -12						; size = 12
_c_szName$ = 8						; size = 4
_c_szDirectory$ = 12					; size = 4
_c_pbIV$ = 16						; size = 4
?RegisterPack@CEterPackManager@@QAE_NPBD0PBE@Z PROC	; CEterPackManager::RegisterPack, COMDAT
; _this$ = ecx

; 343  : {

  00000	55		 push	 ebp
  00001	8b ec		 mov	 ebp, esp
  00003	6a ff		 push	 -1
  00005	68 00 00 00 00	 push	 __ehhandler$?RegisterPack@CEterPackManager@@QAE_NPBD0PBE@Z
  0000a	64 a1 00 00 00
	00		 mov	 eax, DWORD PTR fs:0
  00010	50		 push	 eax
  00011	83 ec 38	 sub	 esp, 56			; 00000038H
  00014	a1 00 00 00 00	 mov	 eax, DWORD PTR ___security_cookie
  00019	33 c5		 xor	 eax, ebp
  0001b	89 45 f0	 mov	 DWORD PTR __$ArrayPad$[ebp], eax
  0001e	53		 push	 ebx
  0001f	56		 push	 esi
  00020	57		 push	 edi
  00021	50		 push	 eax
  00022	8d 45 f4	 lea	 eax, DWORD PTR __$EHRec$[ebp]
  00025	64 a3 00 00 00
	00		 mov	 DWORD PTR fs:0, eax
  0002b	8b f1		 mov	 esi, ecx
  0002d	89 75 cc	 mov	 DWORD PTR _this$GSCopy$1$[ebp], esi
  00030	8b 5d 08	 mov	 ebx, DWORD PTR _c_szName$[ebp]
; File C:\Program Files (x86)\Microsoft Visual Studio\2019\Professional\VC\Tools\MSVC\14.29.30133\include\xstring

; 412  :         return _CSTD strlen(reinterpret_cast<const char*>(_First));

  00033	8b cb		 mov	 ecx, ebx
; File C:\Users\murat\Desktop\Siveps2-1-99-Project\source\client\Client\EterPack\EterPackManager.cpp

; 343  : {

  00035	8b 45 10	 mov	 eax, DWORD PTR _c_pbIV$[ebp]
  00038	8b 7d 0c	 mov	 edi, DWORD PTR _c_szDirectory$[ebp]
  0003b	89 45 c0	 mov	 DWORD PTR _c_pbIV$GSCopy$1$[ebp], eax
; File C:\Program Files (x86)\Microsoft Visual Studio\2019\Professional\VC\Tools\MSVC\14.29.30133\include\xstring

; 2346 :         _CONSTEXPR20_CONTAINER _Bxty() noexcept : _Ptr() {} // user-provided, for fancy pointers

  0003e	c7 45 d8 00 00
	00 00		 mov	 DWORD PTR $T10[ebp], 0

; 412  :         return _CSTD strlen(reinterpret_cast<const char*>(_First));

  00045	8d 51 01	 lea	 edx, DWORD PTR [ecx+1]

; 4596 :         _My_data._Mysize = 0;

  00048	c7 45 e8 00 00
	00 00		 mov	 DWORD PTR $T10[ebp+16], 0

; 4597 : 
; 4598 : #ifdef __cpp_lib_constexpr_string
; 4599 :         if (_STD is_constant_evaluated()) {
; 4600 :             _My_data._Myres        = _BUF_SIZE; // SSO disabled in constexpr context
; 4601 :             auto& _Al              = _Getal();
; 4602 :             const pointer _New_ptr = _Al.allocate(_BUF_SIZE + 1); // throws
; 4603 :             _My_data._Bx._Ptr      = _New_ptr;
; 4604 : 
; 4605 :             _Elem* const _Raw_new = _Unfancy(_New_ptr);
; 4606 :             _Traits::assign(_Raw_new, _BUF_SIZE + 1, _Elem());
; 4607 :         } else
; 4608 : #endif // __cpp_lib_constexpr_string
; 4609 :         {
; 4610 :             _My_data._Myres = _BUF_SIZE - 1;

  0004f	c7 45 ec 0f 00
	00 00		 mov	 DWORD PTR $T10[ebp+20], 15 ; 0000000fH
$LL227@RegisterPa:

; 412  :         return _CSTD strlen(reinterpret_cast<const char*>(_First));

  00056	8a 01		 mov	 al, BYTE PTR [ecx]
  00058	41		 inc	 ecx
  00059	84 c0		 test	 al, al
  0005b	75 f9		 jne	 SHORT $LL227@RegisterPa
  0005d	2b ca		 sub	 ecx, edx

; 3264 :         return assign(_Ptr, _Convert_size<size_type>(_Traits::length(_Ptr)));

  0005f	51		 push	 ecx
  00060	53		 push	 ebx
  00061	8d 4d d8	 lea	 ecx, DWORD PTR $T10[ebp]
  00064	e8 00 00 00 00	 call	 ?assign@?$basic_string@DU?$char_traits@D@std@@V?$allocator@D@2@@std@@QAEAAV12@QBDI@Z ; std::basic_string<char,std::char_traits<char>,std::allocator<char> >::assign
; File C:\Users\murat\Desktop\Siveps2-1-99-Project\source\client\Client\EterPack\EterPackManager.cpp

; 346  : 		TEterPackMap::iterator itor = m_PackMap.find(c_szName);

  00069	8d 4d d8	 lea	 ecx, DWORD PTR $T10[ebp]
  0006c	51		 push	 ecx
  0006d	8d 86 18 14 00
	00		 lea	 eax, DWORD PTR [esi+5144]
  00073	8d 4d d0	 lea	 ecx, DWORD PTR _itor$6[ebp]
  00076	89 45 c8	 mov	 DWORD PTR tv1020[ebp], eax
  00079	51		 push	 ecx
  0007a	8b c8		 mov	 ecx, eax
  0007c	e8 00 00 00 00	 call	 ?find@?$unordered_map@V?$basic_string@DU?$char_traits@D@std@@V?$allocator@D@2@@std@@PAVCEterPack@@Ustringhash@@U?$equal_to@V?$basic_string@DU?$char_traits@D@std@@V?$allocator@D@2@@std@@@2@V?$allocator@U?$pair@$$CBV?$basic_string@DU?$char_traits@D@std@@V?$allocator@D@2@@std@@PAVCEterPack@@@std@@@2@@unordered@boost@@QAE?AU?$iterator@U?$ptr_node@U?$pair@$$CBV?$basic_string@DU?$char_traits@D@std@@V?$allocator@D@2@@std@@PAVCEterPack@@@std@@@detail@unordered@boost@@@iterator_detail@23@ABV?$basic_string@DU?$char_traits@D@std@@V?$allocator@D@2@@std@@@Z ; boost::unordered::unordered_map<std::basic_string<char,std::char_traits<char>,std::allocator<char> >,CEterPack *,stringhash,std::equal_to<std::basic_string<char,std::char_traits<char>,std::allocator<char> > >,std::allocator<std::pair<std::basic_string<char,std::char_traits<char>,std::allocator<char> > const ,CEterPack *> > >::find
; File C:\Program Files (x86)\Microsoft Visual Studio\2019\Professional\VC\Tools\MSVC\14.29.30133\include\xstring

; 4618 :         if (_Mypair._Myval2._Large_string_engaged()) {

  00081	8b 55 ec	 mov	 edx, DWORD PTR $T10[ebp+20]
  00084	83 fa 10	 cmp	 edx, 16			; 00000010H
  00087	72 2c		 jb	 SHORT $LN46@RegisterPa
; File C:\Program Files (x86)\Microsoft Visual Studio\2019\Professional\VC\Tools\MSVC\14.29.30133\include\xmemory

; 835  :         _Deallocate<_New_alignof<_Ty>>(_Ptr, sizeof(_Ty) * _Count);

  00089	8b 4d d8	 mov	 ecx, DWORD PTR $T10[ebp]
; File C:\Program Files (x86)\Microsoft Visual Studio\2019\Professional\VC\Tools\MSVC\14.29.30133\include\xstring

; 4622 :             _Al.deallocate(_Ptr, _Mypair._Myval2._Myres + 1);

  0008c	42		 inc	 edx
; File C:\Program Files (x86)\Microsoft Visual Studio\2019\Professional\VC\Tools\MSVC\14.29.30133\include\xmemory

; 835  :         _Deallocate<_New_alignof<_Ty>>(_Ptr, sizeof(_Ty) * _Count);

  0008d	8b c1		 mov	 eax, ecx

; 260  :         if (_Bytes >= _Big_allocation_threshold) { // boost the alignment of big allocations to help autovectorization

  0008f	81 fa 00 10 00
	00		 cmp	 edx, 4096		; 00001000H
  00095	72 14		 jb	 SHORT $LN56@RegisterPa

; 158  :     const uintptr_t _Ptr_container   = _Ptr_user[-1];

  00097	8b 49 fc	 mov	 ecx, DWORD PTR [ecx-4]
  0009a	83 c2 23	 add	 edx, 35			; 00000023H
  0009d	2b c1		 sub	 eax, ecx

; 172  :     _STL_VERIFY(_Back_shift >= _Min_back_shift && _Back_shift <= _Non_user_size, "invalid argument");

  0009f	83 c0 fc	 add	 eax, -4			; fffffffcH
  000a2	83 f8 1f	 cmp	 eax, 31			; 0000001fH
  000a5	0f 87 56 02 00
	00		 ja	 $LN218@RegisterPa
$LN56@RegisterPa:

; 264  :         ::operator delete(_Ptr, _Bytes);

  000ab	52		 push	 edx
  000ac	51		 push	 ecx
  000ad	e8 00 00 00 00	 call	 ??3@YAXPAXI@Z		; operator delete
  000b2	83 c4 08	 add	 esp, 8
$LN46@RegisterPa:
; File C:\Users\murat\Desktop\Siveps2-1-99-Project\source\client\Client\EterPack\EterPackManager.cpp

; 348  : 		if (m_PackMap.end() == itor)

  000b5	8b 45 d0	 mov	 eax, DWORD PTR _itor$6[ebp]
  000b8	85 c0		 test	 eax, eax
  000ba	0f 85 0c 02 00
	00		 jne	 $LN2@RegisterPa

; 349  : 		{
; 350  : 			bool bReadOnly = true;
; 351  : 
; 352  : 			pEterPack = new CEterPack;

  000c0	68 ec 13 00 00	 push	 5100			; 000013ecH
  000c5	e8 00 00 00 00	 call	 ??2@YAPAXI@Z		; operator new
  000ca	83 c4 04	 add	 esp, 4
  000cd	89 45 d0	 mov	 DWORD PTR $T5[ebp], eax
  000d0	c7 45 fc 00 00
	00 00		 mov	 DWORD PTR __$EHRec$[ebp+8], 0
  000d7	85 c0		 test	 eax, eax
  000d9	74 0b		 je	 SHORT $LN9@RegisterPa
  000db	8b c8		 mov	 ecx, eax
  000dd	e8 00 00 00 00	 call	 ??0CEterPack@@QAE@XZ	; CEterPack::CEterPack
  000e2	8b f0		 mov	 esi, eax
  000e4	eb 02		 jmp	 SHORT $LN10@RegisterPa
$LN9@RegisterPa:
  000e6	33 f6		 xor	 esi, esi
$LN10@RegisterPa:

; 353  : 			if (pEterPack->Create(m_FileDict, c_szName, c_szDirectory, bReadOnly, c_pbIV))

  000e8	ff 75 c0	 push	 DWORD PTR _c_pbIV$GSCopy$1$[ebp]
  000eb	8b 45 cc	 mov	 eax, DWORD PTR _this$GSCopy$1$[ebp]
  000ee	8b ce		 mov	 ecx, esi
  000f0	6a 01		 push	 1
  000f2	57		 push	 edi
  000f3	53		 push	 ebx
  000f4	83 c0 0c	 add	 eax, 12			; 0000000cH
  000f7	c7 45 fc ff ff
	ff ff		 mov	 DWORD PTR __$EHRec$[ebp+8], -1
  000fe	50		 push	 eax
  000ff	89 75 d0	 mov	 DWORD PTR _pEterPack$[ebp], esi
  00102	e8 00 00 00 00	 call	 ?Create@CEterPack@@QAE_NAAVCEterFileDict@@PBD1_NPBE@Z ; CEterPack::Create
  00107	84 c0		 test	 al, al
  00109	0f 84 ad 01 00
	00		 je	 $LN4@RegisterPa
; File C:\Program Files (x86)\Microsoft Visual Studio\2019\Professional\VC\Tools\MSVC\14.29.30133\include\xstring

; 412  :         return _CSTD strlen(reinterpret_cast<const char*>(_First));

  0010f	8b cb		 mov	 ecx, ebx

; 2346 :         _CONSTEXPR20_CONTAINER _Bxty() noexcept : _Ptr() {} // user-provided, for fancy pointers

  00111	c7 45 d4 00 00
	00 00		 mov	 DWORD PTR $T8[ebp], 0

; 4596 :         _My_data._Mysize = 0;

  00118	c7 45 e4 00 00
	00 00		 mov	 DWORD PTR $T8[ebp+16], 0

; 4597 : 
; 4598 : #ifdef __cpp_lib_constexpr_string
; 4599 :         if (_STD is_constant_evaluated()) {
; 4600 :             _My_data._Myres        = _BUF_SIZE; // SSO disabled in constexpr context
; 4601 :             auto& _Al              = _Getal();
; 4602 :             const pointer _New_ptr = _Al.allocate(_BUF_SIZE + 1); // throws
; 4603 :             _My_data._Bx._Ptr      = _New_ptr;
; 4604 : 
; 4605 :             _Elem* const _Raw_new = _Unfancy(_New_ptr);
; 4606 :             _Traits::assign(_Raw_new, _BUF_SIZE + 1, _Elem());
; 4607 :         } else
; 4608 : #endif // __cpp_lib_constexpr_string
; 4609 :         {
; 4610 :             _My_data._Myres = _BUF_SIZE - 1;

  0011f	c7 45 e8 0f 00
	00 00		 mov	 DWORD PTR $T8[ebp+20], 15 ; 0000000fH

; 4611 :             // the _Traits::assign is last so the codegen doesn't think the char write can alias this
; 4612 :             _Traits::assign(_My_data._Bx._Buf[0], _Elem());

  00126	c6 45 d4 00	 mov	 BYTE PTR $T8[ebp], 0

; 412  :         return _CSTD strlen(reinterpret_cast<const char*>(_First));

  0012a	8d 51 01	 lea	 edx, DWORD PTR [ecx+1]
  0012d	0f 1f 00	 npad	 3
$LL228@RegisterPa:
  00130	8a 01		 mov	 al, BYTE PTR [ecx]
  00132	41		 inc	 ecx
  00133	84 c0		 test	 al, al
  00135	75 f9		 jne	 SHORT $LL228@RegisterPa
  00137	2b ca		 sub	 ecx, edx

; 3264 :         return assign(_Ptr, _Convert_size<size_type>(_Traits::length(_Ptr)));

  00139	51		 push	 ecx
  0013a	53		 push	 ebx
  0013b	8d 4d d4	 lea	 ecx, DWORD PTR $T8[ebp]
  0013e	e8 00 00 00 00	 call	 ?assign@?$basic_string@DU?$char_traits@D@std@@V?$allocator@D@2@@std@@QAEAAV12@QBDI@Z ; std::basic_string<char,std::char_traits<char>,std::allocator<char> >::assign
; File C:\Program Files (x86)\Microsoft Visual Studio\2019\Professional\VC\Tools\MSVC\14.29.30133\include\utility

; 193  :         : first(_STD forward<_Other1>(_Val1)), second(_STD forward<_Other2>(_Val2)) {}

  00143	89 75 ec	 mov	 DWORD PTR $T8[ebp+24], esi
; File C:\Users\murat\Desktop\Siveps2-1-99-Project\source\client\extern\include\boost\unordered\unordered_map.hpp

; 226  :         return table_.emplace_unique(

  00146	8b 4d c8	 mov	 ecx, DWORD PTR tv1020[ebp]
  00149	8d 45 d4	 lea	 eax, DWORD PTR $T8[ebp]
  0014c	50		 push	 eax
  0014d	50		 push	 eax
  0014e	8d 45 bc	 lea	 eax, DWORD PTR $T2[ebp]
; File C:\Users\murat\Desktop\Siveps2-1-99-Project\source\client\Client\EterPack\EterPackManager.cpp

; 355  : 				m_PackMap.insert(TEterPackMap::value_type(c_szName, pEterPack));

  00151	c7 45 fc 01 00
	00 00		 mov	 DWORD PTR __$EHRec$[ebp+8], 1
; File C:\Users\murat\Desktop\Siveps2-1-99-Project\source\client\extern\include\boost\unordered\unordered_map.hpp

; 226  :         return table_.emplace_unique(

  00158	50		 push	 eax
  00159	e8 00 00 00 00	 call	 ??$emplace_unique@U?$pair@$$CBV?$basic_string@DU?$char_traits@D@std@@V?$allocator@D@2@@std@@PAVCEterPack@@@std@@@?$table@U?$map@V?$allocator@U?$pair@$$CBV?$basic_string@DU?$char_traits@D@std@@V?$allocator@D@2@@std@@PAVCEterPack@@@std@@@std@@V?$basic_string@DU?$char_traits@D@std@@V?$allocator@D@2@@2@PAVCEterPack@@Ustringhash@@U?$equal_to@V?$basic_string@DU?$char_traits@D@std@@V?$allocator@D@2@@std@@@2@@detail@unordered@boost@@@detail@unordered@boost@@QAE?AU?$pair@U?$iterator@U?$ptr_node@U?$pair@$$CBV?$basic_string@DU?$char_traits@D@std@@V?$allocator@D@2@@std@@PAVCEterPack@@@std@@@detail@unordered@boost@@@iterator_detail@unordered@boost@@_N@std@@ABV?$basic_string@DU?$char_traits@D@std@@V?$allocator@D@2@@5@$$QAU?$pair@$$CBV?$basic_string@DU?$char_traits@D@std@@V?$allocator@D@2@@std@@PAVCEterPack@@@5@@Z ; boost::unordered::detail::table<boost::unordered::detail::map<std::allocator<std::pair<std::basic_string<char,std::char_traits<char>,std::allocator<char> > const ,CEterPack *> >,std::basic_string<char,std::char_traits<char>,std::allocator<char> >,CEterPack *,stringhash,std::equal_to<std::basic_string<char,std::char_traits<char>,std::allocator<char> > > > >::emplace_unique<std::pair<std::basic_string<char,std::char_traits<char>,std::allocator<char> > const ,CEterPack *> >
; File C:\Program Files (x86)\Microsoft Visual Studio\2019\Professional\VC\Tools\MSVC\14.29.30133\include\xstring

; 4618 :         if (_Mypair._Myval2._Large_string_engaged()) {

  0015e	8b 55 e8	 mov	 edx, DWORD PTR $T8[ebp+20]
; File C:\Users\murat\Desktop\Siveps2-1-99-Project\source\client\Client\EterPack\EterPackManager.cpp

; 355  : 				m_PackMap.insert(TEterPackMap::value_type(c_szName, pEterPack));

  00161	c7 45 fc ff ff
	ff ff		 mov	 DWORD PTR __$EHRec$[ebp+8], -1
; File C:\Program Files (x86)\Microsoft Visual Studio\2019\Professional\VC\Tools\MSVC\14.29.30133\include\xstring

; 4618 :         if (_Mypair._Myval2._Large_string_engaged()) {

  00168	83 fa 10	 cmp	 edx, 16			; 00000010H
  0016b	72 2c		 jb	 SHORT $LN231@RegisterPa
; File C:\Program Files (x86)\Microsoft Visual Studio\2019\Professional\VC\Tools\MSVC\14.29.30133\include\xmemory

; 835  :         _Deallocate<_New_alignof<_Ty>>(_Ptr, sizeof(_Ty) * _Count);

  0016d	8b 4d d4	 mov	 ecx, DWORD PTR $T8[ebp]
; File C:\Program Files (x86)\Microsoft Visual Studio\2019\Professional\VC\Tools\MSVC\14.29.30133\include\xstring

; 4622 :             _Al.deallocate(_Ptr, _Mypair._Myval2._Myres + 1);

  00170	42		 inc	 edx
; File C:\Program Files (x86)\Microsoft Visual Studio\2019\Professional\VC\Tools\MSVC\14.29.30133\include\xmemory

; 835  :         _Deallocate<_New_alignof<_Ty>>(_Ptr, sizeof(_Ty) * _Count);

  00171	8b c1		 mov	 eax, ecx

; 260  :         if (_Bytes >= _Big_allocation_threshold) { // boost the alignment of big allocations to help autovectorization

  00173	81 fa 00 10 00
	00		 cmp	 edx, 4096		; 00001000H
  00179	72 14		 jb	 SHORT $LN116@RegisterPa

; 158  :     const uintptr_t _Ptr_container   = _Ptr_user[-1];

  0017b	8b 49 fc	 mov	 ecx, DWORD PTR [ecx-4]
  0017e	83 c2 23	 add	 edx, 35			; 00000023H
  00181	2b c1		 sub	 eax, ecx

; 172  :     _STL_VERIFY(_Back_shift >= _Min_back_shift && _Back_shift <= _Non_user_size, "invalid argument");

  00183	83 c0 fc	 add	 eax, -4			; fffffffcH
  00186	83 f8 1f	 cmp	 eax, 31			; 0000001fH
  00189	0f 87 72 01 00
	00		 ja	 $LN218@RegisterPa
$LN116@RegisterPa:

; 264  :         ::operator delete(_Ptr, _Bytes);

  0018f	52		 push	 edx
  00190	51		 push	 ecx
  00191	e8 00 00 00 00	 call	 ??3@YAXPAXI@Z		; operator delete
  00196	83 c4 08	 add	 esp, 8
$LN231@RegisterPa:
; File C:\Users\murat\Desktop\Siveps2-1-99-Project\source\client\Client\EterPack\EterPackManager.cpp

; 373  : 	if (c_szDirectory && c_szDirectory[0] != '*')

  00199	8b 75 cc	 mov	 esi, DWORD PTR _this$GSCopy$1$[ebp]
$LN3@RegisterPa:
  0019c	85 ff		 test	 edi, edi
  0019e	0f 84 3d 01 00
	00		 je	 $LN211@RegisterPa
  001a4	80 3f 2a	 cmp	 BYTE PTR [edi], 42	; 0000002aH
  001a7	0f 84 34 01 00
	00		 je	 $LN211@RegisterPa
; File C:\Program Files (x86)\Microsoft Visual Studio\2019\Professional\VC\Tools\MSVC\14.29.30133\include\xstring

; 412  :         return _CSTD strlen(reinterpret_cast<const char*>(_First));

  001ad	8b cf		 mov	 ecx, edi

; 2346 :         _CONSTEXPR20_CONTAINER _Bxty() noexcept : _Ptr() {} // user-provided, for fancy pointers

  001af	c7 45 d8 00 00
	00 00		 mov	 DWORD PTR $T9[ebp], 0

; 4596 :         _My_data._Mysize = 0;

  001b6	c7 45 e8 00 00
	00 00		 mov	 DWORD PTR $T9[ebp+16], 0

; 4597 : 
; 4598 : #ifdef __cpp_lib_constexpr_string
; 4599 :         if (_STD is_constant_evaluated()) {
; 4600 :             _My_data._Myres        = _BUF_SIZE; // SSO disabled in constexpr context
; 4601 :             auto& _Al              = _Getal();
; 4602 :             const pointer _New_ptr = _Al.allocate(_BUF_SIZE + 1); // throws
; 4603 :             _My_data._Bx._Ptr      = _New_ptr;
; 4604 : 
; 4605 :             _Elem* const _Raw_new = _Unfancy(_New_ptr);
; 4606 :             _Traits::assign(_Raw_new, _BUF_SIZE + 1, _Elem());
; 4607 :         } else
; 4608 : #endif // __cpp_lib_constexpr_string
; 4609 :         {
; 4610 :             _My_data._Myres = _BUF_SIZE - 1;

  001bd	c7 45 ec 0f 00
	00 00		 mov	 DWORD PTR $T9[ebp+20], 15 ; 0000000fH

; 412  :         return _CSTD strlen(reinterpret_cast<const char*>(_First));

  001c4	8d 51 01	 lea	 edx, DWORD PTR [ecx+1]
$LL229@RegisterPa:
  001c7	8a 01		 mov	 al, BYTE PTR [ecx]
  001c9	41		 inc	 ecx
  001ca	84 c0		 test	 al, al
  001cc	75 f9		 jne	 SHORT $LL229@RegisterPa
  001ce	2b ca		 sub	 ecx, edx

; 3264 :         return assign(_Ptr, _Convert_size<size_type>(_Traits::length(_Ptr)));

  001d0	51		 push	 ecx
  001d1	57		 push	 edi
  001d2	8d 4d d8	 lea	 ecx, DWORD PTR $T9[ebp]
  001d5	e8 00 00 00 00	 call	 ?assign@?$basic_string@DU?$char_traits@D@std@@V?$allocator@D@2@@std@@QAEAAV12@QBDI@Z ; std::basic_string<char,std::char_traits<char>,std::allocator<char> >::assign
; File C:\Users\murat\Desktop\Siveps2-1-99-Project\source\client\Client\EterPack\EterPackManager.cpp

; 375  : 		TEterPackMap::iterator itor = m_DirPackMap.find(c_szDirectory);

  001da	8d 45 d8	 lea	 eax, DWORD PTR $T9[ebp]
  001dd	50		 push	 eax
  001de	8d 45 c8	 lea	 eax, DWORD PTR _itor$4[ebp]
  001e1	50		 push	 eax
  001e2	8d 8e 30 14 00
	00		 lea	 ecx, DWORD PTR [esi+5168]
  001e8	e8 00 00 00 00	 call	 ?find@?$unordered_map@V?$basic_string@DU?$char_traits@D@std@@V?$allocator@D@2@@std@@PAVCEterPack@@Ustringhash@@U?$equal_to@V?$basic_string@DU?$char_traits@D@std@@V?$allocator@D@2@@std@@@2@V?$allocator@U?$pair@$$CBV?$basic_string@DU?$char_traits@D@std@@V?$allocator@D@2@@std@@PAVCEterPack@@@std@@@2@@unordered@boost@@QAE?AU?$iterator@U?$ptr_node@U?$pair@$$CBV?$basic_string@DU?$char_traits@D@std@@V?$allocator@D@2@@std@@PAVCEterPack@@@std@@@detail@unordered@boost@@@iterator_detail@23@ABV?$basic_string@DU?$char_traits@D@std@@V?$allocator@D@2@@std@@@Z ; boost::unordered::unordered_map<std::basic_string<char,std::char_traits<char>,std::allocator<char> >,CEterPack *,stringhash,std::equal_to<std::basic_string<char,std::char_traits<char>,std::allocator<char> > >,std::allocator<std::pair<std::basic_string<char,std::char_traits<char>,std::allocator<char> > const ,CEterPack *> > >::find
; File C:\Program Files (x86)\Microsoft Visual Studio\2019\Professional\VC\Tools\MSVC\14.29.30133\include\xstring

; 4618 :         if (_Mypair._Myval2._Large_string_engaged()) {

  001ed	8b 55 ec	 mov	 edx, DWORD PTR $T9[ebp+20]
  001f0	83 fa 10	 cmp	 edx, 16			; 00000010H
  001f3	72 2c		 jb	 SHORT $LN152@RegisterPa
; File C:\Program Files (x86)\Microsoft Visual Studio\2019\Professional\VC\Tools\MSVC\14.29.30133\include\xmemory

; 835  :         _Deallocate<_New_alignof<_Ty>>(_Ptr, sizeof(_Ty) * _Count);

  001f5	8b 4d d8	 mov	 ecx, DWORD PTR $T9[ebp]
; File C:\Program Files (x86)\Microsoft Visual Studio\2019\Professional\VC\Tools\MSVC\14.29.30133\include\xstring

; 4622 :             _Al.deallocate(_Ptr, _Mypair._Myval2._Myres + 1);

  001f8	42		 inc	 edx
; File C:\Program Files (x86)\Microsoft Visual Studio\2019\Professional\VC\Tools\MSVC\14.29.30133\include\xmemory

; 835  :         _Deallocate<_New_alignof<_Ty>>(_Ptr, sizeof(_Ty) * _Count);

  001f9	8b c1		 mov	 eax, ecx

; 260  :         if (_Bytes >= _Big_allocation_threshold) { // boost the alignment of big allocations to help autovectorization

  001fb	81 fa 00 10 00
	00		 cmp	 edx, 4096		; 00001000H
  00201	72 14		 jb	 SHORT $LN162@RegisterPa

; 158  :     const uintptr_t _Ptr_container   = _Ptr_user[-1];

  00203	8b 49 fc	 mov	 ecx, DWORD PTR [ecx-4]
  00206	83 c2 23	 add	 edx, 35			; 00000023H
  00209	2b c1		 sub	 eax, ecx

; 172  :     _STL_VERIFY(_Back_shift >= _Min_back_shift && _Back_shift <= _Non_user_size, "invalid argument");

  0020b	83 c0 fc	 add	 eax, -4			; fffffffcH
  0020e	83 f8 1f	 cmp	 eax, 31			; 0000001fH
  00211	0f 87 ea 00 00
	00		 ja	 $LN218@RegisterPa
$LN162@RegisterPa:

; 264  :         ::operator delete(_Ptr, _Bytes);

  00217	52		 push	 edx
  00218	51		 push	 ecx
  00219	e8 00 00 00 00	 call	 ??3@YAXPAXI@Z		; operator delete
  0021e	83 c4 08	 add	 esp, 8
$LN152@RegisterPa:
; File C:\Users\murat\Desktop\Siveps2-1-99-Project\source\client\Client\EterPack\EterPackManager.cpp

; 376  : 		if (m_DirPackMap.end() == itor)

  00221	83 7d c8 00	 cmp	 DWORD PTR _itor$4[ebp], 0
  00225	0f 85 b6 00 00
	00		 jne	 $LN211@RegisterPa

; 377  : 		{
; 378  : 			m_PackList.push_front(pEterPack);

  0022b	8b 4d cc	 mov	 ecx, DWORD PTR _this$GSCopy$1$[ebp]
  0022e	8d 45 d0	 lea	 eax, DWORD PTR _pEterPack$[ebp]
  00231	50		 push	 eax
  00232	81 c1 10 14 00
	00		 add	 ecx, 5136		; 00001410H
  00238	e8 00 00 00 00	 call	 ?push_front@?$list@PAVCEterPack@@V?$allocator@PAVCEterPack@@@std@@@std@@QAEXABQAVCEterPack@@@Z ; std::list<CEterPack *,std::allocator<CEterPack *> >::push_front
; File C:\Program Files (x86)\Microsoft Visual Studio\2019\Professional\VC\Tools\MSVC\14.29.30133\include\xstring

; 412  :         return _CSTD strlen(reinterpret_cast<const char*>(_First));

  0023d	8b cf		 mov	 ecx, edi

; 2346 :         _CONSTEXPR20_CONTAINER _Bxty() noexcept : _Ptr() {} // user-provided, for fancy pointers

  0023f	c7 45 d4 00 00
	00 00		 mov	 DWORD PTR $T7[ebp], 0

; 4596 :         _My_data._Mysize = 0;

  00246	c7 45 e4 00 00
	00 00		 mov	 DWORD PTR $T7[ebp+16], 0

; 4597 : 
; 4598 : #ifdef __cpp_lib_constexpr_string
; 4599 :         if (_STD is_constant_evaluated()) {
; 4600 :             _My_data._Myres        = _BUF_SIZE; // SSO disabled in constexpr context
; 4601 :             auto& _Al              = _Getal();
; 4602 :             const pointer _New_ptr = _Al.allocate(_BUF_SIZE + 1); // throws
; 4603 :             _My_data._Bx._Ptr      = _New_ptr;
; 4604 : 
; 4605 :             _Elem* const _Raw_new = _Unfancy(_New_ptr);
; 4606 :             _Traits::assign(_Raw_new, _BUF_SIZE + 1, _Elem());
; 4607 :         } else
; 4608 : #endif // __cpp_lib_constexpr_string
; 4609 :         {
; 4610 :             _My_data._Myres = _BUF_SIZE - 1;

  0024d	c7 45 e8 0f 00
	00 00		 mov	 DWORD PTR $T7[ebp+20], 15 ; 0000000fH

; 4611 :             // the _Traits::assign is last so the codegen doesn't think the char write can alias this
; 4612 :             _Traits::assign(_My_data._Bx._Buf[0], _Elem());

  00254	c6 45 d4 00	 mov	 BYTE PTR $T7[ebp], 0

; 412  :         return _CSTD strlen(reinterpret_cast<const char*>(_First));

  00258	8d 51 01	 lea	 edx, DWORD PTR [ecx+1]
  0025b	0f 1f 44 00 00	 npad	 5
$LL230@RegisterPa:
  00260	8a 01		 mov	 al, BYTE PTR [ecx]
  00262	41		 inc	 ecx
  00263	84 c0		 test	 al, al
  00265	75 f9		 jne	 SHORT $LL230@RegisterPa
  00267	2b ca		 sub	 ecx, edx

; 3264 :         return assign(_Ptr, _Convert_size<size_type>(_Traits::length(_Ptr)));

  00269	51		 push	 ecx
  0026a	57		 push	 edi
  0026b	8d 4d d4	 lea	 ecx, DWORD PTR $T7[ebp]
  0026e	e8 00 00 00 00	 call	 ?assign@?$basic_string@DU?$char_traits@D@std@@V?$allocator@D@2@@std@@QAEAAV12@QBDI@Z ; std::basic_string<char,std::char_traits<char>,std::allocator<char> >::assign
; File C:\Program Files (x86)\Microsoft Visual Studio\2019\Professional\VC\Tools\MSVC\14.29.30133\include\utility

; 193  :         : first(_STD forward<_Other1>(_Val1)), second(_STD forward<_Other2>(_Val2)) {}

  00273	8b 45 d0	 mov	 eax, DWORD PTR _pEterPack$[ebp]
  00276	89 45 ec	 mov	 DWORD PTR $T7[ebp+24], eax
; File C:\Users\murat\Desktop\Siveps2-1-99-Project\source\client\extern\include\boost\unordered\unordered_map.hpp

; 226  :         return table_.emplace_unique(

  00279	8d 45 d4	 lea	 eax, DWORD PTR $T7[ebp]
; File C:\Users\murat\Desktop\Siveps2-1-99-Project\source\client\Client\EterPack\EterPackManager.cpp

; 379  : 			m_DirPackMap.insert(TEterPackMap::value_type(c_szDirectory, pEterPack));

  0027c	c7 45 fc 02 00
	00 00		 mov	 DWORD PTR __$EHRec$[ebp+8], 2
; File C:\Users\murat\Desktop\Siveps2-1-99-Project\source\client\extern\include\boost\unordered\unordered_map.hpp

; 226  :         return table_.emplace_unique(

  00283	50		 push	 eax
  00284	50		 push	 eax
  00285	8d 45 c4	 lea	 eax, DWORD PTR $T3[ebp]
  00288	50		 push	 eax
  00289	8d 8e 30 14 00
	00		 lea	 ecx, DWORD PTR [esi+5168]
  0028f	e8 00 00 00 00	 call	 ??$emplace_unique@U?$pair@$$CBV?$basic_string@DU?$char_traits@D@std@@V?$allocator@D@2@@std@@PAVCEterPack@@@std@@@?$table@U?$map@V?$allocator@U?$pair@$$CBV?$basic_string@DU?$char_traits@D@std@@V?$allocator@D@2@@std@@PAVCEterPack@@@std@@@std@@V?$basic_string@DU?$char_traits@D@std@@V?$allocator@D@2@@2@PAVCEterPack@@Ustringhash@@U?$equal_to@V?$basic_string@DU?$char_traits@D@std@@V?$allocator@D@2@@std@@@2@@detail@unordered@boost@@@detail@unordered@boost@@QAE?AU?$pair@U?$iterator@U?$ptr_node@U?$pair@$$CBV?$basic_string@DU?$char_traits@D@std@@V?$allocator@D@2@@std@@PAVCEterPack@@@std@@@detail@unordered@boost@@@iterator_detail@unordered@boost@@_N@std@@ABV?$basic_string@DU?$char_traits@D@std@@V?$allocator@D@2@@5@$$QAU?$pair@$$CBV?$basic_string@DU?$char_traits@D@std@@V?$allocator@D@2@@std@@PAVCEterPack@@@5@@Z ; boost::unordered::detail::table<boost::unordered::detail::map<std::allocator<std::pair<std::basic_string<char,std::char_traits<char>,std::allocator<char> > const ,CEterPack *> >,std::basic_string<char,std::char_traits<char>,std::allocator<char> >,CEterPack *,stringhash,std::equal_to<std::basic_string<char,std::char_traits<char>,std::allocator<char> > > > >::emplace_unique<std::pair<std::basic_string<char,std::char_traits<char>,std::allocator<char> > const ,CEterPack *> >
; File C:\Program Files (x86)\Microsoft Visual Studio\2019\Professional\VC\Tools\MSVC\14.29.30133\include\xstring

; 2319 :         return _BUF_SIZE <= _Myres;

  00294	8b 55 e8	 mov	 edx, DWORD PTR $T7[ebp+20]
  00297	83 fa 10	 cmp	 edx, 16			; 00000010H

; 4618 :         if (_Mypair._Myval2._Large_string_engaged()) {

  0029a	72 45		 jb	 SHORT $LN211@RegisterPa
; File C:\Program Files (x86)\Microsoft Visual Studio\2019\Professional\VC\Tools\MSVC\14.29.30133\include\xmemory

; 835  :         _Deallocate<_New_alignof<_Ty>>(_Ptr, sizeof(_Ty) * _Count);

  0029c	8b 4d d4	 mov	 ecx, DWORD PTR $T7[ebp]
; File C:\Program Files (x86)\Microsoft Visual Studio\2019\Professional\VC\Tools\MSVC\14.29.30133\include\xstring

; 4622 :             _Al.deallocate(_Ptr, _Mypair._Myval2._Myres + 1);

  0029f	42		 inc	 edx
; File C:\Program Files (x86)\Microsoft Visual Studio\2019\Professional\VC\Tools\MSVC\14.29.30133\include\xmemory

; 835  :         _Deallocate<_New_alignof<_Ty>>(_Ptr, sizeof(_Ty) * _Count);

  002a0	8b c1		 mov	 eax, ecx

; 260  :         if (_Bytes >= _Big_allocation_threshold) { // boost the alignment of big allocations to help autovectorization

  002a2	81 fa 00 10 00
	00		 cmp	 edx, 4096		; 00001000H
  002a8	72 2d		 jb	 SHORT $LN221@RegisterPa

; 158  :     const uintptr_t _Ptr_container   = _Ptr_user[-1];

  002aa	8b 49 fc	 mov	 ecx, DWORD PTR [ecx-4]
  002ad	83 c2 23	 add	 edx, 35			; 00000023H
  002b0	2b c1		 sub	 eax, ecx

; 172  :     _STL_VERIFY(_Back_shift >= _Min_back_shift && _Back_shift <= _Non_user_size, "invalid argument");

  002b2	83 c0 fc	 add	 eax, -4			; fffffffcH
  002b5	83 f8 1f	 cmp	 eax, 31			; 0000001fH
  002b8	77 47		 ja	 SHORT $LN218@RegisterPa
  002ba	eb 1b		 jmp	 SHORT $LN221@RegisterPa
$LN4@RegisterPa:
; File C:\Users\murat\Desktop\Siveps2-1-99-Project\source\client\Client\EterPack\EterPackManager.cpp

; 362  : 				delete pEterPack;

  002bc	85 f6		 test	 esi, esi
  002be	74 08		 je	 SHORT $LN11@RegisterPa
  002c0	8b 06		 mov	 eax, DWORD PTR [esi]
  002c2	8b ce		 mov	 ecx, esi
  002c4	6a 01		 push	 1
  002c6	ff 10		 call	 DWORD PTR [eax]
$LN11@RegisterPa:

; 363  : 				pEterPack = NULL;
; 364  : 				return false;

  002c8	32 c0		 xor	 al, al
  002ca	eb 17		 jmp	 SHORT $LN1@RegisterPa
$LN2@RegisterPa:

; 365  : 			}
; 366  : 		}
; 367  : 		else
; 368  : 		{
; 369  : 			pEterPack = itor->second;

  002cc	8b 40 20	 mov	 eax, DWORD PTR [eax+32]
  002cf	89 45 d0	 mov	 DWORD PTR _pEterPack$[ebp], eax
; File C:\Program Files (x86)\Microsoft Visual Studio\2019\Professional\VC\Tools\MSVC\14.29.30133\include\xstring

; 4618 :         if (_Mypair._Myval2._Large_string_engaged()) {

  002d2	e9 c5 fe ff ff	 jmp	 $LN3@RegisterPa
$LN221@RegisterPa:
; File C:\Program Files (x86)\Microsoft Visual Studio\2019\Professional\VC\Tools\MSVC\14.29.30133\include\xmemory

; 264  :         ::operator delete(_Ptr, _Bytes);

  002d7	52		 push	 edx
  002d8	51		 push	 ecx
  002d9	e8 00 00 00 00	 call	 ??3@YAXPAXI@Z		; operator delete
  002de	83 c4 08	 add	 esp, 8
$LN211@RegisterPa:
; File C:\Users\murat\Desktop\Siveps2-1-99-Project\source\client\Client\EterPack\EterPackManager.cpp

; 383  : 	return true;

  002e1	b0 01		 mov	 al, 1
$LN1@RegisterPa:

; 384  : }

  002e3	8b 4d f4	 mov	 ecx, DWORD PTR __$EHRec$[ebp]
  002e6	64 89 0d 00 00
	00 00		 mov	 DWORD PTR fs:0, ecx
  002ed	59		 pop	 ecx
  002ee	5f		 pop	 edi
  002ef	5e		 pop	 esi
  002f0	5b		 pop	 ebx
  002f1	8b 4d f0	 mov	 ecx, DWORD PTR __$ArrayPad$[ebp]
  002f4	33 cd		 xor	 ecx, ebp
  002f6	e8 00 00 00 00	 call	 @__security_check_cookie@4
  002fb	8b e5		 mov	 esp, ebp
  002fd	5d		 pop	 ebp
  002fe	c2 0c 00	 ret	 12			; 0000000cH
$LN218@RegisterPa:
; File C:\Program Files (x86)\Microsoft Visual Studio\2019\Professional\VC\Tools\MSVC\14.29.30133\include\xmemory

; 172  :     _STL_VERIFY(_Back_shift >= _Min_back_shift && _Back_shift <= _Non_user_size, "invalid argument");

  00301	e8 00 00 00 00	 call	 __invalid_parameter_noinfo_noreturn
$LN233@RegisterPa:
  00306	cc		 int	 3
_TEXT	ENDS
;	COMDAT text$x
text$x	SEGMENT
__unwindfunclet$?RegisterPack@CEterPackManager@@QAE_NPBD0PBE@Z$1:
  00000	68 ec 13 00 00	 push	 5100			; 000013ecH
  00005	8b 45 d0	 mov	 eax, DWORD PTR $T5[ebp]
  00008	50		 push	 eax
  00009	e8 00 00 00 00	 call	 ??3@YAXPAXI@Z		; operator delete
  0000e	83 c4 08	 add	 esp, 8
  00011	c3		 ret	 0
__unwindfunclet$?RegisterPack@CEterPackManager@@QAE_NPBD0PBE@Z$2:
  00012	8d 4d d4	 lea	 ecx, DWORD PTR $T8[ebp]
  00015	e9 00 00 00 00	 jmp	 ??1?$pair@$$CBV?$basic_string@DU?$char_traits@D@std@@V?$allocator@D@2@@std@@PAVCEterPack@@@std@@QAE@XZ
__unwindfunclet$?RegisterPack@CEterPackManager@@QAE_NPBD0PBE@Z$4:
  0001a	8d 4d d4	 lea	 ecx, DWORD PTR $T7[ebp]
  0001d	e9 00 00 00 00	 jmp	 ??1?$pair@$$CBV?$basic_string@DU?$char_traits@D@std@@V?$allocator@D@2@@std@@PAVCEterPack@@@std@@QAE@XZ
  00022	cc		 int	 3
  00023	cc		 int	 3
  00024	cc		 int	 3
  00025	cc		 int	 3
  00026	cc		 int	 3
__ehhandler$?RegisterPack@CEterPackManager@@QAE_NPBD0PBE@Z:
  00027	90		 npad	 1
  00028	90		 npad	 1
  00029	8b 54 24 08	 mov	 edx, DWORD PTR [esp+8]
  0002d	8d 42 0c	 lea	 eax, DWORD PTR [edx+12]
  00030	8b 4a b8	 mov	 ecx, DWORD PTR [edx-72]
  00033	33 c8		 xor	 ecx, eax
  00035	e8 00 00 00 00	 call	 @__security_check_cookie@4
  0003a	8b 4a fc	 mov	 ecx, DWORD PTR [edx-4]
  0003d	33 c8		 xor	 ecx, eax
  0003f	e8 00 00 00 00	 call	 @__security_check_cookie@4
  00044	b8 00 00 00 00	 mov	 eax, OFFSET __ehfuncinfo$?RegisterPack@CEterPackManager@@QAE_NPBD0PBE@Z
  00049	e9 00 00 00 00	 jmp	 ___CxxFrameHandler3
text$x	ENDS
?RegisterPack@CEterPackManager@@QAE_NPBD0PBE@Z ENDP	; CEterPackManager::RegisterPack
; Function compile flags: /Ogtp
; File C:\Users\murat\Desktop\Siveps2-1-99-Project\source\client\Client\EterPack\EterPackManager.cpp
; File C:\Program Files (x86)\Microsoft Visual Studio\2019\Professional\VC\Tools\MSVC\14.29.30133\include\xstring
; File C:\Users\murat\Desktop\Siveps2-1-99-Project\source\client\Client\EterPack\EterPackManager.cpp
; File C:\Program Files (x86)\Microsoft Visual Studio\2019\Professional\VC\Tools\MSVC\14.29.30133\include\xstring
; File C:\Users\murat\Desktop\Siveps2-1-99-Project\source\client\Client\EterPack\EterPackManager.cpp
; File C:\Program Files (x86)\Microsoft Visual Studio\2019\Professional\VC\Tools\MSVC\14.29.30133\include\xstring
; File C:\Users\murat\Desktop\Siveps2-1-99-Project\source\client\Client\EterPack\EterPackManager.cpp
; File C:\Program Files (x86)\Microsoft Visual Studio\2019\Professional\VC\Tools\MSVC\14.29.30133\include\xstring
; File C:\Users\murat\Desktop\Siveps2-1-99-Project\source\client\Client\EterPack\EterPackManager.cpp
; File C:\Program Files (x86)\Microsoft Visual Studio\2019\Professional\VC\Tools\MSVC\14.29.30133\include\xstring
; File C:\Users\murat\Desktop\Siveps2-1-99-Project\source\client\Client\EterPack\EterPackManager.cpp
; File C:\Program Files (x86)\Microsoft Visual Studio\2019\Professional\VC\Tools\MSVC\14.29.30133\include\xstring
; File C:\Program Files (x86)\Microsoft Visual Studio\2019\Professional\VC\Tools\MSVC\14.29.30133\include\xmemory
; File C:\Program Files (x86)\Microsoft Visual Studio\2019\Professional\VC\Tools\MSVC\14.29.30133\include\xstring
; File C:\Program Files (x86)\Microsoft Visual Studio\2019\Professional\VC\Tools\MSVC\14.29.30133\include\xmemory
; File C:\Users\murat\Desktop\Siveps2-1-99-Project\source\client\Client\EterPack\EterPackManager.cpp
; File C:\Program Files (x86)\Microsoft Visual Studio\2019\Professional\VC\Tools\MSVC\14.29.30133\include\xmemory
; File C:\Users\murat\Desktop\Siveps2-1-99-Project\source\client\Client\EterPack\EterPackManager.cpp
;	COMDAT ?isExistInPack@CEterPackManager@@QAE_NPBD@Z
_TEXT	SEGMENT
_strFileName$ = -40					; size = 24
__$ArrayPad$ = -16					; size = 4
__$EHRec$ = -12						; size = 12
_c_szFileName$ = 8					; size = 4
?isExistInPack@CEterPackManager@@QAE_NPBD@Z PROC	; CEterPackManager::isExistInPack, COMDAT
; _this$ = ecx

; 282  : {

  00000	55		 push	 ebp
  00001	8b ec		 mov	 ebp, esp
  00003	6a ff		 push	 -1
  00005	68 00 00 00 00	 push	 __ehhandler$?isExistInPack@CEterPackManager@@QAE_NPBD@Z
  0000a	64 a1 00 00 00
	00		 mov	 eax, DWORD PTR fs:0
  00010	50		 push	 eax
  00011	83 ec 1c	 sub	 esp, 28			; 0000001cH
  00014	a1 00 00 00 00	 mov	 eax, DWORD PTR ___security_cookie
  00019	33 c5		 xor	 eax, ebp
  0001b	89 45 f0	 mov	 DWORD PTR __$ArrayPad$[ebp], eax
  0001e	53		 push	 ebx
  0001f	56		 push	 esi
  00020	50		 push	 eax
  00021	8d 45 f4	 lea	 eax, DWORD PTR __$EHRec$[ebp]
  00024	64 a3 00 00 00
	00		 mov	 DWORD PTR fs:0, eax
  0002a	8b f1		 mov	 esi, ecx
  0002c	8b 45 08	 mov	 eax, DWORD PTR _c_szFileName$[ebp]
; File C:\Program Files (x86)\Microsoft Visual Studio\2019\Professional\VC\Tools\MSVC\14.29.30133\include\xstring

; 2346 :         _CONSTEXPR20_CONTAINER _Bxty() noexcept : _Ptr() {} // user-provided, for fancy pointers

  0002f	c7 45 d8 00 00
	00 00		 mov	 DWORD PTR _strFileName$[ebp], 0

; 4596 :         _My_data._Mysize = 0;

  00036	c7 45 e8 00 00
	00 00		 mov	 DWORD PTR _strFileName$[ebp+16], 0

; 4597 : 
; 4598 : #ifdef __cpp_lib_constexpr_string
; 4599 :         if (_STD is_constant_evaluated()) {
; 4600 :             _My_data._Myres        = _BUF_SIZE; // SSO disabled in constexpr context
; 4601 :             auto& _Al              = _Getal();
; 4602 :             const pointer _New_ptr = _Al.allocate(_BUF_SIZE + 1); // throws
; 4603 :             _My_data._Bx._Ptr      = _New_ptr;
; 4604 : 
; 4605 :             _Elem* const _Raw_new = _Unfancy(_New_ptr);
; 4606 :             _Traits::assign(_Raw_new, _BUF_SIZE + 1, _Elem());
; 4607 :         } else
; 4608 : #endif // __cpp_lib_constexpr_string
; 4609 :         {
; 4610 :             _My_data._Myres = _BUF_SIZE - 1;

  0003d	c7 45 ec 0f 00
	00 00		 mov	 DWORD PTR _strFileName$[ebp+20], 15 ; 0000000fH

; 4611 :             // the _Traits::assign is last so the codegen doesn't think the char write can alias this
; 4612 :             _Traits::assign(_My_data._Bx._Buf[0], _Elem());

  00044	c6 45 d8 00	 mov	 BYTE PTR _strFileName$[ebp], 0
; File C:\Users\murat\Desktop\Siveps2-1-99-Project\source\client\Client\EterPack\EterPackManager.cpp

; 285  : 	if (0 == ConvertFileName(c_szFileName, strFileName))

  00048	8d 4d d8	 lea	 ecx, DWORD PTR _strFileName$[ebp]
  0004b	c7 45 fc 00 00
	00 00		 mov	 DWORD PTR __$EHRec$[ebp+8], 0
  00052	51		 push	 ecx
  00053	50		 push	 eax
  00054	8b ce		 mov	 ecx, esi
  00056	e8 00 00 00 00	 call	 ?ConvertFileName@CEterPackManager@@IAEHPBDAAV?$basic_string@DU?$char_traits@D@std@@V?$allocator@D@2@@std@@@Z ; CEterPackManager::ConvertFileName
  0005b	85 c0		 test	 eax, eax
  0005d	8d 45 d8	 lea	 eax, DWORD PTR _strFileName$[ebp]
  00060	75 05		 jne	 SHORT $LN2@isExistInP

; 286  : 	{
; 287  : 		return m_RootPack.IsExist(strFileName.c_str());

  00062	8d 4e 24	 lea	 ecx, DWORD PTR [esi+36]
  00065	eb 36		 jmp	 SHORT $LN135@isExistInP
$LN2@isExistInP:
; File C:\Program Files (x86)\Microsoft Visual Studio\2019\Professional\VC\Tools\MSVC\14.29.30133\include\xstring

; 2319 :         return _BUF_SIZE <= _Myres;

  00067	83 7d ec 10	 cmp	 DWORD PTR _strFileName$[ebp+20], 16 ; 00000010H
; File C:\Users\murat\Desktop\Siveps2-1-99-Project\source\client\Client\EterPack\EterPackManager.cpp

; 291  : 		DWORD dwFileNameHash = GetCRC32(strFileName.c_str(), strFileName.length());

  0006b	ff 75 e8	 push	 DWORD PTR _strFileName$[ebp+16]
; File C:\Program Files (x86)\Microsoft Visual Studio\2019\Professional\VC\Tools\MSVC\14.29.30133\include\xstring

; 2306 :         if (_Large_string_engaged()) {

  0006e	0f 43 45 d8	 cmovae	 eax, DWORD PTR _strFileName$[ebp]
; File C:\Users\murat\Desktop\Siveps2-1-99-Project\source\client\Client\EterPack\EterPackManager.cpp

; 291  : 		DWORD dwFileNameHash = GetCRC32(strFileName.c_str(), strFileName.length());

  00072	50		 push	 eax
  00073	e8 00 00 00 00	 call	 ?GetCRC32@@YAKPBDI@Z	; GetCRC32
  00078	83 c4 08	 add	 esp, 8
; File C:\Program Files (x86)\Microsoft Visual Studio\2019\Professional\VC\Tools\MSVC\14.29.30133\include\xstring

; 2305 :         const value_type* _Result = _Bx._Buf;

  0007b	8d 4d d8	 lea	 ecx, DWORD PTR _strFileName$[ebp]

; 2319 :         return _BUF_SIZE <= _Myres;

  0007e	83 7d ec 10	 cmp	 DWORD PTR _strFileName$[ebp+20], 16 ; 00000010H

; 2306 :         if (_Large_string_engaged()) {

  00082	0f 43 4d d8	 cmovae	 ecx, DWORD PTR _strFileName$[ebp]
; File C:\Users\murat\Desktop\Siveps2-1-99-Project\source\client\Client\EterPack\EterPackManager.cpp

; 292  : 		CEterFileDict::Item* pkFileItem = m_FileDict.GetItem(dwFileNameHash, strFileName.c_str());

  00086	51		 push	 ecx
  00087	50		 push	 eax
  00088	8d 4e 0c	 lea	 ecx, DWORD PTR [esi+12]
  0008b	e8 00 00 00 00	 call	 ?GetItem@CEterFileDict@@QAEPAUItem@1@KPBD@Z ; CEterFileDict::GetItem

; 293  : 
; 294  : 		if (pkFileItem)

  00090	85 c0		 test	 eax, eax
  00092	74 1b		 je	 SHORT $LN5@isExistInP

; 295  : 			if (pkFileItem->pkPack)

  00094	8b 08		 mov	 ecx, DWORD PTR [eax]
  00096	85 c9		 test	 ecx, ecx
  00098	74 15		 je	 SHORT $LN5@isExistInP
; File C:\Program Files (x86)\Microsoft Visual Studio\2019\Professional\VC\Tools\MSVC\14.29.30133\include\xstring

; 2305 :         const value_type* _Result = _Bx._Buf;

  0009a	8d 45 d8	 lea	 eax, DWORD PTR _strFileName$[ebp]
$LN135@isExistInP:

; 2319 :         return _BUF_SIZE <= _Myres;

  0009d	83 7d ec 10	 cmp	 DWORD PTR _strFileName$[ebp+20], 16 ; 00000010H

; 2306 :         if (_Large_string_engaged()) {

  000a1	0f 43 45 d8	 cmovae	 eax, DWORD PTR _strFileName$[ebp]
  000a5	50		 push	 eax
  000a6	e8 00 00 00 00	 call	 ?IsExist@CEterPack@@QAE_NPBD@Z ; CEterPack::IsExist
  000ab	8a d8		 mov	 bl, al
  000ad	eb 02		 jmp	 SHORT $LN9@isExistInP
$LN5@isExistInP:
; File C:\Users\murat\Desktop\Siveps2-1-99-Project\source\client\Client\EterPack\EterPackManager.cpp

; 300  : 	return false;

  000af	32 db		 xor	 bl, bl
$LN9@isExistInP:
; File C:\Program Files (x86)\Microsoft Visual Studio\2019\Professional\VC\Tools\MSVC\14.29.30133\include\xstring

; 2319 :         return _BUF_SIZE <= _Myres;

  000b1	8b 55 ec	 mov	 edx, DWORD PTR _strFileName$[ebp+20]
  000b4	83 fa 10	 cmp	 edx, 16			; 00000010H

; 4618 :         if (_Mypair._Myval2._Large_string_engaged()) {

  000b7	72 28		 jb	 SHORT $LN118@isExistInP
; File C:\Program Files (x86)\Microsoft Visual Studio\2019\Professional\VC\Tools\MSVC\14.29.30133\include\xmemory

; 835  :         _Deallocate<_New_alignof<_Ty>>(_Ptr, sizeof(_Ty) * _Count);

  000b9	8b 4d d8	 mov	 ecx, DWORD PTR _strFileName$[ebp]
; File C:\Program Files (x86)\Microsoft Visual Studio\2019\Professional\VC\Tools\MSVC\14.29.30133\include\xstring

; 4622 :             _Al.deallocate(_Ptr, _Mypair._Myval2._Myres + 1);

  000bc	42		 inc	 edx
; File C:\Program Files (x86)\Microsoft Visual Studio\2019\Professional\VC\Tools\MSVC\14.29.30133\include\xmemory

; 835  :         _Deallocate<_New_alignof<_Ty>>(_Ptr, sizeof(_Ty) * _Count);

  000bd	8b c1		 mov	 eax, ecx

; 260  :         if (_Bytes >= _Big_allocation_threshold) { // boost the alignment of big allocations to help autovectorization

  000bf	81 fa 00 10 00
	00		 cmp	 edx, 4096		; 00001000H
  000c5	72 10		 jb	 SHORT $LN128@isExistInP

; 158  :     const uintptr_t _Ptr_container   = _Ptr_user[-1];

  000c7	8b 49 fc	 mov	 ecx, DWORD PTR [ecx-4]
  000ca	83 c2 23	 add	 edx, 35			; 00000023H
  000cd	2b c1		 sub	 eax, ecx

; 172  :     _STL_VERIFY(_Back_shift >= _Min_back_shift && _Back_shift <= _Non_user_size, "invalid argument");

  000cf	83 c0 fc	 add	 eax, -4			; fffffffcH
  000d2	83 f8 1f	 cmp	 eax, 31			; 0000001fH
  000d5	77 29		 ja	 SHORT $LN137@isExistInP
$LN128@isExistInP:

; 264  :         ::operator delete(_Ptr, _Bytes);

  000d7	52		 push	 edx
  000d8	51		 push	 ecx
  000d9	e8 00 00 00 00	 call	 ??3@YAXPAXI@Z		; operator delete
  000de	83 c4 08	 add	 esp, 8
$LN118@isExistInP:
; File C:\Users\murat\Desktop\Siveps2-1-99-Project\source\client\Client\EterPack\EterPackManager.cpp

; 300  : 	return false;

  000e1	8a c3		 mov	 al, bl

; 301  : }

  000e3	8b 4d f4	 mov	 ecx, DWORD PTR __$EHRec$[ebp]
  000e6	64 89 0d 00 00
	00 00		 mov	 DWORD PTR fs:0, ecx
  000ed	59		 pop	 ecx
  000ee	5e		 pop	 esi
  000ef	5b		 pop	 ebx
  000f0	8b 4d f0	 mov	 ecx, DWORD PTR __$ArrayPad$[ebp]
  000f3	33 cd		 xor	 ecx, ebp
  000f5	e8 00 00 00 00	 call	 @__security_check_cookie@4
  000fa	8b e5		 mov	 esp, ebp
  000fc	5d		 pop	 ebp
  000fd	c2 04 00	 ret	 4
$LN137@isExistInP:
; File C:\Program Files (x86)\Microsoft Visual Studio\2019\Professional\VC\Tools\MSVC\14.29.30133\include\xmemory

; 172  :     _STL_VERIFY(_Back_shift >= _Min_back_shift && _Back_shift <= _Non_user_size, "invalid argument");

  00100	e8 00 00 00 00	 call	 __invalid_parameter_noinfo_noreturn
$LN134@isExistInP:
  00105	cc		 int	 3
_TEXT	ENDS
;	COMDAT text$x
text$x	SEGMENT
__unwindfunclet$?isExistInPack@CEterPackManager@@QAE_NPBD@Z$0:
  00000	8d 4d d8	 lea	 ecx, DWORD PTR _strFileName$[ebp]
  00003	e9 00 00 00 00	 jmp	 ??1?$basic_string@DU?$char_traits@D@std@@V?$allocator@D@2@@std@@QAE@XZ ; std::basic_string<char,std::char_traits<char>,std::allocator<char> >::~basic_string<char,std::char_traits<char>,std::allocator<char> >
  00008	cc		 int	 3
  00009	cc		 int	 3
  0000a	cc		 int	 3
  0000b	cc		 int	 3
  0000c	cc		 int	 3
__ehhandler$?isExistInPack@CEterPackManager@@QAE_NPBD@Z:
  0000d	90		 npad	 1
  0000e	90		 npad	 1
  0000f	8b 54 24 08	 mov	 edx, DWORD PTR [esp+8]
  00013	8d 42 0c	 lea	 eax, DWORD PTR [edx+12]
  00016	8b 4a d8	 mov	 ecx, DWORD PTR [edx-40]
  00019	33 c8		 xor	 ecx, eax
  0001b	e8 00 00 00 00	 call	 @__security_check_cookie@4
  00020	8b 4a fc	 mov	 ecx, DWORD PTR [edx-4]
  00023	33 c8		 xor	 ecx, eax
  00025	e8 00 00 00 00	 call	 @__security_check_cookie@4
  0002a	b8 00 00 00 00	 mov	 eax, OFFSET __ehfuncinfo$?isExistInPack@CEterPackManager@@QAE_NPBD@Z
  0002f	e9 00 00 00 00	 jmp	 ___CxxFrameHandler3
text$x	ENDS
?isExistInPack@CEterPackManager@@QAE_NPBD@Z ENDP	; CEterPackManager::isExistInPack
; Function compile flags: /Ogtp
; File C:\Users\murat\Desktop\Siveps2-1-99-Project\source\client\Client\EterPack\EterPackManager.cpp
;	COMDAT ?isExist@CEterPackManager@@QAE_NPBD@Z
_TEXT	SEGMENT
_c_szFileName$ = 8					; size = 4
?isExist@CEterPackManager@@QAE_NPBD@Z PROC		; CEterPackManager::isExist, COMDAT
; _this$ = ecx

; 304  : {

  00000	55		 push	 ebp
  00001	8b ec		 mov	 ebp, esp

; 306  : }

  00003	5d		 pop	 ebp

; 305  : 	return isExistInPack(c_szFileName);

  00004	e9 00 00 00 00	 jmp	 ?isExistInPack@CEterPackManager@@QAE_NPBD@Z ; CEterPackManager::isExistInPack
?isExist@CEterPackManager@@QAE_NPBD@Z ENDP		; CEterPackManager::isExist
_TEXT	ENDS
; Function compile flags: /Ogtp
; File C:\Users\murat\Desktop\Siveps2-1-99-Project\source\client\Client\EterPack\EterPackManager.cpp
;	COMDAT ?GetFromFile@CEterPackManager@@QAE_NAAVCMappedFile@@PBDPAPBX@Z
_TEXT	SEGMENT
_rMappedFile$ = 8					; size = 4
_c_szFileName$ = 12					; size = 4
_pData$ = 16						; size = 4
?GetFromFile@CEterPackManager@@QAE_NAAVCMappedFile@@PBDPAPBX@Z PROC ; CEterPackManager::GetFromFile, COMDAT
; _this$ = ecx

; 256  : {

  00000	55		 push	 ebp
  00001	8b ec		 mov	 ebp, esp

; 257  : #ifndef _DEBUG
; 258  : 	//const char *pcExt = strchr(c_szFileName, '.');
; 259  : 	//if (pcExt &&
; 260  : 	//	_strnicmp(pcExt, ".py", 3) == 0 && // python  
; 261  : 	//	stricmp(c_szFileName, "logininfo.py") != 0 && //    
; 262  : 	//	strnicmp(c_szFileName, "locale", 6) != 0
; 263  : 	//	)
; 264  : 	//{
; 265  : 	//	return false;
; 266  : 	//}
; 267  : #endif
; 268  : 
; 269  : 	//if(m_bTryRelativePath) {
; 270  : 	//	if (strnicmp(c_szFileName, PATH_ABSOLUTE_YMIRWORK1, strlen(PATH_ABSOLUTE_YMIRWORK1)) == 0 || strnicmp(c_szFileName, PATH_ABSOLUTE_YMIRWORK2, strlen(PATH_ABSOLUTE_YMIRWORK2)) == 0) {
; 271  : 	//		if(rMappedFile.Create(c_szFileName+strlen(PATH_ABSOLUTE_YMIRWORK1), pData, 0, 0))
; 272  : 	//		{
; 273  : 	//			return true;
; 274  : 	//		}
; 275  : 	//	}
; 276  : 	//}
; 277  : 
; 278  : 	return rMappedFile.Create(c_szFileName, pData, 0, 0) ? true : false;

  00003	8b 4d 08	 mov	 ecx, DWORD PTR _rMappedFile$[ebp]
  00006	6a 00		 push	 0
  00008	6a 00		 push	 0
  0000a	ff 75 10	 push	 DWORD PTR _pData$[ebp]
  0000d	ff 75 0c	 push	 DWORD PTR _c_szFileName$[ebp]
  00010	e8 00 00 00 00	 call	 ?Create@CMappedFile@@QAEHPBDPAPBXHH@Z ; CMappedFile::Create
  00015	85 c0		 test	 eax, eax
  00017	0f 95 c0	 setne	 al

; 279  : }

  0001a	5d		 pop	 ebp
  0001b	c2 0c 00	 ret	 12			; 0000000cH
?GetFromFile@CEterPackManager@@QAE_NAAVCMappedFile@@PBDPAPBX@Z ENDP ; CEterPackManager::GetFromFile
_TEXT	ENDS
; Function compile flags: /Ogtp
; File C:\Users\murat\Desktop\Siveps2-1-99-Project\source\client\Client\EterPack\EterPackManager.cpp
; File C:\Program Files (x86)\Microsoft Visual Studio\2019\Professional\VC\Tools\MSVC\14.29.30133\include\xstring
; File C:\Users\murat\Desktop\Siveps2-1-99-Project\source\client\Client\EterPack\EterPackManager.cpp
; File C:\Program Files (x86)\Microsoft Visual Studio\2019\Professional\VC\Tools\MSVC\14.29.30133\include\xstring
; File C:\Users\murat\Desktop\Siveps2-1-99-Project\source\client\Client\EterPack\EterPackManager.cpp
; File C:\Program Files (x86)\Microsoft Visual Studio\2019\Professional\VC\Tools\MSVC\14.29.30133\include\xstring
; File C:\Users\murat\Desktop\Siveps2-1-99-Project\source\client\Client\EterPack\EterPackManager.cpp
; File C:\Program Files (x86)\Microsoft Visual Studio\2019\Professional\VC\Tools\MSVC\14.29.30133\include\xstring
; File C:\Users\murat\Desktop\Siveps2-1-99-Project\source\client\Client\EterPack\EterPackManager.cpp
; File C:\Program Files (x86)\Microsoft Visual Studio\2019\Professional\VC\Tools\MSVC\14.29.30133\include\xstring
; File C:\Users\murat\Desktop\Siveps2-1-99-Project\source\client\Client\EterPack\EterPackManager.cpp
; File C:\Program Files (x86)\Microsoft Visual Studio\2019\Professional\VC\Tools\MSVC\14.29.30133\include\xstring
; File C:\Users\murat\Desktop\Siveps2-1-99-Project\source\client\Client\EterPack\EterPackManager.cpp
; File C:\Program Files (x86)\Microsoft Visual Studio\2019\Professional\VC\Tools\MSVC\14.29.30133\include\xstring
; File C:\Users\murat\Desktop\Siveps2-1-99-Project\source\client\Client\EterPack\EterPackManager.cpp
; File C:\Program Files (x86)\Microsoft Visual Studio\2019\Professional\VC\Tools\MSVC\14.29.30133\include\xstring
; File C:\Users\murat\Desktop\Siveps2-1-99-Project\source\client\Client\EterPack\EterPackManager.cpp
;	COMDAT ?GetFromPack@CEterPackManager@@QAE_NAAVCMappedFile@@PBDPAPBX@Z
_TEXT	SEGMENT
_lock$ = -16						; size = 4
__$EHRec$ = -12						; size = 12
_rMappedFile$ = 8					; size = 4
_c_szFileName$ = 12					; size = 4
_pData$ = 16						; size = 4
?GetFromPack@CEterPackManager@@QAE_NAAVCMappedFile@@PBDPAPBX@Z PROC ; CEterPackManager::GetFromPack, COMDAT
; _this$ = ecx

; 199  : {

  00000	55		 push	 ebp
  00001	8b ec		 mov	 ebp, esp
  00003	6a ff		 push	 -1
  00005	68 00 00 00 00	 push	 __ehhandler$?GetFromPack@CEterPackManager@@QAE_NAAVCMappedFile@@PBDPAPBX@Z
  0000a	64 a1 00 00 00
	00		 mov	 eax, DWORD PTR fs:0
  00010	50		 push	 eax
  00011	51		 push	 ecx
  00012	53		 push	 ebx
  00013	56		 push	 esi
  00014	57		 push	 edi
  00015	a1 00 00 00 00	 mov	 eax, DWORD PTR ___security_cookie
  0001a	33 c5		 xor	 eax, ebp
  0001c	50		 push	 eax
  0001d	8d 45 f4	 lea	 eax, DWORD PTR __$EHRec$[ebp]
  00020	64 a3 00 00 00
	00		 mov	 DWORD PTR fs:0, eax
  00026	8b f9		 mov	 edi, ecx

; 200  : 	FinderLock lock(m_csFinder);

  00028	8d b7 60 14 00
	00		 lea	 esi, DWORD PTR [edi+5216]

; 187  : 		EnterCriticalSection(p_cs);

  0002e	56		 push	 esi
  0002f	89 75 f0	 mov	 DWORD PTR _lock$[ebp], esi
  00032	ff 15 00 00 00
	00		 call	 DWORD PTR __imp__EnterCriticalSection@4

; 201  : 
; 202  : 	static std::string strFileName;

  00038	64 a1 00 00 00
	00		 mov	 eax, DWORD PTR fs:__tls_array
  0003e	8b 15 00 00 00
	00		 mov	 edx, DWORD PTR __tls_index
  00044	c7 45 fc 00 00
	00 00		 mov	 DWORD PTR __$EHRec$[ebp+8], 0
  0004b	8b 0c 90	 mov	 ecx, DWORD PTR [eax+edx*4]
  0004e	a1 00 00 00 00	 mov	 eax, DWORD PTR ?$TSS0@?1??GetFromPack@CEterPackManager@@QAE_NAAVCMappedFile@@PBDPAPBX@Z@4HA
  00053	3b 81 00 00 00
	00		 cmp	 eax, DWORD PTR __Init_thread_epoch[ecx]
  00059	0f 8f e4 00 00
	00		 jg	 $LN66@GetFromPac
$LN2@GetFromPac:

; 203  : 
; 204  : 	if (0 == ConvertFileName(c_szFileName, strFileName))

  0005f	68 00 00 00 00	 push	 OFFSET ?strFileName@?1??GetFromPack@CEterPackManager@@QAE_NAAVCMappedFile@@PBDPAPBX@Z@4V?$basic_string@DU?$char_traits@D@std@@V?$allocator@D@2@@std@@A
  00064	ff 75 0c	 push	 DWORD PTR _c_szFileName$[ebp]
  00067	8b cf		 mov	 ecx, edi
  00069	e8 00 00 00 00	 call	 ?ConvertFileName@CEterPackManager@@IAEHPBDAAV?$basic_string@DU?$char_traits@D@std@@V?$allocator@D@2@@std@@@Z ; CEterPackManager::ConvertFileName
  0006e	85 c0		 test	 eax, eax
  00070	b8 00 00 00 00	 mov	 eax, OFFSET ?strFileName@?1??GetFromPack@CEterPackManager@@QAE_NAAVCMappedFile@@PBDPAPBX@Z@4V?$basic_string@DU?$char_traits@D@std@@V?$allocator@D@2@@std@@A
  00075	75 24		 jne	 SHORT $LN3@GetFromPac
; File C:\Program Files (x86)\Microsoft Visual Studio\2019\Professional\VC\Tools\MSVC\14.29.30133\include\xstring

; 2319 :         return _BUF_SIZE <= _Myres;

  00077	83 3d 14 00 00
	00 10		 cmp	 DWORD PTR ?strFileName@?1??GetFromPack@CEterPackManager@@QAE_NAAVCMappedFile@@PBDPAPBX@Z@4V?$basic_string@DU?$char_traits@D@std@@V?$allocator@D@2@@std@@A+20, 16 ; 00000010H
; File C:\Users\murat\Desktop\Siveps2-1-99-Project\source\client\Client\EterPack\EterPackManager.cpp

; 206  : 		return m_RootPack.Get(rMappedFile, strFileName.c_str(), pData);

  0007e	8d 4f 24	 lea	 ecx, DWORD PTR [edi+36]
  00081	ff 75 10	 push	 DWORD PTR _pData$[ebp]
; File C:\Program Files (x86)\Microsoft Visual Studio\2019\Professional\VC\Tools\MSVC\14.29.30133\include\xstring

; 2306 :         if (_Large_string_engaged()) {

  00084	0f 43 05 00 00
	00 00		 cmovae	 eax, DWORD PTR ?strFileName@?1??GetFromPack@CEterPackManager@@QAE_NAAVCMappedFile@@PBDPAPBX@Z@4V?$basic_string@DU?$char_traits@D@std@@V?$allocator@D@2@@std@@A
; File C:\Users\murat\Desktop\Siveps2-1-99-Project\source\client\Client\EterPack\EterPackManager.cpp

; 206  : 		return m_RootPack.Get(rMappedFile, strFileName.c_str(), pData);

  0008b	50		 push	 eax
  0008c	ff 75 08	 push	 DWORD PTR _rMappedFile$[ebp]
  0008f	e8 00 00 00 00	 call	 ?Get@CEterPack@@QAE_NAAVCMappedFile@@PBDPAPBX@Z ; CEterPack::Get
  00094	8a d8		 mov	 bl, al
  00096	e9 8b 00 00 00	 jmp	 $LN12@GetFromPac
$LN3@GetFromPac:
; File C:\Program Files (x86)\Microsoft Visual Studio\2019\Professional\VC\Tools\MSVC\14.29.30133\include\xstring

; 2319 :         return _BUF_SIZE <= _Myres;

  0009b	83 3d 14 00 00
	00 10		 cmp	 DWORD PTR ?strFileName@?1??GetFromPack@CEterPackManager@@QAE_NAAVCMappedFile@@PBDPAPBX@Z@4V?$basic_string@DU?$char_traits@D@std@@V?$allocator@D@2@@std@@A+20, 16 ; 00000010H
; File C:\Users\murat\Desktop\Siveps2-1-99-Project\source\client\Client\EterPack\EterPackManager.cpp

; 210  : 		DWORD dwFileNameHash = GetCRC32(strFileName.c_str(), strFileName.length());

  000a2	ff 35 10 00 00
	00		 push	 DWORD PTR ?strFileName@?1??GetFromPack@CEterPackManager@@QAE_NAAVCMappedFile@@PBDPAPBX@Z@4V?$basic_string@DU?$char_traits@D@std@@V?$allocator@D@2@@std@@A+16
; File C:\Program Files (x86)\Microsoft Visual Studio\2019\Professional\VC\Tools\MSVC\14.29.30133\include\xstring

; 2306 :         if (_Large_string_engaged()) {

  000a8	0f 43 05 00 00
	00 00		 cmovae	 eax, DWORD PTR ?strFileName@?1??GetFromPack@CEterPackManager@@QAE_NAAVCMappedFile@@PBDPAPBX@Z@4V?$basic_string@DU?$char_traits@D@std@@V?$allocator@D@2@@std@@A
; File C:\Users\murat\Desktop\Siveps2-1-99-Project\source\client\Client\EterPack\EterPackManager.cpp

; 210  : 		DWORD dwFileNameHash = GetCRC32(strFileName.c_str(), strFileName.length());

  000af	50		 push	 eax
  000b0	e8 00 00 00 00	 call	 ?GetCRC32@@YAKPBDI@Z	; GetCRC32
  000b5	83 c4 08	 add	 esp, 8
  000b8	8b d8		 mov	 ebx, eax

; 211  : 		SCache* pkCache = __FindCache(dwFileNameHash);

  000ba	8b cf		 mov	 ecx, edi
  000bc	53		 push	 ebx
  000bd	e8 00 00 00 00	 call	 ?__FindCache@CEterPackManager@@IAEPAUSCache@1@K@Z ; CEterPackManager::__FindCache

; 212  : 
; 213  : 		if (pkCache)

  000c2	85 c0		 test	 eax, eax
  000c4	74 11		 je	 SHORT $LN5@GetFromPac

; 214  : 		{
; 215  : 			rMappedFile.Link(pkCache->m_dwBufSize, pkCache->m_abBufData);

  000c6	ff 30		 push	 DWORD PTR [eax]
  000c8	8b 4d 08	 mov	 ecx, DWORD PTR _rMappedFile$[ebp]
  000cb	ff 70 04	 push	 DWORD PTR [eax+4]
  000ce	e8 00 00 00 00	 call	 ?Link@CMappedFile@@QAEXKPBX@Z ; CMappedFile::Link

; 216  : 			return true;

  000d3	b3 01		 mov	 bl, 1
  000d5	eb 4f		 jmp	 SHORT $LN12@GetFromPac
$LN5@GetFromPac:
; File C:\Program Files (x86)\Microsoft Visual Studio\2019\Professional\VC\Tools\MSVC\14.29.30133\include\xstring

; 2319 :         return _BUF_SIZE <= _Myres;

  000d7	83 3d 14 00 00
	00 10		 cmp	 DWORD PTR ?strFileName@?1??GetFromPack@CEterPackManager@@QAE_NAAVCMappedFile@@PBDPAPBX@Z@4V?$basic_string@DU?$char_traits@D@std@@V?$allocator@D@2@@std@@A+20, 16 ; 00000010H
; File C:\Users\murat\Desktop\Siveps2-1-99-Project\source\client\Client\EterPack\EterPackManager.cpp

; 219  : 		CEterFileDict::Item* pkFileItem = m_FileDict.GetItem(dwFileNameHash, strFileName.c_str());

  000de	8d 4f 0c	 lea	 ecx, DWORD PTR [edi+12]
; File C:\Program Files (x86)\Microsoft Visual Studio\2019\Professional\VC\Tools\MSVC\14.29.30133\include\xstring

; 2305 :         const value_type* _Result = _Bx._Buf;

  000e1	b8 00 00 00 00	 mov	 eax, OFFSET ?strFileName@?1??GetFromPack@CEterPackManager@@QAE_NAAVCMappedFile@@PBDPAPBX@Z@4V?$basic_string@DU?$char_traits@D@std@@V?$allocator@D@2@@std@@A

; 2306 :         if (_Large_string_engaged()) {

  000e6	0f 43 05 00 00
	00 00		 cmovae	 eax, DWORD PTR ?strFileName@?1??GetFromPack@CEterPackManager@@QAE_NAAVCMappedFile@@PBDPAPBX@Z@4V?$basic_string@DU?$char_traits@D@std@@V?$allocator@D@2@@std@@A
; File C:\Users\murat\Desktop\Siveps2-1-99-Project\source\client\Client\EterPack\EterPackManager.cpp

; 219  : 		CEterFileDict::Item* pkFileItem = m_FileDict.GetItem(dwFileNameHash, strFileName.c_str());

  000ed	50		 push	 eax
  000ee	53		 push	 ebx
  000ef	e8 00 00 00 00	 call	 ?GetItem@CEterFileDict@@QAEPAUItem@1@KPBD@Z ; CEterFileDict::GetItem

; 220  : 
; 221  : 		if (pkFileItem)

  000f4	85 c0		 test	 eax, eax
  000f6	74 2c		 je	 SHORT $LN7@GetFromPac

; 222  : 			if (pkFileItem->pkPack)

  000f8	8b 08		 mov	 ecx, DWORD PTR [eax]
  000fa	85 c9		 test	 ecx, ecx
  000fc	74 26		 je	 SHORT $LN7@GetFromPac

; 224  : 				bool r = pkFileItem->pkPack->Get2(rMappedFile, strFileName.c_str(), pkFileItem->pkInfo, pData);

  000fe	ff 75 10	 push	 DWORD PTR _pData$[ebp]
; File C:\Program Files (x86)\Microsoft Visual Studio\2019\Professional\VC\Tools\MSVC\14.29.30133\include\xstring

; 2319 :         return _BUF_SIZE <= _Myres;

  00101	83 3d 14 00 00
	00 10		 cmp	 DWORD PTR ?strFileName@?1??GetFromPack@CEterPackManager@@QAE_NAAVCMappedFile@@PBDPAPBX@Z@4V?$basic_string@DU?$char_traits@D@std@@V?$allocator@D@2@@std@@A+20, 16 ; 00000010H

; 2305 :         const value_type* _Result = _Bx._Buf;

  00108	ba 00 00 00 00	 mov	 edx, OFFSET ?strFileName@?1??GetFromPack@CEterPackManager@@QAE_NAAVCMappedFile@@PBDPAPBX@Z@4V?$basic_string@DU?$char_traits@D@std@@V?$allocator@D@2@@std@@A
; File C:\Users\murat\Desktop\Siveps2-1-99-Project\source\client\Client\EterPack\EterPackManager.cpp

; 224  : 				bool r = pkFileItem->pkPack->Get2(rMappedFile, strFileName.c_str(), pkFileItem->pkInfo, pData);

  0010d	ff 70 04	 push	 DWORD PTR [eax+4]
; File C:\Program Files (x86)\Microsoft Visual Studio\2019\Professional\VC\Tools\MSVC\14.29.30133\include\xstring

; 2306 :         if (_Large_string_engaged()) {

  00110	0f 43 15 00 00
	00 00		 cmovae	 edx, DWORD PTR ?strFileName@?1??GetFromPack@CEterPackManager@@QAE_NAAVCMappedFile@@PBDPAPBX@Z@4V?$basic_string@DU?$char_traits@D@std@@V?$allocator@D@2@@std@@A
; File C:\Users\murat\Desktop\Siveps2-1-99-Project\source\client\Client\EterPack\EterPackManager.cpp

; 224  : 				bool r = pkFileItem->pkPack->Get2(rMappedFile, strFileName.c_str(), pkFileItem->pkInfo, pData);

  00117	52		 push	 edx
  00118	ff 75 08	 push	 DWORD PTR _rMappedFile$[ebp]
  0011b	e8 00 00 00 00	 call	 ?Get2@CEterPack@@QAE_NAAVCMappedFile@@PBDPAUSEterPackIndex@@PAPBX@Z ; CEterPack::Get2

; 225  : 				//pkFileItem->pkPack->ClearDataMemoryMap();
; 226  : 				return r;

  00120	8a d8		 mov	 bl, al
  00122	eb 02		 jmp	 SHORT $LN12@GetFromPac
$LN7@GetFromPac:

; 227  : 			}
; 228  : 	}
; 229  : #ifdef _DEBUG
; 230  : 	TraceError("CANNOT_FIND_PACK_FILE [%s]", strFileName.c_str());
; 231  : #endif
; 232  : 
; 233  : 	return false;

  00124	32 db		 xor	 bl, bl
$LN12@GetFromPac:

; 192  : 		LeaveCriticalSection(p_cs);

  00126	56		 push	 esi
  00127	ff 15 00 00 00
	00		 call	 DWORD PTR __imp__LeaveCriticalSection@4

; 227  : 			}
; 228  : 	}
; 229  : #ifdef _DEBUG
; 230  : 	TraceError("CANNOT_FIND_PACK_FILE [%s]", strFileName.c_str());
; 231  : #endif
; 232  : 
; 233  : 	return false;

  0012d	8a c3		 mov	 al, bl

; 234  : }

  0012f	8b 4d f4	 mov	 ecx, DWORD PTR __$EHRec$[ebp]
  00132	64 89 0d 00 00
	00 00		 mov	 DWORD PTR fs:0, ecx
  00139	59		 pop	 ecx
  0013a	5f		 pop	 edi
  0013b	5e		 pop	 esi
  0013c	5b		 pop	 ebx
  0013d	8b e5		 mov	 esp, ebp
  0013f	5d		 pop	 ebp
  00140	c2 0c 00	 ret	 12			; 0000000cH
$LN66@GetFromPac:

; 201  : 
; 202  : 	static std::string strFileName;

  00143	68 00 00 00 00	 push	 OFFSET ?$TSS0@?1??GetFromPack@CEterPackManager@@QAE_NAAVCMappedFile@@PBDPAPBX@Z@4HA
  00148	e8 00 00 00 00	 call	 __Init_thread_header
  0014d	83 c4 04	 add	 esp, 4
  00150	83 3d 00 00 00
	00 ff		 cmp	 DWORD PTR ?$TSS0@?1??GetFromPack@CEterPackManager@@QAE_NAAVCMappedFile@@PBDPAPBX@Z@4HA, -1
  00157	0f 85 02 ff ff
	ff		 jne	 $LN2@GetFromPac
  0015d	68 00 00 00 00	 push	 OFFSET ??__FstrFileName@?1??GetFromPack@CEterPackManager@@QAE_NAAVCMappedFile@@PBDPAPBX@Z@YAXXZ ; `CEterPackManager::GetFromPack'::`2'::`dynamic atexit destructor for 'strFileName''
  00162	e8 00 00 00 00	 call	 _atexit
  00167	68 00 00 00 00	 push	 OFFSET ?$TSS0@?1??GetFromPack@CEterPackManager@@QAE_NAAVCMappedFile@@PBDPAPBX@Z@4HA
  0016c	e8 00 00 00 00	 call	 __Init_thread_footer
  00171	83 c4 08	 add	 esp, 8
  00174	e9 e6 fe ff ff	 jmp	 $LN2@GetFromPac
_TEXT	ENDS
;	COMDAT text$x
text$x	SEGMENT
__unwindfunclet$?GetFromPack@CEterPackManager@@QAE_NAAVCMappedFile@@PBDPAPBX@Z$0:
  00000	8d 4d f0	 lea	 ecx, DWORD PTR _lock$[ebp]
  00003	e9 00 00 00 00	 jmp	 ??1FinderLock@@QAE@XZ	; FinderLock::~FinderLock
  00008	cc		 int	 3
  00009	cc		 int	 3
  0000a	cc		 int	 3
  0000b	cc		 int	 3
  0000c	cc		 int	 3
__ehhandler$?GetFromPack@CEterPackManager@@QAE_NAAVCMappedFile@@PBDPAPBX@Z:
  0000d	90		 npad	 1
  0000e	90		 npad	 1
  0000f	8b 54 24 08	 mov	 edx, DWORD PTR [esp+8]
  00013	8d 42 0c	 lea	 eax, DWORD PTR [edx+12]
  00016	8b 4a ec	 mov	 ecx, DWORD PTR [edx-20]
  00019	33 c8		 xor	 ecx, eax
  0001b	e8 00 00 00 00	 call	 @__security_check_cookie@4
  00020	b8 00 00 00 00	 mov	 eax, OFFSET __ehfuncinfo$?GetFromPack@CEterPackManager@@QAE_NAAVCMappedFile@@PBDPAPBX@Z
  00025	e9 00 00 00 00	 jmp	 ___CxxFrameHandler3
text$x	ENDS
?GetFromPack@CEterPackManager@@QAE_NAAVCMappedFile@@PBDPAPBX@Z ENDP ; CEterPackManager::GetFromPack
; Function compile flags: /Ogtp
; File C:\Users\murat\Desktop\Siveps2-1-99-Project\source\client\Client\EterPack\EterPackManager.cpp
;	COMDAT ?Get@CEterPackManager@@QAE_NAAVCMappedFile@@PBDPAPBX@Z
_TEXT	SEGMENT
_rMappedFile$ = 8					; size = 4
_c_szFileName$ = 12					; size = 4
_pData$ = 16						; size = 4
?Get@CEterPackManager@@QAE_NAAVCMappedFile@@PBDPAPBX@Z PROC ; CEterPackManager::Get, COMDAT
; _this$ = ecx

; 159  : {

  00000	55		 push	 ebp
  00001	8b ec		 mov	 ebp, esp

; 160  : 	if (m_iSearchMode == SEARCH_PACK_FIRST)

  00003	8b 45 08	 mov	 eax, DWORD PTR _rMappedFile$[ebp]
  00006	53		 push	 ebx
  00007	8b 5d 10	 mov	 ebx, DWORD PTR _pData$[ebp]
  0000a	56		 push	 esi
  0000b	8b 75 0c	 mov	 esi, DWORD PTR _c_szFileName$[ebp]
  0000e	57		 push	 edi
  0000f	8b f9		 mov	 edi, ecx
  00011	83 7f 08 01	 cmp	 DWORD PTR [edi+8], 1
  00015	75 3d		 jne	 SHORT $LN4@Get

; 161  : 	{
; 162  : 		if (GetFromPack(rMappedFile, c_szFileName, pData))

  00017	53		 push	 ebx
  00018	56		 push	 esi
  00019	50		 push	 eax
  0001a	e8 00 00 00 00	 call	 ?GetFromPack@CEterPackManager@@QAE_NAAVCMappedFile@@PBDPAPBX@Z ; CEterPackManager::GetFromPack
  0001f	84 c0		 test	 al, al
  00021	75 25		 jne	 SHORT $LN8@Get

; 163  : 			return true;
; 164  : 
; 165  : 		if (c_szFileName[1] != ':' && GetFromFile(rMappedFile, c_szFileName, pData))

  00023	80 7e 01 3a	 cmp	 BYTE PTR [esi+1], 58	; 0000003aH
  00027	8b 45 08	 mov	 eax, DWORD PTR _rMappedFile$[ebp]
  0002a	74 28		 je	 SHORT $LN4@Get
  0002c	53		 push	 ebx
  0002d	56		 push	 esi
  0002e	50		 push	 eax
  0002f	8b cf		 mov	 ecx, edi
  00031	e8 00 00 00 00	 call	 ?GetFromFile@CEterPackManager@@QAE_NAAVCMappedFile@@PBDPAPBX@Z ; CEterPackManager::GetFromFile
  00036	84 c0		 test	 al, al
  00038	74 17		 je	 SHORT $LN9@Get

; 166  : 		{
; 167  : 			TraceError("%s", c_szFileName);

  0003a	56		 push	 esi
  0003b	68 00 00 00 00	 push	 OFFSET ??_C@_02DKCKIIND@?$CFs@
  00040	e8 00 00 00 00	 call	 ?TraceError@@YAXPBDZZ	; TraceError
  00045	83 c4 08	 add	 esp, 8
$LN8@Get:

; 178  : 	}
; 179  : 
; 180  : 	return false;
; 181  : }

  00048	5f		 pop	 edi
  00049	5e		 pop	 esi
  0004a	b0 01		 mov	 al, 1
  0004c	5b		 pop	 ebx
  0004d	5d		 pop	 ebp
  0004e	c2 0c 00	 ret	 12			; 0000000cH
$LN9@Get:

; 163  : 			return true;
; 164  : 
; 165  : 		if (c_szFileName[1] != ':' && GetFromFile(rMappedFile, c_szFileName, pData))

  00051	8b 45 08	 mov	 eax, DWORD PTR _rMappedFile$[ebp]
$LN4@Get:

; 168  : 			return true;
; 169  : 		}
; 170  : 	}
; 171  : 
; 172  : 	if (m_iSearchMode == SEARCH_FILE_FIRST)

  00054	83 7f 08 00	 cmp	 DWORD PTR [edi+8], 0
  00058	75 22		 jne	 SHORT $LN5@Get

; 173  : 	{
; 174  : 		if (GetFromFile(rMappedFile, c_szFileName, pData))

  0005a	53		 push	 ebx
  0005b	56		 push	 esi
  0005c	50		 push	 eax
  0005d	8b cf		 mov	 ecx, edi
  0005f	e8 00 00 00 00	 call	 ?GetFromFile@CEterPackManager@@QAE_NAAVCMappedFile@@PBDPAPBX@Z ; CEterPackManager::GetFromFile
  00064	84 c0		 test	 al, al
  00066	75 e0		 jne	 SHORT $LN8@Get

; 175  : 			return true;
; 176  : 
; 177  : 		return GetFromPack(rMappedFile, c_szFileName, pData);

  00068	8b 45 08	 mov	 eax, DWORD PTR _rMappedFile$[ebp]
  0006b	8b cf		 mov	 ecx, edi
  0006d	53		 push	 ebx
  0006e	56		 push	 esi
  0006f	50		 push	 eax
  00070	e8 00 00 00 00	 call	 ?GetFromPack@CEterPackManager@@QAE_NAAVCMappedFile@@PBDPAPBX@Z ; CEterPackManager::GetFromPack
  00075	5f		 pop	 edi

; 178  : 	}
; 179  : 
; 180  : 	return false;
; 181  : }

  00076	5e		 pop	 esi
  00077	5b		 pop	 ebx
  00078	5d		 pop	 ebp
  00079	c2 0c 00	 ret	 12			; 0000000cH
$LN5@Get:
  0007c	5f		 pop	 edi
  0007d	5e		 pop	 esi
  0007e	32 c0		 xor	 al, al
  00080	5b		 pop	 ebx
  00081	5d		 pop	 ebp
  00082	c2 0c 00	 ret	 12			; 0000000cH
?Get@CEterPackManager@@QAE_NAAVCMappedFile@@PBDPAPBX@Z ENDP ; CEterPackManager::Get
_TEXT	ENDS
; Function compile flags: /Ogtp
; File C:\Users\murat\Desktop\Siveps2-1-99-Project\source\client\Client\EterPack\EterPackManager.cpp
;	COMDAT ?GetSearchMode@CEterPackManager@@QAEHXZ
_TEXT	SEGMENT
?GetSearchMode@CEterPackManager@@QAEHXZ PROC		; CEterPackManager::GetSearchMode, COMDAT
; _this$ = ecx

; 393  : 	return m_iSearchMode;

  00000	8b 41 08	 mov	 eax, DWORD PTR [ecx+8]

; 394  : }

  00003	c3		 ret	 0
?GetSearchMode@CEterPackManager@@QAEHXZ ENDP		; CEterPackManager::GetSearchMode
_TEXT	ENDS
; Function compile flags: /Ogtp
; File C:\Users\murat\Desktop\Siveps2-1-99-Project\source\client\Client\EterPack\EterPackManager.cpp
;	COMDAT ?SetSearchMode@CEterPackManager@@QAEX_N@Z
_TEXT	SEGMENT
_bPackFirst$ = 8					; size = 1
?SetSearchMode@CEterPackManager@@QAEX_N@Z PROC		; CEterPackManager::SetSearchMode, COMDAT
; _this$ = ecx

; 387  : {

  00000	55		 push	 ebp
  00001	8b ec		 mov	 ebp, esp

; 388  : 	m_iSearchMode = bPackFirst ? SEARCH_PACK_FIRST : SEARCH_FILE_FIRST;

  00003	0f b6 45 08	 movzx	 eax, BYTE PTR _bPackFirst$[ebp]
  00007	89 41 08	 mov	 DWORD PTR [ecx+8], eax

; 389  : }

  0000a	5d		 pop	 ebp
  0000b	c2 04 00	 ret	 4
?SetSearchMode@CEterPackManager@@QAEX_N@Z ENDP		; CEterPackManager::SetSearchMode
_TEXT	ENDS
; Function compile flags: /Ogtp
; File C:\Users\murat\Desktop\Siveps2-1-99-Project\source\client\Client\EterPack\EterPackManager.cpp
; File C:\Program Files (x86)\Microsoft Visual Studio\2019\Professional\VC\Tools\MSVC\14.29.30133\include\xstring
; File C:\Users\murat\Desktop\Siveps2-1-99-Project\source\client\Client\EterPack\EterPackManager.cpp
; File C:\Program Files (x86)\Microsoft Visual Studio\2019\Professional\VC\Tools\MSVC\14.29.30133\include\xstring
; File C:\Users\murat\Desktop\Siveps2-1-99-Project\source\client\Client\EterPack\EterPackManager.cpp
; File C:\Program Files (x86)\Microsoft Visual Studio\2019\Professional\VC\Tools\MSVC\14.29.30133\include\xstring
; File C:\Users\murat\Desktop\Siveps2-1-99-Project\source\client\Client\EterPack\EterPackManager.cpp
; File C:\Users\murat\Desktop\Siveps2-1-99-Project\source\client\extern\include\boost\unordered\unordered_map.hpp
; File C:\Users\murat\Desktop\Siveps2-1-99-Project\source\client\Client\EterPack\EterPackManager.cpp
; File C:\Program Files (x86)\Microsoft Visual Studio\2019\Professional\VC\Tools\MSVC\14.29.30133\include\utility
; File C:\Users\murat\Desktop\Siveps2-1-99-Project\source\client\extern\include\boost\unordered\unordered_map.hpp
; File C:\Users\murat\Desktop\Siveps2-1-99-Project\source\client\Client\EterPack\EterPackManager.cpp
; File C:\Program Files (x86)\Microsoft Visual Studio\2019\Professional\VC\Tools\MSVC\14.29.30133\include\xstring
; File C:\Program Files (x86)\Microsoft Visual Studio\2019\Professional\VC\Tools\MSVC\14.29.30133\include\xmemory
; File C:\Program Files (x86)\Microsoft Visual Studio\2019\Professional\VC\Tools\MSVC\14.29.30133\include\xstring
; File C:\Program Files (x86)\Microsoft Visual Studio\2019\Professional\VC\Tools\MSVC\14.29.30133\include\xmemory
; File C:\Users\murat\Desktop\Siveps2-1-99-Project\source\client\Client\EterPack\EterPackManager.cpp
; File C:\Program Files (x86)\Microsoft Visual Studio\2019\Professional\VC\Tools\MSVC\14.29.30133\include\xmemory
; File C:\Users\murat\Desktop\Siveps2-1-99-Project\source\client\Client\EterPack\EterPackManager.cpp
;	COMDAT ?LoadStaticCache@CEterPackManager@@QAEXPBD@Z
_TEXT	SEGMENT
$T2 = -396						; size = 8
_f$ = -392						; size = 4
$T3 = -388						; size = 12
tv588 = -376						; size = 4
_c_pvData$ = -372					; size = 4
_dwFileNameHash$ = -368					; size = 4
_kMapFile$ = -364					; size = 324
_strFileName$ = -40					; size = 24
__$ArrayPad$ = -16					; size = 4
__$EHRec$ = -12						; size = 12
_c_szFileName$ = 8					; size = 4
?LoadStaticCache@CEterPackManager@@QAEXPBD@Z PROC	; CEterPackManager::LoadStaticCache, COMDAT
; _this$ = ecx

; 96   : {

  00000	55		 push	 ebp
  00001	8b ec		 mov	 ebp, esp
  00003	6a ff		 push	 -1
  00005	68 00 00 00 00	 push	 __ehhandler$?LoadStaticCache@CEterPackManager@@QAEXPBD@Z
  0000a	64 a1 00 00 00
	00		 mov	 eax, DWORD PTR fs:0
  00010	50		 push	 eax
  00011	81 ec 80 01 00
	00		 sub	 esp, 384		; 00000180H
  00017	a1 00 00 00 00	 mov	 eax, DWORD PTR ___security_cookie
  0001c	33 c5		 xor	 eax, ebp
  0001e	89 45 f0	 mov	 DWORD PTR __$ArrayPad$[ebp], eax
  00021	53		 push	 ebx
  00022	56		 push	 esi
  00023	57		 push	 edi
  00024	50		 push	 eax
  00025	8d 45 f4	 lea	 eax, DWORD PTR __$EHRec$[ebp]
  00028	64 a3 00 00 00
	00		 mov	 DWORD PTR fs:0, eax
  0002e	8b f1		 mov	 esi, ecx

; 97   : 	if (!m_isCacheMode)

  00030	80 7e 05 00	 cmp	 BYTE PTR [esi+5], 0
  00034	8b 7d 08	 mov	 edi, DWORD PTR _c_szFileName$[ebp]
  00037	0f 84 34 01 00
	00		 je	 $LN138@LoadStatic
; File C:\Program Files (x86)\Microsoft Visual Studio\2019\Professional\VC\Tools\MSVC\14.29.30133\include\xstring

; 2346 :         _CONSTEXPR20_CONTAINER _Bxty() noexcept : _Ptr() {} // user-provided, for fancy pointers

  0003d	c7 45 d8 00 00
	00 00		 mov	 DWORD PTR _strFileName$[ebp], 0

; 4596 :         _My_data._Mysize = 0;

  00044	c7 45 e8 00 00
	00 00		 mov	 DWORD PTR _strFileName$[ebp+16], 0

; 4597 : 
; 4598 : #ifdef __cpp_lib_constexpr_string
; 4599 :         if (_STD is_constant_evaluated()) {
; 4600 :             _My_data._Myres        = _BUF_SIZE; // SSO disabled in constexpr context
; 4601 :             auto& _Al              = _Getal();
; 4602 :             const pointer _New_ptr = _Al.allocate(_BUF_SIZE + 1); // throws
; 4603 :             _My_data._Bx._Ptr      = _New_ptr;
; 4604 : 
; 4605 :             _Elem* const _Raw_new = _Unfancy(_New_ptr);
; 4606 :             _Traits::assign(_Raw_new, _BUF_SIZE + 1, _Elem());
; 4607 :         } else
; 4608 : #endif // __cpp_lib_constexpr_string
; 4609 :         {
; 4610 :             _My_data._Myres = _BUF_SIZE - 1;

  0004b	c7 45 ec 0f 00
	00 00		 mov	 DWORD PTR _strFileName$[ebp+20], 15 ; 0000000fH

; 4611 :             // the _Traits::assign is last so the codegen doesn't think the char write can alias this
; 4612 :             _Traits::assign(_My_data._Bx._Buf[0], _Elem());

  00052	c6 45 d8 00	 mov	 BYTE PTR _strFileName$[ebp], 0
; File C:\Users\murat\Desktop\Siveps2-1-99-Project\source\client\Client\EterPack\EterPackManager.cpp

; 101  : 	if (0 == ConvertFileName(c_szFileName, strFileName))

  00056	8d 45 d8	 lea	 eax, DWORD PTR _strFileName$[ebp]
  00059	c7 45 fc 00 00
	00 00		 mov	 DWORD PTR __$EHRec$[ebp+8], 0
  00060	50		 push	 eax
  00061	57		 push	 edi
  00062	e8 00 00 00 00	 call	 ?ConvertFileName@CEterPackManager@@IAEHPBDAAV?$basic_string@DU?$char_traits@D@std@@V?$allocator@D@2@@std@@@Z ; CEterPackManager::ConvertFileName
  00067	85 c0		 test	 eax, eax
  00069	0f 84 d2 00 00
	00		 je	 $LN10@LoadStatic
; File C:\Program Files (x86)\Microsoft Visual Studio\2019\Professional\VC\Tools\MSVC\14.29.30133\include\xstring

; 2306 :         if (_Large_string_engaged()) {

  0006f	83 7d ec 10	 cmp	 DWORD PTR _strFileName$[ebp+20], 16 ; 00000010H
  00073	8d 45 d8	 lea	 eax, DWORD PTR _strFileName$[ebp]
; File C:\Users\murat\Desktop\Siveps2-1-99-Project\source\client\Client\EterPack\EterPackManager.cpp

; 106  : 	DWORD dwFileNameHash = GetCRC32(strFileName.c_str(), strFileName.length());

  00076	ff 75 e8	 push	 DWORD PTR _strFileName$[ebp+16]
; File C:\Program Files (x86)\Microsoft Visual Studio\2019\Professional\VC\Tools\MSVC\14.29.30133\include\xstring

; 2306 :         if (_Large_string_engaged()) {

  00079	0f 43 45 d8	 cmovae	 eax, DWORD PTR _strFileName$[ebp]
; File C:\Users\murat\Desktop\Siveps2-1-99-Project\source\client\Client\EterPack\EterPackManager.cpp

; 106  : 	DWORD dwFileNameHash = GetCRC32(strFileName.c_str(), strFileName.length());

  0007d	50		 push	 eax
  0007e	e8 00 00 00 00	 call	 ?GetCRC32@@YAKPBDI@Z	; GetCRC32
  00083	83 c4 08	 add	 esp, 8

; 107  : 
; 108  : 	boost::unordered_map<DWORD, SCache>::iterator f = m_kMap_dwNameKey_kCache.find(dwFileNameHash);

  00086	8d 8d 90 fe ff
	ff		 lea	 ecx, DWORD PTR _dwFileNameHash$[ebp]
  0008c	8b d8		 mov	 ebx, eax
  0008e	8d 86 48 14 00
	00		 lea	 eax, DWORD PTR [esi+5192]
  00094	89 9d 90 fe ff
	ff		 mov	 DWORD PTR _dwFileNameHash$[ebp], ebx
  0009a	89 85 88 fe ff
	ff		 mov	 DWORD PTR tv588[ebp], eax
  000a0	51		 push	 ecx
  000a1	8d 8d 78 fe ff
	ff		 lea	 ecx, DWORD PTR _f$[ebp]
  000a7	51		 push	 ecx
  000a8	8b c8		 mov	 ecx, eax
  000aa	e8 00 00 00 00	 call	 ?find@?$unordered_map@KUSCache@CEterPackManager@@U?$hash@K@boost@@U?$equal_to@K@std@@V?$allocator@U?$pair@$$CBKUSCache@CEterPackManager@@@std@@@6@@unordered@boost@@QAE?AU?$iterator@U?$ptr_node@U?$pair@$$CBKUSCache@CEterPackManager@@@std@@@detail@unordered@boost@@@iterator_detail@23@ABK@Z ; boost::unordered::unordered_map<unsigned long,CEterPackManager::SCache,boost::hash<unsigned long>,std::equal_to<unsigned long>,std::allocator<std::pair<unsigned long const ,CEterPackManager::SCache> > >::find

; 109  : 	if (m_kMap_dwNameKey_kCache.end() != f)

  000af	83 bd 78 fe ff
	ff 00		 cmp	 DWORD PTR _f$[ebp], 0
  000b6	0f 85 85 00 00
	00		 jne	 $LN10@LoadStatic

; 110  : 		return;
; 111  : 
; 112  : 	CMappedFile kMapFile;

  000bc	8d 8d 94 fe ff
	ff		 lea	 ecx, DWORD PTR _kMapFile$[ebp]
  000c2	e8 00 00 00 00	 call	 ??0CMappedFile@@QAE@XZ	; CMappedFile::CMappedFile

; 113  : 	const void* c_pvData;
; 114  : 	if (!Get(kMapFile, c_szFileName, &c_pvData))

  000c7	8d 85 8c fe ff
	ff		 lea	 eax, DWORD PTR _c_pvData$[ebp]
  000cd	c6 45 fc 01	 mov	 BYTE PTR __$EHRec$[ebp+8], 1
  000d1	50		 push	 eax
  000d2	57		 push	 edi
  000d3	8d 85 94 fe ff
	ff		 lea	 eax, DWORD PTR _kMapFile$[ebp]
  000d9	8b ce		 mov	 ecx, esi
  000db	50		 push	 eax
  000dc	e8 00 00 00 00	 call	 ?Get@CEterPackManager@@QAE_NAAVCMappedFile@@PBDPAPBX@Z ; CEterPackManager::Get
  000e1	84 c0		 test	 al, al
  000e3	74 51		 je	 SHORT $LN11@LoadStatic

; 115  : 		return;
; 116  : 
; 117  : 	SCache kNewCache;
; 118  : 	kNewCache.m_dwBufSize = kMapFile.Size();

  000e5	8d 8d 94 fe ff
	ff		 lea	 ecx, DWORD PTR _kMapFile$[ebp]
  000eb	e8 00 00 00 00	 call	 ?Size@CMappedFile@@QAEKXZ ; CMappedFile::Size
  000f0	8b f8		 mov	 edi, eax

; 119  : 	kNewCache.m_abBufData = new BYTE[kNewCache.m_dwBufSize];

  000f2	57		 push	 edi
  000f3	e8 00 00 00 00	 call	 ??_U@YAPAXI@Z		; operator new[]

; 120  : 	memcpy(kNewCache.m_abBufData, c_pvData, kNewCache.m_dwBufSize);

  000f8	57		 push	 edi
  000f9	ff b5 8c fe ff
	ff		 push	 DWORD PTR _c_pvData$[ebp]
  000ff	8b f0		 mov	 esi, eax
  00101	56		 push	 esi
  00102	e8 00 00 00 00	 call	 _memcpy
; File C:\Users\murat\Desktop\Siveps2-1-99-Project\source\client\extern\include\boost\unordered\unordered_map.hpp

; 226  :         return table_.emplace_unique(

  00107	8b 8d 88 fe ff
	ff		 mov	 ecx, DWORD PTR tv588[ebp]
  0010d	8d 85 7c fe ff
	ff		 lea	 eax, DWORD PTR $T3[ebp]
; File C:\Users\murat\Desktop\Siveps2-1-99-Project\source\client\Client\EterPack\EterPackManager.cpp

; 120  : 	memcpy(kNewCache.m_abBufData, c_pvData, kNewCache.m_dwBufSize);

  00113	83 c4 10	 add	 esp, 16			; 00000010H
; File C:\Program Files (x86)\Microsoft Visual Studio\2019\Professional\VC\Tools\MSVC\14.29.30133\include\utility

; 193  :         : first(_STD forward<_Other1>(_Val1)), second(_STD forward<_Other2>(_Val2)) {}

  00116	89 9d 7c fe ff
	ff		 mov	 DWORD PTR $T3[ebp], ebx
  0011c	89 b5 80 fe ff
	ff		 mov	 DWORD PTR $T3[ebp+4], esi
  00122	89 bd 84 fe ff
	ff		 mov	 DWORD PTR $T3[ebp+8], edi
; File C:\Users\murat\Desktop\Siveps2-1-99-Project\source\client\extern\include\boost\unordered\unordered_map.hpp

; 226  :         return table_.emplace_unique(

  00128	50		 push	 eax
  00129	50		 push	 eax
  0012a	8d 85 74 fe ff
	ff		 lea	 eax, DWORD PTR $T2[ebp]
  00130	50		 push	 eax
  00131	e8 00 00 00 00	 call	 ??$emplace_unique@U?$pair@$$CBKUSCache@CEterPackManager@@@std@@@?$table@U?$map@V?$allocator@U?$pair@$$CBKUSCache@CEterPackManager@@@std@@@std@@KUSCache@CEterPackManager@@U?$hash@K@boost@@U?$equal_to@K@2@@detail@unordered@boost@@@detail@unordered@boost@@QAE?AU?$pair@U?$iterator@U?$ptr_node@U?$pair@$$CBKUSCache@CEterPackManager@@@std@@@detail@unordered@boost@@@iterator_detail@unordered@boost@@_N@std@@ABK$$QAU?$pair@$$CBKUSCache@CEterPackManager@@@5@@Z ; boost::unordered::detail::table<boost::unordered::detail::map<std::allocator<std::pair<unsigned long const ,CEterPackManager::SCache> >,unsigned long,CEterPackManager::SCache,boost::hash<unsigned long>,std::equal_to<unsigned long> > >::emplace_unique<std::pair<unsigned long const ,CEterPackManager::SCache> >
$LN11@LoadStatic:
; File C:\Users\murat\Desktop\Siveps2-1-99-Project\source\client\Client\EterPack\EterPackManager.cpp

; 122  : }

  00136	8d 8d 94 fe ff
	ff		 lea	 ecx, DWORD PTR _kMapFile$[ebp]
  0013c	e8 00 00 00 00	 call	 ??1CMappedFile@@UAE@XZ	; CMappedFile::~CMappedFile
$LN10@LoadStatic:
; File C:\Program Files (x86)\Microsoft Visual Studio\2019\Professional\VC\Tools\MSVC\14.29.30133\include\xstring

; 2319 :         return _BUF_SIZE <= _Myres;

  00141	8b 55 ec	 mov	 edx, DWORD PTR _strFileName$[ebp+20]
  00144	83 fa 10	 cmp	 edx, 16			; 00000010H

; 4618 :         if (_Mypair._Myval2._Large_string_engaged()) {

  00147	72 28		 jb	 SHORT $LN138@LoadStatic
; File C:\Program Files (x86)\Microsoft Visual Studio\2019\Professional\VC\Tools\MSVC\14.29.30133\include\xmemory

; 835  :         _Deallocate<_New_alignof<_Ty>>(_Ptr, sizeof(_Ty) * _Count);

  00149	8b 4d d8	 mov	 ecx, DWORD PTR _strFileName$[ebp]
; File C:\Program Files (x86)\Microsoft Visual Studio\2019\Professional\VC\Tools\MSVC\14.29.30133\include\xstring

; 4622 :             _Al.deallocate(_Ptr, _Mypair._Myval2._Myres + 1);

  0014c	42		 inc	 edx
; File C:\Program Files (x86)\Microsoft Visual Studio\2019\Professional\VC\Tools\MSVC\14.29.30133\include\xmemory

; 835  :         _Deallocate<_New_alignof<_Ty>>(_Ptr, sizeof(_Ty) * _Count);

  0014d	8b c1		 mov	 eax, ecx

; 260  :         if (_Bytes >= _Big_allocation_threshold) { // boost the alignment of big allocations to help autovectorization

  0014f	81 fa 00 10 00
	00		 cmp	 edx, 4096		; 00001000H
  00155	72 10		 jb	 SHORT $LN148@LoadStatic

; 158  :     const uintptr_t _Ptr_container   = _Ptr_user[-1];

  00157	8b 49 fc	 mov	 ecx, DWORD PTR [ecx-4]
  0015a	83 c2 23	 add	 edx, 35			; 00000023H
  0015d	2b c1		 sub	 eax, ecx

; 172  :     _STL_VERIFY(_Back_shift >= _Min_back_shift && _Back_shift <= _Non_user_size, "invalid argument");

  0015f	83 c0 fc	 add	 eax, -4			; fffffffcH
  00162	83 f8 1f	 cmp	 eax, 31			; 0000001fH
  00165	77 28		 ja	 SHORT $LN156@LoadStatic
$LN148@LoadStatic:

; 264  :         ::operator delete(_Ptr, _Bytes);

  00167	52		 push	 edx
  00168	51		 push	 ecx
  00169	e8 00 00 00 00	 call	 ??3@YAXPAXI@Z		; operator delete
  0016e	83 c4 08	 add	 esp, 8
$LN138@LoadStatic:
; File C:\Users\murat\Desktop\Siveps2-1-99-Project\source\client\Client\EterPack\EterPackManager.cpp

; 122  : }

  00171	8b 4d f4	 mov	 ecx, DWORD PTR __$EHRec$[ebp]
  00174	64 89 0d 00 00
	00 00		 mov	 DWORD PTR fs:0, ecx
  0017b	59		 pop	 ecx
  0017c	5f		 pop	 edi
  0017d	5e		 pop	 esi
  0017e	5b		 pop	 ebx
  0017f	8b 4d f0	 mov	 ecx, DWORD PTR __$ArrayPad$[ebp]
  00182	33 cd		 xor	 ecx, ebp
  00184	e8 00 00 00 00	 call	 @__security_check_cookie@4
  00189	8b e5		 mov	 esp, ebp
  0018b	5d		 pop	 ebp
  0018c	c2 04 00	 ret	 4
$LN156@LoadStatic:
; File C:\Program Files (x86)\Microsoft Visual Studio\2019\Professional\VC\Tools\MSVC\14.29.30133\include\xmemory

; 172  :     _STL_VERIFY(_Back_shift >= _Min_back_shift && _Back_shift <= _Non_user_size, "invalid argument");

  0018f	e8 00 00 00 00	 call	 __invalid_parameter_noinfo_noreturn
$LN154@LoadStatic:
  00194	cc		 int	 3
_TEXT	ENDS
;	COMDAT text$x
text$x	SEGMENT
__unwindfunclet$?LoadStaticCache@CEterPackManager@@QAEXPBD@Z$0:
  00000	8d 4d d8	 lea	 ecx, DWORD PTR _strFileName$[ebp]
  00003	e9 00 00 00 00	 jmp	 ??1?$basic_string@DU?$char_traits@D@std@@V?$allocator@D@2@@std@@QAE@XZ ; std::basic_string<char,std::char_traits<char>,std::allocator<char> >::~basic_string<char,std::char_traits<char>,std::allocator<char> >
__unwindfunclet$?LoadStaticCache@CEterPackManager@@QAEXPBD@Z$1:
  00008	8d 8d 94 fe ff
	ff		 lea	 ecx, DWORD PTR _kMapFile$[ebp]
  0000e	e9 00 00 00 00	 jmp	 ??1CMappedFile@@UAE@XZ	; CMappedFile::~CMappedFile
  00013	cc		 int	 3
  00014	cc		 int	 3
  00015	cc		 int	 3
  00016	cc		 int	 3
  00017	cc		 int	 3
__ehhandler$?LoadStaticCache@CEterPackManager@@QAEXPBD@Z:
  00018	90		 npad	 1
  00019	90		 npad	 1
  0001a	8b 54 24 08	 mov	 edx, DWORD PTR [esp+8]
  0001e	8d 42 0c	 lea	 eax, DWORD PTR [edx+12]
  00021	8b 8a 70 fe ff
	ff		 mov	 ecx, DWORD PTR [edx-400]
  00027	33 c8		 xor	 ecx, eax
  00029	e8 00 00 00 00	 call	 @__security_check_cookie@4
  0002e	8b 4a fc	 mov	 ecx, DWORD PTR [edx-4]
  00031	33 c8		 xor	 ecx, eax
  00033	e8 00 00 00 00	 call	 @__security_check_cookie@4
  00038	b8 00 00 00 00	 mov	 eax, OFFSET __ehfuncinfo$?LoadStaticCache@CEterPackManager@@QAEXPBD@Z
  0003d	e9 00 00 00 00	 jmp	 ___CxxFrameHandler3
text$x	ENDS
?LoadStaticCache@CEterPackManager@@QAEXPBD@Z ENDP	; CEterPackManager::LoadStaticCache
; Function compile flags: /Ogtp
; File C:\Users\murat\Desktop\Siveps2-1-99-Project\source\client\Client\EterPack\EterPackManager.cpp
;	COMDAT ?SetRelativePathMode@CEterPackManager@@QAEXXZ
_TEXT	SEGMENT
?SetRelativePathMode@CEterPackManager@@QAEXXZ PROC	; CEterPackManager::SetRelativePathMode, COMDAT
; _this$ = ecx

; 52   : 	m_bTryRelativePath = true;

  00000	c6 41 04 01	 mov	 BYTE PTR [ecx+4], 1

; 53   : }

  00004	c3		 ret	 0
?SetRelativePathMode@CEterPackManager@@QAEXXZ ENDP	; CEterPackManager::SetRelativePathMode
_TEXT	ENDS
; Function compile flags: /Ogtp
; File C:\Users\murat\Desktop\Siveps2-1-99-Project\source\client\Client\EterPack\EterPackManager.cpp
;	COMDAT ?SetCacheMode@CEterPackManager@@QAEXXZ
_TEXT	SEGMENT
?SetCacheMode@CEterPackManager@@QAEXXZ PROC		; CEterPackManager::SetCacheMode, COMDAT
; _this$ = ecx

; 47   : 	m_isCacheMode=true;

  00000	c6 41 05 01	 mov	 BYTE PTR [ecx+5], 1

; 48   : }

  00004	c3		 ret	 0
?SetCacheMode@CEterPackManager@@QAEXXZ ENDP		; CEterPackManager::SetCacheMode
_TEXT	ENDS
; Function compile flags: /Ogtp
; File C:\Users\murat\Desktop\Siveps2-1-99-Project\source\client\Client\EterPack\EterPackManager.cpp
; File C:\Users\murat\Desktop\Siveps2-1-99-Project\source\client\extern\include\boost\unordered\detail\implementation.hpp
; File C:\Users\murat\Desktop\Siveps2-1-99-Project\source\client\Client\EterPack\EterPackManager.cpp
; File C:\Users\murat\Desktop\Siveps2-1-99-Project\source\client\extern\include\boost\unordered\detail\implementation.hpp
; File C:\Users\murat\Desktop\Siveps2-1-99-Project\source\client\Client\EterPack\EterPackManager.cpp
; File C:\Program Files (x86)\Microsoft Visual Studio\2019\Professional\VC\Tools\MSVC\14.29.30133\include\list
; File C:\Program Files (x86)\Microsoft Visual Studio\2019\Professional\VC\Tools\MSVC\14.29.30133\include\xmemory
; File C:\Program Files (x86)\Microsoft Visual Studio\2019\Professional\VC\Tools\MSVC\14.29.30133\include\list
; File C:\Program Files (x86)\Microsoft Visual Studio\2019\Professional\VC\Tools\MSVC\14.29.30133\include\xmemory
; File C:\Users\murat\Desktop\Siveps2-1-99-Project\source\client\Client\EterPack\EterPackManager.cpp
; File C:\Users\murat\Desktop\Siveps2-1-99-Project\source\client\Client\eterBase\Singleton.h
; File C:\Users\murat\Desktop\Siveps2-1-99-Project\source\client\Client\EterPack\EterPackManager.cpp
;	COMDAT ??1CEterPackManager@@UAE@XZ
_TEXT	SEGMENT
??1CEterPackManager@@UAE@XZ PROC			; CEterPackManager::~CEterPackManager, COMDAT
; _this$ = ecx

; 402  : {

  00000	53		 push	 ebx
  00001	56		 push	 esi
  00002	57		 push	 edi
  00003	8b f9		 mov	 edi, ecx
  00005	c7 07 00 00 00
	00		 mov	 DWORD PTR [edi], OFFSET ??_7CEterPackManager@@6B@

; 403  : 	__ClearCacheMap();

  0000b	e8 00 00 00 00	 call	 ?__ClearCacheMap@CEterPackManager@@IAEXXZ ; CEterPackManager::__ClearCacheMap
; File C:\Users\murat\Desktop\Siveps2-1-99-Project\source\client\extern\include\boost\unordered\detail\implementation.hpp

; 3041 :           return size_ ? next_node(get_previous_start()) : node_pointer();

  00010	83 bf 20 14 00
	00 00		 cmp	 DWORD PTR [edi+5152], 0
  00017	74 2a		 je	 SHORT $LN3@CEterPackM

; 3026 :           return buckets_ + static_cast<std::ptrdiff_t>(bucket_index);

  00019	8b 87 1c 14 00
	00		 mov	 eax, DWORD PTR [edi+5148]

; 3041 :           return size_ ? next_node(get_previous_start()) : node_pointer();

  0001f	8b b7 2c 14 00
	00		 mov	 esi, DWORD PTR [edi+5164]
  00025	8b 34 86	 mov	 esi, DWORD PTR [esi+eax*4]

; 2399 :           return node_ != x.node_;

  00028	85 f6		 test	 esi, esi
; File C:\Users\murat\Desktop\Siveps2-1-99-Project\source\client\Client\EterPack\EterPackManager.cpp

; 407  : 	while (i != e)

  0002a	74 17		 je	 SHORT $LN3@CEterPackM
  0002c	0f 1f 40 00	 npad	 4
$LL2@CEterPackM:

; 408  : 	{
; 409  : 		delete i->second;

  00030	8b 4e 20	 mov	 ecx, DWORD PTR [esi+32]
  00033	85 c9		 test	 ecx, ecx
  00035	74 06		 je	 SHORT $LN5@CEterPackM
  00037	8b 01		 mov	 eax, DWORD PTR [ecx]
  00039	6a 01		 push	 1
  0003b	ff 10		 call	 DWORD PTR [eax]
$LN5@CEterPackM:
; File C:\Users\murat\Desktop\Siveps2-1-99-Project\source\client\extern\include\boost\unordered\detail\implementation.hpp

; 2388 :           node_ = static_cast<node_pointer>(node_->next_);

  0003d	8b 36		 mov	 esi, DWORD PTR [esi]

; 2399 :           return node_ != x.node_;

  0003f	85 f6		 test	 esi, esi
; File C:\Users\murat\Desktop\Siveps2-1-99-Project\source\client\Client\EterPack\EterPackManager.cpp

; 407  : 	while (i != e)

  00041	75 ed		 jne	 SHORT $LL2@CEterPackM
$LN3@CEterPackM:

; 410  : 		i++;
; 411  : 	}
; 412  : 	DeleteCriticalSection(&m_csFinder);

  00043	8d 87 60 14 00
	00		 lea	 eax, DWORD PTR [edi+5216]
  00049	50		 push	 eax
  0004a	ff 15 00 00 00
	00		 call	 DWORD PTR __imp__DeleteCriticalSection@4

; 413  : }

  00050	8d 8f 48 14 00
	00		 lea	 ecx, DWORD PTR [edi+5192]
  00056	e8 00 00 00 00	 call	 ??1?$unordered_map@KUSCache@CEterPackManager@@U?$hash@K@boost@@U?$equal_to@K@std@@V?$allocator@U?$pair@$$CBKUSCache@CEterPackManager@@@std@@@6@@unordered@boost@@QAE@XZ ; boost::unordered::unordered_map<unsigned long,CEterPackManager::SCache,boost::hash<unsigned long>,std::equal_to<unsigned long>,std::allocator<std::pair<unsigned long const ,CEterPackManager::SCache> > >::~unordered_map<unsigned long,CEterPackManager::SCache,boost::hash<unsigned long>,std::equal_to<unsigned long>,std::allocator<std::pair<unsigned long const ,CEterPackManager::SCache> > >
  0005b	8d 8f 30 14 00
	00		 lea	 ecx, DWORD PTR [edi+5168]
  00061	e8 00 00 00 00	 call	 ??1?$unordered_map@V?$basic_string@DU?$char_traits@D@std@@V?$allocator@D@2@@std@@PAVCEterPack@@Ustringhash@@U?$equal_to@V?$basic_string@DU?$char_traits@D@std@@V?$allocator@D@2@@std@@@2@V?$allocator@U?$pair@$$CBV?$basic_string@DU?$char_traits@D@std@@V?$allocator@D@2@@std@@PAVCEterPack@@@std@@@2@@unordered@boost@@QAE@XZ ; boost::unordered::unordered_map<std::basic_string<char,std::char_traits<char>,std::allocator<char> >,CEterPack *,stringhash,std::equal_to<std::basic_string<char,std::char_traits<char>,std::allocator<char> > >,std::allocator<std::pair<std::basic_string<char,std::char_traits<char>,std::allocator<char> > const ,CEterPack *> > >::~unordered_map<std::basic_string<char,std::char_traits<char>,std::allocator<char> >,CEterPack *,stringhash,std::equal_to<std::basic_string<char,std::char_traits<char>,std::allocator<char> > >,std::allocator<std::pair<std::basic_string<char,std::char_traits<char>,std::allocator<char> > const ,CEterPack *> > >
  00066	8d 8f 18 14 00
	00		 lea	 ecx, DWORD PTR [edi+5144]
  0006c	e8 00 00 00 00	 call	 ??1?$unordered_map@V?$basic_string@DU?$char_traits@D@std@@V?$allocator@D@2@@std@@PAVCEterPack@@Ustringhash@@U?$equal_to@V?$basic_string@DU?$char_traits@D@std@@V?$allocator@D@2@@std@@@2@V?$allocator@U?$pair@$$CBV?$basic_string@DU?$char_traits@D@std@@V?$allocator@D@2@@std@@PAVCEterPack@@@std@@@2@@unordered@boost@@QAE@XZ ; boost::unordered::unordered_map<std::basic_string<char,std::char_traits<char>,std::allocator<char> >,CEterPack *,stringhash,std::equal_to<std::basic_string<char,std::char_traits<char>,std::allocator<char> > >,std::allocator<std::pair<std::basic_string<char,std::char_traits<char>,std::allocator<char> > const ,CEterPack *> > >::~unordered_map<std::basic_string<char,std::char_traits<char>,std::allocator<char> >,CEterPack *,stringhash,std::equal_to<std::basic_string<char,std::char_traits<char>,std::allocator<char> > >,std::allocator<std::pair<std::basic_string<char,std::char_traits<char>,std::allocator<char> > const ,CEterPack *> > >
; File C:\Program Files (x86)\Microsoft Visual Studio\2019\Professional\VC\Tools\MSVC\14.29.30133\include\list

; 1440 :         _Node::_Free_non_head(_Al, _My_data._Myhead);

  00071	8b 8f 10 14 00
	00		 mov	 ecx, DWORD PTR [edi+5136]

; 328  :         _Head->_Prev->_Next = nullptr;

  00077	8b 41 04	 mov	 eax, DWORD PTR [ecx+4]
  0007a	c7 00 00 00 00
	00		 mov	 DWORD PTR [eax], 0

; 329  : 
; 330  :         auto _Pnode = _Head->_Next;

  00080	8b 01		 mov	 eax, DWORD PTR [ecx]

; 331  :         for (_Nodeptr _Pnext; _Pnode; _Pnode = _Pnext) {

  00082	85 c0		 test	 eax, eax
  00084	74 13		 je	 SHORT $LN37@CEterPackM
$LL38@CEterPackM:

; 332  :             _Pnext = _Pnode->_Next;

  00086	8b 30		 mov	 esi, DWORD PTR [eax]
; File C:\Program Files (x86)\Microsoft Visual Studio\2019\Professional\VC\Tools\MSVC\14.29.30133\include\xmemory

; 264  :         ::operator delete(_Ptr, _Bytes);

  00088	6a 0c		 push	 12			; 0000000cH
  0008a	50		 push	 eax
  0008b	e8 00 00 00 00	 call	 ??3@YAXPAXI@Z		; operator delete
  00090	83 c4 08	 add	 esp, 8
; File C:\Program Files (x86)\Microsoft Visual Studio\2019\Professional\VC\Tools\MSVC\14.29.30133\include\list

; 331  :         for (_Nodeptr _Pnext; _Pnode; _Pnode = _Pnext) {

  00093	8b c6		 mov	 eax, esi
  00095	85 f6		 test	 esi, esi
  00097	75 ed		 jne	 SHORT $LL38@CEterPackM
$LN37@CEterPackM:
; File C:\Program Files (x86)\Microsoft Visual Studio\2019\Professional\VC\Tools\MSVC\14.29.30133\include\xmemory

; 264  :         ::operator delete(_Ptr, _Bytes);

  00099	6a 0c		 push	 12			; 0000000cH
  0009b	ff b7 10 14 00
	00		 push	 DWORD PTR [edi+5136]
  000a1	e8 00 00 00 00	 call	 ??3@YAXPAXI@Z		; operator delete
  000a6	83 c4 08	 add	 esp, 8
; File C:\Users\murat\Desktop\Siveps2-1-99-Project\source\client\Client\EterPack\EterPackManager.cpp

; 413  : }

  000a9	8d 4f 24	 lea	 ecx, DWORD PTR [edi+36]
  000ac	e8 00 00 00 00	 call	 ??1CEterPack@@UAE@XZ	; CEterPack::~CEterPack
  000b1	8d 4f 0c	 lea	 ecx, DWORD PTR [edi+12]
  000b4	e8 00 00 00 00	 call	 ??1?$unordered_multimap@KUItem@CEterFileDict@@U?$hash@K@boost@@U?$equal_to@K@std@@V?$allocator@U?$pair@$$CBKUItem@CEterFileDict@@@std@@@6@@unordered@boost@@QAE@XZ ; boost::unordered::unordered_multimap<unsigned long,CEterFileDict::Item,boost::hash<unsigned long>,std::equal_to<unsigned long>,std::allocator<std::pair<unsigned long const ,CEterFileDict::Item> > >::~unordered_multimap<unsigned long,CEterFileDict::Item,boost::hash<unsigned long>,std::equal_to<unsigned long>,std::allocator<std::pair<unsigned long const ,CEterFileDict::Item> > >
; File C:\Users\murat\Desktop\Siveps2-1-99-Project\source\client\Client\eterBase\Singleton.h

; 19   : 	{

  000b9	c7 07 00 00 00
	00		 mov	 DWORD PTR [edi], OFFSET ??_7?$CSingleton@VCEterPackManager@@@@6B@

; 20   : 		assert(ms_singleton);
; 21   : 		ms_singleton = 0;

  000bf	5f		 pop	 edi
  000c0	5e		 pop	 esi
  000c1	c7 05 00 00 00
	00 00 00 00 00	 mov	 DWORD PTR ?ms_singleton@?$CSingleton@VCEterPackManager@@@@0PAVCEterPackManager@@A, 0 ; CSingleton<CEterPackManager>::ms_singleton
  000cb	5b		 pop	 ebx
; File C:\Users\murat\Desktop\Siveps2-1-99-Project\source\client\Client\EterPack\EterPackManager.cpp

; 413  : }

  000cc	c3		 ret	 0
??1CEterPackManager@@UAE@XZ ENDP			; CEterPackManager::~CEterPackManager
_TEXT	ENDS
; Function compile flags: /Ogtp
; File C:\Users\murat\Desktop\Siveps2-1-99-Project\source\client\Client\EterPack\EterPackManager.cpp
; File C:\Users\murat\Desktop\Siveps2-1-99-Project\source\client\Client\eterBase\Singleton.h
; File C:\Users\murat\Desktop\Siveps2-1-99-Project\source\client\Client\EterPack\EterPackManager.cpp
; File C:\Program Files (x86)\Microsoft Visual Studio\2019\Professional\VC\Tools\MSVC\14.29.30133\include\xmemory
; File C:\Users\murat\Desktop\Siveps2-1-99-Project\source\client\Client\EterPack\EterPackManager.cpp
; File C:\Program Files (x86)\Microsoft Visual Studio\2019\Professional\VC\Tools\MSVC\14.29.30133\include\list
; File C:\Program Files (x86)\Microsoft Visual Studio\2019\Professional\VC\Tools\MSVC\14.29.30133\include\xmemory
; File C:\Users\murat\Desktop\Siveps2-1-99-Project\source\client\Client\EterPack\EterPackManager.cpp
; File C:\Program Files (x86)\Microsoft Visual Studio\2019\Professional\VC\Tools\MSVC\14.29.30133\include\list
; File C:\Users\murat\Desktop\Siveps2-1-99-Project\source\client\Client\EterPack\EterPackManager.cpp
;	COMDAT ??0CEterPackManager@@QAE@XZ
_TEXT	SEGMENT
_this$ = -16						; size = 4
__$EHRec$ = -12						; size = 12
??0CEterPackManager@@QAE@XZ PROC			; CEterPackManager::CEterPackManager, COMDAT
; _this$ = ecx

; 397  : {

  00000	55		 push	 ebp
  00001	8b ec		 mov	 ebp, esp
  00003	6a ff		 push	 -1
  00005	68 00 00 00 00	 push	 __ehhandler$??0CEterPackManager@@QAE@XZ
  0000a	64 a1 00 00 00
	00		 mov	 eax, DWORD PTR fs:0
  00010	50		 push	 eax
  00011	51		 push	 ecx
  00012	56		 push	 esi
  00013	a1 00 00 00 00	 mov	 eax, DWORD PTR ___security_cookie
  00018	33 c5		 xor	 eax, ebp
  0001a	50		 push	 eax
  0001b	8d 45 f4	 lea	 eax, DWORD PTR __$EHRec$[ebp]
  0001e	64 a3 00 00 00
	00		 mov	 DWORD PTR fs:0, eax
  00024	8b f1		 mov	 esi, ecx
  00026	89 75 f0	 mov	 DWORD PTR _this$[ebp], esi
; File C:\Users\murat\Desktop\Siveps2-1-99-Project\source\client\Client\eterBase\Singleton.h

; 15   : 		ms_singleton = (T*) ((int) this + offset);

  00029	89 35 00 00 00
	00		 mov	 DWORD PTR ?ms_singleton@?$CSingleton@VCEterPackManager@@@@0PAVCEterPackManager@@A, esi ; CSingleton<CEterPackManager>::ms_singleton
; File C:\Users\murat\Desktop\Siveps2-1-99-Project\source\client\Client\EterPack\EterPackManager.cpp

; 397  : {

  0002f	8d 4e 0c	 lea	 ecx, DWORD PTR [esi+12]
  00032	c7 45 fc 00 00
	00 00		 mov	 DWORD PTR __$EHRec$[ebp+8], 0
  00039	c7 06 00 00 00
	00		 mov	 DWORD PTR [esi], OFFSET ??_7CEterPackManager@@6B@
  0003f	66 c7 46 04 00
	00		 mov	 WORD PTR [esi+4], 0
  00045	c7 46 08 00 00
	00 00		 mov	 DWORD PTR [esi+8], 0
  0004c	e8 00 00 00 00	 call	 ??0?$unordered_multimap@KUItem@CEterFileDict@@U?$hash@K@boost@@U?$equal_to@K@std@@V?$allocator@U?$pair@$$CBKUItem@CEterFileDict@@@std@@@6@@unordered@boost@@QAE@XZ ; boost::unordered::unordered_multimap<unsigned long,CEterFileDict::Item,boost::hash<unsigned long>,std::equal_to<unsigned long>,std::allocator<std::pair<unsigned long const ,CEterFileDict::Item> > >::unordered_multimap<unsigned long,CEterFileDict::Item,boost::hash<unsigned long>,std::equal_to<unsigned long>,std::allocator<std::pair<unsigned long const ,CEterFileDict::Item> > >
  00051	8d 4e 24	 lea	 ecx, DWORD PTR [esi+36]
  00054	c6 45 fc 01	 mov	 BYTE PTR __$EHRec$[ebp+8], 1
  00058	e8 00 00 00 00	 call	 ??0CEterPack@@QAE@XZ	; CEterPack::CEterPack
; File C:\Program Files (x86)\Microsoft Visual Studio\2019\Professional\VC\Tools\MSVC\14.29.30133\include\xmemory

; 85   :         return ::operator new(_Bytes);

  0005d	6a 0c		 push	 12			; 0000000cH
; File C:\Users\murat\Desktop\Siveps2-1-99-Project\source\client\Client\EterPack\EterPackManager.cpp

; 397  : {

  0005f	c6 45 fc 02	 mov	 BYTE PTR __$EHRec$[ebp+8], 2
; File C:\Program Files (x86)\Microsoft Visual Studio\2019\Professional\VC\Tools\MSVC\14.29.30133\include\list

; 358  :     _List_val() noexcept : _Myhead(), _Mysize(0) {} // initialize data

  00063	c7 86 10 14 00
	00 00 00 00 00	 mov	 DWORD PTR [esi+5136], 0
  0006d	c7 86 14 14 00
	00 00 00 00 00	 mov	 DWORD PTR [esi+5140], 0
; File C:\Program Files (x86)\Microsoft Visual Studio\2019\Professional\VC\Tools\MSVC\14.29.30133\include\xmemory

; 85   :         return ::operator new(_Bytes);

  00077	e8 00 00 00 00	 call	 ??2@YAPAXI@Z		; operator new
  0007c	83 c4 04	 add	 esp, 4
; File C:\Users\murat\Desktop\Siveps2-1-99-Project\source\client\Client\EterPack\EterPackManager.cpp

; 397  : {

  0007f	8d 8e 18 14 00
	00		 lea	 ecx, DWORD PTR [esi+5144]
; File C:\Program Files (x86)\Microsoft Visual Studio\2019\Professional\VC\Tools\MSVC\14.29.30133\include\list

; 1776 :         _Construct_in_place(_Newhead->_Next, _Newhead);

  00085	89 00		 mov	 DWORD PTR [eax], eax

; 1777 :         _Construct_in_place(_Newhead->_Prev, _Newhead);

  00087	89 40 04	 mov	 DWORD PTR [eax+4], eax

; 1778 :         _Mypair._Myval2._Myhead = _Newhead;

  0008a	89 86 10 14 00
	00		 mov	 DWORD PTR [esi+5136], eax
; File C:\Users\murat\Desktop\Siveps2-1-99-Project\source\client\Client\EterPack\EterPackManager.cpp

; 397  : {

  00090	e8 00 00 00 00	 call	 ??0?$unordered_map@V?$basic_string@DU?$char_traits@D@std@@V?$allocator@D@2@@std@@PAVCEterPack@@Ustringhash@@U?$equal_to@V?$basic_string@DU?$char_traits@D@std@@V?$allocator@D@2@@std@@@2@V?$allocator@U?$pair@$$CBV?$basic_string@DU?$char_traits@D@std@@V?$allocator@D@2@@std@@PAVCEterPack@@@std@@@2@@unordered@boost@@QAE@XZ ; boost::unordered::unordered_map<std::basic_string<char,std::char_traits<char>,std::allocator<char> >,CEterPack *,stringhash,std::equal_to<std::basic_string<char,std::char_traits<char>,std::allocator<char> > >,std::allocator<std::pair<std::basic_string<char,std::char_traits<char>,std::allocator<char> > const ,CEterPack *> > >::unordered_map<std::basic_string<char,std::char_traits<char>,std::allocator<char> >,CEterPack *,stringhash,std::equal_to<std::basic_string<char,std::char_traits<char>,std::allocator<char> > >,std::allocator<std::pair<std::basic_string<char,std::char_traits<char>,std::allocator<char> > const ,CEterPack *> > >
  00095	8d 8e 30 14 00
	00		 lea	 ecx, DWORD PTR [esi+5168]
  0009b	e8 00 00 00 00	 call	 ??0?$unordered_map@V?$basic_string@DU?$char_traits@D@std@@V?$allocator@D@2@@std@@PAVCEterPack@@Ustringhash@@U?$equal_to@V?$basic_string@DU?$char_traits@D@std@@V?$allocator@D@2@@std@@@2@V?$allocator@U?$pair@$$CBV?$basic_string@DU?$char_traits@D@std@@V?$allocator@D@2@@std@@PAVCEterPack@@@std@@@2@@unordered@boost@@QAE@XZ ; boost::unordered::unordered_map<std::basic_string<char,std::char_traits<char>,std::allocator<char> >,CEterPack *,stringhash,std::equal_to<std::basic_string<char,std::char_traits<char>,std::allocator<char> > >,std::allocator<std::pair<std::basic_string<char,std::char_traits<char>,std::allocator<char> > const ,CEterPack *> > >::unordered_map<std::basic_string<char,std::char_traits<char>,std::allocator<char> >,CEterPack *,stringhash,std::equal_to<std::basic_string<char,std::char_traits<char>,std::allocator<char> > >,std::allocator<std::pair<std::basic_string<char,std::char_traits<char>,std::allocator<char> > const ,CEterPack *> > >
  000a0	8d 8e 48 14 00
	00		 lea	 ecx, DWORD PTR [esi+5192]
  000a6	e8 00 00 00 00	 call	 ??0?$unordered_map@KUSCache@CEterPackManager@@U?$hash@K@boost@@U?$equal_to@K@std@@V?$allocator@U?$pair@$$CBKUSCache@CEterPackManager@@@std@@@6@@unordered@boost@@QAE@XZ ; boost::unordered::unordered_map<unsigned long,CEterPackManager::SCache,boost::hash<unsigned long>,std::equal_to<unsigned long>,std::allocator<std::pair<unsigned long const ,CEterPackManager::SCache> > >::unordered_map<unsigned long,CEterPackManager::SCache,boost::hash<unsigned long>,std::equal_to<unsigned long>,std::allocator<std::pair<unsigned long const ,CEterPackManager::SCache> > >

; 398  : 	InitializeCriticalSection(&m_csFinder);

  000ab	8d 86 60 14 00
	00		 lea	 eax, DWORD PTR [esi+5216]
  000b1	50		 push	 eax
  000b2	ff 15 00 00 00
	00		 call	 DWORD PTR __imp__InitializeCriticalSection@4

; 399  : }

  000b8	8b c6		 mov	 eax, esi
  000ba	8b 4d f4	 mov	 ecx, DWORD PTR __$EHRec$[ebp]
  000bd	64 89 0d 00 00
	00 00		 mov	 DWORD PTR fs:0, ecx
  000c4	59		 pop	 ecx
  000c5	5e		 pop	 esi
  000c6	8b e5		 mov	 esp, ebp
  000c8	5d		 pop	 ebp
  000c9	c3		 ret	 0
_TEXT	ENDS
;	COMDAT text$x
text$x	SEGMENT
__unwindfunclet$??0CEterPackManager@@QAE@XZ$0:
  00000	8b 4d f0	 mov	 ecx, DWORD PTR _this$[ebp]
  00003	e9 00 00 00 00	 jmp	 ??1?$CSingleton@VCEterPackManager@@@@UAE@XZ ; CSingleton<CEterPackManager>::~CSingleton<CEterPackManager>
__unwindfunclet$??0CEterPackManager@@QAE@XZ$1:
  00008	8b 4d f0	 mov	 ecx, DWORD PTR _this$[ebp]
  0000b	83 c1 0c	 add	 ecx, 12			; 0000000cH
  0000e	e9 00 00 00 00	 jmp	 ??1CEterFileDict@@QAE@XZ
__unwindfunclet$??0CEterPackManager@@QAE@XZ$2:
  00013	8b 4d f0	 mov	 ecx, DWORD PTR _this$[ebp]
  00016	83 c1 24	 add	 ecx, 36			; 00000024H
  00019	e9 00 00 00 00	 jmp	 ??1CEterPack@@UAE@XZ	; CEterPack::~CEterPack
  0001e	cc		 int	 3
  0001f	cc		 int	 3
  00020	cc		 int	 3
  00021	cc		 int	 3
  00022	cc		 int	 3
__ehhandler$??0CEterPackManager@@QAE@XZ:
  00023	90		 npad	 1
  00024	90		 npad	 1
  00025	8b 54 24 08	 mov	 edx, DWORD PTR [esp+8]
  00029	8d 42 0c	 lea	 eax, DWORD PTR [edx+12]
  0002c	8b 4a f4	 mov	 ecx, DWORD PTR [edx-12]
  0002f	33 c8		 xor	 ecx, eax
  00031	e8 00 00 00 00	 call	 @__security_check_cookie@4
  00036	b8 00 00 00 00	 mov	 eax, OFFSET __ehfuncinfo$??0CEterPackManager@@QAE@XZ
  0003b	e9 00 00 00 00	 jmp	 ___CxxFrameHandler3
text$x	ENDS
??0CEterPackManager@@QAE@XZ ENDP			; CEterPackManager::CEterPackManager
; Function compile flags: /Ogtp
; File C:\Users\murat\Desktop\Siveps2-1-99-Project\source\client\Client\eterBase\Singleton.h
;	COMDAT ??_G?$CSingleton@VCEterPackManager@@@@UAEPAXI@Z
_TEXT	SEGMENT
___flags$ = 8						; size = 4
??_G?$CSingleton@VCEterPackManager@@@@UAEPAXI@Z PROC	; CSingleton<CEterPackManager>::`scalar deleting destructor', COMDAT
; _this$ = ecx
  00000	55		 push	 ebp
  00001	8b ec		 mov	 ebp, esp
  00003	f6 45 08 01	 test	 BYTE PTR ___flags$[ebp], 1

; 19   : 	{

  00007	56		 push	 esi
  00008	8b f1		 mov	 esi, ecx
  0000a	c7 06 00 00 00
	00		 mov	 DWORD PTR [esi], OFFSET ??_7?$CSingleton@VCEterPackManager@@@@6B@

; 20   : 		assert(ms_singleton);
; 21   : 		ms_singleton = 0;

  00010	c7 05 00 00 00
	00 00 00 00 00	 mov	 DWORD PTR ?ms_singleton@?$CSingleton@VCEterPackManager@@@@0PAVCEterPackManager@@A, 0 ; CSingleton<CEterPackManager>::ms_singleton
  0001a	74 0b		 je	 SHORT $LN6@scalar
  0001c	6a 04		 push	 4
  0001e	56		 push	 esi
  0001f	e8 00 00 00 00	 call	 ??3@YAXPAXI@Z		; operator delete
  00024	83 c4 08	 add	 esp, 8
$LN6@scalar:
  00027	8b c6		 mov	 eax, esi
  00029	5e		 pop	 esi
  0002a	5d		 pop	 ebp
  0002b	c2 04 00	 ret	 4
??_G?$CSingleton@VCEterPackManager@@@@UAEPAXI@Z ENDP	; CSingleton<CEterPackManager>::`scalar deleting destructor'
_TEXT	ENDS
; Function compile flags: /Ogtp
; File C:\Users\murat\Desktop\Siveps2-1-99-Project\source\client\Client\eterBase\Singleton.h
;	COMDAT ??1?$CSingleton@VCEterPackManager@@@@UAE@XZ
_TEXT	SEGMENT
??1?$CSingleton@VCEterPackManager@@@@UAE@XZ PROC	; CSingleton<CEterPackManager>::~CSingleton<CEterPackManager>, COMDAT
; _this$ = ecx

; 19   : 	{

  00000	c7 01 00 00 00
	00		 mov	 DWORD PTR [ecx], OFFSET ??_7?$CSingleton@VCEterPackManager@@@@6B@

; 20   : 		assert(ms_singleton);
; 21   : 		ms_singleton = 0;

  00006	c7 05 00 00 00
	00 00 00 00 00	 mov	 DWORD PTR ?ms_singleton@?$CSingleton@VCEterPackManager@@@@0PAVCEterPackManager@@A, 0 ; CSingleton<CEterPackManager>::ms_singleton

; 22   : 	}

  00010	c3		 ret	 0
??1?$CSingleton@VCEterPackManager@@@@UAE@XZ ENDP	; CSingleton<CEterPackManager>::~CSingleton<CEterPackManager>
_TEXT	ENDS
; Function compile flags: /Ogtp
;	COMDAT ??1CEterFileDict@@QAE@XZ
_TEXT	SEGMENT
??1CEterFileDict@@QAE@XZ PROC				; CEterFileDict::~CEterFileDict, COMDAT
; _this$ = ecx
  00000	e9 00 00 00 00	 jmp	 ??1?$unordered_multimap@KUItem@CEterFileDict@@U?$hash@K@boost@@U?$equal_to@K@std@@V?$allocator@U?$pair@$$CBKUItem@CEterFileDict@@@std@@@6@@unordered@boost@@QAE@XZ ; boost::unordered::unordered_multimap<unsigned long,CEterFileDict::Item,boost::hash<unsigned long>,std::equal_to<unsigned long>,std::allocator<std::pair<unsigned long const ,CEterFileDict::Item> > >::~unordered_multimap<unsigned long,CEterFileDict::Item,boost::hash<unsigned long>,std::equal_to<unsigned long>,std::allocator<std::pair<unsigned long const ,CEterFileDict::Item> > >
??1CEterFileDict@@QAE@XZ ENDP				; CEterFileDict::~CEterFileDict
_TEXT	ENDS
; Function compile flags: /Ogtp
; File C:\Users\murat\Desktop\Siveps2-1-99-Project\source\client\extern\include\boost\unordered\unordered_map.hpp
;	COMDAT ??1?$unordered_multimap@KUItem@CEterFileDict@@U?$hash@K@boost@@U?$equal_to@K@std@@V?$allocator@U?$pair@$$CBKUItem@CEterFileDict@@@std@@@6@@unordered@boost@@QAE@XZ
_TEXT	SEGMENT
??1?$unordered_multimap@KUItem@CEterFileDict@@U?$hash@K@boost@@U?$equal_to@K@std@@V?$allocator@U?$pair@$$CBKUItem@CEterFileDict@@@std@@@6@@unordered@boost@@QAE@XZ PROC ; boost::unordered::unordered_multimap<unsigned long,CEterFileDict::Item,boost::hash<unsigned long>,std::equal_to<unsigned long>,std::allocator<std::pair<unsigned long const ,CEterFileDict::Item> > >::~unordered_multimap<unsigned long,CEterFileDict::Item,boost::hash<unsigned long>,std::equal_to<unsigned long>,std::allocator<std::pair<unsigned long const ,CEterFileDict::Item> > >, COMDAT
; _this$ = ecx

; 2124 :     }

  00000	e9 00 00 00 00	 jmp	 ??1?$table@U?$map@V?$allocator@U?$pair@$$CBKUItem@CEterFileDict@@@std@@@std@@KUItem@CEterFileDict@@U?$hash@K@boost@@U?$equal_to@K@2@@detail@unordered@boost@@@detail@unordered@boost@@QAE@XZ ; boost::unordered::detail::table<boost::unordered::detail::map<std::allocator<std::pair<unsigned long const ,CEterFileDict::Item> >,unsigned long,CEterFileDict::Item,boost::hash<unsigned long>,std::equal_to<unsigned long> > >::~table<boost::unordered::detail::map<std::allocator<std::pair<unsigned long const ,CEterFileDict::Item> >,unsigned long,CEterFileDict::Item,boost::hash<unsigned long>,std::equal_to<unsigned long> > >
??1?$unordered_multimap@KUItem@CEterFileDict@@U?$hash@K@boost@@U?$equal_to@K@std@@V?$allocator@U?$pair@$$CBKUItem@CEterFileDict@@@std@@@6@@unordered@boost@@QAE@XZ ENDP ; boost::unordered::unordered_multimap<unsigned long,CEterFileDict::Item,boost::hash<unsigned long>,std::equal_to<unsigned long>,std::allocator<std::pair<unsigned long const ,CEterFileDict::Item> > >::~unordered_multimap<unsigned long,CEterFileDict::Item,boost::hash<unsigned long>,std::equal_to<unsigned long>,std::allocator<std::pair<unsigned long const ,CEterFileDict::Item> > >
_TEXT	ENDS
; Function compile flags: /Ogtp
; File C:\Users\murat\Desktop\Siveps2-1-99-Project\source\client\extern\include\boost\unordered\unordered_map.hpp
; File C:\Users\murat\Desktop\Siveps2-1-99-Project\source\client\extern\include\boost\unordered\detail\implementation.hpp
; File C:\Users\murat\Desktop\Siveps2-1-99-Project\source\client\extern\include\boost\unordered\unordered_map.hpp
; File C:\Users\murat\Desktop\Siveps2-1-99-Project\source\client\extern\include\boost\unordered\detail\implementation.hpp
; File C:\Users\murat\Desktop\Siveps2-1-99-Project\source\client\extern\include\boost\unordered\unordered_map.hpp
; File C:\Users\murat\Desktop\Siveps2-1-99-Project\source\client\extern\include\boost\unordered\detail\implementation.hpp
; File C:\Users\murat\Desktop\Siveps2-1-99-Project\source\client\extern\include\boost\unordered\unordered_map.hpp
;	COMDAT ??0?$unordered_multimap@KUItem@CEterFileDict@@U?$hash@K@boost@@U?$equal_to@K@std@@V?$allocator@U?$pair@$$CBKUItem@CEterFileDict@@@std@@@6@@unordered@boost@@QAE@XZ
_TEXT	SEGMENT
_this$ = -4						; size = 4
??0?$unordered_multimap@KUItem@CEterFileDict@@U?$hash@K@boost@@U?$equal_to@K@std@@V?$allocator@U?$pair@$$CBKUItem@CEterFileDict@@@std@@@6@@unordered@boost@@QAE@XZ PROC ; boost::unordered::unordered_multimap<unsigned long,CEterFileDict::Item,boost::hash<unsigned long>,std::equal_to<unsigned long>,std::allocator<std::pair<unsigned long const ,CEterFileDict::Item> > >::unordered_multimap<unsigned long,CEterFileDict::Item,boost::hash<unsigned long>,std::equal_to<unsigned long>,std::allocator<std::pair<unsigned long const ,CEterFileDict::Item> > >, COMDAT
; _this$ = ecx

; 1986 :     {

  00000	55		 push	 ebp
  00001	8b ec		 mov	 ebp, esp
  00003	51		 push	 ecx
  00004	56		 push	 esi
  00005	8b f1		 mov	 esi, ecx
; File C:\Users\murat\Desktop\Siveps2-1-99-Project\source\client\extern\include\boost\unordered\detail\implementation.hpp

; 3121 :               bucket_count_(policy::new_bucket_count(num_buckets)), size_(0),

  00007	6a 0b		 push	 11			; 0000000bH
; File C:\Users\murat\Desktop\Siveps2-1-99-Project\source\client\extern\include\boost\unordered\unordered_map.hpp

; 1986 :     {

  00009	89 75 fc	 mov	 DWORD PTR _this$[ebp], esi
; File C:\Users\murat\Desktop\Siveps2-1-99-Project\source\client\extern\include\boost\unordered\detail\implementation.hpp

; 2761 :         functions(H const& hf, P const& eq) : current_(0)

  0000c	c6 06 00	 mov	 BYTE PTR [esi], 0

; 3121 :               bucket_count_(policy::new_bucket_count(num_buckets)), size_(0),

  0000f	e8 00 00 00 00	 call	 ?new_bucket_count@?$prime_policy@I@detail@unordered@boost@@SAII@Z ; boost::unordered::detail::prime_policy<unsigned int>::new_bucket_count
  00014	83 c4 04	 add	 esp, 4
  00017	89 46 04	 mov	 DWORD PTR [esi+4], eax
  0001a	c7 46 08 00 00
	00 00		 mov	 DWORD PTR [esi+8], 0
; File C:\Users\murat\Desktop\Siveps2-1-99-Project\source\client\extern\include\boost\unordered\unordered_map.hpp

; 1987 :     }

  00021	8b c6		 mov	 eax, esi
; File C:\Users\murat\Desktop\Siveps2-1-99-Project\source\client\extern\include\boost\unordered\detail\implementation.hpp

; 3122 :               mlf_(1.0f), max_load_(0), buckets_()

  00023	c7 46 0c 00 00
	80 3f		 mov	 DWORD PTR [esi+12], 1065353216 ; 3f800000H
  0002a	c7 46 10 00 00
	00 00		 mov	 DWORD PTR [esi+16], 0
  00031	c7 46 14 00 00
	00 00		 mov	 DWORD PTR [esi+20], 0
; File C:\Users\murat\Desktop\Siveps2-1-99-Project\source\client\extern\include\boost\unordered\unordered_map.hpp

; 1987 :     }

  00038	5e		 pop	 esi
  00039	8b e5		 mov	 esp, ebp
  0003b	5d		 pop	 ebp
  0003c	c3		 ret	 0
??0?$unordered_multimap@KUItem@CEterFileDict@@U?$hash@K@boost@@U?$equal_to@K@std@@V?$allocator@U?$pair@$$CBKUItem@CEterFileDict@@@std@@@6@@unordered@boost@@QAE@XZ ENDP ; boost::unordered::unordered_multimap<unsigned long,CEterFileDict::Item,boost::hash<unsigned long>,std::equal_to<unsigned long>,std::allocator<std::pair<unsigned long const ,CEterFileDict::Item> > >::unordered_multimap<unsigned long,CEterFileDict::Item,boost::hash<unsigned long>,std::equal_to<unsigned long>,std::allocator<std::pair<unsigned long const ,CEterFileDict::Item> > >
_TEXT	ENDS
; Function compile flags: /Ogtp
; File C:\Users\murat\Desktop\Siveps2-1-99-Project\source\client\extern\include\boost\unordered\detail\implementation.hpp
; File C:\Program Files (x86)\Microsoft Visual Studio\2019\Professional\VC\Tools\MSVC\14.29.30133\include\xmemory
; File C:\Users\murat\Desktop\Siveps2-1-99-Project\source\client\extern\include\boost\unordered\detail\implementation.hpp
; File C:\Program Files (x86)\Microsoft Visual Studio\2019\Professional\VC\Tools\MSVC\14.29.30133\include\xmemory
; File C:\Users\murat\Desktop\Siveps2-1-99-Project\source\client\extern\include\boost\unordered\detail\implementation.hpp
; File C:\Program Files (x86)\Microsoft Visual Studio\2019\Professional\VC\Tools\MSVC\14.29.30133\include\xmemory
; File C:\Users\murat\Desktop\Siveps2-1-99-Project\source\client\extern\include\boost\unordered\detail\implementation.hpp
; File C:\Program Files (x86)\Microsoft Visual Studio\2019\Professional\VC\Tools\MSVC\14.29.30133\include\xmemory
; File C:\Users\murat\Desktop\Siveps2-1-99-Project\source\client\extern\include\boost\unordered\detail\implementation.hpp
;	COMDAT ??1?$table@U?$map@V?$allocator@U?$pair@$$CBKUItem@CEterFileDict@@@std@@@std@@KUItem@CEterFileDict@@U?$hash@K@boost@@U?$equal_to@K@2@@detail@unordered@boost@@@detail@unordered@boost@@QAE@XZ
_TEXT	SEGMENT
??1?$table@U?$map@V?$allocator@U?$pair@$$CBKUItem@CEterFileDict@@@std@@@std@@KUItem@CEterFileDict@@U?$hash@K@boost@@U?$equal_to@K@2@@detail@unordered@boost@@@detail@unordered@boost@@QAE@XZ PROC ; boost::unordered::detail::table<boost::unordered::detail::map<std::allocator<std::pair<unsigned long const ,CEterFileDict::Item> >,unsigned long,CEterFileDict::Item,boost::hash<unsigned long>,std::equal_to<unsigned long> > >::~table<boost::unordered::detail::map<std::allocator<std::pair<unsigned long const ,CEterFileDict::Item> >,unsigned long,CEterFileDict::Item,boost::hash<unsigned long>,std::equal_to<unsigned long> > >, COMDAT
; _this$ = ecx

; 3333 :         ~table() { delete_buckets(); }

  00000	57		 push	 edi
  00001	8b f9		 mov	 edi, ecx

; 3345 :           if (buckets_) {

  00003	8b 57 14	 mov	 edx, DWORD PTR [edi+20]
  00006	85 d2		 test	 edx, edx
  00008	0f 84 7f 00 00
	00		 je	 $LN6@table

; 3026 :           return buckets_ + static_cast<std::ptrdiff_t>(bucket_index);

  0000e	8b 4f 04	 mov	 ecx, DWORD PTR [edi+4]
  00011	53		 push	 ebx
  00012	56		 push	 esi

; 3346 :             node_pointer n = static_cast<node_pointer>(

  00013	8b d9		 mov	 ebx, ecx
  00015	8b f2		 mov	 esi, edx
  00017	8b 04 8a	 mov	 eax, DWORD PTR [edx+ecx*4]

; 3347 :               get_bucket_pointer(bucket_count_)->next_);
; 3348 : 
; 3349 :             if (bucket::extra_node) {
; 3350 :               node_pointer next = next_node(n);
; 3351 :               boost::unordered::detail::func::destroy(boost::to_address(n));
; 3352 :               node_allocator_traits::deallocate(node_alloc(), n, 1);
; 3353 :               n = next;
; 3354 :             }
; 3355 : 
; 3356 :             while (n) {

  0001a	85 c0		 test	 eax, eax
  0001c	74 1f		 je	 SHORT $LN5@table
  0001e	66 90		 npad	 2
$LL4@table:

; 3357 :               node_pointer next = next_node(n);

  00020	8b 30		 mov	 esi, DWORD PTR [eax]
; File C:\Program Files (x86)\Microsoft Visual Studio\2019\Professional\VC\Tools\MSVC\14.29.30133\include\xmemory

; 264  :         ::operator delete(_Ptr, _Bytes);

  00022	6a 14		 push	 20			; 00000014H
  00024	50		 push	 eax
  00025	e8 00 00 00 00	 call	 ??3@YAXPAXI@Z		; operator delete
  0002a	83 c4 08	 add	 esp, 8
; File C:\Users\murat\Desktop\Siveps2-1-99-Project\source\client\extern\include\boost\unordered\detail\implementation.hpp

; 3359 :               n = next;

  0002d	8b c6		 mov	 eax, esi
  0002f	85 f6		 test	 esi, esi
  00031	75 ed		 jne	 SHORT $LL4@table
; File C:\Program Files (x86)\Microsoft Visual Studio\2019\Professional\VC\Tools\MSVC\14.29.30133\include\xmemory

; 173  :     _Ptr = reinterpret_cast<void*>(_Ptr_container);

  00033	8b 4f 04	 mov	 ecx, DWORD PTR [edi+4]
  00036	8b d9		 mov	 ebx, ecx
  00038	8b 57 14	 mov	 edx, DWORD PTR [edi+20]
  0003b	8b f2		 mov	 esi, edx
$LN5@table:
; File C:\Users\murat\Desktop\Siveps2-1-99-Project\source\client\extern\include\boost\unordered\detail\implementation.hpp

; 3026 :           return buckets_ + static_cast<std::ptrdiff_t>(bucket_index);

  0003d	8d 43 01	 lea	 eax, DWORD PTR [ebx+1]
  00040	8d 04 86	 lea	 eax, DWORD PTR [esi+eax*4]

; 3376 :           bucket_allocator_traits::deallocate(

  00043	3b f0		 cmp	 esi, eax
  00045	0f 44 cb	 cmove	 ecx, ebx
  00048	0f 44 d6	 cmove	 edx, esi
; File C:\Program Files (x86)\Microsoft Visual Studio\2019\Professional\VC\Tools\MSVC\14.29.30133\include\xmemory

; 702  :             _Deallocate<_New_alignof<value_type>>(_Ptr, sizeof(value_type) * _Count);

  0004b	8d 0c 8d 04 00
	00 00		 lea	 ecx, DWORD PTR [ecx*4+4]

; 260  :         if (_Bytes >= _Big_allocation_threshold) { // boost the alignment of big allocations to help autovectorization

  00052	81 f9 00 10 00
	00		 cmp	 ecx, 4096		; 00001000H
  00058	72 12		 jb	 SHORT $LN88@table

; 158  :     const uintptr_t _Ptr_container   = _Ptr_user[-1];

  0005a	8b 72 fc	 mov	 esi, DWORD PTR [edx-4]
  0005d	83 c1 23	 add	 ecx, 35			; 00000023H

; 159  : 
; 160  :     // If the following asserts, it likely means that we are performing
; 161  :     // an aligned delete on memory coming from an unaligned allocation.
; 162  :     _STL_ASSERT(_Ptr_user[-2] == _Big_allocation_sentinel, "invalid argument");
; 163  : 
; 164  :     // Extra paranoia on aligned allocation/deallocation; ensure _Ptr_container is
; 165  :     // in range [_Min_back_shift, _Non_user_size]
; 166  : #ifdef _DEBUG
; 167  :     constexpr uintptr_t _Min_back_shift = 2 * sizeof(void*);
; 168  : #else // ^^^ _DEBUG ^^^ // vvv !_DEBUG vvv
; 169  :     constexpr uintptr_t _Min_back_shift = sizeof(void*);
; 170  : #endif // _DEBUG
; 171  :     const uintptr_t _Back_shift = reinterpret_cast<uintptr_t>(_Ptr) - _Ptr_container;

  00060	2b d6		 sub	 edx, esi

; 172  :     _STL_VERIFY(_Back_shift >= _Min_back_shift && _Back_shift <= _Non_user_size, "invalid argument");

  00062	8d 42 fc	 lea	 eax, DWORD PTR [edx-4]
  00065	83 f8 1f	 cmp	 eax, 31			; 0000001fH
  00068	77 25		 ja	 SHORT $LN85@table

; 173  :     _Ptr = reinterpret_cast<void*>(_Ptr_container);

  0006a	8b d6		 mov	 edx, esi
$LN88@table:

; 264  :         ::operator delete(_Ptr, _Bytes);

  0006c	51		 push	 ecx
  0006d	52		 push	 edx
  0006e	e8 00 00 00 00	 call	 ??3@YAXPAXI@Z		; operator delete
  00073	83 c4 08	 add	 esp, 8
; File C:\Users\murat\Desktop\Siveps2-1-99-Project\source\client\extern\include\boost\unordered\detail\implementation.hpp

; 3363 :             buckets_ = bucket_pointer();

  00076	c7 47 14 00 00
	00 00		 mov	 DWORD PTR [edi+20], 0

; 3364 :             max_load_ = 0;

  0007d	c7 47 10 00 00
	00 00		 mov	 DWORD PTR [edi+16], 0

; 3365 :             size_ = 0;

  00084	c7 47 08 00 00
	00 00		 mov	 DWORD PTR [edi+8], 0
  0008b	5e		 pop	 esi
  0008c	5b		 pop	 ebx
$LN6@table:
  0008d	5f		 pop	 edi

; 3333 :         ~table() { delete_buckets(); }

  0008e	c3		 ret	 0
$LN85@table:
; File C:\Program Files (x86)\Microsoft Visual Studio\2019\Professional\VC\Tools\MSVC\14.29.30133\include\xmemory

; 172  :     _STL_VERIFY(_Back_shift >= _Min_back_shift && _Back_shift <= _Non_user_size, "invalid argument");

  0008f	e8 00 00 00 00	 call	 __invalid_parameter_noinfo_noreturn
$LN101@table:
  00094	cc		 int	 3
??1?$table@U?$map@V?$allocator@U?$pair@$$CBKUItem@CEterFileDict@@@std@@@std@@KUItem@CEterFileDict@@U?$hash@K@boost@@U?$equal_to@K@2@@detail@unordered@boost@@@detail@unordered@boost@@QAE@XZ ENDP ; boost::unordered::detail::table<boost::unordered::detail::map<std::allocator<std::pair<unsigned long const ,CEterFileDict::Item> >,unsigned long,CEterFileDict::Item,boost::hash<unsigned long>,std::equal_to<unsigned long> > >::~table<boost::unordered::detail::map<std::allocator<std::pair<unsigned long const ,CEterFileDict::Item> >,unsigned long,CEterFileDict::Item,boost::hash<unsigned long>,std::equal_to<unsigned long> > >
_TEXT	ENDS
; Function compile flags: /Ogtp
; File C:\Users\murat\Desktop\Siveps2-1-99-Project\source\client\extern\include\boost\container_hash\hash.hpp
;	COMDAT ??$hash_value@K@boost@@YAIK@Z
_TEXT	SEGMENT
_v$ = 8							; size = 4
??$hash_value@K@boost@@YAIK@Z PROC			; boost::hash_value<unsigned long>, COMDAT

; 359  :     {

  00000	55		 push	 ebp
  00001	8b ec		 mov	 ebp, esp

; 360  :         return static_cast<std::size_t>(v);

  00003	8b 45 08	 mov	 eax, DWORD PTR _v$[ebp]

; 361  :     }

  00006	5d		 pop	 ebp
  00007	c3		 ret	 0
??$hash_value@K@boost@@YAIK@Z ENDP			; boost::hash_value<unsigned long>
_TEXT	ENDS
; Function compile flags: /Ogtp
; File C:\Users\murat\Desktop\Siveps2-1-99-Project\source\client\Client\eterBase\filename.h
; File C:\Program Files (x86)\Microsoft Visual Studio\2019\Professional\VC\Tools\MSVC\14.29.30133\include\xstring
; File C:\Users\murat\Desktop\Siveps2-1-99-Project\source\client\Client\eterBase\filename.h
; File C:\Program Files (x86)\Microsoft Visual Studio\2019\Professional\VC\Tools\MSVC\14.29.30133\include\xstring
; File C:\Users\murat\Desktop\Siveps2-1-99-Project\source\client\Client\eterBase\filename.h
; File C:\Program Files (x86)\Microsoft Visual Studio\2019\Professional\VC\Tools\MSVC\14.29.30133\include\xstring
; File C:\Users\murat\Desktop\Siveps2-1-99-Project\source\client\Client\eterBase\filename.h
; File C:\Program Files (x86)\Microsoft Visual Studio\2019\Professional\VC\Tools\MSVC\14.29.30133\include\xstring
; File C:\Users\murat\Desktop\Siveps2-1-99-Project\source\client\Client\eterBase\filename.h
; File C:\Program Files (x86)\Microsoft Visual Studio\2019\Professional\VC\Tools\MSVC\14.29.30133\include\xstring
; File C:\Users\murat\Desktop\Siveps2-1-99-Project\source\client\Client\eterBase\filename.h
;	COMDAT ?NoPath@CFileNameHelper@@SA?AV?$basic_string@DU?$char_traits@D@std@@V?$allocator@D@2@@std@@AAV23@@Z
_TEXT	SEGMENT
___$ReturnUdt$GSCopy$ = -1036				; size = 4
___$ReturnUdt$GSCopy$1$ = -1032				; size = 4
_szPath$ = -1028					; size = 1024
__$ArrayPad$ = -4					; size = 4
___$ReturnUdt$ = 8					; size = 4
_str$ = 12						; size = 4
?NoPath@CFileNameHelper@@SA?AV?$basic_string@DU?$char_traits@D@std@@V?$allocator@D@2@@std@@AAV23@@Z PROC ; CFileNameHelper::NoPath, COMDAT

; 346  : {

  00000	55		 push	 ebp
  00001	8b ec		 mov	 ebp, esp
  00003	81 ec 0c 04 00
	00		 sub	 esp, 1036		; 0000040cH
  00009	a1 00 00 00 00	 mov	 eax, DWORD PTR ___security_cookie
  0000e	33 c5		 xor	 eax, ebp
  00010	89 45 fc	 mov	 DWORD PTR __$ArrayPad$[ebp], eax

; 347  : 	char szPath[1024];
; 348  : 	szPath[0] = '\0';
; 349  : 
; 350  : 	size_t nLength = str.length();

  00013	8b 4d 0c	 mov	 ecx, DWORD PTR _str$[ebp]
  00016	8b 45 08	 mov	 eax, DWORD PTR ___$ReturnUdt$[ebp]
  00019	53		 push	 ebx
  0001a	89 85 f8 fb ff
	ff		 mov	 DWORD PTR ___$ReturnUdt$GSCopy$1$[ebp], eax
  00020	8b 59 10	 mov	 ebx, DWORD PTR [ecx+16]
  00023	89 85 f4 fb ff
	ff		 mov	 DWORD PTR ___$ReturnUdt$GSCopy$[ebp], eax
  00029	c6 85 fc fb ff
	ff 00		 mov	 BYTE PTR _szPath$[ebp], 0

; 351  : 
; 352  : 	if (nLength > 0)

  00030	85 db		 test	 ebx, ebx
  00032	0f 84 92 00 00
	00		 je	 $LN3@NoPath
; File C:\Program Files (x86)\Microsoft Visual Studio\2019\Professional\VC\Tools\MSVC\14.29.30133\include\xstring

; 2305 :         const value_type* _Result = _Bx._Buf;

  00038	56		 push	 esi

; 2319 :         return _BUF_SIZE <= _Myres;

  00039	8b 71 14	 mov	 esi, DWORD PTR [ecx+20]

; 2305 :         const value_type* _Result = _Bx._Buf;

  0003c	8b d1		 mov	 edx, ecx

; 2319 :         return _BUF_SIZE <= _Myres;

  0003e	83 fe 10	 cmp	 esi, 16			; 00000010H

; 2306 :         if (_Large_string_engaged()) {

  00041	72 02		 jb	 SHORT $LN81@NoPath

; 2307 :             _Result = _Unfancy(_Bx._Ptr);

  00043	8b 11		 mov	 edx, DWORD PTR [ecx]
$LN81@NoPath:
  00045	57		 push	 edi

; 2308 :         }
; 2309 : 
; 2310 :         return _Result;

  00046	8d bd fc fb ff
	ff		 lea	 edi, DWORD PTR _szPath$[ebp]
  0004c	2b fa		 sub	 edi, edx
  0004e	66 90		 npad	 2
$LL15@NoPath:
; File C:\Users\murat\Desktop\Siveps2-1-99-Project\source\client\Client\eterBase\filename.h

; 354  : 		strcpy(szPath, str.c_str());

  00050	8a 02		 mov	 al, BYTE PTR [edx]
  00052	8d 52 01	 lea	 edx, DWORD PTR [edx+1]
  00055	88 44 17 ff	 mov	 BYTE PTR [edi+edx-1], al
  00059	84 c0		 test	 al, al
  0005b	75 f3		 jne	 SHORT $LL15@NoPath

; 355  : 
; 356  : 		for (size_t i = nLength - 1; i > 0; i--)

  0005d	8d 43 ff	 lea	 eax, DWORD PTR [ebx-1]
  00060	85 c0		 test	 eax, eax
  00062	74 64		 je	 SHORT $LN86@NoPath
$LL4@NoPath:
; File C:\Program Files (x86)\Microsoft Visual Studio\2019\Professional\VC\Tools\MSVC\14.29.30133\include\xstring

; 2296 :         value_type* _Result = _Bx._Buf;

  00064	8b d1		 mov	 edx, ecx

; 2319 :         return _BUF_SIZE <= _Myres;

  00066	83 fe 10	 cmp	 esi, 16			; 00000010H

; 2297 :         if (_Large_string_engaged()) {

  00069	72 02		 jb	 SHORT $LN83@NoPath

; 2298 :             _Result = _Unfancy(_Bx._Ptr);

  0006b	8b 11		 mov	 edx, DWORD PTR [ecx]
$LN83@NoPath:
; File C:\Users\murat\Desktop\Siveps2-1-99-Project\source\client\Client\eterBase\filename.h

; 358  : 			if (str[i] == '/' || str[i] == '\\')

  0006d	80 3c 02 2f	 cmp	 BYTE PTR [edx+eax], 47	; 0000002fH
  00071	74 1a		 je	 SHORT $LN10@NoPath
; File C:\Program Files (x86)\Microsoft Visual Studio\2019\Professional\VC\Tools\MSVC\14.29.30133\include\xstring

; 2296 :         value_type* _Result = _Bx._Buf;

  00073	8b d1		 mov	 edx, ecx

; 2319 :         return _BUF_SIZE <= _Myres;

  00075	83 fe 10	 cmp	 esi, 16			; 00000010H

; 2297 :         if (_Large_string_engaged()) {

  00078	72 02		 jb	 SHORT $LN82@NoPath

; 2298 :             _Result = _Unfancy(_Bx._Ptr);

  0007a	8b 11		 mov	 edx, DWORD PTR [ecx]
$LN82@NoPath:
; File C:\Users\murat\Desktop\Siveps2-1-99-Project\source\client\Client\eterBase\filename.h

; 358  : 			if (str[i] == '/' || str[i] == '\\')

  0007c	80 3c 02 5c	 cmp	 BYTE PTR [edx+eax], 92	; 0000005cH
  00080	74 0b		 je	 SHORT $LN10@NoPath

; 364  : 				break;
; 365  : 			}
; 366  : 
; 367  : 			if (0 == i)

  00082	85 c0		 test	 eax, eax
  00084	74 42		 je	 SHORT $LN86@NoPath

; 355  : 
; 356  : 		for (size_t i = nLength - 1; i > 0; i--)

  00086	83 e8 01	 sub	 eax, 1
  00089	75 d9		 jne	 SHORT $LL4@NoPath

; 364  : 				break;
; 365  : 			}
; 366  : 
; 367  : 			if (0 == i)

  0008b	eb 3b		 jmp	 SHORT $LN86@NoPath
$LN10@NoPath:

; 359  : 			{
; 360  : 				int k = 0;
; 361  : 				for (size_t j = i + 1; j < nLength; j++, k++)

  0008d	8d 50 01	 lea	 edx, DWORD PTR [eax+1]
  00090	33 ff		 xor	 edi, edi
  00092	3b d3		 cmp	 edx, ebx
  00094	73 2a		 jae	 SHORT $LN80@NoPath
  00096	8b 79 10	 mov	 edi, DWORD PTR [ecx+16]
  00099	8d 9d fc fb ff
	ff		 lea	 ebx, DWORD PTR _szPath$[ebp]
  0009f	2b da		 sub	 ebx, edx
  000a1	2b fa		 sub	 edi, edx
$LL7@NoPath:
; File C:\Program Files (x86)\Microsoft Visual Studio\2019\Professional\VC\Tools\MSVC\14.29.30133\include\xstring

; 2296 :         value_type* _Result = _Bx._Buf;

  000a3	8b c1		 mov	 eax, ecx

; 2319 :         return _BUF_SIZE <= _Myres;

  000a5	83 fe 10	 cmp	 esi, 16			; 00000010H

; 2297 :         if (_Large_string_engaged()) {

  000a8	72 02		 jb	 SHORT $LN44@NoPath

; 2298 :             _Result = _Unfancy(_Bx._Ptr);

  000aa	8b 01		 mov	 eax, DWORD PTR [ecx]
$LN44@NoPath:
; File C:\Users\murat\Desktop\Siveps2-1-99-Project\source\client\Client\eterBase\filename.h

; 362  : 					szPath[k] = str[j];

  000ac	8a 04 10	 mov	 al, BYTE PTR [eax+edx]
  000af	88 04 13	 mov	 BYTE PTR [ebx+edx], al
  000b2	42		 inc	 edx
  000b3	3b 51 10	 cmp	 edx, DWORD PTR [ecx+16]
  000b6	72 eb		 jb	 SHORT $LL7@NoPath

; 363  : 				szPath[k] = '\0';

  000b8	81 ff 00 04 00
	00		 cmp	 edi, 1024		; 00000400H
  000be	73 59		 jae	 SHORT $LN89@NoPath
$LN80@NoPath:
  000c0	c6 84 3d fc fb
	ff ff 00	 mov	 BYTE PTR _szPath$[ebp+edi], 0
$LN86@NoPath:
  000c8	5f		 pop	 edi
  000c9	5e		 pop	 esi
$LN3@NoPath:
; File C:\Program Files (x86)\Microsoft Visual Studio\2019\Professional\VC\Tools\MSVC\14.29.30133\include\xstring

; 2346 :         _CONSTEXPR20_CONTAINER _Bxty() noexcept : _Ptr() {} // user-provided, for fancy pointers

  000ca	8b 9d f8 fb ff
	ff		 mov	 ebx, DWORD PTR ___$ReturnUdt$GSCopy$1$[ebp]

; 412  :         return _CSTD strlen(reinterpret_cast<const char*>(_First));

  000d0	8d 8d fc fb ff
	ff		 lea	 ecx, DWORD PTR _szPath$[ebp]
  000d6	8d 51 01	 lea	 edx, DWORD PTR [ecx+1]

; 2346 :         _CONSTEXPR20_CONTAINER _Bxty() noexcept : _Ptr() {} // user-provided, for fancy pointers

  000d9	c7 03 00 00 00
	00		 mov	 DWORD PTR [ebx], 0

; 4596 :         _My_data._Mysize = 0;

  000df	c7 43 10 00 00
	00 00		 mov	 DWORD PTR [ebx+16], 0

; 4597 : 
; 4598 : #ifdef __cpp_lib_constexpr_string
; 4599 :         if (_STD is_constant_evaluated()) {
; 4600 :             _My_data._Myres        = _BUF_SIZE; // SSO disabled in constexpr context
; 4601 :             auto& _Al              = _Getal();
; 4602 :             const pointer _New_ptr = _Al.allocate(_BUF_SIZE + 1); // throws
; 4603 :             _My_data._Bx._Ptr      = _New_ptr;
; 4604 : 
; 4605 :             _Elem* const _Raw_new = _Unfancy(_New_ptr);
; 4606 :             _Traits::assign(_Raw_new, _BUF_SIZE + 1, _Elem());
; 4607 :         } else
; 4608 : #endif // __cpp_lib_constexpr_string
; 4609 :         {
; 4610 :             _My_data._Myres = _BUF_SIZE - 1;

  000e6	c7 43 14 0f 00
	00 00		 mov	 DWORD PTR [ebx+20], 15	; 0000000fH

; 4611 :             // the _Traits::assign is last so the codegen doesn't think the char write can alias this
; 4612 :             _Traits::assign(_My_data._Bx._Buf[0], _Elem());

  000ed	c6 03 00	 mov	 BYTE PTR [ebx], 0
$LL84@NoPath:

; 412  :         return _CSTD strlen(reinterpret_cast<const char*>(_First));

  000f0	8a 01		 mov	 al, BYTE PTR [ecx]
  000f2	41		 inc	 ecx
  000f3	84 c0		 test	 al, al
  000f5	75 f9		 jne	 SHORT $LL84@NoPath
  000f7	2b ca		 sub	 ecx, edx

; 3264 :         return assign(_Ptr, _Convert_size<size_type>(_Traits::length(_Ptr)));

  000f9	8d 85 fc fb ff
	ff		 lea	 eax, DWORD PTR _szPath$[ebp]
  000ff	51		 push	 ecx
  00100	50		 push	 eax
  00101	8b cb		 mov	 ecx, ebx
  00103	e8 00 00 00 00	 call	 ?assign@?$basic_string@DU?$char_traits@D@std@@V?$allocator@D@2@@std@@QAEAAV12@QBDI@Z ; std::basic_string<char,std::char_traits<char>,std::allocator<char> >::assign
; File C:\Users\murat\Desktop\Siveps2-1-99-Project\source\client\Client\eterBase\filename.h

; 373  : }

  00108	8b 4d fc	 mov	 ecx, DWORD PTR __$ArrayPad$[ebp]
  0010b	8b c3		 mov	 eax, ebx
  0010d	33 cd		 xor	 ecx, ebp
  0010f	5b		 pop	 ebx
  00110	e8 00 00 00 00	 call	 @__security_check_cookie@4
  00115	8b e5		 mov	 esp, ebp
  00117	5d		 pop	 ebp
  00118	c3		 ret	 0
$LN89@NoPath:

; 363  : 				szPath[k] = '\0';

  00119	e8 00 00 00 00	 call	 ___report_rangecheckfailure
$LN87@NoPath:
  0011e	cc		 int	 3
?NoPath@CFileNameHelper@@SA?AV?$basic_string@DU?$char_traits@D@std@@V?$allocator@D@2@@std@@AAV23@@Z ENDP ; CFileNameHelper::NoPath
_TEXT	ENDS
; Function compile flags: /Ogtp
; File C:\Program Files (x86)\Microsoft Visual Studio\2019\Professional\VC\Tools\MSVC\14.29.30133\include\xstring
; File C:\Program Files (x86)\Microsoft Visual Studio\2019\Professional\VC\Tools\MSVC\14.29.30133\include\xmemory
; File C:\Program Files (x86)\Microsoft Visual Studio\2019\Professional\VC\Tools\MSVC\14.29.30133\include\xstring
; File C:\Program Files (x86)\Microsoft Visual Studio\2019\Professional\VC\Tools\MSVC\14.29.30133\include\xmemory
; File C:\Program Files (x86)\Microsoft Visual Studio\2019\Professional\VC\Tools\MSVC\14.29.30133\include\xstring
; File C:\Program Files (x86)\Microsoft Visual Studio\2019\Professional\VC\Tools\MSVC\14.29.30133\include\utility
; File C:\Program Files (x86)\Microsoft Visual Studio\2019\Professional\VC\Tools\MSVC\14.29.30133\include\xstring
; File C:\Program Files (x86)\Microsoft Visual Studio\2019\Professional\VC\Tools\MSVC\14.29.30133\include\xmemory
; File C:\Program Files (x86)\Microsoft Visual Studio\2019\Professional\VC\Tools\MSVC\14.29.30133\include\xstring
; File C:\Program Files (x86)\Microsoft Visual Studio\2019\Professional\VC\Tools\MSVC\14.29.30133\include\xmemory
; File C:\Program Files (x86)\Microsoft Visual Studio\2019\Professional\VC\Tools\MSVC\14.29.30133\include\xstring
; File C:\Program Files (x86)\Microsoft Visual Studio\2019\Professional\VC\Tools\MSVC\14.29.30133\include\xmemory
; File C:\Program Files (x86)\Microsoft Visual Studio\2019\Professional\VC\Tools\MSVC\14.29.30133\include\xstring
;	COMDAT ?assign@?$basic_string@DU?$char_traits@D@std@@V?$allocator@D@2@@std@@QAEAAV12@QBDI@Z
_TEXT	SEGMENT
__Old$1$ = -4						; size = 4
__Ptr$ = 8						; size = 4
$T1 = 12						; size = 4
__Count$ = 12						; size = 4
?assign@?$basic_string@DU?$char_traits@D@std@@V?$allocator@D@2@@std@@QAEAAV12@QBDI@Z PROC ; std::basic_string<char,std::char_traits<char>,std::allocator<char> >::assign, COMDAT
; _this$ = ecx

; 3244 :         _In_reads_(_Count) const _Elem* const _Ptr, _CRT_GUARDOVERFLOW const size_type _Count) {

  00000	55		 push	 ebp
  00001	8b ec		 mov	 ebp, esp
  00003	51		 push	 ecx
  00004	53		 push	 ebx

; 3245 :         // assign [_Ptr, _Ptr + _Count)
; 3246 :         if (_Count <= _Mypair._Myval2._Myres) {

  00005	8b 5d 0c	 mov	 ebx, DWORD PTR __Count$[ebp]
  00008	56		 push	 esi
  00009	8b f1		 mov	 esi, ecx
  0000b	57		 push	 edi
  0000c	8b 4e 14	 mov	 ecx, DWORD PTR [esi+20]
  0000f	89 4d fc	 mov	 DWORD PTR __Old$1$[ebp], ecx
  00012	3b d9		 cmp	 ebx, ecx
  00014	77 28		 ja	 SHORT $LN2@assign

; 2296 :         value_type* _Result = _Bx._Buf;

  00016	8b fe		 mov	 edi, esi

; 2319 :         return _BUF_SIZE <= _Myres;

  00018	83 f9 10	 cmp	 ecx, 16			; 00000010H

; 2297 :         if (_Large_string_engaged()) {

  0001b	72 02		 jb	 SHORT $LN5@assign

; 2298 :             _Result = _Unfancy(_Bx._Ptr);

  0001d	8b 3e		 mov	 edi, DWORD PTR [esi]
$LN5@assign:

; 122  :         _CSTD memmove(_First1, _First2, _Count * sizeof(_Elem));

  0001f	53		 push	 ebx
  00020	ff 75 08	 push	 DWORD PTR __Ptr$[ebp]

; 3247 :             _Elem* const _Old_ptr   = _Mypair._Myval2._Myptr();
; 3248 :             _Mypair._Myval2._Mysize = _Count;

  00023	89 5e 10	 mov	 DWORD PTR [esi+16], ebx

; 122  :         _CSTD memmove(_First1, _First2, _Count * sizeof(_Elem));

  00026	57		 push	 edi
  00027	e8 00 00 00 00	 call	 _memmove
  0002c	83 c4 0c	 add	 esp, 12			; 0000000cH

; 3249 :             _Traits::move(_Old_ptr, _Ptr, _Count);
; 3250 :             _Traits::assign(_Old_ptr[_Count], _Elem());

  0002f	c6 04 1f 00	 mov	 BYTE PTR [edi+ebx], 0

; 3259 :             },
; 3260 :             _Ptr);
; 3261 :     }

  00033	8b c6		 mov	 eax, esi
  00035	5f		 pop	 edi
  00036	5e		 pop	 esi
  00037	5b		 pop	 ebx
  00038	8b e5		 mov	 esp, ebp
  0003a	5d		 pop	 ebp
  0003b	c2 08 00	 ret	 8
$LN2@assign:

; 4508 :         if (_New_size > max_size()) {

  0003e	81 fb ff ff ff
	7f		 cmp	 ebx, 2147483647		; 7fffffffH
  00044	0f 87 d4 00 00
	00		 ja	 $LN60@assign

; 4488 :         const size_type _Masked = _Requested | _ALLOC_MASK;

  0004a	8b fb		 mov	 edi, ebx
  0004c	83 cf 0f	 or	 edi, 15			; 0000000fH
  0004f	81 ff ff ff ff
	7f		 cmp	 edi, 2147483647		; 7fffffffH

; 4489 :         if (_Masked > _Max) { // the mask overflows, settle for max_size()

  00055	76 15		 jbe	 SHORT $LN19@assign

; 4490 :             return _Max;

  00057	b8 00 00 00 80	 mov	 eax, -2147483648	; 80000000H
  0005c	bf ff ff ff 7f	 mov	 edi, 2147483647		; 7fffffffH
; File C:\Program Files (x86)\Microsoft Visual Studio\2019\Professional\VC\Tools\MSVC\14.29.30133\include\xmemory

; 238  :             return _Allocate_manually_vector_aligned<_Traits>(_Bytes);

  00061	50		 push	 eax
  00062	e8 00 00 00 00	 call	 ??$_Allocate_manually_vector_aligned@U_Default_allocate_traits@std@@@std@@YAPAXI@Z ; std::_Allocate_manually_vector_aligned<std::_Default_allocate_traits>
  00067	83 c4 04	 add	 esp, 4
  0006a	eb 52		 jmp	 SHORT $LN58@assign
$LN19@assign:
; File C:\Program Files (x86)\Microsoft Visual Studio\2019\Professional\VC\Tools\MSVC\14.29.30133\include\xstring

; 4493 :         if (_Old > _Max - _Old / 2) { // similarly, geometric overflows

  0006c	8b d1		 mov	 edx, ecx
  0006e	b8 ff ff ff 7f	 mov	 eax, 2147483647		; 7fffffffH
  00073	d1 ea		 shr	 edx, 1
  00075	2b c2		 sub	 eax, edx
  00077	3b c8		 cmp	 ecx, eax
  00079	76 15		 jbe	 SHORT $LN20@assign

; 4494 :             return _Max;

  0007b	b8 00 00 00 80	 mov	 eax, -2147483648	; 80000000H
  00080	bf ff ff ff 7f	 mov	 edi, 2147483647		; 7fffffffH
; File C:\Program Files (x86)\Microsoft Visual Studio\2019\Professional\VC\Tools\MSVC\14.29.30133\include\xmemory

; 238  :             return _Allocate_manually_vector_aligned<_Traits>(_Bytes);

  00085	50		 push	 eax
  00086	e8 00 00 00 00	 call	 ??$_Allocate_manually_vector_aligned@U_Default_allocate_traits@std@@@std@@YAPAXI@Z ; std::_Allocate_manually_vector_aligned<std::_Default_allocate_traits>
  0008b	83 c4 04	 add	 esp, 4
  0008e	eb 2e		 jmp	 SHORT $LN58@assign
$LN20@assign:
; File C:\Program Files (x86)\Microsoft Visual Studio\2019\Professional\VC\Tools\MSVC\14.29.30133\include\xstring

; 4497 :         return (_STD max)(_Masked, _Old + _Old / 2);

  00090	8d 04 0a	 lea	 eax, DWORD PTR [edx+ecx]
; File C:\Program Files (x86)\Microsoft Visual Studio\2019\Professional\VC\Tools\MSVC\14.29.30133\include\utility

; 44   :     return _Left < _Right ? _Right : _Left;

  00093	3b f8		 cmp	 edi, eax
  00095	0f 42 f8	 cmovb	 edi, eax
; File C:\Program Files (x86)\Microsoft Visual Studio\2019\Professional\VC\Tools\MSVC\14.29.30133\include\xstring

; 4515 :         const pointer _New_ptr        = _Al.allocate(_New_capacity + 1); // throws

  00098	8d 47 01	 lea	 eax, DWORD PTR [edi+1]
; File C:\Program Files (x86)\Microsoft Visual Studio\2019\Professional\VC\Tools\MSVC\14.29.30133\include\xmemory

; 237  :         if (_Bytes >= _Big_allocation_threshold) { // boost the alignment of big allocations to help autovectorization

  0009b	3d 00 10 00 00	 cmp	 eax, 4096		; 00001000H
  000a0	72 0b		 jb	 SHORT $LN27@assign

; 238  :             return _Allocate_manually_vector_aligned<_Traits>(_Bytes);

  000a2	50		 push	 eax
  000a3	e8 00 00 00 00	 call	 ??$_Allocate_manually_vector_aligned@U_Default_allocate_traits@std@@@std@@YAPAXI@Z ; std::_Allocate_manually_vector_aligned<std::_Default_allocate_traits>
  000a8	83 c4 04	 add	 esp, 4
  000ab	eb 11		 jmp	 SHORT $LN58@assign
$LN27@assign:

; 239  :         }
; 240  :     }
; 241  : #endif // defined(_M_IX86) || defined(_M_X64)
; 242  : 
; 243  :     if (_Bytes != 0) {

  000ad	85 c0		 test	 eax, eax
  000af	74 0b		 je	 SHORT $LN28@assign

; 85   :         return ::operator new(_Bytes);

  000b1	50		 push	 eax
  000b2	e8 00 00 00 00	 call	 ??2@YAPAXI@Z		; operator new
  000b7	83 c4 04	 add	 esp, 4

; 244  :         return _Traits::_Allocate(_Bytes);

  000ba	eb 02		 jmp	 SHORT $LN58@assign
$LN28@assign:

; 245  :     }
; 246  : 
; 247  :     return nullptr;

  000bc	33 c0		 xor	 eax, eax
$LN58@assign:
; File C:\Program Files (x86)\Microsoft Visual Studio\2019\Professional\VC\Tools\MSVC\14.29.30133\include\xstring

; 65   :         _CSTD memcpy(_First1, _First2, _Count * sizeof(_Elem));

  000be	53		 push	 ebx
  000bf	ff 75 08	 push	 DWORD PTR __Ptr$[ebp]

; 4523 :         _Mypair._Myval2._Mysize = _New_size;

  000c2	89 45 0c	 mov	 DWORD PTR $T1[ebp], eax

; 65   :         _CSTD memcpy(_First1, _First2, _Count * sizeof(_Elem));

  000c5	50		 push	 eax

; 4523 :         _Mypair._Myval2._Mysize = _New_size;

  000c6	89 5e 10	 mov	 DWORD PTR [esi+16], ebx

; 4524 :         _Mypair._Myval2._Myres  = _New_capacity;

  000c9	89 7e 14	 mov	 DWORD PTR [esi+20], edi

; 65   :         _CSTD memcpy(_First1, _First2, _Count * sizeof(_Elem));

  000cc	e8 00 00 00 00	 call	 _memcpy

; 3258 :                 _Traits::assign(_New_ptr[_Count], _Elem());

  000d1	8b 7d 0c	 mov	 edi, DWORD PTR $T1[ebp]

; 65   :         _CSTD memcpy(_First1, _First2, _Count * sizeof(_Elem));

  000d4	83 c4 0c	 add	 esp, 12			; 0000000cH

; 4526 :         if (_BUF_SIZE <= _Old_capacity) {

  000d7	8b 45 fc	 mov	 eax, DWORD PTR __Old$1$[ebp]

; 3258 :                 _Traits::assign(_New_ptr[_Count], _Elem());

  000da	c6 04 1f 00	 mov	 BYTE PTR [edi+ebx], 0

; 4526 :         if (_BUF_SIZE <= _Old_capacity) {

  000de	83 f8 10	 cmp	 eax, 16			; 00000010H
  000e1	72 29		 jb	 SHORT $LN13@assign

; 4527 :             _Al.deallocate(_Mypair._Myval2._Bx._Ptr, _Old_capacity + 1);

  000e3	8d 48 01	 lea	 ecx, DWORD PTR [eax+1]
; File C:\Program Files (x86)\Microsoft Visual Studio\2019\Professional\VC\Tools\MSVC\14.29.30133\include\xmemory

; 835  :         _Deallocate<_New_alignof<_Ty>>(_Ptr, sizeof(_Ty) * _Count);

  000e6	8b 06		 mov	 eax, DWORD PTR [esi]

; 260  :         if (_Bytes >= _Big_allocation_threshold) { // boost the alignment of big allocations to help autovectorization

  000e8	81 f9 00 10 00
	00		 cmp	 ecx, 4096		; 00001000H
  000ee	72 12		 jb	 SHORT $LN50@assign

; 158  :     const uintptr_t _Ptr_container   = _Ptr_user[-1];

  000f0	8b 50 fc	 mov	 edx, DWORD PTR [eax-4]
  000f3	83 c1 23	 add	 ecx, 35			; 00000023H

; 159  : 
; 160  :     // If the following asserts, it likely means that we are performing
; 161  :     // an aligned delete on memory coming from an unaligned allocation.
; 162  :     _STL_ASSERT(_Ptr_user[-2] == _Big_allocation_sentinel, "invalid argument");
; 163  : 
; 164  :     // Extra paranoia on aligned allocation/deallocation; ensure _Ptr_container is
; 165  :     // in range [_Min_back_shift, _Non_user_size]
; 166  : #ifdef _DEBUG
; 167  :     constexpr uintptr_t _Min_back_shift = 2 * sizeof(void*);
; 168  : #else // ^^^ _DEBUG ^^^ // vvv !_DEBUG vvv
; 169  :     constexpr uintptr_t _Min_back_shift = sizeof(void*);
; 170  : #endif // _DEBUG
; 171  :     const uintptr_t _Back_shift = reinterpret_cast<uintptr_t>(_Ptr) - _Ptr_container;

  000f6	2b c2		 sub	 eax, edx

; 172  :     _STL_VERIFY(_Back_shift >= _Min_back_shift && _Back_shift <= _Non_user_size, "invalid argument");

  000f8	83 c0 fc	 add	 eax, -4			; fffffffcH
  000fb	83 f8 1f	 cmp	 eax, 31			; 0000001fH
  000fe	77 19		 ja	 SHORT $LN47@assign

; 173  :     _Ptr = reinterpret_cast<void*>(_Ptr_container);

  00100	8b c2		 mov	 eax, edx
$LN50@assign:

; 264  :         ::operator delete(_Ptr, _Bytes);

  00102	51		 push	 ecx
  00103	50		 push	 eax
  00104	e8 00 00 00 00	 call	 ??3@YAXPAXI@Z		; operator delete
  00109	83 c4 08	 add	 esp, 8
$LN13@assign:
; File C:\Program Files (x86)\Microsoft Visual Studio\2019\Professional\VC\Tools\MSVC\14.29.30133\include\xstring

; 3254 :         return _Reallocate_for(

  0010c	89 3e		 mov	 DWORD PTR [esi], edi

; 3259 :             },
; 3260 :             _Ptr);
; 3261 :     }

  0010e	8b c6		 mov	 eax, esi
  00110	5f		 pop	 edi
  00111	5e		 pop	 esi
  00112	5b		 pop	 ebx
  00113	8b e5		 mov	 esp, ebp
  00115	5d		 pop	 ebp
  00116	c2 08 00	 ret	 8
$LN47@assign:
; File C:\Program Files (x86)\Microsoft Visual Studio\2019\Professional\VC\Tools\MSVC\14.29.30133\include\xmemory

; 172  :     _STL_VERIFY(_Back_shift >= _Min_back_shift && _Back_shift <= _Non_user_size, "invalid argument");

  00119	e8 00 00 00 00	 call	 __invalid_parameter_noinfo_noreturn
$LN60@assign:
; File C:\Program Files (x86)\Microsoft Visual Studio\2019\Professional\VC\Tools\MSVC\14.29.30133\include\xstring

; 4509 :             _Xlen_string(); // result too long

  0011e	e8 00 00 00 00	 call	 ?_Xlen_string@std@@YAXXZ ; std::_Xlen_string
$LN56@assign:
  00123	cc		 int	 3
?assign@?$basic_string@DU?$char_traits@D@std@@V?$allocator@D@2@@std@@QAEAAV12@QBDI@Z ENDP ; std::basic_string<char,std::char_traits<char>,std::allocator<char> >::assign
_TEXT	ENDS
; Function compile flags: /Ogtp
; File C:\Program Files (x86)\Microsoft Visual Studio\2019\Professional\VC\Tools\MSVC\14.29.30133\include\xstring
; File C:\Program Files (x86)\Microsoft Visual Studio\2019\Professional\VC\Tools\MSVC\14.29.30133\include\xmemory
; File C:\Program Files (x86)\Microsoft Visual Studio\2019\Professional\VC\Tools\MSVC\14.29.30133\include\xstring
; File C:\Program Files (x86)\Microsoft Visual Studio\2019\Professional\VC\Tools\MSVC\14.29.30133\include\xmemory
; File C:\Program Files (x86)\Microsoft Visual Studio\2019\Professional\VC\Tools\MSVC\14.29.30133\include\xstring
; File C:\Program Files (x86)\Microsoft Visual Studio\2019\Professional\VC\Tools\MSVC\14.29.30133\include\xmemory
; File C:\Program Files (x86)\Microsoft Visual Studio\2019\Professional\VC\Tools\MSVC\14.29.30133\include\xstring
;	COMDAT ??1?$basic_string@DU?$char_traits@D@std@@V?$allocator@D@2@@std@@QAE@XZ
_TEXT	SEGMENT
??1?$basic_string@DU?$char_traits@D@std@@V?$allocator@D@2@@std@@QAE@XZ PROC ; std::basic_string<char,std::char_traits<char>,std::allocator<char> >::~basic_string<char,std::char_traits<char>,std::allocator<char> >, COMDAT
; _this$ = ecx

; 3002 :     _CONSTEXPR20_CONTAINER ~basic_string() noexcept {

  00000	56		 push	 esi
  00001	8b f1		 mov	 esi, ecx

; 2319 :         return _BUF_SIZE <= _Myres;

  00003	8b 4e 14	 mov	 ecx, DWORD PTR [esi+20]
  00006	83 f9 10	 cmp	 ecx, 16			; 00000010H

; 4618 :         if (_Mypair._Myval2._Large_string_engaged()) {

  00009	72 27		 jb	 SHORT $LN12@basic_stri
; File C:\Program Files (x86)\Microsoft Visual Studio\2019\Professional\VC\Tools\MSVC\14.29.30133\include\xmemory

; 835  :         _Deallocate<_New_alignof<_Ty>>(_Ptr, sizeof(_Ty) * _Count);

  0000b	8b 06		 mov	 eax, DWORD PTR [esi]
; File C:\Program Files (x86)\Microsoft Visual Studio\2019\Professional\VC\Tools\MSVC\14.29.30133\include\xstring

; 4622 :             _Al.deallocate(_Ptr, _Mypair._Myval2._Myres + 1);

  0000d	41		 inc	 ecx
; File C:\Program Files (x86)\Microsoft Visual Studio\2019\Professional\VC\Tools\MSVC\14.29.30133\include\xmemory

; 260  :         if (_Bytes >= _Big_allocation_threshold) { // boost the alignment of big allocations to help autovectorization

  0000e	81 f9 00 10 00
	00		 cmp	 ecx, 4096		; 00001000H
  00014	72 12		 jb	 SHORT $LN22@basic_stri

; 158  :     const uintptr_t _Ptr_container   = _Ptr_user[-1];

  00016	8b 50 fc	 mov	 edx, DWORD PTR [eax-4]
  00019	83 c1 23	 add	 ecx, 35			; 00000023H

; 159  : 
; 160  :     // If the following asserts, it likely means that we are performing
; 161  :     // an aligned delete on memory coming from an unaligned allocation.
; 162  :     _STL_ASSERT(_Ptr_user[-2] == _Big_allocation_sentinel, "invalid argument");
; 163  : 
; 164  :     // Extra paranoia on aligned allocation/deallocation; ensure _Ptr_container is
; 165  :     // in range [_Min_back_shift, _Non_user_size]
; 166  : #ifdef _DEBUG
; 167  :     constexpr uintptr_t _Min_back_shift = 2 * sizeof(void*);
; 168  : #else // ^^^ _DEBUG ^^^ // vvv !_DEBUG vvv
; 169  :     constexpr uintptr_t _Min_back_shift = sizeof(void*);
; 170  : #endif // _DEBUG
; 171  :     const uintptr_t _Back_shift = reinterpret_cast<uintptr_t>(_Ptr) - _Ptr_container;

  0001c	2b c2		 sub	 eax, edx

; 172  :     _STL_VERIFY(_Back_shift >= _Min_back_shift && _Back_shift <= _Non_user_size, "invalid argument");

  0001e	83 c0 fc	 add	 eax, -4			; fffffffcH
  00021	83 f8 1f	 cmp	 eax, 31			; 0000001fH
  00024	77 1f		 ja	 SHORT $LN19@basic_stri

; 173  :     _Ptr = reinterpret_cast<void*>(_Ptr_container);

  00026	8b c2		 mov	 eax, edx
$LN22@basic_stri:

; 264  :         ::operator delete(_Ptr, _Bytes);

  00028	51		 push	 ecx
  00029	50		 push	 eax
  0002a	e8 00 00 00 00	 call	 ??3@YAXPAXI@Z		; operator delete
  0002f	83 c4 08	 add	 esp, 8
$LN12@basic_stri:
; File C:\Program Files (x86)\Microsoft Visual Studio\2019\Professional\VC\Tools\MSVC\14.29.30133\include\xstring

; 4633 :             _Mypair._Myval2._Mysize = 0;

  00032	c7 46 10 00 00
	00 00		 mov	 DWORD PTR [esi+16], 0

; 4634 :             _Mypair._Myval2._Myres  = _BUF_SIZE - 1;

  00039	c7 46 14 0f 00
	00 00		 mov	 DWORD PTR [esi+20], 15	; 0000000fH

; 4635 :             // the _Traits::assign is last so the codegen doesn't think the char write can alias this
; 4636 :             _Traits::assign(_Mypair._Myval2._Bx._Buf[0], _Elem());

  00040	c6 06 00	 mov	 BYTE PTR [esi], 0
  00043	5e		 pop	 esi

; 3010 :     }

  00044	c3		 ret	 0
$LN19@basic_stri:
; File C:\Program Files (x86)\Microsoft Visual Studio\2019\Professional\VC\Tools\MSVC\14.29.30133\include\xmemory

; 172  :     _STL_VERIFY(_Back_shift >= _Min_back_shift && _Back_shift <= _Non_user_size, "invalid argument");

  00045	e8 00 00 00 00	 call	 __invalid_parameter_noinfo_noreturn
$LN27@basic_stri:
  0004a	cc		 int	 3
??1?$basic_string@DU?$char_traits@D@std@@V?$allocator@D@2@@std@@QAE@XZ ENDP ; std::basic_string<char,std::char_traits<char>,std::allocator<char> >::~basic_string<char,std::char_traits<char>,std::allocator<char> >
_TEXT	ENDS
; Function compile flags: /Ogtp
; File C:\Program Files (x86)\Microsoft Visual Studio\2019\Professional\VC\Tools\MSVC\14.29.30133\include\xstring
; File C:\Program Files (x86)\Microsoft Visual Studio\2019\Professional\VC\Tools\MSVC\14.29.30133\include\utility
; File C:\Program Files (x86)\Microsoft Visual Studio\2019\Professional\VC\Tools\MSVC\14.29.30133\include\xstring
; File C:\Program Files (x86)\Microsoft Visual Studio\2019\Professional\VC\Tools\MSVC\14.29.30133\include\utility
; File C:\Program Files (x86)\Microsoft Visual Studio\2019\Professional\VC\Tools\MSVC\14.29.30133\include\xstring
; File C:\Program Files (x86)\Microsoft Visual Studio\2019\Professional\VC\Tools\MSVC\14.29.30133\include\xmemory
; File C:\Program Files (x86)\Microsoft Visual Studio\2019\Professional\VC\Tools\MSVC\14.29.30133\include\xstring
;	COMDAT ??0?$basic_string@DU?$char_traits@D@std@@V?$allocator@D@2@@std@@QAE@ABV01@@Z
_TEXT	SEGMENT
__Right_size$1$ = 8					; size = 4
__Right$ = 8						; size = 4
??0?$basic_string@DU?$char_traits@D@std@@V?$allocator@D@2@@std@@QAE@ABV01@@Z PROC ; std::basic_string<char,std::char_traits<char>,std::allocator<char> >::basic_string<char,std::char_traits<char>,std::allocator<char> >, COMDAT
; _this$ = ecx

; 2451 :         : _Mypair(_One_then_variadic_args_t{}, _Alty_traits::select_on_container_copy_construction(_Right._Getal())) {

  00000	55		 push	 ebp
  00001	8b ec		 mov	 ebp, esp
  00003	53		 push	 ebx
  00004	56		 push	 esi
  00005	8b f1		 mov	 esi, ecx
  00007	57		 push	 edi

; 2921 :         const size_type _Right_size   = _Right_data._Mysize;

  00008	8b 7d 08	 mov	 edi, DWORD PTR __Right$[ebp]

; 2346 :         _CONSTEXPR20_CONTAINER _Bxty() noexcept : _Ptr() {} // user-provided, for fancy pointers

  0000b	c7 06 00 00 00
	00		 mov	 DWORD PTR [esi], 0

; 2355 :     size_type _Mysize = 0; // current length of string

  00011	c7 46 10 00 00
	00 00		 mov	 DWORD PTR [esi+16], 0

; 2356 :     size_type _Myres  = 0; // current storage reserved for string

  00018	c7 46 14 00 00
	00 00		 mov	 DWORD PTR [esi+20], 0

; 2319 :         return _BUF_SIZE <= _Myres;

  0001f	83 7f 14 10	 cmp	 DWORD PTR [edi+20], 16	; 00000010H

; 2921 :         const size_type _Right_size   = _Right_data._Mysize;

  00023	8b 4f 10	 mov	 ecx, DWORD PTR [edi+16]
  00026	89 4d 08	 mov	 DWORD PTR __Right_size$1$[ebp], ecx

; 2306 :         if (_Large_string_engaged()) {

  00029	72 02		 jb	 SHORT $LN15@basic_stri

; 2307 :             _Result = _Unfancy(_Bx._Ptr);

  0002b	8b 3f		 mov	 edi, DWORD PTR [edi]
$LN15@basic_stri:

; 2928 :         const bool _Stay_small = _Right_size < _BUF_SIZE;

  0002d	83 f9 10	 cmp	 ecx, 16			; 00000010H

; 2929 : #endif // __cpp_lib_constexpr_string
; 2930 : 
; 2931 :         // NOTE: even if _Right is in large mode, we only go into large mode ourselves if the actual size of _Right
; 2932 :         // requires it
; 2933 :         if (_Stay_small) { // stay small, don't allocate

  00030	73 1a		 jae	 SHORT $LN12@basic_stri

; 65   :         _CSTD memcpy(_First1, _First2, _Count * sizeof(_Elem));

  00032	0f 10 07	 movups	 xmm0, XMMWORD PTR [edi]

; 2936 :             _My_data._Myres  = _BUF_SIZE - 1;

  00035	bb 0f 00 00 00	 mov	 ebx, 15			; 0000000fH

; 2452 :         auto&& _Alproxy = _GET_PROXY_ALLOCATOR(_Alty, _Getal());
; 2453 :         _Container_proxy_ptr<_Alty> _Proxy(_Alproxy, _Mypair._Myval2);
; 2454 :         _Construct_lv_contents(_Right);
; 2455 :         _Proxy._Release();
; 2456 :     }

  0003a	8b c6		 mov	 eax, esi
  0003c	5f		 pop	 edi

; 65   :         _CSTD memcpy(_First1, _First2, _Count * sizeof(_Elem));

  0003d	0f 11 06	 movups	 XMMWORD PTR [esi], xmm0

; 2452 :         auto&& _Alproxy = _GET_PROXY_ALLOCATOR(_Alty, _Getal());
; 2453 :         _Container_proxy_ptr<_Alty> _Proxy(_Alproxy, _Mypair._Myval2);
; 2454 :         _Construct_lv_contents(_Right);
; 2455 :         _Proxy._Release();
; 2456 :     }

  00040	89 4e 10	 mov	 DWORD PTR [esi+16], ecx
  00043	89 5e 14	 mov	 DWORD PTR [esi+20], ebx
  00046	5e		 pop	 esi
  00047	5b		 pop	 ebx
  00048	5d		 pop	 ebp
  00049	c2 04 00	 ret	 4
$LN12@basic_stri:

; 2941 :         const size_type _New_capacity = (_STD min)(_Right_size | _ALLOC_MASK, max_size());

  0004c	8b d9		 mov	 ebx, ecx
; File C:\Program Files (x86)\Microsoft Visual Studio\2019\Professional\VC\Tools\MSVC\14.29.30133\include\utility

; 68   :     return _Right < _Left ? _Right : _Left;

  0004e	b8 ff ff ff 7f	 mov	 eax, 2147483647		; 7fffffffH
; File C:\Program Files (x86)\Microsoft Visual Studio\2019\Professional\VC\Tools\MSVC\14.29.30133\include\xstring

; 2941 :         const size_type _New_capacity = (_STD min)(_Right_size | _ALLOC_MASK, max_size());

  00053	83 cb 0f	 or	 ebx, 15			; 0000000fH
; File C:\Program Files (x86)\Microsoft Visual Studio\2019\Professional\VC\Tools\MSVC\14.29.30133\include\utility

; 68   :     return _Right < _Left ? _Right : _Left;

  00056	3b d8		 cmp	 ebx, eax
  00058	0f 47 d8	 cmova	 ebx, eax
; File C:\Program Files (x86)\Microsoft Visual Studio\2019\Professional\VC\Tools\MSVC\14.29.30133\include\xstring

; 2942 :         const pointer _New_array      = _Al.allocate(_New_capacity + 1); // throws

  0005b	8d 43 01	 lea	 eax, DWORD PTR [ebx+1]
; File C:\Program Files (x86)\Microsoft Visual Studio\2019\Professional\VC\Tools\MSVC\14.29.30133\include\xmemory

; 237  :         if (_Bytes >= _Big_allocation_threshold) { // boost the alignment of big allocations to help autovectorization

  0005e	3d 00 10 00 00	 cmp	 eax, 4096		; 00001000H
  00063	72 0d		 jb	 SHORT $LN26@basic_stri

; 238  :             return _Allocate_manually_vector_aligned<_Traits>(_Bytes);

  00065	50		 push	 eax
  00066	e8 00 00 00 00	 call	 ??$_Allocate_manually_vector_aligned@U_Default_allocate_traits@std@@@std@@YAPAXI@Z ; std::_Allocate_manually_vector_aligned<std::_Default_allocate_traits>
  0006b	83 c4 04	 add	 esp, 4
  0006e	8b c8		 mov	 ecx, eax
  00070	eb 13		 jmp	 SHORT $LN25@basic_stri
$LN26@basic_stri:

; 239  :         }
; 240  :     }
; 241  : #endif // defined(_M_IX86) || defined(_M_X64)
; 242  : 
; 243  :     if (_Bytes != 0) {

  00072	85 c0		 test	 eax, eax
  00074	74 0d		 je	 SHORT $LN27@basic_stri

; 85   :         return ::operator new(_Bytes);

  00076	50		 push	 eax
  00077	e8 00 00 00 00	 call	 ??2@YAPAXI@Z		; operator new
  0007c	83 c4 04	 add	 esp, 4

; 244  :         return _Traits::_Allocate(_Bytes);

  0007f	8b c8		 mov	 ecx, eax
  00081	eb 02		 jmp	 SHORT $LN25@basic_stri
$LN27@basic_stri:

; 245  :     }
; 246  : 
; 247  :     return nullptr;

  00083	33 c9		 xor	 ecx, ecx
$LN25@basic_stri:
; File C:\Program Files (x86)\Microsoft Visual Studio\2019\Professional\VC\Tools\MSVC\14.29.30133\include\xstring

; 2950 :         _Traits::copy(_Unfancy(_New_array), _Right_ptr, _Right_size + 1);

  00085	8b 45 08	 mov	 eax, DWORD PTR __Right_size$1$[ebp]
  00088	40		 inc	 eax
  00089	89 0e		 mov	 DWORD PTR [esi], ecx

; 65   :         _CSTD memcpy(_First1, _First2, _Count * sizeof(_Elem));

  0008b	50		 push	 eax
  0008c	57		 push	 edi
  0008d	51		 push	 ecx
  0008e	e8 00 00 00 00	 call	 _memcpy
  00093	8b 4d 08	 mov	 ecx, DWORD PTR __Right_size$1$[ebp]
  00096	83 c4 0c	 add	 esp, 12			; 0000000cH

; 2452 :         auto&& _Alproxy = _GET_PROXY_ALLOCATOR(_Alty, _Getal());
; 2453 :         _Container_proxy_ptr<_Alty> _Proxy(_Alproxy, _Mypair._Myval2);
; 2454 :         _Construct_lv_contents(_Right);
; 2455 :         _Proxy._Release();
; 2456 :     }

  00099	89 4e 10	 mov	 DWORD PTR [esi+16], ecx
  0009c	8b c6		 mov	 eax, esi
  0009e	89 5e 14	 mov	 DWORD PTR [esi+20], ebx
  000a1	5f		 pop	 edi
  000a2	5e		 pop	 esi
  000a3	5b		 pop	 ebx
  000a4	5d		 pop	 ebp
  000a5	c2 04 00	 ret	 4
??0?$basic_string@DU?$char_traits@D@std@@V?$allocator@D@2@@std@@QAE@ABV01@@Z ENDP ; std::basic_string<char,std::char_traits<char>,std::allocator<char> >::basic_string<char,std::char_traits<char>,std::allocator<char> >
_TEXT	ENDS
; Function compile flags: /Ogtp
; File C:\Program Files (x86)\Microsoft Visual Studio\2019\Professional\VC\Tools\MSVC\14.29.30133\include\xstring
;	COMDAT ?_Xlen_string@std@@YAXXZ
_TEXT	SEGMENT
?_Xlen_string@std@@YAXXZ PROC				; std::_Xlen_string, COMDAT

; 2374 :     _Xlength_error("string too long");

  00000	68 00 00 00 00	 push	 OFFSET ??_C@_0BA@JFNIOLAK@string?5too?5long@
  00005	e8 00 00 00 00	 call	 ?_Xlength_error@std@@YAXPBD@Z ; std::_Xlength_error
$LN3@Xlen_strin:
  0000a	cc		 int	 3
?_Xlen_string@std@@YAXXZ ENDP				; std::_Xlen_string
_TEXT	ENDS
; Function compile flags: /Ogtp
; File C:\Program Files (x86)\Microsoft Visual Studio\2019\Professional\VC\Tools\MSVC\14.29.30133\include\exception
;	COMDAT ?_Throw_bad_array_new_length@std@@YAXXZ
_TEXT	SEGMENT
$T1 = -12						; size = 12
?_Throw_bad_array_new_length@std@@YAXXZ PROC		; std::_Throw_bad_array_new_length, COMDAT

; 320  : [[noreturn]] inline void _Throw_bad_array_new_length() {

  00000	55		 push	 ebp
  00001	8b ec		 mov	 ebp, esp
  00003	83 ec 0c	 sub	 esp, 12			; 0000000cH

; 321  :     _THROW(bad_array_new_length{});

  00006	8d 4d f4	 lea	 ecx, DWORD PTR $T1[ebp]
  00009	e8 00 00 00 00	 call	 ??0bad_array_new_length@std@@QAE@XZ ; std::bad_array_new_length::bad_array_new_length
  0000e	68 00 00 00 00	 push	 OFFSET __TI3?AVbad_array_new_length@std@@
  00013	8d 45 f4	 lea	 eax, DWORD PTR $T1[ebp]
  00016	50		 push	 eax
  00017	e8 00 00 00 00	 call	 __CxxThrowException@8
$LN3@Throw_bad_:
  0001c	cc		 int	 3
?_Throw_bad_array_new_length@std@@YAXXZ ENDP		; std::_Throw_bad_array_new_length
_TEXT	ENDS
; Function compile flags: /Ogtp
; File C:\Program Files (x86)\Microsoft Visual Studio\2019\Professional\VC\Tools\MSVC\14.29.30133\include\vcruntime_exception.h
;	COMDAT ??_Gbad_array_new_length@std@@UAEPAXI@Z
_TEXT	SEGMENT
___flags$ = 8						; size = 4
??_Gbad_array_new_length@std@@UAEPAXI@Z PROC		; std::bad_array_new_length::`scalar deleting destructor', COMDAT
; _this$ = ecx
  00000	55		 push	 ebp
  00001	8b ec		 mov	 ebp, esp

; 89   :     {

  00003	56		 push	 esi
  00004	8b f1		 mov	 esi, ecx

; 90   :         __std_exception_destroy(&_Data);

  00006	8d 46 04	 lea	 eax, DWORD PTR [esi+4]
  00009	c7 06 00 00 00
	00		 mov	 DWORD PTR [esi], OFFSET ??_7exception@std@@6B@
  0000f	50		 push	 eax
  00010	e8 00 00 00 00	 call	 ___std_exception_destroy
  00015	83 c4 04	 add	 esp, 4
  00018	f6 45 08 01	 test	 BYTE PTR ___flags$[ebp], 1
  0001c	74 0b		 je	 SHORT $LN12@scalar
  0001e	6a 0c		 push	 12			; 0000000cH
  00020	56		 push	 esi
  00021	e8 00 00 00 00	 call	 ??3@YAXPAXI@Z		; operator delete
  00026	83 c4 08	 add	 esp, 8
$LN12@scalar:
  00029	8b c6		 mov	 eax, esi
  0002b	5e		 pop	 esi
  0002c	5d		 pop	 ebp
  0002d	c2 04 00	 ret	 4
??_Gbad_array_new_length@std@@UAEPAXI@Z ENDP		; std::bad_array_new_length::`scalar deleting destructor'
_TEXT	ENDS
; Function compile flags: /Ogtp
; File C:\Program Files (x86)\Microsoft Visual Studio\2019\Professional\VC\Tools\MSVC\14.29.30133\include\vcruntime_exception.h
;	COMDAT ??0bad_array_new_length@std@@QAE@ABV01@@Z
_TEXT	SEGMENT
___that$ = 8						; size = 4
??0bad_array_new_length@std@@QAE@ABV01@@Z PROC		; std::bad_array_new_length::bad_array_new_length, COMDAT
; _this$ = ecx
  00000	55		 push	 ebp
  00001	8b ec		 mov	 ebp, esp

; 72   :     {

  00003	56		 push	 esi
  00004	8b f1		 mov	 esi, ecx
  00006	0f 57 c0	 xorps	 xmm0, xmm0

; 71   :         : _Data()

  00009	8d 46 04	 lea	 eax, DWORD PTR [esi+4]

; 73   :         __std_exception_copy(&_Other._Data, &_Data);

  0000c	50		 push	 eax
  0000d	c7 06 00 00 00
	00		 mov	 DWORD PTR [esi], OFFSET ??_7exception@std@@6B@
  00013	66 0f d6 00	 movq	 QWORD PTR [eax], xmm0
  00017	8b 45 08	 mov	 eax, DWORD PTR ___that$[ebp]
  0001a	83 c0 04	 add	 eax, 4
  0001d	50		 push	 eax
  0001e	e8 00 00 00 00	 call	 ___std_exception_copy
  00023	83 c4 08	 add	 esp, 8
  00026	c7 06 00 00 00
	00		 mov	 DWORD PTR [esi], OFFSET ??_7bad_array_new_length@std@@6B@
  0002c	8b c6		 mov	 eax, esi
  0002e	5e		 pop	 esi
  0002f	5d		 pop	 ebp
  00030	c2 04 00	 ret	 4
??0bad_array_new_length@std@@QAE@ABV01@@Z ENDP		; std::bad_array_new_length::bad_array_new_length
_TEXT	ENDS
; Function compile flags: /Ogtp
; File C:\Program Files (x86)\Microsoft Visual Studio\2019\Professional\VC\Tools\MSVC\14.29.30133\include\vcruntime_exception.h
;	COMDAT ??1bad_array_new_length@std@@UAE@XZ
_TEXT	SEGMENT
??1bad_array_new_length@std@@UAE@XZ PROC		; std::bad_array_new_length::~bad_array_new_length, COMDAT
; _this$ = ecx

; 90   :         __std_exception_destroy(&_Data);

  00000	8d 41 04	 lea	 eax, DWORD PTR [ecx+4]
  00003	c7 01 00 00 00
	00		 mov	 DWORD PTR [ecx], OFFSET ??_7exception@std@@6B@
  00009	50		 push	 eax
  0000a	e8 00 00 00 00	 call	 ___std_exception_destroy
  0000f	59		 pop	 ecx
  00010	c3		 ret	 0
??1bad_array_new_length@std@@UAE@XZ ENDP		; std::bad_array_new_length::~bad_array_new_length
_TEXT	ENDS
; Function compile flags: /Ogtp
; File C:\Program Files (x86)\Microsoft Visual Studio\2019\Professional\VC\Tools\MSVC\14.29.30133\include\vcruntime_exception.h
;	COMDAT ??0bad_array_new_length@std@@QAE@XZ
_TEXT	SEGMENT
??0bad_array_new_length@std@@QAE@XZ PROC		; std::bad_array_new_length::bad_array_new_length, COMDAT
; _this$ = ecx

; 141  :     {

  00000	0f 57 c0	 xorps	 xmm0, xmm0

; 142  :     }

  00003	8b c1		 mov	 eax, ecx

; 65   :         : _Data()

  00005	66 0f d6 41 04	 movq	 QWORD PTR [ecx+4], xmm0

; 66   :     {
; 67   :         _Data._What = _Message;

  0000a	c7 41 04 00 00
	00 00		 mov	 DWORD PTR [ecx+4], OFFSET ??_C@_0BF@KINCDENJ@bad?5array?5new?5length@

; 141  :     {

  00011	c7 01 00 00 00
	00		 mov	 DWORD PTR [ecx], OFFSET ??_7bad_array_new_length@std@@6B@

; 142  :     }

  00017	c3		 ret	 0
??0bad_array_new_length@std@@QAE@XZ ENDP		; std::bad_array_new_length::bad_array_new_length
_TEXT	ENDS
; Function compile flags: /Ogtp
; File C:\Program Files (x86)\Microsoft Visual Studio\2019\Professional\VC\Tools\MSVC\14.29.30133\include\vcruntime_exception.h
;	COMDAT ??_Gbad_alloc@std@@UAEPAXI@Z
_TEXT	SEGMENT
___flags$ = 8						; size = 4
??_Gbad_alloc@std@@UAEPAXI@Z PROC			; std::bad_alloc::`scalar deleting destructor', COMDAT
; _this$ = ecx
  00000	55		 push	 ebp
  00001	8b ec		 mov	 ebp, esp

; 89   :     {

  00003	56		 push	 esi
  00004	8b f1		 mov	 esi, ecx

; 90   :         __std_exception_destroy(&_Data);

  00006	8d 46 04	 lea	 eax, DWORD PTR [esi+4]
  00009	c7 06 00 00 00
	00		 mov	 DWORD PTR [esi], OFFSET ??_7exception@std@@6B@
  0000f	50		 push	 eax
  00010	e8 00 00 00 00	 call	 ___std_exception_destroy
  00015	83 c4 04	 add	 esp, 4
  00018	f6 45 08 01	 test	 BYTE PTR ___flags$[ebp], 1
  0001c	74 0b		 je	 SHORT $LN9@scalar
  0001e	6a 0c		 push	 12			; 0000000cH
  00020	56		 push	 esi
  00021	e8 00 00 00 00	 call	 ??3@YAXPAXI@Z		; operator delete
  00026	83 c4 08	 add	 esp, 8
$LN9@scalar:
  00029	8b c6		 mov	 eax, esi
  0002b	5e		 pop	 esi
  0002c	5d		 pop	 ebp
  0002d	c2 04 00	 ret	 4
??_Gbad_alloc@std@@UAEPAXI@Z ENDP			; std::bad_alloc::`scalar deleting destructor'
_TEXT	ENDS
; Function compile flags: /Ogtp
; File C:\Program Files (x86)\Microsoft Visual Studio\2019\Professional\VC\Tools\MSVC\14.29.30133\include\vcruntime_exception.h
;	COMDAT ??0bad_alloc@std@@QAE@ABV01@@Z
_TEXT	SEGMENT
___that$ = 8						; size = 4
??0bad_alloc@std@@QAE@ABV01@@Z PROC			; std::bad_alloc::bad_alloc, COMDAT
; _this$ = ecx
  00000	55		 push	 ebp
  00001	8b ec		 mov	 ebp, esp

; 72   :     {

  00003	56		 push	 esi
  00004	8b f1		 mov	 esi, ecx
  00006	0f 57 c0	 xorps	 xmm0, xmm0

; 71   :         : _Data()

  00009	8d 46 04	 lea	 eax, DWORD PTR [esi+4]

; 73   :         __std_exception_copy(&_Other._Data, &_Data);

  0000c	50		 push	 eax
  0000d	c7 06 00 00 00
	00		 mov	 DWORD PTR [esi], OFFSET ??_7exception@std@@6B@
  00013	66 0f d6 00	 movq	 QWORD PTR [eax], xmm0
  00017	8b 45 08	 mov	 eax, DWORD PTR ___that$[ebp]
  0001a	83 c0 04	 add	 eax, 4
  0001d	50		 push	 eax
  0001e	e8 00 00 00 00	 call	 ___std_exception_copy
  00023	83 c4 08	 add	 esp, 8
  00026	c7 06 00 00 00
	00		 mov	 DWORD PTR [esi], OFFSET ??_7bad_alloc@std@@6B@
  0002c	8b c6		 mov	 eax, esi
  0002e	5e		 pop	 esi
  0002f	5d		 pop	 ebp
  00030	c2 04 00	 ret	 4
??0bad_alloc@std@@QAE@ABV01@@Z ENDP			; std::bad_alloc::bad_alloc
_TEXT	ENDS
; Function compile flags: /Ogtp
; File C:\Program Files (x86)\Microsoft Visual Studio\2019\Professional\VC\Tools\MSVC\14.29.30133\include\vcruntime_exception.h
;	COMDAT ??_Gexception@std@@UAEPAXI@Z
_TEXT	SEGMENT
___flags$ = 8						; size = 4
??_Gexception@std@@UAEPAXI@Z PROC			; std::exception::`scalar deleting destructor', COMDAT
; _this$ = ecx
  00000	55		 push	 ebp
  00001	8b ec		 mov	 ebp, esp

; 89   :     {

  00003	56		 push	 esi
  00004	8b f1		 mov	 esi, ecx

; 90   :         __std_exception_destroy(&_Data);

  00006	8d 46 04	 lea	 eax, DWORD PTR [esi+4]
  00009	c7 06 00 00 00
	00		 mov	 DWORD PTR [esi], OFFSET ??_7exception@std@@6B@
  0000f	50		 push	 eax
  00010	e8 00 00 00 00	 call	 ___std_exception_destroy
  00015	83 c4 04	 add	 esp, 4
  00018	f6 45 08 01	 test	 BYTE PTR ___flags$[ebp], 1
  0001c	74 0b		 je	 SHORT $LN6@scalar
  0001e	6a 0c		 push	 12			; 0000000cH
  00020	56		 push	 esi
  00021	e8 00 00 00 00	 call	 ??3@YAXPAXI@Z		; operator delete
  00026	83 c4 08	 add	 esp, 8
$LN6@scalar:
  00029	8b c6		 mov	 eax, esi
  0002b	5e		 pop	 esi
  0002c	5d		 pop	 ebp
  0002d	c2 04 00	 ret	 4
??_Gexception@std@@UAEPAXI@Z ENDP			; std::exception::`scalar deleting destructor'
_TEXT	ENDS
; Function compile flags: /Ogtp
; File C:\Program Files (x86)\Microsoft Visual Studio\2019\Professional\VC\Tools\MSVC\14.29.30133\include\vcruntime_exception.h
;	COMDAT ?what@exception@std@@UBEPBDXZ
_TEXT	SEGMENT
?what@exception@std@@UBEPBDXZ PROC			; std::exception::what, COMDAT
; _this$ = ecx

; 95   :         return _Data._What ? _Data._What : "Unknown exception";

  00000	8b 49 04	 mov	 ecx, DWORD PTR [ecx+4]
  00003	b8 00 00 00 00	 mov	 eax, OFFSET ??_C@_0BC@EOODALEL@Unknown?5exception@
  00008	85 c9		 test	 ecx, ecx
  0000a	0f 45 c1	 cmovne	 eax, ecx

; 96   :     }

  0000d	c3		 ret	 0
?what@exception@std@@UBEPBDXZ ENDP			; std::exception::what
_TEXT	ENDS
; Function compile flags: /Ogtp
; File C:\Program Files (x86)\Microsoft Visual Studio\2019\Professional\VC\Tools\MSVC\14.29.30133\include\vcruntime_exception.h
;	COMDAT ??1exception@std@@UAE@XZ
_TEXT	SEGMENT
??1exception@std@@UAE@XZ PROC				; std::exception::~exception, COMDAT
; _this$ = ecx

; 90   :         __std_exception_destroy(&_Data);

  00000	8d 41 04	 lea	 eax, DWORD PTR [ecx+4]
  00003	c7 01 00 00 00
	00		 mov	 DWORD PTR [ecx], OFFSET ??_7exception@std@@6B@
  00009	50		 push	 eax
  0000a	e8 00 00 00 00	 call	 ___std_exception_destroy
  0000f	59		 pop	 ecx

; 91   :     }

  00010	c3		 ret	 0
??1exception@std@@UAE@XZ ENDP				; std::exception::~exception
_TEXT	ENDS
; Function compile flags: /Ogtp
; File C:\Program Files (x86)\Microsoft Visual Studio\2019\Professional\VC\Tools\MSVC\14.29.30133\include\vcruntime_exception.h
;	COMDAT ??0exception@std@@QAE@ABV01@@Z
_TEXT	SEGMENT
__Other$ = 8						; size = 4
??0exception@std@@QAE@ABV01@@Z PROC			; std::exception::exception, COMDAT
; _this$ = ecx

; 72   :     {

  00000	55		 push	 ebp
  00001	8b ec		 mov	 ebp, esp
  00003	56		 push	 esi
  00004	8b f1		 mov	 esi, ecx
  00006	0f 57 c0	 xorps	 xmm0, xmm0
  00009	8d 46 04	 lea	 eax, DWORD PTR [esi+4]

; 73   :         __std_exception_copy(&_Other._Data, &_Data);

  0000c	50		 push	 eax
  0000d	c7 06 00 00 00
	00		 mov	 DWORD PTR [esi], OFFSET ??_7exception@std@@6B@
  00013	66 0f d6 00	 movq	 QWORD PTR [eax], xmm0
  00017	8b 45 08	 mov	 eax, DWORD PTR __Other$[ebp]
  0001a	83 c0 04	 add	 eax, 4
  0001d	50		 push	 eax
  0001e	e8 00 00 00 00	 call	 ___std_exception_copy
  00023	83 c4 08	 add	 esp, 8

; 74   :     }

  00026	8b c6		 mov	 eax, esi
  00028	5e		 pop	 esi
  00029	5d		 pop	 ebp
  0002a	c2 04 00	 ret	 4
??0exception@std@@QAE@ABV01@@Z ENDP			; std::exception::exception
_TEXT	ENDS
END
