; Listing generated by Microsoft (R) Optimizing Compiler Version 19.29.30137.0 

	TITLE	C:\Users\murat\Desktop\Siveps2-1-99-Project\source\client\Client\EterPack\Distribute\EterPackManager.obj
	.686P
	.XMM
	include listing.inc
	.model	flat

INCLUDELIB LIBCMT
INCLUDELIB OLDNAMES

CONST	SEGMENT
?_Fake_alloc@std@@3U_Fake_allocator@1@B	ORG $+1		; std::_Fake_alloc
CONST	ENDS
PUBLIC	??0exception@std@@QAE@ABV01@@Z			; std::exception::exception
PUBLIC	??1exception@std@@UAE@XZ			; std::exception::~exception
PUBLIC	?what@exception@std@@UBEPBDXZ			; std::exception::what
PUBLIC	??_Gexception@std@@UAEPAXI@Z			; std::exception::`scalar deleting destructor'
PUBLIC	??0bad_alloc@std@@QAE@ABV01@@Z			; std::bad_alloc::bad_alloc
PUBLIC	??_Gbad_alloc@std@@UAEPAXI@Z			; std::bad_alloc::`scalar deleting destructor'
PUBLIC	??0bad_array_new_length@std@@QAE@XZ		; std::bad_array_new_length::bad_array_new_length
PUBLIC	??1bad_array_new_length@std@@UAE@XZ		; std::bad_array_new_length::~bad_array_new_length
PUBLIC	??0bad_array_new_length@std@@QAE@ABV01@@Z	; std::bad_array_new_length::bad_array_new_length
PUBLIC	??_Gbad_array_new_length@std@@UAEPAXI@Z		; std::bad_array_new_length::`scalar deleting destructor'
PUBLIC	?_Throw_bad_array_new_length@std@@YAXXZ		; std::_Throw_bad_array_new_length
PUBLIC	?_Xlen_string@std@@YAXXZ			; std::_Xlen_string
PUBLIC	??0?$basic_string@DU?$char_traits@D@std@@V?$allocator@D@2@@std@@QAE@ABV01@@Z ; std::basic_string<char,std::char_traits<char>,std::allocator<char> >::basic_string<char,std::char_traits<char>,std::allocator<char> >
PUBLIC	??1?$basic_string@DU?$char_traits@D@std@@V?$allocator@D@2@@std@@QAE@XZ ; std::basic_string<char,std::char_traits<char>,std::allocator<char> >::~basic_string<char,std::char_traits<char>,std::allocator<char> >
PUBLIC	?assign@?$basic_string@DU?$char_traits@D@std@@V?$allocator@D@2@@std@@QAEAAV12@QBDI@Z ; std::basic_string<char,std::char_traits<char>,std::allocator<char> >::assign
PUBLIC	?NoPath@CFileNameHelper@@SA?AV?$basic_string@DU?$char_traits@D@std@@V?$allocator@D@2@@std@@AAV23@@Z ; CFileNameHelper::NoPath
PUBLIC	??$hash_value@K@boost@@YAIK@Z			; boost::hash_value<unsigned long>
PUBLIC	??1?$table@U?$map@V?$allocator@U?$pair@$$CBKUItem@CEterFileDict@@@std@@@std@@KUItem@CEterFileDict@@U?$hash@K@boost@@U?$equal_to@K@2@@detail@unordered@boost@@@detail@unordered@boost@@QAE@XZ ; boost::unordered::detail::table<boost::unordered::detail::map<std::allocator<std::pair<unsigned long const ,CEterFileDict::Item> >,unsigned long,CEterFileDict::Item,boost::hash<unsigned long>,std::equal_to<unsigned long> > >::~table<boost::unordered::detail::map<std::allocator<std::pair<unsigned long const ,CEterFileDict::Item> >,unsigned long,CEterFileDict::Item,boost::hash<unsigned long>,std::equal_to<unsigned long> > >
PUBLIC	??0?$unordered_multimap@KUItem@CEterFileDict@@U?$hash@K@boost@@U?$equal_to@K@std@@V?$allocator@U?$pair@$$CBKUItem@CEterFileDict@@@std@@@6@@unordered@boost@@QAE@XZ ; boost::unordered::unordered_multimap<unsigned long,CEterFileDict::Item,boost::hash<unsigned long>,std::equal_to<unsigned long>,std::allocator<std::pair<unsigned long const ,CEterFileDict::Item> > >::unordered_multimap<unsigned long,CEterFileDict::Item,boost::hash<unsigned long>,std::equal_to<unsigned long>,std::allocator<std::pair<unsigned long const ,CEterFileDict::Item> > >
PUBLIC	??1?$unordered_multimap@KUItem@CEterFileDict@@U?$hash@K@boost@@U?$equal_to@K@std@@V?$allocator@U?$pair@$$CBKUItem@CEterFileDict@@@std@@@6@@unordered@boost@@QAE@XZ ; boost::unordered::unordered_multimap<unsigned long,CEterFileDict::Item,boost::hash<unsigned long>,std::equal_to<unsigned long>,std::allocator<std::pair<unsigned long const ,CEterFileDict::Item> > >::~unordered_multimap<unsigned long,CEterFileDict::Item,boost::hash<unsigned long>,std::equal_to<unsigned long>,std::allocator<std::pair<unsigned long const ,CEterFileDict::Item> > >
PUBLIC	??1CEterFileDict@@QAE@XZ			; CEterFileDict::~CEterFileDict
PUBLIC	??1?$CSingleton@VCEterPackManager@@@@UAE@XZ	; CSingleton<CEterPackManager>::~CSingleton<CEterPackManager>
PUBLIC	??_G?$CSingleton@VCEterPackManager@@@@UAEPAXI@Z	; CSingleton<CEterPackManager>::`scalar deleting destructor'
PUBLIC	??0CEterPackManager@@QAE@XZ			; CEterPackManager::CEterPackManager
PUBLIC	??1CEterPackManager@@UAE@XZ			; CEterPackManager::~CEterPackManager
PUBLIC	?SetCacheMode@CEterPackManager@@QAEXXZ		; CEterPackManager::SetCacheMode
PUBLIC	?SetRelativePathMode@CEterPackManager@@QAEXXZ	; CEterPackManager::SetRelativePathMode
PUBLIC	?LoadStaticCache@CEterPackManager@@QAEXPBD@Z	; CEterPackManager::LoadStaticCache
PUBLIC	?SetSearchMode@CEterPackManager@@QAEX_N@Z	; CEterPackManager::SetSearchMode
PUBLIC	?GetSearchMode@CEterPackManager@@QAEHXZ		; CEterPackManager::GetSearchMode
PUBLIC	?Get@CEterPackManager@@QAE_NAAVCMappedFile@@PBDPAPBX@Z ; CEterPackManager::Get
PUBLIC	?GetFromPack@CEterPackManager@@QAE_NAAVCMappedFile@@PBDPAPBX@Z ; CEterPackManager::GetFromPack
PUBLIC	?GetFromFile@CEterPackManager@@QAE_NAAVCMappedFile@@PBDPAPBX@Z ; CEterPackManager::GetFromFile
PUBLIC	?isExist@CEterPackManager@@QAE_NPBD@Z		; CEterPackManager::isExist
PUBLIC	?isExistInPack@CEterPackManager@@QAE_NPBD@Z	; CEterPackManager::isExistInPack
PUBLIC	?RegisterPack@CEterPackManager@@QAE_NPBD0PBE@Z	; CEterPackManager::RegisterPack
PUBLIC	?RegisterRootPack@CEterPackManager@@QAEXPBD@Z	; CEterPackManager::RegisterRootPack
PUBLIC	?RegisterPackWhenPackMaking@CEterPackManager@@QAE_NPBD0PAVCEterPack@@@Z ; CEterPackManager::RegisterPackWhenPackMaking
PUBLIC	?DecryptPackIV@CEterPackManager@@QAE_NK@Z	; CEterPackManager::DecryptPackIV
PUBLIC	?GetRootPackFileName@CEterPackManager@@QAEPBDXZ	; CEterPackManager::GetRootPackFileName
PUBLIC	?WriteHybridCryptPackInfo@CEterPackManager@@QAEXPBD@Z ; CEterPackManager::WriteHybridCryptPackInfo
PUBLIC	?RetrieveHybridCryptPackKeys@CEterPackManager@@QAEXPBE@Z ; CEterPackManager::RetrieveHybridCryptPackKeys
PUBLIC	?RetrieveHybridCryptPackSDB@CEterPackManager@@QAEXPBE@Z ; CEterPackManager::RetrieveHybridCryptPackSDB
PUBLIC	?ArrangeMemoryMappedPack@CEterPackManager@@QAEXXZ ; CEterPackManager::ArrangeMemoryMappedPack
PUBLIC	?ConvertFileName@CEterPackManager@@IAEHPBDAAV?$basic_string@DU?$char_traits@D@std@@V?$allocator@D@2@@std@@@Z ; CEterPackManager::ConvertFileName
PUBLIC	?CompareName@CEterPackManager@@IAE_NPBDK0@Z	; CEterPackManager::CompareName
PUBLIC	?FindPack@CEterPackManager@@IAEPAVCEterPack@@PBD@Z ; CEterPackManager::FindPack
PUBLIC	?__FindCache@CEterPackManager@@IAEPAUSCache@1@K@Z ; CEterPackManager::__FindCache
PUBLIC	?__ClearCacheMap@CEterPackManager@@IAEXXZ	; CEterPackManager::__ClearCacheMap
PUBLIC	?push_front@?$list@PAVCEterPack@@V?$allocator@PAVCEterPack@@@std@@@std@@QAEXABQAVCEterPack@@@Z ; std::list<CEterPack *,std::allocator<CEterPack *> >::push_front
PUBLIC	?min_buckets_for_size@?$table@U?$map@V?$allocator@U?$pair@$$CBV?$basic_string@DU?$char_traits@D@std@@V?$allocator@D@2@@std@@PAVCEterPack@@@std@@@std@@V?$basic_string@DU?$char_traits@D@std@@V?$allocator@D@2@@2@PAVCEterPack@@Ustringhash@@U?$equal_to@V?$basic_string@DU?$char_traits@D@std@@V?$allocator@D@2@@std@@@2@@detail@unordered@boost@@@detail@unordered@boost@@QBEII@Z ; boost::unordered::detail::table<boost::unordered::detail::map<std::allocator<std::pair<std::basic_string<char,std::char_traits<char>,std::allocator<char> > const ,CEterPack *> >,std::basic_string<char,std::char_traits<char>,std::allocator<char> >,CEterPack *,stringhash,std::equal_to<std::basic_string<char,std::char_traits<char>,std::allocator<char> > > > >::min_buckets_for_size
PUBLIC	?create_buckets@?$table@U?$map@V?$allocator@U?$pair@$$CBV?$basic_string@DU?$char_traits@D@std@@V?$allocator@D@2@@std@@PAVCEterPack@@@std@@@std@@V?$basic_string@DU?$char_traits@D@std@@V?$allocator@D@2@@2@PAVCEterPack@@Ustringhash@@U?$equal_to@V?$basic_string@DU?$char_traits@D@std@@V?$allocator@D@2@@std@@@2@@detail@unordered@boost@@@detail@unordered@boost@@QAEXI@Z ; boost::unordered::detail::table<boost::unordered::detail::map<std::allocator<std::pair<std::basic_string<char,std::char_traits<char>,std::allocator<char> > const ,CEterPack *> >,std::basic_string<char,std::char_traits<char>,std::allocator<char> >,CEterPack *,stringhash,std::equal_to<std::basic_string<char,std::char_traits<char>,std::allocator<char> > > > >::create_buckets
PUBLIC	??1?$table@U?$map@V?$allocator@U?$pair@$$CBV?$basic_string@DU?$char_traits@D@std@@V?$allocator@D@2@@std@@PAVCEterPack@@@std@@@std@@V?$basic_string@DU?$char_traits@D@std@@V?$allocator@D@2@@2@PAVCEterPack@@Ustringhash@@U?$equal_to@V?$basic_string@DU?$char_traits@D@std@@V?$allocator@D@2@@std@@@2@@detail@unordered@boost@@@detail@unordered@boost@@QAE@XZ ; boost::unordered::detail::table<boost::unordered::detail::map<std::allocator<std::pair<std::basic_string<char,std::char_traits<char>,std::allocator<char> > const ,CEterPack *> >,std::basic_string<char,std::char_traits<char>,std::allocator<char> >,CEterPack *,stringhash,std::equal_to<std::basic_string<char,std::char_traits<char>,std::allocator<char> > > > >::~table<boost::unordered::detail::map<std::allocator<std::pair<std::basic_string<char,std::char_traits<char>,std::allocator<char> > const ,CEterPack *> >,std::basic_string<char,std::char_traits<char>,std::allocator<char> >,CEterPack *,stringhash,std::equal_to<std::basic_string<char,std::char_traits<char>,std::allocator<char> > > > >
PUBLIC	?rehash_impl@?$table@U?$map@V?$allocator@U?$pair@$$CBV?$basic_string@DU?$char_traits@D@std@@V?$allocator@D@2@@std@@PAVCEterPack@@@std@@@std@@V?$basic_string@DU?$char_traits@D@std@@V?$allocator@D@2@@2@PAVCEterPack@@Ustringhash@@U?$equal_to@V?$basic_string@DU?$char_traits@D@std@@V?$allocator@D@2@@std@@@2@@detail@unordered@boost@@@detail@unordered@boost@@QAEXI@Z ; boost::unordered::detail::table<boost::unordered::detail::map<std::allocator<std::pair<std::basic_string<char,std::char_traits<char>,std::allocator<char> > const ,CEterPack *> >,std::basic_string<char,std::char_traits<char>,std::allocator<char> >,CEterPack *,stringhash,std::equal_to<std::basic_string<char,std::char_traits<char>,std::allocator<char> > > > >::rehash_impl
PUBLIC	??0?$unordered_map@V?$basic_string@DU?$char_traits@D@std@@V?$allocator@D@2@@std@@PAVCEterPack@@Ustringhash@@U?$equal_to@V?$basic_string@DU?$char_traits@D@std@@V?$allocator@D@2@@std@@@2@V?$allocator@U?$pair@$$CBV?$basic_string@DU?$char_traits@D@std@@V?$allocator@D@2@@std@@PAVCEterPack@@@std@@@2@@unordered@boost@@QAE@XZ ; boost::unordered::unordered_map<std::basic_string<char,std::char_traits<char>,std::allocator<char> >,CEterPack *,stringhash,std::equal_to<std::basic_string<char,std::char_traits<char>,std::allocator<char> > >,std::allocator<std::pair<std::basic_string<char,std::char_traits<char>,std::allocator<char> > const ,CEterPack *> > >::unordered_map<std::basic_string<char,std::char_traits<char>,std::allocator<char> >,CEterPack *,stringhash,std::equal_to<std::basic_string<char,std::char_traits<char>,std::allocator<char> > >,std::allocator<std::pair<std::basic_string<char,std::char_traits<char>,std::allocator<char> > const ,CEterPack *> > >
PUBLIC	??1?$unordered_map@V?$basic_string@DU?$char_traits@D@std@@V?$allocator@D@2@@std@@PAVCEterPack@@Ustringhash@@U?$equal_to@V?$basic_string@DU?$char_traits@D@std@@V?$allocator@D@2@@std@@@2@V?$allocator@U?$pair@$$CBV?$basic_string@DU?$char_traits@D@std@@V?$allocator@D@2@@std@@PAVCEterPack@@@std@@@2@@unordered@boost@@QAE@XZ ; boost::unordered::unordered_map<std::basic_string<char,std::char_traits<char>,std::allocator<char> >,CEterPack *,stringhash,std::equal_to<std::basic_string<char,std::char_traits<char>,std::allocator<char> > >,std::allocator<std::pair<std::basic_string<char,std::char_traits<char>,std::allocator<char> > const ,CEterPack *> > >::~unordered_map<std::basic_string<char,std::char_traits<char>,std::allocator<char> >,CEterPack *,stringhash,std::equal_to<std::basic_string<char,std::char_traits<char>,std::allocator<char> > >,std::allocator<std::pair<std::basic_string<char,std::char_traits<char>,std::allocator<char> > const ,CEterPack *> > >
PUBLIC	?find@?$unordered_map@V?$basic_string@DU?$char_traits@D@std@@V?$allocator@D@2@@std@@PAVCEterPack@@Ustringhash@@U?$equal_to@V?$basic_string@DU?$char_traits@D@std@@V?$allocator@D@2@@std@@@2@V?$allocator@U?$pair@$$CBV?$basic_string@DU?$char_traits@D@std@@V?$allocator@D@2@@std@@PAVCEterPack@@@std@@@2@@unordered@boost@@QAE?AU?$iterator@U?$ptr_node@U?$pair@$$CBV?$basic_string@DU?$char_traits@D@std@@V?$allocator@D@2@@std@@PAVCEterPack@@@std@@@detail@unordered@boost@@@iterator_detail@23@ABV?$basic_string@DU?$char_traits@D@std@@V?$allocator@D@2@@std@@@Z ; boost::unordered::unordered_map<std::basic_string<char,std::char_traits<char>,std::allocator<char> >,CEterPack *,stringhash,std::equal_to<std::basic_string<char,std::char_traits<char>,std::allocator<char> > >,std::allocator<std::pair<std::basic_string<char,std::char_traits<char>,std::allocator<char> > const ,CEterPack *> > >::find
PUBLIC	?min_buckets_for_size@?$table@U?$map@V?$allocator@U?$pair@$$CBKUSCache@CEterPackManager@@@std@@@std@@KUSCache@CEterPackManager@@U?$hash@K@boost@@U?$equal_to@K@2@@detail@unordered@boost@@@detail@unordered@boost@@QBEII@Z ; boost::unordered::detail::table<boost::unordered::detail::map<std::allocator<std::pair<unsigned long const ,CEterPackManager::SCache> >,unsigned long,CEterPackManager::SCache,boost::hash<unsigned long>,std::equal_to<unsigned long> > >::min_buckets_for_size
PUBLIC	?create_buckets@?$table@U?$map@V?$allocator@U?$pair@$$CBKUSCache@CEterPackManager@@@std@@@std@@KUSCache@CEterPackManager@@U?$hash@K@boost@@U?$equal_to@K@2@@detail@unordered@boost@@@detail@unordered@boost@@QAEXI@Z ; boost::unordered::detail::table<boost::unordered::detail::map<std::allocator<std::pair<unsigned long const ,CEterPackManager::SCache> >,unsigned long,CEterPackManager::SCache,boost::hash<unsigned long>,std::equal_to<unsigned long> > >::create_buckets
PUBLIC	??1?$table@U?$map@V?$allocator@U?$pair@$$CBKUSCache@CEterPackManager@@@std@@@std@@KUSCache@CEterPackManager@@U?$hash@K@boost@@U?$equal_to@K@2@@detail@unordered@boost@@@detail@unordered@boost@@QAE@XZ ; boost::unordered::detail::table<boost::unordered::detail::map<std::allocator<std::pair<unsigned long const ,CEterPackManager::SCache> >,unsigned long,CEterPackManager::SCache,boost::hash<unsigned long>,std::equal_to<unsigned long> > >::~table<boost::unordered::detail::map<std::allocator<std::pair<unsigned long const ,CEterPackManager::SCache> >,unsigned long,CEterPackManager::SCache,boost::hash<unsigned long>,std::equal_to<unsigned long> > >
PUBLIC	?rehash_impl@?$table@U?$map@V?$allocator@U?$pair@$$CBKUSCache@CEterPackManager@@@std@@@std@@KUSCache@CEterPackManager@@U?$hash@K@boost@@U?$equal_to@K@2@@detail@unordered@boost@@@detail@unordered@boost@@QAEXI@Z ; boost::unordered::detail::table<boost::unordered::detail::map<std::allocator<std::pair<unsigned long const ,CEterPackManager::SCache> >,unsigned long,CEterPackManager::SCache,boost::hash<unsigned long>,std::equal_to<unsigned long> > >::rehash_impl
PUBLIC	??0?$unordered_map@KUSCache@CEterPackManager@@U?$hash@K@boost@@U?$equal_to@K@std@@V?$allocator@U?$pair@$$CBKUSCache@CEterPackManager@@@std@@@6@@unordered@boost@@QAE@XZ ; boost::unordered::unordered_map<unsigned long,CEterPackManager::SCache,boost::hash<unsigned long>,std::equal_to<unsigned long>,std::allocator<std::pair<unsigned long const ,CEterPackManager::SCache> > >::unordered_map<unsigned long,CEterPackManager::SCache,boost::hash<unsigned long>,std::equal_to<unsigned long>,std::allocator<std::pair<unsigned long const ,CEterPackManager::SCache> > >
PUBLIC	??1?$unordered_map@KUSCache@CEterPackManager@@U?$hash@K@boost@@U?$equal_to@K@std@@V?$allocator@U?$pair@$$CBKUSCache@CEterPackManager@@@std@@@6@@unordered@boost@@QAE@XZ ; boost::unordered::unordered_map<unsigned long,CEterPackManager::SCache,boost::hash<unsigned long>,std::equal_to<unsigned long>,std::allocator<std::pair<unsigned long const ,CEterPackManager::SCache> > >::~unordered_map<unsigned long,CEterPackManager::SCache,boost::hash<unsigned long>,std::equal_to<unsigned long>,std::allocator<std::pair<unsigned long const ,CEterPackManager::SCache> > >
PUBLIC	?find@?$unordered_map@KUSCache@CEterPackManager@@U?$hash@K@boost@@U?$equal_to@K@std@@V?$allocator@U?$pair@$$CBKUSCache@CEterPackManager@@@std@@@6@@unordered@boost@@QAE?AU?$iterator@U?$ptr_node@U?$pair@$$CBKUSCache@CEterPackManager@@@std@@@detail@unordered@boost@@@iterator_detail@23@ABK@Z ; boost::unordered::unordered_map<unsigned long,CEterPackManager::SCache,boost::hash<unsigned long>,std::equal_to<unsigned long>,std::allocator<std::pair<unsigned long const ,CEterPackManager::SCache> > >::find
PUBLIC	??_GCEterPackManager@@UAEPAXI@Z			; CEterPackManager::`scalar deleting destructor'
PUBLIC	??1?$pair@$$CBV?$basic_string@DU?$char_traits@D@std@@V?$allocator@D@2@@std@@PAVCEterPack@@@std@@QAE@XZ ; std::pair<std::basic_string<char,std::char_traits<char>,std::allocator<char> > const ,CEterPack *>::~pair<std::basic_string<char,std::char_traits<char>,std::allocator<char> > const ,CEterPack *>
PUBLIC	??1FinderLock@@QAE@XZ				; FinderLock::~FinderLock
PUBLIC	??$emplace_unique@U?$pair@$$CBKUSCache@CEterPackManager@@@std@@@?$table@U?$map@V?$allocator@U?$pair@$$CBKUSCache@CEterPackManager@@@std@@@std@@KUSCache@CEterPackManager@@U?$hash@K@boost@@U?$equal_to@K@2@@detail@unordered@boost@@@detail@unordered@boost@@QAE?AU?$pair@U?$iterator@U?$ptr_node@U?$pair@$$CBKUSCache@CEterPackManager@@@std@@@detail@unordered@boost@@@iterator_detail@unordered@boost@@_N@std@@ABK$$QAU?$pair@$$CBKUSCache@CEterPackManager@@@5@@Z ; boost::unordered::detail::table<boost::unordered::detail::map<std::allocator<std::pair<unsigned long const ,CEterPackManager::SCache> >,unsigned long,CEterPackManager::SCache,boost::hash<unsigned long>,std::equal_to<unsigned long> > >::emplace_unique<std::pair<unsigned long const ,CEterPackManager::SCache> >
PUBLIC	??$emplace_unique@U?$pair@$$CBV?$basic_string@DU?$char_traits@D@std@@V?$allocator@D@2@@std@@PAVCEterPack@@@std@@@?$table@U?$map@V?$allocator@U?$pair@$$CBV?$basic_string@DU?$char_traits@D@std@@V?$allocator@D@2@@std@@PAVCEterPack@@@std@@@std@@V?$basic_string@DU?$char_traits@D@std@@V?$allocator@D@2@@2@PAVCEterPack@@Ustringhash@@U?$equal_to@V?$basic_string@DU?$char_traits@D@std@@V?$allocator@D@2@@std@@@2@@detail@unordered@boost@@@detail@unordered@boost@@QAE?AU?$pair@U?$iterator@U?$ptr_node@U?$pair@$$CBV?$basic_string@DU?$char_traits@D@std@@V?$allocator@D@2@@std@@PAVCEterPack@@@std@@@detail@unordered@boost@@@iterator_detail@unordered@boost@@_N@std@@ABV?$basic_string@DU?$char_traits@D@std@@V?$allocator@D@2@@5@$$QAU?$pair@$$CBV?$basic_string@DU?$char_traits@D@std@@V?$allocator@D@2@@std@@PAVCEterPack@@@5@@Z ; boost::unordered::detail::table<boost::unordered::detail::map<std::allocator<std::pair<std::basic_string<char,std::char_traits<char>,std::allocator<char> > const ,CEterPack *> >,std::basic_string<char,std::char_traits<char>,std::allocator<char> >,CEterPack *,stringhash,std::equal_to<std::basic_string<char,std::char_traits<char>,std::allocator<char> > > > >::emplace_unique<std::pair<std::basic_string<char,std::char_traits<char>,std::allocator<char> > const ,CEterPack *> >
PUBLIC	??1?$_Alloc_construct_ptr@V?$allocator@U?$_List_node@PAVCEterPack@@PAX@std@@@std@@@std@@QAE@XZ ; std::_Alloc_construct_ptr<std::allocator<std::_List_node<CEterPack *,void *> > >::~_Alloc_construct_ptr<std::allocator<std::_List_node<CEterPack *,void *> > >
PUBLIC	??$_Allocate_manually_vector_aligned@U_Default_allocate_traits@std@@@std@@YAPAXI@Z ; std::_Allocate_manually_vector_aligned<std::_Default_allocate_traits>
PUBLIC	??$find_node_impl@KU?$equal_to@K@std@@@?$table@U?$map@V?$allocator@U?$pair@$$CBKUSCache@CEterPackManager@@@std@@@std@@KUSCache@CEterPackManager@@U?$hash@K@boost@@U?$equal_to@K@2@@detail@unordered@boost@@@detail@unordered@boost@@QBEPAU?$ptr_node@U?$pair@$$CBKUSCache@CEterPackManager@@@std@@@123@IABKABU?$equal_to@K@std@@@Z ; boost::unordered::detail::table<boost::unordered::detail::map<std::allocator<std::pair<unsigned long const ,CEterPackManager::SCache> >,unsigned long,CEterPackManager::SCache,boost::hash<unsigned long>,std::equal_to<unsigned long> > >::find_node_impl<unsigned long,std::equal_to<unsigned long> >
PUBLIC	?new_bucket_count@?$prime_policy@I@detail@unordered@boost@@SAII@Z ; boost::unordered::detail::prime_policy<unsigned int>::new_bucket_count
PUBLIC	??$find_node_impl@V?$basic_string@DU?$char_traits@D@std@@V?$allocator@D@2@@std@@U?$equal_to@V?$basic_string@DU?$char_traits@D@std@@V?$allocator@D@2@@std@@@2@@?$table@U?$map@V?$allocator@U?$pair@$$CBV?$basic_string@DU?$char_traits@D@std@@V?$allocator@D@2@@std@@PAVCEterPack@@@std@@@std@@V?$basic_string@DU?$char_traits@D@std@@V?$allocator@D@2@@2@PAVCEterPack@@Ustringhash@@U?$equal_to@V?$basic_string@DU?$char_traits@D@std@@V?$allocator@D@2@@std@@@2@@detail@unordered@boost@@@detail@unordered@boost@@QBEPAU?$ptr_node@U?$pair@$$CBV?$basic_string@DU?$char_traits@D@std@@V?$allocator@D@2@@std@@PAVCEterPack@@@std@@@123@IABV?$basic_string@DU?$char_traits@D@std@@V?$allocator@D@2@@std@@ABU?$equal_to@V?$basic_string@DU?$char_traits@D@std@@V?$allocator@D@2@@std@@@6@@Z ; boost::unordered::detail::table<boost::unordered::detail::map<std::allocator<std::pair<std::basic_string<char,std::char_traits<char>,std::allocator<char> > const ,CEterPack *> >,std::basic_string<char,std::char_traits<char>,std::allocator<char> >,CEterPack *,stringhash,std::equal_to<std::basic_string<char,std::char_traits<char>,std::allocator<char> > > > >::find_node_impl<std::basic_string<char,std::char_traits<char>,std::allocator<char> >,std::equal_to<std::basic_string<char,std::char_traits<char>,std::allocator<char> > > >
PUBLIC	??$destroy@U?$pair@$$CBV?$basic_string@DU?$char_traits@D@std@@V?$allocator@D@2@@std@@PAVCEterPack@@@std@@@?$_Default_allocator_traits@V?$allocator@U?$ptr_node@U?$pair@$$CBV?$basic_string@DU?$char_traits@D@std@@V?$allocator@D@2@@std@@PAVCEterPack@@@std@@@detail@unordered@boost@@@std@@@std@@SAXAAV?$allocator@U?$ptr_node@U?$pair@$$CBV?$basic_string@DU?$char_traits@D@std@@V?$allocator@D@2@@std@@PAVCEterPack@@@std@@@detail@unordered@boost@@@1@QAU?$pair@$$CBV?$basic_string@DU?$char_traits@D@std@@V?$allocator@D@2@@std@@PAVCEterPack@@@1@@Z ; std::_Default_allocator_traits<std::allocator<boost::unordered::detail::ptr_node<std::pair<std::basic_string<char,std::char_traits<char>,std::allocator<char> > const ,CEterPack *> > > >::destroy<std::pair<std::basic_string<char,std::char_traits<char>,std::allocator<char> > const ,CEterPack *> >
PUBLIC	??1?$node_tmp@V?$allocator@U?$ptr_node@U?$pair@$$CBKUSCache@CEterPackManager@@@std@@@detail@unordered@boost@@@std@@@detail@unordered@boost@@QAE@XZ ; boost::unordered::detail::node_tmp<std::allocator<boost::unordered::detail::ptr_node<std::pair<unsigned long const ,CEterPackManager::SCache> > > >::~node_tmp<std::allocator<boost::unordered::detail::ptr_node<std::pair<unsigned long const ,CEterPackManager::SCache> > > >
PUBLIC	??1?$node_tmp@V?$allocator@U?$ptr_node@U?$pair@$$CBV?$basic_string@DU?$char_traits@D@std@@V?$allocator@D@2@@std@@PAVCEterPack@@@std@@@detail@unordered@boost@@@std@@@detail@unordered@boost@@QAE@XZ ; boost::unordered::detail::node_tmp<std::allocator<boost::unordered::detail::ptr_node<std::pair<std::basic_string<char,std::char_traits<char>,std::allocator<char> > const ,CEterPack *> > > >::~node_tmp<std::allocator<boost::unordered::detail::ptr_node<std::pair<std::basic_string<char,std::char_traits<char>,std::allocator<char> > const ,CEterPack *> > > >
PUBLIC	??1?$node_constructor@V?$allocator@U?$ptr_node@U?$pair@$$CBKUSCache@CEterPackManager@@@std@@@detail@unordered@boost@@@std@@@detail@unordered@boost@@QAE@XZ ; boost::unordered::detail::node_constructor<std::allocator<boost::unordered::detail::ptr_node<std::pair<unsigned long const ,CEterPackManager::SCache> > > >::~node_constructor<std::allocator<boost::unordered::detail::ptr_node<std::pair<unsigned long const ,CEterPackManager::SCache> > > >
PUBLIC	?create_node@?$node_constructor@V?$allocator@U?$ptr_node@U?$pair@$$CBKUSCache@CEterPackManager@@@std@@@detail@unordered@boost@@@std@@@detail@unordered@boost@@QAEXXZ ; boost::unordered::detail::node_constructor<std::allocator<boost::unordered::detail::ptr_node<std::pair<unsigned long const ,CEterPackManager::SCache> > > >::create_node
PUBLIC	??1?$node_constructor@V?$allocator@U?$ptr_node@U?$pair@$$CBV?$basic_string@DU?$char_traits@D@std@@V?$allocator@D@2@@std@@PAVCEterPack@@@std@@@detail@unordered@boost@@@std@@@detail@unordered@boost@@QAE@XZ ; boost::unordered::detail::node_constructor<std::allocator<boost::unordered::detail::ptr_node<std::pair<std::basic_string<char,std::char_traits<char>,std::allocator<char> > const ,CEterPack *> > > >::~node_constructor<std::allocator<boost::unordered::detail::ptr_node<std::pair<std::basic_string<char,std::char_traits<char>,std::allocator<char> > const ,CEterPack *> > > >
PUBLIC	?create_node@?$node_constructor@V?$allocator@U?$ptr_node@U?$pair@$$CBV?$basic_string@DU?$char_traits@D@std@@V?$allocator@D@2@@std@@PAVCEterPack@@@std@@@detail@unordered@boost@@@std@@@detail@unordered@boost@@QAEXXZ ; boost::unordered::detail::node_constructor<std::allocator<boost::unordered::detail::ptr_node<std::pair<std::basic_string<char,std::char_traits<char>,std::allocator<char> > const ,CEterPack *> > > >::create_node
PUBLIC	??_7exception@std@@6B@				; std::exception::`vftable'
PUBLIC	??_C@_0BC@EOODALEL@Unknown?5exception@		; `string'
PUBLIC	??_7bad_alloc@std@@6B@				; std::bad_alloc::`vftable'
PUBLIC	??_7bad_array_new_length@std@@6B@		; std::bad_array_new_length::`vftable'
PUBLIC	??_C@_0BF@KINCDENJ@bad?5array?5new?5length@	; `string'
PUBLIC	__TI3?AVbad_array_new_length@std@@
PUBLIC	__CTA3?AVbad_array_new_length@std@@
PUBLIC	??_R0?AVbad_array_new_length@std@@@8		; std::bad_array_new_length `RTTI Type Descriptor'
PUBLIC	__CT??_R0?AVbad_array_new_length@std@@@8??0bad_array_new_length@std@@QAE@ABV01@@Z12
PUBLIC	??_R0?AVbad_alloc@std@@@8			; std::bad_alloc `RTTI Type Descriptor'
PUBLIC	__CT??_R0?AVbad_alloc@std@@@8??0bad_alloc@std@@QAE@ABV01@@Z12
PUBLIC	??_R0?AVexception@std@@@8			; std::exception `RTTI Type Descriptor'
PUBLIC	__CT??_R0?AVexception@std@@@8??0exception@std@@QAE@ABV01@@Z12
PUBLIC	??_C@_0BA@JFNIOLAK@string?5too?5long@		; `string'
PUBLIC	??_C@_00CNPNBAHC@@				; `string'
PUBLIC	?value@?$prime_list_template@I@detail@unordered@boost@@2QBIB ; boost::unordered::detail::prime_list_template<unsigned int>::value
PUBLIC	?ms_singleton@?$CSingleton@VCEterPackManager@@@@0PAVCEterPackManager@@A ; CSingleton<CEterPackManager>::ms_singleton
PUBLIC	??_7?$CSingleton@VCEterPackManager@@@@6B@	; CSingleton<CEterPackManager>::`vftable'
PUBLIC	??_7CEterPackManager@@6B@			; CEterPackManager::`vftable'
PUBLIC	??_C@_02DKCKIIND@?$CFs@				; `string'
PUBLIC	??_C@_0BN@HIHPGCNI@?$CFs?3?5Pack?5file?5does?5not?5exist@ ; `string'
PUBLIC	??_C@_0HF@OJFMMEDP@CEterPackManager?3?3RetrieveHybri@ ; `string'
PUBLIC	??_C@_0EE@JEJDAIPD@CEterPackManager?3?3WriteHybridCr@ ; `string'
PUBLIC	??_C@_0O@NKNMEGII@list?5too?5long@		; `string'
PUBLIC	??_R4exception@std@@6B@				; std::exception::`RTTI Complete Object Locator'
PUBLIC	??_R3exception@std@@8				; std::exception::`RTTI Class Hierarchy Descriptor'
PUBLIC	??_R2exception@std@@8				; std::exception::`RTTI Base Class Array'
PUBLIC	??_R1A@?0A@EA@exception@std@@8			; std::exception::`RTTI Base Class Descriptor at (0,-1,0,64)'
PUBLIC	??_R4bad_alloc@std@@6B@				; std::bad_alloc::`RTTI Complete Object Locator'
PUBLIC	??_R3bad_alloc@std@@8				; std::bad_alloc::`RTTI Class Hierarchy Descriptor'
PUBLIC	??_R2bad_alloc@std@@8				; std::bad_alloc::`RTTI Base Class Array'
PUBLIC	??_R1A@?0A@EA@bad_alloc@std@@8			; std::bad_alloc::`RTTI Base Class Descriptor at (0,-1,0,64)'
PUBLIC	??_R4bad_array_new_length@std@@6B@		; std::bad_array_new_length::`RTTI Complete Object Locator'
PUBLIC	??_R3bad_array_new_length@std@@8		; std::bad_array_new_length::`RTTI Class Hierarchy Descriptor'
PUBLIC	??_R2bad_array_new_length@std@@8		; std::bad_array_new_length::`RTTI Base Class Array'
PUBLIC	??_R1A@?0A@EA@bad_array_new_length@std@@8	; std::bad_array_new_length::`RTTI Base Class Descriptor at (0,-1,0,64)'
PUBLIC	??_R4CEterPackManager@@6B@			; CEterPackManager::`RTTI Complete Object Locator'
PUBLIC	??_R0?AVCEterPackManager@@@8			; CEterPackManager `RTTI Type Descriptor'
PUBLIC	??_R3CEterPackManager@@8			; CEterPackManager::`RTTI Class Hierarchy Descriptor'
PUBLIC	??_R2CEterPackManager@@8			; CEterPackManager::`RTTI Base Class Array'
PUBLIC	??_R1A@?0A@EA@CEterPackManager@@8		; CEterPackManager::`RTTI Base Class Descriptor at (0,-1,0,64)'
PUBLIC	??_R1A@?0A@EA@?$CSingleton@VCEterPackManager@@@@8 ; CSingleton<CEterPackManager>::`RTTI Base Class Descriptor at (0,-1,0,64)'
PUBLIC	??_R0?AV?$CSingleton@VCEterPackManager@@@@@8	; CSingleton<CEterPackManager> `RTTI Type Descriptor'
PUBLIC	??_R3?$CSingleton@VCEterPackManager@@@@8	; CSingleton<CEterPackManager>::`RTTI Class Hierarchy Descriptor'
PUBLIC	??_R2?$CSingleton@VCEterPackManager@@@@8	; CSingleton<CEterPackManager>::`RTTI Base Class Array'
PUBLIC	??_R4?$CSingleton@VCEterPackManager@@@@6B@	; CSingleton<CEterPackManager>::`RTTI Complete Object Locator'
PUBLIC	__real@3ff0000000000000
PUBLIC	__real@41efffffffe00000
PUBLIC	__xmm@41f00000000000000000000000000000
EXTRN	??2@YAPAXI@Z:PROC				; operator new
EXTRN	??3@YAXPAXI@Z:PROC				; operator delete
EXTRN	??_U@YAPAXI@Z:PROC				; operator new[]
EXTRN	??_V@YAXPAX@Z:PROC				; operator delete[]
EXTRN	_atexit:PROC
EXTRN	___report_rangecheckfailure:PROC
EXTRN	__Init_thread_header:PROC
EXTRN	__Init_thread_footer:PROC
EXTRN	__invalid_parameter_noinfo_noreturn:PROC
EXTRN	__imp__InitializeCriticalSection@4:PROC
EXTRN	__imp__EnterCriticalSection@4:PROC
EXTRN	__imp__LeaveCriticalSection@4:PROC
EXTRN	__imp__DeleteCriticalSection@4:PROC
EXTRN	___std_exception_copy:PROC
EXTRN	___std_exception_destroy:PROC
EXTRN	??_Eexception@std@@UAEPAXI@Z:PROC		; std::exception::`vector deleting destructor'
EXTRN	??_Ebad_alloc@std@@UAEPAXI@Z:PROC		; std::bad_alloc::`vector deleting destructor'
EXTRN	??_Ebad_array_new_length@std@@UAEPAXI@Z:PROC	; std::bad_array_new_length::`vector deleting destructor'
EXTRN	?_Xlength_error@std@@YAXPBD@Z:PROC		; std::_Xlength_error
EXTRN	?stl_lowers@@YAXAAV?$basic_string@DU?$char_traits@D@std@@V?$allocator@D@2@@std@@@Z:PROC ; stl_lowers
EXTRN	??0CFileBase@@QAE@XZ:PROC			; CFileBase::CFileBase
EXTRN	??1CFileBase@@UAE@XZ:PROC			; CFileBase::~CFileBase
EXTRN	?Close@CFileBase@@QAEXXZ:PROC			; CFileBase::Close
EXTRN	?Create@CFileBase@@QAEHPBDW4EFileMode@1@@Z:PROC	; CFileBase::Create
EXTRN	?SeekCur@CFileBase@@QAEXK@Z:PROC		; CFileBase::SeekCur
EXTRN	?Seek@CFileBase@@QAEXK@Z:PROC			; CFileBase::Seek
EXTRN	?GetPosition@CFileBase@@QAEKXZ:PROC		; CFileBase::GetPosition
EXTRN	?Write@CFileBase@@UAEHPBXH@Z:PROC		; CFileBase::Write
EXTRN	??0CMappedFile@@QAE@XZ:PROC			; CMappedFile::CMappedFile
EXTRN	??1CMappedFile@@UAE@XZ:PROC			; CMappedFile::~CMappedFile
EXTRN	?Link@CMappedFile@@QAEXKPBX@Z:PROC		; CMappedFile::Link
EXTRN	?Create@CMappedFile@@QAEHPBDPAPBXHH@Z:PROC	; CMappedFile::Create
EXTRN	?Size@CMappedFile@@QAEKXZ:PROC			; CMappedFile::Size
EXTRN	?GetItem@CEterFileDict@@QAEPAUItem@1@KPBD@Z:PROC ; CEterFileDict::GetItem
EXTRN	??0CEterPack@@QAE@XZ:PROC			; CEterPack::CEterPack
EXTRN	??1CEterPack@@UAE@XZ:PROC			; CEterPack::~CEterPack
EXTRN	?Create@CEterPack@@QAE_NAAVCEterFileDict@@PBD1_NPBE@Z:PROC ; CEterPack::Create
EXTRN	?DecryptIV@CEterPack@@QAE_NK@Z:PROC		; CEterPack::DecryptIV
EXTRN	?GetDBName@CEterPack@@QAEPBDXZ:PROC		; CEterPack::GetDBName
EXTRN	?Get@CEterPack@@QAE_NAAVCMappedFile@@PBDPAPBX@Z:PROC ; CEterPack::Get
EXTRN	?Get2@CEterPack@@QAE_NAAVCMappedFile@@PBDPAUSEterPackIndex@@PAPBX@Z:PROC ; CEterPack::Get2
EXTRN	?IsExist@CEterPack@@QAE_NPBD@Z:PROC		; CEterPack::IsExist
EXTRN	?GetPackPolicy_HybridCrypt@CEterPack@@QBEPAVEterPackPolicy_CSHybridCrypt@@XZ:PROC ; CEterPack::GetPackPolicy_HybridCrypt
EXTRN	?GetSingleton@CMakePackLog@@SAAAV1@XZ:PROC	; CMakePackLog::GetSingleton
EXTRN	?Writef@CMakePackLog@@QAAXPBDZZ:PROC		; CMakePackLog::Writef
EXTRN	??_E?$CSingleton@VCEterPackManager@@@@UAEPAXI@Z:PROC ; CSingleton<CEterPackManager>::`vector deleting destructor'
EXTRN	??_ECEterPackManager@@UAEPAXI@Z:PROC		; CEterPackManager::`vector deleting destructor'
EXTRN	?IsContainingCryptKey@EterPackPolicy_CSHybridCrypt@@QBE_NXZ:PROC ; EterPackPolicy_CSHybridCrypt::IsContainingCryptKey
EXTRN	?IsContainingSDBFile@EterPackPolicy_CSHybridCrypt@@QBE_NXZ:PROC ; EterPackPolicy_CSHybridCrypt::IsContainingSDBFile
EXTRN	?WriteCryptKeyToFile@EterPackPolicy_CSHybridCrypt@@QAEXAAVCFileBase@@@Z:PROC ; EterPackPolicy_CSHybridCrypt::WriteCryptKeyToFile
EXTRN	?ReadCryptKeyInfoFromStream@EterPackPolicy_CSHybridCrypt@@QAEHPBE@Z:PROC ; EterPackPolicy_CSHybridCrypt::ReadCryptKeyInfoFromStream
EXTRN	?WriteSupplementaryDataBlockToFile@EterPackPolicy_CSHybridCrypt@@QAEXAAVCFileBase@@@Z:PROC ; EterPackPolicy_CSHybridCrypt::WriteSupplementaryDataBlockToFile
EXTRN	?ReadSupplementatyDataBlockFromStream@EterPackPolicy_CSHybridCrypt@@QAEHPBE@Z:PROC ; EterPackPolicy_CSHybridCrypt::ReadSupplementatyDataBlockFromStream
EXTRN	?TraceError@@YAXPBDZZ:PROC			; TraceError
EXTRN	?GetCRC32@@YAKPBDI@Z:PROC			; GetCRC32
EXTRN	@__security_check_cookie@4:PROC
EXTRN	__CxxThrowException@8:PROC
EXTRN	___CxxFrameHandler3:PROC
EXTRN	__dtoui3:PROC
EXTRN	_ceil:PROC
EXTRN	_floor:PROC
EXTRN	_memcpy:PROC
EXTRN	_memmove:PROC
EXTRN	__Init_thread_epoch:DWORD
EXTRN	??_7type_info@@6B@:QWORD			; type_info::`vftable'
EXTRN	___security_cookie:DWORD
EXTRN	__fltused:DWORD
EXTRN	__tls_array:DWORD
EXTRN	__tls_index:DWORD
;	COMDAT ?ms_singleton@?$CSingleton@VCEterPackManager@@@@0PAVCEterPackManager@@A
_BSS	SEGMENT
?ms_singleton@?$CSingleton@VCEterPackManager@@@@0PAVCEterPackManager@@A DD 01H DUP (?) ; CSingleton<CEterPackManager>::ms_singleton
_BSS	ENDS
;	COMDAT ?$TSS0@?1??GetFromPack@CEterPackManager@@QAE_NAAVCMappedFile@@PBDPAPBX@Z@4HA
_BSS	SEGMENT
?$TSS0@?1??GetFromPack@CEterPackManager@@QAE_NAAVCMappedFile@@PBDPAPBX@Z@4HA DD 01H DUP (?) ; `CEterPackManager::GetFromPack'::`2'::$TSS0
_BSS	ENDS
;	COMDAT __xmm@41f00000000000000000000000000000
CONST	SEGMENT
__xmm@41f00000000000000000000000000000 DB 00H, 00H, 00H, 00H, 00H, 00H, 00H
	DB	00H, 00H, 00H, 00H, 00H, 00H, 00H, 0f0H, 'A'
CONST	ENDS
;	COMDAT __real@41efffffffe00000
CONST	SEGMENT
__real@41efffffffe00000 DQ 041efffffffe00000r	; 4.29497e+09
CONST	ENDS
;	COMDAT __real@3ff0000000000000
CONST	SEGMENT
__real@3ff0000000000000 DQ 03ff0000000000000r	; 1
CONST	ENDS
;	COMDAT ??_R4?$CSingleton@VCEterPackManager@@@@6B@
rdata$r	SEGMENT
??_R4?$CSingleton@VCEterPackManager@@@@6B@ DD 00H	; CSingleton<CEterPackManager>::`RTTI Complete Object Locator'
	DD	00H
	DD	00H
	DD	FLAT:??_R0?AV?$CSingleton@VCEterPackManager@@@@@8
	DD	FLAT:??_R3?$CSingleton@VCEterPackManager@@@@8
rdata$r	ENDS
;	COMDAT ??_R2?$CSingleton@VCEterPackManager@@@@8
rdata$r	SEGMENT
??_R2?$CSingleton@VCEterPackManager@@@@8 DD FLAT:??_R1A@?0A@EA@?$CSingleton@VCEterPackManager@@@@8 ; CSingleton<CEterPackManager>::`RTTI Base Class Array'
rdata$r	ENDS
;	COMDAT ??_R3?$CSingleton@VCEterPackManager@@@@8
rdata$r	SEGMENT
??_R3?$CSingleton@VCEterPackManager@@@@8 DD 00H		; CSingleton<CEterPackManager>::`RTTI Class Hierarchy Descriptor'
	DD	00H
	DD	01H
	DD	FLAT:??_R2?$CSingleton@VCEterPackManager@@@@8
rdata$r	ENDS
;	COMDAT ??_R0?AV?$CSingleton@VCEterPackManager@@@@@8
data$rs	SEGMENT
??_R0?AV?$CSingleton@VCEterPackManager@@@@@8 DD FLAT:??_7type_info@@6B@ ; CSingleton<CEterPackManager> `RTTI Type Descriptor'
	DD	00H
	DB	'.?AV?$CSingleton@VCEterPackManager@@@@', 00H
data$rs	ENDS
;	COMDAT ??_R1A@?0A@EA@?$CSingleton@VCEterPackManager@@@@8
rdata$r	SEGMENT
??_R1A@?0A@EA@?$CSingleton@VCEterPackManager@@@@8 DD FLAT:??_R0?AV?$CSingleton@VCEterPackManager@@@@@8 ; CSingleton<CEterPackManager>::`RTTI Base Class Descriptor at (0,-1,0,64)'
	DD	00H
	DD	00H
	DD	0ffffffffH
	DD	00H
	DD	040H
	DD	FLAT:??_R3?$CSingleton@VCEterPackManager@@@@8
rdata$r	ENDS
;	COMDAT ??_R1A@?0A@EA@CEterPackManager@@8
rdata$r	SEGMENT
??_R1A@?0A@EA@CEterPackManager@@8 DD FLAT:??_R0?AVCEterPackManager@@@8 ; CEterPackManager::`RTTI Base Class Descriptor at (0,-1,0,64)'
	DD	01H
	DD	00H
	DD	0ffffffffH
	DD	00H
	DD	040H
	DD	FLAT:??_R3CEterPackManager@@8
rdata$r	ENDS
;	COMDAT ??_R2CEterPackManager@@8
rdata$r	SEGMENT
??_R2CEterPackManager@@8 DD FLAT:??_R1A@?0A@EA@CEterPackManager@@8 ; CEterPackManager::`RTTI Base Class Array'
	DD	FLAT:??_R1A@?0A@EA@?$CSingleton@VCEterPackManager@@@@8
rdata$r	ENDS
;	COMDAT ??_R3CEterPackManager@@8
rdata$r	SEGMENT
??_R3CEterPackManager@@8 DD 00H				; CEterPackManager::`RTTI Class Hierarchy Descriptor'
	DD	00H
	DD	02H
	DD	FLAT:??_R2CEterPackManager@@8
rdata$r	ENDS
;	COMDAT ??_R0?AVCEterPackManager@@@8
data$rs	SEGMENT
??_R0?AVCEterPackManager@@@8 DD FLAT:??_7type_info@@6B@	; CEterPackManager `RTTI Type Descriptor'
	DD	00H
	DB	'.?AVCEterPackManager@@', 00H
data$rs	ENDS
;	COMDAT ??_R4CEterPackManager@@6B@
rdata$r	SEGMENT
??_R4CEterPackManager@@6B@ DD 00H			; CEterPackManager::`RTTI Complete Object Locator'
	DD	00H
	DD	00H
	DD	FLAT:??_R0?AVCEterPackManager@@@8
	DD	FLAT:??_R3CEterPackManager@@8
rdata$r	ENDS
;	COMDAT ??_R1A@?0A@EA@bad_array_new_length@std@@8
rdata$r	SEGMENT
??_R1A@?0A@EA@bad_array_new_length@std@@8 DD FLAT:??_R0?AVbad_array_new_length@std@@@8 ; std::bad_array_new_length::`RTTI Base Class Descriptor at (0,-1,0,64)'
	DD	02H
	DD	00H
	DD	0ffffffffH
	DD	00H
	DD	040H
	DD	FLAT:??_R3bad_array_new_length@std@@8
rdata$r	ENDS
;	COMDAT ??_R2bad_array_new_length@std@@8
rdata$r	SEGMENT
??_R2bad_array_new_length@std@@8 DD FLAT:??_R1A@?0A@EA@bad_array_new_length@std@@8 ; std::bad_array_new_length::`RTTI Base Class Array'
	DD	FLAT:??_R1A@?0A@EA@bad_alloc@std@@8
	DD	FLAT:??_R1A@?0A@EA@exception@std@@8
rdata$r	ENDS
;	COMDAT ??_R3bad_array_new_length@std@@8
rdata$r	SEGMENT
??_R3bad_array_new_length@std@@8 DD 00H			; std::bad_array_new_length::`RTTI Class Hierarchy Descriptor'
	DD	00H
	DD	03H
	DD	FLAT:??_R2bad_array_new_length@std@@8
rdata$r	ENDS
;	COMDAT ??_R4bad_array_new_length@std@@6B@
rdata$r	SEGMENT
??_R4bad_array_new_length@std@@6B@ DD 00H		; std::bad_array_new_length::`RTTI Complete Object Locator'
	DD	00H
	DD	00H
	DD	FLAT:??_R0?AVbad_array_new_length@std@@@8
	DD	FLAT:??_R3bad_array_new_length@std@@8
rdata$r	ENDS
;	COMDAT ??_R1A@?0A@EA@bad_alloc@std@@8
rdata$r	SEGMENT
??_R1A@?0A@EA@bad_alloc@std@@8 DD FLAT:??_R0?AVbad_alloc@std@@@8 ; std::bad_alloc::`RTTI Base Class Descriptor at (0,-1,0,64)'
	DD	01H
	DD	00H
	DD	0ffffffffH
	DD	00H
	DD	040H
	DD	FLAT:??_R3bad_alloc@std@@8
rdata$r	ENDS
;	COMDAT ??_R2bad_alloc@std@@8
rdata$r	SEGMENT
??_R2bad_alloc@std@@8 DD FLAT:??_R1A@?0A@EA@bad_alloc@std@@8 ; std::bad_alloc::`RTTI Base Class Array'
	DD	FLAT:??_R1A@?0A@EA@exception@std@@8
rdata$r	ENDS
;	COMDAT ??_R3bad_alloc@std@@8
rdata$r	SEGMENT
??_R3bad_alloc@std@@8 DD 00H				; std::bad_alloc::`RTTI Class Hierarchy Descriptor'
	DD	00H
	DD	02H
	DD	FLAT:??_R2bad_alloc@std@@8
rdata$r	ENDS
;	COMDAT ??_R4bad_alloc@std@@6B@
rdata$r	SEGMENT
??_R4bad_alloc@std@@6B@ DD 00H				; std::bad_alloc::`RTTI Complete Object Locator'
	DD	00H
	DD	00H
	DD	FLAT:??_R0?AVbad_alloc@std@@@8
	DD	FLAT:??_R3bad_alloc@std@@8
rdata$r	ENDS
;	COMDAT ??_R1A@?0A@EA@exception@std@@8
rdata$r	SEGMENT
??_R1A@?0A@EA@exception@std@@8 DD FLAT:??_R0?AVexception@std@@@8 ; std::exception::`RTTI Base Class Descriptor at (0,-1,0,64)'
	DD	00H
	DD	00H
	DD	0ffffffffH
	DD	00H
	DD	040H
	DD	FLAT:??_R3exception@std@@8
rdata$r	ENDS
;	COMDAT ??_R2exception@std@@8
rdata$r	SEGMENT
??_R2exception@std@@8 DD FLAT:??_R1A@?0A@EA@exception@std@@8 ; std::exception::`RTTI Base Class Array'
rdata$r	ENDS
;	COMDAT ??_R3exception@std@@8
rdata$r	SEGMENT
??_R3exception@std@@8 DD 00H				; std::exception::`RTTI Class Hierarchy Descriptor'
	DD	00H
	DD	01H
	DD	FLAT:??_R2exception@std@@8
rdata$r	ENDS
;	COMDAT ??_R4exception@std@@6B@
rdata$r	SEGMENT
??_R4exception@std@@6B@ DD 00H				; std::exception::`RTTI Complete Object Locator'
	DD	00H
	DD	00H
	DD	FLAT:??_R0?AVexception@std@@@8
	DD	FLAT:??_R3exception@std@@8
rdata$r	ENDS
;	COMDAT ??_C@_0O@NKNMEGII@list?5too?5long@
CONST	SEGMENT
??_C@_0O@NKNMEGII@list?5too?5long@ DB 'list too long', 00H ; `string'
CONST	ENDS
;	COMDAT ??_C@_0EE@JEJDAIPD@CEterPackManager?3?3WriteHybridCr@
CONST	SEGMENT
??_C@_0EE@JEJDAIPD@CEterPackManager?3?3WriteHybridCr@ DB 'CEterPackManage'
	DB	'r::WriteHybridCryptPackInfo PackName : %s, Hash : %x', 00H ; `string'
CONST	ENDS
;	COMDAT ??_C@_0HF@OJFMMEDP@CEterPackManager?3?3RetrieveHybri@
CONST	SEGMENT
??_C@_0HF@OJFMMEDP@CEterPackManager?3?3RetrieveHybri@ DB 'CEterPackManage'
	DB	'r::RetrieveHybridCryptPackKeys', 09H, 'cryptokey length of fi'
	DB	'le(%s) is not matched. received(%d) != haved(%d)', 00H ; `string'
CONST	ENDS
;	COMDAT ??_C@_0BN@HIHPGCNI@?$CFs?3?5Pack?5file?5does?5not?5exist@
CONST	SEGMENT
??_C@_0BN@HIHPGCNI@?$CFs?3?5Pack?5file?5does?5not?5exist@ DB '%s: Pack fi'
	DB	'le does not exist', 00H			; `string'
CONST	ENDS
;	COMDAT ?strFileName@?1??GetFromPack@CEterPackManager@@QAE_NAAVCMappedFile@@PBDPAPBX@Z@4V?$basic_string@DU?$char_traits@D@std@@V?$allocator@D@2@@std@@A
_DATA	SEGMENT
?strFileName@?1??GetFromPack@CEterPackManager@@QAE_NAAVCMappedFile@@PBDPAPBX@Z@4V?$basic_string@DU?$char_traits@D@std@@V?$allocator@D@2@@std@@A DB 014H DUP (?)
	DD	0fH					; `CEterPackManager::GetFromPack'::`2'::strFileName
_DATA	ENDS
;	COMDAT ??_C@_02DKCKIIND@?$CFs@
CONST	SEGMENT
??_C@_02DKCKIIND@?$CFs@ DB '%s', 00H			; `string'
CONST	ENDS
;	COMDAT ??_7CEterPackManager@@6B@
CONST	SEGMENT
??_7CEterPackManager@@6B@ DD FLAT:??_R4CEterPackManager@@6B@ ; CEterPackManager::`vftable'
	DD	FLAT:??_ECEterPackManager@@UAEPAXI@Z
CONST	ENDS
;	COMDAT ??_7?$CSingleton@VCEterPackManager@@@@6B@
CONST	SEGMENT
??_7?$CSingleton@VCEterPackManager@@@@6B@ DD FLAT:??_R4?$CSingleton@VCEterPackManager@@@@6B@ ; CSingleton<CEterPackManager>::`vftable'
	DD	FLAT:??_E?$CSingleton@VCEterPackManager@@@@UAEPAXI@Z
CONST	ENDS
;	COMDAT ?value@?$prime_list_template@I@detail@unordered@boost@@2QBIB
CONST	SEGMENT
?value@?$prime_list_template@I@detail@unordered@boost@@2QBIB DD 011H ; boost::unordered::detail::prime_list_template<unsigned int>::value
	DD	01dH
	DD	025H
	DD	035H
	DD	043H
	DD	04fH
	DD	061H
	DD	083H
	DD	0c1H
	DD	0101H
	DD	0185H
	DD	0209H
	DD	0301H
	DD	0407H
	DD	0607H
	DD	0805H
	DD	0c07H
	DD	01807H
	DD	03001H
	DD	06011H
	DD	0c005H
	DD	01800dH
	DD	030005H
	DD	060019H
	DD	0c0001H
	DD	0180005H
	DD	030000bH
	DD	060000dH
	DD	0c00005H
	DD	01800013H
	DD	03000005H
	DD	06000017H
	DD	0c000013H
	DD	018000005H
	DD	030000059H
	DD	060000005H
	DD	0c0000001H
	DD	0fffffffbH
CONST	ENDS
;	COMDAT ??_C@_00CNPNBAHC@@
CONST	SEGMENT
??_C@_00CNPNBAHC@@ DB 00H				; `string'
CONST	ENDS
;	COMDAT ??_C@_0BA@JFNIOLAK@string?5too?5long@
CONST	SEGMENT
??_C@_0BA@JFNIOLAK@string?5too?5long@ DB 'string too long', 00H ; `string'
CONST	ENDS
;	COMDAT __CT??_R0?AVexception@std@@@8??0exception@std@@QAE@ABV01@@Z12
xdata$x	SEGMENT
__CT??_R0?AVexception@std@@@8??0exception@std@@QAE@ABV01@@Z12 DD 00H
	DD	FLAT:??_R0?AVexception@std@@@8
	DD	00H
	DD	0ffffffffH
	ORG $+4
	DD	0cH
	DD	FLAT:??0exception@std@@QAE@ABV01@@Z
xdata$x	ENDS
;	COMDAT ??_R0?AVexception@std@@@8
data$r	SEGMENT
??_R0?AVexception@std@@@8 DD FLAT:??_7type_info@@6B@	; std::exception `RTTI Type Descriptor'
	DD	00H
	DB	'.?AVexception@std@@', 00H
data$r	ENDS
;	COMDAT __CT??_R0?AVbad_alloc@std@@@8??0bad_alloc@std@@QAE@ABV01@@Z12
xdata$x	SEGMENT
__CT??_R0?AVbad_alloc@std@@@8??0bad_alloc@std@@QAE@ABV01@@Z12 DD 010H
	DD	FLAT:??_R0?AVbad_alloc@std@@@8
	DD	00H
	DD	0ffffffffH
	ORG $+4
	DD	0cH
	DD	FLAT:??0bad_alloc@std@@QAE@ABV01@@Z
xdata$x	ENDS
;	COMDAT ??_R0?AVbad_alloc@std@@@8
data$r	SEGMENT
??_R0?AVbad_alloc@std@@@8 DD FLAT:??_7type_info@@6B@	; std::bad_alloc `RTTI Type Descriptor'
	DD	00H
	DB	'.?AVbad_alloc@std@@', 00H
data$r	ENDS
;	COMDAT __CT??_R0?AVbad_array_new_length@std@@@8??0bad_array_new_length@std@@QAE@ABV01@@Z12
xdata$x	SEGMENT
__CT??_R0?AVbad_array_new_length@std@@@8??0bad_array_new_length@std@@QAE@ABV01@@Z12 DD 00H
	DD	FLAT:??_R0?AVbad_array_new_length@std@@@8
	DD	00H
	DD	0ffffffffH
	ORG $+4
	DD	0cH
	DD	FLAT:??0bad_array_new_length@std@@QAE@ABV01@@Z
xdata$x	ENDS
;	COMDAT ??_R0?AVbad_array_new_length@std@@@8
data$r	SEGMENT
??_R0?AVbad_array_new_length@std@@@8 DD FLAT:??_7type_info@@6B@ ; std::bad_array_new_length `RTTI Type Descriptor'
	DD	00H
	DB	'.?AVbad_array_new_length@std@@', 00H
data$r	ENDS
;	COMDAT __CTA3?AVbad_array_new_length@std@@
xdata$x	SEGMENT
__CTA3?AVbad_array_new_length@std@@ DD 03H
	DD	FLAT:__CT??_R0?AVbad_array_new_length@std@@@8??0bad_array_new_length@std@@QAE@ABV01@@Z12
	DD	FLAT:__CT??_R0?AVbad_alloc@std@@@8??0bad_alloc@std@@QAE@ABV01@@Z12
	DD	FLAT:__CT??_R0?AVexception@std@@@8??0exception@std@@QAE@ABV01@@Z12
xdata$x	ENDS
;	COMDAT __TI3?AVbad_array_new_length@std@@
xdata$x	SEGMENT
__TI3?AVbad_array_new_length@std@@ DD 00H
	DD	FLAT:??1bad_array_new_length@std@@UAE@XZ
	DD	00H
	DD	FLAT:__CTA3?AVbad_array_new_length@std@@
xdata$x	ENDS
;	COMDAT ??_C@_0BF@KINCDENJ@bad?5array?5new?5length@
CONST	SEGMENT
??_C@_0BF@KINCDENJ@bad?5array?5new?5length@ DB 'bad array new length', 00H ; `string'
CONST	ENDS
;	COMDAT ??_7bad_array_new_length@std@@6B@
CONST	SEGMENT
??_7bad_array_new_length@std@@6B@ DD FLAT:??_R4bad_array_new_length@std@@6B@ ; std::bad_array_new_length::`vftable'
	DD	FLAT:??_Ebad_array_new_length@std@@UAEPAXI@Z
	DD	FLAT:?what@exception@std@@UBEPBDXZ
CONST	ENDS
;	COMDAT ??_7bad_alloc@std@@6B@
CONST	SEGMENT
??_7bad_alloc@std@@6B@ DD FLAT:??_R4bad_alloc@std@@6B@	; std::bad_alloc::`vftable'
	DD	FLAT:??_Ebad_alloc@std@@UAEPAXI@Z
	DD	FLAT:?what@exception@std@@UBEPBDXZ
CONST	ENDS
;	COMDAT ??_C@_0BC@EOODALEL@Unknown?5exception@
CONST	SEGMENT
??_C@_0BC@EOODALEL@Unknown?5exception@ DB 'Unknown exception', 00H ; `string'
CONST	ENDS
;	COMDAT ??_7exception@std@@6B@
CONST	SEGMENT
??_7exception@std@@6B@ DD FLAT:??_R4exception@std@@6B@	; std::exception::`vftable'
	DD	FLAT:??_Eexception@std@@UAEPAXI@Z
	DD	FLAT:?what@exception@std@@UBEPBDXZ
CONST	ENDS
;	COMDAT xdata$x
xdata$x	SEGMENT
__unwindtable$??$construct_node_from_args@V?$allocator@U?$ptr_node@U?$pair@$$CBV?$basic_string@DU?$char_traits@D@std@@V?$allocator@D@2@@std@@PAVCEterPack@@@std@@@detail@unordered@boost@@@std@@U?$pair@$$CBV?$basic_string@DU?$char_traits@D@std@@V?$allocator@D@2@@std@@PAVCEterPack@@@2@@func@detail@unordered@boost@@YAPAU?$ptr_node@U?$pair@$$CBV?$basic_string@DU?$char_traits@D@std@@V?$allocator@D@2@@std@@PAVCEterPack@@@std@@@123@AAV?$allocator@U?$ptr_node@U?$pair@$$CBV?$basic_string@DU?$char_traits@D@std@@V?$allocator@D@2@@std@@PAVCEterPack@@@std@@@detail@unordered@boost@@@std@@$$QAU?$pair@$$CBV?$basic_string@DU?$char_traits@D@std@@V?$allocator@D@2@@std@@PAVCEterPack@@@6@@Z DD 0ffffffffH
	DD	FLAT:__unwindfunclet$??$construct_node_from_args@V?$allocator@U?$ptr_node@U?$pair@$$CBV?$basic_string@DU?$char_traits@D@std@@V?$allocator@D@2@@std@@PAVCEterPack@@@std@@@detail@unordered@boost@@@std@@U?$pair@$$CBV?$basic_string@DU?$char_traits@D@std@@V?$allocator@D@2@@std@@PAVCEterPack@@@2@@func@detail@unordered@boost@@YAPAU?$ptr_node@U?$pair@$$CBV?$basic_string@DU?$char_traits@D@std@@V?$allocator@D@2@@std@@PAVCEterPack@@@std@@@123@AAV?$allocator@U?$ptr_node@U?$pair@$$CBV?$basic_string@DU?$char_traits@D@std@@V?$allocator@D@2@@std@@PAVCEterPack@@@std@@@detail@unordered@boost@@@std@@$$QAU?$pair@$$CBV?$basic_string@DU?$char_traits@D@std@@V?$allocator@D@2@@std@@PAVCEterPack@@@6@@Z$0
__ehfuncinfo$??$construct_node_from_args@V?$allocator@U?$ptr_node@U?$pair@$$CBV?$basic_string@DU?$char_traits@D@std@@V?$allocator@D@2@@std@@PAVCEterPack@@@std@@@detail@unordered@boost@@@std@@U?$pair@$$CBV?$basic_string@DU?$char_traits@D@std@@V?$allocator@D@2@@std@@PAVCEterPack@@@2@@func@detail@unordered@boost@@YAPAU?$ptr_node@U?$pair@$$CBV?$basic_string@DU?$char_traits@D@std@@V?$allocator@D@2@@std@@PAVCEterPack@@@std@@@123@AAV?$allocator@U?$ptr_node@U?$pair@$$CBV?$basic_string@DU?$char_traits@D@std@@V?$allocator@D@2@@std@@PAVCEterPack@@@std@@@detail@unordered@boost@@@std@@$$QAU?$pair@$$CBV?$basic_string@DU?$char_traits@D@std@@V?$allocator@D@2@@std@@PAVCEterPack@@@6@@Z DD 019930522H
	DD	01H
	DD	FLAT:__unwindtable$??$construct_node_from_args@V?$allocator@U?$ptr_node@U?$pair@$$CBV?$basic_string@DU?$char_traits@D@std@@V?$allocator@D@2@@std@@PAVCEterPack@@@std@@@detail@unordered@boost@@@std@@U?$pair@$$CBV?$basic_string@DU?$char_traits@D@std@@V?$allocator@D@2@@std@@PAVCEterPack@@@2@@func@detail@unordered@boost@@YAPAU?$ptr_node@U?$pair@$$CBV?$basic_string@DU?$char_traits@D@std@@V?$allocator@D@2@@std@@PAVCEterPack@@@std@@@123@AAV?$allocator@U?$ptr_node@U?$pair@$$CBV?$basic_string@DU?$char_traits@D@std@@V?$allocator@D@2@@std@@PAVCEterPack@@@std@@@detail@unordered@boost@@@std@@$$QAU?$pair@$$CBV?$basic_string@DU?$char_traits@D@std@@V?$allocator@D@2@@std@@PAVCEterPack@@@6@@Z
	DD	2 DUP(00H)
	DD	2 DUP(00H)
	DD	00H
	DD	01H
xdata$x	ENDS
;	COMDAT xdata$x
xdata$x	SEGMENT
__unwindtable$??$construct_node_from_args@V?$allocator@U?$ptr_node@U?$pair@$$CBKUSCache@CEterPackManager@@@std@@@detail@unordered@boost@@@std@@U?$pair@$$CBKUSCache@CEterPackManager@@@2@@func@detail@unordered@boost@@YAPAU?$ptr_node@U?$pair@$$CBKUSCache@CEterPackManager@@@std@@@123@AAV?$allocator@U?$ptr_node@U?$pair@$$CBKUSCache@CEterPackManager@@@std@@@detail@unordered@boost@@@std@@$$QAU?$pair@$$CBKUSCache@CEterPackManager@@@6@@Z DD 0ffffffffH
	DD	FLAT:__unwindfunclet$??$construct_node_from_args@V?$allocator@U?$ptr_node@U?$pair@$$CBKUSCache@CEterPackManager@@@std@@@detail@unordered@boost@@@std@@U?$pair@$$CBKUSCache@CEterPackManager@@@2@@func@detail@unordered@boost@@YAPAU?$ptr_node@U?$pair@$$CBKUSCache@CEterPackManager@@@std@@@123@AAV?$allocator@U?$ptr_node@U?$pair@$$CBKUSCache@CEterPackManager@@@std@@@detail@unordered@boost@@@std@@$$QAU?$pair@$$CBKUSCache@CEterPackManager@@@6@@Z$0
__ehfuncinfo$??$construct_node_from_args@V?$allocator@U?$ptr_node@U?$pair@$$CBKUSCache@CEterPackManager@@@std@@@detail@unordered@boost@@@std@@U?$pair@$$CBKUSCache@CEterPackManager@@@2@@func@detail@unordered@boost@@YAPAU?$ptr_node@U?$pair@$$CBKUSCache@CEterPackManager@@@std@@@123@AAV?$allocator@U?$ptr_node@U?$pair@$$CBKUSCache@CEterPackManager@@@std@@@detail@unordered@boost@@@std@@$$QAU?$pair@$$CBKUSCache@CEterPackManager@@@6@@Z DD 019930522H
	DD	01H
	DD	FLAT:__unwindtable$??$construct_node_from_args@V?$allocator@U?$ptr_node@U?$pair@$$CBKUSCache@CEterPackManager@@@std@@@detail@unordered@boost@@@std@@U?$pair@$$CBKUSCache@CEterPackManager@@@2@@func@detail@unordered@boost@@YAPAU?$ptr_node@U?$pair@$$CBKUSCache@CEterPackManager@@@std@@@123@AAV?$allocator@U?$ptr_node@U?$pair@$$CBKUSCache@CEterPackManager@@@std@@@detail@unordered@boost@@@std@@$$QAU?$pair@$$CBKUSCache@CEterPackManager@@@6@@Z
	DD	2 DUP(00H)
	DD	2 DUP(00H)
	DD	00H
	DD	01H
xdata$x	ENDS
;	COMDAT xdata$x
xdata$x	SEGMENT
__unwindtable$??$?0ABQAVCEterPack@@@?$_List_node_emplace_op2@V?$allocator@U?$_List_node@PAVCEterPack@@PAX@std@@@std@@@std@@QAE@AAV?$allocator@U?$_List_node@PAVCEterPack@@PAX@std@@@1@ABQAVCEterPack@@@Z DD 0ffffffffH
	DD	FLAT:__unwindfunclet$??$?0ABQAVCEterPack@@@?$_List_node_emplace_op2@V?$allocator@U?$_List_node@PAVCEterPack@@PAX@std@@@std@@@std@@QAE@AAV?$allocator@U?$_List_node@PAVCEterPack@@PAX@std@@@1@ABQAVCEterPack@@@Z$0
__ehfuncinfo$??$?0ABQAVCEterPack@@@?$_List_node_emplace_op2@V?$allocator@U?$_List_node@PAVCEterPack@@PAX@std@@@std@@@std@@QAE@AAV?$allocator@U?$_List_node@PAVCEterPack@@PAX@std@@@1@ABQAVCEterPack@@@Z DD 019930522H
	DD	01H
	DD	FLAT:__unwindtable$??$?0ABQAVCEterPack@@@?$_List_node_emplace_op2@V?$allocator@U?$_List_node@PAVCEterPack@@PAX@std@@@std@@@std@@QAE@AAV?$allocator@U?$_List_node@PAVCEterPack@@PAX@std@@@1@ABQAVCEterPack@@@Z
	DD	2 DUP(00H)
	DD	2 DUP(00H)
	DD	00H
	DD	01H
xdata$x	ENDS
;	COMDAT xdata$x
xdata$x	SEGMENT
__unwindtable$??$emplace_unique@U?$pair@$$CBV?$basic_string@DU?$char_traits@D@std@@V?$allocator@D@2@@std@@PAVCEterPack@@@std@@@?$table@U?$map@V?$allocator@U?$pair@$$CBV?$basic_string@DU?$char_traits@D@std@@V?$allocator@D@2@@std@@PAVCEterPack@@@std@@@std@@V?$basic_string@DU?$char_traits@D@std@@V?$allocator@D@2@@2@PAVCEterPack@@Ustringhash@@U?$equal_to@V?$basic_string@DU?$char_traits@D@std@@V?$allocator@D@2@@std@@@2@@detail@unordered@boost@@@detail@unordered@boost@@QAE?AU?$pair@U?$iterator@U?$ptr_node@U?$pair@$$CBV?$basic_string@DU?$char_traits@D@std@@V?$allocator@D@2@@std@@PAVCEterPack@@@std@@@detail@unordered@boost@@@iterator_detail@unordered@boost@@_N@std@@ABV?$basic_string@DU?$char_traits@D@std@@V?$allocator@D@2@@5@$$QAU?$pair@$$CBV?$basic_string@DU?$char_traits@D@std@@V?$allocator@D@2@@std@@PAVCEterPack@@@5@@Z DD 0ffffffffH
	DD	FLAT:__unwindfunclet$??$emplace_unique@U?$pair@$$CBV?$basic_string@DU?$char_traits@D@std@@V?$allocator@D@2@@std@@PAVCEterPack@@@std@@@?$table@U?$map@V?$allocator@U?$pair@$$CBV?$basic_string@DU?$char_traits@D@std@@V?$allocator@D@2@@std@@PAVCEterPack@@@std@@@std@@V?$basic_string@DU?$char_traits@D@std@@V?$allocator@D@2@@2@PAVCEterPack@@Ustringhash@@U?$equal_to@V?$basic_string@DU?$char_traits@D@std@@V?$allocator@D@2@@std@@@2@@detail@unordered@boost@@@detail@unordered@boost@@QAE?AU?$pair@U?$iterator@U?$ptr_node@U?$pair@$$CBV?$basic_string@DU?$char_traits@D@std@@V?$allocator@D@2@@std@@PAVCEterPack@@@std@@@detail@unordered@boost@@@iterator_detail@unordered@boost@@_N@std@@ABV?$basic_string@DU?$char_traits@D@std@@V?$allocator@D@2@@5@$$QAU?$pair@$$CBV?$basic_string@DU?$char_traits@D@std@@V?$allocator@D@2@@std@@PAVCEterPack@@@5@@Z$0
	DD	0ffffffffH
	DD	FLAT:__unwindfunclet$??$emplace_unique@U?$pair@$$CBV?$basic_string@DU?$char_traits@D@std@@V?$allocator@D@2@@std@@PAVCEterPack@@@std@@@?$table@U?$map@V?$allocator@U?$pair@$$CBV?$basic_string@DU?$char_traits@D@std@@V?$allocator@D@2@@std@@PAVCEterPack@@@std@@@std@@V?$basic_string@DU?$char_traits@D@std@@V?$allocator@D@2@@2@PAVCEterPack@@Ustringhash@@U?$equal_to@V?$basic_string@DU?$char_traits@D@std@@V?$allocator@D@2@@std@@@2@@detail@unordered@boost@@@detail@unordered@boost@@QAE?AU?$pair@U?$iterator@U?$ptr_node@U?$pair@$$CBV?$basic_string@DU?$char_traits@D@std@@V?$allocator@D@2@@std@@PAVCEterPack@@@std@@@detail@unordered@boost@@@iterator_detail@unordered@boost@@_N@std@@ABV?$basic_string@DU?$char_traits@D@std@@V?$allocator@D@2@@5@$$QAU?$pair@$$CBV?$basic_string@DU?$char_traits@D@std@@V?$allocator@D@2@@std@@PAVCEterPack@@@5@@Z$2
__ehfuncinfo$??$emplace_unique@U?$pair@$$CBV?$basic_string@DU?$char_traits@D@std@@V?$allocator@D@2@@std@@PAVCEterPack@@@std@@@?$table@U?$map@V?$allocator@U?$pair@$$CBV?$basic_string@DU?$char_traits@D@std@@V?$allocator@D@2@@std@@PAVCEterPack@@@std@@@std@@V?$basic_string@DU?$char_traits@D@std@@V?$allocator@D@2@@2@PAVCEterPack@@Ustringhash@@U?$equal_to@V?$basic_string@DU?$char_traits@D@std@@V?$allocator@D@2@@std@@@2@@detail@unordered@boost@@@detail@unordered@boost@@QAE?AU?$pair@U?$iterator@U?$ptr_node@U?$pair@$$CBV?$basic_string@DU?$char_traits@D@std@@V?$allocator@D@2@@std@@PAVCEterPack@@@std@@@detail@unordered@boost@@@iterator_detail@unordered@boost@@_N@std@@ABV?$basic_string@DU?$char_traits@D@std@@V?$allocator@D@2@@5@$$QAU?$pair@$$CBV?$basic_string@DU?$char_traits@D@std@@V?$allocator@D@2@@std@@PAVCEterPack@@@5@@Z DD 019930522H
	DD	02H
	DD	FLAT:__unwindtable$??$emplace_unique@U?$pair@$$CBV?$basic_string@DU?$char_traits@D@std@@V?$allocator@D@2@@std@@PAVCEterPack@@@std@@@?$table@U?$map@V?$allocator@U?$pair@$$CBV?$basic_string@DU?$char_traits@D@std@@V?$allocator@D@2@@std@@PAVCEterPack@@@std@@@std@@V?$basic_string@DU?$char_traits@D@std@@V?$allocator@D@2@@2@PAVCEterPack@@Ustringhash@@U?$equal_to@V?$basic_string@DU?$char_traits@D@std@@V?$allocator@D@2@@std@@@2@@detail@unordered@boost@@@detail@unordered@boost@@QAE?AU?$pair@U?$iterator@U?$ptr_node@U?$pair@$$CBV?$basic_string@DU?$char_traits@D@std@@V?$allocator@D@2@@std@@PAVCEterPack@@@std@@@detail@unordered@boost@@@iterator_detail@unordered@boost@@_N@std@@ABV?$basic_string@DU?$char_traits@D@std@@V?$allocator@D@2@@5@$$QAU?$pair@$$CBV?$basic_string@DU?$char_traits@D@std@@V?$allocator@D@2@@std@@PAVCEterPack@@@5@@Z
	DD	2 DUP(00H)
	DD	2 DUP(00H)
	DD	00H
	DD	01H
xdata$x	ENDS
;	COMDAT xdata$x
xdata$x	SEGMENT
__unwindtable$??$emplace_unique@U?$pair@$$CBKUSCache@CEterPackManager@@@std@@@?$table@U?$map@V?$allocator@U?$pair@$$CBKUSCache@CEterPackManager@@@std@@@std@@KUSCache@CEterPackManager@@U?$hash@K@boost@@U?$equal_to@K@2@@detail@unordered@boost@@@detail@unordered@boost@@QAE?AU?$pair@U?$iterator@U?$ptr_node@U?$pair@$$CBKUSCache@CEterPackManager@@@std@@@detail@unordered@boost@@@iterator_detail@unordered@boost@@_N@std@@ABK$$QAU?$pair@$$CBKUSCache@CEterPackManager@@@5@@Z DD 0ffffffffH
	DD	FLAT:__unwindfunclet$??$emplace_unique@U?$pair@$$CBKUSCache@CEterPackManager@@@std@@@?$table@U?$map@V?$allocator@U?$pair@$$CBKUSCache@CEterPackManager@@@std@@@std@@KUSCache@CEterPackManager@@U?$hash@K@boost@@U?$equal_to@K@2@@detail@unordered@boost@@@detail@unordered@boost@@QAE?AU?$pair@U?$iterator@U?$ptr_node@U?$pair@$$CBKUSCache@CEterPackManager@@@std@@@detail@unordered@boost@@@iterator_detail@unordered@boost@@_N@std@@ABK$$QAU?$pair@$$CBKUSCache@CEterPackManager@@@5@@Z$0
	DD	0ffffffffH
	DD	FLAT:__unwindfunclet$??$emplace_unique@U?$pair@$$CBKUSCache@CEterPackManager@@@std@@@?$table@U?$map@V?$allocator@U?$pair@$$CBKUSCache@CEterPackManager@@@std@@@std@@KUSCache@CEterPackManager@@U?$hash@K@boost@@U?$equal_to@K@2@@detail@unordered@boost@@@detail@unordered@boost@@QAE?AU?$pair@U?$iterator@U?$ptr_node@U?$pair@$$CBKUSCache@CEterPackManager@@@std@@@detail@unordered@boost@@@iterator_detail@unordered@boost@@_N@std@@ABK$$QAU?$pair@$$CBKUSCache@CEterPackManager@@@5@@Z$1
__ehfuncinfo$??$emplace_unique@U?$pair@$$CBKUSCache@CEterPackManager@@@std@@@?$table@U?$map@V?$allocator@U?$pair@$$CBKUSCache@CEterPackManager@@@std@@@std@@KUSCache@CEterPackManager@@U?$hash@K@boost@@U?$equal_to@K@2@@detail@unordered@boost@@@detail@unordered@boost@@QAE?AU?$pair@U?$iterator@U?$ptr_node@U?$pair@$$CBKUSCache@CEterPackManager@@@std@@@detail@unordered@boost@@@iterator_detail@unordered@boost@@_N@std@@ABK$$QAU?$pair@$$CBKUSCache@CEterPackManager@@@5@@Z DD 019930522H
	DD	02H
	DD	FLAT:__unwindtable$??$emplace_unique@U?$pair@$$CBKUSCache@CEterPackManager@@@std@@@?$table@U?$map@V?$allocator@U?$pair@$$CBKUSCache@CEterPackManager@@@std@@@std@@KUSCache@CEterPackManager@@U?$hash@K@boost@@U?$equal_to@K@2@@detail@unordered@boost@@@detail@unordered@boost@@QAE?AU?$pair@U?$iterator@U?$ptr_node@U?$pair@$$CBKUSCache@CEterPackManager@@@std@@@detail@unordered@boost@@@iterator_detail@unordered@boost@@_N@std@@ABK$$QAU?$pair@$$CBKUSCache@CEterPackManager@@@5@@Z
	DD	2 DUP(00H)
	DD	2 DUP(00H)
	DD	00H
	DD	01H
xdata$x	ENDS
;	COMDAT xdata$x
xdata$x	SEGMENT
__unwindtable$??$_Emplace@ABQAVCEterPack@@@?$list@PAVCEterPack@@V?$allocator@PAVCEterPack@@@std@@@std@@QAEPAU?$_List_node@PAVCEterPack@@PAX@1@QAU21@ABQAVCEterPack@@@Z DD 0ffffffffH
	DD	FLAT:__unwindfunclet$??$_Emplace@ABQAVCEterPack@@@?$list@PAVCEterPack@@V?$allocator@PAVCEterPack@@@std@@@std@@QAEPAU?$_List_node@PAVCEterPack@@PAX@1@QAU21@ABQAVCEterPack@@@Z$1
__ehfuncinfo$??$_Emplace@ABQAVCEterPack@@@?$list@PAVCEterPack@@V?$allocator@PAVCEterPack@@@std@@@std@@QAEPAU?$_List_node@PAVCEterPack@@PAX@1@QAU21@ABQAVCEterPack@@@Z DD 019930522H
	DD	01H
	DD	FLAT:__unwindtable$??$_Emplace@ABQAVCEterPack@@@?$list@PAVCEterPack@@V?$allocator@PAVCEterPack@@@std@@@std@@QAEPAU?$_List_node@PAVCEterPack@@PAX@1@QAU21@ABQAVCEterPack@@@Z
	DD	2 DUP(00H)
	DD	2 DUP(00H)
	DD	00H
	DD	01H
xdata$x	ENDS
;	COMDAT xdata$x
xdata$x	SEGMENT
__unwindtable$?resize_and_add_node_unique@?$table@U?$map@V?$allocator@U?$pair@$$CBKUSCache@CEterPackManager@@@std@@@std@@KUSCache@CEterPackManager@@U?$hash@K@boost@@U?$equal_to@K@2@@detail@unordered@boost@@@detail@unordered@boost@@QAEPAU?$ptr_node@U?$pair@$$CBKUSCache@CEterPackManager@@@std@@@234@PAU5234@I@Z DD 0ffffffffH
	DD	FLAT:__unwindfunclet$?resize_and_add_node_unique@?$table@U?$map@V?$allocator@U?$pair@$$CBKUSCache@CEterPackManager@@@std@@@std@@KUSCache@CEterPackManager@@U?$hash@K@boost@@U?$equal_to@K@2@@detail@unordered@boost@@@detail@unordered@boost@@QAEPAU?$ptr_node@U?$pair@$$CBKUSCache@CEterPackManager@@@std@@@234@PAU5234@I@Z$0
__ehfuncinfo$?resize_and_add_node_unique@?$table@U?$map@V?$allocator@U?$pair@$$CBKUSCache@CEterPackManager@@@std@@@std@@KUSCache@CEterPackManager@@U?$hash@K@boost@@U?$equal_to@K@2@@detail@unordered@boost@@@detail@unordered@boost@@QAEPAU?$ptr_node@U?$pair@$$CBKUSCache@CEterPackManager@@@std@@@234@PAU5234@I@Z DD 019930522H
	DD	01H
	DD	FLAT:__unwindtable$?resize_and_add_node_unique@?$table@U?$map@V?$allocator@U?$pair@$$CBKUSCache@CEterPackManager@@@std@@@std@@KUSCache@CEterPackManager@@U?$hash@K@boost@@U?$equal_to@K@2@@detail@unordered@boost@@@detail@unordered@boost@@QAEPAU?$ptr_node@U?$pair@$$CBKUSCache@CEterPackManager@@@std@@@234@PAU5234@I@Z
	DD	2 DUP(00H)
	DD	2 DUP(00H)
	DD	00H
	DD	01H
xdata$x	ENDS
;	COMDAT xdata$x
xdata$x	SEGMENT
__unwindtable$?resize_and_add_node_unique@?$table@U?$map@V?$allocator@U?$pair@$$CBV?$basic_string@DU?$char_traits@D@std@@V?$allocator@D@2@@std@@PAVCEterPack@@@std@@@std@@V?$basic_string@DU?$char_traits@D@std@@V?$allocator@D@2@@2@PAVCEterPack@@Ustringhash@@U?$equal_to@V?$basic_string@DU?$char_traits@D@std@@V?$allocator@D@2@@std@@@2@@detail@unordered@boost@@@detail@unordered@boost@@QAEPAU?$ptr_node@U?$pair@$$CBV?$basic_string@DU?$char_traits@D@std@@V?$allocator@D@2@@std@@PAVCEterPack@@@std@@@234@PAU5234@I@Z DD 0ffffffffH
	DD	FLAT:__unwindfunclet$?resize_and_add_node_unique@?$table@U?$map@V?$allocator@U?$pair@$$CBV?$basic_string@DU?$char_traits@D@std@@V?$allocator@D@2@@std@@PAVCEterPack@@@std@@@std@@V?$basic_string@DU?$char_traits@D@std@@V?$allocator@D@2@@2@PAVCEterPack@@Ustringhash@@U?$equal_to@V?$basic_string@DU?$char_traits@D@std@@V?$allocator@D@2@@std@@@2@@detail@unordered@boost@@@detail@unordered@boost@@QAEPAU?$ptr_node@U?$pair@$$CBV?$basic_string@DU?$char_traits@D@std@@V?$allocator@D@2@@std@@PAVCEterPack@@@std@@@234@PAU5234@I@Z$0
__ehfuncinfo$?resize_and_add_node_unique@?$table@U?$map@V?$allocator@U?$pair@$$CBV?$basic_string@DU?$char_traits@D@std@@V?$allocator@D@2@@std@@PAVCEterPack@@@std@@@std@@V?$basic_string@DU?$char_traits@D@std@@V?$allocator@D@2@@2@PAVCEterPack@@Ustringhash@@U?$equal_to@V?$basic_string@DU?$char_traits@D@std@@V?$allocator@D@2@@std@@@2@@detail@unordered@boost@@@detail@unordered@boost@@QAEPAU?$ptr_node@U?$pair@$$CBV?$basic_string@DU?$char_traits@D@std@@V?$allocator@D@2@@std@@PAVCEterPack@@@std@@@234@PAU5234@I@Z DD 019930522H
	DD	01H
	DD	FLAT:__unwindtable$?resize_and_add_node_unique@?$table@U?$map@V?$allocator@U?$pair@$$CBV?$basic_string@DU?$char_traits@D@std@@V?$allocator@D@2@@std@@PAVCEterPack@@@std@@@std@@V?$basic_string@DU?$char_traits@D@std@@V?$allocator@D@2@@2@PAVCEterPack@@Ustringhash@@U?$equal_to@V?$basic_string@DU?$char_traits@D@std@@V?$allocator@D@2@@std@@@2@@detail@unordered@boost@@@detail@unordered@boost@@QAEPAU?$ptr_node@U?$pair@$$CBV?$basic_string@DU?$char_traits@D@std@@V?$allocator@D@2@@std@@PAVCEterPack@@@std@@@234@PAU5234@I@Z
	DD	2 DUP(00H)
	DD	2 DUP(00H)
	DD	00H
	DD	01H
xdata$x	ENDS
;	COMDAT xdata$x
xdata$x	SEGMENT
__unwindtable$?push_front@?$list@PAVCEterPack@@V?$allocator@PAVCEterPack@@@std@@@std@@QAEXABQAVCEterPack@@@Z DD 0ffffffffH
	DD	FLAT:__unwindfunclet$?push_front@?$list@PAVCEterPack@@V?$allocator@PAVCEterPack@@@std@@@std@@QAEXABQAVCEterPack@@@Z$1
__ehfuncinfo$?push_front@?$list@PAVCEterPack@@V?$allocator@PAVCEterPack@@@std@@@std@@QAEXABQAVCEterPack@@@Z DD 019930522H
	DD	01H
	DD	FLAT:__unwindtable$?push_front@?$list@PAVCEterPack@@V?$allocator@PAVCEterPack@@@std@@@std@@QAEXABQAVCEterPack@@@Z
	DD	2 DUP(00H)
	DD	2 DUP(00H)
	DD	00H
	DD	01H
xdata$x	ENDS
;	COMDAT xdata$x
xdata$x	SEGMENT
__unwindtable$?FindPack@CEterPackManager@@IAEPAVCEterPack@@PBD@Z DD 0ffffffffH
	DD	FLAT:__unwindfunclet$?FindPack@CEterPackManager@@IAEPAVCEterPack@@PBD@Z$0
__ehfuncinfo$?FindPack@CEterPackManager@@IAEPAVCEterPack@@PBD@Z DD 019930522H
	DD	01H
	DD	FLAT:__unwindtable$?FindPack@CEterPackManager@@IAEPAVCEterPack@@PBD@Z
	DD	2 DUP(00H)
	DD	2 DUP(00H)
	DD	00H
	DD	01H
xdata$x	ENDS
;	COMDAT xdata$x
xdata$x	SEGMENT
__unwindtable$?RetrieveHybridCryptPackSDB@CEterPackManager@@QAEXPBE@Z DD 0ffffffffH
	DD	FLAT:__unwindfunclet$?RetrieveHybridCryptPackSDB@CEterPackManager@@QAEXPBE@Z$0
	DD	00H
	DD	FLAT:__unwindfunclet$?RetrieveHybridCryptPackSDB@CEterPackManager@@QAEXPBE@Z$1
	DD	0ffffffffH
	DD	FLAT:__unwindfunclet$?RetrieveHybridCryptPackSDB@CEterPackManager@@QAEXPBE@Z$1
__ehfuncinfo$?RetrieveHybridCryptPackSDB@CEterPackManager@@QAEXPBE@Z DD 019930522H
	DD	03H
	DD	FLAT:__unwindtable$?RetrieveHybridCryptPackSDB@CEterPackManager@@QAEXPBE@Z
	DD	2 DUP(00H)
	DD	2 DUP(00H)
	DD	00H
	DD	01H
xdata$x	ENDS
;	COMDAT xdata$x
xdata$x	SEGMENT
__unwindtable$?RetrieveHybridCryptPackKeys@CEterPackManager@@QAEXPBE@Z DD 0ffffffffH
	DD	FLAT:__unwindfunclet$?RetrieveHybridCryptPackKeys@CEterPackManager@@QAEXPBE@Z$0
	DD	00H
	DD	FLAT:__unwindfunclet$?RetrieveHybridCryptPackKeys@CEterPackManager@@QAEXPBE@Z$1
	DD	0ffffffffH
	DD	FLAT:__unwindfunclet$?RetrieveHybridCryptPackKeys@CEterPackManager@@QAEXPBE@Z$1
__ehfuncinfo$?RetrieveHybridCryptPackKeys@CEterPackManager@@QAEXPBE@Z DD 019930522H
	DD	03H
	DD	FLAT:__unwindtable$?RetrieveHybridCryptPackKeys@CEterPackManager@@QAEXPBE@Z
	DD	2 DUP(00H)
	DD	2 DUP(00H)
	DD	00H
	DD	01H
xdata$x	ENDS
;	COMDAT xdata$x
xdata$x	SEGMENT
__ehfuncinfo$?WriteHybridCryptPackInfo@CEterPackManager@@QAEXPBD@Z DD 019930522H
	DD	07H
	DD	FLAT:__unwindtable$?WriteHybridCryptPackInfo@CEterPackManager@@QAEXPBD@Z
	DD	2 DUP(00H)
	DD	2 DUP(00H)
	DD	00H
	DD	01H
__unwindtable$?WriteHybridCryptPackInfo@CEterPackManager@@QAEXPBD@Z DD 0ffffffffH
	DD	FLAT:__unwindfunclet$?WriteHybridCryptPackInfo@CEterPackManager@@QAEXPBD@Z$0
	DD	00H
	DD	FLAT:__unwindfunclet$?WriteHybridCryptPackInfo@CEterPackManager@@QAEXPBD@Z$1
	DD	01H
	DD	FLAT:__unwindfunclet$?WriteHybridCryptPackInfo@CEterPackManager@@QAEXPBD@Z$2
	DD	00H
	DD	FLAT:__unwindfunclet$?WriteHybridCryptPackInfo@CEterPackManager@@QAEXPBD@Z$2
	DD	00H
	DD	FLAT:__unwindfunclet$?WriteHybridCryptPackInfo@CEterPackManager@@QAEXPBD@Z$3
	DD	04H
	DD	FLAT:__unwindfunclet$?WriteHybridCryptPackInfo@CEterPackManager@@QAEXPBD@Z$4
	DD	00H
	DD	FLAT:__unwindfunclet$?WriteHybridCryptPackInfo@CEterPackManager@@QAEXPBD@Z$4
xdata$x	ENDS
;	COMDAT xdata$x
xdata$x	SEGMENT
__unwindtable$?RegisterPackWhenPackMaking@CEterPackManager@@QAE_NPBD0PAVCEterPack@@@Z DD 0ffffffffH
	DD	FLAT:__unwindfunclet$?RegisterPackWhenPackMaking@CEterPackManager@@QAE_NPBD0PAVCEterPack@@@Z$0
	DD	0ffffffffH
	DD	FLAT:__unwindfunclet$?RegisterPackWhenPackMaking@CEterPackManager@@QAE_NPBD0PAVCEterPack@@@Z$1
__ehfuncinfo$?RegisterPackWhenPackMaking@CEterPackManager@@QAE_NPBD0PAVCEterPack@@@Z DD 019930522H
	DD	02H
	DD	FLAT:__unwindtable$?RegisterPackWhenPackMaking@CEterPackManager@@QAE_NPBD0PAVCEterPack@@@Z
	DD	2 DUP(00H)
	DD	2 DUP(00H)
	DD	00H
	DD	01H
xdata$x	ENDS
;	COMDAT xdata$x
xdata$x	SEGMENT
__unwindtable$?RegisterPack@CEterPackManager@@QAE_NPBD0PBE@Z DD 0ffffffffH
	DD	FLAT:__unwindfunclet$?RegisterPack@CEterPackManager@@QAE_NPBD0PBE@Z$1
	DD	0ffffffffH
	DD	FLAT:__unwindfunclet$?RegisterPack@CEterPackManager@@QAE_NPBD0PBE@Z$2
	DD	0ffffffffH
	DD	FLAT:__unwindfunclet$?RegisterPack@CEterPackManager@@QAE_NPBD0PBE@Z$4
__ehfuncinfo$?RegisterPack@CEterPackManager@@QAE_NPBD0PBE@Z DD 019930522H
	DD	03H
	DD	FLAT:__unwindtable$?RegisterPack@CEterPackManager@@QAE_NPBD0PBE@Z
	DD	2 DUP(00H)
	DD	2 DUP(00H)
	DD	00H
	DD	01H
xdata$x	ENDS
;	COMDAT xdata$x
xdata$x	SEGMENT
__unwindtable$?isExistInPack@CEterPackManager@@QAE_NPBD@Z DD 0ffffffffH
	DD	FLAT:__unwindfunclet$?isExistInPack@CEterPackManager@@QAE_NPBD@Z$0
__ehfuncinfo$?isExistInPack@CEterPackManager@@QAE_NPBD@Z DD 019930522H
	DD	01H
	DD	FLAT:__unwindtable$?isExistInPack@CEterPackManager@@QAE_NPBD@Z
	DD	2 DUP(00H)
	DD	2 DUP(00H)
	DD	00H
	DD	01H
xdata$x	ENDS
;	COMDAT xdata$x
xdata$x	SEGMENT
__unwindtable$?GetFromPack@CEterPackManager@@QAE_NAAVCMappedFile@@PBDPAPBX@Z DD 0ffffffffH
	DD	FLAT:__unwindfunclet$?GetFromPack@CEterPackManager@@QAE_NAAVCMappedFile@@PBDPAPBX@Z$0
__ehfuncinfo$?GetFromPack@CEterPackManager@@QAE_NAAVCMappedFile@@PBDPAPBX@Z DD 019930522H
	DD	01H
	DD	FLAT:__unwindtable$?GetFromPack@CEterPackManager@@QAE_NAAVCMappedFile@@PBDPAPBX@Z
	DD	2 DUP(00H)
	DD	2 DUP(00H)
	DD	00H
	DD	01H
xdata$x	ENDS
;	COMDAT xdata$x
xdata$x	SEGMENT
__unwindtable$?LoadStaticCache@CEterPackManager@@QAEXPBD@Z DD 0ffffffffH
	DD	FLAT:__unwindfunclet$?LoadStaticCache@CEterPackManager@@QAEXPBD@Z$0
	DD	00H
	DD	FLAT:__unwindfunclet$?LoadStaticCache@CEterPackManager@@QAEXPBD@Z$1
__ehfuncinfo$?LoadStaticCache@CEterPackManager@@QAEXPBD@Z DD 019930522H
	DD	02H
	DD	FLAT:__unwindtable$?LoadStaticCache@CEterPackManager@@QAEXPBD@Z
	DD	2 DUP(00H)
	DD	2 DUP(00H)
	DD	00H
	DD	01H
xdata$x	ENDS
;	COMDAT xdata$x
xdata$x	SEGMENT
__unwindtable$??0CEterPackManager@@QAE@XZ DD 0ffffffffH
	DD	FLAT:__unwindfunclet$??0CEterPackManager@@QAE@XZ$0
	DD	00H
	DD	FLAT:__unwindfunclet$??0CEterPackManager@@QAE@XZ$1
	DD	01H
	DD	FLAT:__unwindfunclet$??0CEterPackManager@@QAE@XZ$2
__ehfuncinfo$??0CEterPackManager@@QAE@XZ DD 019930522H
	DD	03H
	DD	FLAT:__unwindtable$??0CEterPackManager@@QAE@XZ
	DD	2 DUP(00H)
	DD	2 DUP(00H)
	DD	00H
	DD	01H
xdata$x	ENDS
; Function compile flags: /Ogtp
; File C:\Users\murat\Desktop\Siveps2-1-99-Project\source\client\extern\include\boost\unordered\detail\implementation.hpp
; File C:\Program Files (x86)\Microsoft Visual Studio\2019\Professional\VC\Tools\MSVC\14.29.30133\include\xmemory
; File C:\Users\murat\Desktop\Siveps2-1-99-Project\source\client\extern\include\boost\unordered\detail\implementation.hpp
; File C:\Program Files (x86)\Microsoft Visual Studio\2019\Professional\VC\Tools\MSVC\14.29.30133\include\xmemory
; File C:\Users\murat\Desktop\Siveps2-1-99-Project\source\client\extern\include\boost\unordered\detail\implementation.hpp
; File C:\Program Files (x86)\Microsoft Visual Studio\2019\Professional\VC\Tools\MSVC\14.29.30133\include\xmemory
; File C:\Users\murat\Desktop\Siveps2-1-99-Project\source\client\extern\include\boost\unordered\detail\implementation.hpp
;	COMDAT ?create_node@?$node_constructor@V?$allocator@U?$ptr_node@U?$pair@$$CBV?$basic_string@DU?$char_traits@D@std@@V?$allocator@D@2@@std@@PAVCEterPack@@@std@@@detail@unordered@boost@@@std@@@detail@unordered@boost@@QAEXXZ
_TEXT	SEGMENT
?create_node@?$node_constructor@V?$allocator@U?$ptr_node@U?$pair@$$CBV?$basic_string@DU?$char_traits@D@std@@V?$allocator@D@2@@std@@PAVCEterPack@@@std@@@detail@unordered@boost@@@std@@@detail@unordered@boost@@QAEXXZ PROC ; boost::unordered::detail::node_constructor<std::allocator<boost::unordered::detail::ptr_node<std::pair<std::basic_string<char,std::char_traits<char>,std::allocator<char> > const ,CEterPack *> > > >::create_node, COMDAT
; _this$ = ecx

; 1983 :       {

  00000	56		 push	 esi
; File C:\Program Files (x86)\Microsoft Visual Studio\2019\Professional\VC\Tools\MSVC\14.29.30133\include\xmemory

; 85   :         return ::operator new(_Bytes);

  00001	6a 24		 push	 36			; 00000024H
; File C:\Users\murat\Desktop\Siveps2-1-99-Project\source\client\extern\include\boost\unordered\detail\implementation.hpp

; 1983 :       {

  00003	8b f1		 mov	 esi, ecx
; File C:\Program Files (x86)\Microsoft Visual Studio\2019\Professional\VC\Tools\MSVC\14.29.30133\include\xmemory

; 85   :         return ::operator new(_Bytes);

  00005	e8 00 00 00 00	 call	 ??2@YAPAXI@Z		; operator new
; File C:\Users\murat\Desktop\Siveps2-1-99-Project\source\client\extern\include\boost\unordered\detail\implementation.hpp

; 1985 :         node_ = node_allocator_traits::allocate(alloc_, 1);

  0000a	89 46 04	 mov	 DWORD PTR [esi+4], eax
; File C:\Program Files (x86)\Microsoft Visual Studio\2019\Professional\VC\Tools\MSVC\14.29.30133\include\xmemory

; 85   :         return ::operator new(_Bytes);

  0000d	83 c4 04	 add	 esp, 4
  00010	0f 57 c0	 xorps	 xmm0, xmm0
; File C:\Users\murat\Desktop\Siveps2-1-99-Project\source\client\extern\include\boost\unordered\detail\implementation.hpp

; 2579 :         ptr_bucket() : next_(0) {}

  00013	c7 00 00 00 00
	00		 mov	 DWORD PTR [eax], 0

; 4865 :         ptr_node() : bucket_base(), bucket_info_(0) {}

  00019	c7 40 04 00 00
	00 00		 mov	 DWORD PTR [eax+4], 0

; 754  :         value_base() : data_() {}

  00020	0f 11 40 08	 movups	 XMMWORD PTR [eax+8], xmm0
  00024	5e		 pop	 esi
  00025	66 0f d6 40 18	 movq	 QWORD PTR [eax+24], xmm0
  0002a	c7 40 20 00 00
	00 00		 mov	 DWORD PTR [eax+32], 0

; 1986 :         new ((void*)boost::to_address(node_)) node();
; 1987 :       }

  00031	c3		 ret	 0
?create_node@?$node_constructor@V?$allocator@U?$ptr_node@U?$pair@$$CBV?$basic_string@DU?$char_traits@D@std@@V?$allocator@D@2@@std@@PAVCEterPack@@@std@@@detail@unordered@boost@@@std@@@detail@unordered@boost@@QAEXXZ ENDP ; boost::unordered::detail::node_constructor<std::allocator<boost::unordered::detail::ptr_node<std::pair<std::basic_string<char,std::char_traits<char>,std::allocator<char> > const ,CEterPack *> > > >::create_node
_TEXT	ENDS
; Function compile flags: /Ogtp
; File C:\Users\murat\Desktop\Siveps2-1-99-Project\source\client\extern\include\boost\unordered\detail\implementation.hpp
; File C:\Program Files (x86)\Microsoft Visual Studio\2019\Professional\VC\Tools\MSVC\14.29.30133\include\xmemory
; File C:\Users\murat\Desktop\Siveps2-1-99-Project\source\client\extern\include\boost\unordered\detail\implementation.hpp
;	COMDAT ??1?$node_constructor@V?$allocator@U?$ptr_node@U?$pair@$$CBV?$basic_string@DU?$char_traits@D@std@@V?$allocator@D@2@@std@@PAVCEterPack@@@std@@@detail@unordered@boost@@@std@@@detail@unordered@boost@@QAE@XZ
_TEXT	SEGMENT
??1?$node_constructor@V?$allocator@U?$ptr_node@U?$pair@$$CBV?$basic_string@DU?$char_traits@D@std@@V?$allocator@D@2@@std@@PAVCEterPack@@@std@@@detail@unordered@boost@@@std@@@detail@unordered@boost@@QAE@XZ PROC ; boost::unordered::detail::node_constructor<std::allocator<boost::unordered::detail::ptr_node<std::pair<std::basic_string<char,std::char_traits<char>,std::allocator<char> > const ,CEterPack *> > > >::~node_constructor<std::allocator<boost::unordered::detail::ptr_node<std::pair<std::basic_string<char,std::char_traits<char>,std::allocator<char> > const ,CEterPack *> > > >, COMDAT
; _this$ = ecx

; 1976 :         if (node_) {

  00000	8b 41 04	 mov	 eax, DWORD PTR [ecx+4]
  00003	85 c0		 test	 eax, eax
  00005	74 0b		 je	 SHORT $LN8@node_const
; File C:\Program Files (x86)\Microsoft Visual Studio\2019\Professional\VC\Tools\MSVC\14.29.30133\include\xmemory

; 264  :         ::operator delete(_Ptr, _Bytes);

  00007	6a 24		 push	 36			; 00000024H
  00009	50		 push	 eax
  0000a	e8 00 00 00 00	 call	 ??3@YAXPAXI@Z		; operator delete
  0000f	83 c4 08	 add	 esp, 8
$LN8@node_const:
; File C:\Users\murat\Desktop\Siveps2-1-99-Project\source\client\extern\include\boost\unordered\detail\implementation.hpp

; 1980 :       }

  00012	c3		 ret	 0
??1?$node_constructor@V?$allocator@U?$ptr_node@U?$pair@$$CBV?$basic_string@DU?$char_traits@D@std@@V?$allocator@D@2@@std@@PAVCEterPack@@@std@@@detail@unordered@boost@@@std@@@detail@unordered@boost@@QAE@XZ ENDP ; boost::unordered::detail::node_constructor<std::allocator<boost::unordered::detail::ptr_node<std::pair<std::basic_string<char,std::char_traits<char>,std::allocator<char> > const ,CEterPack *> > > >::~node_constructor<std::allocator<boost::unordered::detail::ptr_node<std::pair<std::basic_string<char,std::char_traits<char>,std::allocator<char> > const ,CEterPack *> > > >
_TEXT	ENDS
; Function compile flags: /Ogtp
; File C:\Users\murat\Desktop\Siveps2-1-99-Project\source\client\extern\include\boost\unordered\detail\implementation.hpp
; File C:\Program Files (x86)\Microsoft Visual Studio\2019\Professional\VC\Tools\MSVC\14.29.30133\include\xmemory
; File C:\Users\murat\Desktop\Siveps2-1-99-Project\source\client\extern\include\boost\unordered\detail\implementation.hpp
; File C:\Program Files (x86)\Microsoft Visual Studio\2019\Professional\VC\Tools\MSVC\14.29.30133\include\xmemory
; File C:\Users\murat\Desktop\Siveps2-1-99-Project\source\client\extern\include\boost\unordered\detail\implementation.hpp
; File C:\Program Files (x86)\Microsoft Visual Studio\2019\Professional\VC\Tools\MSVC\14.29.30133\include\xmemory
; File C:\Users\murat\Desktop\Siveps2-1-99-Project\source\client\extern\include\boost\unordered\detail\implementation.hpp
;	COMDAT ?create_node@?$node_constructor@V?$allocator@U?$ptr_node@U?$pair@$$CBKUSCache@CEterPackManager@@@std@@@detail@unordered@boost@@@std@@@detail@unordered@boost@@QAEXXZ
_TEXT	SEGMENT
?create_node@?$node_constructor@V?$allocator@U?$ptr_node@U?$pair@$$CBKUSCache@CEterPackManager@@@std@@@detail@unordered@boost@@@std@@@detail@unordered@boost@@QAEXXZ PROC ; boost::unordered::detail::node_constructor<std::allocator<boost::unordered::detail::ptr_node<std::pair<unsigned long const ,CEterPackManager::SCache> > > >::create_node, COMDAT
; _this$ = ecx

; 1983 :       {

  00000	56		 push	 esi
; File C:\Program Files (x86)\Microsoft Visual Studio\2019\Professional\VC\Tools\MSVC\14.29.30133\include\xmemory

; 85   :         return ::operator new(_Bytes);

  00001	6a 14		 push	 20			; 00000014H
; File C:\Users\murat\Desktop\Siveps2-1-99-Project\source\client\extern\include\boost\unordered\detail\implementation.hpp

; 1983 :       {

  00003	8b f1		 mov	 esi, ecx
; File C:\Program Files (x86)\Microsoft Visual Studio\2019\Professional\VC\Tools\MSVC\14.29.30133\include\xmemory

; 85   :         return ::operator new(_Bytes);

  00005	e8 00 00 00 00	 call	 ??2@YAPAXI@Z		; operator new
; File C:\Users\murat\Desktop\Siveps2-1-99-Project\source\client\extern\include\boost\unordered\detail\implementation.hpp

; 1985 :         node_ = node_allocator_traits::allocate(alloc_, 1);

  0000a	89 46 04	 mov	 DWORD PTR [esi+4], eax
; File C:\Program Files (x86)\Microsoft Visual Studio\2019\Professional\VC\Tools\MSVC\14.29.30133\include\xmemory

; 85   :         return ::operator new(_Bytes);

  0000d	83 c4 04	 add	 esp, 4
  00010	0f 57 c0	 xorps	 xmm0, xmm0
; File C:\Users\murat\Desktop\Siveps2-1-99-Project\source\client\extern\include\boost\unordered\detail\implementation.hpp

; 2579 :         ptr_bucket() : next_(0) {}

  00013	c7 00 00 00 00
	00		 mov	 DWORD PTR [eax], 0

; 4865 :         ptr_node() : bucket_base(), bucket_info_(0) {}

  00019	c7 40 04 00 00
	00 00		 mov	 DWORD PTR [eax+4], 0

; 754  :         value_base() : data_() {}

  00020	66 0f d6 40 08	 movq	 QWORD PTR [eax+8], xmm0
  00025	c7 40 10 00 00
	00 00		 mov	 DWORD PTR [eax+16], 0
  0002c	5e		 pop	 esi

; 1986 :         new ((void*)boost::to_address(node_)) node();
; 1987 :       }

  0002d	c3		 ret	 0
?create_node@?$node_constructor@V?$allocator@U?$ptr_node@U?$pair@$$CBKUSCache@CEterPackManager@@@std@@@detail@unordered@boost@@@std@@@detail@unordered@boost@@QAEXXZ ENDP ; boost::unordered::detail::node_constructor<std::allocator<boost::unordered::detail::ptr_node<std::pair<unsigned long const ,CEterPackManager::SCache> > > >::create_node
_TEXT	ENDS
; Function compile flags: /Ogtp
; File C:\Users\murat\Desktop\Siveps2-1-99-Project\source\client\extern\include\boost\unordered\detail\implementation.hpp
; File C:\Program Files (x86)\Microsoft Visual Studio\2019\Professional\VC\Tools\MSVC\14.29.30133\include\xmemory
; File C:\Users\murat\Desktop\Siveps2-1-99-Project\source\client\extern\include\boost\unordered\detail\implementation.hpp
;	COMDAT ??1?$node_constructor@V?$allocator@U?$ptr_node@U?$pair@$$CBKUSCache@CEterPackManager@@@std@@@detail@unordered@boost@@@std@@@detail@unordered@boost@@QAE@XZ
_TEXT	SEGMENT
??1?$node_constructor@V?$allocator@U?$ptr_node@U?$pair@$$CBKUSCache@CEterPackManager@@@std@@@detail@unordered@boost@@@std@@@detail@unordered@boost@@QAE@XZ PROC ; boost::unordered::detail::node_constructor<std::allocator<boost::unordered::detail::ptr_node<std::pair<unsigned long const ,CEterPackManager::SCache> > > >::~node_constructor<std::allocator<boost::unordered::detail::ptr_node<std::pair<unsigned long const ,CEterPackManager::SCache> > > >, COMDAT
; _this$ = ecx

; 1976 :         if (node_) {

  00000	8b 41 04	 mov	 eax, DWORD PTR [ecx+4]
  00003	85 c0		 test	 eax, eax
  00005	74 0b		 je	 SHORT $LN8@node_const
; File C:\Program Files (x86)\Microsoft Visual Studio\2019\Professional\VC\Tools\MSVC\14.29.30133\include\xmemory

; 264  :         ::operator delete(_Ptr, _Bytes);

  00007	6a 14		 push	 20			; 00000014H
  00009	50		 push	 eax
  0000a	e8 00 00 00 00	 call	 ??3@YAXPAXI@Z		; operator delete
  0000f	83 c4 08	 add	 esp, 8
$LN8@node_const:
; File C:\Users\murat\Desktop\Siveps2-1-99-Project\source\client\extern\include\boost\unordered\detail\implementation.hpp

; 1980 :       }

  00012	c3		 ret	 0
??1?$node_constructor@V?$allocator@U?$ptr_node@U?$pair@$$CBKUSCache@CEterPackManager@@@std@@@detail@unordered@boost@@@std@@@detail@unordered@boost@@QAE@XZ ENDP ; boost::unordered::detail::node_constructor<std::allocator<boost::unordered::detail::ptr_node<std::pair<unsigned long const ,CEterPackManager::SCache> > > >::~node_constructor<std::allocator<boost::unordered::detail::ptr_node<std::pair<unsigned long const ,CEterPackManager::SCache> > > >
_TEXT	ENDS
; Function compile flags: /Ogtp
; File C:\Users\murat\Desktop\Siveps2-1-99-Project\source\client\extern\include\boost\unordered\detail\implementation.hpp
; File C:\Program Files (x86)\Microsoft Visual Studio\2019\Professional\VC\Tools\MSVC\14.29.30133\include\xmemory
; File C:\Users\murat\Desktop\Siveps2-1-99-Project\source\client\extern\include\boost\unordered\detail\implementation.hpp
;	COMDAT ??1?$node_tmp@V?$allocator@U?$ptr_node@U?$pair@$$CBV?$basic_string@DU?$char_traits@D@std@@V?$allocator@D@2@@std@@PAVCEterPack@@@std@@@detail@unordered@boost@@@std@@@detail@unordered@boost@@QAE@XZ
_TEXT	SEGMENT
??1?$node_tmp@V?$allocator@U?$ptr_node@U?$pair@$$CBV?$basic_string@DU?$char_traits@D@std@@V?$allocator@D@2@@std@@PAVCEterPack@@@std@@@detail@unordered@boost@@@std@@@detail@unordered@boost@@QAE@XZ PROC ; boost::unordered::detail::node_tmp<std::allocator<boost::unordered::detail::ptr_node<std::pair<std::basic_string<char,std::char_traits<char>,std::allocator<char> > const ,CEterPack *> > > >::~node_tmp<std::allocator<boost::unordered::detail::ptr_node<std::pair<std::basic_string<char,std::char_traits<char>,std::allocator<char> > const ,CEterPack *> > > >, COMDAT
; _this$ = ecx

; 2013 :       {

  00000	56		 push	 esi
  00001	8b f1		 mov	 esi, ecx

; 2014 :         if (node_) {

  00003	8b 46 04	 mov	 eax, DWORD PTR [esi+4]
  00006	85 c0		 test	 eax, eax
  00008	74 18		 je	 SHORT $LN8@node_tmp

; 2015 :           BOOST_UNORDERED_CALL_DESTROY(

  0000a	83 c0 08	 add	 eax, 8
  0000d	50		 push	 eax
  0000e	ff 36		 push	 DWORD PTR [esi]
  00010	e8 00 00 00 00	 call	 ??$destroy@U?$pair@$$CBV?$basic_string@DU?$char_traits@D@std@@V?$allocator@D@2@@std@@PAVCEterPack@@@std@@@?$_Default_allocator_traits@V?$allocator@U?$ptr_node@U?$pair@$$CBV?$basic_string@DU?$char_traits@D@std@@V?$allocator@D@2@@std@@PAVCEterPack@@@std@@@detail@unordered@boost@@@std@@@std@@SAXAAV?$allocator@U?$ptr_node@U?$pair@$$CBV?$basic_string@DU?$char_traits@D@std@@V?$allocator@D@2@@std@@PAVCEterPack@@@std@@@detail@unordered@boost@@@1@QAU?$pair@$$CBV?$basic_string@DU?$char_traits@D@std@@V?$allocator@D@2@@std@@PAVCEterPack@@@1@@Z ; std::_Default_allocator_traits<std::allocator<boost::unordered::detail::ptr_node<std::pair<std::basic_string<char,std::char_traits<char>,std::allocator<char> > const ,CEterPack *> > > >::destroy<std::pair<std::basic_string<char,std::char_traits<char>,std::allocator<char> > const ,CEterPack *> >
; File C:\Program Files (x86)\Microsoft Visual Studio\2019\Professional\VC\Tools\MSVC\14.29.30133\include\xmemory

; 264  :         ::operator delete(_Ptr, _Bytes);

  00015	6a 24		 push	 36			; 00000024H
  00017	ff 76 04	 push	 DWORD PTR [esi+4]
  0001a	e8 00 00 00 00	 call	 ??3@YAXPAXI@Z		; operator delete
  0001f	83 c4 10	 add	 esp, 16			; 00000010H
$LN8@node_tmp:
  00022	5e		 pop	 esi
; File C:\Users\murat\Desktop\Siveps2-1-99-Project\source\client\extern\include\boost\unordered\detail\implementation.hpp

; 2020 :       }

  00023	c3		 ret	 0
??1?$node_tmp@V?$allocator@U?$ptr_node@U?$pair@$$CBV?$basic_string@DU?$char_traits@D@std@@V?$allocator@D@2@@std@@PAVCEterPack@@@std@@@detail@unordered@boost@@@std@@@detail@unordered@boost@@QAE@XZ ENDP ; boost::unordered::detail::node_tmp<std::allocator<boost::unordered::detail::ptr_node<std::pair<std::basic_string<char,std::char_traits<char>,std::allocator<char> > const ,CEterPack *> > > >::~node_tmp<std::allocator<boost::unordered::detail::ptr_node<std::pair<std::basic_string<char,std::char_traits<char>,std::allocator<char> > const ,CEterPack *> > > >
_TEXT	ENDS
; Function compile flags: /Ogtp
; File C:\Users\murat\Desktop\Siveps2-1-99-Project\source\client\extern\include\boost\unordered\detail\implementation.hpp
; File C:\Program Files (x86)\Microsoft Visual Studio\2019\Professional\VC\Tools\MSVC\14.29.30133\include\xmemory
; File C:\Users\murat\Desktop\Siveps2-1-99-Project\source\client\extern\include\boost\unordered\detail\implementation.hpp
;	COMDAT ??1?$node_tmp@V?$allocator@U?$ptr_node@U?$pair@$$CBKUSCache@CEterPackManager@@@std@@@detail@unordered@boost@@@std@@@detail@unordered@boost@@QAE@XZ
_TEXT	SEGMENT
??1?$node_tmp@V?$allocator@U?$ptr_node@U?$pair@$$CBKUSCache@CEterPackManager@@@std@@@detail@unordered@boost@@@std@@@detail@unordered@boost@@QAE@XZ PROC ; boost::unordered::detail::node_tmp<std::allocator<boost::unordered::detail::ptr_node<std::pair<unsigned long const ,CEterPackManager::SCache> > > >::~node_tmp<std::allocator<boost::unordered::detail::ptr_node<std::pair<unsigned long const ,CEterPackManager::SCache> > > >, COMDAT
; _this$ = ecx

; 2014 :         if (node_) {

  00000	8b 41 04	 mov	 eax, DWORD PTR [ecx+4]
  00003	85 c0		 test	 eax, eax
  00005	74 0b		 je	 SHORT $LN8@node_tmp
; File C:\Program Files (x86)\Microsoft Visual Studio\2019\Professional\VC\Tools\MSVC\14.29.30133\include\xmemory

; 264  :         ::operator delete(_Ptr, _Bytes);

  00007	6a 14		 push	 20			; 00000014H
  00009	50		 push	 eax
  0000a	e8 00 00 00 00	 call	 ??3@YAXPAXI@Z		; operator delete
  0000f	83 c4 08	 add	 esp, 8
$LN8@node_tmp:
; File C:\Users\murat\Desktop\Siveps2-1-99-Project\source\client\extern\include\boost\unordered\detail\implementation.hpp

; 2020 :       }

  00012	c3		 ret	 0
??1?$node_tmp@V?$allocator@U?$ptr_node@U?$pair@$$CBKUSCache@CEterPackManager@@@std@@@detail@unordered@boost@@@std@@@detail@unordered@boost@@QAE@XZ ENDP ; boost::unordered::detail::node_tmp<std::allocator<boost::unordered::detail::ptr_node<std::pair<unsigned long const ,CEterPackManager::SCache> > > >::~node_tmp<std::allocator<boost::unordered::detail::ptr_node<std::pair<unsigned long const ,CEterPackManager::SCache> > > >
_TEXT	ENDS
; Function compile flags: /Ogtp
; File C:\Program Files (x86)\Microsoft Visual Studio\2019\Professional\VC\Tools\MSVC\14.29.30133\include\xmemory
; File C:\Program Files (x86)\Microsoft Visual Studio\2019\Professional\VC\Tools\MSVC\14.29.30133\include\xstring
; File C:\Program Files (x86)\Microsoft Visual Studio\2019\Professional\VC\Tools\MSVC\14.29.30133\include\xmemory
; File C:\Program Files (x86)\Microsoft Visual Studio\2019\Professional\VC\Tools\MSVC\14.29.30133\include\xstring
; File C:\Program Files (x86)\Microsoft Visual Studio\2019\Professional\VC\Tools\MSVC\14.29.30133\include\xmemory
; File C:\Program Files (x86)\Microsoft Visual Studio\2019\Professional\VC\Tools\MSVC\14.29.30133\include\xstring
; File C:\Program Files (x86)\Microsoft Visual Studio\2019\Professional\VC\Tools\MSVC\14.29.30133\include\xmemory
;	COMDAT ??$destroy@U?$pair@$$CBV?$basic_string@DU?$char_traits@D@std@@V?$allocator@D@2@@std@@PAVCEterPack@@@std@@@?$_Default_allocator_traits@V?$allocator@U?$ptr_node@U?$pair@$$CBV?$basic_string@DU?$char_traits@D@std@@V?$allocator@D@2@@std@@PAVCEterPack@@@std@@@detail@unordered@boost@@@std@@@std@@SAXAAV?$allocator@U?$ptr_node@U?$pair@$$CBV?$basic_string@DU?$char_traits@D@std@@V?$allocator@D@2@@std@@PAVCEterPack@@@std@@@detail@unordered@boost@@@1@QAU?$pair@$$CBV?$basic_string@DU?$char_traits@D@std@@V?$allocator@D@2@@std@@PAVCEterPack@@@1@@Z
_TEXT	SEGMENT
___formal$ = 8						; size = 4
__Ptr$ = 12						; size = 4
??$destroy@U?$pair@$$CBV?$basic_string@DU?$char_traits@D@std@@V?$allocator@D@2@@std@@PAVCEterPack@@@std@@@?$_Default_allocator_traits@V?$allocator@U?$ptr_node@U?$pair@$$CBV?$basic_string@DU?$char_traits@D@std@@V?$allocator@D@2@@std@@PAVCEterPack@@@std@@@detail@unordered@boost@@@std@@@std@@SAXAAV?$allocator@U?$ptr_node@U?$pair@$$CBV?$basic_string@DU?$char_traits@D@std@@V?$allocator@D@2@@std@@PAVCEterPack@@@std@@@detail@unordered@boost@@@1@QAU?$pair@$$CBV?$basic_string@DU?$char_traits@D@std@@V?$allocator@D@2@@std@@PAVCEterPack@@@1@@Z PROC ; std::_Default_allocator_traits<std::allocator<boost::unordered::detail::ptr_node<std::pair<std::basic_string<char,std::char_traits<char>,std::allocator<char> > const ,CEterPack *> > > >::destroy<std::pair<std::basic_string<char,std::char_traits<char>,std::allocator<char> > const ,CEterPack *> >, COMDAT

; 719  :     static _CONSTEXPR20_DYNALLOC void destroy(_Alloc&, _Uty* const _Ptr) {

  00000	55		 push	 ebp
  00001	8b ec		 mov	 ebp, esp
  00003	56		 push	 esi
; File C:\Program Files (x86)\Microsoft Visual Studio\2019\Professional\VC\Tools\MSVC\14.29.30133\include\xstring

; 2319 :         return _BUF_SIZE <= _Myres;

  00004	8b 75 0c	 mov	 esi, DWORD PTR __Ptr$[ebp]
  00007	8b 4e 14	 mov	 ecx, DWORD PTR [esi+20]
  0000a	83 f9 10	 cmp	 ecx, 16			; 00000010H

; 4618 :         if (_Mypair._Myval2._Large_string_engaged()) {

  0000d	72 27		 jb	 SHORT $LN21@destroy
; File C:\Program Files (x86)\Microsoft Visual Studio\2019\Professional\VC\Tools\MSVC\14.29.30133\include\xmemory

; 835  :         _Deallocate<_New_alignof<_Ty>>(_Ptr, sizeof(_Ty) * _Count);

  0000f	8b 06		 mov	 eax, DWORD PTR [esi]
; File C:\Program Files (x86)\Microsoft Visual Studio\2019\Professional\VC\Tools\MSVC\14.29.30133\include\xstring

; 4622 :             _Al.deallocate(_Ptr, _Mypair._Myval2._Myres + 1);

  00011	41		 inc	 ecx
; File C:\Program Files (x86)\Microsoft Visual Studio\2019\Professional\VC\Tools\MSVC\14.29.30133\include\xmemory

; 260  :         if (_Bytes >= _Big_allocation_threshold) { // boost the alignment of big allocations to help autovectorization

  00012	81 f9 00 10 00
	00		 cmp	 ecx, 4096		; 00001000H
  00018	72 12		 jb	 SHORT $LN31@destroy

; 158  :     const uintptr_t _Ptr_container   = _Ptr_user[-1];

  0001a	8b 50 fc	 mov	 edx, DWORD PTR [eax-4]
  0001d	83 c1 23	 add	 ecx, 35			; 00000023H

; 159  : 
; 160  :     // If the following asserts, it likely means that we are performing
; 161  :     // an aligned delete on memory coming from an unaligned allocation.
; 162  :     _STL_ASSERT(_Ptr_user[-2] == _Big_allocation_sentinel, "invalid argument");
; 163  : 
; 164  :     // Extra paranoia on aligned allocation/deallocation; ensure _Ptr_container is
; 165  :     // in range [_Min_back_shift, _Non_user_size]
; 166  : #ifdef _DEBUG
; 167  :     constexpr uintptr_t _Min_back_shift = 2 * sizeof(void*);
; 168  : #else // ^^^ _DEBUG ^^^ // vvv !_DEBUG vvv
; 169  :     constexpr uintptr_t _Min_back_shift = sizeof(void*);
; 170  : #endif // _DEBUG
; 171  :     const uintptr_t _Back_shift = reinterpret_cast<uintptr_t>(_Ptr) - _Ptr_container;

  00020	2b c2		 sub	 eax, edx

; 172  :     _STL_VERIFY(_Back_shift >= _Min_back_shift && _Back_shift <= _Non_user_size, "invalid argument");

  00022	83 c0 fc	 add	 eax, -4			; fffffffcH
  00025	83 f8 1f	 cmp	 eax, 31			; 0000001fH
  00028	77 20		 ja	 SHORT $LN28@destroy

; 173  :     _Ptr = reinterpret_cast<void*>(_Ptr_container);

  0002a	8b c2		 mov	 eax, edx
$LN31@destroy:

; 264  :         ::operator delete(_Ptr, _Bytes);

  0002c	51		 push	 ecx
  0002d	50		 push	 eax
  0002e	e8 00 00 00 00	 call	 ??3@YAXPAXI@Z		; operator delete
  00033	83 c4 08	 add	 esp, 8
$LN21@destroy:
; File C:\Program Files (x86)\Microsoft Visual Studio\2019\Professional\VC\Tools\MSVC\14.29.30133\include\xstring

; 4633 :             _Mypair._Myval2._Mysize = 0;

  00036	c7 46 10 00 00
	00 00		 mov	 DWORD PTR [esi+16], 0

; 4634 :             _Mypair._Myval2._Myres  = _BUF_SIZE - 1;

  0003d	c7 46 14 0f 00
	00 00		 mov	 DWORD PTR [esi+20], 15	; 0000000fH

; 4635 :             // the _Traits::assign is last so the codegen doesn't think the char write can alias this
; 4636 :             _Traits::assign(_Mypair._Myval2._Bx._Buf[0], _Elem());

  00044	c6 06 00	 mov	 BYTE PTR [esi], 0
  00047	5e		 pop	 esi
; File C:\Program Files (x86)\Microsoft Visual Studio\2019\Professional\VC\Tools\MSVC\14.29.30133\include\xmemory

; 725  :     }

  00048	5d		 pop	 ebp
  00049	c3		 ret	 0
$LN28@destroy:

; 172  :     _STL_VERIFY(_Back_shift >= _Min_back_shift && _Back_shift <= _Non_user_size, "invalid argument");

  0004a	e8 00 00 00 00	 call	 __invalid_parameter_noinfo_noreturn
$LN39@destroy:
  0004f	cc		 int	 3
??$destroy@U?$pair@$$CBV?$basic_string@DU?$char_traits@D@std@@V?$allocator@D@2@@std@@PAVCEterPack@@@std@@@?$_Default_allocator_traits@V?$allocator@U?$ptr_node@U?$pair@$$CBV?$basic_string@DU?$char_traits@D@std@@V?$allocator@D@2@@std@@PAVCEterPack@@@std@@@detail@unordered@boost@@@std@@@std@@SAXAAV?$allocator@U?$ptr_node@U?$pair@$$CBV?$basic_string@DU?$char_traits@D@std@@V?$allocator@D@2@@std@@PAVCEterPack@@@std@@@detail@unordered@boost@@@1@QAU?$pair@$$CBV?$basic_string@DU?$char_traits@D@std@@V?$allocator@D@2@@std@@PAVCEterPack@@@1@@Z ENDP ; std::_Default_allocator_traits<std::allocator<boost::unordered::detail::ptr_node<std::pair<std::basic_string<char,std::char_traits<char>,std::allocator<char> > const ,CEterPack *> > > >::destroy<std::pair<std::basic_string<char,std::char_traits<char>,std::allocator<char> > const ,CEterPack *> >
_TEXT	ENDS
; Function compile flags: /Ogtp
; File C:\Users\murat\Desktop\Siveps2-1-99-Project\source\client\extern\include\boost\unordered\detail\implementation.hpp
; File C:\Program Files (x86)\Microsoft Visual Studio\2019\Professional\VC\Tools\MSVC\14.29.30133\include\xstring
; File C:\Users\murat\Desktop\Siveps2-1-99-Project\source\client\extern\include\boost\unordered\detail\implementation.hpp
;	COMDAT ??$find_node_impl@V?$basic_string@DU?$char_traits@D@std@@V?$allocator@D@2@@std@@U?$equal_to@V?$basic_string@DU?$char_traits@D@std@@V?$allocator@D@2@@std@@@2@@?$table@U?$map@V?$allocator@U?$pair@$$CBV?$basic_string@DU?$char_traits@D@std@@V?$allocator@D@2@@std@@PAVCEterPack@@@std@@@std@@V?$basic_string@DU?$char_traits@D@std@@V?$allocator@D@2@@2@PAVCEterPack@@Ustringhash@@U?$equal_to@V?$basic_string@DU?$char_traits@D@std@@V?$allocator@D@2@@std@@@2@@detail@unordered@boost@@@detail@unordered@boost@@QBEPAU?$ptr_node@U?$pair@$$CBV?$basic_string@DU?$char_traits@D@std@@V?$allocator@D@2@@std@@PAVCEterPack@@@std@@@123@IABV?$basic_string@DU?$char_traits@D@std@@V?$allocator@D@2@@std@@ABU?$equal_to@V?$basic_string@DU?$char_traits@D@std@@V?$allocator@D@2@@std@@@6@@Z
_TEXT	SEGMENT
_bucket_index$1$ = 8					; size = 4
_key_hash$ = 8						; size = 4
_k$ = 12						; size = 4
_eq$ = 16						; size = 4
??$find_node_impl@V?$basic_string@DU?$char_traits@D@std@@V?$allocator@D@2@@std@@U?$equal_to@V?$basic_string@DU?$char_traits@D@std@@V?$allocator@D@2@@std@@@2@@?$table@U?$map@V?$allocator@U?$pair@$$CBV?$basic_string@DU?$char_traits@D@std@@V?$allocator@D@2@@std@@PAVCEterPack@@@std@@@std@@V?$basic_string@DU?$char_traits@D@std@@V?$allocator@D@2@@2@PAVCEterPack@@Ustringhash@@U?$equal_to@V?$basic_string@DU?$char_traits@D@std@@V?$allocator@D@2@@std@@@2@@detail@unordered@boost@@@detail@unordered@boost@@QBEPAU?$ptr_node@U?$pair@$$CBV?$basic_string@DU?$char_traits@D@std@@V?$allocator@D@2@@std@@PAVCEterPack@@@std@@@123@IABV?$basic_string@DU?$char_traits@D@std@@V?$allocator@D@2@@std@@ABU?$equal_to@V?$basic_string@DU?$char_traits@D@std@@V?$allocator@D@2@@std@@@6@@Z PROC ; boost::unordered::detail::table<boost::unordered::detail::map<std::allocator<std::pair<std::basic_string<char,std::char_traits<char>,std::allocator<char> > const ,CEterPack *> >,std::basic_string<char,std::char_traits<char>,std::allocator<char> >,CEterPack *,stringhash,std::equal_to<std::basic_string<char,std::char_traits<char>,std::allocator<char> > > > >::find_node_impl<std::basic_string<char,std::char_traits<char>,std::allocator<char> >,std::equal_to<std::basic_string<char,std::char_traits<char>,std::allocator<char> > > >, COMDAT
; _this$ = ecx

; 3587 :         {

  00000	55		 push	 ebp
  00001	8b ec		 mov	 ebp, esp

; 2604 :           return hash % bucket_count;

  00003	8b 45 08	 mov	 eax, DWORD PTR _key_hash$[ebp]
  00006	33 d2		 xor	 edx, edx
  00008	f7 71 04	 div	 DWORD PTR [ecx+4]

; 3046 :           if (!size_)

  0000b	83 79 08 00	 cmp	 DWORD PTR [ecx+8], 0

; 3587 :         {

  0000f	53		 push	 ebx
  00010	56		 push	 esi
  00011	57		 push	 edi

; 3588 :           std::size_t bucket_index = this->hash_to_bucket(key_hash);

  00012	89 55 08	 mov	 DWORD PTR _bucket_index$1$[ebp], edx

; 3046 :           if (!size_)

  00015	0f 84 c8 00 00
	00		 je	 $LN17@find_node_

; 3036 :           return get_bucket_pointer(bucket_index)->next_;

  0001b	8b 41 14	 mov	 eax, DWORD PTR [ecx+20]
  0001e	8b 04 90	 mov	 eax, DWORD PTR [eax+edx*4]

; 3049 :           return prev ? next_node(prev) : node_pointer();

  00021	85 c0		 test	 eax, eax
  00023	0f 84 ba 00 00
	00		 je	 $LN17@find_node_
  00029	8b 00		 mov	 eax, DWORD PTR [eax]

; 3589 :           node_pointer n = this->begin(bucket_index);
; 3590 : 
; 3591 :           for (;;) {
; 3592 :             if (!n)

  0002b	85 c0		 test	 eax, eax
  0002d	0f 84 b2 00 00
	00		 je	 $LN3@find_node_
; File C:\Program Files (x86)\Microsoft Visual Studio\2019\Professional\VC\Tools\MSVC\14.29.30133\include\xstring

; 2319 :         return _BUF_SIZE <= _Myres;

  00033	8b 5d 0c	 mov	 ebx, DWORD PTR _k$[ebp]

; 4372 :         return _Traits_equal<_Traits>(_Mypair._Myval2._Myptr(), _Mypair._Myval2._Mysize,

  00036	8b 7b 10	 mov	 edi, DWORD PTR [ebx+16]
  00039	0f 1f 80 00 00
	00 00		 npad	 7
$LL2@find_node_:

; 2319 :         return _BUF_SIZE <= _Myres;

  00040	83 78 1c 10	 cmp	 DWORD PTR [eax+28], 16	; 00000010H

; 2305 :         const value_type* _Result = _Bx._Buf;

  00044	8d 70 08	 lea	 esi, DWORD PTR [eax+8]

; 2306 :         if (_Large_string_engaged()) {

  00047	72 03		 jb	 SHORT $LN30@find_node_

; 2307 :             _Result = _Unfancy(_Bx._Ptr);

  00049	8b 70 08	 mov	 esi, DWORD PTR [eax+8]
$LN30@find_node_:

; 2319 :         return _BUF_SIZE <= _Myres;

  0004c	83 7b 14 10	 cmp	 DWORD PTR [ebx+20], 16	; 00000010H

; 2305 :         const value_type* _Result = _Bx._Buf;

  00050	8b d3		 mov	 edx, ebx

; 2306 :         if (_Large_string_engaged()) {

  00052	72 02		 jb	 SHORT $LN35@find_node_

; 2307 :             _Result = _Unfancy(_Bx._Ptr);

  00054	8b 13		 mov	 edx, DWORD PTR [ebx]
$LN35@find_node_:

; 583  :     return _Left_size == _Right_size && _Traits::compare(_Left, _Right, _Left_size) == 0;

  00056	3b 78 18	 cmp	 edi, DWORD PTR [eax+24]
  00059	75 58		 jne	 SHORT $LN41@find_node_

; 392  :         return _CSTD memcmp(_First1, _First2, _Count);

  0005b	83 ef 04	 sub	 edi, 4
  0005e	72 11		 jb	 SHORT $LN72@find_node_
$LL73@find_node_:
  00060	8b 0a		 mov	 ecx, DWORD PTR [edx]
  00062	3b 0e		 cmp	 ecx, DWORD PTR [esi]
  00064	75 10		 jne	 SHORT $LN71@find_node_
  00066	83 c2 04	 add	 edx, 4
  00069	83 c6 04	 add	 esi, 4
  0006c	83 ef 04	 sub	 edi, 4
  0006f	73 ef		 jae	 SHORT $LL73@find_node_
$LN72@find_node_:
  00071	83 ff fc	 cmp	 edi, -4			; fffffffcH
  00074	74 34		 je	 SHORT $LN70@find_node_
$LN71@find_node_:
  00076	8a 0a		 mov	 cl, BYTE PTR [edx]
  00078	3a 0e		 cmp	 cl, BYTE PTR [esi]
  0007a	75 27		 jne	 SHORT $LN74@find_node_
  0007c	83 ff fd	 cmp	 edi, -3			; fffffffdH
  0007f	74 29		 je	 SHORT $LN70@find_node_
  00081	8a 4a 01	 mov	 cl, BYTE PTR [edx+1]
  00084	3a 4e 01	 cmp	 cl, BYTE PTR [esi+1]
  00087	75 1a		 jne	 SHORT $LN74@find_node_
  00089	83 ff fe	 cmp	 edi, -2			; fffffffeH
  0008c	74 1c		 je	 SHORT $LN70@find_node_
  0008e	8a 4a 02	 mov	 cl, BYTE PTR [edx+2]
  00091	3a 4e 02	 cmp	 cl, BYTE PTR [esi+2]
  00094	75 0d		 jne	 SHORT $LN74@find_node_
  00096	83 ff ff	 cmp	 edi, -1
  00099	74 0f		 je	 SHORT $LN70@find_node_
  0009b	8a 4a 03	 mov	 cl, BYTE PTR [edx+3]
  0009e	3a 4e 03	 cmp	 cl, BYTE PTR [esi+3]
  000a1	74 07		 je	 SHORT $LN70@find_node_
$LN74@find_node_:
  000a3	1b c9		 sbb	 ecx, ecx
  000a5	83 c9 01	 or	 ecx, 1
  000a8	eb 02		 jmp	 SHORT $LN75@find_node_
$LN70@find_node_:
  000aa	33 c9		 xor	 ecx, ecx
$LN75@find_node_:

; 583  :     return _Left_size == _Right_size && _Traits::compare(_Left, _Right, _Left_size) == 0;

  000ac	85 c9		 test	 ecx, ecx
  000ae	74 35		 je	 SHORT $LN3@find_node_
  000b0	8b 7b 10	 mov	 edi, DWORD PTR [ebx+16]
$LN41@find_node_:
; File C:\Users\murat\Desktop\Siveps2-1-99-Project\source\client\extern\include\boost\unordered\detail\implementation.hpp

; 4873 :           return bucket_info_ & ((std::size_t)-1 >> 1);

  000b3	8b 48 04	 mov	 ecx, DWORD PTR [eax+4]
  000b6	81 e1 ff ff ff
	7f		 and	 ecx, 2147483647		; 7fffffffH

; 3593 :               return n;
; 3594 : 
; 3595 :             if (eq(k, this->get_key(n))) {
; 3596 :               return n;
; 3597 :             } else if (this->node_bucket(n) != bucket_index) {

  000bc	3b 4d 08	 cmp	 ecx, DWORD PTR _bucket_index$1$[ebp]
  000bf	75 22		 jne	 SHORT $LN17@find_node_
$LL52@find_node_:

; 2971 :             n2 = next_node(n2);

  000c1	8b 00		 mov	 eax, DWORD PTR [eax]

; 2972 :           } while (n2 && !n2->is_first_in_group());

  000c3	85 c0		 test	 eax, eax
  000c5	74 1e		 je	 SHORT $LN3@find_node_

; 4878 :           return !(bucket_info_ & ~((std::size_t)-1 >> 1));

  000c7	8b 48 04	 mov	 ecx, DWORD PTR [eax+4]
  000ca	c1 e9 1f	 shr	 ecx, 31			; 0000001fH
  000cd	f7 d1		 not	 ecx
  000cf	f6 c1 01	 test	 cl, 1

; 2972 :           } while (n2 && !n2->is_first_in_group());

  000d2	74 ed		 je	 SHORT $LL52@find_node_

; 3589 :           node_pointer n = this->begin(bucket_index);
; 3590 : 
; 3591 :           for (;;) {
; 3592 :             if (!n)

  000d4	85 c0		 test	 eax, eax
  000d6	0f 85 64 ff ff
	ff		 jne	 $LL2@find_node_

; 3598 :               return node_pointer();
; 3599 :             }
; 3600 : 
; 3601 :             n = next_for_find(n);
; 3602 :           }
; 3603 :         }

  000dc	5f		 pop	 edi
  000dd	5e		 pop	 esi
  000de	5b		 pop	 ebx
  000df	5d		 pop	 ebp
  000e0	c2 0c 00	 ret	 12			; 0000000cH
$LN17@find_node_:
  000e3	33 c0		 xor	 eax, eax
$LN3@find_node_:
  000e5	5f		 pop	 edi
  000e6	5e		 pop	 esi
  000e7	5b		 pop	 ebx
  000e8	5d		 pop	 ebp
  000e9	c2 0c 00	 ret	 12			; 0000000cH
??$find_node_impl@V?$basic_string@DU?$char_traits@D@std@@V?$allocator@D@2@@std@@U?$equal_to@V?$basic_string@DU?$char_traits@D@std@@V?$allocator@D@2@@std@@@2@@?$table@U?$map@V?$allocator@U?$pair@$$CBV?$basic_string@DU?$char_traits@D@std@@V?$allocator@D@2@@std@@PAVCEterPack@@@std@@@std@@V?$basic_string@DU?$char_traits@D@std@@V?$allocator@D@2@@2@PAVCEterPack@@Ustringhash@@U?$equal_to@V?$basic_string@DU?$char_traits@D@std@@V?$allocator@D@2@@std@@@2@@detail@unordered@boost@@@detail@unordered@boost@@QBEPAU?$ptr_node@U?$pair@$$CBV?$basic_string@DU?$char_traits@D@std@@V?$allocator@D@2@@std@@PAVCEterPack@@@std@@@123@IABV?$basic_string@DU?$char_traits@D@std@@V?$allocator@D@2@@std@@ABU?$equal_to@V?$basic_string@DU?$char_traits@D@std@@V?$allocator@D@2@@std@@@6@@Z ENDP ; boost::unordered::detail::table<boost::unordered::detail::map<std::allocator<std::pair<std::basic_string<char,std::char_traits<char>,std::allocator<char> > const ,CEterPack *> >,std::basic_string<char,std::char_traits<char>,std::allocator<char> >,CEterPack *,stringhash,std::equal_to<std::basic_string<char,std::char_traits<char>,std::allocator<char> > > > >::find_node_impl<std::basic_string<char,std::char_traits<char>,std::allocator<char> >,std::equal_to<std::basic_string<char,std::char_traits<char>,std::allocator<char> > > >
_TEXT	ENDS
; Function compile flags: /Ogtp
; File C:\Users\murat\Desktop\Siveps2-1-99-Project\source\client\extern\include\boost\unordered\detail\implementation.hpp
; File C:\Program Files (x86)\Microsoft Visual Studio\2019\Professional\VC\Tools\MSVC\14.29.30133\include\xutility
; File C:\Program Files (x86)\Microsoft Visual Studio\2019\Professional\VC\Tools\MSVC\14.29.30133\include\xstddef
; File C:\Program Files (x86)\Microsoft Visual Studio\2019\Professional\VC\Tools\MSVC\14.29.30133\include\xutility
; File C:\Users\murat\Desktop\Siveps2-1-99-Project\source\client\extern\include\boost\unordered\detail\implementation.hpp
;	COMDAT ?new_bucket_count@?$prime_policy@I@detail@unordered@boost@@SAII@Z
_TEXT	SEGMENT
_min$ = 8						; size = 4
?new_bucket_count@?$prime_policy@I@detail@unordered@boost@@SAII@Z PROC ; boost::unordered::detail::prime_policy<unsigned int>::new_bucket_count, COMDAT

; 2608 :         {

  00000	55		 push	 ebp
  00001	8b ec		 mov	 ebp, esp
  00003	56		 push	 esi
  00004	57		 push	 edi
; File C:\Program Files (x86)\Microsoft Visual Studio\2019\Professional\VC\Tools\MSVC\14.29.30133\include\xutility

; 5757 :     _Iter_diff_t<_FwdIt> _Count = _STD distance(_UFirst, _Get_unwrapped(_Last));

  00005	8b 7d 08	 mov	 edi, DWORD PTR _min$[ebp]
  00008	be 00 00 00 00	 mov	 esi, OFFSET ?value@?$prime_list_template@I@detail@unordered@boost@@2QBIB ; boost::unordered::detail::prime_list_template<unsigned int>::value
  0000d	b8 26 00 00 00	 mov	 eax, 38			; 00000026H
$LL9@new_bucket:

; 5760 :         const _Iter_diff_t<_FwdIt> _Count2 = _Count / 2;

  00012	8b d0		 mov	 edx, eax
  00014	d1 ea		 shr	 edx, 1
; File C:\Program Files (x86)\Microsoft Visual Studio\2019\Professional\VC\Tools\MSVC\14.29.30133\include\xstddef

; 240  :         return static_cast<_Ty1&&>(_Left) < static_cast<_Ty2&&>(_Right);

  00016	39 3c 96	 cmp	 DWORD PTR [esi+edx*4], edi
; File C:\Program Files (x86)\Microsoft Visual Studio\2019\Professional\VC\Tools\MSVC\14.29.30133\include\xutility

; 1561 :         _Where += _Off;

  00019	8d 0c 96	 lea	 ecx, DWORD PTR [esi+edx*4]

; 5762 :         if (_Pred(*_UMid, _Val)) { // try top half

  0001c	73 0c		 jae	 SHORT $LN11@new_bucket

; 5763 :             _UFirst = _Next_iter(_UMid);

  0001e	8d 71 04	 lea	 esi, DWORD PTR [ecx+4]

; 5764 :             _Count -= _Count2 + 1;

  00021	83 c9 ff	 or	 ecx, -1
  00024	2b ca		 sub	 ecx, edx
  00026	03 c1		 add	 eax, ecx

; 5765 :         } else {

  00028	eb 02		 jmp	 SHORT $LN12@new_bucket
$LN11@new_bucket:

; 5766 :             _Count = _Count2;

  0002a	8b c2		 mov	 eax, edx
$LN12@new_bucket:

; 5758 : 
; 5759 :     while (0 < _Count) { // divide and conquer, find half that contains answer

  0002c	85 c0		 test	 eax, eax
  0002e	7f e2		 jg	 SHORT $LL9@new_bucket
; File C:\Users\murat\Desktop\Siveps2-1-99-Project\source\client\extern\include\boost\unordered\detail\implementation.hpp

; 2609 :           return boost::unordered::detail::next_prime(min);

  00030	81 fe 98 00 00
	00		 cmp	 esi, OFFSET ?value@?$prime_list_template@I@detail@unordered@boost@@2QBIB+152
  00036	8d 46 fc	 lea	 eax, DWORD PTR [esi-4]
  00039	5f		 pop	 edi
  0003a	0f 45 c6	 cmovne	 eax, esi
  0003d	5e		 pop	 esi
  0003e	8b 00		 mov	 eax, DWORD PTR [eax]

; 2610 :         }

  00040	5d		 pop	 ebp
  00041	c3		 ret	 0
?new_bucket_count@?$prime_policy@I@detail@unordered@boost@@SAII@Z ENDP ; boost::unordered::detail::prime_policy<unsigned int>::new_bucket_count
_TEXT	ENDS
; Function compile flags: /Ogtp
; File C:\Users\murat\Desktop\Siveps2-1-99-Project\source\client\extern\include\boost\unordered\detail\implementation.hpp
; File C:\Program Files (x86)\Microsoft Visual Studio\2019\Professional\VC\Tools\MSVC\14.29.30133\include\xstddef
; File C:\Users\murat\Desktop\Siveps2-1-99-Project\source\client\extern\include\boost\unordered\detail\implementation.hpp
;	COMDAT ??$find_node_impl@KU?$equal_to@K@std@@@?$table@U?$map@V?$allocator@U?$pair@$$CBKUSCache@CEterPackManager@@@std@@@std@@KUSCache@CEterPackManager@@U?$hash@K@boost@@U?$equal_to@K@2@@detail@unordered@boost@@@detail@unordered@boost@@QBEPAU?$ptr_node@U?$pair@$$CBKUSCache@CEterPackManager@@@std@@@123@IABKABU?$equal_to@K@std@@@Z
_TEXT	SEGMENT
_key_hash$ = 8						; size = 4
_k$ = 12						; size = 4
_eq$ = 16						; size = 4
??$find_node_impl@KU?$equal_to@K@std@@@?$table@U?$map@V?$allocator@U?$pair@$$CBKUSCache@CEterPackManager@@@std@@@std@@KUSCache@CEterPackManager@@U?$hash@K@boost@@U?$equal_to@K@2@@detail@unordered@boost@@@detail@unordered@boost@@QBEPAU?$ptr_node@U?$pair@$$CBKUSCache@CEterPackManager@@@std@@@123@IABKABU?$equal_to@K@std@@@Z PROC ; boost::unordered::detail::table<boost::unordered::detail::map<std::allocator<std::pair<unsigned long const ,CEterPackManager::SCache> >,unsigned long,CEterPackManager::SCache,boost::hash<unsigned long>,std::equal_to<unsigned long> > >::find_node_impl<unsigned long,std::equal_to<unsigned long> >, COMDAT
; _this$ = ecx

; 3587 :         {

  00000	55		 push	 ebp
  00001	8b ec		 mov	 ebp, esp

; 2604 :           return hash % bucket_count;

  00003	8b 45 08	 mov	 eax, DWORD PTR _key_hash$[ebp]
  00006	33 d2		 xor	 edx, edx
  00008	f7 71 04	 div	 DWORD PTR [ecx+4]

; 3046 :           if (!size_)

  0000b	83 79 08 00	 cmp	 DWORD PTR [ecx+8], 0

; 3587 :         {

  0000f	56		 push	 esi

; 3588 :           std::size_t bucket_index = this->hash_to_bucket(key_hash);

  00010	8b f2		 mov	 esi, edx

; 3046 :           if (!size_)

  00012	74 4a		 je	 SHORT $LN17@find_node_

; 3036 :           return get_bucket_pointer(bucket_index)->next_;

  00014	8b 41 14	 mov	 eax, DWORD PTR [ecx+20]
  00017	8b 04 b0	 mov	 eax, DWORD PTR [eax+esi*4]

; 3049 :           return prev ? next_node(prev) : node_pointer();

  0001a	85 c0		 test	 eax, eax
  0001c	74 40		 je	 SHORT $LN17@find_node_
  0001e	8b 00		 mov	 eax, DWORD PTR [eax]

; 3589 :           node_pointer n = this->begin(bucket_index);
; 3590 : 
; 3591 :           for (;;) {
; 3592 :             if (!n)

  00020	85 c0		 test	 eax, eax
  00022	74 3c		 je	 SHORT $LN3@find_node_
; File C:\Program Files (x86)\Microsoft Visual Studio\2019\Professional\VC\Tools\MSVC\14.29.30133\include\xstddef

; 91   :         return _Left == _Right;

  00024	8b 4d 0c	 mov	 ecx, DWORD PTR _k$[ebp]
  00027	8b 11		 mov	 edx, DWORD PTR [ecx]
  00029	0f 1f 80 00 00
	00 00		 npad	 7
$LL2@find_node_:
  00030	3b 50 08	 cmp	 edx, DWORD PTR [eax+8]
; File C:\Users\murat\Desktop\Siveps2-1-99-Project\source\client\extern\include\boost\unordered\detail\implementation.hpp

; 3595 :             if (eq(k, this->get_key(n))) {

  00033	74 2b		 je	 SHORT $LN3@find_node_

; 4873 :           return bucket_info_ & ((std::size_t)-1 >> 1);

  00035	8b 48 04	 mov	 ecx, DWORD PTR [eax+4]
  00038	81 e1 ff ff ff
	7f		 and	 ecx, 2147483647		; 7fffffffH

; 3596 :               return n;
; 3597 :             } else if (this->node_bucket(n) != bucket_index) {

  0003e	3b ce		 cmp	 ecx, esi
  00040	75 1c		 jne	 SHORT $LN17@find_node_
$LL32@find_node_:

; 2971 :             n2 = next_node(n2);

  00042	8b 00		 mov	 eax, DWORD PTR [eax]

; 2972 :           } while (n2 && !n2->is_first_in_group());

  00044	85 c0		 test	 eax, eax
  00046	74 18		 je	 SHORT $LN3@find_node_

; 4878 :           return !(bucket_info_ & ~((std::size_t)-1 >> 1));

  00048	8b 48 04	 mov	 ecx, DWORD PTR [eax+4]
  0004b	c1 e9 1f	 shr	 ecx, 31			; 0000001fH
  0004e	f7 d1		 not	 ecx
  00050	f6 c1 01	 test	 cl, 1

; 2972 :           } while (n2 && !n2->is_first_in_group());

  00053	74 ed		 je	 SHORT $LL32@find_node_

; 3589 :           node_pointer n = this->begin(bucket_index);
; 3590 : 
; 3591 :           for (;;) {
; 3592 :             if (!n)

  00055	85 c0		 test	 eax, eax
  00057	75 d7		 jne	 SHORT $LL2@find_node_
  00059	5e		 pop	 esi

; 3598 :               return node_pointer();
; 3599 :             }
; 3600 : 
; 3601 :             n = next_for_find(n);
; 3602 :           }
; 3603 :         }

  0005a	5d		 pop	 ebp
  0005b	c2 0c 00	 ret	 12			; 0000000cH
$LN17@find_node_:
  0005e	33 c0		 xor	 eax, eax
$LN3@find_node_:
  00060	5e		 pop	 esi
  00061	5d		 pop	 ebp
  00062	c2 0c 00	 ret	 12			; 0000000cH
??$find_node_impl@KU?$equal_to@K@std@@@?$table@U?$map@V?$allocator@U?$pair@$$CBKUSCache@CEterPackManager@@@std@@@std@@KUSCache@CEterPackManager@@U?$hash@K@boost@@U?$equal_to@K@2@@detail@unordered@boost@@@detail@unordered@boost@@QBEPAU?$ptr_node@U?$pair@$$CBKUSCache@CEterPackManager@@@std@@@123@IABKABU?$equal_to@K@std@@@Z ENDP ; boost::unordered::detail::table<boost::unordered::detail::map<std::allocator<std::pair<unsigned long const ,CEterPackManager::SCache> >,unsigned long,CEterPackManager::SCache,boost::hash<unsigned long>,std::equal_to<unsigned long> > >::find_node_impl<unsigned long,std::equal_to<unsigned long> >
_TEXT	ENDS
; Function compile flags: /Ogtp
; File C:\Program Files (x86)\Microsoft Visual Studio\2019\Professional\VC\Tools\MSVC\14.29.30133\include\xmemory
;	COMDAT ??$_Allocate_manually_vector_aligned@U_Default_allocate_traits@std@@@std@@YAPAXI@Z
_TEXT	SEGMENT
__Bytes$ = 8						; size = 4
??$_Allocate_manually_vector_aligned@U_Default_allocate_traits@std@@@std@@YAPAXI@Z PROC ; std::_Allocate_manually_vector_aligned<std::_Default_allocate_traits>, COMDAT

; 134  : __declspec(allocator) void* _Allocate_manually_vector_aligned(const size_t _Bytes) {

  00000	55		 push	 ebp
  00001	8b ec		 mov	 ebp, esp

; 135  :     // allocate _Bytes manually aligned to at least _Big_allocation_alignment
; 136  :     const size_t _Block_size = _Non_user_size + _Bytes;

  00003	8b 45 08	 mov	 eax, DWORD PTR __Bytes$[ebp]
  00006	8d 48 23	 lea	 ecx, DWORD PTR [eax+35]

; 137  :     if (_Block_size <= _Bytes) {

  00009	3b c8		 cmp	 ecx, eax
  0000b	0f 86 00 00 00
	00		 jbe	 ?_Throw_bad_array_new_length@std@@YAXXZ ; std::_Throw_bad_array_new_length

; 85   :         return ::operator new(_Bytes);

  00011	51		 push	 ecx
  00012	e8 00 00 00 00	 call	 ??2@YAPAXI@Z		; operator new

; 138  :         _Throw_bad_array_new_length(); // add overflow
; 139  :     }
; 140  : 
; 141  :     const uintptr_t _Ptr_container = reinterpret_cast<uintptr_t>(_Traits::_Allocate(_Block_size));

  00017	8b c8		 mov	 ecx, eax

; 85   :         return ::operator new(_Bytes);

  00019	83 c4 04	 add	 esp, 4

; 142  :     _STL_VERIFY(_Ptr_container != 0, "invalid argument"); // validate even in release since we're doing p[-1]

  0001c	85 c9		 test	 ecx, ecx
  0001e	74 0b		 je	 SHORT $LN7@Allocate_m

; 143  :     void* const _Ptr = reinterpret_cast<void*>((_Ptr_container + _Non_user_size) & ~(_Big_allocation_alignment - 1));

  00020	8d 41 23	 lea	 eax, DWORD PTR [ecx+35]
  00023	83 e0 e0	 and	 eax, -32		; ffffffe0H

; 144  :     static_cast<uintptr_t*>(_Ptr)[-1] = _Ptr_container;

  00026	89 48 fc	 mov	 DWORD PTR [eax-4], ecx

; 145  : 
; 146  : #ifdef _DEBUG
; 147  :     static_cast<uintptr_t*>(_Ptr)[-2] = _Big_allocation_sentinel;
; 148  : #endif // _DEBUG
; 149  :     return _Ptr;
; 150  : }

  00029	5d		 pop	 ebp
  0002a	c3		 ret	 0
$LN7@Allocate_m:

; 142  :     _STL_VERIFY(_Ptr_container != 0, "invalid argument"); // validate even in release since we're doing p[-1]

  0002b	e9 00 00 00 00	 jmp	 __invalid_parameter_noinfo_noreturn
??$_Allocate_manually_vector_aligned@U_Default_allocate_traits@std@@@std@@YAPAXI@Z ENDP ; std::_Allocate_manually_vector_aligned<std::_Default_allocate_traits>
_TEXT	ENDS
; Function compile flags: /Ogtp
; File C:\Program Files (x86)\Microsoft Visual Studio\2019\Professional\VC\Tools\MSVC\14.29.30133\include\xmemory
;	COMDAT ??1?$_Alloc_construct_ptr@V?$allocator@U?$_List_node@PAVCEterPack@@PAX@std@@@std@@@std@@QAE@XZ
_TEXT	SEGMENT
??1?$_Alloc_construct_ptr@V?$allocator@U?$_List_node@PAVCEterPack@@PAX@std@@@std@@@std@@QAE@XZ PROC ; std::_Alloc_construct_ptr<std::allocator<std::_List_node<CEterPack *,void *> > >::~_Alloc_construct_ptr<std::allocator<std::_List_node<CEterPack *,void *> > >, COMDAT
; _this$ = ecx

; 1024 :         if (_Ptr) {

  00000	8b 41 04	 mov	 eax, DWORD PTR [ecx+4]
  00003	85 c0		 test	 eax, eax
  00005	74 0b		 je	 SHORT $LN8@Alloc_cons

; 264  :         ::operator delete(_Ptr, _Bytes);

  00007	6a 0c		 push	 12			; 0000000cH
  00009	50		 push	 eax
  0000a	e8 00 00 00 00	 call	 ??3@YAXPAXI@Z		; operator delete
  0000f	83 c4 08	 add	 esp, 8
$LN8@Alloc_cons:

; 1025 :             _Al.deallocate(_Ptr, 1);
; 1026 :         }
; 1027 :     }

  00012	c3		 ret	 0
??1?$_Alloc_construct_ptr@V?$allocator@U?$_List_node@PAVCEterPack@@PAX@std@@@std@@@std@@QAE@XZ ENDP ; std::_Alloc_construct_ptr<std::allocator<std::_List_node<CEterPack *,void *> > >::~_Alloc_construct_ptr<std::allocator<std::_List_node<CEterPack *,void *> > >
_TEXT	ENDS
; Function compile flags: /Ogtp
; File C:\Users\murat\Desktop\Siveps2-1-99-Project\source\client\extern\include\boost\unordered\detail\implementation.hpp
; File C:\Program Files (x86)\Microsoft Visual Studio\2019\Professional\VC\Tools\MSVC\14.29.30133\include\xstring
; File C:\Users\murat\Desktop\Siveps2-1-99-Project\source\client\Client\eterBase\Stl.h
; File C:\Users\murat\Desktop\Siveps2-1-99-Project\source\client\extern\include\boost\unordered\detail\implementation.hpp
; File C:\Program Files (x86)\Microsoft Visual Studio\2019\Professional\VC\Tools\MSVC\14.29.30133\include\utility
; File C:\Users\murat\Desktop\Siveps2-1-99-Project\source\client\extern\include\boost\unordered\detail\implementation.hpp
; File C:\Program Files (x86)\Microsoft Visual Studio\2019\Professional\VC\Tools\MSVC\14.29.30133\include\utility
; File C:\Users\murat\Desktop\Siveps2-1-99-Project\source\client\extern\include\boost\unordered\detail\implementation.hpp
; File C:\Program Files (x86)\Microsoft Visual Studio\2019\Professional\VC\Tools\MSVC\14.29.30133\include\utility
; File C:\Users\murat\Desktop\Siveps2-1-99-Project\source\client\extern\include\boost\unordered\detail\implementation.hpp
; File C:\Program Files (x86)\Microsoft Visual Studio\2019\Professional\VC\Tools\MSVC\14.29.30133\include\utility
; File C:\Users\murat\Desktop\Siveps2-1-99-Project\source\client\extern\include\boost\unordered\detail\implementation.hpp
; File C:\Program Files (x86)\Microsoft Visual Studio\2019\Professional\VC\Tools\MSVC\14.29.30133\include\utility
; File C:\Users\murat\Desktop\Siveps2-1-99-Project\source\client\extern\include\boost\unordered\detail\implementation.hpp
; File C:\Program Files (x86)\Microsoft Visual Studio\2019\Professional\VC\Tools\MSVC\14.29.30133\include\utility
; File C:\Users\murat\Desktop\Siveps2-1-99-Project\source\client\extern\include\boost\unordered\detail\implementation.hpp
; File C:\Program Files (x86)\Microsoft Visual Studio\2019\Professional\VC\Tools\MSVC\14.29.30133\include\utility
; File C:\Users\murat\Desktop\Siveps2-1-99-Project\source\client\extern\include\boost\unordered\detail\implementation.hpp
; File C:\Program Files (x86)\Microsoft Visual Studio\2019\Professional\VC\Tools\MSVC\14.29.30133\include\utility
; File C:\Users\murat\Desktop\Siveps2-1-99-Project\source\client\extern\include\boost\unordered\detail\implementation.hpp
;	COMDAT ??$emplace_unique@U?$pair@$$CBV?$basic_string@DU?$char_traits@D@std@@V?$allocator@D@2@@std@@PAVCEterPack@@@std@@@?$table@U?$map@V?$allocator@U?$pair@$$CBV?$basic_string@DU?$char_traits@D@std@@V?$allocator@D@2@@std@@PAVCEterPack@@@std@@@std@@V?$basic_string@DU?$char_traits@D@std@@V?$allocator@D@2@@2@PAVCEterPack@@Ustringhash@@U?$equal_to@V?$basic_string@DU?$char_traits@D@std@@V?$allocator@D@2@@std@@@2@@detail@unordered@boost@@@detail@unordered@boost@@QAE?AU?$pair@U?$iterator@U?$ptr_node@U?$pair@$$CBV?$basic_string@DU?$char_traits@D@std@@V?$allocator@D@2@@std@@PAVCEterPack@@@std@@@detail@unordered@boost@@@iterator_detail@unordered@boost@@_N@std@@ABV?$basic_string@DU?$char_traits@D@std@@V?$allocator@D@2@@5@$$QAU?$pair@$$CBV?$basic_string@DU?$char_traits@D@std@@V?$allocator@D@2@@std@@PAVCEterPack@@@5@@Z
_TEXT	SEGMENT
_b$2 = -28						; size = 8
_a$3 = -28						; size = 8
_this$1$ = -20						; size = 4
__$EHRec$ = -12						; size = 12
___$ReturnUdt$ = 8					; size = 4
_h$1$ = 12						; size = 4
_k$ = 12						; size = 4
_<args_0>$ = 16						; size = 4
??$emplace_unique@U?$pair@$$CBV?$basic_string@DU?$char_traits@D@std@@V?$allocator@D@2@@std@@PAVCEterPack@@@std@@@?$table@U?$map@V?$allocator@U?$pair@$$CBV?$basic_string@DU?$char_traits@D@std@@V?$allocator@D@2@@std@@PAVCEterPack@@@std@@@std@@V?$basic_string@DU?$char_traits@D@std@@V?$allocator@D@2@@2@PAVCEterPack@@Ustringhash@@U?$equal_to@V?$basic_string@DU?$char_traits@D@std@@V?$allocator@D@2@@std@@@2@@detail@unordered@boost@@@detail@unordered@boost@@QAE?AU?$pair@U?$iterator@U?$ptr_node@U?$pair@$$CBV?$basic_string@DU?$char_traits@D@std@@V?$allocator@D@2@@std@@PAVCEterPack@@@std@@@detail@unordered@boost@@@iterator_detail@unordered@boost@@_N@std@@ABV?$basic_string@DU?$char_traits@D@std@@V?$allocator@D@2@@5@$$QAU?$pair@$$CBV?$basic_string@DU?$char_traits@D@std@@V?$allocator@D@2@@std@@PAVCEterPack@@@5@@Z PROC ; boost::unordered::detail::table<boost::unordered::detail::map<std::allocator<std::pair<std::basic_string<char,std::char_traits<char>,std::allocator<char> > const ,CEterPack *> >,std::basic_string<char,std::char_traits<char>,std::allocator<char> >,CEterPack *,stringhash,std::equal_to<std::basic_string<char,std::char_traits<char>,std::allocator<char> > > > >::emplace_unique<std::pair<std::basic_string<char,std::char_traits<char>,std::allocator<char> > const ,CEterPack *> >, COMDAT
; _this$ = ecx

; 3735 :         {

  00000	55		 push	 ebp
  00001	8b ec		 mov	 ebp, esp
  00003	6a ff		 push	 -1
  00005	68 00 00 00 00	 push	 __ehhandler$??$emplace_unique@U?$pair@$$CBV?$basic_string@DU?$char_traits@D@std@@V?$allocator@D@2@@std@@PAVCEterPack@@@std@@@?$table@U?$map@V?$allocator@U?$pair@$$CBV?$basic_string@DU?$char_traits@D@std@@V?$allocator@D@2@@std@@PAVCEterPack@@@std@@@std@@V?$basic_string@DU?$char_traits@D@std@@V?$allocator@D@2@@2@PAVCEterPack@@Ustringhash@@U?$equal_to@V?$basic_string@DU?$char_traits@D@std@@V?$allocator@D@2@@std@@@2@@detail@unordered@boost@@@detail@unordered@boost@@QAE?AU?$pair@U?$iterator@U?$ptr_node@U?$pair@$$CBV?$basic_string@DU?$char_traits@D@std@@V?$allocator@D@2@@std@@PAVCEterPack@@@std@@@detail@unordered@boost@@@iterator_detail@unordered@boost@@_N@std@@ABV?$basic_string@DU?$char_traits@D@std@@V?$allocator@D@2@@5@$$QAU?$pair@$$CBV?$basic_string@DU?$char_traits@D@std@@V?$allocator@D@2@@std@@PAVCEterPack@@@5@@Z
  0000a	64 a1 00 00 00
	00		 mov	 eax, DWORD PTR fs:0
  00010	50		 push	 eax
  00011	83 ec 10	 sub	 esp, 16			; 00000010H
  00014	53		 push	 ebx
  00015	56		 push	 esi
  00016	57		 push	 edi
  00017	a1 00 00 00 00	 mov	 eax, DWORD PTR ___security_cookie
  0001c	33 c5		 xor	 eax, ebp
  0001e	50		 push	 eax
  0001f	8d 45 f4	 lea	 eax, DWORD PTR __$EHRec$[ebp]
  00022	64 a3 00 00 00
	00		 mov	 DWORD PTR fs:0, eax
  00028	8b f1		 mov	 esi, ecx
  0002a	89 75 ec	 mov	 DWORD PTR _this$1$[ebp], esi
; File C:\Program Files (x86)\Microsoft Visual Studio\2019\Professional\VC\Tools\MSVC\14.29.30133\include\xstring

; 2305 :         const value_type* _Result = _Bx._Buf;

  0002d	8b 7d 0c	 mov	 edi, DWORD PTR _k$[ebp]
  00030	8b d7		 mov	 edx, edi

; 2306 :         if (_Large_string_engaged()) {

  00032	83 7f 14 10	 cmp	 DWORD PTR [edi+20], 16	; 00000010H
  00036	72 02		 jb	 SHORT $LN22@emplace_un

; 2307 :             _Result = _Unfancy(_Bx._Ptr);

  00038	8b 17		 mov	 edx, DWORD PTR [edi]
$LN22@emplace_un:
; File C:\Users\murat\Desktop\Siveps2-1-99-Project\source\client\Client\eterBase\Stl.h

; 478  :        const unsigned char * end = s + str.size();

  0003a	8b 4f 10	 mov	 ecx, DWORD PTR [edi+16]

; 479  :        size_t h = 0;

  0003d	33 db		 xor	 ebx, ebx
  0003f	03 ca		 add	 ecx, edx
  00041	89 5d 0c	 mov	 DWORD PTR _h$1$[ebp], ebx

; 480  : 
; 481  :        while (s < end)

  00044	3b d1		 cmp	 edx, ecx
  00046	73 1b		 jae	 SHORT $LN17@emplace_un
  00048	0f 1f 84 00 00
	00 00 00	 npad	 8
$LL112@emplace_un:

; 482  :        {
; 483  :            h *= 16777619;
; 484  :            h ^= (unsigned char) *(unsigned char *) (s++);

  00050	0f b6 02	 movzx	 eax, BYTE PTR [edx]
  00053	42		 inc	 edx
  00054	69 db 93 01 00
	01		 imul	 ebx, ebx, 16777619
  0005a	33 d8		 xor	 ebx, eax
  0005c	3b d1		 cmp	 edx, ecx
  0005e	72 f0		 jb	 SHORT $LL112@emplace_un
  00060	89 5d 0c	 mov	 DWORD PTR _h$1$[ebp], ebx
$LN17@emplace_un:
; File C:\Users\murat\Desktop\Siveps2-1-99-Project\source\client\extern\include\boost\unordered\detail\implementation.hpp

; 2791 :           return *static_cast<function_pair const*>(

  00063	0f b6 06	 movzx	 eax, BYTE PTR [esi]
  00066	8d 4e 01	 lea	 ecx, DWORD PTR [esi+1]
  00069	83 e0 01	 and	 eax, 1
  0006c	03 c8		 add	 ecx, eax

; 3576 :           return this->find_node_impl(key_hash, k, this->key_eq());

  0006e	8d 41 01	 lea	 eax, DWORD PTR [ecx+1]
  00071	f7 d9		 neg	 ecx
  00073	1b c9		 sbb	 ecx, ecx
  00075	23 c8		 and	 ecx, eax
  00077	51		 push	 ecx
  00078	57		 push	 edi
  00079	53		 push	 ebx
  0007a	8b ce		 mov	 ecx, esi
  0007c	e8 00 00 00 00	 call	 ??$find_node_impl@V?$basic_string@DU?$char_traits@D@std@@V?$allocator@D@2@@std@@U?$equal_to@V?$basic_string@DU?$char_traits@D@std@@V?$allocator@D@2@@std@@@2@@?$table@U?$map@V?$allocator@U?$pair@$$CBV?$basic_string@DU?$char_traits@D@std@@V?$allocator@D@2@@std@@PAVCEterPack@@@std@@@std@@V?$basic_string@DU?$char_traits@D@std@@V?$allocator@D@2@@2@PAVCEterPack@@Ustringhash@@U?$equal_to@V?$basic_string@DU?$char_traits@D@std@@V?$allocator@D@2@@std@@@2@@detail@unordered@boost@@@detail@unordered@boost@@QBEPAU?$ptr_node@U?$pair@$$CBV?$basic_string@DU?$char_traits@D@std@@V?$allocator@D@2@@std@@PAVCEterPack@@@std@@@123@IABV?$basic_string@DU?$char_traits@D@std@@V?$allocator@D@2@@std@@ABU?$equal_to@V?$basic_string@DU?$char_traits@D@std@@V?$allocator@D@2@@std@@@6@@Z ; boost::unordered::detail::table<boost::unordered::detail::map<std::allocator<std::pair<std::basic_string<char,std::char_traits<char>,std::allocator<char> > const ,CEterPack *> >,std::basic_string<char,std::char_traits<char>,std::allocator<char> >,CEterPack *,stringhash,std::equal_to<std::basic_string<char,std::char_traits<char>,std::allocator<char> > > > >::find_node_impl<std::basic_string<char,std::char_traits<char>,std::allocator<char> >,std::equal_to<std::basic_string<char,std::char_traits<char>,std::allocator<char> > > >

; 3736 :           std::size_t key_hash = this->hash(k);
; 3737 :           node_pointer pos = this->find_node(key_hash, k);

  00081	8b c8		 mov	 ecx, eax

; 3738 :           if (pos) {

  00083	85 c9		 test	 ecx, ecx
  00085	74 1d		 je	 SHORT $LN2@emplace_un
; File C:\Program Files (x86)\Microsoft Visual Studio\2019\Professional\VC\Tools\MSVC\14.29.30133\include\utility

; 193  :         : first(_STD forward<_Other1>(_Val1)), second(_STD forward<_Other2>(_Val2)) {}

  00087	8b 45 08	 mov	 eax, DWORD PTR ___$ReturnUdt$[ebp]
  0008a	89 08		 mov	 DWORD PTR [eax], ecx
  0008c	c6 40 04 00	 mov	 BYTE PTR [eax+4], 0
; File C:\Users\murat\Desktop\Siveps2-1-99-Project\source\client\extern\include\boost\unordered\detail\implementation.hpp

; 3748 :         }

  00090	8b 4d f4	 mov	 ecx, DWORD PTR __$EHRec$[ebp]
  00093	64 89 0d 00 00
	00 00		 mov	 DWORD PTR fs:0, ecx
  0009a	59		 pop	 ecx
  0009b	5f		 pop	 edi
  0009c	5e		 pop	 esi
  0009d	5b		 pop	 ebx
  0009e	8b e5		 mov	 esp, ebp
  000a0	5d		 pop	 ebp
  000a1	c2 0c 00	 ret	 12			; 0000000cH
$LN2@emplace_un:

; 3014 :         node_allocator& node_alloc() { return allocators_.second(); }

  000a4	8d 5e 03	 lea	 ebx, DWORD PTR [esi+3]

; 1946 :         node_constructor(node_allocator& n) : alloc_(n), node_() {}

  000a7	c7 45 e8 00 00
	00 00		 mov	 DWORD PTR _a$3[ebp+4], 0
  000ae	8d 43 01	 lea	 eax, DWORD PTR [ebx+1]
  000b1	f7 db		 neg	 ebx
  000b3	1b db		 sbb	 ebx, ebx
  000b5	23 d8		 and	 ebx, eax
  000b7	89 5d e4	 mov	 DWORD PTR _a$3[ebp], ebx

; 2039 :           a.create_node();

  000ba	8d 4d e4	 lea	 ecx, DWORD PTR _a$3[ebp]
  000bd	c7 45 fc 00 00
	00 00		 mov	 DWORD PTR __$EHRec$[ebp+8], 0
  000c4	e8 00 00 00 00	 call	 ?create_node@?$node_constructor@V?$allocator@U?$ptr_node@U?$pair@$$CBV?$basic_string@DU?$char_traits@D@std@@V?$allocator@D@2@@std@@PAVCEterPack@@@std@@@detail@unordered@boost@@@std@@@detail@unordered@boost@@QAEXXZ ; boost::unordered::detail::node_constructor<std::allocator<boost::unordered::detail::ptr_node<std::pair<std::basic_string<char,std::char_traits<char>,std::allocator<char> > const ,CEterPack *> > > >::create_node

; 2040 :           construct_from_args(

  000c9	8b 7d e8	 mov	 edi, DWORD PTR _a$3[ebp+4]
; File C:\Program Files (x86)\Microsoft Visual Studio\2019\Professional\VC\Tools\MSVC\14.29.30133\include\utility

; 213  :     pair(pair&&)      = default;

  000cc	8b 75 10	 mov	 esi, DWORD PTR _<args_0>$[ebp]
  000cf	56		 push	 esi
  000d0	8d 4f 08	 lea	 ecx, DWORD PTR [edi+8]
  000d3	e8 00 00 00 00	 call	 ??0?$basic_string@DU?$char_traits@D@std@@V?$allocator@D@2@@std@@QAE@ABV01@@Z ; std::basic_string<char,std::char_traits<char>,std::allocator<char> >::basic_string<char,std::char_traits<char>,std::allocator<char> >
  000d8	8b 46 18	 mov	 eax, DWORD PTR [esi+24]
; File C:\Users\murat\Desktop\Siveps2-1-99-Project\source\client\extern\include\boost\unordered\detail\implementation.hpp

; 2042 :           return a.release();

  000db	8d 4d e4	 lea	 ecx, DWORD PTR _a$3[ebp]
; File C:\Program Files (x86)\Microsoft Visual Studio\2019\Professional\VC\Tools\MSVC\14.29.30133\include\utility

; 213  :     pair(pair&&)      = default;

  000de	89 47 20	 mov	 DWORD PTR [edi+32], eax
; File C:\Users\murat\Desktop\Siveps2-1-99-Project\source\client\extern\include\boost\unordered\detail\implementation.hpp

; 1957 :           node_ = node_pointer();

  000e1	c7 45 e8 00 00
	00 00		 mov	 DWORD PTR _a$3[ebp+4], 0

; 2042 :           return a.release();

  000e8	e8 00 00 00 00	 call	 ??1?$node_constructor@V?$allocator@U?$ptr_node@U?$pair@$$CBV?$basic_string@DU?$char_traits@D@std@@V?$allocator@D@2@@std@@PAVCEterPack@@@std@@@detail@unordered@boost@@@std@@@detail@unordered@boost@@QAE@XZ ; boost::unordered::detail::node_constructor<std::allocator<boost::unordered::detail::ptr_node<std::pair<std::basic_string<char,std::char_traits<char>,std::allocator<char> > const ,CEterPack *> > > >::~node_constructor<std::allocator<boost::unordered::detail::ptr_node<std::pair<std::basic_string<char,std::char_traits<char>,std::allocator<char> > const ,CEterPack *> > > >

; 1999 :         explicit node_tmp(node_pointer n, NodeAlloc& a) : alloc_(a), node_(n) {}

  000ed	8b f7		 mov	 esi, edi
  000ef	89 5d e4	 mov	 DWORD PTR _b$2[ebp], ebx
  000f2	89 75 e8	 mov	 DWORD PTR _b$2[ebp+4], esi

; 3717 :           this->reserve_for_insert(this->size_ + 1);

  000f5	8b 5d ec	 mov	 ebx, DWORD PTR _this$1$[ebp]
  000f8	c7 45 fc 01 00
	00 00		 mov	 DWORD PTR __$EHRec$[ebp+8], 1

; 4542 :         if (!buckets_) {

  000ff	83 7b 14 00	 cmp	 DWORD PTR [ebx+20], 0

; 3717 :           this->reserve_for_insert(this->size_ + 1);

  00103	8b 43 08	 mov	 eax, DWORD PTR [ebx+8]
  00106	8d 78 01	 lea	 edi, DWORD PTR [eax+1]

; 4542 :         if (!buckets_) {

  00109	75 1a		 jne	 SHORT $LN72@emplace_un

; 4543 :           create_buckets((std::max)(bucket_count_, min_buckets_for_size(size)));

  0010b	57		 push	 edi
  0010c	8b cb		 mov	 ecx, ebx
  0010e	e8 00 00 00 00	 call	 ?min_buckets_for_size@?$table@U?$map@V?$allocator@U?$pair@$$CBV?$basic_string@DU?$char_traits@D@std@@V?$allocator@D@2@@std@@PAVCEterPack@@@std@@@std@@V?$basic_string@DU?$char_traits@D@std@@V?$allocator@D@2@@2@PAVCEterPack@@Ustringhash@@U?$equal_to@V?$basic_string@DU?$char_traits@D@std@@V?$allocator@D@2@@std@@@2@@detail@unordered@boost@@@detail@unordered@boost@@QBEII@Z ; boost::unordered::detail::table<boost::unordered::detail::map<std::allocator<std::pair<std::basic_string<char,std::char_traits<char>,std::allocator<char> > const ,CEterPack *> >,std::basic_string<char,std::char_traits<char>,std::allocator<char> >,CEterPack *,stringhash,std::equal_to<std::basic_string<char,std::char_traits<char>,std::allocator<char> > > > >::min_buckets_for_size
; File C:\Program Files (x86)\Microsoft Visual Studio\2019\Professional\VC\Tools\MSVC\14.29.30133\include\utility

; 44   :     return _Left < _Right ? _Right : _Left;

  00113	8b 4b 04	 mov	 ecx, DWORD PTR [ebx+4]
  00116	3b c8		 cmp	 ecx, eax
  00118	0f 42 c8	 cmovb	 ecx, eax
; File C:\Users\murat\Desktop\Siveps2-1-99-Project\source\client\extern\include\boost\unordered\detail\implementation.hpp

; 4543 :           create_buckets((std::max)(bucket_count_, min_buckets_for_size(size)));

  0011b	51		 push	 ecx
  0011c	8b cb		 mov	 ecx, ebx
  0011e	e8 00 00 00 00	 call	 ?create_buckets@?$table@U?$map@V?$allocator@U?$pair@$$CBV?$basic_string@DU?$char_traits@D@std@@V?$allocator@D@2@@std@@PAVCEterPack@@@std@@@std@@V?$basic_string@DU?$char_traits@D@std@@V?$allocator@D@2@@2@PAVCEterPack@@Ustringhash@@U?$equal_to@V?$basic_string@DU?$char_traits@D@std@@V?$allocator@D@2@@std@@@2@@detail@unordered@boost@@@detail@unordered@boost@@QAEXI@Z ; boost::unordered::detail::table<boost::unordered::detail::map<std::allocator<std::pair<std::basic_string<char,std::char_traits<char>,std::allocator<char> > const ,CEterPack *> >,std::basic_string<char,std::char_traits<char>,std::allocator<char> >,CEterPack *,stringhash,std::equal_to<std::basic_string<char,std::char_traits<char>,std::allocator<char> > > > >::create_buckets
  00123	eb 2d		 jmp	 SHORT $LN75@emplace_un
$LN72@emplace_un:

; 4544 :         } else if (size > max_load_) {

  00125	3b 7b 10	 cmp	 edi, DWORD PTR [ebx+16]
  00128	76 28		 jbe	 SHORT $LN75@emplace_un

; 4545 :           std::size_t num_buckets =

  0012a	8b c8		 mov	 ecx, eax
; File C:\Program Files (x86)\Microsoft Visual Studio\2019\Professional\VC\Tools\MSVC\14.29.30133\include\utility

; 44   :     return _Left < _Right ? _Right : _Left;

  0012c	ba 01 00 00 00	 mov	 edx, 1
; File C:\Users\murat\Desktop\Siveps2-1-99-Project\source\client\extern\include\boost\unordered\detail\implementation.hpp

; 4545 :           std::size_t num_buckets =

  00131	d1 e9		 shr	 ecx, 1
  00133	03 c1		 add	 eax, ecx
; File C:\Program Files (x86)\Microsoft Visual Studio\2019\Professional\VC\Tools\MSVC\14.29.30133\include\utility

; 44   :     return _Left < _Right ? _Right : _Left;

  00135	3b f8		 cmp	 edi, eax
  00137	0f 42 d1	 cmovb	 edx, ecx
; File C:\Users\murat\Desktop\Siveps2-1-99-Project\source\client\extern\include\boost\unordered\detail\implementation.hpp

; 4545 :           std::size_t num_buckets =

  0013a	8b cb		 mov	 ecx, ebx
; File C:\Program Files (x86)\Microsoft Visual Studio\2019\Professional\VC\Tools\MSVC\14.29.30133\include\utility

; 44   :     return _Left < _Right ? _Right : _Left;

  0013c	03 53 08	 add	 edx, DWORD PTR [ebx+8]
; File C:\Users\murat\Desktop\Siveps2-1-99-Project\source\client\extern\include\boost\unordered\detail\implementation.hpp

; 4545 :           std::size_t num_buckets =

  0013f	52		 push	 edx
  00140	e8 00 00 00 00	 call	 ?min_buckets_for_size@?$table@U?$map@V?$allocator@U?$pair@$$CBV?$basic_string@DU?$char_traits@D@std@@V?$allocator@D@2@@std@@PAVCEterPack@@@std@@@std@@V?$basic_string@DU?$char_traits@D@std@@V?$allocator@D@2@@2@PAVCEterPack@@Ustringhash@@U?$equal_to@V?$basic_string@DU?$char_traits@D@std@@V?$allocator@D@2@@std@@@2@@detail@unordered@boost@@@detail@unordered@boost@@QBEII@Z ; boost::unordered::detail::table<boost::unordered::detail::map<std::allocator<std::pair<std::basic_string<char,std::char_traits<char>,std::allocator<char> > const ,CEterPack *> >,std::basic_string<char,std::char_traits<char>,std::allocator<char> >,CEterPack *,stringhash,std::equal_to<std::basic_string<char,std::char_traits<char>,std::allocator<char> > > > >::min_buckets_for_size

; 4546 :             min_buckets_for_size((std::max)(size, size_ + (size_ >> 1)));
; 4547 : 
; 4548 :           if (num_buckets != bucket_count_)

  00145	3b 43 04	 cmp	 eax, DWORD PTR [ebx+4]
  00148	74 08		 je	 SHORT $LN75@emplace_un

; 4549 :             this->rehash_impl(num_buckets);

  0014a	50		 push	 eax
  0014b	8b cb		 mov	 ecx, ebx
  0014d	e8 00 00 00 00	 call	 ?rehash_impl@?$table@U?$map@V?$allocator@U?$pair@$$CBV?$basic_string@DU?$char_traits@D@std@@V?$allocator@D@2@@std@@PAVCEterPack@@@std@@@std@@V?$basic_string@DU?$char_traits@D@std@@V?$allocator@D@2@@2@PAVCEterPack@@Ustringhash@@U?$equal_to@V?$basic_string@DU?$char_traits@D@std@@V?$allocator@D@2@@std@@@2@@detail@unordered@boost@@@detail@unordered@boost@@QAEXI@Z ; boost::unordered::detail::table<boost::unordered::detail::map<std::allocator<std::pair<std::basic_string<char,std::char_traits<char>,std::allocator<char> > const ,CEterPack *> >,std::basic_string<char,std::char_traits<char>,std::allocator<char> >,CEterPack *,stringhash,std::equal_to<std::basic_string<char,std::char_traits<char>,std::allocator<char> > > > >::rehash_impl
$LN75@emplace_un:

; 2604 :           return hash % bucket_count;

  00152	8b 45 0c	 mov	 eax, DWORD PTR _h$1$[ebp]
  00155	33 d2		 xor	 edx, edx
  00157	f7 73 04	 div	 DWORD PTR [ebx+4]

; 3026 :           return buckets_ + static_cast<std::ptrdiff_t>(bucket_index);

  0015a	8b 43 14	 mov	 eax, DWORD PTR [ebx+20]

; 2007 :           node_ = node_pointer();

  0015d	c7 45 e8 00 00
	00 00		 mov	 DWORD PTR _b$2[ebp+4], 0

; 3026 :           return buckets_ + static_cast<std::ptrdiff_t>(bucket_index);

  00164	8d 3c 90	 lea	 edi, DWORD PTR [eax+edx*4]

; 4883 :           bucket_info_ = bucket_info_ & ((std::size_t)-1 >> 1);

  00167	81 e2 ff ff ff
	7f		 and	 edx, 2147483647		; 7fffffffH
  0016d	89 56 04	 mov	 DWORD PTR [esi+4], edx

; 3693 :           if (!b->next_) {

  00170	8b 07		 mov	 eax, DWORD PTR [edi]
  00172	85 c0		 test	 eax, eax
  00174	75 24		 jne	 SHORT $LN84@emplace_un

; 3026 :           return buckets_ + static_cast<std::ptrdiff_t>(bucket_index);

  00176	8b 43 04	 mov	 eax, DWORD PTR [ebx+4]
  00179	8b 53 14	 mov	 edx, DWORD PTR [ebx+20]
  0017c	8d 0c 82	 lea	 ecx, DWORD PTR [edx+eax*4]

; 3696 :             if (start_node->next_) {

  0017f	8b 01		 mov	 eax, DWORD PTR [ecx]
  00181	85 c0		 test	 eax, eax
  00183	74 0b		 je	 SHORT $LN86@emplace_un

; 4873 :           return bucket_info_ & ((std::size_t)-1 >> 1);

  00185	8b 40 04	 mov	 eax, DWORD PTR [eax+4]
  00188	25 ff ff ff 7f	 and	 eax, 2147483647		; 7fffffffH

; 3697 :               this->get_bucket_pointer(node_bucket(next_node(start_node)))

  0018d	89 34 82	 mov	 DWORD PTR [edx+eax*4], esi
$LN86@emplace_un:

; 3698 :                 ->next_ = n;
; 3699 :             }
; 3700 : 
; 3701 :             b->next_ = start_node;

  00190	89 0f		 mov	 DWORD PTR [edi], ecx

; 3702 :             n->next_ = start_node->next_;

  00192	8b 01		 mov	 eax, DWORD PTR [ecx]
  00194	89 06		 mov	 DWORD PTR [esi], eax

; 3703 :             start_node->next_ = n;

  00196	89 31		 mov	 DWORD PTR [ecx], esi

; 3704 :           } else {

  00198	eb 08		 jmp	 SHORT $LN85@emplace_un
$LN84@emplace_un:

; 3705 :             n->next_ = b->next_->next_;

  0019a	8b 00		 mov	 eax, DWORD PTR [eax]
  0019c	89 06		 mov	 DWORD PTR [esi], eax

; 3706 :             b->next_->next_ = n;

  0019e	8b 07		 mov	 eax, DWORD PTR [edi]
  001a0	89 30		 mov	 DWORD PTR [eax], esi
$LN85@emplace_un:

; 3707 :           }
; 3708 : 
; 3709 :           ++this->size_;

  001a2	ff 43 08	 inc	 DWORD PTR [ebx+8]

; 3718 :           return this->add_node_unique(b.release(), key_hash);

  001a5	8d 4d e4	 lea	 ecx, DWORD PTR _b$2[ebp]
  001a8	e8 00 00 00 00	 call	 ??1?$node_tmp@V?$allocator@U?$ptr_node@U?$pair@$$CBV?$basic_string@DU?$char_traits@D@std@@V?$allocator@D@2@@std@@PAVCEterPack@@@std@@@detail@unordered@boost@@@std@@@detail@unordered@boost@@QAE@XZ ; boost::unordered::detail::node_tmp<std::allocator<boost::unordered::detail::ptr_node<std::pair<std::basic_string<char,std::char_traits<char>,std::allocator<char> > const ,CEterPack *> > > >::~node_tmp<std::allocator<boost::unordered::detail::ptr_node<std::pair<std::basic_string<char,std::char_traits<char>,std::allocator<char> > const ,CEterPack *> > > >
; File C:\Program Files (x86)\Microsoft Visual Studio\2019\Professional\VC\Tools\MSVC\14.29.30133\include\utility

; 193  :         : first(_STD forward<_Other1>(_Val1)), second(_STD forward<_Other2>(_Val2)) {}

  001ad	8b 45 08	 mov	 eax, DWORD PTR ___$ReturnUdt$[ebp]
  001b0	89 30		 mov	 DWORD PTR [eax], esi
  001b2	c6 40 04 01	 mov	 BYTE PTR [eax+4], 1
; File C:\Users\murat\Desktop\Siveps2-1-99-Project\source\client\extern\include\boost\unordered\detail\implementation.hpp

; 3748 :         }

  001b6	8b 4d f4	 mov	 ecx, DWORD PTR __$EHRec$[ebp]
  001b9	64 89 0d 00 00
	00 00		 mov	 DWORD PTR fs:0, ecx
  001c0	59		 pop	 ecx
  001c1	5f		 pop	 edi
  001c2	5e		 pop	 esi
  001c3	5b		 pop	 ebx
  001c4	8b e5		 mov	 esp, ebp
  001c6	5d		 pop	 ebp
  001c7	c2 0c 00	 ret	 12			; 0000000cH
_TEXT	ENDS
;	COMDAT text$x
text$x	SEGMENT
__unwindfunclet$??$emplace_unique@U?$pair@$$CBV?$basic_string@DU?$char_traits@D@std@@V?$allocator@D@2@@std@@PAVCEterPack@@@std@@@?$table@U?$map@V?$allocator@U?$pair@$$CBV?$basic_string@DU?$char_traits@D@std@@V?$allocator@D@2@@std@@PAVCEterPack@@@std@@@std@@V?$basic_string@DU?$char_traits@D@std@@V?$allocator@D@2@@2@PAVCEterPack@@Ustringhash@@U?$equal_to@V?$basic_string@DU?$char_traits@D@std@@V?$allocator@D@2@@std@@@2@@detail@unordered@boost@@@detail@unordered@boost@@QAE?AU?$pair@U?$iterator@U?$ptr_node@U?$pair@$$CBV?$basic_string@DU?$char_traits@D@std@@V?$allocator@D@2@@std@@PAVCEterPack@@@std@@@detail@unordered@boost@@@iterator_detail@unordered@boost@@_N@std@@ABV?$basic_string@DU?$char_traits@D@std@@V?$allocator@D@2@@5@$$QAU?$pair@$$CBV?$basic_string@DU?$char_traits@D@std@@V?$allocator@D@2@@std@@PAVCEterPack@@@5@@Z$0:
  00000	8d 4d e4	 lea	 ecx, DWORD PTR _a$3[ebp]
  00003	e9 00 00 00 00	 jmp	 ??1?$node_constructor@V?$allocator@U?$ptr_node@U?$pair@$$CBV?$basic_string@DU?$char_traits@D@std@@V?$allocator@D@2@@std@@PAVCEterPack@@@std@@@detail@unordered@boost@@@std@@@detail@unordered@boost@@QAE@XZ ; boost::unordered::detail::node_constructor<std::allocator<boost::unordered::detail::ptr_node<std::pair<std::basic_string<char,std::char_traits<char>,std::allocator<char> > const ,CEterPack *> > > >::~node_constructor<std::allocator<boost::unordered::detail::ptr_node<std::pair<std::basic_string<char,std::char_traits<char>,std::allocator<char> > const ,CEterPack *> > > >
__unwindfunclet$??$emplace_unique@U?$pair@$$CBV?$basic_string@DU?$char_traits@D@std@@V?$allocator@D@2@@std@@PAVCEterPack@@@std@@@?$table@U?$map@V?$allocator@U?$pair@$$CBV?$basic_string@DU?$char_traits@D@std@@V?$allocator@D@2@@std@@PAVCEterPack@@@std@@@std@@V?$basic_string@DU?$char_traits@D@std@@V?$allocator@D@2@@2@PAVCEterPack@@Ustringhash@@U?$equal_to@V?$basic_string@DU?$char_traits@D@std@@V?$allocator@D@2@@std@@@2@@detail@unordered@boost@@@detail@unordered@boost@@QAE?AU?$pair@U?$iterator@U?$ptr_node@U?$pair@$$CBV?$basic_string@DU?$char_traits@D@std@@V?$allocator@D@2@@std@@PAVCEterPack@@@std@@@detail@unordered@boost@@@iterator_detail@unordered@boost@@_N@std@@ABV?$basic_string@DU?$char_traits@D@std@@V?$allocator@D@2@@5@$$QAU?$pair@$$CBV?$basic_string@DU?$char_traits@D@std@@V?$allocator@D@2@@std@@PAVCEterPack@@@5@@Z$2:
  00008	8d 4d e4	 lea	 ecx, DWORD PTR _b$2[ebp]
  0000b	e9 00 00 00 00	 jmp	 ??1?$node_tmp@V?$allocator@U?$ptr_node@U?$pair@$$CBV?$basic_string@DU?$char_traits@D@std@@V?$allocator@D@2@@std@@PAVCEterPack@@@std@@@detail@unordered@boost@@@std@@@detail@unordered@boost@@QAE@XZ ; boost::unordered::detail::node_tmp<std::allocator<boost::unordered::detail::ptr_node<std::pair<std::basic_string<char,std::char_traits<char>,std::allocator<char> > const ,CEterPack *> > > >::~node_tmp<std::allocator<boost::unordered::detail::ptr_node<std::pair<std::basic_string<char,std::char_traits<char>,std::allocator<char> > const ,CEterPack *> > > >
  00010	cc		 int	 3
  00011	cc		 int	 3
  00012	cc		 int	 3
  00013	cc		 int	 3
  00014	cc		 int	 3
__ehhandler$??$emplace_unique@U?$pair@$$CBV?$basic_string@DU?$char_traits@D@std@@V?$allocator@D@2@@std@@PAVCEterPack@@@std@@@?$table@U?$map@V?$allocator@U?$pair@$$CBV?$basic_string@DU?$char_traits@D@std@@V?$allocator@D@2@@std@@PAVCEterPack@@@std@@@std@@V?$basic_string@DU?$char_traits@D@std@@V?$allocator@D@2@@2@PAVCEterPack@@Ustringhash@@U?$equal_to@V?$basic_string@DU?$char_traits@D@std@@V?$allocator@D@2@@std@@@2@@detail@unordered@boost@@@detail@unordered@boost@@QAE?AU?$pair@U?$iterator@U?$ptr_node@U?$pair@$$CBV?$basic_string@DU?$char_traits@D@std@@V?$allocator@D@2@@std@@PAVCEterPack@@@std@@@detail@unordered@boost@@@iterator_detail@unordered@boost@@_N@std@@ABV?$basic_string@DU?$char_traits@D@std@@V?$allocator@D@2@@5@$$QAU?$pair@$$CBV?$basic_string@DU?$char_traits@D@std@@V?$allocator@D@2@@std@@PAVCEterPack@@@5@@Z:
  00015	90		 npad	 1
  00016	90		 npad	 1
  00017	8b 54 24 08	 mov	 edx, DWORD PTR [esp+8]
  0001b	8d 42 0c	 lea	 eax, DWORD PTR [edx+12]
  0001e	8b 4a e0	 mov	 ecx, DWORD PTR [edx-32]
  00021	33 c8		 xor	 ecx, eax
  00023	e8 00 00 00 00	 call	 @__security_check_cookie@4
  00028	b8 00 00 00 00	 mov	 eax, OFFSET __ehfuncinfo$??$emplace_unique@U?$pair@$$CBV?$basic_string@DU?$char_traits@D@std@@V?$allocator@D@2@@std@@PAVCEterPack@@@std@@@?$table@U?$map@V?$allocator@U?$pair@$$CBV?$basic_string@DU?$char_traits@D@std@@V?$allocator@D@2@@std@@PAVCEterPack@@@std@@@std@@V?$basic_string@DU?$char_traits@D@std@@V?$allocator@D@2@@2@PAVCEterPack@@Ustringhash@@U?$equal_to@V?$basic_string@DU?$char_traits@D@std@@V?$allocator@D@2@@std@@@2@@detail@unordered@boost@@@detail@unordered@boost@@QAE?AU?$pair@U?$iterator@U?$ptr_node@U?$pair@$$CBV?$basic_string@DU?$char_traits@D@std@@V?$allocator@D@2@@std@@PAVCEterPack@@@std@@@detail@unordered@boost@@@iterator_detail@unordered@boost@@_N@std@@ABV?$basic_string@DU?$char_traits@D@std@@V?$allocator@D@2@@5@$$QAU?$pair@$$CBV?$basic_string@DU?$char_traits@D@std@@V?$allocator@D@2@@std@@PAVCEterPack@@@5@@Z
  0002d	e9 00 00 00 00	 jmp	 ___CxxFrameHandler3
text$x	ENDS
??$emplace_unique@U?$pair@$$CBV?$basic_string@DU?$char_traits@D@std@@V?$allocator@D@2@@std@@PAVCEterPack@@@std@@@?$table@U?$map@V?$allocator@U?$pair@$$CBV?$basic_string@DU?$char_traits@D@std@@V?$allocator@D@2@@std@@PAVCEterPack@@@std@@@std@@V?$basic_string@DU?$char_traits@D@std@@V?$allocator@D@2@@2@PAVCEterPack@@Ustringhash@@U?$equal_to@V?$basic_string@DU?$char_traits@D@std@@V?$allocator@D@2@@std@@@2@@detail@unordered@boost@@@detail@unordered@boost@@QAE?AU?$pair@U?$iterator@U?$ptr_node@U?$pair@$$CBV?$basic_string@DU?$char_traits@D@std@@V?$allocator@D@2@@std@@PAVCEterPack@@@std@@@detail@unordered@boost@@@iterator_detail@unordered@boost@@_N@std@@ABV?$basic_string@DU?$char_traits@D@std@@V?$allocator@D@2@@5@$$QAU?$pair@$$CBV?$basic_string@DU?$char_traits@D@std@@V?$allocator@D@2@@std@@PAVCEterPack@@@5@@Z ENDP ; boost::unordered::detail::table<boost::unordered::detail::map<std::allocator<std::pair<std::basic_string<char,std::char_traits<char>,std::allocator<char> > const ,CEterPack *> >,std::basic_string<char,std::char_traits<char>,std::allocator<char> >,CEterPack *,stringhash,std::equal_to<std::basic_string<char,std::char_traits<char>,std::allocator<char> > > > >::emplace_unique<std::pair<std::basic_string<char,std::char_traits<char>,std::allocator<char> > const ,CEterPack *> >
; Function compile flags: /Ogtp
; File C:\Users\murat\Desktop\Siveps2-1-99-Project\source\client\extern\include\boost\unordered\detail\implementation.hpp
; File C:\Users\murat\Desktop\Siveps2-1-99-Project\source\client\extern\include\boost\container_hash\hash.hpp
; File C:\Users\murat\Desktop\Siveps2-1-99-Project\source\client\extern\include\boost\unordered\detail\implementation.hpp
; File C:\Users\murat\Desktop\Siveps2-1-99-Project\source\client\extern\include\boost\container_hash\hash.hpp
; File C:\Users\murat\Desktop\Siveps2-1-99-Project\source\client\extern\include\boost\unordered\detail\implementation.hpp
; File C:\Program Files (x86)\Microsoft Visual Studio\2019\Professional\VC\Tools\MSVC\14.29.30133\include\utility
; File C:\Users\murat\Desktop\Siveps2-1-99-Project\source\client\extern\include\boost\unordered\detail\implementation.hpp
; File C:\Program Files (x86)\Microsoft Visual Studio\2019\Professional\VC\Tools\MSVC\14.29.30133\include\xmemory
; File C:\Users\murat\Desktop\Siveps2-1-99-Project\source\client\extern\include\boost\unordered\detail\implementation.hpp
; File C:\Program Files (x86)\Microsoft Visual Studio\2019\Professional\VC\Tools\MSVC\14.29.30133\include\xmemory
; File C:\Users\murat\Desktop\Siveps2-1-99-Project\source\client\extern\include\boost\unordered\detail\implementation.hpp
; File C:\Program Files (x86)\Microsoft Visual Studio\2019\Professional\VC\Tools\MSVC\14.29.30133\include\utility
; File C:\Users\murat\Desktop\Siveps2-1-99-Project\source\client\extern\include\boost\unordered\detail\implementation.hpp
; File C:\Program Files (x86)\Microsoft Visual Studio\2019\Professional\VC\Tools\MSVC\14.29.30133\include\utility
; File C:\Users\murat\Desktop\Siveps2-1-99-Project\source\client\extern\include\boost\unordered\detail\implementation.hpp
; File C:\Program Files (x86)\Microsoft Visual Studio\2019\Professional\VC\Tools\MSVC\14.29.30133\include\utility
; File C:\Users\murat\Desktop\Siveps2-1-99-Project\source\client\extern\include\boost\unordered\detail\implementation.hpp
; File C:\Program Files (x86)\Microsoft Visual Studio\2019\Professional\VC\Tools\MSVC\14.29.30133\include\utility
; File C:\Users\murat\Desktop\Siveps2-1-99-Project\source\client\extern\include\boost\unordered\detail\implementation.hpp
; File C:\Program Files (x86)\Microsoft Visual Studio\2019\Professional\VC\Tools\MSVC\14.29.30133\include\utility
; File C:\Users\murat\Desktop\Siveps2-1-99-Project\source\client\extern\include\boost\unordered\detail\implementation.hpp
;	COMDAT ??$emplace_unique@U?$pair@$$CBKUSCache@CEterPackManager@@@std@@@?$table@U?$map@V?$allocator@U?$pair@$$CBKUSCache@CEterPackManager@@@std@@@std@@KUSCache@CEterPackManager@@U?$hash@K@boost@@U?$equal_to@K@2@@detail@unordered@boost@@@detail@unordered@boost@@QAE?AU?$pair@U?$iterator@U?$ptr_node@U?$pair@$$CBKUSCache@CEterPackManager@@@std@@@detail@unordered@boost@@@iterator_detail@unordered@boost@@_N@std@@ABK$$QAU?$pair@$$CBKUSCache@CEterPackManager@@@5@@Z
_TEXT	SEGMENT
_b$2 = -20						; size = 8
_a$3 = -20						; size = 8
__$EHRec$ = -12						; size = 12
___$ReturnUdt$ = 8					; size = 4
_key_hash$1$ = 12					; size = 4
_k$ = 12						; size = 4
_<args_0>$ = 16						; size = 4
??$emplace_unique@U?$pair@$$CBKUSCache@CEterPackManager@@@std@@@?$table@U?$map@V?$allocator@U?$pair@$$CBKUSCache@CEterPackManager@@@std@@@std@@KUSCache@CEterPackManager@@U?$hash@K@boost@@U?$equal_to@K@2@@detail@unordered@boost@@@detail@unordered@boost@@QAE?AU?$pair@U?$iterator@U?$ptr_node@U?$pair@$$CBKUSCache@CEterPackManager@@@std@@@detail@unordered@boost@@@iterator_detail@unordered@boost@@_N@std@@ABK$$QAU?$pair@$$CBKUSCache@CEterPackManager@@@5@@Z PROC ; boost::unordered::detail::table<boost::unordered::detail::map<std::allocator<std::pair<unsigned long const ,CEterPackManager::SCache> >,unsigned long,CEterPackManager::SCache,boost::hash<unsigned long>,std::equal_to<unsigned long> > >::emplace_unique<std::pair<unsigned long const ,CEterPackManager::SCache> >, COMDAT
; _this$ = ecx

; 3735 :         {

  00000	55		 push	 ebp
  00001	8b ec		 mov	 ebp, esp
  00003	6a ff		 push	 -1
  00005	68 00 00 00 00	 push	 __ehhandler$??$emplace_unique@U?$pair@$$CBKUSCache@CEterPackManager@@@std@@@?$table@U?$map@V?$allocator@U?$pair@$$CBKUSCache@CEterPackManager@@@std@@@std@@KUSCache@CEterPackManager@@U?$hash@K@boost@@U?$equal_to@K@2@@detail@unordered@boost@@@detail@unordered@boost@@QAE?AU?$pair@U?$iterator@U?$ptr_node@U?$pair@$$CBKUSCache@CEterPackManager@@@std@@@detail@unordered@boost@@@iterator_detail@unordered@boost@@_N@std@@ABK$$QAU?$pair@$$CBKUSCache@CEterPackManager@@@5@@Z
  0000a	64 a1 00 00 00
	00		 mov	 eax, DWORD PTR fs:0
  00010	50		 push	 eax
  00011	83 ec 08	 sub	 esp, 8
  00014	53		 push	 ebx
  00015	56		 push	 esi
  00016	57		 push	 edi
  00017	a1 00 00 00 00	 mov	 eax, DWORD PTR ___security_cookie
  0001c	33 c5		 xor	 eax, ebp
  0001e	50		 push	 eax
  0001f	8d 45 f4	 lea	 eax, DWORD PTR __$EHRec$[ebp]
  00022	64 a3 00 00 00
	00		 mov	 DWORD PTR fs:0, eax
  00028	8b f9		 mov	 edi, ecx
; File C:\Users\murat\Desktop\Siveps2-1-99-Project\source\client\extern\include\boost\container_hash\hash.hpp

; 621  :     BOOST_HASH_SPECIALIZE(unsigned long)

  0002a	8b 75 0c	 mov	 esi, DWORD PTR _k$[ebp]
  0002d	ff 36		 push	 DWORD PTR [esi]
  0002f	e8 00 00 00 00	 call	 ??$hash_value@K@boost@@YAIK@Z ; boost::hash_value<unsigned long>
; File C:\Users\murat\Desktop\Siveps2-1-99-Project\source\client\extern\include\boost\unordered\detail\implementation.hpp

; 2791 :           return *static_cast<function_pair const*>(

  00034	0f b6 17	 movzx	 edx, BYTE PTR [edi]
; File C:\Users\murat\Desktop\Siveps2-1-99-Project\source\client\extern\include\boost\container_hash\hash.hpp

; 621  :     BOOST_HASH_SPECIALIZE(unsigned long)

  00037	83 c4 04	 add	 esp, 4
; File C:\Users\murat\Desktop\Siveps2-1-99-Project\source\client\extern\include\boost\unordered\detail\implementation.hpp

; 2791 :           return *static_cast<function_pair const*>(

  0003a	83 e2 01	 and	 edx, 1

; 3736 :           std::size_t key_hash = this->hash(k);

  0003d	89 45 0c	 mov	 DWORD PTR _key_hash$1$[ebp], eax

; 2791 :           return *static_cast<function_pair const*>(

  00040	42		 inc	 edx
  00041	03 d7		 add	 edx, edi

; 3576 :           return this->find_node_impl(key_hash, k, this->key_eq());

  00043	8d 4a 01	 lea	 ecx, DWORD PTR [edx+1]
  00046	f7 da		 neg	 edx
  00048	1b d2		 sbb	 edx, edx
  0004a	23 d1		 and	 edx, ecx
  0004c	8b cf		 mov	 ecx, edi
  0004e	52		 push	 edx
  0004f	56		 push	 esi
  00050	50		 push	 eax
  00051	e8 00 00 00 00	 call	 ??$find_node_impl@KU?$equal_to@K@std@@@?$table@U?$map@V?$allocator@U?$pair@$$CBKUSCache@CEterPackManager@@@std@@@std@@KUSCache@CEterPackManager@@U?$hash@K@boost@@U?$equal_to@K@2@@detail@unordered@boost@@@detail@unordered@boost@@QBEPAU?$ptr_node@U?$pair@$$CBKUSCache@CEterPackManager@@@std@@@123@IABKABU?$equal_to@K@std@@@Z ; boost::unordered::detail::table<boost::unordered::detail::map<std::allocator<std::pair<unsigned long const ,CEterPackManager::SCache> >,unsigned long,CEterPackManager::SCache,boost::hash<unsigned long>,std::equal_to<unsigned long> > >::find_node_impl<unsigned long,std::equal_to<unsigned long> >

; 3737 :           node_pointer pos = this->find_node(key_hash, k);

  00056	8b c8		 mov	 ecx, eax

; 3738 :           if (pos) {

  00058	85 c9		 test	 ecx, ecx
  0005a	74 1d		 je	 SHORT $LN2@emplace_un
; File C:\Program Files (x86)\Microsoft Visual Studio\2019\Professional\VC\Tools\MSVC\14.29.30133\include\utility

; 193  :         : first(_STD forward<_Other1>(_Val1)), second(_STD forward<_Other2>(_Val2)) {}

  0005c	8b 45 08	 mov	 eax, DWORD PTR ___$ReturnUdt$[ebp]
  0005f	89 08		 mov	 DWORD PTR [eax], ecx
  00061	c6 40 04 00	 mov	 BYTE PTR [eax+4], 0
; File C:\Users\murat\Desktop\Siveps2-1-99-Project\source\client\extern\include\boost\unordered\detail\implementation.hpp

; 3748 :         }

  00065	8b 4d f4	 mov	 ecx, DWORD PTR __$EHRec$[ebp]
  00068	64 89 0d 00 00
	00 00		 mov	 DWORD PTR fs:0, ecx
  0006f	59		 pop	 ecx
  00070	5f		 pop	 edi
  00071	5e		 pop	 esi
  00072	5b		 pop	 ebx
  00073	8b e5		 mov	 esp, ebp
  00075	5d		 pop	 ebp
  00076	c2 0c 00	 ret	 12			; 0000000cH
$LN2@emplace_un:

; 3014 :         node_allocator& node_alloc() { return allocators_.second(); }

  00079	8d 77 03	 lea	 esi, DWORD PTR [edi+3]

; 1946 :         node_constructor(node_allocator& n) : alloc_(n), node_() {}

  0007c	c7 45 f0 00 00
	00 00		 mov	 DWORD PTR _a$3[ebp+4], 0
  00083	8d 46 01	 lea	 eax, DWORD PTR [esi+1]
  00086	f7 de		 neg	 esi
  00088	1b f6		 sbb	 esi, esi
  0008a	23 f0		 and	 esi, eax
  0008c	89 75 ec	 mov	 DWORD PTR _a$3[ebp], esi

; 2039 :           a.create_node();

  0008f	8d 4d ec	 lea	 ecx, DWORD PTR _a$3[ebp]
  00092	c7 45 fc 00 00
	00 00		 mov	 DWORD PTR __$EHRec$[ebp+8], 0
  00099	e8 00 00 00 00	 call	 ?create_node@?$node_constructor@V?$allocator@U?$ptr_node@U?$pair@$$CBKUSCache@CEterPackManager@@@std@@@detail@unordered@boost@@@std@@@detail@unordered@boost@@QAEXXZ ; boost::unordered::detail::node_constructor<std::allocator<boost::unordered::detail::ptr_node<std::pair<unsigned long const ,CEterPackManager::SCache> > > >::create_node
; File C:\Program Files (x86)\Microsoft Visual Studio\2019\Professional\VC\Tools\MSVC\14.29.30133\include\xmemory

; 714  :             ::new (_Voidify_iter(_Ptr)) _Objty(_STD forward<_Types>(_Args)...);

  0009e	8b 45 10	 mov	 eax, DWORD PTR _<args_0>$[ebp]
; File C:\Users\murat\Desktop\Siveps2-1-99-Project\source\client\extern\include\boost\unordered\detail\implementation.hpp

; 2042 :           return a.release();

  000a1	8d 4d ec	 lea	 ecx, DWORD PTR _a$3[ebp]
  000a4	8b 5d f0	 mov	 ebx, DWORD PTR _a$3[ebp+4]

; 1957 :           node_ = node_pointer();

  000a7	c7 45 f0 00 00
	00 00		 mov	 DWORD PTR _a$3[ebp+4], 0
; File C:\Program Files (x86)\Microsoft Visual Studio\2019\Professional\VC\Tools\MSVC\14.29.30133\include\xmemory

; 714  :             ::new (_Voidify_iter(_Ptr)) _Objty(_STD forward<_Types>(_Args)...);

  000ae	f3 0f 7e 00	 movq	 xmm0, QWORD PTR [eax]
  000b2	66 0f d6 43 08	 movq	 QWORD PTR [ebx+8], xmm0
  000b7	8b 40 08	 mov	 eax, DWORD PTR [eax+8]
  000ba	89 43 10	 mov	 DWORD PTR [ebx+16], eax
; File C:\Users\murat\Desktop\Siveps2-1-99-Project\source\client\extern\include\boost\unordered\detail\implementation.hpp

; 2042 :           return a.release();

  000bd	e8 00 00 00 00	 call	 ??1?$node_constructor@V?$allocator@U?$ptr_node@U?$pair@$$CBKUSCache@CEterPackManager@@@std@@@detail@unordered@boost@@@std@@@detail@unordered@boost@@QAE@XZ ; boost::unordered::detail::node_constructor<std::allocator<boost::unordered::detail::ptr_node<std::pair<unsigned long const ,CEterPackManager::SCache> > > >::~node_constructor<std::allocator<boost::unordered::detail::ptr_node<std::pair<unsigned long const ,CEterPackManager::SCache> > > >

; 1999 :         explicit node_tmp(node_pointer n, NodeAlloc& a) : alloc_(a), node_(n) {}

  000c2	89 75 ec	 mov	 DWORD PTR _b$2[ebp], esi
  000c5	89 5d f0	 mov	 DWORD PTR _b$2[ebp+4], ebx

; 4542 :         if (!buckets_) {

  000c8	83 7f 14 00	 cmp	 DWORD PTR [edi+20], 0

; 3717 :           this->reserve_for_insert(this->size_ + 1);

  000cc	8b 47 08	 mov	 eax, DWORD PTR [edi+8]
  000cf	c7 45 fc 01 00
	00 00		 mov	 DWORD PTR __$EHRec$[ebp+8], 1
  000d6	8d 70 01	 lea	 esi, DWORD PTR [eax+1]

; 4542 :         if (!buckets_) {

  000d9	75 1a		 jne	 SHORT $LN58@emplace_un

; 4543 :           create_buckets((std::max)(bucket_count_, min_buckets_for_size(size)));

  000db	56		 push	 esi
  000dc	8b cf		 mov	 ecx, edi
  000de	e8 00 00 00 00	 call	 ?min_buckets_for_size@?$table@U?$map@V?$allocator@U?$pair@$$CBKUSCache@CEterPackManager@@@std@@@std@@KUSCache@CEterPackManager@@U?$hash@K@boost@@U?$equal_to@K@2@@detail@unordered@boost@@@detail@unordered@boost@@QBEII@Z ; boost::unordered::detail::table<boost::unordered::detail::map<std::allocator<std::pair<unsigned long const ,CEterPackManager::SCache> >,unsigned long,CEterPackManager::SCache,boost::hash<unsigned long>,std::equal_to<unsigned long> > >::min_buckets_for_size
; File C:\Program Files (x86)\Microsoft Visual Studio\2019\Professional\VC\Tools\MSVC\14.29.30133\include\utility

; 44   :     return _Left < _Right ? _Right : _Left;

  000e3	8b 4f 04	 mov	 ecx, DWORD PTR [edi+4]
  000e6	3b c8		 cmp	 ecx, eax
  000e8	0f 42 c8	 cmovb	 ecx, eax
; File C:\Users\murat\Desktop\Siveps2-1-99-Project\source\client\extern\include\boost\unordered\detail\implementation.hpp

; 4543 :           create_buckets((std::max)(bucket_count_, min_buckets_for_size(size)));

  000eb	51		 push	 ecx
  000ec	8b cf		 mov	 ecx, edi
  000ee	e8 00 00 00 00	 call	 ?create_buckets@?$table@U?$map@V?$allocator@U?$pair@$$CBKUSCache@CEterPackManager@@@std@@@std@@KUSCache@CEterPackManager@@U?$hash@K@boost@@U?$equal_to@K@2@@detail@unordered@boost@@@detail@unordered@boost@@QAEXI@Z ; boost::unordered::detail::table<boost::unordered::detail::map<std::allocator<std::pair<unsigned long const ,CEterPackManager::SCache> >,unsigned long,CEterPackManager::SCache,boost::hash<unsigned long>,std::equal_to<unsigned long> > >::create_buckets
  000f3	eb 2d		 jmp	 SHORT $LN61@emplace_un
$LN58@emplace_un:

; 4544 :         } else if (size > max_load_) {

  000f5	3b 77 10	 cmp	 esi, DWORD PTR [edi+16]
  000f8	76 28		 jbe	 SHORT $LN61@emplace_un

; 4545 :           std::size_t num_buckets =

  000fa	8b c8		 mov	 ecx, eax
; File C:\Program Files (x86)\Microsoft Visual Studio\2019\Professional\VC\Tools\MSVC\14.29.30133\include\utility

; 44   :     return _Left < _Right ? _Right : _Left;

  000fc	ba 01 00 00 00	 mov	 edx, 1
; File C:\Users\murat\Desktop\Siveps2-1-99-Project\source\client\extern\include\boost\unordered\detail\implementation.hpp

; 4545 :           std::size_t num_buckets =

  00101	d1 e9		 shr	 ecx, 1
  00103	03 c1		 add	 eax, ecx
; File C:\Program Files (x86)\Microsoft Visual Studio\2019\Professional\VC\Tools\MSVC\14.29.30133\include\utility

; 44   :     return _Left < _Right ? _Right : _Left;

  00105	3b f0		 cmp	 esi, eax
  00107	0f 42 d1	 cmovb	 edx, ecx
; File C:\Users\murat\Desktop\Siveps2-1-99-Project\source\client\extern\include\boost\unordered\detail\implementation.hpp

; 4545 :           std::size_t num_buckets =

  0010a	8b cf		 mov	 ecx, edi
; File C:\Program Files (x86)\Microsoft Visual Studio\2019\Professional\VC\Tools\MSVC\14.29.30133\include\utility

; 44   :     return _Left < _Right ? _Right : _Left;

  0010c	03 57 08	 add	 edx, DWORD PTR [edi+8]
; File C:\Users\murat\Desktop\Siveps2-1-99-Project\source\client\extern\include\boost\unordered\detail\implementation.hpp

; 4545 :           std::size_t num_buckets =

  0010f	52		 push	 edx
  00110	e8 00 00 00 00	 call	 ?min_buckets_for_size@?$table@U?$map@V?$allocator@U?$pair@$$CBKUSCache@CEterPackManager@@@std@@@std@@KUSCache@CEterPackManager@@U?$hash@K@boost@@U?$equal_to@K@2@@detail@unordered@boost@@@detail@unordered@boost@@QBEII@Z ; boost::unordered::detail::table<boost::unordered::detail::map<std::allocator<std::pair<unsigned long const ,CEterPackManager::SCache> >,unsigned long,CEterPackManager::SCache,boost::hash<unsigned long>,std::equal_to<unsigned long> > >::min_buckets_for_size

; 4546 :             min_buckets_for_size((std::max)(size, size_ + (size_ >> 1)));
; 4547 : 
; 4548 :           if (num_buckets != bucket_count_)

  00115	3b 47 04	 cmp	 eax, DWORD PTR [edi+4]
  00118	74 08		 je	 SHORT $LN61@emplace_un

; 4549 :             this->rehash_impl(num_buckets);

  0011a	50		 push	 eax
  0011b	8b cf		 mov	 ecx, edi
  0011d	e8 00 00 00 00	 call	 ?rehash_impl@?$table@U?$map@V?$allocator@U?$pair@$$CBKUSCache@CEterPackManager@@@std@@@std@@KUSCache@CEterPackManager@@U?$hash@K@boost@@U?$equal_to@K@2@@detail@unordered@boost@@@detail@unordered@boost@@QAEXI@Z ; boost::unordered::detail::table<boost::unordered::detail::map<std::allocator<std::pair<unsigned long const ,CEterPackManager::SCache> >,unsigned long,CEterPackManager::SCache,boost::hash<unsigned long>,std::equal_to<unsigned long> > >::rehash_impl
$LN61@emplace_un:

; 2604 :           return hash % bucket_count;

  00122	8b 45 0c	 mov	 eax, DWORD PTR _key_hash$1$[ebp]
  00125	33 d2		 xor	 edx, edx
  00127	f7 77 04	 div	 DWORD PTR [edi+4]

; 3026 :           return buckets_ + static_cast<std::ptrdiff_t>(bucket_index);

  0012a	8b 47 14	 mov	 eax, DWORD PTR [edi+20]

; 2007 :           node_ = node_pointer();

  0012d	c7 45 f0 00 00
	00 00		 mov	 DWORD PTR _b$2[ebp+4], 0

; 3026 :           return buckets_ + static_cast<std::ptrdiff_t>(bucket_index);

  00134	8d 34 90	 lea	 esi, DWORD PTR [eax+edx*4]

; 4883 :           bucket_info_ = bucket_info_ & ((std::size_t)-1 >> 1);

  00137	81 e2 ff ff ff
	7f		 and	 edx, 2147483647		; 7fffffffH
  0013d	89 53 04	 mov	 DWORD PTR [ebx+4], edx

; 3693 :           if (!b->next_) {

  00140	8b 06		 mov	 eax, DWORD PTR [esi]
  00142	85 c0		 test	 eax, eax
  00144	75 24		 jne	 SHORT $LN70@emplace_un

; 3026 :           return buckets_ + static_cast<std::ptrdiff_t>(bucket_index);

  00146	8b 47 04	 mov	 eax, DWORD PTR [edi+4]
  00149	8b 57 14	 mov	 edx, DWORD PTR [edi+20]
  0014c	8d 0c 82	 lea	 ecx, DWORD PTR [edx+eax*4]

; 3696 :             if (start_node->next_) {

  0014f	8b 01		 mov	 eax, DWORD PTR [ecx]
  00151	85 c0		 test	 eax, eax
  00153	74 0b		 je	 SHORT $LN72@emplace_un

; 4873 :           return bucket_info_ & ((std::size_t)-1 >> 1);

  00155	8b 40 04	 mov	 eax, DWORD PTR [eax+4]
  00158	25 ff ff ff 7f	 and	 eax, 2147483647		; 7fffffffH

; 3697 :               this->get_bucket_pointer(node_bucket(next_node(start_node)))

  0015d	89 1c 82	 mov	 DWORD PTR [edx+eax*4], ebx
$LN72@emplace_un:

; 3698 :                 ->next_ = n;
; 3699 :             }
; 3700 : 
; 3701 :             b->next_ = start_node;

  00160	89 0e		 mov	 DWORD PTR [esi], ecx

; 3702 :             n->next_ = start_node->next_;

  00162	8b 01		 mov	 eax, DWORD PTR [ecx]
  00164	89 03		 mov	 DWORD PTR [ebx], eax

; 3703 :             start_node->next_ = n;

  00166	89 19		 mov	 DWORD PTR [ecx], ebx

; 3704 :           } else {

  00168	eb 08		 jmp	 SHORT $LN71@emplace_un
$LN70@emplace_un:

; 3705 :             n->next_ = b->next_->next_;

  0016a	8b 00		 mov	 eax, DWORD PTR [eax]
  0016c	89 03		 mov	 DWORD PTR [ebx], eax

; 3706 :             b->next_->next_ = n;

  0016e	8b 06		 mov	 eax, DWORD PTR [esi]
  00170	89 18		 mov	 DWORD PTR [eax], ebx
$LN71@emplace_un:

; 3707 :           }
; 3708 : 
; 3709 :           ++this->size_;

  00172	ff 47 08	 inc	 DWORD PTR [edi+8]

; 3718 :           return this->add_node_unique(b.release(), key_hash);

  00175	8d 4d ec	 lea	 ecx, DWORD PTR _b$2[ebp]
  00178	e8 00 00 00 00	 call	 ??1?$node_tmp@V?$allocator@U?$ptr_node@U?$pair@$$CBKUSCache@CEterPackManager@@@std@@@detail@unordered@boost@@@std@@@detail@unordered@boost@@QAE@XZ ; boost::unordered::detail::node_tmp<std::allocator<boost::unordered::detail::ptr_node<std::pair<unsigned long const ,CEterPackManager::SCache> > > >::~node_tmp<std::allocator<boost::unordered::detail::ptr_node<std::pair<unsigned long const ,CEterPackManager::SCache> > > >
; File C:\Program Files (x86)\Microsoft Visual Studio\2019\Professional\VC\Tools\MSVC\14.29.30133\include\utility

; 193  :         : first(_STD forward<_Other1>(_Val1)), second(_STD forward<_Other2>(_Val2)) {}

  0017d	8b 45 08	 mov	 eax, DWORD PTR ___$ReturnUdt$[ebp]
  00180	89 18		 mov	 DWORD PTR [eax], ebx
  00182	c6 40 04 01	 mov	 BYTE PTR [eax+4], 1
; File C:\Users\murat\Desktop\Siveps2-1-99-Project\source\client\extern\include\boost\unordered\detail\implementation.hpp

; 3748 :         }

  00186	8b 4d f4	 mov	 ecx, DWORD PTR __$EHRec$[ebp]
  00189	64 89 0d 00 00
	00 00		 mov	 DWORD PTR fs:0, ecx
  00190	59		 pop	 ecx
  00191	5f		 pop	 edi
  00192	5e		 pop	 esi
  00193	5b		 pop	 ebx
  00194	8b e5		 mov	 esp, ebp
  00196	5d		 pop	 ebp
  00197	c2 0c 00	 ret	 12			; 0000000cH
_TEXT	ENDS
;	COMDAT text$x
text$x	SEGMENT
__unwindfunclet$??$emplace_unique@U?$pair@$$CBKUSCache@CEterPackManager@@@std@@@?$table@U?$map@V?$allocator@U?$pair@$$CBKUSCache@CEterPackManager@@@std@@@std@@KUSCache@CEterPackManager@@U?$hash@K@boost@@U?$equal_to@K@2@@detail@unordered@boost@@@detail@unordered@boost@@QAE?AU?$pair@U?$iterator@U?$ptr_node@U?$pair@$$CBKUSCache@CEterPackManager@@@std@@@detail@unordered@boost@@@iterator_detail@unordered@boost@@_N@std@@ABK$$QAU?$pair@$$CBKUSCache@CEterPackManager@@@5@@Z$0:
  00000	8d 4d ec	 lea	 ecx, DWORD PTR _a$3[ebp]
  00003	e9 00 00 00 00	 jmp	 ??1?$node_constructor@V?$allocator@U?$ptr_node@U?$pair@$$CBKUSCache@CEterPackManager@@@std@@@detail@unordered@boost@@@std@@@detail@unordered@boost@@QAE@XZ ; boost::unordered::detail::node_constructor<std::allocator<boost::unordered::detail::ptr_node<std::pair<unsigned long const ,CEterPackManager::SCache> > > >::~node_constructor<std::allocator<boost::unordered::detail::ptr_node<std::pair<unsigned long const ,CEterPackManager::SCache> > > >
__unwindfunclet$??$emplace_unique@U?$pair@$$CBKUSCache@CEterPackManager@@@std@@@?$table@U?$map@V?$allocator@U?$pair@$$CBKUSCache@CEterPackManager@@@std@@@std@@KUSCache@CEterPackManager@@U?$hash@K@boost@@U?$equal_to@K@2@@detail@unordered@boost@@@detail@unordered@boost@@QAE?AU?$pair@U?$iterator@U?$ptr_node@U?$pair@$$CBKUSCache@CEterPackManager@@@std@@@detail@unordered@boost@@@iterator_detail@unordered@boost@@_N@std@@ABK$$QAU?$pair@$$CBKUSCache@CEterPackManager@@@5@@Z$1:
  00008	8d 4d ec	 lea	 ecx, DWORD PTR _b$2[ebp]
  0000b	e9 00 00 00 00	 jmp	 ??1?$node_tmp@V?$allocator@U?$ptr_node@U?$pair@$$CBKUSCache@CEterPackManager@@@std@@@detail@unordered@boost@@@std@@@detail@unordered@boost@@QAE@XZ ; boost::unordered::detail::node_tmp<std::allocator<boost::unordered::detail::ptr_node<std::pair<unsigned long const ,CEterPackManager::SCache> > > >::~node_tmp<std::allocator<boost::unordered::detail::ptr_node<std::pair<unsigned long const ,CEterPackManager::SCache> > > >
  00010	cc		 int	 3
  00011	cc		 int	 3
  00012	cc		 int	 3
  00013	cc		 int	 3
  00014	cc		 int	 3
__ehhandler$??$emplace_unique@U?$pair@$$CBKUSCache@CEterPackManager@@@std@@@?$table@U?$map@V?$allocator@U?$pair@$$CBKUSCache@CEterPackManager@@@std@@@std@@KUSCache@CEterPackManager@@U?$hash@K@boost@@U?$equal_to@K@2@@detail@unordered@boost@@@detail@unordered@boost@@QAE?AU?$pair@U?$iterator@U?$ptr_node@U?$pair@$$CBKUSCache@CEterPackManager@@@std@@@detail@unordered@boost@@@iterator_detail@unordered@boost@@_N@std@@ABK$$QAU?$pair@$$CBKUSCache@CEterPackManager@@@5@@Z:
  00015	90		 npad	 1
  00016	90		 npad	 1
  00017	8b 54 24 08	 mov	 edx, DWORD PTR [esp+8]
  0001b	8d 42 0c	 lea	 eax, DWORD PTR [edx+12]
  0001e	8b 4a e8	 mov	 ecx, DWORD PTR [edx-24]
  00021	33 c8		 xor	 ecx, eax
  00023	e8 00 00 00 00	 call	 @__security_check_cookie@4
  00028	b8 00 00 00 00	 mov	 eax, OFFSET __ehfuncinfo$??$emplace_unique@U?$pair@$$CBKUSCache@CEterPackManager@@@std@@@?$table@U?$map@V?$allocator@U?$pair@$$CBKUSCache@CEterPackManager@@@std@@@std@@KUSCache@CEterPackManager@@U?$hash@K@boost@@U?$equal_to@K@2@@detail@unordered@boost@@@detail@unordered@boost@@QAE?AU?$pair@U?$iterator@U?$ptr_node@U?$pair@$$CBKUSCache@CEterPackManager@@@std@@@detail@unordered@boost@@@iterator_detail@unordered@boost@@_N@std@@ABK$$QAU?$pair@$$CBKUSCache@CEterPackManager@@@5@@Z
  0002d	e9 00 00 00 00	 jmp	 ___CxxFrameHandler3
text$x	ENDS
??$emplace_unique@U?$pair@$$CBKUSCache@CEterPackManager@@@std@@@?$table@U?$map@V?$allocator@U?$pair@$$CBKUSCache@CEterPackManager@@@std@@@std@@KUSCache@CEterPackManager@@U?$hash@K@boost@@U?$equal_to@K@2@@detail@unordered@boost@@@detail@unordered@boost@@QAE?AU?$pair@U?$iterator@U?$ptr_node@U?$pair@$$CBKUSCache@CEterPackManager@@@std@@@detail@unordered@boost@@@iterator_detail@unordered@boost@@_N@std@@ABK$$QAU?$pair@$$CBKUSCache@CEterPackManager@@@5@@Z ENDP ; boost::unordered::detail::table<boost::unordered::detail::map<std::allocator<std::pair<unsigned long const ,CEterPackManager::SCache> >,unsigned long,CEterPackManager::SCache,boost::hash<unsigned long>,std::equal_to<unsigned long> > >::emplace_unique<std::pair<unsigned long const ,CEterPackManager::SCache> >
; Function compile flags: /Ogtp
; File C:\Program Files (x86)\Microsoft Visual Studio\2019\Professional\VC\Tools\MSVC\14.29.30133\include\xstring
; File C:\Program Files (x86)\Microsoft Visual Studio\2019\Professional\VC\Tools\MSVC\14.29.30133\include\xmemory
; File C:\Program Files (x86)\Microsoft Visual Studio\2019\Professional\VC\Tools\MSVC\14.29.30133\include\xstring
; File C:\Program Files (x86)\Microsoft Visual Studio\2019\Professional\VC\Tools\MSVC\14.29.30133\include\xmemory
; File C:\Program Files (x86)\Microsoft Visual Studio\2019\Professional\VC\Tools\MSVC\14.29.30133\include\xstring
;	COMDAT ??__FstrFileName@?1??GetFromPack@CEterPackManager@@QAE_NAAVCMappedFile@@PBDPAPBX@Z@YAXXZ
text$yd	SEGMENT
??__FstrFileName@?1??GetFromPack@CEterPackManager@@QAE_NAAVCMappedFile@@PBDPAPBX@Z@YAXXZ PROC ; `CEterPackManager::GetFromPack'::`2'::`dynamic atexit destructor for 'strFileName'', COMDAT

; 2319 :         return _BUF_SIZE <= _Myres;

  00000	8b 15 14 00 00
	00		 mov	 edx, DWORD PTR ?strFileName@?1??GetFromPack@CEterPackManager@@QAE_NAAVCMappedFile@@PBDPAPBX@Z@4V?$basic_string@DU?$char_traits@D@std@@V?$allocator@D@2@@std@@A+20
  00006	83 fa 10	 cmp	 edx, 16			; 00000010H

; 4618 :         if (_Mypair._Myval2._Large_string_engaged()) {

  00009	72 2f		 jb	 SHORT $LN15@dynamic
; File C:\Program Files (x86)\Microsoft Visual Studio\2019\Professional\VC\Tools\MSVC\14.29.30133\include\xmemory

; 835  :         _Deallocate<_New_alignof<_Ty>>(_Ptr, sizeof(_Ty) * _Count);

  0000b	8b 0d 00 00 00
	00		 mov	 ecx, DWORD PTR ?strFileName@?1??GetFromPack@CEterPackManager@@QAE_NAAVCMappedFile@@PBDPAPBX@Z@4V?$basic_string@DU?$char_traits@D@std@@V?$allocator@D@2@@std@@A
; File C:\Program Files (x86)\Microsoft Visual Studio\2019\Professional\VC\Tools\MSVC\14.29.30133\include\xstring

; 4622 :             _Al.deallocate(_Ptr, _Mypair._Myval2._Myres + 1);

  00011	42		 inc	 edx
; File C:\Program Files (x86)\Microsoft Visual Studio\2019\Professional\VC\Tools\MSVC\14.29.30133\include\xmemory

; 835  :         _Deallocate<_New_alignof<_Ty>>(_Ptr, sizeof(_Ty) * _Count);

  00012	8b c1		 mov	 eax, ecx

; 260  :         if (_Bytes >= _Big_allocation_threshold) { // boost the alignment of big allocations to help autovectorization

  00014	81 fa 00 10 00
	00		 cmp	 edx, 4096		; 00001000H
  0001a	72 14		 jb	 SHORT $LN25@dynamic

; 158  :     const uintptr_t _Ptr_container   = _Ptr_user[-1];

  0001c	8b 49 fc	 mov	 ecx, DWORD PTR [ecx-4]
  0001f	83 c2 23	 add	 edx, 35			; 00000023H
  00022	2b c1		 sub	 eax, ecx

; 159  : 
; 160  :     // If the following asserts, it likely means that we are performing
; 161  :     // an aligned delete on memory coming from an unaligned allocation.
; 162  :     _STL_ASSERT(_Ptr_user[-2] == _Big_allocation_sentinel, "invalid argument");
; 163  : 
; 164  :     // Extra paranoia on aligned allocation/deallocation; ensure _Ptr_container is
; 165  :     // in range [_Min_back_shift, _Non_user_size]
; 166  : #ifdef _DEBUG
; 167  :     constexpr uintptr_t _Min_back_shift = 2 * sizeof(void*);
; 168  : #else // ^^^ _DEBUG ^^^ // vvv !_DEBUG vvv
; 169  :     constexpr uintptr_t _Min_back_shift = sizeof(void*);
; 170  : #endif // _DEBUG
; 171  :     const uintptr_t _Back_shift = reinterpret_cast<uintptr_t>(_Ptr) - _Ptr_container;
; 172  :     _STL_VERIFY(_Back_shift >= _Min_back_shift && _Back_shift <= _Non_user_size, "invalid argument");

  00024	83 c0 fc	 add	 eax, -4			; fffffffcH
  00027	83 f8 1f	 cmp	 eax, 31			; 0000001fH
  0002a	0f 87 00 00 00
	00		 ja	 __invalid_parameter_noinfo_noreturn
$LN25@dynamic:

; 264  :         ::operator delete(_Ptr, _Bytes);

  00030	52		 push	 edx
  00031	51		 push	 ecx
  00032	e8 00 00 00 00	 call	 ??3@YAXPAXI@Z		; operator delete
  00037	83 c4 08	 add	 esp, 8
$LN15@dynamic:
; File C:\Program Files (x86)\Microsoft Visual Studio\2019\Professional\VC\Tools\MSVC\14.29.30133\include\xstring

; 4633 :             _Mypair._Myval2._Mysize = 0;

  0003a	c7 05 10 00 00
	00 00 00 00 00	 mov	 DWORD PTR ?strFileName@?1??GetFromPack@CEterPackManager@@QAE_NAAVCMappedFile@@PBDPAPBX@Z@4V?$basic_string@DU?$char_traits@D@std@@V?$allocator@D@2@@std@@A+16, 0

; 4634 :             _Mypair._Myval2._Myres  = _BUF_SIZE - 1;

  00044	c7 05 14 00 00
	00 0f 00 00 00	 mov	 DWORD PTR ?strFileName@?1??GetFromPack@CEterPackManager@@QAE_NAAVCMappedFile@@PBDPAPBX@Z@4V?$basic_string@DU?$char_traits@D@std@@V?$allocator@D@2@@std@@A+20, 15 ; 0000000fH

; 4635 :             // the _Traits::assign is last so the codegen doesn't think the char write can alias this
; 4636 :             _Traits::assign(_Mypair._Myval2._Bx._Buf[0], _Elem());

  0004e	c6 05 00 00 00
	00 00		 mov	 BYTE PTR ?strFileName@?1??GetFromPack@CEterPackManager@@QAE_NAAVCMappedFile@@PBDPAPBX@Z@4V?$basic_string@DU?$char_traits@D@std@@V?$allocator@D@2@@std@@A, 0
  00055	c3		 ret	 0
??__FstrFileName@?1??GetFromPack@CEterPackManager@@QAE_NAAVCMappedFile@@PBDPAPBX@Z@YAXXZ ENDP ; `CEterPackManager::GetFromPack'::`2'::`dynamic atexit destructor for 'strFileName''
text$yd	ENDS
; Function compile flags: /Ogtp
; File C:\Users\murat\Desktop\Siveps2-1-99-Project\source\client\Client\EterPack\EterPackManager.cpp
;	COMDAT ??1FinderLock@@QAE@XZ
_TEXT	SEGMENT
??1FinderLock@@QAE@XZ PROC				; FinderLock::~FinderLock, COMDAT
; _this$ = ecx

; 192  : 		LeaveCriticalSection(p_cs);

  00000	ff 31		 push	 DWORD PTR [ecx]
  00002	ff 15 00 00 00
	00		 call	 DWORD PTR __imp__LeaveCriticalSection@4

; 193  : 	}

  00008	c3		 ret	 0
??1FinderLock@@QAE@XZ ENDP				; FinderLock::~FinderLock
_TEXT	ENDS
; Function compile flags: /Ogtp
; File C:\Program Files (x86)\Microsoft Visual Studio\2019\Professional\VC\Tools\MSVC\14.29.30133\include\xstring
; File C:\Program Files (x86)\Microsoft Visual Studio\2019\Professional\VC\Tools\MSVC\14.29.30133\include\xmemory
; File C:\Program Files (x86)\Microsoft Visual Studio\2019\Professional\VC\Tools\MSVC\14.29.30133\include\xstring
; File C:\Program Files (x86)\Microsoft Visual Studio\2019\Professional\VC\Tools\MSVC\14.29.30133\include\xmemory
; File C:\Program Files (x86)\Microsoft Visual Studio\2019\Professional\VC\Tools\MSVC\14.29.30133\include\xstring
; File C:\Program Files (x86)\Microsoft Visual Studio\2019\Professional\VC\Tools\MSVC\14.29.30133\include\xmemory
;	COMDAT ??1?$pair@$$CBV?$basic_string@DU?$char_traits@D@std@@V?$allocator@D@2@@std@@PAVCEterPack@@@std@@QAE@XZ
_TEXT	SEGMENT
??1?$pair@$$CBV?$basic_string@DU?$char_traits@D@std@@V?$allocator@D@2@@std@@PAVCEterPack@@@std@@QAE@XZ PROC ; std::pair<std::basic_string<char,std::char_traits<char>,std::allocator<char> > const ,CEterPack *>::~pair<std::basic_string<char,std::char_traits<char>,std::allocator<char> > const ,CEterPack *>, COMDAT
; _this$ = ecx
; File C:\Program Files (x86)\Microsoft Visual Studio\2019\Professional\VC\Tools\MSVC\14.29.30133\include\xstring

; 2319 :         return _BUF_SIZE <= _Myres;

  00000	56		 push	 esi
  00001	8b f1		 mov	 esi, ecx
  00003	8b 4e 14	 mov	 ecx, DWORD PTR [esi+20]
  00006	83 f9 10	 cmp	 ecx, 16			; 00000010H

; 4618 :         if (_Mypair._Myval2._Large_string_engaged()) {

  00009	72 27		 jb	 SHORT $LN15@pair
; File C:\Program Files (x86)\Microsoft Visual Studio\2019\Professional\VC\Tools\MSVC\14.29.30133\include\xmemory

; 835  :         _Deallocate<_New_alignof<_Ty>>(_Ptr, sizeof(_Ty) * _Count);

  0000b	8b 06		 mov	 eax, DWORD PTR [esi]
; File C:\Program Files (x86)\Microsoft Visual Studio\2019\Professional\VC\Tools\MSVC\14.29.30133\include\xstring

; 4622 :             _Al.deallocate(_Ptr, _Mypair._Myval2._Myres + 1);

  0000d	41		 inc	 ecx
; File C:\Program Files (x86)\Microsoft Visual Studio\2019\Professional\VC\Tools\MSVC\14.29.30133\include\xmemory

; 260  :         if (_Bytes >= _Big_allocation_threshold) { // boost the alignment of big allocations to help autovectorization

  0000e	81 f9 00 10 00
	00		 cmp	 ecx, 4096		; 00001000H
  00014	72 12		 jb	 SHORT $LN25@pair

; 158  :     const uintptr_t _Ptr_container   = _Ptr_user[-1];

  00016	8b 50 fc	 mov	 edx, DWORD PTR [eax-4]
  00019	83 c1 23	 add	 ecx, 35			; 00000023H

; 159  : 
; 160  :     // If the following asserts, it likely means that we are performing
; 161  :     // an aligned delete on memory coming from an unaligned allocation.
; 162  :     _STL_ASSERT(_Ptr_user[-2] == _Big_allocation_sentinel, "invalid argument");
; 163  : 
; 164  :     // Extra paranoia on aligned allocation/deallocation; ensure _Ptr_container is
; 165  :     // in range [_Min_back_shift, _Non_user_size]
; 166  : #ifdef _DEBUG
; 167  :     constexpr uintptr_t _Min_back_shift = 2 * sizeof(void*);
; 168  : #else // ^^^ _DEBUG ^^^ // vvv !_DEBUG vvv
; 169  :     constexpr uintptr_t _Min_back_shift = sizeof(void*);
; 170  : #endif // _DEBUG
; 171  :     const uintptr_t _Back_shift = reinterpret_cast<uintptr_t>(_Ptr) - _Ptr_container;

  0001c	2b c2		 sub	 eax, edx

; 172  :     _STL_VERIFY(_Back_shift >= _Min_back_shift && _Back_shift <= _Non_user_size, "invalid argument");

  0001e	83 c0 fc	 add	 eax, -4			; fffffffcH
  00021	83 f8 1f	 cmp	 eax, 31			; 0000001fH
  00024	77 1f		 ja	 SHORT $LN22@pair

; 173  :     _Ptr = reinterpret_cast<void*>(_Ptr_container);

  00026	8b c2		 mov	 eax, edx
$LN25@pair:

; 264  :         ::operator delete(_Ptr, _Bytes);

  00028	51		 push	 ecx
  00029	50		 push	 eax
  0002a	e8 00 00 00 00	 call	 ??3@YAXPAXI@Z		; operator delete
  0002f	83 c4 08	 add	 esp, 8
$LN15@pair:
; File C:\Program Files (x86)\Microsoft Visual Studio\2019\Professional\VC\Tools\MSVC\14.29.30133\include\xstring

; 4633 :             _Mypair._Myval2._Mysize = 0;

  00032	c7 46 10 00 00
	00 00		 mov	 DWORD PTR [esi+16], 0

; 4634 :             _Mypair._Myval2._Myres  = _BUF_SIZE - 1;

  00039	c7 46 14 0f 00
	00 00		 mov	 DWORD PTR [esi+20], 15	; 0000000fH

; 4635 :             // the _Traits::assign is last so the codegen doesn't think the char write can alias this
; 4636 :             _Traits::assign(_Mypair._Myval2._Bx._Buf[0], _Elem());

  00040	c6 06 00	 mov	 BYTE PTR [esi], 0
  00043	5e		 pop	 esi
  00044	c3		 ret	 0
$LN22@pair:
; File C:\Program Files (x86)\Microsoft Visual Studio\2019\Professional\VC\Tools\MSVC\14.29.30133\include\xmemory

; 172  :     _STL_VERIFY(_Back_shift >= _Min_back_shift && _Back_shift <= _Non_user_size, "invalid argument");

  00045	e8 00 00 00 00	 call	 __invalid_parameter_noinfo_noreturn
$LN31@pair:
  0004a	cc		 int	 3
??1?$pair@$$CBV?$basic_string@DU?$char_traits@D@std@@V?$allocator@D@2@@std@@PAVCEterPack@@@std@@QAE@XZ ENDP ; std::pair<std::basic_string<char,std::char_traits<char>,std::allocator<char> > const ,CEterPack *>::~pair<std::basic_string<char,std::char_traits<char>,std::allocator<char> > const ,CEterPack *>
_TEXT	ENDS
; Function compile flags: /Ogtp
;	COMDAT ??_GCEterPackManager@@UAEPAXI@Z
_TEXT	SEGMENT
___flags$ = 8						; size = 4
??_GCEterPackManager@@UAEPAXI@Z PROC			; CEterPackManager::`scalar deleting destructor', COMDAT
; _this$ = ecx
  00000	55		 push	 ebp
  00001	8b ec		 mov	 ebp, esp
  00003	56		 push	 esi
  00004	8b f1		 mov	 esi, ecx
  00006	e8 00 00 00 00	 call	 ??1CEterPackManager@@UAE@XZ ; CEterPackManager::~CEterPackManager
  0000b	f6 45 08 01	 test	 BYTE PTR ___flags$[ebp], 1
  0000f	74 0e		 je	 SHORT $LN4@scalar
  00011	68 78 14 00 00	 push	 5240			; 00001478H
  00016	56		 push	 esi
  00017	e8 00 00 00 00	 call	 ??3@YAXPAXI@Z		; operator delete
  0001c	83 c4 08	 add	 esp, 8
$LN4@scalar:
  0001f	8b c6		 mov	 eax, esi
  00021	5e		 pop	 esi
  00022	5d		 pop	 ebp
  00023	c2 04 00	 ret	 4
??_GCEterPackManager@@UAEPAXI@Z ENDP			; CEterPackManager::`scalar deleting destructor'
_TEXT	ENDS
; Function compile flags: /Ogtp
; File C:\Users\murat\Desktop\Siveps2-1-99-Project\source\client\extern\include\boost\unordered\unordered_map.hpp
; File C:\Users\murat\Desktop\Siveps2-1-99-Project\source\client\extern\include\boost\unordered\detail\implementation.hpp
; File C:\Users\murat\Desktop\Siveps2-1-99-Project\source\client\extern\include\boost\container_hash\hash.hpp
; File C:\Users\murat\Desktop\Siveps2-1-99-Project\source\client\extern\include\boost\unordered\detail\implementation.hpp
; File C:\Users\murat\Desktop\Siveps2-1-99-Project\source\client\extern\include\boost\unordered\unordered_map.hpp
; File C:\Users\murat\Desktop\Siveps2-1-99-Project\source\client\extern\include\boost\unordered\detail\implementation.hpp
; File C:\Users\murat\Desktop\Siveps2-1-99-Project\source\client\extern\include\boost\unordered\unordered_map.hpp
;	COMDAT ?find@?$unordered_map@KUSCache@CEterPackManager@@U?$hash@K@boost@@U?$equal_to@K@std@@V?$allocator@U?$pair@$$CBKUSCache@CEterPackManager@@@std@@@6@@unordered@boost@@QAE?AU?$iterator@U?$ptr_node@U?$pair@$$CBKUSCache@CEterPackManager@@@std@@@detail@unordered@boost@@@iterator_detail@23@ABK@Z
_TEXT	SEGMENT
___$ReturnUdt$ = 8					; size = 4
_k$ = 12						; size = 4
?find@?$unordered_map@KUSCache@CEterPackManager@@U?$hash@K@boost@@U?$equal_to@K@std@@V?$allocator@U?$pair@$$CBKUSCache@CEterPackManager@@@std@@@6@@unordered@boost@@QAE?AU?$iterator@U?$ptr_node@U?$pair@$$CBKUSCache@CEterPackManager@@@std@@@detail@unordered@boost@@@iterator_detail@23@ABK@Z PROC ; boost::unordered::unordered_map<unsigned long,CEterPackManager::SCache,boost::hash<unsigned long>,std::equal_to<unsigned long>,std::allocator<std::pair<unsigned long const ,CEterPackManager::SCache> > >::find, COMDAT
; _this$ = ecx

; 1803 :     {

  00000	55		 push	 ebp
  00001	8b ec		 mov	 ebp, esp
  00003	56		 push	 esi
  00004	8b f1		 mov	 esi, ecx
; File C:\Users\murat\Desktop\Siveps2-1-99-Project\source\client\extern\include\boost\unordered\detail\implementation.hpp

; 2791 :           return *static_cast<function_pair const*>(

  00006	0f b6 06	 movzx	 eax, BYTE PTR [esi]
  00009	8d 56 01	 lea	 edx, DWORD PTR [esi+1]
  0000c	83 e0 01	 and	 eax, 1
  0000f	03 d0		 add	 edx, eax

; 3581 :           return this->find_node_impl(hash(k), k, this->key_eq());

  00011	8d 42 01	 lea	 eax, DWORD PTR [edx+1]
  00014	f7 da		 neg	 edx
  00016	1b d2		 sbb	 edx, edx
  00018	23 d0		 and	 edx, eax
  0001a	8b 45 0c	 mov	 eax, DWORD PTR _k$[ebp]
  0001d	52		 push	 edx
  0001e	50		 push	 eax
; File C:\Users\murat\Desktop\Siveps2-1-99-Project\source\client\extern\include\boost\container_hash\hash.hpp

; 621  :     BOOST_HASH_SPECIALIZE(unsigned long)

  0001f	ff 30		 push	 DWORD PTR [eax]
  00021	e8 00 00 00 00	 call	 ??$hash_value@K@boost@@YAIK@Z ; boost::hash_value<unsigned long>
  00026	83 c4 04	 add	 esp, 4
; File C:\Users\murat\Desktop\Siveps2-1-99-Project\source\client\extern\include\boost\unordered\detail\implementation.hpp

; 3581 :           return this->find_node_impl(hash(k), k, this->key_eq());

  00029	8b ce		 mov	 ecx, esi
  0002b	50		 push	 eax
  0002c	e8 00 00 00 00	 call	 ??$find_node_impl@KU?$equal_to@K@std@@@?$table@U?$map@V?$allocator@U?$pair@$$CBKUSCache@CEterPackManager@@@std@@@std@@KUSCache@CEterPackManager@@U?$hash@K@boost@@U?$equal_to@K@2@@detail@unordered@boost@@@detail@unordered@boost@@QBEPAU?$ptr_node@U?$pair@$$CBKUSCache@CEterPackManager@@@std@@@123@IABKABU?$equal_to@K@std@@@Z ; boost::unordered::detail::table<boost::unordered::detail::map<std::allocator<std::pair<unsigned long const ,CEterPackManager::SCache> >,unsigned long,CEterPackManager::SCache,boost::hash<unsigned long>,std::equal_to<unsigned long> > >::find_node_impl<unsigned long,std::equal_to<unsigned long> >

; 2371 :           : node_(static_cast<node_pointer>(x))

  00031	8b 4d 08	 mov	 ecx, DWORD PTR ___$ReturnUdt$[ebp]
; File C:\Users\murat\Desktop\Siveps2-1-99-Project\source\client\extern\include\boost\unordered\unordered_map.hpp

; 1804 :       return iterator(table_.find_node(k));

  00034	5e		 pop	 esi
; File C:\Users\murat\Desktop\Siveps2-1-99-Project\source\client\extern\include\boost\unordered\detail\implementation.hpp

; 2371 :           : node_(static_cast<node_pointer>(x))

  00035	89 01		 mov	 DWORD PTR [ecx], eax
; File C:\Users\murat\Desktop\Siveps2-1-99-Project\source\client\extern\include\boost\unordered\unordered_map.hpp

; 1804 :       return iterator(table_.find_node(k));

  00037	8b c1		 mov	 eax, ecx

; 1805 :     }

  00039	5d		 pop	 ebp
  0003a	c2 08 00	 ret	 8
?find@?$unordered_map@KUSCache@CEterPackManager@@U?$hash@K@boost@@U?$equal_to@K@std@@V?$allocator@U?$pair@$$CBKUSCache@CEterPackManager@@@std@@@6@@unordered@boost@@QAE?AU?$iterator@U?$ptr_node@U?$pair@$$CBKUSCache@CEterPackManager@@@std@@@detail@unordered@boost@@@iterator_detail@23@ABK@Z ENDP ; boost::unordered::unordered_map<unsigned long,CEterPackManager::SCache,boost::hash<unsigned long>,std::equal_to<unsigned long>,std::allocator<std::pair<unsigned long const ,CEterPackManager::SCache> > >::find
_TEXT	ENDS
; Function compile flags: /Ogtp
; File C:\Users\murat\Desktop\Siveps2-1-99-Project\source\client\extern\include\boost\unordered\unordered_map.hpp
;	COMDAT ??1?$unordered_map@KUSCache@CEterPackManager@@U?$hash@K@boost@@U?$equal_to@K@std@@V?$allocator@U?$pair@$$CBKUSCache@CEterPackManager@@@std@@@6@@unordered@boost@@QAE@XZ
_TEXT	SEGMENT
??1?$unordered_map@KUSCache@CEterPackManager@@U?$hash@K@boost@@U?$equal_to@K@std@@V?$allocator@U?$pair@$$CBKUSCache@CEterPackManager@@@std@@@6@@unordered@boost@@QAE@XZ PROC ; boost::unordered::unordered_map<unsigned long,CEterPackManager::SCache,boost::hash<unsigned long>,std::equal_to<unsigned long>,std::allocator<std::pair<unsigned long const ,CEterPackManager::SCache> > >::~unordered_map<unsigned long,CEterPackManager::SCache,boost::hash<unsigned long>,std::equal_to<unsigned long>,std::allocator<std::pair<unsigned long const ,CEterPackManager::SCache> > >, COMDAT
; _this$ = ecx

; 1646 :     }

  00000	e9 00 00 00 00	 jmp	 ??1?$table@U?$map@V?$allocator@U?$pair@$$CBKUSCache@CEterPackManager@@@std@@@std@@KUSCache@CEterPackManager@@U?$hash@K@boost@@U?$equal_to@K@2@@detail@unordered@boost@@@detail@unordered@boost@@QAE@XZ ; boost::unordered::detail::table<boost::unordered::detail::map<std::allocator<std::pair<unsigned long const ,CEterPackManager::SCache> >,unsigned long,CEterPackManager::SCache,boost::hash<unsigned long>,std::equal_to<unsigned long> > >::~table<boost::unordered::detail::map<std::allocator<std::pair<unsigned long const ,CEterPackManager::SCache> >,unsigned long,CEterPackManager::SCache,boost::hash<unsigned long>,std::equal_to<unsigned long> > >
??1?$unordered_map@KUSCache@CEterPackManager@@U?$hash@K@boost@@U?$equal_to@K@std@@V?$allocator@U?$pair@$$CBKUSCache@CEterPackManager@@@std@@@6@@unordered@boost@@QAE@XZ ENDP ; boost::unordered::unordered_map<unsigned long,CEterPackManager::SCache,boost::hash<unsigned long>,std::equal_to<unsigned long>,std::allocator<std::pair<unsigned long const ,CEterPackManager::SCache> > >::~unordered_map<unsigned long,CEterPackManager::SCache,boost::hash<unsigned long>,std::equal_to<unsigned long>,std::allocator<std::pair<unsigned long const ,CEterPackManager::SCache> > >
_TEXT	ENDS
; Function compile flags: /Ogtp
; File C:\Users\murat\Desktop\Siveps2-1-99-Project\source\client\extern\include\boost\unordered\unordered_map.hpp
; File C:\Users\murat\Desktop\Siveps2-1-99-Project\source\client\extern\include\boost\unordered\detail\implementation.hpp
; File C:\Users\murat\Desktop\Siveps2-1-99-Project\source\client\extern\include\boost\unordered\unordered_map.hpp
; File C:\Users\murat\Desktop\Siveps2-1-99-Project\source\client\extern\include\boost\unordered\detail\implementation.hpp
; File C:\Users\murat\Desktop\Siveps2-1-99-Project\source\client\extern\include\boost\unordered\unordered_map.hpp
; File C:\Users\murat\Desktop\Siveps2-1-99-Project\source\client\extern\include\boost\unordered\detail\implementation.hpp
; File C:\Users\murat\Desktop\Siveps2-1-99-Project\source\client\extern\include\boost\unordered\unordered_map.hpp
;	COMDAT ??0?$unordered_map@KUSCache@CEterPackManager@@U?$hash@K@boost@@U?$equal_to@K@std@@V?$allocator@U?$pair@$$CBKUSCache@CEterPackManager@@@std@@@6@@unordered@boost@@QAE@XZ
_TEXT	SEGMENT
_this$ = -4						; size = 4
??0?$unordered_map@KUSCache@CEterPackManager@@U?$hash@K@boost@@U?$equal_to@K@std@@V?$allocator@U?$pair@$$CBKUSCache@CEterPackManager@@@std@@@6@@unordered@boost@@QAE@XZ PROC ; boost::unordered::unordered_map<unsigned long,CEterPackManager::SCache,boost::hash<unsigned long>,std::equal_to<unsigned long>,std::allocator<std::pair<unsigned long const ,CEterPackManager::SCache> > >::unordered_map<unsigned long,CEterPackManager::SCache,boost::hash<unsigned long>,std::equal_to<unsigned long>,std::allocator<std::pair<unsigned long const ,CEterPackManager::SCache> > >, COMDAT
; _this$ = ecx

; 1510 :     {

  00000	55		 push	 ebp
  00001	8b ec		 mov	 ebp, esp
  00003	51		 push	 ecx
  00004	56		 push	 esi
  00005	8b f1		 mov	 esi, ecx
; File C:\Users\murat\Desktop\Siveps2-1-99-Project\source\client\extern\include\boost\unordered\detail\implementation.hpp

; 3121 :               bucket_count_(policy::new_bucket_count(num_buckets)), size_(0),

  00007	6a 0b		 push	 11			; 0000000bH
; File C:\Users\murat\Desktop\Siveps2-1-99-Project\source\client\extern\include\boost\unordered\unordered_map.hpp

; 1510 :     {

  00009	89 75 fc	 mov	 DWORD PTR _this$[ebp], esi
; File C:\Users\murat\Desktop\Siveps2-1-99-Project\source\client\extern\include\boost\unordered\detail\implementation.hpp

; 2761 :         functions(H const& hf, P const& eq) : current_(0)

  0000c	c6 06 00	 mov	 BYTE PTR [esi], 0

; 3121 :               bucket_count_(policy::new_bucket_count(num_buckets)), size_(0),

  0000f	e8 00 00 00 00	 call	 ?new_bucket_count@?$prime_policy@I@detail@unordered@boost@@SAII@Z ; boost::unordered::detail::prime_policy<unsigned int>::new_bucket_count
  00014	83 c4 04	 add	 esp, 4
  00017	89 46 04	 mov	 DWORD PTR [esi+4], eax
  0001a	c7 46 08 00 00
	00 00		 mov	 DWORD PTR [esi+8], 0
; File C:\Users\murat\Desktop\Siveps2-1-99-Project\source\client\extern\include\boost\unordered\unordered_map.hpp

; 1511 :     }

  00021	8b c6		 mov	 eax, esi
; File C:\Users\murat\Desktop\Siveps2-1-99-Project\source\client\extern\include\boost\unordered\detail\implementation.hpp

; 3122 :               mlf_(1.0f), max_load_(0), buckets_()

  00023	c7 46 0c 00 00
	80 3f		 mov	 DWORD PTR [esi+12], 1065353216 ; 3f800000H
  0002a	c7 46 10 00 00
	00 00		 mov	 DWORD PTR [esi+16], 0
  00031	c7 46 14 00 00
	00 00		 mov	 DWORD PTR [esi+20], 0
; File C:\Users\murat\Desktop\Siveps2-1-99-Project\source\client\extern\include\boost\unordered\unordered_map.hpp

; 1511 :     }

  00038	5e		 pop	 esi
  00039	8b e5		 mov	 esp, ebp
  0003b	5d		 pop	 ebp
  0003c	c3		 ret	 0
??0?$unordered_map@KUSCache@CEterPackManager@@U?$hash@K@boost@@U?$equal_to@K@std@@V?$allocator@U?$pair@$$CBKUSCache@CEterPackManager@@@std@@@6@@unordered@boost@@QAE@XZ ENDP ; boost::unordered::unordered_map<unsigned long,CEterPackManager::SCache,boost::hash<unsigned long>,std::equal_to<unsigned long>,std::allocator<std::pair<unsigned long const ,CEterPackManager::SCache> > >::unordered_map<unsigned long,CEterPackManager::SCache,boost::hash<unsigned long>,std::equal_to<unsigned long>,std::allocator<std::pair<unsigned long const ,CEterPackManager::SCache> > >
_TEXT	ENDS
; Function compile flags: /Ogtp
; File C:\Users\murat\Desktop\Siveps2-1-99-Project\source\client\extern\include\boost\unordered\detail\implementation.hpp
; File C:\Users\murat\Desktop\Siveps2-1-99-Project\source\client\extern\include\boost\container_hash\hash.hpp
; File C:\Users\murat\Desktop\Siveps2-1-99-Project\source\client\extern\include\boost\unordered\detail\implementation.hpp
; File C:\Users\murat\Desktop\Siveps2-1-99-Project\source\client\extern\include\boost\container_hash\hash.hpp
; File C:\Users\murat\Desktop\Siveps2-1-99-Project\source\client\extern\include\boost\unordered\detail\implementation.hpp
; File C:\Users\murat\Desktop\Siveps2-1-99-Project\source\client\extern\include\boost\container_hash\hash.hpp
; File C:\Users\murat\Desktop\Siveps2-1-99-Project\source\client\extern\include\boost\unordered\detail\implementation.hpp
;	COMDAT ?rehash_impl@?$table@U?$map@V?$allocator@U?$pair@$$CBKUSCache@CEterPackManager@@@std@@@std@@KUSCache@CEterPackManager@@U?$hash@K@boost@@U?$equal_to@K@2@@detail@unordered@boost@@@detail@unordered@boost@@QAEXI@Z
_TEXT	SEGMENT
_this$1$ = -4						; size = 4
_num_buckets$ = 8					; size = 4
?rehash_impl@?$table@U?$map@V?$allocator@U?$pair@$$CBKUSCache@CEterPackManager@@@std@@@std@@KUSCache@CEterPackManager@@U?$hash@K@boost@@U?$equal_to@K@2@@detail@unordered@boost@@@detail@unordered@boost@@QAEXI@Z PROC ; boost::unordered::detail::table<boost::unordered::detail::map<std::allocator<std::pair<unsigned long const ,CEterPackManager::SCache> >,unsigned long,CEterPackManager::SCache,boost::hash<unsigned long>,std::equal_to<unsigned long> > >::rehash_impl, COMDAT
; _this$ = ecx

; 4577 :       {

  00000	55		 push	 ebp
  00001	8b ec		 mov	 ebp, esp
  00003	51		 push	 ecx
  00004	53		 push	 ebx
  00005	57		 push	 edi

; 4578 :         BOOST_ASSERT(this->buckets_);
; 4579 : 
; 4580 :         this->create_buckets(num_buckets);

  00006	ff 75 08	 push	 DWORD PTR _num_buckets$[ebp]
  00009	8b d9		 mov	 ebx, ecx
  0000b	89 5d fc	 mov	 DWORD PTR _this$1$[ebp], ebx
  0000e	e8 00 00 00 00	 call	 ?create_buckets@?$table@U?$map@V?$allocator@U?$pair@$$CBKUSCache@CEterPackManager@@@std@@@std@@KUSCache@CEterPackManager@@U?$hash@K@boost@@U?$equal_to@K@2@@detail@unordered@boost@@@detail@unordered@boost@@QAEXI@Z ; boost::unordered::detail::table<boost::unordered::detail::map<std::allocator<std::pair<unsigned long const ,CEterPackManager::SCache> >,unsigned long,CEterPackManager::SCache,boost::hash<unsigned long>,std::equal_to<unsigned long> > >::create_buckets

; 3026 :           return buckets_ + static_cast<std::ptrdiff_t>(bucket_index);

  00013	8b 53 04	 mov	 edx, DWORD PTR [ebx+4]
  00016	8b 43 14	 mov	 eax, DWORD PTR [ebx+20]

; 4581 :         link_pointer prev = this->get_previous_start();
; 4582 :         BOOST_TRY
; 4583 :         {
; 4584 :           while (prev->next_) {

  00019	8b 3c 90	 mov	 edi, DWORD PTR [eax+edx*4]

; 3026 :           return buckets_ + static_cast<std::ptrdiff_t>(bucket_index);

  0001c	8d 1c 90	 lea	 ebx, DWORD PTR [eax+edx*4]

; 4581 :         link_pointer prev = this->get_previous_start();
; 4582 :         BOOST_TRY
; 4583 :         {
; 4584 :           while (prev->next_) {

  0001f	85 ff		 test	 edi, edi
  00021	74 77		 je	 SHORT $LN3@rehash_imp
  00023	56		 push	 esi
$LL2@rehash_imp:
; File C:\Users\murat\Desktop\Siveps2-1-99-Project\source\client\extern\include\boost\container_hash\hash.hpp

; 621  :     BOOST_HASH_SPECIALIZE(unsigned long)

  00024	ff 77 08	 push	 DWORD PTR [edi+8]
; File C:\Users\murat\Desktop\Siveps2-1-99-Project\source\client\extern\include\boost\unordered\detail\implementation.hpp

; 4585 :             node_pointer n = next_node(prev);

  00027	8b f7		 mov	 esi, edi
; File C:\Users\murat\Desktop\Siveps2-1-99-Project\source\client\extern\include\boost\container_hash\hash.hpp

; 621  :     BOOST_HASH_SPECIALIZE(unsigned long)

  00029	e8 00 00 00 00	 call	 ??$hash_value@K@boost@@YAIK@Z ; boost::hash_value<unsigned long>
; File C:\Users\murat\Desktop\Siveps2-1-99-Project\source\client\extern\include\boost\unordered\detail\implementation.hpp

; 2604 :           return hash % bucket_count;

  0002e	8b 4d fc	 mov	 ecx, DWORD PTR _this$1$[ebp]
  00031	33 d2		 xor	 edx, edx
; File C:\Users\murat\Desktop\Siveps2-1-99-Project\source\client\extern\include\boost\container_hash\hash.hpp

; 621  :     BOOST_HASH_SPECIALIZE(unsigned long)

  00033	83 c4 04	 add	 esp, 4
; File C:\Users\murat\Desktop\Siveps2-1-99-Project\source\client\extern\include\boost\unordered\detail\implementation.hpp

; 2604 :           return hash % bucket_count;

  00036	f7 71 04	 div	 DWORD PTR [ecx+4]

; 4883 :           bucket_info_ = bucket_info_ & ((std::size_t)-1 >> 1);

  00039	8b c2		 mov	 eax, edx
  0003b	25 ff ff ff 7f	 and	 eax, 2147483647		; 7fffffffH
  00040	89 47 04	 mov	 DWORD PTR [edi+4], eax

; 4586 :             std::size_t key_hash = this->hash(this->get_key(n));
; 4587 :             std::size_t bucket_index = this->hash_to_bucket(key_hash);
; 4588 : 
; 4589 :             n->bucket_info_ = bucket_index;
; 4590 :             n->set_first_in_group();
; 4591 : 
; 4592 :             // Iterator through the rest of the group of equal nodes,
; 4593 :             // setting the bucket.
; 4594 :             for (;;) {
; 4595 :               node_pointer next = next_node(n);

  00043	8b 07		 mov	 eax, DWORD PTR [edi]

; 4596 :               if (!next || next->is_first_in_group()) {

  00045	85 c0		 test	 eax, eax
  00047	74 27		 je	 SHORT $LN53@rehash_imp
  00049	0f 1f 80 00 00
	00 00		 npad	 7
$LL4@rehash_imp:

; 4878 :           return !(bucket_info_ & ~((std::size_t)-1 >> 1));

  00050	8b 48 04	 mov	 ecx, DWORD PTR [eax+4]
  00053	c1 e9 1f	 shr	 ecx, 31			; 0000001fH
  00056	f7 d1		 not	 ecx
  00058	f6 c1 01	 test	 cl, 1

; 4596 :               if (!next || next->is_first_in_group()) {

  0005b	75 13		 jne	 SHORT $LN53@rehash_imp

; 4888 :           bucket_info_ = bucket_info_ | ~((std::size_t)-1 >> 1);

  0005d	8b ca		 mov	 ecx, edx

; 4597 :                 break;
; 4598 :               }
; 4599 :               n = next;

  0005f	8b f0		 mov	 esi, eax

; 4888 :           bucket_info_ = bucket_info_ | ~((std::size_t)-1 >> 1);

  00061	81 c9 00 00 00
	80		 or	 ecx, -2147483648	; 80000000H
  00067	89 48 04	 mov	 DWORD PTR [eax+4], ecx

; 4586 :             std::size_t key_hash = this->hash(this->get_key(n));
; 4587 :             std::size_t bucket_index = this->hash_to_bucket(key_hash);
; 4588 : 
; 4589 :             n->bucket_info_ = bucket_index;
; 4590 :             n->set_first_in_group();
; 4591 : 
; 4592 :             // Iterator through the rest of the group of equal nodes,
; 4593 :             // setting the bucket.
; 4594 :             for (;;) {
; 4595 :               node_pointer next = next_node(n);

  0006a	8b 00		 mov	 eax, DWORD PTR [eax]

; 4596 :               if (!next || next->is_first_in_group()) {

  0006c	85 c0		 test	 eax, eax
  0006e	75 e0		 jne	 SHORT $LL4@rehash_imp
$LN53@rehash_imp:

; 3026 :           return buckets_ + static_cast<std::ptrdiff_t>(bucket_index);

  00070	8b 45 fc	 mov	 eax, DWORD PTR _this$1$[ebp]
  00073	8b 40 14	 mov	 eax, DWORD PTR [eax+20]
  00076	8d 0c 90	 lea	 ecx, DWORD PTR [eax+edx*4]

; 4600 :               n->bucket_info_ = bucket_index;
; 4601 :               n->reset_first_in_group();
; 4602 :             }
; 4603 : 
; 4604 :             // n is now the last node in the group
; 4605 :             bucket_pointer b = this->get_bucket_pointer(bucket_index);
; 4606 :             if (!b->next_) {

  00079	8b 01		 mov	 eax, DWORD PTR [ecx]
  0007b	85 c0		 test	 eax, eax
  0007d	75 08		 jne	 SHORT $LN12@rehash_imp

; 4607 :               b->next_ = prev;

  0007f	89 19		 mov	 DWORD PTR [ecx], ebx

; 4608 :               prev = n;

  00081	8b de		 mov	 ebx, esi
  00083	8b 3e		 mov	 edi, DWORD PTR [esi]

; 4609 :             } else {

  00085	eb 0e		 jmp	 SHORT $LN13@rehash_imp
$LN12@rehash_imp:

; 4610 :               link_pointer next = n->next_;
; 4611 :               n->next_ = b->next_->next_;

  00087	8b 00		 mov	 eax, DWORD PTR [eax]
  00089	8b 3e		 mov	 edi, DWORD PTR [esi]
  0008b	89 06		 mov	 DWORD PTR [esi], eax

; 4612 :               b->next_->next_ = prev->next_;

  0008d	8b 09		 mov	 ecx, DWORD PTR [ecx]
  0008f	8b 03		 mov	 eax, DWORD PTR [ebx]
  00091	89 01		 mov	 DWORD PTR [ecx], eax

; 4613 :               prev->next_ = next;

  00093	89 3b		 mov	 DWORD PTR [ebx], edi
$LN13@rehash_imp:

; 4581 :         link_pointer prev = this->get_previous_start();
; 4582 :         BOOST_TRY
; 4583 :         {
; 4584 :           while (prev->next_) {

  00095	85 ff		 test	 edi, edi
  00097	75 8b		 jne	 SHORT $LL2@rehash_imp
  00099	5e		 pop	 esi
$LN3@rehash_imp:
  0009a	5f		 pop	 edi

; 4614 :             }
; 4615 :           }
; 4616 :         }
; 4617 :         BOOST_CATCH(...)
; 4618 :         {
; 4619 :           node_pointer n = next_node(prev);
; 4620 :           prev->next_ = node_pointer();
; 4621 :           while (n) {
; 4622 :             node_pointer next = next_node(n);
; 4623 :             destroy_node(n);
; 4624 :             --size_;
; 4625 :             n = next;
; 4626 :           }
; 4627 :           BOOST_RETHROW
; 4628 :         }
; 4629 :         BOOST_CATCH_END
; 4630 :       }

  0009b	5b		 pop	 ebx
  0009c	8b e5		 mov	 esp, ebp
  0009e	5d		 pop	 ebp
  0009f	c2 04 00	 ret	 4
?rehash_impl@?$table@U?$map@V?$allocator@U?$pair@$$CBKUSCache@CEterPackManager@@@std@@@std@@KUSCache@CEterPackManager@@U?$hash@K@boost@@U?$equal_to@K@2@@detail@unordered@boost@@@detail@unordered@boost@@QAEXI@Z ENDP ; boost::unordered::detail::table<boost::unordered::detail::map<std::allocator<std::pair<unsigned long const ,CEterPackManager::SCache> >,unsigned long,CEterPackManager::SCache,boost::hash<unsigned long>,std::equal_to<unsigned long> > >::rehash_impl
_TEXT	ENDS
; Function compile flags: /Ogtp
; File C:\Users\murat\Desktop\Siveps2-1-99-Project\source\client\extern\include\boost\unordered\detail\implementation.hpp
; File C:\Program Files (x86)\Microsoft Visual Studio\2019\Professional\VC\Tools\MSVC\14.29.30133\include\xmemory
; File C:\Users\murat\Desktop\Siveps2-1-99-Project\source\client\extern\include\boost\unordered\detail\implementation.hpp
; File C:\Program Files (x86)\Microsoft Visual Studio\2019\Professional\VC\Tools\MSVC\14.29.30133\include\xmemory
; File C:\Users\murat\Desktop\Siveps2-1-99-Project\source\client\extern\include\boost\unordered\detail\implementation.hpp
; File C:\Program Files (x86)\Microsoft Visual Studio\2019\Professional\VC\Tools\MSVC\14.29.30133\include\xmemory
; File C:\Users\murat\Desktop\Siveps2-1-99-Project\source\client\extern\include\boost\unordered\detail\implementation.hpp
; File C:\Program Files (x86)\Microsoft Visual Studio\2019\Professional\VC\Tools\MSVC\14.29.30133\include\xmemory
; File C:\Users\murat\Desktop\Siveps2-1-99-Project\source\client\extern\include\boost\unordered\detail\implementation.hpp
;	COMDAT ??1?$table@U?$map@V?$allocator@U?$pair@$$CBKUSCache@CEterPackManager@@@std@@@std@@KUSCache@CEterPackManager@@U?$hash@K@boost@@U?$equal_to@K@2@@detail@unordered@boost@@@detail@unordered@boost@@QAE@XZ
_TEXT	SEGMENT
??1?$table@U?$map@V?$allocator@U?$pair@$$CBKUSCache@CEterPackManager@@@std@@@std@@KUSCache@CEterPackManager@@U?$hash@K@boost@@U?$equal_to@K@2@@detail@unordered@boost@@@detail@unordered@boost@@QAE@XZ PROC ; boost::unordered::detail::table<boost::unordered::detail::map<std::allocator<std::pair<unsigned long const ,CEterPackManager::SCache> >,unsigned long,CEterPackManager::SCache,boost::hash<unsigned long>,std::equal_to<unsigned long> > >::~table<boost::unordered::detail::map<std::allocator<std::pair<unsigned long const ,CEterPackManager::SCache> >,unsigned long,CEterPackManager::SCache,boost::hash<unsigned long>,std::equal_to<unsigned long> > >, COMDAT
; _this$ = ecx

; 3333 :         ~table() { delete_buckets(); }

  00000	57		 push	 edi
  00001	8b f9		 mov	 edi, ecx

; 3345 :           if (buckets_) {

  00003	8b 57 14	 mov	 edx, DWORD PTR [edi+20]
  00006	85 d2		 test	 edx, edx
  00008	0f 84 7f 00 00
	00		 je	 $LN6@table

; 3026 :           return buckets_ + static_cast<std::ptrdiff_t>(bucket_index);

  0000e	8b 4f 04	 mov	 ecx, DWORD PTR [edi+4]
  00011	53		 push	 ebx
  00012	56		 push	 esi

; 3346 :             node_pointer n = static_cast<node_pointer>(

  00013	8b d9		 mov	 ebx, ecx
  00015	8b f2		 mov	 esi, edx
  00017	8b 04 8a	 mov	 eax, DWORD PTR [edx+ecx*4]

; 3347 :               get_bucket_pointer(bucket_count_)->next_);
; 3348 : 
; 3349 :             if (bucket::extra_node) {
; 3350 :               node_pointer next = next_node(n);
; 3351 :               boost::unordered::detail::func::destroy(boost::to_address(n));
; 3352 :               node_allocator_traits::deallocate(node_alloc(), n, 1);
; 3353 :               n = next;
; 3354 :             }
; 3355 : 
; 3356 :             while (n) {

  0001a	85 c0		 test	 eax, eax
  0001c	74 1f		 je	 SHORT $LN5@table
  0001e	66 90		 npad	 2
$LL4@table:

; 3357 :               node_pointer next = next_node(n);

  00020	8b 30		 mov	 esi, DWORD PTR [eax]
; File C:\Program Files (x86)\Microsoft Visual Studio\2019\Professional\VC\Tools\MSVC\14.29.30133\include\xmemory

; 264  :         ::operator delete(_Ptr, _Bytes);

  00022	6a 14		 push	 20			; 00000014H
  00024	50		 push	 eax
  00025	e8 00 00 00 00	 call	 ??3@YAXPAXI@Z		; operator delete
  0002a	83 c4 08	 add	 esp, 8
; File C:\Users\murat\Desktop\Siveps2-1-99-Project\source\client\extern\include\boost\unordered\detail\implementation.hpp

; 3359 :               n = next;

  0002d	8b c6		 mov	 eax, esi
  0002f	85 f6		 test	 esi, esi
  00031	75 ed		 jne	 SHORT $LL4@table
; File C:\Program Files (x86)\Microsoft Visual Studio\2019\Professional\VC\Tools\MSVC\14.29.30133\include\xmemory

; 173  :     _Ptr = reinterpret_cast<void*>(_Ptr_container);

  00033	8b 4f 04	 mov	 ecx, DWORD PTR [edi+4]
  00036	8b d9		 mov	 ebx, ecx
  00038	8b 57 14	 mov	 edx, DWORD PTR [edi+20]
  0003b	8b f2		 mov	 esi, edx
$LN5@table:
; File C:\Users\murat\Desktop\Siveps2-1-99-Project\source\client\extern\include\boost\unordered\detail\implementation.hpp

; 3026 :           return buckets_ + static_cast<std::ptrdiff_t>(bucket_index);

  0003d	8d 43 01	 lea	 eax, DWORD PTR [ebx+1]
  00040	8d 04 86	 lea	 eax, DWORD PTR [esi+eax*4]

; 3376 :           bucket_allocator_traits::deallocate(

  00043	3b f0		 cmp	 esi, eax
  00045	0f 44 cb	 cmove	 ecx, ebx
  00048	0f 44 d6	 cmove	 edx, esi
; File C:\Program Files (x86)\Microsoft Visual Studio\2019\Professional\VC\Tools\MSVC\14.29.30133\include\xmemory

; 702  :             _Deallocate<_New_alignof<value_type>>(_Ptr, sizeof(value_type) * _Count);

  0004b	8d 0c 8d 04 00
	00 00		 lea	 ecx, DWORD PTR [ecx*4+4]

; 260  :         if (_Bytes >= _Big_allocation_threshold) { // boost the alignment of big allocations to help autovectorization

  00052	81 f9 00 10 00
	00		 cmp	 ecx, 4096		; 00001000H
  00058	72 12		 jb	 SHORT $LN88@table

; 158  :     const uintptr_t _Ptr_container   = _Ptr_user[-1];

  0005a	8b 72 fc	 mov	 esi, DWORD PTR [edx-4]
  0005d	83 c1 23	 add	 ecx, 35			; 00000023H

; 159  : 
; 160  :     // If the following asserts, it likely means that we are performing
; 161  :     // an aligned delete on memory coming from an unaligned allocation.
; 162  :     _STL_ASSERT(_Ptr_user[-2] == _Big_allocation_sentinel, "invalid argument");
; 163  : 
; 164  :     // Extra paranoia on aligned allocation/deallocation; ensure _Ptr_container is
; 165  :     // in range [_Min_back_shift, _Non_user_size]
; 166  : #ifdef _DEBUG
; 167  :     constexpr uintptr_t _Min_back_shift = 2 * sizeof(void*);
; 168  : #else // ^^^ _DEBUG ^^^ // vvv !_DEBUG vvv
; 169  :     constexpr uintptr_t _Min_back_shift = sizeof(void*);
; 170  : #endif // _DEBUG
; 171  :     const uintptr_t _Back_shift = reinterpret_cast<uintptr_t>(_Ptr) - _Ptr_container;

  00060	2b d6		 sub	 edx, esi

; 172  :     _STL_VERIFY(_Back_shift >= _Min_back_shift && _Back_shift <= _Non_user_size, "invalid argument");

  00062	8d 42 fc	 lea	 eax, DWORD PTR [edx-4]
  00065	83 f8 1f	 cmp	 eax, 31			; 0000001fH
  00068	77 25		 ja	 SHORT $LN85@table

; 173  :     _Ptr = reinterpret_cast<void*>(_Ptr_container);

  0006a	8b d6		 mov	 edx, esi
$LN88@table:

; 264  :         ::operator delete(_Ptr, _Bytes);

  0006c	51		 push	 ecx
  0006d	52		 push	 edx
  0006e	e8 00 00 00 00	 call	 ??3@YAXPAXI@Z		; operator delete
  00073	83 c4 08	 add	 esp, 8
; File C:\Users\murat\Desktop\Siveps2-1-99-Project\source\client\extern\include\boost\unordered\detail\implementation.hpp

; 3363 :             buckets_ = bucket_pointer();

  00076	c7 47 14 00 00
	00 00		 mov	 DWORD PTR [edi+20], 0

; 3364 :             max_load_ = 0;

  0007d	c7 47 10 00 00
	00 00		 mov	 DWORD PTR [edi+16], 0

; 3365 :             size_ = 0;

  00084	c7 47 08 00 00
	00 00		 mov	 DWORD PTR [edi+8], 0
  0008b	5e		 pop	 esi
  0008c	5b		 pop	 ebx
$LN6@table:
  0008d	5f		 pop	 edi

; 3333 :         ~table() { delete_buckets(); }

  0008e	c3		 ret	 0
$LN85@table:
; File C:\Program Files (x86)\Microsoft Visual Studio\2019\Professional\VC\Tools\MSVC\14.29.30133\include\xmemory

; 172  :     _STL_VERIFY(_Back_shift >= _Min_back_shift && _Back_shift <= _Non_user_size, "invalid argument");

  0008f	e8 00 00 00 00	 call	 __invalid_parameter_noinfo_noreturn
$LN101@table:
  00094	cc		 int	 3
??1?$table@U?$map@V?$allocator@U?$pair@$$CBKUSCache@CEterPackManager@@@std@@@std@@KUSCache@CEterPackManager@@U?$hash@K@boost@@U?$equal_to@K@2@@detail@unordered@boost@@@detail@unordered@boost@@QAE@XZ ENDP ; boost::unordered::detail::table<boost::unordered::detail::map<std::allocator<std::pair<unsigned long const ,CEterPackManager::SCache> >,unsigned long,CEterPackManager::SCache,boost::hash<unsigned long>,std::equal_to<unsigned long> > >::~table<boost::unordered::detail::map<std::allocator<std::pair<unsigned long const ,CEterPackManager::SCache> >,unsigned long,CEterPackManager::SCache,boost::hash<unsigned long>,std::equal_to<unsigned long> > >
_TEXT	ENDS
; Function compile flags: /Ogtp
; File C:\Users\murat\Desktop\Siveps2-1-99-Project\source\client\extern\include\boost\unordered\detail\implementation.hpp
; File C:\Program Files (x86)\Microsoft Visual Studio\2019\Professional\VC\Tools\MSVC\14.29.30133\include\xmemory
; File C:\Users\murat\Desktop\Siveps2-1-99-Project\source\client\extern\include\boost\unordered\detail\implementation.hpp
; File C:\Program Files (x86)\Microsoft Visual Studio\2019\Professional\VC\Tools\MSVC\14.29.30133\include\xmemory
; File C:\Users\murat\Desktop\Siveps2-1-99-Project\source\client\extern\include\boost\unordered\detail\implementation.hpp
; File C:\Program Files (x86)\Microsoft Visual Studio\2019\Professional\VC\Tools\MSVC\14.29.30133\include\xmemory
; File C:\Users\murat\Desktop\Siveps2-1-99-Project\source\client\extern\include\boost\unordered\detail\implementation.hpp
;	COMDAT ?create_buckets@?$table@U?$map@V?$allocator@U?$pair@$$CBKUSCache@CEterPackManager@@@std@@@std@@KUSCache@CEterPackManager@@U?$hash@K@boost@@U?$equal_to@K@2@@detail@unordered@boost@@@detail@unordered@boost@@QAEXI@Z
_TEXT	SEGMENT
tv583 = -8						; size = 8
_f$ = -8						; size = 8
_dummy_node$1$ = 8					; size = 4
_new_count$ = 8						; size = 4
?create_buckets@?$table@U?$map@V?$allocator@U?$pair@$$CBKUSCache@CEterPackManager@@@std@@@std@@KUSCache@CEterPackManager@@U?$hash@K@boost@@U?$equal_to@K@2@@detail@unordered@boost@@@detail@unordered@boost@@QAEXI@Z PROC ; boost::unordered::detail::table<boost::unordered::detail::map<std::allocator<std::pair<unsigned long const ,CEterPackManager::SCache> >,unsigned long,CEterPackManager::SCache,boost::hash<unsigned long>,std::equal_to<unsigned long> > >::create_buckets, COMDAT
; _this$ = ecx

; 3178 :         {

  00000	55		 push	 ebp
  00001	8b ec		 mov	 ebp, esp
  00003	83 ec 08	 sub	 esp, 8
  00006	53		 push	 ebx

; 3179 :           link_pointer dummy_node;
; 3180 : 
; 3181 :           // Construct the new buckets and dummy node, and destroy the old
; 3182 :           // buckets
; 3183 :           if (buckets_) {

  00007	8b 5d 08	 mov	 ebx, DWORD PTR _new_count$[ebp]
  0000a	56		 push	 esi
  0000b	57		 push	 edi
  0000c	8b f9		 mov	 edi, ecx
  0000e	8d 4b 01	 lea	 ecx, DWORD PTR [ebx+1]
  00011	8b 57 14	 mov	 edx, DWORD PTR [edi+20]
  00014	85 d2		 test	 edx, edx
  00016	74 77		 je	 SHORT $LN5@create_buc

; 3184 :             dummy_node =

  00018	8b 47 04	 mov	 eax, DWORD PTR [edi+4]
  0001b	8b 04 82	 mov	 eax, DWORD PTR [edx+eax*4]
  0001e	89 45 08	 mov	 DWORD PTR _dummy_node$1$[ebp], eax
; File C:\Program Files (x86)\Microsoft Visual Studio\2019\Professional\VC\Tools\MSVC\14.29.30133\include\xmemory

; 64   :         if (_Count > _Max_possible) {

  00021	81 f9 ff ff ff
	3f		 cmp	 ecx, 1073741823		; 3fffffffH
  00027	0f 87 33 01 00
	00		 ja	 $LN103@create_buc

; 66   :         }
; 67   :     }
; 68   : 
; 69   :     return _Count * _Ty_size;

  0002d	c1 e1 02	 shl	 ecx, 2

; 237  :         if (_Bytes >= _Big_allocation_threshold) { // boost the alignment of big allocations to help autovectorization

  00030	81 f9 00 10 00
	00		 cmp	 ecx, 4096		; 00001000H
  00036	72 0d		 jb	 SHORT $LN18@create_buc

; 238  :             return _Allocate_manually_vector_aligned<_Traits>(_Bytes);

  00038	51		 push	 ecx
  00039	e8 00 00 00 00	 call	 ??$_Allocate_manually_vector_aligned@U_Default_allocate_traits@std@@@std@@YAPAXI@Z ; std::_Allocate_manually_vector_aligned<std::_Default_allocate_traits>
  0003e	83 c4 04	 add	 esp, 4
  00041	8b f0		 mov	 esi, eax
  00043	eb 13		 jmp	 SHORT $LN17@create_buc
$LN18@create_buc:

; 239  :         }
; 240  :     }
; 241  : #endif // defined(_M_IX86) || defined(_M_X64)
; 242  : 
; 243  :     if (_Bytes != 0) {

  00045	85 c9		 test	 ecx, ecx
  00047	74 0d		 je	 SHORT $LN19@create_buc

; 85   :         return ::operator new(_Bytes);

  00049	51		 push	 ecx
  0004a	e8 00 00 00 00	 call	 ??2@YAPAXI@Z		; operator new
  0004f	83 c4 04	 add	 esp, 4

; 244  :         return _Traits::_Allocate(_Bytes);

  00052	8b f0		 mov	 esi, eax
  00054	eb 02		 jmp	 SHORT $LN17@create_buc
$LN19@create_buc:

; 245  :     }
; 246  : 
; 247  :     return nullptr;

  00056	33 f6		 xor	 esi, esi
$LN17@create_buc:

; 702  :             _Deallocate<_New_alignof<value_type>>(_Ptr, sizeof(value_type) * _Count);

  00058	8b 47 04	 mov	 eax, DWORD PTR [edi+4]
  0005b	8d 0c 85 04 00
	00 00		 lea	 ecx, DWORD PTR [eax*4+4]
  00062	8b 47 14	 mov	 eax, DWORD PTR [edi+20]

; 260  :         if (_Bytes >= _Big_allocation_threshold) { // boost the alignment of big allocations to help autovectorization

  00065	81 f9 00 10 00
	00		 cmp	 ecx, 4096		; 00001000H
  0006b	72 16		 jb	 SHORT $LN45@create_buc

; 158  :     const uintptr_t _Ptr_container   = _Ptr_user[-1];

  0006d	8b 50 fc	 mov	 edx, DWORD PTR [eax-4]
  00070	83 c1 23	 add	 ecx, 35			; 00000023H

; 159  : 
; 160  :     // If the following asserts, it likely means that we are performing
; 161  :     // an aligned delete on memory coming from an unaligned allocation.
; 162  :     _STL_ASSERT(_Ptr_user[-2] == _Big_allocation_sentinel, "invalid argument");
; 163  : 
; 164  :     // Extra paranoia on aligned allocation/deallocation; ensure _Ptr_container is
; 165  :     // in range [_Min_back_shift, _Non_user_size]
; 166  : #ifdef _DEBUG
; 167  :     constexpr uintptr_t _Min_back_shift = 2 * sizeof(void*);
; 168  : #else // ^^^ _DEBUG ^^^ // vvv !_DEBUG vvv
; 169  :     constexpr uintptr_t _Min_back_shift = sizeof(void*);
; 170  : #endif // _DEBUG
; 171  :     const uintptr_t _Back_shift = reinterpret_cast<uintptr_t>(_Ptr) - _Ptr_container;

  00073	2b c2		 sub	 eax, edx

; 172  :     _STL_VERIFY(_Back_shift >= _Min_back_shift && _Back_shift <= _Non_user_size, "invalid argument");

  00075	83 c0 fc	 add	 eax, -4			; fffffffcH
  00078	83 f8 1f	 cmp	 eax, 31			; 0000001fH
  0007b	0f 87 da 00 00
	00		 ja	 $LN42@create_buc

; 173  :     _Ptr = reinterpret_cast<void*>(_Ptr_container);

  00081	8b c2		 mov	 eax, edx
$LN45@create_buc:

; 264  :         ::operator delete(_Ptr, _Bytes);

  00083	51		 push	 ecx
  00084	50		 push	 eax
  00085	e8 00 00 00 00	 call	 ??3@YAXPAXI@Z		; operator delete
  0008a	83 c4 08	 add	 esp, 8
; File C:\Users\murat\Desktop\Siveps2-1-99-Project\source\client\extern\include\boost\unordered\detail\implementation.hpp

; 3189 :             buckets_ = new_buckets;

  0008d	eb 41		 jmp	 SHORT $LN77@create_buc
$LN5@create_buc:

; 3190 :           } else if (bucket::extra_node) {
; 3191 :             node_constructor a(node_alloc());
; 3192 :             a.create_node();
; 3193 :             buckets_ =
; 3194 :               bucket_allocator_traits::allocate(bucket_alloc(), new_count + 1);
; 3195 :             dummy_node = a.release();
; 3196 :           } else {
; 3197 :             dummy_node = link_pointer();

  0008f	c7 45 08 00 00
	00 00		 mov	 DWORD PTR _dummy_node$1$[ebp], 0
; File C:\Program Files (x86)\Microsoft Visual Studio\2019\Professional\VC\Tools\MSVC\14.29.30133\include\xmemory

; 64   :         if (_Count > _Max_possible) {

  00096	81 f9 ff ff ff
	3f		 cmp	 ecx, 1073741823		; 3fffffffH
  0009c	0f 87 be 00 00
	00		 ja	 $LN103@create_buc

; 66   :         }
; 67   :     }
; 68   : 
; 69   :     return _Count * _Ty_size;

  000a2	8d 04 8d 00 00
	00 00		 lea	 eax, DWORD PTR [ecx*4]

; 237  :         if (_Bytes >= _Big_allocation_threshold) { // boost the alignment of big allocations to help autovectorization

  000a9	3d 00 10 00 00	 cmp	 eax, 4096		; 00001000H
  000ae	72 0d		 jb	 SHORT $LN78@create_buc

; 238  :             return _Allocate_manually_vector_aligned<_Traits>(_Bytes);

  000b0	50		 push	 eax
  000b1	e8 00 00 00 00	 call	 ??$_Allocate_manually_vector_aligned@U_Default_allocate_traits@std@@@std@@YAPAXI@Z ; std::_Allocate_manually_vector_aligned<std::_Default_allocate_traits>
  000b6	83 c4 04	 add	 esp, 4
  000b9	8b f0		 mov	 esi, eax
  000bb	eb 13		 jmp	 SHORT $LN77@create_buc
$LN78@create_buc:

; 239  :         }
; 240  :     }
; 241  : #endif // defined(_M_IX86) || defined(_M_X64)
; 242  : 
; 243  :     if (_Bytes != 0) {

  000bd	85 c0		 test	 eax, eax
  000bf	74 0d		 je	 SHORT $LN79@create_buc

; 85   :         return ::operator new(_Bytes);

  000c1	50		 push	 eax
  000c2	e8 00 00 00 00	 call	 ??2@YAPAXI@Z		; operator new
  000c7	83 c4 04	 add	 esp, 4

; 244  :         return _Traits::_Allocate(_Bytes);

  000ca	8b f0		 mov	 esi, eax
  000cc	eb 02		 jmp	 SHORT $LN77@create_buc
$LN79@create_buc:

; 245  :     }
; 246  : 
; 247  :     return nullptr;

  000ce	33 f6		 xor	 esi, esi
$LN77@create_buc:
; File C:\Users\murat\Desktop\Siveps2-1-99-Project\source\client\extern\include\boost\unordered\detail\implementation.hpp

; 3203 :           bucket_count_ = new_count;

  000d0	89 77 14	 mov	 DWORD PTR [edi+20], esi
  000d3	89 5f 04	 mov	 DWORD PTR [edi+4], ebx

; 3081 :           max_load_ = buckets_ ? boost::unordered::detail::double_to_size(

  000d6	85 f6		 test	 esi, esi
  000d8	74 55		 je	 SHORT $LN85@create_buc
  000da	f3 0f 10 4f 0c	 movss	 xmm1, DWORD PTR [edi+12]
  000df	0f 57 c0	 xorps	 xmm0, xmm0
  000e2	f2 0f 2a c3	 cvtsi2sd xmm0, ebx
  000e6	8b c3		 mov	 eax, ebx
  000e8	83 ec 08	 sub	 esp, 8
  000eb	c1 e8 1f	 shr	 eax, 31			; 0000001fH
  000ee	0f 5a c9	 cvtps2pd xmm1, xmm1
  000f1	f2 0f 58 04 c5
	00 00 00 00	 addsd	 xmm0, QWORD PTR __xmm@41f00000000000000000000000000000[eax*8]
  000fa	f2 0f 59 c8	 mulsd	 xmm1, xmm0
  000fe	f2 0f 11 4d f8	 movsd	 QWORD PTR tv583[ebp], xmm1
  00103	dd 45 f8	 fld	 QWORD PTR tv583[ebp]
  00106	dd 1c 24	 fstp	 QWORD PTR [esp]
  00109	e8 00 00 00 00	 call	 _ceil
  0010e	dd 5d f8	 fstp	 QWORD PTR _f$[ebp]

; 2893 :         return f >= static_cast<double>(

  00111	f2 0f 10 45 f8	 movsd	 xmm0, QWORD PTR _f$[ebp]

; 3081 :           max_load_ = buckets_ ? boost::unordered::detail::double_to_size(

  00116	83 c4 08	 add	 esp, 8

; 2893 :         return f >= static_cast<double>(

  00119	66 0f 2f 05 00
	00 00 00	 comisd	 xmm0, QWORD PTR __real@41efffffffe00000
  00121	72 05		 jb	 SHORT $LN89@create_buc
  00123	83 c8 ff	 or	 eax, -1
  00126	eb 09		 jmp	 SHORT $LN86@create_buc
$LN89@create_buc:
  00128	e8 00 00 00 00	 call	 __dtoui3

; 3081 :           max_load_ = buckets_ ? boost::unordered::detail::double_to_size(

  0012d	eb 02		 jmp	 SHORT $LN86@create_buc
$LN85@create_buc:
  0012f	33 c0		 xor	 eax, eax
$LN86@create_buc:
  00131	89 47 10	 mov	 DWORD PTR [edi+16], eax

; 3204 :           recalculate_max_load();
; 3205 : 
; 3206 :           bucket_pointer end =

  00134	8d 04 9e	 lea	 eax, DWORD PTR [esi+ebx*4]

; 3207 :             buckets_ + static_cast<std::ptrdiff_t>(new_count);
; 3208 :           for (bucket_pointer i = buckets_; i != end; ++i) {

  00137	3b f0		 cmp	 esi, eax
  00139	74 12		 je	 SHORT $LN3@create_buc
  0013b	0f 1f 44 00 00	 npad	 5
$LL4@create_buc:

; 2579 :         ptr_bucket() : next_(0) {}

  00140	c7 06 00 00 00
	00		 mov	 DWORD PTR [esi], 0

; 3207 :             buckets_ + static_cast<std::ptrdiff_t>(new_count);
; 3208 :           for (bucket_pointer i = buckets_; i != end; ++i) {

  00146	83 c6 04	 add	 esi, 4
  00149	3b f0		 cmp	 esi, eax
  0014b	75 f3		 jne	 SHORT $LL4@create_buc
$LN3@create_buc:

; 2580 :         ptr_bucket(link_pointer n) : next_(n) {}

  0014d	8b 4d 08	 mov	 ecx, DWORD PTR _dummy_node$1$[ebp]
  00150	5f		 pop	 edi
  00151	5e		 pop	 esi
  00152	89 08		 mov	 DWORD PTR [eax], ecx
  00154	5b		 pop	 ebx

; 3212 :         }

  00155	8b e5		 mov	 esp, ebp
  00157	5d		 pop	 ebp
  00158	c2 04 00	 ret	 4
$LN42@create_buc:
; File C:\Program Files (x86)\Microsoft Visual Studio\2019\Professional\VC\Tools\MSVC\14.29.30133\include\xmemory

; 172  :     _STL_VERIFY(_Back_shift >= _Min_back_shift && _Back_shift <= _Non_user_size, "invalid argument");

  0015b	e8 00 00 00 00	 call	 __invalid_parameter_noinfo_noreturn
$LN103@create_buc:

; 65   :             _Throw_bad_array_new_length(); // multiply overflow

  00160	e8 00 00 00 00	 call	 ?_Throw_bad_array_new_length@std@@YAXXZ ; std::_Throw_bad_array_new_length
$LN104@create_buc:
  00165	cc		 int	 3
?create_buckets@?$table@U?$map@V?$allocator@U?$pair@$$CBKUSCache@CEterPackManager@@@std@@@std@@KUSCache@CEterPackManager@@U?$hash@K@boost@@U?$equal_to@K@2@@detail@unordered@boost@@@detail@unordered@boost@@QAEXI@Z ENDP ; boost::unordered::detail::table<boost::unordered::detail::map<std::allocator<std::pair<unsigned long const ,CEterPackManager::SCache> >,unsigned long,CEterPackManager::SCache,boost::hash<unsigned long>,std::equal_to<unsigned long> > >::create_buckets
_TEXT	ENDS
; Function compile flags: /Ogtp
; File C:\Users\murat\Desktop\Siveps2-1-99-Project\source\client\extern\include\boost\unordered\detail\implementation.hpp
;	COMDAT ?min_buckets_for_size@?$table@U?$map@V?$allocator@U?$pair@$$CBKUSCache@CEterPackManager@@@std@@@std@@KUSCache@CEterPackManager@@U?$hash@K@boost@@U?$equal_to@K@2@@detail@unordered@boost@@@detail@unordered@boost@@QBEII@Z
_TEXT	SEGMENT
tv132 = -8						; size = 8
tv75 = -8						; size = 8
_size$ = 8						; size = 4
?min_buckets_for_size@?$table@U?$map@V?$allocator@U?$pair@$$CBKUSCache@CEterPackManager@@@std@@@std@@KUSCache@CEterPackManager@@U?$hash@K@boost@@U?$equal_to@K@2@@detail@unordered@boost@@@detail@unordered@boost@@QBEII@Z PROC ; boost::unordered::detail::table<boost::unordered::detail::map<std::allocator<std::pair<unsigned long const ,CEterPackManager::SCache> >,unsigned long,CEterPackManager::SCache,boost::hash<unsigned long>,std::equal_to<unsigned long> > >::min_buckets_for_size, COMDAT
; _this$ = ecx

; 3095 :         {

  00000	55		 push	 ebp
  00001	8b ec		 mov	 ebp, esp
  00003	83 ec 08	 sub	 esp, 8

; 3096 :           BOOST_ASSERT(mlf_ >= minimum_max_load_factor);
; 3097 : 
; 3098 :           using namespace std;
; 3099 : 
; 3100 :           // From insert/emplace requirements:
; 3101 :           //
; 3102 :           // size <= mlf_ * count
; 3103 :           // => count >= size / mlf_
; 3104 :           //
; 3105 :           // Or from rehash post-condition:
; 3106 :           //
; 3107 :           // count >= size / mlf_
; 3108 : 
; 3109 :           return policy::new_bucket_count(

  00006	8b 45 08	 mov	 eax, DWORD PTR _size$[ebp]
  00009	83 ec 08	 sub	 esp, 8
  0000c	f3 0f 10 41 0c	 movss	 xmm0, DWORD PTR [ecx+12]
  00011	0f 5a c0	 cvtps2pd xmm0, xmm0
  00014	66 0f 6e c8	 movd	 xmm1, eax
  00018	f3 0f e6 c9	 cvtdq2pd xmm1, xmm1
  0001c	c1 e8 1f	 shr	 eax, 31			; 0000001fH
  0001f	f2 0f 58 0c c5
	00 00 00 00	 addsd	 xmm1, QWORD PTR __xmm@41f00000000000000000000000000000[eax*8]
  00028	f2 0f 5e c8	 divsd	 xmm1, xmm0
  0002c	f2 0f 11 4d f8	 movsd	 QWORD PTR tv132[ebp], xmm1
  00031	dd 45 f8	 fld	 QWORD PTR tv132[ebp]
  00034	dd 1c 24	 fstp	 QWORD PTR [esp]
  00037	e8 00 00 00 00	 call	 _floor
  0003c	dd 5d f8	 fstp	 QWORD PTR tv75[ebp]
  0003f	f2 0f 10 45 f8	 movsd	 xmm0, QWORD PTR tv75[ebp]
  00044	83 c4 08	 add	 esp, 8
  00047	f2 0f 58 05 00
	00 00 00	 addsd	 xmm0, QWORD PTR __real@3ff0000000000000

; 2893 :         return f >= static_cast<double>(

  0004f	66 0f 2f 05 00
	00 00 00	 comisd	 xmm0, QWORD PTR __real@41efffffffe00000
  00057	72 12		 jb	 SHORT $LN5@min_bucket
  00059	83 c8 ff	 or	 eax, -1

; 3096 :           BOOST_ASSERT(mlf_ >= minimum_max_load_factor);
; 3097 : 
; 3098 :           using namespace std;
; 3099 : 
; 3100 :           // From insert/emplace requirements:
; 3101 :           //
; 3102 :           // size <= mlf_ * count
; 3103 :           // => count >= size / mlf_
; 3104 :           //
; 3105 :           // Or from rehash post-condition:
; 3106 :           //
; 3107 :           // count >= size / mlf_
; 3108 : 
; 3109 :           return policy::new_bucket_count(

  0005c	50		 push	 eax
  0005d	e8 00 00 00 00	 call	 ?new_bucket_count@?$prime_policy@I@detail@unordered@boost@@SAII@Z ; boost::unordered::detail::prime_policy<unsigned int>::new_bucket_count
  00062	83 c4 04	 add	 esp, 4

; 3110 :             boost::unordered::detail::double_to_size(
; 3111 :               floor(static_cast<double>(size) / static_cast<double>(mlf_)) +
; 3112 :               1));
; 3113 :         }

  00065	8b e5		 mov	 esp, ebp
  00067	5d		 pop	 ebp
  00068	c2 04 00	 ret	 4
$LN5@min_bucket:

; 2893 :         return f >= static_cast<double>(

  0006b	e8 00 00 00 00	 call	 __dtoui3

; 3096 :           BOOST_ASSERT(mlf_ >= minimum_max_load_factor);
; 3097 : 
; 3098 :           using namespace std;
; 3099 : 
; 3100 :           // From insert/emplace requirements:
; 3101 :           //
; 3102 :           // size <= mlf_ * count
; 3103 :           // => count >= size / mlf_
; 3104 :           //
; 3105 :           // Or from rehash post-condition:
; 3106 :           //
; 3107 :           // count >= size / mlf_
; 3108 : 
; 3109 :           return policy::new_bucket_count(

  00070	50		 push	 eax
  00071	e8 00 00 00 00	 call	 ?new_bucket_count@?$prime_policy@I@detail@unordered@boost@@SAII@Z ; boost::unordered::detail::prime_policy<unsigned int>::new_bucket_count
  00076	83 c4 04	 add	 esp, 4

; 3110 :             boost::unordered::detail::double_to_size(
; 3111 :               floor(static_cast<double>(size) / static_cast<double>(mlf_)) +
; 3112 :               1));
; 3113 :         }

  00079	8b e5		 mov	 esp, ebp
  0007b	5d		 pop	 ebp
  0007c	c2 04 00	 ret	 4
?min_buckets_for_size@?$table@U?$map@V?$allocator@U?$pair@$$CBKUSCache@CEterPackManager@@@std@@@std@@KUSCache@CEterPackManager@@U?$hash@K@boost@@U?$equal_to@K@2@@detail@unordered@boost@@@detail@unordered@boost@@QBEII@Z ENDP ; boost::unordered::detail::table<boost::unordered::detail::map<std::allocator<std::pair<unsigned long const ,CEterPackManager::SCache> >,unsigned long,CEterPackManager::SCache,boost::hash<unsigned long>,std::equal_to<unsigned long> > >::min_buckets_for_size
_TEXT	ENDS
; Function compile flags: /Ogtp
; File C:\Users\murat\Desktop\Siveps2-1-99-Project\source\client\extern\include\boost\unordered\unordered_map.hpp
; File C:\Users\murat\Desktop\Siveps2-1-99-Project\source\client\extern\include\boost\unordered\detail\implementation.hpp
; File C:\Users\murat\Desktop\Siveps2-1-99-Project\source\client\extern\include\boost\unordered\unordered_map.hpp
; File C:\Program Files (x86)\Microsoft Visual Studio\2019\Professional\VC\Tools\MSVC\14.29.30133\include\xstring
; File C:\Users\murat\Desktop\Siveps2-1-99-Project\source\client\extern\include\boost\unordered\detail\implementation.hpp
; File C:\Users\murat\Desktop\Siveps2-1-99-Project\source\client\extern\include\boost\unordered\unordered_map.hpp
; File C:\Users\murat\Desktop\Siveps2-1-99-Project\source\client\extern\include\boost\unordered\detail\implementation.hpp
; File C:\Users\murat\Desktop\Siveps2-1-99-Project\source\client\extern\include\boost\unordered\unordered_map.hpp
; File C:\Users\murat\Desktop\Siveps2-1-99-Project\source\client\extern\include\boost\unordered\detail\implementation.hpp
; File C:\Program Files (x86)\Microsoft Visual Studio\2019\Professional\VC\Tools\MSVC\14.29.30133\include\xstring
; File C:\Users\murat\Desktop\Siveps2-1-99-Project\source\client\Client\eterBase\Stl.h
; File C:\Users\murat\Desktop\Siveps2-1-99-Project\source\client\extern\include\boost\unordered\detail\implementation.hpp
; File C:\Users\murat\Desktop\Siveps2-1-99-Project\source\client\extern\include\boost\unordered\unordered_map.hpp
; File C:\Users\murat\Desktop\Siveps2-1-99-Project\source\client\extern\include\boost\unordered\detail\implementation.hpp
; File C:\Users\murat\Desktop\Siveps2-1-99-Project\source\client\extern\include\boost\unordered\unordered_map.hpp
;	COMDAT ?find@?$unordered_map@V?$basic_string@DU?$char_traits@D@std@@V?$allocator@D@2@@std@@PAVCEterPack@@Ustringhash@@U?$equal_to@V?$basic_string@DU?$char_traits@D@std@@V?$allocator@D@2@@std@@@2@V?$allocator@U?$pair@$$CBV?$basic_string@DU?$char_traits@D@std@@V?$allocator@D@2@@std@@PAVCEterPack@@@std@@@2@@unordered@boost@@QAE?AU?$iterator@U?$ptr_node@U?$pair@$$CBV?$basic_string@DU?$char_traits@D@std@@V?$allocator@D@2@@std@@PAVCEterPack@@@std@@@detail@unordered@boost@@@iterator_detail@23@ABV?$basic_string@DU?$char_traits@D@std@@V?$allocator@D@2@@std@@@Z
_TEXT	SEGMENT
_this$1$ = -4						; size = 4
___$ReturnUdt$ = 8					; size = 4
_k$ = 12						; size = 4
?find@?$unordered_map@V?$basic_string@DU?$char_traits@D@std@@V?$allocator@D@2@@std@@PAVCEterPack@@Ustringhash@@U?$equal_to@V?$basic_string@DU?$char_traits@D@std@@V?$allocator@D@2@@std@@@2@V?$allocator@U?$pair@$$CBV?$basic_string@DU?$char_traits@D@std@@V?$allocator@D@2@@std@@PAVCEterPack@@@std@@@2@@unordered@boost@@QAE?AU?$iterator@U?$ptr_node@U?$pair@$$CBV?$basic_string@DU?$char_traits@D@std@@V?$allocator@D@2@@std@@PAVCEterPack@@@std@@@detail@unordered@boost@@@iterator_detail@23@ABV?$basic_string@DU?$char_traits@D@std@@V?$allocator@D@2@@std@@@Z PROC ; boost::unordered::unordered_map<std::basic_string<char,std::char_traits<char>,std::allocator<char> >,CEterPack *,stringhash,std::equal_to<std::basic_string<char,std::char_traits<char>,std::allocator<char> > >,std::allocator<std::pair<std::basic_string<char,std::char_traits<char>,std::allocator<char> > const ,CEterPack *> > >::find, COMDAT
; _this$ = ecx

; 1803 :     {

  00000	55		 push	 ebp
  00001	8b ec		 mov	 ebp, esp
  00003	51		 push	 ecx
; File C:\Users\murat\Desktop\Siveps2-1-99-Project\source\client\extern\include\boost\unordered\detail\implementation.hpp

; 2791 :           return *static_cast<function_pair const*>(

  00004	0f b6 01	 movzx	 eax, BYTE PTR [ecx]
; File C:\Users\murat\Desktop\Siveps2-1-99-Project\source\client\extern\include\boost\unordered\unordered_map.hpp

; 1803 :     {

  00007	53		 push	 ebx
; File C:\Program Files (x86)\Microsoft Visual Studio\2019\Professional\VC\Tools\MSVC\14.29.30133\include\xstring

; 2305 :         const value_type* _Result = _Bx._Buf;

  00008	8b 5d 0c	 mov	 ebx, DWORD PTR _k$[ebp]
; File C:\Users\murat\Desktop\Siveps2-1-99-Project\source\client\extern\include\boost\unordered\detail\implementation.hpp

; 2791 :           return *static_cast<function_pair const*>(

  0000b	83 e0 01	 and	 eax, 1
; File C:\Users\murat\Desktop\Siveps2-1-99-Project\source\client\extern\include\boost\unordered\unordered_map.hpp

; 1803 :     {

  0000e	56		 push	 esi
  0000f	57		 push	 edi
; File C:\Users\murat\Desktop\Siveps2-1-99-Project\source\client\extern\include\boost\unordered\detail\implementation.hpp

; 2791 :           return *static_cast<function_pair const*>(

  00010	8d 79 01	 lea	 edi, DWORD PTR [ecx+1]
; File C:\Users\murat\Desktop\Siveps2-1-99-Project\source\client\extern\include\boost\unordered\unordered_map.hpp

; 1803 :     {

  00013	89 4d fc	 mov	 DWORD PTR _this$1$[ebp], ecx
; File C:\Users\murat\Desktop\Siveps2-1-99-Project\source\client\extern\include\boost\unordered\detail\implementation.hpp

; 2791 :           return *static_cast<function_pair const*>(

  00016	03 f8		 add	 edi, eax
; File C:\Program Files (x86)\Microsoft Visual Studio\2019\Professional\VC\Tools\MSVC\14.29.30133\include\xstring

; 2305 :         const value_type* _Result = _Bx._Buf;

  00018	8b cb		 mov	 ecx, ebx

; 3922 :         return _Mypair._Myval2._Myptr();

  0001a	8d 47 01	 lea	 eax, DWORD PTR [edi+1]
  0001d	f7 df		 neg	 edi
  0001f	1b ff		 sbb	 edi, edi
  00021	23 f8		 and	 edi, eax

; 2319 :         return _BUF_SIZE <= _Myres;

  00023	83 7b 14 10	 cmp	 DWORD PTR [ebx+20], 16	; 00000010H

; 2306 :         if (_Large_string_engaged()) {

  00027	72 02		 jb	 SHORT $LN30@find

; 2307 :             _Result = _Unfancy(_Bx._Ptr);

  00029	8b 0b		 mov	 ecx, DWORD PTR [ebx]
$LN30@find:
; File C:\Users\murat\Desktop\Siveps2-1-99-Project\source\client\Client\eterBase\Stl.h

; 478  :        const unsigned char * end = s + str.size();

  0002b	8b 73 10	 mov	 esi, DWORD PTR [ebx+16]

; 479  :        size_t h = 0;

  0002e	33 d2		 xor	 edx, edx
  00030	03 f1		 add	 esi, ecx

; 480  : 
; 481  :        while (s < end)

  00032	3b ce		 cmp	 ecx, esi
  00034	73 10		 jae	 SHORT $LN25@find
$LL38@find:

; 482  :        {
; 483  :            h *= 16777619;
; 484  :            h ^= (unsigned char) *(unsigned char *) (s++);

  00036	0f b6 01	 movzx	 eax, BYTE PTR [ecx]
  00039	41		 inc	 ecx
  0003a	69 d2 93 01 00
	01		 imul	 edx, edx, 16777619
  00040	33 d0		 xor	 edx, eax
  00042	3b ce		 cmp	 ecx, esi
  00044	72 f0		 jb	 SHORT $LL38@find
$LN25@find:
; File C:\Users\murat\Desktop\Siveps2-1-99-Project\source\client\extern\include\boost\unordered\detail\implementation.hpp

; 3581 :           return this->find_node_impl(hash(k), k, this->key_eq());

  00046	8b 4d fc	 mov	 ecx, DWORD PTR _this$1$[ebp]
  00049	57		 push	 edi
  0004a	53		 push	 ebx
  0004b	52		 push	 edx
  0004c	e8 00 00 00 00	 call	 ??$find_node_impl@V?$basic_string@DU?$char_traits@D@std@@V?$allocator@D@2@@std@@U?$equal_to@V?$basic_string@DU?$char_traits@D@std@@V?$allocator@D@2@@std@@@2@@?$table@U?$map@V?$allocator@U?$pair@$$CBV?$basic_string@DU?$char_traits@D@std@@V?$allocator@D@2@@std@@PAVCEterPack@@@std@@@std@@V?$basic_string@DU?$char_traits@D@std@@V?$allocator@D@2@@2@PAVCEterPack@@Ustringhash@@U?$equal_to@V?$basic_string@DU?$char_traits@D@std@@V?$allocator@D@2@@std@@@2@@detail@unordered@boost@@@detail@unordered@boost@@QBEPAU?$ptr_node@U?$pair@$$CBV?$basic_string@DU?$char_traits@D@std@@V?$allocator@D@2@@std@@PAVCEterPack@@@std@@@123@IABV?$basic_string@DU?$char_traits@D@std@@V?$allocator@D@2@@std@@ABU?$equal_to@V?$basic_string@DU?$char_traits@D@std@@V?$allocator@D@2@@std@@@6@@Z ; boost::unordered::detail::table<boost::unordered::detail::map<std::allocator<std::pair<std::basic_string<char,std::char_traits<char>,std::allocator<char> > const ,CEterPack *> >,std::basic_string<char,std::char_traits<char>,std::allocator<char> >,CEterPack *,stringhash,std::equal_to<std::basic_string<char,std::char_traits<char>,std::allocator<char> > > > >::find_node_impl<std::basic_string<char,std::char_traits<char>,std::allocator<char> >,std::equal_to<std::basic_string<char,std::char_traits<char>,std::allocator<char> > > >

; 2371 :           : node_(static_cast<node_pointer>(x))

  00051	8b 4d 08	 mov	 ecx, DWORD PTR ___$ReturnUdt$[ebp]
; File C:\Users\murat\Desktop\Siveps2-1-99-Project\source\client\extern\include\boost\unordered\unordered_map.hpp

; 1804 :       return iterator(table_.find_node(k));

  00054	5f		 pop	 edi
  00055	5e		 pop	 esi
  00056	5b		 pop	 ebx
; File C:\Users\murat\Desktop\Siveps2-1-99-Project\source\client\extern\include\boost\unordered\detail\implementation.hpp

; 2371 :           : node_(static_cast<node_pointer>(x))

  00057	89 01		 mov	 DWORD PTR [ecx], eax
; File C:\Users\murat\Desktop\Siveps2-1-99-Project\source\client\extern\include\boost\unordered\unordered_map.hpp

; 1804 :       return iterator(table_.find_node(k));

  00059	8b c1		 mov	 eax, ecx

; 1805 :     }

  0005b	8b e5		 mov	 esp, ebp
  0005d	5d		 pop	 ebp
  0005e	c2 08 00	 ret	 8
?find@?$unordered_map@V?$basic_string@DU?$char_traits@D@std@@V?$allocator@D@2@@std@@PAVCEterPack@@Ustringhash@@U?$equal_to@V?$basic_string@DU?$char_traits@D@std@@V?$allocator@D@2@@std@@@2@V?$allocator@U?$pair@$$CBV?$basic_string@DU?$char_traits@D@std@@V?$allocator@D@2@@std@@PAVCEterPack@@@std@@@2@@unordered@boost@@QAE?AU?$iterator@U?$ptr_node@U?$pair@$$CBV?$basic_string@DU?$char_traits@D@std@@V?$allocator@D@2@@std@@PAVCEterPack@@@std@@@detail@unordered@boost@@@iterator_detail@23@ABV?$basic_string@DU?$char_traits@D@std@@V?$allocator@D@2@@std@@@Z ENDP ; boost::unordered::unordered_map<std::basic_string<char,std::char_traits<char>,std::allocator<char> >,CEterPack *,stringhash,std::equal_to<std::basic_string<char,std::char_traits<char>,std::allocator<char> > >,std::allocator<std::pair<std::basic_string<char,std::char_traits<char>,std::allocator<char> > const ,CEterPack *> > >::find
_TEXT	ENDS
; Function compile flags: /Ogtp
; File C:\Users\murat\Desktop\Siveps2-1-99-Project\source\client\extern\include\boost\unordered\unordered_map.hpp
;	COMDAT ??1?$unordered_map@V?$basic_string@DU?$char_traits@D@std@@V?$allocator@D@2@@std@@PAVCEterPack@@Ustringhash@@U?$equal_to@V?$basic_string@DU?$char_traits@D@std@@V?$allocator@D@2@@std@@@2@V?$allocator@U?$pair@$$CBV?$basic_string@DU?$char_traits@D@std@@V?$allocator@D@2@@std@@PAVCEterPack@@@std@@@2@@unordered@boost@@QAE@XZ
_TEXT	SEGMENT
??1?$unordered_map@V?$basic_string@DU?$char_traits@D@std@@V?$allocator@D@2@@std@@PAVCEterPack@@Ustringhash@@U?$equal_to@V?$basic_string@DU?$char_traits@D@std@@V?$allocator@D@2@@std@@@2@V?$allocator@U?$pair@$$CBV?$basic_string@DU?$char_traits@D@std@@V?$allocator@D@2@@std@@PAVCEterPack@@@std@@@2@@unordered@boost@@QAE@XZ PROC ; boost::unordered::unordered_map<std::basic_string<char,std::char_traits<char>,std::allocator<char> >,CEterPack *,stringhash,std::equal_to<std::basic_string<char,std::char_traits<char>,std::allocator<char> > >,std::allocator<std::pair<std::basic_string<char,std::char_traits<char>,std::allocator<char> > const ,CEterPack *> > >::~unordered_map<std::basic_string<char,std::char_traits<char>,std::allocator<char> >,CEterPack *,stringhash,std::equal_to<std::basic_string<char,std::char_traits<char>,std::allocator<char> > >,std::allocator<std::pair<std::basic_string<char,std::char_traits<char>,std::allocator<char> > const ,CEterPack *> > >, COMDAT
; _this$ = ecx

; 1646 :     }

  00000	e9 00 00 00 00	 jmp	 ??1?$table@U?$map@V?$allocator@U?$pair@$$CBV?$basic_string@DU?$char_traits@D@std@@V?$allocator@D@2@@std@@PAVCEterPack@@@std@@@std@@V?$basic_string@DU?$char_traits@D@std@@V?$allocator@D@2@@2@PAVCEterPack@@Ustringhash@@U?$equal_to@V?$basic_string@DU?$char_traits@D@std@@V?$allocator@D@2@@std@@@2@@detail@unordered@boost@@@detail@unordered@boost@@QAE@XZ ; boost::unordered::detail::table<boost::unordered::detail::map<std::allocator<std::pair<std::basic_string<char,std::char_traits<char>,std::allocator<char> > const ,CEterPack *> >,std::basic_string<char,std::char_traits<char>,std::allocator<char> >,CEterPack *,stringhash,std::equal_to<std::basic_string<char,std::char_traits<char>,std::allocator<char> > > > >::~table<boost::unordered::detail::map<std::allocator<std::pair<std::basic_string<char,std::char_traits<char>,std::allocator<char> > const ,CEterPack *> >,std::basic_string<char,std::char_traits<char>,std::allocator<char> >,CEterPack *,stringhash,std::equal_to<std::basic_string<char,std::char_traits<char>,std::allocator<char> > > > >
??1?$unordered_map@V?$basic_string@DU?$char_traits@D@std@@V?$allocator@D@2@@std@@PAVCEterPack@@Ustringhash@@U?$equal_to@V?$basic_string@DU?$char_traits@D@std@@V?$allocator@D@2@@std@@@2@V?$allocator@U?$pair@$$CBV?$basic_string@DU?$char_traits@D@std@@V?$allocator@D@2@@std@@PAVCEterPack@@@std@@@2@@unordered@boost@@QAE@XZ ENDP ; boost::unordered::unordered_map<std::basic_string<char,std::char_traits<char>,std::allocator<char> >,CEterPack *,stringhash,std::equal_to<std::basic_string<char,std::char_traits<char>,std::allocator<char> > >,std::allocator<std::pair<std::basic_string<char,std::char_traits<char>,std::allocator<char> > const ,CEterPack *> > >::~unordered_map<std::basic_string<char,std::char_traits<char>,std::allocator<char> >,CEterPack *,stringhash,std::equal_to<std::basic_string<char,std::char_traits<char>,std::allocator<char> > >,std::allocator<std::pair<std::basic_string<char,std::char_traits<char>,std::allocator<char> > const ,CEterPack *> > >
_TEXT	ENDS
; Function compile flags: /Ogtp
; File C:\Users\murat\Desktop\Siveps2-1-99-Project\source\client\extern\include\boost\unordered\unordered_map.hpp
; File C:\Users\murat\Desktop\Siveps2-1-99-Project\source\client\extern\include\boost\unordered\detail\implementation.hpp
; File C:\Users\murat\Desktop\Siveps2-1-99-Project\source\client\extern\include\boost\unordered\unordered_map.hpp
; File C:\Users\murat\Desktop\Siveps2-1-99-Project\source\client\extern\include\boost\unordered\detail\implementation.hpp
; File C:\Users\murat\Desktop\Siveps2-1-99-Project\source\client\extern\include\boost\unordered\unordered_map.hpp
; File C:\Users\murat\Desktop\Siveps2-1-99-Project\source\client\extern\include\boost\unordered\detail\implementation.hpp
; File C:\Users\murat\Desktop\Siveps2-1-99-Project\source\client\extern\include\boost\unordered\unordered_map.hpp
;	COMDAT ??0?$unordered_map@V?$basic_string@DU?$char_traits@D@std@@V?$allocator@D@2@@std@@PAVCEterPack@@Ustringhash@@U?$equal_to@V?$basic_string@DU?$char_traits@D@std@@V?$allocator@D@2@@std@@@2@V?$allocator@U?$pair@$$CBV?$basic_string@DU?$char_traits@D@std@@V?$allocator@D@2@@std@@PAVCEterPack@@@std@@@2@@unordered@boost@@QAE@XZ
_TEXT	SEGMENT
_this$ = -4						; size = 4
??0?$unordered_map@V?$basic_string@DU?$char_traits@D@std@@V?$allocator@D@2@@std@@PAVCEterPack@@Ustringhash@@U?$equal_to@V?$basic_string@DU?$char_traits@D@std@@V?$allocator@D@2@@std@@@2@V?$allocator@U?$pair@$$CBV?$basic_string@DU?$char_traits@D@std@@V?$allocator@D@2@@std@@PAVCEterPack@@@std@@@2@@unordered@boost@@QAE@XZ PROC ; boost::unordered::unordered_map<std::basic_string<char,std::char_traits<char>,std::allocator<char> >,CEterPack *,stringhash,std::equal_to<std::basic_string<char,std::char_traits<char>,std::allocator<char> > >,std::allocator<std::pair<std::basic_string<char,std::char_traits<char>,std::allocator<char> > const ,CEterPack *> > >::unordered_map<std::basic_string<char,std::char_traits<char>,std::allocator<char> >,CEterPack *,stringhash,std::equal_to<std::basic_string<char,std::char_traits<char>,std::allocator<char> > >,std::allocator<std::pair<std::basic_string<char,std::char_traits<char>,std::allocator<char> > const ,CEterPack *> > >, COMDAT
; _this$ = ecx

; 1510 :     {

  00000	55		 push	 ebp
  00001	8b ec		 mov	 ebp, esp
  00003	51		 push	 ecx
  00004	56		 push	 esi
  00005	8b f1		 mov	 esi, ecx
; File C:\Users\murat\Desktop\Siveps2-1-99-Project\source\client\extern\include\boost\unordered\detail\implementation.hpp

; 3121 :               bucket_count_(policy::new_bucket_count(num_buckets)), size_(0),

  00007	6a 0b		 push	 11			; 0000000bH
; File C:\Users\murat\Desktop\Siveps2-1-99-Project\source\client\extern\include\boost\unordered\unordered_map.hpp

; 1510 :     {

  00009	89 75 fc	 mov	 DWORD PTR _this$[ebp], esi
; File C:\Users\murat\Desktop\Siveps2-1-99-Project\source\client\extern\include\boost\unordered\detail\implementation.hpp

; 2761 :         functions(H const& hf, P const& eq) : current_(0)

  0000c	c6 06 00	 mov	 BYTE PTR [esi], 0

; 3121 :               bucket_count_(policy::new_bucket_count(num_buckets)), size_(0),

  0000f	e8 00 00 00 00	 call	 ?new_bucket_count@?$prime_policy@I@detail@unordered@boost@@SAII@Z ; boost::unordered::detail::prime_policy<unsigned int>::new_bucket_count
  00014	83 c4 04	 add	 esp, 4
  00017	89 46 04	 mov	 DWORD PTR [esi+4], eax
  0001a	c7 46 08 00 00
	00 00		 mov	 DWORD PTR [esi+8], 0
; File C:\Users\murat\Desktop\Siveps2-1-99-Project\source\client\extern\include\boost\unordered\unordered_map.hpp

; 1511 :     }

  00021	8b c6		 mov	 eax, esi
; File C:\Users\murat\Desktop\Siveps2-1-99-Project\source\client\extern\include\boost\unordered\detail\implementation.hpp

; 3122 :               mlf_(1.0f), max_load_(0), buckets_()

  00023	c7 46 0c 00 00
	80 3f		 mov	 DWORD PTR [esi+12], 1065353216 ; 3f800000H
  0002a	c7 46 10 00 00
	00 00		 mov	 DWORD PTR [esi+16], 0
  00031	c7 46 14 00 00
	00 00		 mov	 DWORD PTR [esi+20], 0
; File C:\Users\murat\Desktop\Siveps2-1-99-Project\source\client\extern\include\boost\unordered\unordered_map.hpp

; 1511 :     }

  00038	5e		 pop	 esi
  00039	8b e5		 mov	 esp, ebp
  0003b	5d		 pop	 ebp
  0003c	c3		 ret	 0
??0?$unordered_map@V?$basic_string@DU?$char_traits@D@std@@V?$allocator@D@2@@std@@PAVCEterPack@@Ustringhash@@U?$equal_to@V?$basic_string@DU?$char_traits@D@std@@V?$allocator@D@2@@std@@@2@V?$allocator@U?$pair@$$CBV?$basic_string@DU?$char_traits@D@std@@V?$allocator@D@2@@std@@PAVCEterPack@@@std@@@2@@unordered@boost@@QAE@XZ ENDP ; boost::unordered::unordered_map<std::basic_string<char,std::char_traits<char>,std::allocator<char> >,CEterPack *,stringhash,std::equal_to<std::basic_string<char,std::char_traits<char>,std::allocator<char> > >,std::allocator<std::pair<std::basic_string<char,std::char_traits<char>,std::allocator<char> > const ,CEterPack *> > >::unordered_map<std::basic_string<char,std::char_traits<char>,std::allocator<char> >,CEterPack *,stringhash,std::equal_to<std::basic_string<char,std::char_traits<char>,std::allocator<char> > >,std::allocator<std::pair<std::basic_string<char,std::char_traits<char>,std::allocator<char> > const ,CEterPack *> > >
_TEXT	ENDS
; Function compile flags: /Ogtp
; File C:\Users\murat\Desktop\Siveps2-1-99-Project\source\client\extern\include\boost\unordered\detail\implementation.hpp
; File C:\Program Files (x86)\Microsoft Visual Studio\2019\Professional\VC\Tools\MSVC\14.29.30133\include\xstring
; File C:\Users\murat\Desktop\Siveps2-1-99-Project\source\client\extern\include\boost\unordered\detail\implementation.hpp
; File C:\Program Files (x86)\Microsoft Visual Studio\2019\Professional\VC\Tools\MSVC\14.29.30133\include\xstring
; File C:\Users\murat\Desktop\Siveps2-1-99-Project\source\client\Client\eterBase\Stl.h
; File C:\Users\murat\Desktop\Siveps2-1-99-Project\source\client\extern\include\boost\unordered\detail\implementation.hpp
;	COMDAT ?rehash_impl@?$table@U?$map@V?$allocator@U?$pair@$$CBV?$basic_string@DU?$char_traits@D@std@@V?$allocator@D@2@@std@@PAVCEterPack@@@std@@@std@@V?$basic_string@DU?$char_traits@D@std@@V?$allocator@D@2@@2@PAVCEterPack@@Ustringhash@@U?$equal_to@V?$basic_string@DU?$char_traits@D@std@@V?$allocator@D@2@@std@@@2@@detail@unordered@boost@@@detail@unordered@boost@@QAEXI@Z
_TEXT	SEGMENT
_this$1$ = -4						; size = 4
_prev$1$ = 8						; size = 4
_num_buckets$ = 8					; size = 4
