; Listing generated by Microsoft (R) Optimizing Compiler Version 19.29.30137.0 

	TITLE	C:\Users\murat\Desktop\Siveps2-1-99-Project\source\client\Client\EffectLib\Distribute\ParticleSystemInstance.obj
	.686P
	.XMM
	include listing.inc
	.model	flat

INCLUDELIB LIBCMT
INCLUDELIB OLDNAMES

PUBLIC	??_7?$CDynamicPoolEx@VCNullDecorator@NEffectUpdateDecorator@@@@6B@ ; CDynamicPoolEx<NEffectUpdateDecorator::CNullDecorator>::`vftable'
PUBLIC	??_G?$CDynamicPoolEx@VCNullDecorator@NEffectUpdateDecorator@@@@UAEPAXI@Z ; CDynamicPoolEx<NEffectUpdateDecorator::CNullDecorator>::`scalar deleting destructor'
PUBLIC	??_R4?$CDynamicPoolEx@VCHeaderDecorator@NEffectUpdateDecorator@@@@6B@ ; CDynamicPoolEx<NEffectUpdateDecorator::CHeaderDecorator>::`RTTI Complete Object Locator'
PUBLIC	??_R0?AV?$CDynamicPoolEx@VCHeaderDecorator@NEffectUpdateDecorator@@@@@8 ; CDynamicPoolEx<NEffectUpdateDecorator::CHeaderDecorator> `RTTI Type Descriptor'
PUBLIC	??_R3?$CDynamicPoolEx@VCHeaderDecorator@NEffectUpdateDecorator@@@@8 ; CDynamicPoolEx<NEffectUpdateDecorator::CHeaderDecorator>::`RTTI Class Hierarchy Descriptor'
PUBLIC	??_R2?$CDynamicPoolEx@VCHeaderDecorator@NEffectUpdateDecorator@@@@8 ; CDynamicPoolEx<NEffectUpdateDecorator::CHeaderDecorator>::`RTTI Base Class Array'
PUBLIC	??_R1A@?0A@EA@?$CDynamicPoolEx@VCHeaderDecorator@NEffectUpdateDecorator@@@@8 ; CDynamicPoolEx<NEffectUpdateDecorator::CHeaderDecorator>::`RTTI Base Class Descriptor at (0,-1,0,64)'
PUBLIC	??_R4?$CDynamicPoolEx@VCNullDecorator@NEffectUpdateDecorator@@@@6B@ ; CDynamicPoolEx<NEffectUpdateDecorator::CNullDecorator>::`RTTI Complete Object Locator'
PUBLIC	??_R0?AV?$CDynamicPoolEx@VCNullDecorator@NEffectUpdateDecorator@@@@@8 ; CDynamicPoolEx<NEffectUpdateDecorator::CNullDecorator> `RTTI Type Descriptor'
PUBLIC	??_R3?$CDynamicPoolEx@VCNullDecorator@NEffectUpdateDecorator@@@@8 ; CDynamicPoolEx<NEffectUpdateDecorator::CNullDecorator>::`RTTI Class Hierarchy Descriptor'
PUBLIC	??_R2?$CDynamicPoolEx@VCNullDecorator@NEffectUpdateDecorator@@@@8 ; CDynamicPoolEx<NEffectUpdateDecorator::CNullDecorator>::`RTTI Base Class Array'
PUBLIC	??_R1A@?0A@EA@?$CDynamicPoolEx@VCNullDecorator@NEffectUpdateDecorator@@@@8 ; CDynamicPoolEx<NEffectUpdateDecorator::CNullDecorator>::`RTTI Base Class Descriptor at (0,-1,0,64)'
PUBLIC	??_R4?$CDynamicPoolEx@VCTextureAnimationCWDecorator@NEffectUpdateDecorator@@@@6B@ ; CDynamicPoolEx<NEffectUpdateDecorator::CTextureAnimationCWDecorator>::`RTTI Complete Object Locator'
PUBLIC	??_R0?AV?$CDynamicPoolEx@VCTextureAnimationCWDecorator@NEffectUpdateDecorator@@@@@8 ; CDynamicPoolEx<NEffectUpdateDecorator::CTextureAnimationCWDecorator> `RTTI Type Descriptor'
PUBLIC	??_R3?$CDynamicPoolEx@VCTextureAnimationCWDecorator@NEffectUpdateDecorator@@@@8 ; CDynamicPoolEx<NEffectUpdateDecorator::CTextureAnimationCWDecorator>::`RTTI Class Hierarchy Descriptor'
PUBLIC	??_R2?$CDynamicPoolEx@VCTextureAnimationCWDecorator@NEffectUpdateDecorator@@@@8 ; CDynamicPoolEx<NEffectUpdateDecorator::CTextureAnimationCWDecorator>::`RTTI Base Class Array'
PUBLIC	??_R1A@?0A@EA@?$CDynamicPoolEx@VCTextureAnimationCWDecorator@NEffectUpdateDecorator@@@@8 ; CDynamicPoolEx<NEffectUpdateDecorator::CTextureAnimationCWDecorator>::`RTTI Base Class Descriptor at (0,-1,0,64)'
PUBLIC	??_R4?$CDynamicPoolEx@VCTextureAnimationCCWDecorator@NEffectUpdateDecorator@@@@6B@ ; CDynamicPoolEx<NEffectUpdateDecorator::CTextureAnimationCCWDecorator>::`RTTI Complete Object Locator'
PUBLIC	??_R0?AV?$CDynamicPoolEx@VCTextureAnimationCCWDecorator@NEffectUpdateDecorator@@@@@8 ; CDynamicPoolEx<NEffectUpdateDecorator::CTextureAnimationCCWDecorator> `RTTI Type Descriptor'
PUBLIC	??_R3?$CDynamicPoolEx@VCTextureAnimationCCWDecorator@NEffectUpdateDecorator@@@@8 ; CDynamicPoolEx<NEffectUpdateDecorator::CTextureAnimationCCWDecorator>::`RTTI Class Hierarchy Descriptor'
PUBLIC	??_R2?$CDynamicPoolEx@VCTextureAnimationCCWDecorator@NEffectUpdateDecorator@@@@8 ; CDynamicPoolEx<NEffectUpdateDecorator::CTextureAnimationCCWDecorator>::`RTTI Base Class Array'
PUBLIC	??_R1A@?0A@EA@?$CDynamicPoolEx@VCTextureAnimationCCWDecorator@NEffectUpdateDecorator@@@@8 ; CDynamicPoolEx<NEffectUpdateDecorator::CTextureAnimationCCWDecorator>::`RTTI Base Class Descriptor at (0,-1,0,64)'
PUBLIC	??_R4?$CDynamicPoolEx@VCTextureAnimationRandomDecorator@NEffectUpdateDecorator@@@@6B@ ; CDynamicPoolEx<NEffectUpdateDecorator::CTextureAnimationRandomDecorator>::`RTTI Complete Object Locator'
PUBLIC	??_R0?AV?$CDynamicPoolEx@VCTextureAnimationRandomDecorator@NEffectUpdateDecorator@@@@@8 ; CDynamicPoolEx<NEffectUpdateDecorator::CTextureAnimationRandomDecorator> `RTTI Type Descriptor'
PUBLIC	??_R3?$CDynamicPoolEx@VCTextureAnimationRandomDecorator@NEffectUpdateDecorator@@@@8 ; CDynamicPoolEx<NEffectUpdateDecorator::CTextureAnimationRandomDecorator>::`RTTI Class Hierarchy Descriptor'
PUBLIC	??_R2?$CDynamicPoolEx@VCTextureAnimationRandomDecorator@NEffectUpdateDecorator@@@@8 ; CDynamicPoolEx<NEffectUpdateDecorator::CTextureAnimationRandomDecorator>::`RTTI Base Class Array'
PUBLIC	??_R1A@?0A@EA@?$CDynamicPoolEx@VCTextureAnimationRandomDecorator@NEffectUpdateDecorator@@@@8 ; CDynamicPoolEx<NEffectUpdateDecorator::CTextureAnimationRandomDecorator>::`RTTI Base Class Descriptor at (0,-1,0,64)'
PUBLIC	??_R4?$CDynamicPoolEx@VCAirResistanceDecorator@NEffectUpdateDecorator@@@@6B@ ; CDynamicPoolEx<NEffectUpdateDecorator::CAirResistanceDecorator>::`RTTI Complete Object Locator'
PUBLIC	??_R0?AV?$CDynamicPoolEx@VCAirResistanceDecorator@NEffectUpdateDecorator@@@@@8 ; CDynamicPoolEx<NEffectUpdateDecorator::CAirResistanceDecorator> `RTTI Type Descriptor'
PUBLIC	??_R3?$CDynamicPoolEx@VCAirResistanceDecorator@NEffectUpdateDecorator@@@@8 ; CDynamicPoolEx<NEffectUpdateDecorator::CAirResistanceDecorator>::`RTTI Class Hierarchy Descriptor'
PUBLIC	??_R2?$CDynamicPoolEx@VCAirResistanceDecorator@NEffectUpdateDecorator@@@@8 ; CDynamicPoolEx<NEffectUpdateDecorator::CAirResistanceDecorator>::`RTTI Base Class Array'
PUBLIC	??_R1A@?0A@EA@?$CDynamicPoolEx@VCAirResistanceDecorator@NEffectUpdateDecorator@@@@8 ; CDynamicPoolEx<NEffectUpdateDecorator::CAirResistanceDecorator>::`RTTI Base Class Descriptor at (0,-1,0,64)'
PUBLIC	??_R4?$CDynamicPoolEx@VCGravityDecorator@NEffectUpdateDecorator@@@@6B@ ; CDynamicPoolEx<NEffectUpdateDecorator::CGravityDecorator>::`RTTI Complete Object Locator'
PUBLIC	??_R0?AV?$CDynamicPoolEx@VCGravityDecorator@NEffectUpdateDecorator@@@@@8 ; CDynamicPoolEx<NEffectUpdateDecorator::CGravityDecorator> `RTTI Type Descriptor'
PUBLIC	??_R3?$CDynamicPoolEx@VCGravityDecorator@NEffectUpdateDecorator@@@@8 ; CDynamicPoolEx<NEffectUpdateDecorator::CGravityDecorator>::`RTTI Class Hierarchy Descriptor'
PUBLIC	??_R2?$CDynamicPoolEx@VCGravityDecorator@NEffectUpdateDecorator@@@@8 ; CDynamicPoolEx<NEffectUpdateDecorator::CGravityDecorator>::`RTTI Base Class Array'
PUBLIC	??_R1A@?0A@EA@?$CDynamicPoolEx@VCGravityDecorator@NEffectUpdateDecorator@@@@8 ; CDynamicPoolEx<NEffectUpdateDecorator::CGravityDecorator>::`RTTI Base Class Descriptor at (0,-1,0,64)'
PUBLIC	??_R4?$CDynamicPoolEx@VCRotationDecorator@NEffectUpdateDecorator@@@@6B@ ; CDynamicPoolEx<NEffectUpdateDecorator::CRotationDecorator>::`RTTI Complete Object Locator'
PUBLIC	??_R0?AV?$CDynamicPoolEx@VCRotationDecorator@NEffectUpdateDecorator@@@@@8 ; CDynamicPoolEx<NEffectUpdateDecorator::CRotationDecorator> `RTTI Type Descriptor'
PUBLIC	??_R3?$CDynamicPoolEx@VCRotationDecorator@NEffectUpdateDecorator@@@@8 ; CDynamicPoolEx<NEffectUpdateDecorator::CRotationDecorator>::`RTTI Class Hierarchy Descriptor'
PUBLIC	??_R2?$CDynamicPoolEx@VCRotationDecorator@NEffectUpdateDecorator@@@@8 ; CDynamicPoolEx<NEffectUpdateDecorator::CRotationDecorator>::`RTTI Base Class Array'
PUBLIC	??_R1A@?0A@EA@?$CDynamicPoolEx@VCRotationDecorator@NEffectUpdateDecorator@@@@8 ; CDynamicPoolEx<NEffectUpdateDecorator::CRotationDecorator>::`RTTI Base Class Descriptor at (0,-1,0,64)'
PUBLIC	??_R4?$CDynamicPool@VCParticleSystemInstance@@@@6B@ ; CDynamicPool<CParticleSystemInstance>::`RTTI Complete Object Locator'
PUBLIC	??_R0?AV?$CDynamicPool@VCParticleSystemInstance@@@@@8 ; CDynamicPool<CParticleSystemInstance> `RTTI Type Descriptor'
PUBLIC	??_R3?$CDynamicPool@VCParticleSystemInstance@@@@8 ; CDynamicPool<CParticleSystemInstance>::`RTTI Class Hierarchy Descriptor'
PUBLIC	??_R2?$CDynamicPool@VCParticleSystemInstance@@@@8 ; CDynamicPool<CParticleSystemInstance>::`RTTI Base Class Array'
PUBLIC	??_R1A@?0A@EA@?$CDynamicPool@VCParticleSystemInstance@@@@8 ; CDynamicPool<CParticleSystemInstance>::`RTTI Base Class Descriptor at (0,-1,0,64)'
PUBLIC	??_7?$CDynamicPoolEx@VCHeaderDecorator@NEffectUpdateDecorator@@@@6B@ ; CDynamicPoolEx<NEffectUpdateDecorator::CHeaderDecorator>::`vftable'
PUBLIC	??_G?$CDynamicPoolEx@VCHeaderDecorator@NEffectUpdateDecorator@@@@UAEPAXI@Z ; CDynamicPoolEx<NEffectUpdateDecorator::CHeaderDecorator>::`scalar deleting destructor'
PUBLIC	??_7?$CDynamicPool@VCParticleSystemInstance@@@@6B@ ; CDynamicPool<CParticleSystemInstance>::`vftable'
PUBLIC	??_G?$CDynamicPool@VCParticleSystemInstance@@@@UAEPAXI@Z ; CDynamicPool<CParticleSystemInstance>::`scalar deleting destructor'
PUBLIC	??_7?$CDynamicPoolEx@VCRotationDecorator@NEffectUpdateDecorator@@@@6B@ ; CDynamicPoolEx<NEffectUpdateDecorator::CRotationDecorator>::`vftable'
PUBLIC	??_G?$CDynamicPoolEx@VCRotationDecorator@NEffectUpdateDecorator@@@@UAEPAXI@Z ; CDynamicPoolEx<NEffectUpdateDecorator::CRotationDecorator>::`scalar deleting destructor'
PUBLIC	??_7?$CDynamicPoolEx@VCGravityDecorator@NEffectUpdateDecorator@@@@6B@ ; CDynamicPoolEx<NEffectUpdateDecorator::CGravityDecorator>::`vftable'
PUBLIC	??_G?$CDynamicPoolEx@VCGravityDecorator@NEffectUpdateDecorator@@@@UAEPAXI@Z ; CDynamicPoolEx<NEffectUpdateDecorator::CGravityDecorator>::`scalar deleting destructor'
PUBLIC	??_7?$CDynamicPoolEx@VCAirResistanceDecorator@NEffectUpdateDecorator@@@@6B@ ; CDynamicPoolEx<NEffectUpdateDecorator::CAirResistanceDecorator>::`vftable'
PUBLIC	??_G?$CDynamicPoolEx@VCAirResistanceDecorator@NEffectUpdateDecorator@@@@UAEPAXI@Z ; CDynamicPoolEx<NEffectUpdateDecorator::CAirResistanceDecorator>::`scalar deleting destructor'
PUBLIC	??_7?$CDynamicPoolEx@VCTextureAnimationRandomDecorator@NEffectUpdateDecorator@@@@6B@ ; CDynamicPoolEx<NEffectUpdateDecorator::CTextureAnimationRandomDecorator>::`vftable'
PUBLIC	??_G?$CDynamicPoolEx@VCTextureAnimationRandomDecorator@NEffectUpdateDecorator@@@@UAEPAXI@Z ; CDynamicPoolEx<NEffectUpdateDecorator::CTextureAnimationRandomDecorator>::`scalar deleting destructor'
PUBLIC	??_7?$CDynamicPoolEx@VCTextureAnimationCCWDecorator@NEffectUpdateDecorator@@@@6B@ ; CDynamicPoolEx<NEffectUpdateDecorator::CTextureAnimationCCWDecorator>::`vftable'
PUBLIC	??_G?$CDynamicPoolEx@VCTextureAnimationCCWDecorator@NEffectUpdateDecorator@@@@UAEPAXI@Z ; CDynamicPoolEx<NEffectUpdateDecorator::CTextureAnimationCCWDecorator>::`scalar deleting destructor'
PUBLIC	??_7?$CDynamicPoolEx@VCTextureAnimationCWDecorator@NEffectUpdateDecorator@@@@6B@ ; CDynamicPoolEx<NEffectUpdateDecorator::CTextureAnimationCWDecorator>::`vftable'
PUBLIC	??_G?$CDynamicPoolEx@VCTextureAnimationCWDecorator@NEffectUpdateDecorator@@@@UAEPAXI@Z ; CDynamicPoolEx<NEffectUpdateDecorator::CTextureAnimationCWDecorator>::`scalar deleting destructor'
EXTRN	??_E?$CDynamicPoolEx@VCNullDecorator@NEffectUpdateDecorator@@@@UAEPAXI@Z:PROC ; CDynamicPoolEx<NEffectUpdateDecorator::CNullDecorator>::`vector deleting destructor'
EXTRN	??_E?$CDynamicPoolEx@VCHeaderDecorator@NEffectUpdateDecorator@@@@UAEPAXI@Z:PROC ; CDynamicPoolEx<NEffectUpdateDecorator::CHeaderDecorator>::`vector deleting destructor'
EXTRN	??_7type_info@@6B@:QWORD			; type_info::`vftable'
EXTRN	??_E?$CDynamicPool@VCParticleSystemInstance@@@@UAEPAXI@Z:PROC ; CDynamicPool<CParticleSystemInstance>::`vector deleting destructor'
EXTRN	??_E?$CDynamicPoolEx@VCRotationDecorator@NEffectUpdateDecorator@@@@UAEPAXI@Z:PROC ; CDynamicPoolEx<NEffectUpdateDecorator::CRotationDecorator>::`vector deleting destructor'
EXTRN	??_E?$CDynamicPoolEx@VCGravityDecorator@NEffectUpdateDecorator@@@@UAEPAXI@Z:PROC ; CDynamicPoolEx<NEffectUpdateDecorator::CGravityDecorator>::`vector deleting destructor'
EXTRN	??_E?$CDynamicPoolEx@VCAirResistanceDecorator@NEffectUpdateDecorator@@@@UAEPAXI@Z:PROC ; CDynamicPoolEx<NEffectUpdateDecorator::CAirResistanceDecorator>::`vector deleting destructor'
EXTRN	??_E?$CDynamicPoolEx@VCTextureAnimationRandomDecorator@NEffectUpdateDecorator@@@@UAEPAXI@Z:PROC ; CDynamicPoolEx<NEffectUpdateDecorator::CTextureAnimationRandomDecorator>::`vector deleting destructor'
EXTRN	??_E?$CDynamicPoolEx@VCTextureAnimationCCWDecorator@NEffectUpdateDecorator@@@@UAEPAXI@Z:PROC ; CDynamicPoolEx<NEffectUpdateDecorator::CTextureAnimationCCWDecorator>::`vector deleting destructor'
EXTRN	??_E?$CDynamicPoolEx@VCTextureAnimationCWDecorator@NEffectUpdateDecorator@@@@UAEPAXI@Z:PROC ; CDynamicPoolEx<NEffectUpdateDecorator::CTextureAnimationCWDecorator>::`vector deleting destructor'
;	COMDAT ??_7?$CDynamicPoolEx@VCTextureAnimationCWDecorator@NEffectUpdateDecorator@@@@6B@
CONST	SEGMENT
??_7?$CDynamicPoolEx@VCTextureAnimationCWDecorator@NEffectUpdateDecorator@@@@6B@ DD FLAT:??_R4?$CDynamicPoolEx@VCTextureAnimationCWDecorator@NEffectUpdateDecorator@@@@6B@ ; CDynamicPoolEx<NEffectUpdateDecorator::CTextureAnimationCWDecorator>::`vftable'
	DD	FLAT:??_E?$CDynamicPoolEx@VCTextureAnimationCWDecorator@NEffectUpdateDecorator@@@@UAEPAXI@Z
CONST	ENDS
;	COMDAT ??_7?$CDynamicPoolEx@VCTextureAnimationCCWDecorator@NEffectUpdateDecorator@@@@6B@
CONST	SEGMENT
??_7?$CDynamicPoolEx@VCTextureAnimationCCWDecorator@NEffectUpdateDecorator@@@@6B@ DD FLAT:??_R4?$CDynamicPoolEx@VCTextureAnimationCCWDecorator@NEffectUpdateDecorator@@@@6B@ ; CDynamicPoolEx<NEffectUpdateDecorator::CTextureAnimationCCWDecorator>::`vftable'
	DD	FLAT:??_E?$CDynamicPoolEx@VCTextureAnimationCCWDecorator@NEffectUpdateDecorator@@@@UAEPAXI@Z
CONST	ENDS
;	COMDAT ??_7?$CDynamicPoolEx@VCTextureAnimationRandomDecorator@NEffectUpdateDecorator@@@@6B@
CONST	SEGMENT
??_7?$CDynamicPoolEx@VCTextureAnimationRandomDecorator@NEffectUpdateDecorator@@@@6B@ DD FLAT:??_R4?$CDynamicPoolEx@VCTextureAnimationRandomDecorator@NEffectUpdateDecorator@@@@6B@ ; CDynamicPoolEx<NEffectUpdateDecorator::CTextureAnimationRandomDecorator>::`vftable'
	DD	FLAT:??_E?$CDynamicPoolEx@VCTextureAnimationRandomDecorator@NEffectUpdateDecorator@@@@UAEPAXI@Z
CONST	ENDS
;	COMDAT ??_7?$CDynamicPoolEx@VCAirResistanceDecorator@NEffectUpdateDecorator@@@@6B@
CONST	SEGMENT
??_7?$CDynamicPoolEx@VCAirResistanceDecorator@NEffectUpdateDecorator@@@@6B@ DD FLAT:??_R4?$CDynamicPoolEx@VCAirResistanceDecorator@NEffectUpdateDecorator@@@@6B@ ; CDynamicPoolEx<NEffectUpdateDecorator::CAirResistanceDecorator>::`vftable'
	DD	FLAT:??_E?$CDynamicPoolEx@VCAirResistanceDecorator@NEffectUpdateDecorator@@@@UAEPAXI@Z
CONST	ENDS
;	COMDAT ??_7?$CDynamicPoolEx@VCGravityDecorator@NEffectUpdateDecorator@@@@6B@
CONST	SEGMENT
??_7?$CDynamicPoolEx@VCGravityDecorator@NEffectUpdateDecorator@@@@6B@ DD FLAT:??_R4?$CDynamicPoolEx@VCGravityDecorator@NEffectUpdateDecorator@@@@6B@ ; CDynamicPoolEx<NEffectUpdateDecorator::CGravityDecorator>::`vftable'
	DD	FLAT:??_E?$CDynamicPoolEx@VCGravityDecorator@NEffectUpdateDecorator@@@@UAEPAXI@Z
CONST	ENDS
;	COMDAT ??_7?$CDynamicPoolEx@VCRotationDecorator@NEffectUpdateDecorator@@@@6B@
CONST	SEGMENT
??_7?$CDynamicPoolEx@VCRotationDecorator@NEffectUpdateDecorator@@@@6B@ DD FLAT:??_R4?$CDynamicPoolEx@VCRotationDecorator@NEffectUpdateDecorator@@@@6B@ ; CDynamicPoolEx<NEffectUpdateDecorator::CRotationDecorator>::`vftable'
	DD	FLAT:??_E?$CDynamicPoolEx@VCRotationDecorator@NEffectUpdateDecorator@@@@UAEPAXI@Z
CONST	ENDS
CONST	SEGMENT
?_Fake_alloc@std@@3U_Fake_allocator@1@B	ORG $+1		; std::_Fake_alloc
CONST	ENDS
;	COMDAT ??_7?$CDynamicPool@VCParticleSystemInstance@@@@6B@
CONST	SEGMENT
??_7?$CDynamicPool@VCParticleSystemInstance@@@@6B@ DD FLAT:??_R4?$CDynamicPool@VCParticleSystemInstance@@@@6B@ ; CDynamicPool<CParticleSystemInstance>::`vftable'
	DD	FLAT:??_E?$CDynamicPool@VCParticleSystemInstance@@@@UAEPAXI@Z
CONST	ENDS
;	COMDAT ??_7?$CDynamicPoolEx@VCHeaderDecorator@NEffectUpdateDecorator@@@@6B@
CONST	SEGMENT
??_7?$CDynamicPoolEx@VCHeaderDecorator@NEffectUpdateDecorator@@@@6B@ DD FLAT:??_R4?$CDynamicPoolEx@VCHeaderDecorator@NEffectUpdateDecorator@@@@6B@ ; CDynamicPoolEx<NEffectUpdateDecorator::CHeaderDecorator>::`vftable'
	DD	FLAT:??_E?$CDynamicPoolEx@VCHeaderDecorator@NEffectUpdateDecorator@@@@UAEPAXI@Z
CONST	ENDS
;	COMDAT ??_R1A@?0A@EA@?$CDynamicPool@VCParticleSystemInstance@@@@8
rdata$r	SEGMENT
??_R1A@?0A@EA@?$CDynamicPool@VCParticleSystemInstance@@@@8 DD FLAT:??_R0?AV?$CDynamicPool@VCParticleSystemInstance@@@@@8 ; CDynamicPool<CParticleSystemInstance>::`RTTI Base Class Descriptor at (0,-1,0,64)'
	DD	00H
	DD	00H
	DD	0ffffffffH
	DD	00H
	DD	040H
	DD	FLAT:??_R3?$CDynamicPool@VCParticleSystemInstance@@@@8
rdata$r	ENDS
;	COMDAT ??_R2?$CDynamicPool@VCParticleSystemInstance@@@@8
rdata$r	SEGMENT
??_R2?$CDynamicPool@VCParticleSystemInstance@@@@8 DD FLAT:??_R1A@?0A@EA@?$CDynamicPool@VCParticleSystemInstance@@@@8 ; CDynamicPool<CParticleSystemInstance>::`RTTI Base Class Array'
rdata$r	ENDS
;	COMDAT ??_R3?$CDynamicPool@VCParticleSystemInstance@@@@8
rdata$r	SEGMENT
??_R3?$CDynamicPool@VCParticleSystemInstance@@@@8 DD 00H ; CDynamicPool<CParticleSystemInstance>::`RTTI Class Hierarchy Descriptor'
	DD	00H
	DD	01H
	DD	FLAT:??_R2?$CDynamicPool@VCParticleSystemInstance@@@@8
rdata$r	ENDS
;	COMDAT ??_R0?AV?$CDynamicPool@VCParticleSystemInstance@@@@@8
data$rs	SEGMENT
??_R0?AV?$CDynamicPool@VCParticleSystemInstance@@@@@8 DD FLAT:??_7type_info@@6B@ ; CDynamicPool<CParticleSystemInstance> `RTTI Type Descriptor'
	DD	00H
	DB	'.?AV?$CDynamicPool@VCParticleSystemInstance@@@@', 00H
data$rs	ENDS
;	COMDAT ??_R4?$CDynamicPool@VCParticleSystemInstance@@@@6B@
rdata$r	SEGMENT
??_R4?$CDynamicPool@VCParticleSystemInstance@@@@6B@ DD 00H ; CDynamicPool<CParticleSystemInstance>::`RTTI Complete Object Locator'
	DD	00H
	DD	00H
	DD	FLAT:??_R0?AV?$CDynamicPool@VCParticleSystemInstance@@@@@8
	DD	FLAT:??_R3?$CDynamicPool@VCParticleSystemInstance@@@@8
rdata$r	ENDS
;	COMDAT ??_R1A@?0A@EA@?$CDynamicPoolEx@VCRotationDecorator@NEffectUpdateDecorator@@@@8
rdata$r	SEGMENT
??_R1A@?0A@EA@?$CDynamicPoolEx@VCRotationDecorator@NEffectUpdateDecorator@@@@8 DD FLAT:??_R0?AV?$CDynamicPoolEx@VCRotationDecorator@NEffectUpdateDecorator@@@@@8 ; CDynamicPoolEx<NEffectUpdateDecorator::CRotationDecorator>::`RTTI Base Class Descriptor at (0,-1,0,64)'
	DD	00H
	DD	00H
	DD	0ffffffffH
	DD	00H
	DD	040H
	DD	FLAT:??_R3?$CDynamicPoolEx@VCRotationDecorator@NEffectUpdateDecorator@@@@8
rdata$r	ENDS
;	COMDAT ??_R2?$CDynamicPoolEx@VCRotationDecorator@NEffectUpdateDecorator@@@@8
rdata$r	SEGMENT
??_R2?$CDynamicPoolEx@VCRotationDecorator@NEffectUpdateDecorator@@@@8 DD FLAT:??_R1A@?0A@EA@?$CDynamicPoolEx@VCRotationDecorator@NEffectUpdateDecorator@@@@8 ; CDynamicPoolEx<NEffectUpdateDecorator::CRotationDecorator>::`RTTI Base Class Array'
rdata$r	ENDS
;	COMDAT ??_R3?$CDynamicPoolEx@VCRotationDecorator@NEffectUpdateDecorator@@@@8
rdata$r	SEGMENT
??_R3?$CDynamicPoolEx@VCRotationDecorator@NEffectUpdateDecorator@@@@8 DD 00H ; CDynamicPoolEx<NEffectUpdateDecorator::CRotationDecorator>::`RTTI Class Hierarchy Descriptor'
	DD	00H
	DD	01H
	DD	FLAT:??_R2?$CDynamicPoolEx@VCRotationDecorator@NEffectUpdateDecorator@@@@8
rdata$r	ENDS
;	COMDAT ??_R0?AV?$CDynamicPoolEx@VCRotationDecorator@NEffectUpdateDecorator@@@@@8
data$rs	SEGMENT
??_R0?AV?$CDynamicPoolEx@VCRotationDecorator@NEffectUpdateDecorator@@@@@8 DD FLAT:??_7type_info@@6B@ ; CDynamicPoolEx<NEffectUpdateDecorator::CRotationDecorator> `RTTI Type Descriptor'
	DD	00H
	DB	'.?AV?$CDynamicPoolEx@VCRotationDecorator@NEffectUpdateDe'
	DB	'corator@@@@', 00H
data$rs	ENDS
;	COMDAT ??_R4?$CDynamicPoolEx@VCRotationDecorator@NEffectUpdateDecorator@@@@6B@
rdata$r	SEGMENT
??_R4?$CDynamicPoolEx@VCRotationDecorator@NEffectUpdateDecorator@@@@6B@ DD 00H ; CDynamicPoolEx<NEffectUpdateDecorator::CRotationDecorator>::`RTTI Complete Object Locator'
	DD	00H
	DD	00H
	DD	FLAT:??_R0?AV?$CDynamicPoolEx@VCRotationDecorator@NEffectUpdateDecorator@@@@@8
	DD	FLAT:??_R3?$CDynamicPoolEx@VCRotationDecorator@NEffectUpdateDecorator@@@@8
rdata$r	ENDS
;	COMDAT ??_R1A@?0A@EA@?$CDynamicPoolEx@VCGravityDecorator@NEffectUpdateDecorator@@@@8
rdata$r	SEGMENT
??_R1A@?0A@EA@?$CDynamicPoolEx@VCGravityDecorator@NEffectUpdateDecorator@@@@8 DD FLAT:??_R0?AV?$CDynamicPoolEx@VCGravityDecorator@NEffectUpdateDecorator@@@@@8 ; CDynamicPoolEx<NEffectUpdateDecorator::CGravityDecorator>::`RTTI Base Class Descriptor at (0,-1,0,64)'
	DD	00H
	DD	00H
	DD	0ffffffffH
	DD	00H
	DD	040H
	DD	FLAT:??_R3?$CDynamicPoolEx@VCGravityDecorator@NEffectUpdateDecorator@@@@8
rdata$r	ENDS
;	COMDAT ??_R2?$CDynamicPoolEx@VCGravityDecorator@NEffectUpdateDecorator@@@@8
rdata$r	SEGMENT
??_R2?$CDynamicPoolEx@VCGravityDecorator@NEffectUpdateDecorator@@@@8 DD FLAT:??_R1A@?0A@EA@?$CDynamicPoolEx@VCGravityDecorator@NEffectUpdateDecorator@@@@8 ; CDynamicPoolEx<NEffectUpdateDecorator::CGravityDecorator>::`RTTI Base Class Array'
rdata$r	ENDS
;	COMDAT ??_R3?$CDynamicPoolEx@VCGravityDecorator@NEffectUpdateDecorator@@@@8
rdata$r	SEGMENT
??_R3?$CDynamicPoolEx@VCGravityDecorator@NEffectUpdateDecorator@@@@8 DD 00H ; CDynamicPoolEx<NEffectUpdateDecorator::CGravityDecorator>::`RTTI Class Hierarchy Descriptor'
	DD	00H
	DD	01H
	DD	FLAT:??_R2?$CDynamicPoolEx@VCGravityDecorator@NEffectUpdateDecorator@@@@8
rdata$r	ENDS
;	COMDAT ??_R0?AV?$CDynamicPoolEx@VCGravityDecorator@NEffectUpdateDecorator@@@@@8
data$rs	SEGMENT
??_R0?AV?$CDynamicPoolEx@VCGravityDecorator@NEffectUpdateDecorator@@@@@8 DD FLAT:??_7type_info@@6B@ ; CDynamicPoolEx<NEffectUpdateDecorator::CGravityDecorator> `RTTI Type Descriptor'
	DD	00H
	DB	'.?AV?$CDynamicPoolEx@VCGravityDecorator@NEffectUpdateDec'
	DB	'orator@@@@', 00H
data$rs	ENDS
;	COMDAT ??_R4?$CDynamicPoolEx@VCGravityDecorator@NEffectUpdateDecorator@@@@6B@
rdata$r	SEGMENT
??_R4?$CDynamicPoolEx@VCGravityDecorator@NEffectUpdateDecorator@@@@6B@ DD 00H ; CDynamicPoolEx<NEffectUpdateDecorator::CGravityDecorator>::`RTTI Complete Object Locator'
	DD	00H
	DD	00H
	DD	FLAT:??_R0?AV?$CDynamicPoolEx@VCGravityDecorator@NEffectUpdateDecorator@@@@@8
	DD	FLAT:??_R3?$CDynamicPoolEx@VCGravityDecorator@NEffectUpdateDecorator@@@@8
rdata$r	ENDS
;	COMDAT ??_R1A@?0A@EA@?$CDynamicPoolEx@VCAirResistanceDecorator@NEffectUpdateDecorator@@@@8
rdata$r	SEGMENT
??_R1A@?0A@EA@?$CDynamicPoolEx@VCAirResistanceDecorator@NEffectUpdateDecorator@@@@8 DD FLAT:??_R0?AV?$CDynamicPoolEx@VCAirResistanceDecorator@NEffectUpdateDecorator@@@@@8 ; CDynamicPoolEx<NEffectUpdateDecorator::CAirResistanceDecorator>::`RTTI Base Class Descriptor at (0,-1,0,64)'
	DD	00H
	DD	00H
	DD	0ffffffffH
	DD	00H
	DD	040H
	DD	FLAT:??_R3?$CDynamicPoolEx@VCAirResistanceDecorator@NEffectUpdateDecorator@@@@8
rdata$r	ENDS
;	COMDAT ??_R2?$CDynamicPoolEx@VCAirResistanceDecorator@NEffectUpdateDecorator@@@@8
rdata$r	SEGMENT
??_R2?$CDynamicPoolEx@VCAirResistanceDecorator@NEffectUpdateDecorator@@@@8 DD FLAT:??_R1A@?0A@EA@?$CDynamicPoolEx@VCAirResistanceDecorator@NEffectUpdateDecorator@@@@8 ; CDynamicPoolEx<NEffectUpdateDecorator::CAirResistanceDecorator>::`RTTI Base Class Array'
rdata$r	ENDS
;	COMDAT ??_R3?$CDynamicPoolEx@VCAirResistanceDecorator@NEffectUpdateDecorator@@@@8
rdata$r	SEGMENT
??_R3?$CDynamicPoolEx@VCAirResistanceDecorator@NEffectUpdateDecorator@@@@8 DD 00H ; CDynamicPoolEx<NEffectUpdateDecorator::CAirResistanceDecorator>::`RTTI Class Hierarchy Descriptor'
	DD	00H
	DD	01H
	DD	FLAT:??_R2?$CDynamicPoolEx@VCAirResistanceDecorator@NEffectUpdateDecorator@@@@8
rdata$r	ENDS
;	COMDAT ??_R0?AV?$CDynamicPoolEx@VCAirResistanceDecorator@NEffectUpdateDecorator@@@@@8
data$rs	SEGMENT
??_R0?AV?$CDynamicPoolEx@VCAirResistanceDecorator@NEffectUpdateDecorator@@@@@8 DD FLAT:??_7type_info@@6B@ ; CDynamicPoolEx<NEffectUpdateDecorator::CAirResistanceDecorator> `RTTI Type Descriptor'
	DD	00H
	DB	'.?AV?$CDynamicPoolEx@VCAirResistanceDecorator@NEffectUpd'
	DB	'ateDecorator@@@@', 00H
data$rs	ENDS
;	COMDAT ??_R4?$CDynamicPoolEx@VCAirResistanceDecorator@NEffectUpdateDecorator@@@@6B@
rdata$r	SEGMENT
??_R4?$CDynamicPoolEx@VCAirResistanceDecorator@NEffectUpdateDecorator@@@@6B@ DD 00H ; CDynamicPoolEx<NEffectUpdateDecorator::CAirResistanceDecorator>::`RTTI Complete Object Locator'
	DD	00H
	DD	00H
	DD	FLAT:??_R0?AV?$CDynamicPoolEx@VCAirResistanceDecorator@NEffectUpdateDecorator@@@@@8
	DD	FLAT:??_R3?$CDynamicPoolEx@VCAirResistanceDecorator@NEffectUpdateDecorator@@@@8
rdata$r	ENDS
;	COMDAT ??_R1A@?0A@EA@?$CDynamicPoolEx@VCTextureAnimationRandomDecorator@NEffectUpdateDecorator@@@@8
rdata$r	SEGMENT
??_R1A@?0A@EA@?$CDynamicPoolEx@VCTextureAnimationRandomDecorator@NEffectUpdateDecorator@@@@8 DD FLAT:??_R0?AV?$CDynamicPoolEx@VCTextureAnimationRandomDecorator@NEffectUpdateDecorator@@@@@8 ; CDynamicPoolEx<NEffectUpdateDecorator::CTextureAnimationRandomDecorator>::`RTTI Base Class Descriptor at (0,-1,0,64)'
	DD	00H
	DD	00H
	DD	0ffffffffH
	DD	00H
	DD	040H
	DD	FLAT:??_R3?$CDynamicPoolEx@VCTextureAnimationRandomDecorator@NEffectUpdateDecorator@@@@8
rdata$r	ENDS
;	COMDAT ??_R2?$CDynamicPoolEx@VCTextureAnimationRandomDecorator@NEffectUpdateDecorator@@@@8
rdata$r	SEGMENT
??_R2?$CDynamicPoolEx@VCTextureAnimationRandomDecorator@NEffectUpdateDecorator@@@@8 DD FLAT:??_R1A@?0A@EA@?$CDynamicPoolEx@VCTextureAnimationRandomDecorator@NEffectUpdateDecorator@@@@8 ; CDynamicPoolEx<NEffectUpdateDecorator::CTextureAnimationRandomDecorator>::`RTTI Base Class Array'
rdata$r	ENDS
;	COMDAT ??_R3?$CDynamicPoolEx@VCTextureAnimationRandomDecorator@NEffectUpdateDecorator@@@@8
rdata$r	SEGMENT
??_R3?$CDynamicPoolEx@VCTextureAnimationRandomDecorator@NEffectUpdateDecorator@@@@8 DD 00H ; CDynamicPoolEx<NEffectUpdateDecorator::CTextureAnimationRandomDecorator>::`RTTI Class Hierarchy Descriptor'
	DD	00H
	DD	01H
	DD	FLAT:??_R2?$CDynamicPoolEx@VCTextureAnimationRandomDecorator@NEffectUpdateDecorator@@@@8
rdata$r	ENDS
;	COMDAT ??_R0?AV?$CDynamicPoolEx@VCTextureAnimationRandomDecorator@NEffectUpdateDecorator@@@@@8
data$rs	SEGMENT
??_R0?AV?$CDynamicPoolEx@VCTextureAnimationRandomDecorator@NEffectUpdateDecorator@@@@@8 DD FLAT:??_7type_info@@6B@ ; CDynamicPoolEx<NEffectUpdateDecorator::CTextureAnimationRandomDecorator> `RTTI Type Descriptor'
	DD	00H
	DB	'.?AV?$CDynamicPoolEx@VCTextureAnimationRandomDecorator@N'
	DB	'EffectUpdateDecorator@@@@', 00H
data$rs	ENDS
;	COMDAT ??_R4?$CDynamicPoolEx@VCTextureAnimationRandomDecorator@NEffectUpdateDecorator@@@@6B@
rdata$r	SEGMENT
??_R4?$CDynamicPoolEx@VCTextureAnimationRandomDecorator@NEffectUpdateDecorator@@@@6B@ DD 00H ; CDynamicPoolEx<NEffectUpdateDecorator::CTextureAnimationRandomDecorator>::`RTTI Complete Object Locator'
	DD	00H
	DD	00H
	DD	FLAT:??_R0?AV?$CDynamicPoolEx@VCTextureAnimationRandomDecorator@NEffectUpdateDecorator@@@@@8
	DD	FLAT:??_R3?$CDynamicPoolEx@VCTextureAnimationRandomDecorator@NEffectUpdateDecorator@@@@8
rdata$r	ENDS
;	COMDAT ??_R1A@?0A@EA@?$CDynamicPoolEx@VCTextureAnimationCCWDecorator@NEffectUpdateDecorator@@@@8
rdata$r	SEGMENT
??_R1A@?0A@EA@?$CDynamicPoolEx@VCTextureAnimationCCWDecorator@NEffectUpdateDecorator@@@@8 DD FLAT:??_R0?AV?$CDynamicPoolEx@VCTextureAnimationCCWDecorator@NEffectUpdateDecorator@@@@@8 ; CDynamicPoolEx<NEffectUpdateDecorator::CTextureAnimationCCWDecorator>::`RTTI Base Class Descriptor at (0,-1,0,64)'
	DD	00H
	DD	00H
	DD	0ffffffffH
	DD	00H
	DD	040H
	DD	FLAT:??_R3?$CDynamicPoolEx@VCTextureAnimationCCWDecorator@NEffectUpdateDecorator@@@@8
rdata$r	ENDS
;	COMDAT ??_R2?$CDynamicPoolEx@VCTextureAnimationCCWDecorator@NEffectUpdateDecorator@@@@8
rdata$r	SEGMENT
??_R2?$CDynamicPoolEx@VCTextureAnimationCCWDecorator@NEffectUpdateDecorator@@@@8 DD FLAT:??_R1A@?0A@EA@?$CDynamicPoolEx@VCTextureAnimationCCWDecorator@NEffectUpdateDecorator@@@@8 ; CDynamicPoolEx<NEffectUpdateDecorator::CTextureAnimationCCWDecorator>::`RTTI Base Class Array'
rdata$r	ENDS
;	COMDAT ??_R3?$CDynamicPoolEx@VCTextureAnimationCCWDecorator@NEffectUpdateDecorator@@@@8
rdata$r	SEGMENT
??_R3?$CDynamicPoolEx@VCTextureAnimationCCWDecorator@NEffectUpdateDecorator@@@@8 DD 00H ; CDynamicPoolEx<NEffectUpdateDecorator::CTextureAnimationCCWDecorator>::`RTTI Class Hierarchy Descriptor'
	DD	00H
	DD	01H
	DD	FLAT:??_R2?$CDynamicPoolEx@VCTextureAnimationCCWDecorator@NEffectUpdateDecorator@@@@8
rdata$r	ENDS
;	COMDAT ??_R0?AV?$CDynamicPoolEx@VCTextureAnimationCCWDecorator@NEffectUpdateDecorator@@@@@8
data$rs	SEGMENT
??_R0?AV?$CDynamicPoolEx@VCTextureAnimationCCWDecorator@NEffectUpdateDecorator@@@@@8 DD FLAT:??_7type_info@@6B@ ; CDynamicPoolEx<NEffectUpdateDecorator::CTextureAnimationCCWDecorator> `RTTI Type Descriptor'
	DD	00H
	DB	'.?AV?$CDynamicPoolEx@VCTextureAnimationCCWDecorator@NEff'
	DB	'ectUpdateDecorator@@@@', 00H
data$rs	ENDS
;	COMDAT ??_R4?$CDynamicPoolEx@VCTextureAnimationCCWDecorator@NEffectUpdateDecorator@@@@6B@
rdata$r	SEGMENT
??_R4?$CDynamicPoolEx@VCTextureAnimationCCWDecorator@NEffectUpdateDecorator@@@@6B@ DD 00H ; CDynamicPoolEx<NEffectUpdateDecorator::CTextureAnimationCCWDecorator>::`RTTI Complete Object Locator'
	DD	00H
	DD	00H
	DD	FLAT:??_R0?AV?$CDynamicPoolEx@VCTextureAnimationCCWDecorator@NEffectUpdateDecorator@@@@@8
	DD	FLAT:??_R3?$CDynamicPoolEx@VCTextureAnimationCCWDecorator@NEffectUpdateDecorator@@@@8
rdata$r	ENDS
;	COMDAT ??_R1A@?0A@EA@?$CDynamicPoolEx@VCTextureAnimationCWDecorator@NEffectUpdateDecorator@@@@8
rdata$r	SEGMENT
??_R1A@?0A@EA@?$CDynamicPoolEx@VCTextureAnimationCWDecorator@NEffectUpdateDecorator@@@@8 DD FLAT:??_R0?AV?$CDynamicPoolEx@VCTextureAnimationCWDecorator@NEffectUpdateDecorator@@@@@8 ; CDynamicPoolEx<NEffectUpdateDecorator::CTextureAnimationCWDecorator>::`RTTI Base Class Descriptor at (0,-1,0,64)'
	DD	00H
	DD	00H
	DD	0ffffffffH
	DD	00H
	DD	040H
	DD	FLAT:??_R3?$CDynamicPoolEx@VCTextureAnimationCWDecorator@NEffectUpdateDecorator@@@@8
rdata$r	ENDS
;	COMDAT ??_R2?$CDynamicPoolEx@VCTextureAnimationCWDecorator@NEffectUpdateDecorator@@@@8
rdata$r	SEGMENT
??_R2?$CDynamicPoolEx@VCTextureAnimationCWDecorator@NEffectUpdateDecorator@@@@8 DD FLAT:??_R1A@?0A@EA@?$CDynamicPoolEx@VCTextureAnimationCWDecorator@NEffectUpdateDecorator@@@@8 ; CDynamicPoolEx<NEffectUpdateDecorator::CTextureAnimationCWDecorator>::`RTTI Base Class Array'
rdata$r	ENDS
;	COMDAT ??_R3?$CDynamicPoolEx@VCTextureAnimationCWDecorator@NEffectUpdateDecorator@@@@8
rdata$r	SEGMENT
??_R3?$CDynamicPoolEx@VCTextureAnimationCWDecorator@NEffectUpdateDecorator@@@@8 DD 00H ; CDynamicPoolEx<NEffectUpdateDecorator::CTextureAnimationCWDecorator>::`RTTI Class Hierarchy Descriptor'
	DD	00H
	DD	01H
	DD	FLAT:??_R2?$CDynamicPoolEx@VCTextureAnimationCWDecorator@NEffectUpdateDecorator@@@@8
rdata$r	ENDS
;	COMDAT ??_R0?AV?$CDynamicPoolEx@VCTextureAnimationCWDecorator@NEffectUpdateDecorator@@@@@8
data$rs	SEGMENT
??_R0?AV?$CDynamicPoolEx@VCTextureAnimationCWDecorator@NEffectUpdateDecorator@@@@@8 DD FLAT:??_7type_info@@6B@ ; CDynamicPoolEx<NEffectUpdateDecorator::CTextureAnimationCWDecorator> `RTTI Type Descriptor'
	DD	00H
	DB	'.?AV?$CDynamicPoolEx@VCTextureAnimationCWDecorator@NEffe'
	DB	'ctUpdateDecorator@@@@', 00H
data$rs	ENDS
;	COMDAT ??_R4?$CDynamicPoolEx@VCTextureAnimationCWDecorator@NEffectUpdateDecorator@@@@6B@
rdata$r	SEGMENT
??_R4?$CDynamicPoolEx@VCTextureAnimationCWDecorator@NEffectUpdateDecorator@@@@6B@ DD 00H ; CDynamicPoolEx<NEffectUpdateDecorator::CTextureAnimationCWDecorator>::`RTTI Complete Object Locator'
	DD	00H
	DD	00H
	DD	FLAT:??_R0?AV?$CDynamicPoolEx@VCTextureAnimationCWDecorator@NEffectUpdateDecorator@@@@@8
	DD	FLAT:??_R3?$CDynamicPoolEx@VCTextureAnimationCWDecorator@NEffectUpdateDecorator@@@@8
rdata$r	ENDS
;	COMDAT ??_R1A@?0A@EA@?$CDynamicPoolEx@VCNullDecorator@NEffectUpdateDecorator@@@@8
rdata$r	SEGMENT
??_R1A@?0A@EA@?$CDynamicPoolEx@VCNullDecorator@NEffectUpdateDecorator@@@@8 DD FLAT:??_R0?AV?$CDynamicPoolEx@VCNullDecorator@NEffectUpdateDecorator@@@@@8 ; CDynamicPoolEx<NEffectUpdateDecorator::CNullDecorator>::`RTTI Base Class Descriptor at (0,-1,0,64)'
	DD	00H
	DD	00H
	DD	0ffffffffH
	DD	00H
	DD	040H
	DD	FLAT:??_R3?$CDynamicPoolEx@VCNullDecorator@NEffectUpdateDecorator@@@@8
rdata$r	ENDS
;	COMDAT ??_R2?$CDynamicPoolEx@VCNullDecorator@NEffectUpdateDecorator@@@@8
rdata$r	SEGMENT
??_R2?$CDynamicPoolEx@VCNullDecorator@NEffectUpdateDecorator@@@@8 DD FLAT:??_R1A@?0A@EA@?$CDynamicPoolEx@VCNullDecorator@NEffectUpdateDecorator@@@@8 ; CDynamicPoolEx<NEffectUpdateDecorator::CNullDecorator>::`RTTI Base Class Array'
rdata$r	ENDS
;	COMDAT ??_R3?$CDynamicPoolEx@VCNullDecorator@NEffectUpdateDecorator@@@@8
rdata$r	SEGMENT
??_R3?$CDynamicPoolEx@VCNullDecorator@NEffectUpdateDecorator@@@@8 DD 00H ; CDynamicPoolEx<NEffectUpdateDecorator::CNullDecorator>::`RTTI Class Hierarchy Descriptor'
	DD	00H
	DD	01H
	DD	FLAT:??_R2?$CDynamicPoolEx@VCNullDecorator@NEffectUpdateDecorator@@@@8
rdata$r	ENDS
;	COMDAT ??_R0?AV?$CDynamicPoolEx@VCNullDecorator@NEffectUpdateDecorator@@@@@8
data$rs	SEGMENT
??_R0?AV?$CDynamicPoolEx@VCNullDecorator@NEffectUpdateDecorator@@@@@8 DD FLAT:??_7type_info@@6B@ ; CDynamicPoolEx<NEffectUpdateDecorator::CNullDecorator> `RTTI Type Descriptor'
	DD	00H
	DB	'.?AV?$CDynamicPoolEx@VCNullDecorator@NEffectUpdateDecora'
	DB	'tor@@@@', 00H
data$rs	ENDS
;	COMDAT ??_R4?$CDynamicPoolEx@VCNullDecorator@NEffectUpdateDecorator@@@@6B@
rdata$r	SEGMENT
??_R4?$CDynamicPoolEx@VCNullDecorator@NEffectUpdateDecorator@@@@6B@ DD 00H ; CDynamicPoolEx<NEffectUpdateDecorator::CNullDecorator>::`RTTI Complete Object Locator'
	DD	00H
	DD	00H
	DD	FLAT:??_R0?AV?$CDynamicPoolEx@VCNullDecorator@NEffectUpdateDecorator@@@@@8
	DD	FLAT:??_R3?$CDynamicPoolEx@VCNullDecorator@NEffectUpdateDecorator@@@@8
rdata$r	ENDS
;	COMDAT ??_R1A@?0A@EA@?$CDynamicPoolEx@VCHeaderDecorator@NEffectUpdateDecorator@@@@8
rdata$r	SEGMENT
??_R1A@?0A@EA@?$CDynamicPoolEx@VCHeaderDecorator@NEffectUpdateDecorator@@@@8 DD FLAT:??_R0?AV?$CDynamicPoolEx@VCHeaderDecorator@NEffectUpdateDecorator@@@@@8 ; CDynamicPoolEx<NEffectUpdateDecorator::CHeaderDecorator>::`RTTI Base Class Descriptor at (0,-1,0,64)'
	DD	00H
	DD	00H
	DD	0ffffffffH
	DD	00H
	DD	040H
	DD	FLAT:??_R3?$CDynamicPoolEx@VCHeaderDecorator@NEffectUpdateDecorator@@@@8
rdata$r	ENDS
;	COMDAT ??_R2?$CDynamicPoolEx@VCHeaderDecorator@NEffectUpdateDecorator@@@@8
rdata$r	SEGMENT
??_R2?$CDynamicPoolEx@VCHeaderDecorator@NEffectUpdateDecorator@@@@8 DD FLAT:??_R1A@?0A@EA@?$CDynamicPoolEx@VCHeaderDecorator@NEffectUpdateDecorator@@@@8 ; CDynamicPoolEx<NEffectUpdateDecorator::CHeaderDecorator>::`RTTI Base Class Array'
rdata$r	ENDS
;	COMDAT ??_R3?$CDynamicPoolEx@VCHeaderDecorator@NEffectUpdateDecorator@@@@8
rdata$r	SEGMENT
??_R3?$CDynamicPoolEx@VCHeaderDecorator@NEffectUpdateDecorator@@@@8 DD 00H ; CDynamicPoolEx<NEffectUpdateDecorator::CHeaderDecorator>::`RTTI Class Hierarchy Descriptor'
	DD	00H
	DD	01H
	DD	FLAT:??_R2?$CDynamicPoolEx@VCHeaderDecorator@NEffectUpdateDecorator@@@@8
rdata$r	ENDS
;	COMDAT ??_R0?AV?$CDynamicPoolEx@VCHeaderDecorator@NEffectUpdateDecorator@@@@@8
data$rs	SEGMENT
??_R0?AV?$CDynamicPoolEx@VCHeaderDecorator@NEffectUpdateDecorator@@@@@8 DD FLAT:??_7type_info@@6B@ ; CDynamicPoolEx<NEffectUpdateDecorator::CHeaderDecorator> `RTTI Type Descriptor'
	DD	00H
	DB	'.?AV?$CDynamicPoolEx@VCHeaderDecorator@NEffectUpdateDeco'
	DB	'rator@@@@', 00H
data$rs	ENDS
;	COMDAT ??_R4?$CDynamicPoolEx@VCHeaderDecorator@NEffectUpdateDecorator@@@@6B@
rdata$r	SEGMENT
??_R4?$CDynamicPoolEx@VCHeaderDecorator@NEffectUpdateDecorator@@@@6B@ DD 00H ; CDynamicPoolEx<NEffectUpdateDecorator::CHeaderDecorator>::`RTTI Complete Object Locator'
	DD	00H
	DD	00H
	DD	FLAT:??_R0?AV?$CDynamicPoolEx@VCHeaderDecorator@NEffectUpdateDecorator@@@@@8
	DD	FLAT:??_R3?$CDynamicPoolEx@VCHeaderDecorator@NEffectUpdateDecorator@@@@8
rdata$r	ENDS
;	COMDAT ??_7?$CDynamicPoolEx@VCNullDecorator@NEffectUpdateDecorator@@@@6B@
CONST	SEGMENT
??_7?$CDynamicPoolEx@VCNullDecorator@NEffectUpdateDecorator@@@@6B@ DD FLAT:??_R4?$CDynamicPoolEx@VCNullDecorator@NEffectUpdateDecorator@@@@6B@ ; CDynamicPoolEx<NEffectUpdateDecorator::CNullDecorator>::`vftable'
	DD	FLAT:??_E?$CDynamicPoolEx@VCNullDecorator@NEffectUpdateDecorator@@@@UAEPAXI@Z
CONST	ENDS
PUBLIC	??_H@YGXPAXIIP6EPAX0@Z@Z			; `vector constructor iterator'
PUBLIC	?__empty_global_delete@@YAXPAX@Z		; __empty_global_delete
PUBLIC	?__empty_global_delete@@YAXPAXI@Z		; __empty_global_delete
PUBLIC	??0exception@std@@QAE@ABV01@@Z			; std::exception::exception
PUBLIC	??1exception@std@@UAE@XZ			; std::exception::~exception
PUBLIC	?what@exception@std@@UBEPBDXZ			; std::exception::what
PUBLIC	??_Gexception@std@@UAEPAXI@Z			; std::exception::`scalar deleting destructor'
PUBLIC	??0bad_alloc@std@@QAE@ABV01@@Z			; std::bad_alloc::bad_alloc
PUBLIC	??_Gbad_alloc@std@@UAEPAXI@Z			; std::bad_alloc::`scalar deleting destructor'
PUBLIC	??0bad_array_new_length@std@@QAE@XZ		; std::bad_array_new_length::bad_array_new_length
PUBLIC	??1bad_array_new_length@std@@UAE@XZ		; std::bad_array_new_length::~bad_array_new_length
PUBLIC	??0bad_array_new_length@std@@QAE@ABV01@@Z	; std::bad_array_new_length::bad_array_new_length
PUBLIC	??_Gbad_array_new_length@std@@UAEPAXI@Z		; std::bad_array_new_length::`scalar deleting destructor'
PUBLIC	?_Throw_bad_array_new_length@std@@YAXXZ		; std::_Throw_bad_array_new_length
PUBLIC	??$_Allocate_manually_vector_aligned@U_Default_allocate_traits@std@@@std@@YAPAXI@Z ; std::_Allocate_manually_vector_aligned<std::_Default_allocate_traits>
PUBLIC	?DestroySystem@CParticleSystemInstance@@SAXXZ	; CParticleSystemInstance::DestroySystem
PUBLIC	?New@CParticleSystemInstance@@SAPAV1@XZ		; CParticleSystemInstance::New
PUBLIC	?Delete@CParticleSystemInstance@@SAXPAV1@@Z	; CParticleSystemInstance::Delete
PUBLIC	??0CParticleSystemInstance@@QAE@XZ		; CParticleSystemInstance::CParticleSystemInstance
PUBLIC	??1CParticleSystemInstance@@UAE@XZ		; CParticleSystemInstance::~CParticleSystemInstance
PUBLIC	?OnSetDataPointer@CParticleSystemInstance@@UAEXPAVCEffectElementBase@@@Z ; CParticleSystemInstance::OnSetDataPointer
PUBLIC	?CreateParticles@CParticleSystemInstance@@QAEXM@Z ; CParticleSystemInstance::CreateParticles
PUBLIC	?GetEmissionCount@CParticleSystemInstance@@QAEKXZ ; CParticleSystemInstance::GetEmissionCount
PUBLIC	?OnInitialize@CParticleSystemInstance@@MAEXXZ	; CParticleSystemInstance::OnInitialize
PUBLIC	?OnDestroy@CParticleSystemInstance@@MAEXXZ	; CParticleSystemInstance::OnDestroy
PUBLIC	?OnUpdate@CParticleSystemInstance@@MAE_NM@Z	; CParticleSystemInstance::OnUpdate
PUBLIC	?OnRender@CParticleSystemInstance@@MAEXXZ	; CParticleSystemInstance::OnRender
PUBLIC	?deallocate@?$allocator@V?$list@PAVCParticleInstance@@V?$allocator@PAVCParticleInstance@@@std@@@std@@@std@@QAEXQAV?$list@PAVCParticleInstance@@V?$allocator@PAVCParticleInstance@@@std@@@2@I@Z ; std::allocator<std::list<CParticleInstance *,std::allocator<CParticleInstance *> > >::deallocate
PUBLIC	??1?$vector@V?$list@PAVCParticleInstance@@V?$allocator@PAVCParticleInstance@@@std@@@std@@V?$allocator@V?$list@PAVCParticleInstance@@V?$allocator@PAVCParticleInstance@@@std@@@std@@@2@@std@@QAE@XZ ; std::vector<std::list<CParticleInstance *,std::allocator<CParticleInstance *> >,std::allocator<std::list<CParticleInstance *,std::allocator<CParticleInstance *> > > >::~vector<std::list<CParticleInstance *,std::allocator<CParticleInstance *> >,std::allocator<std::list<CParticleInstance *,std::allocator<CParticleInstance *> > > >
PUBLIC	?_Ufill@?$vector@V?$list@PAVCParticleInstance@@V?$allocator@PAVCParticleInstance@@@std@@@std@@V?$allocator@V?$list@PAVCParticleInstance@@V?$allocator@PAVCParticleInstance@@@std@@@std@@@2@@std@@AAEPAV?$list@PAVCParticleInstance@@V?$allocator@PAVCParticleInstance@@@std@@@2@PAV32@IU_Value_init_tag@2@@Z ; std::vector<std::list<CParticleInstance *,std::allocator<CParticleInstance *> >,std::allocator<std::list<CParticleInstance *,std::allocator<CParticleInstance *> > > >::_Ufill
PUBLIC	?_Destroy@?$vector@V?$list@PAVCParticleInstance@@V?$allocator@PAVCParticleInstance@@@std@@@std@@V?$allocator@V?$list@PAVCParticleInstance@@V?$allocator@PAVCParticleInstance@@@std@@@std@@@2@@std@@AAEXPAV?$list@PAVCParticleInstance@@V?$allocator@PAVCParticleInstance@@@std@@@2@0@Z ; std::vector<std::list<CParticleInstance *,std::allocator<CParticleInstance *> >,std::allocator<std::list<CParticleInstance *,std::allocator<CParticleInstance *> > > >::_Destroy
PUBLIC	?_Xlength@?$vector@V?$list@PAVCParticleInstance@@V?$allocator@PAVCParticleInstance@@@std@@@std@@V?$allocator@V?$list@PAVCParticleInstance@@V?$allocator@PAVCParticleInstance@@@std@@@std@@@2@@std@@CAXXZ ; std::vector<std::list<CParticleInstance *,std::allocator<CParticleInstance *> >,std::allocator<std::list<CParticleInstance *,std::allocator<CParticleInstance *> > > >::_Xlength
PUBLIC	?_Getal@?$vector@V?$list@PAVCParticleInstance@@V?$allocator@PAVCParticleInstance@@@std@@@std@@V?$allocator@V?$list@PAVCParticleInstance@@V?$allocator@PAVCParticleInstance@@@std@@@std@@@2@@std@@AAEAAV?$allocator@V?$list@PAVCParticleInstance@@V?$allocator@PAVCParticleInstance@@@std@@@std@@@2@XZ ; std::vector<std::list<CParticleInstance *,std::allocator<CParticleInstance *> >,std::allocator<std::list<CParticleInstance *,std::allocator<CParticleInstance *> > > >::_Getal
PUBLIC	??1?$vector@PAVCGraphicImageInstance@@V?$allocator@PAVCGraphicImageInstance@@@std@@@std@@QAE@XZ ; std::vector<CGraphicImageInstance *,std::allocator<CGraphicImageInstance *> >::~vector<CGraphicImageInstance *,std::allocator<CGraphicImageInstance *> >
PUBLIC	?_Reallocate_exactly@?$vector@PAVCGraphicImageInstance@@V?$allocator@PAVCGraphicImageInstance@@@std@@@std@@AAEXI@Z ; std::vector<CGraphicImageInstance *,std::allocator<CGraphicImageInstance *> >::_Reallocate_exactly
PUBLIC	?_Change_array@?$vector@PAVCGraphicImageInstance@@V?$allocator@PAVCGraphicImageInstance@@@std@@@std@@AAEXQAPAVCGraphicImageInstance@@II@Z ; std::vector<CGraphicImageInstance *,std::allocator<CGraphicImageInstance *> >::_Change_array
PUBLIC	?_Xlength@?$vector@PAVCGraphicImageInstance@@V?$allocator@PAVCGraphicImageInstance@@@std@@@std@@CAXXZ ; std::vector<CGraphicImageInstance *,std::allocator<CGraphicImageInstance *> >::_Xlength
PUBLIC	??_GCParticleSystemInstance@@UAEPAXI@Z		; CParticleSystemInstance::`scalar deleting destructor'
PUBLIC	??1?$CDynamicPool@VCParticleSystemInstance@@@@UAE@XZ ; CDynamicPool<CParticleSystemInstance>::~CDynamicPool<CParticleSystemInstance>
PUBLIC	?Delete@?$CDynamicPool@VCParticleSystemInstance@@@@KAXPAVCParticleSystemInstance@@@Z ; CDynamicPool<CParticleSystemInstance>::Delete
PUBLIC	?_Xlength@?$vector@PAVCParticleSystemInstance@@V?$allocator@PAVCParticleSystemInstance@@@std@@@std@@CAXXZ ; std::vector<CParticleSystemInstance *,std::allocator<CParticleSystemInstance *> >::_Xlength
PUBLIC	??$ForEachParticleRendering@UTwoSideRenderer@NParticleRenderer@@@CParticleSystemInstance@@QAEXAAUTwoSideRenderer@NParticleRenderer@@@Z ; CParticleSystemInstance::ForEachParticleRendering<NParticleRenderer::TwoSideRenderer>
PUBLIC	??$ForEachParticleRendering@UThreeSideRenderer@NParticleRenderer@@@CParticleSystemInstance@@QAEXAAUThreeSideRenderer@NParticleRenderer@@@Z ; CParticleSystemInstance::ForEachParticleRendering<NParticleRenderer::ThreeSideRenderer>
PUBLIC	??$_Emplace_reallocate@ABQAVCGraphicImageInstance@@@?$vector@PAVCGraphicImageInstance@@V?$allocator@PAVCGraphicImageInstance@@@std@@@std@@QAEPAPAVCGraphicImageInstance@@QAPAV2@ABQAV2@@Z ; std::vector<CGraphicImageInstance *,std::allocator<CGraphicImageInstance *> >::_Emplace_reallocate<CGraphicImageInstance * const &>
PUBLIC	??1?$CDynamicPoolEx@VCRotationDecorator@NEffectUpdateDecorator@@@@UAE@XZ ; CDynamicPoolEx<NEffectUpdateDecorator::CRotationDecorator>::~CDynamicPoolEx<NEffectUpdateDecorator::CRotationDecorator>
PUBLIC	?Delete@?$CDynamicPoolEx@VCRotationDecorator@NEffectUpdateDecorator@@@@KAXPAVCRotationDecorator@NEffectUpdateDecorator@@@Z ; CDynamicPoolEx<NEffectUpdateDecorator::CRotationDecorator>::Delete
PUBLIC	??1?$CDynamicPoolEx@VCGravityDecorator@NEffectUpdateDecorator@@@@UAE@XZ ; CDynamicPoolEx<NEffectUpdateDecorator::CGravityDecorator>::~CDynamicPoolEx<NEffectUpdateDecorator::CGravityDecorator>
PUBLIC	?Delete@?$CDynamicPoolEx@VCGravityDecorator@NEffectUpdateDecorator@@@@KAXPAVCGravityDecorator@NEffectUpdateDecorator@@@Z ; CDynamicPoolEx<NEffectUpdateDecorator::CGravityDecorator>::Delete
PUBLIC	??1?$CDynamicPoolEx@VCAirResistanceDecorator@NEffectUpdateDecorator@@@@UAE@XZ ; CDynamicPoolEx<NEffectUpdateDecorator::CAirResistanceDecorator>::~CDynamicPoolEx<NEffectUpdateDecorator::CAirResistanceDecorator>
PUBLIC	?Delete@?$CDynamicPoolEx@VCAirResistanceDecorator@NEffectUpdateDecorator@@@@KAXPAVCAirResistanceDecorator@NEffectUpdateDecorator@@@Z ; CDynamicPoolEx<NEffectUpdateDecorator::CAirResistanceDecorator>::Delete
PUBLIC	??1?$CDynamicPoolEx@VCTextureAnimationRandomDecorator@NEffectUpdateDecorator@@@@UAE@XZ ; CDynamicPoolEx<NEffectUpdateDecorator::CTextureAnimationRandomDecorator>::~CDynamicPoolEx<NEffectUpdateDecorator::CTextureAnimationRandomDecorator>
PUBLIC	?Delete@?$CDynamicPoolEx@VCTextureAnimationRandomDecorator@NEffectUpdateDecorator@@@@KAXPAVCTextureAnimationRandomDecorator@NEffectUpdateDecorator@@@Z ; CDynamicPoolEx<NEffectUpdateDecorator::CTextureAnimationRandomDecorator>::Delete
PUBLIC	??1?$CDynamicPoolEx@VCTextureAnimationCCWDecorator@NEffectUpdateDecorator@@@@UAE@XZ ; CDynamicPoolEx<NEffectUpdateDecorator::CTextureAnimationCCWDecorator>::~CDynamicPoolEx<NEffectUpdateDecorator::CTextureAnimationCCWDecorator>
PUBLIC	?Delete@?$CDynamicPoolEx@VCTextureAnimationCCWDecorator@NEffectUpdateDecorator@@@@KAXPAVCTextureAnimationCCWDecorator@NEffectUpdateDecorator@@@Z ; CDynamicPoolEx<NEffectUpdateDecorator::CTextureAnimationCCWDecorator>::Delete
PUBLIC	??1?$CDynamicPoolEx@VCTextureAnimationCWDecorator@NEffectUpdateDecorator@@@@UAE@XZ ; CDynamicPoolEx<NEffectUpdateDecorator::CTextureAnimationCWDecorator>::~CDynamicPoolEx<NEffectUpdateDecorator::CTextureAnimationCWDecorator>
PUBLIC	?Delete@?$CDynamicPoolEx@VCTextureAnimationCWDecorator@NEffectUpdateDecorator@@@@KAXPAVCTextureAnimationCWDecorator@NEffectUpdateDecorator@@@Z ; CDynamicPoolEx<NEffectUpdateDecorator::CTextureAnimationCWDecorator>::Delete
PUBLIC	??1?$CDynamicPoolEx@VCNullDecorator@NEffectUpdateDecorator@@@@UAE@XZ ; CDynamicPoolEx<NEffectUpdateDecorator::CNullDecorator>::~CDynamicPoolEx<NEffectUpdateDecorator::CNullDecorator>
PUBLIC	?Delete@?$CDynamicPoolEx@VCNullDecorator@NEffectUpdateDecorator@@@@KAXPAVCNullDecorator@NEffectUpdateDecorator@@@Z ; CDynamicPoolEx<NEffectUpdateDecorator::CNullDecorator>::Delete
PUBLIC	??1?$CDynamicPoolEx@VCHeaderDecorator@NEffectUpdateDecorator@@@@UAE@XZ ; CDynamicPoolEx<NEffectUpdateDecorator::CHeaderDecorator>::~CDynamicPoolEx<NEffectUpdateDecorator::CHeaderDecorator>
PUBLIC	?Delete@?$CDynamicPoolEx@VCHeaderDecorator@NEffectUpdateDecorator@@@@KAXPAVCHeaderDecorator@NEffectUpdateDecorator@@@Z ; CDynamicPoolEx<NEffectUpdateDecorator::CHeaderDecorator>::Delete
PUBLIC	??$_Emplace_reallocate@ABQAVCParticleSystemInstance@@@?$vector@PAVCParticleSystemInstance@@V?$allocator@PAVCParticleSystemInstance@@@std@@@std@@QAEPAPAVCParticleSystemInstance@@QAPAV2@ABQAV2@@Z ; std::vector<CParticleSystemInstance *,std::allocator<CParticleSystemInstance *> >::_Emplace_reallocate<CParticleSystemInstance * const &>
PUBLIC	??$_Destroy_range@V?$allocator@V?$list@PAVCParticleInstance@@V?$allocator@PAVCParticleInstance@@@std@@@std@@@std@@@std@@YAXPAV?$list@PAVCParticleInstance@@V?$allocator@PAVCParticleInstance@@@std@@@0@QAV10@AAV?$allocator@V?$list@PAVCParticleInstance@@V?$allocator@PAVCParticleInstance@@@std@@@std@@@0@@Z ; std::_Destroy_range<std::allocator<std::list<CParticleInstance *,std::allocator<CParticleInstance *> > > >
PUBLIC	??1?$_Alloc_construct_ptr@V?$allocator@U?$_List_node@PAVCParticleInstance@@PAX@std@@@std@@@std@@QAE@XZ ; std::_Alloc_construct_ptr<std::allocator<std::_List_node<CParticleInstance *,void *> > >::~_Alloc_construct_ptr<std::allocator<std::_List_node<CParticleInstance *,void *> > >
PUBLIC	??$_Resize_reallocate@U_Value_init_tag@std@@@?$vector@V?$list@PAVCParticleInstance@@V?$allocator@PAVCParticleInstance@@@std@@@std@@V?$allocator@V?$list@PAVCParticleInstance@@V?$allocator@PAVCParticleInstance@@@std@@@std@@@2@@std@@AAEXIABU_Value_init_tag@1@@Z ; std::vector<std::list<CParticleInstance *,std::allocator<CParticleInstance *> >,std::allocator<std::list<CParticleInstance *,std::allocator<CParticleInstance *> > > >::_Resize_reallocate<std::_Value_init_tag>
PUBLIC	??$_Copy_memmove@PAPAVCGraphicImageInstance@@PAPAV1@@std@@YAPAPAVCGraphicImageInstance@@PAPAV1@00@Z ; std::_Copy_memmove<CGraphicImageInstance * *,CGraphicImageInstance * *>
PUBLIC	??$_Copy_memmove@PAPAVCParticleSystemInstance@@PAPAV1@@std@@YAPAPAVCParticleSystemInstance@@PAPAV1@00@Z ; std::_Copy_memmove<CParticleSystemInstance * *,CParticleSystemInstance * *>
PUBLIC	??1?$_Uninitialized_backout_al@V?$allocator@V?$list@PAVCParticleInstance@@V?$allocator@PAVCParticleInstance@@@std@@@std@@@std@@@std@@QAE@XZ ; std::_Uninitialized_backout_al<std::allocator<std::list<CParticleInstance *,std::allocator<CParticleInstance *> > > >::~_Uninitialized_backout_al<std::allocator<std::list<CParticleInstance *,std::allocator<CParticleInstance *> > > >
PUBLIC	??1?$_List_node_insert_op2@V?$allocator@U?$_List_node@PAVCParticleInstance@@PAX@std@@@std@@@std@@QAE@XZ ; std::_List_node_insert_op2<std::allocator<std::_List_node<CParticleInstance *,void *> > >::~_List_node_insert_op2<std::allocator<std::_List_node<CParticleInstance *,void *> > >
PUBLIC	??_7exception@std@@6B@				; std::exception::`vftable'
PUBLIC	??_C@_0BC@EOODALEL@Unknown?5exception@		; `string'
PUBLIC	??_7bad_alloc@std@@6B@				; std::bad_alloc::`vftable'
PUBLIC	??_7bad_array_new_length@std@@6B@		; std::bad_array_new_length::`vftable'
PUBLIC	??_C@_0BF@KINCDENJ@bad?5array?5new?5length@	; `string'
PUBLIC	__TI3?AVbad_array_new_length@std@@
PUBLIC	__CTA3?AVbad_array_new_length@std@@
PUBLIC	??_R0?AVbad_array_new_length@std@@@8		; std::bad_array_new_length `RTTI Type Descriptor'
PUBLIC	__CT??_R0?AVbad_array_new_length@std@@@8??0bad_array_new_length@std@@QAE@ABV01@@Z12
PUBLIC	??_R0?AVbad_alloc@std@@@8			; std::bad_alloc `RTTI Type Descriptor'
PUBLIC	__CT??_R0?AVbad_alloc@std@@@8??0bad_alloc@std@@QAE@ABV01@@Z12
PUBLIC	??_R0?AVexception@std@@@8			; std::exception `RTTI Type Descriptor'
PUBLIC	__CT??_R0?AVexception@std@@@8??0exception@std@@QAE@ABV01@@Z12
PUBLIC	??_R4exception@std@@6B@				; std::exception::`RTTI Complete Object Locator'
PUBLIC	??_R3exception@std@@8				; std::exception::`RTTI Class Hierarchy Descriptor'
PUBLIC	??_R2exception@std@@8				; std::exception::`RTTI Base Class Array'
PUBLIC	??_R1A@?0A@EA@exception@std@@8			; std::exception::`RTTI Base Class Descriptor at (0,-1,0,64)'
PUBLIC	??_R4bad_alloc@std@@6B@				; std::bad_alloc::`RTTI Complete Object Locator'
PUBLIC	??_R3bad_alloc@std@@8				; std::bad_alloc::`RTTI Class Hierarchy Descriptor'
PUBLIC	??_R2bad_alloc@std@@8				; std::bad_alloc::`RTTI Base Class Array'
PUBLIC	??_R1A@?0A@EA@bad_alloc@std@@8			; std::bad_alloc::`RTTI Base Class Descriptor at (0,-1,0,64)'
PUBLIC	??_R4bad_array_new_length@std@@6B@		; std::bad_array_new_length::`RTTI Complete Object Locator'
PUBLIC	??_R3bad_array_new_length@std@@8		; std::bad_array_new_length::`RTTI Class Hierarchy Descriptor'
PUBLIC	??_R2bad_array_new_length@std@@8		; std::bad_array_new_length::`RTTI Base Class Array'
PUBLIC	??_R1A@?0A@EA@bad_array_new_length@std@@8	; std::bad_array_new_length::`RTTI Base Class Descriptor at (0,-1,0,64)'
PUBLIC	?ms_singleton@?$CSingleton@VCStateManager@@@@0PAVCStateManager@@A ; CSingleton<CStateManager>::ms_singleton
PUBLIC	?ms_kPool@?$CPooledObject@VCHeaderDecorator@NEffectUpdateDecorator@@@@1V?$CDynamicPoolEx@VCHeaderDecorator@NEffectUpdateDecorator@@@@A ; CPooledObject<NEffectUpdateDecorator::CHeaderDecorator>::ms_kPool
PUBLIC	?ms_kPool@?$CPooledObject@VCNullDecorator@NEffectUpdateDecorator@@@@1V?$CDynamicPoolEx@VCNullDecorator@NEffectUpdateDecorator@@@@A ; CPooledObject<NEffectUpdateDecorator::CNullDecorator>::ms_kPool
PUBLIC	?ms_kPool@?$CPooledObject@VCTextureAnimationCWDecorator@NEffectUpdateDecorator@@@@1V?$CDynamicPoolEx@VCTextureAnimationCWDecorator@NEffectUpdateDecorator@@@@A ; CPooledObject<NEffectUpdateDecorator::CTextureAnimationCWDecorator>::ms_kPool
PUBLIC	?ms_kPool@?$CPooledObject@VCTextureAnimationCCWDecorator@NEffectUpdateDecorator@@@@1V?$CDynamicPoolEx@VCTextureAnimationCCWDecorator@NEffectUpdateDecorator@@@@A ; CPooledObject<NEffectUpdateDecorator::CTextureAnimationCCWDecorator>::ms_kPool
PUBLIC	?ms_kPool@?$CPooledObject@VCTextureAnimationRandomDecorator@NEffectUpdateDecorator@@@@1V?$CDynamicPoolEx@VCTextureAnimationRandomDecorator@NEffectUpdateDecorator@@@@A ; CPooledObject<NEffectUpdateDecorator::CTextureAnimationRandomDecorator>::ms_kPool
PUBLIC	?ms_kPool@?$CPooledObject@VCAirResistanceDecorator@NEffectUpdateDecorator@@@@1V?$CDynamicPoolEx@VCAirResistanceDecorator@NEffectUpdateDecorator@@@@A ; CPooledObject<NEffectUpdateDecorator::CAirResistanceDecorator>::ms_kPool
PUBLIC	?ms_kPool@?$CPooledObject@VCGravityDecorator@NEffectUpdateDecorator@@@@1V?$CDynamicPoolEx@VCGravityDecorator@NEffectUpdateDecorator@@@@A ; CPooledObject<NEffectUpdateDecorator::CGravityDecorator>::ms_kPool
PUBLIC	?ms_kPool@?$CPooledObject@VCRotationDecorator@NEffectUpdateDecorator@@@@1V?$CDynamicPoolEx@VCRotationDecorator@NEffectUpdateDecorator@@@@A ; CPooledObject<NEffectUpdateDecorator::CRotationDecorator>::ms_kPool
PUBLIC	?ms_kPool@CParticleSystemInstance@@2V?$CDynamicPool@VCParticleSystemInstance@@@@A ; CParticleSystemInstance::ms_kPool
PUBLIC	??_7CParticleSystemInstance@@6B@		; CParticleSystemInstance::`vftable'
PUBLIC	??_C@_0O@NKNMEGII@list?5too?5long@		; `string'
PUBLIC	??_C@_0BA@FOIKENOD@vector?5too?5long@		; `string'
PUBLIC	??_R4CParticleSystemInstance@@6B@		; CParticleSystemInstance::`RTTI Complete Object Locator'
PUBLIC	??_R0?AVCParticleSystemInstance@@@8		; CParticleSystemInstance `RTTI Type Descriptor'
PUBLIC	??_R3CParticleSystemInstance@@8			; CParticleSystemInstance::`RTTI Class Hierarchy Descriptor'
PUBLIC	??_R2CParticleSystemInstance@@8			; CParticleSystemInstance::`RTTI Base Class Array'
PUBLIC	??_R1A@?0A@EA@CParticleSystemInstance@@8	; CParticleSystemInstance::`RTTI Base Class Descriptor at (0,-1,0,64)'
PUBLIC	??_R1A@?0A@EA@CEffectElementBaseInstance@@8	; CEffectElementBaseInstance::`RTTI Base Class Descriptor at (0,-1,0,64)'
PUBLIC	??_R0?AVCEffectElementBaseInstance@@@8		; CEffectElementBaseInstance `RTTI Type Descriptor'
PUBLIC	??_R3CEffectElementBaseInstance@@8		; CEffectElementBaseInstance::`RTTI Class Hierarchy Descriptor'
PUBLIC	??_R2CEffectElementBaseInstance@@8		; CEffectElementBaseInstance::`RTTI Base Class Array'
PUBLIC	__real@3727c5ac
PUBLIC	__real@3f000000
PUBLIC	__real@3f800000
PUBLIC	__real@42652ee0
PUBLIC	__real@42c80000
PUBLIC	__real@447a0000
PUBLIC	__real@c2c80000
PUBLIC	__xmm@80000000800000008000000080000000
EXTRN	??2@YAPAXI@Z:PROC				; operator new
EXTRN	??3@YAXPAX@Z:PROC				; operator delete
EXTRN	??3@YAXPAXI@Z:PROC				; operator delete
EXTRN	_atexit:PROC
EXTRN	__invalid_parameter_noinfo_noreturn:PROC
EXTRN	___std_exception_copy:PROC
EXTRN	___std_exception_destroy:PROC
EXTRN	??_Eexception@std@@UAEPAXI@Z:PROC		; std::exception::`vector deleting destructor'
EXTRN	??_Ebad_alloc@std@@UAEPAXI@Z:PROC		; std::bad_alloc::`vector deleting destructor'
EXTRN	??_Ebad_array_new_length@std@@UAEPAXI@Z:PROC	; std::bad_array_new_length::`vector deleting destructor'
EXTRN	?_Xlength_error@std@@YAXPBD@Z:PROC		; std::_Xlength_error
EXTRN	_D3DXVec3Normalize@8:PROC
EXTRN	_D3DXVec3TransformCoord@12:PROC
EXTRN	_D3DXVec3TransformNormal@12:PROC
EXTRN	?random@@YAKXZ:PROC				; random
EXTRN	?frandom@@YAMMM@Z:PROC				; frandom
EXTRN	?random_range@@YAJJJ@Z:PROC			; random_range
EXTRN	?SetRenderState@CStateManager@@QAEXW4_D3DRENDERSTATETYPE@@K@Z:PROC ; CStateManager::SetRenderState
EXTRN	?SetTexture@CStateManager@@QAEXKPAUIDirect3DBaseTexture8@@@Z:PROC ; CStateManager::SetTexture
EXTRN	?SetTextureStageState@CStateManager@@QAEXKW4_D3DTEXTURESTAGESTATETYPE@@K@Z:PROC ; CStateManager::SetTextureStageState
EXTRN	?DrawPrimitiveUP@CStateManager@@QAEJW4_D3DPRIMITIVETYPE@@IPBXI@Z:PROC ; CStateManager::DrawPrimitiveUP
EXTRN	?GetPosition@CEffectElementBase@@QAEXMAAUD3DXVECTOR3@@@Z:PROC ; CEffectElementBase::GetPosition
EXTRN	?GetEmitterShape@CEmitterProperty@@QAEEXZ:PROC	; CEmitterProperty::GetEmitterShape
EXTRN	?GetEmitterAdvancedType@CEmitterProperty@@QAEEXZ:PROC ; CEmitterProperty::GetEmitterAdvancedType
EXTRN	?isEmitFromEdge@CEmitterProperty@@QAEHXZ:PROC	; CEmitterProperty::isEmitFromEdge
EXTRN	?GetEmittingSize@CEmitterProperty@@QAEXMPAM@Z:PROC ; CEmitterProperty::GetEmittingSize
EXTRN	?GetEmittingAngularVelocity@CEmitterProperty@@QAEXMPAM@Z:PROC ; CEmitterProperty::GetEmittingAngularVelocity
EXTRN	?GetEmittingDirectionX@CEmitterProperty@@QAEXMPAM@Z:PROC ; CEmitterProperty::GetEmittingDirectionX
EXTRN	?GetEmittingDirectionY@CEmitterProperty@@QAEXMPAM@Z:PROC ; CEmitterProperty::GetEmittingDirectionY
EXTRN	?GetEmittingDirectionZ@CEmitterProperty@@QAEXMPAM@Z:PROC ; CEmitterProperty::GetEmittingDirectionZ
EXTRN	?GetEmittingVelocity@CEmitterProperty@@QAEXMPAM@Z:PROC ; CEmitterProperty::GetEmittingVelocity
EXTRN	?GetEmissionCountPerSecond@CEmitterProperty@@QAEXMPAM@Z:PROC ; CEmitterProperty::GetEmissionCountPerSecond
EXTRN	?GetParticleLifeTime@CEmitterProperty@@QAEXMPAM@Z:PROC ; CEmitterProperty::GetParticleLifeTime
EXTRN	?GetParticleSizeX@CEmitterProperty@@QAEXMPAM@Z:PROC ; CEmitterProperty::GetParticleSizeX
EXTRN	?GetParticleSizeY@CEmitterProperty@@QAEXMPAM@Z:PROC ; CEmitterProperty::GetParticleSizeY
EXTRN	?GetD3DTexture@CGraphicTexture@@QBEPAUIDirect3DTexture8@@XZ:PROC ; CGraphicTexture::GetD3DTexture
EXTRN	?SetImagePointer@CGraphicImageInstance@@QAEXPAVCGraphicImage@@@Z:PROC ; CGraphicImageInstance::SetImagePointer
EXTRN	?GetTextureReference@CGraphicImageInstance@@QBEABVCGraphicTexture@@XZ:PROC ; CGraphicImageInstance::GetTextureReference
EXTRN	?New@CGraphicImageInstance@@SAPAV1@XZ:PROC	; CGraphicImageInstance::New
EXTRN	?Delete@CGraphicImageInstance@@SAXPAV1@@Z:PROC	; CGraphicImageInstance::Delete
EXTRN	?GetEmitterPropertyPointer@CParticleSystemData@@QAEPAVCEmitterProperty@@XZ:PROC ; CParticleSystemData::GetEmitterPropertyPointer
EXTRN	?GetParticlePropertyPointer@CParticleSystemData@@QAEPAVCParticleProperty@@XZ:PROC ; CParticleSystemData::GetParticlePropertyPointer
EXTRN	?BuildDecorator@CParticleSystemData@@QAEXPAVCParticleInstance@@@Z:PROC ; CParticleSystemData::BuildDecorator
EXTRN	??0CEffectElementBaseInstance@@QAE@XZ:PROC	; CEffectElementBaseInstance::CEffectElementBaseInstance
EXTRN	??1CEffectElementBaseInstance@@UAE@XZ:PROC	; CEffectElementBaseInstance::~CEffectElementBaseInstance
EXTRN	?Initialize@CEffectElementBaseInstance@@QAEXXZ:PROC ; CEffectElementBaseInstance::Initialize
EXTRN	?Destroy@CEffectElementBaseInstance@@QAEXXZ:PROC ; CEffectElementBaseInstance::Destroy
EXTRN	?isActive@CEffectElementBaseInstance@@QAE_NXZ:PROC ; CEffectElementBaseInstance::isActive
EXTRN	?GetRadiusApproximation@CParticleInstance@@QAEMXZ:PROC ; CParticleInstance::GetRadiusApproximation
EXTRN	?Update@CParticleInstance@@QAEHMM@Z:PROC	; CParticleInstance::Update
EXTRN	?New@CParticleInstance@@SAPAV1@XZ:PROC		; CParticleInstance::New
EXTRN	?DestroySystem@CParticleInstance@@SAXXZ:PROC	; CParticleInstance::DestroySystem
EXTRN	?Transform@CParticleInstance@@QAEXPBUD3DXMATRIX@@@Z:PROC ; CParticleInstance::Transform
EXTRN	?Transform@CParticleInstance@@QAEXPBUD3DXMATRIX@@M@Z:PROC ; CParticleInstance::Transform
EXTRN	?GetParticleMeshPointer@CParticleInstance@@QAEPAUSPTVertex@@XZ:PROC ; CParticleInstance::GetParticleMeshPointer
EXTRN	?DeleteThis@CParticleInstance@@QAEXXZ:PROC	; CParticleInstance::DeleteThis
EXTRN	?ViewVolumeTest@Frustum@@QBE?AW4ViewState@@ABVVector3d@@M@Z:PROC ; Frustum::ViewVolumeTest
EXTRN	?Identity@CScreen@@SAXXZ:PROC			; CScreen::Identity
EXTRN	??_ECParticleSystemInstance@@UAEPAXI@Z:PROC	; CParticleSystemInstance::`vector deleting destructor'
EXTRN	@__security_check_cookie@4:PROC
EXTRN	__CIatan2:PROC
EXTRN	__CxxThrowException@8:PROC
EXTRN	___CxxFrameHandler3:PROC
EXTRN	__libm_sse2_sqrt_precise:PROC
EXTRN	_memmove:PROC
EXTRN	?ms_frustum@CScreen@@1VFrustum@@A:BYTE		; CScreen::ms_frustum
EXTRN	___security_cookie:DWORD
EXTRN	__fltused:DWORD
;	COMDAT ?ms_singleton@?$CSingleton@VCStateManager@@@@0PAVCStateManager@@A
_BSS	SEGMENT
?ms_singleton@?$CSingleton@VCStateManager@@@@0PAVCStateManager@@A DD 01H DUP (?) ; CSingleton<CStateManager>::ms_singleton
_BSS	ENDS
CRT$XCU	SEGMENT
??ms_kPool$initializer$@CParticleSystemInstance@@2P6AXXZA@@3P6AXXZA DD FLAT:??__E?ms_kPool@CParticleSystemInstance@@2V?$CDynamicPool@VCParticleSystemInstance@@@@A@@YAXXZ ; ??ms_kPool$initializer$@CParticleSystemInstance@@2P6AXXZA@@3P6AXXZA
CRT$XCU	ENDS
;	COMDAT __xmm@80000000800000008000000080000000
CONST	SEGMENT
__xmm@80000000800000008000000080000000 DB 00H, 00H, 00H, 080H, 00H, 00H, 00H
	DB	080H, 00H, 00H, 00H, 080H, 00H, 00H, 00H, 080H
CONST	ENDS
;	COMDAT __real@c2c80000
CONST	SEGMENT
__real@c2c80000 DD 0c2c80000r			; -100
CONST	ENDS
;	COMDAT __real@447a0000
CONST	SEGMENT
__real@447a0000 DD 0447a0000r			; 1000
CONST	ENDS
;	COMDAT __real@42c80000
CONST	SEGMENT
__real@42c80000 DD 042c80000r			; 100
CONST	ENDS
;	COMDAT __real@42652ee0
CONST	SEGMENT
__real@42652ee0 DD 042652ee0r			; 57.2958
CONST	ENDS
;	COMDAT __real@3f800000
CONST	SEGMENT
__real@3f800000 DD 03f800000r			; 1
CONST	ENDS
;	COMDAT __real@3f000000
CONST	SEGMENT
__real@3f000000 DD 03f000000r			; 0.5
CONST	ENDS
;	COMDAT __real@3727c5ac
CONST	SEGMENT
__real@3727c5ac DD 03727c5acr			; 1e-05
CONST	ENDS
;	COMDAT ??_R2CEffectElementBaseInstance@@8
rdata$r	SEGMENT
??_R2CEffectElementBaseInstance@@8 DD FLAT:??_R1A@?0A@EA@CEffectElementBaseInstance@@8 ; CEffectElementBaseInstance::`RTTI Base Class Array'
rdata$r	ENDS
;	COMDAT ??_R3CEffectElementBaseInstance@@8
rdata$r	SEGMENT
??_R3CEffectElementBaseInstance@@8 DD 00H		; CEffectElementBaseInstance::`RTTI Class Hierarchy Descriptor'
	DD	00H
	DD	01H
	DD	FLAT:??_R2CEffectElementBaseInstance@@8
rdata$r	ENDS
;	COMDAT ??_R0?AVCEffectElementBaseInstance@@@8
data$rs	SEGMENT
??_R0?AVCEffectElementBaseInstance@@@8 DD FLAT:??_7type_info@@6B@ ; CEffectElementBaseInstance `RTTI Type Descriptor'
	DD	00H
	DB	'.?AVCEffectElementBaseInstance@@', 00H
data$rs	ENDS
;	COMDAT ??_R1A@?0A@EA@CEffectElementBaseInstance@@8
rdata$r	SEGMENT
??_R1A@?0A@EA@CEffectElementBaseInstance@@8 DD FLAT:??_R0?AVCEffectElementBaseInstance@@@8 ; CEffectElementBaseInstance::`RTTI Base Class Descriptor at (0,-1,0,64)'
	DD	00H
	DD	00H
	DD	0ffffffffH
	DD	00H
	DD	040H
	DD	FLAT:??_R3CEffectElementBaseInstance@@8
rdata$r	ENDS
;	COMDAT ??_R1A@?0A@EA@CParticleSystemInstance@@8
rdata$r	SEGMENT
??_R1A@?0A@EA@CParticleSystemInstance@@8 DD FLAT:??_R0?AVCParticleSystemInstance@@@8 ; CParticleSystemInstance::`RTTI Base Class Descriptor at (0,-1,0,64)'
	DD	01H
	DD	00H
	DD	0ffffffffH
	DD	00H
	DD	040H
	DD	FLAT:??_R3CParticleSystemInstance@@8
rdata$r	ENDS
;	COMDAT ??_R2CParticleSystemInstance@@8
rdata$r	SEGMENT
??_R2CParticleSystemInstance@@8 DD FLAT:??_R1A@?0A@EA@CParticleSystemInstance@@8 ; CParticleSystemInstance::`RTTI Base Class Array'
	DD	FLAT:??_R1A@?0A@EA@CEffectElementBaseInstance@@8
rdata$r	ENDS
;	COMDAT ??_R3CParticleSystemInstance@@8
rdata$r	SEGMENT
??_R3CParticleSystemInstance@@8 DD 00H			; CParticleSystemInstance::`RTTI Class Hierarchy Descriptor'
	DD	00H
	DD	02H
	DD	FLAT:??_R2CParticleSystemInstance@@8
rdata$r	ENDS
;	COMDAT ??_R0?AVCParticleSystemInstance@@@8
data$rs	SEGMENT
??_R0?AVCParticleSystemInstance@@@8 DD FLAT:??_7type_info@@6B@ ; CParticleSystemInstance `RTTI Type Descriptor'
	DD	00H
	DB	'.?AVCParticleSystemInstance@@', 00H
data$rs	ENDS
;	COMDAT ??_R4CParticleSystemInstance@@6B@
rdata$r	SEGMENT
??_R4CParticleSystemInstance@@6B@ DD 00H		; CParticleSystemInstance::`RTTI Complete Object Locator'
	DD	00H
	DD	00H
	DD	FLAT:??_R0?AVCParticleSystemInstance@@@8
	DD	FLAT:??_R3CParticleSystemInstance@@8
rdata$r	ENDS
;	COMDAT ??_C@_0BA@FOIKENOD@vector?5too?5long@
CONST	SEGMENT
??_C@_0BA@FOIKENOD@vector?5too?5long@ DB 'vector too long', 00H ; `string'
CONST	ENDS
;	COMDAT ??_C@_0O@NKNMEGII@list?5too?5long@
CONST	SEGMENT
??_C@_0O@NKNMEGII@list?5too?5long@ DB 'list too long', 00H ; `string'
CONST	ENDS
;	COMDAT ??_7CParticleSystemInstance@@6B@
CONST	SEGMENT
??_7CParticleSystemInstance@@6B@ DD FLAT:??_R4CParticleSystemInstance@@6B@ ; CParticleSystemInstance::`vftable'
	DD	FLAT:??_ECParticleSystemInstance@@UAEPAXI@Z
	DD	FLAT:?OnSetDataPointer@CParticleSystemInstance@@UAEXPAVCEffectElementBase@@@Z
	DD	FLAT:?OnInitialize@CParticleSystemInstance@@MAEXXZ
	DD	FLAT:?OnDestroy@CParticleSystemInstance@@MAEXXZ
	DD	FLAT:?OnUpdate@CParticleSystemInstance@@MAE_NM@Z
	DD	FLAT:?OnRender@CParticleSystemInstance@@MAEXXZ
CONST	ENDS
_DATA	SEGMENT
?ms_kPool@CParticleSystemInstance@@2V?$CDynamicPool@VCParticleSystemInstance@@@@A DD FLAT:??_7?$CDynamicPool@VCParticleSystemInstance@@@@6B@ ; CParticleSystemInstance::ms_kPool
	DD	00H
	DD	00H
	DD	00H
	DD	00H
	DD	00H
	DD	00H
	DD	00H
	DD	00H
_DATA	ENDS
;	COMDAT ?ms_kPool@?$CPooledObject@VCRotationDecorator@NEffectUpdateDecorator@@@@1V?$CDynamicPoolEx@VCRotationDecorator@NEffectUpdateDecorator@@@@A
_DATA	SEGMENT
?ms_kPool@?$CPooledObject@VCRotationDecorator@NEffectUpdateDecorator@@@@1V?$CDynamicPoolEx@VCRotationDecorator@NEffectUpdateDecorator@@@@A DD FLAT:??_7?$CDynamicPoolEx@VCRotationDecorator@NEffectUpdateDecorator@@@@6B@ ; CPooledObject<NEffectUpdateDecorator::CRotationDecorator>::ms_kPool
	DD	00H
	DD	00H
	DD	00H
	DD	00H
	DD	00H
	DD	00H
	DD	00H
	DD	00H
_DATA	ENDS
;	COMDAT ?ms_kPool@?$CPooledObject@VCGravityDecorator@NEffectUpdateDecorator@@@@1V?$CDynamicPoolEx@VCGravityDecorator@NEffectUpdateDecorator@@@@A
_DATA	SEGMENT
?ms_kPool@?$CPooledObject@VCGravityDecorator@NEffectUpdateDecorator@@@@1V?$CDynamicPoolEx@VCGravityDecorator@NEffectUpdateDecorator@@@@A DD FLAT:??_7?$CDynamicPoolEx@VCGravityDecorator@NEffectUpdateDecorator@@@@6B@ ; CPooledObject<NEffectUpdateDecorator::CGravityDecorator>::ms_kPool
	DD	00H
	DD	00H
	DD	00H
	DD	00H
	DD	00H
	DD	00H
	DD	00H
	DD	00H
_DATA	ENDS
;	COMDAT ?ms_kPool@?$CPooledObject@VCAirResistanceDecorator@NEffectUpdateDecorator@@@@1V?$CDynamicPoolEx@VCAirResistanceDecorator@NEffectUpdateDecorator@@@@A
_DATA	SEGMENT
?ms_kPool@?$CPooledObject@VCAirResistanceDecorator@NEffectUpdateDecorator@@@@1V?$CDynamicPoolEx@VCAirResistanceDecorator@NEffectUpdateDecorator@@@@A DD FLAT:??_7?$CDynamicPoolEx@VCAirResistanceDecorator@NEffectUpdateDecorator@@@@6B@ ; CPooledObject<NEffectUpdateDecorator::CAirResistanceDecorator>::ms_kPool
	DD	00H
	DD	00H
	DD	00H
	DD	00H
	DD	00H
	DD	00H
	DD	00H
	DD	00H
_DATA	ENDS
;	COMDAT ?ms_kPool@?$CPooledObject@VCTextureAnimationRandomDecorator@NEffectUpdateDecorator@@@@1V?$CDynamicPoolEx@VCTextureAnimationRandomDecorator@NEffectUpdateDecorator@@@@A
_DATA	SEGMENT
?ms_kPool@?$CPooledObject@VCTextureAnimationRandomDecorator@NEffectUpdateDecorator@@@@1V?$CDynamicPoolEx@VCTextureAnimationRandomDecorator@NEffectUpdateDecorator@@@@A DD FLAT:??_7?$CDynamicPoolEx@VCTextureAnimationRandomDecorator@NEffectUpdateDecorator@@@@6B@ ; CPooledObject<NEffectUpdateDecorator::CTextureAnimationRandomDecorator>::ms_kPool
	DD	00H
	DD	00H
	DD	00H
	DD	00H
	DD	00H
	DD	00H
	DD	00H
	DD	00H
_DATA	ENDS
;	COMDAT ?ms_kPool@?$CPooledObject@VCTextureAnimationCCWDecorator@NEffectUpdateDecorator@@@@1V?$CDynamicPoolEx@VCTextureAnimationCCWDecorator@NEffectUpdateDecorator@@@@A
_DATA	SEGMENT
?ms_kPool@?$CPooledObject@VCTextureAnimationCCWDecorator@NEffectUpdateDecorator@@@@1V?$CDynamicPoolEx@VCTextureAnimationCCWDecorator@NEffectUpdateDecorator@@@@A DD FLAT:??_7?$CDynamicPoolEx@VCTextureAnimationCCWDecorator@NEffectUpdateDecorator@@@@6B@ ; CPooledObject<NEffectUpdateDecorator::CTextureAnimationCCWDecorator>::ms_kPool
	DD	00H
	DD	00H
	DD	00H
	DD	00H
	DD	00H
	DD	00H
	DD	00H
	DD	00H
_DATA	ENDS
;	COMDAT ?ms_kPool@?$CPooledObject@VCTextureAnimationCWDecorator@NEffectUpdateDecorator@@@@1V?$CDynamicPoolEx@VCTextureAnimationCWDecorator@NEffectUpdateDecorator@@@@A
_DATA	SEGMENT
?ms_kPool@?$CPooledObject@VCTextureAnimationCWDecorator@NEffectUpdateDecorator@@@@1V?$CDynamicPoolEx@VCTextureAnimationCWDecorator@NEffectUpdateDecorator@@@@A DD FLAT:??_7?$CDynamicPoolEx@VCTextureAnimationCWDecorator@NEffectUpdateDecorator@@@@6B@ ; CPooledObject<NEffectUpdateDecorator::CTextureAnimationCWDecorator>::ms_kPool
	DD	00H
	DD	00H
	DD	00H
	DD	00H
	DD	00H
	DD	00H
	DD	00H
	DD	00H
_DATA	ENDS
;	COMDAT ?ms_kPool@?$CPooledObject@VCNullDecorator@NEffectUpdateDecorator@@@@1V?$CDynamicPoolEx@VCNullDecorator@NEffectUpdateDecorator@@@@A
_DATA	SEGMENT
?ms_kPool@?$CPooledObject@VCNullDecorator@NEffectUpdateDecorator@@@@1V?$CDynamicPoolEx@VCNullDecorator@NEffectUpdateDecorator@@@@A DD FLAT:??_7?$CDynamicPoolEx@VCNullDecorator@NEffectUpdateDecorator@@@@6B@ ; CPooledObject<NEffectUpdateDecorator::CNullDecorator>::ms_kPool
	DD	00H
	DD	00H
	DD	00H
	DD	00H
	DD	00H
	DD	00H
	DD	00H
	DD	00H
_DATA	ENDS
;	COMDAT ?ms_kPool@?$CPooledObject@VCHeaderDecorator@NEffectUpdateDecorator@@@@1V?$CDynamicPoolEx@VCHeaderDecorator@NEffectUpdateDecorator@@@@A
_DATA	SEGMENT
?ms_kPool@?$CPooledObject@VCHeaderDecorator@NEffectUpdateDecorator@@@@1V?$CDynamicPoolEx@VCHeaderDecorator@NEffectUpdateDecorator@@@@A DD FLAT:??_7?$CDynamicPoolEx@VCHeaderDecorator@NEffectUpdateDecorator@@@@6B@ ; CPooledObject<NEffectUpdateDecorator::CHeaderDecorator>::ms_kPool
	DD	00H
	DD	00H
	DD	00H
	DD	00H
	DD	00H
	DD	00H
	DD	00H
	DD	00H
_DATA	ENDS
;	COMDAT ??_R1A@?0A@EA@bad_array_new_length@std@@8
rdata$r	SEGMENT
??_R1A@?0A@EA@bad_array_new_length@std@@8 DD FLAT:??_R0?AVbad_array_new_length@std@@@8 ; std::bad_array_new_length::`RTTI Base Class Descriptor at (0,-1,0,64)'
	DD	02H
	DD	00H
	DD	0ffffffffH
	DD	00H
	DD	040H
	DD	FLAT:??_R3bad_array_new_length@std@@8
rdata$r	ENDS
;	COMDAT ??_R2bad_array_new_length@std@@8
rdata$r	SEGMENT
??_R2bad_array_new_length@std@@8 DD FLAT:??_R1A@?0A@EA@bad_array_new_length@std@@8 ; std::bad_array_new_length::`RTTI Base Class Array'
	DD	FLAT:??_R1A@?0A@EA@bad_alloc@std@@8
	DD	FLAT:??_R1A@?0A@EA@exception@std@@8
rdata$r	ENDS
;	COMDAT ??_R3bad_array_new_length@std@@8
rdata$r	SEGMENT
??_R3bad_array_new_length@std@@8 DD 00H			; std::bad_array_new_length::`RTTI Class Hierarchy Descriptor'
	DD	00H
	DD	03H
	DD	FLAT:??_R2bad_array_new_length@std@@8
rdata$r	ENDS
;	COMDAT ??_R4bad_array_new_length@std@@6B@
rdata$r	SEGMENT
??_R4bad_array_new_length@std@@6B@ DD 00H		; std::bad_array_new_length::`RTTI Complete Object Locator'
	DD	00H
	DD	00H
	DD	FLAT:??_R0?AVbad_array_new_length@std@@@8
	DD	FLAT:??_R3bad_array_new_length@std@@8
rdata$r	ENDS
;	COMDAT ??_R1A@?0A@EA@bad_alloc@std@@8
rdata$r	SEGMENT
??_R1A@?0A@EA@bad_alloc@std@@8 DD FLAT:??_R0?AVbad_alloc@std@@@8 ; std::bad_alloc::`RTTI Base Class Descriptor at (0,-1,0,64)'
	DD	01H
	DD	00H
	DD	0ffffffffH
	DD	00H
	DD	040H
	DD	FLAT:??_R3bad_alloc@std@@8
rdata$r	ENDS
;	COMDAT ??_R2bad_alloc@std@@8
rdata$r	SEGMENT
??_R2bad_alloc@std@@8 DD FLAT:??_R1A@?0A@EA@bad_alloc@std@@8 ; std::bad_alloc::`RTTI Base Class Array'
	DD	FLAT:??_R1A@?0A@EA@exception@std@@8
rdata$r	ENDS
;	COMDAT ??_R3bad_alloc@std@@8
rdata$r	SEGMENT
??_R3bad_alloc@std@@8 DD 00H				; std::bad_alloc::`RTTI Class Hierarchy Descriptor'
	DD	00H
	DD	02H
	DD	FLAT:??_R2bad_alloc@std@@8
rdata$r	ENDS
;	COMDAT ??_R4bad_alloc@std@@6B@
rdata$r	SEGMENT
??_R4bad_alloc@std@@6B@ DD 00H				; std::bad_alloc::`RTTI Complete Object Locator'
	DD	00H
	DD	00H
	DD	FLAT:??_R0?AVbad_alloc@std@@@8
	DD	FLAT:??_R3bad_alloc@std@@8
rdata$r	ENDS
;	COMDAT ??_R1A@?0A@EA@exception@std@@8
rdata$r	SEGMENT
??_R1A@?0A@EA@exception@std@@8 DD FLAT:??_R0?AVexception@std@@@8 ; std::exception::`RTTI Base Class Descriptor at (0,-1,0,64)'
	DD	00H
	DD	00H
	DD	0ffffffffH
	DD	00H
	DD	040H
	DD	FLAT:??_R3exception@std@@8
rdata$r	ENDS
;	COMDAT ??_R2exception@std@@8
rdata$r	SEGMENT
??_R2exception@std@@8 DD FLAT:??_R1A@?0A@EA@exception@std@@8 ; std::exception::`RTTI Base Class Array'
rdata$r	ENDS
;	COMDAT ??_R3exception@std@@8
rdata$r	SEGMENT
??_R3exception@std@@8 DD 00H				; std::exception::`RTTI Class Hierarchy Descriptor'
	DD	00H
	DD	01H
	DD	FLAT:??_R2exception@std@@8
rdata$r	ENDS
;	COMDAT ??_R4exception@std@@6B@
rdata$r	SEGMENT
??_R4exception@std@@6B@ DD 00H				; std::exception::`RTTI Complete Object Locator'
	DD	00H
	DD	00H
	DD	FLAT:??_R0?AVexception@std@@@8
	DD	FLAT:??_R3exception@std@@8
rdata$r	ENDS
;	COMDAT __CT??_R0?AVexception@std@@@8??0exception@std@@QAE@ABV01@@Z12
xdata$x	SEGMENT
__CT??_R0?AVexception@std@@@8??0exception@std@@QAE@ABV01@@Z12 DD 00H
	DD	FLAT:??_R0?AVexception@std@@@8
	DD	00H
	DD	0ffffffffH
	ORG $+4
	DD	0cH
	DD	FLAT:??0exception@std@@QAE@ABV01@@Z
xdata$x	ENDS
;	COMDAT ??_R0?AVexception@std@@@8
data$r	SEGMENT
??_R0?AVexception@std@@@8 DD FLAT:??_7type_info@@6B@	; std::exception `RTTI Type Descriptor'
	DD	00H
	DB	'.?AVexception@std@@', 00H
data$r	ENDS
;	COMDAT __CT??_R0?AVbad_alloc@std@@@8??0bad_alloc@std@@QAE@ABV01@@Z12
xdata$x	SEGMENT
__CT??_R0?AVbad_alloc@std@@@8??0bad_alloc@std@@QAE@ABV01@@Z12 DD 010H
	DD	FLAT:??_R0?AVbad_alloc@std@@@8
	DD	00H
	DD	0ffffffffH
	ORG $+4
	DD	0cH
	DD	FLAT:??0bad_alloc@std@@QAE@ABV01@@Z
xdata$x	ENDS
;	COMDAT ??_R0?AVbad_alloc@std@@@8
data$r	SEGMENT
??_R0?AVbad_alloc@std@@@8 DD FLAT:??_7type_info@@6B@	; std::bad_alloc `RTTI Type Descriptor'
	DD	00H
	DB	'.?AVbad_alloc@std@@', 00H
data$r	ENDS
;	COMDAT __CT??_R0?AVbad_array_new_length@std@@@8??0bad_array_new_length@std@@QAE@ABV01@@Z12
xdata$x	SEGMENT
__CT??_R0?AVbad_array_new_length@std@@@8??0bad_array_new_length@std@@QAE@ABV01@@Z12 DD 00H
	DD	FLAT:??_R0?AVbad_array_new_length@std@@@8
	DD	00H
	DD	0ffffffffH
	ORG $+4
	DD	0cH
	DD	FLAT:??0bad_array_new_length@std@@QAE@ABV01@@Z
xdata$x	ENDS
;	COMDAT ??_R0?AVbad_array_new_length@std@@@8
data$r	SEGMENT
??_R0?AVbad_array_new_length@std@@@8 DD FLAT:??_7type_info@@6B@ ; std::bad_array_new_length `RTTI Type Descriptor'
	DD	00H
	DB	'.?AVbad_array_new_length@std@@', 00H
data$r	ENDS
;	COMDAT __CTA3?AVbad_array_new_length@std@@
xdata$x	SEGMENT
__CTA3?AVbad_array_new_length@std@@ DD 03H
	DD	FLAT:__CT??_R0?AVbad_array_new_length@std@@@8??0bad_array_new_length@std@@QAE@ABV01@@Z12
	DD	FLAT:__CT??_R0?AVbad_alloc@std@@@8??0bad_alloc@std@@QAE@ABV01@@Z12
	DD	FLAT:__CT??_R0?AVexception@std@@@8??0exception@std@@QAE@ABV01@@Z12
xdata$x	ENDS
;	COMDAT __TI3?AVbad_array_new_length@std@@
xdata$x	SEGMENT
__TI3?AVbad_array_new_length@std@@ DD 00H
	DD	FLAT:??1bad_array_new_length@std@@UAE@XZ
	DD	00H
	DD	FLAT:__CTA3?AVbad_array_new_length@std@@
xdata$x	ENDS
;	COMDAT ??_C@_0BF@KINCDENJ@bad?5array?5new?5length@
CONST	SEGMENT
??_C@_0BF@KINCDENJ@bad?5array?5new?5length@ DB 'bad array new length', 00H ; `string'
CONST	ENDS
;	COMDAT ??_7bad_array_new_length@std@@6B@
CONST	SEGMENT
??_7bad_array_new_length@std@@6B@ DD FLAT:??_R4bad_array_new_length@std@@6B@ ; std::bad_array_new_length::`vftable'
	DD	FLAT:??_Ebad_array_new_length@std@@UAEPAXI@Z
	DD	FLAT:?what@exception@std@@UBEPBDXZ
CONST	ENDS
;	COMDAT ??_7bad_alloc@std@@6B@
CONST	SEGMENT
??_7bad_alloc@std@@6B@ DD FLAT:??_R4bad_alloc@std@@6B@	; std::bad_alloc::`vftable'
	DD	FLAT:??_Ebad_alloc@std@@UAEPAXI@Z
	DD	FLAT:?what@exception@std@@UBEPBDXZ
CONST	ENDS
;	COMDAT ??_C@_0BC@EOODALEL@Unknown?5exception@
CONST	SEGMENT
??_C@_0BC@EOODALEL@Unknown?5exception@ DB 'Unknown exception', 00H ; `string'
CONST	ENDS
;	COMDAT ??_7exception@std@@6B@
CONST	SEGMENT
??_7exception@std@@6B@ DD FLAT:??_R4exception@std@@6B@	; std::exception::`vftable'
	DD	FLAT:??_Eexception@std@@UAEPAXI@Z
	DD	FLAT:?what@exception@std@@UBEPBDXZ
CONST	ENDS
;	COMDAT xdata$x
xdata$x	SEGMENT
__unwindtable$??$_Attach_head@U?$_List_simple_types@PAVCParticleInstance@@@std@@@?$_List_node_insert_op2@V?$allocator@U?$_List_node@PAVCParticleInstance@@PAX@std@@@std@@@std@@QAEXAAV?$_List_val@U?$_List_simple_types@PAVCParticleInstance@@@std@@@1@@Z DD 0ffffffffH
	DD	FLAT:__unwindfunclet$??$_Attach_head@U?$_List_simple_types@PAVCParticleInstance@@@std@@@?$_List_node_insert_op2@V?$allocator@U?$_List_node@PAVCParticleInstance@@PAX@std@@@std@@@std@@QAEXAAV?$_List_val@U?$_List_simple_types@PAVCParticleInstance@@@std@@@1@@Z$0
__ehfuncinfo$??$_Attach_head@U?$_List_simple_types@PAVCParticleInstance@@@std@@@?$_List_node_insert_op2@V?$allocator@U?$_List_node@PAVCParticleInstance@@PAX@std@@@std@@@std@@QAEXAAV?$_List_val@U?$_List_simple_types@PAVCParticleInstance@@@std@@@1@@Z DD 019930522H
	DD	01H
	DD	FLAT:__unwindtable$??$_Attach_head@U?$_List_simple_types@PAVCParticleInstance@@@std@@@?$_List_node_insert_op2@V?$allocator@U?$_List_node@PAVCParticleInstance@@PAX@std@@@std@@@std@@QAEXAAV?$_List_val@U?$_List_simple_types@PAVCParticleInstance@@@std@@@1@@Z
	DD	2 DUP(00H)
	DD	2 DUP(00H)
	DD	00H
	DD	01H
xdata$x	ENDS
;	COMDAT xdata$x
xdata$x	SEGMENT
__unwindtable$??$_Append_range_unchecked@V?$_List_unchecked_const_iterator@V?$_List_val@U?$_List_simple_types@PAVCParticleInstance@@@std@@@std@@U_Iterator_base0@2@@std@@V12@@?$_List_node_insert_op2@V?$allocator@U?$_List_node@PAVCParticleInstance@@PAX@std@@@std@@@std@@QAEXV?$_List_unchecked_const_iterator@V?$_List_val@U?$_List_simple_types@PAVCParticleInstance@@@std@@@std@@U_Iterator_base0@2@@1@V21@@Z DD 0ffffffffH
	DD	FLAT:__unwindfunclet$??$_Append_range_unchecked@V?$_List_unchecked_const_iterator@V?$_List_val@U?$_List_simple_types@PAVCParticleInstance@@@std@@@std@@U_Iterator_base0@2@@std@@V12@@?$_List_node_insert_op2@V?$allocator@U?$_List_node@PAVCParticleInstance@@PAX@std@@@std@@@std@@QAEXV?$_List_unchecked_const_iterator@V?$_List_val@U?$_List_simple_types@PAVCParticleInstance@@@std@@@std@@U_Iterator_base0@2@@1@V21@@Z$0
__ehfuncinfo$??$_Append_range_unchecked@V?$_List_unchecked_const_iterator@V?$_List_val@U?$_List_simple_types@PAVCParticleInstance@@@std@@@std@@U_Iterator_base0@2@@std@@V12@@?$_List_node_insert_op2@V?$allocator@U?$_List_node@PAVCParticleInstance@@PAX@std@@@std@@@std@@QAEXV?$_List_unchecked_const_iterator@V?$_List_val@U?$_List_simple_types@PAVCParticleInstance@@@std@@@std@@U_Iterator_base0@2@@1@V21@@Z DD 019930522H
	DD	01H
	DD	FLAT:__unwindtable$??$_Append_range_unchecked@V?$_List_unchecked_const_iterator@V?$_List_val@U?$_List_simple_types@PAVCParticleInstance@@@std@@@std@@U_Iterator_base0@2@@std@@V12@@?$_List_node_insert_op2@V?$allocator@U?$_List_node@PAVCParticleInstance@@PAX@std@@@std@@@std@@QAEXV?$_List_unchecked_const_iterator@V?$_List_val@U?$_List_simple_types@PAVCParticleInstance@@@std@@@std@@U_Iterator_base0@2@@1@V21@@Z
	DD	2 DUP(00H)
	DD	2 DUP(00H)
	DD	00H
	DD	01H
xdata$x	ENDS
;	COMDAT xdata$x
xdata$x	SEGMENT
__unwindtable$??$_Construct_range_unchecked@V?$_List_unchecked_const_iterator@V?$_List_val@U?$_List_simple_types@PAVCParticleInstance@@@std@@@std@@U_Iterator_base0@2@@std@@@?$list@PAVCParticleInstance@@V?$allocator@PAVCParticleInstance@@@std@@@std@@AAEXV?$_List_unchecked_const_iterator@V?$_List_val@U?$_List_simple_types@PAVCParticleInstance@@@std@@@std@@U_Iterator_base0@2@@1@0@Z DD 0ffffffffH
	DD	FLAT:__unwindfunclet$??$_Construct_range_unchecked@V?$_List_unchecked_const_iterator@V?$_List_val@U?$_List_simple_types@PAVCParticleInstance@@@std@@@std@@U_Iterator_base0@2@@std@@@?$list@PAVCParticleInstance@@V?$allocator@PAVCParticleInstance@@@std@@@std@@AAEXV?$_List_unchecked_const_iterator@V?$_List_val@U?$_List_simple_types@PAVCParticleInstance@@@std@@@std@@U_Iterator_base0@2@@1@0@Z$0
	DD	00H
	DD	FLAT:__unwindfunclet$??$_Construct_range_unchecked@V?$_List_unchecked_const_iterator@V?$_List_val@U?$_List_simple_types@PAVCParticleInstance@@@std@@@std@@U_Iterator_base0@2@@std@@@?$list@PAVCParticleInstance@@V?$allocator@PAVCParticleInstance@@@std@@@std@@AAEXV?$_List_unchecked_const_iterator@V?$_List_val@U?$_List_simple_types@PAVCParticleInstance@@@std@@@std@@U_Iterator_base0@2@@1@0@Z$1
	DD	00H
	DD	FLAT:__unwindfunclet$??$_Construct_range_unchecked@V?$_List_unchecked_const_iterator@V?$_List_val@U?$_List_simple_types@PAVCParticleInstance@@@std@@@std@@U_Iterator_base0@2@@std@@@?$list@PAVCParticleInstance@@V?$allocator@PAVCParticleInstance@@@std@@@std@@AAEXV?$_List_unchecked_const_iterator@V?$_List_val@U?$_List_simple_types@PAVCParticleInstance@@@std@@@std@@U_Iterator_base0@2@@1@0@Z$2
__ehfuncinfo$??$_Construct_range_unchecked@V?$_List_unchecked_const_iterator@V?$_List_val@U?$_List_simple_types@PAVCParticleInstance@@@std@@@std@@U_Iterator_base0@2@@std@@@?$list@PAVCParticleInstance@@V?$allocator@PAVCParticleInstance@@@std@@@std@@AAEXV?$_List_unchecked_const_iterator@V?$_List_val@U?$_List_simple_types@PAVCParticleInstance@@@std@@@std@@U_Iterator_base0@2@@1@0@Z DD 019930522H
	DD	03H
	DD	FLAT:__unwindtable$??$_Construct_range_unchecked@V?$_List_unchecked_const_iterator@V?$_List_val@U?$_List_simple_types@PAVCParticleInstance@@@std@@@std@@U_Iterator_base0@2@@std@@@?$list@PAVCParticleInstance@@V?$allocator@PAVCParticleInstance@@@std@@@std@@AAEXV?$_List_unchecked_const_iterator@V?$_List_val@U?$_List_simple_types@PAVCParticleInstance@@@std@@@std@@U_Iterator_base0@2@@1@0@Z
	DD	2 DUP(00H)
	DD	2 DUP(00H)
	DD	00H
	DD	01H
xdata$x	ENDS
;	COMDAT xdata$x
xdata$x	SEGMENT
__unwindtable$??$construct@V?$list@PAVCParticleInstance@@V?$allocator@PAVCParticleInstance@@@std@@@std@@AAV12@@?$_Default_allocator_traits@V?$allocator@V?$list@PAVCParticleInstance@@V?$allocator@PAVCParticleInstance@@@std@@@std@@@std@@@std@@SAXAAV?$allocator@V?$list@PAVCParticleInstance@@V?$allocator@PAVCParticleInstance@@@std@@@std@@@1@QAV?$list@PAVCParticleInstance@@V?$allocator@PAVCParticleInstance@@@std@@@1@AAV31@@Z DD 0ffffffffH
	DD	FLAT:__unwindfunclet$??$construct@V?$list@PAVCParticleInstance@@V?$allocator@PAVCParticleInstance@@@std@@@std@@AAV12@@?$_Default_allocator_traits@V?$allocator@V?$list@PAVCParticleInstance@@V?$allocator@PAVCParticleInstance@@@std@@@std@@@std@@@std@@SAXAAV?$allocator@V?$list@PAVCParticleInstance@@V?$allocator@PAVCParticleInstance@@@std@@@std@@@1@QAV?$list@PAVCParticleInstance@@V?$allocator@PAVCParticleInstance@@@std@@@1@AAV31@@Z$0
	DD	00H
	DD	FLAT:__unwindfunclet$??$construct@V?$list@PAVCParticleInstance@@V?$allocator@PAVCParticleInstance@@@std@@@std@@AAV12@@?$_Default_allocator_traits@V?$allocator@V?$list@PAVCParticleInstance@@V?$allocator@PAVCParticleInstance@@@std@@@std@@@std@@@std@@SAXAAV?$allocator@V?$list@PAVCParticleInstance@@V?$allocator@PAVCParticleInstance@@@std@@@std@@@1@QAV?$list@PAVCParticleInstance@@V?$allocator@PAVCParticleInstance@@@std@@@1@AAV31@@Z$1
	DD	00H
	DD	FLAT:__unwindfunclet$??$construct@V?$list@PAVCParticleInstance@@V?$allocator@PAVCParticleInstance@@@std@@@std@@AAV12@@?$_Default_allocator_traits@V?$allocator@V?$list@PAVCParticleInstance@@V?$allocator@PAVCParticleInstance@@@std@@@std@@@std@@@std@@SAXAAV?$allocator@V?$list@PAVCParticleInstance@@V?$allocator@PAVCParticleInstance@@@std@@@std@@@1@QAV?$list@PAVCParticleInstance@@V?$allocator@PAVCParticleInstance@@@std@@@1@AAV31@@Z$2
__ehfuncinfo$??$construct@V?$list@PAVCParticleInstance@@V?$allocator@PAVCParticleInstance@@@std@@@std@@AAV12@@?$_Default_allocator_traits@V?$allocator@V?$list@PAVCParticleInstance@@V?$allocator@PAVCParticleInstance@@@std@@@std@@@std@@@std@@SAXAAV?$allocator@V?$list@PAVCParticleInstance@@V?$allocator@PAVCParticleInstance@@@std@@@std@@@1@QAV?$list@PAVCParticleInstance@@V?$allocator@PAVCParticleInstance@@@std@@@1@AAV31@@Z DD 019930522H
	DD	03H
	DD	FLAT:__unwindtable$??$construct@V?$list@PAVCParticleInstance@@V?$allocator@PAVCParticleInstance@@@std@@@std@@AAV12@@?$_Default_allocator_traits@V?$allocator@V?$list@PAVCParticleInstance@@V?$allocator@PAVCParticleInstance@@@std@@@std@@@std@@@std@@SAXAAV?$allocator@V?$list@PAVCParticleInstance@@V?$allocator@PAVCParticleInstance@@@std@@@std@@@1@QAV?$list@PAVCParticleInstance@@V?$allocator@PAVCParticleInstance@@@std@@@1@AAV31@@Z
	DD	2 DUP(00H)
	DD	2 DUP(00H)
	DD	00H
	DD	01H
xdata$x	ENDS
;	COMDAT xdata$x
xdata$x	SEGMENT
__unwindtable$??$_Emplace_back@AAV?$list@PAVCParticleInstance@@V?$allocator@PAVCParticleInstance@@@std@@@std@@@?$_Uninitialized_backout_al@V?$allocator@V?$list@PAVCParticleInstance@@V?$allocator@PAVCParticleInstance@@@std@@@std@@@std@@@std@@QAEXAAV?$list@PAVCParticleInstance@@V?$allocator@PAVCParticleInstance@@@std@@@1@@Z DD 0ffffffffH
	DD	FLAT:__unwindfunclet$??$_Emplace_back@AAV?$list@PAVCParticleInstance@@V?$allocator@PAVCParticleInstance@@@std@@@std@@@?$_Uninitialized_backout_al@V?$allocator@V?$list@PAVCParticleInstance@@V?$allocator@PAVCParticleInstance@@@std@@@std@@@std@@@std@@QAEXAAV?$list@PAVCParticleInstance@@V?$allocator@PAVCParticleInstance@@@std@@@1@@Z$0
	DD	00H
	DD	FLAT:__unwindfunclet$??$_Emplace_back@AAV?$list@PAVCParticleInstance@@V?$allocator@PAVCParticleInstance@@@std@@@std@@@?$_Uninitialized_backout_al@V?$allocator@V?$list@PAVCParticleInstance@@V?$allocator@PAVCParticleInstance@@@std@@@std@@@std@@@std@@QAEXAAV?$list@PAVCParticleInstance@@V?$allocator@PAVCParticleInstance@@@std@@@1@@Z$1
	DD	00H
	DD	FLAT:__unwindfunclet$??$_Emplace_back@AAV?$list@PAVCParticleInstance@@V?$allocator@PAVCParticleInstance@@@std@@@std@@@?$_Uninitialized_backout_al@V?$allocator@V?$list@PAVCParticleInstance@@V?$allocator@PAVCParticleInstance@@@std@@@std@@@std@@@std@@QAEXAAV?$list@PAVCParticleInstance@@V?$allocator@PAVCParticleInstance@@@std@@@1@@Z$2
__ehfuncinfo$??$_Emplace_back@AAV?$list@PAVCParticleInstance@@V?$allocator@PAVCParticleInstance@@@std@@@std@@@?$_Uninitialized_backout_al@V?$allocator@V?$list@PAVCParticleInstance@@V?$allocator@PAVCParticleInstance@@@std@@@std@@@std@@@std@@QAEXAAV?$list@PAVCParticleInstance@@V?$allocator@PAVCParticleInstance@@@std@@@1@@Z DD 019930522H
	DD	03H
	DD	FLAT:__unwindtable$??$_Emplace_back@AAV?$list@PAVCParticleInstance@@V?$allocator@PAVCParticleInstance@@@std@@@std@@@?$_Uninitialized_backout_al@V?$allocator@V?$list@PAVCParticleInstance@@V?$allocator@PAVCParticleInstance@@@std@@@std@@@std@@@std@@QAEXAAV?$list@PAVCParticleInstance@@V?$allocator@PAVCParticleInstance@@@std@@@1@@Z
	DD	2 DUP(00H)
	DD	2 DUP(00H)
	DD	00H
	DD	01H
xdata$x	ENDS
;	COMDAT xdata$x
xdata$x	SEGMENT
__unwindtable$??$_Uninitialized_copy@PAV?$list@PAVCParticleInstance@@V?$allocator@PAVCParticleInstance@@@std@@@std@@V?$allocator@V?$list@PAVCParticleInstance@@V?$allocator@PAVCParticleInstance@@@std@@@std@@@2@@std@@YAPAV?$list@PAVCParticleInstance@@V?$allocator@PAVCParticleInstance@@@std@@@0@QAV10@0PAV10@AAV?$allocator@V?$list@PAVCParticleInstance@@V?$allocator@PAVCParticleInstance@@@std@@@std@@@0@@Z DD 0ffffffffH
	DD	FLAT:__unwindfunclet$??$_Uninitialized_copy@PAV?$list@PAVCParticleInstance@@V?$allocator@PAVCParticleInstance@@@std@@@std@@V?$allocator@V?$list@PAVCParticleInstance@@V?$allocator@PAVCParticleInstance@@@std@@@std@@@2@@std@@YAPAV?$list@PAVCParticleInstance@@V?$allocator@PAVCParticleInstance@@@std@@@0@QAV10@0PAV10@AAV?$allocator@V?$list@PAVCParticleInstance@@V?$allocator@PAVCParticleInstance@@@std@@@std@@@0@@Z$0
	DD	00H
	DD	FLAT:__unwindfunclet$??$_Uninitialized_copy@PAV?$list@PAVCParticleInstance@@V?$allocator@PAVCParticleInstance@@@std@@@std@@V?$allocator@V?$list@PAVCParticleInstance@@V?$allocator@PAVCParticleInstance@@@std@@@std@@@2@@std@@YAPAV?$list@PAVCParticleInstance@@V?$allocator@PAVCParticleInstance@@@std@@@0@QAV10@0PAV10@AAV?$allocator@V?$list@PAVCParticleInstance@@V?$allocator@PAVCParticleInstance@@@std@@@std@@@0@@Z$1
	DD	01H
	DD	FLAT:__unwindfunclet$??$_Uninitialized_copy@PAV?$list@PAVCParticleInstance@@V?$allocator@PAVCParticleInstance@@@std@@@std@@V?$allocator@V?$list@PAVCParticleInstance@@V?$allocator@PAVCParticleInstance@@@std@@@std@@@2@@std@@YAPAV?$list@PAVCParticleInstance@@V?$allocator@PAVCParticleInstance@@@std@@@0@QAV10@0PAV10@AAV?$allocator@V?$list@PAVCParticleInstance@@V?$allocator@PAVCParticleInstance@@@std@@@std@@@0@@Z$2
	DD	01H
	DD	FLAT:__unwindfunclet$??$_Uninitialized_copy@PAV?$list@PAVCParticleInstance@@V?$allocator@PAVCParticleInstance@@@std@@@std@@V?$allocator@V?$list@PAVCParticleInstance@@V?$allocator@PAVCParticleInstance@@@std@@@std@@@2@@std@@YAPAV?$list@PAVCParticleInstance@@V?$allocator@PAVCParticleInstance@@@std@@@0@QAV10@0PAV10@AAV?$allocator@V?$list@PAVCParticleInstance@@V?$allocator@PAVCParticleInstance@@@std@@@std@@@0@@Z$3
__ehfuncinfo$??$_Uninitialized_copy@PAV?$list@PAVCParticleInstance@@V?$allocator@PAVCParticleInstance@@@std@@@std@@V?$allocator@V?$list@PAVCParticleInstance@@V?$allocator@PAVCParticleInstance@@@std@@@std@@@2@@std@@YAPAV?$list@PAVCParticleInstance@@V?$allocator@PAVCParticleInstance@@@std@@@0@QAV10@0PAV10@AAV?$allocator@V?$list@PAVCParticleInstance@@V?$allocator@PAVCParticleInstance@@@std@@@std@@@0@@Z DD 019930522H
	DD	04H
	DD	FLAT:__unwindtable$??$_Uninitialized_copy@PAV?$list@PAVCParticleInstance@@V?$allocator@PAVCParticleInstance@@@std@@@std@@V?$allocator@V?$list@PAVCParticleInstance@@V?$allocator@PAVCParticleInstance@@@std@@@std@@@2@@std@@YAPAV?$list@PAVCParticleInstance@@V?$allocator@PAVCParticleInstance@@@std@@@0@QAV10@0PAV10@AAV?$allocator@V?$list@PAVCParticleInstance@@V?$allocator@PAVCParticleInstance@@@std@@@std@@@0@@Z
	DD	2 DUP(00H)
	DD	2 DUP(00H)
	DD	00H
	DD	01H
xdata$x	ENDS
;	COMDAT xdata$x
xdata$x	SEGMENT
__unwindtable$??$_Uninitialized_value_construct_n@V?$allocator@V?$list@PAVCParticleInstance@@V?$allocator@PAVCParticleInstance@@@std@@@std@@@std@@@std@@YAPAV?$list@PAVCParticleInstance@@V?$allocator@PAVCParticleInstance@@@std@@@0@PAV10@IAAV?$allocator@V?$list@PAVCParticleInstance@@V?$allocator@PAVCParticleInstance@@@std@@@std@@@0@@Z DD 0ffffffffH
	DD	FLAT:__unwindfunclet$??$_Uninitialized_value_construct_n@V?$allocator@V?$list@PAVCParticleInstance@@V?$allocator@PAVCParticleInstance@@@std@@@std@@@std@@@std@@YAPAV?$list@PAVCParticleInstance@@V?$allocator@PAVCParticleInstance@@@std@@@0@PAV10@IAAV?$allocator@V?$list@PAVCParticleInstance@@V?$allocator@PAVCParticleInstance@@@std@@@std@@@0@@Z$0
__ehfuncinfo$??$_Uninitialized_value_construct_n@V?$allocator@V?$list@PAVCParticleInstance@@V?$allocator@PAVCParticleInstance@@@std@@@std@@@std@@@std@@YAPAV?$list@PAVCParticleInstance@@V?$allocator@PAVCParticleInstance@@@std@@@0@PAV10@IAAV?$allocator@V?$list@PAVCParticleInstance@@V?$allocator@PAVCParticleInstance@@@std@@@std@@@0@@Z DD 019930522H
	DD	01H
	DD	FLAT:__unwindtable$??$_Uninitialized_value_construct_n@V?$allocator@V?$list@PAVCParticleInstance@@V?$allocator@PAVCParticleInstance@@@std@@@std@@@std@@@std@@YAPAV?$list@PAVCParticleInstance@@V?$allocator@PAVCParticleInstance@@@std@@@0@PAV10@IAAV?$allocator@V?$list@PAVCParticleInstance@@V?$allocator@PAVCParticleInstance@@@std@@@std@@@0@@Z
	DD	2 DUP(00H)
	DD	2 DUP(00H)
	DD	00H
	DD	01H
xdata$x	ENDS
;	COMDAT xdata$x
xdata$x	SEGMENT
__catchsym$??$_Resize_reallocate@U_Value_init_tag@std@@@?$vector@V?$list@PAVCParticleInstance@@V?$allocator@PAVCParticleInstance@@@std@@@std@@V?$allocator@V?$list@PAVCParticleInstance@@V?$allocator@PAVCParticleInstance@@@std@@@std@@@2@@std@@AAEXIABU_Value_init_tag@1@@Z$6 DD 040H
	DD	00H
	DD	00H
	DD	FLAT:__catch$??$_Resize_reallocate@U_Value_init_tag@std@@@?$vector@V?$list@PAVCParticleInstance@@V?$allocator@PAVCParticleInstance@@@std@@@std@@V?$allocator@V?$list@PAVCParticleInstance@@V?$allocator@PAVCParticleInstance@@@std@@@std@@@2@@std@@AAEXIABU_Value_init_tag@1@@Z$0
__tryblocktable$??$_Resize_reallocate@U_Value_init_tag@std@@@?$vector@V?$list@PAVCParticleInstance@@V?$allocator@PAVCParticleInstance@@@std@@@std@@V?$allocator@V?$list@PAVCParticleInstance@@V?$allocator@PAVCParticleInstance@@@std@@@std@@@2@@std@@AAEXIABU_Value_init_tag@1@@Z DD 00H
	DD	04H
	DD	05H
	DD	01H
	DD	FLAT:__catchsym$??$_Resize_reallocate@U_Value_init_tag@std@@@?$vector@V?$list@PAVCParticleInstance@@V?$allocator@PAVCParticleInstance@@@std@@@std@@V?$allocator@V?$list@PAVCParticleInstance@@V?$allocator@PAVCParticleInstance@@@std@@@std@@@2@@std@@AAEXIABU_Value_init_tag@1@@Z$6
__ehfuncinfo$??$_Resize_reallocate@U_Value_init_tag@std@@@?$vector@V?$list@PAVCParticleInstance@@V?$allocator@PAVCParticleInstance@@@std@@@std@@V?$allocator@V?$list@PAVCParticleInstance@@V?$allocator@PAVCParticleInstance@@@std@@@std@@@2@@std@@AAEXIABU_Value_init_tag@1@@Z DD 019930522H
	DD	06H
	DD	FLAT:__unwindtable$??$_Resize_reallocate@U_Value_init_tag@std@@@?$vector@V?$list@PAVCParticleInstance@@V?$allocator@PAVCParticleInstance@@@std@@@std@@V?$allocator@V?$list@PAVCParticleInstance@@V?$allocator@PAVCParticleInstance@@@std@@@std@@@2@@std@@AAEXIABU_Value_init_tag@1@@Z
	DD	01H
	DD	FLAT:__tryblocktable$??$_Resize_reallocate@U_Value_init_tag@std@@@?$vector@V?$list@PAVCParticleInstance@@V?$allocator@PAVCParticleInstance@@@std@@@std@@V?$allocator@V?$list@PAVCParticleInstance@@V?$allocator@PAVCParticleInstance@@@std@@@std@@@2@@std@@AAEXIABU_Value_init_tag@1@@Z
	DD	2 DUP(00H)
	DD	00H
	DD	01H
__unwindtable$??$_Resize_reallocate@U_Value_init_tag@std@@@?$vector@V?$list@PAVCParticleInstance@@V?$allocator@PAVCParticleInstance@@@std@@@std@@V?$allocator@V?$list@PAVCParticleInstance@@V?$allocator@PAVCParticleInstance@@@std@@@std@@@2@@std@@AAEXIABU_Value_init_tag@1@@Z DD 0ffffffffH
	DD	00H
	DD	00H
	DD	FLAT:__unwindfunclet$??$_Resize_reallocate@U_Value_init_tag@std@@@?$vector@V?$list@PAVCParticleInstance@@V?$allocator@PAVCParticleInstance@@@std@@@std@@V?$allocator@V?$list@PAVCParticleInstance@@V?$allocator@PAVCParticleInstance@@@std@@@std@@@2@@std@@AAEXIABU_Value_init_tag@1@@Z$2
	DD	01H
	DD	FLAT:__unwindfunclet$??$_Resize_reallocate@U_Value_init_tag@std@@@?$vector@V?$list@PAVCParticleInstance@@V?$allocator@PAVCParticleInstance@@@std@@@std@@V?$allocator@V?$list@PAVCParticleInstance@@V?$allocator@PAVCParticleInstance@@@std@@@std@@@2@@std@@AAEXIABU_Value_init_tag@1@@Z$3
	DD	02H
	DD	FLAT:__unwindfunclet$??$_Resize_reallocate@U_Value_init_tag@std@@@?$vector@V?$list@PAVCParticleInstance@@V?$allocator@PAVCParticleInstance@@@std@@@std@@V?$allocator@V?$list@PAVCParticleInstance@@V?$allocator@PAVCParticleInstance@@@std@@@std@@@2@@std@@AAEXIABU_Value_init_tag@1@@Z$4
	DD	02H
	DD	FLAT:__unwindfunclet$??$_Resize_reallocate@U_Value_init_tag@std@@@?$vector@V?$list@PAVCParticleInstance@@V?$allocator@PAVCParticleInstance@@@std@@@std@@V?$allocator@V?$list@PAVCParticleInstance@@V?$allocator@PAVCParticleInstance@@@std@@@std@@@2@@std@@AAEXIABU_Value_init_tag@1@@Z$5
	DD	0ffffffffH
	DD	00H
xdata$x	ENDS
;	COMDAT xdata$x
xdata$x	SEGMENT
__unwindtable$??$?0ABQAVCParticleInstance@@@?$_List_node_emplace_op2@V?$allocator@U?$_List_node@PAVCParticleInstance@@PAX@std@@@std@@@std@@QAE@AAV?$allocator@U?$_List_node@PAVCParticleInstance@@PAX@std@@@1@ABQAVCParticleInstance@@@Z DD 0ffffffffH
	DD	FLAT:__unwindfunclet$??$?0ABQAVCParticleInstance@@@?$_List_node_emplace_op2@V?$allocator@U?$_List_node@PAVCParticleInstance@@PAX@std@@@std@@@std@@QAE@AAV?$allocator@U?$_List_node@PAVCParticleInstance@@PAX@std@@@1@ABQAVCParticleInstance@@@Z$0
__ehfuncinfo$??$?0ABQAVCParticleInstance@@@?$_List_node_emplace_op2@V?$allocator@U?$_List_node@PAVCParticleInstance@@PAX@std@@@std@@@std@@QAE@AAV?$allocator@U?$_List_node@PAVCParticleInstance@@PAX@std@@@1@ABQAVCParticleInstance@@@Z DD 019930522H
	DD	01H
	DD	FLAT:__unwindtable$??$?0ABQAVCParticleInstance@@@?$_List_node_emplace_op2@V?$allocator@U?$_List_node@PAVCParticleInstance@@PAX@std@@@std@@@std@@QAE@AAV?$allocator@U?$_List_node@PAVCParticleInstance@@PAX@std@@@1@ABQAVCParticleInstance@@@Z
	DD	2 DUP(00H)
	DD	2 DUP(00H)
	DD	00H
	DD	01H
xdata$x	ENDS
;	COMDAT xdata$x
xdata$x	SEGMENT
__unwindtable$??$_Emplace@ABQAVCParticleInstance@@@?$list@PAVCParticleInstance@@V?$allocator@PAVCParticleInstance@@@std@@@std@@QAEPAU?$_List_node@PAVCParticleInstance@@PAX@1@QAU21@ABQAVCParticleInstance@@@Z DD 0ffffffffH
	DD	FLAT:__unwindfunclet$??$_Emplace@ABQAVCParticleInstance@@@?$list@PAVCParticleInstance@@V?$allocator@PAVCParticleInstance@@@std@@@std@@QAEPAU?$_List_node@PAVCParticleInstance@@PAX@1@QAU21@ABQAVCParticleInstance@@@Z$1
__ehfuncinfo$??$_Emplace@ABQAVCParticleInstance@@@?$list@PAVCParticleInstance@@V?$allocator@PAVCParticleInstance@@@std@@@std@@QAEPAU?$_List_node@PAVCParticleInstance@@PAX@1@QAU21@ABQAVCParticleInstance@@@Z DD 019930522H
	DD	01H
	DD	FLAT:__unwindtable$??$_Emplace@ABQAVCParticleInstance@@@?$list@PAVCParticleInstance@@V?$allocator@PAVCParticleInstance@@@std@@@std@@QAEPAU?$_List_node@PAVCParticleInstance@@PAX@1@QAU21@ABQAVCParticleInstance@@@Z
	DD	2 DUP(00H)
	DD	2 DUP(00H)
	DD	00H
	DD	01H
xdata$x	ENDS
;	COMDAT xdata$x
xdata$x	SEGMENT
__unwindtable$?push_back@?$list@PAVCParticleInstance@@V?$allocator@PAVCParticleInstance@@@std@@@std@@QAEXABQAVCParticleInstance@@@Z DD 0ffffffffH
	DD	FLAT:__unwindfunclet$?push_back@?$list@PAVCParticleInstance@@V?$allocator@PAVCParticleInstance@@@std@@@std@@QAEXABQAVCParticleInstance@@@Z$1
__ehfuncinfo$?push_back@?$list@PAVCParticleInstance@@V?$allocator@PAVCParticleInstance@@@std@@@std@@QAEXABQAVCParticleInstance@@@Z DD 019930522H
	DD	01H
	DD	FLAT:__unwindtable$?push_back@?$list@PAVCParticleInstance@@V?$allocator@PAVCParticleInstance@@@std@@@std@@QAEXABQAVCParticleInstance@@@Z
	DD	2 DUP(00H)
	DD	2 DUP(00H)
	DD	00H
	DD	01H
xdata$x	ENDS
;	COMDAT xdata$x
xdata$x	SEGMENT
__unwindtable$??0?$list@PAVCParticleInstance@@V?$allocator@PAVCParticleInstance@@@std@@@std@@QAE@ABV01@@Z DD 0ffffffffH
	DD	FLAT:__unwindfunclet$??0?$list@PAVCParticleInstance@@V?$allocator@PAVCParticleInstance@@@std@@@std@@QAE@ABV01@@Z$0
	DD	00H
	DD	FLAT:__unwindfunclet$??0?$list@PAVCParticleInstance@@V?$allocator@PAVCParticleInstance@@@std@@@std@@QAE@ABV01@@Z$1
	DD	00H
	DD	FLAT:__unwindfunclet$??0?$list@PAVCParticleInstance@@V?$allocator@PAVCParticleInstance@@@std@@@std@@QAE@ABV01@@Z$2
__ehfuncinfo$??0?$list@PAVCParticleInstance@@V?$allocator@PAVCParticleInstance@@@std@@@std@@QAE@ABV01@@Z DD 019930522H
	DD	03H
	DD	FLAT:__unwindtable$??0?$list@PAVCParticleInstance@@V?$allocator@PAVCParticleInstance@@@std@@@std@@QAE@ABV01@@Z
	DD	2 DUP(00H)
	DD	2 DUP(00H)
	DD	00H
	DD	01H
xdata$x	ENDS
;	COMDAT xdata$x
xdata$x	SEGMENT
__unwindtable$?Alloc@?$CDynamicPool@VCParticleSystemInstance@@@@QAEPAVCParticleSystemInstance@@XZ DD 0ffffffffH
	DD	FLAT:__unwindfunclet$?Alloc@?$CDynamicPool@VCParticleSystemInstance@@@@QAEPAVCParticleSystemInstance@@XZ$0
__ehfuncinfo$?Alloc@?$CDynamicPool@VCParticleSystemInstance@@@@QAEPAVCParticleSystemInstance@@XZ DD 019930522H
	DD	01H
	DD	FLAT:__unwindtable$?Alloc@?$CDynamicPool@VCParticleSystemInstance@@@@QAEPAVCParticleSystemInstance@@XZ
	DD	2 DUP(00H)
	DD	2 DUP(00H)
	DD	00H
	DD	01H
xdata$x	ENDS
;	COMDAT xdata$x
xdata$x	SEGMENT
__unwindtable$?_Umove_if_noexcept@?$vector@V?$list@PAVCParticleInstance@@V?$allocator@PAVCParticleInstance@@@std@@@std@@V?$allocator@V?$list@PAVCParticleInstance@@V?$allocator@PAVCParticleInstance@@@std@@@std@@@2@@std@@AAEXPAV?$list@PAVCParticleInstance@@V?$allocator@PAVCParticleInstance@@@std@@@2@00@Z DD 0ffffffffH
	DD	FLAT:__unwindfunclet$?_Umove_if_noexcept@?$vector@V?$list@PAVCParticleInstance@@V?$allocator@PAVCParticleInstance@@@std@@@std@@V?$allocator@V?$list@PAVCParticleInstance@@V?$allocator@PAVCParticleInstance@@@std@@@std@@@2@@std@@AAEXPAV?$list@PAVCParticleInstance@@V?$allocator@PAVCParticleInstance@@@std@@@2@00@Z$0
	DD	00H
	DD	FLAT:__unwindfunclet$?_Umove_if_noexcept@?$vector@V?$list@PAVCParticleInstance@@V?$allocator@PAVCParticleInstance@@@std@@@std@@V?$allocator@V?$list@PAVCParticleInstance@@V?$allocator@PAVCParticleInstance@@@std@@@std@@@2@@std@@AAEXPAV?$list@PAVCParticleInstance@@V?$allocator@PAVCParticleInstance@@@std@@@2@00@Z$1
	DD	01H
	DD	FLAT:__unwindfunclet$?_Umove_if_noexcept@?$vector@V?$list@PAVCParticleInstance@@V?$allocator@PAVCParticleInstance@@@std@@@std@@V?$allocator@V?$list@PAVCParticleInstance@@V?$allocator@PAVCParticleInstance@@@std@@@std@@@2@@std@@AAEXPAV?$list@PAVCParticleInstance@@V?$allocator@PAVCParticleInstance@@@std@@@2@00@Z$2
	DD	01H
	DD	FLAT:__unwindfunclet$?_Umove_if_noexcept@?$vector@V?$list@PAVCParticleInstance@@V?$allocator@PAVCParticleInstance@@@std@@@std@@V?$allocator@V?$list@PAVCParticleInstance@@V?$allocator@PAVCParticleInstance@@@std@@@std@@@2@@std@@AAEXPAV?$list@PAVCParticleInstance@@V?$allocator@PAVCParticleInstance@@@std@@@2@00@Z$3
__ehfuncinfo$?_Umove_if_noexcept@?$vector@V?$list@PAVCParticleInstance@@V?$allocator@PAVCParticleInstance@@@std@@@std@@V?$allocator@V?$list@PAVCParticleInstance@@V?$allocator@PAVCParticleInstance@@@std@@@std@@@2@@std@@AAEXPAV?$list@PAVCParticleInstance@@V?$allocator@PAVCParticleInstance@@@std@@@2@00@Z DD 019930522H
	DD	04H
	DD	FLAT:__unwindtable$?_Umove_if_noexcept@?$vector@V?$list@PAVCParticleInstance@@V?$allocator@PAVCParticleInstance@@@std@@@std@@V?$allocator@V?$list@PAVCParticleInstance@@V?$allocator@PAVCParticleInstance@@@std@@@std@@@2@@std@@AAEXPAV?$list@PAVCParticleInstance@@V?$allocator@PAVCParticleInstance@@@std@@@2@00@Z
	DD	2 DUP(00H)
	DD	2 DUP(00H)
	DD	00H
	DD	01H
xdata$x	ENDS
;	COMDAT xdata$x
xdata$x	SEGMENT
__unwindtable$?_Umove_if_noexcept1@?$vector@V?$list@PAVCParticleInstance@@V?$allocator@PAVCParticleInstance@@@std@@@std@@V?$allocator@V?$list@PAVCParticleInstance@@V?$allocator@PAVCParticleInstance@@@std@@@std@@@2@@std@@AAEXPAV?$list@PAVCParticleInstance@@V?$allocator@PAVCParticleInstance@@@std@@@2@00U?$integral_constant@_N$0A@@2@@Z DD 0ffffffffH
	DD	FLAT:__unwindfunclet$?_Umove_if_noexcept1@?$vector@V?$list@PAVCParticleInstance@@V?$allocator@PAVCParticleInstance@@@std@@@std@@V?$allocator@V?$list@PAVCParticleInstance@@V?$allocator@PAVCParticleInstance@@@std@@@std@@@2@@std@@AAEXPAV?$list@PAVCParticleInstance@@V?$allocator@PAVCParticleInstance@@@std@@@2@00U?$integral_constant@_N$0A@@2@@Z$0
	DD	00H
	DD	FLAT:__unwindfunclet$?_Umove_if_noexcept1@?$vector@V?$list@PAVCParticleInstance@@V?$allocator@PAVCParticleInstance@@@std@@@std@@V?$allocator@V?$list@PAVCParticleInstance@@V?$allocator@PAVCParticleInstance@@@std@@@std@@@2@@std@@AAEXPAV?$list@PAVCParticleInstance@@V?$allocator@PAVCParticleInstance@@@std@@@2@00U?$integral_constant@_N$0A@@2@@Z$1
	DD	01H
	DD	FLAT:__unwindfunclet$?_Umove_if_noexcept1@?$vector@V?$list@PAVCParticleInstance@@V?$allocator@PAVCParticleInstance@@@std@@@std@@V?$allocator@V?$list@PAVCParticleInstance@@V?$allocator@PAVCParticleInstance@@@std@@@std@@@2@@std@@AAEXPAV?$list@PAVCParticleInstance@@V?$allocator@PAVCParticleInstance@@@std@@@2@00U?$integral_constant@_N$0A@@2@@Z$2
	DD	01H
	DD	FLAT:__unwindfunclet$?_Umove_if_noexcept1@?$vector@V?$list@PAVCParticleInstance@@V?$allocator@PAVCParticleInstance@@@std@@@std@@V?$allocator@V?$list@PAVCParticleInstance@@V?$allocator@PAVCParticleInstance@@@std@@@std@@@2@@std@@AAEXPAV?$list@PAVCParticleInstance@@V?$allocator@PAVCParticleInstance@@@std@@@2@00U?$integral_constant@_N$0A@@2@@Z$3
__ehfuncinfo$?_Umove_if_noexcept1@?$vector@V?$list@PAVCParticleInstance@@V?$allocator@PAVCParticleInstance@@@std@@@std@@V?$allocator@V?$list@PAVCParticleInstance@@V?$allocator@PAVCParticleInstance@@@std@@@std@@@2@@std@@AAEXPAV?$list@PAVCParticleInstance@@V?$allocator@PAVCParticleInstance@@@std@@@2@00U?$integral_constant@_N$0A@@2@@Z DD 019930522H
	DD	04H
	DD	FLAT:__unwindtable$?_Umove_if_noexcept1@?$vector@V?$list@PAVCParticleInstance@@V?$allocator@PAVCParticleInstance@@@std@@@std@@V?$allocator@V?$list@PAVCParticleInstance@@V?$allocator@PAVCParticleInstance@@@std@@@std@@@2@@std@@AAEXPAV?$list@PAVCParticleInstance@@V?$allocator@PAVCParticleInstance@@@std@@@2@00U?$integral_constant@_N$0A@@2@@Z
	DD	2 DUP(00H)
	DD	2 DUP(00H)
	DD	00H
	DD	01H
xdata$x	ENDS
;	COMDAT xdata$x
xdata$x	SEGMENT
__unwindtable$?_Ufill@?$vector@V?$list@PAVCParticleInstance@@V?$allocator@PAVCParticleInstance@@@std@@@std@@V?$allocator@V?$list@PAVCParticleInstance@@V?$allocator@PAVCParticleInstance@@@std@@@std@@@2@@std@@AAEPAV?$list@PAVCParticleInstance@@V?$allocator@PAVCParticleInstance@@@std@@@2@PAV32@IU_Value_init_tag@2@@Z DD 0ffffffffH
	DD	FLAT:__unwindfunclet$?_Ufill@?$vector@V?$list@PAVCParticleInstance@@V?$allocator@PAVCParticleInstance@@@std@@@std@@V?$allocator@V?$list@PAVCParticleInstance@@V?$allocator@PAVCParticleInstance@@@std@@@std@@@2@@std@@AAEPAV?$list@PAVCParticleInstance@@V?$allocator@PAVCParticleInstance@@@std@@@2@PAV32@IU_Value_init_tag@2@@Z$0
__ehfuncinfo$?_Ufill@?$vector@V?$list@PAVCParticleInstance@@V?$allocator@PAVCParticleInstance@@@std@@@std@@V?$allocator@V?$list@PAVCParticleInstance@@V?$allocator@PAVCParticleInstance@@@std@@@std@@@2@@std@@AAEPAV?$list@PAVCParticleInstance@@V?$allocator@PAVCParticleInstance@@@std@@@2@PAV32@IU_Value_init_tag@2@@Z DD 019930522H
	DD	01H
	DD	FLAT:__unwindtable$?_Ufill@?$vector@V?$list@PAVCParticleInstance@@V?$allocator@PAVCParticleInstance@@@std@@@std@@V?$allocator@V?$list@PAVCParticleInstance@@V?$allocator@PAVCParticleInstance@@@std@@@std@@@2@@std@@AAEPAV?$list@PAVCParticleInstance@@V?$allocator@PAVCParticleInstance@@@std@@@2@PAV32@IU_Value_init_tag@2@@Z
	DD	2 DUP(00H)
	DD	2 DUP(00H)
	DD	00H
	DD	01H
xdata$x	ENDS
;	COMDAT xdata$x
xdata$x	SEGMENT
__unwindtable$?OnUpdate@CParticleSystemInstance@@MAE_NM@Z DD 0ffffffffH
	DD	FLAT:__unwindfunclet$?OnUpdate@CParticleSystemInstance@@MAE_NM@Z$1
__ehfuncinfo$?OnUpdate@CParticleSystemInstance@@MAE_NM@Z DD 019930522H
	DD	01H
	DD	FLAT:__unwindtable$?OnUpdate@CParticleSystemInstance@@MAE_NM@Z
	DD	2 DUP(00H)
	DD	2 DUP(00H)
	DD	00H
	DD	01H
xdata$x	ENDS
;	COMDAT xdata$x
xdata$x	SEGMENT
__unwindtable$?CreateParticles@CParticleSystemInstance@@QAEXM@Z DD 0ffffffffH
	DD	FLAT:__unwindfunclet$?CreateParticles@CParticleSystemInstance@@QAEXM@Z$1
__ehfuncinfo$?CreateParticles@CParticleSystemInstance@@QAEXM@Z DD 019930522H
	DD	01H
	DD	FLAT:__unwindtable$?CreateParticles@CParticleSystemInstance@@QAEXM@Z
	DD	2 DUP(00H)
	DD	2 DUP(00H)
	DD	00H
	DD	01H
xdata$x	ENDS
;	COMDAT xdata$x
xdata$x	SEGMENT
__unwindtable$??0CParticleSystemInstance@@QAE@XZ DD 0ffffffffH
	DD	FLAT:__unwindfunclet$??0CParticleSystemInstance@@QAE@XZ$0
	DD	00H
	DD	FLAT:__unwindfunclet$??0CParticleSystemInstance@@QAE@XZ$1
	DD	01H
	DD	FLAT:__unwindfunclet$??0CParticleSystemInstance@@QAE@XZ$2
__ehfuncinfo$??0CParticleSystemInstance@@QAE@XZ DD 019930522H
	DD	03H
	DD	FLAT:__unwindtable$??0CParticleSystemInstance@@QAE@XZ
	DD	2 DUP(00H)
	DD	2 DUP(00H)
	DD	00H
	DD	01H
xdata$x	ENDS
;	COMDAT xdata$x
xdata$x	SEGMENT
__unwindtable$?New@CParticleSystemInstance@@SAPAV1@XZ DD 0ffffffffH
	DD	FLAT:__unwindfunclet$?New@CParticleSystemInstance@@SAPAV1@XZ$0
__ehfuncinfo$?New@CParticleSystemInstance@@SAPAV1@XZ DD 019930522H
	DD	01H
	DD	FLAT:__unwindtable$?New@CParticleSystemInstance@@SAPAV1@XZ
	DD	2 DUP(00H)
	DD	2 DUP(00H)
	DD	00H
	DD	01H
xdata$x	ENDS
;	COMDAT CRT$XCU
CRT$XCU	SEGMENT
??ms_kPool$initializer$@?$CPooledObject@VCHeaderDecorator@NEffectUpdateDecorator@@@@1P6AXXZA@@3P6AXXZA DD FLAT:??__E?ms_kPool@?$CPooledObject@VCHeaderDecorator@NEffectUpdateDecorator@@@@1V?$CDynamicPoolEx@VCHeaderDecorator@NEffectUpdateDecorator@@@@A@@YAXXZ ; ??ms_kPool$initializer$@?$CPooledObject@VCHeaderDecorator@NEffectUpdateDecorator@@@@1P6AXXZA@@3P6AXXZA
CRT$XCU	ENDS
;	COMDAT CRT$XCU
CRT$XCU	SEGMENT
??ms_kPool$initializer$@?$CPooledObject@VCNullDecorator@NEffectUpdateDecorator@@@@1P6AXXZA@@3P6AXXZA DD FLAT:??__E?ms_kPool@?$CPooledObject@VCNullDecorator@NEffectUpdateDecorator@@@@1V?$CDynamicPoolEx@VCNullDecorator@NEffectUpdateDecorator@@@@A@@YAXXZ ; ??ms_kPool$initializer$@?$CPooledObject@VCNullDecorator@NEffectUpdateDecorator@@@@1P6AXXZA@@3P6AXXZA
CRT$XCU	ENDS
;	COMDAT CRT$XCU
CRT$XCU	SEGMENT
??ms_kPool$initializer$@?$CPooledObject@VCTextureAnimationCWDecorator@NEffectUpdateDecorator@@@@1P6AXXZA@@3P6AXXZA DD FLAT:??__E?ms_kPool@?$CPooledObject@VCTextureAnimationCWDecorator@NEffectUpdateDecorator@@@@1V?$CDynamicPoolEx@VCTextureAnimationCWDecorator@NEffectUpdateDecorator@@@@A@@YAXXZ ; ??ms_kPool$initializer$@?$CPooledObject@VCTextureAnimationCWDecorator@NEffectUpdateDecorator@@@@1P6AXXZA@@3P6AXXZA
CRT$XCU	ENDS
;	COMDAT CRT$XCU
CRT$XCU	SEGMENT
??ms_kPool$initializer$@?$CPooledObject@VCTextureAnimationCCWDecorator@NEffectUpdateDecorator@@@@1P6AXXZA@@3P6AXXZA DD FLAT:??__E?ms_kPool@?$CPooledObject@VCTextureAnimationCCWDecorator@NEffectUpdateDecorator@@@@1V?$CDynamicPoolEx@VCTextureAnimationCCWDecorator@NEffectUpdateDecorator@@@@A@@YAXXZ ; ??ms_kPool$initializer$@?$CPooledObject@VCTextureAnimationCCWDecorator@NEffectUpdateDecorator@@@@1P6AXXZA@@3P6AXXZA
CRT$XCU	ENDS
;	COMDAT CRT$XCU
CRT$XCU	SEGMENT
??ms_kPool$initializer$@?$CPooledObject@VCTextureAnimationRandomDecorator@NEffectUpdateDecorator@@@@1P6AXXZA@@3P6AXXZA DD FLAT:??__E?ms_kPool@?$CPooledObject@VCTextureAnimationRandomDecorator@NEffectUpdateDecorator@@@@1V?$CDynamicPoolEx@VCTextureAnimationRandomDecorator@NEffectUpdateDecorator@@@@A@@YAXXZ ; ??ms_kPool$initializer$@?$CPooledObject@VCTextureAnimationRandomDecorator@NEffectUpdateDecorator@@@@1P6AXXZA@@3P6AXXZA
CRT$XCU	ENDS
;	COMDAT CRT$XCU
CRT$XCU	SEGMENT
??ms_kPool$initializer$@?$CPooledObject@VCAirResistanceDecorator@NEffectUpdateDecorator@@@@1P6AXXZA@@3P6AXXZA DD FLAT:??__E?ms_kPool@?$CPooledObject@VCAirResistanceDecorator@NEffectUpdateDecorator@@@@1V?$CDynamicPoolEx@VCAirResistanceDecorator@NEffectUpdateDecorator@@@@A@@YAXXZ ; ??ms_kPool$initializer$@?$CPooledObject@VCAirResistanceDecorator@NEffectUpdateDecorator@@@@1P6AXXZA@@3P6AXXZA
CRT$XCU	ENDS
;	COMDAT CRT$XCU
CRT$XCU	SEGMENT
??ms_kPool$initializer$@?$CPooledObject@VCGravityDecorator@NEffectUpdateDecorator@@@@1P6AXXZA@@3P6AXXZA DD FLAT:??__E?ms_kPool@?$CPooledObject@VCGravityDecorator@NEffectUpdateDecorator@@@@1V?$CDynamicPoolEx@VCGravityDecorator@NEffectUpdateDecorator@@@@A@@YAXXZ ; ??ms_kPool$initializer$@?$CPooledObject@VCGravityDecorator@NEffectUpdateDecorator@@@@1P6AXXZA@@3P6AXXZA
CRT$XCU	ENDS
;	COMDAT CRT$XCU
CRT$XCU	SEGMENT
??ms_kPool$initializer$@?$CPooledObject@VCRotationDecorator@NEffectUpdateDecorator@@@@1P6AXXZA@@3P6AXXZA DD FLAT:??__E?ms_kPool@?$CPooledObject@VCRotationDecorator@NEffectUpdateDecorator@@@@1V?$CDynamicPoolEx@VCRotationDecorator@NEffectUpdateDecorator@@@@A@@YAXXZ ; ??ms_kPool$initializer$@?$CPooledObject@VCRotationDecorator@NEffectUpdateDecorator@@@@1P6AXXZA@@3P6AXXZA
CRT$XCU	ENDS
; Function compile flags: /Ogtp
; File C:\Program Files (x86)\Microsoft Visual Studio\2019\Professional\VC\Tools\MSVC\14.29.30133\include\list
; File C:\Program Files (x86)\Microsoft Visual Studio\2019\Professional\VC\Tools\MSVC\14.29.30133\include\utility
; File C:\Program Files (x86)\Microsoft Visual Studio\2019\Professional\VC\Tools\MSVC\14.29.30133\include\xmemory
; File C:\Program Files (x86)\Microsoft Visual Studio\2019\Professional\VC\Tools\MSVC\14.29.30133\include\list
;	COMDAT ??1?$_List_node_insert_op2@V?$allocator@U?$_List_node@PAVCParticleInstance@@PAX@std@@@std@@@std@@QAE@XZ
_TEXT	SEGMENT
??1?$_List_node_insert_op2@V?$allocator@U?$_List_node@PAVCParticleInstance@@PAX@std@@@std@@@std@@QAE@XZ PROC ; std::_List_node_insert_op2<std::allocator<std::_List_node<CParticleInstance *,void *> > >::~_List_node_insert_op2<std::allocator<std::_List_node<CParticleInstance *,void *> > >, COMDAT
; _this$ = ecx

; 739  :         if (_Added == 0) {

  00000	83 79 04 00	 cmp	 DWORD PTR [ecx+4], 0
  00004	74 2f		 je	 SHORT $LN3@List_node_

; 740  :             return;
; 741  :         }
; 742  : 
; 743  :         _Construct_in_place(_Head->_Prev, pointer{});

  00006	8b 41 0c	 mov	 eax, DWORD PTR [ecx+12]
  00009	56		 push	 esi
  0000a	c7 40 04 00 00
	00 00		 mov	 DWORD PTR [eax+4], 0

; 744  :         _Construct_in_place(_Tail->_Next, pointer{});

  00011	8b 41 08	 mov	 eax, DWORD PTR [ecx+8]
  00014	c7 00 00 00 00
	00		 mov	 DWORD PTR [eax], 0

; 745  :         pointer _Subject = _Head;

  0001a	8b 71 0c	 mov	 esi, DWORD PTR [ecx+12]

; 746  :         while (_Subject) {

  0001d	85 f6		 test	 esi, esi
  0001f	74 13		 je	 SHORT $LN36@List_node_
$LL2@List_node_:
; File C:\Program Files (x86)\Microsoft Visual Studio\2019\Professional\VC\Tools\MSVC\14.29.30133\include\utility

; 616  :     _Ty _Old_val = static_cast<_Ty&&>(_Val);

  00021	8b c6		 mov	 eax, esi

; 617  :     _Val         = static_cast<_Other&&>(_New_val);

  00023	8b 36		 mov	 esi, DWORD PTR [esi]
; File C:\Program Files (x86)\Microsoft Visual Studio\2019\Professional\VC\Tools\MSVC\14.29.30133\include\xmemory

; 264  :         ::operator delete(_Ptr, _Bytes);

  00025	6a 0c		 push	 12			; 0000000cH
  00027	50		 push	 eax
  00028	e8 00 00 00 00	 call	 ??3@YAXPAXI@Z		; operator delete
  0002d	83 c4 08	 add	 esp, 8
; File C:\Program Files (x86)\Microsoft Visual Studio\2019\Professional\VC\Tools\MSVC\14.29.30133\include\list

; 746  :         while (_Subject) {

  00030	85 f6		 test	 esi, esi
  00032	75 ed		 jne	 SHORT $LL2@List_node_
$LN36@List_node_:
  00034	5e		 pop	 esi
$LN3@List_node_:

; 747  :             value_type::_Freenode(_Al, _STD exchange(_Subject, _Subject->_Next));
; 748  :         }
; 749  :     }

  00035	c3		 ret	 0
??1?$_List_node_insert_op2@V?$allocator@U?$_List_node@PAVCParticleInstance@@PAX@std@@@std@@@std@@QAE@XZ ENDP ; std::_List_node_insert_op2<std::allocator<std::_List_node<CParticleInstance *,void *> > >::~_List_node_insert_op2<std::allocator<std::_List_node<CParticleInstance *,void *> > >
_TEXT	ENDS
; Function compile flags: /Ogtp
; File C:\Program Files (x86)\Microsoft Visual Studio\2019\Professional\VC\Tools\MSVC\14.29.30133\include\xmemory
;	COMDAT ??1?$_Uninitialized_backout_al@V?$allocator@V?$list@PAVCParticleInstance@@V?$allocator@PAVCParticleInstance@@@std@@@std@@@std@@@std@@QAE@XZ
_TEXT	SEGMENT
??1?$_Uninitialized_backout_al@V?$allocator@V?$list@PAVCParticleInstance@@V?$allocator@PAVCParticleInstance@@@std@@@std@@@std@@@std@@QAE@XZ PROC ; std::_Uninitialized_backout_al<std::allocator<std::list<CParticleInstance *,std::allocator<CParticleInstance *> > > >::~_Uninitialized_backout_al<std::allocator<std::list<CParticleInstance *,std::allocator<CParticleInstance *> > > >, COMDAT
; _this$ = ecx

; 1626 :         _Destroy_range(_First, _Last, _Al);

  00000	ff 71 08	 push	 DWORD PTR [ecx+8]
  00003	ff 71 04	 push	 DWORD PTR [ecx+4]
  00006	ff 31		 push	 DWORD PTR [ecx]
  00008	e8 00 00 00 00	 call	 ??$_Destroy_range@V?$allocator@V?$list@PAVCParticleInstance@@V?$allocator@PAVCParticleInstance@@@std@@@std@@@std@@@std@@YAXPAV?$list@PAVCParticleInstance@@V?$allocator@PAVCParticleInstance@@@std@@@0@QAV10@AAV?$allocator@V?$list@PAVCParticleInstance@@V?$allocator@PAVCParticleInstance@@@std@@@std@@@0@@Z ; std::_Destroy_range<std::allocator<std::list<CParticleInstance *,std::allocator<CParticleInstance *> > > >
  0000d	83 c4 0c	 add	 esp, 12			; 0000000cH

; 1627 :     }

  00010	c3		 ret	 0
??1?$_Uninitialized_backout_al@V?$allocator@V?$list@PAVCParticleInstance@@V?$allocator@PAVCParticleInstance@@@std@@@std@@@std@@@std@@QAE@XZ ENDP ; std::_Uninitialized_backout_al<std::allocator<std::list<CParticleInstance *,std::allocator<CParticleInstance *> > > >::~_Uninitialized_backout_al<std::allocator<std::list<CParticleInstance *,std::allocator<CParticleInstance *> > > >
_TEXT	ENDS
; Function compile flags: /Ogtp
; File C:\Program Files (x86)\Microsoft Visual Studio\2019\Professional\VC\Tools\MSVC\14.29.30133\include\xutility
;	COMDAT ??$_Copy_memmove@PAPAVCParticleSystemInstance@@PAPAV1@@std@@YAPAPAVCParticleSystemInstance@@PAPAV1@00@Z
_TEXT	SEGMENT
__First$ = 8						; size = 4
__Last$ = 12						; size = 4
__Dest$ = 16						; size = 4
??$_Copy_memmove@PAPAVCParticleSystemInstance@@PAPAV1@@std@@YAPAPAVCParticleSystemInstance@@PAPAV1@00@Z PROC ; std::_Copy_memmove<CParticleSystemInstance * *,CParticleSystemInstance * *>, COMDAT

; 4159 : _OutCtgIt _Copy_memmove(_CtgIt _First, _CtgIt _Last, _OutCtgIt _Dest) {

  00000	55		 push	 ebp
  00001	8b ec		 mov	 ebp, esp

; 4160 :     auto _FirstPtr              = _To_address(_First);
; 4161 :     auto _LastPtr               = _To_address(_Last);
; 4162 :     auto _DestPtr               = _To_address(_Dest);
; 4163 :     const char* const _First_ch = const_cast<const char*>(reinterpret_cast<const volatile char*>(_FirstPtr));
; 4164 :     const char* const _Last_ch  = const_cast<const char*>(reinterpret_cast<const volatile char*>(_LastPtr));
; 4165 :     char* const _Dest_ch        = const_cast<char*>(reinterpret_cast<const volatile char*>(_DestPtr));
; 4166 :     const auto _Count           = static_cast<size_t>(_Last_ch - _First_ch);

  00003	8b 45 08	 mov	 eax, DWORD PTR __First$[ebp]
  00006	56		 push	 esi

; 4167 :     _CSTD memmove(_Dest_ch, _First_ch, _Count);

  00007	8b 75 10	 mov	 esi, DWORD PTR __Dest$[ebp]
  0000a	57		 push	 edi
  0000b	8b 7d 0c	 mov	 edi, DWORD PTR __Last$[ebp]
  0000e	2b f8		 sub	 edi, eax
  00010	57		 push	 edi
  00011	50		 push	 eax
  00012	56		 push	 esi
  00013	e8 00 00 00 00	 call	 _memmove
  00018	83 c4 0c	 add	 esp, 12			; 0000000cH

; 4168 :     if constexpr (is_pointer_v<_OutCtgIt>) {
; 4169 :         return reinterpret_cast<_OutCtgIt>(_Dest_ch + _Count);

  0001b	8d 04 37	 lea	 eax, DWORD PTR [edi+esi]
  0001e	5f		 pop	 edi
  0001f	5e		 pop	 esi

; 4170 :     } else {
; 4171 :         return _Dest + (_LastPtr - _FirstPtr);
; 4172 :     }
; 4173 : }

  00020	5d		 pop	 ebp
  00021	c3		 ret	 0
??$_Copy_memmove@PAPAVCParticleSystemInstance@@PAPAV1@@std@@YAPAPAVCParticleSystemInstance@@PAPAV1@00@Z ENDP ; std::_Copy_memmove<CParticleSystemInstance * *,CParticleSystemInstance * *>
_TEXT	ENDS
; Function compile flags: /Ogtp
; File C:\Program Files (x86)\Microsoft Visual Studio\2019\Professional\VC\Tools\MSVC\14.29.30133\include\xutility
;	COMDAT ??$_Copy_memmove@PAPAVCGraphicImageInstance@@PAPAV1@@std@@YAPAPAVCGraphicImageInstance@@PAPAV1@00@Z
_TEXT	SEGMENT
__First$ = 8						; size = 4
__Last$ = 12						; size = 4
__Dest$ = 16						; size = 4
??$_Copy_memmove@PAPAVCGraphicImageInstance@@PAPAV1@@std@@YAPAPAVCGraphicImageInstance@@PAPAV1@00@Z PROC ; std::_Copy_memmove<CGraphicImageInstance * *,CGraphicImageInstance * *>, COMDAT

; 4159 : _OutCtgIt _Copy_memmove(_CtgIt _First, _CtgIt _Last, _OutCtgIt _Dest) {

  00000	55		 push	 ebp
  00001	8b ec		 mov	 ebp, esp

; 4160 :     auto _FirstPtr              = _To_address(_First);
; 4161 :     auto _LastPtr               = _To_address(_Last);
; 4162 :     auto _DestPtr               = _To_address(_Dest);
; 4163 :     const char* const _First_ch = const_cast<const char*>(reinterpret_cast<const volatile char*>(_FirstPtr));
; 4164 :     const char* const _Last_ch  = const_cast<const char*>(reinterpret_cast<const volatile char*>(_LastPtr));
; 4165 :     char* const _Dest_ch        = const_cast<char*>(reinterpret_cast<const volatile char*>(_DestPtr));
; 4166 :     const auto _Count           = static_cast<size_t>(_Last_ch - _First_ch);

  00003	8b 45 08	 mov	 eax, DWORD PTR __First$[ebp]
  00006	56		 push	 esi

; 4167 :     _CSTD memmove(_Dest_ch, _First_ch, _Count);

  00007	8b 75 10	 mov	 esi, DWORD PTR __Dest$[ebp]
  0000a	57		 push	 edi
  0000b	8b 7d 0c	 mov	 edi, DWORD PTR __Last$[ebp]
  0000e	2b f8		 sub	 edi, eax
  00010	57		 push	 edi
  00011	50		 push	 eax
  00012	56		 push	 esi
  00013	e8 00 00 00 00	 call	 _memmove
  00018	83 c4 0c	 add	 esp, 12			; 0000000cH

; 4168 :     if constexpr (is_pointer_v<_OutCtgIt>) {
; 4169 :         return reinterpret_cast<_OutCtgIt>(_Dest_ch + _Count);

  0001b	8d 04 37	 lea	 eax, DWORD PTR [edi+esi]
  0001e	5f		 pop	 edi
  0001f	5e		 pop	 esi

; 4170 :     } else {
; 4171 :         return _Dest + (_LastPtr - _FirstPtr);
; 4172 :     }
; 4173 : }

  00020	5d		 pop	 ebp
  00021	c3		 ret	 0
??$_Copy_memmove@PAPAVCGraphicImageInstance@@PAPAV1@@std@@YAPAPAVCGraphicImageInstance@@PAPAV1@00@Z ENDP ; std::_Copy_memmove<CGraphicImageInstance * *,CGraphicImageInstance * *>
_TEXT	ENDS
; Function compile flags: /Ogtp
; File C:\Program Files (x86)\Microsoft Visual Studio\2019\Professional\VC\Tools\MSVC\14.29.30133\include\vector
; File C:\Program Files (x86)\Microsoft Visual Studio\2019\Professional\VC\Tools\MSVC\14.29.30133\include\xmemory
; File C:\Program Files (x86)\Microsoft Visual Studio\2019\Professional\VC\Tools\MSVC\14.29.30133\include\vector
; File C:\Program Files (x86)\Microsoft Visual Studio\2019\Professional\VC\Tools\MSVC\14.29.30133\include\xmemory
; File C:\Program Files (x86)\Microsoft Visual Studio\2019\Professional\VC\Tools\MSVC\14.29.30133\include\vector
; File C:\Program Files (x86)\Microsoft Visual Studio\2019\Professional\VC\Tools\MSVC\14.29.30133\include\xmemory
; File C:\Program Files (x86)\Microsoft Visual Studio\2019\Professional\VC\Tools\MSVC\14.29.30133\include\vector
; File C:\Program Files (x86)\Microsoft Visual Studio\2019\Professional\VC\Tools\MSVC\14.29.30133\include\xmemory
; File C:\Program Files (x86)\Microsoft Visual Studio\2019\Professional\VC\Tools\MSVC\14.29.30133\include\vector
; File C:\Program Files (x86)\Microsoft Visual Studio\2019\Professional\VC\Tools\MSVC\14.29.30133\include\xmemory
; File C:\Program Files (x86)\Microsoft Visual Studio\2019\Professional\VC\Tools\MSVC\14.29.30133\include\vector
; File C:\Program Files (x86)\Microsoft Visual Studio\2019\Professional\VC\Tools\MSVC\14.29.30133\include\xmemory
; File C:\Program Files (x86)\Microsoft Visual Studio\2019\Professional\VC\Tools\MSVC\14.29.30133\include\vector
; File C:\Program Files (x86)\Microsoft Visual Studio\2019\Professional\VC\Tools\MSVC\14.29.30133\include\xmemory
; File C:\Program Files (x86)\Microsoft Visual Studio\2019\Professional\VC\Tools\MSVC\14.29.30133\include\list
; File C:\Program Files (x86)\Microsoft Visual Studio\2019\Professional\VC\Tools\MSVC\14.29.30133\include\xmemory
; File C:\Program Files (x86)\Microsoft Visual Studio\2019\Professional\VC\Tools\MSVC\14.29.30133\include\list
; File C:\Program Files (x86)\Microsoft Visual Studio\2019\Professional\VC\Tools\MSVC\14.29.30133\include\xmemory
; File C:\Program Files (x86)\Microsoft Visual Studio\2019\Professional\VC\Tools\MSVC\14.29.30133\include\list
; File C:\Program Files (x86)\Microsoft Visual Studio\2019\Professional\VC\Tools\MSVC\14.29.30133\include\xmemory
; File C:\Program Files (x86)\Microsoft Visual Studio\2019\Professional\VC\Tools\MSVC\14.29.30133\include\list
; File C:\Program Files (x86)\Microsoft Visual Studio\2019\Professional\VC\Tools\MSVC\14.29.30133\include\xmemory
; File C:\Program Files (x86)\Microsoft Visual Studio\2019\Professional\VC\Tools\MSVC\14.29.30133\include\list
; File C:\Program Files (x86)\Microsoft Visual Studio\2019\Professional\VC\Tools\MSVC\14.29.30133\include\xmemory
; File C:\Program Files (x86)\Microsoft Visual Studio\2019\Professional\VC\Tools\MSVC\14.29.30133\include\list
; File C:\Program Files (x86)\Microsoft Visual Studio\2019\Professional\VC\Tools\MSVC\14.29.30133\include\xmemory
; File C:\Program Files (x86)\Microsoft Visual Studio\2019\Professional\VC\Tools\MSVC\14.29.30133\include\list
; File C:\Program Files (x86)\Microsoft Visual Studio\2019\Professional\VC\Tools\MSVC\14.29.30133\include\xmemory
; File C:\Program Files (x86)\Microsoft Visual Studio\2019\Professional\VC\Tools\MSVC\14.29.30133\include\utility
; File C:\Program Files (x86)\Microsoft Visual Studio\2019\Professional\VC\Tools\MSVC\14.29.30133\include\list
; File C:\Program Files (x86)\Microsoft Visual Studio\2019\Professional\VC\Tools\MSVC\14.29.30133\include\xmemory
; File C:\Program Files (x86)\Microsoft Visual Studio\2019\Professional\VC\Tools\MSVC\14.29.30133\include\utility
; File C:\Program Files (x86)\Microsoft Visual Studio\2019\Professional\VC\Tools\MSVC\14.29.30133\include\list
; File C:\Program Files (x86)\Microsoft Visual Studio\2019\Professional\VC\Tools\MSVC\14.29.30133\include\xmemory
; File C:\Program Files (x86)\Microsoft Visual Studio\2019\Professional\VC\Tools\MSVC\14.29.30133\include\vector
; File C:\Program Files (x86)\Microsoft Visual Studio\2019\Professional\VC\Tools\MSVC\14.29.30133\include\xmemory
; File C:\Program Files (x86)\Microsoft Visual Studio\2019\Professional\VC\Tools\MSVC\14.29.30133\include\vector
; File C:\Program Files (x86)\Microsoft Visual Studio\2019\Professional\VC\Tools\MSVC\14.29.30133\include\xmemory
; File C:\Program Files (x86)\Microsoft Visual Studio\2019\Professional\VC\Tools\MSVC\14.29.30133\include\vector
; File C:\Program Files (x86)\Microsoft Visual Studio\2019\Professional\VC\Tools\MSVC\14.29.30133\include\xmemory
; File C:\Program Files (x86)\Microsoft Visual Studio\2019\Professional\VC\Tools\MSVC\14.29.30133\include\vector
;	COMDAT ??$_Resize_reallocate@U_Value_init_tag@std@@@?$vector@V?$list@PAVCParticleInstance@@V?$allocator@PAVCParticleInstance@@@std@@@std@@V?$allocator@V?$list@PAVCParticleInstance@@V?$allocator@PAVCParticleInstance@@@std@@@std@@@2@@std@@AAEXIABU_Value_init_tag@1@@Z
_TEXT	SEGMENT
__Appended$2 = -100					; size = 16
__Backout$3 = -84					; size = 12
__Newnode$4 = -72					; size = 8
__Newnode$5 = -64					; size = 8
__Newvec$ = -56						; size = 4
__Appended_first$ = -52					; size = 4
__ULast$1$ = -48					; size = 4
tv1197 = -44						; size = 4
_this$ = -40						; size = 4
__Appended_last$ = -36					; size = 4
__UFirst$1$ = -32					; size = 4
__Newcapacity$ = -28					; size = 4
__Newcapacity$1$ = -24					; size = 4
__Newvec$1$ = -20					; size = 4
__$EHRec$ = -16						; size = 16
__Newsize$ = 8						; size = 4
__Appended$3$ = 12					; size = 4
__Val$ = 12						; size = 4
??$_Resize_reallocate@U_Value_init_tag@std@@@?$vector@V?$list@PAVCParticleInstance@@V?$allocator@PAVCParticleInstance@@@std@@@std@@V?$allocator@V?$list@PAVCParticleInstance@@V?$allocator@PAVCParticleInstance@@@std@@@std@@@2@@std@@AAEXIABU_Value_init_tag@1@@Z PROC ; std::vector<std::list<CParticleInstance *,std::allocator<CParticleInstance *> >,std::allocator<std::list<CParticleInstance *,std::allocator<CParticleInstance *> > > >::_Resize_reallocate<std::_Value_init_tag>, COMDAT
; _this$ = ecx

; 1229 :     _CONSTEXPR20_CONTAINER void _Resize_reallocate(const size_type _Newsize, const _Ty2& _Val) {

  00000	55		 push	 ebp
  00001	8b ec		 mov	 ebp, esp
  00003	6a ff		 push	 -1
  00005	68 00 00 00 00	 push	 __ehhandler$??$_Resize_reallocate@U_Value_init_tag@std@@@?$vector@V?$list@PAVCParticleInstance@@V?$allocator@PAVCParticleInstance@@@std@@@std@@V?$allocator@V?$list@PAVCParticleInstance@@V?$allocator@PAVCParticleInstance@@@std@@@std@@@2@@std@@AAEXIABU_Value_init_tag@1@@Z
  0000a	64 a1 00 00 00
	00		 mov	 eax, DWORD PTR fs:0
  00010	50		 push	 eax
  00011	83 ec 58	 sub	 esp, 88			; 00000058H
  00014	53		 push	 ebx
  00015	56		 push	 esi
  00016	57		 push	 edi
  00017	a1 00 00 00 00	 mov	 eax, DWORD PTR ___security_cookie
  0001c	33 c5		 xor	 eax, ebp
  0001e	50		 push	 eax
  0001f	8d 45 f4	 lea	 eax, DWORD PTR __$EHRec$[ebp+4]
  00022	64 a3 00 00 00
	00		 mov	 DWORD PTR fs:0, eax
  00028	89 65 f0	 mov	 DWORD PTR __$EHRec$[ebp], esp
  0002b	8b f9		 mov	 edi, ecx
  0002d	89 7d d8	 mov	 DWORD PTR _this$[ebp], edi

; 1230 :         if (_Newsize > max_size()) {

  00030	81 7d 08 ff ff
	ff 1f		 cmp	 DWORD PTR __Newsize$[ebp], 536870911 ; 1fffffffH
  00037	0f 87 72 02 00
	00		 ja	 $LN282@Resize_rea

; 1559 :         return static_cast<size_type>(_My_data._Myend - _My_data._Myfirst);

  0003d	8b 4f 08	 mov	 ecx, DWORD PTR [edi+8]

; 1688 :         if (_Oldcapacity > _Max - _Oldcapacity / 2) {

  00040	b8 ff ff ff 1f	 mov	 eax, 536870911		; 1fffffffH

; 1559 :         return static_cast<size_type>(_My_data._Myend - _My_data._Myfirst);

  00045	2b 0f		 sub	 ecx, DWORD PTR [edi]

; 1232 :         }
; 1233 : 
; 1234 :         auto& _My_data    = _Mypair._Myval2;
; 1235 :         pointer& _Myfirst = _My_data._Myfirst;
; 1236 :         pointer& _Mylast  = _My_data._Mylast;
; 1237 : 
; 1238 :         const auto _Oldsize          = static_cast<size_type>(_Mylast - _Myfirst);

  00047	8b 77 04	 mov	 esi, DWORD PTR [edi+4]
  0004a	2b 37		 sub	 esi, DWORD PTR [edi]

; 1559 :         return static_cast<size_type>(_My_data._Myend - _My_data._Myfirst);

  0004c	c1 f9 03	 sar	 ecx, 3

; 1688 :         if (_Oldcapacity > _Max - _Oldcapacity / 2) {

  0004f	8b d1		 mov	 edx, ecx

; 1232 :         }
; 1233 : 
; 1234 :         auto& _My_data    = _Mypair._Myval2;
; 1235 :         pointer& _Myfirst = _My_data._Myfirst;
; 1236 :         pointer& _Mylast  = _My_data._Mylast;
; 1237 : 
; 1238 :         const auto _Oldsize          = static_cast<size_type>(_Mylast - _Myfirst);

  00051	c1 fe 03	 sar	 esi, 3

; 1688 :         if (_Oldcapacity > _Max - _Oldcapacity / 2) {

  00054	d1 ea		 shr	 edx, 1
  00056	2b c2		 sub	 eax, edx
  00058	3b c8		 cmp	 ecx, eax
  0005a	76 20		 jbe	 SHORT $LN10@Resize_rea

; 1689 :             return _Max; // geometric growth would overflow

  0005c	b8 f8 ff ff ff	 mov	 eax, -8			; fffffff8H
  00061	bb ff ff ff 1f	 mov	 ebx, 536870911		; 1fffffffH
; File C:\Program Files (x86)\Microsoft Visual Studio\2019\Professional\VC\Tools\MSVC\14.29.30133\include\xmemory

; 238  :             return _Allocate_manually_vector_aligned<_Traits>(_Bytes);

  00066	50		 push	 eax
; File C:\Program Files (x86)\Microsoft Visual Studio\2019\Professional\VC\Tools\MSVC\14.29.30133\include\vector

; 1689 :             return _Max; // geometric growth would overflow

  00067	89 5d e8	 mov	 DWORD PTR __Newcapacity$1$[ebp], ebx
  0006a	89 5d e4	 mov	 DWORD PTR __Newcapacity$[ebp], ebx
; File C:\Program Files (x86)\Microsoft Visual Studio\2019\Professional\VC\Tools\MSVC\14.29.30133\include\xmemory

; 238  :             return _Allocate_manually_vector_aligned<_Traits>(_Bytes);

  0006d	e8 00 00 00 00	 call	 ??$_Allocate_manually_vector_aligned@U_Default_allocate_traits@std@@@std@@YAPAXI@Z ; std::_Allocate_manually_vector_aligned<std::_Default_allocate_traits>
  00072	8b 55 08	 mov	 edx, DWORD PTR __Newsize$[ebp]
  00075	83 c4 04	 add	 esp, 4
  00078	8b d8		 mov	 ebx, eax
  0007a	eb 5d		 jmp	 SHORT $LN278@Resize_rea
$LN10@Resize_rea:
; File C:\Program Files (x86)\Microsoft Visual Studio\2019\Professional\VC\Tools\MSVC\14.29.30133\include\vector

; 1692 :         const size_type _Geometric = _Oldcapacity + _Oldcapacity / 2;

  0007c	8d 1c 0a	 lea	 ebx, DWORD PTR [edx+ecx]

; 1693 : 
; 1694 :         if (_Geometric < _Newsize) {

  0007f	8b 55 08	 mov	 edx, DWORD PTR __Newsize$[ebp]
  00082	89 5d e8	 mov	 DWORD PTR __Newcapacity$1$[ebp], ebx
  00085	3b da		 cmp	 ebx, edx
  00087	73 26		 jae	 SHORT $LN11@Resize_rea

; 1695 :             return _Newsize; // geometric growth would be insufficient

  00089	8b da		 mov	 ebx, edx
  0008b	89 55 e8	 mov	 DWORD PTR __Newcapacity$1$[ebp], edx
  0008e	89 5d e4	 mov	 DWORD PTR __Newcapacity$[ebp], ebx
$LN18@Resize_rea:
; File C:\Program Files (x86)\Microsoft Visual Studio\2019\Professional\VC\Tools\MSVC\14.29.30133\include\xmemory

; 69   :     return _Count * _Ty_size;

  00091	8d 04 dd 00 00
	00 00		 lea	 eax, DWORD PTR [ebx*8]

; 237  :         if (_Bytes >= _Big_allocation_threshold) { // boost the alignment of big allocations to help autovectorization

  00098	3d 00 10 00 00	 cmp	 eax, 4096		; 00001000H
  0009d	72 21		 jb	 SHORT $LN22@Resize_rea

; 238  :             return _Allocate_manually_vector_aligned<_Traits>(_Bytes);

  0009f	50		 push	 eax
  000a0	e8 00 00 00 00	 call	 ??$_Allocate_manually_vector_aligned@U_Default_allocate_traits@std@@@std@@YAPAXI@Z ; std::_Allocate_manually_vector_aligned<std::_Default_allocate_traits>
  000a5	8b 55 08	 mov	 edx, DWORD PTR __Newsize$[ebp]
  000a8	83 c4 04	 add	 esp, 4
  000ab	8b d8		 mov	 ebx, eax
  000ad	eb 2a		 jmp	 SHORT $LN278@Resize_rea
$LN11@Resize_rea:
; File C:\Program Files (x86)\Microsoft Visual Studio\2019\Professional\VC\Tools\MSVC\14.29.30133\include\vector

; 1698 :         return _Geometric; // geometric growth is sufficient

  000af	89 5d e4	 mov	 DWORD PTR __Newcapacity$[ebp], ebx
; File C:\Program Files (x86)\Microsoft Visual Studio\2019\Professional\VC\Tools\MSVC\14.29.30133\include\xmemory

; 64   :         if (_Count > _Max_possible) {

  000b2	81 fb ff ff ff
	1f		 cmp	 ebx, 536870911		; 1fffffffH
  000b8	0f 87 f6 01 00
	00		 ja	 $LN283@Resize_rea
  000be	eb d1		 jmp	 SHORT $LN18@Resize_rea
$LN22@Resize_rea:

; 243  :     if (_Bytes != 0) {

  000c0	85 c0		 test	 eax, eax
  000c2	74 13		 je	 SHORT $LN23@Resize_rea

; 85   :         return ::operator new(_Bytes);

  000c4	50		 push	 eax
  000c5	e8 00 00 00 00	 call	 ??2@YAPAXI@Z		; operator new

; 244  :         return _Traits::_Allocate(_Bytes);

  000ca	8b 55 08	 mov	 edx, DWORD PTR __Newsize$[ebp]

; 85   :         return ::operator new(_Bytes);

  000cd	83 c4 04	 add	 esp, 4

; 244  :         return _Traits::_Allocate(_Bytes);

  000d0	8b d8		 mov	 ebx, eax
  000d2	89 45 ec	 mov	 DWORD PTR __Newvec$1$[ebp], eax
  000d5	eb 05		 jmp	 SHORT $LN21@Resize_rea
$LN23@Resize_rea:

; 245  :     }
; 246  : 
; 247  :     return nullptr;

  000d7	33 db		 xor	 ebx, ebx
$LN278@Resize_rea:

; 839  :         return static_cast<_Ty*>(_Allocate<_New_alignof<_Ty>>(_Get_size_of_n<sizeof(_Ty)>(_Count)));

  000d9	89 5d ec	 mov	 DWORD PTR __Newvec$1$[ebp], ebx
$LN21@Resize_rea:
; File C:\Program Files (x86)\Microsoft Visual Studio\2019\Professional\VC\Tools\MSVC\14.29.30133\include\vector

; 1246 :         _Appended_last = _Ufill(_Appended_first, _Newsize - _Oldsize, _Val);

  000dc	8b 45 0c	 mov	 eax, DWORD PTR __Val$[ebp]
  000df	8d 0c f3	 lea	 ecx, DWORD PTR [ebx+esi*8]
  000e2	2b d6		 sub	 edx, esi
  000e4	89 4d cc	 mov	 DWORD PTR __Appended_first$[ebp], ecx
  000e7	89 4d dc	 mov	 DWORD PTR __Appended_last$[ebp], ecx
; File C:\Program Files (x86)\Microsoft Visual Studio\2019\Professional\VC\Tools\MSVC\14.29.30133\include\xmemory

; 839  :         return static_cast<_Ty*>(_Allocate<_New_alignof<_Ty>>(_Get_size_of_n<sizeof(_Ty)>(_Count)));

  000ea	89 5d c8	 mov	 DWORD PTR __Newvec$[ebp], ebx
; File C:\Program Files (x86)\Microsoft Visual Studio\2019\Professional\VC\Tools\MSVC\14.29.30133\include\vector

; 1246 :         _Appended_last = _Ufill(_Appended_first, _Newsize - _Oldsize, _Val);

  000ed	0f b6 00	 movzx	 eax, BYTE PTR [eax]
  000f0	50		 push	 eax
  000f1	52		 push	 edx
  000f2	51		 push	 ecx
  000f3	8b cf		 mov	 ecx, edi
  000f5	c7 45 fc 00 00
	00 00		 mov	 DWORD PTR __$EHRec$[ebp+12], 0
  000fc	e8 00 00 00 00	 call	 ?_Ufill@?$vector@V?$list@PAVCParticleInstance@@V?$allocator@PAVCParticleInstance@@@std@@@std@@V?$allocator@V?$list@PAVCParticleInstance@@V?$allocator@PAVCParticleInstance@@@std@@@std@@@2@@std@@AAEPAV?$list@PAVCParticleInstance@@V?$allocator@PAVCParticleInstance@@@std@@@2@PAV32@IU_Value_init_tag@2@@Z ; std::vector<std::list<CParticleInstance *,std::allocator<CParticleInstance *> >,std::allocator<std::list<CParticleInstance *,std::allocator<CParticleInstance *> > > >::_Ufill

; 1247 :         _Umove_if_noexcept(_Myfirst, _Mylast, _Newvec);

  00101	8b 77 04	 mov	 esi, DWORD PTR [edi+4]
; File C:\Program Files (x86)\Microsoft Visual Studio\2019\Professional\VC\Tools\MSVC\14.29.30133\include\xmemory

; 1620 :         : _First(_Dest), _Last(_Dest), _Al(_Al_) {}

  00104	8b cb		 mov	 ecx, ebx

; 1654 :     auto _UFirst      = _Get_unwrapped(_First);

  00106	8b 17		 mov	 edx, DWORD PTR [edi]
; File C:\Program Files (x86)\Microsoft Visual Studio\2019\Professional\VC\Tools\MSVC\14.29.30133\include\vector

; 1246 :         _Appended_last = _Ufill(_Appended_first, _Newsize - _Oldsize, _Val);

  00108	89 45 dc	 mov	 DWORD PTR __Appended_last$[ebp], eax

; 1247 :         _Umove_if_noexcept(_Myfirst, _Mylast, _Newvec);

  0010b	89 75 d0	 mov	 DWORD PTR __ULast$1$[ebp], esi
; File C:\Program Files (x86)\Microsoft Visual Studio\2019\Professional\VC\Tools\MSVC\14.29.30133\include\xmemory

; 1654 :     auto _UFirst      = _Get_unwrapped(_First);

  0010e	89 55 e0	 mov	 DWORD PTR __UFirst$1$[ebp], edx

; 1620 :         : _First(_Dest), _Last(_Dest), _Al(_Al_) {}

  00111	89 5d ac	 mov	 DWORD PTR __Backout$3[ebp], ebx
  00114	89 4d b0	 mov	 DWORD PTR __Backout$3[ebp+4], ecx
  00117	89 7d b4	 mov	 DWORD PTR __Backout$3[ebp+8], edi

; 1669 :     _Uninitialized_backout_al<_Alloc> _Backout{_Dest, _Al};

  0011a	8b 45 a8	 mov	 eax, DWORD PTR __Appended$2[ebp+12]
  0011d	8b 5d a4	 mov	 ebx, DWORD PTR __Appended$2[ebp+8]
  00120	89 45 0c	 mov	 DWORD PTR __Appended$3$[ebp], eax
$LN280@Resize_rea:

; 1670 :     for (; _UFirst != _ULast; ++_UFirst) {

  00123	c6 45 fc 01	 mov	 BYTE PTR __$EHRec$[ebp+12], 1
  00127	3b d6		 cmp	 edx, esi
  00129	0f 84 da 00 00
	00		 je	 $LN34@Resize_rea
; File C:\Program Files (x86)\Microsoft Visual Studio\2019\Professional\VC\Tools\MSVC\14.29.30133\include\list

; 358  :     _List_val() noexcept : _Myhead(), _Mysize(0) {} // initialize data

  0012f	c7 01 00 00 00
	00		 mov	 DWORD PTR [ecx], 0

; 624  :     explicit _List_node_insert_op2(_Alnode& _Al_) : _Al(_Al_), _Added(0) {}

  00135	33 ff		 xor	 edi, edi

; 358  :     _List_val() noexcept : _Myhead(), _Mysize(0) {} // initialize data

  00137	c7 41 04 00 00
	00 00		 mov	 DWORD PTR [ecx+4], 0

; 39   :     _List_unchecked_const_iterator(_Nodeptr _Pnode, const _Mylist* _Plist) noexcept : _Ptr(_Pnode) {

  0013e	8b 02		 mov	 eax, DWORD PTR [edx]
  00140	89 45 d4	 mov	 DWORD PTR tv1197[ebp], eax

; 624  :     explicit _List_node_insert_op2(_Alnode& _Al_) : _Al(_Al_), _Added(0) {}

  00143	89 4d 9c	 mov	 DWORD PTR __Appended$2[ebp], ecx
  00146	89 7d a0	 mov	 DWORD PTR __Appended$2[ebp+4], edi

; 39   :     _List_unchecked_const_iterator(_Nodeptr _Pnode, const _Mylist* _Plist) noexcept : _Ptr(_Pnode) {

  00149	8b 30		 mov	 esi, DWORD PTR [eax]

; 661  :         if (_First == _Last) { // throws

  0014b	3b f0		 cmp	 esi, eax
  0014d	74 5d		 je	 SHORT $LN65@Resize_rea
; File C:\Program Files (x86)\Microsoft Visual Studio\2019\Professional\VC\Tools\MSVC\14.29.30133\include\xmemory

; 1012 :     _CONSTEXPR20_DYNALLOC explicit _Alloc_construct_ptr(_Alloc& _Al_) : _Al(_Al_), _Ptr(nullptr) {}

  0014f	89 4d c0	 mov	 DWORD PTR __Newnode$5[ebp], ecx

; 85   :         return ::operator new(_Bytes);

  00152	6a 0c		 push	 12			; 0000000cH
; File C:\Program Files (x86)\Microsoft Visual Studio\2019\Professional\VC\Tools\MSVC\14.29.30133\include\list

; 665  :         _Alloc_construct_ptr<_Alnode> _Newnode(_Al);

  00154	c6 45 fc 03	 mov	 BYTE PTR __$EHRec$[ebp+12], 3
; File C:\Program Files (x86)\Microsoft Visual Studio\2019\Professional\VC\Tools\MSVC\14.29.30133\include\xmemory

; 1019 :         _Ptr = nullptr; // if allocate throws, prevents double-free

  00158	89 7d c4	 mov	 DWORD PTR __Newnode$5[ebp+4], edi

; 85   :         return ::operator new(_Bytes);

  0015b	e8 00 00 00 00	 call	 ??2@YAPAXI@Z		; operator new
; File C:\Program Files (x86)\Microsoft Visual Studio\2019\Professional\VC\Tools\MSVC\14.29.30133\include\list

; 668  :             _Alnode_traits::construct(_Al, _STD addressof(_Newnode._Ptr->_Myval), *_First); // throws

  00160	8b 4e 08	 mov	 ecx, DWORD PTR [esi+8]
; File C:\Program Files (x86)\Microsoft Visual Studio\2019\Professional\VC\Tools\MSVC\14.29.30133\include\xmemory

; 85   :         return ::operator new(_Bytes);

  00163	83 c4 04	 add	 esp, 4
  00166	89 45 0c	 mov	 DWORD PTR __Appended$3$[ebp], eax
; File C:\Program Files (x86)\Microsoft Visual Studio\2019\Professional\VC\Tools\MSVC\14.29.30133\include\list

; 672  :             ++_Added;

  00169	bf 01 00 00 00	 mov	 edi, 1
  0016e	89 45 a8	 mov	 DWORD PTR __Appended$2[ebp+12], eax
  00171	89 48 08	 mov	 DWORD PTR [eax+8], ecx
$LN279@Resize_rea:

; 673  :             ++_First; // throws
; 674  :         }
; 675  : 
; 676  :         while (_First != _Last) { // throws

  00174	8b 36		 mov	 esi, DWORD PTR [esi]
  00176	8b d8		 mov	 ebx, eax
  00178	89 7d a0	 mov	 DWORD PTR __Appended$2[ebp+4], edi
  0017b	89 5d a4	 mov	 DWORD PTR __Appended$2[ebp+8], ebx
  0017e	c7 45 c4 00 00
	00 00		 mov	 DWORD PTR __Newnode$5[ebp+4], 0
  00185	3b 75 d4	 cmp	 esi, DWORD PTR tv1197[ebp]
  00188	74 1f		 je	 SHORT $LN275@Resize_rea
; File C:\Program Files (x86)\Microsoft Visual Studio\2019\Professional\VC\Tools\MSVC\14.29.30133\include\xmemory

; 85   :         return ::operator new(_Bytes);

  0018a	6a 0c		 push	 12			; 0000000cH

; 1019 :         _Ptr = nullptr; // if allocate throws, prevents double-free

  0018c	c7 45 c4 00 00
	00 00		 mov	 DWORD PTR __Newnode$5[ebp+4], 0

; 85   :         return ::operator new(_Bytes);

  00193	e8 00 00 00 00	 call	 ??2@YAPAXI@Z		; operator new
; File C:\Program Files (x86)\Microsoft Visual Studio\2019\Professional\VC\Tools\MSVC\14.29.30133\include\list

; 678  :             _Alnode_traits::construct(_Al, _STD addressof(_Newnode._Ptr->_Myval), *_First); // throws

  00198	8b 4e 08	 mov	 ecx, DWORD PTR [esi+8]
; File C:\Program Files (x86)\Microsoft Visual Studio\2019\Professional\VC\Tools\MSVC\14.29.30133\include\xmemory

; 85   :         return ::operator new(_Bytes);

  0019b	83 c4 04	 add	 esp, 4
; File C:\Program Files (x86)\Microsoft Visual Studio\2019\Professional\VC\Tools\MSVC\14.29.30133\include\list

; 682  :             ++_Added;

  0019e	47		 inc	 edi
  0019f	89 48 08	 mov	 DWORD PTR [eax+8], ecx
  001a2	89 03		 mov	 DWORD PTR [ebx], eax
  001a4	89 58 04	 mov	 DWORD PTR [eax+4], ebx

; 683  :             ++_First; // throws
; 684  :         }

  001a7	eb cb		 jmp	 SHORT $LN279@Resize_rea
$LN275@Resize_rea:

; 673  :             ++_First; // throws
; 674  :         }
; 675  : 
; 676  :         while (_First != _Last) { // throws

  001a9	8b 4d b0	 mov	 ecx, DWORD PTR __Backout$3[ebp+4]
$LN65@Resize_rea:
; File C:\Program Files (x86)\Microsoft Visual Studio\2019\Professional\VC\Tools\MSVC\14.29.30133\include\xmemory

; 1012 :     _CONSTEXPR20_DYNALLOC explicit _Alloc_construct_ptr(_Alloc& _Al_) : _Al(_Al_), _Ptr(nullptr) {}

  001ac	89 4d b8	 mov	 DWORD PTR __Newnode$4[ebp], ecx

; 85   :         return ::operator new(_Bytes);

  001af	6a 0c		 push	 12			; 0000000cH
; File C:\Program Files (x86)\Microsoft Visual Studio\2019\Professional\VC\Tools\MSVC\14.29.30133\include\list

; 719  :         _Alloc_construct_ptr<_Alnode> _Newnode(_Al);

  001b1	c6 45 fc 04	 mov	 BYTE PTR __$EHRec$[ebp+12], 4
; File C:\Program Files (x86)\Microsoft Visual Studio\2019\Professional\VC\Tools\MSVC\14.29.30133\include\xmemory

; 1019 :         _Ptr = nullptr; // if allocate throws, prevents double-free

  001b5	c7 45 bc 00 00
	00 00		 mov	 DWORD PTR __Newnode$4[ebp+4], 0

; 85   :         return ::operator new(_Bytes);

  001bc	e8 00 00 00 00	 call	 ??2@YAPAXI@Z		; operator new
  001c1	83 c4 04	 add	 esp, 4
; File C:\Program Files (x86)\Microsoft Visual Studio\2019\Professional\VC\Tools\MSVC\14.29.30133\include\utility

; 617  :     _Val         = static_cast<_Other&&>(_New_val);

  001c4	c7 45 a0 00 00
	00 00		 mov	 DWORD PTR __Appended$2[ebp+4], 0
; File C:\Program Files (x86)\Microsoft Visual Studio\2019\Professional\VC\Tools\MSVC\14.29.30133\include\list

; 722  :         if (_Local_added == 0) {

  001cb	85 ff		 test	 edi, edi
  001cd	75 07		 jne	 SHORT $LN144@Resize_rea

; 723  :             _Construct_in_place(_Newnode._Ptr->_Next, _Newnode._Ptr);

  001cf	89 00		 mov	 DWORD PTR [eax], eax

; 724  :             _Construct_in_place(_Newnode._Ptr->_Prev, _Newnode._Ptr);

  001d1	89 40 04	 mov	 DWORD PTR [eax+4], eax

; 725  :         } else {

  001d4	eb 0d		 jmp	 SHORT $LN145@Resize_rea
$LN144@Resize_rea:

; 726  :             const auto _Local_head = _Head;
; 727  :             const auto _Local_tail = _Tail;
; 728  :             _Construct_in_place(_Newnode._Ptr->_Next, _Local_head);

  001d6	8b 55 0c	 mov	 edx, DWORD PTR __Appended$3$[ebp]
  001d9	89 10		 mov	 DWORD PTR [eax], edx

; 729  :             _Construct_in_place(_Newnode._Ptr->_Prev, _Local_tail);

  001db	89 58 04	 mov	 DWORD PTR [eax+4], ebx

; 730  :             _Construct_in_place(_Local_head->_Prev, _Newnode._Ptr);

  001de	89 42 04	 mov	 DWORD PTR [edx+4], eax

; 731  :             _Construct_in_place(_Local_tail->_Next, _Newnode._Ptr);

  001e1	89 03		 mov	 DWORD PTR [ebx], eax
$LN145@Resize_rea:

; 734  :         _List_data._Mysize = _Local_added;

  001e3	8b 4d b0	 mov	 ecx, DWORD PTR __Backout$3[ebp+4]
; File C:\Program Files (x86)\Microsoft Visual Studio\2019\Professional\VC\Tools\MSVC\14.29.30133\include\xmemory

; 1670 :     for (; _UFirst != _ULast; ++_UFirst) {

  001e6	8b 55 e0	 mov	 edx, DWORD PTR __UFirst$1$[ebp]
  001e9	8b 75 d0	 mov	 esi, DWORD PTR __ULast$1$[ebp]
; File C:\Program Files (x86)\Microsoft Visual Studio\2019\Professional\VC\Tools\MSVC\14.29.30133\include\utility

; 617  :     _Val         = static_cast<_Other&&>(_New_val);

  001ec	c7 45 bc 00 00
	00 00		 mov	 DWORD PTR __Newnode$4[ebp+4], 0
; File C:\Program Files (x86)\Microsoft Visual Studio\2019\Professional\VC\Tools\MSVC\14.29.30133\include\list

; 734  :         _List_data._Mysize = _Local_added;

  001f3	89 79 04	 mov	 DWORD PTR [ecx+4], edi

; 735  :         _List_data._Myhead = _Newnode._Release();

  001f6	89 01		 mov	 DWORD PTR [ecx], eax
; File C:\Program Files (x86)\Microsoft Visual Studio\2019\Professional\VC\Tools\MSVC\14.29.30133\include\xmemory

; 1632 :         ++_Last;

  001f8	83 c1 08	 add	 ecx, 8

; 1670 :     for (; _UFirst != _ULast; ++_UFirst) {

  001fb	83 c2 08	 add	 edx, 8

; 1632 :         ++_Last;

  001fe	89 4d b0	 mov	 DWORD PTR __Backout$3[ebp+4], ecx

; 1670 :     for (; _UFirst != _ULast; ++_UFirst) {

  00201	89 55 e0	 mov	 DWORD PTR __UFirst$1$[ebp], edx
  00204	e9 1a ff ff ff	 jmp	 $LN280@Resize_rea
$LN34@Resize_rea:

; 1626 :         _Destroy_range(_First, _Last, _Al);

  00209	8b 7d d8	 mov	 edi, DWORD PTR _this$[ebp]
  0020c	57		 push	 edi
  0020d	51		 push	 ecx
  0020e	51		 push	 ecx
  0020f	e8 00 00 00 00	 call	 ??$_Destroy_range@V?$allocator@V?$list@PAVCParticleInstance@@V?$allocator@PAVCParticleInstance@@@std@@@std@@@std@@@std@@YAXPAV?$list@PAVCParticleInstance@@V?$allocator@PAVCParticleInstance@@@std@@@0@QAV10@AAV?$allocator@V?$list@PAVCParticleInstance@@V?$allocator@PAVCParticleInstance@@@std@@@std@@@0@@Z ; std::_Destroy_range<std::allocator<std::list<CParticleInstance *,std::allocator<CParticleInstance *> > > >
; File C:\Program Files (x86)\Microsoft Visual Studio\2019\Professional\VC\Tools\MSVC\14.29.30133\include\vector

; 1745 :         if (_Myfirst) { // destroy and deallocate old array

  00214	8b 07		 mov	 eax, DWORD PTR [edi]
; File C:\Program Files (x86)\Microsoft Visual Studio\2019\Professional\VC\Tools\MSVC\14.29.30133\include\xmemory

; 1626 :         _Destroy_range(_First, _Last, _Al);

  00216	83 c4 0c	 add	 esp, 12			; 0000000cH
; File C:\Program Files (x86)\Microsoft Visual Studio\2019\Professional\VC\Tools\MSVC\14.29.30133\include\vector

; 1745 :         if (_Myfirst) { // destroy and deallocate old array

  00219	85 c0		 test	 eax, eax
  0021b	74 3b		 je	 SHORT $LN243@Resize_rea

; 1680 :         _Destroy_range(_First, _Last, _Getal());

  0021d	57		 push	 edi
  0021e	ff 77 04	 push	 DWORD PTR [edi+4]
  00221	50		 push	 eax
  00222	e8 00 00 00 00	 call	 ??$_Destroy_range@V?$allocator@V?$list@PAVCParticleInstance@@V?$allocator@PAVCParticleInstance@@@std@@@std@@@std@@@std@@YAXPAV?$list@PAVCParticleInstance@@V?$allocator@PAVCParticleInstance@@@std@@@0@QAV10@AAV?$allocator@V?$list@PAVCParticleInstance@@V?$allocator@PAVCParticleInstance@@@std@@@std@@@0@@Z ; std::_Destroy_range<std::allocator<std::list<CParticleInstance *,std::allocator<CParticleInstance *> > > >

; 1747 :             _Getal().deallocate(_Myfirst, static_cast<size_type>(_Myend - _Myfirst));

  00227	8b 4f 08	 mov	 ecx, DWORD PTR [edi+8]

; 1680 :         _Destroy_range(_First, _Last, _Getal());

  0022a	83 c4 0c	 add	 esp, 12			; 0000000cH

; 1747 :             _Getal().deallocate(_Myfirst, static_cast<size_type>(_Myend - _Myfirst));

  0022d	8b 07		 mov	 eax, DWORD PTR [edi]
  0022f	2b c8		 sub	 ecx, eax
; File C:\Program Files (x86)\Microsoft Visual Studio\2019\Professional\VC\Tools\MSVC\14.29.30133\include\xmemory

; 835  :         _Deallocate<_New_alignof<_Ty>>(_Ptr, sizeof(_Ty) * _Count);

  00231	83 e1 f8	 and	 ecx, -8			; fffffff8H

; 260  :         if (_Bytes >= _Big_allocation_threshold) { // boost the alignment of big allocations to help autovectorization

  00234	81 f9 00 10 00
	00		 cmp	 ecx, 4096		; 00001000H
  0023a	72 12		 jb	 SHORT $LN253@Resize_rea

; 158  :     const uintptr_t _Ptr_container   = _Ptr_user[-1];

  0023c	8b 50 fc	 mov	 edx, DWORD PTR [eax-4]
  0023f	83 c1 23	 add	 ecx, 35			; 00000023H

; 159  : 
; 160  :     // If the following asserts, it likely means that we are performing
; 161  :     // an aligned delete on memory coming from an unaligned allocation.
; 162  :     _STL_ASSERT(_Ptr_user[-2] == _Big_allocation_sentinel, "invalid argument");
; 163  : 
; 164  :     // Extra paranoia on aligned allocation/deallocation; ensure _Ptr_container is
; 165  :     // in range [_Min_back_shift, _Non_user_size]
; 166  : #ifdef _DEBUG
; 167  :     constexpr uintptr_t _Min_back_shift = 2 * sizeof(void*);
; 168  : #else // ^^^ _DEBUG ^^^ // vvv !_DEBUG vvv
; 169  :     constexpr uintptr_t _Min_back_shift = sizeof(void*);
; 170  : #endif // _DEBUG
; 171  :     const uintptr_t _Back_shift = reinterpret_cast<uintptr_t>(_Ptr) - _Ptr_container;

  00242	2b c2		 sub	 eax, edx

; 172  :     _STL_VERIFY(_Back_shift >= _Min_back_shift && _Back_shift <= _Non_user_size, "invalid argument");

  00244	83 c0 fc	 add	 eax, -4			; fffffffcH
  00247	83 f8 1f	 cmp	 eax, 31			; 0000001fH
  0024a	77 6d		 ja	 SHORT $LN250@Resize_rea

; 173  :     _Ptr = reinterpret_cast<void*>(_Ptr_container);

  0024c	8b c2		 mov	 eax, edx
$LN253@Resize_rea:

; 264  :         ::operator delete(_Ptr, _Bytes);

  0024e	51		 push	 ecx
  0024f	50		 push	 eax
  00250	e8 00 00 00 00	 call	 ??3@YAXPAXI@Z		; operator delete
  00255	83 c4 08	 add	 esp, 8
$LN243@Resize_rea:
; File C:\Program Files (x86)\Microsoft Visual Studio\2019\Professional\VC\Tools\MSVC\14.29.30133\include\vector

; 1750 :         _Myfirst = _Newvec;

  00258	8b 4d ec	 mov	 ecx, DWORD PTR __Newvec$1$[ebp]

; 1751 :         _Mylast  = _Newvec + _Newsize;

  0025b	8b 45 08	 mov	 eax, DWORD PTR __Newsize$[ebp]
  0025e	89 0f		 mov	 DWORD PTR [edi], ecx
  00260	8d 04 c1	 lea	 eax, DWORD PTR [ecx+eax*8]
  00263	89 47 04	 mov	 DWORD PTR [edi+4], eax

; 1752 :         _Myend   = _Newvec + _Newcapacity;

  00266	8b 45 e8	 mov	 eax, DWORD PTR __Newcapacity$1$[ebp]
  00269	8d 04 c1	 lea	 eax, DWORD PTR [ecx+eax*8]
  0026c	89 47 08	 mov	 DWORD PTR [edi+8], eax

; 1255 :     }

  0026f	8b 4d f4	 mov	 ecx, DWORD PTR __$EHRec$[ebp+4]
  00272	64 89 0d 00 00
	00 00		 mov	 DWORD PTR fs:0, ecx
  00279	59		 pop	 ecx
  0027a	5f		 pop	 edi
  0027b	5e		 pop	 esi
  0027c	5b		 pop	 ebx
  0027d	8b e5		 mov	 esp, ebp
  0027f	5d		 pop	 ebp
  00280	c2 08 00	 ret	 8
__catch$??$_Resize_reallocate@U_Value_init_tag@std@@@?$vector@V?$list@PAVCParticleInstance@@V?$allocator@PAVCParticleInstance@@@std@@@std@@V?$allocator@V?$list@PAVCParticleInstance@@V?$allocator@PAVCParticleInstance@@@std@@@std@@@2@@std@@AAEXIABU_Value_init_tag@1@@Z$0:

; 1248 :         _CATCH_ALL
; 1249 :         _Destroy(_Appended_first, _Appended_last);

  00283	ff 75 dc	 push	 DWORD PTR __Appended_last$[ebp]
  00286	8b 4d d8	 mov	 ecx, DWORD PTR _this$[ebp]
  00289	ff 75 cc	 push	 DWORD PTR __Appended_first$[ebp]
  0028c	e8 00 00 00 00	 call	 ?_Destroy@?$vector@V?$list@PAVCParticleInstance@@V?$allocator@PAVCParticleInstance@@@std@@@std@@V?$allocator@V?$list@PAVCParticleInstance@@V?$allocator@PAVCParticleInstance@@@std@@@std@@@2@@std@@AAEXPAV?$list@PAVCParticleInstance@@V?$allocator@PAVCParticleInstance@@@std@@@2@0@Z ; std::vector<std::list<CParticleInstance *,std::allocator<CParticleInstance *> >,std::allocator<std::list<CParticleInstance *,std::allocator<CParticleInstance *> > > >::_Destroy

; 1250 :         _Getal().deallocate(_Newvec, _Newcapacity);

  00291	ff 75 e4	 push	 DWORD PTR __Newcapacity$[ebp]
  00294	8b 4d d8	 mov	 ecx, DWORD PTR _this$[ebp]
  00297	ff 75 c8	 push	 DWORD PTR __Newvec$[ebp]
  0029a	e8 00 00 00 00	 call	 ?_Getal@?$vector@V?$list@PAVCParticleInstance@@V?$allocator@PAVCParticleInstance@@@std@@@std@@V?$allocator@V?$list@PAVCParticleInstance@@V?$allocator@PAVCParticleInstance@@@std@@@std@@@2@@std@@AAEAAV?$allocator@V?$list@PAVCParticleInstance@@V?$allocator@PAVCParticleInstance@@@std@@@std@@@2@XZ ; std::vector<std::list<CParticleInstance *,std::allocator<CParticleInstance *> >,std::allocator<std::list<CParticleInstance *,std::allocator<CParticleInstance *> > > >::_Getal
  0029f	8b c8		 mov	 ecx, eax
  002a1	e8 00 00 00 00	 call	 ?deallocate@?$allocator@V?$list@PAVCParticleInstance@@V?$allocator@PAVCParticleInstance@@@std@@@std@@@std@@QAEXQAV?$list@PAVCParticleInstance@@V?$allocator@PAVCParticleInstance@@@std@@@2@I@Z ; std::allocator<std::list<CParticleInstance *,std::allocator<CParticleInstance *> > >::deallocate

; 1251 :         _RERAISE;

  002a6	6a 00		 push	 0
  002a8	6a 00		 push	 0
  002aa	e8 00 00 00 00	 call	 __CxxThrowException@8
$LN282@Resize_rea:

; 1231 :             _Xlength();

  002af	e8 00 00 00 00	 call	 ?_Xlength@?$vector@V?$list@PAVCParticleInstance@@V?$allocator@PAVCParticleInstance@@@std@@@std@@V?$allocator@V?$list@PAVCParticleInstance@@V?$allocator@PAVCParticleInstance@@@std@@@std@@@2@@std@@CAXXZ ; std::vector<std::list<CParticleInstance *,std::allocator<CParticleInstance *> >,std::allocator<std::list<CParticleInstance *,std::allocator<CParticleInstance *> > > >::_Xlength
$LN283@Resize_rea:
; File C:\Program Files (x86)\Microsoft Visual Studio\2019\Professional\VC\Tools\MSVC\14.29.30133\include\xmemory

; 65   :             _Throw_bad_array_new_length(); // multiply overflow

  002b4	e8 00 00 00 00	 call	 ?_Throw_bad_array_new_length@std@@YAXXZ ; std::_Throw_bad_array_new_length
$LN250@Resize_rea:

; 172  :     _STL_VERIFY(_Back_shift >= _Min_back_shift && _Back_shift <= _Non_user_size, "invalid argument");

  002b9	e8 00 00 00 00	 call	 __invalid_parameter_noinfo_noreturn
$LN277@Resize_rea:
  002be	cc		 int	 3
_TEXT	ENDS
;	COMDAT text$x
text$x	SEGMENT
__unwindfunclet$??$_Resize_reallocate@U_Value_init_tag@std@@@?$vector@V?$list@PAVCParticleInstance@@V?$allocator@PAVCParticleInstance@@@std@@@std@@V?$allocator@V?$list@PAVCParticleInstance@@V?$allocator@PAVCParticleInstance@@@std@@@std@@@2@@std@@AAEXIABU_Value_init_tag@1@@Z$2:
  00000	8d 4d ac	 lea	 ecx, DWORD PTR __Backout$3[ebp]
  00003	e9 00 00 00 00	 jmp	 ??1?$_Uninitialized_backout_al@V?$allocator@V?$list@PAVCParticleInstance@@V?$allocator@PAVCParticleInstance@@@std@@@std@@@std@@@std@@QAE@XZ ; std::_Uninitialized_backout_al<std::allocator<std::list<CParticleInstance *,std::allocator<CParticleInstance *> > > >::~_Uninitialized_backout_al<std::allocator<std::list<CParticleInstance *,std::allocator<CParticleInstance *> > > >
__unwindfunclet$??$_Resize_reallocate@U_Value_init_tag@std@@@?$vector@V?$list@PAVCParticleInstance@@V?$allocator@PAVCParticleInstance@@@std@@@std@@V?$allocator@V?$list@PAVCParticleInstance@@V?$allocator@PAVCParticleInstance@@@std@@@std@@@2@@std@@AAEXIABU_Value_init_tag@1@@Z$3:
  00008	8d 4d 9c	 lea	 ecx, DWORD PTR __Appended$2[ebp]
  0000b	e9 00 00 00 00	 jmp	 ??1?$_List_node_insert_op2@V?$allocator@U?$_List_node@PAVCParticleInstance@@PAX@std@@@std@@@std@@QAE@XZ ; std::_List_node_insert_op2<std::allocator<std::_List_node<CParticleInstance *,void *> > >::~_List_node_insert_op2<std::allocator<std::_List_node<CParticleInstance *,void *> > >
__unwindfunclet$??$_Resize_reallocate@U_Value_init_tag@std@@@?$vector@V?$list@PAVCParticleInstance@@V?$allocator@PAVCParticleInstance@@@std@@@std@@V?$allocator@V?$list@PAVCParticleInstance@@V?$allocator@PAVCParticleInstance@@@std@@@std@@@2@@std@@AAEXIABU_Value_init_tag@1@@Z$4:
  00010	8d 4d c0	 lea	 ecx, DWORD PTR __Newnode$5[ebp]
  00013	e9 00 00 00 00	 jmp	 ??1?$_Alloc_construct_ptr@V?$allocator@U?$_List_node@PAVCParticleInstance@@PAX@std@@@std@@@std@@QAE@XZ ; std::_Alloc_construct_ptr<std::allocator<std::_List_node<CParticleInstance *,void *> > >::~_Alloc_construct_ptr<std::allocator<std::_List_node<CParticleInstance *,void *> > >
__unwindfunclet$??$_Resize_reallocate@U_Value_init_tag@std@@@?$vector@V?$list@PAVCParticleInstance@@V?$allocator@PAVCParticleInstance@@@std@@@std@@V?$allocator@V?$list@PAVCParticleInstance@@V?$allocator@PAVCParticleInstance@@@std@@@std@@@2@@std@@AAEXIABU_Value_init_tag@1@@Z$5:
  00018	8d 4d b8	 lea	 ecx, DWORD PTR __Newnode$4[ebp]
  0001b	e9 00 00 00 00	 jmp	 ??1?$_Alloc_construct_ptr@V?$allocator@U?$_List_node@PAVCParticleInstance@@PAX@std@@@std@@@std@@QAE@XZ ; std::_Alloc_construct_ptr<std::allocator<std::_List_node<CParticleInstance *,void *> > >::~_Alloc_construct_ptr<std::allocator<std::_List_node<CParticleInstance *,void *> > >
  00020	cc		 int	 3
  00021	cc		 int	 3
  00022	cc		 int	 3
  00023	cc		 int	 3
  00024	cc		 int	 3
__ehhandler$??$_Resize_reallocate@U_Value_init_tag@std@@@?$vector@V?$list@PAVCParticleInstance@@V?$allocator@PAVCParticleInstance@@@std@@@std@@V?$allocator@V?$list@PAVCParticleInstance@@V?$allocator@PAVCParticleInstance@@@std@@@std@@@2@@std@@AAEXIABU_Value_init_tag@1@@Z:
  00025	90		 npad	 1
  00026	90		 npad	 1
  00027	8b 54 24 08	 mov	 edx, DWORD PTR [esp+8]
  0002b	8d 42 0c	 lea	 eax, DWORD PTR [edx+12]
  0002e	8b 4a 98	 mov	 ecx, DWORD PTR [edx-104]
  00031	33 c8		 xor	 ecx, eax
  00033	e8 00 00 00 00	 call	 @__security_check_cookie@4
  00038	b8 00 00 00 00	 mov	 eax, OFFSET __ehfuncinfo$??$_Resize_reallocate@U_Value_init_tag@std@@@?$vector@V?$list@PAVCParticleInstance@@V?$allocator@PAVCParticleInstance@@@std@@@std@@V?$allocator@V?$list@PAVCParticleInstance@@V?$allocator@PAVCParticleInstance@@@std@@@std@@@2@@std@@AAEXIABU_Value_init_tag@1@@Z
  0003d	e9 00 00 00 00	 jmp	 ___CxxFrameHandler3
text$x	ENDS
??$_Resize_reallocate@U_Value_init_tag@std@@@?$vector@V?$list@PAVCParticleInstance@@V?$allocator@PAVCParticleInstance@@@std@@@std@@V?$allocator@V?$list@PAVCParticleInstance@@V?$allocator@PAVCParticleInstance@@@std@@@std@@@2@@std@@AAEXIABU_Value_init_tag@1@@Z ENDP ; std::vector<std::list<CParticleInstance *,std::allocator<CParticleInstance *> >,std::allocator<std::list<CParticleInstance *,std::allocator<CParticleInstance *> > > >::_Resize_reallocate<std::_Value_init_tag>
; Function compile flags: /Ogtp
; File C:\Program Files (x86)\Microsoft Visual Studio\2019\Professional\VC\Tools\MSVC\14.29.30133\include\xmemory
;	COMDAT ??1?$_Alloc_construct_ptr@V?$allocator@U?$_List_node@PAVCParticleInstance@@PAX@std@@@std@@@std@@QAE@XZ
_TEXT	SEGMENT
??1?$_Alloc_construct_ptr@V?$allocator@U?$_List_node@PAVCParticleInstance@@PAX@std@@@std@@@std@@QAE@XZ PROC ; std::_Alloc_construct_ptr<std::allocator<std::_List_node<CParticleInstance *,void *> > >::~_Alloc_construct_ptr<std::allocator<std::_List_node<CParticleInstance *,void *> > >, COMDAT
; _this$ = ecx

; 1024 :         if (_Ptr) {

  00000	8b 41 04	 mov	 eax, DWORD PTR [ecx+4]
  00003	85 c0		 test	 eax, eax
  00005	74 0b		 je	 SHORT $LN8@Alloc_cons

; 264  :         ::operator delete(_Ptr, _Bytes);

  00007	6a 0c		 push	 12			; 0000000cH
  00009	50		 push	 eax
  0000a	e8 00 00 00 00	 call	 ??3@YAXPAXI@Z		; operator delete
  0000f	83 c4 08	 add	 esp, 8
$LN8@Alloc_cons:

; 1025 :             _Al.deallocate(_Ptr, 1);
; 1026 :         }
; 1027 :     }

  00012	c3		 ret	 0
??1?$_Alloc_construct_ptr@V?$allocator@U?$_List_node@PAVCParticleInstance@@PAX@std@@@std@@@std@@QAE@XZ ENDP ; std::_Alloc_construct_ptr<std::allocator<std::_List_node<CParticleInstance *,void *> > >::~_Alloc_construct_ptr<std::allocator<std::_List_node<CParticleInstance *,void *> > >
_TEXT	ENDS
; Function compile flags: /Ogtp
;	COMDAT ??__F?ms_kPool@?$CPooledObject@VCRotationDecorator@NEffectUpdateDecorator@@@@1V?$CDynamicPoolEx@VCRotationDecorator@NEffectUpdateDecorator@@@@A@@YAXXZ
text$yd	SEGMENT
??__F?ms_kPool@?$CPooledObject@VCRotationDecorator@NEffectUpdateDecorator@@@@1V?$CDynamicPoolEx@VCRotationDecorator@NEffectUpdateDecorator@@@@A@@YAXXZ PROC ; `dynamic atexit destructor for 'CPooledObject<NEffectUpdateDecorator::CRotationDecorator>::ms_kPool'', COMDAT
  00000	b9 00 00 00 00	 mov	 ecx, OFFSET ?ms_kPool@?$CPooledObject@VCRotationDecorator@NEffectUpdateDecorator@@@@1V?$CDynamicPoolEx@VCRotationDecorator@NEffectUpdateDecorator@@@@A ; CPooledObject<NEffectUpdateDecorator::CRotationDecorator>::ms_kPool
  00005	e9 00 00 00 00	 jmp	 ??1?$CDynamicPoolEx@VCRotationDecorator@NEffectUpdateDecorator@@@@UAE@XZ ; CDynamicPoolEx<NEffectUpdateDecorator::CRotationDecorator>::~CDynamicPoolEx<NEffectUpdateDecorator::CRotationDecorator>
??__F?ms_kPool@?$CPooledObject@VCRotationDecorator@NEffectUpdateDecorator@@@@1V?$CDynamicPoolEx@VCRotationDecorator@NEffectUpdateDecorator@@@@A@@YAXXZ ENDP ; `dynamic atexit destructor for 'CPooledObject<NEffectUpdateDecorator::CRotationDecorator>::ms_kPool''
text$yd	ENDS
; Function compile flags: /Ogtp
; File C:\Users\murat\Desktop\Siveps2-1-99-Project\source\client\Client\eterLib\Pool.h
;	COMDAT ??__E?ms_kPool@?$CPooledObject@VCRotationDecorator@NEffectUpdateDecorator@@@@1V?$CDynamicPoolEx@VCRotationDecorator@NEffectUpdateDecorator@@@@A@@YAXXZ
text$di	SEGMENT
??__E?ms_kPool@?$CPooledObject@VCRotationDecorator@NEffectUpdateDecorator@@@@1V?$CDynamicPoolEx@VCRotationDecorator@NEffectUpdateDecorator@@@@A@@YAXXZ PROC ; `dynamic initializer for 'CPooledObject<NEffectUpdateDecorator::CRotationDecorator>::ms_kPool'', COMDAT

; 272  : template <class T> CDynamicPoolEx<T> CPooledObject<T>::ms_kPool;

  00000	68 00 00 00 00	 push	 OFFSET ??__F?ms_kPool@?$CPooledObject@VCRotationDecorator@NEffectUpdateDecorator@@@@1V?$CDynamicPoolEx@VCRotationDecorator@NEffectUpdateDecorator@@@@A@@YAXXZ ; `dynamic atexit destructor for 'CPooledObject<NEffectUpdateDecorator::CRotationDecorator>::ms_kPool''
  00005	e8 00 00 00 00	 call	 _atexit
  0000a	59		 pop	 ecx
  0000b	c3		 ret	 0
??__E?ms_kPool@?$CPooledObject@VCRotationDecorator@NEffectUpdateDecorator@@@@1V?$CDynamicPoolEx@VCRotationDecorator@NEffectUpdateDecorator@@@@A@@YAXXZ ENDP ; `dynamic initializer for 'CPooledObject<NEffectUpdateDecorator::CRotationDecorator>::ms_kPool''
text$di	ENDS
; Function compile flags: /Ogtp
;	COMDAT ??__F?ms_kPool@?$CPooledObject@VCGravityDecorator@NEffectUpdateDecorator@@@@1V?$CDynamicPoolEx@VCGravityDecorator@NEffectUpdateDecorator@@@@A@@YAXXZ
text$yd	SEGMENT
??__F?ms_kPool@?$CPooledObject@VCGravityDecorator@NEffectUpdateDecorator@@@@1V?$CDynamicPoolEx@VCGravityDecorator@NEffectUpdateDecorator@@@@A@@YAXXZ PROC ; `dynamic atexit destructor for 'CPooledObject<NEffectUpdateDecorator::CGravityDecorator>::ms_kPool'', COMDAT
  00000	b9 00 00 00 00	 mov	 ecx, OFFSET ?ms_kPool@?$CPooledObject@VCGravityDecorator@NEffectUpdateDecorator@@@@1V?$CDynamicPoolEx@VCGravityDecorator@NEffectUpdateDecorator@@@@A ; CPooledObject<NEffectUpdateDecorator::CGravityDecorator>::ms_kPool
  00005	e9 00 00 00 00	 jmp	 ??1?$CDynamicPoolEx@VCGravityDecorator@NEffectUpdateDecorator@@@@UAE@XZ ; CDynamicPoolEx<NEffectUpdateDecorator::CGravityDecorator>::~CDynamicPoolEx<NEffectUpdateDecorator::CGravityDecorator>
??__F?ms_kPool@?$CPooledObject@VCGravityDecorator@NEffectUpdateDecorator@@@@1V?$CDynamicPoolEx@VCGravityDecorator@NEffectUpdateDecorator@@@@A@@YAXXZ ENDP ; `dynamic atexit destructor for 'CPooledObject<NEffectUpdateDecorator::CGravityDecorator>::ms_kPool''
text$yd	ENDS
; Function compile flags: /Ogtp
; File C:\Users\murat\Desktop\Siveps2-1-99-Project\source\client\Client\eterLib\Pool.h
;	COMDAT ??__E?ms_kPool@?$CPooledObject@VCGravityDecorator@NEffectUpdateDecorator@@@@1V?$CDynamicPoolEx@VCGravityDecorator@NEffectUpdateDecorator@@@@A@@YAXXZ
text$di	SEGMENT
??__E?ms_kPool@?$CPooledObject@VCGravityDecorator@NEffectUpdateDecorator@@@@1V?$CDynamicPoolEx@VCGravityDecorator@NEffectUpdateDecorator@@@@A@@YAXXZ PROC ; `dynamic initializer for 'CPooledObject<NEffectUpdateDecorator::CGravityDecorator>::ms_kPool'', COMDAT

; 272  : template <class T> CDynamicPoolEx<T> CPooledObject<T>::ms_kPool;

  00000	68 00 00 00 00	 push	 OFFSET ??__F?ms_kPool@?$CPooledObject@VCGravityDecorator@NEffectUpdateDecorator@@@@1V?$CDynamicPoolEx@VCGravityDecorator@NEffectUpdateDecorator@@@@A@@YAXXZ ; `dynamic atexit destructor for 'CPooledObject<NEffectUpdateDecorator::CGravityDecorator>::ms_kPool''
  00005	e8 00 00 00 00	 call	 _atexit
  0000a	59		 pop	 ecx
  0000b	c3		 ret	 0
??__E?ms_kPool@?$CPooledObject@VCGravityDecorator@NEffectUpdateDecorator@@@@1V?$CDynamicPoolEx@VCGravityDecorator@NEffectUpdateDecorator@@@@A@@YAXXZ ENDP ; `dynamic initializer for 'CPooledObject<NEffectUpdateDecorator::CGravityDecorator>::ms_kPool''
text$di	ENDS
; Function compile flags: /Ogtp
;	COMDAT ??__F?ms_kPool@?$CPooledObject@VCAirResistanceDecorator@NEffectUpdateDecorator@@@@1V?$CDynamicPoolEx@VCAirResistanceDecorator@NEffectUpdateDecorator@@@@A@@YAXXZ
text$yd	SEGMENT
??__F?ms_kPool@?$CPooledObject@VCAirResistanceDecorator@NEffectUpdateDecorator@@@@1V?$CDynamicPoolEx@VCAirResistanceDecorator@NEffectUpdateDecorator@@@@A@@YAXXZ PROC ; `dynamic atexit destructor for 'CPooledObject<NEffectUpdateDecorator::CAirResistanceDecorator>::ms_kPool'', COMDAT
  00000	b9 00 00 00 00	 mov	 ecx, OFFSET ?ms_kPool@?$CPooledObject@VCAirResistanceDecorator@NEffectUpdateDecorator@@@@1V?$CDynamicPoolEx@VCAirResistanceDecorator@NEffectUpdateDecorator@@@@A ; CPooledObject<NEffectUpdateDecorator::CAirResistanceDecorator>::ms_kPool
  00005	e9 00 00 00 00	 jmp	 ??1?$CDynamicPoolEx@VCAirResistanceDecorator@NEffectUpdateDecorator@@@@UAE@XZ ; CDynamicPoolEx<NEffectUpdateDecorator::CAirResistanceDecorator>::~CDynamicPoolEx<NEffectUpdateDecorator::CAirResistanceDecorator>
??__F?ms_kPool@?$CPooledObject@VCAirResistanceDecorator@NEffectUpdateDecorator@@@@1V?$CDynamicPoolEx@VCAirResistanceDecorator@NEffectUpdateDecorator@@@@A@@YAXXZ ENDP ; `dynamic atexit destructor for 'CPooledObject<NEffectUpdateDecorator::CAirResistanceDecorator>::ms_kPool''
text$yd	ENDS
; Function compile flags: /Ogtp
; File C:\Users\murat\Desktop\Siveps2-1-99-Project\source\client\Client\eterLib\Pool.h
;	COMDAT ??__E?ms_kPool@?$CPooledObject@VCAirResistanceDecorator@NEffectUpdateDecorator@@@@1V?$CDynamicPoolEx@VCAirResistanceDecorator@NEffectUpdateDecorator@@@@A@@YAXXZ
text$di	SEGMENT
??__E?ms_kPool@?$CPooledObject@VCAirResistanceDecorator@NEffectUpdateDecorator@@@@1V?$CDynamicPoolEx@VCAirResistanceDecorator@NEffectUpdateDecorator@@@@A@@YAXXZ PROC ; `dynamic initializer for 'CPooledObject<NEffectUpdateDecorator::CAirResistanceDecorator>::ms_kPool'', COMDAT

; 272  : template <class T> CDynamicPoolEx<T> CPooledObject<T>::ms_kPool;

  00000	68 00 00 00 00	 push	 OFFSET ??__F?ms_kPool@?$CPooledObject@VCAirResistanceDecorator@NEffectUpdateDecorator@@@@1V?$CDynamicPoolEx@VCAirResistanceDecorator@NEffectUpdateDecorator@@@@A@@YAXXZ ; `dynamic atexit destructor for 'CPooledObject<NEffectUpdateDecorator::CAirResistanceDecorator>::ms_kPool''
  00005	e8 00 00 00 00	 call	 _atexit
  0000a	59		 pop	 ecx
  0000b	c3		 ret	 0
??__E?ms_kPool@?$CPooledObject@VCAirResistanceDecorator@NEffectUpdateDecorator@@@@1V?$CDynamicPoolEx@VCAirResistanceDecorator@NEffectUpdateDecorator@@@@A@@YAXXZ ENDP ; `dynamic initializer for 'CPooledObject<NEffectUpdateDecorator::CAirResistanceDecorator>::ms_kPool''
text$di	ENDS
; Function compile flags: /Ogtp
;	COMDAT ??__F?ms_kPool@?$CPooledObject@VCTextureAnimationRandomDecorator@NEffectUpdateDecorator@@@@1V?$CDynamicPoolEx@VCTextureAnimationRandomDecorator@NEffectUpdateDecorator@@@@A@@YAXXZ
text$yd	SEGMENT
??__F?ms_kPool@?$CPooledObject@VCTextureAnimationRandomDecorator@NEffectUpdateDecorator@@@@1V?$CDynamicPoolEx@VCTextureAnimationRandomDecorator@NEffectUpdateDecorator@@@@A@@YAXXZ PROC ; `dynamic atexit destructor for 'CPooledObject<NEffectUpdateDecorator::CTextureAnimationRandomDecorator>::ms_kPool'', COMDAT
  00000	b9 00 00 00 00	 mov	 ecx, OFFSET ?ms_kPool@?$CPooledObject@VCTextureAnimationRandomDecorator@NEffectUpdateDecorator@@@@1V?$CDynamicPoolEx@VCTextureAnimationRandomDecorator@NEffectUpdateDecorator@@@@A ; CPooledObject<NEffectUpdateDecorator::CTextureAnimationRandomDecorator>::ms_kPool
  00005	e9 00 00 00 00	 jmp	 ??1?$CDynamicPoolEx@VCTextureAnimationRandomDecorator@NEffectUpdateDecorator@@@@UAE@XZ ; CDynamicPoolEx<NEffectUpdateDecorator::CTextureAnimationRandomDecorator>::~CDynamicPoolEx<NEffectUpdateDecorator::CTextureAnimationRandomDecorator>
??__F?ms_kPool@?$CPooledObject@VCTextureAnimationRandomDecorator@NEffectUpdateDecorator@@@@1V?$CDynamicPoolEx@VCTextureAnimationRandomDecorator@NEffectUpdateDecorator@@@@A@@YAXXZ ENDP ; `dynamic atexit destructor for 'CPooledObject<NEffectUpdateDecorator::CTextureAnimationRandomDecorator>::ms_kPool''
text$yd	ENDS
; Function compile flags: /Ogtp
; File C:\Users\murat\Desktop\Siveps2-1-99-Project\source\client\Client\eterLib\Pool.h
;	COMDAT ??__E?ms_kPool@?$CPooledObject@VCTextureAnimationRandomDecorator@NEffectUpdateDecorator@@@@1V?$CDynamicPoolEx@VCTextureAnimationRandomDecorator@NEffectUpdateDecorator@@@@A@@YAXXZ
text$di	SEGMENT
??__E?ms_kPool@?$CPooledObject@VCTextureAnimationRandomDecorator@NEffectUpdateDecorator@@@@1V?$CDynamicPoolEx@VCTextureAnimationRandomDecorator@NEffectUpdateDecorator@@@@A@@YAXXZ PROC ; `dynamic initializer for 'CPooledObject<NEffectUpdateDecorator::CTextureAnimationRandomDecorator>::ms_kPool'', COMDAT

; 272  : template <class T> CDynamicPoolEx<T> CPooledObject<T>::ms_kPool;

  00000	68 00 00 00 00	 push	 OFFSET ??__F?ms_kPool@?$CPooledObject@VCTextureAnimationRandomDecorator@NEffectUpdateDecorator@@@@1V?$CDynamicPoolEx@VCTextureAnimationRandomDecorator@NEffectUpdateDecorator@@@@A@@YAXXZ ; `dynamic atexit destructor for 'CPooledObject<NEffectUpdateDecorator::CTextureAnimationRandomDecorator>::ms_kPool''
  00005	e8 00 00 00 00	 call	 _atexit
  0000a	59		 pop	 ecx
  0000b	c3		 ret	 0
??__E?ms_kPool@?$CPooledObject@VCTextureAnimationRandomDecorator@NEffectUpdateDecorator@@@@1V?$CDynamicPoolEx@VCTextureAnimationRandomDecorator@NEffectUpdateDecorator@@@@A@@YAXXZ ENDP ; `dynamic initializer for 'CPooledObject<NEffectUpdateDecorator::CTextureAnimationRandomDecorator>::ms_kPool''
text$di	ENDS
; Function compile flags: /Ogtp
;	COMDAT ??__F?ms_kPool@?$CPooledObject@VCTextureAnimationCCWDecorator@NEffectUpdateDecorator@@@@1V?$CDynamicPoolEx@VCTextureAnimationCCWDecorator@NEffectUpdateDecorator@@@@A@@YAXXZ
text$yd	SEGMENT
??__F?ms_kPool@?$CPooledObject@VCTextureAnimationCCWDecorator@NEffectUpdateDecorator@@@@1V?$CDynamicPoolEx@VCTextureAnimationCCWDecorator@NEffectUpdateDecorator@@@@A@@YAXXZ PROC ; `dynamic atexit destructor for 'CPooledObject<NEffectUpdateDecorator::CTextureAnimationCCWDecorator>::ms_kPool'', COMDAT
  00000	b9 00 00 00 00	 mov	 ecx, OFFSET ?ms_kPool@?$CPooledObject@VCTextureAnimationCCWDecorator@NEffectUpdateDecorator@@@@1V?$CDynamicPoolEx@VCTextureAnimationCCWDecorator@NEffectUpdateDecorator@@@@A ; CPooledObject<NEffectUpdateDecorator::CTextureAnimationCCWDecorator>::ms_kPool
  00005	e9 00 00 00 00	 jmp	 ??1?$CDynamicPoolEx@VCTextureAnimationCCWDecorator@NEffectUpdateDecorator@@@@UAE@XZ ; CDynamicPoolEx<NEffectUpdateDecorator::CTextureAnimationCCWDecorator>::~CDynamicPoolEx<NEffectUpdateDecorator::CTextureAnimationCCWDecorator>
??__F?ms_kPool@?$CPooledObject@VCTextureAnimationCCWDecorator@NEffectUpdateDecorator@@@@1V?$CDynamicPoolEx@VCTextureAnimationCCWDecorator@NEffectUpdateDecorator@@@@A@@YAXXZ ENDP ; `dynamic atexit destructor for 'CPooledObject<NEffectUpdateDecorator::CTextureAnimationCCWDecorator>::ms_kPool''
text$yd	ENDS
; Function compile flags: /Ogtp
; File C:\Users\murat\Desktop\Siveps2-1-99-Project\source\client\Client\eterLib\Pool.h
;	COMDAT ??__E?ms_kPool@?$CPooledObject@VCTextureAnimationCCWDecorator@NEffectUpdateDecorator@@@@1V?$CDynamicPoolEx@VCTextureAnimationCCWDecorator@NEffectUpdateDecorator@@@@A@@YAXXZ
text$di	SEGMENT
??__E?ms_kPool@?$CPooledObject@VCTextureAnimationCCWDecorator@NEffectUpdateDecorator@@@@1V?$CDynamicPoolEx@VCTextureAnimationCCWDecorator@NEffectUpdateDecorator@@@@A@@YAXXZ PROC ; `dynamic initializer for 'CPooledObject<NEffectUpdateDecorator::CTextureAnimationCCWDecorator>::ms_kPool'', COMDAT

; 272  : template <class T> CDynamicPoolEx<T> CPooledObject<T>::ms_kPool;

  00000	68 00 00 00 00	 push	 OFFSET ??__F?ms_kPool@?$CPooledObject@VCTextureAnimationCCWDecorator@NEffectUpdateDecorator@@@@1V?$CDynamicPoolEx@VCTextureAnimationCCWDecorator@NEffectUpdateDecorator@@@@A@@YAXXZ ; `dynamic atexit destructor for 'CPooledObject<NEffectUpdateDecorator::CTextureAnimationCCWDecorator>::ms_kPool''
  00005	e8 00 00 00 00	 call	 _atexit
  0000a	59		 pop	 ecx
  0000b	c3		 ret	 0
??__E?ms_kPool@?$CPooledObject@VCTextureAnimationCCWDecorator@NEffectUpdateDecorator@@@@1V?$CDynamicPoolEx@VCTextureAnimationCCWDecorator@NEffectUpdateDecorator@@@@A@@YAXXZ ENDP ; `dynamic initializer for 'CPooledObject<NEffectUpdateDecorator::CTextureAnimationCCWDecorator>::ms_kPool''
text$di	ENDS
; Function compile flags: /Ogtp
;	COMDAT ??__F?ms_kPool@?$CPooledObject@VCTextureAnimationCWDecorator@NEffectUpdateDecorator@@@@1V?$CDynamicPoolEx@VCTextureAnimationCWDecorator@NEffectUpdateDecorator@@@@A@@YAXXZ
text$yd	SEGMENT
??__F?ms_kPool@?$CPooledObject@VCTextureAnimationCWDecorator@NEffectUpdateDecorator@@@@1V?$CDynamicPoolEx@VCTextureAnimationCWDecorator@NEffectUpdateDecorator@@@@A@@YAXXZ PROC ; `dynamic atexit destructor for 'CPooledObject<NEffectUpdateDecorator::CTextureAnimationCWDecorator>::ms_kPool'', COMDAT
  00000	b9 00 00 00 00	 mov	 ecx, OFFSET ?ms_kPool@?$CPooledObject@VCTextureAnimationCWDecorator@NEffectUpdateDecorator@@@@1V?$CDynamicPoolEx@VCTextureAnimationCWDecorator@NEffectUpdateDecorator@@@@A ; CPooledObject<NEffectUpdateDecorator::CTextureAnimationCWDecorator>::ms_kPool
  00005	e9 00 00 00 00	 jmp	 ??1?$CDynamicPoolEx@VCTextureAnimationCWDecorator@NEffectUpdateDecorator@@@@UAE@XZ ; CDynamicPoolEx<NEffectUpdateDecorator::CTextureAnimationCWDecorator>::~CDynamicPoolEx<NEffectUpdateDecorator::CTextureAnimationCWDecorator>
??__F?ms_kPool@?$CPooledObject@VCTextureAnimationCWDecorator@NEffectUpdateDecorator@@@@1V?$CDynamicPoolEx@VCTextureAnimationCWDecorator@NEffectUpdateDecorator@@@@A@@YAXXZ ENDP ; `dynamic atexit destructor for 'CPooledObject<NEffectUpdateDecorator::CTextureAnimationCWDecorator>::ms_kPool''
text$yd	ENDS
; Function compile flags: /Ogtp
; File C:\Users\murat\Desktop\Siveps2-1-99-Project\source\client\Client\eterLib\Pool.h
;	COMDAT ??__E?ms_kPool@?$CPooledObject@VCTextureAnimationCWDecorator@NEffectUpdateDecorator@@@@1V?$CDynamicPoolEx@VCTextureAnimationCWDecorator@NEffectUpdateDecorator@@@@A@@YAXXZ
text$di	SEGMENT
??__E?ms_kPool@?$CPooledObject@VCTextureAnimationCWDecorator@NEffectUpdateDecorator@@@@1V?$CDynamicPoolEx@VCTextureAnimationCWDecorator@NEffectUpdateDecorator@@@@A@@YAXXZ PROC ; `dynamic initializer for 'CPooledObject<NEffectUpdateDecorator::CTextureAnimationCWDecorator>::ms_kPool'', COMDAT

; 272  : template <class T> CDynamicPoolEx<T> CPooledObject<T>::ms_kPool;

  00000	68 00 00 00 00	 push	 OFFSET ??__F?ms_kPool@?$CPooledObject@VCTextureAnimationCWDecorator@NEffectUpdateDecorator@@@@1V?$CDynamicPoolEx@VCTextureAnimationCWDecorator@NEffectUpdateDecorator@@@@A@@YAXXZ ; `dynamic atexit destructor for 'CPooledObject<NEffectUpdateDecorator::CTextureAnimationCWDecorator>::ms_kPool''
  00005	e8 00 00 00 00	 call	 _atexit
  0000a	59		 pop	 ecx
  0000b	c3		 ret	 0
??__E?ms_kPool@?$CPooledObject@VCTextureAnimationCWDecorator@NEffectUpdateDecorator@@@@1V?$CDynamicPoolEx@VCTextureAnimationCWDecorator@NEffectUpdateDecorator@@@@A@@YAXXZ ENDP ; `dynamic initializer for 'CPooledObject<NEffectUpdateDecorator::CTextureAnimationCWDecorator>::ms_kPool''
text$di	ENDS
; Function compile flags: /Ogtp
;	COMDAT ??__F?ms_kPool@?$CPooledObject@VCNullDecorator@NEffectUpdateDecorator@@@@1V?$CDynamicPoolEx@VCNullDecorator@NEffectUpdateDecorator@@@@A@@YAXXZ
text$yd	SEGMENT
??__F?ms_kPool@?$CPooledObject@VCNullDecorator@NEffectUpdateDecorator@@@@1V?$CDynamicPoolEx@VCNullDecorator@NEffectUpdateDecorator@@@@A@@YAXXZ PROC ; `dynamic atexit destructor for 'CPooledObject<NEffectUpdateDecorator::CNullDecorator>::ms_kPool'', COMDAT
  00000	b9 00 00 00 00	 mov	 ecx, OFFSET ?ms_kPool@?$CPooledObject@VCNullDecorator@NEffectUpdateDecorator@@@@1V?$CDynamicPoolEx@VCNullDecorator@NEffectUpdateDecorator@@@@A ; CPooledObject<NEffectUpdateDecorator::CNullDecorator>::ms_kPool
  00005	e9 00 00 00 00	 jmp	 ??1?$CDynamicPoolEx@VCNullDecorator@NEffectUpdateDecorator@@@@UAE@XZ ; CDynamicPoolEx<NEffectUpdateDecorator::CNullDecorator>::~CDynamicPoolEx<NEffectUpdateDecorator::CNullDecorator>
??__F?ms_kPool@?$CPooledObject@VCNullDecorator@NEffectUpdateDecorator@@@@1V?$CDynamicPoolEx@VCNullDecorator@NEffectUpdateDecorator@@@@A@@YAXXZ ENDP ; `dynamic atexit destructor for 'CPooledObject<NEffectUpdateDecorator::CNullDecorator>::ms_kPool''
text$yd	ENDS
; Function compile flags: /Ogtp
; File C:\Users\murat\Desktop\Siveps2-1-99-Project\source\client\Client\eterLib\Pool.h
;	COMDAT ??__E?ms_kPool@?$CPooledObject@VCNullDecorator@NEffectUpdateDecorator@@@@1V?$CDynamicPoolEx@VCNullDecorator@NEffectUpdateDecorator@@@@A@@YAXXZ
text$di	SEGMENT
??__E?ms_kPool@?$CPooledObject@VCNullDecorator@NEffectUpdateDecorator@@@@1V?$CDynamicPoolEx@VCNullDecorator@NEffectUpdateDecorator@@@@A@@YAXXZ PROC ; `dynamic initializer for 'CPooledObject<NEffectUpdateDecorator::CNullDecorator>::ms_kPool'', COMDAT

; 272  : template <class T> CDynamicPoolEx<T> CPooledObject<T>::ms_kPool;

  00000	68 00 00 00 00	 push	 OFFSET ??__F?ms_kPool@?$CPooledObject@VCNullDecorator@NEffectUpdateDecorator@@@@1V?$CDynamicPoolEx@VCNullDecorator@NEffectUpdateDecorator@@@@A@@YAXXZ ; `dynamic atexit destructor for 'CPooledObject<NEffectUpdateDecorator::CNullDecorator>::ms_kPool''
  00005	e8 00 00 00 00	 call	 _atexit
  0000a	59		 pop	 ecx
  0000b	c3		 ret	 0
??__E?ms_kPool@?$CPooledObject@VCNullDecorator@NEffectUpdateDecorator@@@@1V?$CDynamicPoolEx@VCNullDecorator@NEffectUpdateDecorator@@@@A@@YAXXZ ENDP ; `dynamic initializer for 'CPooledObject<NEffectUpdateDecorator::CNullDecorator>::ms_kPool''
text$di	ENDS
; Function compile flags: /Ogtp
;	COMDAT ??__F?ms_kPool@?$CPooledObject@VCHeaderDecorator@NEffectUpdateDecorator@@@@1V?$CDynamicPoolEx@VCHeaderDecorator@NEffectUpdateDecorator@@@@A@@YAXXZ
text$yd	SEGMENT
??__F?ms_kPool@?$CPooledObject@VCHeaderDecorator@NEffectUpdateDecorator@@@@1V?$CDynamicPoolEx@VCHeaderDecorator@NEffectUpdateDecorator@@@@A@@YAXXZ PROC ; `dynamic atexit destructor for 'CPooledObject<NEffectUpdateDecorator::CHeaderDecorator>::ms_kPool'', COMDAT
  00000	b9 00 00 00 00	 mov	 ecx, OFFSET ?ms_kPool@?$CPooledObject@VCHeaderDecorator@NEffectUpdateDecorator@@@@1V?$CDynamicPoolEx@VCHeaderDecorator@NEffectUpdateDecorator@@@@A ; CPooledObject<NEffectUpdateDecorator::CHeaderDecorator>::ms_kPool
  00005	e9 00 00 00 00	 jmp	 ??1?$CDynamicPoolEx@VCHeaderDecorator@NEffectUpdateDecorator@@@@UAE@XZ ; CDynamicPoolEx<NEffectUpdateDecorator::CHeaderDecorator>::~CDynamicPoolEx<NEffectUpdateDecorator::CHeaderDecorator>
??__F?ms_kPool@?$CPooledObject@VCHeaderDecorator@NEffectUpdateDecorator@@@@1V?$CDynamicPoolEx@VCHeaderDecorator@NEffectUpdateDecorator@@@@A@@YAXXZ ENDP ; `dynamic atexit destructor for 'CPooledObject<NEffectUpdateDecorator::CHeaderDecorator>::ms_kPool''
text$yd	ENDS
; Function compile flags: /Ogtp
; File C:\Users\murat\Desktop\Siveps2-1-99-Project\source\client\Client\eterLib\Pool.h
;	COMDAT ??__E?ms_kPool@?$CPooledObject@VCHeaderDecorator@NEffectUpdateDecorator@@@@1V?$CDynamicPoolEx@VCHeaderDecorator@NEffectUpdateDecorator@@@@A@@YAXXZ
text$di	SEGMENT
??__E?ms_kPool@?$CPooledObject@VCHeaderDecorator@NEffectUpdateDecorator@@@@1V?$CDynamicPoolEx@VCHeaderDecorator@NEffectUpdateDecorator@@@@A@@YAXXZ PROC ; `dynamic initializer for 'CPooledObject<NEffectUpdateDecorator::CHeaderDecorator>::ms_kPool'', COMDAT

; 272  : template <class T> CDynamicPoolEx<T> CPooledObject<T>::ms_kPool;

  00000	68 00 00 00 00	 push	 OFFSET ??__F?ms_kPool@?$CPooledObject@VCHeaderDecorator@NEffectUpdateDecorator@@@@1V?$CDynamicPoolEx@VCHeaderDecorator@NEffectUpdateDecorator@@@@A@@YAXXZ ; `dynamic atexit destructor for 'CPooledObject<NEffectUpdateDecorator::CHeaderDecorator>::ms_kPool''
  00005	e8 00 00 00 00	 call	 _atexit
  0000a	59		 pop	 ecx
  0000b	c3		 ret	 0
??__E?ms_kPool@?$CPooledObject@VCHeaderDecorator@NEffectUpdateDecorator@@@@1V?$CDynamicPoolEx@VCHeaderDecorator@NEffectUpdateDecorator@@@@A@@YAXXZ ENDP ; `dynamic initializer for 'CPooledObject<NEffectUpdateDecorator::CHeaderDecorator>::ms_kPool''
text$di	ENDS
; Function compile flags: /Ogtp
; File C:\Program Files (x86)\Microsoft Visual Studio\2019\Professional\VC\Tools\MSVC\14.29.30133\include\xmemory
; File C:\Program Files (x86)\Microsoft Visual Studio\2019\Professional\VC\Tools\MSVC\14.29.30133\include\list
; File C:\Program Files (x86)\Microsoft Visual Studio\2019\Professional\VC\Tools\MSVC\14.29.30133\include\xmemory
; File C:\Program Files (x86)\Microsoft Visual Studio\2019\Professional\VC\Tools\MSVC\14.29.30133\include\list
; File C:\Program Files (x86)\Microsoft Visual Studio\2019\Professional\VC\Tools\MSVC\14.29.30133\include\xmemory
;	COMDAT ??$_Destroy_range@V?$allocator@V?$list@PAVCParticleInstance@@V?$allocator@PAVCParticleInstance@@@std@@@std@@@std@@@std@@YAXPAV?$list@PAVCParticleInstance@@V?$allocator@PAVCParticleInstance@@@std@@@0@QAV10@AAV?$allocator@V?$list@PAVCParticleInstance@@V?$allocator@PAVCParticleInstance@@@std@@@std@@@0@@Z
_TEXT	SEGMENT
__First$ = 8						; size = 4
__Last$ = 12						; size = 4
__Al$ = 16						; size = 4
??$_Destroy_range@V?$allocator@V?$list@PAVCParticleInstance@@V?$allocator@PAVCParticleInstance@@@std@@@std@@@std@@@std@@YAXPAV?$list@PAVCParticleInstance@@V?$allocator@PAVCParticleInstance@@@std@@@0@QAV10@AAV?$allocator@V?$list@PAVCParticleInstance@@V?$allocator@PAVCParticleInstance@@@std@@@std@@@0@@Z PROC ; std::_Destroy_range<std::allocator<std::list<CParticleInstance *,std::allocator<CParticleInstance *> > > >, COMDAT

; 945  :     _Alloc_ptr_t<_Alloc> _First, const _Alloc_ptr_t<_Alloc> _Last, _Alloc& _Al) noexcept {

  00000	55		 push	 ebp
  00001	8b ec		 mov	 ebp, esp
  00003	53		 push	 ebx

; 946  :     // note that this is an optimization for debug mode codegen; in release mode the BE removes all of this
; 947  :     using _Ty = typename _Alloc::value_type;
; 948  :     if constexpr (!conjunction_v<is_trivially_destructible<_Ty>, _Uses_default_destroy<_Alloc, _Ty*>>) {
; 949  :         for (; _First != _Last; ++_First) {

  00004	8b 5d 0c	 mov	 ebx, DWORD PTR __Last$[ebp]
  00007	57		 push	 edi
  00008	8b 7d 08	 mov	 edi, DWORD PTR __First$[ebp]
  0000b	3b fb		 cmp	 edi, ebx
  0000d	74 39		 je	 SHORT $LN3@Destroy_ra
  0000f	56		 push	 esi
$LL4@Destroy_ra:
; File C:\Program Files (x86)\Microsoft Visual Studio\2019\Professional\VC\Tools\MSVC\14.29.30133\include\list

; 1440 :         _Node::_Free_non_head(_Al, _My_data._Myhead);

  00010	8b 0f		 mov	 ecx, DWORD PTR [edi]

; 328  :         _Head->_Prev->_Next = nullptr;

  00012	8b 41 04	 mov	 eax, DWORD PTR [ecx+4]
  00015	c7 00 00 00 00
	00		 mov	 DWORD PTR [eax], 0

; 329  : 
; 330  :         auto _Pnode = _Head->_Next;

  0001b	8b 01		 mov	 eax, DWORD PTR [ecx]

; 331  :         for (_Nodeptr _Pnext; _Pnode; _Pnode = _Pnext) {

  0001d	85 c0		 test	 eax, eax
  0001f	74 13		 je	 SHORT $LN17@Destroy_ra
$LL18@Destroy_ra:

; 332  :             _Pnext = _Pnode->_Next;

  00021	8b 30		 mov	 esi, DWORD PTR [eax]
; File C:\Program Files (x86)\Microsoft Visual Studio\2019\Professional\VC\Tools\MSVC\14.29.30133\include\xmemory

; 264  :         ::operator delete(_Ptr, _Bytes);

  00023	6a 0c		 push	 12			; 0000000cH
  00025	50		 push	 eax
  00026	e8 00 00 00 00	 call	 ??3@YAXPAXI@Z		; operator delete
  0002b	83 c4 08	 add	 esp, 8
; File C:\Program Files (x86)\Microsoft Visual Studio\2019\Professional\VC\Tools\MSVC\14.29.30133\include\list

; 331  :         for (_Nodeptr _Pnext; _Pnode; _Pnode = _Pnext) {

  0002e	8b c6		 mov	 eax, esi
  00030	85 f6		 test	 esi, esi
  00032	75 ed		 jne	 SHORT $LL18@Destroy_ra
$LN17@Destroy_ra:
; File C:\Program Files (x86)\Microsoft Visual Studio\2019\Professional\VC\Tools\MSVC\14.29.30133\include\xmemory

; 264  :         ::operator delete(_Ptr, _Bytes);

  00034	6a 0c		 push	 12			; 0000000cH
  00036	ff 37		 push	 DWORD PTR [edi]
  00038	e8 00 00 00 00	 call	 ??3@YAXPAXI@Z		; operator delete

; 946  :     // note that this is an optimization for debug mode codegen; in release mode the BE removes all of this
; 947  :     using _Ty = typename _Alloc::value_type;
; 948  :     if constexpr (!conjunction_v<is_trivially_destructible<_Ty>, _Uses_default_destroy<_Alloc, _Ty*>>) {
; 949  :         for (; _First != _Last; ++_First) {

  0003d	83 c7 08	 add	 edi, 8

; 264  :         ::operator delete(_Ptr, _Bytes);

  00040	83 c4 08	 add	 esp, 8

; 946  :     // note that this is an optimization for debug mode codegen; in release mode the BE removes all of this
; 947  :     using _Ty = typename _Alloc::value_type;
; 948  :     if constexpr (!conjunction_v<is_trivially_destructible<_Ty>, _Uses_default_destroy<_Alloc, _Ty*>>) {
; 949  :         for (; _First != _Last; ++_First) {

  00043	3b fb		 cmp	 edi, ebx
  00045	75 c9		 jne	 SHORT $LL4@Destroy_ra
  00047	5e		 pop	 esi
$LN3@Destroy_ra:
  00048	5f		 pop	 edi

; 950  :             allocator_traits<_Alloc>::destroy(_Al, _Unfancy(_First));
; 951  :         }
; 952  :     }
; 953  : }

  00049	5b		 pop	 ebx
  0004a	5d		 pop	 ebp
  0004b	c3		 ret	 0
??$_Destroy_range@V?$allocator@V?$list@PAVCParticleInstance@@V?$allocator@PAVCParticleInstance@@@std@@@std@@@std@@@std@@YAXPAV?$list@PAVCParticleInstance@@V?$allocator@PAVCParticleInstance@@@std@@@0@QAV10@AAV?$allocator@V?$list@PAVCParticleInstance@@V?$allocator@PAVCParticleInstance@@@std@@@std@@@0@@Z ENDP ; std::_Destroy_range<std::allocator<std::list<CParticleInstance *,std::allocator<CParticleInstance *> > > >
_TEXT	ENDS
; Function compile flags: /Ogtp
; File C:\Program Files (x86)\Microsoft Visual Studio\2019\Professional\VC\Tools\MSVC\14.29.30133\include\vector
; File C:\Program Files (x86)\Microsoft Visual Studio\2019\Professional\VC\Tools\MSVC\14.29.30133\include\xmemory
; File C:\Program Files (x86)\Microsoft Visual Studio\2019\Professional\VC\Tools\MSVC\14.29.30133\include\vector
; File C:\Program Files (x86)\Microsoft Visual Studio\2019\Professional\VC\Tools\MSVC\14.29.30133\include\xmemory
; File C:\Program Files (x86)\Microsoft Visual Studio\2019\Professional\VC\Tools\MSVC\14.29.30133\include\vector
; File C:\Program Files (x86)\Microsoft Visual Studio\2019\Professional\VC\Tools\MSVC\14.29.30133\include\xmemory
; File C:\Program Files (x86)\Microsoft Visual Studio\2019\Professional\VC\Tools\MSVC\14.29.30133\include\vector
; File C:\Program Files (x86)\Microsoft Visual Studio\2019\Professional\VC\Tools\MSVC\14.29.30133\include\xmemory
; File C:\Program Files (x86)\Microsoft Visual Studio\2019\Professional\VC\Tools\MSVC\14.29.30133\include\vector
; File C:\Program Files (x86)\Microsoft Visual Studio\2019\Professional\VC\Tools\MSVC\14.29.30133\include\xmemory
; File C:\Program Files (x86)\Microsoft Visual Studio\2019\Professional\VC\Tools\MSVC\14.29.30133\include\vector
; File C:\Program Files (x86)\Microsoft Visual Studio\2019\Professional\VC\Tools\MSVC\14.29.30133\include\xmemory
; File C:\Program Files (x86)\Microsoft Visual Studio\2019\Professional\VC\Tools\MSVC\14.29.30133\include\vector
; File C:\Program Files (x86)\Microsoft Visual Studio\2019\Professional\VC\Tools\MSVC\14.29.30133\include\xmemory
; File C:\Program Files (x86)\Microsoft Visual Studio\2019\Professional\VC\Tools\MSVC\14.29.30133\include\vector
; File C:\Program Files (x86)\Microsoft Visual Studio\2019\Professional\VC\Tools\MSVC\14.29.30133\include\xmemory
; File C:\Program Files (x86)\Microsoft Visual Studio\2019\Professional\VC\Tools\MSVC\14.29.30133\include\vector
; File C:\Program Files (x86)\Microsoft Visual Studio\2019\Professional\VC\Tools\MSVC\14.29.30133\include\xmemory
; File C:\Program Files (x86)\Microsoft Visual Studio\2019\Professional\VC\Tools\MSVC\14.29.30133\include\vector
;	COMDAT ??$_Emplace_reallocate@ABQAVCParticleSystemInstance@@@?$vector@PAVCParticleSystemInstance@@V?$allocator@PAVCParticleSystemInstance@@@std@@@std@@QAEPAPAVCParticleSystemInstance@@QAPAV2@ABQAV2@@Z
_TEXT	SEGMENT
__Newsize$1$ = -8					; size = 4
tv641 = -4						; size = 4
__Whereoff$1$ = -4					; size = 4
__Whereptr$ = 8						; size = 4
_<_Val_0>$ = 12						; size = 4
??$_Emplace_reallocate@ABQAVCParticleSystemInstance@@@?$vector@PAVCParticleSystemInstance@@V?$allocator@PAVCParticleSystemInstance@@@std@@@std@@QAEPAPAVCParticleSystemInstance@@QAPAV2@ABQAV2@@Z PROC ; std::vector<CParticleSystemInstance *,std::allocator<CParticleSystemInstance *> >::_Emplace_reallocate<CParticleSystemInstance * const &>, COMDAT
; _this$ = ecx

; 765  :     _CONSTEXPR20_CONTAINER pointer _Emplace_reallocate(const pointer _Whereptr, _Valty&&... _Val) {

  00000	55		 push	 ebp
  00001	8b ec		 mov	 ebp, esp
  00003	83 ec 08	 sub	 esp, 8

; 766  :         // reallocate and insert by perfectly forwarding _Val at _Whereptr
; 767  :         _Alty& _Al        = _Getal();
; 768  :         auto& _My_data    = _Mypair._Myval2;
; 769  :         pointer& _Myfirst = _My_data._Myfirst;
; 770  :         pointer& _Mylast  = _My_data._Mylast;
; 771  : 
; 772  :         _STL_INTERNAL_CHECK(_Mylast == _My_data._Myend); // check that we have no unused capacity
; 773  : 
; 774  :         const auto _Whereoff = static_cast<size_type>(_Whereptr - _Myfirst);

  00006	8b 45 08	 mov	 eax, DWORD PTR __Whereptr$[ebp]
  00009	53		 push	 ebx
  0000a	56		 push	 esi
  0000b	8b f1		 mov	 esi, ecx
  0000d	57		 push	 edi
  0000e	8b 0e		 mov	 ecx, DWORD PTR [esi]
  00010	2b c1		 sub	 eax, ecx
  00012	c1 f8 02	 sar	 eax, 2
  00015	89 45 fc	 mov	 DWORD PTR __Whereoff$1$[ebp], eax

; 775  :         const auto _Oldsize  = static_cast<size_type>(_Mylast - _Myfirst);

  00018	8b 46 04	 mov	 eax, DWORD PTR [esi+4]
  0001b	2b c1		 sub	 eax, ecx
  0001d	c1 f8 02	 sar	 eax, 2

; 776  : 
; 777  :         if (_Oldsize == max_size()) {

  00020	3d ff ff ff 3f	 cmp	 eax, 1073741823		; 3fffffffH
  00025	0f 84 06 01 00
	00		 je	 $LN96@Emplace_re

; 1559 :         return static_cast<size_type>(_My_data._Myend - _My_data._Myfirst);

  0002b	8b 56 08	 mov	 edx, DWORD PTR [esi+8]

; 779  :         }
; 780  : 
; 781  :         const size_type _Newsize     = _Oldsize + 1;

  0002e	8d 78 01	 lea	 edi, DWORD PTR [eax+1]

; 1559 :         return static_cast<size_type>(_My_data._Myend - _My_data._Myfirst);

  00031	2b d1		 sub	 edx, ecx

; 779  :         }
; 780  : 
; 781  :         const size_type _Newsize     = _Oldsize + 1;

  00033	89 7d f8	 mov	 DWORD PTR __Newsize$1$[ebp], edi

; 1559 :         return static_cast<size_type>(_My_data._Myend - _My_data._Myfirst);

  00036	c1 fa 02	 sar	 edx, 2

; 1688 :         if (_Oldcapacity > _Max - _Oldcapacity / 2) {

  00039	b8 ff ff ff 3f	 mov	 eax, 1073741823		; 3fffffffH
  0003e	8b ca		 mov	 ecx, edx
  00040	d1 e9		 shr	 ecx, 1
  00042	2b c1		 sub	 eax, ecx
  00044	3b d0		 cmp	 edx, eax
  00046	76 12		 jbe	 SHORT $LN12@Emplace_re

; 1689 :             return _Max; // geometric growth would overflow

  00048	bb fc ff ff ff	 mov	 ebx, -4			; fffffffcH
; File C:\Program Files (x86)\Microsoft Visual Studio\2019\Professional\VC\Tools\MSVC\14.29.30133\include\xmemory

; 238  :             return _Allocate_manually_vector_aligned<_Traits>(_Bytes);

  0004d	53		 push	 ebx
  0004e	e8 00 00 00 00	 call	 ??$_Allocate_manually_vector_aligned@U_Default_allocate_traits@std@@@std@@YAPAXI@Z ; std::_Allocate_manually_vector_aligned<std::_Default_allocate_traits>
  00053	83 c4 04	 add	 esp, 4
  00056	8b f8		 mov	 edi, eax
  00058	eb 41		 jmp	 SHORT $LN23@Emplace_re
$LN12@Emplace_re:
; File C:\Program Files (x86)\Microsoft Visual Studio\2019\Professional\VC\Tools\MSVC\14.29.30133\include\vector

; 1692 :         const size_type _Geometric = _Oldcapacity + _Oldcapacity / 2;

  0005a	8d 04 11	 lea	 eax, DWORD PTR [ecx+edx]
; File C:\Program Files (x86)\Microsoft Visual Studio\2019\Professional\VC\Tools\MSVC\14.29.30133\include\xmemory

; 64   :         if (_Count > _Max_possible) {

  0005d	8b df		 mov	 ebx, edi
  0005f	3b c7		 cmp	 eax, edi
  00061	0f 43 d8	 cmovae	 ebx, eax
  00064	81 fb ff ff ff
	3f		 cmp	 ebx, 1073741823		; 3fffffffH
  0006a	0f 87 c6 00 00
	00		 ja	 $LN97@Emplace_re

; 66   :         }
; 67   :     }
; 68   : 
; 69   :     return _Count * _Ty_size;

  00070	c1 e3 02	 shl	 ebx, 2

; 237  :         if (_Bytes >= _Big_allocation_threshold) { // boost the alignment of big allocations to help autovectorization

  00073	81 fb 00 10 00
	00		 cmp	 ebx, 4096		; 00001000H
  00079	72 0d		 jb	 SHORT $LN24@Emplace_re

; 238  :             return _Allocate_manually_vector_aligned<_Traits>(_Bytes);

  0007b	53		 push	 ebx
  0007c	e8 00 00 00 00	 call	 ??$_Allocate_manually_vector_aligned@U_Default_allocate_traits@std@@@std@@YAPAXI@Z ; std::_Allocate_manually_vector_aligned<std::_Default_allocate_traits>
  00081	83 c4 04	 add	 esp, 4
  00084	8b f8		 mov	 edi, eax
  00086	eb 13		 jmp	 SHORT $LN23@Emplace_re
$LN24@Emplace_re:

; 239  :         }
; 240  :     }
; 241  : #endif // defined(_M_IX86) || defined(_M_X64)
; 242  : 
; 243  :     if (_Bytes != 0) {

  00088	85 db		 test	 ebx, ebx
  0008a	74 0d		 je	 SHORT $LN25@Emplace_re

; 85   :         return ::operator new(_Bytes);

  0008c	53		 push	 ebx
  0008d	e8 00 00 00 00	 call	 ??2@YAPAXI@Z		; operator new
  00092	83 c4 04	 add	 esp, 4

; 244  :         return _Traits::_Allocate(_Bytes);

  00095	8b f8		 mov	 edi, eax
  00097	eb 02		 jmp	 SHORT $LN23@Emplace_re
$LN25@Emplace_re:

; 245  :     }
; 246  : 
; 247  :     return nullptr;

  00099	33 ff		 xor	 edi, edi
$LN23@Emplace_re:
; File C:\Program Files (x86)\Microsoft Visual Studio\2019\Professional\VC\Tools\MSVC\14.29.30133\include\vector

; 789  :         _Alty_traits::construct(_Al, _Unfancy(_Newvec + _Whereoff), _STD forward<_Valty>(_Val)...);

  0009b	8b 45 fc	 mov	 eax, DWORD PTR __Whereoff$1$[ebp]
  0009e	8d 0c 87	 lea	 ecx, DWORD PTR [edi+eax*4]
  000a1	8b 45 0c	 mov	 eax, DWORD PTR _<_Val_0>$[ebp]
  000a4	89 4d fc	 mov	 DWORD PTR tv641[ebp], ecx
  000a7	8b 00		 mov	 eax, DWORD PTR [eax]
  000a9	89 01		 mov	 DWORD PTR [ecx], eax

; 790  :         _Constructed_first = _Newvec + _Whereoff;
; 791  : 
; 792  :         if (_Whereptr == _Mylast) { // at back, provide strong guarantee

  000ab	8b 4e 04	 mov	 ecx, DWORD PTR [esi+4]
  000ae	8b 45 08	 mov	 eax, DWORD PTR __Whereptr$[ebp]
  000b1	8b 16		 mov	 edx, DWORD PTR [esi]
  000b3	3b c1		 cmp	 eax, ecx
  000b5	75 04		 jne	 SHORT $LN4@Emplace_re
; File C:\Program Files (x86)\Microsoft Visual Studio\2019\Professional\VC\Tools\MSVC\14.29.30133\include\xmemory

; 1725 :             _Copy_memmove(_UFirst, _ULast, _Unfancy(_Dest));

  000b7	8b c7		 mov	 eax, edi
; File C:\Program Files (x86)\Microsoft Visual Studio\2019\Professional\VC\Tools\MSVC\14.29.30133\include\vector

; 794  :         } else { // provide basic guarantee

  000b9	eb 17		 jmp	 SHORT $LN60@Emplace_re
$LN4@Emplace_re:
; File C:\Program Files (x86)\Microsoft Visual Studio\2019\Professional\VC\Tools\MSVC\14.29.30133\include\xmemory

; 1725 :             _Copy_memmove(_UFirst, _ULast, _Unfancy(_Dest));

  000bb	57		 push	 edi
  000bc	50		 push	 eax
  000bd	52		 push	 edx
  000be	e8 00 00 00 00	 call	 ??$_Copy_memmove@PAPAVCParticleSystemInstance@@PAPAV1@@std@@YAPAPAVCParticleSystemInstance@@PAPAV1@00@Z ; std::_Copy_memmove<CParticleSystemInstance * *,CParticleSystemInstance * *>
; File C:\Program Files (x86)\Microsoft Visual Studio\2019\Professional\VC\Tools\MSVC\14.29.30133\include\vector

; 797  :             _Umove(_Whereptr, _Mylast, _Newvec + _Whereoff + 1);

  000c3	8b 45 fc	 mov	 eax, DWORD PTR tv641[ebp]
; File C:\Program Files (x86)\Microsoft Visual Studio\2019\Professional\VC\Tools\MSVC\14.29.30133\include\xmemory

; 1725 :             _Copy_memmove(_UFirst, _ULast, _Unfancy(_Dest));

  000c6	83 c4 0c	 add	 esp, 12			; 0000000cH
  000c9	8b 55 08	 mov	 edx, DWORD PTR __Whereptr$[ebp]
; File C:\Program Files (x86)\Microsoft Visual Studio\2019\Professional\VC\Tools\MSVC\14.29.30133\include\vector

; 797  :             _Umove(_Whereptr, _Mylast, _Newvec + _Whereoff + 1);

  000cc	83 c0 04	 add	 eax, 4
; File C:\Program Files (x86)\Microsoft Visual Studio\2019\Professional\VC\Tools\MSVC\14.29.30133\include\xmemory

; 1725 :             _Copy_memmove(_UFirst, _ULast, _Unfancy(_Dest));

  000cf	8b 4e 04	 mov	 ecx, DWORD PTR [esi+4]
$LN60@Emplace_re:
; File C:\Program Files (x86)\Microsoft Visual Studio\2019\Professional\VC\Tools\MSVC\14.29.30133\include\vector

; 797  :             _Umove(_Whereptr, _Mylast, _Newvec + _Whereoff + 1);

  000d2	50		 push	 eax
  000d3	51		 push	 ecx
  000d4	52		 push	 edx
  000d5	e8 00 00 00 00	 call	 ??$_Copy_memmove@PAPAVCParticleSystemInstance@@PAPAV1@@std@@YAPAPAVCParticleSystemInstance@@PAPAV1@00@Z ; std::_Copy_memmove<CParticleSystemInstance * *,CParticleSystemInstance * *>

; 1745 :         if (_Myfirst) { // destroy and deallocate old array

  000da	8b 06		 mov	 eax, DWORD PTR [esi]

; 797  :             _Umove(_Whereptr, _Mylast, _Newvec + _Whereoff + 1);

  000dc	83 c4 0c	 add	 esp, 12			; 0000000cH

; 1745 :         if (_Myfirst) { // destroy and deallocate old array

  000df	85 c0		 test	 eax, eax
  000e1	74 2c		 je	 SHORT $LN78@Emplace_re

; 1746 :             _Destroy(_Myfirst, _Mylast);
; 1747 :             _Getal().deallocate(_Myfirst, static_cast<size_type>(_Myend - _Myfirst));

  000e3	8b 4e 08	 mov	 ecx, DWORD PTR [esi+8]
  000e6	2b c8		 sub	 ecx, eax
; File C:\Program Files (x86)\Microsoft Visual Studio\2019\Professional\VC\Tools\MSVC\14.29.30133\include\xmemory

; 835  :         _Deallocate<_New_alignof<_Ty>>(_Ptr, sizeof(_Ty) * _Count);

  000e8	83 e1 fc	 and	 ecx, -4			; fffffffcH

; 260  :         if (_Bytes >= _Big_allocation_threshold) { // boost the alignment of big allocations to help autovectorization

  000eb	81 f9 00 10 00
	00		 cmp	 ecx, 4096		; 00001000H
  000f1	72 12		 jb	 SHORT $LN88@Emplace_re

; 158  :     const uintptr_t _Ptr_container   = _Ptr_user[-1];

  000f3	8b 50 fc	 mov	 edx, DWORD PTR [eax-4]
  000f6	83 c1 23	 add	 ecx, 35			; 00000023H

; 159  : 
; 160  :     // If the following asserts, it likely means that we are performing
; 161  :     // an aligned delete on memory coming from an unaligned allocation.
; 162  :     _STL_ASSERT(_Ptr_user[-2] == _Big_allocation_sentinel, "invalid argument");
; 163  : 
; 164  :     // Extra paranoia on aligned allocation/deallocation; ensure _Ptr_container is
; 165  :     // in range [_Min_back_shift, _Non_user_size]
; 166  : #ifdef _DEBUG
; 167  :     constexpr uintptr_t _Min_back_shift = 2 * sizeof(void*);
; 168  : #else // ^^^ _DEBUG ^^^ // vvv !_DEBUG vvv
; 169  :     constexpr uintptr_t _Min_back_shift = sizeof(void*);
; 170  : #endif // _DEBUG
; 171  :     const uintptr_t _Back_shift = reinterpret_cast<uintptr_t>(_Ptr) - _Ptr_container;

  000f9	2b c2		 sub	 eax, edx

; 172  :     _STL_VERIFY(_Back_shift >= _Min_back_shift && _Back_shift <= _Non_user_size, "invalid argument");

  000fb	83 c0 fc	 add	 eax, -4			; fffffffcH
  000fe	83 f8 1f	 cmp	 eax, 31			; 0000001fH
  00101	77 29		 ja	 SHORT $LN85@Emplace_re

; 173  :     _Ptr = reinterpret_cast<void*>(_Ptr_container);

  00103	8b c2		 mov	 eax, edx
$LN88@Emplace_re:

; 264  :         ::operator delete(_Ptr, _Bytes);

  00105	51		 push	 ecx
  00106	50		 push	 eax
  00107	e8 00 00 00 00	 call	 ??3@YAXPAXI@Z		; operator delete
  0010c	83 c4 08	 add	 esp, 8
$LN78@Emplace_re:
; File C:\Program Files (x86)\Microsoft Visual Studio\2019\Professional\VC\Tools\MSVC\14.29.30133\include\vector

; 1751 :         _Mylast  = _Newvec + _Newsize;

  0010f	8b 45 f8	 mov	 eax, DWORD PTR __Newsize$1$[ebp]
  00112	89 3e		 mov	 DWORD PTR [esi], edi
  00114	8d 0c 87	 lea	 ecx, DWORD PTR [edi+eax*4]

; 798  :         }
; 799  :         _CATCH_ALL
; 800  :         _Destroy(_Constructed_first, _Constructed_last);
; 801  :         _Al.deallocate(_Newvec, _Newcapacity);
; 802  :         _RERAISE;
; 803  :         _CATCH_END
; 804  : 
; 805  :         _Change_array(_Newvec, _Newsize, _Newcapacity);
; 806  :         return _Newvec + _Whereoff;

  00117	8b 45 fc	 mov	 eax, DWORD PTR tv641[ebp]

; 1751 :         _Mylast  = _Newvec + _Newsize;

  0011a	89 4e 04	 mov	 DWORD PTR [esi+4], ecx

; 1752 :         _Myend   = _Newvec + _Newcapacity;

  0011d	8d 0c 3b	 lea	 ecx, DWORD PTR [ebx+edi]

; 798  :         }
; 799  :         _CATCH_ALL
; 800  :         _Destroy(_Constructed_first, _Constructed_last);
; 801  :         _Al.deallocate(_Newvec, _Newcapacity);
; 802  :         _RERAISE;
; 803  :         _CATCH_END
; 804  : 
; 805  :         _Change_array(_Newvec, _Newsize, _Newcapacity);
; 806  :         return _Newvec + _Whereoff;

  00120	5f		 pop	 edi

; 1752 :         _Myend   = _Newvec + _Newcapacity;

  00121	89 4e 08	 mov	 DWORD PTR [esi+8], ecx

; 798  :         }
; 799  :         _CATCH_ALL
; 800  :         _Destroy(_Constructed_first, _Constructed_last);
; 801  :         _Al.deallocate(_Newvec, _Newcapacity);
; 802  :         _RERAISE;
; 803  :         _CATCH_END
; 804  : 
; 805  :         _Change_array(_Newvec, _Newsize, _Newcapacity);
; 806  :         return _Newvec + _Whereoff;

  00124	5e		 pop	 esi
  00125	5b		 pop	 ebx

; 807  :     }

  00126	8b e5		 mov	 esp, ebp
  00128	5d		 pop	 ebp
  00129	c2 08 00	 ret	 8
$LN85@Emplace_re:
; File C:\Program Files (x86)\Microsoft Visual Studio\2019\Professional\VC\Tools\MSVC\14.29.30133\include\xmemory

; 172  :     _STL_VERIFY(_Back_shift >= _Min_back_shift && _Back_shift <= _Non_user_size, "invalid argument");

  0012c	e8 00 00 00 00	 call	 __invalid_parameter_noinfo_noreturn
$LN96@Emplace_re:
; File C:\Program Files (x86)\Microsoft Visual Studio\2019\Professional\VC\Tools\MSVC\14.29.30133\include\vector

; 778  :             _Xlength();

  00131	e8 00 00 00 00	 call	 ?_Xlength@?$vector@PAVCParticleSystemInstance@@V?$allocator@PAVCParticleSystemInstance@@@std@@@std@@CAXXZ ; std::vector<CParticleSystemInstance *,std::allocator<CParticleSystemInstance *> >::_Xlength
$LN97@Emplace_re:
; File C:\Program Files (x86)\Microsoft Visual Studio\2019\Professional\VC\Tools\MSVC\14.29.30133\include\xmemory

; 65   :             _Throw_bad_array_new_length(); // multiply overflow

  00136	e8 00 00 00 00	 call	 ?_Throw_bad_array_new_length@std@@YAXXZ ; std::_Throw_bad_array_new_length
$LN94@Emplace_re:
  0013b	cc		 int	 3
??$_Emplace_reallocate@ABQAVCParticleSystemInstance@@@?$vector@PAVCParticleSystemInstance@@V?$allocator@PAVCParticleSystemInstance@@@std@@@std@@QAEPAPAVCParticleSystemInstance@@QAPAV2@ABQAV2@@Z ENDP ; std::vector<CParticleSystemInstance *,std::allocator<CParticleSystemInstance *> >::_Emplace_reallocate<CParticleSystemInstance * const &>
_TEXT	ENDS
; Function compile flags: /Ogtp
;	COMDAT ??_G?$CDynamicPoolEx@VCHeaderDecorator@NEffectUpdateDecorator@@@@UAEPAXI@Z
_TEXT	SEGMENT
___flags$ = 8						; size = 4
??_G?$CDynamicPoolEx@VCHeaderDecorator@NEffectUpdateDecorator@@@@UAEPAXI@Z PROC ; CDynamicPoolEx<NEffectUpdateDecorator::CHeaderDecorator>::`scalar deleting destructor', COMDAT
; _this$ = ecx
  00000	55		 push	 ebp
  00001	8b ec		 mov	 ebp, esp
  00003	56		 push	 esi
  00004	8b f1		 mov	 esi, ecx
  00006	e8 00 00 00 00	 call	 ??1?$CDynamicPoolEx@VCHeaderDecorator@NEffectUpdateDecorator@@@@UAE@XZ ; CDynamicPoolEx<NEffectUpdateDecorator::CHeaderDecorator>::~CDynamicPoolEx<NEffectUpdateDecorator::CHeaderDecorator>
  0000b	f6 45 08 01	 test	 BYTE PTR ___flags$[ebp], 1
  0000f	74 0b		 je	 SHORT $LN4@scalar
  00011	6a 24		 push	 36			; 00000024H
  00013	56		 push	 esi
  00014	e8 00 00 00 00	 call	 ??3@YAXPAXI@Z		; operator delete
  00019	83 c4 08	 add	 esp, 8
$LN4@scalar:
  0001c	8b c6		 mov	 eax, esi
  0001e	5e		 pop	 esi
  0001f	5d		 pop	 ebp
  00020	c2 04 00	 ret	 4
??_G?$CDynamicPoolEx@VCHeaderDecorator@NEffectUpdateDecorator@@@@UAEPAXI@Z ENDP ; CDynamicPoolEx<NEffectUpdateDecorator::CHeaderDecorator>::`scalar deleting destructor'
_TEXT	ENDS
; Function compile flags: /Ogtp
; File C:\Users\murat\Desktop\Siveps2-1-99-Project\source\client\Client\eterLib\Pool.h
;	COMDAT ?Delete@?$CDynamicPoolEx@VCHeaderDecorator@NEffectUpdateDecorator@@@@KAXPAVCHeaderDecorator@NEffectUpdateDecorator@@@Z
_TEXT	SEGMENT
_pkData$ = 8						; size = 4
?Delete@?$CDynamicPoolEx@VCHeaderDecorator@NEffectUpdateDecorator@@@@KAXPAVCHeaderDecorator@NEffectUpdateDecorator@@@Z PROC ; CDynamicPoolEx<NEffectUpdateDecorator::CHeaderDecorator>::Delete, COMDAT

; 224  : 			::operator delete(pkData);

  00000	e9 00 00 00 00	 jmp	 ??3@YAXPAX@Z		; operator delete
?Delete@?$CDynamicPoolEx@VCHeaderDecorator@NEffectUpdateDecorator@@@@KAXPAVCHeaderDecorator@NEffectUpdateDecorator@@@Z ENDP ; CDynamicPoolEx<NEffectUpdateDecorator::CHeaderDecorator>::Delete
_TEXT	ENDS
; Function compile flags: /Ogtp
; File C:\Users\murat\Desktop\Siveps2-1-99-Project\source\client\Client\eterLib\Pool.h
; File C:\Program Files (x86)\Microsoft Visual Studio\2019\Professional\VC\Tools\MSVC\14.29.30133\include\vector
; File C:\Program Files (x86)\Microsoft Visual Studio\2019\Professional\VC\Tools\MSVC\14.29.30133\include\algorithm
; File C:\Users\murat\Desktop\Siveps2-1-99-Project\source\client\Client\eterLib\Pool.h
; File C:\Program Files (x86)\Microsoft Visual Studio\2019\Professional\VC\Tools\MSVC\14.29.30133\include\algorithm
; File C:\Users\murat\Desktop\Siveps2-1-99-Project\source\client\Client\eterLib\Pool.h
; File C:\Program Files (x86)\Microsoft Visual Studio\2019\Professional\VC\Tools\MSVC\14.29.30133\include\algorithm
; File C:\Users\murat\Desktop\Siveps2-1-99-Project\source\client\Client\eterLib\Pool.h
; File C:\Program Files (x86)\Microsoft Visual Studio\2019\Professional\VC\Tools\MSVC\14.29.30133\include\vector
; File C:\Program Files (x86)\Microsoft Visual Studio\2019\Professional\VC\Tools\MSVC\14.29.30133\include\xmemory
; File C:\Program Files (x86)\Microsoft Visual Studio\2019\Professional\VC\Tools\MSVC\14.29.30133\include\vector
; File C:\Program Files (x86)\Microsoft Visual Studio\2019\Professional\VC\Tools\MSVC\14.29.30133\include\xmemory
; File C:\Program Files (x86)\Microsoft Visual Studio\2019\Professional\VC\Tools\MSVC\14.29.30133\include\vector
; File C:\Program Files (x86)\Microsoft Visual Studio\2019\Professional\VC\Tools\MSVC\14.29.30133\include\xmemory
; File C:\Program Files (x86)\Microsoft Visual Studio\2019\Professional\VC\Tools\MSVC\14.29.30133\include\vector
; File C:\Program Files (x86)\Microsoft Visual Studio\2019\Professional\VC\Tools\MSVC\14.29.30133\include\xmemory
; File C:\Program Files (x86)\Microsoft Visual Studio\2019\Professional\VC\Tools\MSVC\14.29.30133\include\vector
; File C:\Users\murat\Desktop\Siveps2-1-99-Project\source\client\Client\eterLib\Pool.h
; File C:\Program Files (x86)\Microsoft Visual Studio\2019\Professional\VC\Tools\MSVC\14.29.30133\include\xmemory
; File C:\Users\murat\Desktop\Siveps2-1-99-Project\source\client\Client\eterLib\Pool.h
;	COMDAT ??1?$CDynamicPoolEx@VCHeaderDecorator@NEffectUpdateDecorator@@@@UAE@XZ
_TEXT	SEGMENT
??1?$CDynamicPoolEx@VCHeaderDecorator@NEffectUpdateDecorator@@@@UAE@XZ PROC ; CDynamicPoolEx<NEffectUpdateDecorator::CHeaderDecorator>::~CDynamicPoolEx<NEffectUpdateDecorator::CHeaderDecorator>, COMDAT
; _this$ = ecx

; 132  : 		{

  00000	53		 push	 ebx
  00001	56		 push	 esi
  00002	57		 push	 edi
  00003	8b f9		 mov	 edi, ecx
  00005	c7 07 00 00 00
	00		 mov	 DWORD PTR [edi], OFFSET ??_7?$CDynamicPoolEx@VCHeaderDecorator@NEffectUpdateDecorator@@@@6B@
; File C:\Program Files (x86)\Microsoft Visual Studio\2019\Professional\VC\Tools\MSVC\14.29.30133\include\vector

; 42   :     _CONSTEXPR20_CONTAINER _Vector_const_iterator(_Tptr _Parg, const _Container_base* _Pvector) noexcept : _Ptr(_Parg) {

  0000b	8b 5f 08	 mov	 ebx, DWORD PTR [edi+8]
  0000e	8b 77 04	 mov	 esi, DWORD PTR [edi+4]
; File C:\Program Files (x86)\Microsoft Visual Studio\2019\Professional\VC\Tools\MSVC\14.29.30133\include\algorithm

; 270  :     for (; _UFirst != _ULast; ++_UFirst) {

  00011	3b f3		 cmp	 esi, ebx
  00013	74 14		 je	 SHORT $LN19@CDynamicPo
$LL20@CDynamicPo:
; File C:\Users\murat\Desktop\Siveps2-1-99-Project\source\client\Client\eterLib\Pool.h

; 224  : 			::operator delete(pkData);

  00015	ff 36		 push	 DWORD PTR [esi]
  00017	e8 00 00 00 00	 call	 ??3@YAXPAX@Z		; operator delete
; File C:\Program Files (x86)\Microsoft Visual Studio\2019\Professional\VC\Tools\MSVC\14.29.30133\include\algorithm

; 270  :     for (; _UFirst != _ULast; ++_UFirst) {

  0001c	83 c6 04	 add	 esi, 4
; File C:\Users\murat\Desktop\Siveps2-1-99-Project\source\client\Client\eterLib\Pool.h

; 224  : 			::operator delete(pkData);

  0001f	83 c4 04	 add	 esp, 4
; File C:\Program Files (x86)\Microsoft Visual Studio\2019\Professional\VC\Tools\MSVC\14.29.30133\include\algorithm

; 270  :     for (; _UFirst != _ULast; ++_UFirst) {

  00022	3b f3		 cmp	 esi, ebx
  00024	75 ef		 jne	 SHORT $LL20@CDynamicPo
  00026	8b 77 04	 mov	 esi, DWORD PTR [edi+4]
$LN19@CDynamicPo:
; File C:\Users\murat\Desktop\Siveps2-1-99-Project\source\client\Client\eterLib\Pool.h

; 162  : 			m_kVct_pkFree.clear();

  00029	8b 47 10	 mov	 eax, DWORD PTR [edi+16]
  0002c	89 77 08	 mov	 DWORD PTR [edi+8], esi
  0002f	89 47 14	 mov	 DWORD PTR [edi+20], eax
; File C:\Program Files (x86)\Microsoft Visual Studio\2019\Professional\VC\Tools\MSVC\14.29.30133\include\vector

; 1763 :         if (_Myfirst) { // destroy and deallocate old array

  00032	85 c0		 test	 eax, eax
  00034	74 41		 je	 SHORT $LN27@CDynamicPo

; 1764 :             _Destroy(_Myfirst, _Mylast);
; 1765 :             _Getal().deallocate(_Myfirst, static_cast<size_type>(_Myend - _Myfirst));

  00036	8b 4f 18	 mov	 ecx, DWORD PTR [edi+24]
  00039	2b c8		 sub	 ecx, eax
; File C:\Program Files (x86)\Microsoft Visual Studio\2019\Professional\VC\Tools\MSVC\14.29.30133\include\xmemory

; 835  :         _Deallocate<_New_alignof<_Ty>>(_Ptr, sizeof(_Ty) * _Count);

  0003b	83 e1 fc	 and	 ecx, -4			; fffffffcH

; 260  :         if (_Bytes >= _Big_allocation_threshold) { // boost the alignment of big allocations to help autovectorization

  0003e	81 f9 00 10 00
	00		 cmp	 ecx, 4096		; 00001000H
  00044	72 12		 jb	 SHORT $LN43@CDynamicPo

; 158  :     const uintptr_t _Ptr_container   = _Ptr_user[-1];

  00046	8b 50 fc	 mov	 edx, DWORD PTR [eax-4]
  00049	83 c1 23	 add	 ecx, 35			; 00000023H

; 159  : 
; 160  :     // If the following asserts, it likely means that we are performing
; 161  :     // an aligned delete on memory coming from an unaligned allocation.
; 162  :     _STL_ASSERT(_Ptr_user[-2] == _Big_allocation_sentinel, "invalid argument");
; 163  : 
; 164  :     // Extra paranoia on aligned allocation/deallocation; ensure _Ptr_container is
; 165  :     // in range [_Min_back_shift, _Non_user_size]
; 166  : #ifdef _DEBUG
; 167  :     constexpr uintptr_t _Min_back_shift = 2 * sizeof(void*);
; 168  : #else // ^^^ _DEBUG ^^^ // vvv !_DEBUG vvv
; 169  :     constexpr uintptr_t _Min_back_shift = sizeof(void*);
; 170  : #endif // _DEBUG
; 171  :     const uintptr_t _Back_shift = reinterpret_cast<uintptr_t>(_Ptr) - _Ptr_container;

  0004c	2b c2		 sub	 eax, edx

; 172  :     _STL_VERIFY(_Back_shift >= _Min_back_shift && _Back_shift <= _Non_user_size, "invalid argument");

  0004e	83 c0 fc	 add	 eax, -4			; fffffffcH
  00051	83 f8 1f	 cmp	 eax, 31			; 0000001fH
  00054	77 6d		 ja	 SHORT $LN65@CDynamicPo

; 173  :     _Ptr = reinterpret_cast<void*>(_Ptr_container);

  00056	8b c2		 mov	 eax, edx
$LN43@CDynamicPo:

; 264  :         ::operator delete(_Ptr, _Bytes);

  00058	51		 push	 ecx
  00059	50		 push	 eax
  0005a	e8 00 00 00 00	 call	 ??3@YAXPAXI@Z		; operator delete
; File C:\Program Files (x86)\Microsoft Visual Studio\2019\Professional\VC\Tools\MSVC\14.29.30133\include\vector

; 1767 :             _Myfirst = nullptr;

  0005f	c7 47 10 00 00
	00 00		 mov	 DWORD PTR [edi+16], 0
; File C:\Program Files (x86)\Microsoft Visual Studio\2019\Professional\VC\Tools\MSVC\14.29.30133\include\xmemory

; 264  :         ::operator delete(_Ptr, _Bytes);

  00066	83 c4 08	 add	 esp, 8
; File C:\Program Files (x86)\Microsoft Visual Studio\2019\Professional\VC\Tools\MSVC\14.29.30133\include\vector

; 1768 :             _Mylast  = nullptr;

  00069	c7 47 14 00 00
	00 00		 mov	 DWORD PTR [edi+20], 0

; 1769 :             _Myend   = nullptr;

  00070	c7 47 18 00 00
	00 00		 mov	 DWORD PTR [edi+24], 0
$LN27@CDynamicPo:

; 1763 :         if (_Myfirst) { // destroy and deallocate old array

  00077	8b 47 04	 mov	 eax, DWORD PTR [edi+4]
  0007a	85 c0		 test	 eax, eax
  0007c	74 41		 je	 SHORT $LN52@CDynamicPo

; 1764 :             _Destroy(_Myfirst, _Mylast);
; 1765 :             _Getal().deallocate(_Myfirst, static_cast<size_type>(_Myend - _Myfirst));

  0007e	8b 4f 0c	 mov	 ecx, DWORD PTR [edi+12]
  00081	2b c8		 sub	 ecx, eax
; File C:\Program Files (x86)\Microsoft Visual Studio\2019\Professional\VC\Tools\MSVC\14.29.30133\include\xmemory

; 835  :         _Deallocate<_New_alignof<_Ty>>(_Ptr, sizeof(_Ty) * _Count);

  00083	83 e1 fc	 and	 ecx, -4			; fffffffcH

; 260  :         if (_Bytes >= _Big_allocation_threshold) { // boost the alignment of big allocations to help autovectorization

  00086	81 f9 00 10 00
	00		 cmp	 ecx, 4096		; 00001000H
  0008c	72 12		 jb	 SHORT $LN68@CDynamicPo

; 158  :     const uintptr_t _Ptr_container   = _Ptr_user[-1];

  0008e	8b 50 fc	 mov	 edx, DWORD PTR [eax-4]
  00091	83 c1 23	 add	 ecx, 35			; 00000023H

; 159  : 
; 160  :     // If the following asserts, it likely means that we are performing
; 161  :     // an aligned delete on memory coming from an unaligned allocation.
; 162  :     _STL_ASSERT(_Ptr_user[-2] == _Big_allocation_sentinel, "invalid argument");
; 163  : 
; 164  :     // Extra paranoia on aligned allocation/deallocation; ensure _Ptr_container is
; 165  :     // in range [_Min_back_shift, _Non_user_size]
; 166  : #ifdef _DEBUG
; 167  :     constexpr uintptr_t _Min_back_shift = 2 * sizeof(void*);
; 168  : #else // ^^^ _DEBUG ^^^ // vvv !_DEBUG vvv
; 169  :     constexpr uintptr_t _Min_back_shift = sizeof(void*);
; 170  : #endif // _DEBUG
; 171  :     const uintptr_t _Back_shift = reinterpret_cast<uintptr_t>(_Ptr) - _Ptr_container;

  00094	2b c2		 sub	 eax, edx

; 172  :     _STL_VERIFY(_Back_shift >= _Min_back_shift && _Back_shift <= _Non_user_size, "invalid argument");

  00096	83 c0 fc	 add	 eax, -4			; fffffffcH
  00099	83 f8 1f	 cmp	 eax, 31			; 0000001fH
  0009c	77 25		 ja	 SHORT $LN65@CDynamicPo

; 173  :     _Ptr = reinterpret_cast<void*>(_Ptr_container);

  0009e	8b c2		 mov	 eax, edx
$LN68@CDynamicPo:

; 264  :         ::operator delete(_Ptr, _Bytes);

  000a0	51		 push	 ecx
  000a1	50		 push	 eax
  000a2	e8 00 00 00 00	 call	 ??3@YAXPAXI@Z		; operator delete
; File C:\Program Files (x86)\Microsoft Visual Studio\2019\Professional\VC\Tools\MSVC\14.29.30133\include\vector

; 1767 :             _Myfirst = nullptr;

  000a7	c7 47 04 00 00
	00 00		 mov	 DWORD PTR [edi+4], 0
; File C:\Program Files (x86)\Microsoft Visual Studio\2019\Professional\VC\Tools\MSVC\14.29.30133\include\xmemory

; 264  :         ::operator delete(_Ptr, _Bytes);

  000ae	83 c4 08	 add	 esp, 8
; File C:\Program Files (x86)\Microsoft Visual Studio\2019\Professional\VC\Tools\MSVC\14.29.30133\include\vector

; 1768 :             _Mylast  = nullptr;

  000b1	c7 47 08 00 00
	00 00		 mov	 DWORD PTR [edi+8], 0

; 1769 :             _Myend   = nullptr;

  000b8	c7 47 0c 00 00
	00 00		 mov	 DWORD PTR [edi+12], 0
$LN52@CDynamicPo:
  000bf	5f		 pop	 edi
; File C:\Users\murat\Desktop\Siveps2-1-99-Project\source\client\Client\eterLib\Pool.h

; 142  : 		}

  000c0	5e		 pop	 esi
  000c1	5b		 pop	 ebx
  000c2	c3		 ret	 0
$LN65@CDynamicPo:
; File C:\Program Files (x86)\Microsoft Visual Studio\2019\Professional\VC\Tools\MSVC\14.29.30133\include\xmemory

; 172  :     _STL_VERIFY(_Back_shift >= _Min_back_shift && _Back_shift <= _Non_user_size, "invalid argument");

  000c3	e8 00 00 00 00	 call	 __invalid_parameter_noinfo_noreturn
$LN77@CDynamicPo:
  000c8	cc		 int	 3
??1?$CDynamicPoolEx@VCHeaderDecorator@NEffectUpdateDecorator@@@@UAE@XZ ENDP ; CDynamicPoolEx<NEffectUpdateDecorator::CHeaderDecorator>::~CDynamicPoolEx<NEffectUpdateDecorator::CHeaderDecorator>
_TEXT	ENDS
; Function compile flags: /Ogtp
;	COMDAT ??_G?$CDynamicPoolEx@VCNullDecorator@NEffectUpdateDecorator@@@@UAEPAXI@Z
_TEXT	SEGMENT
___flags$ = 8						; size = 4
??_G?$CDynamicPoolEx@VCNullDecorator@NEffectUpdateDecorator@@@@UAEPAXI@Z PROC ; CDynamicPoolEx<NEffectUpdateDecorator::CNullDecorator>::`scalar deleting destructor', COMDAT
; _this$ = ecx
  00000	55		 push	 ebp
  00001	8b ec		 mov	 ebp, esp
  00003	56		 push	 esi
  00004	8b f1		 mov	 esi, ecx
  00006	e8 00 00 00 00	 call	 ??1?$CDynamicPoolEx@VCNullDecorator@NEffectUpdateDecorator@@@@UAE@XZ ; CDynamicPoolEx<NEffectUpdateDecorator::CNullDecorator>::~CDynamicPoolEx<NEffectUpdateDecorator::CNullDecorator>
  0000b	f6 45 08 01	 test	 BYTE PTR ___flags$[ebp], 1
  0000f	74 0b		 je	 SHORT $LN4@scalar
  00011	6a 24		 push	 36			; 00000024H
  00013	56		 push	 esi
  00014	e8 00 00 00 00	 call	 ??3@YAXPAXI@Z		; operator delete
  00019	83 c4 08	 add	 esp, 8
$LN4@scalar:
  0001c	8b c6		 mov	 eax, esi
  0001e	5e		 pop	 esi
  0001f	5d		 pop	 ebp
  00020	c2 04 00	 ret	 4
??_G?$CDynamicPoolEx@VCNullDecorator@NEffectUpdateDecorator@@@@UAEPAXI@Z ENDP ; CDynamicPoolEx<NEffectUpdateDecorator::CNullDecorator>::`scalar deleting destructor'
_TEXT	ENDS
; Function compile flags: /Ogtp
; File C:\Users\murat\Desktop\Siveps2-1-99-Project\source\client\Client\eterLib\Pool.h
;	COMDAT ?Delete@?$CDynamicPoolEx@VCNullDecorator@NEffectUpdateDecorator@@@@KAXPAVCNullDecorator@NEffectUpdateDecorator@@@Z
_TEXT	SEGMENT
_pkData$ = 8						; size = 4
?Delete@?$CDynamicPoolEx@VCNullDecorator@NEffectUpdateDecorator@@@@KAXPAVCNullDecorator@NEffectUpdateDecorator@@@Z PROC ; CDynamicPoolEx<NEffectUpdateDecorator::CNullDecorator>::Delete, COMDAT

; 224  : 			::operator delete(pkData);

  00000	e9 00 00 00 00	 jmp	 ??3@YAXPAX@Z		; operator delete
?Delete@?$CDynamicPoolEx@VCNullDecorator@NEffectUpdateDecorator@@@@KAXPAVCNullDecorator@NEffectUpdateDecorator@@@Z ENDP ; CDynamicPoolEx<NEffectUpdateDecorator::CNullDecorator>::Delete
_TEXT	ENDS
; Function compile flags: /Ogtp
; File C:\Users\murat\Desktop\Siveps2-1-99-Project\source\client\Client\eterLib\Pool.h
; File C:\Program Files (x86)\Microsoft Visual Studio\2019\Professional\VC\Tools\MSVC\14.29.30133\include\vector
; File C:\Program Files (x86)\Microsoft Visual Studio\2019\Professional\VC\Tools\MSVC\14.29.30133\include\algorithm
; File C:\Users\murat\Desktop\Siveps2-1-99-Project\source\client\Client\eterLib\Pool.h
; File C:\Program Files (x86)\Microsoft Visual Studio\2019\Professional\VC\Tools\MSVC\14.29.30133\include\algorithm
; File C:\Users\murat\Desktop\Siveps2-1-99-Project\source\client\Client\eterLib\Pool.h
; File C:\Program Files (x86)\Microsoft Visual Studio\2019\Professional\VC\Tools\MSVC\14.29.30133\include\algorithm
; File C:\Users\murat\Desktop\Siveps2-1-99-Project\source\client\Client\eterLib\Pool.h
; File C:\Program Files (x86)\Microsoft Visual Studio\2019\Professional\VC\Tools\MSVC\14.29.30133\include\vector
; File C:\Program Files (x86)\Microsoft Visual Studio\2019\Professional\VC\Tools\MSVC\14.29.30133\include\xmemory
; File C:\Program Files (x86)\Microsoft Visual Studio\2019\Professional\VC\Tools\MSVC\14.29.30133\include\vector
; File C:\Program Files (x86)\Microsoft Visual Studio\2019\Professional\VC\Tools\MSVC\14.29.30133\include\xmemory
; File C:\Program Files (x86)\Microsoft Visual Studio\2019\Professional\VC\Tools\MSVC\14.29.30133\include\vector
; File C:\Program Files (x86)\Microsoft Visual Studio\2019\Professional\VC\Tools\MSVC\14.29.30133\include\xmemory
; File C:\Program Files (x86)\Microsoft Visual Studio\2019\Professional\VC\Tools\MSVC\14.29.30133\include\vector
; File C:\Program Files (x86)\Microsoft Visual Studio\2019\Professional\VC\Tools\MSVC\14.29.30133\include\xmemory
; File C:\Program Files (x86)\Microsoft Visual Studio\2019\Professional\VC\Tools\MSVC\14.29.30133\include\vector
; File C:\Users\murat\Desktop\Siveps2-1-99-Project\source\client\Client\eterLib\Pool.h
; File C:\Program Files (x86)\Microsoft Visual Studio\2019\Professional\VC\Tools\MSVC\14.29.30133\include\xmemory
; File C:\Users\murat\Desktop\Siveps2-1-99-Project\source\client\Client\eterLib\Pool.h
;	COMDAT ??1?$CDynamicPoolEx@VCNullDecorator@NEffectUpdateDecorator@@@@UAE@XZ
_TEXT	SEGMENT
??1?$CDynamicPoolEx@VCNullDecorator@NEffectUpdateDecorator@@@@UAE@XZ PROC ; CDynamicPoolEx<NEffectUpdateDecorator::CNullDecorator>::~CDynamicPoolEx<NEffectUpdateDecorator::CNullDecorator>, COMDAT
; _this$ = ecx

; 132  : 		{

  00000	53		 push	 ebx
  00001	56		 push	 esi
  00002	57		 push	 edi
  00003	8b f9		 mov	 edi, ecx
  00005	c7 07 00 00 00
	00		 mov	 DWORD PTR [edi], OFFSET ??_7?$CDynamicPoolEx@VCNullDecorator@NEffectUpdateDecorator@@@@6B@
; File C:\Program Files (x86)\Microsoft Visual Studio\2019\Professional\VC\Tools\MSVC\14.29.30133\include\vector

; 42   :     _CONSTEXPR20_CONTAINER _Vector_const_iterator(_Tptr _Parg, const _Container_base* _Pvector) noexcept : _Ptr(_Parg) {

  0000b	8b 5f 08	 mov	 ebx, DWORD PTR [edi+8]
  0000e	8b 77 04	 mov	 esi, DWORD PTR [edi+4]
; File C:\Program Files (x86)\Microsoft Visual Studio\2019\Professional\VC\Tools\MSVC\14.29.30133\include\algorithm

; 270  :     for (; _UFirst != _ULast; ++_UFirst) {

  00011	3b f3		 cmp	 esi, ebx
  00013	74 14		 je	 SHORT $LN19@CDynamicPo
$LL20@CDynamicPo:
; File C:\Users\murat\Desktop\Siveps2-1-99-Project\source\client\Client\eterLib\Pool.h

; 224  : 			::operator delete(pkData);

  00015	ff 36		 push	 DWORD PTR [esi]
  00017	e8 00 00 00 00	 call	 ??3@YAXPAX@Z		; operator delete
; File C:\Program Files (x86)\Microsoft Visual Studio\2019\Professional\VC\Tools\MSVC\14.29.30133\include\algorithm

; 270  :     for (; _UFirst != _ULast; ++_UFirst) {

  0001c	83 c6 04	 add	 esi, 4
; File C:\Users\murat\Desktop\Siveps2-1-99-Project\source\client\Client\eterLib\Pool.h

; 224  : 			::operator delete(pkData);

  0001f	83 c4 04	 add	 esp, 4
; File C:\Program Files (x86)\Microsoft Visual Studio\2019\Professional\VC\Tools\MSVC\14.29.30133\include\algorithm

; 270  :     for (; _UFirst != _ULast; ++_UFirst) {

  00022	3b f3		 cmp	 esi, ebx
  00024	75 ef		 jne	 SHORT $LL20@CDynamicPo
  00026	8b 77 04	 mov	 esi, DWORD PTR [edi+4]
$LN19@CDynamicPo:
; File C:\Users\murat\Desktop\Siveps2-1-99-Project\source\client\Client\eterLib\Pool.h

; 162  : 			m_kVct_pkFree.clear();

  00029	8b 47 10	 mov	 eax, DWORD PTR [edi+16]
  0002c	89 77 08	 mov	 DWORD PTR [edi+8], esi
  0002f	89 47 14	 mov	 DWORD PTR [edi+20], eax
; File C:\Program Files (x86)\Microsoft Visual Studio\2019\Professional\VC\Tools\MSVC\14.29.30133\include\vector

; 1763 :         if (_Myfirst) { // destroy and deallocate old array

  00032	85 c0		 test	 eax, eax
  00034	74 41		 je	 SHORT $LN27@CDynamicPo

; 1764 :             _Destroy(_Myfirst, _Mylast);
; 1765 :             _Getal().deallocate(_Myfirst, static_cast<size_type>(_Myend - _Myfirst));

  00036	8b 4f 18	 mov	 ecx, DWORD PTR [edi+24]
  00039	2b c8		 sub	 ecx, eax
; File C:\Program Files (x86)\Microsoft Visual Studio\2019\Professional\VC\Tools\MSVC\14.29.30133\include\xmemory

; 835  :         _Deallocate<_New_alignof<_Ty>>(_Ptr, sizeof(_Ty) * _Count);

  0003b	83 e1 fc	 and	 ecx, -4			; fffffffcH

; 260  :         if (_Bytes >= _Big_allocation_threshold) { // boost the alignment of big allocations to help autovectorization

  0003e	81 f9 00 10 00
	00		 cmp	 ecx, 4096		; 00001000H
  00044	72 12		 jb	 SHORT $LN43@CDynamicPo

; 158  :     const uintptr_t _Ptr_container   = _Ptr_user[-1];

  00046	8b 50 fc	 mov	 edx, DWORD PTR [eax-4]
  00049	83 c1 23	 add	 ecx, 35			; 00000023H

; 159  : 
; 160  :     // If the following asserts, it likely means that we are performing
; 161  :     // an aligned delete on memory coming from an unaligned allocation.
; 162  :     _STL_ASSERT(_Ptr_user[-2] == _Big_allocation_sentinel, "invalid argument");
; 163  : 
; 164  :     // Extra paranoia on aligned allocation/deallocation; ensure _Ptr_container is
; 165  :     // in range [_Min_back_shift, _Non_user_size]
; 166  : #ifdef _DEBUG
; 167  :     constexpr uintptr_t _Min_back_shift = 2 * sizeof(void*);
; 168  : #else // ^^^ _DEBUG ^^^ // vvv !_DEBUG vvv
; 169  :     constexpr uintptr_t _Min_back_shift = sizeof(void*);
; 170  : #endif // _DEBUG
; 171  :     const uintptr_t _Back_shift = reinterpret_cast<uintptr_t>(_Ptr) - _Ptr_container;

  0004c	2b c2		 sub	 eax, edx

; 172  :     _STL_VERIFY(_Back_shift >= _Min_back_shift && _Back_shift <= _Non_user_size, "invalid argument");

  0004e	83 c0 fc	 add	 eax, -4			; fffffffcH
  00051	83 f8 1f	 cmp	 eax, 31			; 0000001fH
  00054	77 6d		 ja	 SHORT $LN65@CDynamicPo

; 173  :     _Ptr = reinterpret_cast<void*>(_Ptr_container);

  00056	8b c2		 mov	 eax, edx
$LN43@CDynamicPo:

; 264  :         ::operator delete(_Ptr, _Bytes);

  00058	51		 push	 ecx
  00059	50		 push	 eax
  0005a	e8 00 00 00 00	 call	 ??3@YAXPAXI@Z		; operator delete
; File C:\Program Files (x86)\Microsoft Visual Studio\2019\Professional\VC\Tools\MSVC\14.29.30133\include\vector

; 1767 :             _Myfirst = nullptr;

  0005f	c7 47 10 00 00
	00 00		 mov	 DWORD PTR [edi+16], 0
; File C:\Program Files (x86)\Microsoft Visual Studio\2019\Professional\VC\Tools\MSVC\14.29.30133\include\xmemory

; 264  :         ::operator delete(_Ptr, _Bytes);

  00066	83 c4 08	 add	 esp, 8
; File C:\Program Files (x86)\Microsoft Visual Studio\2019\Professional\VC\Tools\MSVC\14.29.30133\include\vector

; 1768 :             _Mylast  = nullptr;

  00069	c7 47 14 00 00
	00 00		 mov	 DWORD PTR [edi+20], 0

; 1769 :             _Myend   = nullptr;

  00070	c7 47 18 00 00
	00 00		 mov	 DWORD PTR [edi+24], 0
$LN27@CDynamicPo:

; 1763 :         if (_Myfirst) { // destroy and deallocate old array

  00077	8b 47 04	 mov	 eax, DWORD PTR [edi+4]
  0007a	85 c0		 test	 eax, eax
  0007c	74 41		 je	 SHORT $LN52@CDynamicPo

; 1764 :             _Destroy(_Myfirst, _Mylast);
; 1765 :             _Getal().deallocate(_Myfirst, static_cast<size_type>(_Myend - _Myfirst));

  0007e	8b 4f 0c	 mov	 ecx, DWORD PTR [edi+12]
  00081	2b c8		 sub	 ecx, eax
; File C:\Program Files (x86)\Microsoft Visual Studio\2019\Professional\VC\Tools\MSVC\14.29.30133\include\xmemory

; 835  :         _Deallocate<_New_alignof<_Ty>>(_Ptr, sizeof(_Ty) * _Count);

  00083	83 e1 fc	 and	 ecx, -4			; fffffffcH

; 260  :         if (_Bytes >= _Big_allocation_threshold) { // boost the alignment of big allocations to help autovectorization

  00086	81 f9 00 10 00
	00		 cmp	 ecx, 4096		; 00001000H
  0008c	72 12		 jb	 SHORT $LN68@CDynamicPo

; 158  :     const uintptr_t _Ptr_container   = _Ptr_user[-1];

  0008e	8b 50 fc	 mov	 edx, DWORD PTR [eax-4]
  00091	83 c1 23	 add	 ecx, 35			; 00000023H

; 159  : 
; 160  :     // If the following asserts, it likely means that we are performing
; 161  :     // an aligned delete on memory coming from an unaligned allocation.
; 162  :     _STL_ASSERT(_Ptr_user[-2] == _Big_allocation_sentinel, "invalid argument");
; 163  : 
; 164  :     // Extra paranoia on aligned allocation/deallocation; ensure _Ptr_container is
; 165  :     // in range [_Min_back_shift, _Non_user_size]
; 166  : #ifdef _DEBUG
; 167  :     constexpr uintptr_t _Min_back_shift = 2 * sizeof(void*);
; 168  : #else // ^^^ _DEBUG ^^^ // vvv !_DEBUG vvv
; 169  :     constexpr uintptr_t _Min_back_shift = sizeof(void*);
; 170  : #endif // _DEBUG
; 171  :     const uintptr_t _Back_shift = reinterpret_cast<uintptr_t>(_Ptr) - _Ptr_container;

  00094	2b c2		 sub	 eax, edx

; 172  :     _STL_VERIFY(_Back_shift >= _Min_back_shift && _Back_shift <= _Non_user_size, "invalid argument");

  00096	83 c0 fc	 add	 eax, -4			; fffffffcH
  00099	83 f8 1f	 cmp	 eax, 31			; 0000001fH
  0009c	77 25		 ja	 SHORT $LN65@CDynamicPo

; 173  :     _Ptr = reinterpret_cast<void*>(_Ptr_container);

  0009e	8b c2		 mov	 eax, edx
$LN68@CDynamicPo:

; 264  :         ::operator delete(_Ptr, _Bytes);

  000a0	51		 push	 ecx
  000a1	50		 push	 eax
  000a2	e8 00 00 00 00	 call	 ??3@YAXPAXI@Z		; operator delete
; File C:\Program Files (x86)\Microsoft Visual Studio\2019\Professional\VC\Tools\MSVC\14.29.30133\include\vector

; 1767 :             _Myfirst = nullptr;

  000a7	c7 47 04 00 00
	00 00		 mov	 DWORD PTR [edi+4], 0
; File C:\Program Files (x86)\Microsoft Visual Studio\2019\Professional\VC\Tools\MSVC\14.29.30133\include\xmemory

; 264  :         ::operator delete(_Ptr, _Bytes);

  000ae	83 c4 08	 add	 esp, 8
; File C:\Program Files (x86)\Microsoft Visual Studio\2019\Professional\VC\Tools\MSVC\14.29.30133\include\vector

; 1768 :             _Mylast  = nullptr;

  000b1	c7 47 08 00 00
	00 00		 mov	 DWORD PTR [edi+8], 0

; 1769 :             _Myend   = nullptr;

  000b8	c7 47 0c 00 00
	00 00		 mov	 DWORD PTR [edi+12], 0
$LN52@CDynamicPo:
  000bf	5f		 pop	 edi
; File C:\Users\murat\Desktop\Siveps2-1-99-Project\source\client\Client\eterLib\Pool.h

; 142  : 		}

  000c0	5e		 pop	 esi
  000c1	5b		 pop	 ebx
  000c2	c3		 ret	 0
$LN65@CDynamicPo:
; File C:\Program Files (x86)\Microsoft Visual Studio\2019\Professional\VC\Tools\MSVC\14.29.30133\include\xmemory

; 172  :     _STL_VERIFY(_Back_shift >= _Min_back_shift && _Back_shift <= _Non_user_size, "invalid argument");

  000c3	e8 00 00 00 00	 call	 __invalid_parameter_noinfo_noreturn
$LN77@CDynamicPo:
  000c8	cc		 int	 3
??1?$CDynamicPoolEx@VCNullDecorator@NEffectUpdateDecorator@@@@UAE@XZ ENDP ; CDynamicPoolEx<NEffectUpdateDecorator::CNullDecorator>::~CDynamicPoolEx<NEffectUpdateDecorator::CNullDecorator>
_TEXT	ENDS
; Function compile flags: /Ogtp
;	COMDAT ??_G?$CDynamicPoolEx@VCTextureAnimationCWDecorator@NEffectUpdateDecorator@@@@UAEPAXI@Z
_TEXT	SEGMENT
___flags$ = 8						; size = 4
??_G?$CDynamicPoolEx@VCTextureAnimationCWDecorator@NEffectUpdateDecorator@@@@UAEPAXI@Z PROC ; CDynamicPoolEx<NEffectUpdateDecorator::CTextureAnimationCWDecorator>::`scalar deleting destructor', COMDAT
; _this$ = ecx
  00000	55		 push	 ebp
  00001	8b ec		 mov	 ebp, esp
  00003	56		 push	 esi
  00004	8b f1		 mov	 esi, ecx
  00006	e8 00 00 00 00	 call	 ??1?$CDynamicPoolEx@VCTextureAnimationCWDecorator@NEffectUpdateDecorator@@@@UAE@XZ ; CDynamicPoolEx<NEffectUpdateDecorator::CTextureAnimationCWDecorator>::~CDynamicPoolEx<NEffectUpdateDecorator::CTextureAnimationCWDecorator>
  0000b	f6 45 08 01	 test	 BYTE PTR ___flags$[ebp], 1
  0000f	74 0b		 je	 SHORT $LN4@scalar
  00011	6a 24		 push	 36			; 00000024H
  00013	56		 push	 esi
  00014	e8 00 00 00 00	 call	 ??3@YAXPAXI@Z		; operator delete
  00019	83 c4 08	 add	 esp, 8
$LN4@scalar:
  0001c	8b c6		 mov	 eax, esi
  0001e	5e		 pop	 esi
  0001f	5d		 pop	 ebp
  00020	c2 04 00	 ret	 4
??_G?$CDynamicPoolEx@VCTextureAnimationCWDecorator@NEffectUpdateDecorator@@@@UAEPAXI@Z ENDP ; CDynamicPoolEx<NEffectUpdateDecorator::CTextureAnimationCWDecorator>::`scalar deleting destructor'
_TEXT	ENDS
; Function compile flags: /Ogtp
; File C:\Users\murat\Desktop\Siveps2-1-99-Project\source\client\Client\eterLib\Pool.h
;	COMDAT ?Delete@?$CDynamicPoolEx@VCTextureAnimationCWDecorator@NEffectUpdateDecorator@@@@KAXPAVCTextureAnimationCWDecorator@NEffectUpdateDecorator@@@Z
_TEXT	SEGMENT
_pkData$ = 8						; size = 4
?Delete@?$CDynamicPoolEx@VCTextureAnimationCWDecorator@NEffectUpdateDecorator@@@@KAXPAVCTextureAnimationCWDecorator@NEffectUpdateDecorator@@@Z PROC ; CDynamicPoolEx<NEffectUpdateDecorator::CTextureAnimationCWDecorator>::Delete, COMDAT

; 224  : 			::operator delete(pkData);

  00000	e9 00 00 00 00	 jmp	 ??3@YAXPAX@Z		; operator delete
?Delete@?$CDynamicPoolEx@VCTextureAnimationCWDecorator@NEffectUpdateDecorator@@@@KAXPAVCTextureAnimationCWDecorator@NEffectUpdateDecorator@@@Z ENDP ; CDynamicPoolEx<NEffectUpdateDecorator::CTextureAnimationCWDecorator>::Delete
_TEXT	ENDS
; Function compile flags: /Ogtp
; File C:\Users\murat\Desktop\Siveps2-1-99-Project\source\client\Client\eterLib\Pool.h
; File C:\Program Files (x86)\Microsoft Visual Studio\2019\Professional\VC\Tools\MSVC\14.29.30133\include\vector
; File C:\Program Files (x86)\Microsoft Visual Studio\2019\Professional\VC\Tools\MSVC\14.29.30133\include\algorithm
; File C:\Users\murat\Desktop\Siveps2-1-99-Project\source\client\Client\eterLib\Pool.h
; File C:\Program Files (x86)\Microsoft Visual Studio\2019\Professional\VC\Tools\MSVC\14.29.30133\include\algorithm
; File C:\Users\murat\Desktop\Siveps2-1-99-Project\source\client\Client\eterLib\Pool.h
; File C:\Program Files (x86)\Microsoft Visual Studio\2019\Professional\VC\Tools\MSVC\14.29.30133\include\algorithm
; File C:\Users\murat\Desktop\Siveps2-1-99-Project\source\client\Client\eterLib\Pool.h
; File C:\Program Files (x86)\Microsoft Visual Studio\2019\Professional\VC\Tools\MSVC\14.29.30133\include\vector
; File C:\Program Files (x86)\Microsoft Visual Studio\2019\Professional\VC\Tools\MSVC\14.29.30133\include\xmemory
; File C:\Program Files (x86)\Microsoft Visual Studio\2019\Professional\VC\Tools\MSVC\14.29.30133\include\vector
; File C:\Program Files (x86)\Microsoft Visual Studio\2019\Professional\VC\Tools\MSVC\14.29.30133\include\xmemory
; File C:\Program Files (x86)\Microsoft Visual Studio\2019\Professional\VC\Tools\MSVC\14.29.30133\include\vector
; File C:\Program Files (x86)\Microsoft Visual Studio\2019\Professional\VC\Tools\MSVC\14.29.30133\include\xmemory
; File C:\Program Files (x86)\Microsoft Visual Studio\2019\Professional\VC\Tools\MSVC\14.29.30133\include\vector
; File C:\Program Files (x86)\Microsoft Visual Studio\2019\Professional\VC\Tools\MSVC\14.29.30133\include\xmemory
; File C:\Program Files (x86)\Microsoft Visual Studio\2019\Professional\VC\Tools\MSVC\14.29.30133\include\vector
; File C:\Users\murat\Desktop\Siveps2-1-99-Project\source\client\Client\eterLib\Pool.h
; File C:\Program Files (x86)\Microsoft Visual Studio\2019\Professional\VC\Tools\MSVC\14.29.30133\include\xmemory
; File C:\Users\murat\Desktop\Siveps2-1-99-Project\source\client\Client\eterLib\Pool.h
;	COMDAT ??1?$CDynamicPoolEx@VCTextureAnimationCWDecorator@NEffectUpdateDecorator@@@@UAE@XZ
_TEXT	SEGMENT
??1?$CDynamicPoolEx@VCTextureAnimationCWDecorator@NEffectUpdateDecorator@@@@UAE@XZ PROC ; CDynamicPoolEx<NEffectUpdateDecorator::CTextureAnimationCWDecorator>::~CDynamicPoolEx<NEffectUpdateDecorator::CTextureAnimationCWDecorator>, COMDAT
; _this$ = ecx

; 132  : 		{

  00000	53		 push	 ebx
  00001	56		 push	 esi
  00002	57		 push	 edi
  00003	8b f9		 mov	 edi, ecx
  00005	c7 07 00 00 00
	00		 mov	 DWORD PTR [edi], OFFSET ??_7?$CDynamicPoolEx@VCTextureAnimationCWDecorator@NEffectUpdateDecorator@@@@6B@
; File C:\Program Files (x86)\Microsoft Visual Studio\2019\Professional\VC\Tools\MSVC\14.29.30133\include\vector

; 42   :     _CONSTEXPR20_CONTAINER _Vector_const_iterator(_Tptr _Parg, const _Container_base* _Pvector) noexcept : _Ptr(_Parg) {

  0000b	8b 5f 08	 mov	 ebx, DWORD PTR [edi+8]
  0000e	8b 77 04	 mov	 esi, DWORD PTR [edi+4]
; File C:\Program Files (x86)\Microsoft Visual Studio\2019\Professional\VC\Tools\MSVC\14.29.30133\include\algorithm

; 270  :     for (; _UFirst != _ULast; ++_UFirst) {

  00011	3b f3		 cmp	 esi, ebx
  00013	74 14		 je	 SHORT $LN19@CDynamicPo
$LL20@CDynamicPo:
; File C:\Users\murat\Desktop\Siveps2-1-99-Project\source\client\Client\eterLib\Pool.h

; 224  : 			::operator delete(pkData);

  00015	ff 36		 push	 DWORD PTR [esi]
  00017	e8 00 00 00 00	 call	 ??3@YAXPAX@Z		; operator delete
; File C:\Program Files (x86)\Microsoft Visual Studio\2019\Professional\VC\Tools\MSVC\14.29.30133\include\algorithm

; 270  :     for (; _UFirst != _ULast; ++_UFirst) {

  0001c	83 c6 04	 add	 esi, 4
; File C:\Users\murat\Desktop\Siveps2-1-99-Project\source\client\Client\eterLib\Pool.h

; 224  : 			::operator delete(pkData);

  0001f	83 c4 04	 add	 esp, 4
; File C:\Program Files (x86)\Microsoft Visual Studio\2019\Professional\VC\Tools\MSVC\14.29.30133\include\algorithm

; 270  :     for (; _UFirst != _ULast; ++_UFirst) {

  00022	3b f3		 cmp	 esi, ebx
  00024	75 ef		 jne	 SHORT $LL20@CDynamicPo
  00026	8b 77 04	 mov	 esi, DWORD PTR [edi+4]
$LN19@CDynamicPo:
; File C:\Users\murat\Desktop\Siveps2-1-99-Project\source\client\Client\eterLib\Pool.h

; 162  : 			m_kVct_pkFree.clear();

  00029	8b 47 10	 mov	 eax, DWORD PTR [edi+16]
  0002c	89 77 08	 mov	 DWORD PTR [edi+8], esi
  0002f	89 47 14	 mov	 DWORD PTR [edi+20], eax
; File C:\Program Files (x86)\Microsoft Visual Studio\2019\Professional\VC\Tools\MSVC\14.29.30133\include\vector

; 1763 :         if (_Myfirst) { // destroy and deallocate old array

  00032	85 c0		 test	 eax, eax
  00034	74 41		 je	 SHORT $LN27@CDynamicPo

; 1764 :             _Destroy(_Myfirst, _Mylast);
; 1765 :             _Getal().deallocate(_Myfirst, static_cast<size_type>(_Myend - _Myfirst));

  00036	8b 4f 18	 mov	 ecx, DWORD PTR [edi+24]
  00039	2b c8		 sub	 ecx, eax
; File C:\Program Files (x86)\Microsoft Visual Studio\2019\Professional\VC\Tools\MSVC\14.29.30133\include\xmemory

; 835  :         _Deallocate<_New_alignof<_Ty>>(_Ptr, sizeof(_Ty) * _Count);

  0003b	83 e1 fc	 and	 ecx, -4			; fffffffcH

; 260  :         if (_Bytes >= _Big_allocation_threshold) { // boost the alignment of big allocations to help autovectorization

  0003e	81 f9 00 10 00
	00		 cmp	 ecx, 4096		; 00001000H
  00044	72 12		 jb	 SHORT $LN43@CDynamicPo

; 158  :     const uintptr_t _Ptr_container   = _Ptr_user[-1];

  00046	8b 50 fc	 mov	 edx, DWORD PTR [eax-4]
  00049	83 c1 23	 add	 ecx, 35			; 00000023H

; 159  : 
; 160  :     // If the following asserts, it likely means that we are performing
; 161  :     // an aligned delete on memory coming from an unaligned allocation.
; 162  :     _STL_ASSERT(_Ptr_user[-2] == _Big_allocation_sentinel, "invalid argument");
; 163  : 
; 164  :     // Extra paranoia on aligned allocation/deallocation; ensure _Ptr_container is
; 165  :     // in range [_Min_back_shift, _Non_user_size]
; 166  : #ifdef _DEBUG
; 167  :     constexpr uintptr_t _Min_back_shift = 2 * sizeof(void*);
; 168  : #else // ^^^ _DEBUG ^^^ // vvv !_DEBUG vvv
; 169  :     constexpr uintptr_t _Min_back_shift = sizeof(void*);
; 170  : #endif // _DEBUG
; 171  :     const uintptr_t _Back_shift = reinterpret_cast<uintptr_t>(_Ptr) - _Ptr_container;

  0004c	2b c2		 sub	 eax, edx

; 172  :     _STL_VERIFY(_Back_shift >= _Min_back_shift && _Back_shift <= _Non_user_size, "invalid argument");

  0004e	83 c0 fc	 add	 eax, -4			; fffffffcH
  00051	83 f8 1f	 cmp	 eax, 31			; 0000001fH
  00054	77 6d		 ja	 SHORT $LN65@CDynamicPo

; 173  :     _Ptr = reinterpret_cast<void*>(_Ptr_container);

  00056	8b c2		 mov	 eax, edx
$LN43@CDynamicPo:

; 264  :         ::operator delete(_Ptr, _Bytes);

  00058	51		 push	 ecx
  00059	50		 push	 eax
  0005a	e8 00 00 00 00	 call	 ??3@YAXPAXI@Z		; operator delete
; File C:\Program Files (x86)\Microsoft Visual Studio\2019\Professional\VC\Tools\MSVC\14.29.30133\include\vector

; 1767 :             _Myfirst = nullptr;

  0005f	c7 47 10 00 00
	00 00		 mov	 DWORD PTR [edi+16], 0
; File C:\Program Files (x86)\Microsoft Visual Studio\2019\Professional\VC\Tools\MSVC\14.29.30133\include\xmemory

; 264  :         ::operator delete(_Ptr, _Bytes);

  00066	83 c4 08	 add	 esp, 8
; File C:\Program Files (x86)\Microsoft Visual Studio\2019\Professional\VC\Tools\MSVC\14.29.30133\include\vector

; 1768 :             _Mylast  = nullptr;

  00069	c7 47 14 00 00
	00 00		 mov	 DWORD PTR [edi+20], 0

; 1769 :             _Myend   = nullptr;

  00070	c7 47 18 00 00
	00 00		 mov	 DWORD PTR [edi+24], 0
$LN27@CDynamicPo:

; 1763 :         if (_Myfirst) { // destroy and deallocate old array

  00077	8b 47 04	 mov	 eax, DWORD PTR [edi+4]
  0007a	85 c0		 test	 eax, eax
  0007c	74 41		 je	 SHORT $LN52@CDynamicPo

; 1764 :             _Destroy(_Myfirst, _Mylast);
; 1765 :             _Getal().deallocate(_Myfirst, static_cast<size_type>(_Myend - _Myfirst));

  0007e	8b 4f 0c	 mov	 ecx, DWORD PTR [edi+12]
  00081	2b c8		 sub	 ecx, eax
; File C:\Program Files (x86)\Microsoft Visual Studio\2019\Professional\VC\Tools\MSVC\14.29.30133\include\xmemory

; 835  :         _Deallocate<_New_alignof<_Ty>>(_Ptr, sizeof(_Ty) * _Count);

  00083	83 e1 fc	 and	 ecx, -4			; fffffffcH

; 260  :         if (_Bytes >= _Big_allocation_threshold) { // boost the alignment of big allocations to help autovectorization

  00086	81 f9 00 10 00
	00		 cmp	 ecx, 4096		; 00001000H
  0008c	72 12		 jb	 SHORT $LN68@CDynamicPo

; 158  :     const uintptr_t _Ptr_container   = _Ptr_user[-1];

  0008e	8b 50 fc	 mov	 edx, DWORD PTR [eax-4]
  00091	83 c1 23	 add	 ecx, 35			; 00000023H

; 159  : 
; 160  :     // If the following asserts, it likely means that we are performing
; 161  :     // an aligned delete on memory coming from an unaligned allocation.
; 162  :     _STL_ASSERT(_Ptr_user[-2] == _Big_allocation_sentinel, "invalid argument");
; 163  : 
; 164  :     // Extra paranoia on aligned allocation/deallocation; ensure _Ptr_container is
; 165  :     // in range [_Min_back_shift, _Non_user_size]
; 166  : #ifdef _DEBUG
; 167  :     constexpr uintptr_t _Min_back_shift = 2 * sizeof(void*);
; 168  : #else // ^^^ _DEBUG ^^^ // vvv !_DEBUG vvv
; 169  :     constexpr uintptr_t _Min_back_shift = sizeof(void*);
; 170  : #endif // _DEBUG
; 171  :     const uintptr_t _Back_shift = reinterpret_cast<uintptr_t>(_Ptr) - _Ptr_container;

  00094	2b c2		 sub	 eax, edx

; 172  :     _STL_VERIFY(_Back_shift >= _Min_back_shift && _Back_shift <= _Non_user_size, "invalid argument");

  00096	83 c0 fc	 add	 eax, -4			; fffffffcH
  00099	83 f8 1f	 cmp	 eax, 31			; 0000001fH
  0009c	77 25		 ja	 SHORT $LN65@CDynamicPo

; 173  :     _Ptr = reinterpret_cast<void*>(_Ptr_container);

  0009e	8b c2		 mov	 eax, edx
$LN68@CDynamicPo:

; 264  :         ::operator delete(_Ptr, _Bytes);

  000a0	51		 push	 ecx
  000a1	50		 push	 eax
  000a2	e8 00 00 00 00	 call	 ??3@YAXPAXI@Z		; operator delete
; File C:\Program Files (x86)\Microsoft Visual Studio\2019\Professional\VC\Tools\MSVC\14.29.30133\include\vector

; 1767 :             _Myfirst = nullptr;

  000a7	c7 47 04 00 00
	00 00		 mov	 DWORD PTR [edi+4], 0
; File C:\Program Files (x86)\Microsoft Visual Studio\2019\Professional\VC\Tools\MSVC\14.29.30133\include\xmemory

; 264  :         ::operator delete(_Ptr, _Bytes);

  000ae	83 c4 08	 add	 esp, 8
; File C:\Program Files (x86)\Microsoft Visual Studio\2019\Professional\VC\Tools\MSVC\14.29.30133\include\vector

; 1768 :             _Mylast  = nullptr;

  000b1	c7 47 08 00 00
	00 00		 mov	 DWORD PTR [edi+8], 0

; 1769 :             _Myend   = nullptr;

  000b8	c7 47 0c 00 00
	00 00		 mov	 DWORD PTR [edi+12], 0
$LN52@CDynamicPo:
  000bf	5f		 pop	 edi
; File C:\Users\murat\Desktop\Siveps2-1-99-Project\source\client\Client\eterLib\Pool.h

; 142  : 		}

  000c0	5e		 pop	 esi
  000c1	5b		 pop	 ebx
  000c2	c3		 ret	 0
$LN65@CDynamicPo:
; File C:\Program Files (x86)\Microsoft Visual Studio\2019\Professional\VC\Tools\MSVC\14.29.30133\include\xmemory

; 172  :     _STL_VERIFY(_Back_shift >= _Min_back_shift && _Back_shift <= _Non_user_size, "invalid argument");

  000c3	e8 00 00 00 00	 call	 __invalid_parameter_noinfo_noreturn
$LN77@CDynamicPo:
  000c8	cc		 int	 3
??1?$CDynamicPoolEx@VCTextureAnimationCWDecorator@NEffectUpdateDecorator@@@@UAE@XZ ENDP ; CDynamicPoolEx<NEffectUpdateDecorator::CTextureAnimationCWDecorator>::~CDynamicPoolEx<NEffectUpdateDecorator::CTextureAnimationCWDecorator>
_TEXT	ENDS
; Function compile flags: /Ogtp
;	COMDAT ??_G?$CDynamicPoolEx@VCTextureAnimationCCWDecorator@NEffectUpdateDecorator@@@@UAEPAXI@Z
_TEXT	SEGMENT
___flags$ = 8						; size = 4
??_G?$CDynamicPoolEx@VCTextureAnimationCCWDecorator@NEffectUpdateDecorator@@@@UAEPAXI@Z PROC ; CDynamicPoolEx<NEffectUpdateDecorator::CTextureAnimationCCWDecorator>::`scalar deleting destructor', COMDAT
; _this$ = ecx
  00000	55		 push	 ebp
  00001	8b ec		 mov	 ebp, esp
  00003	56		 push	 esi
  00004	8b f1		 mov	 esi, ecx
  00006	e8 00 00 00 00	 call	 ??1?$CDynamicPoolEx@VCTextureAnimationCCWDecorator@NEffectUpdateDecorator@@@@UAE@XZ ; CDynamicPoolEx<NEffectUpdateDecorator::CTextureAnimationCCWDecorator>::~CDynamicPoolEx<NEffectUpdateDecorator::CTextureAnimationCCWDecorator>
  0000b	f6 45 08 01	 test	 BYTE PTR ___flags$[ebp], 1
  0000f	74 0b		 je	 SHORT $LN4@scalar
  00011	6a 24		 push	 36			; 00000024H
  00013	56		 push	 esi
  00014	e8 00 00 00 00	 call	 ??3@YAXPAXI@Z		; operator delete
  00019	83 c4 08	 add	 esp, 8
$LN4@scalar:
  0001c	8b c6		 mov	 eax, esi
  0001e	5e		 pop	 esi
  0001f	5d		 pop	 ebp
  00020	c2 04 00	 ret	 4
??_G?$CDynamicPoolEx@VCTextureAnimationCCWDecorator@NEffectUpdateDecorator@@@@UAEPAXI@Z ENDP ; CDynamicPoolEx<NEffectUpdateDecorator::CTextureAnimationCCWDecorator>::`scalar deleting destructor'
_TEXT	ENDS
; Function compile flags: /Ogtp
; File C:\Users\murat\Desktop\Siveps2-1-99-Project\source\client\Client\eterLib\Pool.h
;	COMDAT ?Delete@?$CDynamicPoolEx@VCTextureAnimationCCWDecorator@NEffectUpdateDecorator@@@@KAXPAVCTextureAnimationCCWDecorator@NEffectUpdateDecorator@@@Z
_TEXT	SEGMENT
_pkData$ = 8						; size = 4
?Delete@?$CDynamicPoolEx@VCTextureAnimationCCWDecorator@NEffectUpdateDecorator@@@@KAXPAVCTextureAnimationCCWDecorator@NEffectUpdateDecorator@@@Z PROC ; CDynamicPoolEx<NEffectUpdateDecorator::CTextureAnimationCCWDecorator>::Delete, COMDAT

; 224  : 			::operator delete(pkData);

  00000	e9 00 00 00 00	 jmp	 ??3@YAXPAX@Z		; operator delete
?Delete@?$CDynamicPoolEx@VCTextureAnimationCCWDecorator@NEffectUpdateDecorator@@@@KAXPAVCTextureAnimationCCWDecorator@NEffectUpdateDecorator@@@Z ENDP ; CDynamicPoolEx<NEffectUpdateDecorator::CTextureAnimationCCWDecorator>::Delete
_TEXT	ENDS
; Function compile flags: /Ogtp
; File C:\Users\murat\Desktop\Siveps2-1-99-Project\source\client\Client\eterLib\Pool.h
; File C:\Program Files (x86)\Microsoft Visual Studio\2019\Professional\VC\Tools\MSVC\14.29.30133\include\vector
; File C:\Program Files (x86)\Microsoft Visual Studio\2019\Professional\VC\Tools\MSVC\14.29.30133\include\algorithm
; File C:\Users\murat\Desktop\Siveps2-1-99-Project\source\client\Client\eterLib\Pool.h
; File C:\Program Files (x86)\Microsoft Visual Studio\2019\Professional\VC\Tools\MSVC\14.29.30133\include\algorithm
; File C:\Users\murat\Desktop\Siveps2-1-99-Project\source\client\Client\eterLib\Pool.h
; File C:\Program Files (x86)\Microsoft Visual Studio\2019\Professional\VC\Tools\MSVC\14.29.30133\include\algorithm
; File C:\Users\murat\Desktop\Siveps2-1-99-Project\source\client\Client\eterLib\Pool.h
; File C:\Program Files (x86)\Microsoft Visual Studio\2019\Professional\VC\Tools\MSVC\14.29.30133\include\vector
; File C:\Program Files (x86)\Microsoft Visual Studio\2019\Professional\VC\Tools\MSVC\14.29.30133\include\xmemory
; File C:\Program Files (x86)\Microsoft Visual Studio\2019\Professional\VC\Tools\MSVC\14.29.30133\include\vector
; File C:\Program Files (x86)\Microsoft Visual Studio\2019\Professional\VC\Tools\MSVC\14.29.30133\include\xmemory
; File C:\Program Files (x86)\Microsoft Visual Studio\2019\Professional\VC\Tools\MSVC\14.29.30133\include\vector
; File C:\Program Files (x86)\Microsoft Visual Studio\2019\Professional\VC\Tools\MSVC\14.29.30133\include\xmemory
; File C:\Program Files (x86)\Microsoft Visual Studio\2019\Professional\VC\Tools\MSVC\14.29.30133\include\vector
; File C:\Program Files (x86)\Microsoft Visual Studio\2019\Professional\VC\Tools\MSVC\14.29.30133\include\xmemory
; File C:\Program Files (x86)\Microsoft Visual Studio\2019\Professional\VC\Tools\MSVC\14.29.30133\include\vector
; File C:\Users\murat\Desktop\Siveps2-1-99-Project\source\client\Client\eterLib\Pool.h
; File C:\Program Files (x86)\Microsoft Visual Studio\2019\Professional\VC\Tools\MSVC\14.29.30133\include\xmemory
; File C:\Users\murat\Desktop\Siveps2-1-99-Project\source\client\Client\eterLib\Pool.h
;	COMDAT ??1?$CDynamicPoolEx@VCTextureAnimationCCWDecorator@NEffectUpdateDecorator@@@@UAE@XZ
_TEXT	SEGMENT
??1?$CDynamicPoolEx@VCTextureAnimationCCWDecorator@NEffectUpdateDecorator@@@@UAE@XZ PROC ; CDynamicPoolEx<NEffectUpdateDecorator::CTextureAnimationCCWDecorator>::~CDynamicPoolEx<NEffectUpdateDecorator::CTextureAnimationCCWDecorator>, COMDAT
; _this$ = ecx

; 132  : 		{

  00000	53		 push	 ebx
  00001	56		 push	 esi
  00002	57		 push	 edi
  00003	8b f9		 mov	 edi, ecx
  00005	c7 07 00 00 00
	00		 mov	 DWORD PTR [edi], OFFSET ??_7?$CDynamicPoolEx@VCTextureAnimationCCWDecorator@NEffectUpdateDecorator@@@@6B@
; File C:\Program Files (x86)\Microsoft Visual Studio\2019\Professional\VC\Tools\MSVC\14.29.30133\include\vector

; 42   :     _CONSTEXPR20_CONTAINER _Vector_const_iterator(_Tptr _Parg, const _Container_base* _Pvector) noexcept : _Ptr(_Parg) {

  0000b	8b 5f 08	 mov	 ebx, DWORD PTR [edi+8]
  0000e	8b 77 04	 mov	 esi, DWORD PTR [edi+4]
; File C:\Program Files (x86)\Microsoft Visual Studio\2019\Professional\VC\Tools\MSVC\14.29.30133\include\algorithm

; 270  :     for (; _UFirst != _ULast; ++_UFirst) {

  00011	3b f3		 cmp	 esi, ebx
  00013	74 14		 je	 SHORT $LN19@CDynamicPo
$LL20@CDynamicPo:
; File C:\Users\murat\Desktop\Siveps2-1-99-Project\source\client\Client\eterLib\Pool.h

; 224  : 			::operator delete(pkData);

  00015	ff 36		 push	 DWORD PTR [esi]
  00017	e8 00 00 00 00	 call	 ??3@YAXPAX@Z		; operator delete
; File C:\Program Files (x86)\Microsoft Visual Studio\2019\Professional\VC\Tools\MSVC\14.29.30133\include\algorithm

; 270  :     for (; _UFirst != _ULast; ++_UFirst) {

  0001c	83 c6 04	 add	 esi, 4
; File C:\Users\murat\Desktop\Siveps2-1-99-Project\source\client\Client\eterLib\Pool.h

; 224  : 			::operator delete(pkData);

  0001f	83 c4 04	 add	 esp, 4
; File C:\Program Files (x86)\Microsoft Visual Studio\2019\Professional\VC\Tools\MSVC\14.29.30133\include\algorithm

; 270  :     for (; _UFirst != _ULast; ++_UFirst) {

  00022	3b f3		 cmp	 esi, ebx
  00024	75 ef		 jne	 SHORT $LL20@CDynamicPo
  00026	8b 77 04	 mov	 esi, DWORD PTR [edi+4]
$LN19@CDynamicPo:
; File C:\Users\murat\Desktop\Siveps2-1-99-Project\source\client\Client\eterLib\Pool.h

; 162  : 			m_kVct_pkFree.clear();

  00029	8b 47 10	 mov	 eax, DWORD PTR [edi+16]
  0002c	89 77 08	 mov	 DWORD PTR [edi+8], esi
  0002f	89 47 14	 mov	 DWORD PTR [edi+20], eax
; File C:\Program Files (x86)\Microsoft Visual Studio\2019\Professional\VC\Tools\MSVC\14.29.30133\include\vector

; 1763 :         if (_Myfirst) { // destroy and deallocate old array

  00032	85 c0		 test	 eax, eax
  00034	74 41		 je	 SHORT $LN27@CDynamicPo

; 1764 :             _Destroy(_Myfirst, _Mylast);
; 1765 :             _Getal().deallocate(_Myfirst, static_cast<size_type>(_Myend - _Myfirst));

  00036	8b 4f 18	 mov	 ecx, DWORD PTR [edi+24]
  00039	2b c8		 sub	 ecx, eax
; File C:\Program Files (x86)\Microsoft Visual Studio\2019\Professional\VC\Tools\MSVC\14.29.30133\include\xmemory

; 835  :         _Deallocate<_New_alignof<_Ty>>(_Ptr, sizeof(_Ty) * _Count);

  0003b	83 e1 fc	 and	 ecx, -4			; fffffffcH

; 260  :         if (_Bytes >= _Big_allocation_threshold) { // boost the alignment of big allocations to help autovectorization

  0003e	81 f9 00 10 00
	00		 cmp	 ecx, 4096		; 00001000H
  00044	72 12		 jb	 SHORT $LN43@CDynamicPo

; 158  :     const uintptr_t _Ptr_container   = _Ptr_user[-1];

  00046	8b 50 fc	 mov	 edx, DWORD PTR [eax-4]
  00049	83 c1 23	 add	 ecx, 35			; 00000023H

; 159  : 
; 160  :     // If the following asserts, it likely means that we are performing
; 161  :     // an aligned delete on memory coming from an unaligned allocation.
; 162  :     _STL_ASSERT(_Ptr_user[-2] == _Big_allocation_sentinel, "invalid argument");
; 163  : 
; 164  :     // Extra paranoia on aligned allocation/deallocation; ensure _Ptr_container is
; 165  :     // in range [_Min_back_shift, _Non_user_size]
; 166  : #ifdef _DEBUG
; 167  :     constexpr uintptr_t _Min_back_shift = 2 * sizeof(void*);
; 168  : #else // ^^^ _DEBUG ^^^ // vvv !_DEBUG vvv
; 169  :     constexpr uintptr_t _Min_back_shift = sizeof(void*);
; 170  : #endif // _DEBUG
; 171  :     const uintptr_t _Back_shift = reinterpret_cast<uintptr_t>(_Ptr) - _Ptr_container;

  0004c	2b c2		 sub	 eax, edx

; 172  :     _STL_VERIFY(_Back_shift >= _Min_back_shift && _Back_shift <= _Non_user_size, "invalid argument");

  0004e	83 c0 fc	 add	 eax, -4			; fffffffcH
  00051	83 f8 1f	 cmp	 eax, 31			; 0000001fH
  00054	77 6d		 ja	 SHORT $LN65@CDynamicPo

; 173  :     _Ptr = reinterpret_cast<void*>(_Ptr_container);

  00056	8b c2		 mov	 eax, edx
$LN43@CDynamicPo:

; 264  :         ::operator delete(_Ptr, _Bytes);

  00058	51		 push	 ecx
  00059	50		 push	 eax
  0005a	e8 00 00 00 00	 call	 ??3@YAXPAXI@Z		; operator delete
; File C:\Program Files (x86)\Microsoft Visual Studio\2019\Professional\VC\Tools\MSVC\14.29.30133\include\vector

; 1767 :             _Myfirst = nullptr;

  0005f	c7 47 10 00 00
	00 00		 mov	 DWORD PTR [edi+16], 0
; File C:\Program Files (x86)\Microsoft Visual Studio\2019\Professional\VC\Tools\MSVC\14.29.30133\include\xmemory

; 264  :         ::operator delete(_Ptr, _Bytes);

  00066	83 c4 08	 add	 esp, 8
; File C:\Program Files (x86)\Microsoft Visual Studio\2019\Professional\VC\Tools\MSVC\14.29.30133\include\vector

; 1768 :             _Mylast  = nullptr;

  00069	c7 47 14 00 00
	00 00		 mov	 DWORD PTR [edi+20], 0

; 1769 :             _Myend   = nullptr;

  00070	c7 47 18 00 00
	00 00		 mov	 DWORD PTR [edi+24], 0
$LN27@CDynamicPo:

; 1763 :         if (_Myfirst) { // destroy and deallocate old array

  00077	8b 47 04	 mov	 eax, DWORD PTR [edi+4]
  0007a	85 c0		 test	 eax, eax
  0007c	74 41		 je	 SHORT $LN52@CDynamicPo

; 1764 :             _Destroy(_Myfirst, _Mylast);
; 1765 :             _Getal().deallocate(_Myfirst, static_cast<size_type>(_Myend - _Myfirst));

  0007e	8b 4f 0c	 mov	 ecx, DWORD PTR [edi+12]
  00081	2b c8		 sub	 ecx, eax
; File C:\Program Files (x86)\Microsoft Visual Studio\2019\Professional\VC\Tools\MSVC\14.29.30133\include\xmemory

; 835  :         _Deallocate<_New_alignof<_Ty>>(_Ptr, sizeof(_Ty) * _Count);

  00083	83 e1 fc	 and	 ecx, -4			; fffffffcH

; 260  :         if (_Bytes >= _Big_allocation_threshold) { // boost the alignment of big allocations to help autovectorization

  00086	81 f9 00 10 00
	00		 cmp	 ecx, 4096		; 00001000H
  0008c	72 12		 jb	 SHORT $LN68@CDynamicPo

; 158  :     const uintptr_t _Ptr_container   = _Ptr_user[-1];

  0008e	8b 50 fc	 mov	 edx, DWORD PTR [eax-4]
  00091	83 c1 23	 add	 ecx, 35			; 00000023H

; 159  : 
; 160  :     // If the following asserts, it likely means that we are performing
; 161  :     // an aligned delete on memory coming from an unaligned allocation.
; 162  :     _STL_ASSERT(_Ptr_user[-2] == _Big_allocation_sentinel, "invalid argument");
; 163  : 
; 164  :     // Extra paranoia on aligned allocation/deallocation; ensure _Ptr_container is
; 165  :     // in range [_Min_back_shift, _Non_user_size]
; 166  : #ifdef _DEBUG
; 167  :     constexpr uintptr_t _Min_back_shift = 2 * sizeof(void*);
; 168  : #else // ^^^ _DEBUG ^^^ // vvv !_DEBUG vvv
; 169  :     constexpr uintptr_t _Min_back_shift = sizeof(void*);
; 170  : #endif // _DEBUG
; 171  :     const uintptr_t _Back_shift = reinterpret_cast<uintptr_t>(_Ptr) - _Ptr_container;

  00094	2b c2		 sub	 eax, edx

; 172  :     _STL_VERIFY(_Back_shift >= _Min_back_shift && _Back_shift <= _Non_user_size, "invalid argument");

  00096	83 c0 fc	 add	 eax, -4			; fffffffcH
  00099	83 f8 1f	 cmp	 eax, 31			; 0000001fH
  0009c	77 25		 ja	 SHORT $LN65@CDynamicPo

; 173  :     _Ptr = reinterpret_cast<void*>(_Ptr_container);

  0009e	8b c2		 mov	 eax, edx
$LN68@CDynamicPo:

; 264  :         ::operator delete(_Ptr, _Bytes);

  000a0	51		 push	 ecx
  000a1	50		 push	 eax
  000a2	e8 00 00 00 00	 call	 ??3@YAXPAXI@Z		; operator delete
; File C:\Program Files (x86)\Microsoft Visual Studio\2019\Professional\VC\Tools\MSVC\14.29.30133\include\vector

; 1767 :             _Myfirst = nullptr;

  000a7	c7 47 04 00 00
	00 00		 mov	 DWORD PTR [edi+4], 0
; File C:\Program Files (x86)\Microsoft Visual Studio\2019\Professional\VC\Tools\MSVC\14.29.30133\include\xmemory

; 264  :         ::operator delete(_Ptr, _Bytes);

  000ae	83 c4 08	 add	 esp, 8
; File C:\Program Files (x86)\Microsoft Visual Studio\2019\Professional\VC\Tools\MSVC\14.29.30133\include\vector

; 1768 :             _Mylast  = nullptr;

  000b1	c7 47 08 00 00
	00 00		 mov	 DWORD PTR [edi+8], 0

; 1769 :             _Myend   = nullptr;

  000b8	c7 47 0c 00 00
	00 00		 mov	 DWORD PTR [edi+12], 0
$LN52@CDynamicPo:
  000bf	5f		 pop	 edi
; File C:\Users\murat\Desktop\Siveps2-1-99-Project\source\client\Client\eterLib\Pool.h

; 142  : 		}

  000c0	5e		 pop	 esi
  000c1	5b		 pop	 ebx
  000c2	c3		 ret	 0
$LN65@CDynamicPo:
; File C:\Program Files (x86)\Microsoft Visual Studio\2019\Professional\VC\Tools\MSVC\14.29.30133\include\xmemory

; 172  :     _STL_VERIFY(_Back_shift >= _Min_back_shift && _Back_shift <= _Non_user_size, "invalid argument");

  000c3	e8 00 00 00 00	 call	 __invalid_parameter_noinfo_noreturn
$LN77@CDynamicPo:
  000c8	cc		 int	 3
??1?$CDynamicPoolEx@VCTextureAnimationCCWDecorator@NEffectUpdateDecorator@@@@UAE@XZ ENDP ; CDynamicPoolEx<NEffectUpdateDecorator::CTextureAnimationCCWDecorator>::~CDynamicPoolEx<NEffectUpdateDecorator::CTextureAnimationCCWDecorator>
_TEXT	ENDS
; Function compile flags: /Ogtp
;	COMDAT ??_G?$CDynamicPoolEx@VCTextureAnimationRandomDecorator@NEffectUpdateDecorator@@@@UAEPAXI@Z
_TEXT	SEGMENT
___flags$ = 8						; size = 4
??_G?$CDynamicPoolEx@VCTextureAnimationRandomDecorator@NEffectUpdateDecorator@@@@UAEPAXI@Z PROC ; CDynamicPoolEx<NEffectUpdateDecorator::CTextureAnimationRandomDecorator>::`scalar deleting destructor', COMDAT
; _this$ = ecx
  00000	55		 push	 ebp
  00001	8b ec		 mov	 ebp, esp
  00003	56		 push	 esi
  00004	8b f1		 mov	 esi, ecx
  00006	e8 00 00 00 00	 call	 ??1?$CDynamicPoolEx@VCTextureAnimationRandomDecorator@NEffectUpdateDecorator@@@@UAE@XZ ; CDynamicPoolEx<NEffectUpdateDecorator::CTextureAnimationRandomDecorator>::~CDynamicPoolEx<NEffectUpdateDecorator::CTextureAnimationRandomDecorator>
  0000b	f6 45 08 01	 test	 BYTE PTR ___flags$[ebp], 1
  0000f	74 0b		 je	 SHORT $LN4@scalar
  00011	6a 24		 push	 36			; 00000024H
  00013	56		 push	 esi
  00014	e8 00 00 00 00	 call	 ??3@YAXPAXI@Z		; operator delete
  00019	83 c4 08	 add	 esp, 8
$LN4@scalar:
  0001c	8b c6		 mov	 eax, esi
  0001e	5e		 pop	 esi
  0001f	5d		 pop	 ebp
  00020	c2 04 00	 ret	 4
??_G?$CDynamicPoolEx@VCTextureAnimationRandomDecorator@NEffectUpdateDecorator@@@@UAEPAXI@Z ENDP ; CDynamicPoolEx<NEffectUpdateDecorator::CTextureAnimationRandomDecorator>::`scalar deleting destructor'
_TEXT	ENDS
; Function compile flags: /Ogtp
; File C:\Users\murat\Desktop\Siveps2-1-99-Project\source\client\Client\eterLib\Pool.h
;	COMDAT ?Delete@?$CDynamicPoolEx@VCTextureAnimationRandomDecorator@NEffectUpdateDecorator@@@@KAXPAVCTextureAnimationRandomDecorator@NEffectUpdateDecorator@@@Z
_TEXT	SEGMENT
_pkData$ = 8						; size = 4
?Delete@?$CDynamicPoolEx@VCTextureAnimationRandomDecorator@NEffectUpdateDecorator@@@@KAXPAVCTextureAnimationRandomDecorator@NEffectUpdateDecorator@@@Z PROC ; CDynamicPoolEx<NEffectUpdateDecorator::CTextureAnimationRandomDecorator>::Delete, COMDAT

; 224  : 			::operator delete(pkData);

  00000	e9 00 00 00 00	 jmp	 ??3@YAXPAX@Z		; operator delete
?Delete@?$CDynamicPoolEx@VCTextureAnimationRandomDecorator@NEffectUpdateDecorator@@@@KAXPAVCTextureAnimationRandomDecorator@NEffectUpdateDecorator@@@Z ENDP ; CDynamicPoolEx<NEffectUpdateDecorator::CTextureAnimationRandomDecorator>::Delete
_TEXT	ENDS
; Function compile flags: /Ogtp
; File C:\Users\murat\Desktop\Siveps2-1-99-Project\source\client\Client\eterLib\Pool.h
; File C:\Program Files (x86)\Microsoft Visual Studio\2019\Professional\VC\Tools\MSVC\14.29.30133\include\vector
; File C:\Program Files (x86)\Microsoft Visual Studio\2019\Professional\VC\Tools\MSVC\14.29.30133\include\algorithm
; File C:\Users\murat\Desktop\Siveps2-1-99-Project\source\client\Client\eterLib\Pool.h
; File C:\Program Files (x86)\Microsoft Visual Studio\2019\Professional\VC\Tools\MSVC\14.29.30133\include\algorithm
; File C:\Users\murat\Desktop\Siveps2-1-99-Project\source\client\Client\eterLib\Pool.h
; File C:\Program Files (x86)\Microsoft Visual Studio\2019\Professional\VC\Tools\MSVC\14.29.30133\include\algorithm
; File C:\Users\murat\Desktop\Siveps2-1-99-Project\source\client\Client\eterLib\Pool.h
; File C:\Program Files (x86)\Microsoft Visual Studio\2019\Professional\VC\Tools\MSVC\14.29.30133\include\vector
; File C:\Program Files (x86)\Microsoft Visual Studio\2019\Professional\VC\Tools\MSVC\14.29.30133\include\xmemory
; File C:\Program Files (x86)\Microsoft Visual Studio\2019\Professional\VC\Tools\MSVC\14.29.30133\include\vector
; File C:\Program Files (x86)\Microsoft Visual Studio\2019\Professional\VC\Tools\MSVC\14.29.30133\include\xmemory
; File C:\Program Files (x86)\Microsoft Visual Studio\2019\Professional\VC\Tools\MSVC\14.29.30133\include\vector
; File C:\Program Files (x86)\Microsoft Visual Studio\2019\Professional\VC\Tools\MSVC\14.29.30133\include\xmemory
; File C:\Program Files (x86)\Microsoft Visual Studio\2019\Professional\VC\Tools\MSVC\14.29.30133\include\vector
; File C:\Program Files (x86)\Microsoft Visual Studio\2019\Professional\VC\Tools\MSVC\14.29.30133\include\xmemory
; File C:\Program Files (x86)\Microsoft Visual Studio\2019\Professional\VC\Tools\MSVC\14.29.30133\include\vector
; File C:\Users\murat\Desktop\Siveps2-1-99-Project\source\client\Client\eterLib\Pool.h
; File C:\Program Files (x86)\Microsoft Visual Studio\2019\Professional\VC\Tools\MSVC\14.29.30133\include\xmemory
; File C:\Users\murat\Desktop\Siveps2-1-99-Project\source\client\Client\eterLib\Pool.h
;	COMDAT ??1?$CDynamicPoolEx@VCTextureAnimationRandomDecorator@NEffectUpdateDecorator@@@@UAE@XZ
_TEXT	SEGMENT
??1?$CDynamicPoolEx@VCTextureAnimationRandomDecorator@NEffectUpdateDecorator@@@@UAE@XZ PROC ; CDynamicPoolEx<NEffectUpdateDecorator::CTextureAnimationRandomDecorator>::~CDynamicPoolEx<NEffectUpdateDecorator::CTextureAnimationRandomDecorator>, COMDAT
; _this$ = ecx

; 132  : 		{

  00000	53		 push	 ebx
  00001	56		 push	 esi
  00002	57		 push	 edi
  00003	8b f9		 mov	 edi, ecx
  00005	c7 07 00 00 00
	00		 mov	 DWORD PTR [edi], OFFSET ??_7?$CDynamicPoolEx@VCTextureAnimationRandomDecorator@NEffectUpdateDecorator@@@@6B@
; File C:\Program Files (x86)\Microsoft Visual Studio\2019\Professional\VC\Tools\MSVC\14.29.30133\include\vector

; 42   :     _CONSTEXPR20_CONTAINER _Vector_const_iterator(_Tptr _Parg, const _Container_base* _Pvector) noexcept : _Ptr(_Parg) {

  0000b	8b 5f 08	 mov	 ebx, DWORD PTR [edi+8]
  0000e	8b 77 04	 mov	 esi, DWORD PTR [edi+4]
; File C:\Program Files (x86)\Microsoft Visual Studio\2019\Professional\VC\Tools\MSVC\14.29.30133\include\algorithm

; 270  :     for (; _UFirst != _ULast; ++_UFirst) {

  00011	3b f3		 cmp	 esi, ebx
  00013	74 14		 je	 SHORT $LN19@CDynamicPo
$LL20@CDynamicPo:
; File C:\Users\murat\Desktop\Siveps2-1-99-Project\source\client\Client\eterLib\Pool.h

; 224  : 			::operator delete(pkData);

  00015	ff 36		 push	 DWORD PTR [esi]
  00017	e8 00 00 00 00	 call	 ??3@YAXPAX@Z		; operator delete
; File C:\Program Files (x86)\Microsoft Visual Studio\2019\Professional\VC\Tools\MSVC\14.29.30133\include\algorithm

; 270  :     for (; _UFirst != _ULast; ++_UFirst) {

  0001c	83 c6 04	 add	 esi, 4
; File C:\Users\murat\Desktop\Siveps2-1-99-Project\source\client\Client\eterLib\Pool.h

; 224  : 			::operator delete(pkData);

  0001f	83 c4 04	 add	 esp, 4
; File C:\Program Files (x86)\Microsoft Visual Studio\2019\Professional\VC\Tools\MSVC\14.29.30133\include\algorithm

; 270  :     for (; _UFirst != _ULast; ++_UFirst) {

  00022	3b f3		 cmp	 esi, ebx
  00024	75 ef		 jne	 SHORT $LL20@CDynamicPo
  00026	8b 77 04	 mov	 esi, DWORD PTR [edi+4]
$LN19@CDynamicPo:
; File C:\Users\murat\Desktop\Siveps2-1-99-Project\source\client\Client\eterLib\Pool.h

; 162  : 			m_kVct_pkFree.clear();

  00029	8b 47 10	 mov	 eax, DWORD PTR [edi+16]
  0002c	89 77 08	 mov	 DWORD PTR [edi+8], esi
  0002f	89 47 14	 mov	 DWORD PTR [edi+20], eax
; File C:\Program Files (x86)\Microsoft Visual Studio\2019\Professional\VC\Tools\MSVC\14.29.30133\include\vector

; 1763 :         if (_Myfirst) { // destroy and deallocate old array

  00032	85 c0		 test	 eax, eax
  00034	74 41		 je	 SHORT $LN27@CDynamicPo

; 1764 :             _Destroy(_Myfirst, _Mylast);
; 1765 :             _Getal().deallocate(_Myfirst, static_cast<size_type>(_Myend - _Myfirst));

  00036	8b 4f 18	 mov	 ecx, DWORD PTR [edi+24]
  00039	2b c8		 sub	 ecx, eax
; File C:\Program Files (x86)\Microsoft Visual Studio\2019\Professional\VC\Tools\MSVC\14.29.30133\include\xmemory

; 835  :         _Deallocate<_New_alignof<_Ty>>(_Ptr, sizeof(_Ty) * _Count);

  0003b	83 e1 fc	 and	 ecx, -4			; fffffffcH

; 260  :         if (_Bytes >= _Big_allocation_threshold) { // boost the alignment of big allocations to help autovectorization

  0003e	81 f9 00 10 00
	00		 cmp	 ecx, 4096		; 00001000H
  00044	72 12		 jb	 SHORT $LN43@CDynamicPo

; 158  :     const uintptr_t _Ptr_container   = _Ptr_user[-1];

  00046	8b 50 fc	 mov	 edx, DWORD PTR [eax-4]
  00049	83 c1 23	 add	 ecx, 35			; 00000023H

; 159  : 
; 160  :     // If the following asserts, it likely means that we are performing
; 161  :     // an aligned delete on memory coming from an unaligned allocation.
; 162  :     _STL_ASSERT(_Ptr_user[-2] == _Big_allocation_sentinel, "invalid argument");
; 163  : 
; 164  :     // Extra paranoia on aligned allocation/deallocation; ensure _Ptr_container is
; 165  :     // in range [_Min_back_shift, _Non_user_size]
; 166  : #ifdef _DEBUG
; 167  :     constexpr uintptr_t _Min_back_shift = 2 * sizeof(void*);
; 168  : #else // ^^^ _DEBUG ^^^ // vvv !_DEBUG vvv
; 169  :     constexpr uintptr_t _Min_back_shift = sizeof(void*);
; 170  : #endif // _DEBUG
; 171  :     const uintptr_t _Back_shift = reinterpret_cast<uintptr_t>(_Ptr) - _Ptr_container;

  0004c	2b c2		 sub	 eax, edx

; 172  :     _STL_VERIFY(_Back_shift >= _Min_back_shift && _Back_shift <= _Non_user_size, "invalid argument");

  0004e	83 c0 fc	 add	 eax, -4			; fffffffcH
  00051	83 f8 1f	 cmp	 eax, 31			; 0000001fH
  00054	77 6d		 ja	 SHORT $LN65@CDynamicPo

; 173  :     _Ptr = reinterpret_cast<void*>(_Ptr_container);

  00056	8b c2		 mov	 eax, edx
$LN43@CDynamicPo:

; 264  :         ::operator delete(_Ptr, _Bytes);

  00058	51		 push	 ecx
  00059	50		 push	 eax
  0005a	e8 00 00 00 00	 call	 ??3@YAXPAXI@Z		; operator delete
; File C:\Program Files (x86)\Microsoft Visual Studio\2019\Professional\VC\Tools\MSVC\14.29.30133\include\vector

; 1767 :             _Myfirst = nullptr;

  0005f	c7 47 10 00 00
	00 00		 mov	 DWORD PTR [edi+16], 0
; File C:\Program Files (x86)\Microsoft Visual Studio\2019\Professional\VC\Tools\MSVC\14.29.30133\include\xmemory

; 264  :         ::operator delete(_Ptr, _Bytes);

  00066	83 c4 08	 add	 esp, 8
; File C:\Program Files (x86)\Microsoft Visual Studio\2019\Professional\VC\Tools\MSVC\14.29.30133\include\vector

; 1768 :             _Mylast  = nullptr;

  00069	c7 47 14 00 00
	00 00		 mov	 DWORD PTR [edi+20], 0

; 1769 :             _Myend   = nullptr;

  00070	c7 47 18 00 00
	00 00		 mov	 DWORD PTR [edi+24], 0
$LN27@CDynamicPo:

; 1763 :         if (_Myfirst) { // destroy and deallocate old array

  00077	8b 47 04	 mov	 eax, DWORD PTR [edi+4]
  0007a	85 c0		 test	 eax, eax
  0007c	74 41		 je	 SHORT $LN52@CDynamicPo

; 1764 :             _Destroy(_Myfirst, _Mylast);
; 1765 :             _Getal().deallocate(_Myfirst, static_cast<size_type>(_Myend - _Myfirst));

  0007e	8b 4f 0c	 mov	 ecx, DWORD PTR [edi+12]
  00081	2b c8		 sub	 ecx, eax
; File C:\Program Files (x86)\Microsoft Visual Studio\2019\Professional\VC\Tools\MSVC\14.29.30133\include\xmemory

; 835  :         _Deallocate<_New_alignof<_Ty>>(_Ptr, sizeof(_Ty) * _Count);

  00083	83 e1 fc	 and	 ecx, -4			; fffffffcH

; 260  :         if (_Bytes >= _Big_allocation_threshold) { // boost the alignment of big allocations to help autovectorization

  00086	81 f9 00 10 00
	00		 cmp	 ecx, 4096		; 00001000H
  0008c	72 12		 jb	 SHORT $LN68@CDynamicPo

; 158  :     const uintptr_t _Ptr_container   = _Ptr_user[-1];

  0008e	8b 50 fc	 mov	 edx, DWORD PTR [eax-4]
  00091	83 c1 23	 add	 ecx, 35			; 00000023H

; 159  : 
; 160  :     // If the following asserts, it likely means that we are performing
; 161  :     // an aligned delete on memory coming from an unaligned allocation.
; 162  :     _STL_ASSERT(_Ptr_user[-2] == _Big_allocation_sentinel, "invalid argument");
; 163  : 
; 164  :     // Extra paranoia on aligned allocation/deallocation; ensure _Ptr_container is
; 165  :     // in range [_Min_back_shift, _Non_user_size]
; 166  : #ifdef _DEBUG
; 167  :     constexpr uintptr_t _Min_back_shift = 2 * sizeof(void*);
; 168  : #else // ^^^ _DEBUG ^^^ // vvv !_DEBUG vvv
; 169  :     constexpr uintptr_t _Min_back_shift = sizeof(void*);
; 170  : #endif // _DEBUG
; 171  :     const uintptr_t _Back_shift = reinterpret_cast<uintptr_t>(_Ptr) - _Ptr_container;

  00094	2b c2		 sub	 eax, edx

; 172  :     _STL_VERIFY(_Back_shift >= _Min_back_shift && _Back_shift <= _Non_user_size, "invalid argument");

  00096	83 c0 fc	 add	 eax, -4			; fffffffcH
  00099	83 f8 1f	 cmp	 eax, 31			; 0000001fH
  0009c	77 25		 ja	 SHORT $LN65@CDynamicPo

; 173  :     _Ptr = reinterpret_cast<void*>(_Ptr_container);

  0009e	8b c2		 mov	 eax, edx
$LN68@CDynamicPo:

; 264  :         ::operator delete(_Ptr, _Bytes);

  000a0	51		 push	 ecx
  000a1	50		 push	 eax
  000a2	e8 00 00 00 00	 call	 ??3@YAXPAXI@Z		; operator delete
; File C:\Program Files (x86)\Microsoft Visual Studio\2019\Professional\VC\Tools\MSVC\14.29.30133\include\vector

; 1767 :             _Myfirst = nullptr;

  000a7	c7 47 04 00 00
	00 00		 mov	 DWORD PTR [edi+4], 0
; File C:\Program Files (x86)\Microsoft Visual Studio\2019\Professional\VC\Tools\MSVC\14.29.30133\include\xmemory

; 264  :         ::operator delete(_Ptr, _Bytes);

  000ae	83 c4 08	 add	 esp, 8
; File C:\Program Files (x86)\Microsoft Visual Studio\2019\Professional\VC\Tools\MSVC\14.29.30133\include\vector

; 1768 :             _Mylast  = nullptr;

  000b1	c7 47 08 00 00
	00 00		 mov	 DWORD PTR [edi+8], 0

; 1769 :             _Myend   = nullptr;

  000b8	c7 47 0c 00 00
	00 00		 mov	 DWORD PTR [edi+12], 0
$LN52@CDynamicPo:
  000bf	5f		 pop	 edi
; File C:\Users\murat\Desktop\Siveps2-1-99-Project\source\client\Client\eterLib\Pool.h

; 142  : 		}

  000c0	5e		 pop	 esi
  000c1	5b		 pop	 ebx
  000c2	c3		 ret	 0
$LN65@CDynamicPo:
; File C:\Program Files (x86)\Microsoft Visual Studio\2019\Professional\VC\Tools\MSVC\14.29.30133\include\xmemory

; 172  :     _STL_VERIFY(_Back_shift >= _Min_back_shift && _Back_shift <= _Non_user_size, "invalid argument");

  000c3	e8 00 00 00 00	 call	 __invalid_parameter_noinfo_noreturn
$LN77@CDynamicPo:
  000c8	cc		 int	 3
??1?$CDynamicPoolEx@VCTextureAnimationRandomDecorator@NEffectUpdateDecorator@@@@UAE@XZ ENDP ; CDynamicPoolEx<NEffectUpdateDecorator::CTextureAnimationRandomDecorator>::~CDynamicPoolEx<NEffectUpdateDecorator::CTextureAnimationRandomDecorator>
_TEXT	ENDS
; Function compile flags: /Ogtp
;	COMDAT ??_G?$CDynamicPoolEx@VCAirResistanceDecorator@NEffectUpdateDecorator@@@@UAEPAXI@Z
_TEXT	SEGMENT
___flags$ = 8						; size = 4
??_G?$CDynamicPoolEx@VCAirResistanceDecorator@NEffectUpdateDecorator@@@@UAEPAXI@Z PROC ; CDynamicPoolEx<NEffectUpdateDecorator::CAirResistanceDecorator>::`scalar deleting destructor', COMDAT
; _this$ = ecx
  00000	55		 push	 ebp
  00001	8b ec		 mov	 ebp, esp
  00003	56		 push	 esi
  00004	8b f1		 mov	 esi, ecx
  00006	e8 00 00 00 00	 call	 ??1?$CDynamicPoolEx@VCAirResistanceDecorator@NEffectUpdateDecorator@@@@UAE@XZ ; CDynamicPoolEx<NEffectUpdateDecorator::CAirResistanceDecorator>::~CDynamicPoolEx<NEffectUpdateDecorator::CAirResistanceDecorator>
  0000b	f6 45 08 01	 test	 BYTE PTR ___flags$[ebp], 1
  0000f	74 0b		 je	 SHORT $LN4@scalar
  00011	6a 24		 push	 36			; 00000024H
  00013	56		 push	 esi
  00014	e8 00 00 00 00	 call	 ??3@YAXPAXI@Z		; operator delete
  00019	83 c4 08	 add	 esp, 8
$LN4@scalar:
  0001c	8b c6		 mov	 eax, esi
  0001e	5e		 pop	 esi
  0001f	5d		 pop	 ebp
  00020	c2 04 00	 ret	 4
??_G?$CDynamicPoolEx@VCAirResistanceDecorator@NEffectUpdateDecorator@@@@UAEPAXI@Z ENDP ; CDynamicPoolEx<NEffectUpdateDecorator::CAirResistanceDecorator>::`scalar deleting destructor'
_TEXT	ENDS
; Function compile flags: /Ogtp
; File C:\Users\murat\Desktop\Siveps2-1-99-Project\source\client\Client\eterLib\Pool.h
;	COMDAT ?Delete@?$CDynamicPoolEx@VCAirResistanceDecorator@NEffectUpdateDecorator@@@@KAXPAVCAirResistanceDecorator@NEffectUpdateDecorator@@@Z
_TEXT	SEGMENT
_pkData$ = 8						; size = 4
?Delete@?$CDynamicPoolEx@VCAirResistanceDecorator@NEffectUpdateDecorator@@@@KAXPAVCAirResistanceDecorator@NEffectUpdateDecorator@@@Z PROC ; CDynamicPoolEx<NEffectUpdateDecorator::CAirResistanceDecorator>::Delete, COMDAT

; 224  : 			::operator delete(pkData);

  00000	e9 00 00 00 00	 jmp	 ??3@YAXPAX@Z		; operator delete
?Delete@?$CDynamicPoolEx@VCAirResistanceDecorator@NEffectUpdateDecorator@@@@KAXPAVCAirResistanceDecorator@NEffectUpdateDecorator@@@Z ENDP ; CDynamicPoolEx<NEffectUpdateDecorator::CAirResistanceDecorator>::Delete
_TEXT	ENDS
; Function compile flags: /Ogtp
; File C:\Users\murat\Desktop\Siveps2-1-99-Project\source\client\Client\eterLib\Pool.h
; File C:\Program Files (x86)\Microsoft Visual Studio\2019\Professional\VC\Tools\MSVC\14.29.30133\include\vector
; File C:\Program Files (x86)\Microsoft Visual Studio\2019\Professional\VC\Tools\MSVC\14.29.30133\include\algorithm
; File C:\Users\murat\Desktop\Siveps2-1-99-Project\source\client\Client\eterLib\Pool.h
; File C:\Program Files (x86)\Microsoft Visual Studio\2019\Professional\VC\Tools\MSVC\14.29.30133\include\algorithm
; File C:\Users\murat\Desktop\Siveps2-1-99-Project\source\client\Client\eterLib\Pool.h
; File C:\Program Files (x86)\Microsoft Visual Studio\2019\Professional\VC\Tools\MSVC\14.29.30133\include\algorithm
; File C:\Users\murat\Desktop\Siveps2-1-99-Project\source\client\Client\eterLib\Pool.h
; File C:\Program Files (x86)\Microsoft Visual Studio\2019\Professional\VC\Tools\MSVC\14.29.30133\include\vector
; File C:\Program Files (x86)\Microsoft Visual Studio\2019\Professional\VC\Tools\MSVC\14.29.30133\include\xmemory
; File C:\Program Files (x86)\Microsoft Visual Studio\2019\Professional\VC\Tools\MSVC\14.29.30133\include\vector
; File C:\Program Files (x86)\Microsoft Visual Studio\2019\Professional\VC\Tools\MSVC\14.29.30133\include\xmemory
; File C:\Program Files (x86)\Microsoft Visual Studio\2019\Professional\VC\Tools\MSVC\14.29.30133\include\vector
; File C:\Program Files (x86)\Microsoft Visual Studio\2019\Professional\VC\Tools\MSVC\14.29.30133\include\xmemory
; File C:\Program Files (x86)\Microsoft Visual Studio\2019\Professional\VC\Tools\MSVC\14.29.30133\include\vector
; File C:\Program Files (x86)\Microsoft Visual Studio\2019\Professional\VC\Tools\MSVC\14.29.30133\include\xmemory
; File C:\Program Files (x86)\Microsoft Visual Studio\2019\Professional\VC\Tools\MSVC\14.29.30133\include\vector
; File C:\Users\murat\Desktop\Siveps2-1-99-Project\source\client\Client\eterLib\Pool.h
; File C:\Program Files (x86)\Microsoft Visual Studio\2019\Professional\VC\Tools\MSVC\14.29.30133\include\xmemory
; File C:\Users\murat\Desktop\Siveps2-1-99-Project\source\client\Client\eterLib\Pool.h
;	COMDAT ??1?$CDynamicPoolEx@VCAirResistanceDecorator@NEffectUpdateDecorator@@@@UAE@XZ
_TEXT	SEGMENT
??1?$CDynamicPoolEx@VCAirResistanceDecorator@NEffectUpdateDecorator@@@@UAE@XZ PROC ; CDynamicPoolEx<NEffectUpdateDecorator::CAirResistanceDecorator>::~CDynamicPoolEx<NEffectUpdateDecorator::CAirResistanceDecorator>, COMDAT
; _this$ = ecx

; 132  : 		{

  00000	53		 push	 ebx
  00001	56		 push	 esi
  00002	57		 push	 edi
  00003	8b f9		 mov	 edi, ecx
  00005	c7 07 00 00 00
	00		 mov	 DWORD PTR [edi], OFFSET ??_7?$CDynamicPoolEx@VCAirResistanceDecorator@NEffectUpdateDecorator@@@@6B@
; File C:\Program Files (x86)\Microsoft Visual Studio\2019\Professional\VC\Tools\MSVC\14.29.30133\include\vector

; 42   :     _CONSTEXPR20_CONTAINER _Vector_const_iterator(_Tptr _Parg, const _Container_base* _Pvector) noexcept : _Ptr(_Parg) {

  0000b	8b 5f 08	 mov	 ebx, DWORD PTR [edi+8]
  0000e	8b 77 04	 mov	 esi, DWORD PTR [edi+4]
; File C:\Program Files (x86)\Microsoft Visual Studio\2019\Professional\VC\Tools\MSVC\14.29.30133\include\algorithm

; 270  :     for (; _UFirst != _ULast; ++_UFirst) {

  00011	3b f3		 cmp	 esi, ebx
  00013	74 14		 je	 SHORT $LN19@CDynamicPo
$LL20@CDynamicPo:
; File C:\Users\murat\Desktop\Siveps2-1-99-Project\source\client\Client\eterLib\Pool.h

; 224  : 			::operator delete(pkData);

  00015	ff 36		 push	 DWORD PTR [esi]
  00017	e8 00 00 00 00	 call	 ??3@YAXPAX@Z		; operator delete
; File C:\Program Files (x86)\Microsoft Visual Studio\2019\Professional\VC\Tools\MSVC\14.29.30133\include\algorithm

; 270  :     for (; _UFirst != _ULast; ++_UFirst) {

  0001c	83 c6 04	 add	 esi, 4
; File C:\Users\murat\Desktop\Siveps2-1-99-Project\source\client\Client\eterLib\Pool.h

; 224  : 			::operator delete(pkData);

  0001f	83 c4 04	 add	 esp, 4
; File C:\Program Files (x86)\Microsoft Visual Studio\2019\Professional\VC\Tools\MSVC\14.29.30133\include\algorithm

; 270  :     for (; _UFirst != _ULast; ++_UFirst) {

  00022	3b f3		 cmp	 esi, ebx
  00024	75 ef		 jne	 SHORT $LL20@CDynamicPo
  00026	8b 77 04	 mov	 esi, DWORD PTR [edi+4]
$LN19@CDynamicPo:
; File C:\Users\murat\Desktop\Siveps2-1-99-Project\source\client\Client\eterLib\Pool.h

; 162  : 			m_kVct_pkFree.clear();

  00029	8b 47 10	 mov	 eax, DWORD PTR [edi+16]
  0002c	89 77 08	 mov	 DWORD PTR [edi+8], esi
  0002f	89 47 14	 mov	 DWORD PTR [edi+20], eax
; File C:\Program Files (x86)\Microsoft Visual Studio\2019\Professional\VC\Tools\MSVC\14.29.30133\include\vector

; 1763 :         if (_Myfirst) { // destroy and deallocate old array

  00032	85 c0		 test	 eax, eax
  00034	74 41		 je	 SHORT $LN27@CDynamicPo

; 1764 :             _Destroy(_Myfirst, _Mylast);
; 1765 :             _Getal().deallocate(_Myfirst, static_cast<size_type>(_Myend - _Myfirst));

  00036	8b 4f 18	 mov	 ecx, DWORD PTR [edi+24]
  00039	2b c8		 sub	 ecx, eax
; File C:\Program Files (x86)\Microsoft Visual Studio\2019\Professional\VC\Tools\MSVC\14.29.30133\include\xmemory

; 835  :         _Deallocate<_New_alignof<_Ty>>(_Ptr, sizeof(_Ty) * _Count);

  0003b	83 e1 fc	 and	 ecx, -4			; fffffffcH

; 260  :         if (_Bytes >= _Big_allocation_threshold) { // boost the alignment of big allocations to help autovectorization

  0003e	81 f9 00 10 00
	00		 cmp	 ecx, 4096		; 00001000H
  00044	72 12		 jb	 SHORT $LN43@CDynamicPo

; 158  :     const uintptr_t _Ptr_container   = _Ptr_user[-1];

  00046	8b 50 fc	 mov	 edx, DWORD PTR [eax-4]
  00049	83 c1 23	 add	 ecx, 35			; 00000023H

; 159  : 
; 160  :     // If the following asserts, it likely means that we are performing
; 161  :     // an aligned delete on memory coming from an unaligned allocation.
; 162  :     _STL_ASSERT(_Ptr_user[-2] == _Big_allocation_sentinel, "invalid argument");
; 163  : 
; 164  :     // Extra paranoia on aligned allocation/deallocation; ensure _Ptr_container is
; 165  :     // in range [_Min_back_shift, _Non_user_size]
; 166  : #ifdef _DEBUG
; 167  :     constexpr uintptr_t _Min_back_shift = 2 * sizeof(void*);
; 168  : #else // ^^^ _DEBUG ^^^ // vvv !_DEBUG vvv
; 169  :     constexpr uintptr_t _Min_back_shift = sizeof(void*);
; 170  : #endif // _DEBUG
; 171  :     const uintptr_t _Back_shift = reinterpret_cast<uintptr_t>(_Ptr) - _Ptr_container;

  0004c	2b c2		 sub	 eax, edx

; 172  :     _STL_VERIFY(_Back_shift >= _Min_back_shift && _Back_shift <= _Non_user_size, "invalid argument");

  0004e	83 c0 fc	 add	 eax, -4			; fffffffcH
  00051	83 f8 1f	 cmp	 eax, 31			; 0000001fH
  00054	77 6d		 ja	 SHORT $LN65@CDynamicPo

; 173  :     _Ptr = reinterpret_cast<void*>(_Ptr_container);

  00056	8b c2		 mov	 eax, edx
$LN43@CDynamicPo:

; 264  :         ::operator delete(_Ptr, _Bytes);

  00058	51		 push	 ecx
  00059	50		 push	 eax
  0005a	e8 00 00 00 00	 call	 ??3@YAXPAXI@Z		; operator delete
; File C:\Program Files (x86)\Microsoft Visual Studio\2019\Professional\VC\Tools\MSVC\14.29.30133\include\vector

; 1767 :             _Myfirst = nullptr;

  0005f	c7 47 10 00 00
	00 00		 mov	 DWORD PTR [edi+16], 0
; File C:\Program Files (x86)\Microsoft Visual Studio\2019\Professional\VC\Tools\MSVC\14.29.30133\include\xmemory

; 264  :         ::operator delete(_Ptr, _Bytes);

  00066	83 c4 08	 add	 esp, 8
; File C:\Program Files (x86)\Microsoft Visual Studio\2019\Professional\VC\Tools\MSVC\14.29.30133\include\vector

; 1768 :             _Mylast  = nullptr;

  00069	c7 47 14 00 00
	00 00		 mov	 DWORD PTR [edi+20], 0

; 1769 :             _Myend   = nullptr;

  00070	c7 47 18 00 00
	00 00		 mov	 DWORD PTR [edi+24], 0
$LN27@CDynamicPo:

; 1763 :         if (_Myfirst) { // destroy and deallocate old array

  00077	8b 47 04	 mov	 eax, DWORD PTR [edi+4]
  0007a	85 c0		 test	 eax, eax
  0007c	74 41		 je	 SHORT $LN52@CDynamicPo

; 1764 :             _Destroy(_Myfirst, _Mylast);
; 1765 :             _Getal().deallocate(_Myfirst, static_cast<size_type>(_Myend - _Myfirst));

  0007e	8b 4f 0c	 mov	 ecx, DWORD PTR [edi+12]
  00081	2b c8		 sub	 ecx, eax
; File C:\Program Files (x86)\Microsoft Visual Studio\2019\Professional\VC\Tools\MSVC\14.29.30133\include\xmemory

; 835  :         _Deallocate<_New_alignof<_Ty>>(_Ptr, sizeof(_Ty) * _Count);

  00083	83 e1 fc	 and	 ecx, -4			; fffffffcH

; 260  :         if (_Bytes >= _Big_allocation_threshold) { // boost the alignment of big allocations to help autovectorization

  00086	81 f9 00 10 00
	00		 cmp	 ecx, 4096		; 00001000H
  0008c	72 12		 jb	 SHORT $LN68@CDynamicPo

; 158  :     const uintptr_t _Ptr_container   = _Ptr_user[-1];

  0008e	8b 50 fc	 mov	 edx, DWORD PTR [eax-4]
  00091	83 c1 23	 add	 ecx, 35			; 00000023H

; 159  : 
; 160  :     // If the following asserts, it likely means that we are performing
; 161  :     // an aligned delete on memory coming from an unaligned allocation.
; 162  :     _STL_ASSERT(_Ptr_user[-2] == _Big_allocation_sentinel, "invalid argument");
; 163  : 
; 164  :     // Extra paranoia on aligned allocation/deallocation; ensure _Ptr_container is
; 165  :     // in range [_Min_back_shift, _Non_user_size]
; 166  : #ifdef _DEBUG
; 167  :     constexpr uintptr_t _Min_back_shift = 2 * sizeof(void*);
; 168  : #else // ^^^ _DEBUG ^^^ // vvv !_DEBUG vvv
; 169  :     constexpr uintptr_t _Min_back_shift = sizeof(void*);
; 170  : #endif // _DEBUG
; 171  :     const uintptr_t _Back_shift = reinterpret_cast<uintptr_t>(_Ptr) - _Ptr_container;

  00094	2b c2		 sub	 eax, edx

; 172  :     _STL_VERIFY(_Back_shift >= _Min_back_shift && _Back_shift <= _Non_user_size, "invalid argument");

  00096	83 c0 fc	 add	 eax, -4			; fffffffcH
  00099	83 f8 1f	 cmp	 eax, 31			; 0000001fH
  0009c	77 25		 ja	 SHORT $LN65@CDynamicPo

; 173  :     _Ptr = reinterpret_cast<void*>(_Ptr_container);

  0009e	8b c2		 mov	 eax, edx
$LN68@CDynamicPo:

; 264  :         ::operator delete(_Ptr, _Bytes);

  000a0	51		 push	 ecx
  000a1	50		 push	 eax
  000a2	e8 00 00 00 00	 call	 ??3@YAXPAXI@Z		; operator delete
; File C:\Program Files (x86)\Microsoft Visual Studio\2019\Professional\VC\Tools\MSVC\14.29.30133\include\vector

; 1767 :             _Myfirst = nullptr;

  000a7	c7 47 04 00 00
	00 00		 mov	 DWORD PTR [edi+4], 0
; File C:\Program Files (x86)\Microsoft Visual Studio\2019\Professional\VC\Tools\MSVC\14.29.30133\include\xmemory

; 264  :         ::operator delete(_Ptr, _Bytes);

  000ae	83 c4 08	 add	 esp, 8
; File C:\Program Files (x86)\Microsoft Visual Studio\2019\Professional\VC\Tools\MSVC\14.29.30133\include\vector

; 1768 :             _Mylast  = nullptr;

  000b1	c7 47 08 00 00
	00 00		 mov	 DWORD PTR [edi+8], 0

; 1769 :             _Myend   = nullptr;

  000b8	c7 47 0c 00 00
	00 00		 mov	 DWORD PTR [edi+12], 0
$LN52@CDynamicPo:
  000bf	5f		 pop	 edi
; File C:\Users\murat\Desktop\Siveps2-1-99-Project\source\client\Client\eterLib\Pool.h

; 142  : 		}

  000c0	5e		 pop	 esi
  000c1	5b		 pop	 ebx
  000c2	c3		 ret	 0
$LN65@CDynamicPo:
; File C:\Program Files (x86)\Microsoft Visual Studio\2019\Professional\VC\Tools\MSVC\14.29.30133\include\xmemory

; 172  :     _STL_VERIFY(_Back_shift >= _Min_back_shift && _Back_shift <= _Non_user_size, "invalid argument");

  000c3	e8 00 00 00 00	 call	 __invalid_parameter_noinfo_noreturn
$LN77@CDynamicPo:
  000c8	cc		 int	 3
??1?$CDynamicPoolEx@VCAirResistanceDecorator@NEffectUpdateDecorator@@@@UAE@XZ ENDP ; CDynamicPoolEx<NEffectUpdateDecorator::CAirResistanceDecorator>::~CDynamicPoolEx<NEffectUpdateDecorator::CAirResistanceDecorator>
_TEXT	ENDS
; Function compile flags: /Ogtp
;	COMDAT ??_G?$CDynamicPoolEx@VCGravityDecorator@NEffectUpdateDecorator@@@@UAEPAXI@Z
_TEXT	SEGMENT
___flags$ = 8						; size = 4
??_G?$CDynamicPoolEx@VCGravityDecorator@NEffectUpdateDecorator@@@@UAEPAXI@Z PROC ; CDynamicPoolEx<NEffectUpdateDecorator::CGravityDecorator>::`scalar deleting destructor', COMDAT
; _this$ = ecx
  00000	55		 push	 ebp
  00001	8b ec		 mov	 ebp, esp
  00003	56		 push	 esi
  00004	8b f1		 mov	 esi, ecx
  00006	e8 00 00 00 00	 call	 ??1?$CDynamicPoolEx@VCGravityDecorator@NEffectUpdateDecorator@@@@UAE@XZ ; CDynamicPoolEx<NEffectUpdateDecorator::CGravityDecorator>::~CDynamicPoolEx<NEffectUpdateDecorator::CGravityDecorator>
  0000b	f6 45 08 01	 test	 BYTE PTR ___flags$[ebp], 1
  0000f	74 0b		 je	 SHORT $LN4@scalar
  00011	6a 24		 push	 36			; 00000024H
  00013	56		 push	 esi
  00014	e8 00 00 00 00	 call	 ??3@YAXPAXI@Z		; operator delete
  00019	83 c4 08	 add	 esp, 8
$LN4@scalar:
  0001c	8b c6		 mov	 eax, esi
  0001e	5e		 pop	 esi
  0001f	5d		 pop	 ebp
  00020	c2 04 00	 ret	 4
??_G?$CDynamicPoolEx@VCGravityDecorator@NEffectUpdateDecorator@@@@UAEPAXI@Z ENDP ; CDynamicPoolEx<NEffectUpdateDecorator::CGravityDecorator>::`scalar deleting destructor'
_TEXT	ENDS
; Function compile flags: /Ogtp
; File C:\Users\murat\Desktop\Siveps2-1-99-Project\source\client\Client\eterLib\Pool.h
;	COMDAT ?Delete@?$CDynamicPoolEx@VCGravityDecorator@NEffectUpdateDecorator@@@@KAXPAVCGravityDecorator@NEffectUpdateDecorator@@@Z
_TEXT	SEGMENT
_pkData$ = 8						; size = 4
?Delete@?$CDynamicPoolEx@VCGravityDecorator@NEffectUpdateDecorator@@@@KAXPAVCGravityDecorator@NEffectUpdateDecorator@@@Z PROC ; CDynamicPoolEx<NEffectUpdateDecorator::CGravityDecorator>::Delete, COMDAT

; 224  : 			::operator delete(pkData);

  00000	e9 00 00 00 00	 jmp	 ??3@YAXPAX@Z		; operator delete
?Delete@?$CDynamicPoolEx@VCGravityDecorator@NEffectUpdateDecorator@@@@KAXPAVCGravityDecorator@NEffectUpdateDecorator@@@Z ENDP ; CDynamicPoolEx<NEffectUpdateDecorator::CGravityDecorator>::Delete
_TEXT	ENDS
; Function compile flags: /Ogtp
; File C:\Users\murat\Desktop\Siveps2-1-99-Project\source\client\Client\eterLib\Pool.h
; File C:\Program Files (x86)\Microsoft Visual Studio\2019\Professional\VC\Tools\MSVC\14.29.30133\include\vector
; File C:\Program Files (x86)\Microsoft Visual Studio\2019\Professional\VC\Tools\MSVC\14.29.30133\include\algorithm
; File C:\Users\murat\Desktop\Siveps2-1-99-Project\source\client\Client\eterLib\Pool.h
; File C:\Program Files (x86)\Microsoft Visual Studio\2019\Professional\VC\Tools\MSVC\14.29.30133\include\algorithm
; File C:\Users\murat\Desktop\Siveps2-1-99-Project\source\client\Client\eterLib\Pool.h
; File C:\Program Files (x86)\Microsoft Visual Studio\2019\Professional\VC\Tools\MSVC\14.29.30133\include\algorithm
; File C:\Users\murat\Desktop\Siveps2-1-99-Project\source\client\Client\eterLib\Pool.h
; File C:\Program Files (x86)\Microsoft Visual Studio\2019\Professional\VC\Tools\MSVC\14.29.30133\include\vector
; File C:\Program Files (x86)\Microsoft Visual Studio\2019\Professional\VC\Tools\MSVC\14.29.30133\include\xmemory
; File C:\Program Files (x86)\Microsoft Visual Studio\2019\Professional\VC\Tools\MSVC\14.29.30133\include\vector
; File C:\Program Files (x86)\Microsoft Visual Studio\2019\Professional\VC\Tools\MSVC\14.29.30133\include\xmemory
; File C:\Program Files (x86)\Microsoft Visual Studio\2019\Professional\VC\Tools\MSVC\14.29.30133\include\vector
; File C:\Program Files (x86)\Microsoft Visual Studio\2019\Professional\VC\Tools\MSVC\14.29.30133\include\xmemory
; File C:\Program Files (x86)\Microsoft Visual Studio\2019\Professional\VC\Tools\MSVC\14.29.30133\include\vector
; File C:\Program Files (x86)\Microsoft Visual Studio\2019\Professional\VC\Tools\MSVC\14.29.30133\include\xmemory
; File C:\Program Files (x86)\Microsoft Visual Studio\2019\Professional\VC\Tools\MSVC\14.29.30133\include\vector
; File C:\Users\murat\Desktop\Siveps2-1-99-Project\source\client\Client\eterLib\Pool.h
; File C:\Program Files (x86)\Microsoft Visual Studio\2019\Professional\VC\Tools\MSVC\14.29.30133\include\xmemory
; File C:\Users\murat\Desktop\Siveps2-1-99-Project\source\client\Client\eterLib\Pool.h
;	COMDAT ??1?$CDynamicPoolEx@VCGravityDecorator@NEffectUpdateDecorator@@@@UAE@XZ
_TEXT	SEGMENT
??1?$CDynamicPoolEx@VCGravityDecorator@NEffectUpdateDecorator@@@@UAE@XZ PROC ; CDynamicPoolEx<NEffectUpdateDecorator::CGravityDecorator>::~CDynamicPoolEx<NEffectUpdateDecorator::CGravityDecorator>, COMDAT
; _this$ = ecx

; 132  : 		{

  00000	53		 push	 ebx
  00001	56		 push	 esi
  00002	57		 push	 edi
  00003	8b f9		 mov	 edi, ecx
  00005	c7 07 00 00 00
	00		 mov	 DWORD PTR [edi], OFFSET ??_7?$CDynamicPoolEx@VCGravityDecorator@NEffectUpdateDecorator@@@@6B@
; File C:\Program Files (x86)\Microsoft Visual Studio\2019\Professional\VC\Tools\MSVC\14.29.30133\include\vector

; 42   :     _CONSTEXPR20_CONTAINER _Vector_const_iterator(_Tptr _Parg, const _Container_base* _Pvector) noexcept : _Ptr(_Parg) {

  0000b	8b 5f 08	 mov	 ebx, DWORD PTR [edi+8]
  0000e	8b 77 04	 mov	 esi, DWORD PTR [edi+4]
; File C:\Program Files (x86)\Microsoft Visual Studio\2019\Professional\VC\Tools\MSVC\14.29.30133\include\algorithm

; 270  :     for (; _UFirst != _ULast; ++_UFirst) {

  00011	3b f3		 cmp	 esi, ebx
  00013	74 14		 je	 SHORT $LN19@CDynamicPo
$LL20@CDynamicPo:
; File C:\Users\murat\Desktop\Siveps2-1-99-Project\source\client\Client\eterLib\Pool.h

; 224  : 			::operator delete(pkData);

  00015	ff 36		 push	 DWORD PTR [esi]
  00017	e8 00 00 00 00	 call	 ??3@YAXPAX@Z		; operator delete
; File C:\Program Files (x86)\Microsoft Visual Studio\2019\Professional\VC\Tools\MSVC\14.29.30133\include\algorithm

; 270  :     for (; _UFirst != _ULast; ++_UFirst) {

  0001c	83 c6 04	 add	 esi, 4
; File C:\Users\murat\Desktop\Siveps2-1-99-Project\source\client\Client\eterLib\Pool.h

; 224  : 			::operator delete(pkData);

  0001f	83 c4 04	 add	 esp, 4
; File C:\Program Files (x86)\Microsoft Visual Studio\2019\Professional\VC\Tools\MSVC\14.29.30133\include\algorithm

; 270  :     for (; _UFirst != _ULast; ++_UFirst) {

  00022	3b f3		 cmp	 esi, ebx
  00024	75 ef		 jne	 SHORT $LL20@CDynamicPo
  00026	8b 77 04	 mov	 esi, DWORD PTR [edi+4]
$LN19@CDynamicPo:
; File C:\Users\murat\Desktop\Siveps2-1-99-Project\source\client\Client\eterLib\Pool.h

; 162  : 			m_kVct_pkFree.clear();

  00029	8b 47 10	 mov	 eax, DWORD PTR [edi+16]
  0002c	89 77 08	 mov	 DWORD PTR [edi+8], esi
  0002f	89 47 14	 mov	 DWORD PTR [edi+20], eax
; File C:\Program Files (x86)\Microsoft Visual Studio\2019\Professional\VC\Tools\MSVC\14.29.30133\include\vector

; 1763 :         if (_Myfirst) { // destroy and deallocate old array

  00032	85 c0		 test	 eax, eax
  00034	74 41		 je	 SHORT $LN27@CDynamicPo

; 1764 :             _Destroy(_Myfirst, _Mylast);
; 1765 :             _Getal().deallocate(_Myfirst, static_cast<size_type>(_Myend - _Myfirst));

  00036	8b 4f 18	 mov	 ecx, DWORD PTR [edi+24]
  00039	2b c8		 sub	 ecx, eax
; File C:\Program Files (x86)\Microsoft Visual Studio\2019\Professional\VC\Tools\MSVC\14.29.30133\include\xmemory

; 835  :         _Deallocate<_New_alignof<_Ty>>(_Ptr, sizeof(_Ty) * _Count);

  0003b	83 e1 fc	 and	 ecx, -4			; fffffffcH

; 260  :         if (_Bytes >= _Big_allocation_threshold) { // boost the alignment of big allocations to help autovectorization

  0003e	81 f9 00 10 00
	00		 cmp	 ecx, 4096		; 00001000H
  00044	72 12		 jb	 SHORT $LN43@CDynamicPo

; 158  :     const uintptr_t _Ptr_container   = _Ptr_user[-1];

  00046	8b 50 fc	 mov	 edx, DWORD PTR [eax-4]
  00049	83 c1 23	 add	 ecx, 35			; 00000023H

; 159  : 
; 160  :     // If the following asserts, it likely means that we are performing
; 161  :     // an aligned delete on memory coming from an unaligned allocation.
; 162  :     _STL_ASSERT(_Ptr_user[-2] == _Big_allocation_sentinel, "invalid argument");
; 163  : 
; 164  :     // Extra paranoia on aligned allocation/deallocation; ensure _Ptr_container is
; 165  :     // in range [_Min_back_shift, _Non_user_size]
; 166  : #ifdef _DEBUG
; 167  :     constexpr uintptr_t _Min_back_shift = 2 * sizeof(void*);
; 168  : #else // ^^^ _DEBUG ^^^ // vvv !_DEBUG vvv
; 169  :     constexpr uintptr_t _Min_back_shift = sizeof(void*);
; 170  : #endif // _DEBUG
; 171  :     const uintptr_t _Back_shift = reinterpret_cast<uintptr_t>(_Ptr) - _Ptr_container;

  0004c	2b c2		 sub	 eax, edx

; 172  :     _STL_VERIFY(_Back_shift >= _Min_back_shift && _Back_shift <= _Non_user_size, "invalid argument");

  0004e	83 c0 fc	 add	 eax, -4			; fffffffcH
  00051	83 f8 1f	 cmp	 eax, 31			; 0000001fH
  00054	77 6d		 ja	 SHORT $LN65@CDynamicPo

; 173  :     _Ptr = reinterpret_cast<void*>(_Ptr_container);

  00056	8b c2		 mov	 eax, edx
$LN43@CDynamicPo:

; 264  :         ::operator delete(_Ptr, _Bytes);

  00058	51		 push	 ecx
  00059	50		 push	 eax
  0005a	e8 00 00 00 00	 call	 ??3@YAXPAXI@Z		; operator delete
; File C:\Program Files (x86)\Microsoft Visual Studio\2019\Professional\VC\Tools\MSVC\14.29.30133\include\vector

; 1767 :             _Myfirst = nullptr;

  0005f	c7 47 10 00 00
	00 00		 mov	 DWORD PTR [edi+16], 0
; File C:\Program Files (x86)\Microsoft Visual Studio\2019\Professional\VC\Tools\MSVC\14.29.30133\include\xmemory

; 264  :         ::operator delete(_Ptr, _Bytes);

  00066	83 c4 08	 add	 esp, 8
; File C:\Program Files (x86)\Microsoft Visual Studio\2019\Professional\VC\Tools\MSVC\14.29.30133\include\vector

; 1768 :             _Mylast  = nullptr;

  00069	c7 47 14 00 00
	00 00		 mov	 DWORD PTR [edi+20], 0

; 1769 :             _Myend   = nullptr;

  00070	c7 47 18 00 00
	00 00		 mov	 DWORD PTR [edi+24], 0
$LN27@CDynamicPo:

; 1763 :         if (_Myfirst) { // destroy and deallocate old array

  00077	8b 47 04	 mov	 eax, DWORD PTR [edi+4]
  0007a	85 c0		 test	 eax, eax
  0007c	74 41		 je	 SHORT $LN52@CDynamicPo

; 1764 :             _Destroy(_Myfirst, _Mylast);
; 1765 :             _Getal().deallocate(_Myfirst, static_cast<size_type>(_Myend - _Myfirst));

  0007e	8b 4f 0c	 mov	 ecx, DWORD PTR [edi+12]
  00081	2b c8		 sub	 ecx, eax
; File C:\Program Files (x86)\Microsoft Visual Studio\2019\Professional\VC\Tools\MSVC\14.29.30133\include\xmemory

; 835  :         _Deallocate<_New_alignof<_Ty>>(_Ptr, sizeof(_Ty) * _Count);

  00083	83 e1 fc	 and	 ecx, -4			; fffffffcH

; 260  :         if (_Bytes >= _Big_allocation_threshold) { // boost the alignment of big allocations to help autovectorization

  00086	81 f9 00 10 00
	00		 cmp	 ecx, 4096		; 00001000H
  0008c	72 12		 jb	 SHORT $LN68@CDynamicPo

; 158  :     const uintptr_t _Ptr_container   = _Ptr_user[-1];

  0008e	8b 50 fc	 mov	 edx, DWORD PTR [eax-4]
  00091	83 c1 23	 add	 ecx, 35			; 00000023H

; 159  : 
; 160  :     // If the following asserts, it likely means that we are performing
; 161  :     // an aligned delete on memory coming from an unaligned allocation.
; 162  :     _STL_ASSERT(_Ptr_user[-2] == _Big_allocation_sentinel, "invalid argument");
; 163  : 
; 164  :     // Extra paranoia on aligned allocation/deallocation; ensure _Ptr_container is
; 165  :     // in range [_Min_back_shift, _Non_user_size]
; 166  : #ifdef _DEBUG
; 167  :     constexpr uintptr_t _Min_back_shift = 2 * sizeof(void*);
; 168  : #else // ^^^ _DEBUG ^^^ // vvv !_DEBUG vvv
; 169  :     constexpr uintptr_t _Min_back_shift = sizeof(void*);
; 170  : #endif // _DEBUG
; 171  :     const uintptr_t _Back_shift = reinterpret_cast<uintptr_t>(_Ptr) - _Ptr_container;

  00094	2b c2		 sub	 eax, edx

; 172  :     _STL_VERIFY(_Back_shift >= _Min_back_shift && _Back_shift <= _Non_user_size, "invalid argument");

  00096	83 c0 fc	 add	 eax, -4			; fffffffcH
  00099	83 f8 1f	 cmp	 eax, 31			; 0000001fH
  0009c	77 25		 ja	 SHORT $LN65@CDynamicPo

; 173  :     _Ptr = reinterpret_cast<void*>(_Ptr_container);

  0009e	8b c2		 mov	 eax, edx
$LN68@CDynamicPo:

; 264  :         ::operator delete(_Ptr, _Bytes);

  000a0	51		 push	 ecx
  000a1	50		 push	 eax
  000a2	e8 00 00 00 00	 call	 ??3@YAXPAXI@Z		; operator delete
; File C:\Program Files (x86)\Microsoft Visual Studio\2019\Professional\VC\Tools\MSVC\14.29.30133\include\vector

; 1767 :             _Myfirst = nullptr;

  000a7	c7 47 04 00 00
	00 00		 mov	 DWORD PTR [edi+4], 0
; File C:\Program Files (x86)\Microsoft Visual Studio\2019\Professional\VC\Tools\MSVC\14.29.30133\include\xmemory

; 264  :         ::operator delete(_Ptr, _Bytes);

  000ae	83 c4 08	 add	 esp, 8
; File C:\Program Files (x86)\Microsoft Visual Studio\2019\Professional\VC\Tools\MSVC\14.29.30133\include\vector

; 1768 :             _Mylast  = nullptr;

  000b1	c7 47 08 00 00
	00 00		 mov	 DWORD PTR [edi+8], 0

; 1769 :             _Myend   = nullptr;

  000b8	c7 47 0c 00 00
	00 00		 mov	 DWORD PTR [edi+12], 0
$LN52@CDynamicPo:
  000bf	5f		 pop	 edi
; File C:\Users\murat\Desktop\Siveps2-1-99-Project\source\client\Client\eterLib\Pool.h

; 142  : 		}

  000c0	5e		 pop	 esi
  000c1	5b		 pop	 ebx
  000c2	c3		 ret	 0
$LN65@CDynamicPo:
; File C:\Program Files (x86)\Microsoft Visual Studio\2019\Professional\VC\Tools\MSVC\14.29.30133\include\xmemory

; 172  :     _STL_VERIFY(_Back_shift >= _Min_back_shift && _Back_shift <= _Non_user_size, "invalid argument");

  000c3	e8 00 00 00 00	 call	 __invalid_parameter_noinfo_noreturn
$LN77@CDynamicPo:
  000c8	cc		 int	 3
??1?$CDynamicPoolEx@VCGravityDecorator@NEffectUpdateDecorator@@@@UAE@XZ ENDP ; CDynamicPoolEx<NEffectUpdateDecorator::CGravityDecorator>::~CDynamicPoolEx<NEffectUpdateDecorator::CGravityDecorator>
_TEXT	ENDS
; Function compile flags: /Ogtp
;	COMDAT ??_G?$CDynamicPoolEx@VCRotationDecorator@NEffectUpdateDecorator@@@@UAEPAXI@Z
_TEXT	SEGMENT
___flags$ = 8						; size = 4
??_G?$CDynamicPoolEx@VCRotationDecorator@NEffectUpdateDecorator@@@@UAEPAXI@Z PROC ; CDynamicPoolEx<NEffectUpdateDecorator::CRotationDecorator>::`scalar deleting destructor', COMDAT
; _this$ = ecx
  00000	55		 push	 ebp
  00001	8b ec		 mov	 ebp, esp
  00003	56		 push	 esi
  00004	8b f1		 mov	 esi, ecx
  00006	e8 00 00 00 00	 call	 ??1?$CDynamicPoolEx@VCRotationDecorator@NEffectUpdateDecorator@@@@UAE@XZ ; CDynamicPoolEx<NEffectUpdateDecorator::CRotationDecorator>::~CDynamicPoolEx<NEffectUpdateDecorator::CRotationDecorator>
  0000b	f6 45 08 01	 test	 BYTE PTR ___flags$[ebp], 1
  0000f	74 0b		 je	 SHORT $LN4@scalar
  00011	6a 24		 push	 36			; 00000024H
  00013	56		 push	 esi
  00014	e8 00 00 00 00	 call	 ??3@YAXPAXI@Z		; operator delete
  00019	83 c4 08	 add	 esp, 8
$LN4@scalar:
  0001c	8b c6		 mov	 eax, esi
  0001e	5e		 pop	 esi
  0001f	5d		 pop	 ebp
  00020	c2 04 00	 ret	 4
??_G?$CDynamicPoolEx@VCRotationDecorator@NEffectUpdateDecorator@@@@UAEPAXI@Z ENDP ; CDynamicPoolEx<NEffectUpdateDecorator::CRotationDecorator>::`scalar deleting destructor'
_TEXT	ENDS
; Function compile flags: /Ogtp
; File C:\Users\murat\Desktop\Siveps2-1-99-Project\source\client\Client\eterLib\Pool.h
;	COMDAT ?Delete@?$CDynamicPoolEx@VCRotationDecorator@NEffectUpdateDecorator@@@@KAXPAVCRotationDecorator@NEffectUpdateDecorator@@@Z
_TEXT	SEGMENT
_pkData$ = 8						; size = 4
?Delete@?$CDynamicPoolEx@VCRotationDecorator@NEffectUpdateDecorator@@@@KAXPAVCRotationDecorator@NEffectUpdateDecorator@@@Z PROC ; CDynamicPoolEx<NEffectUpdateDecorator::CRotationDecorator>::Delete, COMDAT

; 224  : 			::operator delete(pkData);

  00000	e9 00 00 00 00	 jmp	 ??3@YAXPAX@Z		; operator delete
?Delete@?$CDynamicPoolEx@VCRotationDecorator@NEffectUpdateDecorator@@@@KAXPAVCRotationDecorator@NEffectUpdateDecorator@@@Z ENDP ; CDynamicPoolEx<NEffectUpdateDecorator::CRotationDecorator>::Delete
_TEXT	ENDS
; Function compile flags: /Ogtp
; File C:\Users\murat\Desktop\Siveps2-1-99-Project\source\client\Client\eterLib\Pool.h
; File C:\Program Files (x86)\Microsoft Visual Studio\2019\Professional\VC\Tools\MSVC\14.29.30133\include\vector
; File C:\Program Files (x86)\Microsoft Visual Studio\2019\Professional\VC\Tools\MSVC\14.29.30133\include\algorithm
; File C:\Users\murat\Desktop\Siveps2-1-99-Project\source\client\Client\eterLib\Pool.h
; File C:\Program Files (x86)\Microsoft Visual Studio\2019\Professional\VC\Tools\MSVC\14.29.30133\include\algorithm
; File C:\Users\murat\Desktop\Siveps2-1-99-Project\source\client\Client\eterLib\Pool.h
; File C:\Program Files (x86)\Microsoft Visual Studio\2019\Professional\VC\Tools\MSVC\14.29.30133\include\algorithm
; File C:\Users\murat\Desktop\Siveps2-1-99-Project\source\client\Client\eterLib\Pool.h
; File C:\Program Files (x86)\Microsoft Visual Studio\2019\Professional\VC\Tools\MSVC\14.29.30133\include\vector
; File C:\Program Files (x86)\Microsoft Visual Studio\2019\Professional\VC\Tools\MSVC\14.29.30133\include\xmemory
; File C:\Program Files (x86)\Microsoft Visual Studio\2019\Professional\VC\Tools\MSVC\14.29.30133\include\vector
; File C:\Program Files (x86)\Microsoft Visual Studio\2019\Professional\VC\Tools\MSVC\14.29.30133\include\xmemory
; File C:\Program Files (x86)\Microsoft Visual Studio\2019\Professional\VC\Tools\MSVC\14.29.30133\include\vector
; File C:\Program Files (x86)\Microsoft Visual Studio\2019\Professional\VC\Tools\MSVC\14.29.30133\include\xmemory
; File C:\Program Files (x86)\Microsoft Visual Studio\2019\Professional\VC\Tools\MSVC\14.29.30133\include\vector
; File C:\Program Files (x86)\Microsoft Visual Studio\2019\Professional\VC\Tools\MSVC\14.29.30133\include\xmemory
; File C:\Program Files (x86)\Microsoft Visual Studio\2019\Professional\VC\Tools\MSVC\14.29.30133\include\vector
; File C:\Users\murat\Desktop\Siveps2-1-99-Project\source\client\Client\eterLib\Pool.h
; File C:\Program Files (x86)\Microsoft Visual Studio\2019\Professional\VC\Tools\MSVC\14.29.30133\include\xmemory
; File C:\Users\murat\Desktop\Siveps2-1-99-Project\source\client\Client\eterLib\Pool.h
;	COMDAT ??1?$CDynamicPoolEx@VCRotationDecorator@NEffectUpdateDecorator@@@@UAE@XZ
_TEXT	SEGMENT
??1?$CDynamicPoolEx@VCRotationDecorator@NEffectUpdateDecorator@@@@UAE@XZ PROC ; CDynamicPoolEx<NEffectUpdateDecorator::CRotationDecorator>::~CDynamicPoolEx<NEffectUpdateDecorator::CRotationDecorator>, COMDAT
; _this$ = ecx

; 132  : 		{

  00000	53		 push	 ebx
  00001	56		 push	 esi
  00002	57		 push	 edi
  00003	8b f9		 mov	 edi, ecx
  00005	c7 07 00 00 00
	00		 mov	 DWORD PTR [edi], OFFSET ??_7?$CDynamicPoolEx@VCRotationDecorator@NEffectUpdateDecorator@@@@6B@
; File C:\Program Files (x86)\Microsoft Visual Studio\2019\Professional\VC\Tools\MSVC\14.29.30133\include\vector

; 42   :     _CONSTEXPR20_CONTAINER _Vector_const_iterator(_Tptr _Parg, const _Container_base* _Pvector) noexcept : _Ptr(_Parg) {

  0000b	8b 5f 08	 mov	 ebx, DWORD PTR [edi+8]
  0000e	8b 77 04	 mov	 esi, DWORD PTR [edi+4]
; File C:\Program Files (x86)\Microsoft Visual Studio\2019\Professional\VC\Tools\MSVC\14.29.30133\include\algorithm

; 270  :     for (; _UFirst != _ULast; ++_UFirst) {

  00011	3b f3		 cmp	 esi, ebx
  00013	74 14		 je	 SHORT $LN19@CDynamicPo
$LL20@CDynamicPo:
; File C:\Users\murat\Desktop\Siveps2-1-99-Project\source\client\Client\eterLib\Pool.h

; 224  : 			::operator delete(pkData);

  00015	ff 36		 push	 DWORD PTR [esi]
  00017	e8 00 00 00 00	 call	 ??3@YAXPAX@Z		; operator delete
; File C:\Program Files (x86)\Microsoft Visual Studio\2019\Professional\VC\Tools\MSVC\14.29.30133\include\algorithm

; 270  :     for (; _UFirst != _ULast; ++_UFirst) {

  0001c	83 c6 04	 add	 esi, 4
; File C:\Users\murat\Desktop\Siveps2-1-99-Project\source\client\Client\eterLib\Pool.h

; 224  : 			::operator delete(pkData);

  0001f	83 c4 04	 add	 esp, 4
; File C:\Program Files (x86)\Microsoft Visual Studio\2019\Professional\VC\Tools\MSVC\14.29.30133\include\algorithm

; 270  :     for (; _UFirst != _ULast; ++_UFirst) {

  00022	3b f3		 cmp	 esi, ebx
  00024	75 ef		 jne	 SHORT $LL20@CDynamicPo
  00026	8b 77 04	 mov	 esi, DWORD PTR [edi+4]
$LN19@CDynamicPo:
; File C:\Users\murat\Desktop\Siveps2-1-99-Project\source\client\Client\eterLib\Pool.h

; 162  : 			m_kVct_pkFree.clear();

  00029	8b 47 10	 mov	 eax, DWORD PTR [edi+16]
  0002c	89 77 08	 mov	 DWORD PTR [edi+8], esi
  0002f	89 47 14	 mov	 DWORD PTR [edi+20], eax
; File C:\Program Files (x86)\Microsoft Visual Studio\2019\Professional\VC\Tools\MSVC\14.29.30133\include\vector

; 1763 :         if (_Myfirst) { // destroy and deallocate old array

  00032	85 c0		 test	 eax, eax
  00034	74 41		 je	 SHORT $LN27@CDynamicPo

; 1764 :             _Destroy(_Myfirst, _Mylast);
; 1765 :             _Getal().deallocate(_Myfirst, static_cast<size_type>(_Myend - _Myfirst));

  00036	8b 4f 18	 mov	 ecx, DWORD PTR [edi+24]
  00039	2b c8		 sub	 ecx, eax
; File C:\Program Files (x86)\Microsoft Visual Studio\2019\Professional\VC\Tools\MSVC\14.29.30133\include\xmemory

; 835  :         _Deallocate<_New_alignof<_Ty>>(_Ptr, sizeof(_Ty) * _Count);

  0003b	83 e1 fc	 and	 ecx, -4			; fffffffcH

; 260  :         if (_Bytes >= _Big_allocation_threshold) { // boost the alignment of big allocations to help autovectorization

  0003e	81 f9 00 10 00
	00		 cmp	 ecx, 4096		; 00001000H
  00044	72 12		 jb	 SHORT $LN43@CDynamicPo

; 158  :     const uintptr_t _Ptr_container   = _Ptr_user[-1];

  00046	8b 50 fc	 mov	 edx, DWORD PTR [eax-4]
  00049	83 c1 23	 add	 ecx, 35			; 00000023H

; 159  : 
; 160  :     // If the following asserts, it likely means that we are performing
; 161  :     // an aligned delete on memory coming from an unaligned allocation.
; 162  :     _STL_ASSERT(_Ptr_user[-2] == _Big_allocation_sentinel, "invalid argument");
; 163  : 
; 164  :     // Extra paranoia on aligned allocation/deallocation; ensure _Ptr_container is
; 165  :     // in range [_Min_back_shift, _Non_user_size]
; 166  : #ifdef _DEBUG
; 167  :     constexpr uintptr_t _Min_back_shift = 2 * sizeof(void*);
; 168  : #else // ^^^ _DEBUG ^^^ // vvv !_DEBUG vvv
; 169  :     constexpr uintptr_t _Min_back_shift = sizeof(void*);
; 170  : #endif // _DEBUG
; 171  :     const uintptr_t _Back_shift = reinterpret_cast<uintptr_t>(_Ptr) - _Ptr_container;

  0004c	2b c2		 sub	 eax, edx

; 172  :     _STL_VERIFY(_Back_shift >= _Min_back_shift && _Back_shift <= _Non_user_size, "invalid argument");

  0004e	83 c0 fc	 add	 eax, -4			; fffffffcH
  00051	83 f8 1f	 cmp	 eax, 31			; 0000001fH
  00054	77 6d		 ja	 SHORT $LN65@CDynamicPo

; 173  :     _Ptr = reinterpret_cast<void*>(_Ptr_container);

  00056	8b c2		 mov	 eax, edx
$LN43@CDynamicPo:

; 264  :         ::operator delete(_Ptr, _Bytes);

  00058	51		 push	 ecx
  00059	50		 push	 eax
  0005a	e8 00 00 00 00	 call	 ??3@YAXPAXI@Z		; operator delete
; File C:\Program Files (x86)\Microsoft Visual Studio\2019\Professional\VC\Tools\MSVC\14.29.30133\include\vector

; 1767 :             _Myfirst = nullptr;

  0005f	c7 47 10 00 00
	00 00		 mov	 DWORD PTR [edi+16], 0
; File C:\Program Files (x86)\Microsoft Visual Studio\2019\Professional\VC\Tools\MSVC\14.29.30133\include\xmemory

; 264  :         ::operator delete(_Ptr, _Bytes);

  00066	83 c4 08	 add	 esp, 8
; File C:\Program Files (x86)\Microsoft Visual Studio\2019\Professional\VC\Tools\MSVC\14.29.30133\include\vector

; 1768 :             _Mylast  = nullptr;

  00069	c7 47 14 00 00
	00 00		 mov	 DWORD PTR [edi+20], 0

; 1769 :             _Myend   = nullptr;

  00070	c7 47 18 00 00
	00 00		 mov	 DWORD PTR [edi+24], 0
$LN27@CDynamicPo:

; 1763 :         if (_Myfirst) { // destroy and deallocate old array

  00077	8b 47 04	 mov	 eax, DWORD PTR [edi+4]
  0007a	85 c0		 test	 eax, eax
  0007c	74 41		 je	 SHORT $LN52@CDynamicPo

; 1764 :             _Destroy(_Myfirst, _Mylast);
; 1765 :             _Getal().deallocate(_Myfirst, static_cast<size_type>(_Myend - _Myfirst));

  0007e	8b 4f 0c	 mov	 ecx, DWORD PTR [edi+12]
  00081	2b c8		 sub	 ecx, eax
; File C:\Program Files (x86)\Microsoft Visual Studio\2019\Professional\VC\Tools\MSVC\14.29.30133\include\xmemory

; 835  :         _Deallocate<_New_alignof<_Ty>>(_Ptr, sizeof(_Ty) * _Count);

  00083	83 e1 fc	 and	 ecx, -4			; fffffffcH

; 260  :         if (_Bytes >= _Big_allocation_threshold) { // boost the alignment of big allocations to help autovectorization

  00086	81 f9 00 10 00
	00		 cmp	 ecx, 4096		; 00001000H
  0008c	72 12		 jb	 SHORT $LN68@CDynamicPo

; 158  :     const uintptr_t _Ptr_container   = _Ptr_user[-1];

  0008e	8b 50 fc	 mov	 edx, DWORD PTR [eax-4]
  00091	83 c1 23	 add	 ecx, 35			; 00000023H

; 159  : 
; 160  :     // If the following asserts, it likely means that we are performing
; 161  :     // an aligned delete on memory coming from an unaligned allocation.
; 162  :     _STL_ASSERT(_Ptr_user[-2] == _Big_allocation_sentinel, "invalid argument");
; 163  : 
; 164  :     // Extra paranoia on aligned allocation/deallocation; ensure _Ptr_container is
; 165  :     // in range [_Min_back_shift, _Non_user_size]
; 166  : #ifdef _DEBUG
; 167  :     constexpr uintptr_t _Min_back_shift = 2 * sizeof(void*);
; 168  : #else // ^^^ _DEBUG ^^^ // vvv !_DEBUG vvv
; 169  :     constexpr uintptr_t _Min_back_shift = sizeof(void*);
; 170  : #endif // _DEBUG
; 171  :     const uintptr_t _Back_shift = reinterpret_cast<uintptr_t>(_Ptr) - _Ptr_container;

  00094	2b c2		 sub	 eax, edx

; 172  :     _STL_VERIFY(_Back_shift >= _Min_back_shift && _Back_shift <= _Non_user_size, "invalid argument");

  00096	83 c0 fc	 add	 eax, -4			; fffffffcH
  00099	83 f8 1f	 cmp	 eax, 31			; 0000001fH
  0009c	77 25		 ja	 SHORT $LN65@CDynamicPo

; 173  :     _Ptr = reinterpret_cast<void*>(_Ptr_container);

  0009e	8b c2		 mov	 eax, edx
$LN68@CDynamicPo:

; 264  :         ::operator delete(_Ptr, _Bytes);

  000a0	51		 push	 ecx
  000a1	50		 push	 eax
  000a2	e8 00 00 00 00	 call	 ??3@YAXPAXI@Z		; operator delete
; File C:\Program Files (x86)\Microsoft Visual Studio\2019\Professional\VC\Tools\MSVC\14.29.30133\include\vector

; 1767 :             _Myfirst = nullptr;

  000a7	c7 47 04 00 00
	00 00		 mov	 DWORD PTR [edi+4], 0
; File C:\Program Files (x86)\Microsoft Visual Studio\2019\Professional\VC\Tools\MSVC\14.29.30133\include\xmemory

; 264  :         ::operator delete(_Ptr, _Bytes);

  000ae	83 c4 08	 add	 esp, 8
; File C:\Program Files (x86)\Microsoft Visual Studio\2019\Professional\VC\Tools\MSVC\14.29.30133\include\vector

; 1768 :             _Mylast  = nullptr;

  000b1	c7 47 08 00 00
	00 00		 mov	 DWORD PTR [edi+8], 0

; 1769 :             _Myend   = nullptr;

  000b8	c7 47 0c 00 00
	00 00		 mov	 DWORD PTR [edi+12], 0
$LN52@CDynamicPo:
  000bf	5f		 pop	 edi
; File C:\Users\murat\Desktop\Siveps2-1-99-Project\source\client\Client\eterLib\Pool.h

; 142  : 		}

  000c0	5e		 pop	 esi
  000c1	5b		 pop	 ebx
  000c2	c3		 ret	 0
$LN65@CDynamicPo:
; File C:\Program Files (x86)\Microsoft Visual Studio\2019\Professional\VC\Tools\MSVC\14.29.30133\include\xmemory

; 172  :     _STL_VERIFY(_Back_shift >= _Min_back_shift && _Back_shift <= _Non_user_size, "invalid argument");

  000c3	e8 00 00 00 00	 call	 __invalid_parameter_noinfo_noreturn
$LN77@CDynamicPo:
  000c8	cc		 int	 3
??1?$CDynamicPoolEx@VCRotationDecorator@NEffectUpdateDecorator@@@@UAE@XZ ENDP ; CDynamicPoolEx<NEffectUpdateDecorator::CRotationDecorator>::~CDynamicPoolEx<NEffectUpdateDecorator::CRotationDecorator>
_TEXT	ENDS
; Function compile flags: /Ogtp
; File C:\Program Files (x86)\Microsoft Visual Studio\2019\Professional\VC\Tools\MSVC\14.29.30133\include\vector
; File C:\Program Files (x86)\Microsoft Visual Studio\2019\Professional\VC\Tools\MSVC\14.29.30133\include\xmemory
; File C:\Program Files (x86)\Microsoft Visual Studio\2019\Professional\VC\Tools\MSVC\14.29.30133\include\vector
; File C:\Program Files (x86)\Microsoft Visual Studio\2019\Professional\VC\Tools\MSVC\14.29.30133\include\xmemory
; File C:\Program Files (x86)\Microsoft Visual Studio\2019\Professional\VC\Tools\MSVC\14.29.30133\include\vector
; File C:\Program Files (x86)\Microsoft Visual Studio\2019\Professional\VC\Tools\MSVC\14.29.30133\include\xmemory
; File C:\Program Files (x86)\Microsoft Visual Studio\2019\Professional\VC\Tools\MSVC\14.29.30133\include\vector
; File C:\Program Files (x86)\Microsoft Visual Studio\2019\Professional\VC\Tools\MSVC\14.29.30133\include\xmemory
; File C:\Program Files (x86)\Microsoft Visual Studio\2019\Professional\VC\Tools\MSVC\14.29.30133\include\vector
; File C:\Program Files (x86)\Microsoft Visual Studio\2019\Professional\VC\Tools\MSVC\14.29.30133\include\xmemory
; File C:\Program Files (x86)\Microsoft Visual Studio\2019\Professional\VC\Tools\MSVC\14.29.30133\include\vector
; File C:\Program Files (x86)\Microsoft Visual Studio\2019\Professional\VC\Tools\MSVC\14.29.30133\include\xmemory
; File C:\Program Files (x86)\Microsoft Visual Studio\2019\Professional\VC\Tools\MSVC\14.29.30133\include\vector
; File C:\Program Files (x86)\Microsoft Visual Studio\2019\Professional\VC\Tools\MSVC\14.29.30133\include\xmemory
; File C:\Program Files (x86)\Microsoft Visual Studio\2019\Professional\VC\Tools\MSVC\14.29.30133\include\vector
;	COMDAT ??$_Emplace_reallocate@ABQAVCGraphicImageInstance@@@?$vector@PAVCGraphicImageInstance@@V?$allocator@PAVCGraphicImageInstance@@@std@@@std@@QAEPAPAVCGraphicImageInstance@@QAPAV2@ABQAV2@@Z
_TEXT	SEGMENT
__Newsize$1$ = -8					; size = 4
__Whereoff$1$ = -4					; size = 4
tv505 = -4						; size = 4
__Whereptr$ = 8						; size = 4
_<_Val_0>$ = 12						; size = 4
??$_Emplace_reallocate@ABQAVCGraphicImageInstance@@@?$vector@PAVCGraphicImageInstance@@V?$allocator@PAVCGraphicImageInstance@@@std@@@std@@QAEPAPAVCGraphicImageInstance@@QAPAV2@ABQAV2@@Z PROC ; std::vector<CGraphicImageInstance *,std::allocator<CGraphicImageInstance *> >::_Emplace_reallocate<CGraphicImageInstance * const &>, COMDAT
; _this$ = ecx

; 765  :     _CONSTEXPR20_CONTAINER pointer _Emplace_reallocate(const pointer _Whereptr, _Valty&&... _Val) {

  00000	55		 push	 ebp
  00001	8b ec		 mov	 ebp, esp
  00003	83 ec 08	 sub	 esp, 8

; 766  :         // reallocate and insert by perfectly forwarding _Val at _Whereptr
; 767  :         _Alty& _Al        = _Getal();
; 768  :         auto& _My_data    = _Mypair._Myval2;
; 769  :         pointer& _Myfirst = _My_data._Myfirst;
; 770  :         pointer& _Mylast  = _My_data._Mylast;
; 771  : 
; 772  :         _STL_INTERNAL_CHECK(_Mylast == _My_data._Myend); // check that we have no unused capacity
; 773  : 
; 774  :         const auto _Whereoff = static_cast<size_type>(_Whereptr - _Myfirst);

  00006	8b 45 08	 mov	 eax, DWORD PTR __Whereptr$[ebp]
  00009	53		 push	 ebx
  0000a	8b d9		 mov	 ebx, ecx
  0000c	56		 push	 esi
  0000d	57		 push	 edi
  0000e	8b 13		 mov	 edx, DWORD PTR [ebx]
  00010	2b c2		 sub	 eax, edx
  00012	c1 f8 02	 sar	 eax, 2
  00015	89 45 fc	 mov	 DWORD PTR __Whereoff$1$[ebp], eax

; 775  :         const auto _Oldsize  = static_cast<size_type>(_Mylast - _Myfirst);

  00018	8b 43 04	 mov	 eax, DWORD PTR [ebx+4]
  0001b	2b c2		 sub	 eax, edx
  0001d	c1 f8 02	 sar	 eax, 2

; 776  : 
; 777  :         if (_Oldsize == max_size()) {

  00020	3d ff ff ff 3f	 cmp	 eax, 1073741823		; 3fffffffH
  00025	0f 84 d2 00 00
	00		 je	 $LN74@Emplace_re

; 1559 :         return static_cast<size_type>(_My_data._Myend - _My_data._Myfirst);

  0002b	8b 4b 08	 mov	 ecx, DWORD PTR [ebx+8]

; 779  :         }
; 780  : 
; 781  :         const size_type _Newsize     = _Oldsize + 1;

  0002e	8d 78 01	 lea	 edi, DWORD PTR [eax+1]

; 1559 :         return static_cast<size_type>(_My_data._Myend - _My_data._Myfirst);

  00031	2b ca		 sub	 ecx, edx

; 779  :         }
; 780  : 
; 781  :         const size_type _Newsize     = _Oldsize + 1;

  00033	89 7d f8	 mov	 DWORD PTR __Newsize$1$[ebp], edi

; 1559 :         return static_cast<size_type>(_My_data._Myend - _My_data._Myfirst);

  00036	c1 f9 02	 sar	 ecx, 2

; 1688 :         if (_Oldcapacity > _Max - _Oldcapacity / 2) {

  00039	b8 ff ff ff 3f	 mov	 eax, 1073741823		; 3fffffffH
  0003e	8b d1		 mov	 edx, ecx
  00040	d1 ea		 shr	 edx, 1
  00042	2b c2		 sub	 eax, edx
  00044	3b c8		 cmp	 ecx, eax
  00046	76 17		 jbe	 SHORT $LN12@Emplace_re

; 1689 :             return _Max; // geometric growth would overflow

  00048	b8 fc ff ff ff	 mov	 eax, -4			; fffffffcH
  0004d	be ff ff ff 3f	 mov	 esi, 1073741823		; 3fffffffH
; File C:\Program Files (x86)\Microsoft Visual Studio\2019\Professional\VC\Tools\MSVC\14.29.30133\include\xmemory

; 238  :             return _Allocate_manually_vector_aligned<_Traits>(_Bytes);

  00052	50		 push	 eax
  00053	e8 00 00 00 00	 call	 ??$_Allocate_manually_vector_aligned@U_Default_allocate_traits@std@@@std@@YAPAXI@Z ; std::_Allocate_manually_vector_aligned<std::_Default_allocate_traits>
  00058	83 c4 04	 add	 esp, 4
  0005b	8b f8		 mov	 edi, eax
  0005d	eb 44		 jmp	 SHORT $LN23@Emplace_re
$LN12@Emplace_re:
; File C:\Program Files (x86)\Microsoft Visual Studio\2019\Professional\VC\Tools\MSVC\14.29.30133\include\vector

; 1692 :         const size_type _Geometric = _Oldcapacity + _Oldcapacity / 2;

  0005f	8d 04 0a	 lea	 eax, DWORD PTR [edx+ecx]
; File C:\Program Files (x86)\Microsoft Visual Studio\2019\Professional\VC\Tools\MSVC\14.29.30133\include\xmemory

; 64   :         if (_Count > _Max_possible) {

  00062	8b f7		 mov	 esi, edi
  00064	3b c7		 cmp	 eax, edi
  00066	0f 43 f0	 cmovae	 esi, eax
  00069	81 fe ff ff ff
	3f		 cmp	 esi, 1073741823		; 3fffffffH
  0006f	0f 87 8d 00 00
	00		 ja	 $LN75@Emplace_re

; 66   :         }
; 67   :     }
; 68   : 
; 69   :     return _Count * _Ty_size;

  00075	8d 04 b5 00 00
	00 00		 lea	 eax, DWORD PTR [esi*4]

; 237  :         if (_Bytes >= _Big_allocation_threshold) { // boost the alignment of big allocations to help autovectorization

  0007c	3d 00 10 00 00	 cmp	 eax, 4096		; 00001000H
  00081	72 0d		 jb	 SHORT $LN24@Emplace_re

; 238  :             return _Allocate_manually_vector_aligned<_Traits>(_Bytes);

  00083	50		 push	 eax
  00084	e8 00 00 00 00	 call	 ??$_Allocate_manually_vector_aligned@U_Default_allocate_traits@std@@@std@@YAPAXI@Z ; std::_Allocate_manually_vector_aligned<std::_Default_allocate_traits>
  00089	83 c4 04	 add	 esp, 4
  0008c	8b f8		 mov	 edi, eax
  0008e	eb 13		 jmp	 SHORT $LN23@Emplace_re
$LN24@Emplace_re:

; 239  :         }
; 240  :     }
; 241  : #endif // defined(_M_IX86) || defined(_M_X64)
; 242  : 
; 243  :     if (_Bytes != 0) {

  00090	85 c0		 test	 eax, eax
  00092	74 0d		 je	 SHORT $LN25@Emplace_re

; 85   :         return ::operator new(_Bytes);

  00094	50		 push	 eax
  00095	e8 00 00 00 00	 call	 ??2@YAPAXI@Z		; operator new
  0009a	83 c4 04	 add	 esp, 4

; 244  :         return _Traits::_Allocate(_Bytes);

  0009d	8b f8		 mov	 edi, eax
  0009f	eb 02		 jmp	 SHORT $LN23@Emplace_re
$LN25@Emplace_re:

; 245  :     }
; 246  : 
; 247  :     return nullptr;

  000a1	33 ff		 xor	 edi, edi
$LN23@Emplace_re:
; File C:\Program Files (x86)\Microsoft Visual Studio\2019\Professional\VC\Tools\MSVC\14.29.30133\include\vector

; 789  :         _Alty_traits::construct(_Al, _Unfancy(_Newvec + _Whereoff), _STD forward<_Valty>(_Val)...);

  000a3	8b 45 fc	 mov	 eax, DWORD PTR __Whereoff$1$[ebp]
  000a6	8d 0c 87	 lea	 ecx, DWORD PTR [edi+eax*4]
  000a9	8b 45 0c	 mov	 eax, DWORD PTR _<_Val_0>$[ebp]
  000ac	89 4d fc	 mov	 DWORD PTR tv505[ebp], ecx
  000af	8b 00		 mov	 eax, DWORD PTR [eax]
  000b1	89 01		 mov	 DWORD PTR [ecx], eax

; 790  :         _Constructed_first = _Newvec + _Whereoff;
; 791  : 
; 792  :         if (_Whereptr == _Mylast) { // at back, provide strong guarantee

  000b3	8b 4b 04	 mov	 ecx, DWORD PTR [ebx+4]
  000b6	8b 45 08	 mov	 eax, DWORD PTR __Whereptr$[ebp]
  000b9	8b 13		 mov	 edx, DWORD PTR [ebx]
  000bb	3b c1		 cmp	 eax, ecx
  000bd	75 04		 jne	 SHORT $LN4@Emplace_re
; File C:\Program Files (x86)\Microsoft Visual Studio\2019\Professional\VC\Tools\MSVC\14.29.30133\include\xmemory

; 1725 :             _Copy_memmove(_UFirst, _ULast, _Unfancy(_Dest));

  000bf	8b c7		 mov	 eax, edi
; File C:\Program Files (x86)\Microsoft Visual Studio\2019\Professional\VC\Tools\MSVC\14.29.30133\include\vector

; 794  :         } else { // provide basic guarantee

  000c1	eb 17		 jmp	 SHORT $LN60@Emplace_re
$LN4@Emplace_re:
; File C:\Program Files (x86)\Microsoft Visual Studio\2019\Professional\VC\Tools\MSVC\14.29.30133\include\xmemory

; 1725 :             _Copy_memmove(_UFirst, _ULast, _Unfancy(_Dest));

  000c3	57		 push	 edi
  000c4	50		 push	 eax
  000c5	52		 push	 edx
  000c6	e8 00 00 00 00	 call	 ??$_Copy_memmove@PAPAVCGraphicImageInstance@@PAPAV1@@std@@YAPAPAVCGraphicImageInstance@@PAPAV1@00@Z ; std::_Copy_memmove<CGraphicImageInstance * *,CGraphicImageInstance * *>
; File C:\Program Files (x86)\Microsoft Visual Studio\2019\Professional\VC\Tools\MSVC\14.29.30133\include\vector

; 797  :             _Umove(_Whereptr, _Mylast, _Newvec + _Whereoff + 1);

  000cb	8b 45 fc	 mov	 eax, DWORD PTR tv505[ebp]
; File C:\Program Files (x86)\Microsoft Visual Studio\2019\Professional\VC\Tools\MSVC\14.29.30133\include\xmemory

; 1725 :             _Copy_memmove(_UFirst, _ULast, _Unfancy(_Dest));

  000ce	83 c4 0c	 add	 esp, 12			; 0000000cH
  000d1	8b 55 08	 mov	 edx, DWORD PTR __Whereptr$[ebp]
; File C:\Program Files (x86)\Microsoft Visual Studio\2019\Professional\VC\Tools\MSVC\14.29.30133\include\vector

; 797  :             _Umove(_Whereptr, _Mylast, _Newvec + _Whereoff + 1);

  000d4	83 c0 04	 add	 eax, 4
; File C:\Program Files (x86)\Microsoft Visual Studio\2019\Professional\VC\Tools\MSVC\14.29.30133\include\xmemory

; 1725 :             _Copy_memmove(_UFirst, _ULast, _Unfancy(_Dest));

  000d7	8b 4b 04	 mov	 ecx, DWORD PTR [ebx+4]
$LN60@Emplace_re:
; File C:\Program Files (x86)\Microsoft Visual Studio\2019\Professional\VC\Tools\MSVC\14.29.30133\include\vector

; 797  :             _Umove(_Whereptr, _Mylast, _Newvec + _Whereoff + 1);

  000da	50		 push	 eax
  000db	51		 push	 ecx
  000dc	52		 push	 edx
  000dd	e8 00 00 00 00	 call	 ??$_Copy_memmove@PAPAVCGraphicImageInstance@@PAPAV1@@std@@YAPAPAVCGraphicImageInstance@@PAPAV1@00@Z ; std::_Copy_memmove<CGraphicImageInstance * *,CGraphicImageInstance * *>
  000e2	83 c4 0c	 add	 esp, 12			; 0000000cH

; 798  :         }
; 799  :         _CATCH_ALL
; 800  :         _Destroy(_Constructed_first, _Constructed_last);
; 801  :         _Al.deallocate(_Newvec, _Newcapacity);
; 802  :         _RERAISE;
; 803  :         _CATCH_END
; 804  : 
; 805  :         _Change_array(_Newvec, _Newsize, _Newcapacity);

  000e5	8b cb		 mov	 ecx, ebx
  000e7	56		 push	 esi
  000e8	ff 75 f8	 push	 DWORD PTR __Newsize$1$[ebp]
  000eb	57		 push	 edi
  000ec	e8 00 00 00 00	 call	 ?_Change_array@?$vector@PAVCGraphicImageInstance@@V?$allocator@PAVCGraphicImageInstance@@@std@@@std@@AAEXQAPAVCGraphicImageInstance@@II@Z ; std::vector<CGraphicImageInstance *,std::allocator<CGraphicImageInstance *> >::_Change_array

; 806  :         return _Newvec + _Whereoff;

  000f1	8b 45 fc	 mov	 eax, DWORD PTR tv505[ebp]
  000f4	5f		 pop	 edi
  000f5	5e		 pop	 esi
  000f6	5b		 pop	 ebx

; 807  :     }

  000f7	8b e5		 mov	 esp, ebp
  000f9	5d		 pop	 ebp
  000fa	c2 08 00	 ret	 8
$LN74@Emplace_re:

; 778  :             _Xlength();

  000fd	e8 00 00 00 00	 call	 ?_Xlength@?$vector@PAVCGraphicImageInstance@@V?$allocator@PAVCGraphicImageInstance@@@std@@@std@@CAXXZ ; std::vector<CGraphicImageInstance *,std::allocator<CGraphicImageInstance *> >::_Xlength
$LN75@Emplace_re:
; File C:\Program Files (x86)\Microsoft Visual Studio\2019\Professional\VC\Tools\MSVC\14.29.30133\include\xmemory

; 65   :             _Throw_bad_array_new_length(); // multiply overflow

  00102	e8 00 00 00 00	 call	 ?_Throw_bad_array_new_length@std@@YAXXZ ; std::_Throw_bad_array_new_length
$LN72@Emplace_re:
  00107	cc		 int	 3
??$_Emplace_reallocate@ABQAVCGraphicImageInstance@@@?$vector@PAVCGraphicImageInstance@@V?$allocator@PAVCGraphicImageInstance@@@std@@@std@@QAEPAPAVCGraphicImageInstance@@QAPAV2@ABQAV2@@Z ENDP ; std::vector<CGraphicImageInstance *,std::allocator<CGraphicImageInstance *> >::_Emplace_reallocate<CGraphicImageInstance * const &>
_TEXT	ENDS
; Function compile flags: /Ogtp
; File C:\Users\murat\Desktop\Siveps2-1-99-Project\source\client\Client\EffectLib\ParticleSystemInstance.h
; File C:\Program Files (x86)\Microsoft Visual Studio\2019\Professional\VC\Tools\MSVC\14.29.30133\include\vector
; File C:\Users\murat\Desktop\Siveps2-1-99-Project\source\client\Client\EffectLib\ParticleSystemInstance.h
; File C:\Program Files (x86)\Microsoft Visual Studio\2019\Professional\VC\Tools\MSVC\14.29.30133\include\list
; File C:\Users\murat\Desktop\Siveps2-1-99-Project\source\client\Client\EffectLib\ParticleSystemInstance.h
; File C:\Users\murat\Desktop\Siveps2-1-99-Project\source\client\Client\SphereLib\vector.h
; File C:\Users\murat\Desktop\Siveps2-1-99-Project\source\client\Client\EffectLib\ParticleSystemInstance.h
; File C:\Users\murat\Desktop\Siveps2-1-99-Project\source\client\Client\SphereLib\vector.h
; File C:\Users\murat\Desktop\Siveps2-1-99-Project\source\client\Client\EffectLib\ParticleSystemInstance.h
; File C:\Users\murat\Desktop\Siveps2-1-99-Project\source\client\Client\EffectLib\ParticleSystemInstance.cpp
; File C:\Users\murat\Desktop\Siveps2-1-99-Project\source\client\Client\EffectLib\ParticleSystemInstance.h
; File C:\Users\murat\Desktop\Siveps2-1-99-Project\source\client\Client\EffectLib\ParticleSystemInstance.cpp
; File C:\Program Files (x86)\Microsoft Visual Studio\2019\Professional\VC\Tools\MSVC\14.29.30133\include\list
; File C:\Users\murat\Desktop\Siveps2-1-99-Project\source\client\Client\EffectLib\ParticleSystemInstance.h
; File C:\Program Files (x86)\Microsoft Visual Studio\2019\Professional\VC\Tools\MSVC\14.29.30133\include\vector
; File C:\Users\murat\Desktop\Siveps2-1-99-Project\source\client\Client\EffectLib\ParticleSystemInstance.h
; File C:\Program Files (x86)\Microsoft Visual Studio\2019\Professional\VC\Tools\MSVC\14.29.30133\include\vector
; File C:\Users\murat\Desktop\Siveps2-1-99-Project\source\client\Client\EffectLib\ParticleSystemInstance.h
;	COMDAT ??$ForEachParticleRendering@UThreeSideRenderer@NParticleRenderer@@@CParticleSystemInstance@@QAEXAAUThreeSideRenderer@NParticleRenderer@@@Z
_TEXT	SEGMENT
_dwFrameIndex$1$ = -36					; size = 4
_FunObj$GSCopy$1$ = -32					; size = 4
$T1 = -28						; size = 12
$T2 = -16						; size = 12
__$ArrayPad$ = -4					; size = 4
_FunObj$ = 8						; size = 4
??$ForEachParticleRendering@UThreeSideRenderer@NParticleRenderer@@@CParticleSystemInstance@@QAEXAAUThreeSideRenderer@NParticleRenderer@@@Z PROC ; CParticleSystemInstance::ForEachParticleRendering<NParticleRenderer::ThreeSideRenderer>, COMDAT
; _this$ = ecx

; 25   : 		{

  00000	55		 push	 ebp
  00001	8b ec		 mov	 ebp, esp
  00003	83 ec 24	 sub	 esp, 36			; 00000024H
  00006	a1 00 00 00 00	 mov	 eax, DWORD PTR ___security_cookie
  0000b	33 c5		 xor	 eax, ebp
  0000d	89 45 fc	 mov	 DWORD PTR __$ArrayPad$[ebp], eax
  00010	8b 45 08	 mov	 eax, DWORD PTR _FunObj$[ebp]
  00013	53		 push	 ebx
  00014	8b d9		 mov	 ebx, ecx
  00016	89 45 e0	 mov	 DWORD PTR _FunObj$GSCopy$1$[ebp], eax
  00019	57		 push	 edi

; 27   : 			for(dwFrameIndex=0; dwFrameIndex<m_kVct_pkImgInst.size(); dwFrameIndex++)

  0001a	33 ff		 xor	 edi, edi
  0001c	89 7d dc	 mov	 DWORD PTR _dwFrameIndex$1$[ebp], edi
; File C:\Program Files (x86)\Microsoft Visual Studio\2019\Professional\VC\Tools\MSVC\14.29.30133\include\vector

; 1549 :         return static_cast<size_type>(_My_data._Mylast - _My_data._Myfirst);

  0001f	8b 43 40	 mov	 eax, DWORD PTR [ebx+64]
  00022	8b 4b 3c	 mov	 ecx, DWORD PTR [ebx+60]
  00025	2b c1		 sub	 eax, ecx
  00027	c1 f8 02	 sar	 eax, 2
; File C:\Users\murat\Desktop\Siveps2-1-99-Project\source\client\Client\EffectLib\ParticleSystemInstance.h

; 27   : 			for(dwFrameIndex=0; dwFrameIndex<m_kVct_pkImgInst.size(); dwFrameIndex++)

  0002a	85 c0		 test	 eax, eax
  0002c	0f 84 62 01 00
	00		 je	 $LN71@ForEachPar
  00032	56		 push	 esi
$LL4@ForEachPar:

; 28   : 			{
; 29   : 				STATEMANAGER.SetTexture(0, m_kVct_pkImgInst[dwFrameIndex]->GetTextureReference().GetD3DTexture());

  00033	8b 0c b9	 mov	 ecx, DWORD PTR [ecx+edi*4]
  00036	e8 00 00 00 00	 call	 ?GetTextureReference@CGraphicImageInstance@@QBEABVCGraphicTexture@@XZ ; CGraphicImageInstance::GetTextureReference
  0003b	8b c8		 mov	 ecx, eax
  0003d	e8 00 00 00 00	 call	 ?GetD3DTexture@CGraphicTexture@@QBEPAUIDirect3DTexture8@@XZ ; CGraphicTexture::GetD3DTexture
  00042	8b 0d 00 00 00
	00		 mov	 ecx, DWORD PTR ?ms_singleton@?$CSingleton@VCStateManager@@@@0PAVCStateManager@@A ; CSingleton<CStateManager>::ms_singleton
  00048	50		 push	 eax
  00049	6a 00		 push	 0
  0004b	e8 00 00 00 00	 call	 ?SetTexture@CStateManager@@QAEXKPAUIDirect3DBaseTexture8@@@Z ; CStateManager::SetTexture
; File C:\Program Files (x86)\Microsoft Visual Studio\2019\Professional\VC\Tools\MSVC\14.29.30133\include\list

; 1092 :         return iterator(_Mypair._Myval2._Myhead->_Next, _STD addressof(_Mypair._Myval2));

  00050	8b 43 30	 mov	 eax, DWORD PTR [ebx+48]
  00053	8b 04 f8	 mov	 eax, DWORD PTR [eax+edi*8]

; 39   :     _List_unchecked_const_iterator(_Nodeptr _Pnode, const _Mylist* _Plist) noexcept : _Ptr(_Pnode) {

  00056	8b 30		 mov	 esi, DWORD PTR [eax]

; 201  :         return this->_Ptr == _Right._Ptr;

  00058	3b f0		 cmp	 esi, eax
; File C:\Users\murat\Desktop\Siveps2-1-99-Project\source\client\Client\EffectLib\ParticleSystemInstance.h

; 31   : 				for (; itor != m_ParticleInstanceListVector[dwFrameIndex].end(); ++itor)

  0005a	0f 84 1c 01 00
	00		 je	 $LN2@ForEachPar
$LL27@ForEachPar:

; 49   : 			if (m_pParticleProperty->m_bAttachFlag)

  00060	8b 43 4c	 mov	 eax, DWORD PTR [ebx+76]

; 32   : 				{
; 33   : 					if (!InFrustum(*itor))

  00063	8b 4e 08	 mov	 ecx, DWORD PTR [esi+8]

; 49   : 			if (m_pParticleProperty->m_bAttachFlag)

  00066	83 78 20 00	 cmp	 DWORD PTR [eax+32], 0
  0006a	74 3a		 je	 SHORT $LN47@ForEachPar

; 50   : 				return CScreen::GetFrustum().ViewVolumeTest(Vector3d(

  0006c	8b 43 04	 mov	 eax, DWORD PTR [ebx+4]
  0006f	f3 0f 10 50 34	 movss	 xmm2, DWORD PTR [eax+52]
  00074	f3 0f 10 48 38	 movss	 xmm1, DWORD PTR [eax+56]
  00079	f3 0f 10 40 30	 movss	 xmm0, DWORD PTR [eax+48]
  0007e	f3 0f 58 51 10	 addss	 xmm2, DWORD PTR [ecx+16]
  00083	f3 0f 58 49 14	 addss	 xmm1, DWORD PTR [ecx+20]
  00088	f3 0f 58 41 0c	 addss	 xmm0, DWORD PTR [ecx+12]
; File C:\Users\murat\Desktop\Siveps2-1-99-Project\source\client\Client\SphereLib\vector.h

; 38   : 		y = b;

  0008d	f3 0f 11 55 f4	 movss	 DWORD PTR $T2[ebp+4], xmm2

; 39   : 		z = c;

  00092	f3 0f 11 4d f8	 movss	 DWORD PTR $T2[ebp+8], xmm1
  00097	f3 0f 11 45 f0	 movss	 DWORD PTR $T2[ebp], xmm0
; File C:\Users\murat\Desktop\Siveps2-1-99-Project\source\client\Client\EffectLib\ParticleSystemInstance.h

; 50   : 				return CScreen::GetFrustum().ViewVolumeTest(Vector3d(

  0009c	e8 00 00 00 00	 call	 ?GetRadiusApproximation@CParticleInstance@@QAEMXZ ; CParticleInstance::GetRadiusApproximation
  000a1	8d 45 f0	 lea	 eax, DWORD PTR $T2[ebp]
  000a4	eb 26		 jmp	 SHORT $LN73@ForEachPar
$LN47@ForEachPar:
; File C:\Users\murat\Desktop\Siveps2-1-99-Project\source\client\Client\SphereLib\vector.h

; 37   : 		x = a;

  000a6	f3 0f 10 41 0c	 movss	 xmm0, DWORD PTR [ecx+12]
  000ab	f3 0f 11 45 e4	 movss	 DWORD PTR $T1[ebp], xmm0

; 38   : 		y = b;

  000b0	f3 0f 10 41 10	 movss	 xmm0, DWORD PTR [ecx+16]
  000b5	f3 0f 11 45 e8	 movss	 DWORD PTR $T1[ebp+4], xmm0

; 39   : 		z = c;

  000ba	f3 0f 10 41 14	 movss	 xmm0, DWORD PTR [ecx+20]
  000bf	f3 0f 11 45 ec	 movss	 DWORD PTR $T1[ebp+8], xmm0
; File C:\Users\murat\Desktop\Siveps2-1-99-Project\source\client\Client\EffectLib\ParticleSystemInstance.h

; 56   : 				return CScreen::GetFrustum().ViewVolumeTest(Vector3d(pInstance->m_v3Position.x,pInstance->m_v3Position.y,pInstance->m_v3Position.z),pInstance->GetRadiusApproximation())!=VS_OUTSIDE;

  000c4	e8 00 00 00 00	 call	 ?GetRadiusApproximation@CParticleInstance@@QAEMXZ ; CParticleInstance::GetRadiusApproximation
  000c9	8d 45 e4	 lea	 eax, DWORD PTR $T1[ebp]
$LN73@ForEachPar:

; 32   : 				{
; 33   : 					if (!InFrustum(*itor))

  000cc	51		 push	 ecx
  000cd	d9 1c 24	 fstp	 DWORD PTR [esp]
  000d0	50		 push	 eax
  000d1	b9 00 00 00 00	 mov	 ecx, OFFSET ?ms_frustum@CScreen@@1VFrustum@@A ; CScreen::ms_frustum
  000d6	e8 00 00 00 00	 call	 ?ViewVolumeTest@Frustum@@QBE?AW4ViewState@@ABVVector3d@@M@Z ; Frustum::ViewVolumeTest
  000db	83 f8 02	 cmp	 eax, 2
  000de	0f 95 c0	 setne	 al
  000e1	84 c0		 test	 al, al
  000e3	0f 84 aa 00 00
	00		 je	 $LN72@ForEachPar
; File C:\Users\murat\Desktop\Siveps2-1-99-Project\source\client\Client\EffectLib\ParticleSystemInstance.cpp

; 382  : 			pInstance->Transform(pmat);

  000e9	8b 45 e0	 mov	 eax, DWORD PTR _FunObj$GSCopy$1$[ebp]
; File C:\Users\murat\Desktop\Siveps2-1-99-Project\source\client\Client\EffectLib\ParticleSystemInstance.h

; 35   : 					FunObj(*itor);

  000ec	8b 7e 08	 mov	 edi, DWORD PTR [esi+8]
; File C:\Users\murat\Desktop\Siveps2-1-99-Project\source\client\Client\EffectLib\ParticleSystemInstance.cpp

; 382  : 			pInstance->Transform(pmat);

  000ef	8b cf		 mov	 ecx, edi
  000f1	ff 30		 push	 DWORD PTR [eax]
  000f3	e8 00 00 00 00	 call	 ?Transform@CParticleInstance@@QAEXPBUD3DXMATRIX@@@Z ; CParticleInstance::Transform

; 383  : 			STATEMANAGER.DrawPrimitiveUP(D3DPT_TRIANGLESTRIP, 2, pInstance->GetParticleMeshPointer(), sizeof(TPTVertex));

  000f8	6a 14		 push	 20			; 00000014H
  000fa	8b cf		 mov	 ecx, edi
  000fc	e8 00 00 00 00	 call	 ?GetParticleMeshPointer@CParticleInstance@@QAEPAUSPTVertex@@XZ ; CParticleInstance::GetParticleMeshPointer
  00101	8b 0d 00 00 00
	00		 mov	 ecx, DWORD PTR ?ms_singleton@?$CSingleton@VCStateManager@@@@0PAVCStateManager@@A ; CSingleton<CStateManager>::ms_singleton
  00107	50		 push	 eax
  00108	6a 02		 push	 2
  0010a	6a 05		 push	 5
  0010c	e8 00 00 00 00	 call	 ?DrawPrimitiveUP@CStateManager@@QAEJW4_D3DPRIMITIVETYPE@@IPBXI@Z ; CStateManager::DrawPrimitiveUP

; 384  : 			pInstance->Transform(pmat,D3DXToRadian(-60.0f));

  00111	8b 45 e0	 mov	 eax, DWORD PTR _FunObj$GSCopy$1$[ebp]
  00114	51		 push	 ecx
  00115	c7 04 24 92 0a
	86 bf		 mov	 DWORD PTR [esp], -1081734510 ; bf860a92H
  0011c	8b cf		 mov	 ecx, edi
  0011e	ff 30		 push	 DWORD PTR [eax]
  00120	e8 00 00 00 00	 call	 ?Transform@CParticleInstance@@QAEXPBUD3DXMATRIX@@M@Z ; CParticleInstance::Transform

; 385  : 			STATEMANAGER.DrawPrimitiveUP(D3DPT_TRIANGLESTRIP, 2, pInstance->GetParticleMeshPointer(), sizeof(TPTVertex));

  00125	6a 14		 push	 20			; 00000014H
  00127	8b cf		 mov	 ecx, edi
  00129	e8 00 00 00 00	 call	 ?GetParticleMeshPointer@CParticleInstance@@QAEPAUSPTVertex@@XZ ; CParticleInstance::GetParticleMeshPointer
  0012e	8b 0d 00 00 00
	00		 mov	 ecx, DWORD PTR ?ms_singleton@?$CSingleton@VCStateManager@@@@0PAVCStateManager@@A ; CSingleton<CStateManager>::ms_singleton
  00134	50		 push	 eax
  00135	6a 02		 push	 2
  00137	6a 05		 push	 5
  00139	e8 00 00 00 00	 call	 ?DrawPrimitiveUP@CStateManager@@QAEJW4_D3DPRIMITIVETYPE@@IPBXI@Z ; CStateManager::DrawPrimitiveUP

; 386  : 			pInstance->Transform(pmat,D3DXToRadian(+60.0f));

  0013e	8b 45 e0	 mov	 eax, DWORD PTR _FunObj$GSCopy$1$[ebp]
  00141	51		 push	 ecx
  00142	c7 04 24 92 0a
	86 3f		 mov	 DWORD PTR [esp], 1065749138 ; 3f860a92H
  00149	8b cf		 mov	 ecx, edi
  0014b	ff 30		 push	 DWORD PTR [eax]
  0014d	e8 00 00 00 00	 call	 ?Transform@CParticleInstance@@QAEXPBUD3DXMATRIX@@M@Z ; CParticleInstance::Transform

; 387  : 			STATEMANAGER.DrawPrimitiveUP(D3DPT_TRIANGLESTRIP, 2, pInstance->GetParticleMeshPointer(), sizeof(TPTVertex));

  00152	6a 14		 push	 20			; 00000014H
  00154	8b cf		 mov	 ecx, edi
  00156	e8 00 00 00 00	 call	 ?GetParticleMeshPointer@CParticleInstance@@QAEPAUSPTVertex@@XZ ; CParticleInstance::GetParticleMeshPointer
  0015b	8b 0d 00 00 00
	00		 mov	 ecx, DWORD PTR ?ms_singleton@?$CSingleton@VCStateManager@@@@0PAVCStateManager@@A ; CSingleton<CStateManager>::ms_singleton
  00161	50		 push	 eax
  00162	6a 02		 push	 2
  00164	6a 05		 push	 5
  00166	e8 00 00 00 00	 call	 ?DrawPrimitiveUP@CStateManager@@QAEJW4_D3DPRIMITIVETYPE@@IPBXI@Z ; CStateManager::DrawPrimitiveUP
; File C:\Program Files (x86)\Microsoft Visual Studio\2019\Professional\VC\Tools\MSVC\14.29.30133\include\list

; 39   :     _List_unchecked_const_iterator(_Nodeptr _Pnode, const _Mylist* _Plist) noexcept : _Ptr(_Pnode) {

  0016b	8b 43 30	 mov	 eax, DWORD PTR [ebx+48]

; 201  :         return this->_Ptr == _Right._Ptr;

  0016e	8b 7d dc	 mov	 edi, DWORD PTR _dwFrameIndex$1$[ebp]

; 168  :         this->_Ptr = this->_Ptr->_Next;

  00171	8b 36		 mov	 esi, DWORD PTR [esi]

; 201  :         return this->_Ptr == _Right._Ptr;

  00173	3b 34 f8	 cmp	 esi, DWORD PTR [eax+edi*8]
; File C:\Users\murat\Desktop\Siveps2-1-99-Project\source\client\Client\EffectLib\ParticleSystemInstance.h

; 31   : 				for (; itor != m_ParticleInstanceListVector[dwFrameIndex].end(); ++itor)

  00176	0f 85 e4 fe ff
	ff		 jne	 $LL27@ForEachPar
$LN2@ForEachPar:
; File C:\Program Files (x86)\Microsoft Visual Studio\2019\Professional\VC\Tools\MSVC\14.29.30133\include\vector

; 1549 :         return static_cast<size_type>(_My_data._Mylast - _My_data._Myfirst);

  0017c	8b 43 40	 mov	 eax, DWORD PTR [ebx+64]
; File C:\Users\murat\Desktop\Siveps2-1-99-Project\source\client\Client\EffectLib\ParticleSystemInstance.h

; 27   : 			for(dwFrameIndex=0; dwFrameIndex<m_kVct_pkImgInst.size(); dwFrameIndex++)

  0017f	47		 inc	 edi
; File C:\Program Files (x86)\Microsoft Visual Studio\2019\Professional\VC\Tools\MSVC\14.29.30133\include\vector

; 1549 :         return static_cast<size_type>(_My_data._Mylast - _My_data._Myfirst);

  00180	8b 4b 3c	 mov	 ecx, DWORD PTR [ebx+60]
  00183	2b c1		 sub	 eax, ecx
  00185	c1 f8 02	 sar	 eax, 2
; File C:\Users\murat\Desktop\Siveps2-1-99-Project\source\client\Client\EffectLib\ParticleSystemInstance.h

; 27   : 			for(dwFrameIndex=0; dwFrameIndex<m_kVct_pkImgInst.size(); dwFrameIndex++)

  00188	89 7d dc	 mov	 DWORD PTR _dwFrameIndex$1$[ebp], edi
  0018b	3b f8		 cmp	 edi, eax
  0018d	0f 82 a0 fe ff
	ff		 jb	 $LL4@ForEachPar
$LN72@ForEachPar:
  00193	5e		 pop	 esi
$LN71@ForEachPar:

; 36   : 				}
; 37   : 			}
; 38   : 		}

  00194	8b 4d fc	 mov	 ecx, DWORD PTR __$ArrayPad$[ebp]
  00197	5f		 pop	 edi
  00198	33 cd		 xor	 ecx, ebp
  0019a	5b		 pop	 ebx
  0019b	e8 00 00 00 00	 call	 @__security_check_cookie@4
  001a0	8b e5		 mov	 esp, ebp
  001a2	5d		 pop	 ebp
  001a3	c2 04 00	 ret	 4
??$ForEachParticleRendering@UThreeSideRenderer@NParticleRenderer@@@CParticleSystemInstance@@QAEXAAUThreeSideRenderer@NParticleRenderer@@@Z ENDP ; CParticleSystemInstance::ForEachParticleRendering<NParticleRenderer::ThreeSideRenderer>
_TEXT	ENDS
; Function compile flags: /Ogtp
; File C:\Users\murat\Desktop\Siveps2-1-99-Project\source\client\Client\EffectLib\ParticleSystemInstance.h
; File C:\Program Files (x86)\Microsoft Visual Studio\2019\Professional\VC\Tools\MSVC\14.29.30133\include\vector
; File C:\Users\murat\Desktop\Siveps2-1-99-Project\source\client\Client\EffectLib\ParticleSystemInstance.h
; File C:\Program Files (x86)\Microsoft Visual Studio\2019\Professional\VC\Tools\MSVC\14.29.30133\include\list
; File C:\Users\murat\Desktop\Siveps2-1-99-Project\source\client\Client\EffectLib\ParticleSystemInstance.h
; File C:\Users\murat\Desktop\Siveps2-1-99-Project\source\client\Client\SphereLib\vector.h
; File C:\Users\murat\Desktop\Siveps2-1-99-Project\source\client\Client\EffectLib\ParticleSystemInstance.h
; File C:\Users\murat\Desktop\Siveps2-1-99-Project\source\client\Client\SphereLib\vector.h
; File C:\Users\murat\Desktop\Siveps2-1-99-Project\source\client\Client\EffectLib\ParticleSystemInstance.h
; File C:\Users\murat\Desktop\Siveps2-1-99-Project\source\client\Client\EffectLib\ParticleSystemInstance.cpp
; File C:\Users\murat\Desktop\Siveps2-1-99-Project\source\client\Client\EffectLib\ParticleSystemInstance.h
; File C:\Users\murat\Desktop\Siveps2-1-99-Project\source\client\Client\EffectLib\ParticleSystemInstance.cpp
; File C:\Program Files (x86)\Microsoft Visual Studio\2019\Professional\VC\Tools\MSVC\14.29.30133\include\list
; File C:\Users\murat\Desktop\Siveps2-1-99-Project\source\client\Client\EffectLib\ParticleSystemInstance.h
; File C:\Program Files (x86)\Microsoft Visual Studio\2019\Professional\VC\Tools\MSVC\14.29.30133\include\vector
; File C:\Users\murat\Desktop\Siveps2-1-99-Project\source\client\Client\EffectLib\ParticleSystemInstance.h
; File C:\Program Files (x86)\Microsoft Visual Studio\2019\Professional\VC\Tools\MSVC\14.29.30133\include\vector
; File C:\Users\murat\Desktop\Siveps2-1-99-Project\source\client\Client\EffectLib\ParticleSystemInstance.h
;	COMDAT ??$ForEachParticleRendering@UTwoSideRenderer@NParticleRenderer@@@CParticleSystemInstance@@QAEXAAUTwoSideRenderer@NParticleRenderer@@@Z
_TEXT	SEGMENT
_dwFrameIndex$1$ = -36					; size = 4
_FunObj$GSCopy$1$ = -32					; size = 4
$T1 = -28						; size = 12
$T2 = -16						; size = 12
__$ArrayPad$ = -4					; size = 4
_FunObj$ = 8						; size = 4
??$ForEachParticleRendering@UTwoSideRenderer@NParticleRenderer@@@CParticleSystemInstance@@QAEXAAUTwoSideRenderer@NParticleRenderer@@@Z PROC ; CParticleSystemInstance::ForEachParticleRendering<NParticleRenderer::TwoSideRenderer>, COMDAT
; _this$ = ecx

; 25   : 		{

  00000	55		 push	 ebp
  00001	8b ec		 mov	 ebp, esp
  00003	83 ec 24	 sub	 esp, 36			; 00000024H
  00006	a1 00 00 00 00	 mov	 eax, DWORD PTR ___security_cookie
  0000b	33 c5		 xor	 eax, ebp
  0000d	89 45 fc	 mov	 DWORD PTR __$ArrayPad$[ebp], eax
  00010	8b 45 08	 mov	 eax, DWORD PTR _FunObj$[ebp]
  00013	53		 push	 ebx
  00014	8b d9		 mov	 ebx, ecx
  00016	89 45 e0	 mov	 DWORD PTR _FunObj$GSCopy$1$[ebp], eax
  00019	57		 push	 edi

; 27   : 			for(dwFrameIndex=0; dwFrameIndex<m_kVct_pkImgInst.size(); dwFrameIndex++)

  0001a	33 ff		 xor	 edi, edi
  0001c	89 7d dc	 mov	 DWORD PTR _dwFrameIndex$1$[ebp], edi
; File C:\Program Files (x86)\Microsoft Visual Studio\2019\Professional\VC\Tools\MSVC\14.29.30133\include\vector

; 1549 :         return static_cast<size_type>(_My_data._Mylast - _My_data._Myfirst);

  0001f	8b 43 40	 mov	 eax, DWORD PTR [ebx+64]
  00022	8b 4b 3c	 mov	 ecx, DWORD PTR [ebx+60]
  00025	2b c1		 sub	 eax, ecx
  00027	c1 f8 02	 sar	 eax, 2
; File C:\Users\murat\Desktop\Siveps2-1-99-Project\source\client\Client\EffectLib\ParticleSystemInstance.h

; 27   : 			for(dwFrameIndex=0; dwFrameIndex<m_kVct_pkImgInst.size(); dwFrameIndex++)

  0002a	85 c0		 test	 eax, eax
  0002c	0f 84 3d 01 00
	00		 je	 $LN71@ForEachPar
  00032	56		 push	 esi
$LL4@ForEachPar:

; 28   : 			{
; 29   : 				STATEMANAGER.SetTexture(0, m_kVct_pkImgInst[dwFrameIndex]->GetTextureReference().GetD3DTexture());

  00033	8b 0c b9	 mov	 ecx, DWORD PTR [ecx+edi*4]
  00036	e8 00 00 00 00	 call	 ?GetTextureReference@CGraphicImageInstance@@QBEABVCGraphicTexture@@XZ ; CGraphicImageInstance::GetTextureReference
  0003b	8b c8		 mov	 ecx, eax
  0003d	e8 00 00 00 00	 call	 ?GetD3DTexture@CGraphicTexture@@QBEPAUIDirect3DTexture8@@XZ ; CGraphicTexture::GetD3DTexture
  00042	8b 0d 00 00 00
	00		 mov	 ecx, DWORD PTR ?ms_singleton@?$CSingleton@VCStateManager@@@@0PAVCStateManager@@A ; CSingleton<CStateManager>::ms_singleton
  00048	50		 push	 eax
  00049	6a 00		 push	 0
  0004b	e8 00 00 00 00	 call	 ?SetTexture@CStateManager@@QAEXKPAUIDirect3DBaseTexture8@@@Z ; CStateManager::SetTexture
; File C:\Program Files (x86)\Microsoft Visual Studio\2019\Professional\VC\Tools\MSVC\14.29.30133\include\list

; 1092 :         return iterator(_Mypair._Myval2._Myhead->_Next, _STD addressof(_Mypair._Myval2));

  00050	8b 43 30	 mov	 eax, DWORD PTR [ebx+48]
  00053	8b 04 f8	 mov	 eax, DWORD PTR [eax+edi*8]

; 39   :     _List_unchecked_const_iterator(_Nodeptr _Pnode, const _Mylist* _Plist) noexcept : _Ptr(_Pnode) {

  00056	8b 30		 mov	 esi, DWORD PTR [eax]

; 201  :         return this->_Ptr == _Right._Ptr;

  00058	3b f0		 cmp	 esi, eax
; File C:\Users\murat\Desktop\Siveps2-1-99-Project\source\client\Client\EffectLib\ParticleSystemInstance.h

; 31   : 				for (; itor != m_ParticleInstanceListVector[dwFrameIndex].end(); ++itor)

  0005a	0f 84 f7 00 00
	00		 je	 $LN2@ForEachPar
$LL27@ForEachPar:

; 49   : 			if (m_pParticleProperty->m_bAttachFlag)

  00060	8b 43 4c	 mov	 eax, DWORD PTR [ebx+76]

; 32   : 				{
; 33   : 					if (!InFrustum(*itor))

  00063	8b 4e 08	 mov	 ecx, DWORD PTR [esi+8]

; 49   : 			if (m_pParticleProperty->m_bAttachFlag)

  00066	83 78 20 00	 cmp	 DWORD PTR [eax+32], 0
  0006a	74 3a		 je	 SHORT $LN47@ForEachPar

; 50   : 				return CScreen::GetFrustum().ViewVolumeTest(Vector3d(

  0006c	8b 43 04	 mov	 eax, DWORD PTR [ebx+4]
  0006f	f3 0f 10 50 34	 movss	 xmm2, DWORD PTR [eax+52]
  00074	f3 0f 10 48 38	 movss	 xmm1, DWORD PTR [eax+56]
  00079	f3 0f 10 40 30	 movss	 xmm0, DWORD PTR [eax+48]
  0007e	f3 0f 58 51 10	 addss	 xmm2, DWORD PTR [ecx+16]
  00083	f3 0f 58 49 14	 addss	 xmm1, DWORD PTR [ecx+20]
  00088	f3 0f 58 41 0c	 addss	 xmm0, DWORD PTR [ecx+12]
; File C:\Users\murat\Desktop\Siveps2-1-99-Project\source\client\Client\SphereLib\vector.h

; 38   : 		y = b;

  0008d	f3 0f 11 55 f4	 movss	 DWORD PTR $T2[ebp+4], xmm2

; 39   : 		z = c;

  00092	f3 0f 11 4d f8	 movss	 DWORD PTR $T2[ebp+8], xmm1
  00097	f3 0f 11 45 f0	 movss	 DWORD PTR $T2[ebp], xmm0
; File C:\Users\murat\Desktop\Siveps2-1-99-Project\source\client\Client\EffectLib\ParticleSystemInstance.h

; 50   : 				return CScreen::GetFrustum().ViewVolumeTest(Vector3d(

  0009c	e8 00 00 00 00	 call	 ?GetRadiusApproximation@CParticleInstance@@QAEMXZ ; CParticleInstance::GetRadiusApproximation
  000a1	8d 45 f0	 lea	 eax, DWORD PTR $T2[ebp]
  000a4	eb 26		 jmp	 SHORT $LN73@ForEachPar
$LN47@ForEachPar:
; File C:\Users\murat\Desktop\Siveps2-1-99-Project\source\client\Client\SphereLib\vector.h

; 37   : 		x = a;

  000a6	f3 0f 10 41 0c	 movss	 xmm0, DWORD PTR [ecx+12]
  000ab	f3 0f 11 45 e4	 movss	 DWORD PTR $T1[ebp], xmm0

; 38   : 		y = b;

  000b0	f3 0f 10 41 10	 movss	 xmm0, DWORD PTR [ecx+16]
  000b5	f3 0f 11 45 e8	 movss	 DWORD PTR $T1[ebp+4], xmm0

; 39   : 		z = c;

  000ba	f3 0f 10 41 14	 movss	 xmm0, DWORD PTR [ecx+20]
  000bf	f3 0f 11 45 ec	 movss	 DWORD PTR $T1[ebp+8], xmm0
; File C:\Users\murat\Desktop\Siveps2-1-99-Project\source\client\Client\EffectLib\ParticleSystemInstance.h

; 56   : 				return CScreen::GetFrustum().ViewVolumeTest(Vector3d(pInstance->m_v3Position.x,pInstance->m_v3Position.y,pInstance->m_v3Position.z),pInstance->GetRadiusApproximation())!=VS_OUTSIDE;

  000c4	e8 00 00 00 00	 call	 ?GetRadiusApproximation@CParticleInstance@@QAEMXZ ; CParticleInstance::GetRadiusApproximation
  000c9	8d 45 e4	 lea	 eax, DWORD PTR $T1[ebp]
$LN73@ForEachPar:

; 32   : 				{
; 33   : 					if (!InFrustum(*itor))

  000cc	51		 push	 ecx
  000cd	d9 1c 24	 fstp	 DWORD PTR [esp]
  000d0	50		 push	 eax
  000d1	b9 00 00 00 00	 mov	 ecx, OFFSET ?ms_frustum@CScreen@@1VFrustum@@A ; CScreen::ms_frustum
  000d6	e8 00 00 00 00	 call	 ?ViewVolumeTest@Frustum@@QBE?AW4ViewState@@ABVVector3d@@M@Z ; Frustum::ViewVolumeTest
  000db	83 f8 02	 cmp	 eax, 2
  000de	0f 95 c0	 setne	 al
  000e1	84 c0		 test	 al, al
  000e3	0f 84 85 00 00
	00		 je	 $LN72@ForEachPar
; File C:\Users\murat\Desktop\Siveps2-1-99-Project\source\client\Client\EffectLib\ParticleSystemInstance.cpp

; 364  : 			pInstance->Transform(pmat,D3DXToRadian(-30.0f));

  000e9	8b 45 e0	 mov	 eax, DWORD PTR _FunObj$GSCopy$1$[ebp]
; File C:\Users\murat\Desktop\Siveps2-1-99-Project\source\client\Client\EffectLib\ParticleSystemInstance.h

; 35   : 					FunObj(*itor);

  000ec	8b 7e 08	 mov	 edi, DWORD PTR [esi+8]
; File C:\Users\murat\Desktop\Siveps2-1-99-Project\source\client\Client\EffectLib\ParticleSystemInstance.cpp

; 364  : 			pInstance->Transform(pmat,D3DXToRadian(-30.0f));

  000ef	51		 push	 ecx
  000f0	c7 04 24 92 0a
	06 bf		 mov	 DWORD PTR [esp], -1090123118 ; bf060a92H
  000f7	8b cf		 mov	 ecx, edi
  000f9	ff 30		 push	 DWORD PTR [eax]
  000fb	e8 00 00 00 00	 call	 ?Transform@CParticleInstance@@QAEXPBUD3DXMATRIX@@M@Z ; CParticleInstance::Transform

; 365  : 			STATEMANAGER.DrawPrimitiveUP(D3DPT_TRIANGLESTRIP, 2, pInstance->GetParticleMeshPointer(), sizeof(TPTVertex));

  00100	6a 14		 push	 20			; 00000014H
  00102	8b cf		 mov	 ecx, edi
  00104	e8 00 00 00 00	 call	 ?GetParticleMeshPointer@CParticleInstance@@QAEPAUSPTVertex@@XZ ; CParticleInstance::GetParticleMeshPointer
  00109	8b 0d 00 00 00
	00		 mov	 ecx, DWORD PTR ?ms_singleton@?$CSingleton@VCStateManager@@@@0PAVCStateManager@@A ; CSingleton<CStateManager>::ms_singleton
  0010f	50		 push	 eax
  00110	6a 02		 push	 2
  00112	6a 05		 push	 5
  00114	e8 00 00 00 00	 call	 ?DrawPrimitiveUP@CStateManager@@QAEJW4_D3DPRIMITIVETYPE@@IPBXI@Z ; CStateManager::DrawPrimitiveUP

; 366  : 
; 367  : 			pInstance->Transform(pmat,D3DXToRadian(+30.0f));

  00119	8b 45 e0	 mov	 eax, DWORD PTR _FunObj$GSCopy$1$[ebp]
  0011c	51		 push	 ecx
  0011d	c7 04 24 92 0a
	06 3f		 mov	 DWORD PTR [esp], 1057360530 ; 3f060a92H
  00124	8b cf		 mov	 ecx, edi
  00126	ff 30		 push	 DWORD PTR [eax]
  00128	e8 00 00 00 00	 call	 ?Transform@CParticleInstance@@QAEXPBUD3DXMATRIX@@M@Z ; CParticleInstance::Transform

; 368  : 			STATEMANAGER.DrawPrimitiveUP(D3DPT_TRIANGLESTRIP, 2, pInstance->GetParticleMeshPointer(), sizeof(TPTVertex));

  0012d	6a 14		 push	 20			; 00000014H
  0012f	8b cf		 mov	 ecx, edi
  00131	e8 00 00 00 00	 call	 ?GetParticleMeshPointer@CParticleInstance@@QAEPAUSPTVertex@@XZ ; CParticleInstance::GetParticleMeshPointer
  00136	8b 0d 00 00 00
	00		 mov	 ecx, DWORD PTR ?ms_singleton@?$CSingleton@VCStateManager@@@@0PAVCStateManager@@A ; CSingleton<CStateManager>::ms_singleton
  0013c	50		 push	 eax
  0013d	6a 02		 push	 2
  0013f	6a 05		 push	 5
  00141	e8 00 00 00 00	 call	 ?DrawPrimitiveUP@CStateManager@@QAEJW4_D3DPRIMITIVETYPE@@IPBXI@Z ; CStateManager::DrawPrimitiveUP
; File C:\Program Files (x86)\Microsoft Visual Studio\2019\Professional\VC\Tools\MSVC\14.29.30133\include\list

; 39   :     _List_unchecked_const_iterator(_Nodeptr _Pnode, const _Mylist* _Plist) noexcept : _Ptr(_Pnode) {

  00146	8b 43 30	 mov	 eax, DWORD PTR [ebx+48]

; 201  :         return this->_Ptr == _Right._Ptr;

  00149	8b 7d dc	 mov	 edi, DWORD PTR _dwFrameIndex$1$[ebp]

; 168  :         this->_Ptr = this->_Ptr->_Next;

  0014c	8b 36		 mov	 esi, DWORD PTR [esi]

; 201  :         return this->_Ptr == _Right._Ptr;

  0014e	3b 34 f8	 cmp	 esi, DWORD PTR [eax+edi*8]
; File C:\Users\murat\Desktop\Siveps2-1-99-Project\source\client\Client\EffectLib\ParticleSystemInstance.h

; 31   : 				for (; itor != m_ParticleInstanceListVector[dwFrameIndex].end(); ++itor)

  00151	0f 85 09 ff ff
	ff		 jne	 $LL27@ForEachPar
$LN2@ForEachPar:
; File C:\Program Files (x86)\Microsoft Visual Studio\2019\Professional\VC\Tools\MSVC\14.29.30133\include\vector

; 1549 :         return static_cast<size_type>(_My_data._Mylast - _My_data._Myfirst);

  00157	8b 43 40	 mov	 eax, DWORD PTR [ebx+64]
; File C:\Users\murat\Desktop\Siveps2-1-99-Project\source\client\Client\EffectLib\ParticleSystemInstance.h

; 27   : 			for(dwFrameIndex=0; dwFrameIndex<m_kVct_pkImgInst.size(); dwFrameIndex++)

  0015a	47		 inc	 edi
; File C:\Program Files (x86)\Microsoft Visual Studio\2019\Professional\VC\Tools\MSVC\14.29.30133\include\vector

; 1549 :         return static_cast<size_type>(_My_data._Mylast - _My_data._Myfirst);

  0015b	8b 4b 3c	 mov	 ecx, DWORD PTR [ebx+60]
  0015e	2b c1		 sub	 eax, ecx
  00160	c1 f8 02	 sar	 eax, 2
; File C:\Users\murat\Desktop\Siveps2-1-99-Project\source\client\Client\EffectLib\ParticleSystemInstance.h

; 27   : 			for(dwFrameIndex=0; dwFrameIndex<m_kVct_pkImgInst.size(); dwFrameIndex++)

  00163	89 7d dc	 mov	 DWORD PTR _dwFrameIndex$1$[ebp], edi
  00166	3b f8		 cmp	 edi, eax
  00168	0f 82 c5 fe ff
	ff		 jb	 $LL4@ForEachPar
$LN72@ForEachPar:
  0016e	5e		 pop	 esi
$LN71@ForEachPar:

; 36   : 				}
; 37   : 			}
; 38   : 		}

  0016f	8b 4d fc	 mov	 ecx, DWORD PTR __$ArrayPad$[ebp]
  00172	5f		 pop	 edi
  00173	33 cd		 xor	 ecx, ebp
  00175	5b		 pop	 ebx
  00176	e8 00 00 00 00	 call	 @__security_check_cookie@4
  0017b	8b e5		 mov	 esp, ebp
  0017d	5d		 pop	 ebp
  0017e	c2 04 00	 ret	 4
??$ForEachParticleRendering@UTwoSideRenderer@NParticleRenderer@@@CParticleSystemInstance@@QAEXAAUTwoSideRenderer@NParticleRenderer@@@Z ENDP ; CParticleSystemInstance::ForEachParticleRendering<NParticleRenderer::TwoSideRenderer>
_TEXT	ENDS
; Function compile flags: /Ogtp
;	COMDAT ??__F?ms_kPool@CParticleSystemInstance@@2V?$CDynamicPool@VCParticleSystemInstance@@@@A@@YAXXZ
text$yd	SEGMENT
??__F?ms_kPool@CParticleSystemInstance@@2V?$CDynamicPool@VCParticleSystemInstance@@@@A@@YAXXZ PROC ; `dynamic atexit destructor for 'CParticleSystemInstance::ms_kPool'', COMDAT
  00000	b9 00 00 00 00	 mov	 ecx, OFFSET ?ms_kPool@CParticleSystemInstance@@2V?$CDynamicPool@VCParticleSystemInstance@@@@A ; CParticleSystemInstance::ms_kPool
  00005	e9 00 00 00 00	 jmp	 ??1?$CDynamicPool@VCParticleSystemInstance@@@@UAE@XZ ; CDynamicPool<CParticleSystemInstance>::~CDynamicPool<CParticleSystemInstance>
??__F?ms_kPool@CParticleSystemInstance@@2V?$CDynamicPool@VCParticleSystemInstance@@@@A@@YAXXZ ENDP ; `dynamic atexit destructor for 'CParticleSystemInstance::ms_kPool''
text$yd	ENDS
; Function compile flags: /Ogtp
; File C:\Users\murat\Desktop\Siveps2-1-99-Project\source\client\Client\EffectLib\ParticleSystemInstance.cpp
;	COMDAT ??__E?ms_kPool@CParticleSystemInstance@@2V?$CDynamicPool@VCParticleSystemInstance@@@@A@@YAXXZ
text$di	SEGMENT
??__E?ms_kPool@CParticleSystemInstance@@2V?$CDynamicPool@VCParticleSystemInstance@@@@A@@YAXXZ PROC ; `dynamic initializer for 'CParticleSystemInstance::ms_kPool'', COMDAT

; 8    : CDynamicPool<CParticleSystemInstance>	CParticleSystemInstance::ms_kPool;

  00000	68 00 00 00 00	 push	 OFFSET ??__F?ms_kPool@CParticleSystemInstance@@2V?$CDynamicPool@VCParticleSystemInstance@@@@A@@YAXXZ ; `dynamic atexit destructor for 'CParticleSystemInstance::ms_kPool''
  00005	e8 00 00 00 00	 call	 _atexit
  0000a	59		 pop	 ecx
  0000b	c3		 ret	 0
??__E?ms_kPool@CParticleSystemInstance@@2V?$CDynamicPool@VCParticleSystemInstance@@@@A@@YAXXZ ENDP ; `dynamic initializer for 'CParticleSystemInstance::ms_kPool''
text$di	ENDS
; Function compile flags: /Ogtp
;	COMDAT ??_G?$CDynamicPool@VCParticleSystemInstance@@@@UAEPAXI@Z
_TEXT	SEGMENT
___flags$ = 8						; size = 4
??_G?$CDynamicPool@VCParticleSystemInstance@@@@UAEPAXI@Z PROC ; CDynamicPool<CParticleSystemInstance>::`scalar deleting destructor', COMDAT
; _this$ = ecx
  00000	55		 push	 ebp
  00001	8b ec		 mov	 ebp, esp
  00003	56		 push	 esi
  00004	8b f1		 mov	 esi, ecx
  00006	e8 00 00 00 00	 call	 ??1?$CDynamicPool@VCParticleSystemInstance@@@@UAE@XZ ; CDynamicPool<CParticleSystemInstance>::~CDynamicPool<CParticleSystemInstance>
  0000b	f6 45 08 01	 test	 BYTE PTR ___flags$[ebp], 1
  0000f	74 0b		 je	 SHORT $LN4@scalar
  00011	6a 24		 push	 36			; 00000024H
  00013	56		 push	 esi
  00014	e8 00 00 00 00	 call	 ??3@YAXPAXI@Z		; operator delete
  00019	83 c4 08	 add	 esp, 8
$LN4@scalar:
  0001c	8b c6		 mov	 eax, esi
  0001e	5e		 pop	 esi
  0001f	5d		 pop	 ebp
  00020	c2 04 00	 ret	 4
??_G?$CDynamicPool@VCParticleSystemInstance@@@@UAEPAXI@Z ENDP ; CDynamicPool<CParticleSystemInstance>::`scalar deleting destructor'
_TEXT	ENDS
; Function compile flags: /Ogtp
; File C:\Program Files (x86)\Microsoft Visual Studio\2019\Professional\VC\Tools\MSVC\14.29.30133\include\vector
;	COMDAT ?_Xlength@?$vector@PAVCParticleSystemInstance@@V?$allocator@PAVCParticleSystemInstance@@@std@@@std@@CAXXZ
_TEXT	SEGMENT
?_Xlength@?$vector@PAVCParticleSystemInstance@@V?$allocator@PAVCParticleSystemInstance@@@std@@@std@@CAXXZ PROC ; std::vector<CParticleSystemInstance *,std::allocator<CParticleSystemInstance *> >::_Xlength, COMDAT

; 1774 :         _Xlength_error("vector too long");

  00000	68 00 00 00 00	 push	 OFFSET ??_C@_0BA@FOIKENOD@vector?5too?5long@
  00005	e8 00 00 00 00	 call	 ?_Xlength_error@std@@YAXPBD@Z ; std::_Xlength_error
$LN3@Xlength:
  0000a	cc		 int	 3
?_Xlength@?$vector@PAVCParticleSystemInstance@@V?$allocator@PAVCParticleSystemInstance@@@std@@@std@@CAXXZ ENDP ; std::vector<CParticleSystemInstance *,std::allocator<CParticleSystemInstance *> >::_Xlength
_TEXT	ENDS
; Function compile flags: /Ogtp
; File C:\Users\murat\Desktop\Siveps2-1-99-Project\source\client\Client\eterLib\Pool.h
;	COMDAT ?Delete@?$CDynamicPool@VCParticleSystemInstance@@@@KAXPAVCParticleSystemInstance@@@Z
_TEXT	SEGMENT
_pkData$ = 8						; size = 4
?Delete@?$CDynamicPool@VCParticleSystemInstance@@@@KAXPAVCParticleSystemInstance@@@Z PROC ; CDynamicPool<CParticleSystemInstance>::Delete, COMDAT

; 109  : 		{

  00000	55		 push	 ebp
  00001	8b ec		 mov	 ebp, esp

; 110  : 			delete pkData;

  00003	8b 4d 08	 mov	 ecx, DWORD PTR _pkData$[ebp]
  00006	85 c9		 test	 ecx, ecx
  00008	74 06		 je	 SHORT $LN3@Delete
  0000a	8b 01		 mov	 eax, DWORD PTR [ecx]
  0000c	6a 01		 push	 1
  0000e	ff 10		 call	 DWORD PTR [eax]
$LN3@Delete:

; 111  : 		}

  00010	5d		 pop	 ebp
  00011	c3		 ret	 0
?Delete@?$CDynamicPool@VCParticleSystemInstance@@@@KAXPAVCParticleSystemInstance@@@Z ENDP ; CDynamicPool<CParticleSystemInstance>::Delete
_TEXT	ENDS
; Function compile flags: /Ogtp
; File C:\Users\murat\Desktop\Siveps2-1-99-Project\source\client\Client\eterLib\Pool.h
; File C:\Program Files (x86)\Microsoft Visual Studio\2019\Professional\VC\Tools\MSVC\14.29.30133\include\vector
; File C:\Program Files (x86)\Microsoft Visual Studio\2019\Professional\VC\Tools\MSVC\14.29.30133\include\xmemory
; File C:\Program Files (x86)\Microsoft Visual Studio\2019\Professional\VC\Tools\MSVC\14.29.30133\include\vector
; File C:\Program Files (x86)\Microsoft Visual Studio\2019\Professional\VC\Tools\MSVC\14.29.30133\include\xmemory
; File C:\Program Files (x86)\Microsoft Visual Studio\2019\Professional\VC\Tools\MSVC\14.29.30133\include\vector
; File C:\Program Files (x86)\Microsoft Visual Studio\2019\Professional\VC\Tools\MSVC\14.29.30133\include\xmemory
; File C:\Program Files (x86)\Microsoft Visual Studio\2019\Professional\VC\Tools\MSVC\14.29.30133\include\vector
; File C:\Program Files (x86)\Microsoft Visual Studio\2019\Professional\VC\Tools\MSVC\14.29.30133\include\xmemory
; File C:\Program Files (x86)\Microsoft Visual Studio\2019\Professional\VC\Tools\MSVC\14.29.30133\include\vector
; File C:\Users\murat\Desktop\Siveps2-1-99-Project\source\client\Client\eterLib\Pool.h
; File C:\Program Files (x86)\Microsoft Visual Studio\2019\Professional\VC\Tools\MSVC\14.29.30133\include\xmemory
; File C:\Users\murat\Desktop\Siveps2-1-99-Project\source\client\Client\eterLib\Pool.h
;	COMDAT ??1?$CDynamicPool@VCParticleSystemInstance@@@@UAE@XZ
_TEXT	SEGMENT
??1?$CDynamicPool@VCParticleSystemInstance@@@@UAE@XZ PROC ; CDynamicPool<CParticleSystemInstance>::~CDynamicPool<CParticleSystemInstance>, COMDAT
; _this$ = ecx

; 18   : 		{

  00000	56		 push	 esi
  00001	8b f1		 mov	 esi, ecx
  00003	c7 06 00 00 00
	00		 mov	 DWORD PTR [esi], OFFSET ??_7?$CDynamicPool@VCParticleSystemInstance@@@@6B@
; File C:\Program Files (x86)\Microsoft Visual Studio\2019\Professional\VC\Tools\MSVC\14.29.30133\include\vector

; 1763 :         if (_Myfirst) { // destroy and deallocate old array

  00009	8b 46 10	 mov	 eax, DWORD PTR [esi+16]
  0000c	85 c0		 test	 eax, eax
  0000e	74 41		 je	 SHORT $LN6@CDynamicPo

; 1764 :             _Destroy(_Myfirst, _Mylast);
; 1765 :             _Getal().deallocate(_Myfirst, static_cast<size_type>(_Myend - _Myfirst));

  00010	8b 4e 18	 mov	 ecx, DWORD PTR [esi+24]
  00013	2b c8		 sub	 ecx, eax
; File C:\Program Files (x86)\Microsoft Visual Studio\2019\Professional\VC\Tools\MSVC\14.29.30133\include\xmemory

; 835  :         _Deallocate<_New_alignof<_Ty>>(_Ptr, sizeof(_Ty) * _Count);

  00015	83 e1 fc	 and	 ecx, -4			; fffffffcH

; 260  :         if (_Bytes >= _Big_allocation_threshold) { // boost the alignment of big allocations to help autovectorization

  00018	81 f9 00 10 00
	00		 cmp	 ecx, 4096		; 00001000H
  0001e	72 12		 jb	 SHORT $LN22@CDynamicPo

; 158  :     const uintptr_t _Ptr_container   = _Ptr_user[-1];

  00020	8b 50 fc	 mov	 edx, DWORD PTR [eax-4]
  00023	83 c1 23	 add	 ecx, 35			; 00000023H

; 159  : 
; 160  :     // If the following asserts, it likely means that we are performing
; 161  :     // an aligned delete on memory coming from an unaligned allocation.
; 162  :     _STL_ASSERT(_Ptr_user[-2] == _Big_allocation_sentinel, "invalid argument");
; 163  : 
; 164  :     // Extra paranoia on aligned allocation/deallocation; ensure _Ptr_container is
; 165  :     // in range [_Min_back_shift, _Non_user_size]
; 166  : #ifdef _DEBUG
; 167  :     constexpr uintptr_t _Min_back_shift = 2 * sizeof(void*);
; 168  : #else // ^^^ _DEBUG ^^^ // vvv !_DEBUG vvv
; 169  :     constexpr uintptr_t _Min_back_shift = sizeof(void*);
; 170  : #endif // _DEBUG
; 171  :     const uintptr_t _Back_shift = reinterpret_cast<uintptr_t>(_Ptr) - _Ptr_container;

  00026	2b c2		 sub	 eax, edx

; 172  :     _STL_VERIFY(_Back_shift >= _Min_back_shift && _Back_shift <= _Non_user_size, "invalid argument");

  00028	83 c0 fc	 add	 eax, -4			; fffffffcH
  0002b	83 f8 1f	 cmp	 eax, 31			; 0000001fH
  0002e	77 6b		 ja	 SHORT $LN44@CDynamicPo

; 173  :     _Ptr = reinterpret_cast<void*>(_Ptr_container);

  00030	8b c2		 mov	 eax, edx
$LN22@CDynamicPo:

; 264  :         ::operator delete(_Ptr, _Bytes);

  00032	51		 push	 ecx
  00033	50		 push	 eax
  00034	e8 00 00 00 00	 call	 ??3@YAXPAXI@Z		; operator delete
; File C:\Program Files (x86)\Microsoft Visual Studio\2019\Professional\VC\Tools\MSVC\14.29.30133\include\vector

; 1767 :             _Myfirst = nullptr;

  00039	c7 46 10 00 00
	00 00		 mov	 DWORD PTR [esi+16], 0
; File C:\Program Files (x86)\Microsoft Visual Studio\2019\Professional\VC\Tools\MSVC\14.29.30133\include\xmemory

; 264  :         ::operator delete(_Ptr, _Bytes);

  00040	83 c4 08	 add	 esp, 8
; File C:\Program Files (x86)\Microsoft Visual Studio\2019\Professional\VC\Tools\MSVC\14.29.30133\include\vector

; 1768 :             _Mylast  = nullptr;

  00043	c7 46 14 00 00
	00 00		 mov	 DWORD PTR [esi+20], 0

; 1769 :             _Myend   = nullptr;

  0004a	c7 46 18 00 00
	00 00		 mov	 DWORD PTR [esi+24], 0
$LN6@CDynamicPo:

; 1763 :         if (_Myfirst) { // destroy and deallocate old array

  00051	8b 46 04	 mov	 eax, DWORD PTR [esi+4]
  00054	85 c0		 test	 eax, eax
  00056	74 41		 je	 SHORT $LN31@CDynamicPo

; 1764 :             _Destroy(_Myfirst, _Mylast);
; 1765 :             _Getal().deallocate(_Myfirst, static_cast<size_type>(_Myend - _Myfirst));

  00058	8b 4e 0c	 mov	 ecx, DWORD PTR [esi+12]
  0005b	2b c8		 sub	 ecx, eax
; File C:\Program Files (x86)\Microsoft Visual Studio\2019\Professional\VC\Tools\MSVC\14.29.30133\include\xmemory

; 835  :         _Deallocate<_New_alignof<_Ty>>(_Ptr, sizeof(_Ty) * _Count);

  0005d	83 e1 fc	 and	 ecx, -4			; fffffffcH

; 260  :         if (_Bytes >= _Big_allocation_threshold) { // boost the alignment of big allocations to help autovectorization

  00060	81 f9 00 10 00
	00		 cmp	 ecx, 4096		; 00001000H
  00066	72 12		 jb	 SHORT $LN47@CDynamicPo

; 158  :     const uintptr_t _Ptr_container   = _Ptr_user[-1];

  00068	8b 50 fc	 mov	 edx, DWORD PTR [eax-4]
  0006b	83 c1 23	 add	 ecx, 35			; 00000023H

; 159  : 
; 160  :     // If the following asserts, it likely means that we are performing
; 161  :     // an aligned delete on memory coming from an unaligned allocation.
; 162  :     _STL_ASSERT(_Ptr_user[-2] == _Big_allocation_sentinel, "invalid argument");
; 163  : 
; 164  :     // Extra paranoia on aligned allocation/deallocation; ensure _Ptr_container is
; 165  :     // in range [_Min_back_shift, _Non_user_size]
; 166  : #ifdef _DEBUG
; 167  :     constexpr uintptr_t _Min_back_shift = 2 * sizeof(void*);
; 168  : #else // ^^^ _DEBUG ^^^ // vvv !_DEBUG vvv
; 169  :     constexpr uintptr_t _Min_back_shift = sizeof(void*);
; 170  : #endif // _DEBUG
; 171  :     const uintptr_t _Back_shift = reinterpret_cast<uintptr_t>(_Ptr) - _Ptr_container;

  0006e	2b c2		 sub	 eax, edx

; 172  :     _STL_VERIFY(_Back_shift >= _Min_back_shift && _Back_shift <= _Non_user_size, "invalid argument");

  00070	83 c0 fc	 add	 eax, -4			; fffffffcH
  00073	83 f8 1f	 cmp	 eax, 31			; 0000001fH
  00076	77 23		 ja	 SHORT $LN44@CDynamicPo

; 173  :     _Ptr = reinterpret_cast<void*>(_Ptr_container);

  00078	8b c2		 mov	 eax, edx
$LN47@CDynamicPo:

; 264  :         ::operator delete(_Ptr, _Bytes);

  0007a	51		 push	 ecx
  0007b	50		 push	 eax
  0007c	e8 00 00 00 00	 call	 ??3@YAXPAXI@Z		; operator delete
; File C:\Program Files (x86)\Microsoft Visual Studio\2019\Professional\VC\Tools\MSVC\14.29.30133\include\vector

; 1767 :             _Myfirst = nullptr;

  00081	c7 46 04 00 00
	00 00		 mov	 DWORD PTR [esi+4], 0
; File C:\Program Files (x86)\Microsoft Visual Studio\2019\Professional\VC\Tools\MSVC\14.29.30133\include\xmemory

; 264  :         ::operator delete(_Ptr, _Bytes);

  00088	83 c4 08	 add	 esp, 8
; File C:\Program Files (x86)\Microsoft Visual Studio\2019\Professional\VC\Tools\MSVC\14.29.30133\include\vector

; 1768 :             _Mylast  = nullptr;

  0008b	c7 46 08 00 00
	00 00		 mov	 DWORD PTR [esi+8], 0

; 1769 :             _Myend   = nullptr;

  00092	c7 46 0c 00 00
	00 00		 mov	 DWORD PTR [esi+12], 0
$LN31@CDynamicPo:
  00099	5e		 pop	 esi
; File C:\Users\murat\Desktop\Siveps2-1-99-Project\source\client\Client\eterLib\Pool.h

; 26   : 		}

  0009a	c3		 ret	 0
$LN44@CDynamicPo:
; File C:\Program Files (x86)\Microsoft Visual Studio\2019\Professional\VC\Tools\MSVC\14.29.30133\include\xmemory

; 172  :     _STL_VERIFY(_Back_shift >= _Min_back_shift && _Back_shift <= _Non_user_size, "invalid argument");

  0009b	e8 00 00 00 00	 call	 __invalid_parameter_noinfo_noreturn
$LN52@CDynamicPo:
  000a0	cc		 int	 3
??1?$CDynamicPool@VCParticleSystemInstance@@@@UAE@XZ ENDP ; CDynamicPool<CParticleSystemInstance>::~CDynamicPool<CParticleSystemInstance>
_TEXT	ENDS
; Function compile flags: /Ogtp
;	COMDAT ??_GCParticleSystemInstance@@UAEPAXI@Z
_TEXT	SEGMENT
___flags$ = 8						; size = 4
??_GCParticleSystemInstance@@UAEPAXI@Z PROC		; CParticleSystemInstance::`scalar deleting destructor', COMDAT
; _this$ = ecx
  00000	55		 push	 ebp
  00001	8b ec		 mov	 ebp, esp
  00003	56		 push	 esi
  00004	8b f1		 mov	 esi, ecx
  00006	e8 00 00 00 00	 call	 ??1CParticleSystemInstance@@UAE@XZ ; CParticleSystemInstance::~CParticleSystemInstance
  0000b	f6 45 08 01	 test	 BYTE PTR ___flags$[ebp], 1
  0000f	74 0b		 je	 SHORT $LN4@scalar
  00011	6a 54		 push	 84			; 00000054H
  00013	56		 push	 esi
  00014	e8 00 00 00 00	 call	 ??3@YAXPAXI@Z		; operator delete
  00019	83 c4 08	 add	 esp, 8
$LN4@scalar:
  0001c	8b c6		 mov	 eax, esi
  0001e	5e		 pop	 esi
  0001f	5d		 pop	 ebp
  00020	c2 04 00	 ret	 4
??_GCParticleSystemInstance@@UAEPAXI@Z ENDP		; CParticleSystemInstance::`scalar deleting destructor'
_TEXT	ENDS
; Function compile flags: /Ogtp
; File C:\Program Files (x86)\Microsoft Visual Studio\2019\Professional\VC\Tools\MSVC\14.29.30133\include\vector
;	COMDAT ?_Xlength@?$vector@PAVCGraphicImageInstance@@V?$allocator@PAVCGraphicImageInstance@@@std@@@std@@CAXXZ
_TEXT	SEGMENT
?_Xlength@?$vector@PAVCGraphicImageInstance@@V?$allocator@PAVCGraphicImageInstance@@@std@@@std@@CAXXZ PROC ; std::vector<CGraphicImageInstance *,std::allocator<CGraphicImageInstance *> >::_Xlength, COMDAT

; 1774 :         _Xlength_error("vector too long");

  00000	68 00 00 00 00	 push	 OFFSET ??_C@_0BA@FOIKENOD@vector?5too?5long@
  00005	e8 00 00 00 00	 call	 ?_Xlength_error@std@@YAXPBD@Z ; std::_Xlength_error
$LN3@Xlength:
  0000a	cc		 int	 3
?_Xlength@?$vector@PAVCGraphicImageInstance@@V?$allocator@PAVCGraphicImageInstance@@@std@@@std@@CAXXZ ENDP ; std::vector<CGraphicImageInstance *,std::allocator<CGraphicImageInstance *> >::_Xlength
_TEXT	ENDS
; Function compile flags: /Ogtp
; File C:\Program Files (x86)\Microsoft Visual Studio\2019\Professional\VC\Tools\MSVC\14.29.30133\include\vector
; File C:\Program Files (x86)\Microsoft Visual Studio\2019\Professional\VC\Tools\MSVC\14.29.30133\include\xmemory
; File C:\Program Files (x86)\Microsoft Visual Studio\2019\Professional\VC\Tools\MSVC\14.29.30133\include\vector
; File C:\Program Files (x86)\Microsoft Visual Studio\2019\Professional\VC\Tools\MSVC\14.29.30133\include\xmemory
; File C:\Program Files (x86)\Microsoft Visual Studio\2019\Professional\VC\Tools\MSVC\14.29.30133\include\vector
;	COMDAT ?_Change_array@?$vector@PAVCGraphicImageInstance@@V?$allocator@PAVCGraphicImageInstance@@@std@@@std@@AAEXQAPAVCGraphicImageInstance@@II@Z
_TEXT	SEGMENT
__Newvec$ = 8						; size = 4
__Newsize$ = 12						; size = 4
__Newcapacity$ = 16					; size = 4
?_Change_array@?$vector@PAVCGraphicImageInstance@@V?$allocator@PAVCGraphicImageInstance@@@std@@@std@@AAEXQAPAVCGraphicImageInstance@@II@Z PROC ; std::vector<CGraphicImageInstance *,std::allocator<CGraphicImageInstance *> >::_Change_array, COMDAT
; _this$ = ecx

; 1736 :         const pointer _Newvec, const size_type _Newsize, const size_type _Newcapacity) {

  00000	55		 push	 ebp
  00001	8b ec		 mov	 ebp, esp
  00003	56		 push	 esi
  00004	8b f1		 mov	 esi, ecx

; 1737 :         // orphan all iterators, discard old array, acquire new array
; 1738 :         auto& _My_data    = _Mypair._Myval2;
; 1739 :         pointer& _Myfirst = _My_data._Myfirst;
; 1740 :         pointer& _Mylast  = _My_data._Mylast;
; 1741 :         pointer& _Myend   = _My_data._Myend;
; 1742 : 
; 1743 :         _My_data._Orphan_all();
; 1744 : 
; 1745 :         if (_Myfirst) { // destroy and deallocate old array

  00006	8b 06		 mov	 eax, DWORD PTR [esi]
  00008	85 c0		 test	 eax, eax
  0000a	74 2c		 je	 SHORT $LN8@Change_arr

; 1746 :             _Destroy(_Myfirst, _Mylast);
; 1747 :             _Getal().deallocate(_Myfirst, static_cast<size_type>(_Myend - _Myfirst));

  0000c	8b 4e 08	 mov	 ecx, DWORD PTR [esi+8]
  0000f	2b c8		 sub	 ecx, eax
; File C:\Program Files (x86)\Microsoft Visual Studio\2019\Professional\VC\Tools\MSVC\14.29.30133\include\xmemory

; 835  :         _Deallocate<_New_alignof<_Ty>>(_Ptr, sizeof(_Ty) * _Count);

  00011	83 e1 fc	 and	 ecx, -4			; fffffffcH

; 260  :         if (_Bytes >= _Big_allocation_threshold) { // boost the alignment of big allocations to help autovectorization

  00014	81 f9 00 10 00
	00		 cmp	 ecx, 4096		; 00001000H
  0001a	72 12		 jb	 SHORT $LN18@Change_arr

; 158  :     const uintptr_t _Ptr_container   = _Ptr_user[-1];

  0001c	8b 50 fc	 mov	 edx, DWORD PTR [eax-4]
  0001f	83 c1 23	 add	 ecx, 35			; 00000023H

; 159  : 
; 160  :     // If the following asserts, it likely means that we are performing
; 161  :     // an aligned delete on memory coming from an unaligned allocation.
; 162  :     _STL_ASSERT(_Ptr_user[-2] == _Big_allocation_sentinel, "invalid argument");
; 163  : 
; 164  :     // Extra paranoia on aligned allocation/deallocation; ensure _Ptr_container is
; 165  :     // in range [_Min_back_shift, _Non_user_size]
; 166  : #ifdef _DEBUG
; 167  :     constexpr uintptr_t _Min_back_shift = 2 * sizeof(void*);
; 168  : #else // ^^^ _DEBUG ^^^ // vvv !_DEBUG vvv
; 169  :     constexpr uintptr_t _Min_back_shift = sizeof(void*);
; 170  : #endif // _DEBUG
; 171  :     const uintptr_t _Back_shift = reinterpret_cast<uintptr_t>(_Ptr) - _Ptr_container;

  00022	2b c2		 sub	 eax, edx

; 172  :     _STL_VERIFY(_Back_shift >= _Min_back_shift && _Back_shift <= _Non_user_size, "invalid argument");

  00024	83 c0 fc	 add	 eax, -4			; fffffffcH
  00027	83 f8 1f	 cmp	 eax, 31			; 0000001fH
  0002a	77 28		 ja	 SHORT $LN15@Change_arr

; 173  :     _Ptr = reinterpret_cast<void*>(_Ptr_container);

  0002c	8b c2		 mov	 eax, edx
$LN18@Change_arr:

; 264  :         ::operator delete(_Ptr, _Bytes);

  0002e	51		 push	 ecx
  0002f	50		 push	 eax
  00030	e8 00 00 00 00	 call	 ??3@YAXPAXI@Z		; operator delete
  00035	83 c4 08	 add	 esp, 8
$LN8@Change_arr:
; File C:\Program Files (x86)\Microsoft Visual Studio\2019\Professional\VC\Tools\MSVC\14.29.30133\include\vector

; 1750 :         _Myfirst = _Newvec;

  00038	8b 4d 08	 mov	 ecx, DWORD PTR __Newvec$[ebp]

; 1751 :         _Mylast  = _Newvec + _Newsize;

  0003b	8b 45 0c	 mov	 eax, DWORD PTR __Newsize$[ebp]
  0003e	89 0e		 mov	 DWORD PTR [esi], ecx
  00040	8d 04 81	 lea	 eax, DWORD PTR [ecx+eax*4]
  00043	89 46 04	 mov	 DWORD PTR [esi+4], eax

; 1752 :         _Myend   = _Newvec + _Newcapacity;

  00046	8b 45 10	 mov	 eax, DWORD PTR __Newcapacity$[ebp]
  00049	8d 04 81	 lea	 eax, DWORD PTR [ecx+eax*4]
  0004c	89 46 08	 mov	 DWORD PTR [esi+8], eax
  0004f	5e		 pop	 esi

; 1753 :     }

  00050	5d		 pop	 ebp
  00051	c2 0c 00	 ret	 12			; 0000000cH
$LN15@Change_arr:
; File C:\Program Files (x86)\Microsoft Visual Studio\2019\Professional\VC\Tools\MSVC\14.29.30133\include\xmemory

; 172  :     _STL_VERIFY(_Back_shift >= _Min_back_shift && _Back_shift <= _Non_user_size, "invalid argument");

  00054	e8 00 00 00 00	 call	 __invalid_parameter_noinfo_noreturn
$LN22@Change_arr:
  00059	cc		 int	 3
?_Change_array@?$vector@PAVCGraphicImageInstance@@V?$allocator@PAVCGraphicImageInstance@@@std@@@std@@AAEXQAPAVCGraphicImageInstance@@II@Z ENDP ; std::vector<CGraphicImageInstance *,std::allocator<CGraphicImageInstance *> >::_Change_array
_TEXT	ENDS
; Function compile flags: /Ogtp
; File C:\Program Files (x86)\Microsoft Visual Studio\2019\Professional\VC\Tools\MSVC\14.29.30133\include\vector
; File C:\Program Files (x86)\Microsoft Visual Studio\2019\Professional\VC\Tools\MSVC\14.29.30133\include\xmemory
; File C:\Program Files (x86)\Microsoft Visual Studio\2019\Professional\VC\Tools\MSVC\14.29.30133\include\vector
; File C:\Program Files (x86)\Microsoft Visual Studio\2019\Professional\VC\Tools\MSVC\14.29.30133\include\xmemory
; File C:\Program Files (x86)\Microsoft Visual Studio\2019\Professional\VC\Tools\MSVC\14.29.30133\include\vector
; File C:\Program Files (x86)\Microsoft Visual Studio\2019\Professional\VC\Tools\MSVC\14.29.30133\include\xmemory
; File C:\Program Files (x86)\Microsoft Visual Studio\2019\Professional\VC\Tools\MSVC\14.29.30133\include\vector
; File C:\Program Files (x86)\Microsoft Visual Studio\2019\Professional\VC\Tools\MSVC\14.29.30133\include\xmemory
; File C:\Program Files (x86)\Microsoft Visual Studio\2019\Professional\VC\Tools\MSVC\14.29.30133\include\vector
; File C:\Program Files (x86)\Microsoft Visual Studio\2019\Professional\VC\Tools\MSVC\14.29.30133\include\xmemory
; File C:\Program Files (x86)\Microsoft Visual Studio\2019\Professional\VC\Tools\MSVC\14.29.30133\include\vector
;	COMDAT ?_Reallocate_exactly@?$vector@PAVCGraphicImageInstance@@V?$allocator@PAVCGraphicImageInstance@@@std@@@std@@AAEXI@Z
_TEXT	SEGMENT
__Size$1$ = -4						; size = 4
__Newcapacity$ = 8					; size = 4
?_Reallocate_exactly@?$vector@PAVCGraphicImageInstance@@V?$allocator@PAVCGraphicImageInstance@@@std@@@std@@AAEXI@Z PROC ; std::vector<CGraphicImageInstance *,std::allocator<CGraphicImageInstance *> >::_Reallocate_exactly, COMDAT
; _this$ = ecx

; 1299 :     _CONSTEXPR20_CONTAINER void _Reallocate_exactly(const size_type _Newcapacity) {

  00000	55		 push	 ebp
  00001	8b ec		 mov	 ebp, esp
  00003	51		 push	 ecx
  00004	53		 push	 ebx
; File C:\Program Files (x86)\Microsoft Visual Studio\2019\Professional\VC\Tools\MSVC\14.29.30133\include\xmemory

; 64   :         if (_Count > _Max_possible) {

  00005	8b 5d 08	 mov	 ebx, DWORD PTR __Newcapacity$[ebp]
; File C:\Program Files (x86)\Microsoft Visual Studio\2019\Professional\VC\Tools\MSVC\14.29.30133\include\vector

; 1299 :     _CONSTEXPR20_CONTAINER void _Reallocate_exactly(const size_type _Newcapacity) {

  00008	56		 push	 esi
  00009	8b f1		 mov	 esi, ecx
  0000b	57		 push	 edi

; 1300 :         // set capacity to _Newcapacity (without geometric growth), provide strong guarantee
; 1301 :         auto& _My_data    = _Mypair._Myval2;
; 1302 :         pointer& _Myfirst = _My_data._Myfirst;
; 1303 :         pointer& _Mylast  = _My_data._Mylast;
; 1304 : 
; 1305 :         const auto _Size = static_cast<size_type>(_Mylast - _Myfirst);

  0000c	8b 46 04	 mov	 eax, DWORD PTR [esi+4]
  0000f	2b 06		 sub	 eax, DWORD PTR [esi]
  00011	c1 f8 02	 sar	 eax, 2
  00014	89 45 fc	 mov	 DWORD PTR __Size$1$[ebp], eax
; File C:\Program Files (x86)\Microsoft Visual Studio\2019\Professional\VC\Tools\MSVC\14.29.30133\include\xmemory

; 64   :         if (_Count > _Max_possible) {

  00017	81 fb ff ff ff
	3f		 cmp	 ebx, 1073741823		; 3fffffffH
  0001d	0f 87 8a 00 00
	00		 ja	 $LN59@Reallocate

; 66   :         }
; 67   :     }
; 68   : 
; 69   :     return _Count * _Ty_size;

  00023	c1 e3 02	 shl	 ebx, 2

; 237  :         if (_Bytes >= _Big_allocation_threshold) { // boost the alignment of big allocations to help autovectorization

  00026	81 fb 00 10 00
	00		 cmp	 ebx, 4096		; 00001000H
  0002c	72 0d		 jb	 SHORT $LN15@Reallocate

; 238  :             return _Allocate_manually_vector_aligned<_Traits>(_Bytes);

  0002e	53		 push	 ebx
  0002f	e8 00 00 00 00	 call	 ??$_Allocate_manually_vector_aligned@U_Default_allocate_traits@std@@@std@@YAPAXI@Z ; std::_Allocate_manually_vector_aligned<std::_Default_allocate_traits>
  00034	83 c4 04	 add	 esp, 4
  00037	8b f8		 mov	 edi, eax
  00039	eb 13		 jmp	 SHORT $LN14@Reallocate
$LN15@Reallocate:

; 239  :         }
; 240  :     }
; 241  : #endif // defined(_M_IX86) || defined(_M_X64)
; 242  : 
; 243  :     if (_Bytes != 0) {

  0003b	85 db		 test	 ebx, ebx
  0003d	74 0d		 je	 SHORT $LN16@Reallocate

; 85   :         return ::operator new(_Bytes);

  0003f	53		 push	 ebx
  00040	e8 00 00 00 00	 call	 ??2@YAPAXI@Z		; operator new
  00045	83 c4 04	 add	 esp, 4

; 244  :         return _Traits::_Allocate(_Bytes);

  00048	8b f8		 mov	 edi, eax
  0004a	eb 02		 jmp	 SHORT $LN14@Reallocate
$LN16@Reallocate:

; 245  :     }
; 246  : 
; 247  :     return nullptr;

  0004c	33 ff		 xor	 edi, edi
$LN14@Reallocate:

; 1725 :             _Copy_memmove(_UFirst, _ULast, _Unfancy(_Dest));

  0004e	57		 push	 edi
  0004f	ff 76 04	 push	 DWORD PTR [esi+4]
  00052	ff 36		 push	 DWORD PTR [esi]
  00054	e8 00 00 00 00	 call	 ??$_Copy_memmove@PAPAVCGraphicImageInstance@@PAPAV1@@std@@YAPAPAVCGraphicImageInstance@@PAPAV1@00@Z ; std::_Copy_memmove<CGraphicImageInstance * *,CGraphicImageInstance * *>
; File C:\Program Files (x86)\Microsoft Visual Studio\2019\Professional\VC\Tools\MSVC\14.29.30133\include\vector

; 1745 :         if (_Myfirst) { // destroy and deallocate old array

  00059	8b 06		 mov	 eax, DWORD PTR [esi]
; File C:\Program Files (x86)\Microsoft Visual Studio\2019\Professional\VC\Tools\MSVC\14.29.30133\include\xmemory

; 1725 :             _Copy_memmove(_UFirst, _ULast, _Unfancy(_Dest));

  0005b	83 c4 0c	 add	 esp, 12			; 0000000cH
; File C:\Program Files (x86)\Microsoft Visual Studio\2019\Professional\VC\Tools\MSVC\14.29.30133\include\vector

; 1745 :         if (_Myfirst) { // destroy and deallocate old array

  0005e	85 c0		 test	 eax, eax
  00060	74 2c		 je	 SHORT $LN43@Reallocate

; 1746 :             _Destroy(_Myfirst, _Mylast);
; 1747 :             _Getal().deallocate(_Myfirst, static_cast<size_type>(_Myend - _Myfirst));

  00062	8b 4e 08	 mov	 ecx, DWORD PTR [esi+8]
  00065	2b c8		 sub	 ecx, eax
; File C:\Program Files (x86)\Microsoft Visual Studio\2019\Professional\VC\Tools\MSVC\14.29.30133\include\xmemory

; 835  :         _Deallocate<_New_alignof<_Ty>>(_Ptr, sizeof(_Ty) * _Count);

  00067	83 e1 fc	 and	 ecx, -4			; fffffffcH

; 260  :         if (_Bytes >= _Big_allocation_threshold) { // boost the alignment of big allocations to help autovectorization

  0006a	81 f9 00 10 00
	00		 cmp	 ecx, 4096		; 00001000H
  00070	72 12		 jb	 SHORT $LN53@Reallocate

; 158  :     const uintptr_t _Ptr_container   = _Ptr_user[-1];

  00072	8b 50 fc	 mov	 edx, DWORD PTR [eax-4]
  00075	83 c1 23	 add	 ecx, 35			; 00000023H

; 159  : 
; 160  :     // If the following asserts, it likely means that we are performing
; 161  :     // an aligned delete on memory coming from an unaligned allocation.
; 162  :     _STL_ASSERT(_Ptr_user[-2] == _Big_allocation_sentinel, "invalid argument");
; 163  : 
; 164  :     // Extra paranoia on aligned allocation/deallocation; ensure _Ptr_container is
; 165  :     // in range [_Min_back_shift, _Non_user_size]
; 166  : #ifdef _DEBUG
; 167  :     constexpr uintptr_t _Min_back_shift = 2 * sizeof(void*);
; 168  : #else // ^^^ _DEBUG ^^^ // vvv !_DEBUG vvv
; 169  :     constexpr uintptr_t _Min_back_shift = sizeof(void*);
; 170  : #endif // _DEBUG
; 171  :     const uintptr_t _Back_shift = reinterpret_cast<uintptr_t>(_Ptr) - _Ptr_container;

  00078	2b c2		 sub	 eax, edx

; 172  :     _STL_VERIFY(_Back_shift >= _Min_back_shift && _Back_shift <= _Non_user_size, "invalid argument");

  0007a	83 c0 fc	 add	 eax, -4			; fffffffcH
  0007d	83 f8 1f	 cmp	 eax, 31			; 0000001fH
  00080	77 26		 ja	 SHORT $LN50@Reallocate

; 173  :     _Ptr = reinterpret_cast<void*>(_Ptr_container);

  00082	8b c2		 mov	 eax, edx
$LN53@Reallocate:

; 264  :         ::operator delete(_Ptr, _Bytes);

  00084	51		 push	 ecx
  00085	50		 push	 eax
  00086	e8 00 00 00 00	 call	 ??3@YAXPAXI@Z		; operator delete
  0008b	83 c4 08	 add	 esp, 8
$LN43@Reallocate:
; File C:\Program Files (x86)\Microsoft Visual Studio\2019\Professional\VC\Tools\MSVC\14.29.30133\include\vector

; 1751 :         _Mylast  = _Newvec + _Newsize;

  0008e	8b 45 fc	 mov	 eax, DWORD PTR __Size$1$[ebp]
  00091	89 3e		 mov	 DWORD PTR [esi], edi
  00093	8d 04 87	 lea	 eax, DWORD PTR [edi+eax*4]
  00096	89 46 04	 mov	 DWORD PTR [esi+4], eax

; 1752 :         _Myend   = _Newvec + _Newcapacity;

  00099	8d 04 3b	 lea	 eax, DWORD PTR [ebx+edi]
  0009c	5f		 pop	 edi
  0009d	89 46 08	 mov	 DWORD PTR [esi+8], eax
  000a0	5e		 pop	 esi
  000a1	5b		 pop	 ebx

; 1317 :     }

  000a2	8b e5		 mov	 esp, ebp
  000a4	5d		 pop	 ebp
  000a5	c2 04 00	 ret	 4
$LN50@Reallocate:
; File C:\Program Files (x86)\Microsoft Visual Studio\2019\Professional\VC\Tools\MSVC\14.29.30133\include\xmemory

; 172  :     _STL_VERIFY(_Back_shift >= _Min_back_shift && _Back_shift <= _Non_user_size, "invalid argument");

  000a8	e8 00 00 00 00	 call	 __invalid_parameter_noinfo_noreturn
$LN59@Reallocate:

; 65   :             _Throw_bad_array_new_length(); // multiply overflow

  000ad	e8 00 00 00 00	 call	 ?_Throw_bad_array_new_length@std@@YAXXZ ; std::_Throw_bad_array_new_length
$LN57@Reallocate:
  000b2	cc		 int	 3
?_Reallocate_exactly@?$vector@PAVCGraphicImageInstance@@V?$allocator@PAVCGraphicImageInstance@@@std@@@std@@AAEXI@Z ENDP ; std::vector<CGraphicImageInstance *,std::allocator<CGraphicImageInstance *> >::_Reallocate_exactly
_TEXT	ENDS
; Function compile flags: /Ogtp
; File C:\Program Files (x86)\Microsoft Visual Studio\2019\Professional\VC\Tools\MSVC\14.29.30133\include\vector
; File C:\Program Files (x86)\Microsoft Visual Studio\2019\Professional\VC\Tools\MSVC\14.29.30133\include\xmemory
; File C:\Program Files (x86)\Microsoft Visual Studio\2019\Professional\VC\Tools\MSVC\14.29.30133\include\vector
; File C:\Program Files (x86)\Microsoft Visual Studio\2019\Professional\VC\Tools\MSVC\14.29.30133\include\xmemory
; File C:\Program Files (x86)\Microsoft Visual Studio\2019\Professional\VC\Tools\MSVC\14.29.30133\include\vector
; File C:\Program Files (x86)\Microsoft Visual Studio\2019\Professional\VC\Tools\MSVC\14.29.30133\include\xmemory
; File C:\Program Files (x86)\Microsoft Visual Studio\2019\Professional\VC\Tools\MSVC\14.29.30133\include\vector
;	COMDAT ??1?$vector@PAVCGraphicImageInstance@@V?$allocator@PAVCGraphicImageInstance@@@std@@@std@@QAE@XZ
_TEXT	SEGMENT
??1?$vector@PAVCGraphicImageInstance@@V?$allocator@PAVCGraphicImageInstance@@@std@@@std@@QAE@XZ PROC ; std::vector<CGraphicImageInstance *,std::allocator<CGraphicImageInstance *> >::~vector<CGraphicImageInstance *,std::allocator<CGraphicImageInstance *> >, COMDAT
; _this$ = ecx

; 711  :     _CONSTEXPR20_CONTAINER ~vector() noexcept {

  00000	56		 push	 esi
  00001	8b f1		 mov	 esi, ecx

; 1763 :         if (_Myfirst) { // destroy and deallocate old array

  00003	8b 06		 mov	 eax, DWORD PTR [esi]
  00005	85 c0		 test	 eax, eax
  00007	74 40		 je	 SHORT $LN4@vector

; 1764 :             _Destroy(_Myfirst, _Mylast);
; 1765 :             _Getal().deallocate(_Myfirst, static_cast<size_type>(_Myend - _Myfirst));

  00009	8b 4e 08	 mov	 ecx, DWORD PTR [esi+8]
  0000c	2b c8		 sub	 ecx, eax
; File C:\Program Files (x86)\Microsoft Visual Studio\2019\Professional\VC\Tools\MSVC\14.29.30133\include\xmemory

; 835  :         _Deallocate<_New_alignof<_Ty>>(_Ptr, sizeof(_Ty) * _Count);

  0000e	83 e1 fc	 and	 ecx, -4			; fffffffcH

; 260  :         if (_Bytes >= _Big_allocation_threshold) { // boost the alignment of big allocations to help autovectorization

  00011	81 f9 00 10 00
	00		 cmp	 ecx, 4096		; 00001000H
  00017	72 12		 jb	 SHORT $LN20@vector

; 158  :     const uintptr_t _Ptr_container   = _Ptr_user[-1];

  00019	8b 50 fc	 mov	 edx, DWORD PTR [eax-4]
  0001c	83 c1 23	 add	 ecx, 35			; 00000023H

; 159  : 
; 160  :     // If the following asserts, it likely means that we are performing
; 161  :     // an aligned delete on memory coming from an unaligned allocation.
; 162  :     _STL_ASSERT(_Ptr_user[-2] == _Big_allocation_sentinel, "invalid argument");
; 163  : 
; 164  :     // Extra paranoia on aligned allocation/deallocation; ensure _Ptr_container is
; 165  :     // in range [_Min_back_shift, _Non_user_size]
; 166  : #ifdef _DEBUG
; 167  :     constexpr uintptr_t _Min_back_shift = 2 * sizeof(void*);
; 168  : #else // ^^^ _DEBUG ^^^ // vvv !_DEBUG vvv
; 169  :     constexpr uintptr_t _Min_back_shift = sizeof(void*);
; 170  : #endif // _DEBUG
; 171  :     const uintptr_t _Back_shift = reinterpret_cast<uintptr_t>(_Ptr) - _Ptr_container;

  0001f	2b c2		 sub	 eax, edx

; 172  :     _STL_VERIFY(_Back_shift >= _Min_back_shift && _Back_shift <= _Non_user_size, "invalid argument");

  00021	83 c0 fc	 add	 eax, -4			; fffffffcH
  00024	83 f8 1f	 cmp	 eax, 31			; 0000001fH
  00027	77 22		 ja	 SHORT $LN17@vector

; 173  :     _Ptr = reinterpret_cast<void*>(_Ptr_container);

  00029	8b c2		 mov	 eax, edx
$LN20@vector:

; 264  :         ::operator delete(_Ptr, _Bytes);

  0002b	51		 push	 ecx
  0002c	50		 push	 eax
  0002d	e8 00 00 00 00	 call	 ??3@YAXPAXI@Z		; operator delete
; File C:\Program Files (x86)\Microsoft Visual Studio\2019\Professional\VC\Tools\MSVC\14.29.30133\include\vector

; 1767 :             _Myfirst = nullptr;

  00032	c7 06 00 00 00
	00		 mov	 DWORD PTR [esi], 0
; File C:\Program Files (x86)\Microsoft Visual Studio\2019\Professional\VC\Tools\MSVC\14.29.30133\include\xmemory

; 264  :         ::operator delete(_Ptr, _Bytes);

  00038	83 c4 08	 add	 esp, 8
; File C:\Program Files (x86)\Microsoft Visual Studio\2019\Professional\VC\Tools\MSVC\14.29.30133\include\vector

; 1768 :             _Mylast  = nullptr;

  0003b	c7 46 04 00 00
	00 00		 mov	 DWORD PTR [esi+4], 0

; 1769 :             _Myend   = nullptr;

  00042	c7 46 08 00 00
	00 00		 mov	 DWORD PTR [esi+8], 0
$LN4@vector:
  00049	5e		 pop	 esi

; 717  :     }

  0004a	c3		 ret	 0
$LN17@vector:
; File C:\Program Files (x86)\Microsoft Visual Studio\2019\Professional\VC\Tools\MSVC\14.29.30133\include\xmemory

; 172  :     _STL_VERIFY(_Back_shift >= _Min_back_shift && _Back_shift <= _Non_user_size, "invalid argument");

  0004b	e8 00 00 00 00	 call	 __invalid_parameter_noinfo_noreturn
$LN25@vector:
  00050	cc		 int	 3
??1?$vector@PAVCGraphicImageInstance@@V?$allocator@PAVCGraphicImageInstance@@@std@@@std@@QAE@XZ ENDP ; std::vector<CGraphicImageInstance *,std::allocator<CGraphicImageInstance *> >::~vector<CGraphicImageInstance *,std::allocator<CGraphicImageInstance *> >
_TEXT	ENDS
; Function compile flags: /Ogtp
; File C:\Program Files (x86)\Microsoft Visual Studio\2019\Professional\VC\Tools\MSVC\14.29.30133\include\vector
;	COMDAT ?_Getal@?$vector@V?$list@PAVCParticleInstance@@V?$allocator@PAVCParticleInstance@@@std@@@std@@V?$allocator@V?$list@PAVCParticleInstance@@V?$allocator@PAVCParticleInstance@@@std@@@std@@@2@@std@@AAEAAV?$allocator@V?$list@PAVCParticleInstance@@V?$allocator@PAVCParticleInstance@@@std@@@std@@@2@XZ
_TEXT	SEGMENT
?_Getal@?$vector@V?$list@PAVCParticleInstance@@V?$allocator@PAVCParticleInstance@@@std@@@std@@V?$allocator@V?$list@PAVCParticleInstance@@V?$allocator@PAVCParticleInstance@@@std@@@std@@@2@@std@@AAEAAV?$allocator@V?$list@PAVCParticleInstance@@V?$allocator@PAVCParticleInstance@@@std@@@std@@@2@XZ PROC ; std::vector<std::list<CParticleInstance *,std::allocator<CParticleInstance *> >,std::allocator<std::list<CParticleInstance *,std::allocator<CParticleInstance *> > > >::_Getal, COMDAT
; _this$ = ecx

; 1818 :         return _Mypair._Get_first();

  00000	8b c1		 mov	 eax, ecx

; 1819 :     }

  00002	c3		 ret	 0
?_Getal@?$vector@V?$list@PAVCParticleInstance@@V?$allocator@PAVCParticleInstance@@@std@@@std@@V?$allocator@V?$list@PAVCParticleInstance@@V?$allocator@PAVCParticleInstance@@@std@@@std@@@2@@std@@AAEAAV?$allocator@V?$list@PAVCParticleInstance@@V?$allocator@PAVCParticleInstance@@@std@@@std@@@2@XZ ENDP ; std::vector<std::list<CParticleInstance *,std::allocator<CParticleInstance *> >,std::allocator<std::list<CParticleInstance *,std::allocator<CParticleInstance *> > > >::_Getal
_TEXT	ENDS
; Function compile flags: /Ogtp
; File C:\Program Files (x86)\Microsoft Visual Studio\2019\Professional\VC\Tools\MSVC\14.29.30133\include\vector
;	COMDAT ?_Xlength@?$vector@V?$list@PAVCParticleInstance@@V?$allocator@PAVCParticleInstance@@@std@@@std@@V?$allocator@V?$list@PAVCParticleInstance@@V?$allocator@PAVCParticleInstance@@@std@@@std@@@2@@std@@CAXXZ
_TEXT	SEGMENT
?_Xlength@?$vector@V?$list@PAVCParticleInstance@@V?$allocator@PAVCParticleInstance@@@std@@@std@@V?$allocator@V?$list@PAVCParticleInstance@@V?$allocator@PAVCParticleInstance@@@std@@@std@@@2@@std@@CAXXZ PROC ; std::vector<std::list<CParticleInstance *,std::allocator<CParticleInstance *> >,std::allocator<std::list<CParticleInstance *,std::allocator<CParticleInstance *> > > >::_Xlength, COMDAT

; 1774 :         _Xlength_error("vector too long");

  00000	68 00 00 00 00	 push	 OFFSET ??_C@_0BA@FOIKENOD@vector?5too?5long@
  00005	e8 00 00 00 00	 call	 ?_Xlength_error@std@@YAXPBD@Z ; std::_Xlength_error
$LN3@Xlength:
  0000a	cc		 int	 3
?_Xlength@?$vector@V?$list@PAVCParticleInstance@@V?$allocator@PAVCParticleInstance@@@std@@@std@@V?$allocator@V?$list@PAVCParticleInstance@@V?$allocator@PAVCParticleInstance@@@std@@@std@@@2@@std@@CAXXZ ENDP ; std::vector<std::list<CParticleInstance *,std::allocator<CParticleInstance *> >,std::allocator<std::list<CParticleInstance *,std::allocator<CParticleInstance *> > > >::_Xlength
_TEXT	ENDS
; Function compile flags: /Ogtp
; File C:\Program Files (x86)\Microsoft Visual Studio\2019\Professional\VC\Tools\MSVC\14.29.30133\include\vector
;	COMDAT ?_Destroy@?$vector@V?$list@PAVCParticleInstance@@V?$allocator@PAVCParticleInstance@@@std@@@std@@V?$allocator@V?$list@PAVCParticleInstance@@V?$allocator@PAVCParticleInstance@@@std@@@std@@@2@@std@@AAEXPAV?$list@PAVCParticleInstance@@V?$allocator@PAVCParticleInstance@@@std@@@2@0@Z
_TEXT	SEGMENT
__First$ = 8						; size = 4
__Last$ = 12						; size = 4
?_Destroy@?$vector@V?$list@PAVCParticleInstance@@V?$allocator@PAVCParticleInstance@@@std@@@std@@V?$allocator@V?$list@PAVCParticleInstance@@V?$allocator@PAVCParticleInstance@@@std@@@std@@@2@@std@@AAEXPAV?$list@PAVCParticleInstance@@V?$allocator@PAVCParticleInstance@@@std@@@2@0@Z PROC ; std::vector<std::list<CParticleInstance *,std::allocator<CParticleInstance *> >,std::allocator<std::list<CParticleInstance *,std::allocator<CParticleInstance *> > > >::_Destroy, COMDAT
; _this$ = ecx

; 1678 :     _CONSTEXPR20_CONTAINER void _Destroy(pointer _First, pointer _Last) {

  00000	55		 push	 ebp
  00001	8b ec		 mov	 ebp, esp

; 1679 :         // destroy [_First, _Last) using allocator
; 1680 :         _Destroy_range(_First, _Last, _Getal());

  00003	51		 push	 ecx
  00004	ff 75 0c	 push	 DWORD PTR __Last$[ebp]
  00007	ff 75 08	 push	 DWORD PTR __First$[ebp]
  0000a	e8 00 00 00 00	 call	 ??$_Destroy_range@V?$allocator@V?$list@PAVCParticleInstance@@V?$allocator@PAVCParticleInstance@@@std@@@std@@@std@@@std@@YAXPAV?$list@PAVCParticleInstance@@V?$allocator@PAVCParticleInstance@@@std@@@0@QAV10@AAV?$allocator@V?$list@PAVCParticleInstance@@V?$allocator@PAVCParticleInstance@@@std@@@std@@@0@@Z ; std::_Destroy_range<std::allocator<std::list<CParticleInstance *,std::allocator<CParticleInstance *> > > >
  0000f	83 c4 0c	 add	 esp, 12			; 0000000cH

; 1681 :     }

  00012	5d		 pop	 ebp
  00013	c2 08 00	 ret	 8
?_Destroy@?$vector@V?$list@PAVCParticleInstance@@V?$allocator@PAVCParticleInstance@@@std@@@std@@V?$allocator@V?$list@PAVCParticleInstance@@V?$allocator@PAVCParticleInstance@@@std@@@std@@@2@@std@@AAEXPAV?$list@PAVCParticleInstance@@V?$allocator@PAVCParticleInstance@@@std@@@2@0@Z ENDP ; std::vector<std::list<CParticleInstance *,std::allocator<CParticleInstance *> >,std::allocator<std::list<CParticleInstance *,std::allocator<CParticleInstance *> > > >::_Destroy
_TEXT	ENDS
; Function compile flags: /Ogtp
; File C:\Program Files (x86)\Microsoft Visual Studio\2019\Professional\VC\Tools\MSVC\14.29.30133\include\vector
; File C:\Program Files (x86)\Microsoft Visual Studio\2019\Professional\VC\Tools\MSVC\14.29.30133\include\xmemory
; File C:\Program Files (x86)\Microsoft Visual Studio\2019\Professional\VC\Tools\MSVC\14.29.30133\include\vector
; File C:\Program Files (x86)\Microsoft Visual Studio\2019\Professional\VC\Tools\MSVC\14.29.30133\include\xmemory
; File C:\Program Files (x86)\Microsoft Visual Studio\2019\Professional\VC\Tools\MSVC\14.29.30133\include\list
; File C:\Program Files (x86)\Microsoft Visual Studio\2019\Professional\VC\Tools\MSVC\14.29.30133\include\xmemory
; File C:\Program Files (x86)\Microsoft Visual Studio\2019\Professional\VC\Tools\MSVC\14.29.30133\include\list
; File C:\Program Files (x86)\Microsoft Visual Studio\2019\Professional\VC\Tools\MSVC\14.29.30133\include\xmemory
; File C:\Program Files (x86)\Microsoft Visual Studio\2019\Professional\VC\Tools\MSVC\14.29.30133\include\vector
;	COMDAT ?_Ufill@?$vector@V?$list@PAVCParticleInstance@@V?$allocator@PAVCParticleInstance@@@std@@@std@@V?$allocator@V?$list@PAVCParticleInstance@@V?$allocator@PAVCParticleInstance@@@std@@@std@@@2@@std@@AAEPAV?$list@PAVCParticleInstance@@V?$allocator@PAVCParticleInstance@@@std@@@2@PAV32@IU_Value_init_tag@2@@Z
_TEXT	SEGMENT
__Backout$2 = -24					; size = 12
__$EHRec$ = -12						; size = 12
__Dest$ = 8						; size = 4
__Count$ = 12						; size = 4
___formal$ = 16						; size = 1
?_Ufill@?$vector@V?$list@PAVCParticleInstance@@V?$allocator@PAVCParticleInstance@@@std@@@std@@V?$allocator@V?$list@PAVCParticleInstance@@V?$allocator@PAVCParticleInstance@@@std@@@std@@@2@@std@@AAEPAV?$list@PAVCParticleInstance@@V?$allocator@PAVCParticleInstance@@@std@@@2@PAV32@IU_Value_init_tag@2@@Z PROC ; std::vector<std::list<CParticleInstance *,std::allocator<CParticleInstance *> >,std::allocator<std::list<CParticleInstance *,std::allocator<CParticleInstance *> > > >::_Ufill, COMDAT
; _this$ = ecx

; 1646 :     _CONSTEXPR20_CONTAINER pointer _Ufill(pointer _Dest, const size_type _Count, _Value_init_tag) {

  00000	55		 push	 ebp
  00001	8b ec		 mov	 ebp, esp
  00003	6a ff		 push	 -1
  00005	68 00 00 00 00	 push	 __ehhandler$?_Ufill@?$vector@V?$list@PAVCParticleInstance@@V?$allocator@PAVCParticleInstance@@@std@@@std@@V?$allocator@V?$list@PAVCParticleInstance@@V?$allocator@PAVCParticleInstance@@@std@@@std@@@2@@std@@AAEPAV?$list@PAVCParticleInstance@@V?$allocator@PAVCParticleInstance@@@std@@@2@PAV32@IU_Value_init_tag@2@@Z
  0000a	64 a1 00 00 00
	00		 mov	 eax, DWORD PTR fs:0
  00010	50		 push	 eax
  00011	83 ec 0c	 sub	 esp, 12			; 0000000cH
  00014	53		 push	 ebx
  00015	56		 push	 esi
  00016	57		 push	 edi
  00017	a1 00 00 00 00	 mov	 eax, DWORD PTR ___security_cookie
  0001c	33 c5		 xor	 eax, ebp
  0001e	50		 push	 eax
  0001f	8d 45 f4	 lea	 eax, DWORD PTR __$EHRec$[ebp]
  00022	64 a3 00 00 00
	00		 mov	 DWORD PTR fs:0, eax
  00028	8b d9		 mov	 ebx, ecx
; File C:\Program Files (x86)\Microsoft Visual Studio\2019\Professional\VC\Tools\MSVC\14.29.30133\include\xmemory

; 1620 :         : _First(_Dest), _Last(_Dest), _Al(_Al_) {}

  0002a	8b 75 08	 mov	 esi, DWORD PTR __Dest$[ebp]
; File C:\Program Files (x86)\Microsoft Visual Studio\2019\Professional\VC\Tools\MSVC\14.29.30133\include\vector

; 1648 :         return _Uninitialized_value_construct_n(_Dest, _Count, _Getal());

  0002d	8b 7d 0c	 mov	 edi, DWORD PTR __Count$[ebp]
; File C:\Program Files (x86)\Microsoft Visual Studio\2019\Professional\VC\Tools\MSVC\14.29.30133\include\xmemory

; 1620 :         : _First(_Dest), _Last(_Dest), _Al(_Al_) {}

  00030	89 75 e8	 mov	 DWORD PTR __Backout$2[ebp], esi
  00033	89 75 ec	 mov	 DWORD PTR __Backout$2[ebp+4], esi
  00036	89 5d f0	 mov	 DWORD PTR __Backout$2[ebp+8], ebx

; 1829 :     _Uninitialized_backout_al<_Alloc> _Backout{_First, _Al};

  00039	c7 45 fc 00 00
	00 00		 mov	 DWORD PTR __$EHRec$[ebp+8], 0

; 1830 :     for (; 0 < _Count; --_Count) {

  00040	85 ff		 test	 edi, edi
  00042	74 35		 je	 SHORT $LN5@Ufill
  00044	0f 1f 40 00 0f
	1f 84 00 00 00
	00 00		 npad	 12
$LL6@Ufill:

; 85   :         return ::operator new(_Bytes);

  00050	6a 0c		 push	 12			; 0000000cH
; File C:\Program Files (x86)\Microsoft Visual Studio\2019\Professional\VC\Tools\MSVC\14.29.30133\include\list

; 358  :     _List_val() noexcept : _Myhead(), _Mysize(0) {} // initialize data

  00052	c7 06 00 00 00
	00		 mov	 DWORD PTR [esi], 0
  00058	c7 46 04 00 00
	00 00		 mov	 DWORD PTR [esi+4], 0
; File C:\Program Files (x86)\Microsoft Visual Studio\2019\Professional\VC\Tools\MSVC\14.29.30133\include\xmemory

; 85   :         return ::operator new(_Bytes);

  0005f	e8 00 00 00 00	 call	 ??2@YAPAXI@Z		; operator new
  00064	83 c4 04	 add	 esp, 4
; File C:\Program Files (x86)\Microsoft Visual Studio\2019\Professional\VC\Tools\MSVC\14.29.30133\include\list

; 1776 :         _Construct_in_place(_Newhead->_Next, _Newhead);

  00067	89 00		 mov	 DWORD PTR [eax], eax

; 1777 :         _Construct_in_place(_Newhead->_Prev, _Newhead);

  00069	89 40 04	 mov	 DWORD PTR [eax+4], eax

; 1778 :         _Mypair._Myval2._Myhead = _Newhead;

  0006c	89 06		 mov	 DWORD PTR [esi], eax
; File C:\Program Files (x86)\Microsoft Visual Studio\2019\Professional\VC\Tools\MSVC\14.29.30133\include\xmemory

; 1632 :         ++_Last;

  0006e	83 c6 08	 add	 esi, 8
  00071	89 75 ec	 mov	 DWORD PTR __Backout$2[ebp+4], esi

; 1830 :     for (; 0 < _Count; --_Count) {

  00074	83 ef 01	 sub	 edi, 1
  00077	75 d7		 jne	 SHORT $LL6@Ufill
$LN5@Ufill:

; 1626 :         _Destroy_range(_First, _Last, _Al);

  00079	53		 push	 ebx
  0007a	56		 push	 esi
  0007b	56		 push	 esi
  0007c	e8 00 00 00 00	 call	 ??$_Destroy_range@V?$allocator@V?$list@PAVCParticleInstance@@V?$allocator@PAVCParticleInstance@@@std@@@std@@@std@@@std@@YAXPAV?$list@PAVCParticleInstance@@V?$allocator@PAVCParticleInstance@@@std@@@0@QAV10@AAV?$allocator@V?$list@PAVCParticleInstance@@V?$allocator@PAVCParticleInstance@@@std@@@std@@@0@@Z ; std::_Destroy_range<std::allocator<std::list<CParticleInstance *,std::allocator<CParticleInstance *> > > >
  00081	83 c4 0c	 add	 esp, 12			; 0000000cH
; File C:\Program Files (x86)\Microsoft Visual Studio\2019\Professional\VC\Tools\MSVC\14.29.30133\include\vector

; 1648 :         return _Uninitialized_value_construct_n(_Dest, _Count, _Getal());

  00084	8b c6		 mov	 eax, esi

; 1649 :     }

  00086	8b 4d f4	 mov	 ecx, DWORD PTR __$EHRec$[ebp]
  00089	64 89 0d 00 00
	00 00		 mov	 DWORD PTR fs:0, ecx
  00090	59		 pop	 ecx
  00091	5f		 pop	 edi
  00092	5e		 pop	 esi
  00093	5b		 pop	 ebx
  00094	8b e5		 mov	 esp, ebp
  00096	5d		 pop	 ebp
  00097	c2 0c 00	 ret	 12			; 0000000cH
_TEXT	ENDS
;	COMDAT text$x
text$x	SEGMENT
__unwindfunclet$?_Ufill@?$vector@V?$list@PAVCParticleInstance@@V?$allocator@PAVCParticleInstance@@@std@@@std@@V?$allocator@V?$list@PAVCParticleInstance@@V?$allocator@PAVCParticleInstance@@@std@@@std@@@2@@std@@AAEPAV?$list@PAVCParticleInstance@@V?$allocator@PAVCParticleInstance@@@std@@@2@PAV32@IU_Value_init_tag@2@@Z$0:
  00000	8d 4d e8	 lea	 ecx, DWORD PTR __Backout$2[ebp]
  00003	e9 00 00 00 00	 jmp	 ??1?$_Uninitialized_backout_al@V?$allocator@V?$list@PAVCParticleInstance@@V?$allocator@PAVCParticleInstance@@@std@@@std@@@std@@@std@@QAE@XZ ; std::_Uninitialized_backout_al<std::allocator<std::list<CParticleInstance *,std::allocator<CParticleInstance *> > > >::~_Uninitialized_backout_al<std::allocator<std::list<CParticleInstance *,std::allocator<CParticleInstance *> > > >
  00008	cc		 int	 3
  00009	cc		 int	 3
  0000a	cc		 int	 3
  0000b	cc		 int	 3
  0000c	cc		 int	 3
__ehhandler$?_Ufill@?$vector@V?$list@PAVCParticleInstance@@V?$allocator@PAVCParticleInstance@@@std@@@std@@V?$allocator@V?$list@PAVCParticleInstance@@V?$allocator@PAVCParticleInstance@@@std@@@std@@@2@@std@@AAEPAV?$list@PAVCParticleInstance@@V?$allocator@PAVCParticleInstance@@@std@@@2@PAV32@IU_Value_init_tag@2@@Z:
  0000d	90		 npad	 1
  0000e	90		 npad	 1
  0000f	8b 54 24 08	 mov	 edx, DWORD PTR [esp+8]
  00013	8d 42 0c	 lea	 eax, DWORD PTR [edx+12]
  00016	8b 4a e4	 mov	 ecx, DWORD PTR [edx-28]
  00019	33 c8		 xor	 ecx, eax
  0001b	e8 00 00 00 00	 call	 @__security_check_cookie@4
  00020	b8 00 00 00 00	 mov	 eax, OFFSET __ehfuncinfo$?_Ufill@?$vector@V?$list@PAVCParticleInstance@@V?$allocator@PAVCParticleInstance@@@std@@@std@@V?$allocator@V?$list@PAVCParticleInstance@@V?$allocator@PAVCParticleInstance@@@std@@@std@@@2@@std@@AAEPAV?$list@PAVCParticleInstance@@V?$allocator@PAVCParticleInstance@@@std@@@2@PAV32@IU_Value_init_tag@2@@Z
  00025	e9 00 00 00 00	 jmp	 ___CxxFrameHandler3
text$x	ENDS
?_Ufill@?$vector@V?$list@PAVCParticleInstance@@V?$allocator@PAVCParticleInstance@@@std@@@std@@V?$allocator@V?$list@PAVCParticleInstance@@V?$allocator@PAVCParticleInstance@@@std@@@std@@@2@@std@@AAEPAV?$list@PAVCParticleInstance@@V?$allocator@PAVCParticleInstance@@@std@@@2@PAV32@IU_Value_init_tag@2@@Z ENDP ; std::vector<std::list<CParticleInstance *,std::allocator<CParticleInstance *> >,std::allocator<std::list<CParticleInstance *,std::allocator<CParticleInstance *> > > >::_Ufill
; Function compile flags: /Ogtp
; File C:\Program Files (x86)\Microsoft Visual Studio\2019\Professional\VC\Tools\MSVC\14.29.30133\include\vector
; File C:\Program Files (x86)\Microsoft Visual Studio\2019\Professional\VC\Tools\MSVC\14.29.30133\include\xmemory
; File C:\Program Files (x86)\Microsoft Visual Studio\2019\Professional\VC\Tools\MSVC\14.29.30133\include\vector
; File C:\Program Files (x86)\Microsoft Visual Studio\2019\Professional\VC\Tools\MSVC\14.29.30133\include\xmemory
; File C:\Program Files (x86)\Microsoft Visual Studio\2019\Professional\VC\Tools\MSVC\14.29.30133\include\vector
; File C:\Program Files (x86)\Microsoft Visual Studio\2019\Professional\VC\Tools\MSVC\14.29.30133\include\xmemory
; File C:\Program Files (x86)\Microsoft Visual Studio\2019\Professional\VC\Tools\MSVC\14.29.30133\include\vector
;	COMDAT ??1?$vector@V?$list@PAVCParticleInstance@@V?$allocator@PAVCParticleInstance@@@std@@@std@@V?$allocator@V?$list@PAVCParticleInstance@@V?$allocator@PAVCParticleInstance@@@std@@@std@@@2@@std@@QAE@XZ
_TEXT	SEGMENT
??1?$vector@V?$list@PAVCParticleInstance@@V?$allocator@PAVCParticleInstance@@@std@@@std@@V?$allocator@V?$list@PAVCParticleInstance@@V?$allocator@PAVCParticleInstance@@@std@@@std@@@2@@std@@QAE@XZ PROC ; std::vector<std::list<CParticleInstance *,std::allocator<CParticleInstance *> >,std::allocator<std::list<CParticleInstance *,std::allocator<CParticleInstance *> > > >::~vector<std::list<CParticleInstance *,std::allocator<CParticleInstance *> >,std::allocator<std::list<CParticleInstance *,std::allocator<CParticleInstance *> > > >, COMDAT
; _this$ = ecx

; 711  :     _CONSTEXPR20_CONTAINER ~vector() noexcept {

  00000	56		 push	 esi
  00001	8b f1		 mov	 esi, ecx

; 1763 :         if (_Myfirst) { // destroy and deallocate old array

  00003	8b 06		 mov	 eax, DWORD PTR [esi]
  00005	85 c0		 test	 eax, eax
  00007	74 4f		 je	 SHORT $LN4@vector

; 1680 :         _Destroy_range(_First, _Last, _Getal());

  00009	56		 push	 esi
  0000a	ff 76 04	 push	 DWORD PTR [esi+4]
  0000d	50		 push	 eax
  0000e	e8 00 00 00 00	 call	 ??$_Destroy_range@V?$allocator@V?$list@PAVCParticleInstance@@V?$allocator@PAVCParticleInstance@@@std@@@std@@@std@@@std@@YAXPAV?$list@PAVCParticleInstance@@V?$allocator@PAVCParticleInstance@@@std@@@0@QAV10@AAV?$allocator@V?$list@PAVCParticleInstance@@V?$allocator@PAVCParticleInstance@@@std@@@std@@@0@@Z ; std::_Destroy_range<std::allocator<std::list<CParticleInstance *,std::allocator<CParticleInstance *> > > >

; 1765 :             _Getal().deallocate(_Myfirst, static_cast<size_type>(_Myend - _Myfirst));

  00013	8b 4e 08	 mov	 ecx, DWORD PTR [esi+8]

; 1680 :         _Destroy_range(_First, _Last, _Getal());

  00016	83 c4 0c	 add	 esp, 12			; 0000000cH

; 1765 :             _Getal().deallocate(_Myfirst, static_cast<size_type>(_Myend - _Myfirst));

  00019	8b 06		 mov	 eax, DWORD PTR [esi]
  0001b	2b c8		 sub	 ecx, eax
; File C:\Program Files (x86)\Microsoft Visual Studio\2019\Professional\VC\Tools\MSVC\14.29.30133\include\xmemory

; 835  :         _Deallocate<_New_alignof<_Ty>>(_Ptr, sizeof(_Ty) * _Count);

  0001d	83 e1 f8	 and	 ecx, -8			; fffffff8H

; 260  :         if (_Bytes >= _Big_allocation_threshold) { // boost the alignment of big allocations to help autovectorization

  00020	81 f9 00 10 00
	00		 cmp	 ecx, 4096		; 00001000H
  00026	72 12		 jb	 SHORT $LN22@vector

; 158  :     const uintptr_t _Ptr_container   = _Ptr_user[-1];

  00028	8b 50 fc	 mov	 edx, DWORD PTR [eax-4]
  0002b	83 c1 23	 add	 ecx, 35			; 00000023H

; 159  : 
; 160  :     // If the following asserts, it likely means that we are performing
; 161  :     // an aligned delete on memory coming from an unaligned allocation.
; 162  :     _STL_ASSERT(_Ptr_user[-2] == _Big_allocation_sentinel, "invalid argument");
; 163  : 
; 164  :     // Extra paranoia on aligned allocation/deallocation; ensure _Ptr_container is
; 165  :     // in range [_Min_back_shift, _Non_user_size]
; 166  : #ifdef _DEBUG
; 167  :     constexpr uintptr_t _Min_back_shift = 2 * sizeof(void*);
; 168  : #else // ^^^ _DEBUG ^^^ // vvv !_DEBUG vvv
; 169  :     constexpr uintptr_t _Min_back_shift = sizeof(void*);
; 170  : #endif // _DEBUG
; 171  :     const uintptr_t _Back_shift = reinterpret_cast<uintptr_t>(_Ptr) - _Ptr_container;

  0002e	2b c2		 sub	 eax, edx

; 172  :     _STL_VERIFY(_Back_shift >= _Min_back_shift && _Back_shift <= _Non_user_size, "invalid argument");

  00030	83 c0 fc	 add	 eax, -4			; fffffffcH
  00033	83 f8 1f	 cmp	 eax, 31			; 0000001fH
  00036	77 22		 ja	 SHORT $LN19@vector

; 173  :     _Ptr = reinterpret_cast<void*>(_Ptr_container);

  00038	8b c2		 mov	 eax, edx
$LN22@vector:

; 264  :         ::operator delete(_Ptr, _Bytes);

  0003a	51		 push	 ecx
  0003b	50		 push	 eax
  0003c	e8 00 00 00 00	 call	 ??3@YAXPAXI@Z		; operator delete
; File C:\Program Files (x86)\Microsoft Visual Studio\2019\Professional\VC\Tools\MSVC\14.29.30133\include\vector

; 1767 :             _Myfirst = nullptr;

  00041	c7 06 00 00 00
	00		 mov	 DWORD PTR [esi], 0
; File C:\Program Files (x86)\Microsoft Visual Studio\2019\Professional\VC\Tools\MSVC\14.29.30133\include\xmemory

; 264  :         ::operator delete(_Ptr, _Bytes);

  00047	83 c4 08	 add	 esp, 8
; File C:\Program Files (x86)\Microsoft Visual Studio\2019\Professional\VC\Tools\MSVC\14.29.30133\include\vector

; 1768 :             _Mylast  = nullptr;

  0004a	c7 46 04 00 00
	00 00		 mov	 DWORD PTR [esi+4], 0

; 1769 :             _Myend   = nullptr;

  00051	c7 46 08 00 00
	00 00		 mov	 DWORD PTR [esi+8], 0
$LN4@vector:
  00058	5e		 pop	 esi

; 717  :     }

  00059	c3		 ret	 0
$LN19@vector:
; File C:\Program Files (x86)\Microsoft Visual Studio\2019\Professional\VC\Tools\MSVC\14.29.30133\include\xmemory

; 172  :     _STL_VERIFY(_Back_shift >= _Min_back_shift && _Back_shift <= _Non_user_size, "invalid argument");

  0005a	e8 00 00 00 00	 call	 __invalid_parameter_noinfo_noreturn
$LN27@vector:
  0005f	cc		 int	 3
??1?$vector@V?$list@PAVCParticleInstance@@V?$allocator@PAVCParticleInstance@@@std@@@std@@V?$allocator@V?$list@PAVCParticleInstance@@V?$allocator@PAVCParticleInstance@@@std@@@std@@@2@@std@@QAE@XZ ENDP ; std::vector<std::list<CParticleInstance *,std::allocator<CParticleInstance *> >,std::allocator<std::list<CParticleInstance *,std::allocator<CParticleInstance *> > > >::~vector<std::list<CParticleInstance *,std::allocator<CParticleInstance *> >,std::allocator<std::list<CParticleInstance *,std::allocator<CParticleInstance *> > > >
_TEXT	ENDS
; Function compile flags: /Ogtp
; File C:\Program Files (x86)\Microsoft Visual Studio\2019\Professional\VC\Tools\MSVC\14.29.30133\include\xmemory
;	COMDAT ?deallocate@?$allocator@V?$list@PAVCParticleInstance@@V?$allocator@PAVCParticleInstance@@@std@@@std@@@std@@QAEXQAV?$list@PAVCParticleInstance@@V?$allocator@PAVCParticleInstance@@@std@@@2@I@Z
_TEXT	SEGMENT
__Ptr$ = 8						; size = 4
__Count$ = 12						; size = 4
?deallocate@?$allocator@V?$list@PAVCParticleInstance@@V?$allocator@PAVCParticleInstance@@@std@@@std@@@std@@QAEXQAV?$list@PAVCParticleInstance@@V?$allocator@PAVCParticleInstance@@@std@@@2@I@Z PROC ; std::allocator<std::list<CParticleInstance *,std::allocator<CParticleInstance *> > >::deallocate, COMDAT
; _this$ = ecx

; 833  :     _CONSTEXPR20_DYNALLOC void deallocate(_Ty* const _Ptr, const size_t _Count) {

  00000	55		 push	 ebp
  00001	8b ec		 mov	 ebp, esp

; 834  :         // no overflow check on the following multiply; we assume _Allocate did that check
; 835  :         _Deallocate<_New_alignof<_Ty>>(_Ptr, sizeof(_Ty) * _Count);

  00003	8b 45 0c	 mov	 eax, DWORD PTR __Count$[ebp]
  00006	8d 0c c5 00 00
	00 00		 lea	 ecx, DWORD PTR [eax*8]
  0000d	8b 45 08	 mov	 eax, DWORD PTR __Ptr$[ebp]

; 260  :         if (_Bytes >= _Big_allocation_threshold) { // boost the alignment of big allocations to help autovectorization

  00010	81 f9 00 10 00
	00		 cmp	 ecx, 4096		; 00001000H
  00016	72 12		 jb	 SHORT $LN15@deallocate

; 158  :     const uintptr_t _Ptr_container   = _Ptr_user[-1];

  00018	8b 50 fc	 mov	 edx, DWORD PTR [eax-4]
  0001b	83 c1 23	 add	 ecx, 35			; 00000023H

; 159  : 
; 160  :     // If the following asserts, it likely means that we are performing
; 161  :     // an aligned delete on memory coming from an unaligned allocation.
; 162  :     _STL_ASSERT(_Ptr_user[-2] == _Big_allocation_sentinel, "invalid argument");
; 163  : 
; 164  :     // Extra paranoia on aligned allocation/deallocation; ensure _Ptr_container is
; 165  :     // in range [_Min_back_shift, _Non_user_size]
; 166  : #ifdef _DEBUG
; 167  :     constexpr uintptr_t _Min_back_shift = 2 * sizeof(void*);
; 168  : #else // ^^^ _DEBUG ^^^ // vvv !_DEBUG vvv
; 169  :     constexpr uintptr_t _Min_back_shift = sizeof(void*);
; 170  : #endif // _DEBUG
; 171  :     const uintptr_t _Back_shift = reinterpret_cast<uintptr_t>(_Ptr) - _Ptr_container;

  0001e	2b c2		 sub	 eax, edx

; 172  :     _STL_VERIFY(_Back_shift >= _Min_back_shift && _Back_shift <= _Non_user_size, "invalid argument");

  00020	83 c0 fc	 add	 eax, -4			; fffffffcH
  00023	83 f8 1f	 cmp	 eax, 31			; 0000001fH
  00026	77 10		 ja	 SHORT $LN12@deallocate

; 173  :     _Ptr = reinterpret_cast<void*>(_Ptr_container);

  00028	8b c2		 mov	 eax, edx
$LN15@deallocate:

; 264  :         ::operator delete(_Ptr, _Bytes);

  0002a	51		 push	 ecx
  0002b	50		 push	 eax
  0002c	e8 00 00 00 00	 call	 ??3@YAXPAXI@Z		; operator delete
  00031	83 c4 08	 add	 esp, 8

; 836  :     }

  00034	5d		 pop	 ebp
  00035	c2 08 00	 ret	 8
$LN12@deallocate:

; 172  :     _STL_VERIFY(_Back_shift >= _Min_back_shift && _Back_shift <= _Non_user_size, "invalid argument");

  00038	e8 00 00 00 00	 call	 __invalid_parameter_noinfo_noreturn
$LN18@deallocate:
  0003d	cc		 int	 3
?deallocate@?$allocator@V?$list@PAVCParticleInstance@@V?$allocator@PAVCParticleInstance@@@std@@@std@@@std@@QAEXQAV?$list@PAVCParticleInstance@@V?$allocator@PAVCParticleInstance@@@std@@@2@I@Z ENDP ; std::allocator<std::list<CParticleInstance *,std::allocator<CParticleInstance *> > >::deallocate
_TEXT	ENDS
; Function compile flags: /Ogtp
; File C:\Users\murat\Desktop\Siveps2-1-99-Project\source\client\Client\EffectLib\ParticleSystemInstance.cpp
; File C:\Program Files (x86)\Microsoft Visual Studio\2019\Professional\VC\Tools\MSVC\14.29.30133\include\vector
; File C:\Users\murat\Desktop\Siveps2-1-99-Project\source\client\Client\EffectLib\ParticleSystemInstance.h
; File C:\Program Files (x86)\Microsoft Visual Studio\2019\Professional\VC\Tools\MSVC\14.29.30133\include\vector
; File C:\Users\murat\Desktop\Siveps2-1-99-Project\source\client\Client\EffectLib\ParticleSystemInstance.h
; File C:\Program Files (x86)\Microsoft Visual Studio\2019\Professional\VC\Tools\MSVC\14.29.30133\include\list
; File C:\Users\murat\Desktop\Siveps2-1-99-Project\source\client\Client\EffectLib\ParticleSystemInstance.h
; File C:\Users\murat\Desktop\Siveps2-1-99-Project\source\client\Client\SphereLib\vector.h
; File C:\Users\murat\Desktop\Siveps2-1-99-Project\source\client\Client\EffectLib\ParticleSystemInstance.h
; File C:\Users\murat\Desktop\Siveps2-1-99-Project\source\client\Client\SphereLib\vector.h
; File C:\Users\murat\Desktop\Siveps2-1-99-Project\source\client\Client\EffectLib\ParticleSystemInstance.h
; File C:\Users\murat\Desktop\Siveps2-1-99-Project\source\client\Client\EffectLib\ParticleSystemInstance.cpp
; File C:\Program Files (x86)\Microsoft Visual Studio\2019\Professional\VC\Tools\MSVC\14.29.30133\include\list
; File C:\Users\murat\Desktop\Siveps2-1-99-Project\source\client\Client\EffectLib\ParticleSystemInstance.h
; File C:\Program Files (x86)\Microsoft Visual Studio\2019\Professional\VC\Tools\MSVC\14.29.30133\include\vector
; File C:\Users\murat\Desktop\Siveps2-1-99-Project\source\client\Client\EffectLib\ParticleSystemInstance.h
; File C:\Program Files (x86)\Microsoft Visual Studio\2019\Professional\VC\Tools\MSVC\14.29.30133\include\vector
; File C:\Users\murat\Desktop\Siveps2-1-99-Project\source\client\Client\EffectLib\ParticleSystemInstance.h
; File C:\Users\murat\Desktop\Siveps2-1-99-Project\source\client\Client\EffectLib\ParticleSystemInstance.cpp
; File C:\Program Files (x86)\Microsoft Visual Studio\2019\Professional\VC\Tools\MSVC\14.29.30133\include\vector
; File C:\Users\murat\Desktop\Siveps2-1-99-Project\source\client\Client\EffectLib\ParticleSystemInstance.h
; File C:\Program Files (x86)\Microsoft Visual Studio\2019\Professional\VC\Tools\MSVC\14.29.30133\include\vector
; File C:\Users\murat\Desktop\Siveps2-1-99-Project\source\client\Client\EffectLib\ParticleSystemInstance.h
; File C:\Program Files (x86)\Microsoft Visual Studio\2019\Professional\VC\Tools\MSVC\14.29.30133\include\list
; File C:\Users\murat\Desktop\Siveps2-1-99-Project\source\client\Client\EffectLib\ParticleSystemInstance.h
; File C:\Users\murat\Desktop\Siveps2-1-99-Project\source\client\Client\SphereLib\vector.h
; File C:\Users\murat\Desktop\Siveps2-1-99-Project\source\client\Client\EffectLib\ParticleSystemInstance.h
; File C:\Users\murat\Desktop\Siveps2-1-99-Project\source\client\Client\SphereLib\vector.h
; File C:\Users\murat\Desktop\Siveps2-1-99-Project\source\client\Client\EffectLib\ParticleSystemInstance.h
; File C:\Users\murat\Desktop\Siveps2-1-99-Project\source\client\Client\EffectLib\ParticleSystemInstance.cpp
; File C:\Program Files (x86)\Microsoft Visual Studio\2019\Professional\VC\Tools\MSVC\14.29.30133\include\list
; File C:\Users\murat\Desktop\Siveps2-1-99-Project\source\client\Client\EffectLib\ParticleSystemInstance.h
; File C:\Program Files (x86)\Microsoft Visual Studio\2019\Professional\VC\Tools\MSVC\14.29.30133\include\vector
; File C:\Users\murat\Desktop\Siveps2-1-99-Project\source\client\Client\EffectLib\ParticleSystemInstance.h
; File C:\Program Files (x86)\Microsoft Visual Studio\2019\Professional\VC\Tools\MSVC\14.29.30133\include\vector
; File C:\Users\murat\Desktop\Siveps2-1-99-Project\source\client\Client\EffectLib\ParticleSystemInstance.h
; File C:\Users\murat\Desktop\Siveps2-1-99-Project\source\client\Client\EffectLib\ParticleSystemInstance.cpp
;	COMDAT ?OnRender@CParticleSystemInstance@@MAEXXZ
_TEXT	SEGMENT
_dwFrameIndex$1$ = -36					; size = 4
_dwFrameIndex$1$ = -36					; size = 4
_this$GSCopy$1$ = -32					; size = 4
$T1 = -32						; size = 4
$T2 = -32						; size = 4
$T3 = -32						; size = 4
$T4 = -32						; size = 4
$T5 = -28						; size = 12
$T6 = -28						; size = 12
$T7 = -16						; size = 12
$T8 = -16						; size = 12
__$ArrayPad$ = -4					; size = 4
?OnRender@CParticleSystemInstance@@MAEXXZ PROC		; CParticleSystemInstance::OnRender, COMDAT
; _this$ = ecx

; 416  : {

  00000	55		 push	 ebp
  00001	8b ec		 mov	 ebp, esp
  00003	83 ec 24	 sub	 esp, 36			; 00000024H
  00006	a1 00 00 00 00	 mov	 eax, DWORD PTR ___security_cookie
  0000b	33 c5		 xor	 eax, ebp
  0000d	89 45 fc	 mov	 DWORD PTR __$ArrayPad$[ebp], eax
  00010	53		 push	 ebx
  00011	8b d9		 mov	 ebx, ecx
  00013	89 5d e0	 mov	 DWORD PTR _this$GSCopy$1$[ebp], ebx

; 417  : 	CScreen::Identity();

  00016	e8 00 00 00 00	 call	 ?Identity@CScreen@@SAXXZ ; CScreen::Identity

; 418  : 	STATEMANAGER.SetRenderState(D3DRS_SRCBLEND, m_pParticleProperty->m_bySrcBlendType);

  0001b	8b 43 4c	 mov	 eax, DWORD PTR [ebx+76]
  0001e	8b 0d 00 00 00
	00		 mov	 ecx, DWORD PTR ?ms_singleton@?$CSingleton@VCStateManager@@@@0PAVCStateManager@@A ; CSingleton<CStateManager>::ms_singleton
  00024	0f b6 40 10	 movzx	 eax, BYTE PTR [eax+16]
  00028	50		 push	 eax
  00029	6a 13		 push	 19			; 00000013H
  0002b	e8 00 00 00 00	 call	 ?SetRenderState@CStateManager@@QAEXW4_D3DRENDERSTATETYPE@@K@Z ; CStateManager::SetRenderState

; 419  : 	STATEMANAGER.SetRenderState(D3DRS_DESTBLEND, m_pParticleProperty->m_byDestBlendType);

  00030	8b 43 4c	 mov	 eax, DWORD PTR [ebx+76]
  00033	8b 0d 00 00 00
	00		 mov	 ecx, DWORD PTR ?ms_singleton@?$CSingleton@VCStateManager@@@@0PAVCStateManager@@A ; CSingleton<CStateManager>::ms_singleton
  00039	0f b6 40 11	 movzx	 eax, BYTE PTR [eax+17]
  0003d	50		 push	 eax
  0003e	6a 14		 push	 20			; 00000014H
  00040	e8 00 00 00 00	 call	 ?SetRenderState@CStateManager@@QAEXW4_D3DRENDERSTATETYPE@@K@Z ; CStateManager::SetRenderState

; 420  : 	STATEMANAGER.SetTextureStageState(0,D3DTSS_COLOROP,m_pParticleProperty->m_byColorOperationType);

  00045	8b 43 4c	 mov	 eax, DWORD PTR [ebx+76]
  00048	8b 0d 00 00 00
	00		 mov	 ecx, DWORD PTR ?ms_singleton@?$CSingleton@VCStateManager@@@@0PAVCStateManager@@A ; CSingleton<CStateManager>::ms_singleton
  0004e	0f b6 40 12	 movzx	 eax, BYTE PTR [eax+18]
  00052	50		 push	 eax
  00053	6a 01		 push	 1
  00055	6a 00		 push	 0
  00057	e8 00 00 00 00	 call	 ?SetTextureStageState@CStateManager@@QAEXKW4_D3DTEXTURESTAGESTATETYPE@@K@Z ; CStateManager::SetTextureStageState

; 421  : 	if (m_pParticleProperty->m_byBillboardType < BILLBOARD_TYPE_2FACE)

  0005c	8b 43 4c	 mov	 eax, DWORD PTR [ebx+76]
  0005f	8a 48 13	 mov	 cl, BYTE PTR [eax+19]
  00062	80 f9 04	 cmp	 cl, 4
  00065	0f 83 62 02 00
	00		 jae	 $LN2@OnRender

; 422  : 	{
; 423  : 		if (!m_pParticleProperty->m_bAttachFlag)

  0006b	83 78 20 00	 cmp	 DWORD PTR [eax+32], 0
  0006f	8b 4b 3c	 mov	 ecx, DWORD PTR [ebx+60]
  00072	8b 43 40	 mov	 eax, DWORD PTR [ebx+64]
  00075	56		 push	 esi
  00076	57		 push	 edi
  00077	0f 85 26 01 00
	00		 jne	 $LN4@OnRender
; File C:\Program Files (x86)\Microsoft Visual Studio\2019\Professional\VC\Tools\MSVC\14.29.30133\include\vector

; 1549 :         return static_cast<size_type>(_My_data._Mylast - _My_data._Myfirst);

  0007d	2b c1		 sub	 eax, ecx
; File C:\Users\murat\Desktop\Siveps2-1-99-Project\source\client\Client\EffectLib\ParticleSystemInstance.h

; 27   : 			for(dwFrameIndex=0; dwFrameIndex<m_kVct_pkImgInst.size(); dwFrameIndex++)

  0007f	33 ff		 xor	 edi, edi
; File C:\Program Files (x86)\Microsoft Visual Studio\2019\Professional\VC\Tools\MSVC\14.29.30133\include\vector

; 1549 :         return static_cast<size_type>(_My_data._Mylast - _My_data._Myfirst);

  00081	c1 f8 02	 sar	 eax, 2
; File C:\Users\murat\Desktop\Siveps2-1-99-Project\source\client\Client\EffectLib\ParticleSystemInstance.h

; 27   : 			for(dwFrameIndex=0; dwFrameIndex<m_kVct_pkImgInst.size(); dwFrameIndex++)

  00084	89 7d dc	 mov	 DWORD PTR _dwFrameIndex$1$[ebp], edi
  00087	85 c0		 test	 eax, eax
  00089	0f 84 03 01 00
	00		 je	 $LN164@OnRender
  0008f	90		 npad	 1
$LL17@OnRender:

; 28   : 			{
; 29   : 				STATEMANAGER.SetTexture(0, m_kVct_pkImgInst[dwFrameIndex]->GetTextureReference().GetD3DTexture());

  00090	8b 0c b9	 mov	 ecx, DWORD PTR [ecx+edi*4]
  00093	e8 00 00 00 00	 call	 ?GetTextureReference@CGraphicImageInstance@@QBEABVCGraphicTexture@@XZ ; CGraphicImageInstance::GetTextureReference
  00098	8b c8		 mov	 ecx, eax
  0009a	e8 00 00 00 00	 call	 ?GetD3DTexture@CGraphicTexture@@QBEPAUIDirect3DTexture8@@XZ ; CGraphicTexture::GetD3DTexture
  0009f	8b 0d 00 00 00
	00		 mov	 ecx, DWORD PTR ?ms_singleton@?$CSingleton@VCStateManager@@@@0PAVCStateManager@@A ; CSingleton<CStateManager>::ms_singleton
  000a5	50		 push	 eax
  000a6	6a 00		 push	 0
  000a8	e8 00 00 00 00	 call	 ?SetTexture@CStateManager@@QAEXKPAUIDirect3DBaseTexture8@@@Z ; CStateManager::SetTexture
; File C:\Program Files (x86)\Microsoft Visual Studio\2019\Professional\VC\Tools\MSVC\14.29.30133\include\list

; 1092 :         return iterator(_Mypair._Myval2._Myhead->_Next, _STD addressof(_Mypair._Myval2));

  000ad	8b 43 30	 mov	 eax, DWORD PTR [ebx+48]
  000b0	8b 04 f8	 mov	 eax, DWORD PTR [eax+edi*8]

; 39   :     _List_unchecked_const_iterator(_Nodeptr _Pnode, const _Mylist* _Plist) noexcept : _Ptr(_Pnode) {

  000b3	8b 30		 mov	 esi, DWORD PTR [eax]

; 201  :         return this->_Ptr == _Right._Ptr;

  000b5	3b f0		 cmp	 esi, eax
; File C:\Users\murat\Desktop\Siveps2-1-99-Project\source\client\Client\EffectLib\ParticleSystemInstance.h

; 31   : 				for (; itor != m_ParticleInstanceListVector[dwFrameIndex].end(); ++itor)

  000b7	0f 84 be 00 00
	00		 je	 $LN15@OnRender
  000bd	0f 1f 00	 npad	 3
$LL40@OnRender:

; 49   : 			if (m_pParticleProperty->m_bAttachFlag)

  000c0	8b 43 4c	 mov	 eax, DWORD PTR [ebx+76]

; 33   : 					if (!InFrustum(*itor))

  000c3	8b 4e 08	 mov	 ecx, DWORD PTR [esi+8]

; 49   : 			if (m_pParticleProperty->m_bAttachFlag)

  000c6	83 78 20 00	 cmp	 DWORD PTR [eax+32], 0
  000ca	74 3a		 je	 SHORT $LN60@OnRender

; 50   : 				return CScreen::GetFrustum().ViewVolumeTest(Vector3d(

  000cc	8b 43 04	 mov	 eax, DWORD PTR [ebx+4]
  000cf	f3 0f 10 50 34	 movss	 xmm2, DWORD PTR [eax+52]
  000d4	f3 0f 10 48 38	 movss	 xmm1, DWORD PTR [eax+56]
  000d9	f3 0f 10 40 30	 movss	 xmm0, DWORD PTR [eax+48]
  000de	f3 0f 58 51 10	 addss	 xmm2, DWORD PTR [ecx+16]
  000e3	f3 0f 58 49 14	 addss	 xmm1, DWORD PTR [ecx+20]
  000e8	f3 0f 58 41 0c	 addss	 xmm0, DWORD PTR [ecx+12]
; File C:\Users\murat\Desktop\Siveps2-1-99-Project\source\client\Client\SphereLib\vector.h

; 38   : 		y = b;

  000ed	f3 0f 11 55 f4	 movss	 DWORD PTR $T8[ebp+4], xmm2

; 39   : 		z = c;

  000f2	f3 0f 11 4d f8	 movss	 DWORD PTR $T8[ebp+8], xmm1
  000f7	f3 0f 11 45 f0	 movss	 DWORD PTR $T8[ebp], xmm0
; File C:\Users\murat\Desktop\Siveps2-1-99-Project\source\client\Client\EffectLib\ParticleSystemInstance.h

; 50   : 				return CScreen::GetFrustum().ViewVolumeTest(Vector3d(

  000fc	e8 00 00 00 00	 call	 ?GetRadiusApproximation@CParticleInstance@@QAEMXZ ; CParticleInstance::GetRadiusApproximation
  00101	8d 45 f0	 lea	 eax, DWORD PTR $T8[ebp]
  00104	eb 26		 jmp	 SHORT $LN166@OnRender
$LN60@OnRender:
; File C:\Users\murat\Desktop\Siveps2-1-99-Project\source\client\Client\SphereLib\vector.h

; 37   : 		x = a;

  00106	f3 0f 10 41 0c	 movss	 xmm0, DWORD PTR [ecx+12]
  0010b	f3 0f 11 45 e4	 movss	 DWORD PTR $T6[ebp], xmm0

; 38   : 		y = b;

  00110	f3 0f 10 41 10	 movss	 xmm0, DWORD PTR [ecx+16]
  00115	f3 0f 11 45 e8	 movss	 DWORD PTR $T6[ebp+4], xmm0

; 39   : 		z = c;

  0011a	f3 0f 10 41 14	 movss	 xmm0, DWORD PTR [ecx+20]
  0011f	f3 0f 11 45 ec	 movss	 DWORD PTR $T6[ebp+8], xmm0
; File C:\Users\murat\Desktop\Siveps2-1-99-Project\source\client\Client\EffectLib\ParticleSystemInstance.h

; 56   : 				return CScreen::GetFrustum().ViewVolumeTest(Vector3d(pInstance->m_v3Position.x,pInstance->m_v3Position.y,pInstance->m_v3Position.z),pInstance->GetRadiusApproximation())!=VS_OUTSIDE;

  00124	e8 00 00 00 00	 call	 ?GetRadiusApproximation@CParticleInstance@@QAEMXZ ; CParticleInstance::GetRadiusApproximation
  00129	8d 45 e4	 lea	 eax, DWORD PTR $T6[ebp]
$LN166@OnRender:

; 33   : 					if (!InFrustum(*itor))

  0012c	51		 push	 ecx
  0012d	d9 1c 24	 fstp	 DWORD PTR [esp]
  00130	50		 push	 eax
  00131	b9 00 00 00 00	 mov	 ecx, OFFSET ?ms_frustum@CScreen@@1VFrustum@@A ; CScreen::ms_frustum
  00136	e8 00 00 00 00	 call	 ?ViewVolumeTest@Frustum@@QBE?AW4ViewState@@ABVVector3d@@M@Z ; Frustum::ViewVolumeTest
  0013b	83 f8 02	 cmp	 eax, 2
  0013e	0f 95 c0	 setne	 al
  00141	84 c0		 test	 al, al
  00143	74 4d		 je	 SHORT $LN164@OnRender

; 34   : 						return;
; 35   : 					FunObj(*itor);

  00145	8b 7e 08	 mov	 edi, DWORD PTR [esi+8]
; File C:\Users\murat\Desktop\Siveps2-1-99-Project\source\client\Client\EffectLib\ParticleSystemInstance.cpp

; 395  : 			pInstance->Transform();

  00148	8b cf		 mov	 ecx, edi
  0014a	6a 00		 push	 0
  0014c	e8 00 00 00 00	 call	 ?Transform@CParticleInstance@@QAEXPBUD3DXMATRIX@@@Z ; CParticleInstance::Transform

; 396  : 			STATEMANAGER.DrawPrimitiveUP(D3DPT_TRIANGLESTRIP, 2, pInstance->GetParticleMeshPointer(), sizeof(TPTVertex));

  00151	6a 14		 push	 20			; 00000014H
  00153	8b cf		 mov	 ecx, edi
  00155	e8 00 00 00 00	 call	 ?GetParticleMeshPointer@CParticleInstance@@QAEPAUSPTVertex@@XZ ; CParticleInstance::GetParticleMeshPointer
  0015a	8b 0d 00 00 00
	00		 mov	 ecx, DWORD PTR ?ms_singleton@?$CSingleton@VCStateManager@@@@0PAVCStateManager@@A ; CSingleton<CStateManager>::ms_singleton
  00160	50		 push	 eax
  00161	6a 02		 push	 2
  00163	6a 05		 push	 5
  00165	e8 00 00 00 00	 call	 ?DrawPrimitiveUP@CStateManager@@QAEJW4_D3DPRIMITIVETYPE@@IPBXI@Z ; CStateManager::DrawPrimitiveUP
; File C:\Program Files (x86)\Microsoft Visual Studio\2019\Professional\VC\Tools\MSVC\14.29.30133\include\list

; 39   :     _List_unchecked_const_iterator(_Nodeptr _Pnode, const _Mylist* _Plist) noexcept : _Ptr(_Pnode) {

  0016a	8b 43 30	 mov	 eax, DWORD PTR [ebx+48]

; 201  :         return this->_Ptr == _Right._Ptr;

  0016d	8b 7d dc	 mov	 edi, DWORD PTR _dwFrameIndex$1$[ebp]

; 168  :         this->_Ptr = this->_Ptr->_Next;

  00170	8b 36		 mov	 esi, DWORD PTR [esi]

; 201  :         return this->_Ptr == _Right._Ptr;

  00172	3b 34 f8	 cmp	 esi, DWORD PTR [eax+edi*8]
; File C:\Users\murat\Desktop\Siveps2-1-99-Project\source\client\Client\EffectLib\ParticleSystemInstance.h

; 31   : 				for (; itor != m_ParticleInstanceListVector[dwFrameIndex].end(); ++itor)

  00175	0f 85 45 ff ff
	ff		 jne	 $LL40@OnRender
$LN15@OnRender:
; File C:\Program Files (x86)\Microsoft Visual Studio\2019\Professional\VC\Tools\MSVC\14.29.30133\include\vector

; 1549 :         return static_cast<size_type>(_My_data._Mylast - _My_data._Myfirst);

  0017b	8b 43 40	 mov	 eax, DWORD PTR [ebx+64]
; File C:\Users\murat\Desktop\Siveps2-1-99-Project\source\client\Client\EffectLib\ParticleSystemInstance.h

; 27   : 			for(dwFrameIndex=0; dwFrameIndex<m_kVct_pkImgInst.size(); dwFrameIndex++)

  0017e	47		 inc	 edi
; File C:\Program Files (x86)\Microsoft Visual Studio\2019\Professional\VC\Tools\MSVC\14.29.30133\include\vector

; 1549 :         return static_cast<size_type>(_My_data._Mylast - _My_data._Myfirst);

  0017f	8b 4b 3c	 mov	 ecx, DWORD PTR [ebx+60]
  00182	2b c1		 sub	 eax, ecx
  00184	c1 f8 02	 sar	 eax, 2
; File C:\Users\murat\Desktop\Siveps2-1-99-Project\source\client\Client\EffectLib\ParticleSystemInstance.h

; 27   : 			for(dwFrameIndex=0; dwFrameIndex<m_kVct_pkImgInst.size(); dwFrameIndex++)

  00187	89 7d dc	 mov	 DWORD PTR _dwFrameIndex$1$[ebp], edi
  0018a	3b f8		 cmp	 edi, eax
  0018c	0f 82 fe fe ff
	ff		 jb	 $LL17@OnRender
$LN164@OnRender:
  00192	5f		 pop	 edi
  00193	5e		 pop	 esi
$LN12@OnRender:
  00194	5b		 pop	 ebx
; File C:\Users\murat\Desktop\Siveps2-1-99-Project\source\client\Client\EffectLib\ParticleSystemInstance.cpp

; 454  : }

  00195	8b 4d fc	 mov	 ecx, DWORD PTR __$ArrayPad$[ebp]
  00198	33 cd		 xor	 ecx, ebp
  0019a	e8 00 00 00 00	 call	 @__security_check_cookie@4
  0019f	8b e5		 mov	 esp, ebp
  001a1	5d		 pop	 ebp
  001a2	c3		 ret	 0
$LN4@OnRender:

; 403  : 			: pmat(pmat)

  001a3	8b 7b 04	 mov	 edi, DWORD PTR [ebx+4]
; File C:\Program Files (x86)\Microsoft Visual Studio\2019\Professional\VC\Tools\MSVC\14.29.30133\include\vector

; 1549 :         return static_cast<size_type>(_My_data._Mylast - _My_data._Myfirst);

  001a6	2b c1		 sub	 eax, ecx
; File C:\Users\murat\Desktop\Siveps2-1-99-Project\source\client\Client\EffectLib\ParticleSystemInstance.h

; 27   : 			for(dwFrameIndex=0; dwFrameIndex<m_kVct_pkImgInst.size(); dwFrameIndex++)

  001a8	33 d2		 xor	 edx, edx
; File C:\Program Files (x86)\Microsoft Visual Studio\2019\Professional\VC\Tools\MSVC\14.29.30133\include\vector

; 1549 :         return static_cast<size_type>(_My_data._Mylast - _My_data._Myfirst);

  001aa	c1 f8 02	 sar	 eax, 2
; File C:\Users\murat\Desktop\Siveps2-1-99-Project\source\client\Client\EffectLib\ParticleSystemInstance.h

; 27   : 			for(dwFrameIndex=0; dwFrameIndex<m_kVct_pkImgInst.size(); dwFrameIndex++)

  001ad	89 55 dc	 mov	 DWORD PTR _dwFrameIndex$1$[ebp], edx
  001b0	85 c0		 test	 eax, eax
  001b2	74 de		 je	 SHORT $LN164@OnRender
$LL78@OnRender:

; 28   : 			{
; 29   : 				STATEMANAGER.SetTexture(0, m_kVct_pkImgInst[dwFrameIndex]->GetTextureReference().GetD3DTexture());

  001b4	8b 0c 91	 mov	 ecx, DWORD PTR [ecx+edx*4]
  001b7	e8 00 00 00 00	 call	 ?GetTextureReference@CGraphicImageInstance@@QBEABVCGraphicTexture@@XZ ; CGraphicImageInstance::GetTextureReference
  001bc	8b c8		 mov	 ecx, eax
  001be	e8 00 00 00 00	 call	 ?GetD3DTexture@CGraphicTexture@@QBEPAUIDirect3DTexture8@@XZ ; CGraphicTexture::GetD3DTexture
  001c3	8b 0d 00 00 00
	00		 mov	 ecx, DWORD PTR ?ms_singleton@?$CSingleton@VCStateManager@@@@0PAVCStateManager@@A ; CSingleton<CStateManager>::ms_singleton
  001c9	50		 push	 eax
  001ca	6a 00		 push	 0
  001cc	e8 00 00 00 00	 call	 ?SetTexture@CStateManager@@QAEXKPAUIDirect3DBaseTexture8@@@Z ; CStateManager::SetTexture
; File C:\Program Files (x86)\Microsoft Visual Studio\2019\Professional\VC\Tools\MSVC\14.29.30133\include\list

; 1092 :         return iterator(_Mypair._Myval2._Myhead->_Next, _STD addressof(_Mypair._Myval2));

  001d1	8b 43 30	 mov	 eax, DWORD PTR [ebx+48]
  001d4	8b 55 dc	 mov	 edx, DWORD PTR _dwFrameIndex$1$[ebp]
  001d7	8b 04 d0	 mov	 eax, DWORD PTR [eax+edx*8]

; 39   :     _List_unchecked_const_iterator(_Nodeptr _Pnode, const _Mylist* _Plist) noexcept : _Ptr(_Pnode) {

  001da	8b 30		 mov	 esi, DWORD PTR [eax]

; 201  :         return this->_Ptr == _Right._Ptr;

  001dc	3b f0		 cmp	 esi, eax
; File C:\Users\murat\Desktop\Siveps2-1-99-Project\source\client\Client\EffectLib\ParticleSystemInstance.h

; 31   : 				for (; itor != m_ParticleInstanceListVector[dwFrameIndex].end(); ++itor)

  001de	0f 84 c1 00 00
	00		 je	 $LN76@OnRender
$LL101@OnRender:

; 49   : 			if (m_pParticleProperty->m_bAttachFlag)

  001e4	8b 43 4c	 mov	 eax, DWORD PTR [ebx+76]

; 33   : 					if (!InFrustum(*itor))

  001e7	8b 4e 08	 mov	 ecx, DWORD PTR [esi+8]

; 49   : 			if (m_pParticleProperty->m_bAttachFlag)

  001ea	83 78 20 00	 cmp	 DWORD PTR [eax+32], 0
  001ee	74 3a		 je	 SHORT $LN121@OnRender

; 50   : 				return CScreen::GetFrustum().ViewVolumeTest(Vector3d(

  001f0	8b 43 04	 mov	 eax, DWORD PTR [ebx+4]
  001f3	f3 0f 10 50 34	 movss	 xmm2, DWORD PTR [eax+52]
  001f8	f3 0f 10 48 38	 movss	 xmm1, DWORD PTR [eax+56]
  001fd	f3 0f 10 40 30	 movss	 xmm0, DWORD PTR [eax+48]
  00202	f3 0f 58 51 10	 addss	 xmm2, DWORD PTR [ecx+16]
  00207	f3 0f 58 49 14	 addss	 xmm1, DWORD PTR [ecx+20]
  0020c	f3 0f 58 41 0c	 addss	 xmm0, DWORD PTR [ecx+12]
; File C:\Users\murat\Desktop\Siveps2-1-99-Project\source\client\Client\SphereLib\vector.h

; 38   : 		y = b;

  00211	f3 0f 11 55 e8	 movss	 DWORD PTR $T5[ebp+4], xmm2

; 39   : 		z = c;

  00216	f3 0f 11 4d ec	 movss	 DWORD PTR $T5[ebp+8], xmm1
  0021b	f3 0f 11 45 e4	 movss	 DWORD PTR $T5[ebp], xmm0
; File C:\Users\murat\Desktop\Siveps2-1-99-Project\source\client\Client\EffectLib\ParticleSystemInstance.h

; 50   : 				return CScreen::GetFrustum().ViewVolumeTest(Vector3d(

  00220	e8 00 00 00 00	 call	 ?GetRadiusApproximation@CParticleInstance@@QAEMXZ ; CParticleInstance::GetRadiusApproximation
  00225	8d 45 e4	 lea	 eax, DWORD PTR $T5[ebp]
  00228	eb 26		 jmp	 SHORT $LN167@OnRender
$LN121@OnRender:
; File C:\Users\murat\Desktop\Siveps2-1-99-Project\source\client\Client\SphereLib\vector.h

; 37   : 		x = a;

  0022a	f3 0f 10 41 0c	 movss	 xmm0, DWORD PTR [ecx+12]
  0022f	f3 0f 11 45 f0	 movss	 DWORD PTR $T7[ebp], xmm0

; 38   : 		y = b;

  00234	f3 0f 10 41 10	 movss	 xmm0, DWORD PTR [ecx+16]
  00239	f3 0f 11 45 f4	 movss	 DWORD PTR $T7[ebp+4], xmm0

; 39   : 		z = c;

  0023e	f3 0f 10 41 14	 movss	 xmm0, DWORD PTR [ecx+20]
  00243	f3 0f 11 45 f8	 movss	 DWORD PTR $T7[ebp+8], xmm0
; File C:\Users\murat\Desktop\Siveps2-1-99-Project\source\client\Client\EffectLib\ParticleSystemInstance.h

; 56   : 				return CScreen::GetFrustum().ViewVolumeTest(Vector3d(pInstance->m_v3Position.x,pInstance->m_v3Position.y,pInstance->m_v3Position.z),pInstance->GetRadiusApproximation())!=VS_OUTSIDE;

  00248	e8 00 00 00 00	 call	 ?GetRadiusApproximation@CParticleInstance@@QAEMXZ ; CParticleInstance::GetRadiusApproximation
  0024d	8d 45 f0	 lea	 eax, DWORD PTR $T7[ebp]
$LN167@OnRender:

; 33   : 					if (!InFrustum(*itor))

  00250	51		 push	 ecx
  00251	d9 1c 24	 fstp	 DWORD PTR [esp]
  00254	50		 push	 eax
  00255	b9 00 00 00 00	 mov	 ecx, OFFSET ?ms_frustum@CScreen@@1VFrustum@@A ; CScreen::ms_frustum
  0025a	e8 00 00 00 00	 call	 ?ViewVolumeTest@Frustum@@QBE?AW4ViewState@@ABVVector3d@@M@Z ; Frustum::ViewVolumeTest
  0025f	83 f8 02	 cmp	 eax, 2
  00262	0f 95 c0	 setne	 al
  00265	84 c0		 test	 al, al
  00267	0f 84 25 ff ff
	ff		 je	 $LN164@OnRender

; 34   : 						return;
; 35   : 					FunObj(*itor);

  0026d	8b 5e 08	 mov	 ebx, DWORD PTR [esi+8]
; File C:\Users\murat\Desktop\Siveps2-1-99-Project\source\client\Client\EffectLib\ParticleSystemInstance.cpp

; 409  : 			pInstance->Transform(pmat);

  00270	8b cb		 mov	 ecx, ebx
  00272	57		 push	 edi
  00273	e8 00 00 00 00	 call	 ?Transform@CParticleInstance@@QAEXPBUD3DXMATRIX@@@Z ; CParticleInstance::Transform

; 410  : 			STATEMANAGER.DrawPrimitiveUP(D3DPT_TRIANGLESTRIP, 2, pInstance->GetParticleMeshPointer(), sizeof(TPTVertex));

  00278	6a 14		 push	 20			; 00000014H
  0027a	8b cb		 mov	 ecx, ebx
  0027c	e8 00 00 00 00	 call	 ?GetParticleMeshPointer@CParticleInstance@@QAEPAUSPTVertex@@XZ ; CParticleInstance::GetParticleMeshPointer
  00281	8b 0d 00 00 00
	00		 mov	 ecx, DWORD PTR ?ms_singleton@?$CSingleton@VCStateManager@@@@0PAVCStateManager@@A ; CSingleton<CStateManager>::ms_singleton
  00287	50		 push	 eax
  00288	6a 02		 push	 2
  0028a	6a 05		 push	 5
  0028c	e8 00 00 00 00	 call	 ?DrawPrimitiveUP@CStateManager@@QAEJW4_D3DPRIMITIVETYPE@@IPBXI@Z ; CStateManager::DrawPrimitiveUP
; File C:\Program Files (x86)\Microsoft Visual Studio\2019\Professional\VC\Tools\MSVC\14.29.30133\include\list

; 39   :     _List_unchecked_const_iterator(_Nodeptr _Pnode, const _Mylist* _Plist) noexcept : _Ptr(_Pnode) {

  00291	8b 5d e0	 mov	 ebx, DWORD PTR _this$GSCopy$1$[ebp]

; 201  :         return this->_Ptr == _Right._Ptr;

  00294	8b 55 dc	 mov	 edx, DWORD PTR _dwFrameIndex$1$[ebp]

; 168  :         this->_Ptr = this->_Ptr->_Next;

  00297	8b 36		 mov	 esi, DWORD PTR [esi]

; 39   :     _List_unchecked_const_iterator(_Nodeptr _Pnode, const _Mylist* _Plist) noexcept : _Ptr(_Pnode) {

  00299	8b 43 30	 mov	 eax, DWORD PTR [ebx+48]

; 201  :         return this->_Ptr == _Right._Ptr;

  0029c	3b 34 d0	 cmp	 esi, DWORD PTR [eax+edx*8]
; File C:\Users\murat\Desktop\Siveps2-1-99-Project\source\client\Client\EffectLib\ParticleSystemInstance.h

; 31   : 				for (; itor != m_ParticleInstanceListVector[dwFrameIndex].end(); ++itor)

  0029f	0f 85 3f ff ff
	ff		 jne	 $LL101@OnRender
$LN76@OnRender:
; File C:\Program Files (x86)\Microsoft Visual Studio\2019\Professional\VC\Tools\MSVC\14.29.30133\include\vector

; 1549 :         return static_cast<size_type>(_My_data._Mylast - _My_data._Myfirst);

  002a5	8b 43 40	 mov	 eax, DWORD PTR [ebx+64]
; File C:\Users\murat\Desktop\Siveps2-1-99-Project\source\client\Client\EffectLib\ParticleSystemInstance.h

; 27   : 			for(dwFrameIndex=0; dwFrameIndex<m_kVct_pkImgInst.size(); dwFrameIndex++)

  002a8	42		 inc	 edx
; File C:\Program Files (x86)\Microsoft Visual Studio\2019\Professional\VC\Tools\MSVC\14.29.30133\include\vector

; 1549 :         return static_cast<size_type>(_My_data._Mylast - _My_data._Myfirst);

  002a9	8b 4b 3c	 mov	 ecx, DWORD PTR [ebx+60]
  002ac	2b c1		 sub	 eax, ecx
  002ae	c1 f8 02	 sar	 eax, 2
; File C:\Users\murat\Desktop\Siveps2-1-99-Project\source\client\Client\EffectLib\ParticleSystemInstance.h

; 27   : 			for(dwFrameIndex=0; dwFrameIndex<m_kVct_pkImgInst.size(); dwFrameIndex++)

  002b1	89 55 dc	 mov	 DWORD PTR _dwFrameIndex$1$[ebp], edx
  002b4	3b d0		 cmp	 edx, eax
  002b6	0f 82 f8 fe ff
	ff		 jb	 $LL78@OnRender
  002bc	5f		 pop	 edi
  002bd	5e		 pop	 esi
  002be	5b		 pop	 ebx
; File C:\Users\murat\Desktop\Siveps2-1-99-Project\source\client\Client\EffectLib\ParticleSystemInstance.cpp

; 454  : }

  002bf	8b 4d fc	 mov	 ecx, DWORD PTR __$ArrayPad$[ebp]
  002c2	33 cd		 xor	 ecx, ebp
  002c4	e8 00 00 00 00	 call	 @__security_check_cookie@4
  002c9	8b e5		 mov	 esp, ebp
  002cb	5d		 pop	 ebp
  002cc	c3		 ret	 0
$LN2@OnRender:

; 424  : 		{
; 425  : 			ForEachParticleRendering(NParticleRenderer::NormalRenderer());
; 426  : 		}
; 427  : 		else
; 428  : 		{
; 429  : 			ForEachParticleRendering(NParticleRenderer::AttachRenderer(mc_pmatLocal));
; 430  : 		}
; 431  : 	}
; 432  : 	else if (m_pParticleProperty->m_byBillboardType == BILLBOARD_TYPE_2FACE)

  002cd	75 45		 jne	 SHORT $LN6@OnRender

; 433  : 	{
; 434  : 		if (!m_pParticleProperty->m_bAttachFlag)

  002cf	83 78 20 00	 cmp	 DWORD PTR [eax+32], 0
  002d3	8b cb		 mov	 ecx, ebx
  002d5	75 1f		 jne	 SHORT $LN8@OnRender

; 435  : 		{
; 436  : 			ForEachParticleRendering(NParticleRenderer::TwoSideRenderer());

  002d7	8d 45 e0	 lea	 eax, DWORD PTR $T4[ebp]

; 358  : 			: pmat(pmat)

  002da	c7 45 e0 00 00
	00 00		 mov	 DWORD PTR $T4[ebp], 0

; 435  : 		{
; 436  : 			ForEachParticleRendering(NParticleRenderer::TwoSideRenderer());

  002e1	50		 push	 eax
  002e2	e8 00 00 00 00	 call	 ??$ForEachParticleRendering@UTwoSideRenderer@NParticleRenderer@@@CParticleSystemInstance@@QAEXAAUTwoSideRenderer@NParticleRenderer@@@Z ; CParticleSystemInstance::ForEachParticleRendering<NParticleRenderer::TwoSideRenderer>
  002e7	5b		 pop	 ebx

; 454  : }

  002e8	8b 4d fc	 mov	 ecx, DWORD PTR __$ArrayPad$[ebp]
  002eb	33 cd		 xor	 ecx, ebp
  002ed	e8 00 00 00 00	 call	 @__security_check_cookie@4
  002f2	8b e5		 mov	 esp, ebp
  002f4	5d		 pop	 ebp
  002f5	c3		 ret	 0
$LN8@OnRender:

; 358  : 			: pmat(pmat)

  002f6	8b 43 04	 mov	 eax, DWORD PTR [ebx+4]
  002f9	89 45 e0	 mov	 DWORD PTR $T3[ebp], eax

; 437  : 		}
; 438  : 		else
; 439  : 		{
; 440  : 			ForEachParticleRendering(NParticleRenderer::TwoSideRenderer(mc_pmatLocal));

  002fc	8d 45 e0	 lea	 eax, DWORD PTR $T3[ebp]
  002ff	50		 push	 eax
  00300	e8 00 00 00 00	 call	 ??$ForEachParticleRendering@UTwoSideRenderer@NParticleRenderer@@@CParticleSystemInstance@@QAEXAAUTwoSideRenderer@NParticleRenderer@@@Z ; CParticleSystemInstance::ForEachParticleRendering<NParticleRenderer::TwoSideRenderer>
  00305	5b		 pop	 ebx

; 454  : }

  00306	8b 4d fc	 mov	 ecx, DWORD PTR __$ArrayPad$[ebp]
  00309	33 cd		 xor	 ecx, ebp
  0030b	e8 00 00 00 00	 call	 @__security_check_cookie@4
  00310	8b e5		 mov	 esp, ebp
  00312	5d		 pop	 ebp
  00313	c3		 ret	 0
$LN6@OnRender:

; 441  : 		}
; 442  : 	}
; 443  : 	else if (m_pParticleProperty->m_byBillboardType == BILLBOARD_TYPE_3FACE)

  00314	80 f9 05	 cmp	 cl, 5
  00317	0f 85 77 fe ff
	ff		 jne	 $LN12@OnRender

; 444  : 	{
; 445  : 		if (!m_pParticleProperty->m_bAttachFlag)

  0031d	83 78 20 00	 cmp	 DWORD PTR [eax+32], 0
  00321	8b cb		 mov	 ecx, ebx
  00323	75 1f		 jne	 SHORT $LN11@OnRender

; 446  : 		{
; 447  : 			ForEachParticleRendering(NParticleRenderer::ThreeSideRenderer());

  00325	8d 45 e0	 lea	 eax, DWORD PTR $T2[ebp]

; 376  : 			: pmat(pmat)

  00328	c7 45 e0 00 00
	00 00		 mov	 DWORD PTR $T2[ebp], 0

; 446  : 		{
; 447  : 			ForEachParticleRendering(NParticleRenderer::ThreeSideRenderer());

  0032f	50		 push	 eax
  00330	e8 00 00 00 00	 call	 ??$ForEachParticleRendering@UThreeSideRenderer@NParticleRenderer@@@CParticleSystemInstance@@QAEXAAUThreeSideRenderer@NParticleRenderer@@@Z ; CParticleSystemInstance::ForEachParticleRendering<NParticleRenderer::ThreeSideRenderer>
  00335	5b		 pop	 ebx

; 454  : }

  00336	8b 4d fc	 mov	 ecx, DWORD PTR __$ArrayPad$[ebp]
  00339	33 cd		 xor	 ecx, ebp
  0033b	e8 00 00 00 00	 call	 @__security_check_cookie@4
  00340	8b e5		 mov	 esp, ebp
  00342	5d		 pop	 ebp
  00343	c3		 ret	 0
$LN11@OnRender:

; 376  : 			: pmat(pmat)

  00344	8b 43 04	 mov	 eax, DWORD PTR [ebx+4]
  00347	89 45 e0	 mov	 DWORD PTR $T1[ebp], eax

; 448  : 		}
; 449  : 		else
; 450  : 		{
; 451  : 			ForEachParticleRendering(NParticleRenderer::ThreeSideRenderer(mc_pmatLocal));

  0034a	8d 45 e0	 lea	 eax, DWORD PTR $T1[ebp]
  0034d	50		 push	 eax
  0034e	e8 00 00 00 00	 call	 ??$ForEachParticleRendering@UThreeSideRenderer@NParticleRenderer@@@CParticleSystemInstance@@QAEXAAUThreeSideRenderer@NParticleRenderer@@@Z ; CParticleSystemInstance::ForEachParticleRendering<NParticleRenderer::ThreeSideRenderer>

; 454  : }

  00353	8b 4d fc	 mov	 ecx, DWORD PTR __$ArrayPad$[ebp]
  00356	33 cd		 xor	 ecx, ebp
  00358	5b		 pop	 ebx
  00359	e8 00 00 00 00	 call	 @__security_check_cookie@4
  0035e	8b e5		 mov	 esp, ebp
  00360	5d		 pop	 ebp
  00361	c3		 ret	 0
?OnRender@CParticleSystemInstance@@MAEXXZ ENDP		; CParticleSystemInstance::OnRender
_TEXT	ENDS
; Function compile flags: /Ogtp
; File C:\Users\murat\Desktop\Siveps2-1-99-Project\source\client\Client\EffectLib\ParticleSystemInstance.cpp
; File C:\Program Files (x86)\Microsoft Visual Studio\2019\Professional\VC\Tools\MSVC\14.29.30133\include\vector
; File C:\Users\murat\Desktop\Siveps2-1-99-Project\source\client\Client\EffectLib\ParticleSystemInstance.cpp
; File C:\Program Files (x86)\Microsoft Visual Studio\2019\Professional\VC\Tools\MSVC\14.29.30133\include\vector
; File C:\Users\murat\Desktop\Siveps2-1-99-Project\source\client\Client\EffectLib\ParticleSystemInstance.cpp
; File C:\Program Files (x86)\Microsoft Visual Studio\2019\Professional\VC\Tools\MSVC\14.29.30133\include\vector
; File C:\Users\murat\Desktop\Siveps2-1-99-Project\source\client\Client\EffectLib\ParticleSystemInstance.cpp
; File C:\Users\murat\Desktop\Siveps2-1-99-Project\source\client\extern\include\d3dx8math.inl
; File C:\Users\murat\Desktop\Siveps2-1-99-Project\source\client\Client\EffectLib\ParticleSystemInstance.cpp
; File C:\Users\murat\Desktop\Siveps2-1-99-Project\source\client\extern\include\d3dx8math.inl
; File C:\Users\murat\Desktop\Siveps2-1-99-Project\source\client\Client\EffectLib\ParticleSystemInstance.cpp
; File C:\Users\murat\Desktop\Siveps2-1-99-Project\source\client\extern\include\d3dx8math.inl
; File C:\Users\murat\Desktop\Siveps2-1-99-Project\source\client\Client\EffectLib\ParticleSystemInstance.cpp
; File C:\Program Files (x86)\Microsoft Visual Studio\2019\Professional\VC\Tools\MSVC\14.29.30133\include\vector
; File C:\Program Files (x86)\Microsoft Visual Studio\2019\Professional\VC\Tools\MSVC\14.29.30133\include\list
; File C:\Users\murat\Desktop\Siveps2-1-99-Project\source\client\Client\EffectLib\ParticleSystemInstance.cpp
; File C:\Program Files (x86)\Microsoft Visual Studio\2019\Professional\VC\Tools\MSVC\14.29.30133\include\vector
; File C:\Program Files (x86)\Microsoft Visual Studio\2019\Professional\VC\Tools\MSVC\14.29.30133\include\list
; File C:\Program Files (x86)\Microsoft Visual Studio\2019\Professional\VC\Tools\MSVC\14.29.30133\include\xmemory
; File C:\Program Files (x86)\Microsoft Visual Studio\2019\Professional\VC\Tools\MSVC\14.29.30133\include\vector
; File C:\Program Files (x86)\Microsoft Visual Studio\2019\Professional\VC\Tools\MSVC\14.29.30133\include\list
; File C:\Program Files (x86)\Microsoft Visual Studio\2019\Professional\VC\Tools\MSVC\14.29.30133\include\xmemory
; File C:\Program Files (x86)\Microsoft Visual Studio\2019\Professional\VC\Tools\MSVC\14.29.30133\include\list
; File C:\Program Files (x86)\Microsoft Visual Studio\2019\Professional\VC\Tools\MSVC\14.29.30133\include\xmemory
; File C:\Users\murat\Desktop\Siveps2-1-99-Project\source\client\Client\EffectLib\ParticleSystemInstance.cpp
; File C:\Program Files (x86)\Microsoft Visual Studio\2019\Professional\VC\Tools\MSVC\14.29.30133\include\vector
; File C:\Program Files (x86)\Microsoft Visual Studio\2019\Professional\VC\Tools\MSVC\14.29.30133\include\list
; File C:\Program Files (x86)\Microsoft Visual Studio\2019\Professional\VC\Tools\MSVC\14.29.30133\include\vector
; File C:\Program Files (x86)\Microsoft Visual Studio\2019\Professional\VC\Tools\MSVC\14.29.30133\include\list
; File C:\Program Files (x86)\Microsoft Visual Studio\2019\Professional\VC\Tools\MSVC\14.29.30133\include\xmemory
; File C:\Program Files (x86)\Microsoft Visual Studio\2019\Professional\VC\Tools\MSVC\14.29.30133\include\list
; File C:\Program Files (x86)\Microsoft Visual Studio\2019\Professional\VC\Tools\MSVC\14.29.30133\include\xmemory
; File C:\Program Files (x86)\Microsoft Visual Studio\2019\Professional\VC\Tools\MSVC\14.29.30133\include\list
; File C:\Program Files (x86)\Microsoft Visual Studio\2019\Professional\VC\Tools\MSVC\14.29.30133\include\xmemory
; File C:\Program Files (x86)\Microsoft Visual Studio\2019\Professional\VC\Tools\MSVC\14.29.30133\include\list
; File C:\Program Files (x86)\Microsoft Visual Studio\2019\Professional\VC\Tools\MSVC\14.29.30133\include\vector
; File C:\Program Files (x86)\Microsoft Visual Studio\2019\Professional\VC\Tools\MSVC\14.29.30133\include\list
; File C:\Program Files (x86)\Microsoft Visual Studio\2019\Professional\VC\Tools\MSVC\14.29.30133\include\xmemory
; File C:\Program Files (x86)\Microsoft Visual Studio\2019\Professional\VC\Tools\MSVC\14.29.30133\include\vector
; File C:\Program Files (x86)\Microsoft Visual Studio\2019\Professional\VC\Tools\MSVC\14.29.30133\include\list
; File C:\Program Files (x86)\Microsoft Visual Studio\2019\Professional\VC\Tools\MSVC\14.29.30133\include\vector
; File C:\Program Files (x86)\Microsoft Visual Studio\2019\Professional\VC\Tools\MSVC\14.29.30133\include\list
; File C:\Program Files (x86)\Microsoft Visual Studio\2019\Professional\VC\Tools\MSVC\14.29.30133\include\xmemory
; File C:\Users\murat\Desktop\Siveps2-1-99-Project\source\client\Client\EffectLib\ParticleSystemInstance.cpp
; File C:\Program Files (x86)\Microsoft Visual Studio\2019\Professional\VC\Tools\MSVC\14.29.30133\include\list
; File C:\Users\murat\Desktop\Siveps2-1-99-Project\source\client\Client\EffectLib\ParticleSystemInstance.cpp
; File C:\Program Files (x86)\Microsoft Visual Studio\2019\Professional\VC\Tools\MSVC\14.29.30133\include\list
; File C:\Program Files (x86)\Microsoft Visual Studio\2019\Professional\VC\Tools\MSVC\14.29.30133\include\vector
; File C:\Program Files (x86)\Microsoft Visual Studio\2019\Professional\VC\Tools\MSVC\14.29.30133\include\list
; File C:\Program Files (x86)\Microsoft Visual Studio\2019\Professional\VC\Tools\MSVC\14.29.30133\include\xmemory
; File C:\Program Files (x86)\Microsoft Visual Studio\2019\Professional\VC\Tools\MSVC\14.29.30133\include\list
; File C:\Users\murat\Desktop\Siveps2-1-99-Project\source\client\Client\EffectLib\ParticleSystemInstance.cpp
; File C:\Program Files (x86)\Microsoft Visual Studio\2019\Professional\VC\Tools\MSVC\14.29.30133\include\list
; File C:\Users\murat\Desktop\Siveps2-1-99-Project\source\client\Client\EffectLib\ParticleSystemInstance.cpp
; File C:\Program Files (x86)\Microsoft Visual Studio\2019\Professional\VC\Tools\MSVC\14.29.30133\include\list
; File C:\Users\murat\Desktop\Siveps2-1-99-Project\source\client\Client\EffectLib\ParticleSystemInstance.cpp
;	COMDAT ?OnUpdate@CParticleSystemInstance@@MAE_NM@Z
_TEXT	SEGMENT
__Count$1$ = -60					; size = 4
tv1650 = -56						; size = 4
_fAngularVelocity$ = -52				; size = 4
_dwFrameCount$1$ = -48					; size = 4
tv1614 = -44						; size = 4
$T2 = -40						; size = 4
__Where$1$ = -40					; size = 4
_dwFrameIndex$2$ = -40					; size = 4
__First$1$ = -36					; size = 4
_dwFrameIndex$1$ = -36					; size = 4
_bMakeParticle$1$ = -29					; size = 1
$T3 = -28						; size = 12
__Op$4 = -24						; size = 8
__Right_head$1$ = -20					; size = 4
__$ArrayPad$ = -16					; size = 4
__$EHRec$ = -12						; size = 12
_fElapsedTime$ = 8					; size = 4
?OnUpdate@CParticleSystemInstance@@MAE_NM@Z PROC	; CParticleSystemInstance::OnUpdate, COMDAT
; _this$ = ecx

; 279  : {

  00000	55		 push	 ebp
  00001	8b ec		 mov	 ebp, esp
  00003	6a ff		 push	 -1
  00005	68 00 00 00 00	 push	 __ehhandler$?OnUpdate@CParticleSystemInstance@@MAE_NM@Z
  0000a	64 a1 00 00 00
	00		 mov	 eax, DWORD PTR fs:0
  00010	50		 push	 eax
  00011	83 ec 30	 sub	 esp, 48			; 00000030H
  00014	a1 00 00 00 00	 mov	 eax, DWORD PTR ___security_cookie
  00019	33 c5		 xor	 eax, ebp
  0001b	89 45 f0	 mov	 DWORD PTR __$ArrayPad$[ebp], eax
  0001e	53		 push	 ebx
  0001f	56		 push	 esi
  00020	57		 push	 edi
  00021	50		 push	 eax
  00022	8d 45 f4	 lea	 eax, DWORD PTR __$EHRec$[ebp]
  00025	64 a3 00 00 00
	00		 mov	 DWORD PTR fs:0, eax
  0002b	8b d9		 mov	 ebx, ecx

; 280  : 	bool bMakeParticle = true;
; 281  : 
; 282  : 	/////
; 283  : 
; 284  : 	if (m_fLocalTime >= m_pEmitterProperty->GetCycleLength())

  0002d	8b 7b 50	 mov	 edi, DWORD PTR [ebx+80]
  00030	f3 0f 10 43 0c	 movss	 xmm0, DWORD PTR [ebx+12]
  00035	c6 45 e3 01	 mov	 BYTE PTR _bMakeParticle$1$[ebp], 1
  00039	0f 2f 47 08	 comiss	 xmm0, DWORD PTR [edi+8]
  0003d	72 50		 jb	 SHORT $LN15@OnUpdate

; 285  : 	{
; 286  : 		if (m_pEmitterProperty->isCycleLoop() && --m_iLoopCount!=0)

  0003f	83 7f 0c 00	 cmp	 DWORD PTR [edi+12], 0
  00043	74 23		 je	 SHORT $LN12@OnUpdate
  00045	8b 4b 2c	 mov	 ecx, DWORD PTR [ebx+44]
  00048	83 e9 01	 sub	 ecx, 1
  0004b	89 4b 2c	 mov	 DWORD PTR [ebx+44], ecx
  0004e	74 18		 je	 SHORT $LN12@OnUpdate

; 287  : 		{
; 288  : 			if (m_iLoopCount<0)

  00050	33 d2		 xor	 edx, edx
  00052	8b c1		 mov	 eax, ecx
  00054	85 c9		 test	 ecx, ecx
  00056	0f 48 c2	 cmovs	 eax, edx
  00059	89 43 2c	 mov	 DWORD PTR [ebx+44], eax

; 289  : 				m_iLoopCount = 0;
; 290  : 			m_fLocalTime = m_fLocalTime - m_pEmitterProperty->GetCycleLength();

  0005c	f3 0f 5c 47 08	 subss	 xmm0, DWORD PTR [edi+8]
  00061	f3 0f 11 43 0c	 movss	 DWORD PTR [ebx+12], xmm0

; 291  : 		}

  00066	eb 27		 jmp	 SHORT $LN15@OnUpdate
$LN12@OnUpdate:

; 292  : 		else
; 293  : 		{
; 294  : 			bMakeParticle = false;
; 295  : 			m_iLoopCount=1;
; 296  : 			if (GetEmissionCount()==0)

  00068	8b cb		 mov	 ecx, ebx
  0006a	c6 45 e3 00	 mov	 BYTE PTR _bMakeParticle$1$[ebp], 0
  0006e	c7 43 2c 01 00
	00 00		 mov	 DWORD PTR [ebx+44], 1
  00075	f3 0f 11 45 d8	 movss	 DWORD PTR $T2[ebp], xmm0
  0007a	e8 00 00 00 00	 call	 ?GetEmissionCount@CParticleSystemInstance@@QAEKXZ ; CParticleSystemInstance::GetEmissionCount
  0007f	85 c0		 test	 eax, eax
  00081	75 07		 jne	 SHORT $LN287@OnUpdate

; 297  : 				return false;

  00083	32 c0		 xor	 al, al
  00085	e9 b8 02 00 00	 jmp	 $LN1@OnUpdate
$LN287@OnUpdate:

; 292  : 		else
; 293  : 		{
; 294  : 			bMakeParticle = false;
; 295  : 			m_iLoopCount=1;
; 296  : 			if (GetEmissionCount()==0)

  0008a	f3 0f 10 45 d8	 movss	 xmm0, DWORD PTR $T2[ebp]
$LN15@OnUpdate:
; File C:\Program Files (x86)\Microsoft Visual Studio\2019\Professional\VC\Tools\MSVC\14.29.30133\include\vector

; 1548 :         auto& _My_data = _Mypair._Myval2;

  0008f	8b 43 4c	 mov	 eax, DWORD PTR [ebx+76]

; 1549 :         return static_cast<size_type>(_My_data._Mylast - _My_data._Myfirst);

  00092	8b 70 74	 mov	 esi, DWORD PTR [eax+116]
  00095	2b 70 70	 sub	 esi, DWORD PTR [eax+112]
; File C:\Users\murat\Desktop\Siveps2-1-99-Project\source\client\Client\EffectLib\ParticleSystemInstance.cpp

; 307  : 	m_pEmitterProperty->GetEmittingAngularVelocity(m_fLocalTime,&fAngularVelocity);

  00098	8d 45 cc	 lea	 eax, DWORD PTR _fAngularVelocity$[ebp]
  0009b	50		 push	 eax
  0009c	51		 push	 ecx
; File C:\Program Files (x86)\Microsoft Visual Studio\2019\Professional\VC\Tools\MSVC\14.29.30133\include\vector

; 1549 :         return static_cast<size_type>(_My_data._Mylast - _My_data._Myfirst);

  0009d	c1 fe 02	 sar	 esi, 2
; File C:\Users\murat\Desktop\Siveps2-1-99-Project\source\client\Client\EffectLib\ParticleSystemInstance.cpp

; 307  : 	m_pEmitterProperty->GetEmittingAngularVelocity(m_fLocalTime,&fAngularVelocity);

  000a0	8b cf		 mov	 ecx, edi
; File C:\Program Files (x86)\Microsoft Visual Studio\2019\Professional\VC\Tools\MSVC\14.29.30133\include\vector

; 1549 :         return static_cast<size_type>(_My_data._Mylast - _My_data._Myfirst);

  000a2	89 75 d0	 mov	 DWORD PTR _dwFrameCount$1$[ebp], esi
; File C:\Users\murat\Desktop\Siveps2-1-99-Project\source\client\Client\EffectLib\ParticleSystemInstance.cpp

; 307  : 	m_pEmitterProperty->GetEmittingAngularVelocity(m_fLocalTime,&fAngularVelocity);

  000a5	f3 0f 11 04 24	 movss	 DWORD PTR [esp], xmm0
  000aa	e8 00 00 00 00	 call	 ?GetEmittingAngularVelocity@CEmitterProperty@@QAEXMPAM@Z ; CEmitterProperty::GetEmittingAngularVelocity

; 308  : 
; 309  : 	if (fAngularVelocity && !m_pParticleProperty->m_bAttachFlag)

  000af	f3 0f 10 4d cc	 movss	 xmm1, DWORD PTR _fAngularVelocity$[ebp]
  000b4	0f 57 c0	 xorps	 xmm0, xmm0
  000b7	0f 2e c8	 ucomiss xmm1, xmm0
  000ba	9f		 lahf
  000bb	f6 c4 44	 test	 ah, 68			; 00000044H
  000be	7b 2e		 jnp	 SHORT $LN16@OnUpdate
  000c0	8b 43 4c	 mov	 eax, DWORD PTR [ebx+76]
  000c3	83 78 20 00	 cmp	 DWORD PTR [eax+32], 0
  000c7	75 25		 jne	 SHORT $LN16@OnUpdate

; 311  : 		D3DXVec3TransformNormal(&m_pParticleProperty->m_v3ZAxis,&D3DXVECTOR3(0.0f,0.0f,1.0f),mc_pmatLocal);

  000c9	ff 73 04	 push	 DWORD PTR [ebx+4]
  000cc	8d 4d e4	 lea	 ecx, DWORD PTR $T3[ebp]
; File C:\Users\murat\Desktop\Siveps2-1-99-Project\source\client\extern\include\d3dx8math.inl

; 180  :     x = fx;

  000cf	c7 45 e4 00 00
	00 00		 mov	 DWORD PTR $T3[ebp], 0
; File C:\Users\murat\Desktop\Siveps2-1-99-Project\source\client\Client\EffectLib\ParticleSystemInstance.cpp

; 311  : 		D3DXVec3TransformNormal(&m_pParticleProperty->m_v3ZAxis,&D3DXVECTOR3(0.0f,0.0f,1.0f),mc_pmatLocal);

  000d6	51		 push	 ecx
  000d7	83 c0 7c	 add	 eax, 124		; 0000007cH
; File C:\Users\murat\Desktop\Siveps2-1-99-Project\source\client\extern\include\d3dx8math.inl

; 181  :     y = fy;

  000da	c7 45 e8 00 00
	00 00		 mov	 DWORD PTR $T3[ebp+4], 0
; File C:\Users\murat\Desktop\Siveps2-1-99-Project\source\client\Client\EffectLib\ParticleSystemInstance.cpp

; 311  : 		D3DXVec3TransformNormal(&m_pParticleProperty->m_v3ZAxis,&D3DXVECTOR3(0.0f,0.0f,1.0f),mc_pmatLocal);

  000e1	50		 push	 eax
; File C:\Users\murat\Desktop\Siveps2-1-99-Project\source\client\extern\include\d3dx8math.inl

; 182  :     z = fz;

  000e2	c7 45 ec 00 00
	80 3f		 mov	 DWORD PTR $T3[ebp+8], 1065353216 ; 3f800000H
; File C:\Users\murat\Desktop\Siveps2-1-99-Project\source\client\Client\EffectLib\ParticleSystemInstance.cpp

; 311  : 		D3DXVec3TransformNormal(&m_pParticleProperty->m_v3ZAxis,&D3DXVECTOR3(0.0f,0.0f,1.0f),mc_pmatLocal);

  000e9	e8 00 00 00 00	 call	 _D3DXVec3TransformNormal@12
$LN16@OnUpdate:

; 312  : 	}
; 313  : 
; 314  : 	for (dwFrameIndex = 0; dwFrameIndex < dwFrameCount; dwFrameIndex++)

  000ee	33 c0		 xor	 eax, eax
  000f0	89 45 dc	 mov	 DWORD PTR _dwFrameIndex$1$[ebp], eax
  000f3	85 f6		 test	 esi, esi
  000f5	0f 8e 4c 01 00
	00		 jle	 $LN280@OnUpdate
  000fb	0f 1f 44 00 00	 npad	 5
$LL4@OnUpdate:
; File C:\Program Files (x86)\Microsoft Visual Studio\2019\Professional\VC\Tools\MSVC\14.29.30133\include\vector

; 1569 :         return _My_data._Myfirst[_Pos];

  00100	8d 0c c5 00 00
	00 00		 lea	 ecx, DWORD PTR [eax*8]
  00107	8b 43 30	 mov	 eax, DWORD PTR [ebx+48]
; File C:\Program Files (x86)\Microsoft Visual Studio\2019\Professional\VC\Tools\MSVC\14.29.30133\include\list

; 1092 :         return iterator(_Mypair._Myval2._Myhead->_Next, _STD addressof(_Mypair._Myval2));

  0010a	8b 04 08	 mov	 eax, DWORD PTR [eax+ecx]

; 39   :     _List_unchecked_const_iterator(_Nodeptr _Pnode, const _Mylist* _Plist) noexcept : _Ptr(_Pnode) {

  0010d	8b 30		 mov	 esi, DWORD PTR [eax]
; File C:\Users\murat\Desktop\Siveps2-1-99-Project\source\client\Client\EffectLib\ParticleSystemInstance.cpp

; 317  : 		for (; itor != m_ParticleInstanceListVector[dwFrameIndex].end();)

  0010f	3b f0		 cmp	 esi, eax
  00111	0f 84 1e 01 00
	00		 je	 $LN2@OnUpdate
  00117	66 0f 1f 84 00
	00 00 00 00	 npad	 9
$LL5@OnUpdate:

; 318  : 		{
; 319  : 			CParticleInstance * pInstance = *itor;
; 320  : 
; 321  : 			if (!pInstance->Update(fElapsedTime,fAngularVelocity))

  00120	f3 0f 10 45 cc	 movss	 xmm0, DWORD PTR _fAngularVelocity$[ebp]
  00125	83 ec 08	 sub	 esp, 8
  00128	8b 7e 08	 mov	 edi, DWORD PTR [esi+8]
  0012b	8b cf		 mov	 ecx, edi
  0012d	f3 0f 11 44 24
	04		 movss	 DWORD PTR [esp+4], xmm0
  00133	f3 0f 10 45 08	 movss	 xmm0, DWORD PTR _fElapsedTime$[ebp]
  00138	f3 0f 11 04 24	 movss	 DWORD PTR [esp], xmm0
  0013d	e8 00 00 00 00	 call	 ?Update@CParticleInstance@@QAEHMM@Z ; CParticleInstance::Update
  00142	85 c0		 test	 eax, eax
  00144	75 3d		 jne	 SHORT $LN17@OnUpdate

; 322  : 			{
; 323  : 				pInstance->DeleteThis();

  00146	8b cf		 mov	 ecx, edi
  00148	e8 00 00 00 00	 call	 ?DeleteThis@CParticleInstance@@QAEXXZ ; CParticleInstance::DeleteThis
; File C:\Program Files (x86)\Microsoft Visual Studio\2019\Professional\VC\Tools\MSVC\14.29.30133\include\vector

; 1569 :         return _My_data._Myfirst[_Pos];

  0014d	8b 4d dc	 mov	 ecx, DWORD PTR _dwFrameIndex$1$[ebp]
  00150	8b 53 30	 mov	 edx, DWORD PTR [ebx+48]
; File C:\Program Files (x86)\Microsoft Visual Studio\2019\Professional\VC\Tools\MSVC\14.29.30133\include\list

; 1353 :         const auto _Result = _Where._Ptr->_Next;

  00153	8b 3e		 mov	 edi, DWORD PTR [esi]
; File C:\Program Files (x86)\Microsoft Visual Studio\2019\Professional\VC\Tools\MSVC\14.29.30133\include\xmemory

; 264  :         ::operator delete(_Ptr, _Bytes);

  00155	6a 0c		 push	 12			; 0000000cH
; File C:\Program Files (x86)\Microsoft Visual Studio\2019\Professional\VC\Tools\MSVC\14.29.30133\include\vector

; 1569 :         return _My_data._Myfirst[_Pos];

  00157	8d 04 cd 00 00
	00 00		 lea	 eax, DWORD PTR [ecx*8]
  0015e	03 d0		 add	 edx, eax
; File C:\Program Files (x86)\Microsoft Visual Studio\2019\Professional\VC\Tools\MSVC\14.29.30133\include\list

; 400  :         _Pnode->_Prev->_Next = _Pnode->_Next;

  00160	8b 46 04	 mov	 eax, DWORD PTR [esi+4]
; File C:\Program Files (x86)\Microsoft Visual Studio\2019\Professional\VC\Tools\MSVC\14.29.30133\include\xmemory

; 264  :         ::operator delete(_Ptr, _Bytes);

  00163	56		 push	 esi
; File C:\Program Files (x86)\Microsoft Visual Studio\2019\Professional\VC\Tools\MSVC\14.29.30133\include\list

; 400  :         _Pnode->_Prev->_Next = _Pnode->_Next;

  00164	89 38		 mov	 DWORD PTR [eax], edi

; 401  :         _Pnode->_Next->_Prev = _Pnode->_Prev;

  00166	8b 0e		 mov	 ecx, DWORD PTR [esi]
  00168	8b 46 04	 mov	 eax, DWORD PTR [esi+4]
  0016b	89 41 04	 mov	 DWORD PTR [ecx+4], eax

; 402  :         --_Mysize;

  0016e	ff 4a 04	 dec	 DWORD PTR [edx+4]
; File C:\Program Files (x86)\Microsoft Visual Studio\2019\Professional\VC\Tools\MSVC\14.29.30133\include\xmemory

; 264  :         ::operator delete(_Ptr, _Bytes);

  00171	e8 00 00 00 00	 call	 ??3@YAXPAXI@Z		; operator delete
  00176	83 c4 08	 add	 esp, 8
; File C:\Users\murat\Desktop\Siveps2-1-99-Project\source\client\Client\EffectLib\ParticleSystemInstance.cpp

; 326  : 				m_dwCurrentEmissionCount--;

  00179	8b f7		 mov	 esi, edi
  0017b	ff 4b 28	 dec	 DWORD PTR [ebx+40]

; 327  : 			}

  0017e	e9 9c 00 00 00	 jmp	 $LN200@OnUpdate
$LN17@OnUpdate:

; 328  : 			else
; 329  : 			{
; 330  : 				if (pInstance->m_byFrameIndex != dwFrameIndex)

  00183	0f b6 47 50	 movzx	 eax, BYTE PTR [edi+80]
  00187	3b 45 dc	 cmp	 eax, DWORD PTR _dwFrameIndex$1$[ebp]
  0018a	0f 84 8d 00 00
	00		 je	 $LN19@OnUpdate
; File C:\Program Files (x86)\Microsoft Visual Studio\2019\Professional\VC\Tools\MSVC\14.29.30133\include\vector

; 1569 :         return _My_data._Myfirst[_Pos];

  00190	8b 4d d0	 mov	 ecx, DWORD PTR _dwFrameCount$1$[ebp]
  00193	03 c8		 add	 ecx, eax
  00195	8b 43 30	 mov	 eax, DWORD PTR [ebx+48]
; File C:\Program Files (x86)\Microsoft Visual Studio\2019\Professional\VC\Tools\MSVC\14.29.30133\include\list

; 1014 :         if (_Mysize == max_size()) {

  00198	81 7c c8 04 55
	55 55 15	 cmp	 DWORD PTR [eax+ecx*8+4], 357913941 ; 15555555H
; File C:\Program Files (x86)\Microsoft Visual Studio\2019\Professional\VC\Tools\MSVC\14.29.30133\include\vector

; 1569 :         return _My_data._Myfirst[_Pos];

  001a0	8d 3c c8	 lea	 edi, DWORD PTR [eax+ecx*8]
; File C:\Program Files (x86)\Microsoft Visual Studio\2019\Professional\VC\Tools\MSVC\14.29.30133\include\list

; 1252 :         _Emplace(_Mypair._Myval2._Myhead, _Val);

  001a3	8b 07		 mov	 eax, DWORD PTR [edi]
  001a5	89 45 d8	 mov	 DWORD PTR __Where$1$[ebp], eax

; 1014 :         if (_Mysize == max_size()) {

  001a8	0f 84 b2 01 00
	00		 je	 $LN264@OnUpdate
; File C:\Program Files (x86)\Microsoft Visual Studio\2019\Professional\VC\Tools\MSVC\14.29.30133\include\xmemory

; 1012 :     _CONSTEXPR20_DYNALLOC explicit _Alloc_construct_ptr(_Alloc& _Al_) : _Al(_Al_), _Ptr(nullptr) {}

  001ae	89 7d e8	 mov	 DWORD PTR __Op$4[ebp], edi

; 85   :         return ::operator new(_Bytes);

  001b1	6a 0c		 push	 12			; 0000000cH
; File C:\Program Files (x86)\Microsoft Visual Studio\2019\Professional\VC\Tools\MSVC\14.29.30133\include\list

; 589  :     explicit _List_node_emplace_op2(_Alnode& _Al_, _Valtys&&... _Vals) : _Alloc_construct_ptr<_Alnode>(_Al_) {

  001b3	c7 45 fc 00 00
	00 00		 mov	 DWORD PTR __$EHRec$[ebp+8], 0
; File C:\Program Files (x86)\Microsoft Visual Studio\2019\Professional\VC\Tools\MSVC\14.29.30133\include\xmemory

; 1019 :         _Ptr = nullptr; // if allocate throws, prevents double-free

  001ba	c7 45 ec 00 00
	00 00		 mov	 DWORD PTR __Op$4[ebp+4], 0

; 85   :         return ::operator new(_Bytes);

  001c1	e8 00 00 00 00	 call	 ??2@YAPAXI@Z		; operator new
; File C:\Program Files (x86)\Microsoft Visual Studio\2019\Professional\VC\Tools\MSVC\14.29.30133\include\list

; 591  :         _Alnode_traits::construct(this->_Al, _STD addressof(this->_Ptr->_Myval), _STD forward<_Valtys>(_Vals)...);

  001c6	8b 4e 08	 mov	 ecx, DWORD PTR [esi+8]

; 604  :         const pointer _Insert_after = _Insert_before->_Prev;

  001c9	8b 55 d8	 mov	 edx, DWORD PTR __Where$1$[ebp]
; File C:\Program Files (x86)\Microsoft Visual Studio\2019\Professional\VC\Tools\MSVC\14.29.30133\include\xmemory

; 264  :         ::operator delete(_Ptr, _Bytes);

  001cc	6a 0c		 push	 12			; 0000000cH
; File C:\Program Files (x86)\Microsoft Visual Studio\2019\Professional\VC\Tools\MSVC\14.29.30133\include\list

; 591  :         _Alnode_traits::construct(this->_Al, _STD addressof(this->_Ptr->_Myval), _STD forward<_Valtys>(_Vals)...);

  001ce	89 48 08	 mov	 DWORD PTR [eax+8], ecx

; 1019 :         ++_Mysize;

  001d1	ff 47 04	 inc	 DWORD PTR [edi+4]

; 604  :         const pointer _Insert_after = _Insert_before->_Prev;

  001d4	8b 4a 04	 mov	 ecx, DWORD PTR [edx+4]

; 605  :         _Construct_in_place(this->_Ptr->_Next, _Insert_before);

  001d7	89 10		 mov	 DWORD PTR [eax], edx

; 606  :         _Construct_in_place(this->_Ptr->_Prev, _Insert_after);

  001d9	89 48 04	 mov	 DWORD PTR [eax+4], ecx

; 609  :         _Insert_before->_Prev = _Result;

  001dc	89 42 04	 mov	 DWORD PTR [edx+4], eax

; 610  :         _Insert_after->_Next  = _Result;

  001df	89 01		 mov	 DWORD PTR [ecx], eax
; File C:\Program Files (x86)\Microsoft Visual Studio\2019\Professional\VC\Tools\MSVC\14.29.30133\include\vector

; 1569 :         return _My_data._Myfirst[_Pos];

  001e1	8b 4d dc	 mov	 ecx, DWORD PTR _dwFrameIndex$1$[ebp]
  001e4	8b 53 30	 mov	 edx, DWORD PTR [ebx+48]
; File C:\Program Files (x86)\Microsoft Visual Studio\2019\Professional\VC\Tools\MSVC\14.29.30133\include\list

; 1353 :         const auto _Result = _Where._Ptr->_Next;

  001e7	8b 3e		 mov	 edi, DWORD PTR [esi]
; File C:\Program Files (x86)\Microsoft Visual Studio\2019\Professional\VC\Tools\MSVC\14.29.30133\include\xmemory

; 264  :         ::operator delete(_Ptr, _Bytes);

  001e9	56		 push	 esi
; File C:\Program Files (x86)\Microsoft Visual Studio\2019\Professional\VC\Tools\MSVC\14.29.30133\include\vector

; 1569 :         return _My_data._Myfirst[_Pos];

  001ea	8d 04 cd 00 00
	00 00		 lea	 eax, DWORD PTR [ecx*8]
; File C:\Program Files (x86)\Microsoft Visual Studio\2019\Professional\VC\Tools\MSVC\14.29.30133\include\list

; 592  :     }

  001f1	c7 45 fc ff ff
	ff ff		 mov	 DWORD PTR __$EHRec$[ebp+8], -1
; File C:\Program Files (x86)\Microsoft Visual Studio\2019\Professional\VC\Tools\MSVC\14.29.30133\include\vector

; 1569 :         return _My_data._Myfirst[_Pos];

  001f8	03 d0		 add	 edx, eax
; File C:\Program Files (x86)\Microsoft Visual Studio\2019\Professional\VC\Tools\MSVC\14.29.30133\include\list

; 608  :         this->_Ptr            = pointer{};

  001fa	c7 45 ec 00 00
	00 00		 mov	 DWORD PTR __Op$4[ebp+4], 0

; 400  :         _Pnode->_Prev->_Next = _Pnode->_Next;

  00201	8b 46 04	 mov	 eax, DWORD PTR [esi+4]
  00204	89 38		 mov	 DWORD PTR [eax], edi

; 401  :         _Pnode->_Next->_Prev = _Pnode->_Prev;

  00206	8b 0e		 mov	 ecx, DWORD PTR [esi]
  00208	8b 46 04	 mov	 eax, DWORD PTR [esi+4]
  0020b	89 41 04	 mov	 DWORD PTR [ecx+4], eax

; 402  :         --_Mysize;

  0020e	ff 4a 04	 dec	 DWORD PTR [edx+4]
; File C:\Program Files (x86)\Microsoft Visual Studio\2019\Professional\VC\Tools\MSVC\14.29.30133\include\xmemory

; 264  :         ::operator delete(_Ptr, _Bytes);

  00211	e8 00 00 00 00	 call	 ??3@YAXPAXI@Z		; operator delete
  00216	83 c4 0c	 add	 esp, 12			; 0000000cH
; File C:\Users\murat\Desktop\Siveps2-1-99-Project\source\client\Client\EffectLib\ParticleSystemInstance.cpp

; 333  : 					itor = m_ParticleInstanceListVector[dwFrameIndex].erase(itor);

  00219	8b f7		 mov	 esi, edi

; 334  : 				}

  0021b	eb 02		 jmp	 SHORT $LN200@OnUpdate
$LN19@OnUpdate:
; File C:\Program Files (x86)\Microsoft Visual Studio\2019\Professional\VC\Tools\MSVC\14.29.30133\include\list

; 168  :         this->_Ptr = this->_Ptr->_Next;

  0021d	8b 36		 mov	 esi, DWORD PTR [esi]
$LN200@OnUpdate:

; 201  :         return this->_Ptr == _Right._Ptr;

  0021f	8b 55 dc	 mov	 edx, DWORD PTR _dwFrameIndex$1$[ebp]

; 39   :     _List_unchecked_const_iterator(_Nodeptr _Pnode, const _Mylist* _Plist) noexcept : _Ptr(_Pnode) {

  00222	8b 43 30	 mov	 eax, DWORD PTR [ebx+48]

; 201  :         return this->_Ptr == _Right._Ptr;

  00225	8d 0c d5 00 00
	00 00		 lea	 ecx, DWORD PTR [edx*8]
  0022c	3b 34 01	 cmp	 esi, DWORD PTR [ecx+eax]
; File C:\Users\murat\Desktop\Siveps2-1-99-Project\source\client\Client\EffectLib\ParticleSystemInstance.cpp

; 317  : 		for (; itor != m_ParticleInstanceListVector[dwFrameIndex].end();)

  0022f	0f 85 eb fe ff
	ff		 jne	 $LL5@OnUpdate
$LN2@OnUpdate:

; 312  : 	}
; 313  : 
; 314  : 	for (dwFrameIndex = 0; dwFrameIndex < dwFrameCount; dwFrameIndex++)

  00235	8b 45 dc	 mov	 eax, DWORD PTR _dwFrameIndex$1$[ebp]
  00238	8b 75 d0	 mov	 esi, DWORD PTR _dwFrameCount$1$[ebp]
  0023b	40		 inc	 eax
  0023c	89 45 dc	 mov	 DWORD PTR _dwFrameIndex$1$[ebp], eax
  0023f	3b c6		 cmp	 eax, esi
  00241	0f 8c b9 fe ff
	ff		 jl	 $LL4@OnUpdate
$LN280@OnUpdate:

; 335  : 				else
; 336  : 					++itor;
; 337  : 			}
; 338  : 		}
; 339  : 	}
; 340  : 	if (isActive() && bMakeParticle)

  00247	8b cb		 mov	 ecx, ebx
  00249	e8 00 00 00 00	 call	 ?isActive@CEffectElementBaseInstance@@QAE_NXZ ; CEffectElementBaseInstance::isActive
  0024e	84 c0		 test	 al, al
  00250	74 18		 je	 SHORT $LN21@OnUpdate
  00252	80 7d e3 00	 cmp	 BYTE PTR _bMakeParticle$1$[ebp], 0
  00256	74 12		 je	 SHORT $LN21@OnUpdate

; 341  : 		CreateParticles(fElapsedTime);

  00258	f3 0f 10 45 08	 movss	 xmm0, DWORD PTR _fElapsedTime$[ebp]
  0025d	51		 push	 ecx
  0025e	8b cb		 mov	 ecx, ebx
  00260	f3 0f 11 04 24	 movss	 DWORD PTR [esp], xmm0
  00265	e8 00 00 00 00	 call	 ?CreateParticles@CParticleSystemInstance@@QAEXM@Z ; CParticleSystemInstance::CreateParticles
$LN21@OnUpdate:

; 343  : 	for (dwFrameIndex = 0; dwFrameIndex < dwFrameCount; ++dwFrameIndex)

  0026a	33 c0		 xor	 eax, eax
  0026c	89 45 d8	 mov	 DWORD PTR _dwFrameIndex$2$[ebp], eax
  0026f	85 f6		 test	 esi, esi
  00271	0f 8e c9 00 00
	00		 jle	 $LN281@OnUpdate
  00277	c1 e6 03	 shl	 esi, 3
  0027a	89 75 d4	 mov	 DWORD PTR tv1614[ebp], esi
  0027d	0f 1f 00	 npad	 3
$LL10@OnUpdate:
; File C:\Program Files (x86)\Microsoft Visual Studio\2019\Professional\VC\Tools\MSVC\14.29.30133\include\list

; 1100 :         return iterator(_Mypair._Myval2._Myhead, _STD addressof(_Mypair._Myval2));

  00280	8b 7b 30	 mov	 edi, DWORD PTR [ebx+48]
  00283	8d 14 c7	 lea	 edx, DWORD PTR [edi+eax*8]

; 39   :     _List_unchecked_const_iterator(_Nodeptr _Pnode, const _Mylist* _Plist) noexcept : _Ptr(_Pnode) {

  00286	8b 02		 mov	 eax, DWORD PTR [edx]
; File C:\Program Files (x86)\Microsoft Visual Studio\2019\Professional\VC\Tools\MSVC\14.29.30133\include\vector

; 1569 :         return _My_data._Myfirst[_Pos];

  00288	8d 0c 3e	 lea	 ecx, DWORD PTR [esi+edi]
; File C:\Program Files (x86)\Microsoft Visual Studio\2019\Professional\VC\Tools\MSVC\14.29.30133\include\list

; 39   :     _List_unchecked_const_iterator(_Nodeptr _Pnode, const _Mylist* _Plist) noexcept : _Ptr(_Pnode) {

  0028b	89 45 c8	 mov	 DWORD PTR tv1650[ebp], eax

; 1454 :         if (this != _STD addressof(_Right) && _Right_data._Mysize != 0) { // worth splicing, do it

  0028e	3b d1		 cmp	 edx, ecx
  00290	74 5d		 je	 SHORT $LN223@OnUpdate
  00292	8b 41 04	 mov	 eax, DWORD PTR [ecx+4]
  00295	89 45 c4	 mov	 DWORD PTR __Count$1$[ebp], eax
  00298	85 c0		 test	 eax, eax
  0029a	74 53		 je	 SHORT $LN223@OnUpdate

; 1455 : #if _ITERATOR_DEBUG_LEVEL == 2
; 1456 :             _STL_VERIFY(_Where._Getcont() == _STD addressof(_Mypair._Myval2), "list splice iterator outside range");
; 1457 : #endif // _ITERATOR_DEBUG_LEVEL == 2
; 1458 :             const auto _Right_head = _Right_data._Myhead;

  0029c	8b 01		 mov	 eax, DWORD PTR [ecx]

; 1748 :             if (max_size() - _My_data._Mysize < _Count) {

  0029e	8b 7d c4	 mov	 edi, DWORD PTR __Count$1$[ebp]

; 1458 :             const auto _Right_head = _Right_data._Myhead;

  002a1	89 45 ec	 mov	 DWORD PTR __Right_head$1$[ebp], eax

; 1459 :             _Splice(_Where._Ptr, _Right, _Right_head->_Next, _Right_head, _Right_data._Mysize);

  002a4	8b 00		 mov	 eax, DWORD PTR [eax]
  002a6	89 45 dc	 mov	 DWORD PTR __First$1$[ebp], eax

; 1748 :             if (max_size() - _My_data._Mysize < _Count) {

  002a9	b8 55 55 55 15	 mov	 eax, 357913941		; 15555555H
  002ae	2b 42 04	 sub	 eax, DWORD PTR [edx+4]
  002b1	3b c7		 cmp	 eax, edi
  002b3	0f 82 a7 00 00
	00		 jb	 $LN264@OnUpdate

; 1750 :             }
; 1751 : 
; 1752 :             auto& _Right_data = _Right._Mypair._Myval2;
; 1753 : #if _ITERATOR_DEBUG_LEVEL == 2
; 1754 :             // transfer ownership
; 1755 :             if (_Count == 1) {
; 1756 :                 _My_data._Adopt_unique(_Right_data, _First);
; 1757 :             } else if (_Count == _Right_data._Mysize) {
; 1758 :                 _My_data._Adopt_all(_Right_data);
; 1759 :             } else {
; 1760 :                 _My_data._Adopt_range(_Right_data, _First, _Last);
; 1761 :             }
; 1762 : #endif // _ITERATOR_DEBUG_LEVEL == 2
; 1763 : 
; 1764 :             _My_data._Mysize += _Count;

  002b9	01 7a 04	 add	 DWORD PTR [edx+4], edi

; 1765 :             _Right_data._Mysize -= _Count;

  002bc	29 79 04	 sub	 DWORD PTR [ecx+4], edi

; 479  :         const auto _First_prev  = _First->_Prev;

  002bf	8b 45 dc	 mov	 eax, DWORD PTR __First$1$[ebp]

; 480  :         _First_prev->_Next      = _Last;

  002c2	8b 7d ec	 mov	 edi, DWORD PTR __Right_head$1$[ebp]

; 481  :         const auto _Last_prev   = _Last->_Prev;
; 482  :         _Last_prev->_Next       = _Before;
; 483  :         const auto _Before_prev = _Before->_Prev;
; 484  :         _Before_prev->_Next     = _First;

  002c5	8b 75 dc	 mov	 esi, DWORD PTR __First$1$[ebp]
  002c8	8b 50 04	 mov	 edx, DWORD PTR [eax+4]
  002cb	8b 45 c8	 mov	 eax, DWORD PTR tv1650[ebp]
  002ce	89 3a		 mov	 DWORD PTR [edx], edi
  002d0	8b 4f 04	 mov	 ecx, DWORD PTR [edi+4]
  002d3	89 01		 mov	 DWORD PTR [ecx], eax
  002d5	8b 40 04	 mov	 eax, DWORD PTR [eax+4]
  002d8	89 30		 mov	 DWORD PTR [eax], esi

; 485  : 
; 486  :         // fixup the _Prev values
; 487  :         _Before->_Prev = _Last_prev;

  002da	8b 75 c8	 mov	 esi, DWORD PTR tv1650[ebp]
  002dd	89 4e 04	 mov	 DWORD PTR [esi+4], ecx

; 489  :         _First->_Prev  = _Before_prev;

  002e0	8b 4d dc	 mov	 ecx, DWORD PTR __First$1$[ebp]
  002e3	8b 75 d4	 mov	 esi, DWORD PTR tv1614[ebp]

; 488  :         _Last->_Prev   = _First_prev;

  002e6	89 57 04	 mov	 DWORD PTR [edi+4], edx

; 489  :         _First->_Prev  = _Before_prev;

  002e9	89 41 04	 mov	 DWORD PTR [ecx+4], eax
  002ec	8b 7b 30	 mov	 edi, DWORD PTR [ebx+48]
$LN223@OnUpdate:

; 1429 :         _Node::_Free_non_head(_Getal(), _My_data._Myhead);

  002ef	8b 0c 3e	 mov	 ecx, DWORD PTR [esi+edi]

; 328  :         _Head->_Prev->_Next = nullptr;

  002f2	8b 41 04	 mov	 eax, DWORD PTR [ecx+4]
  002f5	c7 00 00 00 00
	00		 mov	 DWORD PTR [eax], 0

; 329  : 
; 330  :         auto _Pnode = _Head->_Next;

  002fb	8b 01		 mov	 eax, DWORD PTR [ecx]

; 331  :         for (_Nodeptr _Pnext; _Pnode; _Pnode = _Pnext) {

  002fd	85 c0		 test	 eax, eax
  002ff	74 16		 je	 SHORT $LN231@OnUpdate
$LL232@OnUpdate:

; 332  :             _Pnext = _Pnode->_Next;

  00301	8b 30		 mov	 esi, DWORD PTR [eax]
; File C:\Program Files (x86)\Microsoft Visual Studio\2019\Professional\VC\Tools\MSVC\14.29.30133\include\xmemory

; 264  :         ::operator delete(_Ptr, _Bytes);

  00303	6a 0c		 push	 12			; 0000000cH
  00305	50		 push	 eax
  00306	e8 00 00 00 00	 call	 ??3@YAXPAXI@Z		; operator delete
  0030b	83 c4 08	 add	 esp, 8
; File C:\Program Files (x86)\Microsoft Visual Studio\2019\Professional\VC\Tools\MSVC\14.29.30133\include\list

; 331  :         for (_Nodeptr _Pnext; _Pnode; _Pnode = _Pnext) {

  0030e	8b c6		 mov	 eax, esi
  00310	85 f6		 test	 esi, esi
  00312	75 ed		 jne	 SHORT $LL232@OnUpdate
  00314	8b 75 d4	 mov	 esi, DWORD PTR tv1614[ebp]
$LN231@OnUpdate:

; 1430 :         _My_data._Myhead->_Next = _My_data._Myhead;

  00317	8b 04 3e	 mov	 eax, DWORD PTR [esi+edi]
  0031a	89 00		 mov	 DWORD PTR [eax], eax

; 1431 :         _My_data._Myhead->_Prev = _My_data._Myhead;

  0031c	8b 04 3e	 mov	 eax, DWORD PTR [esi+edi]
  0031f	89 40 04	 mov	 DWORD PTR [eax+4], eax
; File C:\Users\murat\Desktop\Siveps2-1-99-Project\source\client\Client\EffectLib\ParticleSystemInstance.cpp

; 343  : 	for (dwFrameIndex = 0; dwFrameIndex < dwFrameCount; ++dwFrameIndex)

  00322	8b 45 d8	 mov	 eax, DWORD PTR _dwFrameIndex$2$[ebp]
  00325	40		 inc	 eax
; File C:\Program Files (x86)\Microsoft Visual Studio\2019\Professional\VC\Tools\MSVC\14.29.30133\include\list

; 1432 :         _My_data._Mysize        = 0;

  00326	c7 44 3e 04 00
	00 00 00	 mov	 DWORD PTR [esi+edi+4], 0
; File C:\Users\murat\Desktop\Siveps2-1-99-Project\source\client\Client\EffectLib\ParticleSystemInstance.cpp

; 343  : 	for (dwFrameIndex = 0; dwFrameIndex < dwFrameCount; ++dwFrameIndex)

  0032e	83 c6 08	 add	 esi, 8
  00331	89 45 d8	 mov	 DWORD PTR _dwFrameIndex$2$[ebp], eax
  00334	89 75 d4	 mov	 DWORD PTR tv1614[ebp], esi
  00337	3b 45 d0	 cmp	 eax, DWORD PTR _dwFrameCount$1$[ebp]
  0033a	0f 8c 40 ff ff
	ff		 jl	 $LL10@OnUpdate
$LN281@OnUpdate:

; 344  : 	{
; 345  : 		m_ParticleInstanceListVector[dwFrameIndex].splice(m_ParticleInstanceListVector[dwFrameIndex].end(),m_ParticleInstanceListVector[dwFrameIndex+dwFrameCount]);
; 346  : 		m_ParticleInstanceListVector[dwFrameIndex+dwFrameCount].clear();
; 347  : 	}
; 348  : 
; 349  : 	return true;

  00340	b0 01		 mov	 al, 1
$LN1@OnUpdate:

; 350  : }

  00342	8b 4d f4	 mov	 ecx, DWORD PTR __$EHRec$[ebp]
  00345	64 89 0d 00 00
	00 00		 mov	 DWORD PTR fs:0, ecx
  0034c	59		 pop	 ecx
  0034d	5f		 pop	 edi
  0034e	5e		 pop	 esi
  0034f	5b		 pop	 ebx
  00350	8b 4d f0	 mov	 ecx, DWORD PTR __$ArrayPad$[ebp]
  00353	33 cd		 xor	 ecx, ebp
  00355	e8 00 00 00 00	 call	 @__security_check_cookie@4
  0035a	8b e5		 mov	 esp, ebp
  0035c	5d		 pop	 ebp
  0035d	c2 04 00	 ret	 4
$LN264@OnUpdate:
; File C:\Program Files (x86)\Microsoft Visual Studio\2019\Professional\VC\Tools\MSVC\14.29.30133\include\list

; 1749 :                 _Xlength_error("list too long");

  00360	68 00 00 00 00	 push	 OFFSET ??_C@_0O@NKNMEGII@list?5too?5long@
  00365	e8 00 00 00 00	 call	 ?_Xlength_error@std@@YAXPBD@Z ; std::_Xlength_error
$LN289@OnUpdate:
  0036a	cc		 int	 3
_TEXT	ENDS
;	COMDAT text$x
text$x	SEGMENT
__unwindfunclet$?OnUpdate@CParticleSystemInstance@@MAE_NM@Z$1:
  00000	8d 4d e8	 lea	 ecx, DWORD PTR __Op$4[ebp]
  00003	e9 00 00 00 00	 jmp	 ??1?$_Alloc_construct_ptr@V?$allocator@U?$_List_node@PAVCParticleInstance@@PAX@std@@@std@@@std@@QAE@XZ ; std::_Alloc_construct_ptr<std::allocator<std::_List_node<CParticleInstance *,void *> > >::~_Alloc_construct_ptr<std::allocator<std::_List_node<CParticleInstance *,void *> > >
  00008	cc		 int	 3
  00009	cc		 int	 3
  0000a	cc		 int	 3
  0000b	cc		 int	 3
  0000c	cc		 int	 3
__ehhandler$?OnUpdate@CParticleSystemInstance@@MAE_NM@Z:
  0000d	90		 npad	 1
  0000e	90		 npad	 1
  0000f	8b 54 24 08	 mov	 edx, DWORD PTR [esp+8]
  00013	8d 42 0c	 lea	 eax, DWORD PTR [edx+12]
  00016	8b 4a c0	 mov	 ecx, DWORD PTR [edx-64]
  00019	33 c8		 xor	 ecx, eax
  0001b	e8 00 00 00 00	 call	 @__security_check_cookie@4
  00020	8b 4a fc	 mov	 ecx, DWORD PTR [edx-4]
  00023	33 c8		 xor	 ecx, eax
  00025	e8 00 00 00 00	 call	 @__security_check_cookie@4
  0002a	b8 00 00 00 00	 mov	 eax, OFFSET __ehfuncinfo$?OnUpdate@CParticleSystemInstance@@MAE_NM@Z
  0002f	e9 00 00 00 00	 jmp	 ___CxxFrameHandler3
text$x	ENDS
?OnUpdate@CParticleSystemInstance@@MAE_NM@Z ENDP	; CParticleSystemInstance::OnUpdate
; Function compile flags: /Ogtp
; File C:\Users\murat\Desktop\Siveps2-1-99-Project\source\client\Client\EffectLib\ParticleSystemInstance.cpp
; File C:\Program Files (x86)\Microsoft Visual Studio\2019\Professional\VC\Tools\MSVC\14.29.30133\include\vector
; File C:\Users\murat\Desktop\Siveps2-1-99-Project\source\client\Client\EffectLib\ParticleSystemInstance.cpp
; File C:\Program Files (x86)\Microsoft Visual Studio\2019\Professional\VC\Tools\MSVC\14.29.30133\include\vector
; File C:\Users\murat\Desktop\Siveps2-1-99-Project\source\client\Client\EffectLib\ParticleSystemInstance.cpp
; File C:\Program Files (x86)\Microsoft Visual Studio\2019\Professional\VC\Tools\MSVC\14.29.30133\include\list
; File C:\Users\murat\Desktop\Siveps2-1-99-Project\source\client\Client\EffectLib\ParticleSystemInstance.cpp
; File C:\Program Files (x86)\Microsoft Visual Studio\2019\Professional\VC\Tools\MSVC\14.29.30133\include\list
; File C:\Users\murat\Desktop\Siveps2-1-99-Project\source\client\Client\EffectLib\ParticleSystemInstance.cpp
; File C:\Program Files (x86)\Microsoft Visual Studio\2019\Professional\VC\Tools\MSVC\14.29.30133\include\list
; File C:\Program Files (x86)\Microsoft Visual Studio\2019\Professional\VC\Tools\MSVC\14.29.30133\include\xmemory
; File C:\Program Files (x86)\Microsoft Visual Studio\2019\Professional\VC\Tools\MSVC\14.29.30133\include\list
; File C:\Program Files (x86)\Microsoft Visual Studio\2019\Professional\VC\Tools\MSVC\14.29.30133\include\vector
; File C:\Users\murat\Desktop\Siveps2-1-99-Project\source\client\Client\EffectLib\ParticleSystemInstance.cpp
; File C:\Program Files (x86)\Microsoft Visual Studio\2019\Professional\VC\Tools\MSVC\14.29.30133\include\vector
; File C:\Program Files (x86)\Microsoft Visual Studio\2019\Professional\VC\Tools\MSVC\14.29.30133\include\algorithm
; File C:\Users\murat\Desktop\Siveps2-1-99-Project\source\client\Client\EffectLib\ParticleSystemInstance.cpp
;	COMDAT ?OnDestroy@CParticleSystemInstance@@MAEXXZ
_TEXT	SEGMENT
?OnDestroy@CParticleSystemInstance@@MAEXXZ PROC		; CParticleSystemInstance::OnDestroy, COMDAT
; _this$ = ecx

; 488  : {

  00000	53		 push	 ebx
  00001	8b d9		 mov	 ebx, ecx
  00003	56		 push	 esi
; File C:\Program Files (x86)\Microsoft Visual Studio\2019\Professional\VC\Tools\MSVC\14.29.30133\include\vector

; 1476 :         return iterator(_My_data._Myfirst, _STD addressof(_My_data));

  00004	8d 73 30	 lea	 esi, DWORD PTR [ebx+48]
; File C:\Users\murat\Desktop\Siveps2-1-99-Project\source\client\Client\EffectLib\ParticleSystemInstance.cpp

; 488  : {

  00007	57		 push	 edi
; File C:\Program Files (x86)\Microsoft Visual Studio\2019\Professional\VC\Tools\MSVC\14.29.30133\include\vector

; 42   :     _CONSTEXPR20_CONTAINER _Vector_const_iterator(_Tptr _Parg, const _Container_base* _Pvector) noexcept : _Ptr(_Parg) {

  00008	8b 3e		 mov	 edi, DWORD PTR [esi]
  0000a	3b 7b 34	 cmp	 edi, DWORD PTR [ebx+52]
; File C:\Users\murat\Desktop\Siveps2-1-99-Project\source\client\Client\EffectLib\ParticleSystemInstance.cpp

; 491  : 	for(i = m_ParticleInstanceListVector.begin(); i!=m_ParticleInstanceListVector.end(); ++i)

  0000d	74 56		 je	 SHORT $LN3@OnDestroy
  0000f	90		 npad	 1
$LL22@OnDestroy:
; File C:\Program Files (x86)\Microsoft Visual Studio\2019\Professional\VC\Tools\MSVC\14.29.30133\include\list

; 1092 :         return iterator(_Mypair._Myval2._Myhead->_Next, _STD addressof(_Mypair._Myval2));

  00010	8b 0f		 mov	 ecx, DWORD PTR [edi]

; 39   :     _List_unchecked_const_iterator(_Nodeptr _Pnode, const _Mylist* _Plist) noexcept : _Ptr(_Pnode) {

  00012	8b 31		 mov	 esi, DWORD PTR [ecx]

; 201  :         return this->_Ptr == _Right._Ptr;

  00014	3b f1		 cmp	 esi, ecx
; File C:\Users\murat\Desktop\Siveps2-1-99-Project\source\client\Client\EffectLib\ParticleSystemInstance.cpp

; 496  : 		for(j = rkLst_kParticleInst.begin(); j!=rkLst_kParticleInst.end(); ++j)

  00016	74 10		 je	 SHORT $LN133@OnDestroy
$LL50@OnDestroy:

; 497  : 		{
; 498  : 			CParticleInstance* pkParticleInst=*j;
; 499  : 			pkParticleInst->DeleteThis();

  00018	8b 4e 08	 mov	 ecx, DWORD PTR [esi+8]
  0001b	e8 00 00 00 00	 call	 ?DeleteThis@CParticleInstance@@QAEXXZ ; CParticleInstance::DeleteThis
; File C:\Program Files (x86)\Microsoft Visual Studio\2019\Professional\VC\Tools\MSVC\14.29.30133\include\list

; 168  :         this->_Ptr = this->_Ptr->_Next;

  00020	8b 36		 mov	 esi, DWORD PTR [esi]

; 39   :     _List_unchecked_const_iterator(_Nodeptr _Pnode, const _Mylist* _Plist) noexcept : _Ptr(_Pnode) {

  00022	8b 0f		 mov	 ecx, DWORD PTR [edi]

; 201  :         return this->_Ptr == _Right._Ptr;

  00024	3b f1		 cmp	 esi, ecx
; File C:\Users\murat\Desktop\Siveps2-1-99-Project\source\client\Client\EffectLib\ParticleSystemInstance.cpp

; 496  : 		for(j = rkLst_kParticleInst.begin(); j!=rkLst_kParticleInst.end(); ++j)

  00026	75 f0		 jne	 SHORT $LL50@OnDestroy
$LN133@OnDestroy:
; File C:\Program Files (x86)\Microsoft Visual Studio\2019\Professional\VC\Tools\MSVC\14.29.30133\include\list

; 328  :         _Head->_Prev->_Next = nullptr;

  00028	8b 41 04	 mov	 eax, DWORD PTR [ecx+4]
  0002b	c7 00 00 00 00
	00		 mov	 DWORD PTR [eax], 0

; 329  : 
; 330  :         auto _Pnode = _Head->_Next;

  00031	8b 01		 mov	 eax, DWORD PTR [ecx]

; 331  :         for (_Nodeptr _Pnext; _Pnode; _Pnode = _Pnext) {

  00033	85 c0		 test	 eax, eax
  00035	74 13		 je	 SHORT $LN71@OnDestroy
$LL72@OnDestroy:

; 332  :             _Pnext = _Pnode->_Next;

  00037	8b 30		 mov	 esi, DWORD PTR [eax]
; File C:\Program Files (x86)\Microsoft Visual Studio\2019\Professional\VC\Tools\MSVC\14.29.30133\include\xmemory

; 264  :         ::operator delete(_Ptr, _Bytes);

  00039	6a 0c		 push	 12			; 0000000cH
  0003b	50		 push	 eax
  0003c	e8 00 00 00 00	 call	 ??3@YAXPAXI@Z		; operator delete
  00041	83 c4 08	 add	 esp, 8
; File C:\Program Files (x86)\Microsoft Visual Studio\2019\Professional\VC\Tools\MSVC\14.29.30133\include\list

; 331  :         for (_Nodeptr _Pnext; _Pnode; _Pnode = _Pnext) {

  00044	8b c6		 mov	 eax, esi
  00046	85 f6		 test	 esi, esi
  00048	75 ed		 jne	 SHORT $LL72@OnDestroy
$LN71@OnDestroy:

; 1430 :         _My_data._Myhead->_Next = _My_data._Myhead;

  0004a	8b 07		 mov	 eax, DWORD PTR [edi]
  0004c	89 00		 mov	 DWORD PTR [eax], eax

; 1431 :         _My_data._Myhead->_Prev = _My_data._Myhead;

  0004e	8b 07		 mov	 eax, DWORD PTR [edi]
  00050	89 40 04	 mov	 DWORD PTR [eax+4], eax

; 1432 :         _My_data._Mysize        = 0;

  00053	c7 47 04 00 00
	00 00		 mov	 DWORD PTR [edi+4], 0
; File C:\Program Files (x86)\Microsoft Visual Studio\2019\Professional\VC\Tools\MSVC\14.29.30133\include\vector

; 78   :         ++_Ptr;

  0005a	83 c7 08	 add	 edi, 8

; 154  :         return _Ptr == _Right._Ptr;

  0005d	3b 7b 34	 cmp	 edi, DWORD PTR [ebx+52]
; File C:\Users\murat\Desktop\Siveps2-1-99-Project\source\client\Client\EffectLib\ParticleSystemInstance.cpp

; 491  : 	for(i = m_ParticleInstanceListVector.begin(); i!=m_ParticleInstanceListVector.end(); ++i)

  00060	75 ae		 jne	 SHORT $LL22@OnDestroy
  00062	8d 73 30	 lea	 esi, DWORD PTR [ebx+48]
$LN3@OnDestroy:
; File C:\Program Files (x86)\Microsoft Visual Studio\2019\Professional\VC\Tools\MSVC\14.29.30133\include\vector

; 1680 :         _Destroy_range(_First, _Last, _Getal());

  00065	56		 push	 esi
  00066	ff 76 04	 push	 DWORD PTR [esi+4]
  00069	ff 36		 push	 DWORD PTR [esi]
  0006b	e8 00 00 00 00	 call	 ??$_Destroy_range@V?$allocator@V?$list@PAVCParticleInstance@@V?$allocator@PAVCParticleInstance@@@std@@@std@@@std@@@std@@YAXPAV?$list@PAVCParticleInstance@@V?$allocator@PAVCParticleInstance@@@std@@@0@QAV10@AAV?$allocator@V?$list@PAVCParticleInstance@@V?$allocator@PAVCParticleInstance@@@std@@@std@@@0@@Z ; std::_Destroy_range<std::allocator<std::list<CParticleInstance *,std::allocator<CParticleInstance *> > > >

; 1456 :         _Mylast = _Myfirst;

  00070	8b 06		 mov	 eax, DWORD PTR [esi]

; 1680 :         _Destroy_range(_First, _Last, _Getal());

  00072	83 c4 0c	 add	 esp, 12			; 0000000cH

; 1456 :         _Mylast = _Myfirst;

  00075	89 46 04	 mov	 DWORD PTR [esi+4], eax

; 42   :     _CONSTEXPR20_CONTAINER _Vector_const_iterator(_Tptr _Parg, const _Container_base* _Pvector) noexcept : _Ptr(_Parg) {

  00078	8b 7b 40	 mov	 edi, DWORD PTR [ebx+64]
  0007b	8b 73 3c	 mov	 esi, DWORD PTR [ebx+60]
; File C:\Program Files (x86)\Microsoft Visual Studio\2019\Professional\VC\Tools\MSVC\14.29.30133\include\algorithm

; 270  :     for (; _UFirst != _ULast; ++_UFirst) {

  0007e	3b f7		 cmp	 esi, edi
  00080	74 1b		 je	 SHORT $LN138@OnDestroy
$LL119@OnDestroy:

; 271  :         _Func(*_UFirst);

  00082	ff 36		 push	 DWORD PTR [esi]
  00084	e8 00 00 00 00	 call	 ?Delete@CGraphicImageInstance@@SAXPAV1@@Z ; CGraphicImageInstance::Delete
  00089	83 c6 04	 add	 esi, 4
  0008c	83 c4 04	 add	 esp, 4
  0008f	3b f7		 cmp	 esi, edi
  00091	75 ef		 jne	 SHORT $LL119@OnDestroy
; File C:\Users\murat\Desktop\Siveps2-1-99-Project\source\client\Client\EffectLib\ParticleSystemInstance.cpp

; 508  : }

  00093	8b 43 3c	 mov	 eax, DWORD PTR [ebx+60]
  00096	5f		 pop	 edi
  00097	5e		 pop	 esi
  00098	89 43 40	 mov	 DWORD PTR [ebx+64], eax
  0009b	5b		 pop	 ebx
  0009c	c3		 ret	 0
$LN138@OnDestroy:
  0009d	5f		 pop	 edi

; 500  : 		}
; 501  : 
; 502  : 		rkLst_kParticleInst.clear();
; 503  : 	}
; 504  : 	m_ParticleInstanceListVector.clear();
; 505  : 
; 506  : 	std::for_each(m_kVct_pkImgInst.begin(), m_kVct_pkImgInst.end(), CGraphicImageInstance::Delete);
; 507  : 	m_kVct_pkImgInst.clear();

  0009e	89 73 40	 mov	 DWORD PTR [ebx+64], esi

; 508  : }

  000a1	5e		 pop	 esi
  000a2	5b		 pop	 ebx
  000a3	c3		 ret	 0
?OnDestroy@CParticleSystemInstance@@MAEXXZ ENDP		; CParticleSystemInstance::OnDestroy
_TEXT	ENDS
; Function compile flags: /Ogtp
; File C:\Users\murat\Desktop\Siveps2-1-99-Project\source\client\Client\EffectLib\ParticleSystemInstance.cpp
;	COMDAT ?OnInitialize@CParticleSystemInstance@@MAEXXZ
_TEXT	SEGMENT
?OnInitialize@CParticleSystemInstance@@MAEXXZ PROC	; CParticleSystemInstance::OnInitialize, COMDAT
; _this$ = ecx

; 482  : 	m_dwCurrentEmissionCount = 0;

  00000	c7 41 28 00 00
	00 00		 mov	 DWORD PTR [ecx+40], 0

; 483  : 	m_iLoopCount = 0;

  00007	c7 41 2c 00 00
	00 00		 mov	 DWORD PTR [ecx+44], 0

; 484  : 	m_fEmissionResidue = 0.0f;

  0000e	c7 41 24 00 00
	00 00		 mov	 DWORD PTR [ecx+36], 0

; 485  : }

  00015	c3		 ret	 0
?OnInitialize@CParticleSystemInstance@@MAEXXZ ENDP	; CParticleSystemInstance::OnInitialize
_TEXT	ENDS
; Function compile flags: /Ogtp
; File C:\Users\murat\Desktop\Siveps2-1-99-Project\source\client\Client\EffectLib\ParticleSystemInstance.cpp
;	COMDAT ?GetEmissionCount@CParticleSystemInstance@@QAEKXZ
_TEXT	SEGMENT
?GetEmissionCount@CParticleSystemInstance@@QAEKXZ PROC	; CParticleSystemInstance::GetEmissionCount, COMDAT
; _this$ = ecx

; 35   : 	return m_dwCurrentEmissionCount;

  00000	8b 41 28	 mov	 eax, DWORD PTR [ecx+40]

; 36   : }

  00003	c3		 ret	 0
?GetEmissionCount@CParticleSystemInstance@@QAEKXZ ENDP	; CParticleSystemInstance::GetEmissionCount
_TEXT	ENDS
; Function compile flags: /Ogtp
; File C:\Users\murat\Desktop\Siveps2-1-99-Project\source\client\Client\EffectLib\ParticleSystemInstance.cpp
; File C:\Program Files (x86)\Windows Kits\10\Include\10.0.19041.0\ucrt\corecrt_math.h
; File C:\Users\murat\Desktop\Siveps2-1-99-Project\source\client\Client\EffectLib\ParticleSystemInstance.cpp
; File C:\Program Files (x86)\Windows Kits\10\Include\10.0.19041.0\ucrt\corecrt_math.h
; File C:\Users\murat\Desktop\Siveps2-1-99-Project\source\client\Client\EffectLib\ParticleSystemInstance.cpp
; File C:\Users\murat\Desktop\Siveps2-1-99-Project\source\client\extern\include\d3dx8math.inl
; File C:\Users\murat\Desktop\Siveps2-1-99-Project\source\client\Client\EffectLib\ParticleSystemInstance.cpp
; File C:\Users\murat\Desktop\Siveps2-1-99-Project\source\client\extern\include\d3dx8math.inl
; File C:\Users\murat\Desktop\Siveps2-1-99-Project\source\client\Client\EffectLib\ParticleSystemInstance.cpp
; File C:\Users\murat\Desktop\Siveps2-1-99-Project\source\client\extern\include\d3dx8math.inl
; File C:\Users\murat\Desktop\Siveps2-1-99-Project\source\client\Client\EffectLib\ParticleSystemInstance.cpp
; File C:\Users\murat\Desktop\Siveps2-1-99-Project\source\client\extern\include\d3dx8math.inl
; File C:\Users\murat\Desktop\Siveps2-1-99-Project\source\client\Client\EffectLib\ParticleSystemInstance.cpp
; File C:\Users\murat\Desktop\Siveps2-1-99-Project\source\client\extern\include\d3dx8math.inl
; File C:\Users\murat\Desktop\Siveps2-1-99-Project\source\client\Client\EffectLib\ParticleSystemInstance.cpp
; File C:\Users\murat\Desktop\Siveps2-1-99-Project\source\client\extern\include\d3dx8math.inl
; File C:\Users\murat\Desktop\Siveps2-1-99-Project\source\client\Client\EffectLib\ParticleSystemInstance.cpp
; File C:\Users\murat\Desktop\Siveps2-1-99-Project\source\client\extern\include\d3dx8math.inl
; File C:\Users\murat\Desktop\Siveps2-1-99-Project\source\client\Client\EffectLib\ParticleSystemInstance.cpp
; File C:\Users\murat\Desktop\Siveps2-1-99-Project\source\client\extern\include\d3dx8math.inl
; File C:\Users\murat\Desktop\Siveps2-1-99-Project\source\client\Client\EffectLib\ParticleSystemInstance.cpp
; File C:\Users\murat\Desktop\Siveps2-1-99-Project\source\client\extern\include\d3dx8math.inl
; File C:\Users\murat\Desktop\Siveps2-1-99-Project\source\client\Client\EffectLib\ParticleSystemInstance.cpp
; File C:\Users\murat\Desktop\Siveps2-1-99-Project\source\client\extern\include\d3dx8math.inl
; File C:\Users\murat\Desktop\Siveps2-1-99-Project\source\client\Client\EffectLib\ParticleSystemInstance.cpp
; File C:\Users\murat\Desktop\Siveps2-1-99-Project\source\client\extern\include\d3dx8math.inl
; File C:\Users\murat\Desktop\Siveps2-1-99-Project\source\client\Client\EffectLib\ParticleSystemInstance.cpp
; File C:\Users\murat\Desktop\Siveps2-1-99-Project\source\client\extern\include\d3dx8math.inl
; File C:\Users\murat\Desktop\Siveps2-1-99-Project\source\client\Client\EffectLib\ParticleSystemInstance.cpp
; File C:\Program Files (x86)\Microsoft Visual Studio\2019\Professional\VC\Tools\MSVC\14.29.30133\include\vector
; File C:\Users\murat\Desktop\Siveps2-1-99-Project\source\client\Client\EffectLib\ParticleSystemInstance.cpp
; File C:\Program Files (x86)\Microsoft Visual Studio\2019\Professional\VC\Tools\MSVC\14.29.30133\include\vector
; File C:\Users\murat\Desktop\Siveps2-1-99-Project\source\client\Client\EffectLib\ParticleSystemInstance.cpp
; File C:\Program Files (x86)\Microsoft Visual Studio\2019\Professional\VC\Tools\MSVC\14.29.30133\include\vector
; File C:\Users\murat\Desktop\Siveps2-1-99-Project\source\client\Client\EffectLib\ParticleSystemInstance.cpp
; File C:\Users\murat\Desktop\Siveps2-1-99-Project\source\client\extern\include\d3dx8math.inl
; File C:\Users\murat\Desktop\Siveps2-1-99-Project\source\client\Client\EffectLib\ParticleSystemInstance.cpp
; File C:\Users\murat\Desktop\Siveps2-1-99-Project\source\client\extern\include\d3dx8math.inl
; File C:\Users\murat\Desktop\Siveps2-1-99-Project\source\client\Client\EffectLib\ParticleSystemInstance.cpp
; File C:\Users\murat\Desktop\Siveps2-1-99-Project\source\client\extern\include\d3dx8math.inl
; File C:\Users\murat\Desktop\Siveps2-1-99-Project\source\client\Client\EffectLib\ParticleSystemInstance.cpp
; File C:\Users\murat\Desktop\Siveps2-1-99-Project\source\client\extern\include\d3dx8math.inl
; File C:\Users\murat\Desktop\Siveps2-1-99-Project\source\client\Client\EffectLib\ParticleSystemInstance.cpp
; File C:\Users\murat\Desktop\Siveps2-1-99-Project\source\client\Client\EffectLib\Type.h
; File C:\Users\murat\Desktop\Siveps2-1-99-Project\source\client\Client\EffectLib\ParticleSystemInstance.cpp
; File C:\Users\murat\Desktop\Siveps2-1-99-Project\source\client\Client\EffectLib\EffectUpdateDecorator.h
; File C:\Users\murat\Desktop\Siveps2-1-99-Project\source\client\Client\EffectLib\ParticleSystemInstance.cpp
; File C:\Program Files (x86)\Microsoft Visual Studio\2019\Professional\VC\Tools\MSVC\14.29.30133\include\vector
; File C:\Program Files (x86)\Microsoft Visual Studio\2019\Professional\VC\Tools\MSVC\14.29.30133\include\list
; File C:\Program Files (x86)\Microsoft Visual Studio\2019\Professional\VC\Tools\MSVC\14.29.30133\include\vector
; File C:\Program Files (x86)\Microsoft Visual Studio\2019\Professional\VC\Tools\MSVC\14.29.30133\include\list
; File C:\Program Files (x86)\Microsoft Visual Studio\2019\Professional\VC\Tools\MSVC\14.29.30133\include\vector
; File C:\Program Files (x86)\Microsoft Visual Studio\2019\Professional\VC\Tools\MSVC\14.29.30133\include\list
; File C:\Program Files (x86)\Microsoft Visual Studio\2019\Professional\VC\Tools\MSVC\14.29.30133\include\xmemory
; File C:\Program Files (x86)\Microsoft Visual Studio\2019\Professional\VC\Tools\MSVC\14.29.30133\include\list
; File C:\Program Files (x86)\Microsoft Visual Studio\2019\Professional\VC\Tools\MSVC\14.29.30133\include\xmemory
; File C:\Program Files (x86)\Microsoft Visual Studio\2019\Professional\VC\Tools\MSVC\14.29.30133\include\list
; File C:\Program Files (x86)\Microsoft Visual Studio\2019\Professional\VC\Tools\MSVC\14.29.30133\include\xmemory
; File C:\Program Files (x86)\Microsoft Visual Studio\2019\Professional\VC\Tools\MSVC\14.29.30133\include\list
; File C:\Users\murat\Desktop\Siveps2-1-99-Project\source\client\Client\EffectLib\ParticleSystemInstance.cpp
; File C:\Program Files (x86)\Microsoft Visual Studio\2019\Professional\VC\Tools\MSVC\14.29.30133\include\list
; File C:\Users\murat\Desktop\Siveps2-1-99-Project\source\client\Client\EffectLib\ParticleSystemInstance.cpp
; File C:\Program Files (x86)\Microsoft Visual Studio\2019\Professional\VC\Tools\MSVC\14.29.30133\include\list
; File C:\Users\murat\Desktop\Siveps2-1-99-Project\source\client\Client\EffectLib\ParticleSystemInstance.cpp
;	COMDAT ?CreateParticles@CParticleSystemInstance@@QAEXM@Z
_TEXT	SEGMENT
$T2 = -172						; size = 12
_v2HalfSize$ = -160					; size = 8
_this$GSCopy$1$ = -152					; size = 4
_fEmissionCount$ = -148					; size = 4
_i$1$ = -144						; size = 4
_fElapsedTime$GSCopy$1$ = -140				; size = 4
_fLieRotation$1$ = -136					; size = 4
_fVelocity$ = -132					; size = 4
$T3 = -128						; size = 4
_pNewDecorator$1$ = -128				; size = 4
_pFirstInstance$1$ = -124				; size = 4
tv2611 = -120						; size = 8
tv2607 = -120						; size = 8
tv2601 = -120						; size = 8
__Op$4 = -120						; size = 8
_iCreatingCount$1$ = -108				; size = 4
_fLifeTime$ = -104					; size = 4
_fEmittingSize$ = -100					; size = 4
__Where$1$ = -96					; size = 4
_pDest$1$ = -96						; size = 4
tv1157 = -96						; size = 4
tv1106 = -96						; size = 4
_f$ = -96						; size = 4
tv750 = -96						; size = 4
tv662 = -96						; size = 4
$T5 = -92						; size = 12
$T6 = -80						; size = 12
__v3TimePosition$ = -68					; size = 12
__v3Velocity$ = -56					; size = 12
_v3Velocity$7 = -44					; size = 12
_v3TimePosition$8 = -32					; size = 12
__$ArrayPad$ = -20					; size = 4
__$EHRec$ = -12						; size = 12
_fElapsedTime$ = 8					; size = 4
?CreateParticles@CParticleSystemInstance@@QAEXM@Z PROC	; CParticleSystemInstance::CreateParticles, COMDAT
; _this$ = ecx

; 39   : {

  00000	53		 push	 ebx
  00001	8b dc		 mov	 ebx, esp
  00003	83 ec 08	 sub	 esp, 8
  00006	83 e4 f8	 and	 esp, -8			; fffffff8H
  00009	83 c4 04	 add	 esp, 4
  0000c	55		 push	 ebp
  0000d	8b 6b 04	 mov	 ebp, DWORD PTR [ebx+4]
  00010	89 6c 24 04	 mov	 DWORD PTR [esp+4], ebp
  00014	8b ec		 mov	 ebp, esp
  00016	6a ff		 push	 -1
  00018	68 00 00 00 00	 push	 __ehhandler$?CreateParticles@CParticleSystemInstance@@QAEXM@Z
  0001d	64 a1 00 00 00
	00		 mov	 eax, DWORD PTR fs:0
  00023	50		 push	 eax
  00024	53		 push	 ebx
  00025	81 ec a0 00 00
	00		 sub	 esp, 160		; 000000a0H
  0002b	a1 00 00 00 00	 mov	 eax, DWORD PTR ___security_cookie
  00030	33 c5		 xor	 eax, ebp
  00032	89 45 ec	 mov	 DWORD PTR __$ArrayPad$[ebp], eax
  00035	56		 push	 esi
  00036	57		 push	 edi
  00037	50		 push	 eax
  00038	8d 45 f4	 lea	 eax, DWORD PTR __$EHRec$[ebp]
  0003b	64 a3 00 00 00
	00		 mov	 DWORD PTR fs:0, eax
  00041	8b f1		 mov	 esi, ecx
  00043	89 b5 68 ff ff
	ff		 mov	 DWORD PTR _this$GSCopy$1$[ebp], esi
  00049	f3 0f 10 43 08	 movss	 xmm0, DWORD PTR _fElapsedTime$[ebx]

; 40   : 	float fEmissionCount;
; 41   : 	m_pEmitterProperty->GetEmissionCountPerSecond(m_fLocalTime, &fEmissionCount);

  0004e	8d 85 6c ff ff
	ff		 lea	 eax, DWORD PTR _fEmissionCount$[ebp]
  00054	50		 push	 eax
  00055	f3 0f 11 85 74
	ff ff ff	 movss	 DWORD PTR _fElapsedTime$GSCopy$1$[ebp], xmm0
  0005d	f3 0f 10 46 0c	 movss	 xmm0, DWORD PTR [esi+12]
  00062	51		 push	 ecx
  00063	8b 4e 50	 mov	 ecx, DWORD PTR [esi+80]
  00066	f3 0f 11 04 24	 movss	 DWORD PTR [esp], xmm0
  0006b	e8 00 00 00 00	 call	 ?GetEmissionCountPerSecond@CEmitterProperty@@QAEXMPAM@Z ; CEmitterProperty::GetEmissionCountPerSecond

; 42   : 
; 43   : 	float fCreatingValue = fEmissionCount * (fElapsedTime / 1.0f) + m_fEmissionResidue;

  00070	f3 0f 10 8d 74
	ff ff ff	 movss	 xmm1, DWORD PTR _fElapsedTime$GSCopy$1$[ebp]

; 44   : 	int iCreatingCount = int(fCreatingValue);
; 45   : 	m_fEmissionResidue = fCreatingValue - iCreatingCount;
; 46   : 
; 47   : 	int icurEmissionCount = GetEmissionCount();

  00078	8b ce		 mov	 ecx, esi
  0007a	f3 0f 59 8d 6c
	ff ff ff	 mulss	 xmm1, DWORD PTR _fEmissionCount$[ebp]
  00082	f3 0f 58 4e 24	 addss	 xmm1, DWORD PTR [esi+36]
  00087	f3 0f 2c f9	 cvttss2si edi, xmm1
  0008b	66 0f 6e c7	 movd	 xmm0, edi
  0008f	0f 5b c0	 cvtdq2ps xmm0, xmm0
  00092	f3 0f 5c c8	 subss	 xmm1, xmm0
  00096	f3 0f 11 4e 24	 movss	 DWORD PTR [esi+36], xmm1
  0009b	e8 00 00 00 00	 call	 ?GetEmissionCount@CParticleSystemInstance@@QAEKXZ ; CParticleSystemInstance::GetEmissionCount

; 48   : 	int iMaxEmissionCount = int(m_pEmitterProperty->GetMaxEmissionCount());

  000a0	8b 56 50	 mov	 edx, DWORD PTR [esi+80]
  000a3	0f 57 c0	 xorps	 xmm0, xmm0

; 49   : 	int iNextEmissionCount = int(icurEmissionCount + iCreatingCount);
; 50   : 	iCreatingCount -= max(0, iNextEmissionCount - iMaxEmissionCount);
; 51   : 
; 52   : 	float fLifeTime = 0.0f;
; 53   : 	float fEmittingSize = 0.0f;
; 54   : 	D3DXVECTOR3 _v3TimePosition;
; 55   : 	D3DXVECTOR3 _v3Velocity;
; 56   : 	float fVelocity = 0.0f;
; 57   : 	D3DXVECTOR2 v2HalfSize;
; 58   : 	float fLieRotation = 0;

  000a6	f3 0f 11 85 78
	ff ff ff	 movss	 DWORD PTR _fLieRotation$1$[ebp], xmm0
  000ae	8d 0c 38	 lea	 ecx, DWORD PTR [eax+edi]
  000b1	b8 00 00 00 00	 mov	 eax, 0
  000b6	2b 4a 04	 sub	 ecx, DWORD PTR [edx+4]
  000b9	c7 45 98 00 00
	00 00		 mov	 DWORD PTR _fLifeTime$[ebp], 0
  000c0	0f 49 c1	 cmovns	 eax, ecx
  000c3	c7 45 9c 00 00
	00 00		 mov	 DWORD PTR _fEmittingSize$[ebp], 0
  000ca	2b f8		 sub	 edi, eax
  000cc	c7 85 7c ff ff
	ff 00 00 00 00	 mov	 DWORD PTR _fVelocity$[ebp], 0
  000d6	89 7d 94	 mov	 DWORD PTR _iCreatingCount$1$[ebp], edi

; 59   : 	if (iCreatingCount)

  000d9	0f 84 89 01 00
	00		 je	 $LN10@CreatePart

; 60   : 	{
; 61   : 		m_pEmitterProperty->GetParticleLifeTime(m_fLocalTime, &fLifeTime);

  000df	f3 0f 10 46 0c	 movss	 xmm0, DWORD PTR [esi+12]
  000e4	8d 45 98	 lea	 eax, DWORD PTR _fLifeTime$[ebp]
  000e7	50		 push	 eax
  000e8	51		 push	 ecx
  000e9	8b ca		 mov	 ecx, edx
  000eb	f3 0f 11 04 24	 movss	 DWORD PTR [esp], xmm0
  000f0	e8 00 00 00 00	 call	 ?GetParticleLifeTime@CEmitterProperty@@QAEXMPAM@Z ; CEmitterProperty::GetParticleLifeTime

; 62   : 		if (fLifeTime==0.0f)

  000f5	f3 0f 10 45 98	 movss	 xmm0, DWORD PTR _fLifeTime$[ebp]
  000fa	0f 57 c9	 xorps	 xmm1, xmm1
  000fd	0f 2e c1	 ucomiss xmm0, xmm1
  00100	9f		 lahf
  00101	f6 c4 44	 test	 ah, 68			; 00000044H
  00104	0f 8b 1e 09 00
	00		 jnp	 $LN3@CreatePart

; 63   : 		{
; 64   : 			return;
; 65   : 		}
; 66   : 
; 67   : 		m_pEmitterProperty->GetEmittingSize(m_fLocalTime, &fEmittingSize);

  0010a	f3 0f 10 46 0c	 movss	 xmm0, DWORD PTR [esi+12]
  0010f	8d 45 9c	 lea	 eax, DWORD PTR _fEmittingSize$[ebp]
  00112	50		 push	 eax
  00113	51		 push	 ecx
  00114	8b 4e 50	 mov	 ecx, DWORD PTR [esi+80]
  00117	f3 0f 11 04 24	 movss	 DWORD PTR [esp], xmm0
  0011c	e8 00 00 00 00	 call	 ?GetEmittingSize@CEmitterProperty@@QAEXMPAM@Z ; CEmitterProperty::GetEmittingSize

; 68   : 
; 69   : 		m_pData->GetPosition(m_fLocalTime, _v3TimePosition);

  00121	f3 0f 10 46 0c	 movss	 xmm0, DWORD PTR [esi+12]
  00126	8d 45 bc	 lea	 eax, DWORD PTR __v3TimePosition$[ebp]
  00129	50		 push	 eax
  0012a	51		 push	 ecx
  0012b	8b 4e 48	 mov	 ecx, DWORD PTR [esi+72]
  0012e	f3 0f 11 04 24	 movss	 DWORD PTR [esp], xmm0
  00133	e8 00 00 00 00	 call	 ?GetPosition@CEffectElementBase@@QAEXMAAUD3DXVECTOR3@@@Z ; CEffectElementBase::GetPosition

; 70   : 
; 71   : 		m_pEmitterProperty->GetEmittingDirectionX(m_fLocalTime, &_v3Velocity.x);

  00138	f3 0f 10 46 0c	 movss	 xmm0, DWORD PTR [esi+12]
  0013d	8d 45 c8	 lea	 eax, DWORD PTR __v3Velocity$[ebp]
  00140	50		 push	 eax
  00141	51		 push	 ecx
  00142	8b 4e 50	 mov	 ecx, DWORD PTR [esi+80]
  00145	f3 0f 11 04 24	 movss	 DWORD PTR [esp], xmm0
  0014a	e8 00 00 00 00	 call	 ?GetEmittingDirectionX@CEmitterProperty@@QAEXMPAM@Z ; CEmitterProperty::GetEmittingDirectionX

; 72   : 		m_pEmitterProperty->GetEmittingDirectionY(m_fLocalTime, &_v3Velocity.y);

  0014f	f3 0f 10 46 0c	 movss	 xmm0, DWORD PTR [esi+12]
  00154	8d 45 cc	 lea	 eax, DWORD PTR __v3Velocity$[ebp+4]
  00157	50		 push	 eax
  00158	51		 push	 ecx
  00159	8b 4e 50	 mov	 ecx, DWORD PTR [esi+80]
  0015c	f3 0f 11 04 24	 movss	 DWORD PTR [esp], xmm0
  00161	e8 00 00 00 00	 call	 ?GetEmittingDirectionY@CEmitterProperty@@QAEXMPAM@Z ; CEmitterProperty::GetEmittingDirectionY

; 73   : 		m_pEmitterProperty->GetEmittingDirectionZ(m_fLocalTime, &_v3Velocity.z);

  00166	f3 0f 10 46 0c	 movss	 xmm0, DWORD PTR [esi+12]
  0016b	8d 45 d0	 lea	 eax, DWORD PTR __v3Velocity$[ebp+8]
  0016e	50		 push	 eax
  0016f	51		 push	 ecx
  00170	8b 4e 50	 mov	 ecx, DWORD PTR [esi+80]
  00173	f3 0f 11 04 24	 movss	 DWORD PTR [esp], xmm0
  00178	e8 00 00 00 00	 call	 ?GetEmittingDirectionZ@CEmitterProperty@@QAEXMPAM@Z ; CEmitterProperty::GetEmittingDirectionZ

; 74   : 
; 75   : 		m_pEmitterProperty->GetEmittingVelocity(m_fLocalTime, &fVelocity);

  0017d	f3 0f 10 46 0c	 movss	 xmm0, DWORD PTR [esi+12]
  00182	8d 85 7c ff ff
	ff		 lea	 eax, DWORD PTR _fVelocity$[ebp]
  00188	50		 push	 eax
  00189	51		 push	 ecx
  0018a	8b 4e 50	 mov	 ecx, DWORD PTR [esi+80]
  0018d	f3 0f 11 04 24	 movss	 DWORD PTR [esp], xmm0
  00192	e8 00 00 00 00	 call	 ?GetEmittingVelocity@CEmitterProperty@@QAEXMPAM@Z ; CEmitterProperty::GetEmittingVelocity

; 76   : 
; 77   : 		m_pEmitterProperty->GetParticleSizeX(m_fLocalTime, &v2HalfSize.x);

  00197	f3 0f 10 46 0c	 movss	 xmm0, DWORD PTR [esi+12]
  0019c	8d 85 60 ff ff
	ff		 lea	 eax, DWORD PTR _v2HalfSize$[ebp]
  001a2	50		 push	 eax
  001a3	51		 push	 ecx
  001a4	8b 4e 50	 mov	 ecx, DWORD PTR [esi+80]
  001a7	f3 0f 11 04 24	 movss	 DWORD PTR [esp], xmm0
  001ac	e8 00 00 00 00	 call	 ?GetParticleSizeX@CEmitterProperty@@QAEXMPAM@Z ; CEmitterProperty::GetParticleSizeX

; 78   : 		m_pEmitterProperty->GetParticleSizeY(m_fLocalTime, &v2HalfSize.y);

  001b1	f3 0f 10 46 0c	 movss	 xmm0, DWORD PTR [esi+12]
  001b6	8d 85 64 ff ff
	ff		 lea	 eax, DWORD PTR _v2HalfSize$[ebp+4]
  001bc	50		 push	 eax
  001bd	51		 push	 ecx
  001be	8b 4e 50	 mov	 ecx, DWORD PTR [esi+80]
  001c1	f3 0f 11 04 24	 movss	 DWORD PTR [esp], xmm0
  001c6	e8 00 00 00 00	 call	 ?GetParticleSizeY@CEmitterProperty@@QAEXMPAM@Z ; CEmitterProperty::GetParticleSizeY

; 79   : 
; 80   : 		if (BILLBOARD_TYPE_LIE == m_pParticleProperty->m_byBillboardType && mc_pmatLocal)

  001cb	8b 46 4c	 mov	 eax, DWORD PTR [esi+76]
  001ce	80 78 13 03	 cmp	 BYTE PTR [eax+19], 3
  001d2	0f 85 90 00 00
	00		 jne	 $LN10@CreatePart
  001d8	8b 7e 04	 mov	 edi, DWORD PTR [esi+4]
  001db	85 ff		 test	 edi, edi
  001dd	0f 84 82 00 00
	00		 je	 $LN168@CreatePart

; 81   : 		{
; 82   : 			float fsx = mc_pmatLocal->_32;

  001e3	f3 0f 10 4f 24	 movss	 xmm1, DWORD PTR [edi+36]

; 83   : 			float fcx = sqrtf(1.0f - fsx * fsx);

  001e8	f3 0f 10 05 00
	00 00 00	 movss	 xmm0, DWORD PTR __real@3f800000
  001f0	f3 0f 59 c9	 mulss	 xmm1, xmm1
  001f4	f3 0f 5c c1	 subss	 xmm0, xmm1
  001f8	0f 57 c9	 xorps	 xmm1, xmm1
; File C:\Program Files (x86)\Windows Kits\10\Include\10.0.19041.0\ucrt\corecrt_math.h

; 758  :             return (float)sqrt(_X);

  001fb	0f 5a c0	 cvtps2pd xmm0, xmm0
  001fe	66 0f 2e c8	 ucomisd xmm1, xmm0
  00202	77 06		 ja	 SHORT $LN170@CreatePart
  00204	f2 0f 51 c0	 sqrtsd	 xmm0, xmm0
  00208	eb 05		 jmp	 SHORT $LN171@CreatePart
$LN170@CreatePart:
  0020a	e8 00 00 00 00	 call	 __libm_sse2_sqrt_precise
$LN171@CreatePart:
  0020f	f2 0f 5a c0	 cvtsd2ss xmm0, xmm0
; File C:\Users\murat\Desktop\Siveps2-1-99-Project\source\client\Client\EffectLib\ParticleSystemInstance.cpp

; 85   : 			if (fcx >= 0.00001f)

  00213	0f 2f 05 00 00
	00 00		 comiss	 xmm0, DWORD PTR __real@3727c5ac
  0021a	72 49		 jb	 SHORT $LN168@CreatePart

; 86   : 				fLieRotation = D3DXToDegree(atan2f(-mc_pmatLocal->_12, mc_pmatLocal->_22));

  0021c	f3 0f 10 47 04	 movss	 xmm0, DWORD PTR [edi+4]
  00221	0f 57 05 00 00
	00 00		 xorps	 xmm0, DWORD PTR __xmm@80000000800000008000000080000000
; File C:\Program Files (x86)\Windows Kits\10\Include\10.0.19041.0\ucrt\corecrt_math.h

; 632  :             return (float)atan2(_Y, _X);

  00228	f3 0f 5a c0	 cvtss2sd xmm0, xmm0
  0022c	f2 0f 11 45 88	 movsd	 QWORD PTR tv2611[ebp], xmm0
  00231	f3 0f 10 47 14	 movss	 xmm0, DWORD PTR [edi+20]
  00236	dd 45 88	 fld	 QWORD PTR tv2611[ebp]
  00239	0f 5a c0	 cvtps2pd xmm0, xmm0
  0023c	f2 0f 11 45 88	 movsd	 QWORD PTR tv2607[ebp], xmm0
  00241	dd 45 88	 fld	 QWORD PTR tv2607[ebp]
  00244	e8 00 00 00 00	 call	 __CIatan2
  00249	dd 5d 88	 fstp	 QWORD PTR tv2601[ebp]
  0024c	f2 0f 10 4d 88	 movsd	 xmm1, QWORD PTR tv2601[ebp]
  00251	66 0f 5a c9	 cvtpd2ps xmm1, xmm1
; File C:\Users\murat\Desktop\Siveps2-1-99-Project\source\client\Client\EffectLib\ParticleSystemInstance.cpp

; 86   : 				fLieRotation = D3DXToDegree(atan2f(-mc_pmatLocal->_12, mc_pmatLocal->_22));

  00255	f3 0f 59 0d 00
	00 00 00	 mulss	 xmm1, DWORD PTR __real@42652ee0
  0025d	f3 0f 11 8d 78
	ff ff ff	 movss	 DWORD PTR _fLieRotation$1$[ebp], xmm1
$LN168@CreatePart:

; 87   : 		}
; 88   : 
; 89   : 	}
; 90   : 
; 91   : 	CParticleInstance * pFirstInstance = 0;

  00265	8b 7d 94	 mov	 edi, DWORD PTR _iCreatingCount$1$[ebp]
$LN10@CreatePart:
  00268	c7 45 84 00 00
	00 00		 mov	 DWORD PTR _pFirstInstance$1$[ebp], 0

; 93   : 	for (int i = 0; i < iCreatingCount; ++i)

  0026f	c7 85 70 ff ff
	ff 00 00 00 00	 mov	 DWORD PTR _i$1$[ebp], 0
  00279	85 ff		 test	 edi, edi
  0027b	0f 8e a7 07 00
	00		 jle	 $LN3@CreatePart
$LL4@CreatePart:

; 94   : 	{
; 95   : 		CParticleInstance * pInstance;
; 96   : 
; 97   : 		pInstance = CParticleInstance::New();

  00281	e8 00 00 00 00	 call	 ?New@CParticleInstance@@SAPAV1@XZ ; CParticleInstance::New

; 98   : 		pInstance->m_pParticleProperty = m_pParticleProperty;

  00286	8b 4e 4c	 mov	 ecx, DWORD PTR [esi+76]
  00289	8b f8		 mov	 edi, eax
  0028b	89 4f 5c	 mov	 DWORD PTR [edi+92], ecx

; 99   : 		pInstance->m_pEmitterProperty = m_pEmitterProperty;

  0028e	8b 4e 50	 mov	 ecx, DWORD PTR [esi+80]
  00291	89 4f 60	 mov	 DWORD PTR [edi+96], ecx

; 100  : 
; 101  : 		// LifeTime
; 102  : 		pInstance->m_fLifeTime = fLifeTime;

  00294	f3 0f 10 45 98	 movss	 xmm0, DWORD PTR _fLifeTime$[ebp]
  00299	f3 0f 11 47 54	 movss	 DWORD PTR [edi+84], xmm0

; 103  : 		pInstance->m_fLastLifeTime = fLifeTime;

  0029e	f3 0f 10 45 98	 movss	 xmm0, DWORD PTR _fLifeTime$[ebp]
  002a3	f3 0f 11 47 58	 movss	 DWORD PTR [edi+88], xmm0

; 104  : 
; 105  : 		// Position
; 106  : 		switch (m_pEmitterProperty->GetEmitterShape())

  002a8	8b 4e 50	 mov	 ecx, DWORD PTR [esi+80]
  002ab	e8 00 00 00 00	 call	 ?GetEmitterShape@CEmitterProperty@@QAEEXZ ; CEmitterProperty::GetEmitterShape
  002b0	0f b6 c0	 movzx	 eax, al
  002b3	83 f8 03	 cmp	 eax, 3
  002b6	0f 87 f7 01 00
	00		 ja	 $LN18@CreatePart
  002bc	ff 24 85 00 00
	00 00		 jmp	 DWORD PTR $LN166@CreatePart[eax*4]
$LN11@CreatePart:

; 107  : 		{
; 108  : 			case CEmitterProperty::EMITTER_SHAPE_POINT:
; 109  : 				pInstance->m_v3Position.x = 0.0f;

  002c3	c7 47 0c 00 00
	00 00		 mov	 DWORD PTR [edi+12], 0

; 110  : 				pInstance->m_v3Position.y = 0.0f;

  002ca	c7 47 10 00 00
	00 00		 mov	 DWORD PTR [edi+16], 0

; 111  : 				pInstance->m_v3Position.z = 0.0f;

  002d1	c7 47 14 00 00
	00 00		 mov	 DWORD PTR [edi+20], 0

; 112  : 				break;

  002d8	e9 d6 01 00 00	 jmp	 $LN18@CreatePart
$LN12@CreatePart:

; 113  : 
; 114  : 			case CEmitterProperty::EMITTER_SHAPE_ELLIPSE:
; 115  : 				pInstance->m_v3Position.x = frandom(-500.0f, 500.0f);

  002dd	83 ec 08	 sub	 esp, 8
  002e0	c7 44 24 04 00
	00 fa 43	 mov	 DWORD PTR [esp+4], 1140457472 ; 43fa0000H
  002e8	c7 04 24 00 00
	fa c3		 mov	 DWORD PTR [esp], -1007026176 ; c3fa0000H
  002ef	e8 00 00 00 00	 call	 ?frandom@@YAMMM@Z	; frandom
  002f4	d9 5f 0c	 fstp	 DWORD PTR [edi+12]

; 116  : 				pInstance->m_v3Position.y = frandom(-500.0f, 500.0f);

  002f7	c7 44 24 04 00
	00 fa 43	 mov	 DWORD PTR [esp+4], 1140457472 ; 43fa0000H
  002ff	c7 04 24 00 00
	fa c3		 mov	 DWORD PTR [esp], -1007026176 ; c3fa0000H
  00306	e8 00 00 00 00	 call	 ?frandom@@YAMMM@Z	; frandom
  0030b	83 c4 08	 add	 esp, 8

; 117  : 				pInstance->m_v3Position.z = 0.0f;
; 118  : 				D3DXVec3Normalize(&pInstance->m_v3Position, &pInstance->m_v3Position);

  0030e	8d 47 0c	 lea	 eax, DWORD PTR [edi+12]
  00311	d9 5f 10	 fstp	 DWORD PTR [edi+16]
  00314	c7 47 14 00 00
	00 00		 mov	 DWORD PTR [edi+20], 0
  0031b	50		 push	 eax
  0031c	50		 push	 eax
  0031d	e8 00 00 00 00	 call	 _D3DXVec3Normalize@8

; 119  : 
; 120  : 				if (m_pEmitterProperty->isEmitFromEdge())

  00322	8b 4e 50	 mov	 ecx, DWORD PTR [esi+80]
  00325	e8 00 00 00 00	 call	 ?isEmitFromEdge@CEmitterProperty@@QAEHXZ ; CEmitterProperty::isEmitFromEdge
  0032a	85 c0		 test	 eax, eax
  0032c	8b 46 50	 mov	 eax, DWORD PTR [esi+80]
  0032f	0f 84 32 01 00
	00		 je	 $LN13@CreatePart

; 121  : 				{
; 122  : 					pInstance->m_v3Position *= (m_pEmitterProperty->m_fEmittingRadius + fEmittingSize);

  00335	f3 0f 10 4d 9c	 movss	 xmm1, DWORD PTR _fEmittingSize$[ebp]
  0033a	f3 0f 58 48 28	 addss	 xmm1, DWORD PTR [eax+40]

; 123  : 				}

  0033f	e9 4b 01 00 00	 jmp	 $LN173@CreatePart
$LN15@CreatePart:

; 124  : 				else
; 125  : 				{
; 126  : 					pInstance->m_v3Position *= (frandom(0.0f, m_pEmitterProperty->m_fEmittingRadius) + fEmittingSize);
; 127  : 				}
; 128  : 				break;
; 129  : 
; 130  : 			case CEmitterProperty::EMITTER_SHAPE_SQUARE:
; 131  : 				pInstance->m_v3Position.x = (frandom(-m_pEmitterProperty->m_v3EmittingSize.x/2.0f, m_pEmitterProperty->m_v3EmittingSize.x/2.0f) + fEmittingSize);

  00344	8b 46 50	 mov	 eax, DWORD PTR [esi+80]
  00347	83 ec 08	 sub	 esp, 8
  0034a	f3 0f 10 48 1c	 movss	 xmm1, DWORD PTR [eax+28]
  0034f	0f 28 c1	 movaps	 xmm0, xmm1
  00352	0f 57 0d 00 00
	00 00		 xorps	 xmm1, DWORD PTR __xmm@80000000800000008000000080000000
  00359	f3 0f 59 05 00
	00 00 00	 mulss	 xmm0, DWORD PTR __real@3f000000
  00361	f3 0f 59 0d 00
	00 00 00	 mulss	 xmm1, DWORD PTR __real@3f000000
  00369	f3 0f 11 44 24
	04		 movss	 DWORD PTR [esp+4], xmm0
  0036f	f3 0f 11 0c 24	 movss	 DWORD PTR [esp], xmm1
  00374	e8 00 00 00 00	 call	 ?frandom@@YAMMM@Z	; frandom
  00379	d8 45 9c	 fadd	 DWORD PTR _fEmittingSize$[ebp]
  0037c	d9 5f 0c	 fstp	 DWORD PTR [edi+12]

; 132  : 				pInstance->m_v3Position.y = (frandom(-m_pEmitterProperty->m_v3EmittingSize.y/2.0f, m_pEmitterProperty->m_v3EmittingSize.y/2.0f) + fEmittingSize);

  0037f	8b 46 50	 mov	 eax, DWORD PTR [esi+80]
  00382	f3 0f 10 48 20	 movss	 xmm1, DWORD PTR [eax+32]
  00387	0f 28 c1	 movaps	 xmm0, xmm1
  0038a	0f 57 0d 00 00
	00 00		 xorps	 xmm1, DWORD PTR __xmm@80000000800000008000000080000000
  00391	f3 0f 59 05 00
	00 00 00	 mulss	 xmm0, DWORD PTR __real@3f000000
  00399	f3 0f 59 0d 00
	00 00 00	 mulss	 xmm1, DWORD PTR __real@3f000000
  003a1	f3 0f 11 44 24
	04		 movss	 DWORD PTR [esp+4], xmm0
  003a7	f3 0f 11 0c 24	 movss	 DWORD PTR [esp], xmm1
  003ac	e8 00 00 00 00	 call	 ?frandom@@YAMMM@Z	; frandom
  003b1	d8 45 9c	 fadd	 DWORD PTR _fEmittingSize$[ebp]
  003b4	d9 5f 10	 fstp	 DWORD PTR [edi+16]

; 133  : 				pInstance->m_v3Position.z = (frandom(-m_pEmitterProperty->m_v3EmittingSize.z/2.0f, m_pEmitterProperty->m_v3EmittingSize.z/2.0f) + fEmittingSize);

  003b7	8b 46 50	 mov	 eax, DWORD PTR [esi+80]
  003ba	f3 0f 10 48 24	 movss	 xmm1, DWORD PTR [eax+36]
  003bf	0f 28 c1	 movaps	 xmm0, xmm1
  003c2	0f 57 0d 00 00
	00 00		 xorps	 xmm1, DWORD PTR __xmm@80000000800000008000000080000000
  003c9	f3 0f 59 05 00
	00 00 00	 mulss	 xmm0, DWORD PTR __real@3f000000
  003d1	f3 0f 59 0d 00
	00 00 00	 mulss	 xmm1, DWORD PTR __real@3f000000
  003d9	f3 0f 11 44 24
	04		 movss	 DWORD PTR [esp+4], xmm0
  003df	f3 0f 11 0c 24	 movss	 DWORD PTR [esp], xmm1
  003e4	e8 00 00 00 00	 call	 ?frandom@@YAMMM@Z	; frandom
  003e9	d8 45 9c	 fadd	 DWORD PTR _fEmittingSize$[ebp]
  003ec	83 c4 08	 add	 esp, 8
  003ef	d9 5f 14	 fstp	 DWORD PTR [edi+20]

; 134  : 				break;

  003f2	e9 bc 00 00 00	 jmp	 $LN18@CreatePart
$LN16@CreatePart:

; 135  : 
; 136  : 			case CEmitterProperty::EMITTER_SHAPE_SPHERE:
; 137  : 				pInstance->m_v3Position.x = frandom(-500.0f, 500.0f);

  003f7	83 ec 08	 sub	 esp, 8
  003fa	c7 44 24 04 00
	00 fa 43	 mov	 DWORD PTR [esp+4], 1140457472 ; 43fa0000H
  00402	c7 04 24 00 00
	fa c3		 mov	 DWORD PTR [esp], -1007026176 ; c3fa0000H
  00409	e8 00 00 00 00	 call	 ?frandom@@YAMMM@Z	; frandom
  0040e	d9 5f 0c	 fstp	 DWORD PTR [edi+12]

; 138  : 				pInstance->m_v3Position.y = frandom(-500.0f, 500.0f);

  00411	c7 44 24 04 00
	00 fa 43	 mov	 DWORD PTR [esp+4], 1140457472 ; 43fa0000H
  00419	c7 04 24 00 00
	fa c3		 mov	 DWORD PTR [esp], -1007026176 ; c3fa0000H
  00420	e8 00 00 00 00	 call	 ?frandom@@YAMMM@Z	; frandom
  00425	d9 5f 10	 fstp	 DWORD PTR [edi+16]

; 139  : 				pInstance->m_v3Position.z = frandom(-500.0f, 500.0f);

  00428	c7 44 24 04 00
	00 fa 43	 mov	 DWORD PTR [esp+4], 1140457472 ; 43fa0000H
  00430	c7 04 24 00 00
	fa c3		 mov	 DWORD PTR [esp], -1007026176 ; c3fa0000H
  00437	e8 00 00 00 00	 call	 ?frandom@@YAMMM@Z	; frandom
  0043c	83 c4 08	 add	 esp, 8

; 140  : 				D3DXVec3Normalize(&pInstance->m_v3Position, &pInstance->m_v3Position);

  0043f	8d 47 0c	 lea	 eax, DWORD PTR [edi+12]
  00442	d9 5f 14	 fstp	 DWORD PTR [edi+20]
  00445	50		 push	 eax
  00446	50		 push	 eax
  00447	e8 00 00 00 00	 call	 _D3DXVec3Normalize@8

; 141  : 
; 142  : 				if (m_pEmitterProperty->isEmitFromEdge())

  0044c	8b 4e 50	 mov	 ecx, DWORD PTR [esi+80]
  0044f	e8 00 00 00 00	 call	 ?isEmitFromEdge@CEmitterProperty@@QAEHXZ ; CEmitterProperty::isEmitFromEdge
  00454	85 c0		 test	 eax, eax
  00456	8b 46 50	 mov	 eax, DWORD PTR [esi+80]
  00459	74 0c		 je	 SHORT $LN13@CreatePart

; 143  : 				{
; 144  : 					pInstance->m_v3Position *= (m_pEmitterProperty->m_fEmittingRadius + fEmittingSize);

  0045b	f3 0f 10 4d 9c	 movss	 xmm1, DWORD PTR _fEmittingSize$[ebp]
  00460	f3 0f 58 48 28	 addss	 xmm1, DWORD PTR [eax+40]

; 145  : 				}

  00465	eb 28		 jmp	 SHORT $LN173@CreatePart
$LN13@CreatePart:

; 154  : 		D3DXVECTOR3 v3TimePosition=_v3TimePosition;

  00467	f3 0f 10 40 28	 movss	 xmm0, DWORD PTR [eax+40]
  0046c	83 ec 08	 sub	 esp, 8
  0046f	f3 0f 11 44 24
	04		 movss	 DWORD PTR [esp+4], xmm0
  00475	c7 04 24 00 00
	00 00		 mov	 DWORD PTR [esp], 0
  0047c	e8 00 00 00 00	 call	 ?frandom@@YAMMM@Z	; frandom
  00481	d8 45 9c	 fadd	 DWORD PTR _fEmittingSize$[ebp]
  00484	83 c4 08	 add	 esp, 8
  00487	d9 5d a0	 fstp	 DWORD PTR _f$[ebp]
  0048a	f3 0f 10 4d a0	 movss	 xmm1, DWORD PTR _f$[ebp]
$LN173@CreatePart:
  0048f	0f 28 c1	 movaps	 xmm0, xmm1
  00492	f3 0f 59 47 0c	 mulss	 xmm0, DWORD PTR [edi+12]
  00497	f3 0f 11 47 0c	 movss	 DWORD PTR [edi+12], xmm0
  0049c	0f 28 c1	 movaps	 xmm0, xmm1
  0049f	f3 0f 59 4f 14	 mulss	 xmm1, DWORD PTR [edi+20]
  004a4	f3 0f 59 47 10	 mulss	 xmm0, DWORD PTR [edi+16]
  004a9	f3 0f 11 4f 14	 movss	 DWORD PTR [edi+20], xmm1
  004ae	f3 0f 11 47 10	 movss	 DWORD PTR [edi+16], xmm0
$LN18@CreatePart:
  004b3	f3 0f 7e 45 bc	 movq	 xmm0, QWORD PTR __v3TimePosition$[ebp]

; 155  : 
; 156  : 		pInstance->m_v3Position += v3TimePosition;

  004b8	8d 4f 0c	 lea	 ecx, DWORD PTR [edi+12]
  004bb	8b 45 c4	 mov	 eax, DWORD PTR __v3TimePosition$[ebp+8]
  004be	66 0f d6 45 e0	 movq	 QWORD PTR _v3TimePosition$8[ebp], xmm0
; File C:\Users\murat\Desktop\Siveps2-1-99-Project\source\client\extern\include\d3dx8math.inl

; 204  :     x += v.x;

  004c3	f3 0f 10 45 bc	 movss	 xmm0, DWORD PTR __v3TimePosition$[ebp]
; File C:\Users\murat\Desktop\Siveps2-1-99-Project\source\client\Client\EffectLib\ParticleSystemInstance.cpp

; 154  : 		D3DXVECTOR3 v3TimePosition=_v3TimePosition;

  004c8	89 45 e8	 mov	 DWORD PTR _v3TimePosition$8[ebp+8], eax
; File C:\Users\murat\Desktop\Siveps2-1-99-Project\source\client\extern\include\d3dx8math.inl

; 204  :     x += v.x;

  004cb	f3 0f 58 01	 addss	 xmm0, DWORD PTR [ecx]
  004cf	f3 0f 11 01	 movss	 DWORD PTR [ecx], xmm0

; 205  :     y += v.y;

  004d3	f3 0f 10 45 e4	 movss	 xmm0, DWORD PTR _v3TimePosition$8[ebp+4]
  004d8	f3 0f 58 41 04	 addss	 xmm0, DWORD PTR [ecx+4]
  004dd	f3 0f 11 41 04	 movss	 DWORD PTR [ecx+4], xmm0

; 206  :     z += v.z;

  004e2	f3 0f 10 45 e8	 movss	 xmm0, DWORD PTR _v3TimePosition$8[ebp+8]
  004e7	f3 0f 58 41 08	 addss	 xmm0, DWORD PTR [ecx+8]
  004ec	f3 0f 11 41 08	 movss	 DWORD PTR [ecx+8], xmm0
; File C:\Users\murat\Desktop\Siveps2-1-99-Project\source\client\Client\EffectLib\ParticleSystemInstance.cpp

; 158  : 		if (mc_pmatLocal && !m_pParticleProperty->m_bAttachFlag)

  004f1	8b 56 04	 mov	 edx, DWORD PTR [esi+4]
  004f4	85 d2		 test	 edx, edx
  004f6	74 1e		 je	 SHORT $LN19@CreatePart
  004f8	8b 46 4c	 mov	 eax, DWORD PTR [esi+76]
  004fb	83 78 20 00	 cmp	 DWORD PTR [eax+32], 0
  004ff	75 15		 jne	 SHORT $LN19@CreatePart

; 159  : 		{
; 160  : 			D3DXVec3TransformCoord(&pInstance->m_v3Position,&pInstance->m_v3Position,mc_pmatLocal);

  00501	52		 push	 edx
  00502	51		 push	 ecx
  00503	51		 push	 ecx
  00504	e8 00 00 00 00	 call	 _D3DXVec3TransformCoord@12

; 161  : 			D3DXVec3TransformCoord(&v3TimePosition, &v3TimePosition, mc_pmatLocal);

  00509	ff 76 04	 push	 DWORD PTR [esi+4]
  0050c	8d 45 e0	 lea	 eax, DWORD PTR _v3TimePosition$8[ebp]
  0050f	50		 push	 eax
  00510	50		 push	 eax
  00511	e8 00 00 00 00	 call	 _D3DXVec3TransformCoord@12
$LN19@CreatePart:

; 162  : 		}
; 163  : 		pInstance->m_v3StartPosition = v3TimePosition;

  00516	f3 0f 7e 45 e0	 movq	 xmm0, QWORD PTR _v3TimePosition$8[ebp]
  0051b	66 0f d6 07	 movq	 QWORD PTR [edi], xmm0
  0051f	8b 45 e8	 mov	 eax, DWORD PTR _v3TimePosition$8[ebp+8]
  00522	89 47 08	 mov	 DWORD PTR [edi+8], eax

; 164  : 		// NOTE : Update   Rendering   length 0   .
; 165  : 		//        Velocity         - [levites]
; 166  : 		//pInstance->m_v3LastPosition = pInstance->m_v3Position;
; 167  : 
; 168  : 		// Direction & Velocity
; 169  : 		pInstance->m_v3Velocity.x = 0.0f;

  00525	c7 47 24 00 00
	00 00		 mov	 DWORD PTR [edi+36], 0

; 170  : 		pInstance->m_v3Velocity.y = 0.0f;

  0052c	c7 47 28 00 00
	00 00		 mov	 DWORD PTR [edi+40], 0

; 171  : 		pInstance->m_v3Velocity.z = 0.0f;

  00533	c7 47 2c 00 00
	00 00		 mov	 DWORD PTR [edi+44], 0

; 172  : 
; 173  : 		if (CEmitterProperty::EMITTER_ADVANCED_TYPE_INNER == m_pEmitterProperty->GetEmitterAdvancedType())

  0053a	8b 4e 50	 mov	 ecx, DWORD PTR [esi+80]
  0053d	e8 00 00 00 00	 call	 ?GetEmitterAdvancedType@CEmitterProperty@@QAEEXZ ; CEmitterProperty::GetEmitterAdvancedType
  00542	3c 02		 cmp	 al, 2
  00544	75 47		 jne	 SHORT $LN20@CreatePart
; File C:\Users\murat\Desktop\Siveps2-1-99-Project\source\client\extern\include\d3dx8math.inl

; 263  :     return D3DXVECTOR3(x - v.x, y - v.y, z - v.z);

  00546	f3 0f 10 57 0c	 movss	 xmm2, DWORD PTR [edi+12]
; File C:\Users\murat\Desktop\Siveps2-1-99-Project\source\client\Client\EffectLib\ParticleSystemInstance.cpp

; 175  : 			D3DXVec3Normalize(&pInstance->m_v3Velocity, &(pInstance->m_v3Position-v3TimePosition));

  0054b	8d 45 b0	 lea	 eax, DWORD PTR $T6[ebp]
; File C:\Users\murat\Desktop\Siveps2-1-99-Project\source\client\extern\include\d3dx8math.inl

; 263  :     return D3DXVECTOR3(x - v.x, y - v.y, z - v.z);

  0054e	f3 0f 10 4f 10	 movss	 xmm1, DWORD PTR [edi+16]
  00553	f3 0f 10 47 14	 movss	 xmm0, DWORD PTR [edi+20]
  00558	f3 0f 5c 55 e0	 subss	 xmm2, DWORD PTR _v3TimePosition$8[ebp]
  0055d	f3 0f 5c 4d e4	 subss	 xmm1, DWORD PTR _v3TimePosition$8[ebp+4]
  00562	f3 0f 5c 45 e8	 subss	 xmm0, DWORD PTR _v3TimePosition$8[ebp+8]
; File C:\Users\murat\Desktop\Siveps2-1-99-Project\source\client\Client\EffectLib\ParticleSystemInstance.cpp

; 175  : 			D3DXVec3Normalize(&pInstance->m_v3Velocity, &(pInstance->m_v3Position-v3TimePosition));

  00567	50		 push	 eax
  00568	8d 47 24	 lea	 eax, DWORD PTR [edi+36]
  0056b	50		 push	 eax
; File C:\Users\murat\Desktop\Siveps2-1-99-Project\source\client\extern\include\d3dx8math.inl

; 180  :     x = fx;

  0056c	f3 0f 11 55 b0	 movss	 DWORD PTR $T6[ebp], xmm2

; 181  :     y = fy;

  00571	f3 0f 11 4d b4	 movss	 DWORD PTR $T6[ebp+4], xmm1

; 182  :     z = fz;

  00576	f3 0f 11 45 b8	 movss	 DWORD PTR $T6[ebp+8], xmm0
; File C:\Users\murat\Desktop\Siveps2-1-99-Project\source\client\Client\EffectLib\ParticleSystemInstance.cpp

; 175  : 			D3DXVec3Normalize(&pInstance->m_v3Velocity, &(pInstance->m_v3Position-v3TimePosition));

  0057b	e8 00 00 00 00	 call	 _D3DXVec3Normalize@8
; File C:\Users\murat\Desktop\Siveps2-1-99-Project\source\client\extern\include\d3dx8math.inl

; 222  :     x *= f;

  00580	f3 0f 10 0d 00
	00 00 00	 movss	 xmm1, DWORD PTR __real@c2c80000
; File C:\Users\murat\Desktop\Siveps2-1-99-Project\source\client\Client\EffectLib\ParticleSystemInstance.cpp

; 177  : 		}

  00588	e9 ab 00 00 00	 jmp	 $LN174@CreatePart
$LN20@CreatePart:

; 178  : 		else if (CEmitterProperty::EMITTER_ADVANCED_TYPE_OUTER == m_pEmitterProperty->GetEmitterAdvancedType())

  0058d	8b 4e 50	 mov	 ecx, DWORD PTR [esi+80]
  00590	e8 00 00 00 00	 call	 ?GetEmitterAdvancedType@CEmitterProperty@@QAEEXZ ; CEmitterProperty::GetEmitterAdvancedType
  00595	3c 01		 cmp	 al, 1
  00597	0f 85 c5 00 00
	00		 jne	 $LN24@CreatePart

; 179  : 		{
; 180  : 			if (m_pEmitterProperty->GetEmitterShape() == CEmitterProperty::EMITTER_SHAPE_POINT)

  0059d	8b 4e 50	 mov	 ecx, DWORD PTR [esi+80]
  005a0	e8 00 00 00 00	 call	 ?GetEmitterShape@CEmitterProperty@@QAEEXZ ; CEmitterProperty::GetEmitterShape
  005a5	84 c0		 test	 al, al
  005a7	75 4d		 jne	 SHORT $LN23@CreatePart

; 181  : 			{
; 182  : 				pInstance->m_v3Velocity.x = frandom(-100.0f, 100.0f);

  005a9	83 ec 08	 sub	 esp, 8
  005ac	c7 44 24 04 00
	00 c8 42	 mov	 DWORD PTR [esp+4], 1120403456 ; 42c80000H
  005b4	c7 04 24 00 00
	c8 c2		 mov	 DWORD PTR [esp], -1027080192 ; c2c80000H
  005bb	e8 00 00 00 00	 call	 ?frandom@@YAMMM@Z	; frandom
  005c0	d9 5f 24	 fstp	 DWORD PTR [edi+36]

; 183  : 				pInstance->m_v3Velocity.y = frandom(-100.0f, 100.0f);

  005c3	c7 44 24 04 00
	00 c8 42	 mov	 DWORD PTR [esp+4], 1120403456 ; 42c80000H
  005cb	c7 04 24 00 00
	c8 c2		 mov	 DWORD PTR [esp], -1027080192 ; c2c80000H
  005d2	e8 00 00 00 00	 call	 ?frandom@@YAMMM@Z	; frandom
  005d7	d9 5f 28	 fstp	 DWORD PTR [edi+40]

; 184  : 				pInstance->m_v3Velocity.z = frandom(-100.0f, 100.0f);

  005da	c7 44 24 04 00
	00 c8 42	 mov	 DWORD PTR [esp+4], 1120403456 ; 42c80000H
  005e2	c7 04 24 00 00
	c8 c2		 mov	 DWORD PTR [esp], -1027080192 ; c2c80000H
  005e9	e8 00 00 00 00	 call	 ?frandom@@YAMMM@Z	; frandom
  005ee	d9 5f 2c	 fstp	 DWORD PTR [edi+44]
  005f1	83 c4 08	 add	 esp, 8

; 185  : 			}

  005f4	eb 6c		 jmp	 SHORT $LN24@CreatePart
$LN23@CreatePart:
; File C:\Users\murat\Desktop\Siveps2-1-99-Project\source\client\extern\include\d3dx8math.inl

; 263  :     return D3DXVECTOR3(x - v.x, y - v.y, z - v.z);

  005f6	f3 0f 10 57 0c	 movss	 xmm2, DWORD PTR [edi+12]
; File C:\Users\murat\Desktop\Siveps2-1-99-Project\source\client\Client\EffectLib\ParticleSystemInstance.cpp

; 188  : 				D3DXVec3Normalize(&pInstance->m_v3Velocity, &(pInstance->m_v3Position-v3TimePosition));

  005fb	8d 45 a4	 lea	 eax, DWORD PTR $T5[ebp]
; File C:\Users\murat\Desktop\Siveps2-1-99-Project\source\client\extern\include\d3dx8math.inl

; 263  :     return D3DXVECTOR3(x - v.x, y - v.y, z - v.z);

  005fe	f3 0f 10 4f 10	 movss	 xmm1, DWORD PTR [edi+16]
  00603	f3 0f 10 47 14	 movss	 xmm0, DWORD PTR [edi+20]
  00608	f3 0f 5c 55 e0	 subss	 xmm2, DWORD PTR _v3TimePosition$8[ebp]
  0060d	f3 0f 5c 4d e4	 subss	 xmm1, DWORD PTR _v3TimePosition$8[ebp+4]
  00612	f3 0f 5c 45 e8	 subss	 xmm0, DWORD PTR _v3TimePosition$8[ebp+8]
; File C:\Users\murat\Desktop\Siveps2-1-99-Project\source\client\Client\EffectLib\ParticleSystemInstance.cpp

; 188  : 				D3DXVec3Normalize(&pInstance->m_v3Velocity, &(pInstance->m_v3Position-v3TimePosition));

  00617	50		 push	 eax
  00618	8d 47 24	 lea	 eax, DWORD PTR [edi+36]
  0061b	50		 push	 eax
; File C:\Users\murat\Desktop\Siveps2-1-99-Project\source\client\extern\include\d3dx8math.inl

; 180  :     x = fx;

  0061c	f3 0f 11 55 a4	 movss	 DWORD PTR $T5[ebp], xmm2

; 181  :     y = fy;

  00621	f3 0f 11 4d a8	 movss	 DWORD PTR $T5[ebp+4], xmm1

; 182  :     z = fz;

  00626	f3 0f 11 45 ac	 movss	 DWORD PTR $T5[ebp+8], xmm0
; File C:\Users\murat\Desktop\Siveps2-1-99-Project\source\client\Client\EffectLib\ParticleSystemInstance.cpp

; 188  : 				D3DXVec3Normalize(&pInstance->m_v3Velocity, &(pInstance->m_v3Position-v3TimePosition));

  0062b	e8 00 00 00 00	 call	 _D3DXVec3Normalize@8
; File C:\Users\murat\Desktop\Siveps2-1-99-Project\source\client\extern\include\d3dx8math.inl

; 222  :     x *= f;

  00630	f3 0f 10 0d 00
	00 00 00	 movss	 xmm1, DWORD PTR __real@42c80000
$LN174@CreatePart:
; File C:\Users\murat\Desktop\Siveps2-1-99-Project\source\client\Client\EffectLib\ParticleSystemInstance.cpp

; 193  : 		D3DXVECTOR3 v3Velocity = _v3Velocity;

  00638	f3 0f 10 47 24	 movss	 xmm0, DWORD PTR [edi+36]
  0063d	f3 0f 59 c1	 mulss	 xmm0, xmm1
  00641	f3 0f 11 47 24	 movss	 DWORD PTR [edi+36], xmm0
  00646	f3 0f 10 47 28	 movss	 xmm0, DWORD PTR [edi+40]
  0064b	f3 0f 59 c1	 mulss	 xmm0, xmm1
  0064f	f3 0f 11 47 28	 movss	 DWORD PTR [edi+40], xmm0
  00654	f3 0f 10 47 2c	 movss	 xmm0, DWORD PTR [edi+44]
  00659	f3 0f 59 c1	 mulss	 xmm0, xmm1
  0065d	f3 0f 11 47 2c	 movss	 DWORD PTR [edi+44], xmm0
$LN24@CreatePart:
  00662	f3 0f 7e 45 c8	 movq	 xmm0, QWORD PTR __v3Velocity$[ebp]

; 194  : 		if (mc_pmatLocal && !m_pParticleProperty->m_bAttachFlag)

  00667	8b 4e 04	 mov	 ecx, DWORD PTR [esi+4]
  0066a	8b 45 d0	 mov	 eax, DWORD PTR __v3Velocity$[ebp+8]
  0066d	66 0f d6 45 d4	 movq	 QWORD PTR _v3Velocity$7[ebp], xmm0
  00672	89 45 dc	 mov	 DWORD PTR _v3Velocity$7[ebp+8], eax
  00675	85 c9		 test	 ecx, ecx
  00677	74 14		 je	 SHORT $LN25@CreatePart
  00679	8b 46 4c	 mov	 eax, DWORD PTR [esi+76]
  0067c	83 78 20 00	 cmp	 DWORD PTR [eax+32], 0
  00680	75 0b		 jne	 SHORT $LN25@CreatePart

; 195  : 		{
; 196  : 			D3DXVec3TransformNormal(&v3Velocity, &v3Velocity, mc_pmatLocal);

  00682	51		 push	 ecx
  00683	8d 45 d4	 lea	 eax, DWORD PTR _v3Velocity$7[ebp]
  00686	50		 push	 eax
  00687	50		 push	 eax
  00688	e8 00 00 00 00	 call	 _D3DXVec3TransformNormal@12
$LN25@CreatePart:
; File C:\Users\murat\Desktop\Siveps2-1-99-Project\source\client\extern\include\d3dx8math.inl

; 204  :     x += v.x;

  0068d	f3 0f 10 45 d4	 movss	 xmm0, DWORD PTR _v3Velocity$7[ebp]
  00692	f3 0f 58 47 24	 addss	 xmm0, DWORD PTR [edi+36]
  00697	f3 0f 11 47 24	 movss	 DWORD PTR [edi+36], xmm0

; 205  :     y += v.y;

  0069c	f3 0f 10 45 d8	 movss	 xmm0, DWORD PTR _v3Velocity$7[ebp+4]
  006a1	f3 0f 58 47 28	 addss	 xmm0, DWORD PTR [edi+40]
  006a6	f3 0f 11 47 28	 movss	 DWORD PTR [edi+40], xmm0

; 206  :     z += v.z;

  006ab	f3 0f 10 45 dc	 movss	 xmm0, DWORD PTR _v3Velocity$7[ebp+8]
  006b0	f3 0f 58 47 2c	 addss	 xmm0, DWORD PTR [edi+44]
  006b5	f3 0f 11 47 2c	 movss	 DWORD PTR [edi+44], xmm0
  006ba	0f 57 c0	 xorps	 xmm0, xmm0
; File C:\Users\murat\Desktop\Siveps2-1-99-Project\source\client\Client\EffectLib\ParticleSystemInstance.cpp

; 200  : 		if (m_pEmitterProperty->m_v3EmittingDirection.x > 0.0f)

  006bd	8b 46 50	 mov	 eax, DWORD PTR [esi+80]
  006c0	f3 0f 10 48 2c	 movss	 xmm1, DWORD PTR [eax+44]
  006c5	0f 2f c8	 comiss	 xmm1, xmm0
  006c8	76 4e		 jbe	 SHORT $LN26@CreatePart

; 201  : 			pInstance->m_v3Velocity.x += frandom(-m_pEmitterProperty->m_v3EmittingDirection.x/2.0f, m_pEmitterProperty->m_v3EmittingDirection.x/2.0f) * 1000.0f;

  006ca	0f 28 c1	 movaps	 xmm0, xmm1
  006cd	83 ec 08	 sub	 esp, 8
  006d0	0f 57 0d 00 00
	00 00		 xorps	 xmm1, DWORD PTR __xmm@80000000800000008000000080000000
  006d7	f3 0f 59 05 00
	00 00 00	 mulss	 xmm0, DWORD PTR __real@3f000000
  006df	f3 0f 59 0d 00
	00 00 00	 mulss	 xmm1, DWORD PTR __real@3f000000
  006e7	f3 0f 11 44 24
	04		 movss	 DWORD PTR [esp+4], xmm0
  006ed	f3 0f 11 0c 24	 movss	 DWORD PTR [esp], xmm1
  006f2	e8 00 00 00 00	 call	 ?frandom@@YAMMM@Z	; frandom
  006f7	d8 0d 00 00 00
	00		 fmul	 DWORD PTR __real@447a0000
  006fd	83 c4 08	 add	 esp, 8
  00700	d9 5d a0	 fstp	 DWORD PTR tv1157[ebp]
  00703	f3 0f 10 45 a0	 movss	 xmm0, DWORD PTR tv1157[ebp]
  00708	f3 0f 58 47 24	 addss	 xmm0, DWORD PTR [edi+36]
  0070d	f3 0f 11 47 24	 movss	 DWORD PTR [edi+36], xmm0
  00712	0f 57 c0	 xorps	 xmm0, xmm0
  00715	8b 46 50	 mov	 eax, DWORD PTR [esi+80]
$LN26@CreatePart:

; 202  : 		if (m_pEmitterProperty->m_v3EmittingDirection.y > 0.0f)

  00718	f3 0f 10 48 30	 movss	 xmm1, DWORD PTR [eax+48]
  0071d	0f 2f c8	 comiss	 xmm1, xmm0
  00720	76 4e		 jbe	 SHORT $LN27@CreatePart

; 203  : 			pInstance->m_v3Velocity.y += frandom(-m_pEmitterProperty->m_v3EmittingDirection.y/2.0f, m_pEmitterProperty->m_v3EmittingDirection.y/2.0f) * 1000.0f;

  00722	0f 28 c1	 movaps	 xmm0, xmm1
  00725	83 ec 08	 sub	 esp, 8
  00728	0f 57 0d 00 00
	00 00		 xorps	 xmm1, DWORD PTR __xmm@80000000800000008000000080000000
  0072f	f3 0f 59 05 00
	00 00 00	 mulss	 xmm0, DWORD PTR __real@3f000000
  00737	f3 0f 59 0d 00
	00 00 00	 mulss	 xmm1, DWORD PTR __real@3f000000
  0073f	f3 0f 11 44 24
	04		 movss	 DWORD PTR [esp+4], xmm0
  00745	f3 0f 11 0c 24	 movss	 DWORD PTR [esp], xmm1
  0074a	e8 00 00 00 00	 call	 ?frandom@@YAMMM@Z	; frandom
  0074f	d8 0d 00 00 00
	00		 fmul	 DWORD PTR __real@447a0000
  00755	83 c4 08	 add	 esp, 8
  00758	d9 5d a0	 fstp	 DWORD PTR tv1106[ebp]
  0075b	f3 0f 10 45 a0	 movss	 xmm0, DWORD PTR tv1106[ebp]
  00760	f3 0f 58 47 28	 addss	 xmm0, DWORD PTR [edi+40]
  00765	f3 0f 11 47 28	 movss	 DWORD PTR [edi+40], xmm0
  0076a	0f 57 c0	 xorps	 xmm0, xmm0
  0076d	8b 46 50	 mov	 eax, DWORD PTR [esi+80]
$LN27@CreatePart:

; 204  : 		if (m_pEmitterProperty->m_v3EmittingDirection.z > 0.0f)

  00770	f3 0f 10 48 34	 movss	 xmm1, DWORD PTR [eax+52]
  00775	0f 2f c8	 comiss	 xmm1, xmm0
  00778	76 48		 jbe	 SHORT $LN28@CreatePart

; 205  : 			pInstance->m_v3Velocity.z += frandom(-m_pEmitterProperty->m_v3EmittingDirection.z/2.0f, m_pEmitterProperty->m_v3EmittingDirection.z/2.0f) * 1000.0f;

  0077a	0f 28 c1	 movaps	 xmm0, xmm1
  0077d	83 ec 08	 sub	 esp, 8
  00780	0f 57 0d 00 00
	00 00		 xorps	 xmm1, DWORD PTR __xmm@80000000800000008000000080000000
  00787	f3 0f 59 05 00
	00 00 00	 mulss	 xmm0, DWORD PTR __real@3f000000
  0078f	f3 0f 59 0d 00
	00 00 00	 mulss	 xmm1, DWORD PTR __real@3f000000
  00797	f3 0f 11 44 24
	04		 movss	 DWORD PTR [esp+4], xmm0
  0079d	f3 0f 11 0c 24	 movss	 DWORD PTR [esp], xmm1
  007a2	e8 00 00 00 00	 call	 ?frandom@@YAMMM@Z	; frandom
  007a7	d8 0d 00 00 00
	00		 fmul	 DWORD PTR __real@447a0000
  007ad	83 c4 08	 add	 esp, 8
  007b0	d9 5d a0	 fstp	 DWORD PTR tv662[ebp]
  007b3	f3 0f 10 45 a0	 movss	 xmm0, DWORD PTR tv662[ebp]
  007b8	f3 0f 58 47 2c	 addss	 xmm0, DWORD PTR [edi+44]
  007bd	f3 0f 11 47 2c	 movss	 DWORD PTR [edi+44], xmm0
$LN28@CreatePart:

; 206  : 
; 207  : 		pInstance->m_v3Velocity *= fVelocity;

  007c2	f3 0f 10 8d 7c
	ff ff ff	 movss	 xmm1, DWORD PTR _fVelocity$[ebp]

; 214  : 		pInstance->m_fRotation = frandom(m_pParticleProperty->m_wRotationRandomStartingBegin,m_pParticleProperty->m_wRotationRandomStartingEnd);

  007ca	83 ec 08	 sub	 esp, 8
; File C:\Users\murat\Desktop\Siveps2-1-99-Project\source\client\extern\include\d3dx8math.inl

; 222  :     x *= f;

  007cd	0f 28 c1	 movaps	 xmm0, xmm1
  007d0	f3 0f 59 47 24	 mulss	 xmm0, DWORD PTR [edi+36]
  007d5	f3 0f 11 47 24	 movss	 DWORD PTR [edi+36], xmm0

; 223  :     y *= f;

  007da	0f 28 c1	 movaps	 xmm0, xmm1
  007dd	f3 0f 59 47 28	 mulss	 xmm0, DWORD PTR [edi+40]

; 224  :     z *= f;

  007e2	f3 0f 59 4f 2c	 mulss	 xmm1, DWORD PTR [edi+44]
  007e7	f3 0f 11 47 28	 movss	 DWORD PTR [edi+40], xmm0
  007ec	f3 0f 11 4f 2c	 movss	 DWORD PTR [edi+44], xmm1
; File C:\Users\murat\Desktop\Siveps2-1-99-Project\source\client\Client\EffectLib\ParticleSystemInstance.cpp

; 210  : 		pInstance->m_v2HalfSize = v2HalfSize;

  007f1	8b 85 60 ff ff
	ff		 mov	 eax, DWORD PTR _v2HalfSize$[ebp]
  007f7	8b 8d 64 ff ff
	ff		 mov	 ecx, DWORD PTR _v2HalfSize$[ebp+4]
  007fd	89 47 30	 mov	 DWORD PTR [edi+48], eax
  00800	89 4f 34	 mov	 DWORD PTR [edi+52], ecx

; 211  : 
; 212  : 		// Rotation
; 213  : 		pInstance->m_fRotation = m_pParticleProperty->m_wRotationRandomStartingBegin;

  00803	8b 46 4c	 mov	 eax, DWORD PTR [esi+76]
  00806	0f b7 40 1c	 movzx	 eax, WORD PTR [eax+28]
  0080a	66 0f 6e c0	 movd	 xmm0, eax
  0080e	0f 5b c0	 cvtdq2ps xmm0, xmm0
  00811	f3 0f 11 47 40	 movss	 DWORD PTR [edi+64], xmm0

; 214  : 		pInstance->m_fRotation = frandom(m_pParticleProperty->m_wRotationRandomStartingBegin,m_pParticleProperty->m_wRotationRandomStartingEnd);

  00816	8b 4e 4c	 mov	 ecx, DWORD PTR [esi+76]
  00819	0f b7 41 1e	 movzx	 eax, WORD PTR [ecx+30]
  0081d	66 0f 6e c0	 movd	 xmm0, eax
  00821	0f b7 41 1c	 movzx	 eax, WORD PTR [ecx+28]
  00825	0f 5b c0	 cvtdq2ps xmm0, xmm0
  00828	f3 0f 11 44 24
	04		 movss	 DWORD PTR [esp+4], xmm0
  0082e	66 0f 6e c0	 movd	 xmm0, eax
  00832	0f 5b c0	 cvtdq2ps xmm0, xmm0
  00835	f3 0f 11 04 24	 movss	 DWORD PTR [esp], xmm0
  0083a	e8 00 00 00 00	 call	 ?frandom@@YAMMM@Z	; frandom
  0083f	d9 5d a0	 fstp	 DWORD PTR tv750[ebp]
  00842	f3 0f 10 45 a0	 movss	 xmm0, DWORD PTR tv750[ebp]
  00847	83 c4 08	 add	 esp, 8
  0084a	f3 0f 11 47 40	 movss	 DWORD PTR [edi+64], xmm0

; 215  : 		// Rotation - Lie   LocalMatrix  Rotation  Random  .
; 216  : 		//               .    . - [levites]
; 217  : 		if (BILLBOARD_TYPE_LIE == m_pParticleProperty->m_byBillboardType && mc_pmatLocal)

  0084f	8b 46 4c	 mov	 eax, DWORD PTR [esi+76]
  00852	80 78 13 03	 cmp	 BYTE PTR [eax+19], 3
  00856	75 13		 jne	 SHORT $LN29@CreatePart
  00858	83 7e 04 00	 cmp	 DWORD PTR [esi+4], 0
  0085c	74 0d		 je	 SHORT $LN29@CreatePart

; 218  : 		{
; 219  : 			pInstance->m_fRotation += fLieRotation;

  0085e	f3 0f 58 85 78
	ff ff ff	 addss	 xmm0, DWORD PTR _fLieRotation$1$[ebp]
  00866	f3 0f 11 47 40	 movss	 DWORD PTR [edi+64], xmm0
$LN29@CreatePart:

; 220  : 		}
; 221  : 
; 222  : 		// Texture Animation
; 223  : 		pInstance->m_byFrameIndex = 0;

  0086b	c6 47 50 00	 mov	 BYTE PTR [edi+80], 0

; 224  : 		pInstance->m_byTextureAnimationType = m_pParticleProperty->GetTextureAnimationType();

  0086f	8b 46 4c	 mov	 eax, DWORD PTR [esi+76]
  00872	8a 40 04	 mov	 al, BYTE PTR [eax+4]
  00875	88 47 48	 mov	 BYTE PTR [edi+72], al
; File C:\Program Files (x86)\Microsoft Visual Studio\2019\Professional\VC\Tools\MSVC\14.29.30133\include\vector

; 1548 :         auto& _My_data = _Mypair._Myval2;

  00878	8b 4e 4c	 mov	 ecx, DWORD PTR [esi+76]

; 1549 :         return static_cast<size_type>(_My_data._Mylast - _My_data._Myfirst);

  0087b	8b 41 74	 mov	 eax, DWORD PTR [ecx+116]
  0087e	2b 41 70	 sub	 eax, DWORD PTR [ecx+112]
  00881	c1 f8 02	 sar	 eax, 2
; File C:\Users\murat\Desktop\Siveps2-1-99-Project\source\client\Client\EffectLib\ParticleSystemInstance.cpp

; 226  : 		if (m_pParticleProperty->GetTextureAnimationFrameCount() > 1)

  00884	83 f8 01	 cmp	 eax, 1
  00887	76 4f		 jbe	 SHORT $LN34@CreatePart

; 227  : 		{
; 228  : 			if (CParticleProperty::TEXTURE_ANIMATION_TYPE_RANDOM_DIRECTION == m_pParticleProperty->GetTextureAnimationType())

  00889	80 79 04 04	 cmp	 BYTE PTR [ecx+4], 4
  0088d	75 28		 jne	 SHORT $LN33@CreatePart

; 229  : 			{
; 230  : 				if (random() & 1)

  0088f	e8 00 00 00 00	 call	 ?random@@YAKXZ		; random
  00894	a8 01		 test	 al, 1
  00896	74 0a		 je	 SHORT $LN32@CreatePart

; 231  : 				{
; 232  : 					pInstance->m_byFrameIndex = 0;

  00898	c6 47 50 00	 mov	 BYTE PTR [edi+80], 0

; 233  : 					pInstance->m_byTextureAnimationType = CParticleProperty::TEXTURE_ANIMATION_TYPE_CW;

  0089c	c6 47 48 01	 mov	 BYTE PTR [edi+72], 1

; 234  : 				}

  008a0	eb 15		 jmp	 SHORT $LN33@CreatePart
$LN32@CreatePart:
; File C:\Program Files (x86)\Microsoft Visual Studio\2019\Professional\VC\Tools\MSVC\14.29.30133\include\vector

; 1548 :         auto& _My_data = _Mypair._Myval2;

  008a2	8b 46 4c	 mov	 eax, DWORD PTR [esi+76]

; 1549 :         return static_cast<size_type>(_My_data._Mylast - _My_data._Myfirst);

  008a5	8b 48 74	 mov	 ecx, DWORD PTR [eax+116]
  008a8	2b 48 70	 sub	 ecx, DWORD PTR [eax+112]
  008ab	c1 f9 02	 sar	 ecx, 2
; File C:\Users\murat\Desktop\Siveps2-1-99-Project\source\client\Client\EffectLib\ParticleSystemInstance.cpp

; 237  : 					pInstance->m_byFrameIndex = m_pParticleProperty->GetTextureAnimationFrameCount() - 1;

  008ae	fe c9		 dec	 cl
  008b0	88 4f 50	 mov	 BYTE PTR [edi+80], cl

; 238  : 					pInstance->m_byTextureAnimationType = CParticleProperty::TEXTURE_ANIMATION_TYPE_CCW;

  008b3	c6 47 48 02	 mov	 BYTE PTR [edi+72], 2
$LN33@CreatePart:

; 239  : 				}
; 240  : 			}
; 241  : 			if (m_pParticleProperty->m_bTexAniRandomStartFrameFlag)

  008b7	8b 4e 4c	 mov	 ecx, DWORD PTR [esi+76]
  008ba	83 79 0c 00	 cmp	 DWORD PTR [ecx+12], 0
  008be	74 18		 je	 SHORT $LN34@CreatePart
; File C:\Program Files (x86)\Microsoft Visual Studio\2019\Professional\VC\Tools\MSVC\14.29.30133\include\vector

; 1549 :         return static_cast<size_type>(_My_data._Mylast - _My_data._Myfirst);

  008c0	8b 41 74	 mov	 eax, DWORD PTR [ecx+116]
  008c3	2b 41 70	 sub	 eax, DWORD PTR [ecx+112]
  008c6	c1 f8 02	 sar	 eax, 2
; File C:\Users\murat\Desktop\Siveps2-1-99-Project\source\client\Client\EffectLib\ParticleSystemInstance.cpp

; 243  : 				pInstance->m_byFrameIndex = random_range(0,m_pParticleProperty->GetTextureAnimationFrameCount()-1);

  008c9	48		 dec	 eax
  008ca	50		 push	 eax
  008cb	6a 00		 push	 0
  008cd	e8 00 00 00 00	 call	 ?random_range@@YAJJJ@Z	; random_range
  008d2	83 c4 08	 add	 esp, 8
  008d5	88 47 50	 mov	 BYTE PTR [edi+80], al
$LN34@CreatePart:
; File C:\Users\murat\Desktop\Siveps2-1-99-Project\source\client\extern\include\d3dx8math.inl

; 269  :     return D3DXVECTOR3(x * f, y * f, z * f);

  008d8	f3 0f 10 95 74
	ff ff ff	 movss	 xmm2, DWORD PTR _fElapsedTime$GSCopy$1$[ebp]

; 263  :     return D3DXVECTOR3(x - v.x, y - v.y, z - v.z);

  008e0	f3 0f 10 67 0c	 movss	 xmm4, DWORD PTR [edi+12]

; 269  :     return D3DXVECTOR3(x * f, y * f, z * f);

  008e5	0f 28 c2	 movaps	 xmm0, xmm2
  008e8	f3 0f 59 47 24	 mulss	 xmm0, DWORD PTR [edi+36]
  008ed	0f 28 ca	 movaps	 xmm1, xmm2
; File C:\Users\murat\Desktop\Siveps2-1-99-Project\source\client\Client\EffectLib\ParticleSystemInstance.cpp

; 263  : 		if (!pFirstInstance)

  008f0	8b 4d 84	 mov	 ecx, DWORD PTR _pFirstInstance$1$[ebp]
; File C:\Users\murat\Desktop\Siveps2-1-99-Project\source\client\extern\include\d3dx8math.inl

; 269  :     return D3DXVECTOR3(x * f, y * f, z * f);

  008f3	f3 0f 59 4f 28	 mulss	 xmm1, DWORD PTR [edi+40]
; File C:\Users\murat\Desktop\Siveps2-1-99-Project\source\client\Client\EffectLib\ParticleSystemInstance.cpp

; 263  : 		if (!pFirstInstance)

  008f8	57		 push	 edi
; File C:\Users\murat\Desktop\Siveps2-1-99-Project\source\client\extern\include\d3dx8math.inl

; 269  :     return D3DXVECTOR3(x * f, y * f, z * f);

  008f9	f3 0f 59 57 2c	 mulss	 xmm2, DWORD PTR [edi+44]

; 263  :     return D3DXVECTOR3(x - v.x, y - v.y, z - v.z);

  008fe	f3 0f 5c e0	 subss	 xmm4, xmm0
  00902	f3 0f 10 5f 10	 movss	 xmm3, DWORD PTR [edi+16]
  00907	f3 0f 10 47 14	 movss	 xmm0, DWORD PTR [edi+20]
  0090c	f3 0f 5c d9	 subss	 xmm3, xmm1
  00910	f3 0f 5c c2	 subss	 xmm0, xmm2
; File C:\Users\murat\Desktop\Siveps2-1-99-Project\source\client\Client\EffectLib\ParticleSystemInstance.cpp

; 249  : 			pInstance->m_v3LastPosition = pInstance->m_v3Position - (pInstance->m_v3Velocity * fElapsedTime);

  00914	0f 14 e3	 unpcklps xmm4, xmm3
  00917	66 0f d6 67 18	 movq	 QWORD PTR [edi+24], xmm4
; File C:\Users\murat\Desktop\Siveps2-1-99-Project\source\client\extern\include\d3dx8math.inl

; 182  :     z = fz;

  0091c	f3 0f 11 85 5c
	ff ff ff	 movss	 DWORD PTR $T2[ebp+8], xmm0
; File C:\Users\murat\Desktop\Siveps2-1-99-Project\source\client\Client\EffectLib\ParticleSystemInstance.cpp

; 249  : 			pInstance->m_v3LastPosition = pInstance->m_v3Position - (pInstance->m_v3Velocity * fElapsedTime);

  00924	8b 85 5c ff ff
	ff		 mov	 eax, DWORD PTR $T2[ebp+8]
  0092a	89 47 20	 mov	 DWORD PTR [edi+32], eax

; 250  : 			pInstance->m_v2Scale.x = m_pParticleProperty->m_TimeEventScaleX.front().m_Value;

  0092d	8b 46 4c	 mov	 eax, DWORD PTR [esi+76]
  00930	8b 40 40	 mov	 eax, DWORD PTR [eax+64]
  00933	8b 40 04	 mov	 eax, DWORD PTR [eax+4]
  00936	89 47 38	 mov	 DWORD PTR [edi+56], eax

; 251  : 			pInstance->m_v2Scale.y= m_pParticleProperty->m_TimeEventScaleY.front().m_Value;

  00939	8b 46 4c	 mov	 eax, DWORD PTR [esi+76]
  0093c	8b 40 4c	 mov	 eax, DWORD PTR [eax+76]
  0093f	8b 40 04	 mov	 eax, DWORD PTR [eax+4]
  00942	89 47 3c	 mov	 DWORD PTR [edi+60], eax

; 252  : 			//pInstance->m_v2Scale = m_pParticleProperty->m_TimeEventScaleXY.front().m_Value;
; 253  : #ifdef WORLD_EDITOR
; 254  : 			pInstance->m_Color.r = m_pParticleProperty->m_TimeEventColorRed.front().m_Value;
; 255  : 			pInstance->m_Color.g = m_pParticleProperty->m_TimeEventColorGreen.front().m_Value;
; 256  : 			pInstance->m_Color.b = m_pParticleProperty->m_TimeEventColorBlue.front().m_Value;
; 257  : 			pInstance->m_Color.a = m_pParticleProperty->m_TimeEventAlpha.front().m_Value;
; 258  : #else
; 259  : 			pInstance->m_dcColor = m_pParticleProperty->m_TimeEventColor.front().m_Value;

  00945	8b 46 4c	 mov	 eax, DWORD PTR [esi+76]
  00948	8b 40 58	 mov	 eax, DWORD PTR [eax+88]
; File C:\Users\murat\Desktop\Siveps2-1-99-Project\source\client\Client\EffectLib\Type.h

; 142  : 		m_dwColor = r.m_dwColor;

  0094b	8b 40 04	 mov	 eax, DWORD PTR [eax+4]
  0094e	89 47 44	 mov	 DWORD PTR [edi+68], eax
; File C:\Users\murat\Desktop\Siveps2-1-99-Project\source\client\Client\EffectLib\ParticleSystemInstance.cpp

; 263  : 		if (!pFirstInstance)

  00951	85 c9		 test	 ecx, ecx
  00953	75 0d		 jne	 SHORT $LN35@CreatePart

; 264  : 		{
; 265  : 			m_pData->BuildDecorator(pInstance);

  00955	8b 4e 48	 mov	 ecx, DWORD PTR [esi+72]
  00958	e8 00 00 00 00	 call	 ?BuildDecorator@CParticleSystemData@@QAEXPAVCParticleInstance@@@Z ; CParticleSystemData::BuildDecorator

; 266  : 			pFirstInstance = pInstance;

  0095d	89 7d 84	 mov	 DWORD PTR _pFirstInstance$1$[ebp], edi

; 267  : 		}

  00960	eb 4f		 jmp	 SHORT $LN36@CreatePart
$LN35@CreatePart:

; 270  : 			pInstance->m_pDecorator = pFirstInstance->m_pDecorator->Clone(pFirstInstance,pInstance);

  00962	8b 71 70	 mov	 esi, DWORD PTR [ecx+112]
; File C:\Users\murat\Desktop\Siveps2-1-99-Project\source\client\Client\EffectLib\EffectUpdateDecorator.h

; 52   : 			CBaseDecorator * pNewDecorator = __Clone(pFirstInstance, pInstance);

  00965	51		 push	 ecx
  00966	8b ce		 mov	 ecx, esi
  00968	8b 06		 mov	 eax, DWORD PTR [esi]
  0096a	8b 40 08	 mov	 eax, DWORD PTR [eax+8]
  0096d	ff d0		 call	 eax

; 53   : 			CBaseDecorator * pSrc = this;
; 54   : 			CBaseDecorator * pDest = pNewDecorator;
; 55   : 			while (pSrc->m_NextDecorator)

  0096f	8b 4e 04	 mov	 ecx, DWORD PTR [esi+4]
  00972	83 c6 04	 add	 esi, 4
  00975	89 45 80	 mov	 DWORD PTR _pNewDecorator$1$[ebp], eax
  00978	89 45 a0	 mov	 DWORD PTR _pDest$1$[ebp], eax
  0097b	85 c9		 test	 ecx, ecx
  0097d	74 29		 je	 SHORT $LN94@CreatePart
  0097f	90		 npad	 1
$LL93@CreatePart:

; 56   : 			{
; 57   : 				pDest->m_NextDecorator = pSrc->m_NextDecorator->__Clone(pFirstInstance, pInstance);

  00980	8b 01		 mov	 eax, DWORD PTR [ecx]
  00982	57		 push	 edi
  00983	ff 75 84	 push	 DWORD PTR _pFirstInstance$1$[ebp]
  00986	8b 40 08	 mov	 eax, DWORD PTR [eax+8]
  00989	ff d0		 call	 eax
  0098b	8b 55 a0	 mov	 edx, DWORD PTR _pDest$1$[ebp]
  0098e	89 42 04	 mov	 DWORD PTR [edx+4], eax

; 58   : 				pDest->m_NextDecorator->m_PrevDecorator = pDest;

  00991	89 50 08	 mov	 DWORD PTR [eax+8], edx

; 59   : 
; 60   : 				pSrc = pSrc->m_NextDecorator;

  00994	8b 36		 mov	 esi, DWORD PTR [esi]

; 61   : 				pDest = pDest->m_NextDecorator;

  00996	8b 4a 04	 mov	 ecx, DWORD PTR [edx+4]
  00999	83 c6 04	 add	 esi, 4
  0099c	89 4d a0	 mov	 DWORD PTR _pDest$1$[ebp], ecx
  0099f	8b 0e		 mov	 ecx, DWORD PTR [esi]
  009a1	85 c9		 test	 ecx, ecx
  009a3	75 db		 jne	 SHORT $LL93@CreatePart
  009a5	8b 45 80	 mov	 eax, DWORD PTR _pNewDecorator$1$[ebp]
$LN94@CreatePart:
  009a8	8b b5 68 ff ff
	ff		 mov	 esi, DWORD PTR _this$GSCopy$1$[ebp]
; File C:\Users\murat\Desktop\Siveps2-1-99-Project\source\client\Client\EffectLib\ParticleSystemInstance.cpp

; 270  : 			pInstance->m_pDecorator = pFirstInstance->m_pDecorator->Clone(pFirstInstance,pInstance);

  009ae	89 47 70	 mov	 DWORD PTR [edi+112], eax
$LN36@CreatePart:

; 271  : 		}
; 272  : 
; 273  : 		m_ParticleInstanceListVector[pInstance->m_byFrameIndex].push_back(pInstance);

  009b1	0f b6 4f 50	 movzx	 ecx, BYTE PTR [edi+80]
; File C:\Program Files (x86)\Microsoft Visual Studio\2019\Professional\VC\Tools\MSVC\14.29.30133\include\vector

; 1569 :         return _My_data._Myfirst[_Pos];

  009b5	8b 46 30	 mov	 eax, DWORD PTR [esi+48]
; File C:\Program Files (x86)\Microsoft Visual Studio\2019\Professional\VC\Tools\MSVC\14.29.30133\include\list

; 1014 :         if (_Mysize == max_size()) {

  009b8	81 7c c8 04 55
	55 55 15	 cmp	 DWORD PTR [eax+ecx*8+4], 357913941 ; 15555555H
; File C:\Program Files (x86)\Microsoft Visual Studio\2019\Professional\VC\Tools\MSVC\14.29.30133\include\vector

; 1569 :         return _My_data._Myfirst[_Pos];

  009c0	8d 04 c8	 lea	 eax, DWORD PTR [eax+ecx*8]
; File C:\Program Files (x86)\Microsoft Visual Studio\2019\Professional\VC\Tools\MSVC\14.29.30133\include\list

; 1252 :         _Emplace(_Mypair._Myval2._Myhead, _Val);

  009c3	8b 08		 mov	 ecx, DWORD PTR [eax]
; File C:\Program Files (x86)\Microsoft Visual Studio\2019\Professional\VC\Tools\MSVC\14.29.30133\include\vector

; 1569 :         return _My_data._Myfirst[_Pos];

  009c5	89 45 80	 mov	 DWORD PTR $T3[ebp], eax
; File C:\Program Files (x86)\Microsoft Visual Studio\2019\Professional\VC\Tools\MSVC\14.29.30133\include\list

; 1252 :         _Emplace(_Mypair._Myval2._Myhead, _Val);

  009c8	89 4d a0	 mov	 DWORD PTR __Where$1$[ebp], ecx

; 1014 :         if (_Mysize == max_size()) {

  009cb	74 7b		 je	 SHORT $LN158@CreatePart
; File C:\Program Files (x86)\Microsoft Visual Studio\2019\Professional\VC\Tools\MSVC\14.29.30133\include\xmemory

; 1012 :     _CONSTEXPR20_DYNALLOC explicit _Alloc_construct_ptr(_Alloc& _Al_) : _Al(_Al_), _Ptr(nullptr) {}

  009cd	89 45 88	 mov	 DWORD PTR __Op$4[ebp], eax

; 85   :         return ::operator new(_Bytes);

  009d0	6a 0c		 push	 12			; 0000000cH
; File C:\Program Files (x86)\Microsoft Visual Studio\2019\Professional\VC\Tools\MSVC\14.29.30133\include\list

; 589  :     explicit _List_node_emplace_op2(_Alnode& _Al_, _Valtys&&... _Vals) : _Alloc_construct_ptr<_Alnode>(_Al_) {

  009d2	c7 45 fc 00 00
	00 00		 mov	 DWORD PTR __$EHRec$[ebp+8], 0
; File C:\Program Files (x86)\Microsoft Visual Studio\2019\Professional\VC\Tools\MSVC\14.29.30133\include\xmemory

; 1019 :         _Ptr = nullptr; // if allocate throws, prevents double-free

  009d9	c7 45 8c 00 00
	00 00		 mov	 DWORD PTR __Op$4[ebp+4], 0

; 85   :         return ::operator new(_Bytes);

  009e0	e8 00 00 00 00	 call	 ??2@YAPAXI@Z		; operator new
; File C:\Program Files (x86)\Microsoft Visual Studio\2019\Professional\VC\Tools\MSVC\14.29.30133\include\list

; 1019 :         ++_Mysize;

  009e5	8b 4d 80	 mov	 ecx, DWORD PTR $T3[ebp]
; File C:\Program Files (x86)\Microsoft Visual Studio\2019\Professional\VC\Tools\MSVC\14.29.30133\include\xmemory

; 85   :         return ::operator new(_Bytes);

  009e8	83 c4 04	 add	 esp, 4
; File C:\Program Files (x86)\Microsoft Visual Studio\2019\Professional\VC\Tools\MSVC\14.29.30133\include\list

; 604  :         const pointer _Insert_after = _Insert_before->_Prev;

  009eb	8b 55 a0	 mov	 edx, DWORD PTR __Where$1$[ebp]

; 592  :     }

  009ee	c7 45 fc ff ff
	ff ff		 mov	 DWORD PTR __$EHRec$[ebp+8], -1
  009f5	89 78 08	 mov	 DWORD PTR [eax+8], edi

; 1019 :         ++_Mysize;

  009f8	ff 41 04	 inc	 DWORD PTR [ecx+4]

; 604  :         const pointer _Insert_after = _Insert_before->_Prev;

  009fb	8b 4a 04	 mov	 ecx, DWORD PTR [edx+4]

; 605  :         _Construct_in_place(this->_Ptr->_Next, _Insert_before);

  009fe	89 10		 mov	 DWORD PTR [eax], edx

; 606  :         _Construct_in_place(this->_Ptr->_Prev, _Insert_after);

  00a00	89 48 04	 mov	 DWORD PTR [eax+4], ecx

; 609  :         _Insert_before->_Prev = _Result;

  00a03	89 42 04	 mov	 DWORD PTR [edx+4], eax

; 610  :         _Insert_after->_Next  = _Result;

  00a06	89 01		 mov	 DWORD PTR [ecx], eax
; File C:\Users\murat\Desktop\Siveps2-1-99-Project\source\client\Client\EffectLib\ParticleSystemInstance.cpp

; 93   : 	for (int i = 0; i < iCreatingCount; ++i)

  00a08	8b 85 70 ff ff
	ff		 mov	 eax, DWORD PTR _i$1$[ebp]

; 274  : 		m_dwCurrentEmissionCount++;

  00a0e	ff 46 28	 inc	 DWORD PTR [esi+40]
  00a11	40		 inc	 eax
; File C:\Program Files (x86)\Microsoft Visual Studio\2019\Professional\VC\Tools\MSVC\14.29.30133\include\list

; 608  :         this->_Ptr            = pointer{};

  00a12	c7 45 8c 00 00
	00 00		 mov	 DWORD PTR __Op$4[ebp+4], 0
; File C:\Users\murat\Desktop\Siveps2-1-99-Project\source\client\Client\EffectLib\ParticleSystemInstance.cpp

; 93   : 	for (int i = 0; i < iCreatingCount; ++i)

  00a19	89 85 70 ff ff
	ff		 mov	 DWORD PTR _i$1$[ebp], eax
  00a1f	3b 45 94	 cmp	 eax, DWORD PTR _iCreatingCount$1$[ebp]
  00a22	0f 8c 59 f8 ff
	ff		 jl	 $LL4@CreatePart
$LN3@CreatePart:

; 276  : }

  00a28	8b 4d f4	 mov	 ecx, DWORD PTR __$EHRec$[ebp]
  00a2b	64 89 0d 00 00
	00 00		 mov	 DWORD PTR fs:0, ecx
  00a32	59		 pop	 ecx
  00a33	5f		 pop	 edi
  00a34	5e		 pop	 esi
  00a35	8b 4d ec	 mov	 ecx, DWORD PTR __$ArrayPad$[ebp]
  00a38	33 cd		 xor	 ecx, ebp
  00a3a	e8 00 00 00 00	 call	 @__security_check_cookie@4
  00a3f	8b e5		 mov	 esp, ebp
  00a41	5d		 pop	 ebp
  00a42	8b e3		 mov	 esp, ebx
  00a44	5b		 pop	 ebx
  00a45	c2 04 00	 ret	 4
$LN158@CreatePart:
; File C:\Program Files (x86)\Microsoft Visual Studio\2019\Professional\VC\Tools\MSVC\14.29.30133\include\list

; 1015 :             _Xlength_error("list too long");

  00a48	68 00 00 00 00	 push	 OFFSET ??_C@_0O@NKNMEGII@list?5too?5long@
  00a4d	e8 00 00 00 00	 call	 ?_Xlength_error@std@@YAXPBD@Z ; std::_Xlength_error
$LN172@CreatePart:
  00a52	66 90		 npad	 2
$LN166@CreatePart:
; File C:\Users\murat\Desktop\Siveps2-1-99-Project\source\client\Client\EffectLib\ParticleSystemInstance.cpp

; 276  : }

  00a54	00 00 00 00	 DD	 $LN11@CreatePart
  00a58	00 00 00 00	 DD	 $LN12@CreatePart
  00a5c	00 00 00 00	 DD	 $LN15@CreatePart
  00a60	00 00 00 00	 DD	 $LN16@CreatePart
_TEXT	ENDS
;	COMDAT text$x
text$x	SEGMENT
__unwindfunclet$?CreateParticles@CParticleSystemInstance@@QAEXM@Z$1:
  00000	8d 4d 88	 lea	 ecx, DWORD PTR __Op$4[ebp]
  00003	e9 00 00 00 00	 jmp	 ??1?$_Alloc_construct_ptr@V?$allocator@U?$_List_node@PAVCParticleInstance@@PAX@std@@@std@@@std@@QAE@XZ ; std::_Alloc_construct_ptr<std::allocator<std::_List_node<CParticleInstance *,void *> > >::~_Alloc_construct_ptr<std::allocator<std::_List_node<CParticleInstance *,void *> > >
  00008	cc		 int	 3
  00009	cc		 int	 3
  0000a	cc		 int	 3
  0000b	cc		 int	 3
  0000c	cc		 int	 3
__ehhandler$?CreateParticles@CParticleSystemInstance@@QAEXM@Z:
  0000d	90		 npad	 1
  0000e	90		 npad	 1
  0000f	8b 54 24 08	 mov	 edx, DWORD PTR [esp+8]
  00013	8d 42 0c	 lea	 eax, DWORD PTR [edx+12]
  00016	8b 8a 50 ff ff
	ff		 mov	 ecx, DWORD PTR [edx-176]
  0001c	33 c8		 xor	 ecx, eax
  0001e	e8 00 00 00 00	 call	 @__security_check_cookie@4
  00023	8b 4a f8	 mov	 ecx, DWORD PTR [edx-8]
  00026	33 c8		 xor	 ecx, eax
  00028	e8 00 00 00 00	 call	 @__security_check_cookie@4
  0002d	b8 00 00 00 00	 mov	 eax, OFFSET __ehfuncinfo$?CreateParticles@CParticleSystemInstance@@QAEXM@Z
  00032	e9 00 00 00 00	 jmp	 ___CxxFrameHandler3
text$x	ENDS
?CreateParticles@CParticleSystemInstance@@QAEXM@Z ENDP	; CParticleSystemInstance::CreateParticles
; Function compile flags: /Ogtp
; File C:\Users\murat\Desktop\Siveps2-1-99-Project\source\client\Client\EffectLib\ParticleSystemInstance.cpp
; File C:\Program Files (x86)\Microsoft Visual Studio\2019\Professional\VC\Tools\MSVC\14.29.30133\include\vector
; File C:\Users\murat\Desktop\Siveps2-1-99-Project\source\client\Client\EffectLib\ParticleSystemInstance.cpp
; File C:\Program Files (x86)\Microsoft Visual Studio\2019\Professional\VC\Tools\MSVC\14.29.30133\include\vector
; File C:\Users\murat\Desktop\Siveps2-1-99-Project\source\client\Client\EffectLib\ParticleSystemInstance.cpp
; File C:\Program Files (x86)\Microsoft Visual Studio\2019\Professional\VC\Tools\MSVC\14.29.30133\include\vector
; File C:\Users\murat\Desktop\Siveps2-1-99-Project\source\client\Client\EffectLib\ParticleSystemInstance.cpp
; File C:\Program Files (x86)\Microsoft Visual Studio\2019\Professional\VC\Tools\MSVC\14.29.30133\include\vector
; File C:\Users\murat\Desktop\Siveps2-1-99-Project\source\client\Client\EffectLib\ParticleSystemInstance.cpp
; File C:\Program Files (x86)\Microsoft Visual Studio\2019\Professional\VC\Tools\MSVC\14.29.30133\include\vector
; File C:\Users\murat\Desktop\Siveps2-1-99-Project\source\client\Client\EffectLib\ParticleSystemInstance.cpp
; File C:\Program Files (x86)\Microsoft Visual Studio\2019\Professional\VC\Tools\MSVC\14.29.30133\include\vector
; File C:\Users\murat\Desktop\Siveps2-1-99-Project\source\client\Client\EffectLib\ParticleSystemInstance.cpp
; File C:\Program Files (x86)\Microsoft Visual Studio\2019\Professional\VC\Tools\MSVC\14.29.30133\include\vector
; File C:\Users\murat\Desktop\Siveps2-1-99-Project\source\client\Client\EffectLib\ParticleSystemInstance.cpp
; File C:\Program Files (x86)\Microsoft Visual Studio\2019\Professional\VC\Tools\MSVC\14.29.30133\include\vector
; File C:\Users\murat\Desktop\Siveps2-1-99-Project\source\client\Client\EffectLib\ParticleSystemInstance.cpp
;	COMDAT ?OnSetDataPointer@CParticleSystemInstance@@UAEXPAVCEffectElementBase@@@Z
_TEXT	SEGMENT
_this$1$ = -4						; size = 4
$T1 = 8							; size = 1
_pkImgInstNew$2 = 8					; size = 4
_pElement$ = 8						; size = 4
?OnSetDataPointer@CParticleSystemInstance@@UAEXPAVCEffectElementBase@@@Z PROC ; CParticleSystemInstance::OnSetDataPointer, COMDAT
; _this$ = ecx

; 457  : {

  00000	55		 push	 ebp
  00001	8b ec		 mov	 ebp, esp
  00003	51		 push	 ecx
  00004	53		 push	 ebx
  00005	8b d9		 mov	 ebx, ecx

; 458  : 	m_pData = (CParticleSystemData *)pElement;

  00007	8b 4d 08	 mov	 ecx, DWORD PTR _pElement$[ebp]
  0000a	56		 push	 esi
  0000b	57		 push	 edi
  0000c	89 5d fc	 mov	 DWORD PTR _this$1$[ebp], ebx
  0000f	89 4b 48	 mov	 DWORD PTR [ebx+72], ecx

; 459  : 
; 460  : 	m_dwCurrentEmissionCount = 0;

  00012	c7 43 28 00 00
	00 00		 mov	 DWORD PTR [ebx+40], 0

; 461  : 	m_pParticleProperty = m_pData->GetParticlePropertyPointer();

  00019	e8 00 00 00 00	 call	 ?GetParticlePropertyPointer@CParticleSystemData@@QAEPAVCParticleProperty@@XZ ; CParticleSystemData::GetParticlePropertyPointer

; 462  : 	m_pEmitterProperty = m_pData->GetEmitterPropertyPointer();

  0001e	8b 4b 48	 mov	 ecx, DWORD PTR [ebx+72]
  00021	89 43 4c	 mov	 DWORD PTR [ebx+76], eax
  00024	e8 00 00 00 00	 call	 ?GetEmitterPropertyPointer@CParticleSystemData@@QAEPAVCEmitterProperty@@XZ ; CParticleSystemData::GetEmitterPropertyPointer
; File C:\Program Files (x86)\Microsoft Visual Studio\2019\Professional\VC\Tools\MSVC\14.29.30133\include\vector

; 1548 :         auto& _My_data = _Mypair._Myval2;

  00029	8b 4b 4c	 mov	 ecx, DWORD PTR [ebx+76]
; File C:\Users\murat\Desktop\Siveps2-1-99-Project\source\client\Client\EffectLib\ParticleSystemInstance.cpp

; 464  : 	m_ParticleInstanceListVector.resize(m_pParticleProperty->GetTextureAnimationFrameCount()*2+2);

  0002c	8d 7b 30	 lea	 edi, DWORD PTR [ebx+48]
  0002f	89 43 50	 mov	 DWORD PTR [ebx+80], eax
  00032	8b 40 10	 mov	 eax, DWORD PTR [eax+16]
  00035	89 43 2c	 mov	 DWORD PTR [ebx+44], eax
; File C:\Program Files (x86)\Microsoft Visual Studio\2019\Professional\VC\Tools\MSVC\14.29.30133\include\vector

; 1549 :         return static_cast<size_type>(_My_data._Mylast - _My_data._Myfirst);

  00038	8b 41 74	 mov	 eax, DWORD PTR [ecx+116]
  0003b	2b 41 70	 sub	 eax, DWORD PTR [ecx+112]

; 1263 :         const auto _Oldsize = static_cast<size_type>(_Mylast - _Myfirst);

  0003e	8b 37		 mov	 esi, DWORD PTR [edi]

; 1549 :         return static_cast<size_type>(_My_data._Mylast - _My_data._Myfirst);

  00040	c1 f8 02	 sar	 eax, 2
; File C:\Users\murat\Desktop\Siveps2-1-99-Project\source\client\Client\EffectLib\ParticleSystemInstance.cpp

; 464  : 	m_ParticleInstanceListVector.resize(m_pParticleProperty->GetTextureAnimationFrameCount()*2+2);

  00043	8d 0c 45 02 00
	00 00		 lea	 ecx, DWORD PTR [eax*2+2]
; File C:\Program Files (x86)\Microsoft Visual Studio\2019\Professional\VC\Tools\MSVC\14.29.30133\include\vector

; 1263 :         const auto _Oldsize = static_cast<size_type>(_Mylast - _Myfirst);

  0004a	8b 47 04	 mov	 eax, DWORD PTR [edi+4]
  0004d	8b d0		 mov	 edx, eax
  0004f	2b d6		 sub	 edx, esi
  00051	c1 fa 03	 sar	 edx, 3

; 1264 :         if (_Newsize < _Oldsize) { // trim

  00054	3b ca		 cmp	 ecx, edx
  00056	73 13		 jae	 SHORT $LN13@OnSetDataP

; 1680 :         _Destroy_range(_First, _Last, _Getal());

  00058	57		 push	 edi

; 1265 :             const pointer _Newlast = _Myfirst + _Newsize;

  00059	8d 34 ce	 lea	 esi, DWORD PTR [esi+ecx*8]

; 1680 :         _Destroy_range(_First, _Last, _Getal());

  0005c	50		 push	 eax
  0005d	56		 push	 esi
  0005e	e8 00 00 00 00	 call	 ??$_Destroy_range@V?$allocator@V?$list@PAVCParticleInstance@@V?$allocator@PAVCParticleInstance@@@std@@@std@@@std@@@std@@YAXPAV?$list@PAVCParticleInstance@@V?$allocator@PAVCParticleInstance@@@std@@@0@QAV10@AAV?$allocator@V?$list@PAVCParticleInstance@@V?$allocator@PAVCParticleInstance@@@std@@@std@@@0@@Z ; std::_Destroy_range<std::allocator<std::list<CParticleInstance *,std::allocator<CParticleInstance *> > > >
  00063	83 c4 0c	 add	 esp, 12			; 0000000cH

; 1268 :             _Mylast = _Newlast;

  00066	89 77 04	 mov	 DWORD PTR [edi+4], esi

; 1269 :             return;

  00069	eb 2f		 jmp	 SHORT $LN14@OnSetDataP
$LN13@OnSetDataP:

; 1270 :         }
; 1271 : 
; 1272 :         if (_Newsize > _Oldsize) { // append

  0006b	76 2d		 jbe	 SHORT $LN14@OnSetDataP

; 1273 :             const auto _Oldcapacity = static_cast<size_type>(_My_data._Myend - _Myfirst);

  0006d	8b 47 08	 mov	 eax, DWORD PTR [edi+8]
  00070	2b c6		 sub	 eax, esi
  00072	c1 f8 03	 sar	 eax, 3

; 1274 :             if (_Newsize > _Oldcapacity) { // reallocate

  00075	3b c8		 cmp	 ecx, eax
  00077	76 0e		 jbe	 SHORT $LN15@OnSetDataP

; 1275 :                 _Resize_reallocate(_Newsize, _Val);

  00079	8d 45 08	 lea	 eax, DWORD PTR $T1[ebp]
  0007c	50		 push	 eax
  0007d	51		 push	 ecx
  0007e	8b cf		 mov	 ecx, edi
  00080	e8 00 00 00 00	 call	 ??$_Resize_reallocate@U_Value_init_tag@std@@@?$vector@V?$list@PAVCParticleInstance@@V?$allocator@PAVCParticleInstance@@@std@@@std@@V?$allocator@V?$list@PAVCParticleInstance@@V?$allocator@PAVCParticleInstance@@@std@@@std@@@2@@std@@AAEXIABU_Value_init_tag@1@@Z ; std::vector<std::list<CParticleInstance *,std::allocator<CParticleInstance *> >,std::allocator<std::list<CParticleInstance *,std::allocator<CParticleInstance *> > > >::_Resize_reallocate<std::_Value_init_tag>

; 1276 :                 return;

  00085	eb 13		 jmp	 SHORT $LN14@OnSetDataP
$LN15@OnSetDataP:

; 1277 :             }
; 1278 : 
; 1279 :             const pointer _Oldlast = _Mylast;
; 1280 :             _Mylast                = _Ufill(_Oldlast, _Newsize - _Oldsize, _Val);

  00087	ff 75 08	 push	 DWORD PTR $T1[ebp]
  0008a	2b ca		 sub	 ecx, edx
  0008c	51		 push	 ecx
  0008d	ff 77 04	 push	 DWORD PTR [edi+4]
  00090	8b cf		 mov	 ecx, edi
  00092	e8 00 00 00 00	 call	 ?_Ufill@?$vector@V?$list@PAVCParticleInstance@@V?$allocator@PAVCParticleInstance@@@std@@@std@@V?$allocator@V?$list@PAVCParticleInstance@@V?$allocator@PAVCParticleInstance@@@std@@@std@@@2@@std@@AAEPAV?$list@PAVCParticleInstance@@V?$allocator@PAVCParticleInstance@@@std@@@2@PAV32@IU_Value_init_tag@2@@Z ; std::vector<std::list<CParticleInstance *,std::allocator<CParticleInstance *> >,std::allocator<std::list<CParticleInstance *,std::allocator<CParticleInstance *> > > >::_Ufill
  00097	89 47 04	 mov	 DWORD PTR [edi+4], eax
$LN14@OnSetDataP:

; 1548 :         auto& _My_data = _Mypair._Myval2;

  0009a	8b 4b 4c	 mov	 ecx, DWORD PTR [ebx+76]
; File C:\Users\murat\Desktop\Siveps2-1-99-Project\source\client\Client\EffectLib\ParticleSystemInstance.cpp

; 469  : 	m_kVct_pkImgInst.reserve(m_pParticleProperty->m_ImageVector.size());

  0009d	8d 73 3c	 lea	 esi, DWORD PTR [ebx+60]
; File C:\Program Files (x86)\Microsoft Visual Studio\2019\Professional\VC\Tools\MSVC\14.29.30133\include\vector

; 1559 :         return static_cast<size_type>(_My_data._Myend - _My_data._Myfirst);

  000a0	8b 46 08	 mov	 eax, DWORD PTR [esi+8]
  000a3	2b 06		 sub	 eax, DWORD PTR [esi]
  000a5	c1 f8 02	 sar	 eax, 2

; 1549 :         return static_cast<size_type>(_My_data._Mylast - _My_data._Myfirst);

  000a8	8b 51 74	 mov	 edx, DWORD PTR [ecx+116]
  000ab	2b 51 70	 sub	 edx, DWORD PTR [ecx+112]
  000ae	c1 fa 02	 sar	 edx, 2

; 1371 :         if (_Newcapacity > capacity()) { // something to do (reserve() never shrinks)

  000b1	3b d0		 cmp	 edx, eax
  000b3	76 13		 jbe	 SHORT $LN22@OnSetDataP

; 1372 :             if (_Newcapacity > max_size()) {

  000b5	81 fa ff ff ff
	3f		 cmp	 edx, 1073741823		; 3fffffffH
  000bb	77 75		 ja	 SHORT $LN45@OnSetDataP

; 1374 :             }
; 1375 : 
; 1376 :             _Reallocate_exactly(_Newcapacity);

  000bd	52		 push	 edx
  000be	8b ce		 mov	 ecx, esi
  000c0	e8 00 00 00 00	 call	 ?_Reallocate_exactly@?$vector@PAVCGraphicImageInstance@@V?$allocator@PAVCGraphicImageInstance@@@std@@@std@@AAEXI@Z ; std::vector<CGraphicImageInstance *,std::allocator<CGraphicImageInstance *> >::_Reallocate_exactly
  000c5	8b 4b 4c	 mov	 ecx, DWORD PTR [ebx+76]
$LN22@OnSetDataP:

; 1549 :         return static_cast<size_type>(_My_data._Mylast - _My_data._Myfirst);

  000c8	8b 41 74	 mov	 eax, DWORD PTR [ecx+116]
; File C:\Users\murat\Desktop\Siveps2-1-99-Project\source\client\Client\EffectLib\ParticleSystemInstance.cpp

; 470  : 	for (DWORD i = 0; i < m_pParticleProperty->m_ImageVector.size(); ++i)

  000cb	33 db		 xor	 ebx, ebx
; File C:\Program Files (x86)\Microsoft Visual Studio\2019\Professional\VC\Tools\MSVC\14.29.30133\include\vector

; 1549 :         return static_cast<size_type>(_My_data._Mylast - _My_data._Myfirst);

  000cd	2b 41 70	 sub	 eax, DWORD PTR [ecx+112]
  000d0	c1 f8 02	 sar	 eax, 2
; File C:\Users\murat\Desktop\Siveps2-1-99-Project\source\client\Client\EffectLib\ParticleSystemInstance.cpp

; 470  : 	for (DWORD i = 0; i < m_pParticleProperty->m_ImageVector.size(); ++i)

  000d3	85 c0		 test	 eax, eax
  000d5	74 52		 je	 SHORT $LN3@OnSetDataP
  000d7	66 0f 1f 84 00
	00 00 00 00	 npad	 9
$LL4@OnSetDataP:

; 471  : 	{
; 472  : 		CGraphicImage * pImage = m_pParticleProperty->m_ImageVector[i];

  000e0	8b 41 70	 mov	 eax, DWORD PTR [ecx+112]
  000e3	8b 3c 98	 mov	 edi, DWORD PTR [eax+ebx*4]

; 473  : 
; 474  : 		CGraphicImageInstance* pkImgInstNew = CGraphicImageInstance::New();

  000e6	e8 00 00 00 00	 call	 ?New@CGraphicImageInstance@@SAPAV1@XZ ; CGraphicImageInstance::New

; 475  : 		pkImgInstNew->SetImagePointer(pImage);

  000eb	57		 push	 edi
  000ec	8b c8		 mov	 ecx, eax
  000ee	89 45 08	 mov	 DWORD PTR _pkImgInstNew$2[ebp], eax
  000f1	e8 00 00 00 00	 call	 ?SetImagePointer@CGraphicImageInstance@@QAEXPAVCGraphicImage@@@Z ; CGraphicImageInstance::SetImagePointer
; File C:\Program Files (x86)\Microsoft Visual Studio\2019\Professional\VC\Tools\MSVC\14.29.30133\include\vector

; 743  :         if (_Mylast != _My_data._Myend) {

  000f6	8b 4e 04	 mov	 ecx, DWORD PTR [esi+4]
  000f9	3b 4e 08	 cmp	 ecx, DWORD PTR [esi+8]
  000fc	74 0b		 je	 SHORT $LN35@OnSetDataP

; 726  :         _Alty_traits::construct(_Getal(), _Unfancy(_Mylast), _STD forward<_Valty>(_Val)...);

  000fe	8b 45 08	 mov	 eax, DWORD PTR _pkImgInstNew$2[ebp]
  00101	89 01		 mov	 DWORD PTR [ecx], eax

; 727  :         _Orphan_range(_Mylast, _Mylast);
; 728  :         _Ty& _Result = *_Mylast;
; 729  :         ++_Mylast;

  00103	83 46 04 04	 add	 DWORD PTR [esi+4], 4

; 744  :             return _Emplace_back_with_unused_capacity(_STD forward<_Valty>(_Val)...);

  00107	eb 0c		 jmp	 SHORT $LN2@OnSetDataP
$LN35@OnSetDataP:

; 745  :         }
; 746  : 
; 747  :         _Ty& _Result = *_Emplace_reallocate(_Mylast, _STD forward<_Valty>(_Val)...);

  00109	8d 45 08	 lea	 eax, DWORD PTR _pkImgInstNew$2[ebp]
  0010c	50		 push	 eax
  0010d	51		 push	 ecx
  0010e	8b ce		 mov	 ecx, esi
  00110	e8 00 00 00 00	 call	 ??$_Emplace_reallocate@ABQAVCGraphicImageInstance@@@?$vector@PAVCGraphicImageInstance@@V?$allocator@PAVCGraphicImageInstance@@@std@@@std@@QAEPAPAVCGraphicImageInstance@@QAPAV2@ABQAV2@@Z ; std::vector<CGraphicImageInstance *,std::allocator<CGraphicImageInstance *> >::_Emplace_reallocate<CGraphicImageInstance * const &>
$LN2@OnSetDataP:

; 1548 :         auto& _My_data = _Mypair._Myval2;

  00115	8b 45 fc	 mov	 eax, DWORD PTR _this$1$[ebp]
; File C:\Users\murat\Desktop\Siveps2-1-99-Project\source\client\Client\EffectLib\ParticleSystemInstance.cpp

; 470  : 	for (DWORD i = 0; i < m_pParticleProperty->m_ImageVector.size(); ++i)

  00118	43		 inc	 ebx
; File C:\Program Files (x86)\Microsoft Visual Studio\2019\Professional\VC\Tools\MSVC\14.29.30133\include\vector

; 1548 :         auto& _My_data = _Mypair._Myval2;

  00119	8b 48 4c	 mov	 ecx, DWORD PTR [eax+76]

; 1549 :         return static_cast<size_type>(_My_data._Mylast - _My_data._Myfirst);

  0011c	8b 41 74	 mov	 eax, DWORD PTR [ecx+116]
  0011f	2b 41 70	 sub	 eax, DWORD PTR [ecx+112]
  00122	c1 f8 02	 sar	 eax, 2
; File C:\Users\murat\Desktop\Siveps2-1-99-Project\source\client\Client\EffectLib\ParticleSystemInstance.cpp

; 470  : 	for (DWORD i = 0; i < m_pParticleProperty->m_ImageVector.size(); ++i)

  00125	3b d8		 cmp	 ebx, eax
  00127	72 b7		 jb	 SHORT $LL4@OnSetDataP
$LN3@OnSetDataP:
  00129	5f		 pop	 edi

; 478  : }

  0012a	5e		 pop	 esi
  0012b	5b		 pop	 ebx
  0012c	8b e5		 mov	 esp, ebp
  0012e	5d		 pop	 ebp
  0012f	c2 04 00	 ret	 4
$LN45@OnSetDataP:
; File C:\Program Files (x86)\Microsoft Visual Studio\2019\Professional\VC\Tools\MSVC\14.29.30133\include\vector

; 1373 :                 _Xlength();

  00132	e8 00 00 00 00	 call	 ?_Xlength@?$vector@PAVCGraphicImageInstance@@V?$allocator@PAVCGraphicImageInstance@@@std@@@std@@CAXXZ ; std::vector<CGraphicImageInstance *,std::allocator<CGraphicImageInstance *> >::_Xlength
$LN43@OnSetDataP:
  00137	cc		 int	 3
?OnSetDataPointer@CParticleSystemInstance@@UAEXPAVCEffectElementBase@@@Z ENDP ; CParticleSystemInstance::OnSetDataPointer
_TEXT	ENDS
; Function compile flags: /Ogtp
; File C:\Users\murat\Desktop\Siveps2-1-99-Project\source\client\Client\EffectLib\ParticleSystemInstance.cpp
; File C:\Program Files (x86)\Microsoft Visual Studio\2019\Professional\VC\Tools\MSVC\14.29.30133\include\vector
; File C:\Program Files (x86)\Microsoft Visual Studio\2019\Professional\VC\Tools\MSVC\14.29.30133\include\xmemory
; File C:\Program Files (x86)\Microsoft Visual Studio\2019\Professional\VC\Tools\MSVC\14.29.30133\include\vector
; File C:\Program Files (x86)\Microsoft Visual Studio\2019\Professional\VC\Tools\MSVC\14.29.30133\include\xmemory
; File C:\Program Files (x86)\Microsoft Visual Studio\2019\Professional\VC\Tools\MSVC\14.29.30133\include\vector
; File C:\Users\murat\Desktop\Siveps2-1-99-Project\source\client\Client\EffectLib\ParticleSystemInstance.cpp
; File C:\Program Files (x86)\Microsoft Visual Studio\2019\Professional\VC\Tools\MSVC\14.29.30133\include\xmemory
; File C:\Users\murat\Desktop\Siveps2-1-99-Project\source\client\Client\EffectLib\ParticleSystemInstance.cpp
;	COMDAT ??1CParticleSystemInstance@@UAE@XZ
_TEXT	SEGMENT
??1CParticleSystemInstance@@UAE@XZ PROC			; CParticleSystemInstance::~CParticleSystemInstance, COMDAT
; _this$ = ecx

; 516  : {

  00000	56		 push	 esi
  00001	8b f1		 mov	 esi, ecx
  00003	c7 06 00 00 00
	00		 mov	 DWORD PTR [esi], OFFSET ??_7CParticleSystemInstance@@6B@
; File C:\Program Files (x86)\Microsoft Visual Studio\2019\Professional\VC\Tools\MSVC\14.29.30133\include\vector

; 1763 :         if (_Myfirst) { // destroy and deallocate old array

  00009	8b 46 3c	 mov	 eax, DWORD PTR [esi+60]
  0000c	85 c0		 test	 eax, eax
  0000e	74 41		 je	 SHORT $LN6@CParticleS

; 1764 :             _Destroy(_Myfirst, _Mylast);
; 1765 :             _Getal().deallocate(_Myfirst, static_cast<size_type>(_Myend - _Myfirst));

  00010	8b 4e 44	 mov	 ecx, DWORD PTR [esi+68]
  00013	2b c8		 sub	 ecx, eax
; File C:\Program Files (x86)\Microsoft Visual Studio\2019\Professional\VC\Tools\MSVC\14.29.30133\include\xmemory

; 835  :         _Deallocate<_New_alignof<_Ty>>(_Ptr, sizeof(_Ty) * _Count);

  00015	83 e1 fc	 and	 ecx, -4			; fffffffcH

; 260  :         if (_Bytes >= _Big_allocation_threshold) { // boost the alignment of big allocations to help autovectorization

  00018	81 f9 00 10 00
	00		 cmp	 ecx, 4096		; 00001000H
  0001e	72 12		 jb	 SHORT $LN22@CParticleS

; 158  :     const uintptr_t _Ptr_container   = _Ptr_user[-1];

  00020	8b 50 fc	 mov	 edx, DWORD PTR [eax-4]
  00023	83 c1 23	 add	 ecx, 35			; 00000023H

; 159  : 
; 160  :     // If the following asserts, it likely means that we are performing
; 161  :     // an aligned delete on memory coming from an unaligned allocation.
; 162  :     _STL_ASSERT(_Ptr_user[-2] == _Big_allocation_sentinel, "invalid argument");
; 163  : 
; 164  :     // Extra paranoia on aligned allocation/deallocation; ensure _Ptr_container is
; 165  :     // in range [_Min_back_shift, _Non_user_size]
; 166  : #ifdef _DEBUG
; 167  :     constexpr uintptr_t _Min_back_shift = 2 * sizeof(void*);
; 168  : #else // ^^^ _DEBUG ^^^ // vvv !_DEBUG vvv
; 169  :     constexpr uintptr_t _Min_back_shift = sizeof(void*);
; 170  : #endif // _DEBUG
; 171  :     const uintptr_t _Back_shift = reinterpret_cast<uintptr_t>(_Ptr) - _Ptr_container;

  00026	2b c2		 sub	 eax, edx

; 172  :     _STL_VERIFY(_Back_shift >= _Min_back_shift && _Back_shift <= _Non_user_size, "invalid argument");

  00028	83 c0 fc	 add	 eax, -4			; fffffffcH
  0002b	83 f8 1f	 cmp	 eax, 31			; 0000001fH
  0002e	77 31		 ja	 SHORT $LN19@CParticleS

; 173  :     _Ptr = reinterpret_cast<void*>(_Ptr_container);

  00030	8b c2		 mov	 eax, edx
$LN22@CParticleS:

; 264  :         ::operator delete(_Ptr, _Bytes);

  00032	51		 push	 ecx
  00033	50		 push	 eax
  00034	e8 00 00 00 00	 call	 ??3@YAXPAXI@Z		; operator delete
; File C:\Program Files (x86)\Microsoft Visual Studio\2019\Professional\VC\Tools\MSVC\14.29.30133\include\vector

; 1767 :             _Myfirst = nullptr;

  00039	c7 46 3c 00 00
	00 00		 mov	 DWORD PTR [esi+60], 0
; File C:\Program Files (x86)\Microsoft Visual Studio\2019\Professional\VC\Tools\MSVC\14.29.30133\include\xmemory

; 264  :         ::operator delete(_Ptr, _Bytes);

  00040	83 c4 08	 add	 esp, 8
; File C:\Program Files (x86)\Microsoft Visual Studio\2019\Professional\VC\Tools\MSVC\14.29.30133\include\vector

; 1768 :             _Mylast  = nullptr;

  00043	c7 46 40 00 00
	00 00		 mov	 DWORD PTR [esi+64], 0

; 1769 :             _Myend   = nullptr;

  0004a	c7 46 44 00 00
	00 00		 mov	 DWORD PTR [esi+68], 0
$LN6@CParticleS:
; File C:\Users\murat\Desktop\Siveps2-1-99-Project\source\client\Client\EffectLib\ParticleSystemInstance.cpp

; 519  : }

  00051	8d 4e 30	 lea	 ecx, DWORD PTR [esi+48]
  00054	e8 00 00 00 00	 call	 ??1?$vector@V?$list@PAVCParticleInstance@@V?$allocator@PAVCParticleInstance@@@std@@@std@@V?$allocator@V?$list@PAVCParticleInstance@@V?$allocator@PAVCParticleInstance@@@std@@@std@@@2@@std@@QAE@XZ ; std::vector<std::list<CParticleInstance *,std::allocator<CParticleInstance *> >,std::allocator<std::list<CParticleInstance *,std::allocator<CParticleInstance *> > > >::~vector<std::list<CParticleInstance *,std::allocator<CParticleInstance *> >,std::allocator<std::list<CParticleInstance *,std::allocator<CParticleInstance *> > > >
  00059	8b ce		 mov	 ecx, esi
  0005b	5e		 pop	 esi
  0005c	e9 00 00 00 00	 jmp	 ??1CEffectElementBaseInstance@@UAE@XZ ; CEffectElementBaseInstance::~CEffectElementBaseInstance
$LN19@CParticleS:
; File C:\Program Files (x86)\Microsoft Visual Studio\2019\Professional\VC\Tools\MSVC\14.29.30133\include\xmemory

; 172  :     _STL_VERIFY(_Back_shift >= _Min_back_shift && _Back_shift <= _Non_user_size, "invalid argument");

  00061	e8 00 00 00 00	 call	 __invalid_parameter_noinfo_noreturn
$LN28@CParticleS:
  00066	cc		 int	 3
??1CParticleSystemInstance@@UAE@XZ ENDP			; CParticleSystemInstance::~CParticleSystemInstance
_TEXT	ENDS
; Function compile flags: /Ogtp
; File C:\Users\murat\Desktop\Siveps2-1-99-Project\source\client\Client\EffectLib\ParticleSystemInstance.cpp
; File C:\Program Files (x86)\Microsoft Visual Studio\2019\Professional\VC\Tools\MSVC\14.29.30133\include\vector
; File C:\Users\murat\Desktop\Siveps2-1-99-Project\source\client\Client\EffectLib\ParticleSystemInstance.cpp
;	COMDAT ??0CParticleSystemInstance@@QAE@XZ
_TEXT	SEGMENT
_this$ = -16						; size = 4
__$EHRec$ = -12						; size = 12
??0CParticleSystemInstance@@QAE@XZ PROC			; CParticleSystemInstance::CParticleSystemInstance, COMDAT
; _this$ = ecx

; 511  : {

  00000	55		 push	 ebp
  00001	8b ec		 mov	 ebp, esp
  00003	6a ff		 push	 -1
  00005	68 00 00 00 00	 push	 __ehhandler$??0CParticleSystemInstance@@QAE@XZ
  0000a	64 a1 00 00 00
	00		 mov	 eax, DWORD PTR fs:0
  00010	50		 push	 eax
  00011	51		 push	 ecx
  00012	56		 push	 esi
  00013	a1 00 00 00 00	 mov	 eax, DWORD PTR ___security_cookie
  00018	33 c5		 xor	 eax, ebp
  0001a	50		 push	 eax
  0001b	8d 45 f4	 lea	 eax, DWORD PTR __$EHRec$[ebp]
  0001e	64 a3 00 00 00
	00		 mov	 DWORD PTR fs:0, eax
  00024	8b f1		 mov	 esi, ecx
  00026	89 75 f0	 mov	 DWORD PTR _this$[ebp], esi
  00029	e8 00 00 00 00	 call	 ??0CEffectElementBaseInstance@@QAE@XZ ; CEffectElementBaseInstance::CEffectElementBaseInstance
  0002e	c7 06 00 00 00
	00		 mov	 DWORD PTR [esi], OFFSET ??_7CParticleSystemInstance@@6B@
  00034	c7 45 fc 00 00
	00 00		 mov	 DWORD PTR __$EHRec$[ebp+8], 0
; File C:\Program Files (x86)\Microsoft Visual Studio\2019\Professional\VC\Tools\MSVC\14.29.30133\include\vector

; 401  :     _CONSTEXPR20_CONTAINER _Vector_val() noexcept : _Myfirst(), _Mylast(), _Myend() {}

  0003b	c7 46 30 00 00
	00 00		 mov	 DWORD PTR [esi+48], 0
  00042	c7 46 34 00 00
	00 00		 mov	 DWORD PTR [esi+52], 0
  00049	c7 46 38 00 00
	00 00		 mov	 DWORD PTR [esi+56], 0
  00050	c7 46 3c 00 00
	00 00		 mov	 DWORD PTR [esi+60], 0
  00057	c7 46 40 00 00
	00 00		 mov	 DWORD PTR [esi+64], 0
  0005e	c7 46 44 00 00
	00 00		 mov	 DWORD PTR [esi+68], 0
; File C:\Users\murat\Desktop\Siveps2-1-99-Project\source\client\Client\EffectLib\ParticleSystemInstance.cpp

; 512  : 	Initialize();

  00065	8b ce		 mov	 ecx, esi
  00067	c6 45 fc 02	 mov	 BYTE PTR __$EHRec$[ebp+8], 2
  0006b	e8 00 00 00 00	 call	 ?Initialize@CEffectElementBaseInstance@@QAEXXZ ; CEffectElementBaseInstance::Initialize

; 513  : }

  00070	8b c6		 mov	 eax, esi
  00072	8b 4d f4	 mov	 ecx, DWORD PTR __$EHRec$[ebp]
  00075	64 89 0d 00 00
	00 00		 mov	 DWORD PTR fs:0, ecx
  0007c	59		 pop	 ecx
  0007d	5e		 pop	 esi
  0007e	8b e5		 mov	 esp, ebp
  00080	5d		 pop	 ebp
  00081	c3		 ret	 0
_TEXT	ENDS
;	COMDAT text$x
text$x	SEGMENT
__unwindfunclet$??0CParticleSystemInstance@@QAE@XZ$0:
  00000	8b 4d f0	 mov	 ecx, DWORD PTR _this$[ebp]
  00003	e9 00 00 00 00	 jmp	 ??1CEffectElementBaseInstance@@UAE@XZ ; CEffectElementBaseInstance::~CEffectElementBaseInstance
__unwindfunclet$??0CParticleSystemInstance@@QAE@XZ$1:
  00008	8b 4d f0	 mov	 ecx, DWORD PTR _this$[ebp]
  0000b	83 c1 30	 add	 ecx, 48			; 00000030H
  0000e	e9 00 00 00 00	 jmp	 ??1?$vector@V?$list@PAVCParticleInstance@@V?$allocator@PAVCParticleInstance@@@std@@@std@@V?$allocator@V?$list@PAVCParticleInstance@@V?$allocator@PAVCParticleInstance@@@std@@@std@@@2@@std@@QAE@XZ ; std::vector<std::list<CParticleInstance *,std::allocator<CParticleInstance *> >,std::allocator<std::list<CParticleInstance *,std::allocator<CParticleInstance *> > > >::~vector<std::list<CParticleInstance *,std::allocator<CParticleInstance *> >,std::allocator<std::list<CParticleInstance *,std::allocator<CParticleInstance *> > > >
__unwindfunclet$??0CParticleSystemInstance@@QAE@XZ$2:
  00013	8b 4d f0	 mov	 ecx, DWORD PTR _this$[ebp]
  00016	83 c1 3c	 add	 ecx, 60			; 0000003cH
  00019	e9 00 00 00 00	 jmp	 ??1?$vector@PAVCGraphicImageInstance@@V?$allocator@PAVCGraphicImageInstance@@@std@@@std@@QAE@XZ ; std::vector<CGraphicImageInstance *,std::allocator<CGraphicImageInstance *> >::~vector<CGraphicImageInstance *,std::allocator<CGraphicImageInstance *> >
  0001e	cc		 int	 3
  0001f	cc		 int	 3
  00020	cc		 int	 3
  00021	cc		 int	 3
  00022	cc		 int	 3
__ehhandler$??0CParticleSystemInstance@@QAE@XZ:
  00023	90		 npad	 1
  00024	90		 npad	 1
  00025	8b 54 24 08	 mov	 edx, DWORD PTR [esp+8]
  00029	8d 42 0c	 lea	 eax, DWORD PTR [edx+12]
  0002c	8b 4a f4	 mov	 ecx, DWORD PTR [edx-12]
  0002f	33 c8		 xor	 ecx, eax
  00031	e8 00 00 00 00	 call	 @__security_check_cookie@4
  00036	b8 00 00 00 00	 mov	 eax, OFFSET __ehfuncinfo$??0CParticleSystemInstance@@QAE@XZ
  0003b	e9 00 00 00 00	 jmp	 ___CxxFrameHandler3
text$x	ENDS
??0CParticleSystemInstance@@QAE@XZ ENDP			; CParticleSystemInstance::CParticleSystemInstance
; Function compile flags: /Ogtp
; File C:\Users\murat\Desktop\Siveps2-1-99-Project\source\client\Client\EffectLib\ParticleSystemInstance.cpp
; File C:\Program Files (x86)\Microsoft Visual Studio\2019\Professional\VC\Tools\MSVC\14.29.30133\include\vector
; File C:\Users\murat\Desktop\Siveps2-1-99-Project\source\client\Client\EffectLib\ParticleSystemInstance.cpp
; File C:\Program Files (x86)\Microsoft Visual Studio\2019\Professional\VC\Tools\MSVC\14.29.30133\include\vector
; File C:\Users\murat\Desktop\Siveps2-1-99-Project\source\client\Client\EffectLib\ParticleSystemInstance.cpp
; File C:\Program Files (x86)\Microsoft Visual Studio\2019\Professional\VC\Tools\MSVC\14.29.30133\include\vector
; File C:\Users\murat\Desktop\Siveps2-1-99-Project\source\client\Client\EffectLib\ParticleSystemInstance.cpp
;	COMDAT ?Delete@CParticleSystemInstance@@SAXPAV1@@Z
_TEXT	SEGMENT
_pkData$ = 8						; size = 4
_pkPSInst$ = 8						; size = 4
?Delete@CParticleSystemInstance@@SAXPAV1@@Z PROC	; CParticleSystemInstance::Delete, COMDAT

; 26   : {

  00000	55		 push	 ebp
  00001	8b ec		 mov	 ebp, esp
  00003	56		 push	 esi

; 27   : 	pkPSInst->Destroy();

  00004	8b 75 08	 mov	 esi, DWORD PTR _pkPSInst$[ebp]
  00007	8b ce		 mov	 ecx, esi
  00009	e8 00 00 00 00	 call	 ?Destroy@CEffectElementBaseInstance@@QAEXXZ ; CEffectElementBaseInstance::Destroy
; File C:\Program Files (x86)\Microsoft Visual Studio\2019\Professional\VC\Tools\MSVC\14.29.30133\include\vector

; 743  :         if (_Mylast != _My_data._Myend) {

  0000e	a1 14 00 00 00	 mov	 eax, DWORD PTR ?ms_kPool@CParticleSystemInstance@@2V?$CDynamicPool@VCParticleSystemInstance@@@@A+20
; File C:\Users\murat\Desktop\Siveps2-1-99-Project\source\client\Client\EffectLib\ParticleSystemInstance.cpp

; 28   : 	ms_kPool.Free(pkPSInst);

  00013	89 75 08	 mov	 DWORD PTR _pkData$[ebp], esi
; File C:\Program Files (x86)\Microsoft Visual Studio\2019\Professional\VC\Tools\MSVC\14.29.30133\include\vector

; 743  :         if (_Mylast != _My_data._Myend) {

  00016	3b 05 18 00 00
	00		 cmp	 eax, DWORD PTR ?ms_kPool@CParticleSystemInstance@@2V?$CDynamicPool@VCParticleSystemInstance@@@@A+24
  0001c	74 0c		 je	 SHORT $LN8@Delete

; 726  :         _Alty_traits::construct(_Getal(), _Unfancy(_Mylast), _STD forward<_Valty>(_Val)...);

  0001e	89 30		 mov	 DWORD PTR [eax], esi

; 727  :         _Orphan_range(_Mylast, _Mylast);
; 728  :         _Ty& _Result = *_Mylast;
; 729  :         ++_Mylast;

  00020	83 05 14 00 00
	00 04		 add	 DWORD PTR ?ms_kPool@CParticleSystemInstance@@2V?$CDynamicPool@VCParticleSystemInstance@@@@A+20, 4
  00027	5e		 pop	 esi
; File C:\Users\murat\Desktop\Siveps2-1-99-Project\source\client\Client\EffectLib\ParticleSystemInstance.cpp

; 29   : }

  00028	5d		 pop	 ebp
  00029	c3		 ret	 0
$LN8@Delete:
; File C:\Program Files (x86)\Microsoft Visual Studio\2019\Professional\VC\Tools\MSVC\14.29.30133\include\vector

; 747  :         _Ty& _Result = *_Emplace_reallocate(_Mylast, _STD forward<_Valty>(_Val)...);

  0002a	8d 4d 08	 lea	 ecx, DWORD PTR _pkData$[ebp]
  0002d	51		 push	 ecx
  0002e	50		 push	 eax
  0002f	b9 10 00 00 00	 mov	 ecx, OFFSET ?ms_kPool@CParticleSystemInstance@@2V?$CDynamicPool@VCParticleSystemInstance@@@@A+16
  00034	e8 00 00 00 00	 call	 ??$_Emplace_reallocate@ABQAVCParticleSystemInstance@@@?$vector@PAVCParticleSystemInstance@@V?$allocator@PAVCParticleSystemInstance@@@std@@@std@@QAEPAPAVCParticleSystemInstance@@QAPAV2@ABQAV2@@Z ; std::vector<CParticleSystemInstance *,std::allocator<CParticleSystemInstance *> >::_Emplace_reallocate<CParticleSystemInstance * const &>
  00039	5e		 pop	 esi
; File C:\Users\murat\Desktop\Siveps2-1-99-Project\source\client\Client\EffectLib\ParticleSystemInstance.cpp

; 29   : }

  0003a	5d		 pop	 ebp
  0003b	c3		 ret	 0
?Delete@CParticleSystemInstance@@SAXPAV1@@Z ENDP	; CParticleSystemInstance::Delete
_TEXT	ENDS
; Function compile flags: /Ogtp
; File C:\Users\murat\Desktop\Siveps2-1-99-Project\source\client\Client\EffectLib\ParticleSystemInstance.cpp
; File C:\Users\murat\Desktop\Siveps2-1-99-Project\source\client\Client\eterLib\Pool.h
; File C:\Program Files (x86)\Microsoft Visual Studio\2019\Professional\VC\Tools\MSVC\14.29.30133\include\vector
; File C:\Users\murat\Desktop\Siveps2-1-99-Project\source\client\Client\eterLib\Pool.h
; File C:\Program Files (x86)\Microsoft Visual Studio\2019\Professional\VC\Tools\MSVC\14.29.30133\include\vector
; File C:\Users\murat\Desktop\Siveps2-1-99-Project\source\client\Client\EffectLib\ParticleSystemInstance.cpp
; File C:\Program Files (x86)\Microsoft Visual Studio\2019\Professional\VC\Tools\MSVC\14.29.30133\include\vector
; File C:\Users\murat\Desktop\Siveps2-1-99-Project\source\client\Client\eterLib\Pool.h
; File C:\Users\murat\Desktop\Siveps2-1-99-Project\source\client\Client\EffectLib\ParticleSystemInstance.cpp
; File C:\Program Files (x86)\Microsoft Visual Studio\2019\Professional\VC\Tools\MSVC\14.29.30133\include\vector
; File C:\Users\murat\Desktop\Siveps2-1-99-Project\source\client\Client\eterLib\Pool.h
; File C:\Users\murat\Desktop\Siveps2-1-99-Project\source\client\Client\EffectLib\ParticleSystemInstance.cpp
; File C:\Users\murat\Desktop\Siveps2-1-99-Project\source\client\Client\eterLib\Pool.h
; File C:\Program Files (x86)\Microsoft Visual Studio\2019\Professional\VC\Tools\MSVC\14.29.30133\include\vector
; File C:\Users\murat\Desktop\Siveps2-1-99-Project\source\client\Client\EffectLib\ParticleSystemInstance.cpp
;	COMDAT ?New@CParticleSystemInstance@@SAPAV1@XZ
_TEXT	SEGMENT
$T2 = -16						; size = 4
_pkNewData$3 = -16					; size = 4
__$EHRec$ = -12						; size = 12
?New@CParticleSystemInstance@@SAPAV1@XZ PROC		; CParticleSystemInstance::New, COMDAT

; 21   : {

  00000	55		 push	 ebp
  00001	8b ec		 mov	 ebp, esp
  00003	6a ff		 push	 -1
  00005	68 00 00 00 00	 push	 __ehhandler$?New@CParticleSystemInstance@@SAPAV1@XZ
  0000a	64 a1 00 00 00
	00		 mov	 eax, DWORD PTR fs:0
  00010	50		 push	 eax
  00011	51		 push	 ecx
  00012	56		 push	 esi
  00013	a1 00 00 00 00	 mov	 eax, DWORD PTR ___security_cookie
  00018	33 c5		 xor	 eax, ebp
  0001a	50		 push	 eax
  0001b	8d 45 f4	 lea	 eax, DWORD PTR __$EHRec$[ebp]
  0001e	64 a3 00 00 00
	00		 mov	 DWORD PTR fs:0, eax
; File C:\Users\murat\Desktop\Siveps2-1-99-Project\source\client\Client\eterLib\Pool.h

; 63   : 			if (m_kVct_pkFree.empty())

  00024	8b 0d 14 00 00
	00		 mov	 ecx, DWORD PTR ?ms_kPool@CParticleSystemInstance@@2V?$CDynamicPool@VCParticleSystemInstance@@@@A+20
  0002a	39 0d 10 00 00
	00		 cmp	 DWORD PTR ?ms_kPool@CParticleSystemInstance@@2V?$CDynamicPool@VCParticleSystemInstance@@@@A+16, ecx
  00030	0f 85 84 00 00
	00		 jne	 $LN4@New

; 65   : 				T* pkNewData=new T;

  00036	6a 54		 push	 84			; 00000054H
  00038	e8 00 00 00 00	 call	 ??2@YAPAXI@Z		; operator new
  0003d	83 c4 04	 add	 esp, 4
  00040	89 45 f0	 mov	 DWORD PTR $T2[ebp], eax
  00043	c7 45 fc 00 00
	00 00		 mov	 DWORD PTR __$EHRec$[ebp+8], 0
  0004a	85 c0		 test	 eax, eax
  0004c	74 0b		 je	 SHORT $LN6@New
  0004e	8b c8		 mov	 ecx, eax
  00050	e8 00 00 00 00	 call	 ??0CParticleSystemInstance@@QAE@XZ ; CParticleSystemInstance::CParticleSystemInstance
  00055	8b f0		 mov	 esi, eax
  00057	eb 02		 jmp	 SHORT $LN7@New
$LN6@New:
  00059	33 f6		 xor	 esi, esi
$LN7@New:
; File C:\Program Files (x86)\Microsoft Visual Studio\2019\Professional\VC\Tools\MSVC\14.29.30133\include\vector

; 743  :         if (_Mylast != _My_data._Myend) {

  0005b	a1 08 00 00 00	 mov	 eax, DWORD PTR ?ms_kPool@CParticleSystemInstance@@2V?$CDynamicPool@VCParticleSystemInstance@@@@A+8
; File C:\Users\murat\Desktop\Siveps2-1-99-Project\source\client\Client\eterLib\Pool.h

; 65   : 				T* pkNewData=new T;

  00060	c7 45 fc ff ff
	ff ff		 mov	 DWORD PTR __$EHRec$[ebp+8], -1
  00067	89 75 f0	 mov	 DWORD PTR _pkNewData$3[ebp], esi
; File C:\Program Files (x86)\Microsoft Visual Studio\2019\Professional\VC\Tools\MSVC\14.29.30133\include\vector

; 743  :         if (_Mylast != _My_data._Myend) {

  0006a	3b 05 0c 00 00
	00		 cmp	 eax, DWORD PTR ?ms_kPool@CParticleSystemInstance@@2V?$CDynamicPool@VCParticleSystemInstance@@@@A+12
  00070	74 21		 je	 SHORT $LN14@New

; 726  :         _Alty_traits::construct(_Getal(), _Unfancy(_Mylast), _STD forward<_Valty>(_Val)...);

  00072	89 30		 mov	 DWORD PTR [eax], esi
; File C:\Users\murat\Desktop\Siveps2-1-99-Project\source\client\Client\EffectLib\ParticleSystemInstance.cpp

; 22   : 	return ms_kPool.Alloc();

  00074	8b c6		 mov	 eax, esi
; File C:\Program Files (x86)\Microsoft Visual Studio\2019\Professional\VC\Tools\MSVC\14.29.30133\include\vector

; 729  :         ++_Mylast;

  00076	83 05 08 00 00
	00 04		 add	 DWORD PTR ?ms_kPool@CParticleSystemInstance@@2V?$CDynamicPool@VCParticleSystemInstance@@@@A+8, 4
; File C:\Users\murat\Desktop\Siveps2-1-99-Project\source\client\Client\eterLib\Pool.h

; 67   : 				++m_uUsedCapacity;

  0007d	ff 05 20 00 00
	00		 inc	 DWORD PTR ?ms_kPool@CParticleSystemInstance@@2V?$CDynamicPool@VCParticleSystemInstance@@@@A+32
; File C:\Users\murat\Desktop\Siveps2-1-99-Project\source\client\Client\EffectLib\ParticleSystemInstance.cpp

; 23   : }

  00083	8b 4d f4	 mov	 ecx, DWORD PTR __$EHRec$[ebp]
  00086	64 89 0d 00 00
	00 00		 mov	 DWORD PTR fs:0, ecx
  0008d	59		 pop	 ecx
  0008e	5e		 pop	 esi
  0008f	8b e5		 mov	 esp, ebp
  00091	5d		 pop	 ebp
  00092	c3		 ret	 0
$LN14@New:
; File C:\Program Files (x86)\Microsoft Visual Studio\2019\Professional\VC\Tools\MSVC\14.29.30133\include\vector

; 747  :         _Ty& _Result = *_Emplace_reallocate(_Mylast, _STD forward<_Valty>(_Val)...);

  00093	8d 4d f0	 lea	 ecx, DWORD PTR _pkNewData$3[ebp]
  00096	51		 push	 ecx
  00097	50		 push	 eax
  00098	b9 04 00 00 00	 mov	 ecx, OFFSET ?ms_kPool@CParticleSystemInstance@@2V?$CDynamicPool@VCParticleSystemInstance@@@@A+4
  0009d	e8 00 00 00 00	 call	 ??$_Emplace_reallocate@ABQAVCParticleSystemInstance@@@?$vector@PAVCParticleSystemInstance@@V?$allocator@PAVCParticleSystemInstance@@@std@@@std@@QAEPAPAVCParticleSystemInstance@@QAPAV2@ABQAV2@@Z ; std::vector<CParticleSystemInstance *,std::allocator<CParticleSystemInstance *> >::_Emplace_reallocate<CParticleSystemInstance * const &>
; File C:\Users\murat\Desktop\Siveps2-1-99-Project\source\client\Client\eterLib\Pool.h

; 67   : 				++m_uUsedCapacity;

  000a2	ff 05 20 00 00
	00		 inc	 DWORD PTR ?ms_kPool@CParticleSystemInstance@@2V?$CDynamicPool@VCParticleSystemInstance@@@@A+32
; File C:\Users\murat\Desktop\Siveps2-1-99-Project\source\client\Client\EffectLib\ParticleSystemInstance.cpp

; 22   : 	return ms_kPool.Alloc();

  000a8	8b c6		 mov	 eax, esi

; 23   : }

  000aa	8b 4d f4	 mov	 ecx, DWORD PTR __$EHRec$[ebp]
  000ad	64 89 0d 00 00
	00 00		 mov	 DWORD PTR fs:0, ecx
  000b4	59		 pop	 ecx
  000b5	5e		 pop	 esi
  000b6	8b e5		 mov	 esp, ebp
  000b8	5d		 pop	 ebp
  000b9	c3		 ret	 0
$LN4@New:
; File C:\Users\murat\Desktop\Siveps2-1-99-Project\source\client\Client\eterLib\Pool.h

; 71   : 			T* pkFreeData=m_kVct_pkFree.back();

  000ba	8b 41 fc	 mov	 eax, DWORD PTR [ecx-4]
; File C:\Program Files (x86)\Microsoft Visual Studio\2019\Professional\VC\Tools\MSVC\14.29.30133\include\vector

; 1624 :         return _My_data._Mylast[-1];

  000bd	83 c1 fc	 add	 ecx, -4			; fffffffcH

; 1403 :         --_Mylast;

  000c0	89 0d 14 00 00
	00		 mov	 DWORD PTR ?ms_kPool@CParticleSystemInstance@@2V?$CDynamicPool@VCParticleSystemInstance@@@@A+20, ecx
; File C:\Users\murat\Desktop\Siveps2-1-99-Project\source\client\Client\EffectLib\ParticleSystemInstance.cpp

; 23   : }

  000c6	8b 4d f4	 mov	 ecx, DWORD PTR __$EHRec$[ebp]
  000c9	64 89 0d 00 00
	00 00		 mov	 DWORD PTR fs:0, ecx
  000d0	59		 pop	 ecx
  000d1	5e		 pop	 esi
  000d2	8b e5		 mov	 esp, ebp
  000d4	5d		 pop	 ebp
  000d5	c3		 ret	 0
_TEXT	ENDS
;	COMDAT text$x
text$x	SEGMENT
__unwindfunclet$?New@CParticleSystemInstance@@SAPAV1@XZ$0:
  00000	6a 54		 push	 84			; 00000054H
  00002	8b 45 f0	 mov	 eax, DWORD PTR $T2[ebp]
  00005	50		 push	 eax
  00006	e8 00 00 00 00	 call	 ??3@YAXPAXI@Z		; operator delete
  0000b	83 c4 08	 add	 esp, 8
  0000e	c3		 ret	 0
  0000f	cc		 int	 3
  00010	cc		 int	 3
  00011	cc		 int	 3
  00012	cc		 int	 3
  00013	cc		 int	 3
__ehhandler$?New@CParticleSystemInstance@@SAPAV1@XZ:
  00014	90		 npad	 1
  00015	90		 npad	 1
  00016	8b 54 24 08	 mov	 edx, DWORD PTR [esp+8]
  0001a	8d 42 0c	 lea	 eax, DWORD PTR [edx+12]
  0001d	8b 4a f4	 mov	 ecx, DWORD PTR [edx-12]
  00020	33 c8		 xor	 ecx, eax
  00022	e8 00 00 00 00	 call	 @__security_check_cookie@4
  00027	b8 00 00 00 00	 mov	 eax, OFFSET __ehfuncinfo$?New@CParticleSystemInstance@@SAPAV1@XZ
  0002c	e9 00 00 00 00	 jmp	 ___CxxFrameHandler3
text$x	ENDS
?New@CParticleSystemInstance@@SAPAV1@XZ ENDP		; CParticleSystemInstance::New
; Function compile flags: /Ogtp
; File C:\Users\murat\Desktop\Siveps2-1-99-Project\source\client\Client\EffectLib\ParticleSystemInstance.cpp
; File C:\Program Files (x86)\Microsoft Visual Studio\2019\Professional\VC\Tools\MSVC\14.29.30133\include\algorithm
; File C:\Users\murat\Desktop\Siveps2-1-99-Project\source\client\Client\EffectLib\ParticleSystemInstance.cpp
; File C:\Program Files (x86)\Microsoft Visual Studio\2019\Professional\VC\Tools\MSVC\14.29.30133\include\algorithm
; File C:\Users\murat\Desktop\Siveps2-1-99-Project\source\client\Client\eterLib\Pool.h
; File C:\Program Files (x86)\Microsoft Visual Studio\2019\Professional\VC\Tools\MSVC\14.29.30133\include\algorithm
; File C:\Users\murat\Desktop\Siveps2-1-99-Project\source\client\Client\eterLib\Pool.h
; File C:\Users\murat\Desktop\Siveps2-1-99-Project\source\client\Client\EffectLib\ParticleSystemInstance.cpp
; File C:\Users\murat\Desktop\Siveps2-1-99-Project\source\client\Client\eterLib\Pool.h
; File C:\Users\murat\Desktop\Siveps2-1-99-Project\source\client\Client\EffectLib\ParticleSystemInstance.cpp
;	COMDAT ?DestroySystem@CParticleSystemInstance@@SAXXZ
_TEXT	SEGMENT
?DestroySystem@CParticleSystemInstance@@SAXXZ PROC	; CParticleSystemInstance::DestroySystem, COMDAT

; 13   : {

  00000	56		 push	 esi
; File C:\Program Files (x86)\Microsoft Visual Studio\2019\Professional\VC\Tools\MSVC\14.29.30133\include\algorithm

; 270  :     for (; _UFirst != _ULast; ++_UFirst) {

  00001	8b 35 04 00 00
	00		 mov	 esi, DWORD PTR ?ms_kPool@CParticleSystemInstance@@2V?$CDynamicPool@VCParticleSystemInstance@@@@A+4
; File C:\Users\murat\Desktop\Siveps2-1-99-Project\source\client\Client\EffectLib\ParticleSystemInstance.cpp

; 13   : {

  00007	57		 push	 edi
; File C:\Program Files (x86)\Microsoft Visual Studio\2019\Professional\VC\Tools\MSVC\14.29.30133\include\algorithm

; 269  :     const auto _ULast = _Get_unwrapped(_Last);

  00008	8b 3d 08 00 00
	00		 mov	 edi, DWORD PTR ?ms_kPool@CParticleSystemInstance@@2V?$CDynamicPool@VCParticleSystemInstance@@@@A+8

; 270  :     for (; _UFirst != _ULast; ++_UFirst) {

  0000e	3b f7		 cmp	 esi, edi
  00010	74 19		 je	 SHORT $LN19@DestroySys
$LL20@DestroySys:
; File C:\Users\murat\Desktop\Siveps2-1-99-Project\source\client\Client\eterLib\Pool.h

; 110  : 			delete pkData;

  00012	8b 0e		 mov	 ecx, DWORD PTR [esi]
  00014	85 c9		 test	 ecx, ecx
  00016	74 06		 je	 SHORT $LN18@DestroySys
  00018	8b 01		 mov	 eax, DWORD PTR [ecx]
  0001a	6a 01		 push	 1
  0001c	ff 10		 call	 DWORD PTR [eax]
$LN18@DestroySys:
; File C:\Program Files (x86)\Microsoft Visual Studio\2019\Professional\VC\Tools\MSVC\14.29.30133\include\algorithm

; 270  :     for (; _UFirst != _ULast; ++_UFirst) {

  0001e	83 c6 04	 add	 esi, 4
  00021	3b f7		 cmp	 esi, edi
  00023	75 ed		 jne	 SHORT $LL20@DestroySys
  00025	8b 35 04 00 00
	00		 mov	 esi, DWORD PTR ?ms_kPool@CParticleSystemInstance@@2V?$CDynamicPool@VCParticleSystemInstance@@@@A+4
$LN19@DestroySys:
; File C:\Users\murat\Desktop\Siveps2-1-99-Project\source\client\Client\eterLib\Pool.h

; 52   : 			m_kVct_pkFree.clear();

  0002b	a1 10 00 00 00	 mov	 eax, DWORD PTR ?ms_kPool@CParticleSystemInstance@@2V?$CDynamicPool@VCParticleSystemInstance@@@@A+16
; File C:\Users\murat\Desktop\Siveps2-1-99-Project\source\client\Client\EffectLib\ParticleSystemInstance.cpp

; 16   : 	CParticleInstance::DestroySystem();

  00030	5f		 pop	 edi
; File C:\Users\murat\Desktop\Siveps2-1-99-Project\source\client\Client\eterLib\Pool.h

; 51   : 			m_kVct_pkData.clear();

  00031	89 35 08 00 00
	00		 mov	 DWORD PTR ?ms_kPool@CParticleSystemInstance@@2V?$CDynamicPool@VCParticleSystemInstance@@@@A+8, esi

; 52   : 			m_kVct_pkFree.clear();

  00037	a3 14 00 00 00	 mov	 DWORD PTR ?ms_kPool@CParticleSystemInstance@@2V?$CDynamicPool@VCParticleSystemInstance@@@@A+20, eax
; File C:\Users\murat\Desktop\Siveps2-1-99-Project\source\client\Client\EffectLib\ParticleSystemInstance.cpp

; 16   : 	CParticleInstance::DestroySystem();

  0003c	5e		 pop	 esi
  0003d	e9 00 00 00 00	 jmp	 ?DestroySystem@CParticleInstance@@SAXXZ ; CParticleInstance::DestroySystem
?DestroySystem@CParticleSystemInstance@@SAXXZ ENDP	; CParticleSystemInstance::DestroySystem
_TEXT	ENDS
; Function compile flags: /Ogtp
; File C:\Program Files (x86)\Microsoft Visual Studio\2019\Professional\VC\Tools\MSVC\14.29.30133\include\xmemory
;	COMDAT ??$_Allocate_manually_vector_aligned@U_Default_allocate_traits@std@@@std@@YAPAXI@Z
_TEXT	SEGMENT
__Bytes$ = 8						; size = 4
??$_Allocate_manually_vector_aligned@U_Default_allocate_traits@std@@@std@@YAPAXI@Z PROC ; std::_Allocate_manually_vector_aligned<std::_Default_allocate_traits>, COMDAT

; 134  : __declspec(allocator) void* _Allocate_manually_vector_aligned(const size_t _Bytes) {

  00000	55		 push	 ebp
  00001	8b ec		 mov	 ebp, esp

; 135  :     // allocate _Bytes manually aligned to at least _Big_allocation_alignment
; 136  :     const size_t _Block_size = _Non_user_size + _Bytes;

  00003	8b 45 08	 mov	 eax, DWORD PTR __Bytes$[ebp]
  00006	8d 48 23	 lea	 ecx, DWORD PTR [eax+35]

; 137  :     if (_Block_size <= _Bytes) {

  00009	3b c8		 cmp	 ecx, eax
  0000b	0f 86 00 00 00
	00		 jbe	 ?_Throw_bad_array_new_length@std@@YAXXZ ; std::_Throw_bad_array_new_length

; 85   :         return ::operator new(_Bytes);

  00011	51		 push	 ecx
  00012	e8 00 00 00 00	 call	 ??2@YAPAXI@Z		; operator new

; 138  :         _Throw_bad_array_new_length(); // add overflow
; 139  :     }
; 140  : 
; 141  :     const uintptr_t _Ptr_container = reinterpret_cast<uintptr_t>(_Traits::_Allocate(_Block_size));

  00017	8b c8		 mov	 ecx, eax

; 85   :         return ::operator new(_Bytes);

  00019	83 c4 04	 add	 esp, 4

; 142  :     _STL_VERIFY(_Ptr_container != 0, "invalid argument"); // validate even in release since we're doing p[-1]

  0001c	85 c9		 test	 ecx, ecx
  0001e	74 0b		 je	 SHORT $LN7@Allocate_m

; 143  :     void* const _Ptr = reinterpret_cast<void*>((_Ptr_container + _Non_user_size) & ~(_Big_allocation_alignment - 1));

  00020	8d 41 23	 lea	 eax, DWORD PTR [ecx+35]
  00023	83 e0 e0	 and	 eax, -32		; ffffffe0H

; 144  :     static_cast<uintptr_t*>(_Ptr)[-1] = _Ptr_container;

  00026	89 48 fc	 mov	 DWORD PTR [eax-4], ecx

; 145  : 
; 146  : #ifdef _DEBUG
; 147  :     static_cast<uintptr_t*>(_Ptr)[-2] = _Big_allocation_sentinel;
; 148  : #endif // _DEBUG
; 149  :     return _Ptr;
; 150  : }

  00029	5d		 pop	 ebp
  0002a	c3		 ret	 0
$LN7@Allocate_m:

; 142  :     _STL_VERIFY(_Ptr_container != 0, "invalid argument"); // validate even in release since we're doing p[-1]

  0002b	e9 00 00 00 00	 jmp	 __invalid_parameter_noinfo_noreturn
??$_Allocate_manually_vector_aligned@U_Default_allocate_traits@std@@@std@@YAPAXI@Z ENDP ; std::_Allocate_manually_vector_aligned<std::_Default_allocate_traits>
_TEXT	ENDS
; Function compile flags: /Ogtp
; File C:\Program Files (x86)\Microsoft Visual Studio\2019\Professional\VC\Tools\MSVC\14.29.30133\include\exception
;	COMDAT ?_Throw_bad_array_new_length@std@@YAXXZ
_TEXT	SEGMENT
$T1 = -12						; size = 12
?_Throw_bad_array_new_length@std@@YAXXZ PROC		; std::_Throw_bad_array_new_length, COMDAT

; 320  : [[noreturn]] inline void _Throw_bad_array_new_length() {

  00000	55		 push	 ebp
  00001	8b ec		 mov	 ebp, esp
  00003	83 ec 0c	 sub	 esp, 12			; 0000000cH

; 321  :     _THROW(bad_array_new_length{});

  00006	8d 4d f4	 lea	 ecx, DWORD PTR $T1[ebp]
  00009	e8 00 00 00 00	 call	 ??0bad_array_new_length@std@@QAE@XZ ; std::bad_array_new_length::bad_array_new_length
  0000e	68 00 00 00 00	 push	 OFFSET __TI3?AVbad_array_new_length@std@@
  00013	8d 45 f4	 lea	 eax, DWORD PTR $T1[ebp]
  00016	50		 push	 eax
  00017	e8 00 00 00 00	 call	 __CxxThrowException@8
$LN3@Throw_bad_:
  0001c	cc		 int	 3
?_Throw_bad_array_new_length@std@@YAXXZ ENDP		; std::_Throw_bad_array_new_length
_TEXT	ENDS
; Function compile flags: /Ogtp
; File C:\Program Files (x86)\Microsoft Visual Studio\2019\Professional\VC\Tools\MSVC\14.29.30133\include\vcruntime_exception.h
;	COMDAT ??_Gbad_array_new_length@std@@UAEPAXI@Z
_TEXT	SEGMENT
___flags$ = 8						; size = 4
??_Gbad_array_new_length@std@@UAEPAXI@Z PROC		; std::bad_array_new_length::`scalar deleting destructor', COMDAT
; _this$ = ecx
  00000	55		 push	 ebp
  00001	8b ec		 mov	 ebp, esp

; 89   :     {

  00003	56		 push	 esi
  00004	8b f1		 mov	 esi, ecx

; 90   :         __std_exception_destroy(&_Data);

  00006	8d 46 04	 lea	 eax, DWORD PTR [esi+4]
  00009	c7 06 00 00 00
	00		 mov	 DWORD PTR [esi], OFFSET ??_7exception@std@@6B@
  0000f	50		 push	 eax
  00010	e8 00 00 00 00	 call	 ___std_exception_destroy
  00015	83 c4 04	 add	 esp, 4
  00018	f6 45 08 01	 test	 BYTE PTR ___flags$[ebp], 1
  0001c	74 0b		 je	 SHORT $LN12@scalar
  0001e	6a 0c		 push	 12			; 0000000cH
  00020	56		 push	 esi
  00021	e8 00 00 00 00	 call	 ??3@YAXPAXI@Z		; operator delete
  00026	83 c4 08	 add	 esp, 8
$LN12@scalar:
  00029	8b c6		 mov	 eax, esi
  0002b	5e		 pop	 esi
  0002c	5d		 pop	 ebp
  0002d	c2 04 00	 ret	 4
??_Gbad_array_new_length@std@@UAEPAXI@Z ENDP		; std::bad_array_new_length::`scalar deleting destructor'
_TEXT	ENDS
; Function compile flags: /Ogtp
; File C:\Program Files (x86)\Microsoft Visual Studio\2019\Professional\VC\Tools\MSVC\14.29.30133\include\vcruntime_exception.h
;	COMDAT ??0bad_array_new_length@std@@QAE@ABV01@@Z
_TEXT	SEGMENT
___that$ = 8						; size = 4
??0bad_array_new_length@std@@QAE@ABV01@@Z PROC		; std::bad_array_new_length::bad_array_new_length, COMDAT
; _this$ = ecx
  00000	55		 push	 ebp
  00001	8b ec		 mov	 ebp, esp

; 72   :     {

  00003	56		 push	 esi
  00004	8b f1		 mov	 esi, ecx
  00006	0f 57 c0	 xorps	 xmm0, xmm0

; 71   :         : _Data()

  00009	8d 46 04	 lea	 eax, DWORD PTR [esi+4]

; 73   :         __std_exception_copy(&_Other._Data, &_Data);

  0000c	50		 push	 eax
  0000d	c7 06 00 00 00
	00		 mov	 DWORD PTR [esi], OFFSET ??_7exception@std@@6B@
  00013	66 0f d6 00	 movq	 QWORD PTR [eax], xmm0
  00017	8b 45 08	 mov	 eax, DWORD PTR ___that$[ebp]
  0001a	83 c0 04	 add	 eax, 4
  0001d	50		 push	 eax
  0001e	e8 00 00 00 00	 call	 ___std_exception_copy
  00023	83 c4 08	 add	 esp, 8
  00026	c7 06 00 00 00
	00		 mov	 DWORD PTR [esi], OFFSET ??_7bad_array_new_length@std@@6B@
  0002c	8b c6		 mov	 eax, esi
  0002e	5e		 pop	 esi
  0002f	5d		 pop	 ebp
  00030	c2 04 00	 ret	 4
??0bad_array_new_length@std@@QAE@ABV01@@Z ENDP		; std::bad_array_new_length::bad_array_new_length
_TEXT	ENDS
; Function compile flags: /Ogtp
; File C:\Program Files (x86)\Microsoft Visual Studio\2019\Professional\VC\Tools\MSVC\14.29.30133\include\vcruntime_exception.h
;	COMDAT ??1bad_array_new_length@std@@UAE@XZ
_TEXT	SEGMENT
??1bad_array_new_length@std@@UAE@XZ PROC		; std::bad_array_new_length::~bad_array_new_length, COMDAT
; _this$ = ecx

; 90   :         __std_exception_destroy(&_Data);

  00000	8d 41 04	 lea	 eax, DWORD PTR [ecx+4]
  00003	c7 01 00 00 00
	00		 mov	 DWORD PTR [ecx], OFFSET ??_7exception@std@@6B@
  00009	50		 push	 eax
  0000a	e8 00 00 00 00	 call	 ___std_exception_destroy
  0000f	59		 pop	 ecx
  00010	c3		 ret	 0
??1bad_array_new_length@std@@UAE@XZ ENDP		; std::bad_array_new_length::~bad_array_new_length
_TEXT	ENDS
; Function compile flags: /Ogtp
; File C:\Program Files (x86)\Microsoft Visual Studio\2019\Professional\VC\Tools\MSVC\14.29.30133\include\vcruntime_exception.h
;	COMDAT ??0bad_array_new_length@std@@QAE@XZ
_TEXT	SEGMENT
??0bad_array_new_length@std@@QAE@XZ PROC		; std::bad_array_new_length::bad_array_new_length, COMDAT
; _this$ = ecx

; 141  :     {

  00000	0f 57 c0	 xorps	 xmm0, xmm0

; 142  :     }

  00003	8b c1		 mov	 eax, ecx

; 65   :         : _Data()

  00005	66 0f d6 41 04	 movq	 QWORD PTR [ecx+4], xmm0

; 66   :     {
; 67   :         _Data._What = _Message;

  0000a	c7 41 04 00 00
	00 00		 mov	 DWORD PTR [ecx+4], OFFSET ??_C@_0BF@KINCDENJ@bad?5array?5new?5length@

; 141  :     {

  00011	c7 01 00 00 00
	00		 mov	 DWORD PTR [ecx], OFFSET ??_7bad_array_new_length@std@@6B@

; 142  :     }

  00017	c3		 ret	 0
??0bad_array_new_length@std@@QAE@XZ ENDP		; std::bad_array_new_length::bad_array_new_length
_TEXT	ENDS
; Function compile flags: /Ogtp
; File C:\Program Files (x86)\Microsoft Visual Studio\2019\Professional\VC\Tools\MSVC\14.29.30133\include\vcruntime_exception.h
;	COMDAT ??_Gbad_alloc@std@@UAEPAXI@Z
_TEXT	SEGMENT
___flags$ = 8						; size = 4
??_Gbad_alloc@std@@UAEPAXI@Z PROC			; std::bad_alloc::`scalar deleting destructor', COMDAT
; _this$ = ecx
  00000	55		 push	 ebp
  00001	8b ec		 mov	 ebp, esp

; 89   :     {

  00003	56		 push	 esi
  00004	8b f1		 mov	 esi, ecx

; 90   :         __std_exception_destroy(&_Data);

  00006	8d 46 04	 lea	 eax, DWORD PTR [esi+4]
  00009	c7 06 00 00 00
	00		 mov	 DWORD PTR [esi], OFFSET ??_7exception@std@@6B@
  0000f	50		 push	 eax
  00010	e8 00 00 00 00	 call	 ___std_exception_destroy
  00015	83 c4 04	 add	 esp, 4
  00018	f6 45 08 01	 test	 BYTE PTR ___flags$[ebp], 1
  0001c	74 0b		 je	 SHORT $LN9@scalar
  0001e	6a 0c		 push	 12			; 0000000cH
  00020	56		 push	 esi
  00021	e8 00 00 00 00	 call	 ??3@YAXPAXI@Z		; operator delete
  00026	83 c4 08	 add	 esp, 8
$LN9@scalar:
  00029	8b c6		 mov	 eax, esi
  0002b	5e		 pop	 esi
  0002c	5d		 pop	 ebp
  0002d	c2 04 00	 ret	 4
??_Gbad_alloc@std@@UAEPAXI@Z ENDP			; std::bad_alloc::`scalar deleting destructor'
_TEXT	ENDS
; Function compile flags: /Ogtp
; File C:\Program Files (x86)\Microsoft Visual Studio\2019\Professional\VC\Tools\MSVC\14.29.30133\include\vcruntime_exception.h
;	COMDAT ??0bad_alloc@std@@QAE@ABV01@@Z
_TEXT	SEGMENT
___that$ = 8						; size = 4
??0bad_alloc@std@@QAE@ABV01@@Z PROC			; std::bad_alloc::bad_alloc, COMDAT
; _this$ = ecx
  00000	55		 push	 ebp
  00001	8b ec		 mov	 ebp, esp

; 72   :     {

  00003	56		 push	 esi
  00004	8b f1		 mov	 esi, ecx
  00006	0f 57 c0	 xorps	 xmm0, xmm0

; 71   :         : _Data()

  00009	8d 46 04	 lea	 eax, DWORD PTR [esi+4]

; 73   :         __std_exception_copy(&_Other._Data, &_Data);

  0000c	50		 push	 eax
  0000d	c7 06 00 00 00
	00		 mov	 DWORD PTR [esi], OFFSET ??_7exception@std@@6B@
  00013	66 0f d6 00	 movq	 QWORD PTR [eax], xmm0
  00017	8b 45 08	 mov	 eax, DWORD PTR ___that$[ebp]
  0001a	83 c0 04	 add	 eax, 4
  0001d	50		 push	 eax
  0001e	e8 00 00 00 00	 call	 ___std_exception_copy
  00023	83 c4 08	 add	 esp, 8
  00026	c7 06 00 00 00
	00		 mov	 DWORD PTR [esi], OFFSET ??_7bad_alloc@std@@6B@
  0002c	8b c6		 mov	 eax, esi
  0002e	5e		 pop	 esi
  0002f	5d		 pop	 ebp
  00030	c2 04 00	 ret	 4
??0bad_alloc@std@@QAE@ABV01@@Z ENDP			; std::bad_alloc::bad_alloc
_TEXT	ENDS
; Function compile flags: /Ogtp
; File C:\Program Files (x86)\Microsoft Visual Studio\2019\Professional\VC\Tools\MSVC\14.29.30133\include\vcruntime_exception.h
;	COMDAT ??_Gexception@std@@UAEPAXI@Z
_TEXT	SEGMENT
___flags$ = 8						; size = 4
??_Gexception@std@@UAEPAXI@Z PROC			; std::exception::`scalar deleting destructor', COMDAT
; _this$ = ecx
  00000	55		 push	 ebp
  00001	8b ec		 mov	 ebp, esp

; 89   :     {

  00003	56		 push	 esi
  00004	8b f1		 mov	 esi, ecx

; 90   :         __std_exception_destroy(&_Data);

  00006	8d 46 04	 lea	 eax, DWORD PTR [esi+4]
  00009	c7 06 00 00 00
	00		 mov	 DWORD PTR [esi], OFFSET ??_7exception@std@@6B@
  0000f	50		 push	 eax
  00010	e8 00 00 00 00	 call	 ___std_exception_destroy
  00015	83 c4 04	 add	 esp, 4
  00018	f6 45 08 01	 test	 BYTE PTR ___flags$[ebp], 1
  0001c	74 0b		 je	 SHORT $LN6@scalar
  0001e	6a 0c		 push	 12			; 0000000cH
  00020	56		 push	 esi
  00021	e8 00 00 00 00	 call	 ??3@YAXPAXI@Z		; operator delete
  00026	83 c4 08	 add	 esp, 8
$LN6@scalar:
  00029	8b c6		 mov	 eax, esi
  0002b	5e		 pop	 esi
  0002c	5d		 pop	 ebp
  0002d	c2 04 00	 ret	 4
??_Gexception@std@@UAEPAXI@Z ENDP			; std::exception::`scalar deleting destructor'
_TEXT	ENDS
; Function compile flags: /Ogtp
; File C:\Program Files (x86)\Microsoft Visual Studio\2019\Professional\VC\Tools\MSVC\14.29.30133\include\vcruntime_exception.h
;	COMDAT ?what@exception@std@@UBEPBDXZ
_TEXT	SEGMENT
?what@exception@std@@UBEPBDXZ PROC			; std::exception::what, COMDAT
; _this$ = ecx

; 95   :         return _Data._What ? _Data._What : "Unknown exception";

  00000	8b 49 04	 mov	 ecx, DWORD PTR [ecx+4]
  00003	b8 00 00 00 00	 mov	 eax, OFFSET ??_C@_0BC@EOODALEL@Unknown?5exception@
  00008	85 c9		 test	 ecx, ecx
  0000a	0f 45 c1	 cmovne	 eax, ecx

; 96   :     }

  0000d	c3		 ret	 0
?what@exception@std@@UBEPBDXZ ENDP			; std::exception::what
_TEXT	ENDS
; Function compile flags: /Ogtp
; File C:\Program Files (x86)\Microsoft Visual Studio\2019\Professional\VC\Tools\MSVC\14.29.30133\include\vcruntime_exception.h
;	COMDAT ??1exception@std@@UAE@XZ
_TEXT	SEGMENT
??1exception@std@@UAE@XZ PROC				; std::exception::~exception, COMDAT
; _this$ = ecx

; 90   :         __std_exception_destroy(&_Data);

  00000	8d 41 04	 lea	 eax, DWORD PTR [ecx+4]
  00003	c7 01 00 00 00
	00		 mov	 DWORD PTR [ecx], OFFSET ??_7exception@std@@6B@
  00009	50		 push	 eax
  0000a	e8 00 00 00 00	 call	 ___std_exception_destroy
  0000f	59		 pop	 ecx

; 91   :     }

  00010	c3		 ret	 0
??1exception@std@@UAE@XZ ENDP				; std::exception::~exception
_TEXT	ENDS
; Function compile flags: /Ogtp
; File C:\Program Files (x86)\Microsoft Visual Studio\2019\Professional\VC\Tools\MSVC\14.29.30133\include\vcruntime_exception.h
;	COMDAT ??0exception@std@@QAE@ABV01@@Z
_TEXT	SEGMENT
__Other$ = 8						; size = 4
??0exception@std@@QAE@ABV01@@Z PROC			; std::exception::exception, COMDAT
; _this$ = ecx

; 72   :     {

  00000	55		 push	 ebp
  00001	8b ec		 mov	 ebp, esp
  00003	56		 push	 esi
  00004	8b f1		 mov	 esi, ecx
  00006	0f 57 c0	 xorps	 xmm0, xmm0
  00009	8d 46 04	 lea	 eax, DWORD PTR [esi+4]

; 73   :         __std_exception_copy(&_Other._Data, &_Data);

  0000c	50		 push	 eax
  0000d	c7 06 00 00 00
	00		 mov	 DWORD PTR [esi], OFFSET ??_7exception@std@@6B@
  00013	66 0f d6 00	 movq	 QWORD PTR [eax], xmm0
  00017	8b 45 08	 mov	 eax, DWORD PTR __Other$[ebp]
  0001a	83 c0 04	 add	 eax, 4
  0001d	50		 push	 eax
  0001e	e8 00 00 00 00	 call	 ___std_exception_copy
  00023	83 c4 08	 add	 esp, 8

; 74   :     }

  00026	8b c6		 mov	 eax, esi
  00028	5e		 pop	 esi
  00029	5d		 pop	 ebp
  0002a	c2 04 00	 ret	 4
??0exception@std@@QAE@ABV01@@Z ENDP			; std::exception::exception
_TEXT	ENDS
; Function compile flags: /Ogtp
; File C:\Users\murat\Desktop\Siveps2-1-99-Project\source\client\Client\EffectLib\ParticleSystemInstance.cpp
;	COMDAT ?__empty_global_delete@@YAXPAXI@Z
_TEXT	SEGMENT
___formal$ = 8						; size = 4
___formal$ = 12						; size = 4
?__empty_global_delete@@YAXPAXI@Z PROC			; __empty_global_delete, COMDAT

  00000	c2 00 00	 ret	 0
?__empty_global_delete@@YAXPAXI@Z ENDP			; __empty_global_delete
_TEXT	ENDS
; Function compile flags: /Ogtp
; File C:\Users\murat\Desktop\Siveps2-1-99-Project\source\client\Client\EffectLib\ParticleSystemInstance.cpp
;	COMDAT ?__empty_global_delete@@YAXPAX@Z
_TEXT	SEGMENT
___formal$ = 8						; size = 4
?__empty_global_delete@@YAXPAX@Z PROC			; __empty_global_delete, COMDAT

  00000	c2 00 00	 ret	 0
?__empty_global_delete@@YAXPAX@Z ENDP			; __empty_global_delete
_TEXT	ENDS
; Function compile flags: /Ogtp
;	COMDAT ??_H@YGXPAXIIP6EPAX0@Z@Z
_TEXT	SEGMENT
___t$ = 8						; size = 4
___s$ = 12						; size = 4
___n$ = 16						; size = 4
___f$ = 20						; size = 4
??_H@YGXPAXIIP6EPAX0@Z@Z PROC				; `vector constructor iterator', COMDAT
  00000	55		 push	 ebp
  00001	8b ec		 mov	 ebp, esp
  00003	56		 push	 esi
  00004	8b 75 10	 mov	 esi, DWORD PTR ___n$[ebp]
  00007	85 f6		 test	 esi, esi
  00009	74 16		 je	 SHORT $LN6@vector
  0000b	53		 push	 ebx
  0000c	8b 5d 14	 mov	 ebx, DWORD PTR ___f$[ebp]
  0000f	57		 push	 edi
  00010	8b 7d 08	 mov	 edi, DWORD PTR ___t$[ebp]
$LL2@vector:
  00013	8b cf		 mov	 ecx, edi
  00015	ff d3		 call	 ebx
  00017	03 7d 0c	 add	 edi, DWORD PTR ___s$[ebp]
  0001a	83 ee 01	 sub	 esi, 1
  0001d	75 f4		 jne	 SHORT $LL2@vector
  0001f	5f		 pop	 edi
  00020	5b		 pop	 ebx
$LN6@vector:
  00021	5e		 pop	 esi
  00022	5d		 pop	 ebp
  00023	c2 10 00	 ret	 16			; 00000010H
??_H@YGXPAXIIP6EPAX0@Z@Z ENDP				; `vector constructor iterator'
_TEXT	ENDS
END
