; Listing generated by Microsoft (R) Optimizing Compiler Version 19.29.30137.0 

	TITLE	C:\Users\murat\Desktop\Siveps2-1-99-Project\source\client\Client\EffectLib\Distribute\ParticleInstance.obj
	.686P
	.XMM
	include listing.inc
	.model	flat

INCLUDELIB LIBCMT
INCLUDELIB OLDNAMES

PUBLIC	??_7?$CDynamicPool@VCParticleInstance@@@@6B@	; CDynamicPool<CParticleInstance>::`vftable'
PUBLIC	??_G?$CDynamicPool@VCParticleInstance@@@@UAEPAXI@Z ; CDynamicPool<CParticleInstance>::`scalar deleting destructor'
PUBLIC	??_7?$CDynamicPoolEx@VCRotationDecorator@NEffectUpdateDecorator@@@@6B@ ; CDynamicPoolEx<NEffectUpdateDecorator::CRotationDecorator>::`vftable'
PUBLIC	??_G?$CDynamicPoolEx@VCRotationDecorator@NEffectUpdateDecorator@@@@UAEPAXI@Z ; CDynamicPoolEx<NEffectUpdateDecorator::CRotationDecorator>::`scalar deleting destructor'
PUBLIC	??_7?$CDynamicPoolEx@VCGravityDecorator@NEffectUpdateDecorator@@@@6B@ ; CDynamicPoolEx<NEffectUpdateDecorator::CGravityDecorator>::`vftable'
PUBLIC	??_G?$CDynamicPoolEx@VCGravityDecorator@NEffectUpdateDecorator@@@@UAEPAXI@Z ; CDynamicPoolEx<NEffectUpdateDecorator::CGravityDecorator>::`scalar deleting destructor'
PUBLIC	??_7?$CDynamicPoolEx@VCAirResistanceDecorator@NEffectUpdateDecorator@@@@6B@ ; CDynamicPoolEx<NEffectUpdateDecorator::CAirResistanceDecorator>::`vftable'
PUBLIC	??_G?$CDynamicPoolEx@VCAirResistanceDecorator@NEffectUpdateDecorator@@@@UAEPAXI@Z ; CDynamicPoolEx<NEffectUpdateDecorator::CAirResistanceDecorator>::`scalar deleting destructor'
PUBLIC	??_7?$CDynamicPoolEx@VCTextureAnimationRandomDecorator@NEffectUpdateDecorator@@@@6B@ ; CDynamicPoolEx<NEffectUpdateDecorator::CTextureAnimationRandomDecorator>::`vftable'
PUBLIC	??_G?$CDynamicPoolEx@VCTextureAnimationRandomDecorator@NEffectUpdateDecorator@@@@UAEPAXI@Z ; CDynamicPoolEx<NEffectUpdateDecorator::CTextureAnimationRandomDecorator>::`scalar deleting destructor'
PUBLIC	??_R4?$CDynamicPoolEx@VCHeaderDecorator@NEffectUpdateDecorator@@@@6B@ ; CDynamicPoolEx<NEffectUpdateDecorator::CHeaderDecorator>::`RTTI Complete Object Locator'
PUBLIC	??_R0?AV?$CDynamicPoolEx@VCHeaderDecorator@NEffectUpdateDecorator@@@@@8 ; CDynamicPoolEx<NEffectUpdateDecorator::CHeaderDecorator> `RTTI Type Descriptor'
PUBLIC	??_R3?$CDynamicPoolEx@VCHeaderDecorator@NEffectUpdateDecorator@@@@8 ; CDynamicPoolEx<NEffectUpdateDecorator::CHeaderDecorator>::`RTTI Class Hierarchy Descriptor'
PUBLIC	??_R2?$CDynamicPoolEx@VCHeaderDecorator@NEffectUpdateDecorator@@@@8 ; CDynamicPoolEx<NEffectUpdateDecorator::CHeaderDecorator>::`RTTI Base Class Array'
PUBLIC	??_R1A@?0A@EA@?$CDynamicPoolEx@VCHeaderDecorator@NEffectUpdateDecorator@@@@8 ; CDynamicPoolEx<NEffectUpdateDecorator::CHeaderDecorator>::`RTTI Base Class Descriptor at (0,-1,0,64)'
PUBLIC	??_R4?$CDynamicPoolEx@VCNullDecorator@NEffectUpdateDecorator@@@@6B@ ; CDynamicPoolEx<NEffectUpdateDecorator::CNullDecorator>::`RTTI Complete Object Locator'
PUBLIC	??_R0?AV?$CDynamicPoolEx@VCNullDecorator@NEffectUpdateDecorator@@@@@8 ; CDynamicPoolEx<NEffectUpdateDecorator::CNullDecorator> `RTTI Type Descriptor'
PUBLIC	??_R3?$CDynamicPoolEx@VCNullDecorator@NEffectUpdateDecorator@@@@8 ; CDynamicPoolEx<NEffectUpdateDecorator::CNullDecorator>::`RTTI Class Hierarchy Descriptor'
PUBLIC	??_R2?$CDynamicPoolEx@VCNullDecorator@NEffectUpdateDecorator@@@@8 ; CDynamicPoolEx<NEffectUpdateDecorator::CNullDecorator>::`RTTI Base Class Array'
PUBLIC	??_R1A@?0A@EA@?$CDynamicPoolEx@VCNullDecorator@NEffectUpdateDecorator@@@@8 ; CDynamicPoolEx<NEffectUpdateDecorator::CNullDecorator>::`RTTI Base Class Descriptor at (0,-1,0,64)'
PUBLIC	??_R4?$CDynamicPoolEx@VCTextureAnimationCWDecorator@NEffectUpdateDecorator@@@@6B@ ; CDynamicPoolEx<NEffectUpdateDecorator::CTextureAnimationCWDecorator>::`RTTI Complete Object Locator'
PUBLIC	??_R0?AV?$CDynamicPoolEx@VCTextureAnimationCWDecorator@NEffectUpdateDecorator@@@@@8 ; CDynamicPoolEx<NEffectUpdateDecorator::CTextureAnimationCWDecorator> `RTTI Type Descriptor'
PUBLIC	??_R3?$CDynamicPoolEx@VCTextureAnimationCWDecorator@NEffectUpdateDecorator@@@@8 ; CDynamicPoolEx<NEffectUpdateDecorator::CTextureAnimationCWDecorator>::`RTTI Class Hierarchy Descriptor'
PUBLIC	??_R2?$CDynamicPoolEx@VCTextureAnimationCWDecorator@NEffectUpdateDecorator@@@@8 ; CDynamicPoolEx<NEffectUpdateDecorator::CTextureAnimationCWDecorator>::`RTTI Base Class Array'
PUBLIC	??_R1A@?0A@EA@?$CDynamicPoolEx@VCTextureAnimationCWDecorator@NEffectUpdateDecorator@@@@8 ; CDynamicPoolEx<NEffectUpdateDecorator::CTextureAnimationCWDecorator>::`RTTI Base Class Descriptor at (0,-1,0,64)'
PUBLIC	??_R4?$CDynamicPoolEx@VCTextureAnimationCCWDecorator@NEffectUpdateDecorator@@@@6B@ ; CDynamicPoolEx<NEffectUpdateDecorator::CTextureAnimationCCWDecorator>::`RTTI Complete Object Locator'
PUBLIC	??_R0?AV?$CDynamicPoolEx@VCTextureAnimationCCWDecorator@NEffectUpdateDecorator@@@@@8 ; CDynamicPoolEx<NEffectUpdateDecorator::CTextureAnimationCCWDecorator> `RTTI Type Descriptor'
PUBLIC	??_R3?$CDynamicPoolEx@VCTextureAnimationCCWDecorator@NEffectUpdateDecorator@@@@8 ; CDynamicPoolEx<NEffectUpdateDecorator::CTextureAnimationCCWDecorator>::`RTTI Class Hierarchy Descriptor'
PUBLIC	??_R2?$CDynamicPoolEx@VCTextureAnimationCCWDecorator@NEffectUpdateDecorator@@@@8 ; CDynamicPoolEx<NEffectUpdateDecorator::CTextureAnimationCCWDecorator>::`RTTI Base Class Array'
PUBLIC	??_R1A@?0A@EA@?$CDynamicPoolEx@VCTextureAnimationCCWDecorator@NEffectUpdateDecorator@@@@8 ; CDynamicPoolEx<NEffectUpdateDecorator::CTextureAnimationCCWDecorator>::`RTTI Base Class Descriptor at (0,-1,0,64)'
PUBLIC	??_R4?$CDynamicPoolEx@VCTextureAnimationRandomDecorator@NEffectUpdateDecorator@@@@6B@ ; CDynamicPoolEx<NEffectUpdateDecorator::CTextureAnimationRandomDecorator>::`RTTI Complete Object Locator'
PUBLIC	??_R0?AV?$CDynamicPoolEx@VCTextureAnimationRandomDecorator@NEffectUpdateDecorator@@@@@8 ; CDynamicPoolEx<NEffectUpdateDecorator::CTextureAnimationRandomDecorator> `RTTI Type Descriptor'
PUBLIC	??_R3?$CDynamicPoolEx@VCTextureAnimationRandomDecorator@NEffectUpdateDecorator@@@@8 ; CDynamicPoolEx<NEffectUpdateDecorator::CTextureAnimationRandomDecorator>::`RTTI Class Hierarchy Descriptor'
PUBLIC	??_R2?$CDynamicPoolEx@VCTextureAnimationRandomDecorator@NEffectUpdateDecorator@@@@8 ; CDynamicPoolEx<NEffectUpdateDecorator::CTextureAnimationRandomDecorator>::`RTTI Base Class Array'
PUBLIC	??_R1A@?0A@EA@?$CDynamicPoolEx@VCTextureAnimationRandomDecorator@NEffectUpdateDecorator@@@@8 ; CDynamicPoolEx<NEffectUpdateDecorator::CTextureAnimationRandomDecorator>::`RTTI Base Class Descriptor at (0,-1,0,64)'
PUBLIC	??_R4?$CDynamicPoolEx@VCAirResistanceDecorator@NEffectUpdateDecorator@@@@6B@ ; CDynamicPoolEx<NEffectUpdateDecorator::CAirResistanceDecorator>::`RTTI Complete Object Locator'
PUBLIC	??_R0?AV?$CDynamicPoolEx@VCAirResistanceDecorator@NEffectUpdateDecorator@@@@@8 ; CDynamicPoolEx<NEffectUpdateDecorator::CAirResistanceDecorator> `RTTI Type Descriptor'
PUBLIC	??_R3?$CDynamicPoolEx@VCAirResistanceDecorator@NEffectUpdateDecorator@@@@8 ; CDynamicPoolEx<NEffectUpdateDecorator::CAirResistanceDecorator>::`RTTI Class Hierarchy Descriptor'
PUBLIC	??_R2?$CDynamicPoolEx@VCAirResistanceDecorator@NEffectUpdateDecorator@@@@8 ; CDynamicPoolEx<NEffectUpdateDecorator::CAirResistanceDecorator>::`RTTI Base Class Array'
PUBLIC	??_R1A@?0A@EA@?$CDynamicPoolEx@VCAirResistanceDecorator@NEffectUpdateDecorator@@@@8 ; CDynamicPoolEx<NEffectUpdateDecorator::CAirResistanceDecorator>::`RTTI Base Class Descriptor at (0,-1,0,64)'
PUBLIC	??_R4?$CDynamicPoolEx@VCGravityDecorator@NEffectUpdateDecorator@@@@6B@ ; CDynamicPoolEx<NEffectUpdateDecorator::CGravityDecorator>::`RTTI Complete Object Locator'
PUBLIC	??_R0?AV?$CDynamicPoolEx@VCGravityDecorator@NEffectUpdateDecorator@@@@@8 ; CDynamicPoolEx<NEffectUpdateDecorator::CGravityDecorator> `RTTI Type Descriptor'
PUBLIC	??_R3?$CDynamicPoolEx@VCGravityDecorator@NEffectUpdateDecorator@@@@8 ; CDynamicPoolEx<NEffectUpdateDecorator::CGravityDecorator>::`RTTI Class Hierarchy Descriptor'
PUBLIC	??_R2?$CDynamicPoolEx@VCGravityDecorator@NEffectUpdateDecorator@@@@8 ; CDynamicPoolEx<NEffectUpdateDecorator::CGravityDecorator>::`RTTI Base Class Array'
PUBLIC	??_R1A@?0A@EA@?$CDynamicPoolEx@VCGravityDecorator@NEffectUpdateDecorator@@@@8 ; CDynamicPoolEx<NEffectUpdateDecorator::CGravityDecorator>::`RTTI Base Class Descriptor at (0,-1,0,64)'
PUBLIC	??_R4?$CDynamicPoolEx@VCRotationDecorator@NEffectUpdateDecorator@@@@6B@ ; CDynamicPoolEx<NEffectUpdateDecorator::CRotationDecorator>::`RTTI Complete Object Locator'
PUBLIC	??_R0?AV?$CDynamicPoolEx@VCRotationDecorator@NEffectUpdateDecorator@@@@@8 ; CDynamicPoolEx<NEffectUpdateDecorator::CRotationDecorator> `RTTI Type Descriptor'
PUBLIC	??_R3?$CDynamicPoolEx@VCRotationDecorator@NEffectUpdateDecorator@@@@8 ; CDynamicPoolEx<NEffectUpdateDecorator::CRotationDecorator>::`RTTI Class Hierarchy Descriptor'
PUBLIC	??_R2?$CDynamicPoolEx@VCRotationDecorator@NEffectUpdateDecorator@@@@8 ; CDynamicPoolEx<NEffectUpdateDecorator::CRotationDecorator>::`RTTI Base Class Array'
PUBLIC	??_R1A@?0A@EA@?$CDynamicPoolEx@VCRotationDecorator@NEffectUpdateDecorator@@@@8 ; CDynamicPoolEx<NEffectUpdateDecorator::CRotationDecorator>::`RTTI Base Class Descriptor at (0,-1,0,64)'
PUBLIC	??_R4?$CDynamicPool@VCParticleInstance@@@@6B@	; CDynamicPool<CParticleInstance>::`RTTI Complete Object Locator'
PUBLIC	??_R0?AV?$CDynamicPool@VCParticleInstance@@@@@8	; CDynamicPool<CParticleInstance> `RTTI Type Descriptor'
PUBLIC	??_R3?$CDynamicPool@VCParticleInstance@@@@8	; CDynamicPool<CParticleInstance>::`RTTI Class Hierarchy Descriptor'
PUBLIC	??_R2?$CDynamicPool@VCParticleInstance@@@@8	; CDynamicPool<CParticleInstance>::`RTTI Base Class Array'
PUBLIC	??_R1A@?0A@EA@?$CDynamicPool@VCParticleInstance@@@@8 ; CDynamicPool<CParticleInstance>::`RTTI Base Class Descriptor at (0,-1,0,64)'
PUBLIC	??_7?$CDynamicPoolEx@VCTextureAnimationCCWDecorator@NEffectUpdateDecorator@@@@6B@ ; CDynamicPoolEx<NEffectUpdateDecorator::CTextureAnimationCCWDecorator>::`vftable'
PUBLIC	??_G?$CDynamicPoolEx@VCTextureAnimationCCWDecorator@NEffectUpdateDecorator@@@@UAEPAXI@Z ; CDynamicPoolEx<NEffectUpdateDecorator::CTextureAnimationCCWDecorator>::`scalar deleting destructor'
PUBLIC	??_7?$CDynamicPoolEx@VCTextureAnimationCWDecorator@NEffectUpdateDecorator@@@@6B@ ; CDynamicPoolEx<NEffectUpdateDecorator::CTextureAnimationCWDecorator>::`vftable'
PUBLIC	??_G?$CDynamicPoolEx@VCTextureAnimationCWDecorator@NEffectUpdateDecorator@@@@UAEPAXI@Z ; CDynamicPoolEx<NEffectUpdateDecorator::CTextureAnimationCWDecorator>::`scalar deleting destructor'
PUBLIC	??_7?$CDynamicPoolEx@VCNullDecorator@NEffectUpdateDecorator@@@@6B@ ; CDynamicPoolEx<NEffectUpdateDecorator::CNullDecorator>::`vftable'
PUBLIC	??_G?$CDynamicPoolEx@VCNullDecorator@NEffectUpdateDecorator@@@@UAEPAXI@Z ; CDynamicPoolEx<NEffectUpdateDecorator::CNullDecorator>::`scalar deleting destructor'
PUBLIC	??_7?$CDynamicPoolEx@VCHeaderDecorator@NEffectUpdateDecorator@@@@6B@ ; CDynamicPoolEx<NEffectUpdateDecorator::CHeaderDecorator>::`vftable'
PUBLIC	??_G?$CDynamicPoolEx@VCHeaderDecorator@NEffectUpdateDecorator@@@@UAEPAXI@Z ; CDynamicPoolEx<NEffectUpdateDecorator::CHeaderDecorator>::`scalar deleting destructor'
EXTRN	??_E?$CDynamicPool@VCParticleInstance@@@@UAEPAXI@Z:PROC ; CDynamicPool<CParticleInstance>::`vector deleting destructor'
EXTRN	??_7type_info@@6B@:QWORD			; type_info::`vftable'
EXTRN	??_E?$CDynamicPoolEx@VCRotationDecorator@NEffectUpdateDecorator@@@@UAEPAXI@Z:PROC ; CDynamicPoolEx<NEffectUpdateDecorator::CRotationDecorator>::`vector deleting destructor'
EXTRN	??_E?$CDynamicPoolEx@VCGravityDecorator@NEffectUpdateDecorator@@@@UAEPAXI@Z:PROC ; CDynamicPoolEx<NEffectUpdateDecorator::CGravityDecorator>::`vector deleting destructor'
EXTRN	??_E?$CDynamicPoolEx@VCAirResistanceDecorator@NEffectUpdateDecorator@@@@UAEPAXI@Z:PROC ; CDynamicPoolEx<NEffectUpdateDecorator::CAirResistanceDecorator>::`vector deleting destructor'
EXTRN	??_E?$CDynamicPoolEx@VCTextureAnimationRandomDecorator@NEffectUpdateDecorator@@@@UAEPAXI@Z:PROC ; CDynamicPoolEx<NEffectUpdateDecorator::CTextureAnimationRandomDecorator>::`vector deleting destructor'
EXTRN	??_E?$CDynamicPoolEx@VCTextureAnimationCCWDecorator@NEffectUpdateDecorator@@@@UAEPAXI@Z:PROC ; CDynamicPoolEx<NEffectUpdateDecorator::CTextureAnimationCCWDecorator>::`vector deleting destructor'
EXTRN	??_E?$CDynamicPoolEx@VCTextureAnimationCWDecorator@NEffectUpdateDecorator@@@@UAEPAXI@Z:PROC ; CDynamicPoolEx<NEffectUpdateDecorator::CTextureAnimationCWDecorator>::`vector deleting destructor'
EXTRN	??_E?$CDynamicPoolEx@VCNullDecorator@NEffectUpdateDecorator@@@@UAEPAXI@Z:PROC ; CDynamicPoolEx<NEffectUpdateDecorator::CNullDecorator>::`vector deleting destructor'
EXTRN	??_E?$CDynamicPoolEx@VCHeaderDecorator@NEffectUpdateDecorator@@@@UAEPAXI@Z:PROC ; CDynamicPoolEx<NEffectUpdateDecorator::CHeaderDecorator>::`vector deleting destructor'
;	COMDAT ??_7?$CDynamicPoolEx@VCHeaderDecorator@NEffectUpdateDecorator@@@@6B@
CONST	SEGMENT
??_7?$CDynamicPoolEx@VCHeaderDecorator@NEffectUpdateDecorator@@@@6B@ DD FLAT:??_R4?$CDynamicPoolEx@VCHeaderDecorator@NEffectUpdateDecorator@@@@6B@ ; CDynamicPoolEx<NEffectUpdateDecorator::CHeaderDecorator>::`vftable'
	DD	FLAT:??_E?$CDynamicPoolEx@VCHeaderDecorator@NEffectUpdateDecorator@@@@UAEPAXI@Z
CONST	ENDS
;	COMDAT ??_7?$CDynamicPoolEx@VCNullDecorator@NEffectUpdateDecorator@@@@6B@
CONST	SEGMENT
??_7?$CDynamicPoolEx@VCNullDecorator@NEffectUpdateDecorator@@@@6B@ DD FLAT:??_R4?$CDynamicPoolEx@VCNullDecorator@NEffectUpdateDecorator@@@@6B@ ; CDynamicPoolEx<NEffectUpdateDecorator::CNullDecorator>::`vftable'
	DD	FLAT:??_E?$CDynamicPoolEx@VCNullDecorator@NEffectUpdateDecorator@@@@UAEPAXI@Z
CONST	ENDS
;	COMDAT ??_7?$CDynamicPoolEx@VCTextureAnimationCWDecorator@NEffectUpdateDecorator@@@@6B@
CONST	SEGMENT
??_7?$CDynamicPoolEx@VCTextureAnimationCWDecorator@NEffectUpdateDecorator@@@@6B@ DD FLAT:??_R4?$CDynamicPoolEx@VCTextureAnimationCWDecorator@NEffectUpdateDecorator@@@@6B@ ; CDynamicPoolEx<NEffectUpdateDecorator::CTextureAnimationCWDecorator>::`vftable'
	DD	FLAT:??_E?$CDynamicPoolEx@VCTextureAnimationCWDecorator@NEffectUpdateDecorator@@@@UAEPAXI@Z
CONST	ENDS
CONST	SEGMENT
?_Fake_alloc@std@@3U_Fake_allocator@1@B	ORG $+1		; std::_Fake_alloc
CONST	ENDS
;	COMDAT ??_7?$CDynamicPoolEx@VCTextureAnimationCCWDecorator@NEffectUpdateDecorator@@@@6B@
CONST	SEGMENT
??_7?$CDynamicPoolEx@VCTextureAnimationCCWDecorator@NEffectUpdateDecorator@@@@6B@ DD FLAT:??_R4?$CDynamicPoolEx@VCTextureAnimationCCWDecorator@NEffectUpdateDecorator@@@@6B@ ; CDynamicPoolEx<NEffectUpdateDecorator::CTextureAnimationCCWDecorator>::`vftable'
	DD	FLAT:??_E?$CDynamicPoolEx@VCTextureAnimationCCWDecorator@NEffectUpdateDecorator@@@@UAEPAXI@Z
CONST	ENDS
;	COMDAT ??_R1A@?0A@EA@?$CDynamicPool@VCParticleInstance@@@@8
rdata$r	SEGMENT
??_R1A@?0A@EA@?$CDynamicPool@VCParticleInstance@@@@8 DD FLAT:??_R0?AV?$CDynamicPool@VCParticleInstance@@@@@8 ; CDynamicPool<CParticleInstance>::`RTTI Base Class Descriptor at (0,-1,0,64)'
	DD	00H
	DD	00H
	DD	0ffffffffH
	DD	00H
	DD	040H
	DD	FLAT:??_R3?$CDynamicPool@VCParticleInstance@@@@8
rdata$r	ENDS
;	COMDAT ??_R2?$CDynamicPool@VCParticleInstance@@@@8
rdata$r	SEGMENT
??_R2?$CDynamicPool@VCParticleInstance@@@@8 DD FLAT:??_R1A@?0A@EA@?$CDynamicPool@VCParticleInstance@@@@8 ; CDynamicPool<CParticleInstance>::`RTTI Base Class Array'
rdata$r	ENDS
;	COMDAT ??_R3?$CDynamicPool@VCParticleInstance@@@@8
rdata$r	SEGMENT
??_R3?$CDynamicPool@VCParticleInstance@@@@8 DD 00H	; CDynamicPool<CParticleInstance>::`RTTI Class Hierarchy Descriptor'
	DD	00H
	DD	01H
	DD	FLAT:??_R2?$CDynamicPool@VCParticleInstance@@@@8
rdata$r	ENDS
;	COMDAT ??_R0?AV?$CDynamicPool@VCParticleInstance@@@@@8
data$rs	SEGMENT
??_R0?AV?$CDynamicPool@VCParticleInstance@@@@@8 DD FLAT:??_7type_info@@6B@ ; CDynamicPool<CParticleInstance> `RTTI Type Descriptor'
	DD	00H
	DB	'.?AV?$CDynamicPool@VCParticleInstance@@@@', 00H
data$rs	ENDS
;	COMDAT ??_R4?$CDynamicPool@VCParticleInstance@@@@6B@
rdata$r	SEGMENT
??_R4?$CDynamicPool@VCParticleInstance@@@@6B@ DD 00H	; CDynamicPool<CParticleInstance>::`RTTI Complete Object Locator'
	DD	00H
	DD	00H
	DD	FLAT:??_R0?AV?$CDynamicPool@VCParticleInstance@@@@@8
	DD	FLAT:??_R3?$CDynamicPool@VCParticleInstance@@@@8
rdata$r	ENDS
;	COMDAT ??_R1A@?0A@EA@?$CDynamicPoolEx@VCRotationDecorator@NEffectUpdateDecorator@@@@8
rdata$r	SEGMENT
??_R1A@?0A@EA@?$CDynamicPoolEx@VCRotationDecorator@NEffectUpdateDecorator@@@@8 DD FLAT:??_R0?AV?$CDynamicPoolEx@VCRotationDecorator@NEffectUpdateDecorator@@@@@8 ; CDynamicPoolEx<NEffectUpdateDecorator::CRotationDecorator>::`RTTI Base Class Descriptor at (0,-1,0,64)'
	DD	00H
	DD	00H
	DD	0ffffffffH
	DD	00H
	DD	040H
	DD	FLAT:??_R3?$CDynamicPoolEx@VCRotationDecorator@NEffectUpdateDecorator@@@@8
rdata$r	ENDS
;	COMDAT ??_R2?$CDynamicPoolEx@VCRotationDecorator@NEffectUpdateDecorator@@@@8
rdata$r	SEGMENT
??_R2?$CDynamicPoolEx@VCRotationDecorator@NEffectUpdateDecorator@@@@8 DD FLAT:??_R1A@?0A@EA@?$CDynamicPoolEx@VCRotationDecorator@NEffectUpdateDecorator@@@@8 ; CDynamicPoolEx<NEffectUpdateDecorator::CRotationDecorator>::`RTTI Base Class Array'
rdata$r	ENDS
;	COMDAT ??_R3?$CDynamicPoolEx@VCRotationDecorator@NEffectUpdateDecorator@@@@8
rdata$r	SEGMENT
??_R3?$CDynamicPoolEx@VCRotationDecorator@NEffectUpdateDecorator@@@@8 DD 00H ; CDynamicPoolEx<NEffectUpdateDecorator::CRotationDecorator>::`RTTI Class Hierarchy Descriptor'
	DD	00H
	DD	01H
	DD	FLAT:??_R2?$CDynamicPoolEx@VCRotationDecorator@NEffectUpdateDecorator@@@@8
rdata$r	ENDS
;	COMDAT ??_R0?AV?$CDynamicPoolEx@VCRotationDecorator@NEffectUpdateDecorator@@@@@8
data$rs	SEGMENT
??_R0?AV?$CDynamicPoolEx@VCRotationDecorator@NEffectUpdateDecorator@@@@@8 DD FLAT:??_7type_info@@6B@ ; CDynamicPoolEx<NEffectUpdateDecorator::CRotationDecorator> `RTTI Type Descriptor'
	DD	00H
	DB	'.?AV?$CDynamicPoolEx@VCRotationDecorator@NEffectUpdateDe'
	DB	'corator@@@@', 00H
data$rs	ENDS
;	COMDAT ??_R4?$CDynamicPoolEx@VCRotationDecorator@NEffectUpdateDecorator@@@@6B@
rdata$r	SEGMENT
??_R4?$CDynamicPoolEx@VCRotationDecorator@NEffectUpdateDecorator@@@@6B@ DD 00H ; CDynamicPoolEx<NEffectUpdateDecorator::CRotationDecorator>::`RTTI Complete Object Locator'
	DD	00H
	DD	00H
	DD	FLAT:??_R0?AV?$CDynamicPoolEx@VCRotationDecorator@NEffectUpdateDecorator@@@@@8
	DD	FLAT:??_R3?$CDynamicPoolEx@VCRotationDecorator@NEffectUpdateDecorator@@@@8
rdata$r	ENDS
;	COMDAT ??_R1A@?0A@EA@?$CDynamicPoolEx@VCGravityDecorator@NEffectUpdateDecorator@@@@8
rdata$r	SEGMENT
??_R1A@?0A@EA@?$CDynamicPoolEx@VCGravityDecorator@NEffectUpdateDecorator@@@@8 DD FLAT:??_R0?AV?$CDynamicPoolEx@VCGravityDecorator@NEffectUpdateDecorator@@@@@8 ; CDynamicPoolEx<NEffectUpdateDecorator::CGravityDecorator>::`RTTI Base Class Descriptor at (0,-1,0,64)'
	DD	00H
	DD	00H
	DD	0ffffffffH
	DD	00H
	DD	040H
	DD	FLAT:??_R3?$CDynamicPoolEx@VCGravityDecorator@NEffectUpdateDecorator@@@@8
rdata$r	ENDS
;	COMDAT ??_R2?$CDynamicPoolEx@VCGravityDecorator@NEffectUpdateDecorator@@@@8
rdata$r	SEGMENT
??_R2?$CDynamicPoolEx@VCGravityDecorator@NEffectUpdateDecorator@@@@8 DD FLAT:??_R1A@?0A@EA@?$CDynamicPoolEx@VCGravityDecorator@NEffectUpdateDecorator@@@@8 ; CDynamicPoolEx<NEffectUpdateDecorator::CGravityDecorator>::`RTTI Base Class Array'
rdata$r	ENDS
;	COMDAT ??_R3?$CDynamicPoolEx@VCGravityDecorator@NEffectUpdateDecorator@@@@8
rdata$r	SEGMENT
??_R3?$CDynamicPoolEx@VCGravityDecorator@NEffectUpdateDecorator@@@@8 DD 00H ; CDynamicPoolEx<NEffectUpdateDecorator::CGravityDecorator>::`RTTI Class Hierarchy Descriptor'
	DD	00H
	DD	01H
	DD	FLAT:??_R2?$CDynamicPoolEx@VCGravityDecorator@NEffectUpdateDecorator@@@@8
rdata$r	ENDS
;	COMDAT ??_R0?AV?$CDynamicPoolEx@VCGravityDecorator@NEffectUpdateDecorator@@@@@8
data$rs	SEGMENT
??_R0?AV?$CDynamicPoolEx@VCGravityDecorator@NEffectUpdateDecorator@@@@@8 DD FLAT:??_7type_info@@6B@ ; CDynamicPoolEx<NEffectUpdateDecorator::CGravityDecorator> `RTTI Type Descriptor'
	DD	00H
	DB	'.?AV?$CDynamicPoolEx@VCGravityDecorator@NEffectUpdateDec'
	DB	'orator@@@@', 00H
data$rs	ENDS
;	COMDAT ??_R4?$CDynamicPoolEx@VCGravityDecorator@NEffectUpdateDecorator@@@@6B@
rdata$r	SEGMENT
??_R4?$CDynamicPoolEx@VCGravityDecorator@NEffectUpdateDecorator@@@@6B@ DD 00H ; CDynamicPoolEx<NEffectUpdateDecorator::CGravityDecorator>::`RTTI Complete Object Locator'
	DD	00H
	DD	00H
	DD	FLAT:??_R0?AV?$CDynamicPoolEx@VCGravityDecorator@NEffectUpdateDecorator@@@@@8
	DD	FLAT:??_R3?$CDynamicPoolEx@VCGravityDecorator@NEffectUpdateDecorator@@@@8
rdata$r	ENDS
;	COMDAT ??_R1A@?0A@EA@?$CDynamicPoolEx@VCAirResistanceDecorator@NEffectUpdateDecorator@@@@8
rdata$r	SEGMENT
??_R1A@?0A@EA@?$CDynamicPoolEx@VCAirResistanceDecorator@NEffectUpdateDecorator@@@@8 DD FLAT:??_R0?AV?$CDynamicPoolEx@VCAirResistanceDecorator@NEffectUpdateDecorator@@@@@8 ; CDynamicPoolEx<NEffectUpdateDecorator::CAirResistanceDecorator>::`RTTI Base Class Descriptor at (0,-1,0,64)'
	DD	00H
	DD	00H
	DD	0ffffffffH
	DD	00H
	DD	040H
	DD	FLAT:??_R3?$CDynamicPoolEx@VCAirResistanceDecorator@NEffectUpdateDecorator@@@@8
rdata$r	ENDS
;	COMDAT ??_R2?$CDynamicPoolEx@VCAirResistanceDecorator@NEffectUpdateDecorator@@@@8
rdata$r	SEGMENT
??_R2?$CDynamicPoolEx@VCAirResistanceDecorator@NEffectUpdateDecorator@@@@8 DD FLAT:??_R1A@?0A@EA@?$CDynamicPoolEx@VCAirResistanceDecorator@NEffectUpdateDecorator@@@@8 ; CDynamicPoolEx<NEffectUpdateDecorator::CAirResistanceDecorator>::`RTTI Base Class Array'
rdata$r	ENDS
;	COMDAT ??_R3?$CDynamicPoolEx@VCAirResistanceDecorator@NEffectUpdateDecorator@@@@8
rdata$r	SEGMENT
??_R3?$CDynamicPoolEx@VCAirResistanceDecorator@NEffectUpdateDecorator@@@@8 DD 00H ; CDynamicPoolEx<NEffectUpdateDecorator::CAirResistanceDecorator>::`RTTI Class Hierarchy Descriptor'
	DD	00H
	DD	01H
	DD	FLAT:??_R2?$CDynamicPoolEx@VCAirResistanceDecorator@NEffectUpdateDecorator@@@@8
rdata$r	ENDS
;	COMDAT ??_R0?AV?$CDynamicPoolEx@VCAirResistanceDecorator@NEffectUpdateDecorator@@@@@8
data$rs	SEGMENT
??_R0?AV?$CDynamicPoolEx@VCAirResistanceDecorator@NEffectUpdateDecorator@@@@@8 DD FLAT:??_7type_info@@6B@ ; CDynamicPoolEx<NEffectUpdateDecorator::CAirResistanceDecorator> `RTTI Type Descriptor'
	DD	00H
	DB	'.?AV?$CDynamicPoolEx@VCAirResistanceDecorator@NEffectUpd'
	DB	'ateDecorator@@@@', 00H
data$rs	ENDS
;	COMDAT ??_R4?$CDynamicPoolEx@VCAirResistanceDecorator@NEffectUpdateDecorator@@@@6B@
rdata$r	SEGMENT
??_R4?$CDynamicPoolEx@VCAirResistanceDecorator@NEffectUpdateDecorator@@@@6B@ DD 00H ; CDynamicPoolEx<NEffectUpdateDecorator::CAirResistanceDecorator>::`RTTI Complete Object Locator'
	DD	00H
	DD	00H
	DD	FLAT:??_R0?AV?$CDynamicPoolEx@VCAirResistanceDecorator@NEffectUpdateDecorator@@@@@8
	DD	FLAT:??_R3?$CDynamicPoolEx@VCAirResistanceDecorator@NEffectUpdateDecorator@@@@8
rdata$r	ENDS
;	COMDAT ??_R1A@?0A@EA@?$CDynamicPoolEx@VCTextureAnimationRandomDecorator@NEffectUpdateDecorator@@@@8
rdata$r	SEGMENT
??_R1A@?0A@EA@?$CDynamicPoolEx@VCTextureAnimationRandomDecorator@NEffectUpdateDecorator@@@@8 DD FLAT:??_R0?AV?$CDynamicPoolEx@VCTextureAnimationRandomDecorator@NEffectUpdateDecorator@@@@@8 ; CDynamicPoolEx<NEffectUpdateDecorator::CTextureAnimationRandomDecorator>::`RTTI Base Class Descriptor at (0,-1,0,64)'
	DD	00H
	DD	00H
	DD	0ffffffffH
	DD	00H
	DD	040H
	DD	FLAT:??_R3?$CDynamicPoolEx@VCTextureAnimationRandomDecorator@NEffectUpdateDecorator@@@@8
rdata$r	ENDS
;	COMDAT ??_R2?$CDynamicPoolEx@VCTextureAnimationRandomDecorator@NEffectUpdateDecorator@@@@8
rdata$r	SEGMENT
??_R2?$CDynamicPoolEx@VCTextureAnimationRandomDecorator@NEffectUpdateDecorator@@@@8 DD FLAT:??_R1A@?0A@EA@?$CDynamicPoolEx@VCTextureAnimationRandomDecorator@NEffectUpdateDecorator@@@@8 ; CDynamicPoolEx<NEffectUpdateDecorator::CTextureAnimationRandomDecorator>::`RTTI Base Class Array'
rdata$r	ENDS
;	COMDAT ??_R3?$CDynamicPoolEx@VCTextureAnimationRandomDecorator@NEffectUpdateDecorator@@@@8
rdata$r	SEGMENT
??_R3?$CDynamicPoolEx@VCTextureAnimationRandomDecorator@NEffectUpdateDecorator@@@@8 DD 00H ; CDynamicPoolEx<NEffectUpdateDecorator::CTextureAnimationRandomDecorator>::`RTTI Class Hierarchy Descriptor'
	DD	00H
	DD	01H
	DD	FLAT:??_R2?$CDynamicPoolEx@VCTextureAnimationRandomDecorator@NEffectUpdateDecorator@@@@8
rdata$r	ENDS
;	COMDAT ??_R0?AV?$CDynamicPoolEx@VCTextureAnimationRandomDecorator@NEffectUpdateDecorator@@@@@8
data$rs	SEGMENT
??_R0?AV?$CDynamicPoolEx@VCTextureAnimationRandomDecorator@NEffectUpdateDecorator@@@@@8 DD FLAT:??_7type_info@@6B@ ; CDynamicPoolEx<NEffectUpdateDecorator::CTextureAnimationRandomDecorator> `RTTI Type Descriptor'
	DD	00H
	DB	'.?AV?$CDynamicPoolEx@VCTextureAnimationRandomDecorator@N'
	DB	'EffectUpdateDecorator@@@@', 00H
data$rs	ENDS
;	COMDAT ??_R4?$CDynamicPoolEx@VCTextureAnimationRandomDecorator@NEffectUpdateDecorator@@@@6B@
rdata$r	SEGMENT
??_R4?$CDynamicPoolEx@VCTextureAnimationRandomDecorator@NEffectUpdateDecorator@@@@6B@ DD 00H ; CDynamicPoolEx<NEffectUpdateDecorator::CTextureAnimationRandomDecorator>::`RTTI Complete Object Locator'
	DD	00H
	DD	00H
	DD	FLAT:??_R0?AV?$CDynamicPoolEx@VCTextureAnimationRandomDecorator@NEffectUpdateDecorator@@@@@8
	DD	FLAT:??_R3?$CDynamicPoolEx@VCTextureAnimationRandomDecorator@NEffectUpdateDecorator@@@@8
rdata$r	ENDS
;	COMDAT ??_R1A@?0A@EA@?$CDynamicPoolEx@VCTextureAnimationCCWDecorator@NEffectUpdateDecorator@@@@8
rdata$r	SEGMENT
??_R1A@?0A@EA@?$CDynamicPoolEx@VCTextureAnimationCCWDecorator@NEffectUpdateDecorator@@@@8 DD FLAT:??_R0?AV?$CDynamicPoolEx@VCTextureAnimationCCWDecorator@NEffectUpdateDecorator@@@@@8 ; CDynamicPoolEx<NEffectUpdateDecorator::CTextureAnimationCCWDecorator>::`RTTI Base Class Descriptor at (0,-1,0,64)'
	DD	00H
	DD	00H
	DD	0ffffffffH
	DD	00H
	DD	040H
	DD	FLAT:??_R3?$CDynamicPoolEx@VCTextureAnimationCCWDecorator@NEffectUpdateDecorator@@@@8
rdata$r	ENDS
;	COMDAT ??_R2?$CDynamicPoolEx@VCTextureAnimationCCWDecorator@NEffectUpdateDecorator@@@@8
rdata$r	SEGMENT
??_R2?$CDynamicPoolEx@VCTextureAnimationCCWDecorator@NEffectUpdateDecorator@@@@8 DD FLAT:??_R1A@?0A@EA@?$CDynamicPoolEx@VCTextureAnimationCCWDecorator@NEffectUpdateDecorator@@@@8 ; CDynamicPoolEx<NEffectUpdateDecorator::CTextureAnimationCCWDecorator>::`RTTI Base Class Array'
rdata$r	ENDS
;	COMDAT ??_R3?$CDynamicPoolEx@VCTextureAnimationCCWDecorator@NEffectUpdateDecorator@@@@8
rdata$r	SEGMENT
??_R3?$CDynamicPoolEx@VCTextureAnimationCCWDecorator@NEffectUpdateDecorator@@@@8 DD 00H ; CDynamicPoolEx<NEffectUpdateDecorator::CTextureAnimationCCWDecorator>::`RTTI Class Hierarchy Descriptor'
	DD	00H
	DD	01H
	DD	FLAT:??_R2?$CDynamicPoolEx@VCTextureAnimationCCWDecorator@NEffectUpdateDecorator@@@@8
rdata$r	ENDS
;	COMDAT ??_R0?AV?$CDynamicPoolEx@VCTextureAnimationCCWDecorator@NEffectUpdateDecorator@@@@@8
data$rs	SEGMENT
??_R0?AV?$CDynamicPoolEx@VCTextureAnimationCCWDecorator@NEffectUpdateDecorator@@@@@8 DD FLAT:??_7type_info@@6B@ ; CDynamicPoolEx<NEffectUpdateDecorator::CTextureAnimationCCWDecorator> `RTTI Type Descriptor'
	DD	00H
	DB	'.?AV?$CDynamicPoolEx@VCTextureAnimationCCWDecorator@NEff'
	DB	'ectUpdateDecorator@@@@', 00H
data$rs	ENDS
;	COMDAT ??_R4?$CDynamicPoolEx@VCTextureAnimationCCWDecorator@NEffectUpdateDecorator@@@@6B@
rdata$r	SEGMENT
??_R4?$CDynamicPoolEx@VCTextureAnimationCCWDecorator@NEffectUpdateDecorator@@@@6B@ DD 00H ; CDynamicPoolEx<NEffectUpdateDecorator::CTextureAnimationCCWDecorator>::`RTTI Complete Object Locator'
	DD	00H
	DD	00H
	DD	FLAT:??_R0?AV?$CDynamicPoolEx@VCTextureAnimationCCWDecorator@NEffectUpdateDecorator@@@@@8
	DD	FLAT:??_R3?$CDynamicPoolEx@VCTextureAnimationCCWDecorator@NEffectUpdateDecorator@@@@8
rdata$r	ENDS
;	COMDAT ??_R1A@?0A@EA@?$CDynamicPoolEx@VCTextureAnimationCWDecorator@NEffectUpdateDecorator@@@@8
rdata$r	SEGMENT
??_R1A@?0A@EA@?$CDynamicPoolEx@VCTextureAnimationCWDecorator@NEffectUpdateDecorator@@@@8 DD FLAT:??_R0?AV?$CDynamicPoolEx@VCTextureAnimationCWDecorator@NEffectUpdateDecorator@@@@@8 ; CDynamicPoolEx<NEffectUpdateDecorator::CTextureAnimationCWDecorator>::`RTTI Base Class Descriptor at (0,-1,0,64)'
	DD	00H
	DD	00H
	DD	0ffffffffH
	DD	00H
	DD	040H
	DD	FLAT:??_R3?$CDynamicPoolEx@VCTextureAnimationCWDecorator@NEffectUpdateDecorator@@@@8
rdata$r	ENDS
;	COMDAT ??_R2?$CDynamicPoolEx@VCTextureAnimationCWDecorator@NEffectUpdateDecorator@@@@8
rdata$r	SEGMENT
??_R2?$CDynamicPoolEx@VCTextureAnimationCWDecorator@NEffectUpdateDecorator@@@@8 DD FLAT:??_R1A@?0A@EA@?$CDynamicPoolEx@VCTextureAnimationCWDecorator@NEffectUpdateDecorator@@@@8 ; CDynamicPoolEx<NEffectUpdateDecorator::CTextureAnimationCWDecorator>::`RTTI Base Class Array'
rdata$r	ENDS
;	COMDAT ??_R3?$CDynamicPoolEx@VCTextureAnimationCWDecorator@NEffectUpdateDecorator@@@@8
rdata$r	SEGMENT
??_R3?$CDynamicPoolEx@VCTextureAnimationCWDecorator@NEffectUpdateDecorator@@@@8 DD 00H ; CDynamicPoolEx<NEffectUpdateDecorator::CTextureAnimationCWDecorator>::`RTTI Class Hierarchy Descriptor'
	DD	00H
	DD	01H
	DD	FLAT:??_R2?$CDynamicPoolEx@VCTextureAnimationCWDecorator@NEffectUpdateDecorator@@@@8
rdata$r	ENDS
;	COMDAT ??_R0?AV?$CDynamicPoolEx@VCTextureAnimationCWDecorator@NEffectUpdateDecorator@@@@@8
data$rs	SEGMENT
??_R0?AV?$CDynamicPoolEx@VCTextureAnimationCWDecorator@NEffectUpdateDecorator@@@@@8 DD FLAT:??_7type_info@@6B@ ; CDynamicPoolEx<NEffectUpdateDecorator::CTextureAnimationCWDecorator> `RTTI Type Descriptor'
	DD	00H
	DB	'.?AV?$CDynamicPoolEx@VCTextureAnimationCWDecorator@NEffe'
	DB	'ctUpdateDecorator@@@@', 00H
data$rs	ENDS
;	COMDAT ??_R4?$CDynamicPoolEx@VCTextureAnimationCWDecorator@NEffectUpdateDecorator@@@@6B@
rdata$r	SEGMENT
??_R4?$CDynamicPoolEx@VCTextureAnimationCWDecorator@NEffectUpdateDecorator@@@@6B@ DD 00H ; CDynamicPoolEx<NEffectUpdateDecorator::CTextureAnimationCWDecorator>::`RTTI Complete Object Locator'
	DD	00H
	DD	00H
	DD	FLAT:??_R0?AV?$CDynamicPoolEx@VCTextureAnimationCWDecorator@NEffectUpdateDecorator@@@@@8
	DD	FLAT:??_R3?$CDynamicPoolEx@VCTextureAnimationCWDecorator@NEffectUpdateDecorator@@@@8
rdata$r	ENDS
;	COMDAT ??_R1A@?0A@EA@?$CDynamicPoolEx@VCNullDecorator@NEffectUpdateDecorator@@@@8
rdata$r	SEGMENT
??_R1A@?0A@EA@?$CDynamicPoolEx@VCNullDecorator@NEffectUpdateDecorator@@@@8 DD FLAT:??_R0?AV?$CDynamicPoolEx@VCNullDecorator@NEffectUpdateDecorator@@@@@8 ; CDynamicPoolEx<NEffectUpdateDecorator::CNullDecorator>::`RTTI Base Class Descriptor at (0,-1,0,64)'
	DD	00H
	DD	00H
	DD	0ffffffffH
	DD	00H
	DD	040H
	DD	FLAT:??_R3?$CDynamicPoolEx@VCNullDecorator@NEffectUpdateDecorator@@@@8
rdata$r	ENDS
;	COMDAT ??_R2?$CDynamicPoolEx@VCNullDecorator@NEffectUpdateDecorator@@@@8
rdata$r	SEGMENT
??_R2?$CDynamicPoolEx@VCNullDecorator@NEffectUpdateDecorator@@@@8 DD FLAT:??_R1A@?0A@EA@?$CDynamicPoolEx@VCNullDecorator@NEffectUpdateDecorator@@@@8 ; CDynamicPoolEx<NEffectUpdateDecorator::CNullDecorator>::`RTTI Base Class Array'
rdata$r	ENDS
;	COMDAT ??_R3?$CDynamicPoolEx@VCNullDecorator@NEffectUpdateDecorator@@@@8
rdata$r	SEGMENT
??_R3?$CDynamicPoolEx@VCNullDecorator@NEffectUpdateDecorator@@@@8 DD 00H ; CDynamicPoolEx<NEffectUpdateDecorator::CNullDecorator>::`RTTI Class Hierarchy Descriptor'
	DD	00H
	DD	01H
	DD	FLAT:??_R2?$CDynamicPoolEx@VCNullDecorator@NEffectUpdateDecorator@@@@8
rdata$r	ENDS
;	COMDAT ??_R0?AV?$CDynamicPoolEx@VCNullDecorator@NEffectUpdateDecorator@@@@@8
data$rs	SEGMENT
??_R0?AV?$CDynamicPoolEx@VCNullDecorator@NEffectUpdateDecorator@@@@@8 DD FLAT:??_7type_info@@6B@ ; CDynamicPoolEx<NEffectUpdateDecorator::CNullDecorator> `RTTI Type Descriptor'
	DD	00H
	DB	'.?AV?$CDynamicPoolEx@VCNullDecorator@NEffectUpdateDecora'
	DB	'tor@@@@', 00H
data$rs	ENDS
;	COMDAT ??_R4?$CDynamicPoolEx@VCNullDecorator@NEffectUpdateDecorator@@@@6B@
rdata$r	SEGMENT
??_R4?$CDynamicPoolEx@VCNullDecorator@NEffectUpdateDecorator@@@@6B@ DD 00H ; CDynamicPoolEx<NEffectUpdateDecorator::CNullDecorator>::`RTTI Complete Object Locator'
	DD	00H
	DD	00H
	DD	FLAT:??_R0?AV?$CDynamicPoolEx@VCNullDecorator@NEffectUpdateDecorator@@@@@8
	DD	FLAT:??_R3?$CDynamicPoolEx@VCNullDecorator@NEffectUpdateDecorator@@@@8
rdata$r	ENDS
;	COMDAT ??_R1A@?0A@EA@?$CDynamicPoolEx@VCHeaderDecorator@NEffectUpdateDecorator@@@@8
rdata$r	SEGMENT
??_R1A@?0A@EA@?$CDynamicPoolEx@VCHeaderDecorator@NEffectUpdateDecorator@@@@8 DD FLAT:??_R0?AV?$CDynamicPoolEx@VCHeaderDecorator@NEffectUpdateDecorator@@@@@8 ; CDynamicPoolEx<NEffectUpdateDecorator::CHeaderDecorator>::`RTTI Base Class Descriptor at (0,-1,0,64)'
	DD	00H
	DD	00H
	DD	0ffffffffH
	DD	00H
	DD	040H
	DD	FLAT:??_R3?$CDynamicPoolEx@VCHeaderDecorator@NEffectUpdateDecorator@@@@8
rdata$r	ENDS
;	COMDAT ??_R2?$CDynamicPoolEx@VCHeaderDecorator@NEffectUpdateDecorator@@@@8
rdata$r	SEGMENT
??_R2?$CDynamicPoolEx@VCHeaderDecorator@NEffectUpdateDecorator@@@@8 DD FLAT:??_R1A@?0A@EA@?$CDynamicPoolEx@VCHeaderDecorator@NEffectUpdateDecorator@@@@8 ; CDynamicPoolEx<NEffectUpdateDecorator::CHeaderDecorator>::`RTTI Base Class Array'
rdata$r	ENDS
;	COMDAT ??_R3?$CDynamicPoolEx@VCHeaderDecorator@NEffectUpdateDecorator@@@@8
rdata$r	SEGMENT
??_R3?$CDynamicPoolEx@VCHeaderDecorator@NEffectUpdateDecorator@@@@8 DD 00H ; CDynamicPoolEx<NEffectUpdateDecorator::CHeaderDecorator>::`RTTI Class Hierarchy Descriptor'
	DD	00H
	DD	01H
	DD	FLAT:??_R2?$CDynamicPoolEx@VCHeaderDecorator@NEffectUpdateDecorator@@@@8
rdata$r	ENDS
;	COMDAT ??_R0?AV?$CDynamicPoolEx@VCHeaderDecorator@NEffectUpdateDecorator@@@@@8
data$rs	SEGMENT
??_R0?AV?$CDynamicPoolEx@VCHeaderDecorator@NEffectUpdateDecorator@@@@@8 DD FLAT:??_7type_info@@6B@ ; CDynamicPoolEx<NEffectUpdateDecorator::CHeaderDecorator> `RTTI Type Descriptor'
	DD	00H
	DB	'.?AV?$CDynamicPoolEx@VCHeaderDecorator@NEffectUpdateDeco'
	DB	'rator@@@@', 00H
data$rs	ENDS
;	COMDAT ??_R4?$CDynamicPoolEx@VCHeaderDecorator@NEffectUpdateDecorator@@@@6B@
rdata$r	SEGMENT
??_R4?$CDynamicPoolEx@VCHeaderDecorator@NEffectUpdateDecorator@@@@6B@ DD 00H ; CDynamicPoolEx<NEffectUpdateDecorator::CHeaderDecorator>::`RTTI Complete Object Locator'
	DD	00H
	DD	00H
	DD	FLAT:??_R0?AV?$CDynamicPoolEx@VCHeaderDecorator@NEffectUpdateDecorator@@@@@8
	DD	FLAT:??_R3?$CDynamicPoolEx@VCHeaderDecorator@NEffectUpdateDecorator@@@@8
rdata$r	ENDS
;	COMDAT ??_7?$CDynamicPoolEx@VCTextureAnimationRandomDecorator@NEffectUpdateDecorator@@@@6B@
CONST	SEGMENT
??_7?$CDynamicPoolEx@VCTextureAnimationRandomDecorator@NEffectUpdateDecorator@@@@6B@ DD FLAT:??_R4?$CDynamicPoolEx@VCTextureAnimationRandomDecorator@NEffectUpdateDecorator@@@@6B@ ; CDynamicPoolEx<NEffectUpdateDecorator::CTextureAnimationRandomDecorator>::`vftable'
	DD	FLAT:??_E?$CDynamicPoolEx@VCTextureAnimationRandomDecorator@NEffectUpdateDecorator@@@@UAEPAXI@Z
CONST	ENDS
;	COMDAT ??_7?$CDynamicPoolEx@VCAirResistanceDecorator@NEffectUpdateDecorator@@@@6B@
CONST	SEGMENT
??_7?$CDynamicPoolEx@VCAirResistanceDecorator@NEffectUpdateDecorator@@@@6B@ DD FLAT:??_R4?$CDynamicPoolEx@VCAirResistanceDecorator@NEffectUpdateDecorator@@@@6B@ ; CDynamicPoolEx<NEffectUpdateDecorator::CAirResistanceDecorator>::`vftable'
	DD	FLAT:??_E?$CDynamicPoolEx@VCAirResistanceDecorator@NEffectUpdateDecorator@@@@UAEPAXI@Z
CONST	ENDS
;	COMDAT ??_7?$CDynamicPoolEx@VCGravityDecorator@NEffectUpdateDecorator@@@@6B@
CONST	SEGMENT
??_7?$CDynamicPoolEx@VCGravityDecorator@NEffectUpdateDecorator@@@@6B@ DD FLAT:??_R4?$CDynamicPoolEx@VCGravityDecorator@NEffectUpdateDecorator@@@@6B@ ; CDynamicPoolEx<NEffectUpdateDecorator::CGravityDecorator>::`vftable'
	DD	FLAT:??_E?$CDynamicPoolEx@VCGravityDecorator@NEffectUpdateDecorator@@@@UAEPAXI@Z
CONST	ENDS
;	COMDAT ??_7?$CDynamicPoolEx@VCRotationDecorator@NEffectUpdateDecorator@@@@6B@
CONST	SEGMENT
??_7?$CDynamicPoolEx@VCRotationDecorator@NEffectUpdateDecorator@@@@6B@ DD FLAT:??_R4?$CDynamicPoolEx@VCRotationDecorator@NEffectUpdateDecorator@@@@6B@ ; CDynamicPoolEx<NEffectUpdateDecorator::CRotationDecorator>::`vftable'
	DD	FLAT:??_E?$CDynamicPoolEx@VCRotationDecorator@NEffectUpdateDecorator@@@@UAEPAXI@Z
CONST	ENDS
;	COMDAT ??_7?$CDynamicPool@VCParticleInstance@@@@6B@
CONST	SEGMENT
??_7?$CDynamicPool@VCParticleInstance@@@@6B@ DD FLAT:??_R4?$CDynamicPool@VCParticleInstance@@@@6B@ ; CDynamicPool<CParticleInstance>::`vftable'
	DD	FLAT:??_E?$CDynamicPool@VCParticleInstance@@@@UAEPAXI@Z
CONST	ENDS
PUBLIC	??_H@YGXPAXIIP6EPAX0@Z@Z			; `vector constructor iterator'
PUBLIC	?__empty_global_delete@@YAXPAX@Z		; __empty_global_delete
PUBLIC	?__empty_global_delete@@YAXPAXI@Z		; __empty_global_delete
PUBLIC	??0exception@std@@QAE@ABV01@@Z			; std::exception::exception
PUBLIC	??1exception@std@@UAE@XZ			; std::exception::~exception
PUBLIC	?what@exception@std@@UBEPBDXZ			; std::exception::what
PUBLIC	??_Gexception@std@@UAEPAXI@Z			; std::exception::`scalar deleting destructor'
PUBLIC	??0bad_alloc@std@@QAE@ABV01@@Z			; std::bad_alloc::bad_alloc
PUBLIC	??_Gbad_alloc@std@@UAEPAXI@Z			; std::bad_alloc::`scalar deleting destructor'
PUBLIC	??0bad_array_new_length@std@@QAE@XZ		; std::bad_array_new_length::bad_array_new_length
PUBLIC	??1bad_array_new_length@std@@UAE@XZ		; std::bad_array_new_length::~bad_array_new_length
PUBLIC	??0bad_array_new_length@std@@QAE@ABV01@@Z	; std::bad_array_new_length::bad_array_new_length
PUBLIC	??_Gbad_array_new_length@std@@UAEPAXI@Z		; std::bad_array_new_length::`scalar deleting destructor'
PUBLIC	?_Throw_bad_array_new_length@std@@YAXXZ		; std::_Throw_bad_array_new_length
PUBLIC	??0D3DXMATRIX@@QAE@XZ				; D3DXMATRIX::D3DXMATRIX
PUBLIC	??$_Allocate_manually_vector_aligned@U_Default_allocate_traits@std@@@std@@YAPAXI@Z ; std::_Allocate_manually_vector_aligned<std::_Default_allocate_traits>
PUBLIC	??0SPTVertex@@QAE@XZ				; SPTVertex::SPTVertex
PUBLIC	?DeleteThis@CBaseDecorator@NEffectUpdateDecorator@@QAEXXZ ; NEffectUpdateDecorator::CBaseDecorator::DeleteThis
PUBLIC	??0CParticleInstance@@QAE@XZ			; CParticleInstance::CParticleInstance
PUBLIC	??1CParticleInstance@@QAE@XZ			; CParticleInstance::~CParticleInstance
PUBLIC	?GetRadiusApproximation@CParticleInstance@@QAEMXZ ; CParticleInstance::GetRadiusApproximation
PUBLIC	?Update@CParticleInstance@@QAEHMM@Z		; CParticleInstance::Update
PUBLIC	?New@CParticleInstance@@SAPAV1@XZ		; CParticleInstance::New
PUBLIC	?DestroySystem@CParticleInstance@@SAXXZ		; CParticleInstance::DestroySystem
PUBLIC	?Transform@CParticleInstance@@QAEXPBUD3DXMATRIX@@@Z ; CParticleInstance::Transform
PUBLIC	?Transform@CParticleInstance@@QAEXPBUD3DXMATRIX@@M@Z ; CParticleInstance::Transform
PUBLIC	?GetParticleMeshPointer@CParticleInstance@@QAEPAUSPTVertex@@XZ ; CParticleInstance::GetParticleMeshPointer
PUBLIC	?DeleteThis@CParticleInstance@@QAEXXZ		; CParticleInstance::DeleteThis
PUBLIC	?Destroy@CParticleInstance@@QAEXXZ		; CParticleInstance::Destroy
PUBLIC	?__Initialize@CParticleInstance@@IAEXXZ		; CParticleInstance::__Initialize
PUBLIC	??1?$CDynamicPool@VCParticleInstance@@@@UAE@XZ	; CDynamicPool<CParticleInstance>::~CDynamicPool<CParticleInstance>
PUBLIC	?Delete@?$CDynamicPool@VCParticleInstance@@@@KAXPAVCParticleInstance@@@Z ; CDynamicPool<CParticleInstance>::Delete
PUBLIC	?_Xlength@?$vector@PAVCParticleInstance@@V?$allocator@PAVCParticleInstance@@@std@@@std@@CAXXZ ; std::vector<CParticleInstance *,std::allocator<CParticleInstance *> >::_Xlength
PUBLIC	??1?$CDynamicPoolEx@VCRotationDecorator@NEffectUpdateDecorator@@@@UAE@XZ ; CDynamicPoolEx<NEffectUpdateDecorator::CRotationDecorator>::~CDynamicPoolEx<NEffectUpdateDecorator::CRotationDecorator>
PUBLIC	?Delete@?$CDynamicPoolEx@VCRotationDecorator@NEffectUpdateDecorator@@@@KAXPAVCRotationDecorator@NEffectUpdateDecorator@@@Z ; CDynamicPoolEx<NEffectUpdateDecorator::CRotationDecorator>::Delete
PUBLIC	??1?$CDynamicPoolEx@VCGravityDecorator@NEffectUpdateDecorator@@@@UAE@XZ ; CDynamicPoolEx<NEffectUpdateDecorator::CGravityDecorator>::~CDynamicPoolEx<NEffectUpdateDecorator::CGravityDecorator>
PUBLIC	?Delete@?$CDynamicPoolEx@VCGravityDecorator@NEffectUpdateDecorator@@@@KAXPAVCGravityDecorator@NEffectUpdateDecorator@@@Z ; CDynamicPoolEx<NEffectUpdateDecorator::CGravityDecorator>::Delete
PUBLIC	??1?$CDynamicPoolEx@VCAirResistanceDecorator@NEffectUpdateDecorator@@@@UAE@XZ ; CDynamicPoolEx<NEffectUpdateDecorator::CAirResistanceDecorator>::~CDynamicPoolEx<NEffectUpdateDecorator::CAirResistanceDecorator>
PUBLIC	?Delete@?$CDynamicPoolEx@VCAirResistanceDecorator@NEffectUpdateDecorator@@@@KAXPAVCAirResistanceDecorator@NEffectUpdateDecorator@@@Z ; CDynamicPoolEx<NEffectUpdateDecorator::CAirResistanceDecorator>::Delete
PUBLIC	??1?$CDynamicPoolEx@VCTextureAnimationRandomDecorator@NEffectUpdateDecorator@@@@UAE@XZ ; CDynamicPoolEx<NEffectUpdateDecorator::CTextureAnimationRandomDecorator>::~CDynamicPoolEx<NEffectUpdateDecorator::CTextureAnimationRandomDecorator>
PUBLIC	?Delete@?$CDynamicPoolEx@VCTextureAnimationRandomDecorator@NEffectUpdateDecorator@@@@KAXPAVCTextureAnimationRandomDecorator@NEffectUpdateDecorator@@@Z ; CDynamicPoolEx<NEffectUpdateDecorator::CTextureAnimationRandomDecorator>::Delete
PUBLIC	??1?$CDynamicPoolEx@VCTextureAnimationCCWDecorator@NEffectUpdateDecorator@@@@UAE@XZ ; CDynamicPoolEx<NEffectUpdateDecorator::CTextureAnimationCCWDecorator>::~CDynamicPoolEx<NEffectUpdateDecorator::CTextureAnimationCCWDecorator>
PUBLIC	?Delete@?$CDynamicPoolEx@VCTextureAnimationCCWDecorator@NEffectUpdateDecorator@@@@KAXPAVCTextureAnimationCCWDecorator@NEffectUpdateDecorator@@@Z ; CDynamicPoolEx<NEffectUpdateDecorator::CTextureAnimationCCWDecorator>::Delete
PUBLIC	??1?$CDynamicPoolEx@VCTextureAnimationCWDecorator@NEffectUpdateDecorator@@@@UAE@XZ ; CDynamicPoolEx<NEffectUpdateDecorator::CTextureAnimationCWDecorator>::~CDynamicPoolEx<NEffectUpdateDecorator::CTextureAnimationCWDecorator>
PUBLIC	?Delete@?$CDynamicPoolEx@VCTextureAnimationCWDecorator@NEffectUpdateDecorator@@@@KAXPAVCTextureAnimationCWDecorator@NEffectUpdateDecorator@@@Z ; CDynamicPoolEx<NEffectUpdateDecorator::CTextureAnimationCWDecorator>::Delete
PUBLIC	??1?$CDynamicPoolEx@VCNullDecorator@NEffectUpdateDecorator@@@@UAE@XZ ; CDynamicPoolEx<NEffectUpdateDecorator::CNullDecorator>::~CDynamicPoolEx<NEffectUpdateDecorator::CNullDecorator>
PUBLIC	?Delete@?$CDynamicPoolEx@VCNullDecorator@NEffectUpdateDecorator@@@@KAXPAVCNullDecorator@NEffectUpdateDecorator@@@Z ; CDynamicPoolEx<NEffectUpdateDecorator::CNullDecorator>::Delete
PUBLIC	??1?$CDynamicPoolEx@VCHeaderDecorator@NEffectUpdateDecorator@@@@UAE@XZ ; CDynamicPoolEx<NEffectUpdateDecorator::CHeaderDecorator>::~CDynamicPoolEx<NEffectUpdateDecorator::CHeaderDecorator>
PUBLIC	?Delete@?$CDynamicPoolEx@VCHeaderDecorator@NEffectUpdateDecorator@@@@KAXPAVCHeaderDecorator@NEffectUpdateDecorator@@@Z ; CDynamicPoolEx<NEffectUpdateDecorator::CHeaderDecorator>::Delete
PUBLIC	??$_Emplace_reallocate@ABQAVCParticleInstance@@@?$vector@PAVCParticleInstance@@V?$allocator@PAVCParticleInstance@@@std@@@std@@QAEPAPAVCParticleInstance@@QAPAV2@ABQAV2@@Z ; std::vector<CParticleInstance *,std::allocator<CParticleInstance *> >::_Emplace_reallocate<CParticleInstance * const &>
PUBLIC	??$_Copy_memmove@PAPAVCParticleInstance@@PAPAV1@@std@@YAPAPAVCParticleInstance@@PAPAV1@00@Z ; std::_Copy_memmove<CParticleInstance * *,CParticleInstance * *>
PUBLIC	??_7exception@std@@6B@				; std::exception::`vftable'
PUBLIC	??_C@_0BC@EOODALEL@Unknown?5exception@		; `string'
PUBLIC	??_7bad_alloc@std@@6B@				; std::bad_alloc::`vftable'
PUBLIC	??_7bad_array_new_length@std@@6B@		; std::bad_array_new_length::`vftable'
PUBLIC	??_C@_0BF@KINCDENJ@bad?5array?5new?5length@	; `string'
PUBLIC	__TI3?AVbad_array_new_length@std@@
PUBLIC	__CTA3?AVbad_array_new_length@std@@
PUBLIC	??_R0?AVbad_array_new_length@std@@@8		; std::bad_array_new_length `RTTI Type Descriptor'
PUBLIC	__CT??_R0?AVbad_array_new_length@std@@@8??0bad_array_new_length@std@@QAE@ABV01@@Z12
PUBLIC	??_R0?AVbad_alloc@std@@@8			; std::bad_alloc `RTTI Type Descriptor'
PUBLIC	__CT??_R0?AVbad_alloc@std@@@8??0bad_alloc@std@@QAE@ABV01@@Z12
PUBLIC	??_R0?AVexception@std@@@8			; std::exception `RTTI Type Descriptor'
PUBLIC	__CT??_R0?AVexception@std@@@8??0exception@std@@QAE@ABV01@@Z12
PUBLIC	??_R4exception@std@@6B@				; std::exception::`RTTI Complete Object Locator'
PUBLIC	??_R3exception@std@@8				; std::exception::`RTTI Class Hierarchy Descriptor'
PUBLIC	??_R2exception@std@@8				; std::exception::`RTTI Base Class Array'
PUBLIC	??_R1A@?0A@EA@exception@std@@8			; std::exception::`RTTI Base Class Descriptor at (0,-1,0,64)'
PUBLIC	??_R4bad_alloc@std@@6B@				; std::bad_alloc::`RTTI Complete Object Locator'
PUBLIC	??_R3bad_alloc@std@@8				; std::bad_alloc::`RTTI Class Hierarchy Descriptor'
PUBLIC	??_R2bad_alloc@std@@8				; std::bad_alloc::`RTTI Base Class Array'
PUBLIC	??_R1A@?0A@EA@bad_alloc@std@@8			; std::bad_alloc::`RTTI Base Class Descriptor at (0,-1,0,64)'
PUBLIC	??_R4bad_array_new_length@std@@6B@		; std::bad_array_new_length::`RTTI Complete Object Locator'
PUBLIC	??_R3bad_array_new_length@std@@8		; std::bad_array_new_length::`RTTI Class Hierarchy Descriptor'
PUBLIC	??_R2bad_array_new_length@std@@8		; std::bad_array_new_length::`RTTI Base Class Array'
PUBLIC	??_R1A@?0A@EA@bad_array_new_length@std@@8	; std::bad_array_new_length::`RTTI Base Class Descriptor at (0,-1,0,64)'
PUBLIC	?ms_kPool@?$CPooledObject@VCHeaderDecorator@NEffectUpdateDecorator@@@@1V?$CDynamicPoolEx@VCHeaderDecorator@NEffectUpdateDecorator@@@@A ; CPooledObject<NEffectUpdateDecorator::CHeaderDecorator>::ms_kPool
PUBLIC	?ms_kPool@?$CPooledObject@VCNullDecorator@NEffectUpdateDecorator@@@@1V?$CDynamicPoolEx@VCNullDecorator@NEffectUpdateDecorator@@@@A ; CPooledObject<NEffectUpdateDecorator::CNullDecorator>::ms_kPool
PUBLIC	?ms_kPool@?$CPooledObject@VCTextureAnimationCWDecorator@NEffectUpdateDecorator@@@@1V?$CDynamicPoolEx@VCTextureAnimationCWDecorator@NEffectUpdateDecorator@@@@A ; CPooledObject<NEffectUpdateDecorator::CTextureAnimationCWDecorator>::ms_kPool
PUBLIC	?ms_kPool@?$CPooledObject@VCTextureAnimationCCWDecorator@NEffectUpdateDecorator@@@@1V?$CDynamicPoolEx@VCTextureAnimationCCWDecorator@NEffectUpdateDecorator@@@@A ; CPooledObject<NEffectUpdateDecorator::CTextureAnimationCCWDecorator>::ms_kPool
PUBLIC	?ms_kPool@?$CPooledObject@VCTextureAnimationRandomDecorator@NEffectUpdateDecorator@@@@1V?$CDynamicPoolEx@VCTextureAnimationRandomDecorator@NEffectUpdateDecorator@@@@A ; CPooledObject<NEffectUpdateDecorator::CTextureAnimationRandomDecorator>::ms_kPool
PUBLIC	?ms_kPool@?$CPooledObject@VCAirResistanceDecorator@NEffectUpdateDecorator@@@@1V?$CDynamicPoolEx@VCAirResistanceDecorator@NEffectUpdateDecorator@@@@A ; CPooledObject<NEffectUpdateDecorator::CAirResistanceDecorator>::ms_kPool
PUBLIC	?ms_kPool@?$CPooledObject@VCGravityDecorator@NEffectUpdateDecorator@@@@1V?$CDynamicPoolEx@VCGravityDecorator@NEffectUpdateDecorator@@@@A ; CPooledObject<NEffectUpdateDecorator::CGravityDecorator>::ms_kPool
PUBLIC	?ms_kPool@?$CPooledObject@VCRotationDecorator@NEffectUpdateDecorator@@@@1V?$CDynamicPoolEx@VCRotationDecorator@NEffectUpdateDecorator@@@@A ; CPooledObject<NEffectUpdateDecorator::CRotationDecorator>::ms_kPool
PUBLIC	?ms_kPool@CParticleInstance@@2V?$CDynamicPool@VCParticleInstance@@@@A ; CParticleInstance::ms_kPool
PUBLIC	?ms_singleton@?$CSingleton@VCCameraManager@@@@0PAVCCameraManager@@A ; CSingleton<CCameraManager>::ms_singleton
PUBLIC	?ms_singleton@?$CSingleton@VCStateManager@@@@0PAVCStateManager@@A ; CSingleton<CStateManager>::ms_singleton
PUBLIC	??_C@_0BA@FOIKENOD@vector?5too?5long@		; `string'
PUBLIC	__real@00000000
PUBLIC	__real@3c8efa35
PUBLIC	__real@3f800000
PUBLIC	__real@80000000
PUBLIC	__real@bf800000
PUBLIC	__xmm@80000000800000008000000080000000
EXTRN	??2@YAPAXI@Z:PROC				; operator new
EXTRN	??3@YAXPAX@Z:PROC				; operator delete
EXTRN	??3@YAXPAXI@Z:PROC				; operator delete
EXTRN	_atexit:PROC
EXTRN	__invalid_parameter_noinfo_noreturn:PROC
EXTRN	___std_exception_copy:PROC
EXTRN	___std_exception_destroy:PROC
EXTRN	??_Eexception@std@@UAEPAXI@Z:PROC		; std::exception::`vector deleting destructor'
EXTRN	??_Ebad_alloc@std@@UAEPAXI@Z:PROC		; std::bad_alloc::`vector deleting destructor'
EXTRN	??_Ebad_array_new_length@std@@UAEPAXI@Z:PROC	; std::bad_array_new_length::`vector deleting destructor'
EXTRN	?_Xlength_error@std@@YAXPBD@Z:PROC		; std::_Xlength_error
EXTRN	_D3DXVec3Normalize@8:PROC
EXTRN	_D3DXVec3TransformCoord@12:PROC
EXTRN	_D3DXVec3TransformNormal@12:PROC
EXTRN	_D3DXMatrixRotationAxis@12:PROC
EXTRN	_D3DXQuaternionRotationAxis@12:PROC
EXTRN	_D3DXQuaternionMultiply@12:PROC
EXTRN	?GetCurrentCamera@CCameraManager@@QAEPAVCCamera@@XZ:PROC ; CCameraManager::GetCurrentCamera
EXTRN	?SetRenderState@CStateManager@@QAEXW4_D3DRENDERSTATETYPE@@K@Z:PROC ; CStateManager::SetRenderState
EXTRN	@__security_check_cookie@4:PROC
EXTRN	__CxxThrowException@8:PROC
EXTRN	___CxxFrameHandler3:PROC
EXTRN	__libm_sse2_cos_precise:PROC
EXTRN	__libm_sse2_log_precise:PROC
EXTRN	__libm_sse2_sin_precise:PROC
EXTRN	__libm_sse2_sqrt_precise:PROC
EXTRN	_memmove:PROC
EXTRN	___security_cookie:DWORD
EXTRN	__fltused:DWORD
;	COMDAT ?ms_singleton@?$CSingleton@VCCameraManager@@@@0PAVCCameraManager@@A
_BSS	SEGMENT
?ms_singleton@?$CSingleton@VCCameraManager@@@@0PAVCCameraManager@@A DD 01H DUP (?) ; CSingleton<CCameraManager>::ms_singleton
_BSS	ENDS
;	COMDAT ?ms_singleton@?$CSingleton@VCStateManager@@@@0PAVCStateManager@@A
_BSS	SEGMENT
?ms_singleton@?$CSingleton@VCStateManager@@@@0PAVCStateManager@@A DD 01H DUP (?) ; CSingleton<CStateManager>::ms_singleton
_BSS	ENDS
CRT$XCU	SEGMENT
??ms_kPool$initializer$@CParticleInstance@@2P6AXXZA@@3P6AXXZA DD FLAT:??__E?ms_kPool@CParticleInstance@@2V?$CDynamicPool@VCParticleInstance@@@@A@@YAXXZ ; ??ms_kPool$initializer$@CParticleInstance@@2P6AXXZA@@3P6AXXZA
CRT$XCU	ENDS
;	COMDAT __xmm@80000000800000008000000080000000
CONST	SEGMENT
__xmm@80000000800000008000000080000000 DB 00H, 00H, 00H, 080H, 00H, 00H, 00H
	DB	080H, 00H, 00H, 00H, 080H, 00H, 00H, 00H, 080H
CONST	ENDS
;	COMDAT __real@bf800000
CONST	SEGMENT
__real@bf800000 DD 0bf800000r			; -1
CONST	ENDS
;	COMDAT __real@80000000
CONST	SEGMENT
__real@80000000 DD 080000000r			; -0
CONST	ENDS
;	COMDAT __real@3f800000
CONST	SEGMENT
__real@3f800000 DD 03f800000r			; 1
CONST	ENDS
;	COMDAT __real@3c8efa35
CONST	SEGMENT
__real@3c8efa35 DD 03c8efa35r			; 0.0174533
CONST	ENDS
;	COMDAT __real@00000000
CONST	SEGMENT
__real@00000000 DD 000000000r			; 0
CONST	ENDS
;	COMDAT ??_C@_0BA@FOIKENOD@vector?5too?5long@
CONST	SEGMENT
??_C@_0BA@FOIKENOD@vector?5too?5long@ DB 'vector too long', 00H ; `string'
CONST	ENDS
_DATA	SEGMENT
?ms_kPool@CParticleInstance@@2V?$CDynamicPool@VCParticleInstance@@@@A DD FLAT:??_7?$CDynamicPool@VCParticleInstance@@@@6B@ ; CParticleInstance::ms_kPool
	DD	00H
	DD	00H
	DD	00H
	DD	00H
	DD	00H
	DD	00H
	DD	00H
	DD	00H
_DATA	ENDS
;	COMDAT ?ms_kPool@?$CPooledObject@VCRotationDecorator@NEffectUpdateDecorator@@@@1V?$CDynamicPoolEx@VCRotationDecorator@NEffectUpdateDecorator@@@@A
_DATA	SEGMENT
?ms_kPool@?$CPooledObject@VCRotationDecorator@NEffectUpdateDecorator@@@@1V?$CDynamicPoolEx@VCRotationDecorator@NEffectUpdateDecorator@@@@A DD FLAT:??_7?$CDynamicPoolEx@VCRotationDecorator@NEffectUpdateDecorator@@@@6B@ ; CPooledObject<NEffectUpdateDecorator::CRotationDecorator>::ms_kPool
	DD	00H
	DD	00H
	DD	00H
	DD	00H
	DD	00H
	DD	00H
	DD	00H
	DD	00H
_DATA	ENDS
;	COMDAT ?ms_kPool@?$CPooledObject@VCGravityDecorator@NEffectUpdateDecorator@@@@1V?$CDynamicPoolEx@VCGravityDecorator@NEffectUpdateDecorator@@@@A
_DATA	SEGMENT
?ms_kPool@?$CPooledObject@VCGravityDecorator@NEffectUpdateDecorator@@@@1V?$CDynamicPoolEx@VCGravityDecorator@NEffectUpdateDecorator@@@@A DD FLAT:??_7?$CDynamicPoolEx@VCGravityDecorator@NEffectUpdateDecorator@@@@6B@ ; CPooledObject<NEffectUpdateDecorator::CGravityDecorator>::ms_kPool
	DD	00H
	DD	00H
	DD	00H
	DD	00H
	DD	00H
	DD	00H
	DD	00H
	DD	00H
_DATA	ENDS
;	COMDAT ?ms_kPool@?$CPooledObject@VCAirResistanceDecorator@NEffectUpdateDecorator@@@@1V?$CDynamicPoolEx@VCAirResistanceDecorator@NEffectUpdateDecorator@@@@A
_DATA	SEGMENT
?ms_kPool@?$CPooledObject@VCAirResistanceDecorator@NEffectUpdateDecorator@@@@1V?$CDynamicPoolEx@VCAirResistanceDecorator@NEffectUpdateDecorator@@@@A DD FLAT:??_7?$CDynamicPoolEx@VCAirResistanceDecorator@NEffectUpdateDecorator@@@@6B@ ; CPooledObject<NEffectUpdateDecorator::CAirResistanceDecorator>::ms_kPool
	DD	00H
	DD	00H
	DD	00H
	DD	00H
	DD	00H
	DD	00H
	DD	00H
	DD	00H
_DATA	ENDS
;	COMDAT ?ms_kPool@?$CPooledObject@VCTextureAnimationRandomDecorator@NEffectUpdateDecorator@@@@1V?$CDynamicPoolEx@VCTextureAnimationRandomDecorator@NEffectUpdateDecorator@@@@A
_DATA	SEGMENT
?ms_kPool@?$CPooledObject@VCTextureAnimationRandomDecorator@NEffectUpdateDecorator@@@@1V?$CDynamicPoolEx@VCTextureAnimationRandomDecorator@NEffectUpdateDecorator@@@@A DD FLAT:??_7?$CDynamicPoolEx@VCTextureAnimationRandomDecorator@NEffectUpdateDecorator@@@@6B@ ; CPooledObject<NEffectUpdateDecorator::CTextureAnimationRandomDecorator>::ms_kPool
	DD	00H
	DD	00H
	DD	00H
	DD	00H
	DD	00H
	DD	00H
	DD	00H
	DD	00H
_DATA	ENDS
;	COMDAT ?ms_kPool@?$CPooledObject@VCTextureAnimationCCWDecorator@NEffectUpdateDecorator@@@@1V?$CDynamicPoolEx@VCTextureAnimationCCWDecorator@NEffectUpdateDecorator@@@@A
_DATA	SEGMENT
?ms_kPool@?$CPooledObject@VCTextureAnimationCCWDecorator@NEffectUpdateDecorator@@@@1V?$CDynamicPoolEx@VCTextureAnimationCCWDecorator@NEffectUpdateDecorator@@@@A DD FLAT:??_7?$CDynamicPoolEx@VCTextureAnimationCCWDecorator@NEffectUpdateDecorator@@@@6B@ ; CPooledObject<NEffectUpdateDecorator::CTextureAnimationCCWDecorator>::ms_kPool
	DD	00H
	DD	00H
	DD	00H
	DD	00H
	DD	00H
	DD	00H
	DD	00H
	DD	00H
_DATA	ENDS
;	COMDAT ?ms_kPool@?$CPooledObject@VCTextureAnimationCWDecorator@NEffectUpdateDecorator@@@@1V?$CDynamicPoolEx@VCTextureAnimationCWDecorator@NEffectUpdateDecorator@@@@A
_DATA	SEGMENT
?ms_kPool@?$CPooledObject@VCTextureAnimationCWDecorator@NEffectUpdateDecorator@@@@1V?$CDynamicPoolEx@VCTextureAnimationCWDecorator@NEffectUpdateDecorator@@@@A DD FLAT:??_7?$CDynamicPoolEx@VCTextureAnimationCWDecorator@NEffectUpdateDecorator@@@@6B@ ; CPooledObject<NEffectUpdateDecorator::CTextureAnimationCWDecorator>::ms_kPool
	DD	00H
	DD	00H
	DD	00H
	DD	00H
	DD	00H
	DD	00H
	DD	00H
	DD	00H
_DATA	ENDS
;	COMDAT ?ms_kPool@?$CPooledObject@VCNullDecorator@NEffectUpdateDecorator@@@@1V?$CDynamicPoolEx@VCNullDecorator@NEffectUpdateDecorator@@@@A
_DATA	SEGMENT
?ms_kPool@?$CPooledObject@VCNullDecorator@NEffectUpdateDecorator@@@@1V?$CDynamicPoolEx@VCNullDecorator@NEffectUpdateDecorator@@@@A DD FLAT:??_7?$CDynamicPoolEx@VCNullDecorator@NEffectUpdateDecorator@@@@6B@ ; CPooledObject<NEffectUpdateDecorator::CNullDecorator>::ms_kPool
	DD	00H
	DD	00H
	DD	00H
	DD	00H
	DD	00H
	DD	00H
	DD	00H
	DD	00H
_DATA	ENDS
;	COMDAT ?ms_kPool@?$CPooledObject@VCHeaderDecorator@NEffectUpdateDecorator@@@@1V?$CDynamicPoolEx@VCHeaderDecorator@NEffectUpdateDecorator@@@@A
_DATA	SEGMENT
?ms_kPool@?$CPooledObject@VCHeaderDecorator@NEffectUpdateDecorator@@@@1V?$CDynamicPoolEx@VCHeaderDecorator@NEffectUpdateDecorator@@@@A DD FLAT:??_7?$CDynamicPoolEx@VCHeaderDecorator@NEffectUpdateDecorator@@@@6B@ ; CPooledObject<NEffectUpdateDecorator::CHeaderDecorator>::ms_kPool
	DD	00H
	DD	00H
	DD	00H
	DD	00H
	DD	00H
	DD	00H
	DD	00H
	DD	00H
_DATA	ENDS
;	COMDAT ??_R1A@?0A@EA@bad_array_new_length@std@@8
rdata$r	SEGMENT
??_R1A@?0A@EA@bad_array_new_length@std@@8 DD FLAT:??_R0?AVbad_array_new_length@std@@@8 ; std::bad_array_new_length::`RTTI Base Class Descriptor at (0,-1,0,64)'
	DD	02H
	DD	00H
	DD	0ffffffffH
	DD	00H
	DD	040H
	DD	FLAT:??_R3bad_array_new_length@std@@8
rdata$r	ENDS
;	COMDAT ??_R2bad_array_new_length@std@@8
rdata$r	SEGMENT
??_R2bad_array_new_length@std@@8 DD FLAT:??_R1A@?0A@EA@bad_array_new_length@std@@8 ; std::bad_array_new_length::`RTTI Base Class Array'
	DD	FLAT:??_R1A@?0A@EA@bad_alloc@std@@8
	DD	FLAT:??_R1A@?0A@EA@exception@std@@8
rdata$r	ENDS
;	COMDAT ??_R3bad_array_new_length@std@@8
rdata$r	SEGMENT
??_R3bad_array_new_length@std@@8 DD 00H			; std::bad_array_new_length::`RTTI Class Hierarchy Descriptor'
	DD	00H
	DD	03H
	DD	FLAT:??_R2bad_array_new_length@std@@8
rdata$r	ENDS
;	COMDAT ??_R4bad_array_new_length@std@@6B@
rdata$r	SEGMENT
??_R4bad_array_new_length@std@@6B@ DD 00H		; std::bad_array_new_length::`RTTI Complete Object Locator'
	DD	00H
	DD	00H
	DD	FLAT:??_R0?AVbad_array_new_length@std@@@8
	DD	FLAT:??_R3bad_array_new_length@std@@8
rdata$r	ENDS
;	COMDAT ??_R1A@?0A@EA@bad_alloc@std@@8
rdata$r	SEGMENT
??_R1A@?0A@EA@bad_alloc@std@@8 DD FLAT:??_R0?AVbad_alloc@std@@@8 ; std::bad_alloc::`RTTI Base Class Descriptor at (0,-1,0,64)'
	DD	01H
	DD	00H
	DD	0ffffffffH
	DD	00H
	DD	040H
	DD	FLAT:??_R3bad_alloc@std@@8
rdata$r	ENDS
;	COMDAT ??_R2bad_alloc@std@@8
rdata$r	SEGMENT
??_R2bad_alloc@std@@8 DD FLAT:??_R1A@?0A@EA@bad_alloc@std@@8 ; std::bad_alloc::`RTTI Base Class Array'
	DD	FLAT:??_R1A@?0A@EA@exception@std@@8
rdata$r	ENDS
;	COMDAT ??_R3bad_alloc@std@@8
rdata$r	SEGMENT
??_R3bad_alloc@std@@8 DD 00H				; std::bad_alloc::`RTTI Class Hierarchy Descriptor'
	DD	00H
	DD	02H
	DD	FLAT:??_R2bad_alloc@std@@8
rdata$r	ENDS
;	COMDAT ??_R4bad_alloc@std@@6B@
rdata$r	SEGMENT
??_R4bad_alloc@std@@6B@ DD 00H				; std::bad_alloc::`RTTI Complete Object Locator'
	DD	00H
	DD	00H
	DD	FLAT:??_R0?AVbad_alloc@std@@@8
	DD	FLAT:??_R3bad_alloc@std@@8
rdata$r	ENDS
;	COMDAT ??_R1A@?0A@EA@exception@std@@8
rdata$r	SEGMENT
??_R1A@?0A@EA@exception@std@@8 DD FLAT:??_R0?AVexception@std@@@8 ; std::exception::`RTTI Base Class Descriptor at (0,-1,0,64)'
	DD	00H
	DD	00H
	DD	0ffffffffH
	DD	00H
	DD	040H
	DD	FLAT:??_R3exception@std@@8
rdata$r	ENDS
;	COMDAT ??_R2exception@std@@8
rdata$r	SEGMENT
??_R2exception@std@@8 DD FLAT:??_R1A@?0A@EA@exception@std@@8 ; std::exception::`RTTI Base Class Array'
rdata$r	ENDS
;	COMDAT ??_R3exception@std@@8
rdata$r	SEGMENT
??_R3exception@std@@8 DD 00H				; std::exception::`RTTI Class Hierarchy Descriptor'
	DD	00H
	DD	01H
	DD	FLAT:??_R2exception@std@@8
rdata$r	ENDS
;	COMDAT ??_R4exception@std@@6B@
rdata$r	SEGMENT
??_R4exception@std@@6B@ DD 00H				; std::exception::`RTTI Complete Object Locator'
	DD	00H
	DD	00H
	DD	FLAT:??_R0?AVexception@std@@@8
	DD	FLAT:??_R3exception@std@@8
rdata$r	ENDS
;	COMDAT __CT??_R0?AVexception@std@@@8??0exception@std@@QAE@ABV01@@Z12
xdata$x	SEGMENT
__CT??_R0?AVexception@std@@@8??0exception@std@@QAE@ABV01@@Z12 DD 00H
	DD	FLAT:??_R0?AVexception@std@@@8
	DD	00H
	DD	0ffffffffH
	ORG $+4
	DD	0cH
	DD	FLAT:??0exception@std@@QAE@ABV01@@Z
xdata$x	ENDS
;	COMDAT ??_R0?AVexception@std@@@8
data$r	SEGMENT
??_R0?AVexception@std@@@8 DD FLAT:??_7type_info@@6B@	; std::exception `RTTI Type Descriptor'
	DD	00H
	DB	'.?AVexception@std@@', 00H
data$r	ENDS
;	COMDAT __CT??_R0?AVbad_alloc@std@@@8??0bad_alloc@std@@QAE@ABV01@@Z12
xdata$x	SEGMENT
__CT??_R0?AVbad_alloc@std@@@8??0bad_alloc@std@@QAE@ABV01@@Z12 DD 010H
	DD	FLAT:??_R0?AVbad_alloc@std@@@8
	DD	00H
	DD	0ffffffffH
	ORG $+4
	DD	0cH
	DD	FLAT:??0bad_alloc@std@@QAE@ABV01@@Z
xdata$x	ENDS
;	COMDAT ??_R0?AVbad_alloc@std@@@8
data$r	SEGMENT
??_R0?AVbad_alloc@std@@@8 DD FLAT:??_7type_info@@6B@	; std::bad_alloc `RTTI Type Descriptor'
	DD	00H
	DB	'.?AVbad_alloc@std@@', 00H
data$r	ENDS
;	COMDAT __CT??_R0?AVbad_array_new_length@std@@@8??0bad_array_new_length@std@@QAE@ABV01@@Z12
xdata$x	SEGMENT
__CT??_R0?AVbad_array_new_length@std@@@8??0bad_array_new_length@std@@QAE@ABV01@@Z12 DD 00H
	DD	FLAT:??_R0?AVbad_array_new_length@std@@@8
	DD	00H
	DD	0ffffffffH
	ORG $+4
	DD	0cH
	DD	FLAT:??0bad_array_new_length@std@@QAE@ABV01@@Z
xdata$x	ENDS
;	COMDAT ??_R0?AVbad_array_new_length@std@@@8
data$r	SEGMENT
??_R0?AVbad_array_new_length@std@@@8 DD FLAT:??_7type_info@@6B@ ; std::bad_array_new_length `RTTI Type Descriptor'
	DD	00H
	DB	'.?AVbad_array_new_length@std@@', 00H
data$r	ENDS
;	COMDAT __CTA3?AVbad_array_new_length@std@@
xdata$x	SEGMENT
__CTA3?AVbad_array_new_length@std@@ DD 03H
	DD	FLAT:__CT??_R0?AVbad_array_new_length@std@@@8??0bad_array_new_length@std@@QAE@ABV01@@Z12
	DD	FLAT:__CT??_R0?AVbad_alloc@std@@@8??0bad_alloc@std@@QAE@ABV01@@Z12
	DD	FLAT:__CT??_R0?AVexception@std@@@8??0exception@std@@QAE@ABV01@@Z12
xdata$x	ENDS
;	COMDAT __TI3?AVbad_array_new_length@std@@
xdata$x	SEGMENT
__TI3?AVbad_array_new_length@std@@ DD 00H
	DD	FLAT:??1bad_array_new_length@std@@UAE@XZ
	DD	00H
	DD	FLAT:__CTA3?AVbad_array_new_length@std@@
xdata$x	ENDS
;	COMDAT ??_C@_0BF@KINCDENJ@bad?5array?5new?5length@
CONST	SEGMENT
??_C@_0BF@KINCDENJ@bad?5array?5new?5length@ DB 'bad array new length', 00H ; `string'
CONST	ENDS
;	COMDAT ??_7bad_array_new_length@std@@6B@
CONST	SEGMENT
??_7bad_array_new_length@std@@6B@ DD FLAT:??_R4bad_array_new_length@std@@6B@ ; std::bad_array_new_length::`vftable'
	DD	FLAT:??_Ebad_array_new_length@std@@UAEPAXI@Z
	DD	FLAT:?what@exception@std@@UBEPBDXZ
CONST	ENDS
;	COMDAT ??_7bad_alloc@std@@6B@
CONST	SEGMENT
??_7bad_alloc@std@@6B@ DD FLAT:??_R4bad_alloc@std@@6B@	; std::bad_alloc::`vftable'
	DD	FLAT:??_Ebad_alloc@std@@UAEPAXI@Z
	DD	FLAT:?what@exception@std@@UBEPBDXZ
CONST	ENDS
;	COMDAT ??_C@_0BC@EOODALEL@Unknown?5exception@
CONST	SEGMENT
??_C@_0BC@EOODALEL@Unknown?5exception@ DB 'Unknown exception', 00H ; `string'
CONST	ENDS
;	COMDAT ??_7exception@std@@6B@
CONST	SEGMENT
??_7exception@std@@6B@ DD FLAT:??_R4exception@std@@6B@	; std::exception::`vftable'
	DD	FLAT:??_Eexception@std@@UAEPAXI@Z
	DD	FLAT:?what@exception@std@@UBEPBDXZ
CONST	ENDS
;	COMDAT xdata$x
xdata$x	SEGMENT
__ehfuncinfo$??1CParticleInstance@@QAE@XZ DD 019930522H
	DD	00H
	DD	00H
	DD	2 DUP(00H)
	DD	2 DUP(00H)
	DD	00H
	DD	05H
xdata$x	ENDS
;	COMDAT CRT$XCU
CRT$XCU	SEGMENT
??ms_kPool$initializer$@?$CPooledObject@VCHeaderDecorator@NEffectUpdateDecorator@@@@1P6AXXZA@@3P6AXXZA DD FLAT:??__E?ms_kPool@?$CPooledObject@VCHeaderDecorator@NEffectUpdateDecorator@@@@1V?$CDynamicPoolEx@VCHeaderDecorator@NEffectUpdateDecorator@@@@A@@YAXXZ ; ??ms_kPool$initializer$@?$CPooledObject@VCHeaderDecorator@NEffectUpdateDecorator@@@@1P6AXXZA@@3P6AXXZA
CRT$XCU	ENDS
;	COMDAT CRT$XCU
CRT$XCU	SEGMENT
??ms_kPool$initializer$@?$CPooledObject@VCNullDecorator@NEffectUpdateDecorator@@@@1P6AXXZA@@3P6AXXZA DD FLAT:??__E?ms_kPool@?$CPooledObject@VCNullDecorator@NEffectUpdateDecorator@@@@1V?$CDynamicPoolEx@VCNullDecorator@NEffectUpdateDecorator@@@@A@@YAXXZ ; ??ms_kPool$initializer$@?$CPooledObject@VCNullDecorator@NEffectUpdateDecorator@@@@1P6AXXZA@@3P6AXXZA
CRT$XCU	ENDS
;	COMDAT CRT$XCU
CRT$XCU	SEGMENT
??ms_kPool$initializer$@?$CPooledObject@VCTextureAnimationCWDecorator@NEffectUpdateDecorator@@@@1P6AXXZA@@3P6AXXZA DD FLAT:??__E?ms_kPool@?$CPooledObject@VCTextureAnimationCWDecorator@NEffectUpdateDecorator@@@@1V?$CDynamicPoolEx@VCTextureAnimationCWDecorator@NEffectUpdateDecorator@@@@A@@YAXXZ ; ??ms_kPool$initializer$@?$CPooledObject@VCTextureAnimationCWDecorator@NEffectUpdateDecorator@@@@1P6AXXZA@@3P6AXXZA
CRT$XCU	ENDS
;	COMDAT CRT$XCU
CRT$XCU	SEGMENT
??ms_kPool$initializer$@?$CPooledObject@VCTextureAnimationCCWDecorator@NEffectUpdateDecorator@@@@1P6AXXZA@@3P6AXXZA DD FLAT:??__E?ms_kPool@?$CPooledObject@VCTextureAnimationCCWDecorator@NEffectUpdateDecorator@@@@1V?$CDynamicPoolEx@VCTextureAnimationCCWDecorator@NEffectUpdateDecorator@@@@A@@YAXXZ ; ??ms_kPool$initializer$@?$CPooledObject@VCTextureAnimationCCWDecorator@NEffectUpdateDecorator@@@@1P6AXXZA@@3P6AXXZA
CRT$XCU	ENDS
;	COMDAT CRT$XCU
CRT$XCU	SEGMENT
??ms_kPool$initializer$@?$CPooledObject@VCTextureAnimationRandomDecorator@NEffectUpdateDecorator@@@@1P6AXXZA@@3P6AXXZA DD FLAT:??__E?ms_kPool@?$CPooledObject@VCTextureAnimationRandomDecorator@NEffectUpdateDecorator@@@@1V?$CDynamicPoolEx@VCTextureAnimationRandomDecorator@NEffectUpdateDecorator@@@@A@@YAXXZ ; ??ms_kPool$initializer$@?$CPooledObject@VCTextureAnimationRandomDecorator@NEffectUpdateDecorator@@@@1P6AXXZA@@3P6AXXZA
CRT$XCU	ENDS
;	COMDAT CRT$XCU
CRT$XCU	SEGMENT
??ms_kPool$initializer$@?$CPooledObject@VCAirResistanceDecorator@NEffectUpdateDecorator@@@@1P6AXXZA@@3P6AXXZA DD FLAT:??__E?ms_kPool@?$CPooledObject@VCAirResistanceDecorator@NEffectUpdateDecorator@@@@1V?$CDynamicPoolEx@VCAirResistanceDecorator@NEffectUpdateDecorator@@@@A@@YAXXZ ; ??ms_kPool$initializer$@?$CPooledObject@VCAirResistanceDecorator@NEffectUpdateDecorator@@@@1P6AXXZA@@3P6AXXZA
CRT$XCU	ENDS
;	COMDAT CRT$XCU
CRT$XCU	SEGMENT
??ms_kPool$initializer$@?$CPooledObject@VCGravityDecorator@NEffectUpdateDecorator@@@@1P6AXXZA@@3P6AXXZA DD FLAT:??__E?ms_kPool@?$CPooledObject@VCGravityDecorator@NEffectUpdateDecorator@@@@1V?$CDynamicPoolEx@VCGravityDecorator@NEffectUpdateDecorator@@@@A@@YAXXZ ; ??ms_kPool$initializer$@?$CPooledObject@VCGravityDecorator@NEffectUpdateDecorator@@@@1P6AXXZA@@3P6AXXZA
CRT$XCU	ENDS
;	COMDAT CRT$XCU
CRT$XCU	SEGMENT
??ms_kPool$initializer$@?$CPooledObject@VCRotationDecorator@NEffectUpdateDecorator@@@@1P6AXXZA@@3P6AXXZA DD FLAT:??__E?ms_kPool@?$CPooledObject@VCRotationDecorator@NEffectUpdateDecorator@@@@1V?$CDynamicPoolEx@VCRotationDecorator@NEffectUpdateDecorator@@@@A@@YAXXZ ; ??ms_kPool$initializer$@?$CPooledObject@VCRotationDecorator@NEffectUpdateDecorator@@@@1P6AXXZA@@3P6AXXZA
CRT$XCU	ENDS
; Function compile flags: /Ogtp
; File C:\Program Files (x86)\Microsoft Visual Studio\2019\Professional\VC\Tools\MSVC\14.29.30133\include\xutility
;	COMDAT ??$_Copy_memmove@PAPAVCParticleInstance@@PAPAV1@@std@@YAPAPAVCParticleInstance@@PAPAV1@00@Z
_TEXT	SEGMENT
__First$ = 8						; size = 4
__Last$ = 12						; size = 4
__Dest$ = 16						; size = 4
??$_Copy_memmove@PAPAVCParticleInstance@@PAPAV1@@std@@YAPAPAVCParticleInstance@@PAPAV1@00@Z PROC ; std::_Copy_memmove<CParticleInstance * *,CParticleInstance * *>, COMDAT

; 4159 : _OutCtgIt _Copy_memmove(_CtgIt _First, _CtgIt _Last, _OutCtgIt _Dest) {

  00000	55		 push	 ebp
  00001	8b ec		 mov	 ebp, esp

; 4160 :     auto _FirstPtr              = _To_address(_First);
; 4161 :     auto _LastPtr               = _To_address(_Last);
; 4162 :     auto _DestPtr               = _To_address(_Dest);
; 4163 :     const char* const _First_ch = const_cast<const char*>(reinterpret_cast<const volatile char*>(_FirstPtr));
; 4164 :     const char* const _Last_ch  = const_cast<const char*>(reinterpret_cast<const volatile char*>(_LastPtr));
; 4165 :     char* const _Dest_ch        = const_cast<char*>(reinterpret_cast<const volatile char*>(_DestPtr));
; 4166 :     const auto _Count           = static_cast<size_t>(_Last_ch - _First_ch);

  00003	8b 45 08	 mov	 eax, DWORD PTR __First$[ebp]
  00006	56		 push	 esi

; 4167 :     _CSTD memmove(_Dest_ch, _First_ch, _Count);

  00007	8b 75 10	 mov	 esi, DWORD PTR __Dest$[ebp]
  0000a	57		 push	 edi
  0000b	8b 7d 0c	 mov	 edi, DWORD PTR __Last$[ebp]
  0000e	2b f8		 sub	 edi, eax
  00010	57		 push	 edi
  00011	50		 push	 eax
  00012	56		 push	 esi
  00013	e8 00 00 00 00	 call	 _memmove
  00018	83 c4 0c	 add	 esp, 12			; 0000000cH

; 4168 :     if constexpr (is_pointer_v<_OutCtgIt>) {
; 4169 :         return reinterpret_cast<_OutCtgIt>(_Dest_ch + _Count);

  0001b	8d 04 37	 lea	 eax, DWORD PTR [edi+esi]
  0001e	5f		 pop	 edi
  0001f	5e		 pop	 esi

; 4170 :     } else {
; 4171 :         return _Dest + (_LastPtr - _FirstPtr);
; 4172 :     }
; 4173 : }

  00020	5d		 pop	 ebp
  00021	c3		 ret	 0
??$_Copy_memmove@PAPAVCParticleInstance@@PAPAV1@@std@@YAPAPAVCParticleInstance@@PAPAV1@00@Z ENDP ; std::_Copy_memmove<CParticleInstance * *,CParticleInstance * *>
_TEXT	ENDS
; Function compile flags: /Ogtp
;	COMDAT ??__F?ms_kPool@?$CPooledObject@VCRotationDecorator@NEffectUpdateDecorator@@@@1V?$CDynamicPoolEx@VCRotationDecorator@NEffectUpdateDecorator@@@@A@@YAXXZ
text$yd	SEGMENT
??__F?ms_kPool@?$CPooledObject@VCRotationDecorator@NEffectUpdateDecorator@@@@1V?$CDynamicPoolEx@VCRotationDecorator@NEffectUpdateDecorator@@@@A@@YAXXZ PROC ; `dynamic atexit destructor for 'CPooledObject<NEffectUpdateDecorator::CRotationDecorator>::ms_kPool'', COMDAT
  00000	b9 00 00 00 00	 mov	 ecx, OFFSET ?ms_kPool@?$CPooledObject@VCRotationDecorator@NEffectUpdateDecorator@@@@1V?$CDynamicPoolEx@VCRotationDecorator@NEffectUpdateDecorator@@@@A ; CPooledObject<NEffectUpdateDecorator::CRotationDecorator>::ms_kPool
  00005	e9 00 00 00 00	 jmp	 ??1?$CDynamicPoolEx@VCRotationDecorator@NEffectUpdateDecorator@@@@UAE@XZ ; CDynamicPoolEx<NEffectUpdateDecorator::CRotationDecorator>::~CDynamicPoolEx<NEffectUpdateDecorator::CRotationDecorator>
??__F?ms_kPool@?$CPooledObject@VCRotationDecorator@NEffectUpdateDecorator@@@@1V?$CDynamicPoolEx@VCRotationDecorator@NEffectUpdateDecorator@@@@A@@YAXXZ ENDP ; `dynamic atexit destructor for 'CPooledObject<NEffectUpdateDecorator::CRotationDecorator>::ms_kPool''
text$yd	ENDS
; Function compile flags: /Ogtp
; File C:\Users\murat\Desktop\Siveps2-1-99-Project\source\client\Client\eterLib\Pool.h
;	COMDAT ??__E?ms_kPool@?$CPooledObject@VCRotationDecorator@NEffectUpdateDecorator@@@@1V?$CDynamicPoolEx@VCRotationDecorator@NEffectUpdateDecorator@@@@A@@YAXXZ
text$di	SEGMENT
??__E?ms_kPool@?$CPooledObject@VCRotationDecorator@NEffectUpdateDecorator@@@@1V?$CDynamicPoolEx@VCRotationDecorator@NEffectUpdateDecorator@@@@A@@YAXXZ PROC ; `dynamic initializer for 'CPooledObject<NEffectUpdateDecorator::CRotationDecorator>::ms_kPool'', COMDAT

; 272  : template <class T> CDynamicPoolEx<T> CPooledObject<T>::ms_kPool;

  00000	68 00 00 00 00	 push	 OFFSET ??__F?ms_kPool@?$CPooledObject@VCRotationDecorator@NEffectUpdateDecorator@@@@1V?$CDynamicPoolEx@VCRotationDecorator@NEffectUpdateDecorator@@@@A@@YAXXZ ; `dynamic atexit destructor for 'CPooledObject<NEffectUpdateDecorator::CRotationDecorator>::ms_kPool''
  00005	e8 00 00 00 00	 call	 _atexit
  0000a	59		 pop	 ecx
  0000b	c3		 ret	 0
??__E?ms_kPool@?$CPooledObject@VCRotationDecorator@NEffectUpdateDecorator@@@@1V?$CDynamicPoolEx@VCRotationDecorator@NEffectUpdateDecorator@@@@A@@YAXXZ ENDP ; `dynamic initializer for 'CPooledObject<NEffectUpdateDecorator::CRotationDecorator>::ms_kPool''
text$di	ENDS
; Function compile flags: /Ogtp
;	COMDAT ??__F?ms_kPool@?$CPooledObject@VCGravityDecorator@NEffectUpdateDecorator@@@@1V?$CDynamicPoolEx@VCGravityDecorator@NEffectUpdateDecorator@@@@A@@YAXXZ
text$yd	SEGMENT
??__F?ms_kPool@?$CPooledObject@VCGravityDecorator@NEffectUpdateDecorator@@@@1V?$CDynamicPoolEx@VCGravityDecorator@NEffectUpdateDecorator@@@@A@@YAXXZ PROC ; `dynamic atexit destructor for 'CPooledObject<NEffectUpdateDecorator::CGravityDecorator>::ms_kPool'', COMDAT
  00000	b9 00 00 00 00	 mov	 ecx, OFFSET ?ms_kPool@?$CPooledObject@VCGravityDecorator@NEffectUpdateDecorator@@@@1V?$CDynamicPoolEx@VCGravityDecorator@NEffectUpdateDecorator@@@@A ; CPooledObject<NEffectUpdateDecorator::CGravityDecorator>::ms_kPool
  00005	e9 00 00 00 00	 jmp	 ??1?$CDynamicPoolEx@VCGravityDecorator@NEffectUpdateDecorator@@@@UAE@XZ ; CDynamicPoolEx<NEffectUpdateDecorator::CGravityDecorator>::~CDynamicPoolEx<NEffectUpdateDecorator::CGravityDecorator>
??__F?ms_kPool@?$CPooledObject@VCGravityDecorator@NEffectUpdateDecorator@@@@1V?$CDynamicPoolEx@VCGravityDecorator@NEffectUpdateDecorator@@@@A@@YAXXZ ENDP ; `dynamic atexit destructor for 'CPooledObject<NEffectUpdateDecorator::CGravityDecorator>::ms_kPool''
text$yd	ENDS
; Function compile flags: /Ogtp
; File C:\Users\murat\Desktop\Siveps2-1-99-Project\source\client\Client\eterLib\Pool.h
;	COMDAT ??__E?ms_kPool@?$CPooledObject@VCGravityDecorator@NEffectUpdateDecorator@@@@1V?$CDynamicPoolEx@VCGravityDecorator@NEffectUpdateDecorator@@@@A@@YAXXZ
text$di	SEGMENT
??__E?ms_kPool@?$CPooledObject@VCGravityDecorator@NEffectUpdateDecorator@@@@1V?$CDynamicPoolEx@VCGravityDecorator@NEffectUpdateDecorator@@@@A@@YAXXZ PROC ; `dynamic initializer for 'CPooledObject<NEffectUpdateDecorator::CGravityDecorator>::ms_kPool'', COMDAT

; 272  : template <class T> CDynamicPoolEx<T> CPooledObject<T>::ms_kPool;

  00000	68 00 00 00 00	 push	 OFFSET ??__F?ms_kPool@?$CPooledObject@VCGravityDecorator@NEffectUpdateDecorator@@@@1V?$CDynamicPoolEx@VCGravityDecorator@NEffectUpdateDecorator@@@@A@@YAXXZ ; `dynamic atexit destructor for 'CPooledObject<NEffectUpdateDecorator::CGravityDecorator>::ms_kPool''
  00005	e8 00 00 00 00	 call	 _atexit
  0000a	59		 pop	 ecx
  0000b	c3		 ret	 0
??__E?ms_kPool@?$CPooledObject@VCGravityDecorator@NEffectUpdateDecorator@@@@1V?$CDynamicPoolEx@VCGravityDecorator@NEffectUpdateDecorator@@@@A@@YAXXZ ENDP ; `dynamic initializer for 'CPooledObject<NEffectUpdateDecorator::CGravityDecorator>::ms_kPool''
text$di	ENDS
; Function compile flags: /Ogtp
;	COMDAT ??__F?ms_kPool@?$CPooledObject@VCAirResistanceDecorator@NEffectUpdateDecorator@@@@1V?$CDynamicPoolEx@VCAirResistanceDecorator@NEffectUpdateDecorator@@@@A@@YAXXZ
text$yd	SEGMENT
??__F?ms_kPool@?$CPooledObject@VCAirResistanceDecorator@NEffectUpdateDecorator@@@@1V?$CDynamicPoolEx@VCAirResistanceDecorator@NEffectUpdateDecorator@@@@A@@YAXXZ PROC ; `dynamic atexit destructor for 'CPooledObject<NEffectUpdateDecorator::CAirResistanceDecorator>::ms_kPool'', COMDAT
  00000	b9 00 00 00 00	 mov	 ecx, OFFSET ?ms_kPool@?$CPooledObject@VCAirResistanceDecorator@NEffectUpdateDecorator@@@@1V?$CDynamicPoolEx@VCAirResistanceDecorator@NEffectUpdateDecorator@@@@A ; CPooledObject<NEffectUpdateDecorator::CAirResistanceDecorator>::ms_kPool
  00005	e9 00 00 00 00	 jmp	 ??1?$CDynamicPoolEx@VCAirResistanceDecorator@NEffectUpdateDecorator@@@@UAE@XZ ; CDynamicPoolEx<NEffectUpdateDecorator::CAirResistanceDecorator>::~CDynamicPoolEx<NEffectUpdateDecorator::CAirResistanceDecorator>
??__F?ms_kPool@?$CPooledObject@VCAirResistanceDecorator@NEffectUpdateDecorator@@@@1V?$CDynamicPoolEx@VCAirResistanceDecorator@NEffectUpdateDecorator@@@@A@@YAXXZ ENDP ; `dynamic atexit destructor for 'CPooledObject<NEffectUpdateDecorator::CAirResistanceDecorator>::ms_kPool''
text$yd	ENDS
; Function compile flags: /Ogtp
; File C:\Users\murat\Desktop\Siveps2-1-99-Project\source\client\Client\eterLib\Pool.h
;	COMDAT ??__E?ms_kPool@?$CPooledObject@VCAirResistanceDecorator@NEffectUpdateDecorator@@@@1V?$CDynamicPoolEx@VCAirResistanceDecorator@NEffectUpdateDecorator@@@@A@@YAXXZ
text$di	SEGMENT
??__E?ms_kPool@?$CPooledObject@VCAirResistanceDecorator@NEffectUpdateDecorator@@@@1V?$CDynamicPoolEx@VCAirResistanceDecorator@NEffectUpdateDecorator@@@@A@@YAXXZ PROC ; `dynamic initializer for 'CPooledObject<NEffectUpdateDecorator::CAirResistanceDecorator>::ms_kPool'', COMDAT

; 272  : template <class T> CDynamicPoolEx<T> CPooledObject<T>::ms_kPool;

  00000	68 00 00 00 00	 push	 OFFSET ??__F?ms_kPool@?$CPooledObject@VCAirResistanceDecorator@NEffectUpdateDecorator@@@@1V?$CDynamicPoolEx@VCAirResistanceDecorator@NEffectUpdateDecorator@@@@A@@YAXXZ ; `dynamic atexit destructor for 'CPooledObject<NEffectUpdateDecorator::CAirResistanceDecorator>::ms_kPool''
  00005	e8 00 00 00 00	 call	 _atexit
  0000a	59		 pop	 ecx
  0000b	c3		 ret	 0
??__E?ms_kPool@?$CPooledObject@VCAirResistanceDecorator@NEffectUpdateDecorator@@@@1V?$CDynamicPoolEx@VCAirResistanceDecorator@NEffectUpdateDecorator@@@@A@@YAXXZ ENDP ; `dynamic initializer for 'CPooledObject<NEffectUpdateDecorator::CAirResistanceDecorator>::ms_kPool''
text$di	ENDS
; Function compile flags: /Ogtp
;	COMDAT ??__F?ms_kPool@?$CPooledObject@VCTextureAnimationRandomDecorator@NEffectUpdateDecorator@@@@1V?$CDynamicPoolEx@VCTextureAnimationRandomDecorator@NEffectUpdateDecorator@@@@A@@YAXXZ
text$yd	SEGMENT
??__F?ms_kPool@?$CPooledObject@VCTextureAnimationRandomDecorator@NEffectUpdateDecorator@@@@1V?$CDynamicPoolEx@VCTextureAnimationRandomDecorator@NEffectUpdateDecorator@@@@A@@YAXXZ PROC ; `dynamic atexit destructor for 'CPooledObject<NEffectUpdateDecorator::CTextureAnimationRandomDecorator>::ms_kPool'', COMDAT
  00000	b9 00 00 00 00	 mov	 ecx, OFFSET ?ms_kPool@?$CPooledObject@VCTextureAnimationRandomDecorator@NEffectUpdateDecorator@@@@1V?$CDynamicPoolEx@VCTextureAnimationRandomDecorator@NEffectUpdateDecorator@@@@A ; CPooledObject<NEffectUpdateDecorator::CTextureAnimationRandomDecorator>::ms_kPool
  00005	e9 00 00 00 00	 jmp	 ??1?$CDynamicPoolEx@VCTextureAnimationRandomDecorator@NEffectUpdateDecorator@@@@UAE@XZ ; CDynamicPoolEx<NEffectUpdateDecorator::CTextureAnimationRandomDecorator>::~CDynamicPoolEx<NEffectUpdateDecorator::CTextureAnimationRandomDecorator>
??__F?ms_kPool@?$CPooledObject@VCTextureAnimationRandomDecorator@NEffectUpdateDecorator@@@@1V?$CDynamicPoolEx@VCTextureAnimationRandomDecorator@NEffectUpdateDecorator@@@@A@@YAXXZ ENDP ; `dynamic atexit destructor for 'CPooledObject<NEffectUpdateDecorator::CTextureAnimationRandomDecorator>::ms_kPool''
text$yd	ENDS
; Function compile flags: /Ogtp
; File C:\Users\murat\Desktop\Siveps2-1-99-Project\source\client\Client\eterLib\Pool.h
;	COMDAT ??__E?ms_kPool@?$CPooledObject@VCTextureAnimationRandomDecorator@NEffectUpdateDecorator@@@@1V?$CDynamicPoolEx@VCTextureAnimationRandomDecorator@NEffectUpdateDecorator@@@@A@@YAXXZ
text$di	SEGMENT
??__E?ms_kPool@?$CPooledObject@VCTextureAnimationRandomDecorator@NEffectUpdateDecorator@@@@1V?$CDynamicPoolEx@VCTextureAnimationRandomDecorator@NEffectUpdateDecorator@@@@A@@YAXXZ PROC ; `dynamic initializer for 'CPooledObject<NEffectUpdateDecorator::CTextureAnimationRandomDecorator>::ms_kPool'', COMDAT

; 272  : template <class T> CDynamicPoolEx<T> CPooledObject<T>::ms_kPool;

  00000	68 00 00 00 00	 push	 OFFSET ??__F?ms_kPool@?$CPooledObject@VCTextureAnimationRandomDecorator@NEffectUpdateDecorator@@@@1V?$CDynamicPoolEx@VCTextureAnimationRandomDecorator@NEffectUpdateDecorator@@@@A@@YAXXZ ; `dynamic atexit destructor for 'CPooledObject<NEffectUpdateDecorator::CTextureAnimationRandomDecorator>::ms_kPool''
  00005	e8 00 00 00 00	 call	 _atexit
  0000a	59		 pop	 ecx
  0000b	c3		 ret	 0
??__E?ms_kPool@?$CPooledObject@VCTextureAnimationRandomDecorator@NEffectUpdateDecorator@@@@1V?$CDynamicPoolEx@VCTextureAnimationRandomDecorator@NEffectUpdateDecorator@@@@A@@YAXXZ ENDP ; `dynamic initializer for 'CPooledObject<NEffectUpdateDecorator::CTextureAnimationRandomDecorator>::ms_kPool''
text$di	ENDS
; Function compile flags: /Ogtp
;	COMDAT ??__F?ms_kPool@?$CPooledObject@VCTextureAnimationCCWDecorator@NEffectUpdateDecorator@@@@1V?$CDynamicPoolEx@VCTextureAnimationCCWDecorator@NEffectUpdateDecorator@@@@A@@YAXXZ
text$yd	SEGMENT
??__F?ms_kPool@?$CPooledObject@VCTextureAnimationCCWDecorator@NEffectUpdateDecorator@@@@1V?$CDynamicPoolEx@VCTextureAnimationCCWDecorator@NEffectUpdateDecorator@@@@A@@YAXXZ PROC ; `dynamic atexit destructor for 'CPooledObject<NEffectUpdateDecorator::CTextureAnimationCCWDecorator>::ms_kPool'', COMDAT
  00000	b9 00 00 00 00	 mov	 ecx, OFFSET ?ms_kPool@?$CPooledObject@VCTextureAnimationCCWDecorator@NEffectUpdateDecorator@@@@1V?$CDynamicPoolEx@VCTextureAnimationCCWDecorator@NEffectUpdateDecorator@@@@A ; CPooledObject<NEffectUpdateDecorator::CTextureAnimationCCWDecorator>::ms_kPool
  00005	e9 00 00 00 00	 jmp	 ??1?$CDynamicPoolEx@VCTextureAnimationCCWDecorator@NEffectUpdateDecorator@@@@UAE@XZ ; CDynamicPoolEx<NEffectUpdateDecorator::CTextureAnimationCCWDecorator>::~CDynamicPoolEx<NEffectUpdateDecorator::CTextureAnimationCCWDecorator>
??__F?ms_kPool@?$CPooledObject@VCTextureAnimationCCWDecorator@NEffectUpdateDecorator@@@@1V?$CDynamicPoolEx@VCTextureAnimationCCWDecorator@NEffectUpdateDecorator@@@@A@@YAXXZ ENDP ; `dynamic atexit destructor for 'CPooledObject<NEffectUpdateDecorator::CTextureAnimationCCWDecorator>::ms_kPool''
text$yd	ENDS
; Function compile flags: /Ogtp
; File C:\Users\murat\Desktop\Siveps2-1-99-Project\source\client\Client\eterLib\Pool.h
;	COMDAT ??__E?ms_kPool@?$CPooledObject@VCTextureAnimationCCWDecorator@NEffectUpdateDecorator@@@@1V?$CDynamicPoolEx@VCTextureAnimationCCWDecorator@NEffectUpdateDecorator@@@@A@@YAXXZ
text$di	SEGMENT
??__E?ms_kPool@?$CPooledObject@VCTextureAnimationCCWDecorator@NEffectUpdateDecorator@@@@1V?$CDynamicPoolEx@VCTextureAnimationCCWDecorator@NEffectUpdateDecorator@@@@A@@YAXXZ PROC ; `dynamic initializer for 'CPooledObject<NEffectUpdateDecorator::CTextureAnimationCCWDecorator>::ms_kPool'', COMDAT

; 272  : template <class T> CDynamicPoolEx<T> CPooledObject<T>::ms_kPool;

  00000	68 00 00 00 00	 push	 OFFSET ??__F?ms_kPool@?$CPooledObject@VCTextureAnimationCCWDecorator@NEffectUpdateDecorator@@@@1V?$CDynamicPoolEx@VCTextureAnimationCCWDecorator@NEffectUpdateDecorator@@@@A@@YAXXZ ; `dynamic atexit destructor for 'CPooledObject<NEffectUpdateDecorator::CTextureAnimationCCWDecorator>::ms_kPool''
  00005	e8 00 00 00 00	 call	 _atexit
  0000a	59		 pop	 ecx
  0000b	c3		 ret	 0
??__E?ms_kPool@?$CPooledObject@VCTextureAnimationCCWDecorator@NEffectUpdateDecorator@@@@1V?$CDynamicPoolEx@VCTextureAnimationCCWDecorator@NEffectUpdateDecorator@@@@A@@YAXXZ ENDP ; `dynamic initializer for 'CPooledObject<NEffectUpdateDecorator::CTextureAnimationCCWDecorator>::ms_kPool''
text$di	ENDS
; Function compile flags: /Ogtp
;	COMDAT ??__F?ms_kPool@?$CPooledObject@VCTextureAnimationCWDecorator@NEffectUpdateDecorator@@@@1V?$CDynamicPoolEx@VCTextureAnimationCWDecorator@NEffectUpdateDecorator@@@@A@@YAXXZ
text$yd	SEGMENT
??__F?ms_kPool@?$CPooledObject@VCTextureAnimationCWDecorator@NEffectUpdateDecorator@@@@1V?$CDynamicPoolEx@VCTextureAnimationCWDecorator@NEffectUpdateDecorator@@@@A@@YAXXZ PROC ; `dynamic atexit destructor for 'CPooledObject<NEffectUpdateDecorator::CTextureAnimationCWDecorator>::ms_kPool'', COMDAT
  00000	b9 00 00 00 00	 mov	 ecx, OFFSET ?ms_kPool@?$CPooledObject@VCTextureAnimationCWDecorator@NEffectUpdateDecorator@@@@1V?$CDynamicPoolEx@VCTextureAnimationCWDecorator@NEffectUpdateDecorator@@@@A ; CPooledObject<NEffectUpdateDecorator::CTextureAnimationCWDecorator>::ms_kPool
  00005	e9 00 00 00 00	 jmp	 ??1?$CDynamicPoolEx@VCTextureAnimationCWDecorator@NEffectUpdateDecorator@@@@UAE@XZ ; CDynamicPoolEx<NEffectUpdateDecorator::CTextureAnimationCWDecorator>::~CDynamicPoolEx<NEffectUpdateDecorator::CTextureAnimationCWDecorator>
??__F?ms_kPool@?$CPooledObject@VCTextureAnimationCWDecorator@NEffectUpdateDecorator@@@@1V?$CDynamicPoolEx@VCTextureAnimationCWDecorator@NEffectUpdateDecorator@@@@A@@YAXXZ ENDP ; `dynamic atexit destructor for 'CPooledObject<NEffectUpdateDecorator::CTextureAnimationCWDecorator>::ms_kPool''
text$yd	ENDS
; Function compile flags: /Ogtp
; File C:\Users\murat\Desktop\Siveps2-1-99-Project\source\client\Client\eterLib\Pool.h
;	COMDAT ??__E?ms_kPool@?$CPooledObject@VCTextureAnimationCWDecorator@NEffectUpdateDecorator@@@@1V?$CDynamicPoolEx@VCTextureAnimationCWDecorator@NEffectUpdateDecorator@@@@A@@YAXXZ
text$di	SEGMENT
??__E?ms_kPool@?$CPooledObject@VCTextureAnimationCWDecorator@NEffectUpdateDecorator@@@@1V?$CDynamicPoolEx@VCTextureAnimationCWDecorator@NEffectUpdateDecorator@@@@A@@YAXXZ PROC ; `dynamic initializer for 'CPooledObject<NEffectUpdateDecorator::CTextureAnimationCWDecorator>::ms_kPool'', COMDAT

; 272  : template <class T> CDynamicPoolEx<T> CPooledObject<T>::ms_kPool;

  00000	68 00 00 00 00	 push	 OFFSET ??__F?ms_kPool@?$CPooledObject@VCTextureAnimationCWDecorator@NEffectUpdateDecorator@@@@1V?$CDynamicPoolEx@VCTextureAnimationCWDecorator@NEffectUpdateDecorator@@@@A@@YAXXZ ; `dynamic atexit destructor for 'CPooledObject<NEffectUpdateDecorator::CTextureAnimationCWDecorator>::ms_kPool''
  00005	e8 00 00 00 00	 call	 _atexit
  0000a	59		 pop	 ecx
  0000b	c3		 ret	 0
??__E?ms_kPool@?$CPooledObject@VCTextureAnimationCWDecorator@NEffectUpdateDecorator@@@@1V?$CDynamicPoolEx@VCTextureAnimationCWDecorator@NEffectUpdateDecorator@@@@A@@YAXXZ ENDP ; `dynamic initializer for 'CPooledObject<NEffectUpdateDecorator::CTextureAnimationCWDecorator>::ms_kPool''
text$di	ENDS
; Function compile flags: /Ogtp
;	COMDAT ??__F?ms_kPool@?$CPooledObject@VCNullDecorator@NEffectUpdateDecorator@@@@1V?$CDynamicPoolEx@VCNullDecorator@NEffectUpdateDecorator@@@@A@@YAXXZ
text$yd	SEGMENT
??__F?ms_kPool@?$CPooledObject@VCNullDecorator@NEffectUpdateDecorator@@@@1V?$CDynamicPoolEx@VCNullDecorator@NEffectUpdateDecorator@@@@A@@YAXXZ PROC ; `dynamic atexit destructor for 'CPooledObject<NEffectUpdateDecorator::CNullDecorator>::ms_kPool'', COMDAT
  00000	b9 00 00 00 00	 mov	 ecx, OFFSET ?ms_kPool@?$CPooledObject@VCNullDecorator@NEffectUpdateDecorator@@@@1V?$CDynamicPoolEx@VCNullDecorator@NEffectUpdateDecorator@@@@A ; CPooledObject<NEffectUpdateDecorator::CNullDecorator>::ms_kPool
  00005	e9 00 00 00 00	 jmp	 ??1?$CDynamicPoolEx@VCNullDecorator@NEffectUpdateDecorator@@@@UAE@XZ ; CDynamicPoolEx<NEffectUpdateDecorator::CNullDecorator>::~CDynamicPoolEx<NEffectUpdateDecorator::CNullDecorator>
??__F?ms_kPool@?$CPooledObject@VCNullDecorator@NEffectUpdateDecorator@@@@1V?$CDynamicPoolEx@VCNullDecorator@NEffectUpdateDecorator@@@@A@@YAXXZ ENDP ; `dynamic atexit destructor for 'CPooledObject<NEffectUpdateDecorator::CNullDecorator>::ms_kPool''
text$yd	ENDS
; Function compile flags: /Ogtp
; File C:\Users\murat\Desktop\Siveps2-1-99-Project\source\client\Client\eterLib\Pool.h
;	COMDAT ??__E?ms_kPool@?$CPooledObject@VCNullDecorator@NEffectUpdateDecorator@@@@1V?$CDynamicPoolEx@VCNullDecorator@NEffectUpdateDecorator@@@@A@@YAXXZ
text$di	SEGMENT
??__E?ms_kPool@?$CPooledObject@VCNullDecorator@NEffectUpdateDecorator@@@@1V?$CDynamicPoolEx@VCNullDecorator@NEffectUpdateDecorator@@@@A@@YAXXZ PROC ; `dynamic initializer for 'CPooledObject<NEffectUpdateDecorator::CNullDecorator>::ms_kPool'', COMDAT

; 272  : template <class T> CDynamicPoolEx<T> CPooledObject<T>::ms_kPool;

  00000	68 00 00 00 00	 push	 OFFSET ??__F?ms_kPool@?$CPooledObject@VCNullDecorator@NEffectUpdateDecorator@@@@1V?$CDynamicPoolEx@VCNullDecorator@NEffectUpdateDecorator@@@@A@@YAXXZ ; `dynamic atexit destructor for 'CPooledObject<NEffectUpdateDecorator::CNullDecorator>::ms_kPool''
  00005	e8 00 00 00 00	 call	 _atexit
  0000a	59		 pop	 ecx
  0000b	c3		 ret	 0
??__E?ms_kPool@?$CPooledObject@VCNullDecorator@NEffectUpdateDecorator@@@@1V?$CDynamicPoolEx@VCNullDecorator@NEffectUpdateDecorator@@@@A@@YAXXZ ENDP ; `dynamic initializer for 'CPooledObject<NEffectUpdateDecorator::CNullDecorator>::ms_kPool''
text$di	ENDS
; Function compile flags: /Ogtp
;	COMDAT ??__F?ms_kPool@?$CPooledObject@VCHeaderDecorator@NEffectUpdateDecorator@@@@1V?$CDynamicPoolEx@VCHeaderDecorator@NEffectUpdateDecorator@@@@A@@YAXXZ
text$yd	SEGMENT
??__F?ms_kPool@?$CPooledObject@VCHeaderDecorator@NEffectUpdateDecorator@@@@1V?$CDynamicPoolEx@VCHeaderDecorator@NEffectUpdateDecorator@@@@A@@YAXXZ PROC ; `dynamic atexit destructor for 'CPooledObject<NEffectUpdateDecorator::CHeaderDecorator>::ms_kPool'', COMDAT
  00000	b9 00 00 00 00	 mov	 ecx, OFFSET ?ms_kPool@?$CPooledObject@VCHeaderDecorator@NEffectUpdateDecorator@@@@1V?$CDynamicPoolEx@VCHeaderDecorator@NEffectUpdateDecorator@@@@A ; CPooledObject<NEffectUpdateDecorator::CHeaderDecorator>::ms_kPool
  00005	e9 00 00 00 00	 jmp	 ??1?$CDynamicPoolEx@VCHeaderDecorator@NEffectUpdateDecorator@@@@UAE@XZ ; CDynamicPoolEx<NEffectUpdateDecorator::CHeaderDecorator>::~CDynamicPoolEx<NEffectUpdateDecorator::CHeaderDecorator>
??__F?ms_kPool@?$CPooledObject@VCHeaderDecorator@NEffectUpdateDecorator@@@@1V?$CDynamicPoolEx@VCHeaderDecorator@NEffectUpdateDecorator@@@@A@@YAXXZ ENDP ; `dynamic atexit destructor for 'CPooledObject<NEffectUpdateDecorator::CHeaderDecorator>::ms_kPool''
text$yd	ENDS
; Function compile flags: /Ogtp
; File C:\Users\murat\Desktop\Siveps2-1-99-Project\source\client\Client\eterLib\Pool.h
;	COMDAT ??__E?ms_kPool@?$CPooledObject@VCHeaderDecorator@NEffectUpdateDecorator@@@@1V?$CDynamicPoolEx@VCHeaderDecorator@NEffectUpdateDecorator@@@@A@@YAXXZ
text$di	SEGMENT
??__E?ms_kPool@?$CPooledObject@VCHeaderDecorator@NEffectUpdateDecorator@@@@1V?$CDynamicPoolEx@VCHeaderDecorator@NEffectUpdateDecorator@@@@A@@YAXXZ PROC ; `dynamic initializer for 'CPooledObject<NEffectUpdateDecorator::CHeaderDecorator>::ms_kPool'', COMDAT

; 272  : template <class T> CDynamicPoolEx<T> CPooledObject<T>::ms_kPool;

  00000	68 00 00 00 00	 push	 OFFSET ??__F?ms_kPool@?$CPooledObject@VCHeaderDecorator@NEffectUpdateDecorator@@@@1V?$CDynamicPoolEx@VCHeaderDecorator@NEffectUpdateDecorator@@@@A@@YAXXZ ; `dynamic atexit destructor for 'CPooledObject<NEffectUpdateDecorator::CHeaderDecorator>::ms_kPool''
  00005	e8 00 00 00 00	 call	 _atexit
  0000a	59		 pop	 ecx
  0000b	c3		 ret	 0
??__E?ms_kPool@?$CPooledObject@VCHeaderDecorator@NEffectUpdateDecorator@@@@1V?$CDynamicPoolEx@VCHeaderDecorator@NEffectUpdateDecorator@@@@A@@YAXXZ ENDP ; `dynamic initializer for 'CPooledObject<NEffectUpdateDecorator::CHeaderDecorator>::ms_kPool''
text$di	ENDS
; Function compile flags: /Ogtp
; File C:\Program Files (x86)\Microsoft Visual Studio\2019\Professional\VC\Tools\MSVC\14.29.30133\include\vector
; File C:\Program Files (x86)\Microsoft Visual Studio\2019\Professional\VC\Tools\MSVC\14.29.30133\include\xmemory
; File C:\Program Files (x86)\Microsoft Visual Studio\2019\Professional\VC\Tools\MSVC\14.29.30133\include\vector
; File C:\Program Files (x86)\Microsoft Visual Studio\2019\Professional\VC\Tools\MSVC\14.29.30133\include\xmemory
; File C:\Program Files (x86)\Microsoft Visual Studio\2019\Professional\VC\Tools\MSVC\14.29.30133\include\vector
; File C:\Program Files (x86)\Microsoft Visual Studio\2019\Professional\VC\Tools\MSVC\14.29.30133\include\xmemory
; File C:\Program Files (x86)\Microsoft Visual Studio\2019\Professional\VC\Tools\MSVC\14.29.30133\include\vector
; File C:\Program Files (x86)\Microsoft Visual Studio\2019\Professional\VC\Tools\MSVC\14.29.30133\include\xmemory
; File C:\Program Files (x86)\Microsoft Visual Studio\2019\Professional\VC\Tools\MSVC\14.29.30133\include\vector
; File C:\Program Files (x86)\Microsoft Visual Studio\2019\Professional\VC\Tools\MSVC\14.29.30133\include\xmemory
; File C:\Program Files (x86)\Microsoft Visual Studio\2019\Professional\VC\Tools\MSVC\14.29.30133\include\vector
; File C:\Program Files (x86)\Microsoft Visual Studio\2019\Professional\VC\Tools\MSVC\14.29.30133\include\xmemory
; File C:\Program Files (x86)\Microsoft Visual Studio\2019\Professional\VC\Tools\MSVC\14.29.30133\include\vector
; File C:\Program Files (x86)\Microsoft Visual Studio\2019\Professional\VC\Tools\MSVC\14.29.30133\include\xmemory
; File C:\Program Files (x86)\Microsoft Visual Studio\2019\Professional\VC\Tools\MSVC\14.29.30133\include\vector
; File C:\Program Files (x86)\Microsoft Visual Studio\2019\Professional\VC\Tools\MSVC\14.29.30133\include\xmemory
; File C:\Program Files (x86)\Microsoft Visual Studio\2019\Professional\VC\Tools\MSVC\14.29.30133\include\vector
; File C:\Program Files (x86)\Microsoft Visual Studio\2019\Professional\VC\Tools\MSVC\14.29.30133\include\xmemory
; File C:\Program Files (x86)\Microsoft Visual Studio\2019\Professional\VC\Tools\MSVC\14.29.30133\include\vector
;	COMDAT ??$_Emplace_reallocate@ABQAVCParticleInstance@@@?$vector@PAVCParticleInstance@@V?$allocator@PAVCParticleInstance@@@std@@@std@@QAEPAPAVCParticleInstance@@QAPAV2@ABQAV2@@Z
_TEXT	SEGMENT
__Newsize$1$ = -8					; size = 4
tv641 = -4						; size = 4
__Whereoff$1$ = -4					; size = 4
__Whereptr$ = 8						; size = 4
_<_Val_0>$ = 12						; size = 4
??$_Emplace_reallocate@ABQAVCParticleInstance@@@?$vector@PAVCParticleInstance@@V?$allocator@PAVCParticleInstance@@@std@@@std@@QAEPAPAVCParticleInstance@@QAPAV2@ABQAV2@@Z PROC ; std::vector<CParticleInstance *,std::allocator<CParticleInstance *> >::_Emplace_reallocate<CParticleInstance * const &>, COMDAT
; _this$ = ecx

; 765  :     _CONSTEXPR20_CONTAINER pointer _Emplace_reallocate(const pointer _Whereptr, _Valty&&... _Val) {

  00000	55		 push	 ebp
  00001	8b ec		 mov	 ebp, esp
  00003	83 ec 08	 sub	 esp, 8

; 766  :         // reallocate and insert by perfectly forwarding _Val at _Whereptr
; 767  :         _Alty& _Al        = _Getal();
; 768  :         auto& _My_data    = _Mypair._Myval2;
; 769  :         pointer& _Myfirst = _My_data._Myfirst;
; 770  :         pointer& _Mylast  = _My_data._Mylast;
; 771  : 
; 772  :         _STL_INTERNAL_CHECK(_Mylast == _My_data._Myend); // check that we have no unused capacity
; 773  : 
; 774  :         const auto _Whereoff = static_cast<size_type>(_Whereptr - _Myfirst);

  00006	8b 45 08	 mov	 eax, DWORD PTR __Whereptr$[ebp]
  00009	53		 push	 ebx
  0000a	56		 push	 esi
  0000b	8b f1		 mov	 esi, ecx
  0000d	57		 push	 edi
  0000e	8b 0e		 mov	 ecx, DWORD PTR [esi]
  00010	2b c1		 sub	 eax, ecx
  00012	c1 f8 02	 sar	 eax, 2
  00015	89 45 fc	 mov	 DWORD PTR __Whereoff$1$[ebp], eax

; 775  :         const auto _Oldsize  = static_cast<size_type>(_Mylast - _Myfirst);

  00018	8b 46 04	 mov	 eax, DWORD PTR [esi+4]
  0001b	2b c1		 sub	 eax, ecx
  0001d	c1 f8 02	 sar	 eax, 2

; 776  : 
; 777  :         if (_Oldsize == max_size()) {

  00020	3d ff ff ff 3f	 cmp	 eax, 1073741823		; 3fffffffH
  00025	0f 84 06 01 00
	00		 je	 $LN96@Emplace_re

; 1559 :         return static_cast<size_type>(_My_data._Myend - _My_data._Myfirst);

  0002b	8b 56 08	 mov	 edx, DWORD PTR [esi+8]

; 779  :         }
; 780  : 
; 781  :         const size_type _Newsize     = _Oldsize + 1;

  0002e	8d 78 01	 lea	 edi, DWORD PTR [eax+1]

; 1559 :         return static_cast<size_type>(_My_data._Myend - _My_data._Myfirst);

  00031	2b d1		 sub	 edx, ecx

; 779  :         }
; 780  : 
; 781  :         const size_type _Newsize     = _Oldsize + 1;

  00033	89 7d f8	 mov	 DWORD PTR __Newsize$1$[ebp], edi

; 1559 :         return static_cast<size_type>(_My_data._Myend - _My_data._Myfirst);

  00036	c1 fa 02	 sar	 edx, 2

; 1688 :         if (_Oldcapacity > _Max - _Oldcapacity / 2) {

  00039	b8 ff ff ff 3f	 mov	 eax, 1073741823		; 3fffffffH
  0003e	8b ca		 mov	 ecx, edx
  00040	d1 e9		 shr	 ecx, 1
  00042	2b c1		 sub	 eax, ecx
  00044	3b d0		 cmp	 edx, eax
  00046	76 12		 jbe	 SHORT $LN12@Emplace_re

; 1689 :             return _Max; // geometric growth would overflow

  00048	bb fc ff ff ff	 mov	 ebx, -4			; fffffffcH
; File C:\Program Files (x86)\Microsoft Visual Studio\2019\Professional\VC\Tools\MSVC\14.29.30133\include\xmemory

; 238  :             return _Allocate_manually_vector_aligned<_Traits>(_Bytes);

  0004d	53		 push	 ebx
  0004e	e8 00 00 00 00	 call	 ??$_Allocate_manually_vector_aligned@U_Default_allocate_traits@std@@@std@@YAPAXI@Z ; std::_Allocate_manually_vector_aligned<std::_Default_allocate_traits>
  00053	83 c4 04	 add	 esp, 4
  00056	8b f8		 mov	 edi, eax
  00058	eb 41		 jmp	 SHORT $LN23@Emplace_re
$LN12@Emplace_re:
; File C:\Program Files (x86)\Microsoft Visual Studio\2019\Professional\VC\Tools\MSVC\14.29.30133\include\vector

; 1692 :         const size_type _Geometric = _Oldcapacity + _Oldcapacity / 2;

  0005a	8d 04 11	 lea	 eax, DWORD PTR [ecx+edx]
; File C:\Program Files (x86)\Microsoft Visual Studio\2019\Professional\VC\Tools\MSVC\14.29.30133\include\xmemory

; 64   :         if (_Count > _Max_possible) {

  0005d	8b df		 mov	 ebx, edi
  0005f	3b c7		 cmp	 eax, edi
  00061	0f 43 d8	 cmovae	 ebx, eax
  00064	81 fb ff ff ff
	3f		 cmp	 ebx, 1073741823		; 3fffffffH
  0006a	0f 87 c6 00 00
	00		 ja	 $LN97@Emplace_re

; 66   :         }
; 67   :     }
; 68   : 
; 69   :     return _Count * _Ty_size;

  00070	c1 e3 02	 shl	 ebx, 2

; 237  :         if (_Bytes >= _Big_allocation_threshold) { // boost the alignment of big allocations to help autovectorization

  00073	81 fb 00 10 00
	00		 cmp	 ebx, 4096		; 00001000H
  00079	72 0d		 jb	 SHORT $LN24@Emplace_re

; 238  :             return _Allocate_manually_vector_aligned<_Traits>(_Bytes);

  0007b	53		 push	 ebx
  0007c	e8 00 00 00 00	 call	 ??$_Allocate_manually_vector_aligned@U_Default_allocate_traits@std@@@std@@YAPAXI@Z ; std::_Allocate_manually_vector_aligned<std::_Default_allocate_traits>
  00081	83 c4 04	 add	 esp, 4
  00084	8b f8		 mov	 edi, eax
  00086	eb 13		 jmp	 SHORT $LN23@Emplace_re
$LN24@Emplace_re:

; 239  :         }
; 240  :     }
; 241  : #endif // defined(_M_IX86) || defined(_M_X64)
; 242  : 
; 243  :     if (_Bytes != 0) {

  00088	85 db		 test	 ebx, ebx
  0008a	74 0d		 je	 SHORT $LN25@Emplace_re

; 85   :         return ::operator new(_Bytes);

  0008c	53		 push	 ebx
  0008d	e8 00 00 00 00	 call	 ??2@YAPAXI@Z		; operator new
  00092	83 c4 04	 add	 esp, 4

; 244  :         return _Traits::_Allocate(_Bytes);

  00095	8b f8		 mov	 edi, eax
  00097	eb 02		 jmp	 SHORT $LN23@Emplace_re
$LN25@Emplace_re:

; 245  :     }
; 246  : 
; 247  :     return nullptr;

  00099	33 ff		 xor	 edi, edi
$LN23@Emplace_re:
; File C:\Program Files (x86)\Microsoft Visual Studio\2019\Professional\VC\Tools\MSVC\14.29.30133\include\vector

; 789  :         _Alty_traits::construct(_Al, _Unfancy(_Newvec + _Whereoff), _STD forward<_Valty>(_Val)...);

  0009b	8b 45 fc	 mov	 eax, DWORD PTR __Whereoff$1$[ebp]
  0009e	8d 0c 87	 lea	 ecx, DWORD PTR [edi+eax*4]
  000a1	8b 45 0c	 mov	 eax, DWORD PTR _<_Val_0>$[ebp]
  000a4	89 4d fc	 mov	 DWORD PTR tv641[ebp], ecx
  000a7	8b 00		 mov	 eax, DWORD PTR [eax]
  000a9	89 01		 mov	 DWORD PTR [ecx], eax

; 790  :         _Constructed_first = _Newvec + _Whereoff;
; 791  : 
; 792  :         if (_Whereptr == _Mylast) { // at back, provide strong guarantee

  000ab	8b 4e 04	 mov	 ecx, DWORD PTR [esi+4]
  000ae	8b 45 08	 mov	 eax, DWORD PTR __Whereptr$[ebp]
  000b1	8b 16		 mov	 edx, DWORD PTR [esi]
  000b3	3b c1		 cmp	 eax, ecx
  000b5	75 04		 jne	 SHORT $LN4@Emplace_re
; File C:\Program Files (x86)\Microsoft Visual Studio\2019\Professional\VC\Tools\MSVC\14.29.30133\include\xmemory

; 1725 :             _Copy_memmove(_UFirst, _ULast, _Unfancy(_Dest));

  000b7	8b c7		 mov	 eax, edi
; File C:\Program Files (x86)\Microsoft Visual Studio\2019\Professional\VC\Tools\MSVC\14.29.30133\include\vector

; 794  :         } else { // provide basic guarantee

  000b9	eb 17		 jmp	 SHORT $LN60@Emplace_re
$LN4@Emplace_re:
; File C:\Program Files (x86)\Microsoft Visual Studio\2019\Professional\VC\Tools\MSVC\14.29.30133\include\xmemory

; 1725 :             _Copy_memmove(_UFirst, _ULast, _Unfancy(_Dest));

  000bb	57		 push	 edi
  000bc	50		 push	 eax
  000bd	52		 push	 edx
  000be	e8 00 00 00 00	 call	 ??$_Copy_memmove@PAPAVCParticleInstance@@PAPAV1@@std@@YAPAPAVCParticleInstance@@PAPAV1@00@Z ; std::_Copy_memmove<CParticleInstance * *,CParticleInstance * *>
; File C:\Program Files (x86)\Microsoft Visual Studio\2019\Professional\VC\Tools\MSVC\14.29.30133\include\vector

; 797  :             _Umove(_Whereptr, _Mylast, _Newvec + _Whereoff + 1);

  000c3	8b 45 fc	 mov	 eax, DWORD PTR tv641[ebp]
; File C:\Program Files (x86)\Microsoft Visual Studio\2019\Professional\VC\Tools\MSVC\14.29.30133\include\xmemory

; 1725 :             _Copy_memmove(_UFirst, _ULast, _Unfancy(_Dest));

  000c6	83 c4 0c	 add	 esp, 12			; 0000000cH
  000c9	8b 55 08	 mov	 edx, DWORD PTR __Whereptr$[ebp]
; File C:\Program Files (x86)\Microsoft Visual Studio\2019\Professional\VC\Tools\MSVC\14.29.30133\include\vector

; 797  :             _Umove(_Whereptr, _Mylast, _Newvec + _Whereoff + 1);

  000cc	83 c0 04	 add	 eax, 4
; File C:\Program Files (x86)\Microsoft Visual Studio\2019\Professional\VC\Tools\MSVC\14.29.30133\include\xmemory

; 1725 :             _Copy_memmove(_UFirst, _ULast, _Unfancy(_Dest));

  000cf	8b 4e 04	 mov	 ecx, DWORD PTR [esi+4]
$LN60@Emplace_re:
; File C:\Program Files (x86)\Microsoft Visual Studio\2019\Professional\VC\Tools\MSVC\14.29.30133\include\vector

; 797  :             _Umove(_Whereptr, _Mylast, _Newvec + _Whereoff + 1);

  000d2	50		 push	 eax
  000d3	51		 push	 ecx
  000d4	52		 push	 edx
  000d5	e8 00 00 00 00	 call	 ??$_Copy_memmove@PAPAVCParticleInstance@@PAPAV1@@std@@YAPAPAVCParticleInstance@@PAPAV1@00@Z ; std::_Copy_memmove<CParticleInstance * *,CParticleInstance * *>

; 1745 :         if (_Myfirst) { // destroy and deallocate old array

  000da	8b 06		 mov	 eax, DWORD PTR [esi]

; 797  :             _Umove(_Whereptr, _Mylast, _Newvec + _Whereoff + 1);

  000dc	83 c4 0c	 add	 esp, 12			; 0000000cH

; 1745 :         if (_Myfirst) { // destroy and deallocate old array

  000df	85 c0		 test	 eax, eax
  000e1	74 2c		 je	 SHORT $LN78@Emplace_re

; 1746 :             _Destroy(_Myfirst, _Mylast);
; 1747 :             _Getal().deallocate(_Myfirst, static_cast<size_type>(_Myend - _Myfirst));

  000e3	8b 4e 08	 mov	 ecx, DWORD PTR [esi+8]
  000e6	2b c8		 sub	 ecx, eax
; File C:\Program Files (x86)\Microsoft Visual Studio\2019\Professional\VC\Tools\MSVC\14.29.30133\include\xmemory

; 835  :         _Deallocate<_New_alignof<_Ty>>(_Ptr, sizeof(_Ty) * _Count);

  000e8	83 e1 fc	 and	 ecx, -4			; fffffffcH

; 260  :         if (_Bytes >= _Big_allocation_threshold) { // boost the alignment of big allocations to help autovectorization

  000eb	81 f9 00 10 00
	00		 cmp	 ecx, 4096		; 00001000H
  000f1	72 12		 jb	 SHORT $LN88@Emplace_re

; 158  :     const uintptr_t _Ptr_container   = _Ptr_user[-1];

  000f3	8b 50 fc	 mov	 edx, DWORD PTR [eax-4]
  000f6	83 c1 23	 add	 ecx, 35			; 00000023H

; 159  : 
; 160  :     // If the following asserts, it likely means that we are performing
; 161  :     // an aligned delete on memory coming from an unaligned allocation.
; 162  :     _STL_ASSERT(_Ptr_user[-2] == _Big_allocation_sentinel, "invalid argument");
; 163  : 
; 164  :     // Extra paranoia on aligned allocation/deallocation; ensure _Ptr_container is
; 165  :     // in range [_Min_back_shift, _Non_user_size]
; 166  : #ifdef _DEBUG
; 167  :     constexpr uintptr_t _Min_back_shift = 2 * sizeof(void*);
; 168  : #else // ^^^ _DEBUG ^^^ // vvv !_DEBUG vvv
; 169  :     constexpr uintptr_t _Min_back_shift = sizeof(void*);
; 170  : #endif // _DEBUG
; 171  :     const uintptr_t _Back_shift = reinterpret_cast<uintptr_t>(_Ptr) - _Ptr_container;

  000f9	2b c2		 sub	 eax, edx

; 172  :     _STL_VERIFY(_Back_shift >= _Min_back_shift && _Back_shift <= _Non_user_size, "invalid argument");

  000fb	83 c0 fc	 add	 eax, -4			; fffffffcH
  000fe	83 f8 1f	 cmp	 eax, 31			; 0000001fH
  00101	77 29		 ja	 SHORT $LN85@Emplace_re

; 173  :     _Ptr = reinterpret_cast<void*>(_Ptr_container);

  00103	8b c2		 mov	 eax, edx
$LN88@Emplace_re:

; 264  :         ::operator delete(_Ptr, _Bytes);

  00105	51		 push	 ecx
  00106	50		 push	 eax
  00107	e8 00 00 00 00	 call	 ??3@YAXPAXI@Z		; operator delete
  0010c	83 c4 08	 add	 esp, 8
$LN78@Emplace_re:
; File C:\Program Files (x86)\Microsoft Visual Studio\2019\Professional\VC\Tools\MSVC\14.29.30133\include\vector

; 1751 :         _Mylast  = _Newvec + _Newsize;

  0010f	8b 45 f8	 mov	 eax, DWORD PTR __Newsize$1$[ebp]
  00112	89 3e		 mov	 DWORD PTR [esi], edi
  00114	8d 0c 87	 lea	 ecx, DWORD PTR [edi+eax*4]

; 798  :         }
; 799  :         _CATCH_ALL
; 800  :         _Destroy(_Constructed_first, _Constructed_last);
; 801  :         _Al.deallocate(_Newvec, _Newcapacity);
; 802  :         _RERAISE;
; 803  :         _CATCH_END
; 804  : 
; 805  :         _Change_array(_Newvec, _Newsize, _Newcapacity);
; 806  :         return _Newvec + _Whereoff;

  00117	8b 45 fc	 mov	 eax, DWORD PTR tv641[ebp]

; 1751 :         _Mylast  = _Newvec + _Newsize;

  0011a	89 4e 04	 mov	 DWORD PTR [esi+4], ecx

; 1752 :         _Myend   = _Newvec + _Newcapacity;

  0011d	8d 0c 3b	 lea	 ecx, DWORD PTR [ebx+edi]

; 798  :         }
; 799  :         _CATCH_ALL
; 800  :         _Destroy(_Constructed_first, _Constructed_last);
; 801  :         _Al.deallocate(_Newvec, _Newcapacity);
; 802  :         _RERAISE;
; 803  :         _CATCH_END
; 804  : 
; 805  :         _Change_array(_Newvec, _Newsize, _Newcapacity);
; 806  :         return _Newvec + _Whereoff;

  00120	5f		 pop	 edi

; 1752 :         _Myend   = _Newvec + _Newcapacity;

  00121	89 4e 08	 mov	 DWORD PTR [esi+8], ecx

; 798  :         }
; 799  :         _CATCH_ALL
; 800  :         _Destroy(_Constructed_first, _Constructed_last);
; 801  :         _Al.deallocate(_Newvec, _Newcapacity);
; 802  :         _RERAISE;
; 803  :         _CATCH_END
; 804  : 
; 805  :         _Change_array(_Newvec, _Newsize, _Newcapacity);
; 806  :         return _Newvec + _Whereoff;

  00124	5e		 pop	 esi
  00125	5b		 pop	 ebx

; 807  :     }

  00126	8b e5		 mov	 esp, ebp
  00128	5d		 pop	 ebp
  00129	c2 08 00	 ret	 8
$LN85@Emplace_re:
; File C:\Program Files (x86)\Microsoft Visual Studio\2019\Professional\VC\Tools\MSVC\14.29.30133\include\xmemory

; 172  :     _STL_VERIFY(_Back_shift >= _Min_back_shift && _Back_shift <= _Non_user_size, "invalid argument");

  0012c	e8 00 00 00 00	 call	 __invalid_parameter_noinfo_noreturn
$LN96@Emplace_re:
; File C:\Program Files (x86)\Microsoft Visual Studio\2019\Professional\VC\Tools\MSVC\14.29.30133\include\vector

; 778  :             _Xlength();

  00131	e8 00 00 00 00	 call	 ?_Xlength@?$vector@PAVCParticleInstance@@V?$allocator@PAVCParticleInstance@@@std@@@std@@CAXXZ ; std::vector<CParticleInstance *,std::allocator<CParticleInstance *> >::_Xlength
$LN97@Emplace_re:
; File C:\Program Files (x86)\Microsoft Visual Studio\2019\Professional\VC\Tools\MSVC\14.29.30133\include\xmemory

; 65   :             _Throw_bad_array_new_length(); // multiply overflow

  00136	e8 00 00 00 00	 call	 ?_Throw_bad_array_new_length@std@@YAXXZ ; std::_Throw_bad_array_new_length
$LN94@Emplace_re:
  0013b	cc		 int	 3
??$_Emplace_reallocate@ABQAVCParticleInstance@@@?$vector@PAVCParticleInstance@@V?$allocator@PAVCParticleInstance@@@std@@@std@@QAEPAPAVCParticleInstance@@QAPAV2@ABQAV2@@Z ENDP ; std::vector<CParticleInstance *,std::allocator<CParticleInstance *> >::_Emplace_reallocate<CParticleInstance * const &>
_TEXT	ENDS
; Function compile flags: /Ogtp
;	COMDAT ??_G?$CDynamicPoolEx@VCHeaderDecorator@NEffectUpdateDecorator@@@@UAEPAXI@Z
_TEXT	SEGMENT
___flags$ = 8						; size = 4
??_G?$CDynamicPoolEx@VCHeaderDecorator@NEffectUpdateDecorator@@@@UAEPAXI@Z PROC ; CDynamicPoolEx<NEffectUpdateDecorator::CHeaderDecorator>::`scalar deleting destructor', COMDAT
; _this$ = ecx
  00000	55		 push	 ebp
  00001	8b ec		 mov	 ebp, esp
  00003	56		 push	 esi
  00004	8b f1		 mov	 esi, ecx
  00006	e8 00 00 00 00	 call	 ??1?$CDynamicPoolEx@VCHeaderDecorator@NEffectUpdateDecorator@@@@UAE@XZ ; CDynamicPoolEx<NEffectUpdateDecorator::CHeaderDecorator>::~CDynamicPoolEx<NEffectUpdateDecorator::CHeaderDecorator>
  0000b	f6 45 08 01	 test	 BYTE PTR ___flags$[ebp], 1
  0000f	74 0b		 je	 SHORT $LN4@scalar
  00011	6a 24		 push	 36			; 00000024H
  00013	56		 push	 esi
  00014	e8 00 00 00 00	 call	 ??3@YAXPAXI@Z		; operator delete
  00019	83 c4 08	 add	 esp, 8
$LN4@scalar:
  0001c	8b c6		 mov	 eax, esi
  0001e	5e		 pop	 esi
  0001f	5d		 pop	 ebp
  00020	c2 04 00	 ret	 4
??_G?$CDynamicPoolEx@VCHeaderDecorator@NEffectUpdateDecorator@@@@UAEPAXI@Z ENDP ; CDynamicPoolEx<NEffectUpdateDecorator::CHeaderDecorator>::`scalar deleting destructor'
_TEXT	ENDS
; Function compile flags: /Ogtp
; File C:\Users\murat\Desktop\Siveps2-1-99-Project\source\client\Client\eterLib\Pool.h
;	COMDAT ?Delete@?$CDynamicPoolEx@VCHeaderDecorator@NEffectUpdateDecorator@@@@KAXPAVCHeaderDecorator@NEffectUpdateDecorator@@@Z
_TEXT	SEGMENT
_pkData$ = 8						; size = 4
?Delete@?$CDynamicPoolEx@VCHeaderDecorator@NEffectUpdateDecorator@@@@KAXPAVCHeaderDecorator@NEffectUpdateDecorator@@@Z PROC ; CDynamicPoolEx<NEffectUpdateDecorator::CHeaderDecorator>::Delete, COMDAT

; 224  : 			::operator delete(pkData);

  00000	e9 00 00 00 00	 jmp	 ??3@YAXPAX@Z		; operator delete
?Delete@?$CDynamicPoolEx@VCHeaderDecorator@NEffectUpdateDecorator@@@@KAXPAVCHeaderDecorator@NEffectUpdateDecorator@@@Z ENDP ; CDynamicPoolEx<NEffectUpdateDecorator::CHeaderDecorator>::Delete
_TEXT	ENDS
; Function compile flags: /Ogtp
; File C:\Users\murat\Desktop\Siveps2-1-99-Project\source\client\Client\eterLib\Pool.h
; File C:\Program Files (x86)\Microsoft Visual Studio\2019\Professional\VC\Tools\MSVC\14.29.30133\include\vector
; File C:\Program Files (x86)\Microsoft Visual Studio\2019\Professional\VC\Tools\MSVC\14.29.30133\include\algorithm
; File C:\Users\murat\Desktop\Siveps2-1-99-Project\source\client\Client\eterLib\Pool.h
; File C:\Program Files (x86)\Microsoft Visual Studio\2019\Professional\VC\Tools\MSVC\14.29.30133\include\algorithm
; File C:\Users\murat\Desktop\Siveps2-1-99-Project\source\client\Client\eterLib\Pool.h
; File C:\Program Files (x86)\Microsoft Visual Studio\2019\Professional\VC\Tools\MSVC\14.29.30133\include\algorithm
; File C:\Users\murat\Desktop\Siveps2-1-99-Project\source\client\Client\eterLib\Pool.h
; File C:\Program Files (x86)\Microsoft Visual Studio\2019\Professional\VC\Tools\MSVC\14.29.30133\include\vector
; File C:\Program Files (x86)\Microsoft Visual Studio\2019\Professional\VC\Tools\MSVC\14.29.30133\include\xmemory
; File C:\Program Files (x86)\Microsoft Visual Studio\2019\Professional\VC\Tools\MSVC\14.29.30133\include\vector
; File C:\Program Files (x86)\Microsoft Visual Studio\2019\Professional\VC\Tools\MSVC\14.29.30133\include\xmemory
; File C:\Program Files (x86)\Microsoft Visual Studio\2019\Professional\VC\Tools\MSVC\14.29.30133\include\vector
; File C:\Program Files (x86)\Microsoft Visual Studio\2019\Professional\VC\Tools\MSVC\14.29.30133\include\xmemory
; File C:\Program Files (x86)\Microsoft Visual Studio\2019\Professional\VC\Tools\MSVC\14.29.30133\include\vector
; File C:\Program Files (x86)\Microsoft Visual Studio\2019\Professional\VC\Tools\MSVC\14.29.30133\include\xmemory
; File C:\Program Files (x86)\Microsoft Visual Studio\2019\Professional\VC\Tools\MSVC\14.29.30133\include\vector
; File C:\Users\murat\Desktop\Siveps2-1-99-Project\source\client\Client\eterLib\Pool.h
; File C:\Program Files (x86)\Microsoft Visual Studio\2019\Professional\VC\Tools\MSVC\14.29.30133\include\xmemory
; File C:\Users\murat\Desktop\Siveps2-1-99-Project\source\client\Client\eterLib\Pool.h
;	COMDAT ??1?$CDynamicPoolEx@VCHeaderDecorator@NEffectUpdateDecorator@@@@UAE@XZ
_TEXT	SEGMENT
??1?$CDynamicPoolEx@VCHeaderDecorator@NEffectUpdateDecorator@@@@UAE@XZ PROC ; CDynamicPoolEx<NEffectUpdateDecorator::CHeaderDecorator>::~CDynamicPoolEx<NEffectUpdateDecorator::CHeaderDecorator>, COMDAT
; _this$ = ecx

; 132  : 		{

  00000	53		 push	 ebx
  00001	56		 push	 esi
  00002	57		 push	 edi
  00003	8b f9		 mov	 edi, ecx
  00005	c7 07 00 00 00
	00		 mov	 DWORD PTR [edi], OFFSET ??_7?$CDynamicPoolEx@VCHeaderDecorator@NEffectUpdateDecorator@@@@6B@
; File C:\Program Files (x86)\Microsoft Visual Studio\2019\Professional\VC\Tools\MSVC\14.29.30133\include\vector

; 42   :     _CONSTEXPR20_CONTAINER _Vector_const_iterator(_Tptr _Parg, const _Container_base* _Pvector) noexcept : _Ptr(_Parg) {

  0000b	8b 5f 08	 mov	 ebx, DWORD PTR [edi+8]
  0000e	8b 77 04	 mov	 esi, DWORD PTR [edi+4]
; File C:\Program Files (x86)\Microsoft Visual Studio\2019\Professional\VC\Tools\MSVC\14.29.30133\include\algorithm

; 270  :     for (; _UFirst != _ULast; ++_UFirst) {

  00011	3b f3		 cmp	 esi, ebx
  00013	74 14		 je	 SHORT $LN19@CDynamicPo
$LL20@CDynamicPo:
; File C:\Users\murat\Desktop\Siveps2-1-99-Project\source\client\Client\eterLib\Pool.h

; 224  : 			::operator delete(pkData);

  00015	ff 36		 push	 DWORD PTR [esi]
  00017	e8 00 00 00 00	 call	 ??3@YAXPAX@Z		; operator delete
; File C:\Program Files (x86)\Microsoft Visual Studio\2019\Professional\VC\Tools\MSVC\14.29.30133\include\algorithm

; 270  :     for (; _UFirst != _ULast; ++_UFirst) {

  0001c	83 c6 04	 add	 esi, 4
; File C:\Users\murat\Desktop\Siveps2-1-99-Project\source\client\Client\eterLib\Pool.h

; 224  : 			::operator delete(pkData);

  0001f	83 c4 04	 add	 esp, 4
; File C:\Program Files (x86)\Microsoft Visual Studio\2019\Professional\VC\Tools\MSVC\14.29.30133\include\algorithm

; 270  :     for (; _UFirst != _ULast; ++_UFirst) {

  00022	3b f3		 cmp	 esi, ebx
  00024	75 ef		 jne	 SHORT $LL20@CDynamicPo
  00026	8b 77 04	 mov	 esi, DWORD PTR [edi+4]
$LN19@CDynamicPo:
; File C:\Users\murat\Desktop\Siveps2-1-99-Project\source\client\Client\eterLib\Pool.h

; 162  : 			m_kVct_pkFree.clear();

  00029	8b 47 10	 mov	 eax, DWORD PTR [edi+16]
  0002c	89 77 08	 mov	 DWORD PTR [edi+8], esi
  0002f	89 47 14	 mov	 DWORD PTR [edi+20], eax
; File C:\Program Files (x86)\Microsoft Visual Studio\2019\Professional\VC\Tools\MSVC\14.29.30133\include\vector

; 1763 :         if (_Myfirst) { // destroy and deallocate old array

  00032	85 c0		 test	 eax, eax
  00034	74 41		 je	 SHORT $LN27@CDynamicPo

; 1764 :             _Destroy(_Myfirst, _Mylast);
; 1765 :             _Getal().deallocate(_Myfirst, static_cast<size_type>(_Myend - _Myfirst));

  00036	8b 4f 18	 mov	 ecx, DWORD PTR [edi+24]
  00039	2b c8		 sub	 ecx, eax
; File C:\Program Files (x86)\Microsoft Visual Studio\2019\Professional\VC\Tools\MSVC\14.29.30133\include\xmemory

; 835  :         _Deallocate<_New_alignof<_Ty>>(_Ptr, sizeof(_Ty) * _Count);

  0003b	83 e1 fc	 and	 ecx, -4			; fffffffcH

; 260  :         if (_Bytes >= _Big_allocation_threshold) { // boost the alignment of big allocations to help autovectorization

  0003e	81 f9 00 10 00
	00		 cmp	 ecx, 4096		; 00001000H
  00044	72 12		 jb	 SHORT $LN43@CDynamicPo

; 158  :     const uintptr_t _Ptr_container   = _Ptr_user[-1];

  00046	8b 50 fc	 mov	 edx, DWORD PTR [eax-4]
  00049	83 c1 23	 add	 ecx, 35			; 00000023H

; 159  : 
; 160  :     // If the following asserts, it likely means that we are performing
; 161  :     // an aligned delete on memory coming from an unaligned allocation.
; 162  :     _STL_ASSERT(_Ptr_user[-2] == _Big_allocation_sentinel, "invalid argument");
; 163  : 
; 164  :     // Extra paranoia on aligned allocation/deallocation; ensure _Ptr_container is
; 165  :     // in range [_Min_back_shift, _Non_user_size]
; 166  : #ifdef _DEBUG
; 167  :     constexpr uintptr_t _Min_back_shift = 2 * sizeof(void*);
; 168  : #else // ^^^ _DEBUG ^^^ // vvv !_DEBUG vvv
; 169  :     constexpr uintptr_t _Min_back_shift = sizeof(void*);
; 170  : #endif // _DEBUG
; 171  :     const uintptr_t _Back_shift = reinterpret_cast<uintptr_t>(_Ptr) - _Ptr_container;

  0004c	2b c2		 sub	 eax, edx

; 172  :     _STL_VERIFY(_Back_shift >= _Min_back_shift && _Back_shift <= _Non_user_size, "invalid argument");

  0004e	83 c0 fc	 add	 eax, -4			; fffffffcH
  00051	83 f8 1f	 cmp	 eax, 31			; 0000001fH
  00054	77 6d		 ja	 SHORT $LN65@CDynamicPo

; 173  :     _Ptr = reinterpret_cast<void*>(_Ptr_container);

  00056	8b c2		 mov	 eax, edx
$LN43@CDynamicPo:

; 264  :         ::operator delete(_Ptr, _Bytes);

  00058	51		 push	 ecx
  00059	50		 push	 eax
  0005a	e8 00 00 00 00	 call	 ??3@YAXPAXI@Z		; operator delete
; File C:\Program Files (x86)\Microsoft Visual Studio\2019\Professional\VC\Tools\MSVC\14.29.30133\include\vector

; 1767 :             _Myfirst = nullptr;

  0005f	c7 47 10 00 00
	00 00		 mov	 DWORD PTR [edi+16], 0
; File C:\Program Files (x86)\Microsoft Visual Studio\2019\Professional\VC\Tools\MSVC\14.29.30133\include\xmemory

; 264  :         ::operator delete(_Ptr, _Bytes);

  00066	83 c4 08	 add	 esp, 8
; File C:\Program Files (x86)\Microsoft Visual Studio\2019\Professional\VC\Tools\MSVC\14.29.30133\include\vector

; 1768 :             _Mylast  = nullptr;

  00069	c7 47 14 00 00
	00 00		 mov	 DWORD PTR [edi+20], 0

; 1769 :             _Myend   = nullptr;

  00070	c7 47 18 00 00
	00 00		 mov	 DWORD PTR [edi+24], 0
$LN27@CDynamicPo:

; 1763 :         if (_Myfirst) { // destroy and deallocate old array

  00077	8b 47 04	 mov	 eax, DWORD PTR [edi+4]
  0007a	85 c0		 test	 eax, eax
  0007c	74 41		 je	 SHORT $LN52@CDynamicPo

; 1764 :             _Destroy(_Myfirst, _Mylast);
; 1765 :             _Getal().deallocate(_Myfirst, static_cast<size_type>(_Myend - _Myfirst));

  0007e	8b 4f 0c	 mov	 ecx, DWORD PTR [edi+12]
  00081	2b c8		 sub	 ecx, eax
; File C:\Program Files (x86)\Microsoft Visual Studio\2019\Professional\VC\Tools\MSVC\14.29.30133\include\xmemory

; 835  :         _Deallocate<_New_alignof<_Ty>>(_Ptr, sizeof(_Ty) * _Count);

  00083	83 e1 fc	 and	 ecx, -4			; fffffffcH

; 260  :         if (_Bytes >= _Big_allocation_threshold) { // boost the alignment of big allocations to help autovectorization

  00086	81 f9 00 10 00
	00		 cmp	 ecx, 4096		; 00001000H
  0008c	72 12		 jb	 SHORT $LN68@CDynamicPo

; 158  :     const uintptr_t _Ptr_container   = _Ptr_user[-1];

  0008e	8b 50 fc	 mov	 edx, DWORD PTR [eax-4]
  00091	83 c1 23	 add	 ecx, 35			; 00000023H

; 159  : 
; 160  :     // If the following asserts, it likely means that we are performing
; 161  :     // an aligned delete on memory coming from an unaligned allocation.
; 162  :     _STL_ASSERT(_Ptr_user[-2] == _Big_allocation_sentinel, "invalid argument");
; 163  : 
; 164  :     // Extra paranoia on aligned allocation/deallocation; ensure _Ptr_container is
; 165  :     // in range [_Min_back_shift, _Non_user_size]
; 166  : #ifdef _DEBUG
; 167  :     constexpr uintptr_t _Min_back_shift = 2 * sizeof(void*);
; 168  : #else // ^^^ _DEBUG ^^^ // vvv !_DEBUG vvv
; 169  :     constexpr uintptr_t _Min_back_shift = sizeof(void*);
; 170  : #endif // _DEBUG
; 171  :     const uintptr_t _Back_shift = reinterpret_cast<uintptr_t>(_Ptr) - _Ptr_container;

  00094	2b c2		 sub	 eax, edx

; 172  :     _STL_VERIFY(_Back_shift >= _Min_back_shift && _Back_shift <= _Non_user_size, "invalid argument");

  00096	83 c0 fc	 add	 eax, -4			; fffffffcH
  00099	83 f8 1f	 cmp	 eax, 31			; 0000001fH
  0009c	77 25		 ja	 SHORT $LN65@CDynamicPo

; 173  :     _Ptr = reinterpret_cast<void*>(_Ptr_container);

  0009e	8b c2		 mov	 eax, edx
$LN68@CDynamicPo:

; 264  :         ::operator delete(_Ptr, _Bytes);

  000a0	51		 push	 ecx
  000a1	50		 push	 eax
  000a2	e8 00 00 00 00	 call	 ??3@YAXPAXI@Z		; operator delete
; File C:\Program Files (x86)\Microsoft Visual Studio\2019\Professional\VC\Tools\MSVC\14.29.30133\include\vector

; 1767 :             _Myfirst = nullptr;

  000a7	c7 47 04 00 00
	00 00		 mov	 DWORD PTR [edi+4], 0
; File C:\Program Files (x86)\Microsoft Visual Studio\2019\Professional\VC\Tools\MSVC\14.29.30133\include\xmemory

; 264  :         ::operator delete(_Ptr, _Bytes);

  000ae	83 c4 08	 add	 esp, 8
; File C:\Program Files (x86)\Microsoft Visual Studio\2019\Professional\VC\Tools\MSVC\14.29.30133\include\vector

; 1768 :             _Mylast  = nullptr;

  000b1	c7 47 08 00 00
	00 00		 mov	 DWORD PTR [edi+8], 0

; 1769 :             _Myend   = nullptr;

  000b8	c7 47 0c 00 00
	00 00		 mov	 DWORD PTR [edi+12], 0
$LN52@CDynamicPo:
  000bf	5f		 pop	 edi
; File C:\Users\murat\Desktop\Siveps2-1-99-Project\source\client\Client\eterLib\Pool.h

; 142  : 		}

  000c0	5e		 pop	 esi
  000c1	5b		 pop	 ebx
  000c2	c3		 ret	 0
$LN65@CDynamicPo:
; File C:\Program Files (x86)\Microsoft Visual Studio\2019\Professional\VC\Tools\MSVC\14.29.30133\include\xmemory

; 172  :     _STL_VERIFY(_Back_shift >= _Min_back_shift && _Back_shift <= _Non_user_size, "invalid argument");

  000c3	e8 00 00 00 00	 call	 __invalid_parameter_noinfo_noreturn
$LN77@CDynamicPo:
  000c8	cc		 int	 3
??1?$CDynamicPoolEx@VCHeaderDecorator@NEffectUpdateDecorator@@@@UAE@XZ ENDP ; CDynamicPoolEx<NEffectUpdateDecorator::CHeaderDecorator>::~CDynamicPoolEx<NEffectUpdateDecorator::CHeaderDecorator>
_TEXT	ENDS
; Function compile flags: /Ogtp
;	COMDAT ??_G?$CDynamicPoolEx@VCNullDecorator@NEffectUpdateDecorator@@@@UAEPAXI@Z
_TEXT	SEGMENT
___flags$ = 8						; size = 4
??_G?$CDynamicPoolEx@VCNullDecorator@NEffectUpdateDecorator@@@@UAEPAXI@Z PROC ; CDynamicPoolEx<NEffectUpdateDecorator::CNullDecorator>::`scalar deleting destructor', COMDAT
; _this$ = ecx
  00000	55		 push	 ebp
  00001	8b ec		 mov	 ebp, esp
  00003	56		 push	 esi
  00004	8b f1		 mov	 esi, ecx
  00006	e8 00 00 00 00	 call	 ??1?$CDynamicPoolEx@VCNullDecorator@NEffectUpdateDecorator@@@@UAE@XZ ; CDynamicPoolEx<NEffectUpdateDecorator::CNullDecorator>::~CDynamicPoolEx<NEffectUpdateDecorator::CNullDecorator>
  0000b	f6 45 08 01	 test	 BYTE PTR ___flags$[ebp], 1
  0000f	74 0b		 je	 SHORT $LN4@scalar
  00011	6a 24		 push	 36			; 00000024H
  00013	56		 push	 esi
  00014	e8 00 00 00 00	 call	 ??3@YAXPAXI@Z		; operator delete
  00019	83 c4 08	 add	 esp, 8
$LN4@scalar:
  0001c	8b c6		 mov	 eax, esi
  0001e	5e		 pop	 esi
  0001f	5d		 pop	 ebp
  00020	c2 04 00	 ret	 4
??_G?$CDynamicPoolEx@VCNullDecorator@NEffectUpdateDecorator@@@@UAEPAXI@Z ENDP ; CDynamicPoolEx<NEffectUpdateDecorator::CNullDecorator>::`scalar deleting destructor'
_TEXT	ENDS
; Function compile flags: /Ogtp
; File C:\Users\murat\Desktop\Siveps2-1-99-Project\source\client\Client\eterLib\Pool.h
;	COMDAT ?Delete@?$CDynamicPoolEx@VCNullDecorator@NEffectUpdateDecorator@@@@KAXPAVCNullDecorator@NEffectUpdateDecorator@@@Z
_TEXT	SEGMENT
_pkData$ = 8						; size = 4
?Delete@?$CDynamicPoolEx@VCNullDecorator@NEffectUpdateDecorator@@@@KAXPAVCNullDecorator@NEffectUpdateDecorator@@@Z PROC ; CDynamicPoolEx<NEffectUpdateDecorator::CNullDecorator>::Delete, COMDAT

; 224  : 			::operator delete(pkData);

  00000	e9 00 00 00 00	 jmp	 ??3@YAXPAX@Z		; operator delete
?Delete@?$CDynamicPoolEx@VCNullDecorator@NEffectUpdateDecorator@@@@KAXPAVCNullDecorator@NEffectUpdateDecorator@@@Z ENDP ; CDynamicPoolEx<NEffectUpdateDecorator::CNullDecorator>::Delete
_TEXT	ENDS
; Function compile flags: /Ogtp
; File C:\Users\murat\Desktop\Siveps2-1-99-Project\source\client\Client\eterLib\Pool.h
; File C:\Program Files (x86)\Microsoft Visual Studio\2019\Professional\VC\Tools\MSVC\14.29.30133\include\vector
; File C:\Program Files (x86)\Microsoft Visual Studio\2019\Professional\VC\Tools\MSVC\14.29.30133\include\algorithm
; File C:\Users\murat\Desktop\Siveps2-1-99-Project\source\client\Client\eterLib\Pool.h
; File C:\Program Files (x86)\Microsoft Visual Studio\2019\Professional\VC\Tools\MSVC\14.29.30133\include\algorithm
; File C:\Users\murat\Desktop\Siveps2-1-99-Project\source\client\Client\eterLib\Pool.h
; File C:\Program Files (x86)\Microsoft Visual Studio\2019\Professional\VC\Tools\MSVC\14.29.30133\include\algorithm
; File C:\Users\murat\Desktop\Siveps2-1-99-Project\source\client\Client\eterLib\Pool.h
; File C:\Program Files (x86)\Microsoft Visual Studio\2019\Professional\VC\Tools\MSVC\14.29.30133\include\vector
; File C:\Program Files (x86)\Microsoft Visual Studio\2019\Professional\VC\Tools\MSVC\14.29.30133\include\xmemory
; File C:\Program Files (x86)\Microsoft Visual Studio\2019\Professional\VC\Tools\MSVC\14.29.30133\include\vector
; File C:\Program Files (x86)\Microsoft Visual Studio\2019\Professional\VC\Tools\MSVC\14.29.30133\include\xmemory
; File C:\Program Files (x86)\Microsoft Visual Studio\2019\Professional\VC\Tools\MSVC\14.29.30133\include\vector
; File C:\Program Files (x86)\Microsoft Visual Studio\2019\Professional\VC\Tools\MSVC\14.29.30133\include\xmemory
; File C:\Program Files (x86)\Microsoft Visual Studio\2019\Professional\VC\Tools\MSVC\14.29.30133\include\vector
; File C:\Program Files (x86)\Microsoft Visual Studio\2019\Professional\VC\Tools\MSVC\14.29.30133\include\xmemory
; File C:\Program Files (x86)\Microsoft Visual Studio\2019\Professional\VC\Tools\MSVC\14.29.30133\include\vector
; File C:\Users\murat\Desktop\Siveps2-1-99-Project\source\client\Client\eterLib\Pool.h
; File C:\Program Files (x86)\Microsoft Visual Studio\2019\Professional\VC\Tools\MSVC\14.29.30133\include\xmemory
; File C:\Users\murat\Desktop\Siveps2-1-99-Project\source\client\Client\eterLib\Pool.h
;	COMDAT ??1?$CDynamicPoolEx@VCNullDecorator@NEffectUpdateDecorator@@@@UAE@XZ
_TEXT	SEGMENT
??1?$CDynamicPoolEx@VCNullDecorator@NEffectUpdateDecorator@@@@UAE@XZ PROC ; CDynamicPoolEx<NEffectUpdateDecorator::CNullDecorator>::~CDynamicPoolEx<NEffectUpdateDecorator::CNullDecorator>, COMDAT
; _this$ = ecx

; 132  : 		{

  00000	53		 push	 ebx
  00001	56		 push	 esi
  00002	57		 push	 edi
  00003	8b f9		 mov	 edi, ecx
  00005	c7 07 00 00 00
	00		 mov	 DWORD PTR [edi], OFFSET ??_7?$CDynamicPoolEx@VCNullDecorator@NEffectUpdateDecorator@@@@6B@
; File C:\Program Files (x86)\Microsoft Visual Studio\2019\Professional\VC\Tools\MSVC\14.29.30133\include\vector

; 42   :     _CONSTEXPR20_CONTAINER _Vector_const_iterator(_Tptr _Parg, const _Container_base* _Pvector) noexcept : _Ptr(_Parg) {

  0000b	8b 5f 08	 mov	 ebx, DWORD PTR [edi+8]
  0000e	8b 77 04	 mov	 esi, DWORD PTR [edi+4]
; File C:\Program Files (x86)\Microsoft Visual Studio\2019\Professional\VC\Tools\MSVC\14.29.30133\include\algorithm

; 270  :     for (; _UFirst != _ULast; ++_UFirst) {

  00011	3b f3		 cmp	 esi, ebx
  00013	74 14		 je	 SHORT $LN19@CDynamicPo
$LL20@CDynamicPo:
; File C:\Users\murat\Desktop\Siveps2-1-99-Project\source\client\Client\eterLib\Pool.h

; 224  : 			::operator delete(pkData);

  00015	ff 36		 push	 DWORD PTR [esi]
  00017	e8 00 00 00 00	 call	 ??3@YAXPAX@Z		; operator delete
; File C:\Program Files (x86)\Microsoft Visual Studio\2019\Professional\VC\Tools\MSVC\14.29.30133\include\algorithm

; 270  :     for (; _UFirst != _ULast; ++_UFirst) {

  0001c	83 c6 04	 add	 esi, 4
; File C:\Users\murat\Desktop\Siveps2-1-99-Project\source\client\Client\eterLib\Pool.h

; 224  : 			::operator delete(pkData);

  0001f	83 c4 04	 add	 esp, 4
; File C:\Program Files (x86)\Microsoft Visual Studio\2019\Professional\VC\Tools\MSVC\14.29.30133\include\algorithm

; 270  :     for (; _UFirst != _ULast; ++_UFirst) {

  00022	3b f3		 cmp	 esi, ebx
  00024	75 ef		 jne	 SHORT $LL20@CDynamicPo
  00026	8b 77 04	 mov	 esi, DWORD PTR [edi+4]
$LN19@CDynamicPo:
; File C:\Users\murat\Desktop\Siveps2-1-99-Project\source\client\Client\eterLib\Pool.h

; 162  : 			m_kVct_pkFree.clear();

  00029	8b 47 10	 mov	 eax, DWORD PTR [edi+16]
  0002c	89 77 08	 mov	 DWORD PTR [edi+8], esi
  0002f	89 47 14	 mov	 DWORD PTR [edi+20], eax
; File C:\Program Files (x86)\Microsoft Visual Studio\2019\Professional\VC\Tools\MSVC\14.29.30133\include\vector

; 1763 :         if (_Myfirst) { // destroy and deallocate old array

  00032	85 c0		 test	 eax, eax
  00034	74 41		 je	 SHORT $LN27@CDynamicPo

; 1764 :             _Destroy(_Myfirst, _Mylast);
; 1765 :             _Getal().deallocate(_Myfirst, static_cast<size_type>(_Myend - _Myfirst));

  00036	8b 4f 18	 mov	 ecx, DWORD PTR [edi+24]
  00039	2b c8		 sub	 ecx, eax
; File C:\Program Files (x86)\Microsoft Visual Studio\2019\Professional\VC\Tools\MSVC\14.29.30133\include\xmemory

; 835  :         _Deallocate<_New_alignof<_Ty>>(_Ptr, sizeof(_Ty) * _Count);

  0003b	83 e1 fc	 and	 ecx, -4			; fffffffcH

; 260  :         if (_Bytes >= _Big_allocation_threshold) { // boost the alignment of big allocations to help autovectorization

  0003e	81 f9 00 10 00
	00		 cmp	 ecx, 4096		; 00001000H
  00044	72 12		 jb	 SHORT $LN43@CDynamicPo

; 158  :     const uintptr_t _Ptr_container   = _Ptr_user[-1];

  00046	8b 50 fc	 mov	 edx, DWORD PTR [eax-4]
  00049	83 c1 23	 add	 ecx, 35			; 00000023H

; 159  : 
; 160  :     // If the following asserts, it likely means that we are performing
; 161  :     // an aligned delete on memory coming from an unaligned allocation.
; 162  :     _STL_ASSERT(_Ptr_user[-2] == _Big_allocation_sentinel, "invalid argument");
; 163  : 
; 164  :     // Extra paranoia on aligned allocation/deallocation; ensure _Ptr_container is
; 165  :     // in range [_Min_back_shift, _Non_user_size]
; 166  : #ifdef _DEBUG
; 167  :     constexpr uintptr_t _Min_back_shift = 2 * sizeof(void*);
; 168  : #else // ^^^ _DEBUG ^^^ // vvv !_DEBUG vvv
; 169  :     constexpr uintptr_t _Min_back_shift = sizeof(void*);
; 170  : #endif // _DEBUG
; 171  :     const uintptr_t _Back_shift = reinterpret_cast<uintptr_t>(_Ptr) - _Ptr_container;

  0004c	2b c2		 sub	 eax, edx

; 172  :     _STL_VERIFY(_Back_shift >= _Min_back_shift && _Back_shift <= _Non_user_size, "invalid argument");

  0004e	83 c0 fc	 add	 eax, -4			; fffffffcH
  00051	83 f8 1f	 cmp	 eax, 31			; 0000001fH
  00054	77 6d		 ja	 SHORT $LN65@CDynamicPo

; 173  :     _Ptr = reinterpret_cast<void*>(_Ptr_container);

  00056	8b c2		 mov	 eax, edx
$LN43@CDynamicPo:

; 264  :         ::operator delete(_Ptr, _Bytes);

  00058	51		 push	 ecx
  00059	50		 push	 eax
  0005a	e8 00 00 00 00	 call	 ??3@YAXPAXI@Z		; operator delete
; File C:\Program Files (x86)\Microsoft Visual Studio\2019\Professional\VC\Tools\MSVC\14.29.30133\include\vector

; 1767 :             _Myfirst = nullptr;

  0005f	c7 47 10 00 00
	00 00		 mov	 DWORD PTR [edi+16], 0
; File C:\Program Files (x86)\Microsoft Visual Studio\2019\Professional\VC\Tools\MSVC\14.29.30133\include\xmemory

; 264  :         ::operator delete(_Ptr, _Bytes);

  00066	83 c4 08	 add	 esp, 8
; File C:\Program Files (x86)\Microsoft Visual Studio\2019\Professional\VC\Tools\MSVC\14.29.30133\include\vector

; 1768 :             _Mylast  = nullptr;

  00069	c7 47 14 00 00
	00 00		 mov	 DWORD PTR [edi+20], 0

; 1769 :             _Myend   = nullptr;

  00070	c7 47 18 00 00
	00 00		 mov	 DWORD PTR [edi+24], 0
$LN27@CDynamicPo:

; 1763 :         if (_Myfirst) { // destroy and deallocate old array

  00077	8b 47 04	 mov	 eax, DWORD PTR [edi+4]
  0007a	85 c0		 test	 eax, eax
  0007c	74 41		 je	 SHORT $LN52@CDynamicPo

; 1764 :             _Destroy(_Myfirst, _Mylast);
; 1765 :             _Getal().deallocate(_Myfirst, static_cast<size_type>(_Myend - _Myfirst));

  0007e	8b 4f 0c	 mov	 ecx, DWORD PTR [edi+12]
  00081	2b c8		 sub	 ecx, eax
; File C:\Program Files (x86)\Microsoft Visual Studio\2019\Professional\VC\Tools\MSVC\14.29.30133\include\xmemory

; 835  :         _Deallocate<_New_alignof<_Ty>>(_Ptr, sizeof(_Ty) * _Count);

  00083	83 e1 fc	 and	 ecx, -4			; fffffffcH

; 260  :         if (_Bytes >= _Big_allocation_threshold) { // boost the alignment of big allocations to help autovectorization

  00086	81 f9 00 10 00
	00		 cmp	 ecx, 4096		; 00001000H
  0008c	72 12		 jb	 SHORT $LN68@CDynamicPo

; 158  :     const uintptr_t _Ptr_container   = _Ptr_user[-1];

  0008e	8b 50 fc	 mov	 edx, DWORD PTR [eax-4]
  00091	83 c1 23	 add	 ecx, 35			; 00000023H

; 159  : 
; 160  :     // If the following asserts, it likely means that we are performing
; 161  :     // an aligned delete on memory coming from an unaligned allocation.
; 162  :     _STL_ASSERT(_Ptr_user[-2] == _Big_allocation_sentinel, "invalid argument");
; 163  : 
; 164  :     // Extra paranoia on aligned allocation/deallocation; ensure _Ptr_container is
; 165  :     // in range [_Min_back_shift, _Non_user_size]
; 166  : #ifdef _DEBUG
; 167  :     constexpr uintptr_t _Min_back_shift = 2 * sizeof(void*);
; 168  : #else // ^^^ _DEBUG ^^^ // vvv !_DEBUG vvv
; 169  :     constexpr uintptr_t _Min_back_shift = sizeof(void*);
; 170  : #endif // _DEBUG
; 171  :     const uintptr_t _Back_shift = reinterpret_cast<uintptr_t>(_Ptr) - _Ptr_container;

  00094	2b c2		 sub	 eax, edx

; 172  :     _STL_VERIFY(_Back_shift >= _Min_back_shift && _Back_shift <= _Non_user_size, "invalid argument");

  00096	83 c0 fc	 add	 eax, -4			; fffffffcH
  00099	83 f8 1f	 cmp	 eax, 31			; 0000001fH
  0009c	77 25		 ja	 SHORT $LN65@CDynamicPo

; 173  :     _Ptr = reinterpret_cast<void*>(_Ptr_container);

  0009e	8b c2		 mov	 eax, edx
$LN68@CDynamicPo:

; 264  :         ::operator delete(_Ptr, _Bytes);

  000a0	51		 push	 ecx
  000a1	50		 push	 eax
  000a2	e8 00 00 00 00	 call	 ??3@YAXPAXI@Z		; operator delete
; File C:\Program Files (x86)\Microsoft Visual Studio\2019\Professional\VC\Tools\MSVC\14.29.30133\include\vector

; 1767 :             _Myfirst = nullptr;

  000a7	c7 47 04 00 00
	00 00		 mov	 DWORD PTR [edi+4], 0
; File C:\Program Files (x86)\Microsoft Visual Studio\2019\Professional\VC\Tools\MSVC\14.29.30133\include\xmemory

; 264  :         ::operator delete(_Ptr, _Bytes);

  000ae	83 c4 08	 add	 esp, 8
; File C:\Program Files (x86)\Microsoft Visual Studio\2019\Professional\VC\Tools\MSVC\14.29.30133\include\vector

; 1768 :             _Mylast  = nullptr;

  000b1	c7 47 08 00 00
	00 00		 mov	 DWORD PTR [edi+8], 0

; 1769 :             _Myend   = nullptr;

  000b8	c7 47 0c 00 00
	00 00		 mov	 DWORD PTR [edi+12], 0
$LN52@CDynamicPo:
  000bf	5f		 pop	 edi
; File C:\Users\murat\Desktop\Siveps2-1-99-Project\source\client\Client\eterLib\Pool.h

; 142  : 		}

  000c0	5e		 pop	 esi
  000c1	5b		 pop	 ebx
  000c2	c3		 ret	 0
$LN65@CDynamicPo:
; File C:\Program Files (x86)\Microsoft Visual Studio\2019\Professional\VC\Tools\MSVC\14.29.30133\include\xmemory

; 172  :     _STL_VERIFY(_Back_shift >= _Min_back_shift && _Back_shift <= _Non_user_size, "invalid argument");

  000c3	e8 00 00 00 00	 call	 __invalid_parameter_noinfo_noreturn
$LN77@CDynamicPo:
  000c8	cc		 int	 3
??1?$CDynamicPoolEx@VCNullDecorator@NEffectUpdateDecorator@@@@UAE@XZ ENDP ; CDynamicPoolEx<NEffectUpdateDecorator::CNullDecorator>::~CDynamicPoolEx<NEffectUpdateDecorator::CNullDecorator>
_TEXT	ENDS
; Function compile flags: /Ogtp
;	COMDAT ??_G?$CDynamicPoolEx@VCTextureAnimationCWDecorator@NEffectUpdateDecorator@@@@UAEPAXI@Z
_TEXT	SEGMENT
___flags$ = 8						; size = 4
??_G?$CDynamicPoolEx@VCTextureAnimationCWDecorator@NEffectUpdateDecorator@@@@UAEPAXI@Z PROC ; CDynamicPoolEx<NEffectUpdateDecorator::CTextureAnimationCWDecorator>::`scalar deleting destructor', COMDAT
; _this$ = ecx
  00000	55		 push	 ebp
  00001	8b ec		 mov	 ebp, esp
  00003	56		 push	 esi
  00004	8b f1		 mov	 esi, ecx
  00006	e8 00 00 00 00	 call	 ??1?$CDynamicPoolEx@VCTextureAnimationCWDecorator@NEffectUpdateDecorator@@@@UAE@XZ ; CDynamicPoolEx<NEffectUpdateDecorator::CTextureAnimationCWDecorator>::~CDynamicPoolEx<NEffectUpdateDecorator::CTextureAnimationCWDecorator>
  0000b	f6 45 08 01	 test	 BYTE PTR ___flags$[ebp], 1
  0000f	74 0b		 je	 SHORT $LN4@scalar
  00011	6a 24		 push	 36			; 00000024H
  00013	56		 push	 esi
  00014	e8 00 00 00 00	 call	 ??3@YAXPAXI@Z		; operator delete
  00019	83 c4 08	 add	 esp, 8
$LN4@scalar:
  0001c	8b c6		 mov	 eax, esi
  0001e	5e		 pop	 esi
  0001f	5d		 pop	 ebp
  00020	c2 04 00	 ret	 4
??_G?$CDynamicPoolEx@VCTextureAnimationCWDecorator@NEffectUpdateDecorator@@@@UAEPAXI@Z ENDP ; CDynamicPoolEx<NEffectUpdateDecorator::CTextureAnimationCWDecorator>::`scalar deleting destructor'
_TEXT	ENDS
; Function compile flags: /Ogtp
; File C:\Users\murat\Desktop\Siveps2-1-99-Project\source\client\Client\eterLib\Pool.h
;	COMDAT ?Delete@?$CDynamicPoolEx@VCTextureAnimationCWDecorator@NEffectUpdateDecorator@@@@KAXPAVCTextureAnimationCWDecorator@NEffectUpdateDecorator@@@Z
_TEXT	SEGMENT
_pkData$ = 8						; size = 4
?Delete@?$CDynamicPoolEx@VCTextureAnimationCWDecorator@NEffectUpdateDecorator@@@@KAXPAVCTextureAnimationCWDecorator@NEffectUpdateDecorator@@@Z PROC ; CDynamicPoolEx<NEffectUpdateDecorator::CTextureAnimationCWDecorator>::Delete, COMDAT

; 224  : 			::operator delete(pkData);

  00000	e9 00 00 00 00	 jmp	 ??3@YAXPAX@Z		; operator delete
?Delete@?$CDynamicPoolEx@VCTextureAnimationCWDecorator@NEffectUpdateDecorator@@@@KAXPAVCTextureAnimationCWDecorator@NEffectUpdateDecorator@@@Z ENDP ; CDynamicPoolEx<NEffectUpdateDecorator::CTextureAnimationCWDecorator>::Delete
_TEXT	ENDS
; Function compile flags: /Ogtp
; File C:\Users\murat\Desktop\Siveps2-1-99-Project\source\client\Client\eterLib\Pool.h
; File C:\Program Files (x86)\Microsoft Visual Studio\2019\Professional\VC\Tools\MSVC\14.29.30133\include\vector
; File C:\Program Files (x86)\Microsoft Visual Studio\2019\Professional\VC\Tools\MSVC\14.29.30133\include\algorithm
; File C:\Users\murat\Desktop\Siveps2-1-99-Project\source\client\Client\eterLib\Pool.h
; File C:\Program Files (x86)\Microsoft Visual Studio\2019\Professional\VC\Tools\MSVC\14.29.30133\include\algorithm
; File C:\Users\murat\Desktop\Siveps2-1-99-Project\source\client\Client\eterLib\Pool.h
; File C:\Program Files (x86)\Microsoft Visual Studio\2019\Professional\VC\Tools\MSVC\14.29.30133\include\algorithm
; File C:\Users\murat\Desktop\Siveps2-1-99-Project\source\client\Client\eterLib\Pool.h
; File C:\Program Files (x86)\Microsoft Visual Studio\2019\Professional\VC\Tools\MSVC\14.29.30133\include\vector
; File C:\Program Files (x86)\Microsoft Visual Studio\2019\Professional\VC\Tools\MSVC\14.29.30133\include\xmemory
; File C:\Program Files (x86)\Microsoft Visual Studio\2019\Professional\VC\Tools\MSVC\14.29.30133\include\vector
; File C:\Program Files (x86)\Microsoft Visual Studio\2019\Professional\VC\Tools\MSVC\14.29.30133\include\xmemory
; File C:\Program Files (x86)\Microsoft Visual Studio\2019\Professional\VC\Tools\MSVC\14.29.30133\include\vector
; File C:\Program Files (x86)\Microsoft Visual Studio\2019\Professional\VC\Tools\MSVC\14.29.30133\include\xmemory
; File C:\Program Files (x86)\Microsoft Visual Studio\2019\Professional\VC\Tools\MSVC\14.29.30133\include\vector
; File C:\Program Files (x86)\Microsoft Visual Studio\2019\Professional\VC\Tools\MSVC\14.29.30133\include\xmemory
; File C:\Program Files (x86)\Microsoft Visual Studio\2019\Professional\VC\Tools\MSVC\14.29.30133\include\vector
; File C:\Users\murat\Desktop\Siveps2-1-99-Project\source\client\Client\eterLib\Pool.h
; File C:\Program Files (x86)\Microsoft Visual Studio\2019\Professional\VC\Tools\MSVC\14.29.30133\include\xmemory
; File C:\Users\murat\Desktop\Siveps2-1-99-Project\source\client\Client\eterLib\Pool.h
;	COMDAT ??1?$CDynamicPoolEx@VCTextureAnimationCWDecorator@NEffectUpdateDecorator@@@@UAE@XZ
_TEXT	SEGMENT
??1?$CDynamicPoolEx@VCTextureAnimationCWDecorator@NEffectUpdateDecorator@@@@UAE@XZ PROC ; CDynamicPoolEx<NEffectUpdateDecorator::CTextureAnimationCWDecorator>::~CDynamicPoolEx<NEffectUpdateDecorator::CTextureAnimationCWDecorator>, COMDAT
; _this$ = ecx

; 132  : 		{

  00000	53		 push	 ebx
  00001	56		 push	 esi
  00002	57		 push	 edi
  00003	8b f9		 mov	 edi, ecx
  00005	c7 07 00 00 00
	00		 mov	 DWORD PTR [edi], OFFSET ??_7?$CDynamicPoolEx@VCTextureAnimationCWDecorator@NEffectUpdateDecorator@@@@6B@
; File C:\Program Files (x86)\Microsoft Visual Studio\2019\Professional\VC\Tools\MSVC\14.29.30133\include\vector

; 42   :     _CONSTEXPR20_CONTAINER _Vector_const_iterator(_Tptr _Parg, const _Container_base* _Pvector) noexcept : _Ptr(_Parg) {

  0000b	8b 5f 08	 mov	 ebx, DWORD PTR [edi+8]
  0000e	8b 77 04	 mov	 esi, DWORD PTR [edi+4]
; File C:\Program Files (x86)\Microsoft Visual Studio\2019\Professional\VC\Tools\MSVC\14.29.30133\include\algorithm

; 270  :     for (; _UFirst != _ULast; ++_UFirst) {

  00011	3b f3		 cmp	 esi, ebx
  00013	74 14		 je	 SHORT $LN19@CDynamicPo
$LL20@CDynamicPo:
; File C:\Users\murat\Desktop\Siveps2-1-99-Project\source\client\Client\eterLib\Pool.h

; 224  : 			::operator delete(pkData);

  00015	ff 36		 push	 DWORD PTR [esi]
  00017	e8 00 00 00 00	 call	 ??3@YAXPAX@Z		; operator delete
; File C:\Program Files (x86)\Microsoft Visual Studio\2019\Professional\VC\Tools\MSVC\14.29.30133\include\algorithm

; 270  :     for (; _UFirst != _ULast; ++_UFirst) {

  0001c	83 c6 04	 add	 esi, 4
; File C:\Users\murat\Desktop\Siveps2-1-99-Project\source\client\Client\eterLib\Pool.h

; 224  : 			::operator delete(pkData);

  0001f	83 c4 04	 add	 esp, 4
; File C:\Program Files (x86)\Microsoft Visual Studio\2019\Professional\VC\Tools\MSVC\14.29.30133\include\algorithm

; 270  :     for (; _UFirst != _ULast; ++_UFirst) {

  00022	3b f3		 cmp	 esi, ebx
  00024	75 ef		 jne	 SHORT $LL20@CDynamicPo
  00026	8b 77 04	 mov	 esi, DWORD PTR [edi+4]
$LN19@CDynamicPo:
; File C:\Users\murat\Desktop\Siveps2-1-99-Project\source\client\Client\eterLib\Pool.h

; 162  : 			m_kVct_pkFree.clear();

  00029	8b 47 10	 mov	 eax, DWORD PTR [edi+16]
  0002c	89 77 08	 mov	 DWORD PTR [edi+8], esi
  0002f	89 47 14	 mov	 DWORD PTR [edi+20], eax
; File C:\Program Files (x86)\Microsoft Visual Studio\2019\Professional\VC\Tools\MSVC\14.29.30133\include\vector

; 1763 :         if (_Myfirst) { // destroy and deallocate old array

  00032	85 c0		 test	 eax, eax
  00034	74 41		 je	 SHORT $LN27@CDynamicPo

; 1764 :             _Destroy(_Myfirst, _Mylast);
; 1765 :             _Getal().deallocate(_Myfirst, static_cast<size_type>(_Myend - _Myfirst));

  00036	8b 4f 18	 mov	 ecx, DWORD PTR [edi+24]
  00039	2b c8		 sub	 ecx, eax
; File C:\Program Files (x86)\Microsoft Visual Studio\2019\Professional\VC\Tools\MSVC\14.29.30133\include\xmemory

; 835  :         _Deallocate<_New_alignof<_Ty>>(_Ptr, sizeof(_Ty) * _Count);

  0003b	83 e1 fc	 and	 ecx, -4			; fffffffcH

; 260  :         if (_Bytes >= _Big_allocation_threshold) { // boost the alignment of big allocations to help autovectorization

  0003e	81 f9 00 10 00
	00		 cmp	 ecx, 4096		; 00001000H
  00044	72 12		 jb	 SHORT $LN43@CDynamicPo

; 158  :     const uintptr_t _Ptr_container   = _Ptr_user[-1];

  00046	8b 50 fc	 mov	 edx, DWORD PTR [eax-4]
  00049	83 c1 23	 add	 ecx, 35			; 00000023H

; 159  : 
; 160  :     // If the following asserts, it likely means that we are performing
; 161  :     // an aligned delete on memory coming from an unaligned allocation.
; 162  :     _STL_ASSERT(_Ptr_user[-2] == _Big_allocation_sentinel, "invalid argument");
; 163  : 
; 164  :     // Extra paranoia on aligned allocation/deallocation; ensure _Ptr_container is
; 165  :     // in range [_Min_back_shift, _Non_user_size]
; 166  : #ifdef _DEBUG
; 167  :     constexpr uintptr_t _Min_back_shift = 2 * sizeof(void*);
; 168  : #else // ^^^ _DEBUG ^^^ // vvv !_DEBUG vvv
; 169  :     constexpr uintptr_t _Min_back_shift = sizeof(void*);
; 170  : #endif // _DEBUG
; 171  :     const uintptr_t _Back_shift = reinterpret_cast<uintptr_t>(_Ptr) - _Ptr_container;

  0004c	2b c2		 sub	 eax, edx

; 172  :     _STL_VERIFY(_Back_shift >= _Min_back_shift && _Back_shift <= _Non_user_size, "invalid argument");

  0004e	83 c0 fc	 add	 eax, -4			; fffffffcH
  00051	83 f8 1f	 cmp	 eax, 31			; 0000001fH
  00054	77 6d		 ja	 SHORT $LN65@CDynamicPo

; 173  :     _Ptr = reinterpret_cast<void*>(_Ptr_container);

  00056	8b c2		 mov	 eax, edx
$LN43@CDynamicPo:

; 264  :         ::operator delete(_Ptr, _Bytes);

  00058	51		 push	 ecx
  00059	50		 push	 eax
  0005a	e8 00 00 00 00	 call	 ??3@YAXPAXI@Z		; operator delete
; File C:\Program Files (x86)\Microsoft Visual Studio\2019\Professional\VC\Tools\MSVC\14.29.30133\include\vector

; 1767 :             _Myfirst = nullptr;

  0005f	c7 47 10 00 00
	00 00		 mov	 DWORD PTR [edi+16], 0
; File C:\Program Files (x86)\Microsoft Visual Studio\2019\Professional\VC\Tools\MSVC\14.29.30133\include\xmemory

; 264  :         ::operator delete(_Ptr, _Bytes);

  00066	83 c4 08	 add	 esp, 8
; File C:\Program Files (x86)\Microsoft Visual Studio\2019\Professional\VC\Tools\MSVC\14.29.30133\include\vector

; 1768 :             _Mylast  = nullptr;

  00069	c7 47 14 00 00
	00 00		 mov	 DWORD PTR [edi+20], 0

; 1769 :             _Myend   = nullptr;

  00070	c7 47 18 00 00
	00 00		 mov	 DWORD PTR [edi+24], 0
$LN27@CDynamicPo:

; 1763 :         if (_Myfirst) { // destroy and deallocate old array

  00077	8b 47 04	 mov	 eax, DWORD PTR [edi+4]
  0007a	85 c0		 test	 eax, eax
  0007c	74 41		 je	 SHORT $LN52@CDynamicPo

; 1764 :             _Destroy(_Myfirst, _Mylast);
; 1765 :             _Getal().deallocate(_Myfirst, static_cast<size_type>(_Myend - _Myfirst));

  0007e	8b 4f 0c	 mov	 ecx, DWORD PTR [edi+12]
  00081	2b c8		 sub	 ecx, eax
; File C:\Program Files (x86)\Microsoft Visual Studio\2019\Professional\VC\Tools\MSVC\14.29.30133\include\xmemory

; 835  :         _Deallocate<_New_alignof<_Ty>>(_Ptr, sizeof(_Ty) * _Count);

  00083	83 e1 fc	 and	 ecx, -4			; fffffffcH

; 260  :         if (_Bytes >= _Big_allocation_threshold) { // boost the alignment of big allocations to help autovectorization

  00086	81 f9 00 10 00
	00		 cmp	 ecx, 4096		; 00001000H
  0008c	72 12		 jb	 SHORT $LN68@CDynamicPo

; 158  :     const uintptr_t _Ptr_container   = _Ptr_user[-1];

  0008e	8b 50 fc	 mov	 edx, DWORD PTR [eax-4]
  00091	83 c1 23	 add	 ecx, 35			; 00000023H

; 159  : 
; 160  :     // If the following asserts, it likely means that we are performing
; 161  :     // an aligned delete on memory coming from an unaligned allocation.
; 162  :     _STL_ASSERT(_Ptr_user[-2] == _Big_allocation_sentinel, "invalid argument");
; 163  : 
; 164  :     // Extra paranoia on aligned allocation/deallocation; ensure _Ptr_container is
; 165  :     // in range [_Min_back_shift, _Non_user_size]
; 166  : #ifdef _DEBUG
; 167  :     constexpr uintptr_t _Min_back_shift = 2 * sizeof(void*);
; 168  : #else // ^^^ _DEBUG ^^^ // vvv !_DEBUG vvv
; 169  :     constexpr uintptr_t _Min_back_shift = sizeof(void*);
; 170  : #endif // _DEBUG
; 171  :     const uintptr_t _Back_shift = reinterpret_cast<uintptr_t>(_Ptr) - _Ptr_container;

  00094	2b c2		 sub	 eax, edx

; 172  :     _STL_VERIFY(_Back_shift >= _Min_back_shift && _Back_shift <= _Non_user_size, "invalid argument");

  00096	83 c0 fc	 add	 eax, -4			; fffffffcH
  00099	83 f8 1f	 cmp	 eax, 31			; 0000001fH
  0009c	77 25		 ja	 SHORT $LN65@CDynamicPo

; 173  :     _Ptr = reinterpret_cast<void*>(_Ptr_container);

  0009e	8b c2		 mov	 eax, edx
$LN68@CDynamicPo:

; 264  :         ::operator delete(_Ptr, _Bytes);

  000a0	51		 push	 ecx
  000a1	50		 push	 eax
  000a2	e8 00 00 00 00	 call	 ??3@YAXPAXI@Z		; operator delete
; File C:\Program Files (x86)\Microsoft Visual Studio\2019\Professional\VC\Tools\MSVC\14.29.30133\include\vector

; 1767 :             _Myfirst = nullptr;

  000a7	c7 47 04 00 00
	00 00		 mov	 DWORD PTR [edi+4], 0
; File C:\Program Files (x86)\Microsoft Visual Studio\2019\Professional\VC\Tools\MSVC\14.29.30133\include\xmemory

; 264  :         ::operator delete(_Ptr, _Bytes);

  000ae	83 c4 08	 add	 esp, 8
; File C:\Program Files (x86)\Microsoft Visual Studio\2019\Professional\VC\Tools\MSVC\14.29.30133\include\vector

; 1768 :             _Mylast  = nullptr;

  000b1	c7 47 08 00 00
	00 00		 mov	 DWORD PTR [edi+8], 0

; 1769 :             _Myend   = nullptr;

  000b8	c7 47 0c 00 00
	00 00		 mov	 DWORD PTR [edi+12], 0
$LN52@CDynamicPo:
  000bf	5f		 pop	 edi
; File C:\Users\murat\Desktop\Siveps2-1-99-Project\source\client\Client\eterLib\Pool.h

; 142  : 		}

  000c0	5e		 pop	 esi
  000c1	5b		 pop	 ebx
  000c2	c3		 ret	 0
$LN65@CDynamicPo:
; File C:\Program Files (x86)\Microsoft Visual Studio\2019\Professional\VC\Tools\MSVC\14.29.30133\include\xmemory

; 172  :     _STL_VERIFY(_Back_shift >= _Min_back_shift && _Back_shift <= _Non_user_size, "invalid argument");

  000c3	e8 00 00 00 00	 call	 __invalid_parameter_noinfo_noreturn
$LN77@CDynamicPo:
  000c8	cc		 int	 3
??1?$CDynamicPoolEx@VCTextureAnimationCWDecorator@NEffectUpdateDecorator@@@@UAE@XZ ENDP ; CDynamicPoolEx<NEffectUpdateDecorator::CTextureAnimationCWDecorator>::~CDynamicPoolEx<NEffectUpdateDecorator::CTextureAnimationCWDecorator>
_TEXT	ENDS
; Function compile flags: /Ogtp
;	COMDAT ??_G?$CDynamicPoolEx@VCTextureAnimationCCWDecorator@NEffectUpdateDecorator@@@@UAEPAXI@Z
_TEXT	SEGMENT
___flags$ = 8						; size = 4
??_G?$CDynamicPoolEx@VCTextureAnimationCCWDecorator@NEffectUpdateDecorator@@@@UAEPAXI@Z PROC ; CDynamicPoolEx<NEffectUpdateDecorator::CTextureAnimationCCWDecorator>::`scalar deleting destructor', COMDAT
; _this$ = ecx
  00000	55		 push	 ebp
  00001	8b ec		 mov	 ebp, esp
  00003	56		 push	 esi
  00004	8b f1		 mov	 esi, ecx
  00006	e8 00 00 00 00	 call	 ??1?$CDynamicPoolEx@VCTextureAnimationCCWDecorator@NEffectUpdateDecorator@@@@UAE@XZ ; CDynamicPoolEx<NEffectUpdateDecorator::CTextureAnimationCCWDecorator>::~CDynamicPoolEx<NEffectUpdateDecorator::CTextureAnimationCCWDecorator>
  0000b	f6 45 08 01	 test	 BYTE PTR ___flags$[ebp], 1
  0000f	74 0b		 je	 SHORT $LN4@scalar
  00011	6a 24		 push	 36			; 00000024H
  00013	56		 push	 esi
  00014	e8 00 00 00 00	 call	 ??3@YAXPAXI@Z		; operator delete
  00019	83 c4 08	 add	 esp, 8
$LN4@scalar:
  0001c	8b c6		 mov	 eax, esi
  0001e	5e		 pop	 esi
  0001f	5d		 pop	 ebp
  00020	c2 04 00	 ret	 4
??_G?$CDynamicPoolEx@VCTextureAnimationCCWDecorator@NEffectUpdateDecorator@@@@UAEPAXI@Z ENDP ; CDynamicPoolEx<NEffectUpdateDecorator::CTextureAnimationCCWDecorator>::`scalar deleting destructor'
_TEXT	ENDS
; Function compile flags: /Ogtp
; File C:\Users\murat\Desktop\Siveps2-1-99-Project\source\client\Client\eterLib\Pool.h
;	COMDAT ?Delete@?$CDynamicPoolEx@VCTextureAnimationCCWDecorator@NEffectUpdateDecorator@@@@KAXPAVCTextureAnimationCCWDecorator@NEffectUpdateDecorator@@@Z
_TEXT	SEGMENT
_pkData$ = 8						; size = 4
?Delete@?$CDynamicPoolEx@VCTextureAnimationCCWDecorator@NEffectUpdateDecorator@@@@KAXPAVCTextureAnimationCCWDecorator@NEffectUpdateDecorator@@@Z PROC ; CDynamicPoolEx<NEffectUpdateDecorator::CTextureAnimationCCWDecorator>::Delete, COMDAT

; 224  : 			::operator delete(pkData);

  00000	e9 00 00 00 00	 jmp	 ??3@YAXPAX@Z		; operator delete
?Delete@?$CDynamicPoolEx@VCTextureAnimationCCWDecorator@NEffectUpdateDecorator@@@@KAXPAVCTextureAnimationCCWDecorator@NEffectUpdateDecorator@@@Z ENDP ; CDynamicPoolEx<NEffectUpdateDecorator::CTextureAnimationCCWDecorator>::Delete
_TEXT	ENDS
; Function compile flags: /Ogtp
; File C:\Users\murat\Desktop\Siveps2-1-99-Project\source\client\Client\eterLib\Pool.h
; File C:\Program Files (x86)\Microsoft Visual Studio\2019\Professional\VC\Tools\MSVC\14.29.30133\include\vector
; File C:\Program Files (x86)\Microsoft Visual Studio\2019\Professional\VC\Tools\MSVC\14.29.30133\include\algorithm
; File C:\Users\murat\Desktop\Siveps2-1-99-Project\source\client\Client\eterLib\Pool.h
; File C:\Program Files (x86)\Microsoft Visual Studio\2019\Professional\VC\Tools\MSVC\14.29.30133\include\algorithm
; File C:\Users\murat\Desktop\Siveps2-1-99-Project\source\client\Client\eterLib\Pool.h
; File C:\Program Files (x86)\Microsoft Visual Studio\2019\Professional\VC\Tools\MSVC\14.29.30133\include\algorithm
; File C:\Users\murat\Desktop\Siveps2-1-99-Project\source\client\Client\eterLib\Pool.h
; File C:\Program Files (x86)\Microsoft Visual Studio\2019\Professional\VC\Tools\MSVC\14.29.30133\include\vector
; File C:\Program Files (x86)\Microsoft Visual Studio\2019\Professional\VC\Tools\MSVC\14.29.30133\include\xmemory
; File C:\Program Files (x86)\Microsoft Visual Studio\2019\Professional\VC\Tools\MSVC\14.29.30133\include\vector
; File C:\Program Files (x86)\Microsoft Visual Studio\2019\Professional\VC\Tools\MSVC\14.29.30133\include\xmemory
; File C:\Program Files (x86)\Microsoft Visual Studio\2019\Professional\VC\Tools\MSVC\14.29.30133\include\vector
; File C:\Program Files (x86)\Microsoft Visual Studio\2019\Professional\VC\Tools\MSVC\14.29.30133\include\xmemory
; File C:\Program Files (x86)\Microsoft Visual Studio\2019\Professional\VC\Tools\MSVC\14.29.30133\include\vector
; File C:\Program Files (x86)\Microsoft Visual Studio\2019\Professional\VC\Tools\MSVC\14.29.30133\include\xmemory
; File C:\Program Files (x86)\Microsoft Visual Studio\2019\Professional\VC\Tools\MSVC\14.29.30133\include\vector
; File C:\Users\murat\Desktop\Siveps2-1-99-Project\source\client\Client\eterLib\Pool.h
; File C:\Program Files (x86)\Microsoft Visual Studio\2019\Professional\VC\Tools\MSVC\14.29.30133\include\xmemory
; File C:\Users\murat\Desktop\Siveps2-1-99-Project\source\client\Client\eterLib\Pool.h
;	COMDAT ??1?$CDynamicPoolEx@VCTextureAnimationCCWDecorator@NEffectUpdateDecorator@@@@UAE@XZ
_TEXT	SEGMENT
??1?$CDynamicPoolEx@VCTextureAnimationCCWDecorator@NEffectUpdateDecorator@@@@UAE@XZ PROC ; CDynamicPoolEx<NEffectUpdateDecorator::CTextureAnimationCCWDecorator>::~CDynamicPoolEx<NEffectUpdateDecorator::CTextureAnimationCCWDecorator>, COMDAT
; _this$ = ecx

; 132  : 		{

  00000	53		 push	 ebx
  00001	56		 push	 esi
  00002	57		 push	 edi
  00003	8b f9		 mov	 edi, ecx
  00005	c7 07 00 00 00
	00		 mov	 DWORD PTR [edi], OFFSET ??_7?$CDynamicPoolEx@VCTextureAnimationCCWDecorator@NEffectUpdateDecorator@@@@6B@
; File C:\Program Files (x86)\Microsoft Visual Studio\2019\Professional\VC\Tools\MSVC\14.29.30133\include\vector

; 42   :     _CONSTEXPR20_CONTAINER _Vector_const_iterator(_Tptr _Parg, const _Container_base* _Pvector) noexcept : _Ptr(_Parg) {

  0000b	8b 5f 08	 mov	 ebx, DWORD PTR [edi+8]
  0000e	8b 77 04	 mov	 esi, DWORD PTR [edi+4]
; File C:\Program Files (x86)\Microsoft Visual Studio\2019\Professional\VC\Tools\MSVC\14.29.30133\include\algorithm

; 270  :     for (; _UFirst != _ULast; ++_UFirst) {

  00011	3b f3		 cmp	 esi, ebx
  00013	74 14		 je	 SHORT $LN19@CDynamicPo
$LL20@CDynamicPo:
; File C:\Users\murat\Desktop\Siveps2-1-99-Project\source\client\Client\eterLib\Pool.h

; 224  : 			::operator delete(pkData);

  00015	ff 36		 push	 DWORD PTR [esi]
  00017	e8 00 00 00 00	 call	 ??3@YAXPAX@Z		; operator delete
; File C:\Program Files (x86)\Microsoft Visual Studio\2019\Professional\VC\Tools\MSVC\14.29.30133\include\algorithm

; 270  :     for (; _UFirst != _ULast; ++_UFirst) {

  0001c	83 c6 04	 add	 esi, 4
; File C:\Users\murat\Desktop\Siveps2-1-99-Project\source\client\Client\eterLib\Pool.h

; 224  : 			::operator delete(pkData);

  0001f	83 c4 04	 add	 esp, 4
; File C:\Program Files (x86)\Microsoft Visual Studio\2019\Professional\VC\Tools\MSVC\14.29.30133\include\algorithm

; 270  :     for (; _UFirst != _ULast; ++_UFirst) {

  00022	3b f3		 cmp	 esi, ebx
  00024	75 ef		 jne	 SHORT $LL20@CDynamicPo
  00026	8b 77 04	 mov	 esi, DWORD PTR [edi+4]
$LN19@CDynamicPo:
; File C:\Users\murat\Desktop\Siveps2-1-99-Project\source\client\Client\eterLib\Pool.h

; 162  : 			m_kVct_pkFree.clear();

  00029	8b 47 10	 mov	 eax, DWORD PTR [edi+16]
  0002c	89 77 08	 mov	 DWORD PTR [edi+8], esi
  0002f	89 47 14	 mov	 DWORD PTR [edi+20], eax
; File C:\Program Files (x86)\Microsoft Visual Studio\2019\Professional\VC\Tools\MSVC\14.29.30133\include\vector

; 1763 :         if (_Myfirst) { // destroy and deallocate old array

  00032	85 c0		 test	 eax, eax
  00034	74 41		 je	 SHORT $LN27@CDynamicPo

; 1764 :             _Destroy(_Myfirst, _Mylast);
; 1765 :             _Getal().deallocate(_Myfirst, static_cast<size_type>(_Myend - _Myfirst));

  00036	8b 4f 18	 mov	 ecx, DWORD PTR [edi+24]
  00039	2b c8		 sub	 ecx, eax
; File C:\Program Files (x86)\Microsoft Visual Studio\2019\Professional\VC\Tools\MSVC\14.29.30133\include\xmemory

; 835  :         _Deallocate<_New_alignof<_Ty>>(_Ptr, sizeof(_Ty) * _Count);

  0003b	83 e1 fc	 and	 ecx, -4			; fffffffcH

; 260  :         if (_Bytes >= _Big_allocation_threshold) { // boost the alignment of big allocations to help autovectorization

  0003e	81 f9 00 10 00
	00		 cmp	 ecx, 4096		; 00001000H
  00044	72 12		 jb	 SHORT $LN43@CDynamicPo

; 158  :     const uintptr_t _Ptr_container   = _Ptr_user[-1];

  00046	8b 50 fc	 mov	 edx, DWORD PTR [eax-4]
  00049	83 c1 23	 add	 ecx, 35			; 00000023H

; 159  : 
; 160  :     // If the following asserts, it likely means that we are performing
; 161  :     // an aligned delete on memory coming from an unaligned allocation.
; 162  :     _STL_ASSERT(_Ptr_user[-2] == _Big_allocation_sentinel, "invalid argument");
; 163  : 
; 164  :     // Extra paranoia on aligned allocation/deallocation; ensure _Ptr_container is
; 165  :     // in range [_Min_back_shift, _Non_user_size]
; 166  : #ifdef _DEBUG
; 167  :     constexpr uintptr_t _Min_back_shift = 2 * sizeof(void*);
; 168  : #else // ^^^ _DEBUG ^^^ // vvv !_DEBUG vvv
; 169  :     constexpr uintptr_t _Min_back_shift = sizeof(void*);
; 170  : #endif // _DEBUG
; 171  :     const uintptr_t _Back_shift = reinterpret_cast<uintptr_t>(_Ptr) - _Ptr_container;

  0004c	2b c2		 sub	 eax, edx

; 172  :     _STL_VERIFY(_Back_shift >= _Min_back_shift && _Back_shift <= _Non_user_size, "invalid argument");

  0004e	83 c0 fc	 add	 eax, -4			; fffffffcH
  00051	83 f8 1f	 cmp	 eax, 31			; 0000001fH
  00054	77 6d		 ja	 SHORT $LN65@CDynamicPo

; 173  :     _Ptr = reinterpret_cast<void*>(_Ptr_container);

  00056	8b c2		 mov	 eax, edx
$LN43@CDynamicPo:

; 264  :         ::operator delete(_Ptr, _Bytes);

  00058	51		 push	 ecx
  00059	50		 push	 eax
  0005a	e8 00 00 00 00	 call	 ??3@YAXPAXI@Z		; operator delete
; File C:\Program Files (x86)\Microsoft Visual Studio\2019\Professional\VC\Tools\MSVC\14.29.30133\include\vector

; 1767 :             _Myfirst = nullptr;

  0005f	c7 47 10 00 00
	00 00		 mov	 DWORD PTR [edi+16], 0
; File C:\Program Files (x86)\Microsoft Visual Studio\2019\Professional\VC\Tools\MSVC\14.29.30133\include\xmemory

; 264  :         ::operator delete(_Ptr, _Bytes);

  00066	83 c4 08	 add	 esp, 8
; File C:\Program Files (x86)\Microsoft Visual Studio\2019\Professional\VC\Tools\MSVC\14.29.30133\include\vector

; 1768 :             _Mylast  = nullptr;

  00069	c7 47 14 00 00
	00 00		 mov	 DWORD PTR [edi+20], 0

; 1769 :             _Myend   = nullptr;

  00070	c7 47 18 00 00
	00 00		 mov	 DWORD PTR [edi+24], 0
$LN27@CDynamicPo:

; 1763 :         if (_Myfirst) { // destroy and deallocate old array

  00077	8b 47 04	 mov	 eax, DWORD PTR [edi+4]
  0007a	85 c0		 test	 eax, eax
  0007c	74 41		 je	 SHORT $LN52@CDynamicPo

; 1764 :             _Destroy(_Myfirst, _Mylast);
; 1765 :             _Getal().deallocate(_Myfirst, static_cast<size_type>(_Myend - _Myfirst));

  0007e	8b 4f 0c	 mov	 ecx, DWORD PTR [edi+12]
  00081	2b c8		 sub	 ecx, eax
; File C:\Program Files (x86)\Microsoft Visual Studio\2019\Professional\VC\Tools\MSVC\14.29.30133\include\xmemory

; 835  :         _Deallocate<_New_alignof<_Ty>>(_Ptr, sizeof(_Ty) * _Count);

  00083	83 e1 fc	 and	 ecx, -4			; fffffffcH

; 260  :         if (_Bytes >= _Big_allocation_threshold) { // boost the alignment of big allocations to help autovectorization

  00086	81 f9 00 10 00
	00		 cmp	 ecx, 4096		; 00001000H
  0008c	72 12		 jb	 SHORT $LN68@CDynamicPo

; 158  :     const uintptr_t _Ptr_container   = _Ptr_user[-1];

  0008e	8b 50 fc	 mov	 edx, DWORD PTR [eax-4]
  00091	83 c1 23	 add	 ecx, 35			; 00000023H

; 159  : 
; 160  :     // If the following asserts, it likely means that we are performing
; 161  :     // an aligned delete on memory coming from an unaligned allocation.
; 162  :     _STL_ASSERT(_Ptr_user[-2] == _Big_allocation_sentinel, "invalid argument");
; 163  : 
; 164  :     // Extra paranoia on aligned allocation/deallocation; ensure _Ptr_container is
; 165  :     // in range [_Min_back_shift, _Non_user_size]
; 166  : #ifdef _DEBUG
; 167  :     constexpr uintptr_t _Min_back_shift = 2 * sizeof(void*);
; 168  : #else // ^^^ _DEBUG ^^^ // vvv !_DEBUG vvv
; 169  :     constexpr uintptr_t _Min_back_shift = sizeof(void*);
; 170  : #endif // _DEBUG
; 171  :     const uintptr_t _Back_shift = reinterpret_cast<uintptr_t>(_Ptr) - _Ptr_container;

  00094	2b c2		 sub	 eax, edx

; 172  :     _STL_VERIFY(_Back_shift >= _Min_back_shift && _Back_shift <= _Non_user_size, "invalid argument");

  00096	83 c0 fc	 add	 eax, -4			; fffffffcH
  00099	83 f8 1f	 cmp	 eax, 31			; 0000001fH
  0009c	77 25		 ja	 SHORT $LN65@CDynamicPo

; 173  :     _Ptr = reinterpret_cast<void*>(_Ptr_container);

  0009e	8b c2		 mov	 eax, edx
$LN68@CDynamicPo:

; 264  :         ::operator delete(_Ptr, _Bytes);

  000a0	51		 push	 ecx
  000a1	50		 push	 eax
  000a2	e8 00 00 00 00	 call	 ??3@YAXPAXI@Z		; operator delete
; File C:\Program Files (x86)\Microsoft Visual Studio\2019\Professional\VC\Tools\MSVC\14.29.30133\include\vector

; 1767 :             _Myfirst = nullptr;

  000a7	c7 47 04 00 00
	00 00		 mov	 DWORD PTR [edi+4], 0
; File C:\Program Files (x86)\Microsoft Visual Studio\2019\Professional\VC\Tools\MSVC\14.29.30133\include\xmemory

; 264  :         ::operator delete(_Ptr, _Bytes);

  000ae	83 c4 08	 add	 esp, 8
; File C:\Program Files (x86)\Microsoft Visual Studio\2019\Professional\VC\Tools\MSVC\14.29.30133\include\vector

; 1768 :             _Mylast  = nullptr;

  000b1	c7 47 08 00 00
	00 00		 mov	 DWORD PTR [edi+8], 0

; 1769 :             _Myend   = nullptr;

  000b8	c7 47 0c 00 00
	00 00		 mov	 DWORD PTR [edi+12], 0
$LN52@CDynamicPo:
  000bf	5f		 pop	 edi
; File C:\Users\murat\Desktop\Siveps2-1-99-Project\source\client\Client\eterLib\Pool.h

; 142  : 		}

  000c0	5e		 pop	 esi
  000c1	5b		 pop	 ebx
  000c2	c3		 ret	 0
$LN65@CDynamicPo:
; File C:\Program Files (x86)\Microsoft Visual Studio\2019\Professional\VC\Tools\MSVC\14.29.30133\include\xmemory

; 172  :     _STL_VERIFY(_Back_shift >= _Min_back_shift && _Back_shift <= _Non_user_size, "invalid argument");

  000c3	e8 00 00 00 00	 call	 __invalid_parameter_noinfo_noreturn
$LN77@CDynamicPo:
  000c8	cc		 int	 3
??1?$CDynamicPoolEx@VCTextureAnimationCCWDecorator@NEffectUpdateDecorator@@@@UAE@XZ ENDP ; CDynamicPoolEx<NEffectUpdateDecorator::CTextureAnimationCCWDecorator>::~CDynamicPoolEx<NEffectUpdateDecorator::CTextureAnimationCCWDecorator>
_TEXT	ENDS
; Function compile flags: /Ogtp
;	COMDAT ??_G?$CDynamicPoolEx@VCTextureAnimationRandomDecorator@NEffectUpdateDecorator@@@@UAEPAXI@Z
_TEXT	SEGMENT
___flags$ = 8						; size = 4
??_G?$CDynamicPoolEx@VCTextureAnimationRandomDecorator@NEffectUpdateDecorator@@@@UAEPAXI@Z PROC ; CDynamicPoolEx<NEffectUpdateDecorator::CTextureAnimationRandomDecorator>::`scalar deleting destructor', COMDAT
; _this$ = ecx
  00000	55		 push	 ebp
  00001	8b ec		 mov	 ebp, esp
  00003	56		 push	 esi
  00004	8b f1		 mov	 esi, ecx
  00006	e8 00 00 00 00	 call	 ??1?$CDynamicPoolEx@VCTextureAnimationRandomDecorator@NEffectUpdateDecorator@@@@UAE@XZ ; CDynamicPoolEx<NEffectUpdateDecorator::CTextureAnimationRandomDecorator>::~CDynamicPoolEx<NEffectUpdateDecorator::CTextureAnimationRandomDecorator>
  0000b	f6 45 08 01	 test	 BYTE PTR ___flags$[ebp], 1
  0000f	74 0b		 je	 SHORT $LN4@scalar
  00011	6a 24		 push	 36			; 00000024H
  00013	56		 push	 esi
  00014	e8 00 00 00 00	 call	 ??3@YAXPAXI@Z		; operator delete
  00019	83 c4 08	 add	 esp, 8
$LN4@scalar:
  0001c	8b c6		 mov	 eax, esi
  0001e	5e		 pop	 esi
  0001f	5d		 pop	 ebp
  00020	c2 04 00	 ret	 4
??_G?$CDynamicPoolEx@VCTextureAnimationRandomDecorator@NEffectUpdateDecorator@@@@UAEPAXI@Z ENDP ; CDynamicPoolEx<NEffectUpdateDecorator::CTextureAnimationRandomDecorator>::`scalar deleting destructor'
_TEXT	ENDS
; Function compile flags: /Ogtp
; File C:\Users\murat\Desktop\Siveps2-1-99-Project\source\client\Client\eterLib\Pool.h
;	COMDAT ?Delete@?$CDynamicPoolEx@VCTextureAnimationRandomDecorator@NEffectUpdateDecorator@@@@KAXPAVCTextureAnimationRandomDecorator@NEffectUpdateDecorator@@@Z
_TEXT	SEGMENT
_pkData$ = 8						; size = 4
?Delete@?$CDynamicPoolEx@VCTextureAnimationRandomDecorator@NEffectUpdateDecorator@@@@KAXPAVCTextureAnimationRandomDecorator@NEffectUpdateDecorator@@@Z PROC ; CDynamicPoolEx<NEffectUpdateDecorator::CTextureAnimationRandomDecorator>::Delete, COMDAT

; 224  : 			::operator delete(pkData);

  00000	e9 00 00 00 00	 jmp	 ??3@YAXPAX@Z		; operator delete
?Delete@?$CDynamicPoolEx@VCTextureAnimationRandomDecorator@NEffectUpdateDecorator@@@@KAXPAVCTextureAnimationRandomDecorator@NEffectUpdateDecorator@@@Z ENDP ; CDynamicPoolEx<NEffectUpdateDecorator::CTextureAnimationRandomDecorator>::Delete
_TEXT	ENDS
; Function compile flags: /Ogtp
; File C:\Users\murat\Desktop\Siveps2-1-99-Project\source\client\Client\eterLib\Pool.h
; File C:\Program Files (x86)\Microsoft Visual Studio\2019\Professional\VC\Tools\MSVC\14.29.30133\include\vector
; File C:\Program Files (x86)\Microsoft Visual Studio\2019\Professional\VC\Tools\MSVC\14.29.30133\include\algorithm
; File C:\Users\murat\Desktop\Siveps2-1-99-Project\source\client\Client\eterLib\Pool.h
; File C:\Program Files (x86)\Microsoft Visual Studio\2019\Professional\VC\Tools\MSVC\14.29.30133\include\algorithm
; File C:\Users\murat\Desktop\Siveps2-1-99-Project\source\client\Client\eterLib\Pool.h
; File C:\Program Files (x86)\Microsoft Visual Studio\2019\Professional\VC\Tools\MSVC\14.29.30133\include\algorithm
; File C:\Users\murat\Desktop\Siveps2-1-99-Project\source\client\Client\eterLib\Pool.h
; File C:\Program Files (x86)\Microsoft Visual Studio\2019\Professional\VC\Tools\MSVC\14.29.30133\include\vector
; File C:\Program Files (x86)\Microsoft Visual Studio\2019\Professional\VC\Tools\MSVC\14.29.30133\include\xmemory
; File C:\Program Files (x86)\Microsoft Visual Studio\2019\Professional\VC\Tools\MSVC\14.29.30133\include\vector
; File C:\Program Files (x86)\Microsoft Visual Studio\2019\Professional\VC\Tools\MSVC\14.29.30133\include\xmemory
; File C:\Program Files (x86)\Microsoft Visual Studio\2019\Professional\VC\Tools\MSVC\14.29.30133\include\vector
; File C:\Program Files (x86)\Microsoft Visual Studio\2019\Professional\VC\Tools\MSVC\14.29.30133\include\xmemory
; File C:\Program Files (x86)\Microsoft Visual Studio\2019\Professional\VC\Tools\MSVC\14.29.30133\include\vector
; File C:\Program Files (x86)\Microsoft Visual Studio\2019\Professional\VC\Tools\MSVC\14.29.30133\include\xmemory
; File C:\Program Files (x86)\Microsoft Visual Studio\2019\Professional\VC\Tools\MSVC\14.29.30133\include\vector
; File C:\Users\murat\Desktop\Siveps2-1-99-Project\source\client\Client\eterLib\Pool.h
; File C:\Program Files (x86)\Microsoft Visual Studio\2019\Professional\VC\Tools\MSVC\14.29.30133\include\xmemory
; File C:\Users\murat\Desktop\Siveps2-1-99-Project\source\client\Client\eterLib\Pool.h
;	COMDAT ??1?$CDynamicPoolEx@VCTextureAnimationRandomDecorator@NEffectUpdateDecorator@@@@UAE@XZ
_TEXT	SEGMENT
??1?$CDynamicPoolEx@VCTextureAnimationRandomDecorator@NEffectUpdateDecorator@@@@UAE@XZ PROC ; CDynamicPoolEx<NEffectUpdateDecorator::CTextureAnimationRandomDecorator>::~CDynamicPoolEx<NEffectUpdateDecorator::CTextureAnimationRandomDecorator>, COMDAT
; _this$ = ecx

; 132  : 		{

  00000	53		 push	 ebx
  00001	56		 push	 esi
  00002	57		 push	 edi
  00003	8b f9		 mov	 edi, ecx
  00005	c7 07 00 00 00
	00		 mov	 DWORD PTR [edi], OFFSET ??_7?$CDynamicPoolEx@VCTextureAnimationRandomDecorator@NEffectUpdateDecorator@@@@6B@
; File C:\Program Files (x86)\Microsoft Visual Studio\2019\Professional\VC\Tools\MSVC\14.29.30133\include\vector

; 42   :     _CONSTEXPR20_CONTAINER _Vector_const_iterator(_Tptr _Parg, const _Container_base* _Pvector) noexcept : _Ptr(_Parg) {

  0000b	8b 5f 08	 mov	 ebx, DWORD PTR [edi+8]
  0000e	8b 77 04	 mov	 esi, DWORD PTR [edi+4]
; File C:\Program Files (x86)\Microsoft Visual Studio\2019\Professional\VC\Tools\MSVC\14.29.30133\include\algorithm

; 270  :     for (; _UFirst != _ULast; ++_UFirst) {

  00011	3b f3		 cmp	 esi, ebx
  00013	74 14		 je	 SHORT $LN19@CDynamicPo
$LL20@CDynamicPo:
; File C:\Users\murat\Desktop\Siveps2-1-99-Project\source\client\Client\eterLib\Pool.h

; 224  : 			::operator delete(pkData);

  00015	ff 36		 push	 DWORD PTR [esi]
  00017	e8 00 00 00 00	 call	 ??3@YAXPAX@Z		; operator delete
; File C:\Program Files (x86)\Microsoft Visual Studio\2019\Professional\VC\Tools\MSVC\14.29.30133\include\algorithm

; 270  :     for (; _UFirst != _ULast; ++_UFirst) {

  0001c	83 c6 04	 add	 esi, 4
; File C:\Users\murat\Desktop\Siveps2-1-99-Project\source\client\Client\eterLib\Pool.h

; 224  : 			::operator delete(pkData);

  0001f	83 c4 04	 add	 esp, 4
; File C:\Program Files (x86)\Microsoft Visual Studio\2019\Professional\VC\Tools\MSVC\14.29.30133\include\algorithm

; 270  :     for (; _UFirst != _ULast; ++_UFirst) {

  00022	3b f3		 cmp	 esi, ebx
  00024	75 ef		 jne	 SHORT $LL20@CDynamicPo
  00026	8b 77 04	 mov	 esi, DWORD PTR [edi+4]
$LN19@CDynamicPo:
; File C:\Users\murat\Desktop\Siveps2-1-99-Project\source\client\Client\eterLib\Pool.h

; 162  : 			m_kVct_pkFree.clear();

  00029	8b 47 10	 mov	 eax, DWORD PTR [edi+16]
  0002c	89 77 08	 mov	 DWORD PTR [edi+8], esi
  0002f	89 47 14	 mov	 DWORD PTR [edi+20], eax
; File C:\Program Files (x86)\Microsoft Visual Studio\2019\Professional\VC\Tools\MSVC\14.29.30133\include\vector

; 1763 :         if (_Myfirst) { // destroy and deallocate old array

  00032	85 c0		 test	 eax, eax
  00034	74 41		 je	 SHORT $LN27@CDynamicPo

; 1764 :             _Destroy(_Myfirst, _Mylast);
; 1765 :             _Getal().deallocate(_Myfirst, static_cast<size_type>(_Myend - _Myfirst));

  00036	8b 4f 18	 mov	 ecx, DWORD PTR [edi+24]
  00039	2b c8		 sub	 ecx, eax
; File C:\Program Files (x86)\Microsoft Visual Studio\2019\Professional\VC\Tools\MSVC\14.29.30133\include\xmemory

; 835  :         _Deallocate<_New_alignof<_Ty>>(_Ptr, sizeof(_Ty) * _Count);

  0003b	83 e1 fc	 and	 ecx, -4			; fffffffcH

; 260  :         if (_Bytes >= _Big_allocation_threshold) { // boost the alignment of big allocations to help autovectorization

  0003e	81 f9 00 10 00
	00		 cmp	 ecx, 4096		; 00001000H
  00044	72 12		 jb	 SHORT $LN43@CDynamicPo

; 158  :     const uintptr_t _Ptr_container   = _Ptr_user[-1];

  00046	8b 50 fc	 mov	 edx, DWORD PTR [eax-4]
  00049	83 c1 23	 add	 ecx, 35			; 00000023H

; 159  : 
; 160  :     // If the following asserts, it likely means that we are performing
; 161  :     // an aligned delete on memory coming from an unaligned allocation.
; 162  :     _STL_ASSERT(_Ptr_user[-2] == _Big_allocation_sentinel, "invalid argument");
; 163  : 
; 164  :     // Extra paranoia on aligned allocation/deallocation; ensure _Ptr_container is
; 165  :     // in range [_Min_back_shift, _Non_user_size]
; 166  : #ifdef _DEBUG
; 167  :     constexpr uintptr_t _Min_back_shift = 2 * sizeof(void*);
; 168  : #else // ^^^ _DEBUG ^^^ // vvv !_DEBUG vvv
; 169  :     constexpr uintptr_t _Min_back_shift = sizeof(void*);
; 170  : #endif // _DEBUG
; 171  :     const uintptr_t _Back_shift = reinterpret_cast<uintptr_t>(_Ptr) - _Ptr_container;

  0004c	2b c2		 sub	 eax, edx

; 172  :     _STL_VERIFY(_Back_shift >= _Min_back_shift && _Back_shift <= _Non_user_size, "invalid argument");

  0004e	83 c0 fc	 add	 eax, -4			; fffffffcH
  00051	83 f8 1f	 cmp	 eax, 31			; 0000001fH
  00054	77 6d		 ja	 SHORT $LN65@CDynamicPo

; 173  :     _Ptr = reinterpret_cast<void*>(_Ptr_container);

  00056	8b c2		 mov	 eax, edx
$LN43@CDynamicPo:

; 264  :         ::operator delete(_Ptr, _Bytes);

  00058	51		 push	 ecx
  00059	50		 push	 eax
  0005a	e8 00 00 00 00	 call	 ??3@YAXPAXI@Z		; operator delete
; File C:\Program Files (x86)\Microsoft Visual Studio\2019\Professional\VC\Tools\MSVC\14.29.30133\include\vector

; 1767 :             _Myfirst = nullptr;

  0005f	c7 47 10 00 00
	00 00		 mov	 DWORD PTR [edi+16], 0
; File C:\Program Files (x86)\Microsoft Visual Studio\2019\Professional\VC\Tools\MSVC\14.29.30133\include\xmemory

; 264  :         ::operator delete(_Ptr, _Bytes);

  00066	83 c4 08	 add	 esp, 8
; File C:\Program Files (x86)\Microsoft Visual Studio\2019\Professional\VC\Tools\MSVC\14.29.30133\include\vector

; 1768 :             _Mylast  = nullptr;

  00069	c7 47 14 00 00
	00 00		 mov	 DWORD PTR [edi+20], 0

; 1769 :             _Myend   = nullptr;

  00070	c7 47 18 00 00
	00 00		 mov	 DWORD PTR [edi+24], 0
$LN27@CDynamicPo:

; 1763 :         if (_Myfirst) { // destroy and deallocate old array

  00077	8b 47 04	 mov	 eax, DWORD PTR [edi+4]
  0007a	85 c0		 test	 eax, eax
  0007c	74 41		 je	 SHORT $LN52@CDynamicPo

; 1764 :             _Destroy(_Myfirst, _Mylast);
; 1765 :             _Getal().deallocate(_Myfirst, static_cast<size_type>(_Myend - _Myfirst));

  0007e	8b 4f 0c	 mov	 ecx, DWORD PTR [edi+12]
  00081	2b c8		 sub	 ecx, eax
; File C:\Program Files (x86)\Microsoft Visual Studio\2019\Professional\VC\Tools\MSVC\14.29.30133\include\xmemory

; 835  :         _Deallocate<_New_alignof<_Ty>>(_Ptr, sizeof(_Ty) * _Count);

  00083	83 e1 fc	 and	 ecx, -4			; fffffffcH

; 260  :         if (_Bytes >= _Big_allocation_threshold) { // boost the alignment of big allocations to help autovectorization

  00086	81 f9 00 10 00
	00		 cmp	 ecx, 4096		; 00001000H
  0008c	72 12		 jb	 SHORT $LN68@CDynamicPo

; 158  :     const uintptr_t _Ptr_container   = _Ptr_user[-1];

  0008e	8b 50 fc	 mov	 edx, DWORD PTR [eax-4]
  00091	83 c1 23	 add	 ecx, 35			; 00000023H

; 159  : 
; 160  :     // If the following asserts, it likely means that we are performing
; 161  :     // an aligned delete on memory coming from an unaligned allocation.
; 162  :     _STL_ASSERT(_Ptr_user[-2] == _Big_allocation_sentinel, "invalid argument");
; 163  : 
; 164  :     // Extra paranoia on aligned allocation/deallocation; ensure _Ptr_container is
; 165  :     // in range [_Min_back_shift, _Non_user_size]
; 166  : #ifdef _DEBUG
; 167  :     constexpr uintptr_t _Min_back_shift = 2 * sizeof(void*);
; 168  : #else // ^^^ _DEBUG ^^^ // vvv !_DEBUG vvv
; 169  :     constexpr uintptr_t _Min_back_shift = sizeof(void*);
; 170  : #endif // _DEBUG
; 171  :     const uintptr_t _Back_shift = reinterpret_cast<uintptr_t>(_Ptr) - _Ptr_container;

  00094	2b c2		 sub	 eax, edx

; 172  :     _STL_VERIFY(_Back_shift >= _Min_back_shift && _Back_shift <= _Non_user_size, "invalid argument");

  00096	83 c0 fc	 add	 eax, -4			; fffffffcH
  00099	83 f8 1f	 cmp	 eax, 31			; 0000001fH
  0009c	77 25		 ja	 SHORT $LN65@CDynamicPo

; 173  :     _Ptr = reinterpret_cast<void*>(_Ptr_container);

  0009e	8b c2		 mov	 eax, edx
$LN68@CDynamicPo:

; 264  :         ::operator delete(_Ptr, _Bytes);

  000a0	51		 push	 ecx
  000a1	50		 push	 eax
  000a2	e8 00 00 00 00	 call	 ??3@YAXPAXI@Z		; operator delete
; File C:\Program Files (x86)\Microsoft Visual Studio\2019\Professional\VC\Tools\MSVC\14.29.30133\include\vector

; 1767 :             _Myfirst = nullptr;

  000a7	c7 47 04 00 00
	00 00		 mov	 DWORD PTR [edi+4], 0
; File C:\Program Files (x86)\Microsoft Visual Studio\2019\Professional\VC\Tools\MSVC\14.29.30133\include\xmemory

; 264  :         ::operator delete(_Ptr, _Bytes);

  000ae	83 c4 08	 add	 esp, 8
; File C:\Program Files (x86)\Microsoft Visual Studio\2019\Professional\VC\Tools\MSVC\14.29.30133\include\vector

; 1768 :             _Mylast  = nullptr;

  000b1	c7 47 08 00 00
	00 00		 mov	 DWORD PTR [edi+8], 0

; 1769 :             _Myend   = nullptr;

  000b8	c7 47 0c 00 00
	00 00		 mov	 DWORD PTR [edi+12], 0
$LN52@CDynamicPo:
  000bf	5f		 pop	 edi
; File C:\Users\murat\Desktop\Siveps2-1-99-Project\source\client\Client\eterLib\Pool.h

; 142  : 		}

  000c0	5e		 pop	 esi
  000c1	5b		 pop	 ebx
  000c2	c3		 ret	 0
$LN65@CDynamicPo:
; File C:\Program Files (x86)\Microsoft Visual Studio\2019\Professional\VC\Tools\MSVC\14.29.30133\include\xmemory

; 172  :     _STL_VERIFY(_Back_shift >= _Min_back_shift && _Back_shift <= _Non_user_size, "invalid argument");

  000c3	e8 00 00 00 00	 call	 __invalid_parameter_noinfo_noreturn
$LN77@CDynamicPo:
  000c8	cc		 int	 3
??1?$CDynamicPoolEx@VCTextureAnimationRandomDecorator@NEffectUpdateDecorator@@@@UAE@XZ ENDP ; CDynamicPoolEx<NEffectUpdateDecorator::CTextureAnimationRandomDecorator>::~CDynamicPoolEx<NEffectUpdateDecorator::CTextureAnimationRandomDecorator>
_TEXT	ENDS
; Function compile flags: /Ogtp
;	COMDAT ??_G?$CDynamicPoolEx@VCAirResistanceDecorator@NEffectUpdateDecorator@@@@UAEPAXI@Z
_TEXT	SEGMENT
___flags$ = 8						; size = 4
??_G?$CDynamicPoolEx@VCAirResistanceDecorator@NEffectUpdateDecorator@@@@UAEPAXI@Z PROC ; CDynamicPoolEx<NEffectUpdateDecorator::CAirResistanceDecorator>::`scalar deleting destructor', COMDAT
; _this$ = ecx
  00000	55		 push	 ebp
  00001	8b ec		 mov	 ebp, esp
  00003	56		 push	 esi
  00004	8b f1		 mov	 esi, ecx
  00006	e8 00 00 00 00	 call	 ??1?$CDynamicPoolEx@VCAirResistanceDecorator@NEffectUpdateDecorator@@@@UAE@XZ ; CDynamicPoolEx<NEffectUpdateDecorator::CAirResistanceDecorator>::~CDynamicPoolEx<NEffectUpdateDecorator::CAirResistanceDecorator>
  0000b	f6 45 08 01	 test	 BYTE PTR ___flags$[ebp], 1
  0000f	74 0b		 je	 SHORT $LN4@scalar
  00011	6a 24		 push	 36			; 00000024H
  00013	56		 push	 esi
  00014	e8 00 00 00 00	 call	 ??3@YAXPAXI@Z		; operator delete
  00019	83 c4 08	 add	 esp, 8
$LN4@scalar:
  0001c	8b c6		 mov	 eax, esi
  0001e	5e		 pop	 esi
  0001f	5d		 pop	 ebp
  00020	c2 04 00	 ret	 4
??_G?$CDynamicPoolEx@VCAirResistanceDecorator@NEffectUpdateDecorator@@@@UAEPAXI@Z ENDP ; CDynamicPoolEx<NEffectUpdateDecorator::CAirResistanceDecorator>::`scalar deleting destructor'
_TEXT	ENDS
; Function compile flags: /Ogtp
; File C:\Users\murat\Desktop\Siveps2-1-99-Project\source\client\Client\eterLib\Pool.h
;	COMDAT ?Delete@?$CDynamicPoolEx@VCAirResistanceDecorator@NEffectUpdateDecorator@@@@KAXPAVCAirResistanceDecorator@NEffectUpdateDecorator@@@Z
_TEXT	SEGMENT
_pkData$ = 8						; size = 4
?Delete@?$CDynamicPoolEx@VCAirResistanceDecorator@NEffectUpdateDecorator@@@@KAXPAVCAirResistanceDecorator@NEffectUpdateDecorator@@@Z PROC ; CDynamicPoolEx<NEffectUpdateDecorator::CAirResistanceDecorator>::Delete, COMDAT

; 224  : 			::operator delete(pkData);

  00000	e9 00 00 00 00	 jmp	 ??3@YAXPAX@Z		; operator delete
?Delete@?$CDynamicPoolEx@VCAirResistanceDecorator@NEffectUpdateDecorator@@@@KAXPAVCAirResistanceDecorator@NEffectUpdateDecorator@@@Z ENDP ; CDynamicPoolEx<NEffectUpdateDecorator::CAirResistanceDecorator>::Delete
_TEXT	ENDS
; Function compile flags: /Ogtp
; File C:\Users\murat\Desktop\Siveps2-1-99-Project\source\client\Client\eterLib\Pool.h
; File C:\Program Files (x86)\Microsoft Visual Studio\2019\Professional\VC\Tools\MSVC\14.29.30133\include\vector
; File C:\Program Files (x86)\Microsoft Visual Studio\2019\Professional\VC\Tools\MSVC\14.29.30133\include\algorithm
; File C:\Users\murat\Desktop\Siveps2-1-99-Project\source\client\Client\eterLib\Pool.h
; File C:\Program Files (x86)\Microsoft Visual Studio\2019\Professional\VC\Tools\MSVC\14.29.30133\include\algorithm
; File C:\Users\murat\Desktop\Siveps2-1-99-Project\source\client\Client\eterLib\Pool.h
; File C:\Program Files (x86)\Microsoft Visual Studio\2019\Professional\VC\Tools\MSVC\14.29.30133\include\algorithm
; File C:\Users\murat\Desktop\Siveps2-1-99-Project\source\client\Client\eterLib\Pool.h
; File C:\Program Files (x86)\Microsoft Visual Studio\2019\Professional\VC\Tools\MSVC\14.29.30133\include\vector
; File C:\Program Files (x86)\Microsoft Visual Studio\2019\Professional\VC\Tools\MSVC\14.29.30133\include\xmemory
; File C:\Program Files (x86)\Microsoft Visual Studio\2019\Professional\VC\Tools\MSVC\14.29.30133\include\vector
; File C:\Program Files (x86)\Microsoft Visual Studio\2019\Professional\VC\Tools\MSVC\14.29.30133\include\xmemory
; File C:\Program Files (x86)\Microsoft Visual Studio\2019\Professional\VC\Tools\MSVC\14.29.30133\include\vector
; File C:\Program Files (x86)\Microsoft Visual Studio\2019\Professional\VC\Tools\MSVC\14.29.30133\include\xmemory
; File C:\Program Files (x86)\Microsoft Visual Studio\2019\Professional\VC\Tools\MSVC\14.29.30133\include\vector
; File C:\Program Files (x86)\Microsoft Visual Studio\2019\Professional\VC\Tools\MSVC\14.29.30133\include\xmemory
; File C:\Program Files (x86)\Microsoft Visual Studio\2019\Professional\VC\Tools\MSVC\14.29.30133\include\vector
; File C:\Users\murat\Desktop\Siveps2-1-99-Project\source\client\Client\eterLib\Pool.h
; File C:\Program Files (x86)\Microsoft Visual Studio\2019\Professional\VC\Tools\MSVC\14.29.30133\include\xmemory
; File C:\Users\murat\Desktop\Siveps2-1-99-Project\source\client\Client\eterLib\Pool.h
;	COMDAT ??1?$CDynamicPoolEx@VCAirResistanceDecorator@NEffectUpdateDecorator@@@@UAE@XZ
_TEXT	SEGMENT
??1?$CDynamicPoolEx@VCAirResistanceDecorator@NEffectUpdateDecorator@@@@UAE@XZ PROC ; CDynamicPoolEx<NEffectUpdateDecorator::CAirResistanceDecorator>::~CDynamicPoolEx<NEffectUpdateDecorator::CAirResistanceDecorator>, COMDAT
; _this$ = ecx

; 132  : 		{

  00000	53		 push	 ebx
  00001	56		 push	 esi
  00002	57		 push	 edi
  00003	8b f9		 mov	 edi, ecx
  00005	c7 07 00 00 00
	00		 mov	 DWORD PTR [edi], OFFSET ??_7?$CDynamicPoolEx@VCAirResistanceDecorator@NEffectUpdateDecorator@@@@6B@
; File C:\Program Files (x86)\Microsoft Visual Studio\2019\Professional\VC\Tools\MSVC\14.29.30133\include\vector

; 42   :     _CONSTEXPR20_CONTAINER _Vector_const_iterator(_Tptr _Parg, const _Container_base* _Pvector) noexcept : _Ptr(_Parg) {

  0000b	8b 5f 08	 mov	 ebx, DWORD PTR [edi+8]
  0000e	8b 77 04	 mov	 esi, DWORD PTR [edi+4]
; File C:\Program Files (x86)\Microsoft Visual Studio\2019\Professional\VC\Tools\MSVC\14.29.30133\include\algorithm

; 270  :     for (; _UFirst != _ULast; ++_UFirst) {

  00011	3b f3		 cmp	 esi, ebx
  00013	74 14		 je	 SHORT $LN19@CDynamicPo
$LL20@CDynamicPo:
; File C:\Users\murat\Desktop\Siveps2-1-99-Project\source\client\Client\eterLib\Pool.h

; 224  : 			::operator delete(pkData);

  00015	ff 36		 push	 DWORD PTR [esi]
  00017	e8 00 00 00 00	 call	 ??3@YAXPAX@Z		; operator delete
; File C:\Program Files (x86)\Microsoft Visual Studio\2019\Professional\VC\Tools\MSVC\14.29.30133\include\algorithm

; 270  :     for (; _UFirst != _ULast; ++_UFirst) {

  0001c	83 c6 04	 add	 esi, 4
; File C:\Users\murat\Desktop\Siveps2-1-99-Project\source\client\Client\eterLib\Pool.h

; 224  : 			::operator delete(pkData);

  0001f	83 c4 04	 add	 esp, 4
; File C:\Program Files (x86)\Microsoft Visual Studio\2019\Professional\VC\Tools\MSVC\14.29.30133\include\algorithm

; 270  :     for (; _UFirst != _ULast; ++_UFirst) {

  00022	3b f3		 cmp	 esi, ebx
  00024	75 ef		 jne	 SHORT $LL20@CDynamicPo
  00026	8b 77 04	 mov	 esi, DWORD PTR [edi+4]
$LN19@CDynamicPo:
; File C:\Users\murat\Desktop\Siveps2-1-99-Project\source\client\Client\eterLib\Pool.h

; 162  : 			m_kVct_pkFree.clear();

  00029	8b 47 10	 mov	 eax, DWORD PTR [edi+16]
  0002c	89 77 08	 mov	 DWORD PTR [edi+8], esi
  0002f	89 47 14	 mov	 DWORD PTR [edi+20], eax
; File C:\Program Files (x86)\Microsoft Visual Studio\2019\Professional\VC\Tools\MSVC\14.29.30133\include\vector

; 1763 :         if (_Myfirst) { // destroy and deallocate old array

  00032	85 c0		 test	 eax, eax
  00034	74 41		 je	 SHORT $LN27@CDynamicPo

; 1764 :             _Destroy(_Myfirst, _Mylast);
; 1765 :             _Getal().deallocate(_Myfirst, static_cast<size_type>(_Myend - _Myfirst));

  00036	8b 4f 18	 mov	 ecx, DWORD PTR [edi+24]
  00039	2b c8		 sub	 ecx, eax
; File C:\Program Files (x86)\Microsoft Visual Studio\2019\Professional\VC\Tools\MSVC\14.29.30133\include\xmemory

; 835  :         _Deallocate<_New_alignof<_Ty>>(_Ptr, sizeof(_Ty) * _Count);

  0003b	83 e1 fc	 and	 ecx, -4			; fffffffcH

; 260  :         if (_Bytes >= _Big_allocation_threshold) { // boost the alignment of big allocations to help autovectorization

  0003e	81 f9 00 10 00
	00		 cmp	 ecx, 4096		; 00001000H
  00044	72 12		 jb	 SHORT $LN43@CDynamicPo

; 158  :     const uintptr_t _Ptr_container   = _Ptr_user[-1];

  00046	8b 50 fc	 mov	 edx, DWORD PTR [eax-4]
  00049	83 c1 23	 add	 ecx, 35			; 00000023H

; 159  : 
; 160  :     // If the following asserts, it likely means that we are performing
; 161  :     // an aligned delete on memory coming from an unaligned allocation.
; 162  :     _STL_ASSERT(_Ptr_user[-2] == _Big_allocation_sentinel, "invalid argument");
; 163  : 
; 164  :     // Extra paranoia on aligned allocation/deallocation; ensure _Ptr_container is
; 165  :     // in range [_Min_back_shift, _Non_user_size]
; 166  : #ifdef _DEBUG
; 167  :     constexpr uintptr_t _Min_back_shift = 2 * sizeof(void*);
; 168  : #else // ^^^ _DEBUG ^^^ // vvv !_DEBUG vvv
; 169  :     constexpr uintptr_t _Min_back_shift = sizeof(void*);
; 170  : #endif // _DEBUG
; 171  :     const uintptr_t _Back_shift = reinterpret_cast<uintptr_t>(_Ptr) - _Ptr_container;

  0004c	2b c2		 sub	 eax, edx

; 172  :     _STL_VERIFY(_Back_shift >= _Min_back_shift && _Back_shift <= _Non_user_size, "invalid argument");

  0004e	83 c0 fc	 add	 eax, -4			; fffffffcH
  00051	83 f8 1f	 cmp	 eax, 31			; 0000001fH
  00054	77 6d		 ja	 SHORT $LN65@CDynamicPo

; 173  :     _Ptr = reinterpret_cast<void*>(_Ptr_container);

  00056	8b c2		 mov	 eax, edx
$LN43@CDynamicPo:

; 264  :         ::operator delete(_Ptr, _Bytes);

  00058	51		 push	 ecx
  00059	50		 push	 eax
  0005a	e8 00 00 00 00	 call	 ??3@YAXPAXI@Z		; operator delete
; File C:\Program Files (x86)\Microsoft Visual Studio\2019\Professional\VC\Tools\MSVC\14.29.30133\include\vector

; 1767 :             _Myfirst = nullptr;

  0005f	c7 47 10 00 00
	00 00		 mov	 DWORD PTR [edi+16], 0
; File C:\Program Files (x86)\Microsoft Visual Studio\2019\Professional\VC\Tools\MSVC\14.29.30133\include\xmemory

; 264  :         ::operator delete(_Ptr, _Bytes);

  00066	83 c4 08	 add	 esp, 8
; File C:\Program Files (x86)\Microsoft Visual Studio\2019\Professional\VC\Tools\MSVC\14.29.30133\include\vector

; 1768 :             _Mylast  = nullptr;

  00069	c7 47 14 00 00
	00 00		 mov	 DWORD PTR [edi+20], 0

; 1769 :             _Myend   = nullptr;

  00070	c7 47 18 00 00
	00 00		 mov	 DWORD PTR [edi+24], 0
$LN27@CDynamicPo:

; 1763 :         if (_Myfirst) { // destroy and deallocate old array

  00077	8b 47 04	 mov	 eax, DWORD PTR [edi+4]
  0007a	85 c0		 test	 eax, eax
  0007c	74 41		 je	 SHORT $LN52@CDynamicPo

; 1764 :             _Destroy(_Myfirst, _Mylast);
; 1765 :             _Getal().deallocate(_Myfirst, static_cast<size_type>(_Myend - _Myfirst));

  0007e	8b 4f 0c	 mov	 ecx, DWORD PTR [edi+12]
  00081	2b c8		 sub	 ecx, eax
; File C:\Program Files (x86)\Microsoft Visual Studio\2019\Professional\VC\Tools\MSVC\14.29.30133\include\xmemory

; 835  :         _Deallocate<_New_alignof<_Ty>>(_Ptr, sizeof(_Ty) * _Count);

  00083	83 e1 fc	 and	 ecx, -4			; fffffffcH

; 260  :         if (_Bytes >= _Big_allocation_threshold) { // boost the alignment of big allocations to help autovectorization

  00086	81 f9 00 10 00
	00		 cmp	 ecx, 4096		; 00001000H
  0008c	72 12		 jb	 SHORT $LN68@CDynamicPo

; 158  :     const uintptr_t _Ptr_container   = _Ptr_user[-1];

  0008e	8b 50 fc	 mov	 edx, DWORD PTR [eax-4]
  00091	83 c1 23	 add	 ecx, 35			; 00000023H

; 159  : 
; 160  :     // If the following asserts, it likely means that we are performing
; 161  :     // an aligned delete on memory coming from an unaligned allocation.
; 162  :     _STL_ASSERT(_Ptr_user[-2] == _Big_allocation_sentinel, "invalid argument");
; 163  : 
; 164  :     // Extra paranoia on aligned allocation/deallocation; ensure _Ptr_container is
; 165  :     // in range [_Min_back_shift, _Non_user_size]
; 166  : #ifdef _DEBUG
; 167  :     constexpr uintptr_t _Min_back_shift = 2 * sizeof(void*);
; 168  : #else // ^^^ _DEBUG ^^^ // vvv !_DEBUG vvv
; 169  :     constexpr uintptr_t _Min_back_shift = sizeof(void*);
; 170  : #endif // _DEBUG
; 171  :     const uintptr_t _Back_shift = reinterpret_cast<uintptr_t>(_Ptr) - _Ptr_container;

  00094	2b c2		 sub	 eax, edx

; 172  :     _STL_VERIFY(_Back_shift >= _Min_back_shift && _Back_shift <= _Non_user_size, "invalid argument");

  00096	83 c0 fc	 add	 eax, -4			; fffffffcH
  00099	83 f8 1f	 cmp	 eax, 31			; 0000001fH
  0009c	77 25		 ja	 SHORT $LN65@CDynamicPo

; 173  :     _Ptr = reinterpret_cast<void*>(_Ptr_container);

  0009e	8b c2		 mov	 eax, edx
$LN68@CDynamicPo:

; 264  :         ::operator delete(_Ptr, _Bytes);

  000a0	51		 push	 ecx
  000a1	50		 push	 eax
  000a2	e8 00 00 00 00	 call	 ??3@YAXPAXI@Z		; operator delete
; File C:\Program Files (x86)\Microsoft Visual Studio\2019\Professional\VC\Tools\MSVC\14.29.30133\include\vector

; 1767 :             _Myfirst = nullptr;

  000a7	c7 47 04 00 00
	00 00		 mov	 DWORD PTR [edi+4], 0
; File C:\Program Files (x86)\Microsoft Visual Studio\2019\Professional\VC\Tools\MSVC\14.29.30133\include\xmemory

; 264  :         ::operator delete(_Ptr, _Bytes);

  000ae	83 c4 08	 add	 esp, 8
; File C:\Program Files (x86)\Microsoft Visual Studio\2019\Professional\VC\Tools\MSVC\14.29.30133\include\vector

; 1768 :             _Mylast  = nullptr;

  000b1	c7 47 08 00 00
	00 00		 mov	 DWORD PTR [edi+8], 0

; 1769 :             _Myend   = nullptr;

  000b8	c7 47 0c 00 00
	00 00		 mov	 DWORD PTR [edi+12], 0
$LN52@CDynamicPo:
  000bf	5f		 pop	 edi
; File C:\Users\murat\Desktop\Siveps2-1-99-Project\source\client\Client\eterLib\Pool.h

; 142  : 		}

  000c0	5e		 pop	 esi
  000c1	5b		 pop	 ebx
  000c2	c3		 ret	 0
$LN65@CDynamicPo:
; File C:\Program Files (x86)\Microsoft Visual Studio\2019\Professional\VC\Tools\MSVC\14.29.30133\include\xmemory

; 172  :     _STL_VERIFY(_Back_shift >= _Min_back_shift && _Back_shift <= _Non_user_size, "invalid argument");

  000c3	e8 00 00 00 00	 call	 __invalid_parameter_noinfo_noreturn
$LN77@CDynamicPo:
  000c8	cc		 int	 3
??1?$CDynamicPoolEx@VCAirResistanceDecorator@NEffectUpdateDecorator@@@@UAE@XZ ENDP ; CDynamicPoolEx<NEffectUpdateDecorator::CAirResistanceDecorator>::~CDynamicPoolEx<NEffectUpdateDecorator::CAirResistanceDecorator>
_TEXT	ENDS
; Function compile flags: /Ogtp
;	COMDAT ??_G?$CDynamicPoolEx@VCGravityDecorator@NEffectUpdateDecorator@@@@UAEPAXI@Z
_TEXT	SEGMENT
___flags$ = 8						; size = 4
??_G?$CDynamicPoolEx@VCGravityDecorator@NEffectUpdateDecorator@@@@UAEPAXI@Z PROC ; CDynamicPoolEx<NEffectUpdateDecorator::CGravityDecorator>::`scalar deleting destructor', COMDAT
; _this$ = ecx
  00000	55		 push	 ebp
  00001	8b ec		 mov	 ebp, esp
  00003	56		 push	 esi
  00004	8b f1		 mov	 esi, ecx
  00006	e8 00 00 00 00	 call	 ??1?$CDynamicPoolEx@VCGravityDecorator@NEffectUpdateDecorator@@@@UAE@XZ ; CDynamicPoolEx<NEffectUpdateDecorator::CGravityDecorator>::~CDynamicPoolEx<NEffectUpdateDecorator::CGravityDecorator>
  0000b	f6 45 08 01	 test	 BYTE PTR ___flags$[ebp], 1
  0000f	74 0b		 je	 SHORT $LN4@scalar
  00011	6a 24		 push	 36			; 00000024H
  00013	56		 push	 esi
  00014	e8 00 00 00 00	 call	 ??3@YAXPAXI@Z		; operator delete
  00019	83 c4 08	 add	 esp, 8
$LN4@scalar:
  0001c	8b c6		 mov	 eax, esi
  0001e	5e		 pop	 esi
  0001f	5d		 pop	 ebp
  00020	c2 04 00	 ret	 4
??_G?$CDynamicPoolEx@VCGravityDecorator@NEffectUpdateDecorator@@@@UAEPAXI@Z ENDP ; CDynamicPoolEx<NEffectUpdateDecorator::CGravityDecorator>::`scalar deleting destructor'
_TEXT	ENDS
; Function compile flags: /Ogtp
; File C:\Users\murat\Desktop\Siveps2-1-99-Project\source\client\Client\eterLib\Pool.h
;	COMDAT ?Delete@?$CDynamicPoolEx@VCGravityDecorator@NEffectUpdateDecorator@@@@KAXPAVCGravityDecorator@NEffectUpdateDecorator@@@Z
_TEXT	SEGMENT
_pkData$ = 8						; size = 4
?Delete@?$CDynamicPoolEx@VCGravityDecorator@NEffectUpdateDecorator@@@@KAXPAVCGravityDecorator@NEffectUpdateDecorator@@@Z PROC ; CDynamicPoolEx<NEffectUpdateDecorator::CGravityDecorator>::Delete, COMDAT

; 224  : 			::operator delete(pkData);

  00000	e9 00 00 00 00	 jmp	 ??3@YAXPAX@Z		; operator delete
?Delete@?$CDynamicPoolEx@VCGravityDecorator@NEffectUpdateDecorator@@@@KAXPAVCGravityDecorator@NEffectUpdateDecorator@@@Z ENDP ; CDynamicPoolEx<NEffectUpdateDecorator::CGravityDecorator>::Delete
_TEXT	ENDS
; Function compile flags: /Ogtp
; File C:\Users\murat\Desktop\Siveps2-1-99-Project\source\client\Client\eterLib\Pool.h
; File C:\Program Files (x86)\Microsoft Visual Studio\2019\Professional\VC\Tools\MSVC\14.29.30133\include\vector
; File C:\Program Files (x86)\Microsoft Visual Studio\2019\Professional\VC\Tools\MSVC\14.29.30133\include\algorithm
; File C:\Users\murat\Desktop\Siveps2-1-99-Project\source\client\Client\eterLib\Pool.h
; File C:\Program Files (x86)\Microsoft Visual Studio\2019\Professional\VC\Tools\MSVC\14.29.30133\include\algorithm
; File C:\Users\murat\Desktop\Siveps2-1-99-Project\source\client\Client\eterLib\Pool.h
; File C:\Program Files (x86)\Microsoft Visual Studio\2019\Professional\VC\Tools\MSVC\14.29.30133\include\algorithm
; File C:\Users\murat\Desktop\Siveps2-1-99-Project\source\client\Client\eterLib\Pool.h
; File C:\Program Files (x86)\Microsoft Visual Studio\2019\Professional\VC\Tools\MSVC\14.29.30133\include\vector
; File C:\Program Files (x86)\Microsoft Visual Studio\2019\Professional\VC\Tools\MSVC\14.29.30133\include\xmemory
; File C:\Program Files (x86)\Microsoft Visual Studio\2019\Professional\VC\Tools\MSVC\14.29.30133\include\vector
; File C:\Program Files (x86)\Microsoft Visual Studio\2019\Professional\VC\Tools\MSVC\14.29.30133\include\xmemory
; File C:\Program Files (x86)\Microsoft Visual Studio\2019\Professional\VC\Tools\MSVC\14.29.30133\include\vector
; File C:\Program Files (x86)\Microsoft Visual Studio\2019\Professional\VC\Tools\MSVC\14.29.30133\include\xmemory
; File C:\Program Files (x86)\Microsoft Visual Studio\2019\Professional\VC\Tools\MSVC\14.29.30133\include\vector
; File C:\Program Files (x86)\Microsoft Visual Studio\2019\Professional\VC\Tools\MSVC\14.29.30133\include\xmemory
; File C:\Program Files (x86)\Microsoft Visual Studio\2019\Professional\VC\Tools\MSVC\14.29.30133\include\vector
; File C:\Users\murat\Desktop\Siveps2-1-99-Project\source\client\Client\eterLib\Pool.h
; File C:\Program Files (x86)\Microsoft Visual Studio\2019\Professional\VC\Tools\MSVC\14.29.30133\include\xmemory
; File C:\Users\murat\Desktop\Siveps2-1-99-Project\source\client\Client\eterLib\Pool.h
;	COMDAT ??1?$CDynamicPoolEx@VCGravityDecorator@NEffectUpdateDecorator@@@@UAE@XZ
_TEXT	SEGMENT
??1?$CDynamicPoolEx@VCGravityDecorator@NEffectUpdateDecorator@@@@UAE@XZ PROC ; CDynamicPoolEx<NEffectUpdateDecorator::CGravityDecorator>::~CDynamicPoolEx<NEffectUpdateDecorator::CGravityDecorator>, COMDAT
; _this$ = ecx

; 132  : 		{

  00000	53		 push	 ebx
  00001	56		 push	 esi
  00002	57		 push	 edi
  00003	8b f9		 mov	 edi, ecx
  00005	c7 07 00 00 00
	00		 mov	 DWORD PTR [edi], OFFSET ??_7?$CDynamicPoolEx@VCGravityDecorator@NEffectUpdateDecorator@@@@6B@
; File C:\Program Files (x86)\Microsoft Visual Studio\2019\Professional\VC\Tools\MSVC\14.29.30133\include\vector

; 42   :     _CONSTEXPR20_CONTAINER _Vector_const_iterator(_Tptr _Parg, const _Container_base* _Pvector) noexcept : _Ptr(_Parg) {

  0000b	8b 5f 08	 mov	 ebx, DWORD PTR [edi+8]
  0000e	8b 77 04	 mov	 esi, DWORD PTR [edi+4]
; File C:\Program Files (x86)\Microsoft Visual Studio\2019\Professional\VC\Tools\MSVC\14.29.30133\include\algorithm

; 270  :     for (; _UFirst != _ULast; ++_UFirst) {

  00011	3b f3		 cmp	 esi, ebx
  00013	74 14		 je	 SHORT $LN19@CDynamicPo
$LL20@CDynamicPo:
; File C:\Users\murat\Desktop\Siveps2-1-99-Project\source\client\Client\eterLib\Pool.h

; 224  : 			::operator delete(pkData);

  00015	ff 36		 push	 DWORD PTR [esi]
  00017	e8 00 00 00 00	 call	 ??3@YAXPAX@Z		; operator delete
; File C:\Program Files (x86)\Microsoft Visual Studio\2019\Professional\VC\Tools\MSVC\14.29.30133\include\algorithm

; 270  :     for (; _UFirst != _ULast; ++_UFirst) {

  0001c	83 c6 04	 add	 esi, 4
; File C:\Users\murat\Desktop\Siveps2-1-99-Project\source\client\Client\eterLib\Pool.h

; 224  : 			::operator delete(pkData);

  0001f	83 c4 04	 add	 esp, 4
; File C:\Program Files (x86)\Microsoft Visual Studio\2019\Professional\VC\Tools\MSVC\14.29.30133\include\algorithm

; 270  :     for (; _UFirst != _ULast; ++_UFirst) {

  00022	3b f3		 cmp	 esi, ebx
  00024	75 ef		 jne	 SHORT $LL20@CDynamicPo
  00026	8b 77 04	 mov	 esi, DWORD PTR [edi+4]
$LN19@CDynamicPo:
; File C:\Users\murat\Desktop\Siveps2-1-99-Project\source\client\Client\eterLib\Pool.h

; 162  : 			m_kVct_pkFree.clear();

  00029	8b 47 10	 mov	 eax, DWORD PTR [edi+16]
  0002c	89 77 08	 mov	 DWORD PTR [edi+8], esi
  0002f	89 47 14	 mov	 DWORD PTR [edi+20], eax
; File C:\Program Files (x86)\Microsoft Visual Studio\2019\Professional\VC\Tools\MSVC\14.29.30133\include\vector

; 1763 :         if (_Myfirst) { // destroy and deallocate old array

  00032	85 c0		 test	 eax, eax
  00034	74 41		 je	 SHORT $LN27@CDynamicPo

; 1764 :             _Destroy(_Myfirst, _Mylast);
; 1765 :             _Getal().deallocate(_Myfirst, static_cast<size_type>(_Myend - _Myfirst));

  00036	8b 4f 18	 mov	 ecx, DWORD PTR [edi+24]
  00039	2b c8		 sub	 ecx, eax
; File C:\Program Files (x86)\Microsoft Visual Studio\2019\Professional\VC\Tools\MSVC\14.29.30133\include\xmemory

; 835  :         _Deallocate<_New_alignof<_Ty>>(_Ptr, sizeof(_Ty) * _Count);

  0003b	83 e1 fc	 and	 ecx, -4			; fffffffcH

; 260  :         if (_Bytes >= _Big_allocation_threshold) { // boost the alignment of big allocations to help autovectorization

  0003e	81 f9 00 10 00
	00		 cmp	 ecx, 4096		; 00001000H
  00044	72 12		 jb	 SHORT $LN43@CDynamicPo

; 158  :     const uintptr_t _Ptr_container   = _Ptr_user[-1];

  00046	8b 50 fc	 mov	 edx, DWORD PTR [eax-4]
  00049	83 c1 23	 add	 ecx, 35			; 00000023H

; 159  : 
; 160  :     // If the following asserts, it likely means that we are performing
; 161  :     // an aligned delete on memory coming from an unaligned allocation.
; 162  :     _STL_ASSERT(_Ptr_user[-2] == _Big_allocation_sentinel, "invalid argument");
; 163  : 
; 164  :     // Extra paranoia on aligned allocation/deallocation; ensure _Ptr_container is
; 165  :     // in range [_Min_back_shift, _Non_user_size]
; 166  : #ifdef _DEBUG
; 167  :     constexpr uintptr_t _Min_back_shift = 2 * sizeof(void*);
; 168  : #else // ^^^ _DEBUG ^^^ // vvv !_DEBUG vvv
; 169  :     constexpr uintptr_t _Min_back_shift = sizeof(void*);
; 170  : #endif // _DEBUG
; 171  :     const uintptr_t _Back_shift = reinterpret_cast<uintptr_t>(_Ptr) - _Ptr_container;

  0004c	2b c2		 sub	 eax, edx

; 172  :     _STL_VERIFY(_Back_shift >= _Min_back_shift && _Back_shift <= _Non_user_size, "invalid argument");

  0004e	83 c0 fc	 add	 eax, -4			; fffffffcH
  00051	83 f8 1f	 cmp	 eax, 31			; 0000001fH
  00054	77 6d		 ja	 SHORT $LN65@CDynamicPo

; 173  :     _Ptr = reinterpret_cast<void*>(_Ptr_container);

  00056	8b c2		 mov	 eax, edx
$LN43@CDynamicPo:

; 264  :         ::operator delete(_Ptr, _Bytes);

  00058	51		 push	 ecx
  00059	50		 push	 eax
  0005a	e8 00 00 00 00	 call	 ??3@YAXPAXI@Z		; operator delete
; File C:\Program Files (x86)\Microsoft Visual Studio\2019\Professional\VC\Tools\MSVC\14.29.30133\include\vector

; 1767 :             _Myfirst = nullptr;

  0005f	c7 47 10 00 00
	00 00		 mov	 DWORD PTR [edi+16], 0
; File C:\Program Files (x86)\Microsoft Visual Studio\2019\Professional\VC\Tools\MSVC\14.29.30133\include\xmemory

; 264  :         ::operator delete(_Ptr, _Bytes);

  00066	83 c4 08	 add	 esp, 8
; File C:\Program Files (x86)\Microsoft Visual Studio\2019\Professional\VC\Tools\MSVC\14.29.30133\include\vector

; 1768 :             _Mylast  = nullptr;

  00069	c7 47 14 00 00
	00 00		 mov	 DWORD PTR [edi+20], 0

; 1769 :             _Myend   = nullptr;

  00070	c7 47 18 00 00
	00 00		 mov	 DWORD PTR [edi+24], 0
$LN27@CDynamicPo:

; 1763 :         if (_Myfirst) { // destroy and deallocate old array

  00077	8b 47 04	 mov	 eax, DWORD PTR [edi+4]
  0007a	85 c0		 test	 eax, eax
  0007c	74 41		 je	 SHORT $LN52@CDynamicPo

; 1764 :             _Destroy(_Myfirst, _Mylast);
; 1765 :             _Getal().deallocate(_Myfirst, static_cast<size_type>(_Myend - _Myfirst));

  0007e	8b 4f 0c	 mov	 ecx, DWORD PTR [edi+12]
  00081	2b c8		 sub	 ecx, eax
; File C:\Program Files (x86)\Microsoft Visual Studio\2019\Professional\VC\Tools\MSVC\14.29.30133\include\xmemory

; 835  :         _Deallocate<_New_alignof<_Ty>>(_Ptr, sizeof(_Ty) * _Count);

  00083	83 e1 fc	 and	 ecx, -4			; fffffffcH

; 260  :         if (_Bytes >= _Big_allocation_threshold) { // boost the alignment of big allocations to help autovectorization

  00086	81 f9 00 10 00
	00		 cmp	 ecx, 4096		; 00001000H
  0008c	72 12		 jb	 SHORT $LN68@CDynamicPo

; 158  :     const uintptr_t _Ptr_container   = _Ptr_user[-1];

  0008e	8b 50 fc	 mov	 edx, DWORD PTR [eax-4]
  00091	83 c1 23	 add	 ecx, 35			; 00000023H

; 159  : 
; 160  :     // If the following asserts, it likely means that we are performing
; 161  :     // an aligned delete on memory coming from an unaligned allocation.
; 162  :     _STL_ASSERT(_Ptr_user[-2] == _Big_allocation_sentinel, "invalid argument");
; 163  : 
; 164  :     // Extra paranoia on aligned allocation/deallocation; ensure _Ptr_container is
; 165  :     // in range [_Min_back_shift, _Non_user_size]
; 166  : #ifdef _DEBUG
; 167  :     constexpr uintptr_t _Min_back_shift = 2 * sizeof(void*);
; 168  : #else // ^^^ _DEBUG ^^^ // vvv !_DEBUG vvv
; 169  :     constexpr uintptr_t _Min_back_shift = sizeof(void*);
; 170  : #endif // _DEBUG
; 171  :     const uintptr_t _Back_shift = reinterpret_cast<uintptr_t>(_Ptr) - _Ptr_container;

  00094	2b c2		 sub	 eax, edx

; 172  :     _STL_VERIFY(_Back_shift >= _Min_back_shift && _Back_shift <= _Non_user_size, "invalid argument");

  00096	83 c0 fc	 add	 eax, -4			; fffffffcH
  00099	83 f8 1f	 cmp	 eax, 31			; 0000001fH
  0009c	77 25		 ja	 SHORT $LN65@CDynamicPo

; 173  :     _Ptr = reinterpret_cast<void*>(_Ptr_container);

  0009e	8b c2		 mov	 eax, edx
$LN68@CDynamicPo:

; 264  :         ::operator delete(_Ptr, _Bytes);

  000a0	51		 push	 ecx
  000a1	50		 push	 eax
  000a2	e8 00 00 00 00	 call	 ??3@YAXPAXI@Z		; operator delete
; File C:\Program Files (x86)\Microsoft Visual Studio\2019\Professional\VC\Tools\MSVC\14.29.30133\include\vector

; 1767 :             _Myfirst = nullptr;

  000a7	c7 47 04 00 00
	00 00		 mov	 DWORD PTR [edi+4], 0
; File C:\Program Files (x86)\Microsoft Visual Studio\2019\Professional\VC\Tools\MSVC\14.29.30133\include\xmemory

; 264  :         ::operator delete(_Ptr, _Bytes);

  000ae	83 c4 08	 add	 esp, 8
; File C:\Program Files (x86)\Microsoft Visual Studio\2019\Professional\VC\Tools\MSVC\14.29.30133\include\vector

; 1768 :             _Mylast  = nullptr;

  000b1	c7 47 08 00 00
	00 00		 mov	 DWORD PTR [edi+8], 0

; 1769 :             _Myend   = nullptr;

  000b8	c7 47 0c 00 00
	00 00		 mov	 DWORD PTR [edi+12], 0
$LN52@CDynamicPo:
  000bf	5f		 pop	 edi
; File C:\Users\murat\Desktop\Siveps2-1-99-Project\source\client\Client\eterLib\Pool.h

; 142  : 		}

  000c0	5e		 pop	 esi
  000c1	5b		 pop	 ebx
  000c2	c3		 ret	 0
$LN65@CDynamicPo:
; File C:\Program Files (x86)\Microsoft Visual Studio\2019\Professional\VC\Tools\MSVC\14.29.30133\include\xmemory

; 172  :     _STL_VERIFY(_Back_shift >= _Min_back_shift && _Back_shift <= _Non_user_size, "invalid argument");

  000c3	e8 00 00 00 00	 call	 __invalid_parameter_noinfo_noreturn
$LN77@CDynamicPo:
  000c8	cc		 int	 3
??1?$CDynamicPoolEx@VCGravityDecorator@NEffectUpdateDecorator@@@@UAE@XZ ENDP ; CDynamicPoolEx<NEffectUpdateDecorator::CGravityDecorator>::~CDynamicPoolEx<NEffectUpdateDecorator::CGravityDecorator>
_TEXT	ENDS
; Function compile flags: /Ogtp
;	COMDAT ??_G?$CDynamicPoolEx@VCRotationDecorator@NEffectUpdateDecorator@@@@UAEPAXI@Z
_TEXT	SEGMENT
___flags$ = 8						; size = 4
??_G?$CDynamicPoolEx@VCRotationDecorator@NEffectUpdateDecorator@@@@UAEPAXI@Z PROC ; CDynamicPoolEx<NEffectUpdateDecorator::CRotationDecorator>::`scalar deleting destructor', COMDAT
; _this$ = ecx
  00000	55		 push	 ebp
  00001	8b ec		 mov	 ebp, esp
  00003	56		 push	 esi
  00004	8b f1		 mov	 esi, ecx
  00006	e8 00 00 00 00	 call	 ??1?$CDynamicPoolEx@VCRotationDecorator@NEffectUpdateDecorator@@@@UAE@XZ ; CDynamicPoolEx<NEffectUpdateDecorator::CRotationDecorator>::~CDynamicPoolEx<NEffectUpdateDecorator::CRotationDecorator>
  0000b	f6 45 08 01	 test	 BYTE PTR ___flags$[ebp], 1
  0000f	74 0b		 je	 SHORT $LN4@scalar
  00011	6a 24		 push	 36			; 00000024H
  00013	56		 push	 esi
  00014	e8 00 00 00 00	 call	 ??3@YAXPAXI@Z		; operator delete
  00019	83 c4 08	 add	 esp, 8
$LN4@scalar:
  0001c	8b c6		 mov	 eax, esi
  0001e	5e		 pop	 esi
  0001f	5d		 pop	 ebp
  00020	c2 04 00	 ret	 4
??_G?$CDynamicPoolEx@VCRotationDecorator@NEffectUpdateDecorator@@@@UAEPAXI@Z ENDP ; CDynamicPoolEx<NEffectUpdateDecorator::CRotationDecorator>::`scalar deleting destructor'
_TEXT	ENDS
; Function compile flags: /Ogtp
; File C:\Users\murat\Desktop\Siveps2-1-99-Project\source\client\Client\eterLib\Pool.h
;	COMDAT ?Delete@?$CDynamicPoolEx@VCRotationDecorator@NEffectUpdateDecorator@@@@KAXPAVCRotationDecorator@NEffectUpdateDecorator@@@Z
_TEXT	SEGMENT
_pkData$ = 8						; size = 4
?Delete@?$CDynamicPoolEx@VCRotationDecorator@NEffectUpdateDecorator@@@@KAXPAVCRotationDecorator@NEffectUpdateDecorator@@@Z PROC ; CDynamicPoolEx<NEffectUpdateDecorator::CRotationDecorator>::Delete, COMDAT

; 224  : 			::operator delete(pkData);

  00000	e9 00 00 00 00	 jmp	 ??3@YAXPAX@Z		; operator delete
?Delete@?$CDynamicPoolEx@VCRotationDecorator@NEffectUpdateDecorator@@@@KAXPAVCRotationDecorator@NEffectUpdateDecorator@@@Z ENDP ; CDynamicPoolEx<NEffectUpdateDecorator::CRotationDecorator>::Delete
_TEXT	ENDS
; Function compile flags: /Ogtp
; File C:\Users\murat\Desktop\Siveps2-1-99-Project\source\client\Client\eterLib\Pool.h
; File C:\Program Files (x86)\Microsoft Visual Studio\2019\Professional\VC\Tools\MSVC\14.29.30133\include\vector
; File C:\Program Files (x86)\Microsoft Visual Studio\2019\Professional\VC\Tools\MSVC\14.29.30133\include\algorithm
; File C:\Users\murat\Desktop\Siveps2-1-99-Project\source\client\Client\eterLib\Pool.h
; File C:\Program Files (x86)\Microsoft Visual Studio\2019\Professional\VC\Tools\MSVC\14.29.30133\include\algorithm
; File C:\Users\murat\Desktop\Siveps2-1-99-Project\source\client\Client\eterLib\Pool.h
; File C:\Program Files (x86)\Microsoft Visual Studio\2019\Professional\VC\Tools\MSVC\14.29.30133\include\algorithm
; File C:\Users\murat\Desktop\Siveps2-1-99-Project\source\client\Client\eterLib\Pool.h
; File C:\Program Files (x86)\Microsoft Visual Studio\2019\Professional\VC\Tools\MSVC\14.29.30133\include\vector
; File C:\Program Files (x86)\Microsoft Visual Studio\2019\Professional\VC\Tools\MSVC\14.29.30133\include\xmemory
; File C:\Program Files (x86)\Microsoft Visual Studio\2019\Professional\VC\Tools\MSVC\14.29.30133\include\vector
; File C:\Program Files (x86)\Microsoft Visual Studio\2019\Professional\VC\Tools\MSVC\14.29.30133\include\xmemory
; File C:\Program Files (x86)\Microsoft Visual Studio\2019\Professional\VC\Tools\MSVC\14.29.30133\include\vector
; File C:\Program Files (x86)\Microsoft Visual Studio\2019\Professional\VC\Tools\MSVC\14.29.30133\include\xmemory
; File C:\Program Files (x86)\Microsoft Visual Studio\2019\Professional\VC\Tools\MSVC\14.29.30133\include\vector
; File C:\Program Files (x86)\Microsoft Visual Studio\2019\Professional\VC\Tools\MSVC\14.29.30133\include\xmemory
; File C:\Program Files (x86)\Microsoft Visual Studio\2019\Professional\VC\Tools\MSVC\14.29.30133\include\vector
; File C:\Users\murat\Desktop\Siveps2-1-99-Project\source\client\Client\eterLib\Pool.h
; File C:\Program Files (x86)\Microsoft Visual Studio\2019\Professional\VC\Tools\MSVC\14.29.30133\include\xmemory
; File C:\Users\murat\Desktop\Siveps2-1-99-Project\source\client\Client\eterLib\Pool.h
;	COMDAT ??1?$CDynamicPoolEx@VCRotationDecorator@NEffectUpdateDecorator@@@@UAE@XZ
_TEXT	SEGMENT
??1?$CDynamicPoolEx@VCRotationDecorator@NEffectUpdateDecorator@@@@UAE@XZ PROC ; CDynamicPoolEx<NEffectUpdateDecorator::CRotationDecorator>::~CDynamicPoolEx<NEffectUpdateDecorator::CRotationDecorator>, COMDAT
; _this$ = ecx

; 132  : 		{

  00000	53		 push	 ebx
  00001	56		 push	 esi
  00002	57		 push	 edi
  00003	8b f9		 mov	 edi, ecx
  00005	c7 07 00 00 00
	00		 mov	 DWORD PTR [edi], OFFSET ??_7?$CDynamicPoolEx@VCRotationDecorator@NEffectUpdateDecorator@@@@6B@
; File C:\Program Files (x86)\Microsoft Visual Studio\2019\Professional\VC\Tools\MSVC\14.29.30133\include\vector

; 42   :     _CONSTEXPR20_CONTAINER _Vector_const_iterator(_Tptr _Parg, const _Container_base* _Pvector) noexcept : _Ptr(_Parg) {

  0000b	8b 5f 08	 mov	 ebx, DWORD PTR [edi+8]
  0000e	8b 77 04	 mov	 esi, DWORD PTR [edi+4]
; File C:\Program Files (x86)\Microsoft Visual Studio\2019\Professional\VC\Tools\MSVC\14.29.30133\include\algorithm

; 270  :     for (; _UFirst != _ULast; ++_UFirst) {

  00011	3b f3		 cmp	 esi, ebx
  00013	74 14		 je	 SHORT $LN19@CDynamicPo
$LL20@CDynamicPo:
; File C:\Users\murat\Desktop\Siveps2-1-99-Project\source\client\Client\eterLib\Pool.h

; 224  : 			::operator delete(pkData);

  00015	ff 36		 push	 DWORD PTR [esi]
  00017	e8 00 00 00 00	 call	 ??3@YAXPAX@Z		; operator delete
; File C:\Program Files (x86)\Microsoft Visual Studio\2019\Professional\VC\Tools\MSVC\14.29.30133\include\algorithm

; 270  :     for (; _UFirst != _ULast; ++_UFirst) {

  0001c	83 c6 04	 add	 esi, 4
; File C:\Users\murat\Desktop\Siveps2-1-99-Project\source\client\Client\eterLib\Pool.h

; 224  : 			::operator delete(pkData);

  0001f	83 c4 04	 add	 esp, 4
; File C:\Program Files (x86)\Microsoft Visual Studio\2019\Professional\VC\Tools\MSVC\14.29.30133\include\algorithm

; 270  :     for (; _UFirst != _ULast; ++_UFirst) {

  00022	3b f3		 cmp	 esi, ebx
  00024	75 ef		 jne	 SHORT $LL20@CDynamicPo
  00026	8b 77 04	 mov	 esi, DWORD PTR [edi+4]
$LN19@CDynamicPo:
; File C:\Users\murat\Desktop\Siveps2-1-99-Project\source\client\Client\eterLib\Pool.h

; 162  : 			m_kVct_pkFree.clear();

  00029	8b 47 10	 mov	 eax, DWORD PTR [edi+16]
  0002c	89 77 08	 mov	 DWORD PTR [edi+8], esi
  0002f	89 47 14	 mov	 DWORD PTR [edi+20], eax
; File C:\Program Files (x86)\Microsoft Visual Studio\2019\Professional\VC\Tools\MSVC\14.29.30133\include\vector

; 1763 :         if (_Myfirst) { // destroy and deallocate old array

  00032	85 c0		 test	 eax, eax
  00034	74 41		 je	 SHORT $LN27@CDynamicPo

; 1764 :             _Destroy(_Myfirst, _Mylast);
; 1765 :             _Getal().deallocate(_Myfirst, static_cast<size_type>(_Myend - _Myfirst));

  00036	8b 4f 18	 mov	 ecx, DWORD PTR [edi+24]
  00039	2b c8		 sub	 ecx, eax
; File C:\Program Files (x86)\Microsoft Visual Studio\2019\Professional\VC\Tools\MSVC\14.29.30133\include\xmemory

; 835  :         _Deallocate<_New_alignof<_Ty>>(_Ptr, sizeof(_Ty) * _Count);

  0003b	83 e1 fc	 and	 ecx, -4			; fffffffcH

; 260  :         if (_Bytes >= _Big_allocation_threshold) { // boost the alignment of big allocations to help autovectorization

  0003e	81 f9 00 10 00
	00		 cmp	 ecx, 4096		; 00001000H
  00044	72 12		 jb	 SHORT $LN43@CDynamicPo

; 158  :     const uintptr_t _Ptr_container   = _Ptr_user[-1];

  00046	8b 50 fc	 mov	 edx, DWORD PTR [eax-4]
  00049	83 c1 23	 add	 ecx, 35			; 00000023H

; 159  : 
; 160  :     // If the following asserts, it likely means that we are performing
; 161  :     // an aligned delete on memory coming from an unaligned allocation.
; 162  :     _STL_ASSERT(_Ptr_user[-2] == _Big_allocation_sentinel, "invalid argument");
; 163  : 
; 164  :     // Extra paranoia on aligned allocation/deallocation; ensure _Ptr_container is
; 165  :     // in range [_Min_back_shift, _Non_user_size]
; 166  : #ifdef _DEBUG
; 167  :     constexpr uintptr_t _Min_back_shift = 2 * sizeof(void*);
; 168  : #else // ^^^ _DEBUG ^^^ // vvv !_DEBUG vvv
; 169  :     constexpr uintptr_t _Min_back_shift = sizeof(void*);
; 170  : #endif // _DEBUG
; 171  :     const uintptr_t _Back_shift = reinterpret_cast<uintptr_t>(_Ptr) - _Ptr_container;

  0004c	2b c2		 sub	 eax, edx

; 172  :     _STL_VERIFY(_Back_shift >= _Min_back_shift && _Back_shift <= _Non_user_size, "invalid argument");

  0004e	83 c0 fc	 add	 eax, -4			; fffffffcH
  00051	83 f8 1f	 cmp	 eax, 31			; 0000001fH
  00054	77 6d		 ja	 SHORT $LN65@CDynamicPo

; 173  :     _Ptr = reinterpret_cast<void*>(_Ptr_container);

  00056	8b c2		 mov	 eax, edx
$LN43@CDynamicPo:

; 264  :         ::operator delete(_Ptr, _Bytes);

  00058	51		 push	 ecx
  00059	50		 push	 eax
  0005a	e8 00 00 00 00	 call	 ??3@YAXPAXI@Z		; operator delete
; File C:\Program Files (x86)\Microsoft Visual Studio\2019\Professional\VC\Tools\MSVC\14.29.30133\include\vector

; 1767 :             _Myfirst = nullptr;

  0005f	c7 47 10 00 00
	00 00		 mov	 DWORD PTR [edi+16], 0
; File C:\Program Files (x86)\Microsoft Visual Studio\2019\Professional\VC\Tools\MSVC\14.29.30133\include\xmemory

; 264  :         ::operator delete(_Ptr, _Bytes);

  00066	83 c4 08	 add	 esp, 8
; File C:\Program Files (x86)\Microsoft Visual Studio\2019\Professional\VC\Tools\MSVC\14.29.30133\include\vector

; 1768 :             _Mylast  = nullptr;

  00069	c7 47 14 00 00
	00 00		 mov	 DWORD PTR [edi+20], 0

; 1769 :             _Myend   = nullptr;

  00070	c7 47 18 00 00
	00 00		 mov	 DWORD PTR [edi+24], 0
$LN27@CDynamicPo:

; 1763 :         if (_Myfirst) { // destroy and deallocate old array

  00077	8b 47 04	 mov	 eax, DWORD PTR [edi+4]
  0007a	85 c0		 test	 eax, eax
  0007c	74 41		 je	 SHORT $LN52@CDynamicPo

; 1764 :             _Destroy(_Myfirst, _Mylast);
; 1765 :             _Getal().deallocate(_Myfirst, static_cast<size_type>(_Myend - _Myfirst));

  0007e	8b 4f 0c	 mov	 ecx, DWORD PTR [edi+12]
  00081	2b c8		 sub	 ecx, eax
; File C:\Program Files (x86)\Microsoft Visual Studio\2019\Professional\VC\Tools\MSVC\14.29.30133\include\xmemory

; 835  :         _Deallocate<_New_alignof<_Ty>>(_Ptr, sizeof(_Ty) * _Count);

  00083	83 e1 fc	 and	 ecx, -4			; fffffffcH

; 260  :         if (_Bytes >= _Big_allocation_threshold) { // boost the alignment of big allocations to help autovectorization

  00086	81 f9 00 10 00
	00		 cmp	 ecx, 4096		; 00001000H
  0008c	72 12		 jb	 SHORT $LN68@CDynamicPo

; 158  :     const uintptr_t _Ptr_container   = _Ptr_user[-1];

  0008e	8b 50 fc	 mov	 edx, DWORD PTR [eax-4]
  00091	83 c1 23	 add	 ecx, 35			; 00000023H

; 159  : 
; 160  :     // If the following asserts, it likely means that we are performing
; 161  :     // an aligned delete on memory coming from an unaligned allocation.
; 162  :     _STL_ASSERT(_Ptr_user[-2] == _Big_allocation_sentinel, "invalid argument");
; 163  : 
; 164  :     // Extra paranoia on aligned allocation/deallocation; ensure _Ptr_container is
; 165  :     // in range [_Min_back_shift, _Non_user_size]
; 166  : #ifdef _DEBUG
; 167  :     constexpr uintptr_t _Min_back_shift = 2 * sizeof(void*);
; 168  : #else // ^^^ _DEBUG ^^^ // vvv !_DEBUG vvv
; 169  :     constexpr uintptr_t _Min_back_shift = sizeof(void*);
; 170  : #endif // _DEBUG
; 171  :     const uintptr_t _Back_shift = reinterpret_cast<uintptr_t>(_Ptr) - _Ptr_container;

  00094	2b c2		 sub	 eax, edx

; 172  :     _STL_VERIFY(_Back_shift >= _Min_back_shift && _Back_shift <= _Non_user_size, "invalid argument");

  00096	83 c0 fc	 add	 eax, -4			; fffffffcH
  00099	83 f8 1f	 cmp	 eax, 31			; 0000001fH
  0009c	77 25		 ja	 SHORT $LN65@CDynamicPo

; 173  :     _Ptr = reinterpret_cast<void*>(_Ptr_container);

  0009e	8b c2		 mov	 eax, edx
$LN68@CDynamicPo:

; 264  :         ::operator delete(_Ptr, _Bytes);

  000a0	51		 push	 ecx
  000a1	50		 push	 eax
  000a2	e8 00 00 00 00	 call	 ??3@YAXPAXI@Z		; operator delete
; File C:\Program Files (x86)\Microsoft Visual Studio\2019\Professional\VC\Tools\MSVC\14.29.30133\include\vector

; 1767 :             _Myfirst = nullptr;

  000a7	c7 47 04 00 00
	00 00		 mov	 DWORD PTR [edi+4], 0
; File C:\Program Files (x86)\Microsoft Visual Studio\2019\Professional\VC\Tools\MSVC\14.29.30133\include\xmemory

; 264  :         ::operator delete(_Ptr, _Bytes);

  000ae	83 c4 08	 add	 esp, 8
; File C:\Program Files (x86)\Microsoft Visual Studio\2019\Professional\VC\Tools\MSVC\14.29.30133\include\vector

; 1768 :             _Mylast  = nullptr;

  000b1	c7 47 08 00 00
	00 00		 mov	 DWORD PTR [edi+8], 0

; 1769 :             _Myend   = nullptr;

  000b8	c7 47 0c 00 00
	00 00		 mov	 DWORD PTR [edi+12], 0
$LN52@CDynamicPo:
  000bf	5f		 pop	 edi
; File C:\Users\murat\Desktop\Siveps2-1-99-Project\source\client\Client\eterLib\Pool.h

; 142  : 		}

  000c0	5e		 pop	 esi
  000c1	5b		 pop	 ebx
  000c2	c3		 ret	 0
$LN65@CDynamicPo:
; File C:\Program Files (x86)\Microsoft Visual Studio\2019\Professional\VC\Tools\MSVC\14.29.30133\include\xmemory

; 172  :     _STL_VERIFY(_Back_shift >= _Min_back_shift && _Back_shift <= _Non_user_size, "invalid argument");

  000c3	e8 00 00 00 00	 call	 __invalid_parameter_noinfo_noreturn
$LN77@CDynamicPo:
  000c8	cc		 int	 3
??1?$CDynamicPoolEx@VCRotationDecorator@NEffectUpdateDecorator@@@@UAE@XZ ENDP ; CDynamicPoolEx<NEffectUpdateDecorator::CRotationDecorator>::~CDynamicPoolEx<NEffectUpdateDecorator::CRotationDecorator>
_TEXT	ENDS
; Function compile flags: /Ogtp
;	COMDAT ??__F?ms_kPool@CParticleInstance@@2V?$CDynamicPool@VCParticleInstance@@@@A@@YAXXZ
text$yd	SEGMENT
??__F?ms_kPool@CParticleInstance@@2V?$CDynamicPool@VCParticleInstance@@@@A@@YAXXZ PROC ; `dynamic atexit destructor for 'CParticleInstance::ms_kPool'', COMDAT
  00000	b9 00 00 00 00	 mov	 ecx, OFFSET ?ms_kPool@CParticleInstance@@2V?$CDynamicPool@VCParticleInstance@@@@A ; CParticleInstance::ms_kPool
  00005	e9 00 00 00 00	 jmp	 ??1?$CDynamicPool@VCParticleInstance@@@@UAE@XZ ; CDynamicPool<CParticleInstance>::~CDynamicPool<CParticleInstance>
??__F?ms_kPool@CParticleInstance@@2V?$CDynamicPool@VCParticleInstance@@@@A@@YAXXZ ENDP ; `dynamic atexit destructor for 'CParticleInstance::ms_kPool''
text$yd	ENDS
; Function compile flags: /Ogtp
; File C:\Users\murat\Desktop\Siveps2-1-99-Project\source\client\Client\EffectLib\ParticleInstance.cpp
;	COMDAT ??__E?ms_kPool@CParticleInstance@@2V?$CDynamicPool@VCParticleInstance@@@@A@@YAXXZ
text$di	SEGMENT
??__E?ms_kPool@CParticleInstance@@2V?$CDynamicPool@VCParticleInstance@@@@A@@YAXXZ PROC ; `dynamic initializer for 'CParticleInstance::ms_kPool'', COMDAT

; 9    : CDynamicPool<CParticleInstance> CParticleInstance::ms_kPool;

  00000	68 00 00 00 00	 push	 OFFSET ??__F?ms_kPool@CParticleInstance@@2V?$CDynamicPool@VCParticleInstance@@@@A@@YAXXZ ; `dynamic atexit destructor for 'CParticleInstance::ms_kPool''
  00005	e8 00 00 00 00	 call	 _atexit
  0000a	59		 pop	 ecx
  0000b	c3		 ret	 0
??__E?ms_kPool@CParticleInstance@@2V?$CDynamicPool@VCParticleInstance@@@@A@@YAXXZ ENDP ; `dynamic initializer for 'CParticleInstance::ms_kPool''
text$di	ENDS
; Function compile flags: /Ogtp
;	COMDAT ??_G?$CDynamicPool@VCParticleInstance@@@@UAEPAXI@Z
_TEXT	SEGMENT
___flags$ = 8						; size = 4
??_G?$CDynamicPool@VCParticleInstance@@@@UAEPAXI@Z PROC	; CDynamicPool<CParticleInstance>::`scalar deleting destructor', COMDAT
; _this$ = ecx
  00000	55		 push	 ebp
  00001	8b ec		 mov	 ebp, esp
  00003	56		 push	 esi
  00004	8b f1		 mov	 esi, ecx
  00006	e8 00 00 00 00	 call	 ??1?$CDynamicPool@VCParticleInstance@@@@UAE@XZ ; CDynamicPool<CParticleInstance>::~CDynamicPool<CParticleInstance>
  0000b	f6 45 08 01	 test	 BYTE PTR ___flags$[ebp], 1
  0000f	74 0b		 je	 SHORT $LN4@scalar
  00011	6a 24		 push	 36			; 00000024H
  00013	56		 push	 esi
  00014	e8 00 00 00 00	 call	 ??3@YAXPAXI@Z		; operator delete
  00019	83 c4 08	 add	 esp, 8
$LN4@scalar:
  0001c	8b c6		 mov	 eax, esi
  0001e	5e		 pop	 esi
  0001f	5d		 pop	 ebp
  00020	c2 04 00	 ret	 4
??_G?$CDynamicPool@VCParticleInstance@@@@UAEPAXI@Z ENDP	; CDynamicPool<CParticleInstance>::`scalar deleting destructor'
_TEXT	ENDS
; Function compile flags: /Ogtp
; File C:\Program Files (x86)\Microsoft Visual Studio\2019\Professional\VC\Tools\MSVC\14.29.30133\include\vector
;	COMDAT ?_Xlength@?$vector@PAVCParticleInstance@@V?$allocator@PAVCParticleInstance@@@std@@@std@@CAXXZ
_TEXT	SEGMENT
?_Xlength@?$vector@PAVCParticleInstance@@V?$allocator@PAVCParticleInstance@@@std@@@std@@CAXXZ PROC ; std::vector<CParticleInstance *,std::allocator<CParticleInstance *> >::_Xlength, COMDAT

; 1774 :         _Xlength_error("vector too long");

  00000	68 00 00 00 00	 push	 OFFSET ??_C@_0BA@FOIKENOD@vector?5too?5long@
  00005	e8 00 00 00 00	 call	 ?_Xlength_error@std@@YAXPBD@Z ; std::_Xlength_error
$LN3@Xlength:
  0000a	cc		 int	 3
?_Xlength@?$vector@PAVCParticleInstance@@V?$allocator@PAVCParticleInstance@@@std@@@std@@CAXXZ ENDP ; std::vector<CParticleInstance *,std::allocator<CParticleInstance *> >::_Xlength
_TEXT	ENDS
; Function compile flags: /Ogtp
; File C:\Users\murat\Desktop\Siveps2-1-99-Project\source\client\Client\eterLib\Pool.h
;	COMDAT ?Delete@?$CDynamicPool@VCParticleInstance@@@@KAXPAVCParticleInstance@@@Z
_TEXT	SEGMENT
_pkData$ = 8						; size = 4
?Delete@?$CDynamicPool@VCParticleInstance@@@@KAXPAVCParticleInstance@@@Z PROC ; CDynamicPool<CParticleInstance>::Delete, COMDAT

; 109  : 		{

  00000	55		 push	 ebp
  00001	8b ec		 mov	 ebp, esp
  00003	56		 push	 esi

; 110  : 			delete pkData;

  00004	8b 75 08	 mov	 esi, DWORD PTR _pkData$[ebp]
  00007	85 f6		 test	 esi, esi
  00009	74 15		 je	 SHORT $LN6@Delete
  0000b	8b ce		 mov	 ecx, esi
  0000d	e8 00 00 00 00	 call	 ??1CParticleInstance@@QAE@XZ ; CParticleInstance::~CParticleInstance
  00012	68 c4 00 00 00	 push	 196			; 000000c4H
  00017	56		 push	 esi
  00018	e8 00 00 00 00	 call	 ??3@YAXPAXI@Z		; operator delete
  0001d	83 c4 08	 add	 esp, 8
$LN6@Delete:
  00020	5e		 pop	 esi

; 111  : 		}

  00021	5d		 pop	 ebp
  00022	c3		 ret	 0
?Delete@?$CDynamicPool@VCParticleInstance@@@@KAXPAVCParticleInstance@@@Z ENDP ; CDynamicPool<CParticleInstance>::Delete
_TEXT	ENDS
; Function compile flags: /Ogtp
; File C:\Users\murat\Desktop\Siveps2-1-99-Project\source\client\Client\eterLib\Pool.h
; File C:\Program Files (x86)\Microsoft Visual Studio\2019\Professional\VC\Tools\MSVC\14.29.30133\include\vector
; File C:\Program Files (x86)\Microsoft Visual Studio\2019\Professional\VC\Tools\MSVC\14.29.30133\include\xmemory
; File C:\Program Files (x86)\Microsoft Visual Studio\2019\Professional\VC\Tools\MSVC\14.29.30133\include\vector
; File C:\Program Files (x86)\Microsoft Visual Studio\2019\Professional\VC\Tools\MSVC\14.29.30133\include\xmemory
; File C:\Program Files (x86)\Microsoft Visual Studio\2019\Professional\VC\Tools\MSVC\14.29.30133\include\vector
; File C:\Program Files (x86)\Microsoft Visual Studio\2019\Professional\VC\Tools\MSVC\14.29.30133\include\xmemory
; File C:\Program Files (x86)\Microsoft Visual Studio\2019\Professional\VC\Tools\MSVC\14.29.30133\include\vector
; File C:\Program Files (x86)\Microsoft Visual Studio\2019\Professional\VC\Tools\MSVC\14.29.30133\include\xmemory
; File C:\Program Files (x86)\Microsoft Visual Studio\2019\Professional\VC\Tools\MSVC\14.29.30133\include\vector
; File C:\Users\murat\Desktop\Siveps2-1-99-Project\source\client\Client\eterLib\Pool.h
; File C:\Program Files (x86)\Microsoft Visual Studio\2019\Professional\VC\Tools\MSVC\14.29.30133\include\xmemory
; File C:\Users\murat\Desktop\Siveps2-1-99-Project\source\client\Client\eterLib\Pool.h
;	COMDAT ??1?$CDynamicPool@VCParticleInstance@@@@UAE@XZ
_TEXT	SEGMENT
??1?$CDynamicPool@VCParticleInstance@@@@UAE@XZ PROC	; CDynamicPool<CParticleInstance>::~CDynamicPool<CParticleInstance>, COMDAT
; _this$ = ecx

; 18   : 		{

  00000	56		 push	 esi
  00001	8b f1		 mov	 esi, ecx
  00003	c7 06 00 00 00
	00		 mov	 DWORD PTR [esi], OFFSET ??_7?$CDynamicPool@VCParticleInstance@@@@6B@
; File C:\Program Files (x86)\Microsoft Visual Studio\2019\Professional\VC\Tools\MSVC\14.29.30133\include\vector

; 1763 :         if (_Myfirst) { // destroy and deallocate old array

  00009	8b 46 10	 mov	 eax, DWORD PTR [esi+16]
  0000c	85 c0		 test	 eax, eax
  0000e	74 41		 je	 SHORT $LN6@CDynamicPo

; 1764 :             _Destroy(_Myfirst, _Mylast);
; 1765 :             _Getal().deallocate(_Myfirst, static_cast<size_type>(_Myend - _Myfirst));

  00010	8b 4e 18	 mov	 ecx, DWORD PTR [esi+24]
  00013	2b c8		 sub	 ecx, eax
; File C:\Program Files (x86)\Microsoft Visual Studio\2019\Professional\VC\Tools\MSVC\14.29.30133\include\xmemory

; 835  :         _Deallocate<_New_alignof<_Ty>>(_Ptr, sizeof(_Ty) * _Count);

  00015	83 e1 fc	 and	 ecx, -4			; fffffffcH

; 260  :         if (_Bytes >= _Big_allocation_threshold) { // boost the alignment of big allocations to help autovectorization

  00018	81 f9 00 10 00
	00		 cmp	 ecx, 4096		; 00001000H
  0001e	72 12		 jb	 SHORT $LN22@CDynamicPo

; 158  :     const uintptr_t _Ptr_container   = _Ptr_user[-1];

  00020	8b 50 fc	 mov	 edx, DWORD PTR [eax-4]
  00023	83 c1 23	 add	 ecx, 35			; 00000023H

; 159  : 
; 160  :     // If the following asserts, it likely means that we are performing
; 161  :     // an aligned delete on memory coming from an unaligned allocation.
; 162  :     _STL_ASSERT(_Ptr_user[-2] == _Big_allocation_sentinel, "invalid argument");
; 163  : 
; 164  :     // Extra paranoia on aligned allocation/deallocation; ensure _Ptr_container is
; 165  :     // in range [_Min_back_shift, _Non_user_size]
; 166  : #ifdef _DEBUG
; 167  :     constexpr uintptr_t _Min_back_shift = 2 * sizeof(void*);
; 168  : #else // ^^^ _DEBUG ^^^ // vvv !_DEBUG vvv
; 169  :     constexpr uintptr_t _Min_back_shift = sizeof(void*);
; 170  : #endif // _DEBUG
; 171  :     const uintptr_t _Back_shift = reinterpret_cast<uintptr_t>(_Ptr) - _Ptr_container;

  00026	2b c2		 sub	 eax, edx

; 172  :     _STL_VERIFY(_Back_shift >= _Min_back_shift && _Back_shift <= _Non_user_size, "invalid argument");

  00028	83 c0 fc	 add	 eax, -4			; fffffffcH
  0002b	83 f8 1f	 cmp	 eax, 31			; 0000001fH
  0002e	77 6b		 ja	 SHORT $LN44@CDynamicPo

; 173  :     _Ptr = reinterpret_cast<void*>(_Ptr_container);

  00030	8b c2		 mov	 eax, edx
$LN22@CDynamicPo:

; 264  :         ::operator delete(_Ptr, _Bytes);

  00032	51		 push	 ecx
  00033	50		 push	 eax
  00034	e8 00 00 00 00	 call	 ??3@YAXPAXI@Z		; operator delete
; File C:\Program Files (x86)\Microsoft Visual Studio\2019\Professional\VC\Tools\MSVC\14.29.30133\include\vector

; 1767 :             _Myfirst = nullptr;

  00039	c7 46 10 00 00
	00 00		 mov	 DWORD PTR [esi+16], 0
; File C:\Program Files (x86)\Microsoft Visual Studio\2019\Professional\VC\Tools\MSVC\14.29.30133\include\xmemory

; 264  :         ::operator delete(_Ptr, _Bytes);

  00040	83 c4 08	 add	 esp, 8
; File C:\Program Files (x86)\Microsoft Visual Studio\2019\Professional\VC\Tools\MSVC\14.29.30133\include\vector

; 1768 :             _Mylast  = nullptr;

  00043	c7 46 14 00 00
	00 00		 mov	 DWORD PTR [esi+20], 0

; 1769 :             _Myend   = nullptr;

  0004a	c7 46 18 00 00
	00 00		 mov	 DWORD PTR [esi+24], 0
$LN6@CDynamicPo:

; 1763 :         if (_Myfirst) { // destroy and deallocate old array

  00051	8b 46 04	 mov	 eax, DWORD PTR [esi+4]
  00054	85 c0		 test	 eax, eax
  00056	74 41		 je	 SHORT $LN31@CDynamicPo

; 1764 :             _Destroy(_Myfirst, _Mylast);
; 1765 :             _Getal().deallocate(_Myfirst, static_cast<size_type>(_Myend - _Myfirst));

  00058	8b 4e 0c	 mov	 ecx, DWORD PTR [esi+12]
  0005b	2b c8		 sub	 ecx, eax
; File C:\Program Files (x86)\Microsoft Visual Studio\2019\Professional\VC\Tools\MSVC\14.29.30133\include\xmemory

; 835  :         _Deallocate<_New_alignof<_Ty>>(_Ptr, sizeof(_Ty) * _Count);

  0005d	83 e1 fc	 and	 ecx, -4			; fffffffcH

; 260  :         if (_Bytes >= _Big_allocation_threshold) { // boost the alignment of big allocations to help autovectorization

  00060	81 f9 00 10 00
	00		 cmp	 ecx, 4096		; 00001000H
  00066	72 12		 jb	 SHORT $LN47@CDynamicPo

; 158  :     const uintptr_t _Ptr_container   = _Ptr_user[-1];

  00068	8b 50 fc	 mov	 edx, DWORD PTR [eax-4]
  0006b	83 c1 23	 add	 ecx, 35			; 00000023H

; 159  : 
; 160  :     // If the following asserts, it likely means that we are performing
; 161  :     // an aligned delete on memory coming from an unaligned allocation.
; 162  :     _STL_ASSERT(_Ptr_user[-2] == _Big_allocation_sentinel, "invalid argument");
; 163  : 
; 164  :     // Extra paranoia on aligned allocation/deallocation; ensure _Ptr_container is
; 165  :     // in range [_Min_back_shift, _Non_user_size]
; 166  : #ifdef _DEBUG
; 167  :     constexpr uintptr_t _Min_back_shift = 2 * sizeof(void*);
; 168  : #else // ^^^ _DEBUG ^^^ // vvv !_DEBUG vvv
; 169  :     constexpr uintptr_t _Min_back_shift = sizeof(void*);
; 170  : #endif // _DEBUG
; 171  :     const uintptr_t _Back_shift = reinterpret_cast<uintptr_t>(_Ptr) - _Ptr_container;

  0006e	2b c2		 sub	 eax, edx

; 172  :     _STL_VERIFY(_Back_shift >= _Min_back_shift && _Back_shift <= _Non_user_size, "invalid argument");

  00070	83 c0 fc	 add	 eax, -4			; fffffffcH
  00073	83 f8 1f	 cmp	 eax, 31			; 0000001fH
  00076	77 23		 ja	 SHORT $LN44@CDynamicPo

; 173  :     _Ptr = reinterpret_cast<void*>(_Ptr_container);

  00078	8b c2		 mov	 eax, edx
$LN47@CDynamicPo:

; 264  :         ::operator delete(_Ptr, _Bytes);

  0007a	51		 push	 ecx
  0007b	50		 push	 eax
  0007c	e8 00 00 00 00	 call	 ??3@YAXPAXI@Z		; operator delete
; File C:\Program Files (x86)\Microsoft Visual Studio\2019\Professional\VC\Tools\MSVC\14.29.30133\include\vector

; 1767 :             _Myfirst = nullptr;

  00081	c7 46 04 00 00
	00 00		 mov	 DWORD PTR [esi+4], 0
; File C:\Program Files (x86)\Microsoft Visual Studio\2019\Professional\VC\Tools\MSVC\14.29.30133\include\xmemory

; 264  :         ::operator delete(_Ptr, _Bytes);

  00088	83 c4 08	 add	 esp, 8
; File C:\Program Files (x86)\Microsoft Visual Studio\2019\Professional\VC\Tools\MSVC\14.29.30133\include\vector

; 1768 :             _Mylast  = nullptr;

  0008b	c7 46 08 00 00
	00 00		 mov	 DWORD PTR [esi+8], 0

; 1769 :             _Myend   = nullptr;

  00092	c7 46 0c 00 00
	00 00		 mov	 DWORD PTR [esi+12], 0
$LN31@CDynamicPo:
  00099	5e		 pop	 esi
; File C:\Users\murat\Desktop\Siveps2-1-99-Project\source\client\Client\eterLib\Pool.h

; 26   : 		}

  0009a	c3		 ret	 0
$LN44@CDynamicPo:
; File C:\Program Files (x86)\Microsoft Visual Studio\2019\Professional\VC\Tools\MSVC\14.29.30133\include\xmemory

; 172  :     _STL_VERIFY(_Back_shift >= _Min_back_shift && _Back_shift <= _Non_user_size, "invalid argument");

  0009b	e8 00 00 00 00	 call	 __invalid_parameter_noinfo_noreturn
$LN52@CDynamicPo:
  000a0	cc		 int	 3
??1?$CDynamicPool@VCParticleInstance@@@@UAE@XZ ENDP	; CDynamicPool<CParticleInstance>::~CDynamicPool<CParticleInstance>
_TEXT	ENDS
; Function compile flags: /Ogtp
; File C:\Users\murat\Desktop\Siveps2-1-99-Project\source\client\Client\EffectLib\ParticleInstance.cpp
; File C:\Users\murat\Desktop\Siveps2-1-99-Project\source\client\extern\include\d3dx8math.inl
; File C:\Users\murat\Desktop\Siveps2-1-99-Project\source\client\Client\EffectLib\ParticleInstance.cpp
; File C:\Users\murat\Desktop\Siveps2-1-99-Project\source\client\extern\include\d3dx8math.inl
; File C:\Users\murat\Desktop\Siveps2-1-99-Project\source\client\Client\EffectLib\ParticleInstance.cpp
;	COMDAT ?__Initialize@CParticleInstance@@IAEXXZ
_TEXT	SEGMENT
$T6 = -12						; size = 12
$T7 = -12						; size = 12
?__Initialize@CParticleInstance@@IAEXXZ PROC		; CParticleInstance::__Initialize, COMDAT
; _this$ = ecx

; 442  : {

  00000	55		 push	 ebp
  00001	8b ec		 mov	 ebp, esp
  00003	83 ec 0c	 sub	 esp, 12			; 0000000cH
  00006	0f 57 c9	 xorps	 xmm1, xmm1

; 443  : 	//*
; 444  : 	m_pDecorator=NULL;

  00009	c7 41 70 00 00
	00 00		 mov	 DWORD PTR [ecx+112], 0
  00010	0f 57 c0	 xorps	 xmm0, xmm0

; 449  : 
; 450  : 	m_v2Scale = D3DXVECTOR2(1.0f, 1.0f);

  00013	c7 41 38 00 00
	80 3f		 mov	 DWORD PTR [ecx+56], 1065353216 ; 3f800000H
  0001a	0f 14 c1	 unpcklps xmm0, xmm1
  0001d	66 0f d6 41 0c	 movq	 QWORD PTR [ecx+12], xmm0
  00022	66 0f d6 41 18	 movq	 QWORD PTR [ecx+24], xmm0
  00027	c7 41 3c 00 00
	80 3f		 mov	 DWORD PTR [ecx+60], 1065353216 ; 3f800000H

; 451  : #ifdef WORLD_EDITOR
; 452  : 	m_Color = D3DXCOLOR(1.0f, 1.0f, 1.0f, 1.0f);
; 453  : #else
; 454  : 	m_dcColor.m_dwColor = 0xffffffff;

  0002e	c7 41 44 ff ff
	ff ff		 mov	 DWORD PTR [ecx+68], -1

; 455  : #endif
; 456  : 
; 457  : 	m_byFrameIndex = 0;

  00035	c6 41 50 00	 mov	 BYTE PTR [ecx+80], 0
; File C:\Users\murat\Desktop\Siveps2-1-99-Project\source\client\extern\include\d3dx8math.inl

; 182  :     z = fz;

  00039	c7 45 fc 00 00
	00 00		 mov	 DWORD PTR $T7[ebp+8], 0
; File C:\Users\murat\Desktop\Siveps2-1-99-Project\source\client\Client\EffectLib\ParticleInstance.cpp

; 446  : 	m_v3Position = D3DXVECTOR3(0.0f, 0.0f, 0.0f);

  00040	8b 45 fc	 mov	 eax, DWORD PTR $T7[ebp+8]
  00043	89 41 14	 mov	 DWORD PTR [ecx+20], eax

; 447  : 	m_v3LastPosition = m_v3Position;

  00046	89 41 20	 mov	 DWORD PTR [ecx+32], eax

; 448  : 	m_v3Velocity = D3DXVECTOR3(0.0f, 0.0f, 0.0f);

  00049	0f 14 c9	 unpcklps xmm1, xmm1
  0004c	66 0f d6 49 24	 movq	 QWORD PTR [ecx+36], xmm1
; File C:\Users\murat\Desktop\Siveps2-1-99-Project\source\client\extern\include\d3dx8math.inl

; 182  :     z = fz;

  00051	c7 45 fc 00 00
	00 00		 mov	 DWORD PTR $T6[ebp+8], 0
; File C:\Users\murat\Desktop\Siveps2-1-99-Project\source\client\Client\EffectLib\ParticleInstance.cpp

; 448  : 	m_v3Velocity = D3DXVECTOR3(0.0f, 0.0f, 0.0f);

  00058	8b 45 fc	 mov	 eax, DWORD PTR $T6[ebp+8]
  0005b	89 41 2c	 mov	 DWORD PTR [ecx+44], eax

; 458  : 	m_ParticleMesh[0].texCoord = D3DXVECTOR2(0.0f, 1.0f);

  0005e	c7 81 80 00 00
	00 00 00 00 00	 mov	 DWORD PTR [ecx+128], 0
  00068	c7 81 84 00 00
	00 00 00 80 3f	 mov	 DWORD PTR [ecx+132], 1065353216 ; 3f800000H

; 459  : 	m_ParticleMesh[1].texCoord = D3DXVECTOR2(0.0f, 0.0f);

  00072	c7 81 94 00 00
	00 00 00 00 00	 mov	 DWORD PTR [ecx+148], 0
  0007c	c7 81 98 00 00
	00 00 00 00 00	 mov	 DWORD PTR [ecx+152], 0

; 460  : 	m_ParticleMesh[2].texCoord = D3DXVECTOR2(1.0f, 1.0f);

  00086	c7 81 a8 00 00
	00 00 00 80 3f	 mov	 DWORD PTR [ecx+168], 1065353216 ; 3f800000H
  00090	c7 81 ac 00 00
	00 00 00 80 3f	 mov	 DWORD PTR [ecx+172], 1065353216 ; 3f800000H

; 461  : 	m_ParticleMesh[3].texCoord = D3DXVECTOR2(1.0f, 0.0f);

  0009a	c7 81 bc 00 00
	00 00 00 80 3f	 mov	 DWORD PTR [ecx+188], 1065353216 ; 3f800000H
  000a4	c7 81 c0 00 00
	00 00 00 00 00	 mov	 DWORD PTR [ecx+192], 0

; 462  : }

  000ae	8b e5		 mov	 esp, ebp
  000b0	5d		 pop	 ebp
  000b1	c3		 ret	 0
?__Initialize@CParticleInstance@@IAEXXZ ENDP		; CParticleInstance::__Initialize
_TEXT	ENDS
; Function compile flags: /Ogtp
; File C:\Users\murat\Desktop\Siveps2-1-99-Project\source\client\Client\EffectLib\ParticleInstance.cpp
; File C:\Users\murat\Desktop\Siveps2-1-99-Project\source\client\Client\EffectLib\EffectUpdateDecorator.h
; File C:\Users\murat\Desktop\Siveps2-1-99-Project\source\client\Client\EffectLib\ParticleInstance.cpp
;	COMDAT ?Destroy@CParticleInstance@@QAEXXZ
_TEXT	SEGMENT
?Destroy@CParticleInstance@@QAEXXZ PROC			; CParticleInstance::Destroy, COMDAT
; _this$ = ecx

; 433  : {

  00000	56		 push	 esi
  00001	57		 push	 edi
  00002	8b f9		 mov	 edi, ecx

; 434  : 	if (m_pDecorator)

  00004	8b 77 70	 mov	 esi, DWORD PTR [edi+112]
  00007	85 f6		 test	 esi, esi
  00009	74 14		 je	 SHORT $LN7@Destroy
; File C:\Users\murat\Desktop\Siveps2-1-99-Project\source\client\Client\EffectLib\EffectUpdateDecorator.h

; 46   : 			if (m_NextDecorator)

  0000b	8b 4e 04	 mov	 ecx, DWORD PTR [esi+4]
  0000e	85 c9		 test	 ecx, ecx
  00010	74 05		 je	 SHORT $LN5@Destroy

; 47   : 				m_NextDecorator->DeleteThis();

  00012	e8 00 00 00 00	 call	 ?DeleteThis@CBaseDecorator@NEffectUpdateDecorator@@QAEXXZ ; NEffectUpdateDecorator::CBaseDecorator::DeleteThis
$LN5@Destroy:

; 48   : 			delete this;

  00017	8b 06		 mov	 eax, DWORD PTR [esi]
  00019	8b ce		 mov	 ecx, esi
  0001b	6a 01		 push	 1
  0001d	ff 10		 call	 DWORD PTR [eax]
$LN7@Destroy:
; File C:\Users\murat\Desktop\Siveps2-1-99-Project\source\client\Client\EffectLib\ParticleInstance.cpp

; 437  : 	__Initialize();

  0001f	8b cf		 mov	 ecx, edi
  00021	5f		 pop	 edi
  00022	5e		 pop	 esi
  00023	e9 00 00 00 00	 jmp	 ?__Initialize@CParticleInstance@@IAEXXZ ; CParticleInstance::__Initialize
?Destroy@CParticleInstance@@QAEXXZ ENDP			; CParticleInstance::Destroy
_TEXT	ENDS
; Function compile flags: /Ogtp
; File C:\Users\murat\Desktop\Siveps2-1-99-Project\source\client\Client\EffectLib\ParticleInstance.cpp
; File C:\Program Files (x86)\Microsoft Visual Studio\2019\Professional\VC\Tools\MSVC\14.29.30133\include\vector
; File C:\Users\murat\Desktop\Siveps2-1-99-Project\source\client\Client\EffectLib\ParticleInstance.cpp
; File C:\Program Files (x86)\Microsoft Visual Studio\2019\Professional\VC\Tools\MSVC\14.29.30133\include\vector
; File C:\Users\murat\Desktop\Siveps2-1-99-Project\source\client\Client\EffectLib\ParticleInstance.cpp
; File C:\Program Files (x86)\Microsoft Visual Studio\2019\Professional\VC\Tools\MSVC\14.29.30133\include\vector
; File C:\Users\murat\Desktop\Siveps2-1-99-Project\source\client\Client\EffectLib\ParticleInstance.cpp
;	COMDAT ?DeleteThis@CParticleInstance@@QAEXXZ
_TEXT	SEGMENT
_pkData$ = -4						; size = 4
?DeleteThis@CParticleInstance@@QAEXXZ PROC		; CParticleInstance::DeleteThis, COMDAT
; _this$ = ecx

; 24   : {

  00000	55		 push	 ebp
  00001	8b ec		 mov	 ebp, esp
  00003	51		 push	 ecx
  00004	56		 push	 esi
  00005	8b f1		 mov	 esi, ecx

; 25   : 	Destroy();

  00007	e8 00 00 00 00	 call	 ?Destroy@CParticleInstance@@QAEXXZ ; CParticleInstance::Destroy
; File C:\Program Files (x86)\Microsoft Visual Studio\2019\Professional\VC\Tools\MSVC\14.29.30133\include\vector

; 743  :         if (_Mylast != _My_data._Myend) {

  0000c	a1 14 00 00 00	 mov	 eax, DWORD PTR ?ms_kPool@CParticleInstance@@2V?$CDynamicPool@VCParticleInstance@@@@A+20
; File C:\Users\murat\Desktop\Siveps2-1-99-Project\source\client\Client\EffectLib\ParticleInstance.cpp

; 27   : 	ms_kPool.Free(this);

  00011	89 75 fc	 mov	 DWORD PTR _pkData$[ebp], esi
; File C:\Program Files (x86)\Microsoft Visual Studio\2019\Professional\VC\Tools\MSVC\14.29.30133\include\vector

; 743  :         if (_Mylast != _My_data._Myend) {

  00014	3b 05 18 00 00
	00		 cmp	 eax, DWORD PTR ?ms_kPool@CParticleInstance@@2V?$CDynamicPool@VCParticleInstance@@@@A+24
  0001a	74 0e		 je	 SHORT $LN8@DeleteThis

; 726  :         _Alty_traits::construct(_Getal(), _Unfancy(_Mylast), _STD forward<_Valty>(_Val)...);

  0001c	89 30		 mov	 DWORD PTR [eax], esi

; 727  :         _Orphan_range(_Mylast, _Mylast);
; 728  :         _Ty& _Result = *_Mylast;
; 729  :         ++_Mylast;

  0001e	83 05 14 00 00
	00 04		 add	 DWORD PTR ?ms_kPool@CParticleInstance@@2V?$CDynamicPool@VCParticleInstance@@@@A+20, 4
  00025	5e		 pop	 esi
; File C:\Users\murat\Desktop\Siveps2-1-99-Project\source\client\Client\EffectLib\ParticleInstance.cpp

; 28   : }

  00026	8b e5		 mov	 esp, ebp
  00028	5d		 pop	 ebp
  00029	c3		 ret	 0
$LN8@DeleteThis:
; File C:\Program Files (x86)\Microsoft Visual Studio\2019\Professional\VC\Tools\MSVC\14.29.30133\include\vector

; 747  :         _Ty& _Result = *_Emplace_reallocate(_Mylast, _STD forward<_Valty>(_Val)...);

  0002a	8d 4d fc	 lea	 ecx, DWORD PTR _pkData$[ebp]
  0002d	51		 push	 ecx
  0002e	50		 push	 eax
  0002f	b9 10 00 00 00	 mov	 ecx, OFFSET ?ms_kPool@CParticleInstance@@2V?$CDynamicPool@VCParticleInstance@@@@A+16
  00034	e8 00 00 00 00	 call	 ??$_Emplace_reallocate@ABQAVCParticleInstance@@@?$vector@PAVCParticleInstance@@V?$allocator@PAVCParticleInstance@@@std@@@std@@QAEPAPAVCParticleInstance@@QAPAV2@ABQAV2@@Z ; std::vector<CParticleInstance *,std::allocator<CParticleInstance *> >::_Emplace_reallocate<CParticleInstance * const &>
  00039	5e		 pop	 esi
; File C:\Users\murat\Desktop\Siveps2-1-99-Project\source\client\Client\EffectLib\ParticleInstance.cpp

; 28   : }

  0003a	8b e5		 mov	 esp, ebp
  0003c	5d		 pop	 ebp
  0003d	c3		 ret	 0
?DeleteThis@CParticleInstance@@QAEXXZ ENDP		; CParticleInstance::DeleteThis
_TEXT	ENDS
; Function compile flags: /Ogtp
; File C:\Users\murat\Desktop\Siveps2-1-99-Project\source\client\Client\EffectLib\ParticleInstance.cpp
;	COMDAT ?GetParticleMeshPointer@CParticleInstance@@QAEPAUSPTVertex@@XZ
_TEXT	SEGMENT
?GetParticleMeshPointer@CParticleInstance@@QAEPAUSPTVertex@@XZ PROC ; CParticleInstance::GetParticleMeshPointer, COMDAT
; _this$ = ecx

; 502  : 	return m_ParticleMesh;

  00000	8d 41 74	 lea	 eax, DWORD PTR [ecx+116]

; 503  : }

  00003	c3		 ret	 0
?GetParticleMeshPointer@CParticleInstance@@QAEPAUSPTVertex@@XZ ENDP ; CParticleInstance::GetParticleMeshPointer
_TEXT	ENDS
; Function compile flags: /Ogtp
; File C:\Users\murat\Desktop\Siveps2-1-99-Project\source\client\Client\EffectLib\ParticleInstance.cpp
; File C:\Program Files (x86)\Windows Kits\10\Include\10.0.19041.0\ucrt\corecrt_math.h
; File C:\Users\murat\Desktop\Siveps2-1-99-Project\source\client\Client\EffectLib\ParticleInstance.cpp
; File C:\Program Files (x86)\Windows Kits\10\Include\10.0.19041.0\ucrt\corecrt_math.h
; File C:\Users\murat\Desktop\Siveps2-1-99-Project\source\client\Client\EffectLib\ParticleInstance.cpp
; File C:\Program Files (x86)\Windows Kits\10\Include\10.0.19041.0\ucrt\corecrt_math.h
; File C:\Users\murat\Desktop\Siveps2-1-99-Project\source\client\Client\EffectLib\ParticleInstance.cpp
; File C:\Users\murat\Desktop\Siveps2-1-99-Project\source\client\extern\include\d3dx8math.inl
; File C:\Users\murat\Desktop\Siveps2-1-99-Project\source\client\Client\EffectLib\ParticleInstance.cpp
; File C:\Users\murat\Desktop\Siveps2-1-99-Project\source\client\extern\include\d3dx8math.inl
; File C:\Users\murat\Desktop\Siveps2-1-99-Project\source\client\Client\EffectLib\ParticleInstance.cpp
; File C:\Users\murat\Desktop\Siveps2-1-99-Project\source\client\extern\include\d3dx8math.inl
; File C:\Users\murat\Desktop\Siveps2-1-99-Project\source\client\Client\EffectLib\ParticleInstance.cpp
; File C:\Users\murat\Desktop\Siveps2-1-99-Project\source\client\extern\include\d3dx8math.inl
; File C:\Users\murat\Desktop\Siveps2-1-99-Project\source\client\Client\EffectLib\ParticleInstance.cpp
; File C:\Program Files (x86)\Windows Kits\10\Include\10.0.19041.0\ucrt\corecrt_math.h
; File C:\Users\murat\Desktop\Siveps2-1-99-Project\source\client\Client\EffectLib\ParticleInstance.cpp
; File C:\Program Files (x86)\Windows Kits\10\Include\10.0.19041.0\ucrt\corecrt_math.h
; File C:\Users\murat\Desktop\Siveps2-1-99-Project\source\client\extern\include\d3dx8math.inl
; File C:\Program Files (x86)\Windows Kits\10\Include\10.0.19041.0\ucrt\corecrt_math.h
; File C:\Users\murat\Desktop\Siveps2-1-99-Project\source\client\extern\include\d3dx8math.inl
; File C:\Users\murat\Desktop\Siveps2-1-99-Project\source\client\Client\EffectLib\ParticleInstance.cpp
; File C:\Program Files (x86)\Windows Kits\10\Include\10.0.19041.0\ucrt\corecrt_math.h
; File C:\Users\murat\Desktop\Siveps2-1-99-Project\source\client\extern\include\d3dx8math.inl
; File C:\Users\murat\Desktop\Siveps2-1-99-Project\source\client\Client\EffectLib\ParticleInstance.cpp
; File C:\Users\murat\Desktop\Siveps2-1-99-Project\source\client\extern\include\d3dx8math.inl
; File C:\Users\murat\Desktop\Siveps2-1-99-Project\source\client\Client\EffectLib\ParticleInstance.cpp
; File C:\Users\murat\Desktop\Siveps2-1-99-Project\source\client\extern\include\d3dx8math.inl
; File C:\Users\murat\Desktop\Siveps2-1-99-Project\source\client\Client\EffectLib\ParticleInstance.cpp
; File C:\Users\murat\Desktop\Siveps2-1-99-Project\source\client\extern\include\d3dx8math.inl
; File C:\Users\murat\Desktop\Siveps2-1-99-Project\source\client\Client\EffectLib\ParticleInstance.cpp
; File C:\Users\murat\Desktop\Siveps2-1-99-Project\source\client\extern\include\d3dx8math.inl
; File C:\Users\murat\Desktop\Siveps2-1-99-Project\source\client\Client\EffectLib\ParticleInstance.cpp
; File C:\Users\murat\Desktop\Siveps2-1-99-Project\source\client\extern\include\d3dx8math.inl
; File C:\Users\murat\Desktop\Siveps2-1-99-Project\source\client\Client\EffectLib\ParticleInstance.cpp
; File C:\Users\murat\Desktop\Siveps2-1-99-Project\source\client\extern\include\d3dx8math.inl
; File C:\Users\murat\Desktop\Siveps2-1-99-Project\source\client\Client\EffectLib\ParticleInstance.cpp
; File C:\Users\murat\Desktop\Siveps2-1-99-Project\source\client\extern\include\d3dx8math.inl
; File C:\Users\murat\Desktop\Siveps2-1-99-Project\source\client\Client\EffectLib\ParticleInstance.cpp
; File C:\Users\murat\Desktop\Siveps2-1-99-Project\source\client\extern\include\d3dx8math.inl
; File C:\Users\murat\Desktop\Siveps2-1-99-Project\source\client\Client\EffectLib\ParticleInstance.cpp
; File C:\Users\murat\Desktop\Siveps2-1-99-Project\source\client\extern\include\d3dx8math.inl
; File C:\Users\murat\Desktop\Siveps2-1-99-Project\source\client\Client\EffectLib\ParticleInstance.cpp
; File C:\Users\murat\Desktop\Siveps2-1-99-Project\source\client\extern\include\d3dx8math.inl
; File C:\Users\murat\Desktop\Siveps2-1-99-Project\source\client\Client\EffectLib\ParticleInstance.cpp
; File C:\Users\murat\Desktop\Siveps2-1-99-Project\source\client\extern\include\d3dx8math.inl
; File C:\Users\murat\Desktop\Siveps2-1-99-Project\source\client\Client\EffectLib\ParticleInstance.cpp
; File C:\Users\murat\Desktop\Siveps2-1-99-Project\source\client\extern\include\d3dx8math.inl
; File C:\Users\murat\Desktop\Siveps2-1-99-Project\source\client\Client\EffectLib\ParticleInstance.cpp
; File C:\Users\murat\Desktop\Siveps2-1-99-Project\source\client\extern\include\d3dx8math.inl
; File C:\Users\murat\Desktop\Siveps2-1-99-Project\source\client\Client\EffectLib\ParticleInstance.cpp
; File C:\Users\murat\Desktop\Siveps2-1-99-Project\source\client\extern\include\d3dx8math.inl
; File C:\Users\murat\Desktop\Siveps2-1-99-Project\source\client\Client\EffectLib\ParticleInstance.cpp
; File C:\Users\murat\Desktop\Siveps2-1-99-Project\source\client\extern\include\d3dx8math.inl
; File C:\Program Files (x86)\Windows Kits\10\Include\10.0.19041.0\ucrt\corecrt_math.h
; File C:\Users\murat\Desktop\Siveps2-1-99-Project\source\client\Client\EffectLib\ParticleInstance.cpp
; File C:\Program Files (x86)\Windows Kits\10\Include\10.0.19041.0\ucrt\corecrt_math.h
; File C:\Users\murat\Desktop\Siveps2-1-99-Project\source\client\Client\EffectLib\ParticleInstance.cpp
; File C:\Program Files (x86)\Windows Kits\10\Include\10.0.19041.0\ucrt\corecrt_math.h
; File C:\Users\murat\Desktop\Siveps2-1-99-Project\source\client\Client\EffectLib\ParticleInstance.cpp
; File C:\Users\murat\Desktop\Siveps2-1-99-Project\source\client\extern\include\d3dx8math.inl
; File C:\Users\murat\Desktop\Siveps2-1-99-Project\source\client\Client\EffectLib\ParticleInstance.cpp
; File C:\Users\murat\Desktop\Siveps2-1-99-Project\source\client\extern\include\d3dx8math.inl
; File C:\Users\murat\Desktop\Siveps2-1-99-Project\source\client\Client\EffectLib\ParticleInstance.cpp
; File C:\Users\murat\Desktop\Siveps2-1-99-Project\source\client\extern\include\d3dx8math.inl
; File C:\Users\murat\Desktop\Siveps2-1-99-Project\source\client\Client\EffectLib\ParticleInstance.cpp
; File C:\Users\murat\Desktop\Siveps2-1-99-Project\source\client\extern\include\d3dx8math.inl
; File C:\Users\murat\Desktop\Siveps2-1-99-Project\source\client\Client\EffectLib\ParticleInstance.cpp
; File C:\Program Files (x86)\Windows Kits\10\Include\10.0.19041.0\ucrt\corecrt_math.h
; File C:\Users\murat\Desktop\Siveps2-1-99-Project\source\client\Client\EffectLib\ParticleInstance.cpp
; File C:\Program Files (x86)\Windows Kits\10\Include\10.0.19041.0\ucrt\corecrt_math.h
; File C:\Users\murat\Desktop\Siveps2-1-99-Project\source\client\Client\EffectLib\ParticleInstance.cpp
; File C:\Program Files (x86)\Windows Kits\10\Include\10.0.19041.0\ucrt\corecrt_math.h
; File C:\Users\murat\Desktop\Siveps2-1-99-Project\source\client\Client\EffectLib\ParticleInstance.cpp
; File C:\Users\murat\Desktop\Siveps2-1-99-Project\source\client\extern\include\d3dx8math.inl
; File C:\Users\murat\Desktop\Siveps2-1-99-Project\source\client\Client\EffectLib\ParticleInstance.cpp
; File C:\Users\murat\Desktop\Siveps2-1-99-Project\source\client\extern\include\d3dx8math.inl
; File C:\Users\murat\Desktop\Siveps2-1-99-Project\source\client\Client\EffectLib\ParticleInstance.cpp
; File C:\Users\murat\Desktop\Siveps2-1-99-Project\source\client\extern\include\d3dx8math.inl
; File C:\Users\murat\Desktop\Siveps2-1-99-Project\source\client\Client\EffectLib\ParticleInstance.cpp
; File C:\Users\murat\Desktop\Siveps2-1-99-Project\source\client\extern\include\d3dx8math.inl
; File C:\Users\murat\Desktop\Siveps2-1-99-Project\source\client\Client\EffectLib\ParticleInstance.cpp
; File C:\Users\murat\Desktop\Siveps2-1-99-Project\source\client\extern\include\d3dx8math.inl
; File C:\Users\murat\Desktop\Siveps2-1-99-Project\source\client\Client\EffectLib\ParticleInstance.cpp
; File C:\Users\murat\Desktop\Siveps2-1-99-Project\source\client\extern\include\d3dx8math.inl
; File C:\Users\murat\Desktop\Siveps2-1-99-Project\source\client\Client\EffectLib\ParticleInstance.cpp
; File C:\Users\murat\Desktop\Siveps2-1-99-Project\source\client\extern\include\d3dx8math.inl
; File C:\Users\murat\Desktop\Siveps2-1-99-Project\source\client\Client\EffectLib\ParticleInstance.cpp
; File C:\Users\murat\Desktop\Siveps2-1-99-Project\source\client\extern\include\d3dx8math.inl
; File C:\Users\murat\Desktop\Siveps2-1-99-Project\source\client\Client\EffectLib\ParticleInstance.cpp
; File C:\Users\murat\Desktop\Siveps2-1-99-Project\source\client\extern\include\d3dx8math.inl
; File C:\Users\murat\Desktop\Siveps2-1-99-Project\source\client\Client\EffectLib\ParticleInstance.cpp
; File C:\Users\murat\Desktop\Siveps2-1-99-Project\source\client\extern\include\d3dx8math.inl
; File C:\Users\murat\Desktop\Siveps2-1-99-Project\source\client\Client\EffectLib\ParticleInstance.cpp
; File C:\Users\murat\Desktop\Siveps2-1-99-Project\source\client\extern\include\d3dx8math.inl
; File C:\Users\murat\Desktop\Siveps2-1-99-Project\source\client\Client\EffectLib\ParticleInstance.cpp
; File C:\Users\murat\Desktop\Siveps2-1-99-Project\source\client\extern\include\d3dx8math.inl
; File C:\Users\murat\Desktop\Siveps2-1-99-Project\source\client\Client\EffectLib\ParticleInstance.cpp
; File C:\Users\murat\Desktop\Siveps2-1-99-Project\source\client\extern\include\d3dx8math.inl
; File C:\Users\murat\Desktop\Siveps2-1-99-Project\source\client\Client\EffectLib\ParticleInstance.cpp
; File C:\Users\murat\Desktop\Siveps2-1-99-Project\source\client\extern\include\d3dx8math.inl
; File C:\Users\murat\Desktop\Siveps2-1-99-Project\source\client\Client\EffectLib\ParticleInstance.cpp
; File C:\Users\murat\Desktop\Siveps2-1-99-Project\source\client\extern\include\d3dx8math.inl
; File C:\Users\murat\Desktop\Siveps2-1-99-Project\source\client\Client\EffectLib\ParticleInstance.cpp
; File C:\Users\murat\Desktop\Siveps2-1-99-Project\source\client\extern\include\d3dx8math.inl
; File C:\Users\murat\Desktop\Siveps2-1-99-Project\source\client\Client\EffectLib\ParticleInstance.cpp
; File C:\Users\murat\Desktop\Siveps2-1-99-Project\source\client\extern\include\d3dx8math.inl
; File C:\Users\murat\Desktop\Siveps2-1-99-Project\source\client\Client\EffectLib\ParticleInstance.cpp
; File C:\Users\murat\Desktop\Siveps2-1-99-Project\source\client\extern\include\d3dx8math.inl
; File C:\Users\murat\Desktop\Siveps2-1-99-Project\source\client\Client\EffectLib\ParticleInstance.cpp
; File C:\Users\murat\Desktop\Siveps2-1-99-Project\source\client\extern\include\d3dx8math.inl
; File C:\Users\murat\Desktop\Siveps2-1-99-Project\source\client\Client\EffectLib\ParticleInstance.cpp
; File C:\Users\murat\Desktop\Siveps2-1-99-Project\source\client\extern\include\d3dx8math.inl
; File C:\Users\murat\Desktop\Siveps2-1-99-Project\source\client\Client\EffectLib\ParticleInstance.cpp
; File C:\Users\murat\Desktop\Siveps2-1-99-Project\source\client\extern\include\d3dx8math.inl
; File C:\Users\murat\Desktop\Siveps2-1-99-Project\source\client\Client\EffectLib\ParticleInstance.cpp
; File C:\Users\murat\Desktop\Siveps2-1-99-Project\source\client\extern\include\d3dx8math.inl
; File C:\Users\murat\Desktop\Siveps2-1-99-Project\source\client\Client\EffectLib\ParticleInstance.cpp
; File C:\Users\murat\Desktop\Siveps2-1-99-Project\source\client\extern\include\d3dx8math.inl
; File C:\Users\murat\Desktop\Siveps2-1-99-Project\source\client\Client\EffectLib\ParticleInstance.cpp
;	COMDAT ?Transform@CParticleInstance@@QAEXPBUD3DXMATRIX@@M@Z
_TEXT	SEGMENT
$T1 = -164						; size = 4
_v3Up$9$ = -164						; size = 4
_v3Up$7$ = -164						; size = 4
tv2714 = -164						; size = 4
_v3Cross$5$ = -160					; size = 4
_v3Up$12$ = -160					; size = 4
tv2811 = -160						; size = 4
_v3Up$2$ = -156						; size = 4
_c_matLocal$GSCopy$1$ = -156				; size = 4
tv2812 = -156						; size = 4
_v3Up$14$ = -152					; size = 4
_v3Cross$2$ = -148					; size = 4
_v3Up$4$ = -144						; size = 4
$T2 = -140						; size = 12
$T3 = -140						; size = 12
$T4 = -140						; size = 12
$T5 = -140						; size = 12
$T6 = -140						; size = 12
$T7 = -140						; size = 12
$T8 = -140						; size = 12
$T9 = -140						; size = 12
tv2942 = -128						; size = 16
tv2938 = -128						; size = 16
_v3Up$ = -112						; size = 12
_v3Cross$ = -100					; size = 12
_fCos$1$ = -88						; size = 4
_length$1$ = -88					; size = 4
tv2932 = -88						; size = 8
tv2889 = -88						; size = 4
_v3Position$10 = -88					; size = 12
$T11 = -88						; size = 12
_matRotation$12 = -72					; size = 64
__$ArrayPad$ = -4					; size = 4
_c_matLocal$ = 8					; size = 4
_c_fZRotation$ = 12					; size = 4
?Transform@CParticleInstance@@QAEXPBUD3DXMATRIX@@M@Z PROC ; CParticleInstance::Transform, COMDAT
; _this$ = ecx

; 281  : {

  00000	55		 push	 ebp
  00001	8b ec		 mov	 ebp, esp
  00003	83 e4 f0	 and	 esp, -16		; fffffff0H
  00006	81 ec a8 00 00
	00		 sub	 esp, 168		; 000000a8H
  0000c	a1 00 00 00 00	 mov	 eax, DWORD PTR ___security_cookie
  00011	33 c4		 xor	 eax, esp
  00013	89 84 24 a4 00
	00 00		 mov	 DWORD PTR __$ArrayPad$[esp+168], eax
  0001a	56		 push	 esi
  0001b	8b f1		 mov	 esi, ecx

; 282  : #ifdef WORLD_EDITOR
; 283  : 	STATEMANAGER.SetRenderState(D3DRS_TEXTUREFACTOR, m_Color);
; 284  : #else
; 285  : 	STATEMANAGER.SetRenderState(D3DRS_TEXTUREFACTOR, (DWORD)m_dcColor);

  0001d	8b 0d 00 00 00
	00		 mov	 ecx, DWORD PTR ?ms_singleton@?$CSingleton@VCStateManager@@@@0PAVCStateManager@@A ; CSingleton<CStateManager>::ms_singleton
  00023	57		 push	 edi
  00024	8b 7d 08	 mov	 edi, DWORD PTR _c_matLocal$[ebp]
  00027	89 7c 24 14	 mov	 DWORD PTR _c_matLocal$GSCopy$1$[esp+176], edi
  0002b	ff 76 44	 push	 DWORD PTR [esi+68]
  0002e	6a 3c		 push	 60			; 0000003cH
  00030	e8 00 00 00 00	 call	 ?SetRenderState@CStateManager@@QAEXW4_D3DRENDERSTATETYPE@@K@Z ; CStateManager::SetRenderState

; 286  : #endif
; 287  : 
; 288  : 	/////
; 289  : 
; 290  : 	D3DXVECTOR3 v3Up;
; 291  : 	D3DXVECTOR3 v3Cross;
; 292  : 
; 293  : 	if (!m_pParticleProperty->m_bStretchFlag)

  00035	8b 46 5c	 mov	 eax, DWORD PTR [esi+92]
  00038	83 78 24 00	 cmp	 DWORD PTR [eax+36], 0
  0003c	0f 85 49 03 00
	00		 jne	 $LN4@Transform

; 294  : 	{
; 295  : 		CCamera * pCurrentCamera = CCameraManager::Instance().GetCurrentCamera();

  00042	8b 0d 00 00 00
	00		 mov	 ecx, DWORD PTR ?ms_singleton@?$CSingleton@VCCameraManager@@@@0PAVCCameraManager@@A ; CSingleton<CCameraManager>::ms_singleton
  00048	e8 00 00 00 00	 call	 ?GetCurrentCamera@CCameraManager@@QAEPAVCCamera@@XZ ; CCameraManager::GetCurrentCamera

; 296  : 		const D3DXVECTOR3 & c_rv3Up = pCurrentCamera->GetUp();
; 297  : 		const D3DXVECTOR3 & c_rv3Cross = pCurrentCamera->GetCross();
; 298  : 
; 299  : 		D3DXVECTOR3 v3Rotation;
; 300  : 
; 301  : 		switch(m_pParticleProperty->m_byBillboardType) {

  0004d	8b 4e 5c	 mov	 ecx, DWORD PTR [esi+92]
  00050	8b f8		 mov	 edi, eax
  00052	0f b6 49 13	 movzx	 ecx, BYTE PTR [ecx+19]
  00056	49		 dec	 ecx
  00057	83 f9 04	 cmp	 ecx, 4
  0005a	0f 87 48 02 00
	00		 ja	 $LN12@Transform
  00060	ff 24 8d 00 00
	00 00		 jmp	 DWORD PTR $LN165@Transform[ecx*4]
$LN6@Transform:

; 302  : 		case BILLBOARD_TYPE_LIE:
; 303  : 			{
; 304  : 				float fCos = cosf(D3DXToRadian(m_fRotation)), fSin = sinf(D3DXToRadian(m_fRotation));

  00067	f3 0f 10 46 40	 movss	 xmm0, DWORD PTR [esi+64]
  0006c	f3 0f 59 05 00
	00 00 00	 mulss	 xmm0, DWORD PTR __real@3c8efa35
; File C:\Program Files (x86)\Windows Kits\10\Include\10.0.19041.0\ucrt\corecrt_math.h

; 647  :             return (float)cos(_X);

  00074	0f 5a c0	 cvtps2pd xmm0, xmm0
  00077	f2 0f 11 44 24
	58		 movsd	 QWORD PTR tv2932[esp+176], xmm0
  0007d	e8 00 00 00 00	 call	 __libm_sse2_cos_precise
  00082	f2 0f 5a c0	 cvtsd2ss xmm0, xmm0
  00086	f3 0f 11 44 24
	20		 movss	 DWORD PTR _v3Up$4$[esp+176], xmm0

; 748  :             return (float)sin(_X);

  0008c	f2 0f 10 44 24
	58		 movsd	 xmm0, QWORD PTR tv2932[esp+176]
  00092	e8 00 00 00 00	 call	 __libm_sse2_sin_precise
; File C:\Users\murat\Desktop\Siveps2-1-99-Project\source\client\Client\EffectLib\ParticleInstance.cpp

; 310  : 				v3Cross.y = fCos;

  00097	f3 0f 10 6c 24
	20		 movss	 xmm5, DWORD PTR _v3Up$4$[esp+176]
; File C:\Program Files (x86)\Windows Kits\10\Include\10.0.19041.0\ucrt\corecrt_math.h

; 748  :             return (float)sin(_X);

  0009d	0f 57 f6	 xorps	 xmm6, xmm6
; File C:\Users\murat\Desktop\Siveps2-1-99-Project\source\client\Client\EffectLib\ParticleInstance.cpp

; 313  : 			break;

  000a0	8b 7c 24 14	 mov	 edi, DWORD PTR _c_matLocal$GSCopy$1$[esp+176]
  000a4	0f 28 cd	 movaps	 xmm1, xmm5
; File C:\Program Files (x86)\Windows Kits\10\Include\10.0.19041.0\ucrt\corecrt_math.h

; 748  :             return (float)sin(_X);

  000a7	f2 0f 5a f0	 cvtsd2ss xmm6, xmm0
; File C:\Users\murat\Desktop\Siveps2-1-99-Project\source\client\Client\EffectLib\ParticleInstance.cpp

; 311  : 				v3Cross.z = 0;

  000ab	c7 44 24 54 00
	00 00 00	 mov	 DWORD PTR _v3Cross$[esp+184], 0
  000b3	0f 57 c0	 xorps	 xmm0, xmm0
  000b6	0f 28 e6	 movaps	 xmm4, xmm6
  000b9	f3 0f 11 44 24
	18		 movss	 DWORD PTR _v3Up$14$[esp+176], xmm0
  000bf	0f 57 25 00 00
	00 00		 xorps	 xmm4, DWORD PTR __xmm@80000000800000008000000080000000

; 313  : 			break;

  000c6	e9 8a 04 00 00	 jmp	 $LN169@Transform
$LN7@Transform:

; 314  : 		case BILLBOARD_TYPE_2FACE:
; 315  : 		case BILLBOARD_TYPE_3FACE:
; 316  : 			// using setting with y, and local rotation at render
; 317  : 		case BILLBOARD_TYPE_Y:
; 318  : 			{
; 319  : 				v3Up = D3DXVECTOR3(0.0f,0.0f,1.0f);

  000cb	f3 0f 10 3d 00
	00 00 00	 movss	 xmm7, DWORD PTR __real@3f800000
  000d3	0f 57 db	 xorps	 xmm3, xmm3
  000d6	c7 44 24 40 00
	00 00 00	 mov	 DWORD PTR _v3Up$[esp+176], 0
  000de	0f 57 f6	 xorps	 xmm6, xmm6
  000e1	c7 44 24 44 00
	00 00 00	 mov	 DWORD PTR _v3Up$[esp+180], 0
  000e9	c7 44 24 48 00
	00 80 3f	 mov	 DWORD PTR _v3Up$[esp+184], 1065353216 ; 3f800000H

; 320  : 				//v3Up = D3DXVECTOR3(cosf(D3DXToRadian(m_fRotation)),0.0f,-sinf(D3DXToRadian(m_fRotation)));
; 321  : 				const D3DXVECTOR3 & c_rv3View = pCurrentCamera->GetView();
; 322  : 				if (v3Up.x * c_rv3View.y - v3Up.y * c_rv3View.x<0)

  000f1	f3 0f 10 67 58	 movss	 xmm4, DWORD PTR [edi+88]
  000f6	f3 0f 10 6f 54	 movss	 xmm5, DWORD PTR [edi+84]
  000fb	0f 28 cc	 movaps	 xmm1, xmm4
  000fe	0f 28 c5	 movaps	 xmm0, xmm5
  00101	f3 0f 59 cb	 mulss	 xmm1, xmm3
  00105	f3 0f 59 c3	 mulss	 xmm0, xmm3
  00109	f3 0f 5c c8	 subss	 xmm1, xmm0
  0010d	0f 2f d9	 comiss	 xmm3, xmm1
  00110	76 32		 jbe	 SHORT $LN10@Transform
; File C:\Users\murat\Desktop\Siveps2-1-99-Project\source\client\extern\include\d3dx8math.inl

; 222  :     x *= f;

  00112	f3 0f 10 35 00
	00 00 00	 movss	 xmm6, DWORD PTR __real@80000000

; 224  :     z *= f;

  0011a	f3 0f 10 3d 00
	00 00 00	 movss	 xmm7, DWORD PTR __real@bf800000
  00122	c7 44 24 40 00
	00 00 80	 mov	 DWORD PTR _v3Up$[esp+176], -2147483648 ; 80000000H
  0012a	c7 44 24 44 00
	00 00 80	 mov	 DWORD PTR _v3Up$[esp+180], -2147483648 ; 80000000H
  00132	c7 44 24 48 00
	00 80 bf	 mov	 DWORD PTR _v3Up$[esp+184], -1082130432 ; bf800000H
  0013a	f3 0f 10 6f 54	 movss	 xmm5, DWORD PTR [edi+84]
  0013f	f3 0f 10 67 58	 movss	 xmm4, DWORD PTR [edi+88]
$LN10@Transform:

; 182  :     z = fz;

  00144	0f 28 d6	 movaps	 xmm2, xmm6
; File C:\Users\murat\Desktop\Siveps2-1-99-Project\source\client\Client\EffectLib\ParticleInstance.cpp

; 325  : 				D3DXVec3Normalize(&v3Cross, &v3Cross);

  00147	8d 44 24 4c	 lea	 eax, DWORD PTR _v3Cross$[esp+176]
; File C:\Users\murat\Desktop\Siveps2-1-99-Project\source\client\extern\include\d3dx8math.inl

; 1277 :     v.x = pV1->y * pV2->z - pV1->z * pV2->y;

  0014b	0f 28 cc	 movaps	 xmm1, xmm4

; 182  :     z = fz;

  0014e	f3 0f 59 d3	 mulss	 xmm2, xmm3
; File C:\Users\murat\Desktop\Siveps2-1-99-Project\source\client\Client\EffectLib\ParticleInstance.cpp

; 325  : 				D3DXVec3Normalize(&v3Cross, &v3Cross);

  00152	50		 push	 eax
; File C:\Users\murat\Desktop\Siveps2-1-99-Project\source\client\extern\include\d3dx8math.inl

; 1277 :     v.x = pV1->y * pV2->z - pV1->z * pV2->y;

  00153	f3 0f 59 cf	 mulss	 xmm1, xmm7
; File C:\Users\murat\Desktop\Siveps2-1-99-Project\source\client\Client\EffectLib\ParticleInstance.cpp

; 325  : 				D3DXVec3Normalize(&v3Cross, &v3Cross);

  00157	50		 push	 eax
; File C:\Users\murat\Desktop\Siveps2-1-99-Project\source\client\extern\include\d3dx8math.inl

; 1277 :     v.x = pV1->y * pV2->z - pV1->z * pV2->y;

  00158	0f 28 c2	 movaps	 xmm0, xmm2

; 1278 :     v.y = pV1->z * pV2->x - pV1->x * pV2->z;

  0015b	f3 0f 59 e6	 mulss	 xmm4, xmm6
  0015f	f3 0f 5c c1	 subss	 xmm0, xmm1

; 1280 : 
; 1281 :     *pOut = v;

  00163	f3 0f 11 44 24
	54		 movss	 DWORD PTR _v3Cross$[esp+184], xmm0
  00169	0f 28 c5	 movaps	 xmm0, xmm5
  0016c	f3 0f 59 c7	 mulss	 xmm0, xmm7
  00170	f3 0f 59 ee	 mulss	 xmm5, xmm6
  00174	f3 0f 5c c2	 subss	 xmm0, xmm2
  00178	f3 0f 5c e5	 subss	 xmm4, xmm5
  0017c	f3 0f 11 44 24
	58		 movss	 DWORD PTR _v3Cross$[esp+188], xmm0
  00182	f3 0f 11 64 24
	5c		 movss	 DWORD PTR _v3Cross$[esp+192], xmm4
; File C:\Users\murat\Desktop\Siveps2-1-99-Project\source\client\Client\EffectLib\ParticleInstance.cpp

; 325  : 				D3DXVec3Normalize(&v3Cross, &v3Cross);

  00188	e8 00 00 00 00	 call	 _D3DXVec3Normalize@8

; 326  : 
; 327  : 				if (m_fRotation)

  0018d	f3 0f 10 46 40	 movss	 xmm0, DWORD PTR [esi+64]
  00192	0f 2e 05 00 00
	00 00		 ucomiss xmm0, DWORD PTR __real@00000000
  00199	9f		 lahf
  0019a	f6 c4 44	 test	 ah, 68			; 00000044H
  0019d	0f 8b df 01 00
	00		 jnp	 $LN166@Transform

; 329  : 					float fCos = -sinf(D3DXToRadian(m_fRotation)); // + 90

  001a3	f3 0f 59 05 00
	00 00 00	 mulss	 xmm0, DWORD PTR __real@3c8efa35
  001ab	f3 0f 11 44 24
	0c		 movss	 DWORD PTR tv2714[esp+176], xmm0
; File C:\Program Files (x86)\Windows Kits\10\Include\10.0.19041.0\ucrt\corecrt_math.h

; 748  :             return (float)sin(_X);

  001b1	0f 5a c0	 cvtps2pd xmm0, xmm0
  001b4	e8 00 00 00 00	 call	 __libm_sse2_sin_precise

; 647  :             return (float)cos(_X);

  001b9	f3 0f 10 4c 24
	0c		 movss	 xmm1, DWORD PTR tv2714[esp+176]

; 748  :             return (float)sin(_X);

  001bf	f2 0f 5a c0	 cvtsd2ss xmm0, xmm0
; File C:\Users\murat\Desktop\Siveps2-1-99-Project\source\client\Client\EffectLib\ParticleInstance.cpp

; 329  : 					float fCos = -sinf(D3DXToRadian(m_fRotation)); // + 90

  001c3	0f 57 05 00 00
	00 00		 xorps	 xmm0, DWORD PTR __xmm@80000000800000008000000080000000
  001ca	f3 0f 11 44 24
	18		 movss	 DWORD PTR _v3Up$14$[esp+176], xmm0
; File C:\Program Files (x86)\Windows Kits\10\Include\10.0.19041.0\ucrt\corecrt_math.h

; 647  :             return (float)cos(_X);

  001d0	0f 5a c1	 cvtps2pd xmm0, xmm1
  001d3	e8 00 00 00 00	 call	 __libm_sse2_cos_precise
; File C:\Users\murat\Desktop\Siveps2-1-99-Project\source\client\extern\include\d3dx8math.inl

; 269  :     return D3DXVECTOR3(x * f, y * f, z * f);

  001d8	f3 0f 10 64 24
	18		 movss	 xmm4, DWORD PTR _v3Up$14$[esp+176]
; File C:\Program Files (x86)\Windows Kits\10\Include\10.0.19041.0\ucrt\corecrt_math.h

; 647  :             return (float)cos(_X);

  001de	0f 57 ed	 xorps	 xmm5, xmm5
; File C:\Users\murat\Desktop\Siveps2-1-99-Project\source\client\extern\include\d3dx8math.inl

; 269  :     return D3DXVECTOR3(x * f, y * f, z * f);

  001e1	f3 0f 59 64 24
	4c		 mulss	 xmm4, DWORD PTR _v3Cross$[esp+176]
; File C:\Users\murat\Desktop\Siveps2-1-99-Project\source\client\Client\EffectLib\ParticleInstance.cpp

; 341  : 			break;

  001e7	8b 7c 24 14	 mov	 edi, DWORD PTR _c_matLocal$GSCopy$1$[esp+176]
; File C:\Program Files (x86)\Windows Kits\10\Include\10.0.19041.0\ucrt\corecrt_math.h

; 647  :             return (float)cos(_X);

  001eb	f2 0f 5a e8	 cvtsd2ss xmm5, xmm0
; File C:\Users\murat\Desktop\Siveps2-1-99-Project\source\client\extern\include\d3dx8math.inl

; 269  :     return D3DXVECTOR3(x * f, y * f, z * f);

  001ef	f3 0f 10 5c 24
	18		 movss	 xmm3, DWORD PTR _v3Up$14$[esp+176]
  001f5	0f 28 c5	 movaps	 xmm0, xmm5
  001f8	f3 0f 11 64 24
	1c		 movss	 DWORD PTR _v3Cross$2$[esp+176], xmm4
  001fe	f3 0f 59 44 24
	40		 mulss	 xmm0, DWORD PTR _v3Up$[esp+176]
  00204	0f 28 f5	 movaps	 xmm6, xmm5
  00207	f3 0f 59 74 24
	4c		 mulss	 xmm6, DWORD PTR _v3Cross$[esp+176]
  0020d	0f 28 fd	 movaps	 xmm7, xmm5

; 182  :     z = fz;

  00210	f3 0f 58 e0	 addss	 xmm4, xmm0

; 269  :     return D3DXVECTOR3(x * f, y * f, z * f);

  00214	f3 0f 59 7c 24
	50		 mulss	 xmm7, DWORD PTR _v3Cross$[esp+180]
  0021a	0f 28 c5	 movaps	 xmm0, xmm5
  0021d	0f 28 d5	 movaps	 xmm2, xmm5
  00220	f3 0f 59 44 24
	44		 mulss	 xmm0, DWORD PTR _v3Up$[esp+180]
  00226	f3 0f 59 6c 24
	48		 mulss	 xmm5, DWORD PTR _v3Up$[esp+184]
  0022c	f3 0f 59 54 24
	54		 mulss	 xmm2, DWORD PTR _v3Cross$[esp+184]

; 182  :     z = fz;

  00232	f3 0f 11 64 24
	1c		 movss	 DWORD PTR _v3Cross$2$[esp+176], xmm4

; 269  :     return D3DXVECTOR3(x * f, y * f, z * f);

  00238	f3 0f 10 64 24
	18		 movss	 xmm4, DWORD PTR _v3Up$14$[esp+176]
  0023e	f3 0f 59 64 24
	50		 mulss	 xmm4, DWORD PTR _v3Cross$[esp+180]

; 180  :     x = fx;

  00244	f3 0f 58 e0	 addss	 xmm4, xmm0

; 269  :     return D3DXVECTOR3(x * f, y * f, z * f);

  00248	f3 0f 10 44 24
	18		 movss	 xmm0, DWORD PTR _v3Up$14$[esp+176]
  0024e	f3 0f 59 44 24
	54		 mulss	 xmm0, DWORD PTR _v3Cross$[esp+184]

; 181  :     y = fy;

  00254	f3 0f 58 c5	 addss	 xmm0, xmm5
  00258	f3 0f 11 64 24
	10		 movss	 DWORD PTR _v3Cross$5$[esp+176], xmm4
; File C:\Users\murat\Desktop\Siveps2-1-99-Project\source\client\Client\EffectLib\ParticleInstance.cpp

; 341  : 			break;

  0025e	f3 0f 10 4c 24
	10		 movss	 xmm1, DWORD PTR _v3Cross$5$[esp+176]
; File C:\Users\murat\Desktop\Siveps2-1-99-Project\source\client\extern\include\d3dx8math.inl

; 269  :     return D3DXVECTOR3(x * f, y * f, z * f);

  00264	0f 28 eb	 movaps	 xmm5, xmm3
  00267	f3 0f 59 6c 24
	40		 mulss	 xmm5, DWORD PTR _v3Up$[esp+176]
  0026d	0f 28 e3	 movaps	 xmm4, xmm3
  00270	f3 0f 59 5c 24
	48		 mulss	 xmm3, DWORD PTR _v3Up$[esp+184]
  00276	f3 0f 59 64 24
	44		 mulss	 xmm4, DWORD PTR _v3Up$[esp+180]

; 182  :     z = fz;

  0027c	f3 0f 5c ee	 subss	 xmm5, xmm6
; File C:\Users\murat\Desktop\Siveps2-1-99-Project\source\client\Client\EffectLib\ParticleInstance.cpp

; 341  : 			break;

  00280	f3 0f 10 74 24
	1c		 movss	 xmm6, DWORD PTR _v3Cross$2$[esp+176]
; File C:\Users\murat\Desktop\Siveps2-1-99-Project\source\client\extern\include\d3dx8math.inl

; 181  :     y = fy;

  00286	f3 0f 5c da	 subss	 xmm3, xmm2
; File C:\Users\murat\Desktop\Siveps2-1-99-Project\source\client\Client\EffectLib\ParticleInstance.cpp

; 333  : 					v3Cross = v3Cross * fCos + v3Up * fSin;

  0028a	f3 0f 11 44 24
	54		 movss	 DWORD PTR _v3Cross$[esp+184], xmm0
  00290	0f 57 c0	 xorps	 xmm0, xmm0
; File C:\Users\murat\Desktop\Siveps2-1-99-Project\source\client\extern\include\d3dx8math.inl

; 180  :     x = fx;

  00293	f3 0f 5c e7	 subss	 xmm4, xmm7

; 182  :     z = fz;

  00297	f3 0f 11 6c 24
	20		 movss	 DWORD PTR _v3Up$4$[esp+176], xmm5

; 181  :     y = fy;

  0029d	f3 0f 11 5c 24
	18		 movss	 DWORD PTR _v3Up$14$[esp+176], xmm3
; File C:\Users\murat\Desktop\Siveps2-1-99-Project\source\client\Client\EffectLib\ParticleInstance.cpp

; 341  : 			break;

  002a3	e9 b9 02 00 00	 jmp	 $LN170@Transform
$LN12@Transform:

; 342  : 		case BILLBOARD_TYPE_ALL:
; 343  : 		default:
; 344  : 			{
; 345  : 				// NOTE : Rotation Routine. Camera Up Vector Cross Vector  View Vector 
; 346  : 				//        Rotation .
; 347  : 				// FIXME :    !
; 348  : 				if (m_fRotation==0.0f)

  002a8	f3 0f 10 46 40	 movss	 xmm0, DWORD PTR [esi+64]
  002ad	0f 2e 05 00 00
	00 00		 ucomiss xmm0, DWORD PTR __real@00000000
  002b4	9f		 lahf
  002b5	f6 c4 44	 test	 ah, 68			; 00000044H
  002b8	7a 53		 jp	 SHORT $LN14@Transform
; File C:\Users\murat\Desktop\Siveps2-1-99-Project\source\client\extern\include\d3dx8math.inl

; 249  :     return D3DXVECTOR3(-x, -y, -z);

  002ba	f3 0f 10 67 64	 movss	 xmm4, DWORD PTR [edi+100]
  002bf	f3 0f 10 4f 68	 movss	 xmm1, DWORD PTR [edi+104]
  002c4	f3 0f 10 6f 60	 movss	 xmm5, DWORD PTR [edi+96]
  002c9	f3 0f 10 05 00
	00 00 00	 movss	 xmm0, DWORD PTR __xmm@80000000800000008000000080000000
  002d1	0f 57 c8	 xorps	 xmm1, xmm0
  002d4	0f 57 e8	 xorps	 xmm5, xmm0
  002d7	0f 57 e0	 xorps	 xmm4, xmm0
; File C:\Users\murat\Desktop\Siveps2-1-99-Project\source\client\Client\EffectLib\ParticleInstance.cpp

; 350  : 					v3Up = -c_rv3Cross;

  002da	f3 0f 11 6c 24
	40		 movss	 DWORD PTR _v3Up$[esp+176], xmm5
  002e0	f3 0f 11 64 24
	44		 movss	 DWORD PTR _v3Up$[esp+180], xmm4
  002e6	f3 0f 11 4c 24
	48		 movss	 DWORD PTR _v3Up$[esp+184], xmm1

; 351  : 					v3Cross = c_rv3Up;

  002ec	f3 0f 7e 47 48	 movq	 xmm0, QWORD PTR [edi+72]
  002f1	66 0f d6 44 24
	4c		 movq	 QWORD PTR _v3Cross$[esp+176], xmm0
  002f7	8b 47 50	 mov	 eax, DWORD PTR [edi+80]

; 352  : 				}

  002fa	8b 7c 24 14	 mov	 edi, DWORD PTR _c_matLocal$GSCopy$1$[esp+176]
; File C:\Users\murat\Desktop\Siveps2-1-99-Project\source\client\extern\include\d3dx8math.inl

; 249  :     return D3DXVECTOR3(-x, -y, -z);

  002fe	f3 0f 11 4c 24
	18		 movss	 DWORD PTR _v3Up$14$[esp+176], xmm1
; File C:\Users\murat\Desktop\Siveps2-1-99-Project\source\client\Client\EffectLib\ParticleInstance.cpp

; 351  : 					v3Cross = c_rv3Up;

  00304	89 44 24 54	 mov	 DWORD PTR _v3Cross$[esp+184], eax

; 352  : 				}

  00308	e9 33 02 00 00	 jmp	 $LN172@Transform
$LN14@Transform:

; 353  : 				else
; 354  : 				{
; 355  : 					const D3DXVECTOR3 & c_rv3View = pCurrentCamera->GetView();
; 356  : 					D3DXMATRIX matRotation;
; 357  : 
; 358  : 					D3DXMatrixRotationAxis(&matRotation, &c_rv3View, D3DXToRadian(m_fRotation));

  0030d	f3 0f 59 05 00
	00 00 00	 mulss	 xmm0, DWORD PTR __real@3c8efa35
  00315	8d 47 54	 lea	 eax, DWORD PTR [edi+84]
  00318	51		 push	 ecx
  00319	f3 0f 11 04 24	 movss	 DWORD PTR [esp], xmm0
  0031e	50		 push	 eax
  0031f	8d 44 24 70	 lea	 eax, DWORD PTR _matRotation$12[esp+184]
  00323	50		 push	 eax
  00324	e8 00 00 00 00	 call	 _D3DXMatrixRotationAxis@12
; File C:\Users\murat\Desktop\Siveps2-1-99-Project\source\client\extern\include\d3dx8math.inl

; 249  :     return D3DXVECTOR3(-x, -y, -z);

  00329	f3 0f 10 0d 00
	00 00 00	 movss	 xmm1, DWORD PTR __xmm@80000000800000008000000080000000
; File C:\Users\murat\Desktop\Siveps2-1-99-Project\source\client\Client\EffectLib\ParticleInstance.cpp

; 359  : 					D3DXVec3TransformCoord(&v3Up, &(-c_rv3Cross), &matRotation);

  00331	8d 44 24 68	 lea	 eax, DWORD PTR _matRotation$12[esp+176]
; File C:\Users\murat\Desktop\Siveps2-1-99-Project\source\client\extern\include\d3dx8math.inl

; 249  :     return D3DXVECTOR3(-x, -y, -z);

  00335	f3 0f 10 47 60	 movss	 xmm0, DWORD PTR [edi+96]
  0033a	0f 57 c1	 xorps	 xmm0, xmm1

; 180  :     x = fx;

  0033d	f3 0f 11 44 24
	58		 movss	 DWORD PTR $T11[esp+176], xmm0

; 249  :     return D3DXVECTOR3(-x, -y, -z);

  00343	f3 0f 10 47 64	 movss	 xmm0, DWORD PTR [edi+100]
; File C:\Users\murat\Desktop\Siveps2-1-99-Project\source\client\Client\EffectLib\ParticleInstance.cpp

; 359  : 					D3DXVec3TransformCoord(&v3Up, &(-c_rv3Cross), &matRotation);

  00348	50		 push	 eax
; File C:\Users\murat\Desktop\Siveps2-1-99-Project\source\client\extern\include\d3dx8math.inl

; 249  :     return D3DXVECTOR3(-x, -y, -z);

  00349	0f 57 c1	 xorps	 xmm0, xmm1
; File C:\Users\murat\Desktop\Siveps2-1-99-Project\source\client\Client\EffectLib\ParticleInstance.cpp

; 359  : 					D3DXVec3TransformCoord(&v3Up, &(-c_rv3Cross), &matRotation);

  0034c	8d 44 24 5c	 lea	 eax, DWORD PTR $T11[esp+180]
; File C:\Users\murat\Desktop\Siveps2-1-99-Project\source\client\extern\include\d3dx8math.inl

; 181  :     y = fy;

  00350	f3 0f 11 44 24
	60		 movss	 DWORD PTR $T11[esp+184], xmm0

; 249  :     return D3DXVECTOR3(-x, -y, -z);

  00356	f3 0f 10 47 68	 movss	 xmm0, DWORD PTR [edi+104]
; File C:\Users\murat\Desktop\Siveps2-1-99-Project\source\client\Client\EffectLib\ParticleInstance.cpp

; 359  : 					D3DXVec3TransformCoord(&v3Up, &(-c_rv3Cross), &matRotation);

  0035b	50		 push	 eax
  0035c	8d 44 24 48	 lea	 eax, DWORD PTR _v3Up$[esp+184]
; File C:\Users\murat\Desktop\Siveps2-1-99-Project\source\client\extern\include\d3dx8math.inl

; 249  :     return D3DXVECTOR3(-x, -y, -z);

  00360	0f 57 c1	 xorps	 xmm0, xmm1
; File C:\Users\murat\Desktop\Siveps2-1-99-Project\source\client\Client\EffectLib\ParticleInstance.cpp

; 359  : 					D3DXVec3TransformCoord(&v3Up, &(-c_rv3Cross), &matRotation);

  00363	50		 push	 eax
; File C:\Users\murat\Desktop\Siveps2-1-99-Project\source\client\extern\include\d3dx8math.inl

; 182  :     z = fz;

  00364	f3 0f 11 44 24
	6c		 movss	 DWORD PTR $T11[esp+196], xmm0
; File C:\Users\murat\Desktop\Siveps2-1-99-Project\source\client\Client\EffectLib\ParticleInstance.cpp

; 359  : 					D3DXVec3TransformCoord(&v3Up, &(-c_rv3Cross), &matRotation);

  0036a	e8 00 00 00 00	 call	 _D3DXVec3TransformCoord@12

; 360  : 					D3DXVec3TransformCoord(&v3Cross, &c_rv3Up, &matRotation);

  0036f	8d 44 24 68	 lea	 eax, DWORD PTR _matRotation$12[esp+176]
  00373	50		 push	 eax
  00374	8d 47 48	 lea	 eax, DWORD PTR [edi+72]
  00377	50		 push	 eax
  00378	8d 44 24 54	 lea	 eax, DWORD PTR _v3Cross$[esp+184]
  0037c	50		 push	 eax
  0037d	e8 00 00 00 00	 call	 _D3DXVec3TransformCoord@12
$LN166@Transform:

; 391  : 
; 392  : 	}
; 393  : 
; 394  : 	if (c_fZRotation)

  00382	8b 7c 24 14	 mov	 edi, DWORD PTR _c_matLocal$GSCopy$1$[esp+176]
  00386	e9 9d 01 00 00	 jmp	 $LN171@Transform
$LN4@Transform:
; File C:\Users\murat\Desktop\Siveps2-1-99-Project\source\client\extern\include\d3dx8math.inl

; 263  :     return D3DXVECTOR3(x - v.x, y - v.y, z - v.z);

  0038b	f3 0f 10 56 0c	 movss	 xmm2, DWORD PTR [esi+12]
  00390	f3 0f 10 46 10	 movss	 xmm0, DWORD PTR [esi+16]
  00395	f3 0f 10 5e 14	 movss	 xmm3, DWORD PTR [esi+20]
  0039a	f3 0f 5c 56 18	 subss	 xmm2, DWORD PTR [esi+24]
  0039f	f3 0f 5c 46 1c	 subss	 xmm0, DWORD PTR [esi+28]
  003a4	f3 0f 5c 5e 20	 subss	 xmm3, DWORD PTR [esi+32]
  003a9	f3 0f 11 54 24
	14		 movss	 DWORD PTR _v3Up$2$[esp+176], xmm2
; File C:\Users\murat\Desktop\Siveps2-1-99-Project\source\client\Client\EffectLib\ParticleInstance.cpp

; 368  : 		v3Up = m_v3Position - m_v3LastPosition;

  003af	f3 0f 11 54 24
	40		 movss	 DWORD PTR _v3Up$[esp+176], xmm2
; File C:\Users\murat\Desktop\Siveps2-1-99-Project\source\client\extern\include\d3dx8math.inl

; 263  :     return D3DXVECTOR3(x - v.x, y - v.y, z - v.z);

  003b5	f3 0f 11 44 24
	0c		 movss	 DWORD PTR _v3Up$7$[esp+176], xmm0
; File C:\Users\murat\Desktop\Siveps2-1-99-Project\source\client\Client\EffectLib\ParticleInstance.cpp

; 368  : 		v3Up = m_v3Position - m_v3LastPosition;

  003bb	f3 0f 11 44 24
	44		 movss	 DWORD PTR _v3Up$[esp+180], xmm0
; File C:\Users\murat\Desktop\Siveps2-1-99-Project\source\client\extern\include\d3dx8math.inl

; 263  :     return D3DXVECTOR3(x - v.x, y - v.y, z - v.z);

  003c1	f3 0f 11 5c 24
	10		 movss	 DWORD PTR _v3Up$12$[esp+176], xmm3
; File C:\Users\murat\Desktop\Siveps2-1-99-Project\source\client\Client\EffectLib\ParticleInstance.cpp

; 368  : 		v3Up = m_v3Position - m_v3LastPosition;

  003c7	f3 0f 11 5c 24
	48		 movss	 DWORD PTR _v3Up$[esp+184], xmm3

; 369  : 
; 370  : 		if (c_matLocal)

  003cd	85 ff		 test	 edi, edi
  003cf	74 30		 je	 SHORT $LN16@Transform

; 371  : 		{
; 372  : 			//if (!m_pParticleProperty->m_bAttachFlag)
; 373  : 				D3DXVec3TransformNormal(&v3Up, &v3Up, c_matLocal);

  003d1	57		 push	 edi
  003d2	8d 44 24 44	 lea	 eax, DWORD PTR _v3Up$[esp+180]
  003d6	50		 push	 eax
  003d7	50		 push	 eax
  003d8	e8 00 00 00 00	 call	 _D3DXVec3TransformNormal@12
  003dd	f3 0f 10 5c 24
	48		 movss	 xmm3, DWORD PTR _v3Up$[esp+184]
  003e3	f3 0f 10 44 24
	44		 movss	 xmm0, DWORD PTR _v3Up$[esp+180]
  003e9	f3 0f 10 54 24
	40		 movss	 xmm2, DWORD PTR _v3Up$[esp+176]
  003ef	f3 0f 11 5c 24
	10		 movss	 DWORD PTR _v3Up$12$[esp+176], xmm3
  003f5	f3 0f 11 44 24
	0c		 movss	 DWORD PTR _v3Up$7$[esp+176], xmm0
  003fb	f3 0f 11 54 24
	14		 movss	 DWORD PTR _v3Up$2$[esp+176], xmm2
$LN16@Transform:
; File C:\Users\murat\Desktop\Siveps2-1-99-Project\source\client\extern\include\d3dx8math.inl

; 1239 :     return sqrtf(pV->x * pV->x + pV->y * pV->y + pV->z * pV->z);

  00401	0f 28 c8	 movaps	 xmm1, xmm0
  00404	f3 0f 59 c8	 mulss	 xmm1, xmm0
  00408	0f 28 c2	 movaps	 xmm0, xmm2
  0040b	f3 0f 59 c2	 mulss	 xmm0, xmm2
  0040f	f3 0f 58 c8	 addss	 xmm1, xmm0
  00413	0f 28 c3	 movaps	 xmm0, xmm3
  00416	f3 0f 59 c3	 mulss	 xmm0, xmm3
  0041a	f3 0f 58 c8	 addss	 xmm1, xmm0
; File C:\Program Files (x86)\Windows Kits\10\Include\10.0.19041.0\ucrt\corecrt_math.h

; 758  :             return (float)sqrt(_X);

  0041e	0f 5a c1	 cvtps2pd xmm0, xmm1
  00421	0f 57 c9	 xorps	 xmm1, xmm1
  00424	66 0f 2e c8	 ucomisd xmm1, xmm0
  00428	77 06		 ja	 SHORT $LN167@Transform
  0042a	f2 0f 51 c0	 sqrtsd	 xmm0, xmm0
  0042e	eb 05		 jmp	 SHORT $LN168@Transform
$LN167@Transform:
  00430	e8 00 00 00 00	 call	 __libm_sse2_sqrt_precise
$LN168@Transform:
  00435	f2 0f 5a c0	 cvtsd2ss xmm0, xmm0
; File C:\Users\murat\Desktop\Siveps2-1-99-Project\source\client\Client\EffectLib\ParticleInstance.cpp

; 378  : 		if (length == 0.0f)

  00439	0f 2e 05 00 00
	00 00		 ucomiss xmm0, DWORD PTR __real@00000000
; File C:\Program Files (x86)\Windows Kits\10\Include\10.0.19041.0\ucrt\corecrt_math.h

; 758  :             return (float)sqrt(_X);

  00440	f3 0f 11 44 24
	58		 movss	 DWORD PTR _length$1$[esp+176], xmm0
; File C:\Users\murat\Desktop\Siveps2-1-99-Project\source\client\Client\EffectLib\ParticleInstance.cpp

; 378  : 		if (length == 0.0f)

  00446	9f		 lahf
  00447	f6 c4 44	 test	 ah, 68			; 00000044H
  0044a	7a 1a		 jp	 SHORT $LN17@Transform

; 379  : 		{
; 380  : 			v3Up = D3DXVECTOR3(0.0f,0.0f,1.0f);

  0044c	c7 44 24 40 00
	00 00 00	 mov	 DWORD PTR _v3Up$[esp+176], 0
  00454	c7 44 24 44 00
	00 00 00	 mov	 DWORD PTR _v3Up$[esp+180], 0
  0045c	c7 44 24 48 00
	00 80 3f	 mov	 DWORD PTR _v3Up$[esp+184], 1065353216 ; 3f800000H

; 381  : 		}

  00464	eb 50		 jmp	 SHORT $LN18@Transform
$LN17@Transform:

; 383  : 			v3Up *=(1+log(1+length))/length;

  00466	f3 0f 58 05 00
	00 00 00	 addss	 xmm0, DWORD PTR __real@3f800000
; File C:\Program Files (x86)\Windows Kits\10\Include\10.0.19041.0\ucrt\corecrt_math.h

; 730  :             return (float)log(_X);

  0046e	f3 0f 5a c0	 cvtss2sd xmm0, xmm0
  00472	e8 00 00 00 00	 call	 __libm_sse2_log_precise
  00477	0f 57 c9	 xorps	 xmm1, xmm1
  0047a	f2 0f 5a c8	 cvtsd2ss xmm1, xmm0
; File C:\Users\murat\Desktop\Siveps2-1-99-Project\source\client\Client\EffectLib\ParticleInstance.cpp

; 383  : 			v3Up *=(1+log(1+length))/length;

  0047e	f3 0f 58 0d 00
	00 00 00	 addss	 xmm1, DWORD PTR __real@3f800000
  00486	f3 0f 5e 4c 24
	58		 divss	 xmm1, DWORD PTR _length$1$[esp+176]
; File C:\Users\murat\Desktop\Siveps2-1-99-Project\source\client\extern\include\d3dx8math.inl

; 222  :     x *= f;

  0048c	0f 28 c1	 movaps	 xmm0, xmm1
  0048f	f3 0f 59 44 24
	14		 mulss	 xmm0, DWORD PTR _v3Up$2$[esp+176]
  00495	f3 0f 11 44 24
	40		 movss	 DWORD PTR _v3Up$[esp+176], xmm0

; 223  :     y *= f;

  0049b	0f 28 c1	 movaps	 xmm0, xmm1
  0049e	f3 0f 59 44 24
	0c		 mulss	 xmm0, DWORD PTR _v3Up$7$[esp+176]

; 224  :     z *= f;

  004a4	f3 0f 59 4c 24
	10		 mulss	 xmm1, DWORD PTR _v3Up$12$[esp+176]
  004aa	f3 0f 11 44 24
	44		 movss	 DWORD PTR _v3Up$[esp+180], xmm0
  004b0	f3 0f 11 4c 24
	48		 movss	 DWORD PTR _v3Up$[esp+184], xmm1
$LN18@Transform:
; File C:\Users\murat\Desktop\Siveps2-1-99-Project\source\client\Client\EffectLib\ParticleInstance.cpp

; 387  : 		CCamera * pCurrentCamera = CCameraManager::Instance().GetCurrentCamera();

  004b6	8b 0d 00 00 00
	00		 mov	 ecx, DWORD PTR ?ms_singleton@?$CSingleton@VCCameraManager@@@@0PAVCCameraManager@@A ; CSingleton<CCameraManager>::ms_singleton
  004bc	e8 00 00 00 00	 call	 ?GetCurrentCamera@CCameraManager@@QAEPAVCCamera@@XZ ; CCameraManager::GetCurrentCamera
; File C:\Users\murat\Desktop\Siveps2-1-99-Project\source\client\extern\include\d3dx8math.inl

; 1277 :     v.x = pV1->y * pV2->z - pV1->z * pV2->y;

  004c1	f3 0f 10 5c 24
	44		 movss	 xmm3, DWORD PTR _v3Up$[esp+180]
  004c7	f3 0f 10 60 5c	 movss	 xmm4, DWORD PTR [eax+92]
  004cc	f3 0f 10 70 58	 movss	 xmm6, DWORD PTR [eax+88]
  004d1	0f 28 d4	 movaps	 xmm2, xmm4

; 1278 :     v.y = pV1->z * pV2->x - pV1->x * pV2->z;

  004d4	f3 0f 10 68 54	 movss	 xmm5, DWORD PTR [eax+84]
  004d9	0f 28 c6	 movaps	 xmm0, xmm6
  004dc	f3 0f 59 44 24
	48		 mulss	 xmm0, DWORD PTR _v3Up$[esp+184]
; File C:\Users\murat\Desktop\Siveps2-1-99-Project\source\client\Client\EffectLib\ParticleInstance.cpp

; 390  : 		D3DXVec3Normalize(&v3Cross, &v3Cross);

  004e2	8d 44 24 4c	 lea	 eax, DWORD PTR _v3Cross$[esp+176]
  004e6	50		 push	 eax
; File C:\Users\murat\Desktop\Siveps2-1-99-Project\source\client\extern\include\d3dx8math.inl

; 1278 :     v.y = pV1->z * pV2->x - pV1->x * pV2->z;

  004e7	f3 0f 59 64 24
	44		 mulss	 xmm4, DWORD PTR _v3Up$[esp+180]
; File C:\Users\murat\Desktop\Siveps2-1-99-Project\source\client\Client\EffectLib\ParticleInstance.cpp

; 390  : 		D3DXVec3Normalize(&v3Cross, &v3Cross);

  004ed	50		 push	 eax
; File C:\Users\murat\Desktop\Siveps2-1-99-Project\source\client\extern\include\d3dx8math.inl

; 1279 :     v.z = pV1->x * pV2->y - pV1->y * pV2->x;

  004ee	f3 0f 59 74 24
	48		 mulss	 xmm6, DWORD PTR _v3Up$[esp+184]
  004f4	f3 0f 59 d3	 mulss	 xmm2, xmm3
  004f8	f3 0f 5c d0	 subss	 xmm2, xmm0

; 1280 : 
; 1281 :     *pOut = v;

  004fc	f3 0f 11 54 24
	54		 movss	 DWORD PTR _v3Cross$[esp+184], xmm2
  00502	0f 28 d5	 movaps	 xmm2, xmm5
  00505	f3 0f 59 54 24
	50		 mulss	 xmm2, DWORD PTR _v3Up$[esp+192]
  0050b	f3 0f 59 eb	 mulss	 xmm5, xmm3
  0050f	f3 0f 5c d4	 subss	 xmm2, xmm4
  00513	f3 0f 5c f5	 subss	 xmm6, xmm5
  00517	f3 0f 11 54 24
	58		 movss	 DWORD PTR _v3Cross$[esp+188], xmm2
  0051d	f3 0f 11 74 24
	5c		 movss	 DWORD PTR _v3Cross$[esp+192], xmm6
; File C:\Users\murat\Desktop\Siveps2-1-99-Project\source\client\Client\EffectLib\ParticleInstance.cpp

; 390  : 		D3DXVec3Normalize(&v3Cross, &v3Cross);

  00523	e8 00 00 00 00	 call	 _D3DXVec3Normalize@8
$LN171@Transform:

; 391  : 
; 392  : 	}
; 393  : 
; 394  : 	if (c_fZRotation)

  00528	f3 0f 10 44 24
	48		 movss	 xmm0, DWORD PTR _v3Up$[esp+184]
  0052e	f3 0f 10 64 24
	44		 movss	 xmm4, DWORD PTR _v3Up$[esp+180]
  00534	f3 0f 10 6c 24
	40		 movss	 xmm5, DWORD PTR _v3Up$[esp+176]
  0053a	f3 0f 11 44 24
	18		 movss	 DWORD PTR _v3Up$14$[esp+176], xmm0
$LN172@Transform:
  00540	f3 0f 10 74 24
	4c		 movss	 xmm6, DWORD PTR _v3Cross$[esp+176]
  00546	0f 57 c0	 xorps	 xmm0, xmm0
  00549	f3 0f 10 4c 24
	50		 movss	 xmm1, DWORD PTR _v3Cross$[esp+180]
  0054f	f3 0f 11 6c 24
	20		 movss	 DWORD PTR _v3Up$4$[esp+176], xmm5
$LN169@Transform:
  00555	f3 0f 11 4c 24
	10		 movss	 DWORD PTR _v3Cross$5$[esp+176], xmm1
  0055b	f3 0f 11 74 24
	1c		 movss	 DWORD PTR _v3Cross$2$[esp+176], xmm6
$LN170@Transform:
  00561	f3 0f 10 55 0c	 movss	 xmm2, DWORD PTR _c_fZRotation$[ebp]
  00566	0f 2e d0	 ucomiss xmm2, xmm0
  00569	f3 0f 11 64 24
	0c		 movss	 DWORD PTR _v3Up$9$[esp+176], xmm4
  0056f	9f		 lahf
  00570	f6 c4 44	 test	 ah, 68			; 00000044H
  00573	0f 8b 84 00 00
	00		 jnp	 $LN19@Transform
  00579	0f 28 c2	 movaps	 xmm0, xmm2
; File C:\Program Files (x86)\Windows Kits\10\Include\10.0.19041.0\ucrt\corecrt_math.h

; 647  :             return (float)cos(_X);

  0057c	0f 5a c0	 cvtps2pd xmm0, xmm0
  0057f	e8 00 00 00 00	 call	 __libm_sse2_cos_precise
  00584	f2 0f 5a c0	 cvtsd2ss xmm0, xmm0
  00588	f3 0f 11 44 24
	58		 movss	 DWORD PTR _fCos$1$[esp+176], xmm0
  0058e	f3 0f 10 45 0c	 movss	 xmm0, DWORD PTR _c_fZRotation$[ebp]

; 748  :             return (float)sin(_X);

  00593	0f 5a c0	 cvtps2pd xmm0, xmm0
  00596	e8 00 00 00 00	 call	 __libm_sse2_sin_precise
; File C:\Users\murat\Desktop\Siveps2-1-99-Project\source\client\Client\EffectLib\ParticleInstance.cpp

; 400  : 		x = v3Up.x;

  0059b	f3 0f 10 5c 24
	58		 movss	 xmm3, DWORD PTR _fCos$1$[esp+176]
; File C:\Program Files (x86)\Windows Kits\10\Include\10.0.19041.0\ucrt\corecrt_math.h

; 748  :             return (float)sin(_X);

  005a1	0f 57 d2	 xorps	 xmm2, xmm2
; File C:\Users\murat\Desktop\Siveps2-1-99-Project\source\client\Client\EffectLib\ParticleInstance.cpp

; 400  : 		x = v3Up.x;

  005a4	f3 0f 10 4c 24
	20		 movss	 xmm1, DWORD PTR _v3Up$4$[esp+176]
  005aa	0f 28 eb	 movaps	 xmm5, xmm3

; 401  : 		y = v3Up.y;
; 402  : 		v3Up.x = x * fCos - y * fSin;

  005ad	f3 0f 10 64 24
	0c		 movss	 xmm4, DWORD PTR _v3Up$9$[esp+176]

; 404  : 
; 405  : 		x = v3Cross.x;

  005b3	0f 28 f3	 movaps	 xmm6, xmm3
; File C:\Program Files (x86)\Windows Kits\10\Include\10.0.19041.0\ucrt\corecrt_math.h

; 748  :             return (float)sin(_X);

  005b6	f2 0f 5a d0	 cvtsd2ss xmm2, xmm0
; File C:\Users\murat\Desktop\Siveps2-1-99-Project\source\client\Client\EffectLib\ParticleInstance.cpp

; 400  : 		x = v3Up.x;

  005ba	f3 0f 59 e9	 mulss	 xmm5, xmm1

; 401  : 		y = v3Up.y;
; 402  : 		v3Up.x = x * fCos - y * fSin;

  005be	0f 28 c2	 movaps	 xmm0, xmm2

; 403  : 		v3Up.y = y * fCos + x * fSin;

  005c1	f3 0f 59 ca	 mulss	 xmm1, xmm2
  005c5	f3 0f 59 c4	 mulss	 xmm0, xmm4
  005c9	f3 0f 5c e8	 subss	 xmm5, xmm0
  005cd	0f 28 c3	 movaps	 xmm0, xmm3

; 406  : 		y = v3Cross.y;
; 407  : 		v3Cross.x = x * fCos - y * fSin;
; 408  : 		v3Cross.y = y * fCos + x * fSin;

  005d0	f3 0f 59 5c 24
	10		 mulss	 xmm3, DWORD PTR _v3Cross$5$[esp+176]
  005d6	f3 0f 59 e0	 mulss	 xmm4, xmm0
  005da	0f 28 c2	 movaps	 xmm0, xmm2
  005dd	f3 0f 59 44 24
	10		 mulss	 xmm0, DWORD PTR _v3Cross$5$[esp+176]
  005e3	f3 0f 58 e1	 addss	 xmm4, xmm1
  005e7	f3 0f 10 4c 24
	1c		 movss	 xmm1, DWORD PTR _v3Cross$2$[esp+176]
  005ed	f3 0f 59 f1	 mulss	 xmm6, xmm1
  005f1	f3 0f 59 ca	 mulss	 xmm1, xmm2
  005f5	f3 0f 5c f0	 subss	 xmm6, xmm0
  005f9	f3 0f 58 cb	 addss	 xmm1, xmm3
$LN19@Transform:

; 411  : 	v3Cross = -(m_v2HalfSize.x*m_v2Scale.x) * v3Cross;

  005fd	f3 0f 10 7e 38	 movss	 xmm7, DWORD PTR [esi+56]
  00602	f3 0f 59 7e 30	 mulss	 xmm7, DWORD PTR [esi+48]
  00607	0f 57 3d 00 00
	00 00		 xorps	 xmm7, DWORD PTR __xmm@80000000800000008000000080000000
; File C:\Users\murat\Desktop\Siveps2-1-99-Project\source\client\extern\include\d3dx8math.inl

; 283  :     return D3DXVECTOR3(f * v.x, f * v.y, f * v.z);

  0060e	0f 28 d7	 movaps	 xmm2, xmm7
  00611	0f 28 c7	 movaps	 xmm0, xmm7
  00614	f3 0f 59 7c 24
	54		 mulss	 xmm7, DWORD PTR _v3Cross$[esp+184]
  0061a	f3 0f 59 d6	 mulss	 xmm2, xmm6
; File C:\Users\murat\Desktop\Siveps2-1-99-Project\source\client\Client\EffectLib\ParticleInstance.cpp

; 412  : 	v3Up = (m_v2HalfSize.y*m_v2Scale.y) * v3Up;

  0061e	f3 0f 10 76 3c	 movss	 xmm6, DWORD PTR [esi+60]
  00623	f3 0f 59 76 34	 mulss	 xmm6, DWORD PTR [esi+52]
; File C:\Users\murat\Desktop\Siveps2-1-99-Project\source\client\extern\include\d3dx8math.inl

; 283  :     return D3DXVECTOR3(f * v.x, f * v.y, f * v.z);

  00628	f3 0f 59 c1	 mulss	 xmm0, xmm1
  0062c	f3 0f 11 54 24
	10		 movss	 DWORD PTR tv2811[esp+176], xmm2
; File C:\Users\murat\Desktop\Siveps2-1-99-Project\source\client\Client\EffectLib\ParticleInstance.cpp

; 411  : 	v3Cross = -(m_v2HalfSize.x*m_v2Scale.x) * v3Cross;

  00632	f3 0f 11 54 24
	4c		 movss	 DWORD PTR _v3Cross$[esp+176], xmm2
; File C:\Users\murat\Desktop\Siveps2-1-99-Project\source\client\extern\include\d3dx8math.inl

; 283  :     return D3DXVECTOR3(f * v.x, f * v.y, f * v.z);

  00638	f3 0f 11 44 24
	14		 movss	 DWORD PTR tv2812[esp+176], xmm0
; File C:\Users\murat\Desktop\Siveps2-1-99-Project\source\client\Client\EffectLib\ParticleInstance.cpp

; 411  : 	v3Cross = -(m_v2HalfSize.x*m_v2Scale.x) * v3Cross;

  0063e	f3 0f 11 44 24
	50		 movss	 DWORD PTR _v3Cross$[esp+180], xmm0
; File C:\Users\murat\Desktop\Siveps2-1-99-Project\source\client\extern\include\d3dx8math.inl

; 283  :     return D3DXVECTOR3(f * v.x, f * v.y, f * v.z);

  00644	0f 28 c6	 movaps	 xmm0, xmm6
  00647	f3 0f 59 c5	 mulss	 xmm0, xmm5
; File C:\Users\murat\Desktop\Siveps2-1-99-Project\source\client\Client\EffectLib\ParticleInstance.cpp

; 411  : 	v3Cross = -(m_v2HalfSize.x*m_v2Scale.x) * v3Cross;

  0064b	f3 0f 11 7c 24
	54		 movss	 DWORD PTR _v3Cross$[esp+184], xmm7
; File C:\Users\murat\Desktop\Siveps2-1-99-Project\source\client\extern\include\d3dx8math.inl

; 283  :     return D3DXVECTOR3(f * v.x, f * v.y, f * v.z);

  00651	0f 11 44 24 30	 movups	 XMMWORD PTR tv2938[esp+176], xmm0
  00656	0f 28 c6	 movaps	 xmm0, xmm6
  00659	f3 0f 59 74 24
	18		 mulss	 xmm6, DWORD PTR _v3Up$14$[esp+176]
  0065f	f3 0f 59 c4	 mulss	 xmm0, xmm4
; File C:\Users\murat\Desktop\Siveps2-1-99-Project\source\client\Client\EffectLib\ParticleInstance.cpp

; 412  : 	v3Up = (m_v2HalfSize.y*m_v2Scale.y) * v3Up;

  00663	f3 0f 11 74 24
	48		 movss	 DWORD PTR _v3Up$[esp+184], xmm6
  00669	0f 10 6c 24 30	 movups	 xmm5, XMMWORD PTR tv2938[esp+176]
; File C:\Users\murat\Desktop\Siveps2-1-99-Project\source\client\extern\include\d3dx8math.inl

; 283  :     return D3DXVECTOR3(f * v.x, f * v.y, f * v.z);

  0066e	f3 0f 11 44 24
	0c		 movss	 DWORD PTR $T1[esp+176], xmm0
; File C:\Users\murat\Desktop\Siveps2-1-99-Project\source\client\Client\EffectLib\ParticleInstance.cpp

; 412  : 	v3Up = (m_v2HalfSize.y*m_v2Scale.y) * v3Up;

  00674	f3 0f 11 6c 24
	40		 movss	 DWORD PTR _v3Up$[esp+176], xmm5
  0067a	f3 0f 11 44 24
	44		 movss	 DWORD PTR _v3Up$[esp+180], xmm0

; 413  : 
; 414  : 	if (c_matLocal && m_pParticleProperty->m_bAttachFlag)

  00680	85 ff		 test	 edi, edi
  00682	0f 84 28 01 00
	00		 je	 $LN20@Transform
  00688	8b 46 5c	 mov	 eax, DWORD PTR [esi+92]
  0068b	83 78 20 00	 cmp	 DWORD PTR [eax+32], 0
  0068f	0f 84 1b 01 00
	00		 je	 $LN20@Transform

; 415  : 	{
; 416  : 		D3DXVECTOR3 v3Position;
; 417  : 		D3DXVec3TransformCoord(&v3Position, &m_v3Position, c_matLocal);

  00695	57		 push	 edi
  00696	8d 46 0c	 lea	 eax, DWORD PTR [esi+12]
  00699	50		 push	 eax
  0069a	8d 44 24 60	 lea	 eax, DWORD PTR _v3Position$10[esp+184]
  0069e	50		 push	 eax
  0069f	e8 00 00 00 00	 call	 _D3DXVec3TransformCoord@12
; File C:\Users\murat\Desktop\Siveps2-1-99-Project\source\client\extern\include\d3dx8math.inl

; 263  :     return D3DXVECTOR3(x - v.x, y - v.y, z - v.z);

  006a4	f3 0f 10 44 24
	58		 movss	 xmm0, DWORD PTR _v3Position$10[esp+176]
  006aa	f3 0f 10 64 24
	5c		 movss	 xmm4, DWORD PTR _v3Position$10[esp+180]
  006b0	0f 28 f0	 movaps	 xmm6, xmm0
  006b3	f3 0f 5c 74 24
	40		 subss	 xmm6, DWORD PTR _v3Up$[esp+176]
  006b9	f3 0f 5c 64 24
	44		 subss	 xmm4, DWORD PTR _v3Up$[esp+180]
  006bf	f3 0f 10 5c 24
	60		 movss	 xmm3, DWORD PTR _v3Position$10[esp+184]
  006c5	f3 0f 5c 5c 24
	48		 subss	 xmm3, DWORD PTR _v3Up$[esp+184]
  006cb	0f 29 44 24 30	 movaps	 XMMWORD PTR tv2942[esp+176], xmm0

; 182  :     z = fz;

  006d0	0f 28 d6	 movaps	 xmm2, xmm6
  006d3	f3 0f 58 54 24
	4c		 addss	 xmm2, DWORD PTR _v3Cross$[esp+176]
  006d9	f3 0f 5c 74 24
	4c		 subss	 xmm6, DWORD PTR _v3Cross$[esp+176]

; 180  :     x = fx;

  006df	0f 28 cc	 movaps	 xmm1, xmm4

; 181  :     y = fy;

  006e2	0f 28 c3	 movaps	 xmm0, xmm3
  006e5	f3 0f 58 4c 24
	50		 addss	 xmm1, DWORD PTR _v3Cross$[esp+180]

; 180  :     x = fx;

  006eb	f3 0f 5c 64 24
	50		 subss	 xmm4, DWORD PTR _v3Cross$[esp+180]

; 181  :     y = fy;

  006f1	f3 0f 58 44 24
	54		 addss	 xmm0, DWORD PTR _v3Cross$[esp+184]
  006f7	f3 0f 5c 5c 24
	54		 subss	 xmm3, DWORD PTR _v3Cross$[esp+184]
; File C:\Users\murat\Desktop\Siveps2-1-99-Project\source\client\Client\EffectLib\ParticleInstance.cpp

; 418  : 		m_ParticleMesh[0].position = v3Position - v3Up + v3Cross;

  006fd	0f 14 d1	 unpcklps xmm2, xmm1
  00700	66 0f d6 56 74	 movq	 QWORD PTR [esi+116], xmm2
; File C:\Users\murat\Desktop\Siveps2-1-99-Project\source\client\extern\include\d3dx8math.inl

; 257  :     return D3DXVECTOR3(x + v.x, y + v.y, z + v.z);

  00705	0f 28 54 24 30	 movaps	 xmm2, XMMWORD PTR tv2942[esp+176]
  0070a	f3 0f 58 54 24
	40		 addss	 xmm2, DWORD PTR _v3Up$[esp+176]
; File C:\Users\murat\Desktop\Siveps2-1-99-Project\source\client\Client\EffectLib\ParticleInstance.cpp

; 419  : 		m_ParticleMesh[1].position = v3Position - v3Up - v3Cross;

  00710	0f 14 f4	 unpcklps xmm6, xmm4
; File C:\Users\murat\Desktop\Siveps2-1-99-Project\source\client\extern\include\d3dx8math.inl

; 257  :     return D3DXVECTOR3(x + v.x, y + v.y, z + v.z);

  00713	f3 0f 10 64 24
	60		 movss	 xmm4, DWORD PTR _v3Position$10[esp+184]
  00719	f3 0f 58 64 24
	48		 addss	 xmm4, DWORD PTR _v3Up$[esp+184]
; File C:\Users\murat\Desktop\Siveps2-1-99-Project\source\client\Client\EffectLib\ParticleInstance.cpp

; 419  : 		m_ParticleMesh[1].position = v3Position - v3Up - v3Cross;

  0071f	66 0f d6 b6 88
	00 00 00	 movq	 QWORD PTR [esi+136], xmm6
; File C:\Users\murat\Desktop\Siveps2-1-99-Project\source\client\extern\include\d3dx8math.inl

; 257  :     return D3DXVECTOR3(x + v.x, y + v.y, z + v.z);

  00727	f3 0f 10 74 24
	5c		 movss	 xmm6, DWORD PTR _v3Position$10[esp+180]
  0072d	f3 0f 58 74 24
	44		 addss	 xmm6, DWORD PTR _v3Up$[esp+180]
  00733	0f 29 54 24 30	 movaps	 XMMWORD PTR tv2942[esp+176], xmm2

; 182  :     z = fz;

  00738	0f 28 6c 24 30	 movaps	 xmm5, XMMWORD PTR tv2942[esp+176]
  0073d	f3 0f 11 44 24
	2c		 movss	 DWORD PTR $T9[esp+184], xmm0
  00743	0f 28 d5	 movaps	 xmm2, xmm5
; File C:\Users\murat\Desktop\Siveps2-1-99-Project\source\client\Client\EffectLib\ParticleInstance.cpp

; 418  : 		m_ParticleMesh[0].position = v3Position - v3Up + v3Cross;

  00746	8b 44 24 2c	 mov	 eax, DWORD PTR $T9[esp+184]
; File C:\Users\murat\Desktop\Siveps2-1-99-Project\source\client\extern\include\d3dx8math.inl

; 181  :     y = fy;

  0074a	0f 28 c4	 movaps	 xmm0, xmm4

; 182  :     z = fz;

  0074d	f3 0f 58 54 24
	4c		 addss	 xmm2, DWORD PTR _v3Cross$[esp+176]

; 181  :     y = fy;

  00753	f3 0f 58 44 24
	54		 addss	 xmm0, DWORD PTR _v3Cross$[esp+184]

; 182  :     z = fz;

  00759	f3 0f 5c 6c 24
	4c		 subss	 xmm5, DWORD PTR _v3Cross$[esp+176]

; 181  :     y = fy;

  0075f	f3 0f 5c 64 24
	54		 subss	 xmm4, DWORD PTR _v3Cross$[esp+184]

; 180  :     x = fx;

  00765	0f 28 ce	 movaps	 xmm1, xmm6
; File C:\Users\murat\Desktop\Siveps2-1-99-Project\source\client\Client\EffectLib\ParticleInstance.cpp

; 418  : 		m_ParticleMesh[0].position = v3Position - v3Up + v3Cross;

  00768	89 46 7c	 mov	 DWORD PTR [esi+124], eax
; File C:\Users\murat\Desktop\Siveps2-1-99-Project\source\client\extern\include\d3dx8math.inl

; 180  :     x = fx;

  0076b	f3 0f 58 4c 24
	50		 addss	 xmm1, DWORD PTR _v3Cross$[esp+180]
  00771	f3 0f 5c 74 24
	50		 subss	 xmm6, DWORD PTR _v3Cross$[esp+180]

; 182  :     z = fz;

  00777	f3 0f 11 5c 24
	2c		 movss	 DWORD PTR $T8[esp+184], xmm3
; File C:\Users\murat\Desktop\Siveps2-1-99-Project\source\client\Client\EffectLib\ParticleInstance.cpp

; 419  : 		m_ParticleMesh[1].position = v3Position - v3Up - v3Cross;

  0077d	8b 44 24 2c	 mov	 eax, DWORD PTR $T8[esp+184]
; File C:\Users\murat\Desktop\Siveps2-1-99-Project\source\client\extern\include\d3dx8math.inl

; 182  :     z = fz;

  00781	f3 0f 11 44 24
	2c		 movss	 DWORD PTR $T7[esp+184], xmm0
; File C:\Users\murat\Desktop\Siveps2-1-99-Project\source\client\Client\EffectLib\ParticleInstance.cpp

; 420  : 		m_ParticleMesh[2].position = v3Position + v3Up + v3Cross;

  00787	0f 14 d1	 unpcklps xmm2, xmm1
  0078a	89 86 90 00 00
	00		 mov	 DWORD PTR [esi+144], eax
  00790	8b 44 24 2c	 mov	 eax, DWORD PTR $T7[esp+184]
  00794	66 0f d6 96 9c
	00 00 00	 movq	 QWORD PTR [esi+156], xmm2
  0079c	89 86 a4 00 00
	00		 mov	 DWORD PTR [esi+164], eax
; File C:\Users\murat\Desktop\Siveps2-1-99-Project\source\client\extern\include\d3dx8math.inl

; 182  :     z = fz;

  007a2	f3 0f 11 64 24
	2c		 movss	 DWORD PTR $T6[esp+184], xmm4
; File C:\Users\murat\Desktop\Siveps2-1-99-Project\source\client\Client\EffectLib\ParticleInstance.cpp

; 421  : 		m_ParticleMesh[3].position = v3Position + v3Up - v3Cross;

  007a8	0f 14 ee	 unpcklps xmm5, xmm6

; 422  : 	}

  007ab	e9 e8 00 00 00	 jmp	 $LN173@Transform
$LN20@Transform:
; File C:\Users\murat\Desktop\Siveps2-1-99-Project\source\client\extern\include\d3dx8math.inl

; 263  :     return D3DXVECTOR3(x - v.x, y - v.y, z - v.z);

  007b0	f3 0f 10 4e 10	 movss	 xmm1, DWORD PTR [esi+16]
  007b5	f3 0f 10 5e 0c	 movss	 xmm3, DWORD PTR [esi+12]
  007ba	f3 0f 5c c8	 subss	 xmm1, xmm0
  007be	f3 0f 10 46 14	 movss	 xmm0, DWORD PTR [esi+20]
  007c3	f3 0f 5c dd	 subss	 xmm3, xmm5
  007c7	f3 0f 5c c6	 subss	 xmm0, xmm6

; 180  :     x = fx;

  007cb	f3 0f 58 4c 24
	14		 addss	 xmm1, DWORD PTR tv2812[esp+176]

; 182  :     z = fz;

  007d1	f3 0f 58 d3	 addss	 xmm2, xmm3

; 181  :     y = fy;

  007d5	f3 0f 58 c7	 addss	 xmm0, xmm7
; File C:\Users\murat\Desktop\Siveps2-1-99-Project\source\client\Client\EffectLib\ParticleInstance.cpp

; 425  : 		m_ParticleMesh[0].position = m_v3Position - v3Up + v3Cross;

  007d9	0f 14 d1	 unpcklps xmm2, xmm1
  007dc	66 0f d6 56 74	 movq	 QWORD PTR [esi+116], xmm2
; File C:\Users\murat\Desktop\Siveps2-1-99-Project\source\client\extern\include\d3dx8math.inl

; 182  :     z = fz;

  007e1	f3 0f 10 54 24
	10		 movss	 xmm2, DWORD PTR tv2811[esp+176]
  007e7	f3 0f 11 44 24
	2c		 movss	 DWORD PTR $T5[esp+184], xmm0
  007ed	f3 0f 5c da	 subss	 xmm3, xmm2
; File C:\Users\murat\Desktop\Siveps2-1-99-Project\source\client\Client\EffectLib\ParticleInstance.cpp

; 425  : 		m_ParticleMesh[0].position = m_v3Position - v3Up + v3Cross;

  007f1	8b 44 24 2c	 mov	 eax, DWORD PTR $T5[esp+184]
  007f5	89 46 7c	 mov	 DWORD PTR [esi+124], eax
; File C:\Users\murat\Desktop\Siveps2-1-99-Project\source\client\extern\include\d3dx8math.inl

; 263  :     return D3DXVECTOR3(x - v.x, y - v.y, z - v.z);

  007f8	f3 0f 10 4e 10	 movss	 xmm1, DWORD PTR [esi+16]
  007fd	f3 0f 5c 4c 24
	0c		 subss	 xmm1, DWORD PTR $T1[esp+176]
  00803	f3 0f 10 46 14	 movss	 xmm0, DWORD PTR [esi+20]
  00808	f3 0f 5c c6	 subss	 xmm0, xmm6

; 180  :     x = fx;

  0080c	f3 0f 5c 4c 24
	14		 subss	 xmm1, DWORD PTR tv2812[esp+176]

; 181  :     y = fy;

  00812	f3 0f 5c c7	 subss	 xmm0, xmm7
; File C:\Users\murat\Desktop\Siveps2-1-99-Project\source\client\Client\EffectLib\ParticleInstance.cpp

; 426  : 		m_ParticleMesh[1].position = m_v3Position - v3Up - v3Cross;

  00816	0f 14 d9	 unpcklps xmm3, xmm1
  00819	66 0f d6 9e 88
	00 00 00	 movq	 QWORD PTR [esi+136], xmm3
; File C:\Users\murat\Desktop\Siveps2-1-99-Project\source\client\extern\include\d3dx8math.inl

; 257  :     return D3DXVECTOR3(x + v.x, y + v.y, z + v.z);

  00821	f3 0f 10 5c 24
	0c		 movss	 xmm3, DWORD PTR $T1[esp+176]

; 182  :     z = fz;

  00827	f3 0f 11 44 24
	2c		 movss	 DWORD PTR $T4[esp+184], xmm0

; 257  :     return D3DXVECTOR3(x + v.x, y + v.y, z + v.z);

  0082d	0f 28 cb	 movaps	 xmm1, xmm3
; File C:\Users\murat\Desktop\Siveps2-1-99-Project\source\client\Client\EffectLib\ParticleInstance.cpp

; 426  : 		m_ParticleMesh[1].position = m_v3Position - v3Up - v3Cross;

  00830	8b 44 24 2c	 mov	 eax, DWORD PTR $T4[esp+184]
; File C:\Users\murat\Desktop\Siveps2-1-99-Project\source\client\extern\include\d3dx8math.inl

; 257  :     return D3DXVECTOR3(x + v.x, y + v.y, z + v.z);

  00834	0f 28 c6	 movaps	 xmm0, xmm6
; File C:\Users\murat\Desktop\Siveps2-1-99-Project\source\client\Client\EffectLib\ParticleInstance.cpp

; 426  : 		m_ParticleMesh[1].position = m_v3Position - v3Up - v3Cross;

  00837	89 86 90 00 00
	00		 mov	 DWORD PTR [esi+144], eax
; File C:\Users\murat\Desktop\Siveps2-1-99-Project\source\client\extern\include\d3dx8math.inl

; 257  :     return D3DXVECTOR3(x + v.x, y + v.y, z + v.z);

  0083d	f3 0f 58 6e 0c	 addss	 xmm5, DWORD PTR [esi+12]
  00842	f3 0f 58 4e 10	 addss	 xmm1, DWORD PTR [esi+16]
  00847	f3 0f 58 46 14	 addss	 xmm0, DWORD PTR [esi+20]

; 182  :     z = fz;

  0084c	f3 0f 58 d5	 addss	 xmm2, xmm5

; 180  :     x = fx;

  00850	f3 0f 58 4c 24
	14		 addss	 xmm1, DWORD PTR tv2812[esp+176]

; 182  :     z = fz;

  00856	f3 0f 5c 6c 24
	10		 subss	 xmm5, DWORD PTR tv2811[esp+176]

; 181  :     y = fy;

  0085c	f3 0f 58 c7	 addss	 xmm0, xmm7
; File C:\Users\murat\Desktop\Siveps2-1-99-Project\source\client\Client\EffectLib\ParticleInstance.cpp

; 427  : 		m_ParticleMesh[2].position = m_v3Position + v3Up + v3Cross;

  00860	0f 14 d1	 unpcklps xmm2, xmm1
  00863	66 0f d6 96 9c
	00 00 00	 movq	 QWORD PTR [esi+156], xmm2
; File C:\Users\murat\Desktop\Siveps2-1-99-Project\source\client\extern\include\d3dx8math.inl

; 182  :     z = fz;

  0086b	f3 0f 11 44 24
	2c		 movss	 DWORD PTR $T3[esp+184], xmm0
; File C:\Users\murat\Desktop\Siveps2-1-99-Project\source\client\Client\EffectLib\ParticleInstance.cpp

; 427  : 		m_ParticleMesh[2].position = m_v3Position + v3Up + v3Cross;

  00871	8b 44 24 2c	 mov	 eax, DWORD PTR $T3[esp+184]
  00875	89 86 a4 00 00
	00		 mov	 DWORD PTR [esi+164], eax
; File C:\Users\murat\Desktop\Siveps2-1-99-Project\source\client\extern\include\d3dx8math.inl

; 257  :     return D3DXVECTOR3(x + v.x, y + v.y, z + v.z);

  0087b	f3 0f 58 5e 10	 addss	 xmm3, DWORD PTR [esi+16]
  00880	f3 0f 58 76 14	 addss	 xmm6, DWORD PTR [esi+20]

; 180  :     x = fx;

  00885	f3 0f 5c 5c 24
	14		 subss	 xmm3, DWORD PTR tv2812[esp+176]

; 181  :     y = fy;

  0088b	f3 0f 5c f7	 subss	 xmm6, xmm7
; File C:\Users\murat\Desktop\Siveps2-1-99-Project\source\client\Client\EffectLib\ParticleInstance.cpp

; 428  : 		m_ParticleMesh[3].position = m_v3Position + v3Up - v3Cross;

  0088f	0f 14 eb	 unpcklps xmm5, xmm3
; File C:\Users\murat\Desktop\Siveps2-1-99-Project\source\client\extern\include\d3dx8math.inl

; 182  :     z = fz;

  00892	f3 0f 11 74 24
	2c		 movss	 DWORD PTR $T2[esp+184], xmm6
$LN173@Transform:
; File C:\Users\murat\Desktop\Siveps2-1-99-Project\source\client\Client\EffectLib\ParticleInstance.cpp

; 430  : }

  00898	8b 44 24 2c	 mov	 eax, DWORD PTR $T2[esp+184]
  0089c	8b 8c 24 ac 00
	00 00		 mov	 ecx, DWORD PTR __$ArrayPad$[esp+176]
  008a3	66 0f d6 ae b0
	00 00 00	 movq	 QWORD PTR [esi+176], xmm5
  008ab	5f		 pop	 edi
  008ac	89 86 b8 00 00
	00		 mov	 DWORD PTR [esi+184], eax
  008b2	5e		 pop	 esi
  008b3	33 cc		 xor	 ecx, esp
  008b5	e8 00 00 00 00	 call	 @__security_check_cookie@4
  008ba	8b e5		 mov	 esp, ebp
  008bc	5d		 pop	 ebp
  008bd	c2 08 00	 ret	 8
$LN165@Transform:
  008c0	00 00 00 00	 DD	 $LN12@Transform
  008c4	00 00 00 00	 DD	 $LN7@Transform
  008c8	00 00 00 00	 DD	 $LN6@Transform
  008cc	00 00 00 00	 DD	 $LN7@Transform
  008d0	00 00 00 00	 DD	 $LN7@Transform
?Transform@CParticleInstance@@QAEXPBUD3DXMATRIX@@M@Z ENDP ; CParticleInstance::Transform
_TEXT	ENDS
; Function compile flags: /Ogtp
; File C:\Users\murat\Desktop\Siveps2-1-99-Project\source\client\Client\EffectLib\ParticleInstance.cpp
; File C:\Program Files (x86)\Windows Kits\10\Include\10.0.19041.0\ucrt\corecrt_math.h
; File C:\Users\murat\Desktop\Siveps2-1-99-Project\source\client\Client\EffectLib\ParticleInstance.cpp
; File C:\Program Files (x86)\Windows Kits\10\Include\10.0.19041.0\ucrt\corecrt_math.h
; File C:\Users\murat\Desktop\Siveps2-1-99-Project\source\client\Client\EffectLib\ParticleInstance.cpp
; File C:\Program Files (x86)\Windows Kits\10\Include\10.0.19041.0\ucrt\corecrt_math.h
; File C:\Users\murat\Desktop\Siveps2-1-99-Project\source\client\Client\EffectLib\ParticleInstance.cpp
; File C:\Users\murat\Desktop\Siveps2-1-99-Project\source\client\extern\include\d3dx8math.inl
; File C:\Users\murat\Desktop\Siveps2-1-99-Project\source\client\Client\EffectLib\ParticleInstance.cpp
; File C:\Users\murat\Desktop\Siveps2-1-99-Project\source\client\extern\include\d3dx8math.inl
; File C:\Users\murat\Desktop\Siveps2-1-99-Project\source\client\Client\EffectLib\ParticleInstance.cpp
; File C:\Users\murat\Desktop\Siveps2-1-99-Project\source\client\extern\include\d3dx8math.inl
; File C:\Users\murat\Desktop\Siveps2-1-99-Project\source\client\Client\EffectLib\ParticleInstance.cpp
; File C:\Users\murat\Desktop\Siveps2-1-99-Project\source\client\extern\include\d3dx8math.inl
; File C:\Users\murat\Desktop\Siveps2-1-99-Project\source\client\Client\EffectLib\ParticleInstance.cpp
; File C:\Program Files (x86)\Windows Kits\10\Include\10.0.19041.0\ucrt\corecrt_math.h
; File C:\Users\murat\Desktop\Siveps2-1-99-Project\source\client\Client\EffectLib\ParticleInstance.cpp
; File C:\Program Files (x86)\Windows Kits\10\Include\10.0.19041.0\ucrt\corecrt_math.h
; File C:\Users\murat\Desktop\Siveps2-1-99-Project\source\client\extern\include\d3dx8math.inl
; File C:\Program Files (x86)\Windows Kits\10\Include\10.0.19041.0\ucrt\corecrt_math.h
; File C:\Users\murat\Desktop\Siveps2-1-99-Project\source\client\extern\include\d3dx8math.inl
; File C:\Program Files (x86)\Windows Kits\10\Include\10.0.19041.0\ucrt\corecrt_math.h
; File C:\Users\murat\Desktop\Siveps2-1-99-Project\source\client\extern\include\d3dx8math.inl
; File C:\Users\murat\Desktop\Siveps2-1-99-Project\source\client\Client\EffectLib\ParticleInstance.cpp
; File C:\Users\murat\Desktop\Siveps2-1-99-Project\source\client\extern\include\d3dx8math.inl
; File C:\Users\murat\Desktop\Siveps2-1-99-Project\source\client\Client\EffectLib\ParticleInstance.cpp
; File C:\Users\murat\Desktop\Siveps2-1-99-Project\source\client\extern\include\d3dx8math.inl
; File C:\Users\murat\Desktop\Siveps2-1-99-Project\source\client\Client\EffectLib\ParticleInstance.cpp
; File C:\Users\murat\Desktop\Siveps2-1-99-Project\source\client\extern\include\d3dx8math.inl
; File C:\Users\murat\Desktop\Siveps2-1-99-Project\source\client\Client\EffectLib\ParticleInstance.cpp
; File C:\Users\murat\Desktop\Siveps2-1-99-Project\source\client\extern\include\d3dx8math.inl
; File C:\Users\murat\Desktop\Siveps2-1-99-Project\source\client\Client\EffectLib\ParticleInstance.cpp
; File C:\Users\murat\Desktop\Siveps2-1-99-Project\source\client\extern\include\d3dx8math.inl
; File C:\Users\murat\Desktop\Siveps2-1-99-Project\source\client\Client\EffectLib\ParticleInstance.cpp
; File C:\Users\murat\Desktop\Siveps2-1-99-Project\source\client\extern\include\d3dx8math.inl
; File C:\Users\murat\Desktop\Siveps2-1-99-Project\source\client\Client\EffectLib\ParticleInstance.cpp
; File C:\Users\murat\Desktop\Siveps2-1-99-Project\source\client\extern\include\d3dx8math.inl
; File C:\Users\murat\Desktop\Siveps2-1-99-Project\source\client\Client\EffectLib\ParticleInstance.cpp
; File C:\Users\murat\Desktop\Siveps2-1-99-Project\source\client\extern\include\d3dx8math.inl
; File C:\Users\murat\Desktop\Siveps2-1-99-Project\source\client\Client\EffectLib\ParticleInstance.cpp
; File C:\Users\murat\Desktop\Siveps2-1-99-Project\source\client\extern\include\d3dx8math.inl
; File C:\Users\murat\Desktop\Siveps2-1-99-Project\source\client\Client\EffectLib\ParticleInstance.cpp
; File C:\Users\murat\Desktop\Siveps2-1-99-Project\source\client\extern\include\d3dx8math.inl
; File C:\Users\murat\Desktop\Siveps2-1-99-Project\source\client\Client\EffectLib\ParticleInstance.cpp
; File C:\Users\murat\Desktop\Siveps2-1-99-Project\source\client\extern\include\d3dx8math.inl
; File C:\Users\murat\Desktop\Siveps2-1-99-Project\source\client\Client\EffectLib\ParticleInstance.cpp
; File C:\Users\murat\Desktop\Siveps2-1-99-Project\source\client\extern\include\d3dx8math.inl
; File C:\Users\murat\Desktop\Siveps2-1-99-Project\source\client\Client\EffectLib\ParticleInstance.cpp
; File C:\Users\murat\Desktop\Siveps2-1-99-Project\source\client\extern\include\d3dx8math.inl
; File C:\Users\murat\Desktop\Siveps2-1-99-Project\source\client\Client\EffectLib\ParticleInstance.cpp
; File C:\Users\murat\Desktop\Siveps2-1-99-Project\source\client\extern\include\d3dx8math.inl
; File C:\Users\murat\Desktop\Siveps2-1-99-Project\source\client\Client\EffectLib\ParticleInstance.cpp
; File C:\Users\murat\Desktop\Siveps2-1-99-Project\source\client\extern\include\d3dx8math.inl
; File C:\Users\murat\Desktop\Siveps2-1-99-Project\source\client\Client\EffectLib\ParticleInstance.cpp
; File C:\Users\murat\Desktop\Siveps2-1-99-Project\source\client\extern\include\d3dx8math.inl
; File C:\Users\murat\Desktop\Siveps2-1-99-Project\source\client\Client\EffectLib\ParticleInstance.cpp
; File C:\Users\murat\Desktop\Siveps2-1-99-Project\source\client\extern\include\d3dx8math.inl
; File C:\Users\murat\Desktop\Siveps2-1-99-Project\source\client\Client\EffectLib\ParticleInstance.cpp
; File C:\Users\murat\Desktop\Siveps2-1-99-Project\source\client\extern\include\d3dx8math.inl
; File C:\Users\murat\Desktop\Siveps2-1-99-Project\source\client\Client\EffectLib\ParticleInstance.cpp
; File C:\Users\murat\Desktop\Siveps2-1-99-Project\source\client\extern\include\d3dx8math.inl
; File C:\Program Files (x86)\Windows Kits\10\Include\10.0.19041.0\ucrt\corecrt_math.h
; File C:\Users\murat\Desktop\Siveps2-1-99-Project\source\client\Client\EffectLib\ParticleInstance.cpp
; File C:\Program Files (x86)\Windows Kits\10\Include\10.0.19041.0\ucrt\corecrt_math.h
; File C:\Users\murat\Desktop\Siveps2-1-99-Project\source\client\Client\EffectLib\ParticleInstance.cpp
; File C:\Program Files (x86)\Windows Kits\10\Include\10.0.19041.0\ucrt\corecrt_math.h
; File C:\Users\murat\Desktop\Siveps2-1-99-Project\source\client\Client\EffectLib\ParticleInstance.cpp
; File C:\Users\murat\Desktop\Siveps2-1-99-Project\source\client\extern\include\d3dx8math.inl
; File C:\Users\murat\Desktop\Siveps2-1-99-Project\source\client\Client\EffectLib\ParticleInstance.cpp
; File C:\Users\murat\Desktop\Siveps2-1-99-Project\source\client\extern\include\d3dx8math.inl
; File C:\Users\murat\Desktop\Siveps2-1-99-Project\source\client\Client\EffectLib\ParticleInstance.cpp
; File C:\Users\murat\Desktop\Siveps2-1-99-Project\source\client\extern\include\d3dx8math.inl
; File C:\Users\murat\Desktop\Siveps2-1-99-Project\source\client\Client\EffectLib\ParticleInstance.cpp
; File C:\Users\murat\Desktop\Siveps2-1-99-Project\source\client\extern\include\d3dx8math.inl
; File C:\Users\murat\Desktop\Siveps2-1-99-Project\source\client\Client\EffectLib\ParticleInstance.cpp
; File C:\Users\murat\Desktop\Siveps2-1-99-Project\source\client\extern\include\d3dx8math.inl
; File C:\Users\murat\Desktop\Siveps2-1-99-Project\source\client\Client\EffectLib\ParticleInstance.cpp
; File C:\Users\murat\Desktop\Siveps2-1-99-Project\source\client\extern\include\d3dx8math.inl
; File C:\Users\murat\Desktop\Siveps2-1-99-Project\source\client\Client\EffectLib\ParticleInstance.cpp
; File C:\Users\murat\Desktop\Siveps2-1-99-Project\source\client\extern\include\d3dx8math.inl
; File C:\Users\murat\Desktop\Siveps2-1-99-Project\source\client\Client\EffectLib\ParticleInstance.cpp
; File C:\Users\murat\Desktop\Siveps2-1-99-Project\source\client\extern\include\d3dx8math.inl
; File C:\Users\murat\Desktop\Siveps2-1-99-Project\source\client\Client\EffectLib\ParticleInstance.cpp
; File C:\Users\murat\Desktop\Siveps2-1-99-Project\source\client\extern\include\d3dx8math.inl
; File C:\Users\murat\Desktop\Siveps2-1-99-Project\source\client\Client\EffectLib\ParticleInstance.cpp
; File C:\Users\murat\Desktop\Siveps2-1-99-Project\source\client\extern\include\d3dx8math.inl
; File C:\Users\murat\Desktop\Siveps2-1-99-Project\source\client\Client\EffectLib\ParticleInstance.cpp
; File C:\Users\murat\Desktop\Siveps2-1-99-Project\source\client\extern\include\d3dx8math.inl
; File C:\Users\murat\Desktop\Siveps2-1-99-Project\source\client\Client\EffectLib\ParticleInstance.cpp
; File C:\Users\murat\Desktop\Siveps2-1-99-Project\source\client\extern\include\d3dx8math.inl
; File C:\Users\murat\Desktop\Siveps2-1-99-Project\source\client\Client\EffectLib\ParticleInstance.cpp
; File C:\Users\murat\Desktop\Siveps2-1-99-Project\source\client\extern\include\d3dx8math.inl
; File C:\Users\murat\Desktop\Siveps2-1-99-Project\source\client\Client\EffectLib\ParticleInstance.cpp
; File C:\Users\murat\Desktop\Siveps2-1-99-Project\source\client\extern\include\d3dx8math.inl
; File C:\Users\murat\Desktop\Siveps2-1-99-Project\source\client\Client\EffectLib\ParticleInstance.cpp
; File C:\Users\murat\Desktop\Siveps2-1-99-Project\source\client\extern\include\d3dx8math.inl
; File C:\Users\murat\Desktop\Siveps2-1-99-Project\source\client\Client\EffectLib\ParticleInstance.cpp
; File C:\Users\murat\Desktop\Siveps2-1-99-Project\source\client\extern\include\d3dx8math.inl
; File C:\Users\murat\Desktop\Siveps2-1-99-Project\source\client\Client\EffectLib\ParticleInstance.cpp
; File C:\Users\murat\Desktop\Siveps2-1-99-Project\source\client\extern\include\d3dx8math.inl
; File C:\Users\murat\Desktop\Siveps2-1-99-Project\source\client\Client\EffectLib\ParticleInstance.cpp
; File C:\Users\murat\Desktop\Siveps2-1-99-Project\source\client\extern\include\d3dx8math.inl
; File C:\Users\murat\Desktop\Siveps2-1-99-Project\source\client\Client\EffectLib\ParticleInstance.cpp
; File C:\Users\murat\Desktop\Siveps2-1-99-Project\source\client\extern\include\d3dx8math.inl
; File C:\Users\murat\Desktop\Siveps2-1-99-Project\source\client\Client\EffectLib\ParticleInstance.cpp
; File C:\Users\murat\Desktop\Siveps2-1-99-Project\source\client\extern\include\d3dx8math.inl
; File C:\Users\murat\Desktop\Siveps2-1-99-Project\source\client\Client\EffectLib\ParticleInstance.cpp
; File C:\Users\murat\Desktop\Siveps2-1-99-Project\source\client\extern\include\d3dx8math.inl
; File C:\Users\murat\Desktop\Siveps2-1-99-Project\source\client\Client\EffectLib\ParticleInstance.cpp
; File C:\Users\murat\Desktop\Siveps2-1-99-Project\source\client\extern\include\d3dx8math.inl
; File C:\Users\murat\Desktop\Siveps2-1-99-Project\source\client\Client\EffectLib\ParticleInstance.cpp
; File C:\Users\murat\Desktop\Siveps2-1-99-Project\source\client\extern\include\d3dx8math.inl
; File C:\Users\murat\Desktop\Siveps2-1-99-Project\source\client\Client\EffectLib\ParticleInstance.cpp
; File C:\Users\murat\Desktop\Siveps2-1-99-Project\source\client\extern\include\d3dx8math.inl
; File C:\Users\murat\Desktop\Siveps2-1-99-Project\source\client\Client\EffectLib\ParticleInstance.cpp
; File C:\Users\murat\Desktop\Siveps2-1-99-Project\source\client\extern\include\d3dx8math.inl
; File C:\Users\murat\Desktop\Siveps2-1-99-Project\source\client\Client\EffectLib\ParticleInstance.cpp
; File C:\Users\murat\Desktop\Siveps2-1-99-Project\source\client\extern\include\d3dx8math.inl
; File C:\Users\murat\Desktop\Siveps2-1-99-Project\source\client\Client\EffectLib\ParticleInstance.cpp
; File C:\Users\murat\Desktop\Siveps2-1-99-Project\source\client\extern\include\d3dx8math.inl
; File C:\Users\murat\Desktop\Siveps2-1-99-Project\source\client\Client\EffectLib\ParticleInstance.cpp
;	COMDAT ?Transform@CParticleInstance@@QAEXPBUD3DXMATRIX@@@Z
_TEXT	SEGMENT
_v3Cross$2$ = -96					; size = 4
_v3Up$7$ = -96						; size = 4
tv2751 = -96						; size = 4
_v3Up$14$ = -92						; size = 4
_v3Up$2$ = -92						; size = 4
tv2752 = -92						; size = 4
$T1 = -88						; size = 4
_v3Cross$5$ = -88					; size = 4
_v3Up$12$ = -88						; size = 4
_v3Up$4$ = -88						; size = 4
tv2652 = -88						; size = 4
$T2 = -84						; size = 12
$T3 = -84						; size = 12
$T4 = -84						; size = 12
$T5 = -84						; size = 12
$T6 = -84						; size = 12
$T7 = -84						; size = 12
$T8 = -84						; size = 12
$T9 = -84						; size = 12
_qr$10 = -84						; size = 16
_qr$11 = -84						; size = 16
_c_matLocal$GSCopy$1$ = -68				; size = 4
tv2880 = -64						; size = 16
_qc$12 = -64						; size = 16
_v3Up$ = -48						; size = 12
_v3Cross$ = -36						; size = 12
_length$1$ = -24					; size = 4
_v3Cross$8$ = -24					; size = 4
tv2872 = -24						; size = 8
_v3Position$13 = -24					; size = 12
_q$14 = -24						; size = 16
__$ArrayPad$ = -4					; size = 4
_c_matLocal$ = 8					; size = 4
?Transform@CParticleInstance@@QAEXPBUD3DXMATRIX@@@Z PROC ; CParticleInstance::Transform, COMDAT
; _this$ = ecx

; 125  : {

  00000	55		 push	 ebp
  00001	8b ec		 mov	 ebp, esp
  00003	83 e4 f0	 and	 esp, -16		; fffffff0H
  00006	83 ec 68	 sub	 esp, 104		; 00000068H
  00009	a1 00 00 00 00	 mov	 eax, DWORD PTR ___security_cookie
  0000e	33 c4		 xor	 eax, esp
  00010	89 44 24 64	 mov	 DWORD PTR __$ArrayPad$[esp+104], eax
  00014	8b 45 08	 mov	 eax, DWORD PTR _c_matLocal$[ebp]
  00017	56		 push	 esi
  00018	8b f1		 mov	 esi, ecx
  0001a	89 44 24 28	 mov	 DWORD PTR _c_matLocal$GSCopy$1$[esp+108], eax

; 126  : #ifdef WORLD_EDITOR
; 127  : 	STATEMANAGER.SetRenderState(D3DRS_TEXTUREFACTOR, m_Color);
; 128  : #else
; 129  : 	STATEMANAGER.SetRenderState(D3DRS_TEXTUREFACTOR, m_dcColor);

  0001e	8b 0d 00 00 00
	00		 mov	 ecx, DWORD PTR ?ms_singleton@?$CSingleton@VCStateManager@@@@0PAVCStateManager@@A ; CSingleton<CStateManager>::ms_singleton
  00024	57		 push	 edi
  00025	ff 76 44	 push	 DWORD PTR [esi+68]
  00028	6a 3c		 push	 60			; 0000003cH
  0002a	e8 00 00 00 00	 call	 ?SetRenderState@CStateManager@@QAEXW4_D3DRENDERSTATETYPE@@K@Z ; CStateManager::SetRenderState

; 130  : #endif
; 131  : 
; 132  : 	/////
; 133  : 
; 134  : 	D3DXVECTOR3 v3Up;
; 135  : 	D3DXVECTOR3 v3Cross;
; 136  : 
; 137  : 	if (!m_pParticleProperty->m_bStretchFlag)

  0002f	8b 46 5c	 mov	 eax, DWORD PTR [esi+92]
  00032	83 78 24 00	 cmp	 DWORD PTR [eax+36], 0
  00036	0f 85 f6 03 00
	00		 jne	 $LN4@Transform

; 138  : 	{
; 139  : 		CCamera * pCurrentCamera = CCameraManager::Instance().GetCurrentCamera();

  0003c	8b 0d 00 00 00
	00		 mov	 ecx, DWORD PTR ?ms_singleton@?$CSingleton@VCCameraManager@@@@0PAVCCameraManager@@A ; CSingleton<CCameraManager>::ms_singleton
  00042	e8 00 00 00 00	 call	 ?GetCurrentCamera@CCameraManager@@QAEPAVCCamera@@XZ ; CCameraManager::GetCurrentCamera

; 140  : 		const D3DXVECTOR3 & c_rv3Up = pCurrentCamera->GetUp();
; 141  : 		const D3DXVECTOR3 & c_rv3Cross = pCurrentCamera->GetCross();
; 142  : 
; 143  : 		D3DXVECTOR3 v3Rotation;
; 144  : 
; 145  : 		switch(m_pParticleProperty->m_byBillboardType) {

  00047	8b 4e 5c	 mov	 ecx, DWORD PTR [esi+92]
  0004a	8b f8		 mov	 edi, eax
  0004c	0f b6 49 13	 movzx	 ecx, BYTE PTR [ecx+19]
  00050	49		 dec	 ecx
  00051	83 f9 04	 cmp	 ecx, 4
  00054	0f 87 31 02 00
	00		 ja	 $LN12@Transform
  0005a	ff 24 8d 00 00
	00 00		 jmp	 DWORD PTR $LN162@Transform[ecx*4]
$LN6@Transform:

; 146  : 		case BILLBOARD_TYPE_LIE:
; 147  : 			{
; 148  : 				float fCos = cosf(D3DXToRadian(m_fRotation)), fSin = sinf(D3DXToRadian(m_fRotation));

  00061	f3 0f 10 46 40	 movss	 xmm0, DWORD PTR [esi+64]
  00066	f3 0f 59 05 00
	00 00 00	 mulss	 xmm0, DWORD PTR __real@3c8efa35
; File C:\Program Files (x86)\Windows Kits\10\Include\10.0.19041.0\ucrt\corecrt_math.h

; 647  :             return (float)cos(_X);

  0006e	0f 5a c0	 cvtps2pd xmm0, xmm0
  00071	f2 0f 11 44 24
	58		 movsd	 QWORD PTR tv2872[esp+112], xmm0
  00077	e8 00 00 00 00	 call	 __libm_sse2_cos_precise
  0007c	f2 0f 5a c0	 cvtsd2ss xmm0, xmm0
  00080	f3 0f 11 44 24
	18		 movss	 DWORD PTR _v3Up$4$[esp+112], xmm0

; 748  :             return (float)sin(_X);

  00086	f2 0f 10 44 24
	58		 movsd	 xmm0, QWORD PTR tv2872[esp+112]
  0008c	e8 00 00 00 00	 call	 __libm_sse2_sin_precise
; File C:\Users\murat\Desktop\Siveps2-1-99-Project\source\client\Client\EffectLib\ParticleInstance.cpp

; 153  : 				v3Cross.y = fCos;

  00091	f3 0f 10 64 24
	18		 movss	 xmm4, DWORD PTR _v3Up$4$[esp+112]
  00097	0f 57 d2	 xorps	 xmm2, xmm2
; File C:\Program Files (x86)\Windows Kits\10\Include\10.0.19041.0\ucrt\corecrt_math.h

; 748  :             return (float)sin(_X);

  0009a	f2 0f 5a c0	 cvtsd2ss xmm0, xmm0
; File C:\Users\murat\Desktop\Siveps2-1-99-Project\source\client\Client\EffectLib\ParticleInstance.cpp

; 153  : 				v3Cross.y = fCos;

  0009e	0f 28 cc	 movaps	 xmm1, xmm4
  000a1	0f 57 ed	 xorps	 xmm5, xmm5
  000a4	0f 28 d8	 movaps	 xmm3, xmm0
; File C:\Program Files (x86)\Windows Kits\10\Include\10.0.19041.0\ucrt\corecrt_math.h

; 748  :             return (float)sin(_X);

  000a7	f3 0f 11 44 24
	10		 movss	 DWORD PTR _v3Cross$2$[esp+112], xmm0
; File C:\Users\murat\Desktop\Siveps2-1-99-Project\source\client\Client\EffectLib\ParticleInstance.cpp

; 150  : 				v3Up.y = -fSin;

  000ad	f3 0f 10 05 00
	00 00 00	 movss	 xmm0, DWORD PTR __xmm@80000000800000008000000080000000
  000b5	0f 57 d8	 xorps	 xmm3, xmm0

; 154  : 				v3Cross.z = 0;
; 155  : 			}
; 156  : 			break;

  000b8	e9 4a 05 00 00	 jmp	 $LN5@Transform
$LN7@Transform:

; 157  : 		case BILLBOARD_TYPE_2FACE:
; 158  : 		case BILLBOARD_TYPE_3FACE:
; 159  : 			// using setting with y, and local rotation at render
; 160  : 		case BILLBOARD_TYPE_Y:
; 161  : 			{
; 162  : 				v3Up = D3DXVECTOR3(0.0f,0.0f,1.0f);

  000bd	f3 0f 10 3d 00
	00 00 00	 movss	 xmm7, DWORD PTR __real@3f800000
  000c5	0f 57 ed	 xorps	 xmm5, xmm5
  000c8	c7 44 24 40 00
	00 00 00	 mov	 DWORD PTR _v3Up$[esp+112], 0
  000d0	0f 57 f6	 xorps	 xmm6, xmm6
  000d3	c7 44 24 44 00
	00 00 00	 mov	 DWORD PTR _v3Up$[esp+116], 0
  000db	c7 44 24 48 00
	00 80 3f	 mov	 DWORD PTR _v3Up$[esp+120], 1065353216 ; 3f800000H

; 163  : 				//v3Up = D3DXVECTOR3(cosf(D3DXToRadian(m_fRotation)),0.0f,-sinf(D3DXToRadian(m_fRotation)));
; 164  : 				const D3DXVECTOR3 & c_rv3View = pCurrentCamera->GetView();
; 165  : 				if (v3Up.x * c_rv3View.y - v3Up.y * c_rv3View.x<0)

  000e3	f3 0f 10 5f 58	 movss	 xmm3, DWORD PTR [edi+88]
  000e8	f3 0f 10 67 54	 movss	 xmm4, DWORD PTR [edi+84]
  000ed	0f 28 cb	 movaps	 xmm1, xmm3
  000f0	0f 28 c4	 movaps	 xmm0, xmm4
  000f3	f3 0f 59 cd	 mulss	 xmm1, xmm5
  000f7	f3 0f 59 c5	 mulss	 xmm0, xmm5
  000fb	f3 0f 5c c8	 subss	 xmm1, xmm0
  000ff	0f 2f e9	 comiss	 xmm5, xmm1
  00102	76 32		 jbe	 SHORT $LN10@Transform
; File C:\Users\murat\Desktop\Siveps2-1-99-Project\source\client\extern\include\d3dx8math.inl

; 222  :     x *= f;

  00104	f3 0f 10 35 00
	00 00 00	 movss	 xmm6, DWORD PTR __real@80000000

; 224  :     z *= f;

  0010c	f3 0f 10 3d 00
	00 00 00	 movss	 xmm7, DWORD PTR __real@bf800000
  00114	c7 44 24 40 00
	00 00 80	 mov	 DWORD PTR _v3Up$[esp+112], -2147483648 ; 80000000H
  0011c	c7 44 24 44 00
	00 00 80	 mov	 DWORD PTR _v3Up$[esp+116], -2147483648 ; 80000000H
  00124	c7 44 24 48 00
	00 80 bf	 mov	 DWORD PTR _v3Up$[esp+120], -1082130432 ; bf800000H
  0012c	f3 0f 10 67 54	 movss	 xmm4, DWORD PTR [edi+84]
  00131	f3 0f 10 5f 58	 movss	 xmm3, DWORD PTR [edi+88]
$LN10@Transform:

; 182  :     z = fz;

  00136	0f 28 d6	 movaps	 xmm2, xmm6
; File C:\Users\murat\Desktop\Siveps2-1-99-Project\source\client\Client\EffectLib\ParticleInstance.cpp

; 168  : 				D3DXVec3Normalize(&v3Cross, &v3Cross);

  00139	8d 44 24 4c	 lea	 eax, DWORD PTR _v3Cross$[esp+112]
; File C:\Users\murat\Desktop\Siveps2-1-99-Project\source\client\extern\include\d3dx8math.inl

; 1277 :     v.x = pV1->y * pV2->z - pV1->z * pV2->y;

  0013d	0f 28 cb	 movaps	 xmm1, xmm3

; 182  :     z = fz;

  00140	f3 0f 59 d5	 mulss	 xmm2, xmm5
; File C:\Users\murat\Desktop\Siveps2-1-99-Project\source\client\Client\EffectLib\ParticleInstance.cpp

; 168  : 				D3DXVec3Normalize(&v3Cross, &v3Cross);

  00144	50		 push	 eax
; File C:\Users\murat\Desktop\Siveps2-1-99-Project\source\client\extern\include\d3dx8math.inl

; 1277 :     v.x = pV1->y * pV2->z - pV1->z * pV2->y;

  00145	f3 0f 59 cf	 mulss	 xmm1, xmm7
; File C:\Users\murat\Desktop\Siveps2-1-99-Project\source\client\Client\EffectLib\ParticleInstance.cpp

; 168  : 				D3DXVec3Normalize(&v3Cross, &v3Cross);

  00149	50		 push	 eax
; File C:\Users\murat\Desktop\Siveps2-1-99-Project\source\client\extern\include\d3dx8math.inl

; 1277 :     v.x = pV1->y * pV2->z - pV1->z * pV2->y;

  0014a	0f 28 c2	 movaps	 xmm0, xmm2

; 1278 :     v.y = pV1->z * pV2->x - pV1->x * pV2->z;

  0014d	f3 0f 59 de	 mulss	 xmm3, xmm6
  00151	f3 0f 5c c1	 subss	 xmm0, xmm1

; 1281 :     *pOut = v;

  00155	f3 0f 11 44 24
	54		 movss	 DWORD PTR _v3Cross$[esp+120], xmm0
  0015b	0f 28 c4	 movaps	 xmm0, xmm4
  0015e	f3 0f 59 c7	 mulss	 xmm0, xmm7
  00162	f3 0f 59 e6	 mulss	 xmm4, xmm6
  00166	f3 0f 5c c2	 subss	 xmm0, xmm2
  0016a	f3 0f 5c dc	 subss	 xmm3, xmm4
  0016e	f3 0f 11 44 24
	58		 movss	 DWORD PTR _v3Cross$[esp+124], xmm0
  00174	f3 0f 11 5c 24
	5c		 movss	 DWORD PTR _v3Cross$[esp+128], xmm3
; File C:\Users\murat\Desktop\Siveps2-1-99-Project\source\client\Client\EffectLib\ParticleInstance.cpp

; 168  : 				D3DXVec3Normalize(&v3Cross, &v3Cross);

  0017a	e8 00 00 00 00	 call	 _D3DXVec3Normalize@8

; 169  : 
; 170  : 				if (m_fRotation)

  0017f	f3 0f 10 46 40	 movss	 xmm0, DWORD PTR [esi+64]
  00184	0f 2e 05 00 00
	00 00		 ucomiss xmm0, DWORD PTR __real@00000000
  0018b	9f		 lahf
  0018c	f6 c4 44	 test	 ah, 68			; 00000044H
  0018f	0f 8b 40 04 00
	00		 jnp	 $LN163@Transform

; 172  : 					float fCos = -sinf(D3DXToRadian(m_fRotation)); // + 90

  00195	f3 0f 59 05 00
	00 00 00	 mulss	 xmm0, DWORD PTR __real@3c8efa35
  0019d	f3 0f 11 44 24
	18		 movss	 DWORD PTR tv2652[esp+112], xmm0
; File C:\Program Files (x86)\Windows Kits\10\Include\10.0.19041.0\ucrt\corecrt_math.h

; 748  :             return (float)sin(_X);

  001a3	0f 5a c0	 cvtps2pd xmm0, xmm0
  001a6	e8 00 00 00 00	 call	 __libm_sse2_sin_precise

; 647  :             return (float)cos(_X);

  001ab	f3 0f 10 4c 24
	18		 movss	 xmm1, DWORD PTR tv2652[esp+112]

; 748  :             return (float)sin(_X);

  001b1	f2 0f 5a c0	 cvtsd2ss xmm0, xmm0
; File C:\Users\murat\Desktop\Siveps2-1-99-Project\source\client\Client\EffectLib\ParticleInstance.cpp

; 172  : 					float fCos = -sinf(D3DXToRadian(m_fRotation)); // + 90

  001b5	0f 57 05 00 00
	00 00		 xorps	 xmm0, DWORD PTR __xmm@80000000800000008000000080000000
  001bc	f3 0f 11 44 24
	14		 movss	 DWORD PTR _v3Up$14$[esp+112], xmm0
; File C:\Program Files (x86)\Windows Kits\10\Include\10.0.19041.0\ucrt\corecrt_math.h

; 647  :             return (float)cos(_X);

  001c2	0f 5a c1	 cvtps2pd xmm0, xmm1
  001c5	e8 00 00 00 00	 call	 __libm_sse2_cos_precise
; File C:\Users\murat\Desktop\Siveps2-1-99-Project\source\client\extern\include\d3dx8math.inl

; 269  :     return D3DXVECTOR3(x * f, y * f, z * f);

  001ca	f3 0f 10 5c 24
	14		 movss	 xmm3, DWORD PTR _v3Up$14$[esp+112]
; File C:\Program Files (x86)\Windows Kits\10\Include\10.0.19041.0\ucrt\corecrt_math.h

; 647  :             return (float)cos(_X);

  001d0	0f 57 e4	 xorps	 xmm4, xmm4
; File C:\Users\murat\Desktop\Siveps2-1-99-Project\source\client\extern\include\d3dx8math.inl

; 269  :     return D3DXVECTOR3(x * f, y * f, z * f);

  001d3	f3 0f 59 5c 24
	4c		 mulss	 xmm3, DWORD PTR _v3Cross$[esp+112]
; File C:\Program Files (x86)\Windows Kits\10\Include\10.0.19041.0\ucrt\corecrt_math.h

; 647  :             return (float)cos(_X);

  001d9	f2 0f 5a e0	 cvtsd2ss xmm4, xmm0
; File C:\Users\murat\Desktop\Siveps2-1-99-Project\source\client\extern\include\d3dx8math.inl

; 269  :     return D3DXVECTOR3(x * f, y * f, z * f);

  001dd	f3 0f 11 5c 24
	10		 movss	 DWORD PTR _v3Cross$2$[esp+112], xmm3
  001e3	0f 28 c4	 movaps	 xmm0, xmm4
  001e6	f3 0f 10 54 24
	14		 movss	 xmm2, DWORD PTR _v3Up$14$[esp+112]
  001ec	f3 0f 59 44 24
	40		 mulss	 xmm0, DWORD PTR _v3Up$[esp+112]
  001f2	0f 28 ec	 movaps	 xmm5, xmm4
  001f5	f3 0f 59 6c 24
	4c		 mulss	 xmm5, DWORD PTR _v3Cross$[esp+112]
  001fb	0f 28 f4	 movaps	 xmm6, xmm4

; 182  :     z = fz;

  001fe	f3 0f 58 d8	 addss	 xmm3, xmm0

; 269  :     return D3DXVECTOR3(x * f, y * f, z * f);

  00202	f3 0f 59 74 24
	50		 mulss	 xmm6, DWORD PTR _v3Cross$[esp+116]
  00208	0f 28 c4	 movaps	 xmm0, xmm4
  0020b	0f 28 fc	 movaps	 xmm7, xmm4
  0020e	f3 0f 59 44 24
	44		 mulss	 xmm0, DWORD PTR _v3Up$[esp+116]
  00214	f3 0f 59 64 24
	48		 mulss	 xmm4, DWORD PTR _v3Up$[esp+120]

; 182  :     z = fz;

  0021a	f3 0f 11 5c 24
	10		 movss	 DWORD PTR _v3Cross$2$[esp+112], xmm3

; 269  :     return D3DXVECTOR3(x * f, y * f, z * f);

  00220	f3 0f 10 5c 24
	14		 movss	 xmm3, DWORD PTR _v3Up$14$[esp+112]
  00226	f3 0f 59 5c 24
	50		 mulss	 xmm3, DWORD PTR _v3Cross$[esp+116]
  0022c	f3 0f 59 7c 24
	54		 mulss	 xmm7, DWORD PTR _v3Cross$[esp+120]

; 180  :     x = fx;

  00232	f3 0f 58 d8	 addss	 xmm3, xmm0
  00236	f3 0f 11 5c 24
	18		 movss	 DWORD PTR _v3Cross$5$[esp+112], xmm3

; 269  :     return D3DXVECTOR3(x * f, y * f, z * f);

  0023c	f3 0f 10 5c 24
	14		 movss	 xmm3, DWORD PTR _v3Up$14$[esp+112]
  00242	f3 0f 59 5c 24
	54		 mulss	 xmm3, DWORD PTR _v3Cross$[esp+120]
; File C:\Users\murat\Desktop\Siveps2-1-99-Project\source\client\Client\EffectLib\ParticleInstance.cpp

; 184  : 			break;

  00248	f3 0f 10 4c 24
	18		 movss	 xmm1, DWORD PTR _v3Cross$5$[esp+112]
; File C:\Users\murat\Desktop\Siveps2-1-99-Project\source\client\extern\include\d3dx8math.inl

; 181  :     y = fy;

  0024e	f3 0f 58 dc	 addss	 xmm3, xmm4

; 269  :     return D3DXVECTOR3(x * f, y * f, z * f);

  00252	0f 28 e2	 movaps	 xmm4, xmm2

; 181  :     y = fy;

  00255	f3 0f 11 5c 24
	58		 movss	 DWORD PTR _v3Cross$8$[esp+112], xmm3

; 269  :     return D3DXVECTOR3(x * f, y * f, z * f);

  0025b	f3 0f 10 5c 24
	40		 movss	 xmm3, DWORD PTR _v3Up$[esp+112]
  00261	f3 0f 59 e3	 mulss	 xmm4, xmm3
  00265	0f 28 da	 movaps	 xmm3, xmm2
  00268	f3 0f 59 5c 24
	44		 mulss	 xmm3, DWORD PTR _v3Up$[esp+116]
  0026e	f3 0f 59 54 24
	48		 mulss	 xmm2, DWORD PTR _v3Up$[esp+120]

; 182  :     z = fz;

  00274	f3 0f 5c e5	 subss	 xmm4, xmm5
; File C:\Users\murat\Desktop\Siveps2-1-99-Project\source\client\Client\EffectLib\ParticleInstance.cpp

; 184  : 			break;

  00278	f3 0f 10 6c 24
	58		 movss	 xmm5, DWORD PTR _v3Cross$8$[esp+112]
; File C:\Users\murat\Desktop\Siveps2-1-99-Project\source\client\extern\include\d3dx8math.inl

; 180  :     x = fx;

  0027e	f3 0f 5c de	 subss	 xmm3, xmm6

; 181  :     y = fy;

  00282	f3 0f 5c d7	 subss	 xmm2, xmm7
; File C:\Users\murat\Desktop\Siveps2-1-99-Project\source\client\Client\EffectLib\ParticleInstance.cpp

; 184  : 			break;

  00286	e9 74 03 00 00	 jmp	 $LN166@Transform
$LN12@Transform:

; 185  : 		case BILLBOARD_TYPE_ALL:
; 186  : 		default:
; 187  : 			{
; 188  : 				// NOTE : Rotation Routine. Camera Up Vector Cross Vector  View Vector 
; 189  : 				//        Rotation .
; 190  : 				// FIXME :    !
; 191  : 				if (m_fRotation==0.0f)

  0028b	f3 0f 10 4e 40	 movss	 xmm1, DWORD PTR [esi+64]
  00290	0f 57 c0	 xorps	 xmm0, xmm0
  00293	0f 2e c8	 ucomiss xmm1, xmm0
  00296	9f		 lahf
  00297	f6 c4 44	 test	 ah, 68			; 00000044H
  0029a	7a 49		 jp	 SHORT $LN14@Transform
; File C:\Users\murat\Desktop\Siveps2-1-99-Project\source\client\extern\include\d3dx8math.inl

; 249  :     return D3DXVECTOR3(-x, -y, -z);

  0029c	f3 0f 10 5f 64	 movss	 xmm3, DWORD PTR [edi+100]
  002a1	f3 0f 10 57 68	 movss	 xmm2, DWORD PTR [edi+104]
  002a6	f3 0f 10 67 60	 movss	 xmm4, DWORD PTR [edi+96]
  002ab	f3 0f 10 05 00
	00 00 00	 movss	 xmm0, DWORD PTR __xmm@80000000800000008000000080000000
  002b3	0f 57 e0	 xorps	 xmm4, xmm0
  002b6	0f 57 d8	 xorps	 xmm3, xmm0
  002b9	0f 57 d0	 xorps	 xmm2, xmm0
; File C:\Users\murat\Desktop\Siveps2-1-99-Project\source\client\Client\EffectLib\ParticleInstance.cpp

; 193  : 					v3Up = -c_rv3Cross;

  002bc	f3 0f 11 64 24
	40		 movss	 DWORD PTR _v3Up$[esp+112], xmm4
  002c2	f3 0f 11 5c 24
	44		 movss	 DWORD PTR _v3Up$[esp+116], xmm3
  002c8	f3 0f 11 54 24
	48		 movss	 DWORD PTR _v3Up$[esp+120], xmm2

; 194  : 					v3Cross = c_rv3Up;

  002ce	f3 0f 7e 47 48	 movq	 xmm0, QWORD PTR [edi+72]
  002d3	66 0f d6 44 24
	4c		 movq	 QWORD PTR _v3Cross$[esp+112], xmm0
  002d9	8b 47 50	 mov	 eax, DWORD PTR [edi+80]
  002dc	89 44 24 54	 mov	 DWORD PTR _v3Cross$[esp+120], eax

; 195  : 				}

  002e0	e9 02 03 00 00	 jmp	 $LN167@Transform
$LN14@Transform:

; 196  : 				else
; 197  : 				{
; 198  : 					const D3DXVECTOR3 & c_rv3View = pCurrentCamera->GetView();
; 199  : 					D3DXQUATERNION q,qc;
; 200  : 					D3DXQuaternionRotationAxis(&q, &c_rv3View, D3DXToRadian(m_fRotation));

  002e5	f3 0f 59 0d 00
	00 00 00	 mulss	 xmm1, DWORD PTR __real@3c8efa35
  002ed	8d 47 54	 lea	 eax, DWORD PTR [edi+84]
  002f0	51		 push	 ecx
  002f1	f3 0f 11 0c 24	 movss	 DWORD PTR [esp], xmm1
  002f6	50		 push	 eax
  002f7	8d 44 24 60	 lea	 eax, DWORD PTR _q$14[esp+120]
  002fb	50		 push	 eax
  002fc	e8 00 00 00 00	 call	 _D3DXQuaternionRotationAxis@12
; File C:\Users\murat\Desktop\Siveps2-1-99-Project\source\client\extern\include\d3dx8math.inl

; 1616 :     pOut->x = -pQ->x;

  00301	f3 0f 10 0d 00
	00 00 00	 movss	 xmm1, DWORD PTR __xmm@80000000800000008000000080000000
; File C:\Users\murat\Desktop\Siveps2-1-99-Project\source\client\Client\EffectLib\ParticleInstance.cpp

; 205  : 						D3DXQuaternionMultiply(&qr,&qc,&qr);

  00309	8d 44 24 1c	 lea	 eax, DWORD PTR _qr$11[esp+112]
; File C:\Users\murat\Desktop\Siveps2-1-99-Project\source\client\extern\include\d3dx8math.inl

; 1616 :     pOut->x = -pQ->x;

  0030d	f3 0f 10 44 24
	58		 movss	 xmm0, DWORD PTR _q$14[esp+112]
  00313	0f 57 c1	 xorps	 xmm0, xmm1

; 670  :     w = fw;

  00316	c7 44 24 28 00
	00 00 00	 mov	 DWORD PTR _qr$11[esp+124], 0

; 1616 :     pOut->x = -pQ->x;

  0031e	f3 0f 11 44 24
	30		 movss	 DWORD PTR _qc$12[esp+112], xmm0

; 1617 :     pOut->y = -pQ->y;

  00324	f3 0f 10 44 24
	5c		 movss	 xmm0, DWORD PTR _q$14[esp+116]
  0032a	0f 57 c1	 xorps	 xmm0, xmm1
  0032d	f3 0f 11 44 24
	34		 movss	 DWORD PTR _qc$12[esp+116], xmm0

; 1618 :     pOut->z = -pQ->z;

  00333	f3 0f 10 44 24
	60		 movss	 xmm0, DWORD PTR _q$14[esp+120]
  00339	0f 57 c1	 xorps	 xmm0, xmm1
  0033c	f3 0f 11 44 24
	38		 movss	 DWORD PTR _qc$12[esp+120], xmm0

; 1619 :     pOut->w =  pQ->w;

  00342	f3 0f 10 44 24
	64		 movss	 xmm0, DWORD PTR _q$14[esp+124]
  00348	f3 0f 11 44 24
	3c		 movss	 DWORD PTR _qc$12[esp+124], xmm0
; File C:\Users\murat\Desktop\Siveps2-1-99-Project\source\client\Client\EffectLib\ParticleInstance.cpp

; 204  : 						D3DXQUATERNION qr(-c_rv3Cross.x, -c_rv3Cross.y, -c_rv3Cross.z, 0);

  0034e	f3 0f 10 47 60	 movss	 xmm0, DWORD PTR [edi+96]
  00353	0f 57 c1	 xorps	 xmm0, xmm1
; File C:\Users\murat\Desktop\Siveps2-1-99-Project\source\client\extern\include\d3dx8math.inl

; 667  :     x = fx;

  00356	f3 0f 11 44 24
	1c		 movss	 DWORD PTR _qr$11[esp+112], xmm0
; File C:\Users\murat\Desktop\Siveps2-1-99-Project\source\client\Client\EffectLib\ParticleInstance.cpp

; 204  : 						D3DXQUATERNION qr(-c_rv3Cross.x, -c_rv3Cross.y, -c_rv3Cross.z, 0);

  0035c	f3 0f 10 47 64	 movss	 xmm0, DWORD PTR [edi+100]

; 205  : 						D3DXQuaternionMultiply(&qr,&qc,&qr);

  00361	50		 push	 eax
  00362	0f 57 c1	 xorps	 xmm0, xmm1
  00365	8d 44 24 34	 lea	 eax, DWORD PTR _qc$12[esp+116]
; File C:\Users\murat\Desktop\Siveps2-1-99-Project\source\client\extern\include\d3dx8math.inl

; 668  :     y = fy;

  00369	f3 0f 11 44 24
	24		 movss	 DWORD PTR _qr$11[esp+120], xmm0
; File C:\Users\murat\Desktop\Siveps2-1-99-Project\source\client\Client\EffectLib\ParticleInstance.cpp

; 204  : 						D3DXQUATERNION qr(-c_rv3Cross.x, -c_rv3Cross.y, -c_rv3Cross.z, 0);

  0036f	f3 0f 10 47 68	 movss	 xmm0, DWORD PTR [edi+104]

; 205  : 						D3DXQuaternionMultiply(&qr,&qc,&qr);

  00374	50		 push	 eax
  00375	8d 44 24 24	 lea	 eax, DWORD PTR _qr$11[esp+120]
  00379	0f 57 c1	 xorps	 xmm0, xmm1
  0037c	50		 push	 eax
; File C:\Users\murat\Desktop\Siveps2-1-99-Project\source\client\extern\include\d3dx8math.inl

; 669  :     z = fz;

  0037d	f3 0f 11 44 24
	30		 movss	 DWORD PTR _qr$11[esp+132], xmm0
; File C:\Users\murat\Desktop\Siveps2-1-99-Project\source\client\Client\EffectLib\ParticleInstance.cpp

; 205  : 						D3DXQuaternionMultiply(&qr,&qc,&qr);

  00383	e8 00 00 00 00	 call	 _D3DXQuaternionMultiply@12

; 206  : 						D3DXQuaternionMultiply(&qr,&qr,&q);

  00388	8d 44 24 58	 lea	 eax, DWORD PTR _q$14[esp+112]
  0038c	50		 push	 eax
  0038d	8d 44 24 20	 lea	 eax, DWORD PTR _qr$11[esp+116]
  00391	50		 push	 eax
  00392	50		 push	 eax
  00393	e8 00 00 00 00	 call	 _D3DXQuaternionMultiply@12

; 207  : 						v3Up.x = qr.x;

  00398	f3 0f 10 44 24
	1c		 movss	 xmm0, DWORD PTR _qr$11[esp+112]

; 213  : 						D3DXQuaternionMultiply(&qr,&qc,&qr);

  0039e	8d 44 24 1c	 lea	 eax, DWORD PTR _qr$10[esp+112]
  003a2	f3 0f 11 44 24
	40		 movss	 DWORD PTR _v3Up$[esp+112], xmm0
  003a8	f3 0f 10 44 24
	20		 movss	 xmm0, DWORD PTR _qr$11[esp+116]
  003ae	f3 0f 11 44 24
	44		 movss	 DWORD PTR _v3Up$[esp+116], xmm0
  003b4	f3 0f 10 44 24
	24		 movss	 xmm0, DWORD PTR _qr$11[esp+120]
  003ba	f3 0f 11 44 24
	48		 movss	 DWORD PTR _v3Up$[esp+120], xmm0
; File C:\Users\murat\Desktop\Siveps2-1-99-Project\source\client\extern\include\d3dx8math.inl

; 667  :     x = fx;

  003c0	f3 0f 10 47 48	 movss	 xmm0, DWORD PTR [edi+72]
; File C:\Users\murat\Desktop\Siveps2-1-99-Project\source\client\Client\EffectLib\ParticleInstance.cpp

; 213  : 						D3DXQuaternionMultiply(&qr,&qc,&qr);

  003c5	50		 push	 eax
; File C:\Users\murat\Desktop\Siveps2-1-99-Project\source\client\extern\include\d3dx8math.inl

; 667  :     x = fx;

  003c6	f3 0f 11 44 24
	20		 movss	 DWORD PTR _qr$10[esp+116], xmm0
; File C:\Users\murat\Desktop\Siveps2-1-99-Project\source\client\Client\EffectLib\ParticleInstance.cpp

; 213  : 						D3DXQuaternionMultiply(&qr,&qc,&qr);

  003cc	8d 44 24 34	 lea	 eax, DWORD PTR _qc$12[esp+116]
; File C:\Users\murat\Desktop\Siveps2-1-99-Project\source\client\extern\include\d3dx8math.inl

; 668  :     y = fy;

  003d0	f3 0f 10 47 4c	 movss	 xmm0, DWORD PTR [edi+76]
; File C:\Users\murat\Desktop\Siveps2-1-99-Project\source\client\Client\EffectLib\ParticleInstance.cpp

; 213  : 						D3DXQuaternionMultiply(&qr,&qc,&qr);

  003d5	50		 push	 eax
; File C:\Users\murat\Desktop\Siveps2-1-99-Project\source\client\extern\include\d3dx8math.inl

; 668  :     y = fy;

  003d6	f3 0f 11 44 24
	28		 movss	 DWORD PTR _qr$10[esp+124], xmm0
; File C:\Users\murat\Desktop\Siveps2-1-99-Project\source\client\Client\EffectLib\ParticleInstance.cpp

; 213  : 						D3DXQuaternionMultiply(&qr,&qc,&qr);

  003dc	8d 44 24 24	 lea	 eax, DWORD PTR _qr$10[esp+120]
; File C:\Users\murat\Desktop\Siveps2-1-99-Project\source\client\extern\include\d3dx8math.inl

; 669  :     z = fz;

  003e0	f3 0f 10 47 50	 movss	 xmm0, DWORD PTR [edi+80]
; File C:\Users\murat\Desktop\Siveps2-1-99-Project\source\client\Client\EffectLib\ParticleInstance.cpp

; 213  : 						D3DXQuaternionMultiply(&qr,&qc,&qr);

  003e5	50		 push	 eax
; File C:\Users\murat\Desktop\Siveps2-1-99-Project\source\client\extern\include\d3dx8math.inl

; 669  :     z = fz;

  003e6	f3 0f 11 44 24
	30		 movss	 DWORD PTR _qr$10[esp+132], xmm0

; 670  :     w = fw;

  003ec	c7 44 24 34 00
	00 00 00	 mov	 DWORD PTR _qr$10[esp+136], 0
; File C:\Users\murat\Desktop\Siveps2-1-99-Project\source\client\Client\EffectLib\ParticleInstance.cpp

; 213  : 						D3DXQuaternionMultiply(&qr,&qc,&qr);

  003f4	e8 00 00 00 00	 call	 _D3DXQuaternionMultiply@12

; 214  : 						D3DXQuaternionMultiply(&qr,&qr,&q);

  003f9	8d 44 24 58	 lea	 eax, DWORD PTR _q$14[esp+112]
  003fd	50		 push	 eax
  003fe	8d 44 24 20	 lea	 eax, DWORD PTR _qr$10[esp+116]
  00402	50		 push	 eax
  00403	50		 push	 eax
  00404	e8 00 00 00 00	 call	 _D3DXQuaternionMultiply@12

; 215  : 						v3Cross.x = qr.x;

  00409	f3 0f 10 44 24
	1c		 movss	 xmm0, DWORD PTR _qr$10[esp+112]

; 216  : 						v3Cross.y = qr.y;

  0040f	f3 0f 10 4c 24
	20		 movss	 xmm1, DWORD PTR _qr$10[esp+116]

; 217  : 						v3Cross.z = qr.z;

  00415	f3 0f 10 6c 24
	24		 movss	 xmm5, DWORD PTR _qr$10[esp+120]

; 218  : 					}
; 219  : 
; 220  : 				}
; 221  : 				//D3DXMATRIX matRotation;
; 222  : 
; 223  : 				//D3DXMatrixRotationAxis(&matRotation, &c_rv3View, D3DXToRadian(m_fRotation));
; 224  : 
; 225  : 				//D3DXVec3TransformCoord(&v3Up, &(-c_rv3Cross), &matRotation);
; 226  : 				//D3DXVec3TransformCoord(&v3Cross, &c_rv3Up, &matRotation);
; 227  : 			}
; 228  : 			break;
; 229  : 		}
; 230  : 
; 231  : 	}

  0041b	f3 0f 10 54 24
	48		 movss	 xmm2, DWORD PTR _v3Up$[esp+120]
  00421	f3 0f 10 5c 24
	44		 movss	 xmm3, DWORD PTR _v3Up$[esp+116]
  00427	f3 0f 10 64 24
	40		 movss	 xmm4, DWORD PTR _v3Up$[esp+112]
  0042d	e9 c7 01 00 00	 jmp	 $LN168@Transform
$LN4@Transform:
; File C:\Users\murat\Desktop\Siveps2-1-99-Project\source\client\extern\include\d3dx8math.inl

; 263  :     return D3DXVECTOR3(x - v.x, y - v.y, z - v.z);

  00432	f3 0f 10 56 0c	 movss	 xmm2, DWORD PTR [esi+12]
  00437	f3 0f 10 46 10	 movss	 xmm0, DWORD PTR [esi+16]
  0043c	f3 0f 10 5e 14	 movss	 xmm3, DWORD PTR [esi+20]
  00441	f3 0f 5c 56 18	 subss	 xmm2, DWORD PTR [esi+24]
  00446	f3 0f 5c 46 1c	 subss	 xmm0, DWORD PTR [esi+28]
  0044b	f3 0f 5c 5e 20	 subss	 xmm3, DWORD PTR [esi+32]
; File C:\Users\murat\Desktop\Siveps2-1-99-Project\source\client\Client\EffectLib\ParticleInstance.cpp

; 236  : 		if (c_matLocal)

  00450	8b 44 24 2c	 mov	 eax, DWORD PTR _c_matLocal$GSCopy$1$[esp+112]
; File C:\Users\murat\Desktop\Siveps2-1-99-Project\source\client\extern\include\d3dx8math.inl

; 263  :     return D3DXVECTOR3(x - v.x, y - v.y, z - v.z);

  00454	f3 0f 11 54 24
	14		 movss	 DWORD PTR _v3Up$2$[esp+112], xmm2
; File C:\Users\murat\Desktop\Siveps2-1-99-Project\source\client\Client\EffectLib\ParticleInstance.cpp

; 234  : 		v3Up = m_v3Position - m_v3LastPosition;

  0045a	f3 0f 11 54 24
	40		 movss	 DWORD PTR _v3Up$[esp+112], xmm2
; File C:\Users\murat\Desktop\Siveps2-1-99-Project\source\client\extern\include\d3dx8math.inl

; 263  :     return D3DXVECTOR3(x - v.x, y - v.y, z - v.z);

  00460	f3 0f 11 44 24
	10		 movss	 DWORD PTR _v3Up$7$[esp+112], xmm0
; File C:\Users\murat\Desktop\Siveps2-1-99-Project\source\client\Client\EffectLib\ParticleInstance.cpp

; 234  : 		v3Up = m_v3Position - m_v3LastPosition;

  00466	f3 0f 11 44 24
	44		 movss	 DWORD PTR _v3Up$[esp+116], xmm0
; File C:\Users\murat\Desktop\Siveps2-1-99-Project\source\client\extern\include\d3dx8math.inl

; 263  :     return D3DXVECTOR3(x - v.x, y - v.y, z - v.z);

  0046c	f3 0f 11 5c 24
	18		 movss	 DWORD PTR _v3Up$12$[esp+112], xmm3
; File C:\Users\murat\Desktop\Siveps2-1-99-Project\source\client\Client\EffectLib\ParticleInstance.cpp

; 234  : 		v3Up = m_v3Position - m_v3LastPosition;

  00472	f3 0f 11 5c 24
	48		 movss	 DWORD PTR _v3Up$[esp+120], xmm3

; 236  : 		if (c_matLocal)

  00478	85 c0		 test	 eax, eax
  0047a	74 30		 je	 SHORT $LN16@Transform

; 237  : 		{
; 238  : 			//if (!m_pParticleProperty->m_bAttachFlag)
; 239  : 				D3DXVec3TransformNormal(&v3Up, &v3Up, c_matLocal);

  0047c	50		 push	 eax
  0047d	8d 44 24 44	 lea	 eax, DWORD PTR _v3Up$[esp+116]
  00481	50		 push	 eax
  00482	50		 push	 eax
  00483	e8 00 00 00 00	 call	 _D3DXVec3TransformNormal@12
  00488	f3 0f 10 5c 24
	48		 movss	 xmm3, DWORD PTR _v3Up$[esp+120]
  0048e	f3 0f 10 44 24
	44		 movss	 xmm0, DWORD PTR _v3Up$[esp+116]
  00494	f3 0f 10 54 24
	40		 movss	 xmm2, DWORD PTR _v3Up$[esp+112]
  0049a	f3 0f 11 5c 24
	18		 movss	 DWORD PTR _v3Up$12$[esp+112], xmm3
  004a0	f3 0f 11 44 24
	10		 movss	 DWORD PTR _v3Up$7$[esp+112], xmm0
  004a6	f3 0f 11 54 24
	14		 movss	 DWORD PTR _v3Up$2$[esp+112], xmm2
$LN16@Transform:
; File C:\Users\murat\Desktop\Siveps2-1-99-Project\source\client\extern\include\d3dx8math.inl

; 1239 :     return sqrtf(pV->x * pV->x + pV->y * pV->y + pV->z * pV->z);

  004ac	0f 28 c8	 movaps	 xmm1, xmm0
  004af	f3 0f 59 c8	 mulss	 xmm1, xmm0
  004b3	0f 28 c2	 movaps	 xmm0, xmm2
  004b6	f3 0f 59 c2	 mulss	 xmm0, xmm2
  004ba	f3 0f 58 c8	 addss	 xmm1, xmm0
  004be	0f 28 c3	 movaps	 xmm0, xmm3
  004c1	f3 0f 59 c3	 mulss	 xmm0, xmm3
  004c5	f3 0f 58 c8	 addss	 xmm1, xmm0
; File C:\Program Files (x86)\Windows Kits\10\Include\10.0.19041.0\ucrt\corecrt_math.h

; 758  :             return (float)sqrt(_X);

  004c9	0f 5a c1	 cvtps2pd xmm0, xmm1
  004cc	0f 57 c9	 xorps	 xmm1, xmm1
  004cf	66 0f 2e c8	 ucomisd xmm1, xmm0
  004d3	77 06		 ja	 SHORT $LN164@Transform
  004d5	f2 0f 51 c0	 sqrtsd	 xmm0, xmm0
  004d9	eb 05		 jmp	 SHORT $LN165@Transform
$LN164@Transform:
  004db	e8 00 00 00 00	 call	 __libm_sse2_sqrt_precise
$LN165@Transform:
  004e0	0f 57 c9	 xorps	 xmm1, xmm1
  004e3	f2 0f 5a c8	 cvtsd2ss xmm1, xmm0
  004e7	0f 57 c0	 xorps	 xmm0, xmm0
; File C:\Users\murat\Desktop\Siveps2-1-99-Project\source\client\Client\EffectLib\ParticleInstance.cpp

; 244  : 		if (length == 0.0f)

  004ea	0f 2e c8	 ucomiss xmm1, xmm0
; File C:\Program Files (x86)\Windows Kits\10\Include\10.0.19041.0\ucrt\corecrt_math.h

; 758  :             return (float)sqrt(_X);

  004ed	f3 0f 11 4c 24
	58		 movss	 DWORD PTR _length$1$[esp+112], xmm1
; File C:\Users\murat\Desktop\Siveps2-1-99-Project\source\client\Client\EffectLib\ParticleInstance.cpp

; 244  : 		if (length == 0.0f)

  004f3	9f		 lahf
  004f4	f6 c4 44	 test	 ah, 68			; 00000044H
  004f7	7a 1a		 jp	 SHORT $LN17@Transform

; 245  : 		{
; 246  : 			v3Up = D3DXVECTOR3(0.0f,0.0f,1.0f);

  004f9	c7 44 24 40 00
	00 00 00	 mov	 DWORD PTR _v3Up$[esp+112], 0
  00501	c7 44 24 44 00
	00 00 00	 mov	 DWORD PTR _v3Up$[esp+116], 0
  00509	c7 44 24 48 00
	00 80 3f	 mov	 DWORD PTR _v3Up$[esp+120], 1065353216 ; 3f800000H

; 247  : 		}

  00511	eb 52		 jmp	 SHORT $LN18@Transform
$LN17@Transform:

; 249  : 			v3Up *=(1+log(1+length))/length;

  00513	0f 28 c1	 movaps	 xmm0, xmm1
  00516	f3 0f 58 05 00
	00 00 00	 addss	 xmm0, DWORD PTR __real@3f800000
; File C:\Program Files (x86)\Windows Kits\10\Include\10.0.19041.0\ucrt\corecrt_math.h

; 730  :             return (float)log(_X);

  0051e	0f 5a c0	 cvtps2pd xmm0, xmm0
  00521	e8 00 00 00 00	 call	 __libm_sse2_log_precise
  00526	0f 57 c9	 xorps	 xmm1, xmm1
  00529	f2 0f 5a c8	 cvtsd2ss xmm1, xmm0
; File C:\Users\murat\Desktop\Siveps2-1-99-Project\source\client\Client\EffectLib\ParticleInstance.cpp

; 249  : 			v3Up *=(1+log(1+length))/length;

  0052d	f3 0f 58 0d 00
	00 00 00	 addss	 xmm1, DWORD PTR __real@3f800000
  00535	f3 0f 5e 4c 24
	58		 divss	 xmm1, DWORD PTR _length$1$[esp+112]
; File C:\Users\murat\Desktop\Siveps2-1-99-Project\source\client\extern\include\d3dx8math.inl

; 222  :     x *= f;

  0053b	0f 28 c1	 movaps	 xmm0, xmm1
  0053e	f3 0f 59 44 24
	14		 mulss	 xmm0, DWORD PTR _v3Up$2$[esp+112]
  00544	f3 0f 11 44 24
	40		 movss	 DWORD PTR _v3Up$[esp+112], xmm0

; 223  :     y *= f;

  0054a	0f 28 c1	 movaps	 xmm0, xmm1
  0054d	f3 0f 59 44 24
	10		 mulss	 xmm0, DWORD PTR _v3Up$7$[esp+112]

; 224  :     z *= f;

  00553	f3 0f 59 4c 24
	18		 mulss	 xmm1, DWORD PTR _v3Up$12$[esp+112]
  00559	f3 0f 11 44 24
	44		 movss	 DWORD PTR _v3Up$[esp+116], xmm0
  0055f	f3 0f 11 4c 24
	48		 movss	 DWORD PTR _v3Up$[esp+120], xmm1
$LN18@Transform:
; File C:\Users\murat\Desktop\Siveps2-1-99-Project\source\client\Client\EffectLib\ParticleInstance.cpp

; 251  : 		CCamera * pCurrentCamera = CCameraManager::Instance().GetCurrentCamera();

  00565	8b 0d 00 00 00
	00		 mov	 ecx, DWORD PTR ?ms_singleton@?$CSingleton@VCCameraManager@@@@0PAVCCameraManager@@A ; CSingleton<CCameraManager>::ms_singleton
  0056b	e8 00 00 00 00	 call	 ?GetCurrentCamera@CCameraManager@@QAEPAVCCamera@@XZ ; CCameraManager::GetCurrentCamera
; File C:\Users\murat\Desktop\Siveps2-1-99-Project\source\client\extern\include\d3dx8math.inl

; 1277 :     v.x = pV1->y * pV2->z - pV1->z * pV2->y;

  00570	f3 0f 10 60 5c	 movss	 xmm4, DWORD PTR [eax+92]
  00575	f3 0f 10 70 58	 movss	 xmm6, DWORD PTR [eax+88]
  0057a	0f 28 d4	 movaps	 xmm2, xmm4
  0057d	f3 0f 59 54 24
	44		 mulss	 xmm2, DWORD PTR _v3Up$[esp+116]
  00583	0f 28 c6	 movaps	 xmm0, xmm6
  00586	f3 0f 59 44 24
	48		 mulss	 xmm0, DWORD PTR _v3Up$[esp+120]

; 1278 :     v.y = pV1->z * pV2->x - pV1->x * pV2->z;

  0058c	f3 0f 10 68 54	 movss	 xmm5, DWORD PTR [eax+84]
; File C:\Users\murat\Desktop\Siveps2-1-99-Project\source\client\Client\EffectLib\ParticleInstance.cpp

; 254  : 		D3DXVec3Normalize(&v3Cross, &v3Cross);

  00591	8d 44 24 4c	 lea	 eax, DWORD PTR _v3Cross$[esp+112]
; File C:\Users\murat\Desktop\Siveps2-1-99-Project\source\client\extern\include\d3dx8math.inl

; 1278 :     v.y = pV1->z * pV2->x - pV1->x * pV2->z;

  00595	f3 0f 59 64 24
	40		 mulss	 xmm4, DWORD PTR _v3Up$[esp+112]
; File C:\Users\murat\Desktop\Siveps2-1-99-Project\source\client\Client\EffectLib\ParticleInstance.cpp

; 254  : 		D3DXVec3Normalize(&v3Cross, &v3Cross);

  0059b	50		 push	 eax
; File C:\Users\murat\Desktop\Siveps2-1-99-Project\source\client\extern\include\d3dx8math.inl

; 1279 :     v.z = pV1->x * pV2->y - pV1->y * pV2->x;

  0059c	f3 0f 59 74 24
	44		 mulss	 xmm6, DWORD PTR _v3Up$[esp+116]
  005a2	f3 0f 5c d0	 subss	 xmm2, xmm0
; File C:\Users\murat\Desktop\Siveps2-1-99-Project\source\client\Client\EffectLib\ParticleInstance.cpp

; 254  : 		D3DXVec3Normalize(&v3Cross, &v3Cross);

  005a6	50		 push	 eax
; File C:\Users\murat\Desktop\Siveps2-1-99-Project\source\client\extern\include\d3dx8math.inl

; 1281 :     *pOut = v;

  005a7	f3 0f 11 54 24
	54		 movss	 DWORD PTR _v3Cross$[esp+120], xmm2
  005ad	0f 28 d5	 movaps	 xmm2, xmm5
  005b0	f3 0f 59 54 24
	50		 mulss	 xmm2, DWORD PTR _v3Up$[esp+128]
  005b6	f3 0f 59 6c 24
	4c		 mulss	 xmm5, DWORD PTR _v3Up$[esp+124]
  005bc	f3 0f 5c d4	 subss	 xmm2, xmm4
  005c0	f3 0f 5c f5	 subss	 xmm6, xmm5
  005c4	f3 0f 11 54 24
	58		 movss	 DWORD PTR _v3Cross$[esp+124], xmm2
  005ca	f3 0f 11 74 24
	5c		 movss	 DWORD PTR _v3Cross$[esp+128], xmm6
; File C:\Users\murat\Desktop\Siveps2-1-99-Project\source\client\Client\EffectLib\ParticleInstance.cpp

; 254  : 		D3DXVec3Normalize(&v3Cross, &v3Cross);

  005d0	e8 00 00 00 00	 call	 _D3DXVec3Normalize@8
$LN163@Transform:

; 258  : 	v3Cross = -(m_v2HalfSize.x*m_v2Scale.x) * v3Cross;

  005d5	f3 0f 10 64 24
	40		 movss	 xmm4, DWORD PTR _v3Up$[esp+112]
  005db	f3 0f 10 5c 24
	44		 movss	 xmm3, DWORD PTR _v3Up$[esp+116]
  005e1	f3 0f 10 54 24
	48		 movss	 xmm2, DWORD PTR _v3Up$[esp+120]
$LN167@Transform:
  005e7	f3 0f 10 44 24
	4c		 movss	 xmm0, DWORD PTR _v3Cross$[esp+112]
  005ed	f3 0f 10 6c 24
	54		 movss	 xmm5, DWORD PTR _v3Cross$[esp+120]
  005f3	f3 0f 10 4c 24
	50		 movss	 xmm1, DWORD PTR _v3Cross$[esp+116]
$LN168@Transform:
  005f9	f3 0f 11 44 24
	10		 movss	 DWORD PTR _v3Cross$2$[esp+112], xmm0
$LN166@Transform:
  005ff	f3 0f 10 05 00
	00 00 00	 movss	 xmm0, DWORD PTR __xmm@80000000800000008000000080000000
$LN5@Transform:
  00607	f3 0f 10 76 38	 movss	 xmm6, DWORD PTR [esi+56]
  0060c	f3 0f 59 76 30	 mulss	 xmm6, DWORD PTR [esi+48]

; 260  : 
; 261  : 	if (c_matLocal && m_pParticleProperty->m_bAttachFlag)

  00611	8b 4c 24 2c	 mov	 ecx, DWORD PTR _c_matLocal$GSCopy$1$[esp+112]
  00615	0f 57 f0	 xorps	 xmm6, xmm0
; File C:\Users\murat\Desktop\Siveps2-1-99-Project\source\client\extern\include\d3dx8math.inl

; 283  :     return D3DXVECTOR3(f * v.x, f * v.y, f * v.z);

  00618	0f 28 c6	 movaps	 xmm0, xmm6
  0061b	0f 28 fe	 movaps	 xmm7, xmm6
  0061e	f3 0f 59 44 24
	10		 mulss	 xmm0, DWORD PTR _v3Cross$2$[esp+112]
  00624	f3 0f 59 f5	 mulss	 xmm6, xmm5
; File C:\Users\murat\Desktop\Siveps2-1-99-Project\source\client\Client\EffectLib\ParticleInstance.cpp

; 259  : 	v3Up = (m_v2HalfSize.y*m_v2Scale.y) * v3Up;

  00628	f3 0f 10 6e 3c	 movss	 xmm5, DWORD PTR [esi+60]
  0062d	f3 0f 59 6e 34	 mulss	 xmm5, DWORD PTR [esi+52]
; File C:\Users\murat\Desktop\Siveps2-1-99-Project\source\client\extern\include\d3dx8math.inl

; 283  :     return D3DXVECTOR3(f * v.x, f * v.y, f * v.z);

  00632	f3 0f 59 f9	 mulss	 xmm7, xmm1
  00636	f3 0f 11 44 24
	10		 movss	 DWORD PTR tv2751[esp+112], xmm0
; File C:\Users\murat\Desktop\Siveps2-1-99-Project\source\client\Client\EffectLib\ParticleInstance.cpp

; 258  : 	v3Cross = -(m_v2HalfSize.x*m_v2Scale.x) * v3Cross;

  0063c	f3 0f 11 44 24
	4c		 movss	 DWORD PTR _v3Cross$[esp+112], xmm0
; File C:\Users\murat\Desktop\Siveps2-1-99-Project\source\client\extern\include\d3dx8math.inl

; 283  :     return D3DXVECTOR3(f * v.x, f * v.y, f * v.z);

  00642	0f 28 c5	 movaps	 xmm0, xmm5
  00645	f3 0f 11 7c 24
	14		 movss	 DWORD PTR tv2752[esp+112], xmm7
; File C:\Users\murat\Desktop\Siveps2-1-99-Project\source\client\Client\EffectLib\ParticleInstance.cpp

; 258  : 	v3Cross = -(m_v2HalfSize.x*m_v2Scale.x) * v3Cross;

  0064b	f3 0f 11 7c 24
	50		 movss	 DWORD PTR _v3Cross$[esp+116], xmm7
; File C:\Users\murat\Desktop\Siveps2-1-99-Project\source\client\extern\include\d3dx8math.inl

; 283  :     return D3DXVECTOR3(f * v.x, f * v.y, f * v.z);

  00651	0f 28 fd	 movaps	 xmm7, xmm5
  00654	f3 0f 59 c3	 mulss	 xmm0, xmm3
  00658	f3 0f 59 fc	 mulss	 xmm7, xmm4
  0065c	f3 0f 59 ea	 mulss	 xmm5, xmm2
; File C:\Users\murat\Desktop\Siveps2-1-99-Project\source\client\Client\EffectLib\ParticleInstance.cpp

; 258  : 	v3Cross = -(m_v2HalfSize.x*m_v2Scale.x) * v3Cross;

  00660	f3 0f 11 74 24
	54		 movss	 DWORD PTR _v3Cross$[esp+120], xmm6
; File C:\Users\murat\Desktop\Siveps2-1-99-Project\source\client\extern\include\d3dx8math.inl

; 283  :     return D3DXVECTOR3(f * v.x, f * v.y, f * v.z);

  00666	f3 0f 11 44 24
	18		 movss	 DWORD PTR $T1[esp+112], xmm0
; File C:\Users\murat\Desktop\Siveps2-1-99-Project\source\client\Client\EffectLib\ParticleInstance.cpp

; 259  : 	v3Up = (m_v2HalfSize.y*m_v2Scale.y) * v3Up;

  0066c	f3 0f 11 7c 24
	40		 movss	 DWORD PTR _v3Up$[esp+112], xmm7
  00672	f3 0f 11 44 24
	44		 movss	 DWORD PTR _v3Up$[esp+116], xmm0
  00678	f3 0f 11 6c 24
	48		 movss	 DWORD PTR _v3Up$[esp+120], xmm5

; 260  : 
; 261  : 	if (c_matLocal && m_pParticleProperty->m_bAttachFlag)

  0067e	85 c9		 test	 ecx, ecx
  00680	0f 84 30 01 00
	00		 je	 $LN19@Transform
  00686	8b 46 5c	 mov	 eax, DWORD PTR [esi+92]
  00689	83 78 20 00	 cmp	 DWORD PTR [eax+32], 0
  0068d	0f 84 23 01 00
	00		 je	 $LN19@Transform

; 262  : 	{
; 263  : 		D3DXVECTOR3 v3Position;
; 264  : 		D3DXVec3TransformCoord(&v3Position, &m_v3Position, c_matLocal);

  00693	51		 push	 ecx
  00694	8d 46 0c	 lea	 eax, DWORD PTR [esi+12]
  00697	50		 push	 eax
  00698	8d 44 24 60	 lea	 eax, DWORD PTR _v3Position$13[esp+120]
  0069c	50		 push	 eax
  0069d	e8 00 00 00 00	 call	 _D3DXVec3TransformCoord@12
; File C:\Users\murat\Desktop\Siveps2-1-99-Project\source\client\extern\include\d3dx8math.inl

; 263  :     return D3DXVECTOR3(x - v.x, y - v.y, z - v.z);

  006a2	f3 0f 10 44 24
	58		 movss	 xmm0, DWORD PTR _v3Position$13[esp+112]
  006a8	f3 0f 10 64 24
	5c		 movss	 xmm4, DWORD PTR _v3Position$13[esp+116]
  006ae	0f 28 f0	 movaps	 xmm6, xmm0
  006b1	f3 0f 5c 74 24
	40		 subss	 xmm6, DWORD PTR _v3Up$[esp+112]
  006b7	f3 0f 5c 64 24
	44		 subss	 xmm4, DWORD PTR _v3Up$[esp+116]
  006bd	f3 0f 10 5c 24
	60		 movss	 xmm3, DWORD PTR _v3Position$13[esp+120]
  006c3	f3 0f 5c 5c 24
	48		 subss	 xmm3, DWORD PTR _v3Up$[esp+120]
  006c9	0f 29 44 24 30	 movaps	 XMMWORD PTR tv2880[esp+112], xmm0

; 182  :     z = fz;

  006ce	0f 28 d6	 movaps	 xmm2, xmm6
  006d1	f3 0f 58 54 24
	4c		 addss	 xmm2, DWORD PTR _v3Cross$[esp+112]
  006d7	f3 0f 5c 74 24
	4c		 subss	 xmm6, DWORD PTR _v3Cross$[esp+112]

; 180  :     x = fx;

  006dd	0f 28 cc	 movaps	 xmm1, xmm4

; 181  :     y = fy;

  006e0	0f 28 c3	 movaps	 xmm0, xmm3
  006e3	f3 0f 58 4c 24
	50		 addss	 xmm1, DWORD PTR _v3Cross$[esp+116]

; 180  :     x = fx;

  006e9	f3 0f 5c 64 24
	50		 subss	 xmm4, DWORD PTR _v3Cross$[esp+116]

; 181  :     y = fy;

  006ef	f3 0f 58 44 24
	54		 addss	 xmm0, DWORD PTR _v3Cross$[esp+120]
  006f5	f3 0f 5c 5c 24
	54		 subss	 xmm3, DWORD PTR _v3Cross$[esp+120]
; File C:\Users\murat\Desktop\Siveps2-1-99-Project\source\client\Client\EffectLib\ParticleInstance.cpp

; 265  : 		m_ParticleMesh[0].position = v3Position - v3Up + v3Cross;

  006fb	0f 14 d1	 unpcklps xmm2, xmm1
  006fe	66 0f d6 56 74	 movq	 QWORD PTR [esi+116], xmm2
; File C:\Users\murat\Desktop\Siveps2-1-99-Project\source\client\extern\include\d3dx8math.inl

; 257  :     return D3DXVECTOR3(x + v.x, y + v.y, z + v.z);

  00703	0f 28 54 24 30	 movaps	 xmm2, XMMWORD PTR tv2880[esp+112]
  00708	f3 0f 58 54 24
	40		 addss	 xmm2, DWORD PTR _v3Up$[esp+112]
; File C:\Users\murat\Desktop\Siveps2-1-99-Project\source\client\Client\EffectLib\ParticleInstance.cpp

; 266  : 		m_ParticleMesh[1].position = v3Position - v3Up - v3Cross;

  0070e	0f 14 f4	 unpcklps xmm6, xmm4
; File C:\Users\murat\Desktop\Siveps2-1-99-Project\source\client\extern\include\d3dx8math.inl

; 257  :     return D3DXVECTOR3(x + v.x, y + v.y, z + v.z);

  00711	f3 0f 10 64 24
	60		 movss	 xmm4, DWORD PTR _v3Position$13[esp+120]
  00717	f3 0f 58 64 24
	48		 addss	 xmm4, DWORD PTR _v3Up$[esp+120]
; File C:\Users\murat\Desktop\Siveps2-1-99-Project\source\client\Client\EffectLib\ParticleInstance.cpp

; 266  : 		m_ParticleMesh[1].position = v3Position - v3Up - v3Cross;

  0071d	66 0f d6 b6 88
	00 00 00	 movq	 QWORD PTR [esi+136], xmm6
; File C:\Users\murat\Desktop\Siveps2-1-99-Project\source\client\extern\include\d3dx8math.inl

; 257  :     return D3DXVECTOR3(x + v.x, y + v.y, z + v.z);

  00725	f3 0f 10 74 24
	5c		 movss	 xmm6, DWORD PTR _v3Position$13[esp+116]
  0072b	f3 0f 58 74 24
	44		 addss	 xmm6, DWORD PTR _v3Up$[esp+116]
  00731	0f 29 54 24 30	 movaps	 XMMWORD PTR tv2880[esp+112], xmm2

; 182  :     z = fz;

  00736	0f 28 6c 24 30	 movaps	 xmm5, XMMWORD PTR tv2880[esp+112]
  0073b	f3 0f 11 44 24
	24		 movss	 DWORD PTR $T9[esp+120], xmm0
  00741	0f 28 d5	 movaps	 xmm2, xmm5
; File C:\Users\murat\Desktop\Siveps2-1-99-Project\source\client\Client\EffectLib\ParticleInstance.cpp

; 265  : 		m_ParticleMesh[0].position = v3Position - v3Up + v3Cross;

  00744	8b 44 24 24	 mov	 eax, DWORD PTR $T9[esp+120]
; File C:\Users\murat\Desktop\Siveps2-1-99-Project\source\client\extern\include\d3dx8math.inl

; 181  :     y = fy;

  00748	0f 28 c4	 movaps	 xmm0, xmm4

; 182  :     z = fz;

  0074b	f3 0f 58 54 24
	4c		 addss	 xmm2, DWORD PTR _v3Cross$[esp+112]

; 181  :     y = fy;

  00751	f3 0f 58 44 24
	54		 addss	 xmm0, DWORD PTR _v3Cross$[esp+120]

; 182  :     z = fz;

  00757	f3 0f 5c 6c 24
	4c		 subss	 xmm5, DWORD PTR _v3Cross$[esp+112]

; 181  :     y = fy;

  0075d	f3 0f 5c 64 24
	54		 subss	 xmm4, DWORD PTR _v3Cross$[esp+120]

; 180  :     x = fx;

  00763	0f 28 ce	 movaps	 xmm1, xmm6
; File C:\Users\murat\Desktop\Siveps2-1-99-Project\source\client\Client\EffectLib\ParticleInstance.cpp

; 265  : 		m_ParticleMesh[0].position = v3Position - v3Up + v3Cross;

  00766	89 46 7c	 mov	 DWORD PTR [esi+124], eax
; File C:\Users\murat\Desktop\Siveps2-1-99-Project\source\client\extern\include\d3dx8math.inl

; 180  :     x = fx;

  00769	f3 0f 58 4c 24
	50		 addss	 xmm1, DWORD PTR _v3Cross$[esp+116]
  0076f	f3 0f 5c 74 24
	50		 subss	 xmm6, DWORD PTR _v3Cross$[esp+116]

; 182  :     z = fz;

  00775	f3 0f 11 5c 24
	24		 movss	 DWORD PTR $T8[esp+120], xmm3
; File C:\Users\murat\Desktop\Siveps2-1-99-Project\source\client\Client\EffectLib\ParticleInstance.cpp

; 266  : 		m_ParticleMesh[1].position = v3Position - v3Up - v3Cross;

  0077b	8b 44 24 24	 mov	 eax, DWORD PTR $T8[esp+120]
; File C:\Users\murat\Desktop\Siveps2-1-99-Project\source\client\extern\include\d3dx8math.inl

; 182  :     z = fz;

  0077f	f3 0f 11 44 24
	24		 movss	 DWORD PTR $T7[esp+120], xmm0
; File C:\Users\murat\Desktop\Siveps2-1-99-Project\source\client\Client\EffectLib\ParticleInstance.cpp

; 267  : 		m_ParticleMesh[2].position = v3Position + v3Up + v3Cross;

  00785	0f 14 d1	 unpcklps xmm2, xmm1
  00788	89 86 90 00 00
	00		 mov	 DWORD PTR [esi+144], eax
  0078e	8b 44 24 24	 mov	 eax, DWORD PTR $T7[esp+120]

; 268  : 		m_ParticleMesh[3].position = v3Position + v3Up - v3Cross;

  00792	0f 14 ee	 unpcklps xmm5, xmm6
  00795	66 0f d6 96 9c
	00 00 00	 movq	 QWORD PTR [esi+156], xmm2
  0079d	89 86 a4 00 00
	00		 mov	 DWORD PTR [esi+164], eax
; File C:\Users\murat\Desktop\Siveps2-1-99-Project\source\client\extern\include\d3dx8math.inl

; 182  :     z = fz;

  007a3	f3 0f 11 64 24
	24		 movss	 DWORD PTR $T6[esp+120], xmm4
; File C:\Users\murat\Desktop\Siveps2-1-99-Project\source\client\Client\EffectLib\ParticleInstance.cpp

; 268  : 		m_ParticleMesh[3].position = v3Position + v3Up - v3Cross;

  007a9	66 0f d6 ae b0
	00 00 00	 movq	 QWORD PTR [esi+176], xmm5

; 269  : 	}

  007b1	e9 f6 00 00 00	 jmp	 $LN169@Transform
$LN19@Transform:
; File C:\Users\murat\Desktop\Siveps2-1-99-Project\source\client\extern\include\d3dx8math.inl

; 263  :     return D3DXVECTOR3(x - v.x, y - v.y, z - v.z);

  007b6	f3 0f 10 4e 10	 movss	 xmm1, DWORD PTR [esi+16]
  007bb	f3 0f 10 5e 0c	 movss	 xmm3, DWORD PTR [esi+12]
  007c0	f3 0f 5c c8	 subss	 xmm1, xmm0
  007c4	f3 0f 10 46 14	 movss	 xmm0, DWORD PTR [esi+20]
  007c9	f3 0f 5c df	 subss	 xmm3, xmm7

; 182  :     z = fz;

  007cd	f3 0f 10 54 24
	10		 movss	 xmm2, DWORD PTR tv2751[esp+112]

; 263  :     return D3DXVECTOR3(x - v.x, y - v.y, z - v.z);

  007d3	f3 0f 5c c5	 subss	 xmm0, xmm5

; 180  :     x = fx;

  007d7	f3 0f 58 4c 24
	14		 addss	 xmm1, DWORD PTR tv2752[esp+112]

; 182  :     z = fz;

  007dd	f3 0f 58 d3	 addss	 xmm2, xmm3

; 181  :     y = fy;

  007e1	f3 0f 58 c6	 addss	 xmm0, xmm6
; File C:\Users\murat\Desktop\Siveps2-1-99-Project\source\client\Client\EffectLib\ParticleInstance.cpp

; 272  : 		m_ParticleMesh[0].position = m_v3Position - v3Up + v3Cross;

  007e5	0f 14 d1	 unpcklps xmm2, xmm1
  007e8	66 0f d6 56 74	 movq	 QWORD PTR [esi+116], xmm2
; File C:\Users\murat\Desktop\Siveps2-1-99-Project\source\client\extern\include\d3dx8math.inl

; 182  :     z = fz;

  007ed	f3 0f 10 54 24
	10		 movss	 xmm2, DWORD PTR tv2751[esp+112]
  007f3	f3 0f 11 44 24
	24		 movss	 DWORD PTR $T5[esp+120], xmm0
  007f9	f3 0f 5c da	 subss	 xmm3, xmm2
; File C:\Users\murat\Desktop\Siveps2-1-99-Project\source\client\Client\EffectLib\ParticleInstance.cpp

; 272  : 		m_ParticleMesh[0].position = m_v3Position - v3Up + v3Cross;

  007fd	8b 44 24 24	 mov	 eax, DWORD PTR $T5[esp+120]
  00801	89 46 7c	 mov	 DWORD PTR [esi+124], eax
; File C:\Users\murat\Desktop\Siveps2-1-99-Project\source\client\extern\include\d3dx8math.inl

; 263  :     return D3DXVECTOR3(x - v.x, y - v.y, z - v.z);

  00804	f3 0f 10 4e 10	 movss	 xmm1, DWORD PTR [esi+16]
  00809	f3 0f 10 46 14	 movss	 xmm0, DWORD PTR [esi+20]
  0080e	f3 0f 5c 4c 24
	18		 subss	 xmm1, DWORD PTR $T1[esp+112]
  00814	f3 0f 5c c5	 subss	 xmm0, xmm5

; 180  :     x = fx;

  00818	f3 0f 5c 4c 24
	14		 subss	 xmm1, DWORD PTR tv2752[esp+112]

; 181  :     y = fy;

  0081e	f3 0f 5c c6	 subss	 xmm0, xmm6
; File C:\Users\murat\Desktop\Siveps2-1-99-Project\source\client\Client\EffectLib\ParticleInstance.cpp

; 273  : 		m_ParticleMesh[1].position = m_v3Position - v3Up - v3Cross;

  00822	0f 14 d9	 unpcklps xmm3, xmm1
  00825	66 0f d6 9e 88
	00 00 00	 movq	 QWORD PTR [esi+136], xmm3
; File C:\Users\murat\Desktop\Siveps2-1-99-Project\source\client\extern\include\d3dx8math.inl

; 257  :     return D3DXVECTOR3(x + v.x, y + v.y, z + v.z);

  0082d	f3 0f 10 5c 24
	18		 movss	 xmm3, DWORD PTR $T1[esp+112]

; 182  :     z = fz;

  00833	f3 0f 11 44 24
	24		 movss	 DWORD PTR $T4[esp+120], xmm0

; 257  :     return D3DXVECTOR3(x + v.x, y + v.y, z + v.z);

  00839	0f 28 cb	 movaps	 xmm1, xmm3
; File C:\Users\murat\Desktop\Siveps2-1-99-Project\source\client\Client\EffectLib\ParticleInstance.cpp

; 273  : 		m_ParticleMesh[1].position = m_v3Position - v3Up - v3Cross;

  0083c	8b 44 24 24	 mov	 eax, DWORD PTR $T4[esp+120]
; File C:\Users\murat\Desktop\Siveps2-1-99-Project\source\client\extern\include\d3dx8math.inl

; 257  :     return D3DXVECTOR3(x + v.x, y + v.y, z + v.z);

  00840	0f 28 c5	 movaps	 xmm0, xmm5
; File C:\Users\murat\Desktop\Siveps2-1-99-Project\source\client\Client\EffectLib\ParticleInstance.cpp

; 273  : 		m_ParticleMesh[1].position = m_v3Position - v3Up - v3Cross;

  00843	89 86 90 00 00
	00		 mov	 DWORD PTR [esi+144], eax
; File C:\Users\murat\Desktop\Siveps2-1-99-Project\source\client\extern\include\d3dx8math.inl

; 257  :     return D3DXVECTOR3(x + v.x, y + v.y, z + v.z);

  00849	f3 0f 58 7e 0c	 addss	 xmm7, DWORD PTR [esi+12]
  0084e	f3 0f 58 4e 10	 addss	 xmm1, DWORD PTR [esi+16]
  00853	f3 0f 58 46 14	 addss	 xmm0, DWORD PTR [esi+20]

; 182  :     z = fz;

  00858	f3 0f 58 d7	 addss	 xmm2, xmm7

; 180  :     x = fx;

  0085c	f3 0f 58 4c 24
	14		 addss	 xmm1, DWORD PTR tv2752[esp+112]

; 182  :     z = fz;

  00862	f3 0f 5c 7c 24
	10		 subss	 xmm7, DWORD PTR tv2751[esp+112]

; 181  :     y = fy;

  00868	f3 0f 58 c6	 addss	 xmm0, xmm6
; File C:\Users\murat\Desktop\Siveps2-1-99-Project\source\client\Client\EffectLib\ParticleInstance.cpp

; 274  : 		m_ParticleMesh[2].position = m_v3Position + v3Up + v3Cross;

  0086c	0f 14 d1	 unpcklps xmm2, xmm1
  0086f	66 0f d6 96 9c
	00 00 00	 movq	 QWORD PTR [esi+156], xmm2
; File C:\Users\murat\Desktop\Siveps2-1-99-Project\source\client\extern\include\d3dx8math.inl

; 182  :     z = fz;

  00877	f3 0f 11 44 24
	24		 movss	 DWORD PTR $T3[esp+120], xmm0
; File C:\Users\murat\Desktop\Siveps2-1-99-Project\source\client\Client\EffectLib\ParticleInstance.cpp

; 274  : 		m_ParticleMesh[2].position = m_v3Position + v3Up + v3Cross;

  0087d	8b 44 24 24	 mov	 eax, DWORD PTR $T3[esp+120]
  00881	89 86 a4 00 00
	00		 mov	 DWORD PTR [esi+164], eax
; File C:\Users\murat\Desktop\Siveps2-1-99-Project\source\client\extern\include\d3dx8math.inl

; 257  :     return D3DXVECTOR3(x + v.x, y + v.y, z + v.z);

  00887	f3 0f 58 5e 10	 addss	 xmm3, DWORD PTR [esi+16]
  0088c	f3 0f 58 6e 14	 addss	 xmm5, DWORD PTR [esi+20]

; 180  :     x = fx;

  00891	f3 0f 5c 5c 24
	14		 subss	 xmm3, DWORD PTR tv2752[esp+112]

; 181  :     y = fy;

  00897	f3 0f 5c ee	 subss	 xmm5, xmm6
; File C:\Users\murat\Desktop\Siveps2-1-99-Project\source\client\Client\EffectLib\ParticleInstance.cpp

; 275  : 		m_ParticleMesh[3].position = m_v3Position + v3Up - v3Cross;

  0089b	0f 14 fb	 unpcklps xmm7, xmm3
; File C:\Users\murat\Desktop\Siveps2-1-99-Project\source\client\extern\include\d3dx8math.inl

; 182  :     z = fz;

  0089e	f3 0f 11 6c 24
	24		 movss	 DWORD PTR $T2[esp+120], xmm5
; File C:\Users\murat\Desktop\Siveps2-1-99-Project\source\client\Client\EffectLib\ParticleInstance.cpp

; 275  : 		m_ParticleMesh[3].position = m_v3Position + v3Up - v3Cross;

  008a4	66 0f d6 be b0
	00 00 00	 movq	 QWORD PTR [esi+176], xmm7
$LN169@Transform:

; 276  : 	}
; 277  : }

  008ac	8b 44 24 24	 mov	 eax, DWORD PTR $T2[esp+120]
  008b0	8b 4c 24 6c	 mov	 ecx, DWORD PTR __$ArrayPad$[esp+112]
  008b4	5f		 pop	 edi
  008b5	89 86 b8 00 00
	00		 mov	 DWORD PTR [esi+184], eax
  008bb	5e		 pop	 esi
  008bc	33 cc		 xor	 ecx, esp
  008be	e8 00 00 00 00	 call	 @__security_check_cookie@4
  008c3	8b e5		 mov	 esp, ebp
  008c5	5d		 pop	 ebp
  008c6	c2 04 00	 ret	 4
  008c9	0f 1f 00	 npad	 3
$LN162@Transform:
  008cc	00 00 00 00	 DD	 $LN12@Transform
  008d0	00 00 00 00	 DD	 $LN7@Transform
  008d4	00 00 00 00	 DD	 $LN6@Transform
  008d8	00 00 00 00	 DD	 $LN7@Transform
  008dc	00 00 00 00	 DD	 $LN7@Transform
?Transform@CParticleInstance@@QAEXPBUD3DXMATRIX@@@Z ENDP ; CParticleInstance::Transform
_TEXT	ENDS
; Function compile flags: /Ogtp
; File C:\Users\murat\Desktop\Siveps2-1-99-Project\source\client\Client\EffectLib\ParticleInstance.cpp
; File C:\Program Files (x86)\Microsoft Visual Studio\2019\Professional\VC\Tools\MSVC\14.29.30133\include\algorithm
; File C:\Users\murat\Desktop\Siveps2-1-99-Project\source\client\Client\EffectLib\ParticleInstance.cpp
; File C:\Program Files (x86)\Microsoft Visual Studio\2019\Professional\VC\Tools\MSVC\14.29.30133\include\algorithm
; File C:\Users\murat\Desktop\Siveps2-1-99-Project\source\client\Client\eterLib\Pool.h
; File C:\Program Files (x86)\Microsoft Visual Studio\2019\Professional\VC\Tools\MSVC\14.29.30133\include\algorithm
; File C:\Users\murat\Desktop\Siveps2-1-99-Project\source\client\Client\eterLib\Pool.h
; File C:\Users\murat\Desktop\Siveps2-1-99-Project\source\client\Client\EffectLib\ParticleInstance.cpp
; File C:\Users\murat\Desktop\Siveps2-1-99-Project\source\client\Client\eterLib\Pool.h
; File C:\Users\murat\Desktop\Siveps2-1-99-Project\source\client\Client\EffectLib\ParticleInstance.cpp
;	COMDAT ?DestroySystem@CParticleInstance@@SAXXZ
_TEXT	SEGMENT
?DestroySystem@CParticleInstance@@SAXXZ PROC		; CParticleInstance::DestroySystem, COMDAT

; 14   : {

  00000	53		 push	 ebx
; File C:\Program Files (x86)\Microsoft Visual Studio\2019\Professional\VC\Tools\MSVC\14.29.30133\include\algorithm

; 269  :     const auto _ULast = _Get_unwrapped(_Last);

  00001	8b 1d 08 00 00
	00		 mov	 ebx, DWORD PTR ?ms_kPool@CParticleInstance@@2V?$CDynamicPool@VCParticleInstance@@@@A+8
; File C:\Users\murat\Desktop\Siveps2-1-99-Project\source\client\Client\EffectLib\ParticleInstance.cpp

; 14   : {

  00007	56		 push	 esi
; File C:\Program Files (x86)\Microsoft Visual Studio\2019\Professional\VC\Tools\MSVC\14.29.30133\include\algorithm

; 270  :     for (; _UFirst != _ULast; ++_UFirst) {

  00008	8b 35 04 00 00
	00		 mov	 esi, DWORD PTR ?ms_kPool@CParticleInstance@@2V?$CDynamicPool@VCParticleInstance@@@@A+4
  0000e	3b f3		 cmp	 esi, ebx
  00010	74 3b		 je	 SHORT $LN33@DestroySys
  00012	57		 push	 edi
$LL20@DestroySys:
; File C:\Users\murat\Desktop\Siveps2-1-99-Project\source\client\Client\eterLib\Pool.h

; 110  : 			delete pkData;

  00013	8b 3e		 mov	 edi, DWORD PTR [esi]
  00015	85 ff		 test	 edi, edi
  00017	74 15		 je	 SHORT $LN18@DestroySys
  00019	8b cf		 mov	 ecx, edi
  0001b	e8 00 00 00 00	 call	 ??1CParticleInstance@@QAE@XZ ; CParticleInstance::~CParticleInstance
  00020	68 c4 00 00 00	 push	 196			; 000000c4H
  00025	57		 push	 edi
  00026	e8 00 00 00 00	 call	 ??3@YAXPAXI@Z		; operator delete
  0002b	83 c4 08	 add	 esp, 8
$LN18@DestroySys:
; File C:\Program Files (x86)\Microsoft Visual Studio\2019\Professional\VC\Tools\MSVC\14.29.30133\include\algorithm

; 270  :     for (; _UFirst != _ULast; ++_UFirst) {

  0002e	83 c6 04	 add	 esi, 4
  00031	3b f3		 cmp	 esi, ebx
  00033	75 de		 jne	 SHORT $LL20@DestroySys
; File C:\Users\murat\Desktop\Siveps2-1-99-Project\source\client\Client\eterLib\Pool.h

; 52   : 			m_kVct_pkFree.clear();

  00035	a1 04 00 00 00	 mov	 eax, DWORD PTR ?ms_kPool@CParticleInstance@@2V?$CDynamicPool@VCParticleInstance@@@@A+4
  0003a	5f		 pop	 edi
  0003b	a3 08 00 00 00	 mov	 DWORD PTR ?ms_kPool@CParticleInstance@@2V?$CDynamicPool@VCParticleInstance@@@@A+8, eax
; File C:\Users\murat\Desktop\Siveps2-1-99-Project\source\client\Client\EffectLib\ParticleInstance.cpp

; 16   : }

  00040	a1 10 00 00 00	 mov	 eax, DWORD PTR ?ms_kPool@CParticleInstance@@2V?$CDynamicPool@VCParticleInstance@@@@A+16
  00045	5e		 pop	 esi
  00046	a3 14 00 00 00	 mov	 DWORD PTR ?ms_kPool@CParticleInstance@@2V?$CDynamicPool@VCParticleInstance@@@@A+20, eax
  0004b	5b		 pop	 ebx
  0004c	c3		 ret	 0
$LN33@DestroySys:
  0004d	a1 10 00 00 00	 mov	 eax, DWORD PTR ?ms_kPool@CParticleInstance@@2V?$CDynamicPool@VCParticleInstance@@@@A+16
; File C:\Users\murat\Desktop\Siveps2-1-99-Project\source\client\Client\eterLib\Pool.h

; 51   : 			m_kVct_pkData.clear();

  00052	89 35 08 00 00
	00		 mov	 DWORD PTR ?ms_kPool@CParticleInstance@@2V?$CDynamicPool@VCParticleInstance@@@@A+8, esi
  00058	5e		 pop	 esi
; File C:\Users\murat\Desktop\Siveps2-1-99-Project\source\client\Client\EffectLib\ParticleInstance.cpp

; 16   : }

  00059	a3 14 00 00 00	 mov	 DWORD PTR ?ms_kPool@CParticleInstance@@2V?$CDynamicPool@VCParticleInstance@@@@A+20, eax
  0005e	5b		 pop	 ebx
  0005f	c3		 ret	 0
?DestroySystem@CParticleInstance@@SAXXZ ENDP		; CParticleInstance::DestroySystem
_TEXT	ENDS
; Function compile flags: /Ogtp
; File C:\Users\murat\Desktop\Siveps2-1-99-Project\source\client\Client\EffectLib\ParticleInstance.cpp
; File C:\Program Files (x86)\Microsoft Visual Studio\2019\Professional\VC\Tools\MSVC\14.29.30133\include\vector
; File C:\Users\murat\Desktop\Siveps2-1-99-Project\source\client\Client\eterLib\Pool.h
; File C:\Program Files (x86)\Microsoft Visual Studio\2019\Professional\VC\Tools\MSVC\14.29.30133\include\vector
; File C:\Users\murat\Desktop\Siveps2-1-99-Project\source\client\Client\eterLib\Pool.h
; File C:\Program Files (x86)\Microsoft Visual Studio\2019\Professional\VC\Tools\MSVC\14.29.30133\include\vector
; File C:\Users\murat\Desktop\Siveps2-1-99-Project\source\client\Client\EffectLib\ParticleInstance.cpp
; File C:\Program Files (x86)\Microsoft Visual Studio\2019\Professional\VC\Tools\MSVC\14.29.30133\include\vector
; File C:\Users\murat\Desktop\Siveps2-1-99-Project\source\client\Client\eterLib\Pool.h
; File C:\Users\murat\Desktop\Siveps2-1-99-Project\source\client\Client\EffectLib\ParticleInstance.cpp
; File C:\Program Files (x86)\Microsoft Visual Studio\2019\Professional\VC\Tools\MSVC\14.29.30133\include\vector
; File C:\Users\murat\Desktop\Siveps2-1-99-Project\source\client\Client\eterLib\Pool.h
; File C:\Users\murat\Desktop\Siveps2-1-99-Project\source\client\Client\EffectLib\ParticleInstance.cpp
; File C:\Users\murat\Desktop\Siveps2-1-99-Project\source\client\Client\eterLib\Pool.h
; File C:\Program Files (x86)\Microsoft Visual Studio\2019\Professional\VC\Tools\MSVC\14.29.30133\include\vector
; File C:\Users\murat\Desktop\Siveps2-1-99-Project\source\client\Client\EffectLib\ParticleInstance.cpp
;	COMDAT ?New@CParticleInstance@@SAPAV1@XZ
_TEXT	SEGMENT
$T1 = -4						; size = 4
_pkNewData$2 = -4					; size = 4
?New@CParticleInstance@@SAPAV1@XZ PROC			; CParticleInstance::New, COMDAT

; 19   : {

  00000	55		 push	 ebp
  00001	8b ec		 mov	 ebp, esp
  00003	51		 push	 ecx
; File C:\Program Files (x86)\Microsoft Visual Studio\2019\Professional\VC\Tools\MSVC\14.29.30133\include\vector

; 1544 :         return _My_data._Myfirst == _My_data._Mylast;

  00004	8b 0d 14 00 00
	00		 mov	 ecx, DWORD PTR ?ms_kPool@CParticleInstance@@2V?$CDynamicPool@VCParticleInstance@@@@A+20
  0000a	39 0d 10 00 00
	00		 cmp	 DWORD PTR ?ms_kPool@CParticleInstance@@2V?$CDynamicPool@VCParticleInstance@@@@A+16, ecx
; File C:\Users\murat\Desktop\Siveps2-1-99-Project\source\client\Client\eterLib\Pool.h

; 63   : 			if (m_kVct_pkFree.empty())

  00010	75 64		 jne	 SHORT $LN4@New

; 65   : 				T* pkNewData=new T;

  00012	56		 push	 esi
  00013	68 c4 00 00 00	 push	 196			; 000000c4H
  00018	e8 00 00 00 00	 call	 ??2@YAPAXI@Z		; operator new
  0001d	83 c4 04	 add	 esp, 4
  00020	89 45 fc	 mov	 DWORD PTR $T1[ebp], eax
  00023	85 c0		 test	 eax, eax
  00025	74 0b		 je	 SHORT $LN6@New
  00027	8b c8		 mov	 ecx, eax
  00029	e8 00 00 00 00	 call	 ??0CParticleInstance@@QAE@XZ ; CParticleInstance::CParticleInstance
  0002e	8b f0		 mov	 esi, eax
  00030	eb 02		 jmp	 SHORT $LN7@New
$LN6@New:
  00032	33 f6		 xor	 esi, esi
$LN7@New:
; File C:\Program Files (x86)\Microsoft Visual Studio\2019\Professional\VC\Tools\MSVC\14.29.30133\include\vector

; 743  :         if (_Mylast != _My_data._Myend) {

  00034	a1 08 00 00 00	 mov	 eax, DWORD PTR ?ms_kPool@CParticleInstance@@2V?$CDynamicPool@VCParticleInstance@@@@A+8
; File C:\Users\murat\Desktop\Siveps2-1-99-Project\source\client\Client\eterLib\Pool.h

; 65   : 				T* pkNewData=new T;

  00039	89 75 fc	 mov	 DWORD PTR _pkNewData$2[ebp], esi
; File C:\Program Files (x86)\Microsoft Visual Studio\2019\Professional\VC\Tools\MSVC\14.29.30133\include\vector

; 743  :         if (_Mylast != _My_data._Myend) {

  0003c	3b 05 0c 00 00
	00		 cmp	 eax, DWORD PTR ?ms_kPool@CParticleInstance@@2V?$CDynamicPool@VCParticleInstance@@@@A+12
  00042	74 16		 je	 SHORT $LN14@New

; 726  :         _Alty_traits::construct(_Getal(), _Unfancy(_Mylast), _STD forward<_Valty>(_Val)...);

  00044	89 30		 mov	 DWORD PTR [eax], esi
; File C:\Users\murat\Desktop\Siveps2-1-99-Project\source\client\Client\EffectLib\ParticleInstance.cpp

; 20   : 	return ms_kPool.Alloc();

  00046	8b c6		 mov	 eax, esi
; File C:\Program Files (x86)\Microsoft Visual Studio\2019\Professional\VC\Tools\MSVC\14.29.30133\include\vector

; 729  :         ++_Mylast;

  00048	83 05 08 00 00
	00 04		 add	 DWORD PTR ?ms_kPool@CParticleInstance@@2V?$CDynamicPool@VCParticleInstance@@@@A+8, 4
; File C:\Users\murat\Desktop\Siveps2-1-99-Project\source\client\Client\eterLib\Pool.h

; 67   : 				++m_uUsedCapacity;

  0004f	ff 05 20 00 00
	00		 inc	 DWORD PTR ?ms_kPool@CParticleInstance@@2V?$CDynamicPool@VCParticleInstance@@@@A+32
; File C:\Users\murat\Desktop\Siveps2-1-99-Project\source\client\Client\EffectLib\ParticleInstance.cpp

; 20   : 	return ms_kPool.Alloc();

  00055	5e		 pop	 esi

; 21   : }

  00056	8b e5		 mov	 esp, ebp
  00058	5d		 pop	 ebp
  00059	c3		 ret	 0
$LN14@New:
; File C:\Program Files (x86)\Microsoft Visual Studio\2019\Professional\VC\Tools\MSVC\14.29.30133\include\vector

; 747  :         _Ty& _Result = *_Emplace_reallocate(_Mylast, _STD forward<_Valty>(_Val)...);

  0005a	8d 4d fc	 lea	 ecx, DWORD PTR _pkNewData$2[ebp]
  0005d	51		 push	 ecx
  0005e	50		 push	 eax
  0005f	b9 04 00 00 00	 mov	 ecx, OFFSET ?ms_kPool@CParticleInstance@@2V?$CDynamicPool@VCParticleInstance@@@@A+4
  00064	e8 00 00 00 00	 call	 ??$_Emplace_reallocate@ABQAVCParticleInstance@@@?$vector@PAVCParticleInstance@@V?$allocator@PAVCParticleInstance@@@std@@@std@@QAEPAPAVCParticleInstance@@QAPAV2@ABQAV2@@Z ; std::vector<CParticleInstance *,std::allocator<CParticleInstance *> >::_Emplace_reallocate<CParticleInstance * const &>
; File C:\Users\murat\Desktop\Siveps2-1-99-Project\source\client\Client\eterLib\Pool.h

; 67   : 				++m_uUsedCapacity;

  00069	ff 05 20 00 00
	00		 inc	 DWORD PTR ?ms_kPool@CParticleInstance@@2V?$CDynamicPool@VCParticleInstance@@@@A+32
; File C:\Users\murat\Desktop\Siveps2-1-99-Project\source\client\Client\EffectLib\ParticleInstance.cpp

; 20   : 	return ms_kPool.Alloc();

  0006f	8b c6		 mov	 eax, esi
  00071	5e		 pop	 esi

; 21   : }

  00072	8b e5		 mov	 esp, ebp
  00074	5d		 pop	 ebp
  00075	c3		 ret	 0
$LN4@New:
; File C:\Users\murat\Desktop\Siveps2-1-99-Project\source\client\Client\eterLib\Pool.h

; 71   : 			T* pkFreeData=m_kVct_pkFree.back();

  00076	8b 41 fc	 mov	 eax, DWORD PTR [ecx-4]
; File C:\Program Files (x86)\Microsoft Visual Studio\2019\Professional\VC\Tools\MSVC\14.29.30133\include\vector

; 1624 :         return _My_data._Mylast[-1];

  00079	83 c1 fc	 add	 ecx, -4			; fffffffcH

; 1403 :         --_Mylast;

  0007c	89 0d 14 00 00
	00		 mov	 DWORD PTR ?ms_kPool@CParticleInstance@@2V?$CDynamicPool@VCParticleInstance@@@@A+20, ecx
; File C:\Users\murat\Desktop\Siveps2-1-99-Project\source\client\Client\EffectLib\ParticleInstance.cpp

; 21   : }

  00082	8b e5		 mov	 esp, ebp
  00084	5d		 pop	 ebp
  00085	c3		 ret	 0
?New@CParticleInstance@@SAPAV1@XZ ENDP			; CParticleInstance::New
_TEXT	ENDS
; Function compile flags: /Ogtp
; File C:\Users\murat\Desktop\Siveps2-1-99-Project\source\client\Client\EffectLib\ParticleInstance.cpp
; File C:\Users\murat\Desktop\Siveps2-1-99-Project\source\client\Client\EffectLib\EffectUpdateDecorator.h
; File C:\Users\murat\Desktop\Siveps2-1-99-Project\source\client\Client\EffectLib\ParticleInstance.cpp
; File C:\Users\murat\Desktop\Siveps2-1-99-Project\source\client\Client\EffectLib\EffectUpdateDecorator.h
; File C:\Users\murat\Desktop\Siveps2-1-99-Project\source\client\Client\EffectLib\ParticleInstance.cpp
; File C:\Users\murat\Desktop\Siveps2-1-99-Project\source\client\extern\include\d3dx8math.inl
; File C:\Users\murat\Desktop\Siveps2-1-99-Project\source\client\Client\EffectLib\ParticleInstance.cpp
; File C:\Users\murat\Desktop\Siveps2-1-99-Project\source\client\extern\include\d3dx8math.inl
; File C:\Users\murat\Desktop\Siveps2-1-99-Project\source\client\Client\EffectLib\ParticleInstance.cpp
; File C:\Users\murat\Desktop\Siveps2-1-99-Project\source\client\extern\include\d3dx8math.inl
; File C:\Users\murat\Desktop\Siveps2-1-99-Project\source\client\Client\EffectLib\ParticleInstance.cpp
; File C:\Program Files (x86)\Windows Kits\10\Include\10.0.19041.0\ucrt\corecrt_math.h
; File C:\Users\murat\Desktop\Siveps2-1-99-Project\source\client\Client\EffectLib\ParticleInstance.cpp
; File C:\Program Files (x86)\Windows Kits\10\Include\10.0.19041.0\ucrt\corecrt_math.h
; File C:\Users\murat\Desktop\Siveps2-1-99-Project\source\client\Client\EffectLib\ParticleInstance.cpp
; File C:\Program Files (x86)\Windows Kits\10\Include\10.0.19041.0\ucrt\corecrt_math.h
; File C:\Users\murat\Desktop\Siveps2-1-99-Project\source\client\Client\EffectLib\ParticleInstance.cpp
; File C:\Users\murat\Desktop\Siveps2-1-99-Project\source\client\extern\include\d3dx8math.inl
; File C:\Users\murat\Desktop\Siveps2-1-99-Project\source\client\Client\EffectLib\ParticleInstance.cpp
; File C:\Users\murat\Desktop\Siveps2-1-99-Project\source\client\extern\include\d3dx8math.inl
; File C:\Users\murat\Desktop\Siveps2-1-99-Project\source\client\Client\EffectLib\ParticleInstance.cpp
; File C:\Users\murat\Desktop\Siveps2-1-99-Project\source\client\extern\include\d3dx8math.inl
; File C:\Users\murat\Desktop\Siveps2-1-99-Project\source\client\Client\EffectLib\ParticleInstance.cpp
; File C:\Users\murat\Desktop\Siveps2-1-99-Project\source\client\extern\include\d3dx8math.inl
; File C:\Users\murat\Desktop\Siveps2-1-99-Project\source\client\Client\EffectLib\ParticleInstance.cpp
; File C:\Users\murat\Desktop\Siveps2-1-99-Project\source\client\extern\include\d3dx8math.inl
; File C:\Users\murat\Desktop\Siveps2-1-99-Project\source\client\Client\EffectLib\ParticleInstance.cpp
; File C:\Users\murat\Desktop\Siveps2-1-99-Project\source\client\extern\include\d3dx8math.inl
; File C:\Users\murat\Desktop\Siveps2-1-99-Project\source\client\Client\EffectLib\ParticleInstance.cpp
;	COMDAT ?Update@CParticleInstance@@QAEHMM@Z
_TEXT	SEGMENT
_qc$1 = -52						; size = 16
_q$2 = -36						; size = 16
_qr$3 = -20						; size = 16
$T4 = -16						; size = 12
_fCos$1$ = -4						; size = 4
_rx$1$ = 8						; size = 4
_fElapsedTime$ = 8					; size = 4
_fAngle$ = 12						; size = 4
?Update@CParticleInstance@@QAEHMM@Z PROC		; CParticleInstance::Update, COMDAT
; _this$ = ecx

; 72   : {

  00000	55		 push	 ebp
  00001	8b ec		 mov	 ebp, esp

; 73   : 	m_fLastLifeTime -= fElapsedTime;

  00003	f3 0f 10 5d 08	 movss	 xmm3, DWORD PTR _fElapsedTime$[ebp]
  00008	83 ec 34	 sub	 esp, 52			; 00000034H
  0000b	0f 57 c0	 xorps	 xmm0, xmm0
  0000e	57		 push	 edi
  0000f	8b f9		 mov	 edi, ecx
  00011	f3 0f 10 57 58	 movss	 xmm2, DWORD PTR [edi+88]
  00016	f3 0f 5c d3	 subss	 xmm2, xmm3

; 74   : 	if (m_fLastLifeTime < 0.0f)

  0001a	0f 2f c2	 comiss	 xmm0, xmm2
  0001d	f3 0f 11 57 58	 movss	 DWORD PTR [edi+88], xmm2
  00022	76 09		 jbe	 SHORT $LN2@Update

; 75   : 		return FALSE;

  00024	33 c0		 xor	 eax, eax
  00026	5f		 pop	 edi

; 122  : }

  00027	8b e5		 mov	 esp, ebp
  00029	5d		 pop	 ebp
  0002a	c2 08 00	 ret	 8
$LN2@Update:

; 77   : 	float fLifePercentage = (m_fLifeTime - m_fLastLifeTime) / m_fLifeTime;

  0002d	f3 0f 10 47 54	 movss	 xmm0, DWORD PTR [edi+84]
  00032	f3 0f 5c c2	 subss	 xmm0, xmm2
; File C:\Users\murat\Desktop\Siveps2-1-99-Project\source\client\Client\EffectLib\EffectUpdateDecorator.h

; 29   : 			CBaseDecorator* pd = this;

  00036	8b 4f 70	 mov	 ecx, DWORD PTR [edi+112]

; 17   : 			: fTime(fTime), fElapsedTime(fElapsedTime), pInstance(pInstance)

  00039	f3 0f 11 5d f4	 movss	 DWORD PTR $T4[ebp+4], xmm3
  0003e	89 7d f8	 mov	 DWORD PTR $T4[ebp+8], edi
; File C:\Users\murat\Desktop\Siveps2-1-99-Project\source\client\Client\EffectLib\ParticleInstance.cpp

; 77   : 	float fLifePercentage = (m_fLifeTime - m_fLastLifeTime) / m_fLifeTime;

  00041	f3 0f 5e 47 54	 divss	 xmm0, DWORD PTR [edi+84]
; File C:\Users\murat\Desktop\Siveps2-1-99-Project\source\client\Client\EffectLib\EffectUpdateDecorator.h

; 17   : 			: fTime(fTime), fElapsedTime(fElapsedTime), pInstance(pInstance)

  00046	f3 0f 11 45 f0	 movss	 DWORD PTR $T4[ebp], xmm0

; 30   : 			while(pd)

  0004b	85 c9		 test	 ecx, ecx
  0004d	74 19		 je	 SHORT $LN11@Update
  0004f	56		 push	 esi
$LL10@Update:

; 31   : 			{
; 32   : 				CBaseDecorator* pNextDecorator = pd->m_NextDecorator;
; 33   : 				pd->__Excute(d);

  00050	8b 01		 mov	 eax, DWORD PTR [ecx]
  00052	8d 55 f0	 lea	 edx, DWORD PTR $T4[ebp]
  00055	8b 71 04	 mov	 esi, DWORD PTR [ecx+4]
  00058	52		 push	 edx
  00059	ff 50 04	 call	 DWORD PTR [eax+4]

; 34   : 				pd = pNextDecorator;

  0005c	8b ce		 mov	 ecx, esi
  0005e	85 f6		 test	 esi, esi
  00060	75 ee		 jne	 SHORT $LL10@Update
  00062	f3 0f 10 5d 08	 movss	 xmm3, DWORD PTR _fElapsedTime$[ebp]
  00067	5e		 pop	 esi
$LN11@Update:
; File C:\Users\murat\Desktop\Siveps2-1-99-Project\source\client\Client\EffectLib\ParticleInstance.cpp

; 81   : 	m_v3LastPosition = m_v3Position;

  00068	f3 0f 7e 47 0c	 movq	 xmm0, QWORD PTR [edi+12]
; File C:\Users\murat\Desktop\Siveps2-1-99-Project\source\client\extern\include\d3dx8math.inl

; 269  :     return D3DXVECTOR3(x * f, y * f, z * f);

  0006d	0f 28 d3	 movaps	 xmm2, xmm3
; File C:\Users\murat\Desktop\Siveps2-1-99-Project\source\client\Client\EffectLib\ParticleInstance.cpp

; 81   : 	m_v3LastPosition = m_v3Position;

  00070	8b 47 14	 mov	 eax, DWORD PTR [edi+20]
  00073	66 0f d6 47 18	 movq	 QWORD PTR [edi+24], xmm0
  00078	89 47 20	 mov	 DWORD PTR [edi+32], eax
; File C:\Users\murat\Desktop\Siveps2-1-99-Project\source\client\extern\include\d3dx8math.inl

; 269  :     return D3DXVECTOR3(x * f, y * f, z * f);

  0007b	f3 0f 10 47 28	 movss	 xmm0, DWORD PTR [edi+40]
  00080	f3 0f 10 4f 2c	 movss	 xmm1, DWORD PTR [edi+44]
  00085	f3 0f 59 57 24	 mulss	 xmm2, DWORD PTR [edi+36]
  0008a	f3 0f 59 c3	 mulss	 xmm0, xmm3

; 204  :     x += v.x;

  0008e	f3 0f 58 57 0c	 addss	 xmm2, DWORD PTR [edi+12]

; 269  :     return D3DXVECTOR3(x * f, y * f, z * f);

  00093	f3 0f 59 cb	 mulss	 xmm1, xmm3

; 205  :     y += v.y;

  00097	f3 0f 58 47 10	 addss	 xmm0, DWORD PTR [edi+16]

; 206  :     z += v.z;

  0009c	f3 0f 58 4f 14	 addss	 xmm1, DWORD PTR [edi+20]
  000a1	f3 0f 11 55 08	 movss	 DWORD PTR _rx$1$[ebp], xmm2
  000a6	f3 0f 11 57 0c	 movss	 DWORD PTR [edi+12], xmm2
  000ab	f3 0f 11 47 10	 movss	 DWORD PTR [edi+16], xmm0
; File C:\Users\murat\Desktop\Siveps2-1-99-Project\source\client\Client\EffectLib\ParticleInstance.cpp

; 84   : 	if (fAngle)

  000b0	f3 0f 10 45 0c	 movss	 xmm0, DWORD PTR _fAngle$[ebp]
  000b5	0f 2e 05 00 00
	00 00		 ucomiss xmm0, DWORD PTR __real@00000000
; File C:\Users\murat\Desktop\Siveps2-1-99-Project\source\client\extern\include\d3dx8math.inl

; 206  :     z += v.z;

  000bc	f3 0f 11 4f 14	 movss	 DWORD PTR [edi+20], xmm1
; File C:\Users\murat\Desktop\Siveps2-1-99-Project\source\client\Client\EffectLib\ParticleInstance.cpp

; 84   : 	if (fAngle)

  000c1	9f		 lahf
  000c2	f6 c4 44	 test	 ah, 68			; 00000044H
  000c5	0f 8b 75 01 00
	00		 jnp	 $LN5@Update

; 85   : 	{
; 86   : 		if (m_pParticleProperty->m_bAttachFlag)

  000cb	8b 47 5c	 mov	 eax, DWORD PTR [edi+92]
  000ce	f3 0f 59 05 00
	00 00 00	 mulss	 xmm0, DWORD PTR __real@3c8efa35
  000d6	83 78 20 00	 cmp	 DWORD PTR [eax+32], 0
  000da	f3 0f 11 45 0c	 movss	 DWORD PTR _fAngle$[ebp], xmm0
  000df	74 77		 je	 SHORT $LN4@Update
; File C:\Program Files (x86)\Windows Kits\10\Include\10.0.19041.0\ucrt\corecrt_math.h

; 647  :             return (float)cos(_X);

  000e1	0f 5a c0	 cvtps2pd xmm0, xmm0
  000e4	e8 00 00 00 00	 call	 __libm_sse2_cos_precise

; 748  :             return (float)sin(_X);

  000e9	f3 0f 10 4d 0c	 movss	 xmm1, DWORD PTR _fAngle$[ebp]

; 647  :             return (float)cos(_X);

  000ee	f2 0f 5a c0	 cvtsd2ss xmm0, xmm0
  000f2	f3 0f 11 45 fc	 movss	 DWORD PTR _fCos$1$[ebp], xmm0

; 748  :             return (float)sin(_X);

  000f7	0f 5a c1	 cvtps2pd xmm0, xmm1
  000fa	e8 00 00 00 00	 call	 __libm_sse2_sin_precise
; File C:\Users\murat\Desktop\Siveps2-1-99-Project\source\client\Client\EffectLib\ParticleInstance.cpp

; 94   : 			float ry = m_v3Position.y - m_v3StartPosition.y;

  000ff	f3 0f 10 5f 10	 movss	 xmm3, DWORD PTR [edi+16]
; File C:\Program Files (x86)\Windows Kits\10\Include\10.0.19041.0\ucrt\corecrt_math.h

; 748  :             return (float)sin(_X);

  00104	0f 57 ed	 xorps	 xmm5, xmm5
; File C:\Users\murat\Desktop\Siveps2-1-99-Project\source\client\Client\EffectLib\ParticleInstance.cpp

; 94   : 			float ry = m_v3Position.y - m_v3StartPosition.y;

  00107	f3 0f 5c 5f 04	 subss	 xmm3, DWORD PTR [edi+4]
  0010c	f3 0f 10 7d 08	 movss	 xmm7, DWORD PTR _rx$1$[ebp]

; 121  : 	return TRUE;

  00111	b8 01 00 00 00	 mov	 eax, 1
  00116	f3 0f 5c 3f	 subss	 xmm7, DWORD PTR [edi]
; File C:\Program Files (x86)\Windows Kits\10\Include\10.0.19041.0\ucrt\corecrt_math.h

; 748  :             return (float)sin(_X);

  0011a	f2 0f 5a e8	 cvtsd2ss xmm5, xmm0
; File C:\Users\murat\Desktop\Siveps2-1-99-Project\source\client\Client\EffectLib\ParticleInstance.cpp

; 96   : 			m_v3Position.x =   fCos * rx + fSin * ry + m_v3StartPosition.x;

  0011e	0f 28 cb	 movaps	 xmm1, xmm3

; 97   : 			m_v3Position.y = - fSin * rx + fCos * ry + m_v3StartPosition.y;

  00121	f3 0f 59 5d fc	 mulss	 xmm3, DWORD PTR _fCos$1$[ebp]
  00126	0f 28 c7	 movaps	 xmm0, xmm7
  00129	f3 0f 59 cd	 mulss	 xmm1, xmm5
  0012d	f3 0f 59 45 fc	 mulss	 xmm0, DWORD PTR _fCos$1$[ebp]
  00132	f3 0f 59 fd	 mulss	 xmm7, xmm5
  00136	f3 0f 58 c8	 addss	 xmm1, xmm0
  0013a	f3 0f 5c df	 subss	 xmm3, xmm7
  0013e	f3 0f 58 0f	 addss	 xmm1, DWORD PTR [edi]
  00142	f3 0f 58 5f 04	 addss	 xmm3, DWORD PTR [edi+4]
  00147	f3 0f 11 4f 0c	 movss	 DWORD PTR [edi+12], xmm1
  0014c	f3 0f 11 5f 10	 movss	 DWORD PTR [edi+16], xmm3
  00151	5f		 pop	 edi

; 122  : }

  00152	8b e5		 mov	 esp, ebp
  00154	5d		 pop	 ebp
  00155	c2 08 00	 ret	 8
$LN4@Update:

; 98   : 		}
; 99   : 		else
; 100  : 		{
; 101  : 			D3DXQUATERNION q,qc;
; 102  : 			D3DXQuaternionRotationAxis(&q,&m_pParticleProperty->m_v3ZAxis,D3DXToRadian(fAngle));

  00158	51		 push	 ecx
  00159	83 c0 7c	 add	 eax, 124		; 0000007cH
  0015c	f3 0f 11 04 24	 movss	 DWORD PTR [esp], xmm0
  00161	50		 push	 eax
  00162	8d 45 dc	 lea	 eax, DWORD PTR _q$2[ebp]
  00165	50		 push	 eax
  00166	e8 00 00 00 00	 call	 _D3DXQuaternionRotationAxis@12
; File C:\Users\murat\Desktop\Siveps2-1-99-Project\source\client\extern\include\d3dx8math.inl

; 1616 :     pOut->x = -pQ->x;

  0016b	f3 0f 10 0d 00
	00 00 00	 movss	 xmm1, DWORD PTR __xmm@80000000800000008000000080000000
; File C:\Users\murat\Desktop\Siveps2-1-99-Project\source\client\Client\EffectLib\ParticleInstance.cpp

; 110  : 			D3DXQuaternionMultiply(&qr,&q,&qr);

  00173	8d 45 ec	 lea	 eax, DWORD PTR _qr$3[ebp]
; File C:\Users\murat\Desktop\Siveps2-1-99-Project\source\client\extern\include\d3dx8math.inl

; 1616 :     pOut->x = -pQ->x;

  00176	f3 0f 10 45 dc	 movss	 xmm0, DWORD PTR _q$2[ebp]
  0017b	0f 57 c1	 xorps	 xmm0, xmm1

; 670  :     w = fw;

  0017e	c7 45 f8 00 00
	00 00		 mov	 DWORD PTR _qr$3[ebp+12], 0

; 1616 :     pOut->x = -pQ->x;

  00185	f3 0f 11 45 cc	 movss	 DWORD PTR _qc$1[ebp], xmm0

; 1617 :     pOut->y = -pQ->y;

  0018a	f3 0f 10 45 e0	 movss	 xmm0, DWORD PTR _q$2[ebp+4]
  0018f	0f 57 c1	 xorps	 xmm0, xmm1
  00192	f3 0f 11 45 d0	 movss	 DWORD PTR _qc$1[ebp+4], xmm0

; 1618 :     pOut->z = -pQ->z;

  00197	f3 0f 10 45 e4	 movss	 xmm0, DWORD PTR _q$2[ebp+8]
  0019c	0f 57 c1	 xorps	 xmm0, xmm1
  0019f	f3 0f 11 45 d4	 movss	 DWORD PTR _qc$1[ebp+8], xmm0

; 1619 :     pOut->w =  pQ->w;

  001a4	f3 0f 10 45 e8	 movss	 xmm0, DWORD PTR _q$2[ebp+12]
  001a9	f3 0f 11 45 d8	 movss	 DWORD PTR _qc$1[ebp+12], xmm0
; File C:\Users\murat\Desktop\Siveps2-1-99-Project\source\client\Client\EffectLib\ParticleInstance.cpp

; 105  : 			D3DXQUATERNION qr(

  001ae	f3 0f 10 47 0c	 movss	 xmm0, DWORD PTR [edi+12]
  001b3	f3 0f 5c 07	 subss	 xmm0, DWORD PTR [edi]

; 110  : 			D3DXQuaternionMultiply(&qr,&q,&qr);

  001b7	50		 push	 eax
  001b8	8d 45 dc	 lea	 eax, DWORD PTR _q$2[ebp]
  001bb	50		 push	 eax
  001bc	8d 45 ec	 lea	 eax, DWORD PTR _qr$3[ebp]
; File C:\Users\murat\Desktop\Siveps2-1-99-Project\source\client\extern\include\d3dx8math.inl

; 667  :     x = fx;

  001bf	f3 0f 11 45 ec	 movss	 DWORD PTR _qr$3[ebp], xmm0
; File C:\Users\murat\Desktop\Siveps2-1-99-Project\source\client\Client\EffectLib\ParticleInstance.cpp

; 105  : 			D3DXQUATERNION qr(

  001c4	f3 0f 10 47 10	 movss	 xmm0, DWORD PTR [edi+16]
  001c9	f3 0f 5c 47 04	 subss	 xmm0, DWORD PTR [edi+4]

; 110  : 			D3DXQuaternionMultiply(&qr,&q,&qr);

  001ce	50		 push	 eax
; File C:\Users\murat\Desktop\Siveps2-1-99-Project\source\client\extern\include\d3dx8math.inl

; 668  :     y = fy;

  001cf	f3 0f 11 45 f0	 movss	 DWORD PTR _qr$3[ebp+4], xmm0
; File C:\Users\murat\Desktop\Siveps2-1-99-Project\source\client\Client\EffectLib\ParticleInstance.cpp

; 105  : 			D3DXQUATERNION qr(

  001d4	f3 0f 10 47 14	 movss	 xmm0, DWORD PTR [edi+20]
  001d9	f3 0f 5c 47 08	 subss	 xmm0, DWORD PTR [edi+8]
; File C:\Users\murat\Desktop\Siveps2-1-99-Project\source\client\extern\include\d3dx8math.inl

; 669  :     z = fz;

  001de	f3 0f 11 45 f4	 movss	 DWORD PTR _qr$3[ebp+8], xmm0
; File C:\Users\murat\Desktop\Siveps2-1-99-Project\source\client\Client\EffectLib\ParticleInstance.cpp

; 110  : 			D3DXQuaternionMultiply(&qr,&q,&qr);

  001e3	e8 00 00 00 00	 call	 _D3DXQuaternionMultiply@12

; 111  : 			D3DXQuaternionMultiply(&qr,&qr,&qc);

  001e8	8d 45 cc	 lea	 eax, DWORD PTR _qc$1[ebp]
  001eb	50		 push	 eax
  001ec	8d 45 ec	 lea	 eax, DWORD PTR _qr$3[ebp]
  001ef	50		 push	 eax
  001f0	50		 push	 eax
  001f1	e8 00 00 00 00	 call	 _D3DXQuaternionMultiply@12

; 112  : 
; 113  : 			m_v3Position.x = qr.x;

  001f6	f3 0f 10 45 ec	 movss	 xmm0, DWORD PTR _qr$3[ebp]
  001fb	f3 0f 11 47 0c	 movss	 DWORD PTR [edi+12], xmm0

; 114  : 			m_v3Position.y = qr.y;

  00200	f3 0f 10 45 f0	 movss	 xmm0, DWORD PTR _qr$3[ebp+4]
  00205	f3 0f 11 47 10	 movss	 DWORD PTR [edi+16], xmm0

; 115  : 			m_v3Position.z = qr.z;

  0020a	f3 0f 10 45 f4	 movss	 xmm0, DWORD PTR _qr$3[ebp+8]
  0020f	f3 0f 11 47 14	 movss	 DWORD PTR [edi+20], xmm0
; File C:\Users\murat\Desktop\Siveps2-1-99-Project\source\client\extern\include\d3dx8math.inl

; 204  :     x += v.x;

  00214	f3 0f 10 07	 movss	 xmm0, DWORD PTR [edi]
  00218	f3 0f 58 47 0c	 addss	 xmm0, DWORD PTR [edi+12]
  0021d	f3 0f 11 47 0c	 movss	 DWORD PTR [edi+12], xmm0

; 205  :     y += v.y;

  00222	f3 0f 10 47 04	 movss	 xmm0, DWORD PTR [edi+4]
  00227	f3 0f 58 47 10	 addss	 xmm0, DWORD PTR [edi+16]
  0022c	f3 0f 11 47 10	 movss	 DWORD PTR [edi+16], xmm0

; 206  :     z += v.z;

  00231	f3 0f 10 47 08	 movss	 xmm0, DWORD PTR [edi+8]
  00236	f3 0f 58 47 14	 addss	 xmm0, DWORD PTR [edi+20]
  0023b	f3 0f 11 47 14	 movss	 DWORD PTR [edi+20], xmm0
$LN5@Update:
; File C:\Users\murat\Desktop\Siveps2-1-99-Project\source\client\Client\EffectLib\ParticleInstance.cpp

; 121  : 	return TRUE;

  00240	b8 01 00 00 00	 mov	 eax, 1
  00245	5f		 pop	 edi

; 122  : }

  00246	8b e5		 mov	 esp, ebp
  00248	5d		 pop	 ebp
  00249	c2 08 00	 ret	 8
?Update@CParticleInstance@@QAEHMM@Z ENDP		; CParticleInstance::Update
_TEXT	ENDS
; Function compile flags: /Ogtp
; File C:\Users\murat\Desktop\Siveps2-1-99-Project\source\client\Client\EffectLib\ParticleInstance.cpp
;	COMDAT ?GetRadiusApproximation@CParticleInstance@@QAEMXZ
_TEXT	SEGMENT
?GetRadiusApproximation@CParticleInstance@@QAEMXZ PROC	; CParticleInstance::GetRadiusApproximation, COMDAT
; _this$ = ecx

; 58   : 	return m_v2HalfSize.y*m_v2Scale.y + m_v2HalfSize.x*m_v2Scale.x;

  00000	d9 41 3c	 fld	 DWORD PTR [ecx+60]
  00003	d8 49 34	 fmul	 DWORD PTR [ecx+52]
  00006	d9 41 38	 fld	 DWORD PTR [ecx+56]
  00009	d8 49 30	 fmul	 DWORD PTR [ecx+48]
  0000c	de c1		 faddp	 ST(1), ST(0)

; 59   : }

  0000e	c3		 ret	 0
?GetRadiusApproximation@CParticleInstance@@QAEMXZ ENDP	; CParticleInstance::GetRadiusApproximation
_TEXT	ENDS
; Function compile flags: /Ogtp
; File C:\Users\murat\Desktop\Siveps2-1-99-Project\source\client\Client\EffectLib\ParticleInstance.cpp
;	COMDAT ??1CParticleInstance@@QAE@XZ
_TEXT	SEGMENT
__$EHRec$ = -12						; size = 12
??1CParticleInstance@@QAE@XZ PROC			; CParticleInstance::~CParticleInstance, COMDAT
; _this$ = ecx

; 470  : {

  00000	55		 push	 ebp
  00001	8b ec		 mov	 ebp, esp
  00003	6a ff		 push	 -1
  00005	68 00 00 00 00	 push	 __ehhandler$??1CParticleInstance@@QAE@XZ
  0000a	64 a1 00 00 00
	00		 mov	 eax, DWORD PTR fs:0
  00010	50		 push	 eax
  00011	a1 00 00 00 00	 mov	 eax, DWORD PTR ___security_cookie
  00016	33 c5		 xor	 eax, ebp
  00018	50		 push	 eax
  00019	8d 45 f4	 lea	 eax, DWORD PTR __$EHRec$[ebp]
  0001c	64 a3 00 00 00
	00		 mov	 DWORD PTR fs:0, eax

; 471  : 	Destroy();

  00022	e8 00 00 00 00	 call	 ?Destroy@CParticleInstance@@QAEXXZ ; CParticleInstance::Destroy

; 472  : }

  00027	8b 4d f4	 mov	 ecx, DWORD PTR __$EHRec$[ebp]
  0002a	64 89 0d 00 00
	00 00		 mov	 DWORD PTR fs:0, ecx
  00031	59		 pop	 ecx
  00032	8b e5		 mov	 esp, ebp
  00034	5d		 pop	 ebp
  00035	c3		 ret	 0
  00036	cc		 int	 3
  00037	cc		 int	 3
  00038	cc		 int	 3
  00039	cc		 int	 3
  0003a	cc		 int	 3
_TEXT	ENDS
;	COMDAT text$x
text$x	SEGMENT
__ehhandler$??1CParticleInstance@@QAE@XZ:
  00000	90		 npad	 1
  00001	90		 npad	 1
  00002	8b 54 24 08	 mov	 edx, DWORD PTR [esp+8]
  00006	8d 42 0c	 lea	 eax, DWORD PTR [edx+12]
  00009	8b 4a fc	 mov	 ecx, DWORD PTR [edx-4]
  0000c	33 c8		 xor	 ecx, eax
  0000e	e8 00 00 00 00	 call	 @__security_check_cookie@4
  00013	b8 00 00 00 00	 mov	 eax, OFFSET __ehfuncinfo$??1CParticleInstance@@QAE@XZ
  00018	e9 00 00 00 00	 jmp	 ___CxxFrameHandler3
text$x	ENDS
??1CParticleInstance@@QAE@XZ ENDP			; CParticleInstance::~CParticleInstance
; Function compile flags: /Ogtp
; File C:\Users\murat\Desktop\Siveps2-1-99-Project\source\client\Client\EffectLib\ParticleInstance.cpp
;	COMDAT ??0CParticleInstance@@QAE@XZ
_TEXT	SEGMENT
??0CParticleInstance@@QAE@XZ PROC			; CParticleInstance::CParticleInstance, COMDAT
; _this$ = ecx

; 465  : {

  00000	56		 push	 esi
  00001	8b f1		 mov	 esi, ecx

; 466  : 	__Initialize();

  00003	e8 00 00 00 00	 call	 ?__Initialize@CParticleInstance@@IAEXXZ ; CParticleInstance::__Initialize

; 467  : }

  00008	8b c6		 mov	 eax, esi
  0000a	5e		 pop	 esi
  0000b	c3		 ret	 0
??0CParticleInstance@@QAE@XZ ENDP			; CParticleInstance::CParticleInstance
_TEXT	ENDS
; Function compile flags: /Ogtp
; File C:\Users\murat\Desktop\Siveps2-1-99-Project\source\client\Client\EffectLib\EffectUpdateDecorator.h
;	COMDAT ?DeleteThis@CBaseDecorator@NEffectUpdateDecorator@@QAEXXZ
_TEXT	SEGMENT
?DeleteThis@CBaseDecorator@NEffectUpdateDecorator@@QAEXXZ PROC ; NEffectUpdateDecorator::CBaseDecorator::DeleteThis, COMDAT
; _this$ = ecx

; 44   : 		{

  00000	56		 push	 esi
  00001	8b f1		 mov	 esi, ecx

; 45   : 			//return;
; 46   : 			if (m_NextDecorator)

  00003	8b 4e 04	 mov	 ecx, DWORD PTR [esi+4]
  00006	85 c9		 test	 ecx, ecx
  00008	74 05		 je	 SHORT $LN2@DeleteThis

; 47   : 				m_NextDecorator->DeleteThis();

  0000a	e8 00 00 00 00	 call	 ?DeleteThis@CBaseDecorator@NEffectUpdateDecorator@@QAEXXZ ; NEffectUpdateDecorator::CBaseDecorator::DeleteThis
$LN2@DeleteThis:

; 48   : 			delete this;

  0000f	8b 06		 mov	 eax, DWORD PTR [esi]
  00011	8b ce		 mov	 ecx, esi
  00013	6a 01		 push	 1
  00015	ff 10		 call	 DWORD PTR [eax]
  00017	5e		 pop	 esi

; 49   : 		}

  00018	c3		 ret	 0
?DeleteThis@CBaseDecorator@NEffectUpdateDecorator@@QAEXXZ ENDP ; NEffectUpdateDecorator::CBaseDecorator::DeleteThis
_TEXT	ENDS
; Function compile flags: /Ogtp
;	COMDAT ??0SPTVertex@@QAE@XZ
_TEXT	SEGMENT
??0SPTVertex@@QAE@XZ PROC				; SPTVertex::SPTVertex, COMDAT
; _this$ = ecx
  00000	8b c1		 mov	 eax, ecx
  00002	c3		 ret	 0
??0SPTVertex@@QAE@XZ ENDP				; SPTVertex::SPTVertex
_TEXT	ENDS
; Function compile flags: /Ogtp
; File C:\Program Files (x86)\Microsoft Visual Studio\2019\Professional\VC\Tools\MSVC\14.29.30133\include\xmemory
;	COMDAT ??$_Allocate_manually_vector_aligned@U_Default_allocate_traits@std@@@std@@YAPAXI@Z
_TEXT	SEGMENT
__Bytes$ = 8						; size = 4
??$_Allocate_manually_vector_aligned@U_Default_allocate_traits@std@@@std@@YAPAXI@Z PROC ; std::_Allocate_manually_vector_aligned<std::_Default_allocate_traits>, COMDAT

; 134  : __declspec(allocator) void* _Allocate_manually_vector_aligned(const size_t _Bytes) {

  00000	55		 push	 ebp
  00001	8b ec		 mov	 ebp, esp

; 135  :     // allocate _Bytes manually aligned to at least _Big_allocation_alignment
; 136  :     const size_t _Block_size = _Non_user_size + _Bytes;

  00003	8b 45 08	 mov	 eax, DWORD PTR __Bytes$[ebp]
  00006	8d 48 23	 lea	 ecx, DWORD PTR [eax+35]

; 137  :     if (_Block_size <= _Bytes) {

  00009	3b c8		 cmp	 ecx, eax
  0000b	0f 86 00 00 00
	00		 jbe	 ?_Throw_bad_array_new_length@std@@YAXXZ ; std::_Throw_bad_array_new_length

; 85   :         return ::operator new(_Bytes);

  00011	51		 push	 ecx
  00012	e8 00 00 00 00	 call	 ??2@YAPAXI@Z		; operator new

; 138  :         _Throw_bad_array_new_length(); // add overflow
; 139  :     }
; 140  : 
; 141  :     const uintptr_t _Ptr_container = reinterpret_cast<uintptr_t>(_Traits::_Allocate(_Block_size));

  00017	8b c8		 mov	 ecx, eax

; 85   :         return ::operator new(_Bytes);

  00019	83 c4 04	 add	 esp, 4

; 142  :     _STL_VERIFY(_Ptr_container != 0, "invalid argument"); // validate even in release since we're doing p[-1]

  0001c	85 c9		 test	 ecx, ecx
  0001e	74 0b		 je	 SHORT $LN7@Allocate_m

; 143  :     void* const _Ptr = reinterpret_cast<void*>((_Ptr_container + _Non_user_size) & ~(_Big_allocation_alignment - 1));

  00020	8d 41 23	 lea	 eax, DWORD PTR [ecx+35]
  00023	83 e0 e0	 and	 eax, -32		; ffffffe0H

; 144  :     static_cast<uintptr_t*>(_Ptr)[-1] = _Ptr_container;

  00026	89 48 fc	 mov	 DWORD PTR [eax-4], ecx

; 145  : 
; 146  : #ifdef _DEBUG
; 147  :     static_cast<uintptr_t*>(_Ptr)[-2] = _Big_allocation_sentinel;
; 148  : #endif // _DEBUG
; 149  :     return _Ptr;
; 150  : }

  00029	5d		 pop	 ebp
  0002a	c3		 ret	 0
$LN7@Allocate_m:

; 142  :     _STL_VERIFY(_Ptr_container != 0, "invalid argument"); // validate even in release since we're doing p[-1]

  0002b	e9 00 00 00 00	 jmp	 __invalid_parameter_noinfo_noreturn
??$_Allocate_manually_vector_aligned@U_Default_allocate_traits@std@@@std@@YAPAXI@Z ENDP ; std::_Allocate_manually_vector_aligned<std::_Default_allocate_traits>
_TEXT	ENDS
; Function compile flags: /Ogtp
; File C:\Users\murat\Desktop\Siveps2-1-99-Project\source\client\extern\include\d3dx8math.h
;	COMDAT ??0D3DXMATRIX@@QAE@XZ
_TEXT	SEGMENT
??0D3DXMATRIX@@QAE@XZ PROC				; D3DXMATRIX::D3DXMATRIX, COMDAT
; _this$ = ecx

; 177  :     D3DXMATRIX() {};

  00000	8b c1		 mov	 eax, ecx
  00002	c3		 ret	 0
??0D3DXMATRIX@@QAE@XZ ENDP				; D3DXMATRIX::D3DXMATRIX
_TEXT	ENDS
; Function compile flags: /Ogtp
; File C:\Program Files (x86)\Microsoft Visual Studio\2019\Professional\VC\Tools\MSVC\14.29.30133\include\exception
;	COMDAT ?_Throw_bad_array_new_length@std@@YAXXZ
_TEXT	SEGMENT
$T1 = -12						; size = 12
?_Throw_bad_array_new_length@std@@YAXXZ PROC		; std::_Throw_bad_array_new_length, COMDAT

; 320  : [[noreturn]] inline void _Throw_bad_array_new_length() {

  00000	55		 push	 ebp
  00001	8b ec		 mov	 ebp, esp
  00003	83 ec 0c	 sub	 esp, 12			; 0000000cH

; 321  :     _THROW(bad_array_new_length{});

  00006	8d 4d f4	 lea	 ecx, DWORD PTR $T1[ebp]
  00009	e8 00 00 00 00	 call	 ??0bad_array_new_length@std@@QAE@XZ ; std::bad_array_new_length::bad_array_new_length
  0000e	68 00 00 00 00	 push	 OFFSET __TI3?AVbad_array_new_length@std@@
  00013	8d 45 f4	 lea	 eax, DWORD PTR $T1[ebp]
  00016	50		 push	 eax
  00017	e8 00 00 00 00	 call	 __CxxThrowException@8
$LN3@Throw_bad_:
  0001c	cc		 int	 3
?_Throw_bad_array_new_length@std@@YAXXZ ENDP		; std::_Throw_bad_array_new_length
_TEXT	ENDS
; Function compile flags: /Ogtp
; File C:\Program Files (x86)\Microsoft Visual Studio\2019\Professional\VC\Tools\MSVC\14.29.30133\include\vcruntime_exception.h
;	COMDAT ??_Gbad_array_new_length@std@@UAEPAXI@Z
_TEXT	SEGMENT
___flags$ = 8						; size = 4
??_Gbad_array_new_length@std@@UAEPAXI@Z PROC		; std::bad_array_new_length::`scalar deleting destructor', COMDAT
; _this$ = ecx
  00000	55		 push	 ebp
  00001	8b ec		 mov	 ebp, esp

; 89   :     {

  00003	56		 push	 esi
  00004	8b f1		 mov	 esi, ecx

; 90   :         __std_exception_destroy(&_Data);

  00006	8d 46 04	 lea	 eax, DWORD PTR [esi+4]
  00009	c7 06 00 00 00
	00		 mov	 DWORD PTR [esi], OFFSET ??_7exception@std@@6B@
  0000f	50		 push	 eax
  00010	e8 00 00 00 00	 call	 ___std_exception_destroy
  00015	83 c4 04	 add	 esp, 4
  00018	f6 45 08 01	 test	 BYTE PTR ___flags$[ebp], 1
  0001c	74 0b		 je	 SHORT $LN12@scalar
  0001e	6a 0c		 push	 12			; 0000000cH
  00020	56		 push	 esi
  00021	e8 00 00 00 00	 call	 ??3@YAXPAXI@Z		; operator delete
  00026	83 c4 08	 add	 esp, 8
$LN12@scalar:
  00029	8b c6		 mov	 eax, esi
  0002b	5e		 pop	 esi
  0002c	5d		 pop	 ebp
  0002d	c2 04 00	 ret	 4
??_Gbad_array_new_length@std@@UAEPAXI@Z ENDP		; std::bad_array_new_length::`scalar deleting destructor'
_TEXT	ENDS
; Function compile flags: /Ogtp
; File C:\Program Files (x86)\Microsoft Visual Studio\2019\Professional\VC\Tools\MSVC\14.29.30133\include\vcruntime_exception.h
;	COMDAT ??0bad_array_new_length@std@@QAE@ABV01@@Z
_TEXT	SEGMENT
___that$ = 8						; size = 4
??0bad_array_new_length@std@@QAE@ABV01@@Z PROC		; std::bad_array_new_length::bad_array_new_length, COMDAT
; _this$ = ecx
  00000	55		 push	 ebp
  00001	8b ec		 mov	 ebp, esp

; 72   :     {

  00003	56		 push	 esi
  00004	8b f1		 mov	 esi, ecx
  00006	0f 57 c0	 xorps	 xmm0, xmm0

; 71   :         : _Data()

  00009	8d 46 04	 lea	 eax, DWORD PTR [esi+4]

; 73   :         __std_exception_copy(&_Other._Data, &_Data);

  0000c	50		 push	 eax
  0000d	c7 06 00 00 00
	00		 mov	 DWORD PTR [esi], OFFSET ??_7exception@std@@6B@
  00013	66 0f d6 00	 movq	 QWORD PTR [eax], xmm0
  00017	8b 45 08	 mov	 eax, DWORD PTR ___that$[ebp]
  0001a	83 c0 04	 add	 eax, 4
  0001d	50		 push	 eax
  0001e	e8 00 00 00 00	 call	 ___std_exception_copy
  00023	83 c4 08	 add	 esp, 8
  00026	c7 06 00 00 00
	00		 mov	 DWORD PTR [esi], OFFSET ??_7bad_array_new_length@std@@6B@
  0002c	8b c6		 mov	 eax, esi
  0002e	5e		 pop	 esi
  0002f	5d		 pop	 ebp
  00030	c2 04 00	 ret	 4
??0bad_array_new_length@std@@QAE@ABV01@@Z ENDP		; std::bad_array_new_length::bad_array_new_length
_TEXT	ENDS
; Function compile flags: /Ogtp
; File C:\Program Files (x86)\Microsoft Visual Studio\2019\Professional\VC\Tools\MSVC\14.29.30133\include\vcruntime_exception.h
;	COMDAT ??1bad_array_new_length@std@@UAE@XZ
_TEXT	SEGMENT
??1bad_array_new_length@std@@UAE@XZ PROC		; std::bad_array_new_length::~bad_array_new_length, COMDAT
; _this$ = ecx

; 90   :         __std_exception_destroy(&_Data);

  00000	8d 41 04	 lea	 eax, DWORD PTR [ecx+4]
  00003	c7 01 00 00 00
	00		 mov	 DWORD PTR [ecx], OFFSET ??_7exception@std@@6B@
  00009	50		 push	 eax
  0000a	e8 00 00 00 00	 call	 ___std_exception_destroy
  0000f	59		 pop	 ecx
  00010	c3		 ret	 0
??1bad_array_new_length@std@@UAE@XZ ENDP		; std::bad_array_new_length::~bad_array_new_length
_TEXT	ENDS
; Function compile flags: /Ogtp
; File C:\Program Files (x86)\Microsoft Visual Studio\2019\Professional\VC\Tools\MSVC\14.29.30133\include\vcruntime_exception.h
;	COMDAT ??0bad_array_new_length@std@@QAE@XZ
_TEXT	SEGMENT
??0bad_array_new_length@std@@QAE@XZ PROC		; std::bad_array_new_length::bad_array_new_length, COMDAT
; _this$ = ecx

; 141  :     {

  00000	0f 57 c0	 xorps	 xmm0, xmm0

; 142  :     }

  00003	8b c1		 mov	 eax, ecx

; 65   :         : _Data()

  00005	66 0f d6 41 04	 movq	 QWORD PTR [ecx+4], xmm0

; 66   :     {
; 67   :         _Data._What = _Message;

  0000a	c7 41 04 00 00
	00 00		 mov	 DWORD PTR [ecx+4], OFFSET ??_C@_0BF@KINCDENJ@bad?5array?5new?5length@

; 141  :     {

  00011	c7 01 00 00 00
	00		 mov	 DWORD PTR [ecx], OFFSET ??_7bad_array_new_length@std@@6B@

; 142  :     }

  00017	c3		 ret	 0
??0bad_array_new_length@std@@QAE@XZ ENDP		; std::bad_array_new_length::bad_array_new_length
_TEXT	ENDS
; Function compile flags: /Ogtp
; File C:\Program Files (x86)\Microsoft Visual Studio\2019\Professional\VC\Tools\MSVC\14.29.30133\include\vcruntime_exception.h
;	COMDAT ??_Gbad_alloc@std@@UAEPAXI@Z
_TEXT	SEGMENT
___flags$ = 8						; size = 4
??_Gbad_alloc@std@@UAEPAXI@Z PROC			; std::bad_alloc::`scalar deleting destructor', COMDAT
; _this$ = ecx
  00000	55		 push	 ebp
  00001	8b ec		 mov	 ebp, esp

; 89   :     {

  00003	56		 push	 esi
  00004	8b f1		 mov	 esi, ecx

; 90   :         __std_exception_destroy(&_Data);

  00006	8d 46 04	 lea	 eax, DWORD PTR [esi+4]
  00009	c7 06 00 00 00
	00		 mov	 DWORD PTR [esi], OFFSET ??_7exception@std@@6B@
  0000f	50		 push	 eax
  00010	e8 00 00 00 00	 call	 ___std_exception_destroy
  00015	83 c4 04	 add	 esp, 4
  00018	f6 45 08 01	 test	 BYTE PTR ___flags$[ebp], 1
  0001c	74 0b		 je	 SHORT $LN9@scalar
  0001e	6a 0c		 push	 12			; 0000000cH
  00020	56		 push	 esi
  00021	e8 00 00 00 00	 call	 ??3@YAXPAXI@Z		; operator delete
  00026	83 c4 08	 add	 esp, 8
$LN9@scalar:
  00029	8b c6		 mov	 eax, esi
  0002b	5e		 pop	 esi
  0002c	5d		 pop	 ebp
  0002d	c2 04 00	 ret	 4
??_Gbad_alloc@std@@UAEPAXI@Z ENDP			; std::bad_alloc::`scalar deleting destructor'
_TEXT	ENDS
; Function compile flags: /Ogtp
; File C:\Program Files (x86)\Microsoft Visual Studio\2019\Professional\VC\Tools\MSVC\14.29.30133\include\vcruntime_exception.h
;	COMDAT ??0bad_alloc@std@@QAE@ABV01@@Z
_TEXT	SEGMENT
___that$ = 8						; size = 4
??0bad_alloc@std@@QAE@ABV01@@Z PROC			; std::bad_alloc::bad_alloc, COMDAT
; _this$ = ecx
  00000	55		 push	 ebp
  00001	8b ec		 mov	 ebp, esp

; 72   :     {

  00003	56		 push	 esi
  00004	8b f1		 mov	 esi, ecx
  00006	0f 57 c0	 xorps	 xmm0, xmm0

; 71   :         : _Data()

  00009	8d 46 04	 lea	 eax, DWORD PTR [esi+4]

; 73   :         __std_exception_copy(&_Other._Data, &_Data);

  0000c	50		 push	 eax
  0000d	c7 06 00 00 00
	00		 mov	 DWORD PTR [esi], OFFSET ??_7exception@std@@6B@
  00013	66 0f d6 00	 movq	 QWORD PTR [eax], xmm0
  00017	8b 45 08	 mov	 eax, DWORD PTR ___that$[ebp]
  0001a	83 c0 04	 add	 eax, 4
  0001d	50		 push	 eax
  0001e	e8 00 00 00 00	 call	 ___std_exception_copy
  00023	83 c4 08	 add	 esp, 8
  00026	c7 06 00 00 00
	00		 mov	 DWORD PTR [esi], OFFSET ??_7bad_alloc@std@@6B@
  0002c	8b c6		 mov	 eax, esi
  0002e	5e		 pop	 esi
  0002f	5d		 pop	 ebp
  00030	c2 04 00	 ret	 4
??0bad_alloc@std@@QAE@ABV01@@Z ENDP			; std::bad_alloc::bad_alloc
_TEXT	ENDS
; Function compile flags: /Ogtp
; File C:\Program Files (x86)\Microsoft Visual Studio\2019\Professional\VC\Tools\MSVC\14.29.30133\include\vcruntime_exception.h
;	COMDAT ??_Gexception@std@@UAEPAXI@Z
_TEXT	SEGMENT
___flags$ = 8						; size = 4
??_Gexception@std@@UAEPAXI@Z PROC			; std::exception::`scalar deleting destructor', COMDAT
; _this$ = ecx
  00000	55		 push	 ebp
  00001	8b ec		 mov	 ebp, esp

; 89   :     {

  00003	56		 push	 esi
  00004	8b f1		 mov	 esi, ecx

; 90   :         __std_exception_destroy(&_Data);

  00006	8d 46 04	 lea	 eax, DWORD PTR [esi+4]
  00009	c7 06 00 00 00
	00		 mov	 DWORD PTR [esi], OFFSET ??_7exception@std@@6B@
  0000f	50		 push	 eax
  00010	e8 00 00 00 00	 call	 ___std_exception_destroy
  00015	83 c4 04	 add	 esp, 4
  00018	f6 45 08 01	 test	 BYTE PTR ___flags$[ebp], 1
  0001c	74 0b		 je	 SHORT $LN6@scalar
  0001e	6a 0c		 push	 12			; 0000000cH
  00020	56		 push	 esi
  00021	e8 00 00 00 00	 call	 ??3@YAXPAXI@Z		; operator delete
  00026	83 c4 08	 add	 esp, 8
$LN6@scalar:
  00029	8b c6		 mov	 eax, esi
  0002b	5e		 pop	 esi
  0002c	5d		 pop	 ebp
  0002d	c2 04 00	 ret	 4
??_Gexception@std@@UAEPAXI@Z ENDP			; std::exception::`scalar deleting destructor'
_TEXT	ENDS
; Function compile flags: /Ogtp
; File C:\Program Files (x86)\Microsoft Visual Studio\2019\Professional\VC\Tools\MSVC\14.29.30133\include\vcruntime_exception.h
;	COMDAT ?what@exception@std@@UBEPBDXZ
_TEXT	SEGMENT
?what@exception@std@@UBEPBDXZ PROC			; std::exception::what, COMDAT
; _this$ = ecx

; 95   :         return _Data._What ? _Data._What : "Unknown exception";

  00000	8b 49 04	 mov	 ecx, DWORD PTR [ecx+4]
  00003	b8 00 00 00 00	 mov	 eax, OFFSET ??_C@_0BC@EOODALEL@Unknown?5exception@
  00008	85 c9		 test	 ecx, ecx
  0000a	0f 45 c1	 cmovne	 eax, ecx

; 96   :     }

  0000d	c3		 ret	 0
?what@exception@std@@UBEPBDXZ ENDP			; std::exception::what
_TEXT	ENDS
; Function compile flags: /Ogtp
; File C:\Program Files (x86)\Microsoft Visual Studio\2019\Professional\VC\Tools\MSVC\14.29.30133\include\vcruntime_exception.h
;	COMDAT ??1exception@std@@UAE@XZ
_TEXT	SEGMENT
??1exception@std@@UAE@XZ PROC				; std::exception::~exception, COMDAT
; _this$ = ecx

; 90   :         __std_exception_destroy(&_Data);

  00000	8d 41 04	 lea	 eax, DWORD PTR [ecx+4]
  00003	c7 01 00 00 00
	00		 mov	 DWORD PTR [ecx], OFFSET ??_7exception@std@@6B@
  00009	50		 push	 eax
  0000a	e8 00 00 00 00	 call	 ___std_exception_destroy
  0000f	59		 pop	 ecx

; 91   :     }

  00010	c3		 ret	 0
??1exception@std@@UAE@XZ ENDP				; std::exception::~exception
_TEXT	ENDS
; Function compile flags: /Ogtp
; File C:\Program Files (x86)\Microsoft Visual Studio\2019\Professional\VC\Tools\MSVC\14.29.30133\include\vcruntime_exception.h
;	COMDAT ??0exception@std@@QAE@ABV01@@Z
_TEXT	SEGMENT
__Other$ = 8						; size = 4
??0exception@std@@QAE@ABV01@@Z PROC			; std::exception::exception, COMDAT
; _this$ = ecx

; 72   :     {

  00000	55		 push	 ebp
  00001	8b ec		 mov	 ebp, esp
  00003	56		 push	 esi
  00004	8b f1		 mov	 esi, ecx
  00006	0f 57 c0	 xorps	 xmm0, xmm0
  00009	8d 46 04	 lea	 eax, DWORD PTR [esi+4]

; 73   :         __std_exception_copy(&_Other._Data, &_Data);

  0000c	50		 push	 eax
  0000d	c7 06 00 00 00
	00		 mov	 DWORD PTR [esi], OFFSET ??_7exception@std@@6B@
  00013	66 0f d6 00	 movq	 QWORD PTR [eax], xmm0
  00017	8b 45 08	 mov	 eax, DWORD PTR __Other$[ebp]
  0001a	83 c0 04	 add	 eax, 4
  0001d	50		 push	 eax
  0001e	e8 00 00 00 00	 call	 ___std_exception_copy
  00023	83 c4 08	 add	 esp, 8

; 74   :     }

  00026	8b c6		 mov	 eax, esi
  00028	5e		 pop	 esi
  00029	5d		 pop	 ebp
  0002a	c2 04 00	 ret	 4
??0exception@std@@QAE@ABV01@@Z ENDP			; std::exception::exception
_TEXT	ENDS
; Function compile flags: /Ogtp
; File C:\Users\murat\Desktop\Siveps2-1-99-Project\source\client\Client\EffectLib\ParticleInstance.cpp
;	COMDAT ?__empty_global_delete@@YAXPAXI@Z
_TEXT	SEGMENT
___formal$ = 8						; size = 4
___formal$ = 12						; size = 4
?__empty_global_delete@@YAXPAXI@Z PROC			; __empty_global_delete, COMDAT

  00000	c2 00 00	 ret	 0
?__empty_global_delete@@YAXPAXI@Z ENDP			; __empty_global_delete
_TEXT	ENDS
; Function compile flags: /Ogtp
; File C:\Users\murat\Desktop\Siveps2-1-99-Project\source\client\Client\EffectLib\ParticleInstance.cpp
;	COMDAT ?__empty_global_delete@@YAXPAX@Z
_TEXT	SEGMENT
___formal$ = 8						; size = 4
?__empty_global_delete@@YAXPAX@Z PROC			; __empty_global_delete, COMDAT

  00000	c2 00 00	 ret	 0
?__empty_global_delete@@YAXPAX@Z ENDP			; __empty_global_delete
_TEXT	ENDS
; Function compile flags: /Ogtp
;	COMDAT ??_H@YGXPAXIIP6EPAX0@Z@Z
_TEXT	SEGMENT
___t$ = 8						; size = 4
___s$ = 12						; size = 4
___n$ = 16						; size = 4
___f$ = 20						; size = 4
??_H@YGXPAXIIP6EPAX0@Z@Z PROC				; `vector constructor iterator', COMDAT
  00000	55		 push	 ebp
  00001	8b ec		 mov	 ebp, esp
  00003	56		 push	 esi
  00004	8b 75 10	 mov	 esi, DWORD PTR ___n$[ebp]
  00007	85 f6		 test	 esi, esi
  00009	74 16		 je	 SHORT $LN6@vector
  0000b	53		 push	 ebx
  0000c	8b 5d 14	 mov	 ebx, DWORD PTR ___f$[ebp]
  0000f	57		 push	 edi
  00010	8b 7d 08	 mov	 edi, DWORD PTR ___t$[ebp]
$LL2@vector:
  00013	8b cf		 mov	 ecx, edi
  00015	ff d3		 call	 ebx
  00017	03 7d 0c	 add	 edi, DWORD PTR ___s$[ebp]
  0001a	83 ee 01	 sub	 esi, 1
  0001d	75 f4		 jne	 SHORT $LL2@vector
  0001f	5f		 pop	 edi
  00020	5b		 pop	 ebx
$LN6@vector:
  00021	5e		 pop	 esi
  00022	5d		 pop	 ebp
  00023	c2 10 00	 ret	 16			; 00000010H
??_H@YGXPAXIIP6EPAX0@Z@Z ENDP				; `vector constructor iterator'
_TEXT	ENDS
END
