; Listing generated by Microsoft (R) Optimizing Compiler Version 19.29.30137.0 

	TITLE	C:\Users\murat\Desktop\Siveps2-1-99-Project\source\client\Client\EffectLib\Distribute\ParticleSystemData.obj
	.686P
	.XMM
	include listing.inc
	.model	flat

INCLUDELIB LIBCMT
INCLUDELIB OLDNAMES

PUBLIC	??_R4?$CDynamicPool@VCParticleSystemData@@@@6B@	; CDynamicPool<CParticleSystemData>::`RTTI Complete Object Locator'
PUBLIC	??_R0?AV?$CDynamicPool@VCParticleSystemData@@@@@8 ; CDynamicPool<CParticleSystemData> `RTTI Type Descriptor'
PUBLIC	??_R3?$CDynamicPool@VCParticleSystemData@@@@8	; CDynamicPool<CParticleSystemData>::`RTTI Class Hierarchy Descriptor'
PUBLIC	??_R2?$CDynamicPool@VCParticleSystemData@@@@8	; CDynamicPool<CParticleSystemData>::`RTTI Base Class Array'
PUBLIC	??_R1A@?0A@EA@?$CDynamicPool@VCParticleSystemData@@@@8 ; CDynamicPool<CParticleSystemData>::`RTTI Base Class Descriptor at (0,-1,0,64)'
PUBLIC	??_R4?$CDynamicPoolEx@VCHeaderDecorator@NEffectUpdateDecorator@@@@6B@ ; CDynamicPoolEx<NEffectUpdateDecorator::CHeaderDecorator>::`RTTI Complete Object Locator'
PUBLIC	??_R0?AV?$CDynamicPoolEx@VCHeaderDecorator@NEffectUpdateDecorator@@@@@8 ; CDynamicPoolEx<NEffectUpdateDecorator::CHeaderDecorator> `RTTI Type Descriptor'
PUBLIC	??_R3?$CDynamicPoolEx@VCHeaderDecorator@NEffectUpdateDecorator@@@@8 ; CDynamicPoolEx<NEffectUpdateDecorator::CHeaderDecorator>::`RTTI Class Hierarchy Descriptor'
PUBLIC	??_R2?$CDynamicPoolEx@VCHeaderDecorator@NEffectUpdateDecorator@@@@8 ; CDynamicPoolEx<NEffectUpdateDecorator::CHeaderDecorator>::`RTTI Base Class Array'
PUBLIC	??_R1A@?0A@EA@?$CDynamicPoolEx@VCHeaderDecorator@NEffectUpdateDecorator@@@@8 ; CDynamicPoolEx<NEffectUpdateDecorator::CHeaderDecorator>::`RTTI Base Class Descriptor at (0,-1,0,64)'
PUBLIC	??_R4?$CDynamicPoolEx@VCNullDecorator@NEffectUpdateDecorator@@@@6B@ ; CDynamicPoolEx<NEffectUpdateDecorator::CNullDecorator>::`RTTI Complete Object Locator'
PUBLIC	??_R0?AV?$CDynamicPoolEx@VCNullDecorator@NEffectUpdateDecorator@@@@@8 ; CDynamicPoolEx<NEffectUpdateDecorator::CNullDecorator> `RTTI Type Descriptor'
PUBLIC	??_R3?$CDynamicPoolEx@VCNullDecorator@NEffectUpdateDecorator@@@@8 ; CDynamicPoolEx<NEffectUpdateDecorator::CNullDecorator>::`RTTI Class Hierarchy Descriptor'
PUBLIC	??_R2?$CDynamicPoolEx@VCNullDecorator@NEffectUpdateDecorator@@@@8 ; CDynamicPoolEx<NEffectUpdateDecorator::CNullDecorator>::`RTTI Base Class Array'
PUBLIC	??_R1A@?0A@EA@?$CDynamicPoolEx@VCNullDecorator@NEffectUpdateDecorator@@@@8 ; CDynamicPoolEx<NEffectUpdateDecorator::CNullDecorator>::`RTTI Base Class Descriptor at (0,-1,0,64)'
PUBLIC	??_R4?$CDynamicPoolEx@VCTextureAnimationCWDecorator@NEffectUpdateDecorator@@@@6B@ ; CDynamicPoolEx<NEffectUpdateDecorator::CTextureAnimationCWDecorator>::`RTTI Complete Object Locator'
PUBLIC	??_R0?AV?$CDynamicPoolEx@VCTextureAnimationCWDecorator@NEffectUpdateDecorator@@@@@8 ; CDynamicPoolEx<NEffectUpdateDecorator::CTextureAnimationCWDecorator> `RTTI Type Descriptor'
PUBLIC	??_R3?$CDynamicPoolEx@VCTextureAnimationCWDecorator@NEffectUpdateDecorator@@@@8 ; CDynamicPoolEx<NEffectUpdateDecorator::CTextureAnimationCWDecorator>::`RTTI Class Hierarchy Descriptor'
PUBLIC	??_R2?$CDynamicPoolEx@VCTextureAnimationCWDecorator@NEffectUpdateDecorator@@@@8 ; CDynamicPoolEx<NEffectUpdateDecorator::CTextureAnimationCWDecorator>::`RTTI Base Class Array'
PUBLIC	??_R1A@?0A@EA@?$CDynamicPoolEx@VCTextureAnimationCWDecorator@NEffectUpdateDecorator@@@@8 ; CDynamicPoolEx<NEffectUpdateDecorator::CTextureAnimationCWDecorator>::`RTTI Base Class Descriptor at (0,-1,0,64)'
PUBLIC	??_R4?$CDynamicPoolEx@VCTextureAnimationCCWDecorator@NEffectUpdateDecorator@@@@6B@ ; CDynamicPoolEx<NEffectUpdateDecorator::CTextureAnimationCCWDecorator>::`RTTI Complete Object Locator'
PUBLIC	??_R0?AV?$CDynamicPoolEx@VCTextureAnimationCCWDecorator@NEffectUpdateDecorator@@@@@8 ; CDynamicPoolEx<NEffectUpdateDecorator::CTextureAnimationCCWDecorator> `RTTI Type Descriptor'
PUBLIC	??_R3?$CDynamicPoolEx@VCTextureAnimationCCWDecorator@NEffectUpdateDecorator@@@@8 ; CDynamicPoolEx<NEffectUpdateDecorator::CTextureAnimationCCWDecorator>::`RTTI Class Hierarchy Descriptor'
PUBLIC	??_R2?$CDynamicPoolEx@VCTextureAnimationCCWDecorator@NEffectUpdateDecorator@@@@8 ; CDynamicPoolEx<NEffectUpdateDecorator::CTextureAnimationCCWDecorator>::`RTTI Base Class Array'
PUBLIC	??_R1A@?0A@EA@?$CDynamicPoolEx@VCTextureAnimationCCWDecorator@NEffectUpdateDecorator@@@@8 ; CDynamicPoolEx<NEffectUpdateDecorator::CTextureAnimationCCWDecorator>::`RTTI Base Class Descriptor at (0,-1,0,64)'
PUBLIC	??_R4?$CDynamicPoolEx@VCTextureAnimationRandomDecorator@NEffectUpdateDecorator@@@@6B@ ; CDynamicPoolEx<NEffectUpdateDecorator::CTextureAnimationRandomDecorator>::`RTTI Complete Object Locator'
PUBLIC	??_R0?AV?$CDynamicPoolEx@VCTextureAnimationRandomDecorator@NEffectUpdateDecorator@@@@@8 ; CDynamicPoolEx<NEffectUpdateDecorator::CTextureAnimationRandomDecorator> `RTTI Type Descriptor'
PUBLIC	??_R3?$CDynamicPoolEx@VCTextureAnimationRandomDecorator@NEffectUpdateDecorator@@@@8 ; CDynamicPoolEx<NEffectUpdateDecorator::CTextureAnimationRandomDecorator>::`RTTI Class Hierarchy Descriptor'
PUBLIC	??_R2?$CDynamicPoolEx@VCTextureAnimationRandomDecorator@NEffectUpdateDecorator@@@@8 ; CDynamicPoolEx<NEffectUpdateDecorator::CTextureAnimationRandomDecorator>::`RTTI Base Class Array'
PUBLIC	??_R1A@?0A@EA@?$CDynamicPoolEx@VCTextureAnimationRandomDecorator@NEffectUpdateDecorator@@@@8 ; CDynamicPoolEx<NEffectUpdateDecorator::CTextureAnimationRandomDecorator>::`RTTI Base Class Descriptor at (0,-1,0,64)'
PUBLIC	??_R4?$CDynamicPoolEx@VCAirResistanceDecorator@NEffectUpdateDecorator@@@@6B@ ; CDynamicPoolEx<NEffectUpdateDecorator::CAirResistanceDecorator>::`RTTI Complete Object Locator'
PUBLIC	??_R0?AV?$CDynamicPoolEx@VCAirResistanceDecorator@NEffectUpdateDecorator@@@@@8 ; CDynamicPoolEx<NEffectUpdateDecorator::CAirResistanceDecorator> `RTTI Type Descriptor'
PUBLIC	??_R3?$CDynamicPoolEx@VCAirResistanceDecorator@NEffectUpdateDecorator@@@@8 ; CDynamicPoolEx<NEffectUpdateDecorator::CAirResistanceDecorator>::`RTTI Class Hierarchy Descriptor'
PUBLIC	??_R2?$CDynamicPoolEx@VCAirResistanceDecorator@NEffectUpdateDecorator@@@@8 ; CDynamicPoolEx<NEffectUpdateDecorator::CAirResistanceDecorator>::`RTTI Base Class Array'
PUBLIC	??_R1A@?0A@EA@?$CDynamicPoolEx@VCAirResistanceDecorator@NEffectUpdateDecorator@@@@8 ; CDynamicPoolEx<NEffectUpdateDecorator::CAirResistanceDecorator>::`RTTI Base Class Descriptor at (0,-1,0,64)'
PUBLIC	??_R4?$CDynamicPoolEx@VCGravityDecorator@NEffectUpdateDecorator@@@@6B@ ; CDynamicPoolEx<NEffectUpdateDecorator::CGravityDecorator>::`RTTI Complete Object Locator'
PUBLIC	??_R0?AV?$CDynamicPoolEx@VCGravityDecorator@NEffectUpdateDecorator@@@@@8 ; CDynamicPoolEx<NEffectUpdateDecorator::CGravityDecorator> `RTTI Type Descriptor'
PUBLIC	??_R3?$CDynamicPoolEx@VCGravityDecorator@NEffectUpdateDecorator@@@@8 ; CDynamicPoolEx<NEffectUpdateDecorator::CGravityDecorator>::`RTTI Class Hierarchy Descriptor'
PUBLIC	??_R2?$CDynamicPoolEx@VCGravityDecorator@NEffectUpdateDecorator@@@@8 ; CDynamicPoolEx<NEffectUpdateDecorator::CGravityDecorator>::`RTTI Base Class Array'
PUBLIC	??_R1A@?0A@EA@?$CDynamicPoolEx@VCGravityDecorator@NEffectUpdateDecorator@@@@8 ; CDynamicPoolEx<NEffectUpdateDecorator::CGravityDecorator>::`RTTI Base Class Descriptor at (0,-1,0,64)'
PUBLIC	??_R4?$CDynamicPoolEx@VCRotationDecorator@NEffectUpdateDecorator@@@@6B@ ; CDynamicPoolEx<NEffectUpdateDecorator::CRotationDecorator>::`RTTI Complete Object Locator'
PUBLIC	??_R0?AV?$CDynamicPoolEx@VCRotationDecorator@NEffectUpdateDecorator@@@@@8 ; CDynamicPoolEx<NEffectUpdateDecorator::CRotationDecorator> `RTTI Type Descriptor'
PUBLIC	??_R3?$CDynamicPoolEx@VCRotationDecorator@NEffectUpdateDecorator@@@@8 ; CDynamicPoolEx<NEffectUpdateDecorator::CRotationDecorator>::`RTTI Class Hierarchy Descriptor'
PUBLIC	??_R2?$CDynamicPoolEx@VCRotationDecorator@NEffectUpdateDecorator@@@@8 ; CDynamicPoolEx<NEffectUpdateDecorator::CRotationDecorator>::`RTTI Base Class Array'
PUBLIC	??_R1A@?0A@EA@?$CDynamicPoolEx@VCRotationDecorator@NEffectUpdateDecorator@@@@8 ; CDynamicPoolEx<NEffectUpdateDecorator::CRotationDecorator>::`RTTI Base Class Descriptor at (0,-1,0,64)'
PUBLIC	??_R4?$CDynamicPoolEx@V?$CTimeEventDecorator@M@NEffectUpdateDecorator@@@@6B@ ; CDynamicPoolEx<NEffectUpdateDecorator::CTimeEventDecorator<float> >::`RTTI Complete Object Locator'
PUBLIC	??_R0?AV?$CDynamicPoolEx@V?$CTimeEventDecorator@M@NEffectUpdateDecorator@@@@@8 ; CDynamicPoolEx<NEffectUpdateDecorator::CTimeEventDecorator<float> > `RTTI Type Descriptor'
PUBLIC	??_R3?$CDynamicPoolEx@V?$CTimeEventDecorator@M@NEffectUpdateDecorator@@@@8 ; CDynamicPoolEx<NEffectUpdateDecorator::CTimeEventDecorator<float> >::`RTTI Class Hierarchy Descriptor'
PUBLIC	??_R2?$CDynamicPoolEx@V?$CTimeEventDecorator@M@NEffectUpdateDecorator@@@@8 ; CDynamicPoolEx<NEffectUpdateDecorator::CTimeEventDecorator<float> >::`RTTI Base Class Array'
PUBLIC	??_R1A@?0A@EA@?$CDynamicPoolEx@V?$CTimeEventDecorator@M@NEffectUpdateDecorator@@@@8 ; CDynamicPoolEx<NEffectUpdateDecorator::CTimeEventDecorator<float> >::`RTTI Base Class Descriptor at (0,-1,0,64)'
PUBLIC	??_R4?$CDynamicPoolEx@V?$CTimeEventDecorator@UDWORDCOLOR@@@NEffectUpdateDecorator@@@@6B@ ; CDynamicPoolEx<NEffectUpdateDecorator::CTimeEventDecorator<DWORDCOLOR> >::`RTTI Complete Object Locator'
PUBLIC	??_R0?AV?$CDynamicPoolEx@V?$CTimeEventDecorator@UDWORDCOLOR@@@NEffectUpdateDecorator@@@@@8 ; CDynamicPoolEx<NEffectUpdateDecorator::CTimeEventDecorator<DWORDCOLOR> > `RTTI Type Descriptor'
PUBLIC	??_R3?$CDynamicPoolEx@V?$CTimeEventDecorator@UDWORDCOLOR@@@NEffectUpdateDecorator@@@@8 ; CDynamicPoolEx<NEffectUpdateDecorator::CTimeEventDecorator<DWORDCOLOR> >::`RTTI Class Hierarchy Descriptor'
PUBLIC	??_R2?$CDynamicPoolEx@V?$CTimeEventDecorator@UDWORDCOLOR@@@NEffectUpdateDecorator@@@@8 ; CDynamicPoolEx<NEffectUpdateDecorator::CTimeEventDecorator<DWORDCOLOR> >::`RTTI Base Class Array'
PUBLIC	??_R1A@?0A@EA@?$CDynamicPoolEx@V?$CTimeEventDecorator@UDWORDCOLOR@@@NEffectUpdateDecorator@@@@8 ; CDynamicPoolEx<NEffectUpdateDecorator::CTimeEventDecorator<DWORDCOLOR> >::`RTTI Base Class Descriptor at (0,-1,0,64)'
PUBLIC	??_7?$CDynamicPoolEx@V?$CTimeEventDecorator@UDWORDCOLOR@@@NEffectUpdateDecorator@@@@6B@ ; CDynamicPoolEx<NEffectUpdateDecorator::CTimeEventDecorator<DWORDCOLOR> >::`vftable'
PUBLIC	??_G?$CDynamicPoolEx@V?$CTimeEventDecorator@UDWORDCOLOR@@@NEffectUpdateDecorator@@@@UAEPAXI@Z ; CDynamicPoolEx<NEffectUpdateDecorator::CTimeEventDecorator<DWORDCOLOR> >::`scalar deleting destructor'
PUBLIC	??_7?$CDynamicPoolEx@V?$CTimeEventDecorator@M@NEffectUpdateDecorator@@@@6B@ ; CDynamicPoolEx<NEffectUpdateDecorator::CTimeEventDecorator<float> >::`vftable'
PUBLIC	??_G?$CDynamicPoolEx@V?$CTimeEventDecorator@M@NEffectUpdateDecorator@@@@UAEPAXI@Z ; CDynamicPoolEx<NEffectUpdateDecorator::CTimeEventDecorator<float> >::`scalar deleting destructor'
PUBLIC	??_7?$CDynamicPoolEx@VCRotationDecorator@NEffectUpdateDecorator@@@@6B@ ; CDynamicPoolEx<NEffectUpdateDecorator::CRotationDecorator>::`vftable'
PUBLIC	??_G?$CDynamicPoolEx@VCRotationDecorator@NEffectUpdateDecorator@@@@UAEPAXI@Z ; CDynamicPoolEx<NEffectUpdateDecorator::CRotationDecorator>::`scalar deleting destructor'
PUBLIC	??_7?$CDynamicPoolEx@VCGravityDecorator@NEffectUpdateDecorator@@@@6B@ ; CDynamicPoolEx<NEffectUpdateDecorator::CGravityDecorator>::`vftable'
PUBLIC	??_G?$CDynamicPoolEx@VCGravityDecorator@NEffectUpdateDecorator@@@@UAEPAXI@Z ; CDynamicPoolEx<NEffectUpdateDecorator::CGravityDecorator>::`scalar deleting destructor'
PUBLIC	??_7?$CDynamicPoolEx@VCAirResistanceDecorator@NEffectUpdateDecorator@@@@6B@ ; CDynamicPoolEx<NEffectUpdateDecorator::CAirResistanceDecorator>::`vftable'
PUBLIC	??_G?$CDynamicPoolEx@VCAirResistanceDecorator@NEffectUpdateDecorator@@@@UAEPAXI@Z ; CDynamicPoolEx<NEffectUpdateDecorator::CAirResistanceDecorator>::`scalar deleting destructor'
PUBLIC	??_7?$CDynamicPoolEx@VCTextureAnimationRandomDecorator@NEffectUpdateDecorator@@@@6B@ ; CDynamicPoolEx<NEffectUpdateDecorator::CTextureAnimationRandomDecorator>::`vftable'
PUBLIC	??_G?$CDynamicPoolEx@VCTextureAnimationRandomDecorator@NEffectUpdateDecorator@@@@UAEPAXI@Z ; CDynamicPoolEx<NEffectUpdateDecorator::CTextureAnimationRandomDecorator>::`scalar deleting destructor'
PUBLIC	??_7?$CDynamicPoolEx@VCTextureAnimationCCWDecorator@NEffectUpdateDecorator@@@@6B@ ; CDynamicPoolEx<NEffectUpdateDecorator::CTextureAnimationCCWDecorator>::`vftable'
PUBLIC	??_G?$CDynamicPoolEx@VCTextureAnimationCCWDecorator@NEffectUpdateDecorator@@@@UAEPAXI@Z ; CDynamicPoolEx<NEffectUpdateDecorator::CTextureAnimationCCWDecorator>::`scalar deleting destructor'
PUBLIC	??_7?$CDynamicPoolEx@VCTextureAnimationCWDecorator@NEffectUpdateDecorator@@@@6B@ ; CDynamicPoolEx<NEffectUpdateDecorator::CTextureAnimationCWDecorator>::`vftable'
PUBLIC	??_G?$CDynamicPoolEx@VCTextureAnimationCWDecorator@NEffectUpdateDecorator@@@@UAEPAXI@Z ; CDynamicPoolEx<NEffectUpdateDecorator::CTextureAnimationCWDecorator>::`scalar deleting destructor'
PUBLIC	??_7?$CDynamicPoolEx@VCNullDecorator@NEffectUpdateDecorator@@@@6B@ ; CDynamicPoolEx<NEffectUpdateDecorator::CNullDecorator>::`vftable'
PUBLIC	??_G?$CDynamicPoolEx@VCNullDecorator@NEffectUpdateDecorator@@@@UAEPAXI@Z ; CDynamicPoolEx<NEffectUpdateDecorator::CNullDecorator>::`scalar deleting destructor'
PUBLIC	??_7?$CDynamicPool@VCParticleSystemData@@@@6B@	; CDynamicPool<CParticleSystemData>::`vftable'
PUBLIC	??_G?$CDynamicPool@VCParticleSystemData@@@@UAEPAXI@Z ; CDynamicPool<CParticleSystemData>::`scalar deleting destructor'
PUBLIC	??_7?$CDynamicPoolEx@VCHeaderDecorator@NEffectUpdateDecorator@@@@6B@ ; CDynamicPoolEx<NEffectUpdateDecorator::CHeaderDecorator>::`vftable'
PUBLIC	??_G?$CDynamicPoolEx@VCHeaderDecorator@NEffectUpdateDecorator@@@@UAEPAXI@Z ; CDynamicPoolEx<NEffectUpdateDecorator::CHeaderDecorator>::`scalar deleting destructor'
EXTRN	??_7type_info@@6B@:QWORD			; type_info::`vftable'
EXTRN	??_E?$CDynamicPoolEx@V?$CTimeEventDecorator@UDWORDCOLOR@@@NEffectUpdateDecorator@@@@UAEPAXI@Z:PROC ; CDynamicPoolEx<NEffectUpdateDecorator::CTimeEventDecorator<DWORDCOLOR> >::`vector deleting destructor'
EXTRN	??_E?$CDynamicPoolEx@V?$CTimeEventDecorator@M@NEffectUpdateDecorator@@@@UAEPAXI@Z:PROC ; CDynamicPoolEx<NEffectUpdateDecorator::CTimeEventDecorator<float> >::`vector deleting destructor'
EXTRN	??_E?$CDynamicPoolEx@VCRotationDecorator@NEffectUpdateDecorator@@@@UAEPAXI@Z:PROC ; CDynamicPoolEx<NEffectUpdateDecorator::CRotationDecorator>::`vector deleting destructor'
EXTRN	??_E?$CDynamicPoolEx@VCGravityDecorator@NEffectUpdateDecorator@@@@UAEPAXI@Z:PROC ; CDynamicPoolEx<NEffectUpdateDecorator::CGravityDecorator>::`vector deleting destructor'
EXTRN	??_E?$CDynamicPoolEx@VCAirResistanceDecorator@NEffectUpdateDecorator@@@@UAEPAXI@Z:PROC ; CDynamicPoolEx<NEffectUpdateDecorator::CAirResistanceDecorator>::`vector deleting destructor'
EXTRN	??_E?$CDynamicPoolEx@VCTextureAnimationRandomDecorator@NEffectUpdateDecorator@@@@UAEPAXI@Z:PROC ; CDynamicPoolEx<NEffectUpdateDecorator::CTextureAnimationRandomDecorator>::`vector deleting destructor'
EXTRN	??_E?$CDynamicPoolEx@VCTextureAnimationCCWDecorator@NEffectUpdateDecorator@@@@UAEPAXI@Z:PROC ; CDynamicPoolEx<NEffectUpdateDecorator::CTextureAnimationCCWDecorator>::`vector deleting destructor'
EXTRN	??_E?$CDynamicPoolEx@VCTextureAnimationCWDecorator@NEffectUpdateDecorator@@@@UAEPAXI@Z:PROC ; CDynamicPoolEx<NEffectUpdateDecorator::CTextureAnimationCWDecorator>::`vector deleting destructor'
EXTRN	??_E?$CDynamicPoolEx@VCNullDecorator@NEffectUpdateDecorator@@@@UAEPAXI@Z:PROC ; CDynamicPoolEx<NEffectUpdateDecorator::CNullDecorator>::`vector deleting destructor'
EXTRN	??_E?$CDynamicPool@VCParticleSystemData@@@@UAEPAXI@Z:PROC ; CDynamicPool<CParticleSystemData>::`vector deleting destructor'
EXTRN	??_E?$CDynamicPoolEx@VCHeaderDecorator@NEffectUpdateDecorator@@@@UAEPAXI@Z:PROC ; CDynamicPoolEx<NEffectUpdateDecorator::CHeaderDecorator>::`vector deleting destructor'
;	COMDAT ??_7?$CDynamicPoolEx@VCHeaderDecorator@NEffectUpdateDecorator@@@@6B@
CONST	SEGMENT
??_7?$CDynamicPoolEx@VCHeaderDecorator@NEffectUpdateDecorator@@@@6B@ DD FLAT:??_R4?$CDynamicPoolEx@VCHeaderDecorator@NEffectUpdateDecorator@@@@6B@ ; CDynamicPoolEx<NEffectUpdateDecorator::CHeaderDecorator>::`vftable'
	DD	FLAT:??_E?$CDynamicPoolEx@VCHeaderDecorator@NEffectUpdateDecorator@@@@UAEPAXI@Z
CONST	ENDS
;	COMDAT ??_7?$CDynamicPool@VCParticleSystemData@@@@6B@
CONST	SEGMENT
??_7?$CDynamicPool@VCParticleSystemData@@@@6B@ DD FLAT:??_R4?$CDynamicPool@VCParticleSystemData@@@@6B@ ; CDynamicPool<CParticleSystemData>::`vftable'
	DD	FLAT:??_E?$CDynamicPool@VCParticleSystemData@@@@UAEPAXI@Z
CONST	ENDS
;	COMDAT ??_7?$CDynamicPoolEx@VCNullDecorator@NEffectUpdateDecorator@@@@6B@
CONST	SEGMENT
??_7?$CDynamicPoolEx@VCNullDecorator@NEffectUpdateDecorator@@@@6B@ DD FLAT:??_R4?$CDynamicPoolEx@VCNullDecorator@NEffectUpdateDecorator@@@@6B@ ; CDynamicPoolEx<NEffectUpdateDecorator::CNullDecorator>::`vftable'
	DD	FLAT:??_E?$CDynamicPoolEx@VCNullDecorator@NEffectUpdateDecorator@@@@UAEPAXI@Z
CONST	ENDS
;	COMDAT ??_7?$CDynamicPoolEx@VCTextureAnimationCWDecorator@NEffectUpdateDecorator@@@@6B@
CONST	SEGMENT
??_7?$CDynamicPoolEx@VCTextureAnimationCWDecorator@NEffectUpdateDecorator@@@@6B@ DD FLAT:??_R4?$CDynamicPoolEx@VCTextureAnimationCWDecorator@NEffectUpdateDecorator@@@@6B@ ; CDynamicPoolEx<NEffectUpdateDecorator::CTextureAnimationCWDecorator>::`vftable'
	DD	FLAT:??_E?$CDynamicPoolEx@VCTextureAnimationCWDecorator@NEffectUpdateDecorator@@@@UAEPAXI@Z
CONST	ENDS
;	COMDAT ??_7?$CDynamicPoolEx@VCTextureAnimationCCWDecorator@NEffectUpdateDecorator@@@@6B@
CONST	SEGMENT
??_7?$CDynamicPoolEx@VCTextureAnimationCCWDecorator@NEffectUpdateDecorator@@@@6B@ DD FLAT:??_R4?$CDynamicPoolEx@VCTextureAnimationCCWDecorator@NEffectUpdateDecorator@@@@6B@ ; CDynamicPoolEx<NEffectUpdateDecorator::CTextureAnimationCCWDecorator>::`vftable'
	DD	FLAT:??_E?$CDynamicPoolEx@VCTextureAnimationCCWDecorator@NEffectUpdateDecorator@@@@UAEPAXI@Z
CONST	ENDS
;	COMDAT ??_7?$CDynamicPoolEx@VCTextureAnimationRandomDecorator@NEffectUpdateDecorator@@@@6B@
CONST	SEGMENT
??_7?$CDynamicPoolEx@VCTextureAnimationRandomDecorator@NEffectUpdateDecorator@@@@6B@ DD FLAT:??_R4?$CDynamicPoolEx@VCTextureAnimationRandomDecorator@NEffectUpdateDecorator@@@@6B@ ; CDynamicPoolEx<NEffectUpdateDecorator::CTextureAnimationRandomDecorator>::`vftable'
	DD	FLAT:??_E?$CDynamicPoolEx@VCTextureAnimationRandomDecorator@NEffectUpdateDecorator@@@@UAEPAXI@Z
CONST	ENDS
;	COMDAT ??_7?$CDynamicPoolEx@VCAirResistanceDecorator@NEffectUpdateDecorator@@@@6B@
CONST	SEGMENT
??_7?$CDynamicPoolEx@VCAirResistanceDecorator@NEffectUpdateDecorator@@@@6B@ DD FLAT:??_R4?$CDynamicPoolEx@VCAirResistanceDecorator@NEffectUpdateDecorator@@@@6B@ ; CDynamicPoolEx<NEffectUpdateDecorator::CAirResistanceDecorator>::`vftable'
	DD	FLAT:??_E?$CDynamicPoolEx@VCAirResistanceDecorator@NEffectUpdateDecorator@@@@UAEPAXI@Z
CONST	ENDS
CONST	SEGMENT
?_Fake_alloc@std@@3U_Fake_allocator@1@B	ORG $+1		; std::_Fake_alloc
CONST	ENDS
;	COMDAT ??_7?$CDynamicPoolEx@VCGravityDecorator@NEffectUpdateDecorator@@@@6B@
CONST	SEGMENT
??_7?$CDynamicPoolEx@VCGravityDecorator@NEffectUpdateDecorator@@@@6B@ DD FLAT:??_R4?$CDynamicPoolEx@VCGravityDecorator@NEffectUpdateDecorator@@@@6B@ ; CDynamicPoolEx<NEffectUpdateDecorator::CGravityDecorator>::`vftable'
	DD	FLAT:??_E?$CDynamicPoolEx@VCGravityDecorator@NEffectUpdateDecorator@@@@UAEPAXI@Z
CONST	ENDS
;	COMDAT ??_7?$CDynamicPoolEx@VCRotationDecorator@NEffectUpdateDecorator@@@@6B@
CONST	SEGMENT
??_7?$CDynamicPoolEx@VCRotationDecorator@NEffectUpdateDecorator@@@@6B@ DD FLAT:??_R4?$CDynamicPoolEx@VCRotationDecorator@NEffectUpdateDecorator@@@@6B@ ; CDynamicPoolEx<NEffectUpdateDecorator::CRotationDecorator>::`vftable'
	DD	FLAT:??_E?$CDynamicPoolEx@VCRotationDecorator@NEffectUpdateDecorator@@@@UAEPAXI@Z
CONST	ENDS
;	COMDAT ??_7?$CDynamicPoolEx@V?$CTimeEventDecorator@M@NEffectUpdateDecorator@@@@6B@
CONST	SEGMENT
??_7?$CDynamicPoolEx@V?$CTimeEventDecorator@M@NEffectUpdateDecorator@@@@6B@ DD FLAT:??_R4?$CDynamicPoolEx@V?$CTimeEventDecorator@M@NEffectUpdateDecorator@@@@6B@ ; CDynamicPoolEx<NEffectUpdateDecorator::CTimeEventDecorator<float> >::`vftable'
	DD	FLAT:??_E?$CDynamicPoolEx@V?$CTimeEventDecorator@M@NEffectUpdateDecorator@@@@UAEPAXI@Z
CONST	ENDS
;	COMDAT ??_7?$CDynamicPoolEx@V?$CTimeEventDecorator@UDWORDCOLOR@@@NEffectUpdateDecorator@@@@6B@
CONST	SEGMENT
??_7?$CDynamicPoolEx@V?$CTimeEventDecorator@UDWORDCOLOR@@@NEffectUpdateDecorator@@@@6B@ DD FLAT:??_R4?$CDynamicPoolEx@V?$CTimeEventDecorator@UDWORDCOLOR@@@NEffectUpdateDecorator@@@@6B@ ; CDynamicPoolEx<NEffectUpdateDecorator::CTimeEventDecorator<DWORDCOLOR> >::`vftable'
	DD	FLAT:??_E?$CDynamicPoolEx@V?$CTimeEventDecorator@UDWORDCOLOR@@@NEffectUpdateDecorator@@@@UAEPAXI@Z
CONST	ENDS
;	COMDAT ??_R1A@?0A@EA@?$CDynamicPoolEx@V?$CTimeEventDecorator@UDWORDCOLOR@@@NEffectUpdateDecorator@@@@8
rdata$r	SEGMENT
??_R1A@?0A@EA@?$CDynamicPoolEx@V?$CTimeEventDecorator@UDWORDCOLOR@@@NEffectUpdateDecorator@@@@8 DD FLAT:??_R0?AV?$CDynamicPoolEx@V?$CTimeEventDecorator@UDWORDCOLOR@@@NEffectUpdateDecorator@@@@@8 ; CDynamicPoolEx<NEffectUpdateDecorator::CTimeEventDecorator<DWORDCOLOR> >::`RTTI Base Class Descriptor at (0,-1,0,64)'
	DD	00H
	DD	00H
	DD	0ffffffffH
	DD	00H
	DD	040H
	DD	FLAT:??_R3?$CDynamicPoolEx@V?$CTimeEventDecorator@UDWORDCOLOR@@@NEffectUpdateDecorator@@@@8
rdata$r	ENDS
;	COMDAT ??_R2?$CDynamicPoolEx@V?$CTimeEventDecorator@UDWORDCOLOR@@@NEffectUpdateDecorator@@@@8
rdata$r	SEGMENT
??_R2?$CDynamicPoolEx@V?$CTimeEventDecorator@UDWORDCOLOR@@@NEffectUpdateDecorator@@@@8 DD FLAT:??_R1A@?0A@EA@?$CDynamicPoolEx@V?$CTimeEventDecorator@UDWORDCOLOR@@@NEffectUpdateDecorator@@@@8 ; CDynamicPoolEx<NEffectUpdateDecorator::CTimeEventDecorator<DWORDCOLOR> >::`RTTI Base Class Array'
rdata$r	ENDS
;	COMDAT ??_R3?$CDynamicPoolEx@V?$CTimeEventDecorator@UDWORDCOLOR@@@NEffectUpdateDecorator@@@@8
rdata$r	SEGMENT
??_R3?$CDynamicPoolEx@V?$CTimeEventDecorator@UDWORDCOLOR@@@NEffectUpdateDecorator@@@@8 DD 00H ; CDynamicPoolEx<NEffectUpdateDecorator::CTimeEventDecorator<DWORDCOLOR> >::`RTTI Class Hierarchy Descriptor'
	DD	00H
	DD	01H
	DD	FLAT:??_R2?$CDynamicPoolEx@V?$CTimeEventDecorator@UDWORDCOLOR@@@NEffectUpdateDecorator@@@@8
rdata$r	ENDS
;	COMDAT ??_R0?AV?$CDynamicPoolEx@V?$CTimeEventDecorator@UDWORDCOLOR@@@NEffectUpdateDecorator@@@@@8
data$rs	SEGMENT
??_R0?AV?$CDynamicPoolEx@V?$CTimeEventDecorator@UDWORDCOLOR@@@NEffectUpdateDecorator@@@@@8 DD FLAT:??_7type_info@@6B@ ; CDynamicPoolEx<NEffectUpdateDecorator::CTimeEventDecorator<DWORDCOLOR> > `RTTI Type Descriptor'
	DD	00H
	DB	'.?AV?$CDynamicPoolEx@V?$CTimeEventDecorator@UDWORDCOLOR@'
	DB	'@@NEffectUpdateDecorator@@@@', 00H
data$rs	ENDS
;	COMDAT ??_R4?$CDynamicPoolEx@V?$CTimeEventDecorator@UDWORDCOLOR@@@NEffectUpdateDecorator@@@@6B@
rdata$r	SEGMENT
??_R4?$CDynamicPoolEx@V?$CTimeEventDecorator@UDWORDCOLOR@@@NEffectUpdateDecorator@@@@6B@ DD 00H ; CDynamicPoolEx<NEffectUpdateDecorator::CTimeEventDecorator<DWORDCOLOR> >::`RTTI Complete Object Locator'
	DD	00H
	DD	00H
	DD	FLAT:??_R0?AV?$CDynamicPoolEx@V?$CTimeEventDecorator@UDWORDCOLOR@@@NEffectUpdateDecorator@@@@@8
	DD	FLAT:??_R3?$CDynamicPoolEx@V?$CTimeEventDecorator@UDWORDCOLOR@@@NEffectUpdateDecorator@@@@8
rdata$r	ENDS
;	COMDAT ??_R1A@?0A@EA@?$CDynamicPoolEx@V?$CTimeEventDecorator@M@NEffectUpdateDecorator@@@@8
rdata$r	SEGMENT
??_R1A@?0A@EA@?$CDynamicPoolEx@V?$CTimeEventDecorator@M@NEffectUpdateDecorator@@@@8 DD FLAT:??_R0?AV?$CDynamicPoolEx@V?$CTimeEventDecorator@M@NEffectUpdateDecorator@@@@@8 ; CDynamicPoolEx<NEffectUpdateDecorator::CTimeEventDecorator<float> >::`RTTI Base Class Descriptor at (0,-1,0,64)'
	DD	00H
	DD	00H
	DD	0ffffffffH
	DD	00H
	DD	040H
	DD	FLAT:??_R3?$CDynamicPoolEx@V?$CTimeEventDecorator@M@NEffectUpdateDecorator@@@@8
rdata$r	ENDS
;	COMDAT ??_R2?$CDynamicPoolEx@V?$CTimeEventDecorator@M@NEffectUpdateDecorator@@@@8
rdata$r	SEGMENT
??_R2?$CDynamicPoolEx@V?$CTimeEventDecorator@M@NEffectUpdateDecorator@@@@8 DD FLAT:??_R1A@?0A@EA@?$CDynamicPoolEx@V?$CTimeEventDecorator@M@NEffectUpdateDecorator@@@@8 ; CDynamicPoolEx<NEffectUpdateDecorator::CTimeEventDecorator<float> >::`RTTI Base Class Array'
rdata$r	ENDS
;	COMDAT ??_R3?$CDynamicPoolEx@V?$CTimeEventDecorator@M@NEffectUpdateDecorator@@@@8
rdata$r	SEGMENT
??_R3?$CDynamicPoolEx@V?$CTimeEventDecorator@M@NEffectUpdateDecorator@@@@8 DD 00H ; CDynamicPoolEx<NEffectUpdateDecorator::CTimeEventDecorator<float> >::`RTTI Class Hierarchy Descriptor'
	DD	00H
	DD	01H
	DD	FLAT:??_R2?$CDynamicPoolEx@V?$CTimeEventDecorator@M@NEffectUpdateDecorator@@@@8
rdata$r	ENDS
;	COMDAT ??_R0?AV?$CDynamicPoolEx@V?$CTimeEventDecorator@M@NEffectUpdateDecorator@@@@@8
data$rs	SEGMENT
??_R0?AV?$CDynamicPoolEx@V?$CTimeEventDecorator@M@NEffectUpdateDecorator@@@@@8 DD FLAT:??_7type_info@@6B@ ; CDynamicPoolEx<NEffectUpdateDecorator::CTimeEventDecorator<float> > `RTTI Type Descriptor'
	DD	00H
	DB	'.?AV?$CDynamicPoolEx@V?$CTimeEventDecorator@M@NEffectUpd'
	DB	'ateDecorator@@@@', 00H
data$rs	ENDS
;	COMDAT ??_R4?$CDynamicPoolEx@V?$CTimeEventDecorator@M@NEffectUpdateDecorator@@@@6B@
rdata$r	SEGMENT
??_R4?$CDynamicPoolEx@V?$CTimeEventDecorator@M@NEffectUpdateDecorator@@@@6B@ DD 00H ; CDynamicPoolEx<NEffectUpdateDecorator::CTimeEventDecorator<float> >::`RTTI Complete Object Locator'
	DD	00H
	DD	00H
	DD	FLAT:??_R0?AV?$CDynamicPoolEx@V?$CTimeEventDecorator@M@NEffectUpdateDecorator@@@@@8
	DD	FLAT:??_R3?$CDynamicPoolEx@V?$CTimeEventDecorator@M@NEffectUpdateDecorator@@@@8
rdata$r	ENDS
;	COMDAT ??_R1A@?0A@EA@?$CDynamicPoolEx@VCRotationDecorator@NEffectUpdateDecorator@@@@8
rdata$r	SEGMENT
??_R1A@?0A@EA@?$CDynamicPoolEx@VCRotationDecorator@NEffectUpdateDecorator@@@@8 DD FLAT:??_R0?AV?$CDynamicPoolEx@VCRotationDecorator@NEffectUpdateDecorator@@@@@8 ; CDynamicPoolEx<NEffectUpdateDecorator::CRotationDecorator>::`RTTI Base Class Descriptor at (0,-1,0,64)'
	DD	00H
	DD	00H
	DD	0ffffffffH
	DD	00H
	DD	040H
	DD	FLAT:??_R3?$CDynamicPoolEx@VCRotationDecorator@NEffectUpdateDecorator@@@@8
rdata$r	ENDS
;	COMDAT ??_R2?$CDynamicPoolEx@VCRotationDecorator@NEffectUpdateDecorator@@@@8
rdata$r	SEGMENT
??_R2?$CDynamicPoolEx@VCRotationDecorator@NEffectUpdateDecorator@@@@8 DD FLAT:??_R1A@?0A@EA@?$CDynamicPoolEx@VCRotationDecorator@NEffectUpdateDecorator@@@@8 ; CDynamicPoolEx<NEffectUpdateDecorator::CRotationDecorator>::`RTTI Base Class Array'
rdata$r	ENDS
;	COMDAT ??_R3?$CDynamicPoolEx@VCRotationDecorator@NEffectUpdateDecorator@@@@8
rdata$r	SEGMENT
??_R3?$CDynamicPoolEx@VCRotationDecorator@NEffectUpdateDecorator@@@@8 DD 00H ; CDynamicPoolEx<NEffectUpdateDecorator::CRotationDecorator>::`RTTI Class Hierarchy Descriptor'
	DD	00H
	DD	01H
	DD	FLAT:??_R2?$CDynamicPoolEx@VCRotationDecorator@NEffectUpdateDecorator@@@@8
rdata$r	ENDS
;	COMDAT ??_R0?AV?$CDynamicPoolEx@VCRotationDecorator@NEffectUpdateDecorator@@@@@8
data$rs	SEGMENT
??_R0?AV?$CDynamicPoolEx@VCRotationDecorator@NEffectUpdateDecorator@@@@@8 DD FLAT:??_7type_info@@6B@ ; CDynamicPoolEx<NEffectUpdateDecorator::CRotationDecorator> `RTTI Type Descriptor'
	DD	00H
	DB	'.?AV?$CDynamicPoolEx@VCRotationDecorator@NEffectUpdateDe'
	DB	'corator@@@@', 00H
data$rs	ENDS
;	COMDAT ??_R4?$CDynamicPoolEx@VCRotationDecorator@NEffectUpdateDecorator@@@@6B@
rdata$r	SEGMENT
??_R4?$CDynamicPoolEx@VCRotationDecorator@NEffectUpdateDecorator@@@@6B@ DD 00H ; CDynamicPoolEx<NEffectUpdateDecorator::CRotationDecorator>::`RTTI Complete Object Locator'
	DD	00H
	DD	00H
	DD	FLAT:??_R0?AV?$CDynamicPoolEx@VCRotationDecorator@NEffectUpdateDecorator@@@@@8
	DD	FLAT:??_R3?$CDynamicPoolEx@VCRotationDecorator@NEffectUpdateDecorator@@@@8
rdata$r	ENDS
;	COMDAT ??_R1A@?0A@EA@?$CDynamicPoolEx@VCGravityDecorator@NEffectUpdateDecorator@@@@8
rdata$r	SEGMENT
??_R1A@?0A@EA@?$CDynamicPoolEx@VCGravityDecorator@NEffectUpdateDecorator@@@@8 DD FLAT:??_R0?AV?$CDynamicPoolEx@VCGravityDecorator@NEffectUpdateDecorator@@@@@8 ; CDynamicPoolEx<NEffectUpdateDecorator::CGravityDecorator>::`RTTI Base Class Descriptor at (0,-1,0,64)'
	DD	00H
	DD	00H
	DD	0ffffffffH
	DD	00H
	DD	040H
	DD	FLAT:??_R3?$CDynamicPoolEx@VCGravityDecorator@NEffectUpdateDecorator@@@@8
rdata$r	ENDS
;	COMDAT ??_R2?$CDynamicPoolEx@VCGravityDecorator@NEffectUpdateDecorator@@@@8
rdata$r	SEGMENT
??_R2?$CDynamicPoolEx@VCGravityDecorator@NEffectUpdateDecorator@@@@8 DD FLAT:??_R1A@?0A@EA@?$CDynamicPoolEx@VCGravityDecorator@NEffectUpdateDecorator@@@@8 ; CDynamicPoolEx<NEffectUpdateDecorator::CGravityDecorator>::`RTTI Base Class Array'
rdata$r	ENDS
;	COMDAT ??_R3?$CDynamicPoolEx@VCGravityDecorator@NEffectUpdateDecorator@@@@8
rdata$r	SEGMENT
??_R3?$CDynamicPoolEx@VCGravityDecorator@NEffectUpdateDecorator@@@@8 DD 00H ; CDynamicPoolEx<NEffectUpdateDecorator::CGravityDecorator>::`RTTI Class Hierarchy Descriptor'
	DD	00H
	DD	01H
	DD	FLAT:??_R2?$CDynamicPoolEx@VCGravityDecorator@NEffectUpdateDecorator@@@@8
rdata$r	ENDS
;	COMDAT ??_R0?AV?$CDynamicPoolEx@VCGravityDecorator@NEffectUpdateDecorator@@@@@8
data$rs	SEGMENT
??_R0?AV?$CDynamicPoolEx@VCGravityDecorator@NEffectUpdateDecorator@@@@@8 DD FLAT:??_7type_info@@6B@ ; CDynamicPoolEx<NEffectUpdateDecorator::CGravityDecorator> `RTTI Type Descriptor'
	DD	00H
	DB	'.?AV?$CDynamicPoolEx@VCGravityDecorator@NEffectUpdateDec'
	DB	'orator@@@@', 00H
data$rs	ENDS
;	COMDAT ??_R4?$CDynamicPoolEx@VCGravityDecorator@NEffectUpdateDecorator@@@@6B@
rdata$r	SEGMENT
??_R4?$CDynamicPoolEx@VCGravityDecorator@NEffectUpdateDecorator@@@@6B@ DD 00H ; CDynamicPoolEx<NEffectUpdateDecorator::CGravityDecorator>::`RTTI Complete Object Locator'
	DD	00H
	DD	00H
	DD	FLAT:??_R0?AV?$CDynamicPoolEx@VCGravityDecorator@NEffectUpdateDecorator@@@@@8
	DD	FLAT:??_R3?$CDynamicPoolEx@VCGravityDecorator@NEffectUpdateDecorator@@@@8
rdata$r	ENDS
;	COMDAT ??_R1A@?0A@EA@?$CDynamicPoolEx@VCAirResistanceDecorator@NEffectUpdateDecorator@@@@8
rdata$r	SEGMENT
??_R1A@?0A@EA@?$CDynamicPoolEx@VCAirResistanceDecorator@NEffectUpdateDecorator@@@@8 DD FLAT:??_R0?AV?$CDynamicPoolEx@VCAirResistanceDecorator@NEffectUpdateDecorator@@@@@8 ; CDynamicPoolEx<NEffectUpdateDecorator::CAirResistanceDecorator>::`RTTI Base Class Descriptor at (0,-1,0,64)'
	DD	00H
	DD	00H
	DD	0ffffffffH
	DD	00H
	DD	040H
	DD	FLAT:??_R3?$CDynamicPoolEx@VCAirResistanceDecorator@NEffectUpdateDecorator@@@@8
rdata$r	ENDS
;	COMDAT ??_R2?$CDynamicPoolEx@VCAirResistanceDecorator@NEffectUpdateDecorator@@@@8
rdata$r	SEGMENT
??_R2?$CDynamicPoolEx@VCAirResistanceDecorator@NEffectUpdateDecorator@@@@8 DD FLAT:??_R1A@?0A@EA@?$CDynamicPoolEx@VCAirResistanceDecorator@NEffectUpdateDecorator@@@@8 ; CDynamicPoolEx<NEffectUpdateDecorator::CAirResistanceDecorator>::`RTTI Base Class Array'
rdata$r	ENDS
;	COMDAT ??_R3?$CDynamicPoolEx@VCAirResistanceDecorator@NEffectUpdateDecorator@@@@8
rdata$r	SEGMENT
??_R3?$CDynamicPoolEx@VCAirResistanceDecorator@NEffectUpdateDecorator@@@@8 DD 00H ; CDynamicPoolEx<NEffectUpdateDecorator::CAirResistanceDecorator>::`RTTI Class Hierarchy Descriptor'
	DD	00H
	DD	01H
	DD	FLAT:??_R2?$CDynamicPoolEx@VCAirResistanceDecorator@NEffectUpdateDecorator@@@@8
rdata$r	ENDS
;	COMDAT ??_R0?AV?$CDynamicPoolEx@VCAirResistanceDecorator@NEffectUpdateDecorator@@@@@8
data$rs	SEGMENT
??_R0?AV?$CDynamicPoolEx@VCAirResistanceDecorator@NEffectUpdateDecorator@@@@@8 DD FLAT:??_7type_info@@6B@ ; CDynamicPoolEx<NEffectUpdateDecorator::CAirResistanceDecorator> `RTTI Type Descriptor'
	DD	00H
	DB	'.?AV?$CDynamicPoolEx@VCAirResistanceDecorator@NEffectUpd'
	DB	'ateDecorator@@@@', 00H
data$rs	ENDS
;	COMDAT ??_R4?$CDynamicPoolEx@VCAirResistanceDecorator@NEffectUpdateDecorator@@@@6B@
rdata$r	SEGMENT
??_R4?$CDynamicPoolEx@VCAirResistanceDecorator@NEffectUpdateDecorator@@@@6B@ DD 00H ; CDynamicPoolEx<NEffectUpdateDecorator::CAirResistanceDecorator>::`RTTI Complete Object Locator'
	DD	00H
	DD	00H
	DD	FLAT:??_R0?AV?$CDynamicPoolEx@VCAirResistanceDecorator@NEffectUpdateDecorator@@@@@8
	DD	FLAT:??_R3?$CDynamicPoolEx@VCAirResistanceDecorator@NEffectUpdateDecorator@@@@8
rdata$r	ENDS
;	COMDAT ??_R1A@?0A@EA@?$CDynamicPoolEx@VCTextureAnimationRandomDecorator@NEffectUpdateDecorator@@@@8
rdata$r	SEGMENT
??_R1A@?0A@EA@?$CDynamicPoolEx@VCTextureAnimationRandomDecorator@NEffectUpdateDecorator@@@@8 DD FLAT:??_R0?AV?$CDynamicPoolEx@VCTextureAnimationRandomDecorator@NEffectUpdateDecorator@@@@@8 ; CDynamicPoolEx<NEffectUpdateDecorator::CTextureAnimationRandomDecorator>::`RTTI Base Class Descriptor at (0,-1,0,64)'
	DD	00H
	DD	00H
	DD	0ffffffffH
	DD	00H
	DD	040H
	DD	FLAT:??_R3?$CDynamicPoolEx@VCTextureAnimationRandomDecorator@NEffectUpdateDecorator@@@@8
rdata$r	ENDS
;	COMDAT ??_R2?$CDynamicPoolEx@VCTextureAnimationRandomDecorator@NEffectUpdateDecorator@@@@8
rdata$r	SEGMENT
??_R2?$CDynamicPoolEx@VCTextureAnimationRandomDecorator@NEffectUpdateDecorator@@@@8 DD FLAT:??_R1A@?0A@EA@?$CDynamicPoolEx@VCTextureAnimationRandomDecorator@NEffectUpdateDecorator@@@@8 ; CDynamicPoolEx<NEffectUpdateDecorator::CTextureAnimationRandomDecorator>::`RTTI Base Class Array'
rdata$r	ENDS
;	COMDAT ??_R3?$CDynamicPoolEx@VCTextureAnimationRandomDecorator@NEffectUpdateDecorator@@@@8
rdata$r	SEGMENT
??_R3?$CDynamicPoolEx@VCTextureAnimationRandomDecorator@NEffectUpdateDecorator@@@@8 DD 00H ; CDynamicPoolEx<NEffectUpdateDecorator::CTextureAnimationRandomDecorator>::`RTTI Class Hierarchy Descriptor'
	DD	00H
	DD	01H
	DD	FLAT:??_R2?$CDynamicPoolEx@VCTextureAnimationRandomDecorator@NEffectUpdateDecorator@@@@8
rdata$r	ENDS
;	COMDAT ??_R0?AV?$CDynamicPoolEx@VCTextureAnimationRandomDecorator@NEffectUpdateDecorator@@@@@8
data$rs	SEGMENT
??_R0?AV?$CDynamicPoolEx@VCTextureAnimationRandomDecorator@NEffectUpdateDecorator@@@@@8 DD FLAT:??_7type_info@@6B@ ; CDynamicPoolEx<NEffectUpdateDecorator::CTextureAnimationRandomDecorator> `RTTI Type Descriptor'
	DD	00H
	DB	'.?AV?$CDynamicPoolEx@VCTextureAnimationRandomDecorator@N'
	DB	'EffectUpdateDecorator@@@@', 00H
data$rs	ENDS
;	COMDAT ??_R4?$CDynamicPoolEx@VCTextureAnimationRandomDecorator@NEffectUpdateDecorator@@@@6B@
rdata$r	SEGMENT
??_R4?$CDynamicPoolEx@VCTextureAnimationRandomDecorator@NEffectUpdateDecorator@@@@6B@ DD 00H ; CDynamicPoolEx<NEffectUpdateDecorator::CTextureAnimationRandomDecorator>::`RTTI Complete Object Locator'
	DD	00H
	DD	00H
	DD	FLAT:??_R0?AV?$CDynamicPoolEx@VCTextureAnimationRandomDecorator@NEffectUpdateDecorator@@@@@8
	DD	FLAT:??_R3?$CDynamicPoolEx@VCTextureAnimationRandomDecorator@NEffectUpdateDecorator@@@@8
rdata$r	ENDS
;	COMDAT ??_R1A@?0A@EA@?$CDynamicPoolEx@VCTextureAnimationCCWDecorator@NEffectUpdateDecorator@@@@8
rdata$r	SEGMENT
??_R1A@?0A@EA@?$CDynamicPoolEx@VCTextureAnimationCCWDecorator@NEffectUpdateDecorator@@@@8 DD FLAT:??_R0?AV?$CDynamicPoolEx@VCTextureAnimationCCWDecorator@NEffectUpdateDecorator@@@@@8 ; CDynamicPoolEx<NEffectUpdateDecorator::CTextureAnimationCCWDecorator>::`RTTI Base Class Descriptor at (0,-1,0,64)'
	DD	00H
	DD	00H
	DD	0ffffffffH
	DD	00H
	DD	040H
	DD	FLAT:??_R3?$CDynamicPoolEx@VCTextureAnimationCCWDecorator@NEffectUpdateDecorator@@@@8
rdata$r	ENDS
;	COMDAT ??_R2?$CDynamicPoolEx@VCTextureAnimationCCWDecorator@NEffectUpdateDecorator@@@@8
rdata$r	SEGMENT
??_R2?$CDynamicPoolEx@VCTextureAnimationCCWDecorator@NEffectUpdateDecorator@@@@8 DD FLAT:??_R1A@?0A@EA@?$CDynamicPoolEx@VCTextureAnimationCCWDecorator@NEffectUpdateDecorator@@@@8 ; CDynamicPoolEx<NEffectUpdateDecorator::CTextureAnimationCCWDecorator>::`RTTI Base Class Array'
rdata$r	ENDS
;	COMDAT ??_R3?$CDynamicPoolEx@VCTextureAnimationCCWDecorator@NEffectUpdateDecorator@@@@8
rdata$r	SEGMENT
??_R3?$CDynamicPoolEx@VCTextureAnimationCCWDecorator@NEffectUpdateDecorator@@@@8 DD 00H ; CDynamicPoolEx<NEffectUpdateDecorator::CTextureAnimationCCWDecorator>::`RTTI Class Hierarchy Descriptor'
	DD	00H
	DD	01H
	DD	FLAT:??_R2?$CDynamicPoolEx@VCTextureAnimationCCWDecorator@NEffectUpdateDecorator@@@@8
rdata$r	ENDS
;	COMDAT ??_R0?AV?$CDynamicPoolEx@VCTextureAnimationCCWDecorator@NEffectUpdateDecorator@@@@@8
data$rs	SEGMENT
??_R0?AV?$CDynamicPoolEx@VCTextureAnimationCCWDecorator@NEffectUpdateDecorator@@@@@8 DD FLAT:??_7type_info@@6B@ ; CDynamicPoolEx<NEffectUpdateDecorator::CTextureAnimationCCWDecorator> `RTTI Type Descriptor'
	DD	00H
	DB	'.?AV?$CDynamicPoolEx@VCTextureAnimationCCWDecorator@NEff'
	DB	'ectUpdateDecorator@@@@', 00H
data$rs	ENDS
;	COMDAT ??_R4?$CDynamicPoolEx@VCTextureAnimationCCWDecorator@NEffectUpdateDecorator@@@@6B@
rdata$r	SEGMENT
??_R4?$CDynamicPoolEx@VCTextureAnimationCCWDecorator@NEffectUpdateDecorator@@@@6B@ DD 00H ; CDynamicPoolEx<NEffectUpdateDecorator::CTextureAnimationCCWDecorator>::`RTTI Complete Object Locator'
	DD	00H
	DD	00H
	DD	FLAT:??_R0?AV?$CDynamicPoolEx@VCTextureAnimationCCWDecorator@NEffectUpdateDecorator@@@@@8
	DD	FLAT:??_R3?$CDynamicPoolEx@VCTextureAnimationCCWDecorator@NEffectUpdateDecorator@@@@8
rdata$r	ENDS
;	COMDAT ??_R1A@?0A@EA@?$CDynamicPoolEx@VCTextureAnimationCWDecorator@NEffectUpdateDecorator@@@@8
rdata$r	SEGMENT
??_R1A@?0A@EA@?$CDynamicPoolEx@VCTextureAnimationCWDecorator@NEffectUpdateDecorator@@@@8 DD FLAT:??_R0?AV?$CDynamicPoolEx@VCTextureAnimationCWDecorator@NEffectUpdateDecorator@@@@@8 ; CDynamicPoolEx<NEffectUpdateDecorator::CTextureAnimationCWDecorator>::`RTTI Base Class Descriptor at (0,-1,0,64)'
	DD	00H
	DD	00H
	DD	0ffffffffH
	DD	00H
	DD	040H
	DD	FLAT:??_R3?$CDynamicPoolEx@VCTextureAnimationCWDecorator@NEffectUpdateDecorator@@@@8
rdata$r	ENDS
;	COMDAT ??_R2?$CDynamicPoolEx@VCTextureAnimationCWDecorator@NEffectUpdateDecorator@@@@8
rdata$r	SEGMENT
??_R2?$CDynamicPoolEx@VCTextureAnimationCWDecorator@NEffectUpdateDecorator@@@@8 DD FLAT:??_R1A@?0A@EA@?$CDynamicPoolEx@VCTextureAnimationCWDecorator@NEffectUpdateDecorator@@@@8 ; CDynamicPoolEx<NEffectUpdateDecorator::CTextureAnimationCWDecorator>::`RTTI Base Class Array'
rdata$r	ENDS
;	COMDAT ??_R3?$CDynamicPoolEx@VCTextureAnimationCWDecorator@NEffectUpdateDecorator@@@@8
rdata$r	SEGMENT
??_R3?$CDynamicPoolEx@VCTextureAnimationCWDecorator@NEffectUpdateDecorator@@@@8 DD 00H ; CDynamicPoolEx<NEffectUpdateDecorator::CTextureAnimationCWDecorator>::`RTTI Class Hierarchy Descriptor'
	DD	00H
	DD	01H
	DD	FLAT:??_R2?$CDynamicPoolEx@VCTextureAnimationCWDecorator@NEffectUpdateDecorator@@@@8
rdata$r	ENDS
;	COMDAT ??_R0?AV?$CDynamicPoolEx@VCTextureAnimationCWDecorator@NEffectUpdateDecorator@@@@@8
data$rs	SEGMENT
??_R0?AV?$CDynamicPoolEx@VCTextureAnimationCWDecorator@NEffectUpdateDecorator@@@@@8 DD FLAT:??_7type_info@@6B@ ; CDynamicPoolEx<NEffectUpdateDecorator::CTextureAnimationCWDecorator> `RTTI Type Descriptor'
	DD	00H
	DB	'.?AV?$CDynamicPoolEx@VCTextureAnimationCWDecorator@NEffe'
	DB	'ctUpdateDecorator@@@@', 00H
data$rs	ENDS
;	COMDAT ??_R4?$CDynamicPoolEx@VCTextureAnimationCWDecorator@NEffectUpdateDecorator@@@@6B@
rdata$r	SEGMENT
??_R4?$CDynamicPoolEx@VCTextureAnimationCWDecorator@NEffectUpdateDecorator@@@@6B@ DD 00H ; CDynamicPoolEx<NEffectUpdateDecorator::CTextureAnimationCWDecorator>::`RTTI Complete Object Locator'
	DD	00H
	DD	00H
	DD	FLAT:??_R0?AV?$CDynamicPoolEx@VCTextureAnimationCWDecorator@NEffectUpdateDecorator@@@@@8
	DD	FLAT:??_R3?$CDynamicPoolEx@VCTextureAnimationCWDecorator@NEffectUpdateDecorator@@@@8
rdata$r	ENDS
;	COMDAT ??_R1A@?0A@EA@?$CDynamicPoolEx@VCNullDecorator@NEffectUpdateDecorator@@@@8
rdata$r	SEGMENT
??_R1A@?0A@EA@?$CDynamicPoolEx@VCNullDecorator@NEffectUpdateDecorator@@@@8 DD FLAT:??_R0?AV?$CDynamicPoolEx@VCNullDecorator@NEffectUpdateDecorator@@@@@8 ; CDynamicPoolEx<NEffectUpdateDecorator::CNullDecorator>::`RTTI Base Class Descriptor at (0,-1,0,64)'
	DD	00H
	DD	00H
	DD	0ffffffffH
	DD	00H
	DD	040H
	DD	FLAT:??_R3?$CDynamicPoolEx@VCNullDecorator@NEffectUpdateDecorator@@@@8
rdata$r	ENDS
;	COMDAT ??_R2?$CDynamicPoolEx@VCNullDecorator@NEffectUpdateDecorator@@@@8
rdata$r	SEGMENT
??_R2?$CDynamicPoolEx@VCNullDecorator@NEffectUpdateDecorator@@@@8 DD FLAT:??_R1A@?0A@EA@?$CDynamicPoolEx@VCNullDecorator@NEffectUpdateDecorator@@@@8 ; CDynamicPoolEx<NEffectUpdateDecorator::CNullDecorator>::`RTTI Base Class Array'
rdata$r	ENDS
;	COMDAT ??_R3?$CDynamicPoolEx@VCNullDecorator@NEffectUpdateDecorator@@@@8
rdata$r	SEGMENT
??_R3?$CDynamicPoolEx@VCNullDecorator@NEffectUpdateDecorator@@@@8 DD 00H ; CDynamicPoolEx<NEffectUpdateDecorator::CNullDecorator>::`RTTI Class Hierarchy Descriptor'
	DD	00H
	DD	01H
	DD	FLAT:??_R2?$CDynamicPoolEx@VCNullDecorator@NEffectUpdateDecorator@@@@8
rdata$r	ENDS
;	COMDAT ??_R0?AV?$CDynamicPoolEx@VCNullDecorator@NEffectUpdateDecorator@@@@@8
data$rs	SEGMENT
??_R0?AV?$CDynamicPoolEx@VCNullDecorator@NEffectUpdateDecorator@@@@@8 DD FLAT:??_7type_info@@6B@ ; CDynamicPoolEx<NEffectUpdateDecorator::CNullDecorator> `RTTI Type Descriptor'
	DD	00H
	DB	'.?AV?$CDynamicPoolEx@VCNullDecorator@NEffectUpdateDecora'
	DB	'tor@@@@', 00H
data$rs	ENDS
;	COMDAT ??_R4?$CDynamicPoolEx@VCNullDecorator@NEffectUpdateDecorator@@@@6B@
rdata$r	SEGMENT
??_R4?$CDynamicPoolEx@VCNullDecorator@NEffectUpdateDecorator@@@@6B@ DD 00H ; CDynamicPoolEx<NEffectUpdateDecorator::CNullDecorator>::`RTTI Complete Object Locator'
	DD	00H
	DD	00H
	DD	FLAT:??_R0?AV?$CDynamicPoolEx@VCNullDecorator@NEffectUpdateDecorator@@@@@8
	DD	FLAT:??_R3?$CDynamicPoolEx@VCNullDecorator@NEffectUpdateDecorator@@@@8
rdata$r	ENDS
;	COMDAT ??_R1A@?0A@EA@?$CDynamicPoolEx@VCHeaderDecorator@NEffectUpdateDecorator@@@@8
rdata$r	SEGMENT
??_R1A@?0A@EA@?$CDynamicPoolEx@VCHeaderDecorator@NEffectUpdateDecorator@@@@8 DD FLAT:??_R0?AV?$CDynamicPoolEx@VCHeaderDecorator@NEffectUpdateDecorator@@@@@8 ; CDynamicPoolEx<NEffectUpdateDecorator::CHeaderDecorator>::`RTTI Base Class Descriptor at (0,-1,0,64)'
	DD	00H
	DD	00H
	DD	0ffffffffH
	DD	00H
	DD	040H
	DD	FLAT:??_R3?$CDynamicPoolEx@VCHeaderDecorator@NEffectUpdateDecorator@@@@8
rdata$r	ENDS
;	COMDAT ??_R2?$CDynamicPoolEx@VCHeaderDecorator@NEffectUpdateDecorator@@@@8
rdata$r	SEGMENT
??_R2?$CDynamicPoolEx@VCHeaderDecorator@NEffectUpdateDecorator@@@@8 DD FLAT:??_R1A@?0A@EA@?$CDynamicPoolEx@VCHeaderDecorator@NEffectUpdateDecorator@@@@8 ; CDynamicPoolEx<NEffectUpdateDecorator::CHeaderDecorator>::`RTTI Base Class Array'
rdata$r	ENDS
;	COMDAT ??_R3?$CDynamicPoolEx@VCHeaderDecorator@NEffectUpdateDecorator@@@@8
rdata$r	SEGMENT
??_R3?$CDynamicPoolEx@VCHeaderDecorator@NEffectUpdateDecorator@@@@8 DD 00H ; CDynamicPoolEx<NEffectUpdateDecorator::CHeaderDecorator>::`RTTI Class Hierarchy Descriptor'
	DD	00H
	DD	01H
	DD	FLAT:??_R2?$CDynamicPoolEx@VCHeaderDecorator@NEffectUpdateDecorator@@@@8
rdata$r	ENDS
;	COMDAT ??_R0?AV?$CDynamicPoolEx@VCHeaderDecorator@NEffectUpdateDecorator@@@@@8
data$rs	SEGMENT
??_R0?AV?$CDynamicPoolEx@VCHeaderDecorator@NEffectUpdateDecorator@@@@@8 DD FLAT:??_7type_info@@6B@ ; CDynamicPoolEx<NEffectUpdateDecorator::CHeaderDecorator> `RTTI Type Descriptor'
	DD	00H
	DB	'.?AV?$CDynamicPoolEx@VCHeaderDecorator@NEffectUpdateDeco'
	DB	'rator@@@@', 00H
data$rs	ENDS
;	COMDAT ??_R4?$CDynamicPoolEx@VCHeaderDecorator@NEffectUpdateDecorator@@@@6B@
rdata$r	SEGMENT
??_R4?$CDynamicPoolEx@VCHeaderDecorator@NEffectUpdateDecorator@@@@6B@ DD 00H ; CDynamicPoolEx<NEffectUpdateDecorator::CHeaderDecorator>::`RTTI Complete Object Locator'
	DD	00H
	DD	00H
	DD	FLAT:??_R0?AV?$CDynamicPoolEx@VCHeaderDecorator@NEffectUpdateDecorator@@@@@8
	DD	FLAT:??_R3?$CDynamicPoolEx@VCHeaderDecorator@NEffectUpdateDecorator@@@@8
rdata$r	ENDS
;	COMDAT ??_R1A@?0A@EA@?$CDynamicPool@VCParticleSystemData@@@@8
rdata$r	SEGMENT
??_R1A@?0A@EA@?$CDynamicPool@VCParticleSystemData@@@@8 DD FLAT:??_R0?AV?$CDynamicPool@VCParticleSystemData@@@@@8 ; CDynamicPool<CParticleSystemData>::`RTTI Base Class Descriptor at (0,-1,0,64)'
	DD	00H
	DD	00H
	DD	0ffffffffH
	DD	00H
	DD	040H
	DD	FLAT:??_R3?$CDynamicPool@VCParticleSystemData@@@@8
rdata$r	ENDS
;	COMDAT ??_R2?$CDynamicPool@VCParticleSystemData@@@@8
rdata$r	SEGMENT
??_R2?$CDynamicPool@VCParticleSystemData@@@@8 DD FLAT:??_R1A@?0A@EA@?$CDynamicPool@VCParticleSystemData@@@@8 ; CDynamicPool<CParticleSystemData>::`RTTI Base Class Array'
rdata$r	ENDS
;	COMDAT ??_R3?$CDynamicPool@VCParticleSystemData@@@@8
rdata$r	SEGMENT
??_R3?$CDynamicPool@VCParticleSystemData@@@@8 DD 00H	; CDynamicPool<CParticleSystemData>::`RTTI Class Hierarchy Descriptor'
	DD	00H
	DD	01H
	DD	FLAT:??_R2?$CDynamicPool@VCParticleSystemData@@@@8
rdata$r	ENDS
;	COMDAT ??_R0?AV?$CDynamicPool@VCParticleSystemData@@@@@8
data$rs	SEGMENT
??_R0?AV?$CDynamicPool@VCParticleSystemData@@@@@8 DD FLAT:??_7type_info@@6B@ ; CDynamicPool<CParticleSystemData> `RTTI Type Descriptor'
	DD	00H
	DB	'.?AV?$CDynamicPool@VCParticleSystemData@@@@', 00H
data$rs	ENDS
;	COMDAT ??_R4?$CDynamicPool@VCParticleSystemData@@@@6B@
rdata$r	SEGMENT
??_R4?$CDynamicPool@VCParticleSystemData@@@@6B@ DD 00H	; CDynamicPool<CParticleSystemData>::`RTTI Complete Object Locator'
	DD	00H
	DD	00H
	DD	FLAT:??_R0?AV?$CDynamicPool@VCParticleSystemData@@@@@8
	DD	FLAT:??_R3?$CDynamicPool@VCParticleSystemData@@@@8
rdata$r	ENDS
PUBLIC	?__empty_global_delete@@YAXPAX@Z		; __empty_global_delete
PUBLIC	?__empty_global_delete@@YAXPAXI@Z		; __empty_global_delete
PUBLIC	??0exception@std@@QAE@ABV01@@Z			; std::exception::exception
PUBLIC	??1exception@std@@UAE@XZ			; std::exception::~exception
PUBLIC	?what@exception@std@@UBEPBDXZ			; std::exception::what
PUBLIC	??_Gexception@std@@UAEPAXI@Z			; std::exception::`scalar deleting destructor'
PUBLIC	??0bad_alloc@std@@QAE@ABV01@@Z			; std::bad_alloc::bad_alloc
PUBLIC	??_Gbad_alloc@std@@UAEPAXI@Z			; std::bad_alloc::`scalar deleting destructor'
PUBLIC	??0bad_array_new_length@std@@QAE@XZ		; std::bad_array_new_length::bad_array_new_length
PUBLIC	??1bad_array_new_length@std@@UAE@XZ		; std::bad_array_new_length::~bad_array_new_length
PUBLIC	??0bad_array_new_length@std@@QAE@ABV01@@Z	; std::bad_array_new_length::bad_array_new_length
PUBLIC	??_Gbad_array_new_length@std@@UAEPAXI@Z		; std::bad_array_new_length::`scalar deleting destructor'
PUBLIC	?_Throw_bad_array_new_length@std@@YAXXZ		; std::_Throw_bad_array_new_length
PUBLIC	?_Xlen_string@std@@YAXXZ			; std::_Xlen_string
PUBLIC	??0?$basic_string@DU?$char_traits@D@std@@V?$allocator@D@2@@std@@QAE@QBD@Z ; std::basic_string<char,std::char_traits<char>,std::allocator<char> >::basic_string<char,std::char_traits<char>,std::allocator<char> >
PUBLIC	??1?$basic_string@DU?$char_traits@D@std@@V?$allocator@D@2@@std@@QAE@XZ ; std::basic_string<char,std::char_traits<char>,std::allocator<char> >::~basic_string<char,std::char_traits<char>,std::allocator<char> >
PUBLIC	?_Tidy_deallocate@?$basic_string@DU?$char_traits@D@std@@V?$allocator@D@2@@std@@AAEXXZ ; std::basic_string<char,std::char_traits<char>,std::allocator<char> >::_Tidy_deallocate
PUBLIC	?_Throw_tree_length_error@std@@YAXXZ		; std::_Throw_tree_length_error
PUBLIC	?_Xrange@?$vector@V?$basic_string@DU?$char_traits@D@std@@V?$allocator@D@2@@std@@V?$allocator@V?$basic_string@DU?$char_traits@D@std@@V?$allocator@D@2@@std@@@2@@std@@CAXXZ ; std::vector<std::basic_string<char,std::char_traits<char>,std::allocator<char> >,std::allocator<std::basic_string<char,std::char_traits<char>,std::allocator<char> > > >::_Xrange
PUBLIC	??1CGotoChild@CTextFileLoader@@QAE@XZ		; CTextFileLoader::CGotoChild::~CGotoChild
PUBLIC	??$_Allocate_manually_vector_aligned@U_Default_allocate_traits@std@@@std@@YAPAXI@Z ; std::_Allocate_manually_vector_aligned<std::_Default_allocate_traits>
PUBLIC	??1?$vector@V?$CTimeEvent@M@@V?$allocator@V?$CTimeEvent@M@@@std@@@std@@QAE@XZ ; std::vector<CTimeEvent<float>,std::allocator<CTimeEvent<float> > >::~vector<CTimeEvent<float>,std::allocator<CTimeEvent<float> > >
PUBLIC	?push_back@?$vector@V?$CTimeEvent@M@@V?$allocator@V?$CTimeEvent@M@@@std@@@std@@QAEXABV?$CTimeEvent@M@@@Z ; std::vector<CTimeEvent<float>,std::allocator<CTimeEvent<float> > >::push_back
PUBLIC	?_Xlength@?$vector@V?$CTimeEvent@M@@V?$allocator@V?$CTimeEvent@M@@@std@@@std@@CAXXZ ; std::vector<CTimeEvent<float>,std::allocator<CTimeEvent<float> > >::_Xlength
PUBLIC	?_Xlength@?$vector@V?$CTimeEvent@UDWORDCOLOR@@@@V?$allocator@V?$CTimeEvent@UDWORDCOLOR@@@@@std@@@std@@CAXXZ ; std::vector<CTimeEvent<DWORDCOLOR>,std::allocator<CTimeEvent<DWORDCOLOR> > >::_Xlength
PUBLIC	??1CParticleSystemData@@UAE@XZ			; CParticleSystemData::~CParticleSystemData
PUBLIC	??0CParticleSystemData@@QAE@XZ			; CParticleSystemData::CParticleSystemData
PUBLIC	?GetEmitterPropertyPointer@CParticleSystemData@@QAEPAVCEmitterProperty@@XZ ; CParticleSystemData::GetEmitterPropertyPointer
PUBLIC	?GetParticlePropertyPointer@CParticleSystemData@@QAEPAVCParticleProperty@@XZ ; CParticleSystemData::GetParticlePropertyPointer
PUBLIC	?ChangeTexture@CParticleSystemData@@QAEXPBD@Z	; CParticleSystemData::ChangeTexture
PUBLIC	?BuildDecorator@CParticleSystemData@@QAEXPAVCParticleInstance@@@Z ; CParticleSystemData::BuildDecorator
PUBLIC	?OnLoadScript@CParticleSystemData@@MAEHAAVCTextFileLoader@@@Z ; CParticleSystemData::OnLoadScript
PUBLIC	?OnClear@CParticleSystemData@@MAEXXZ		; CParticleSystemData::OnClear
PUBLIC	?OnIsData@CParticleSystemData@@MAE_NXZ		; CParticleSystemData::OnIsData
PUBLIC	?DestroySystem@CParticleSystemData@@SAXXZ	; CParticleSystemData::DestroySystem
PUBLIC	?New@CParticleSystemData@@SAPAV1@XZ		; CParticleSystemData::New
PUBLIC	?Delete@CParticleSystemData@@SAXPAV1@@Z		; CParticleSystemData::Delete
PUBLIC	??_GCParticleSystemData@@UAEPAXI@Z		; CParticleSystemData::`scalar deleting destructor'
PUBLIC	??1CBaseDecorator@NEffectUpdateDecorator@@UAE@XZ ; NEffectUpdateDecorator::CBaseDecorator::~CBaseDecorator
PUBLIC	??_GCBaseDecorator@NEffectUpdateDecorator@@UAEPAXI@Z ; NEffectUpdateDecorator::CBaseDecorator::`scalar deleting destructor'
PUBLIC	??1?$CPooledObject@VCHeaderDecorator@NEffectUpdateDecorator@@@@UAE@XZ ; CPooledObject<NEffectUpdateDecorator::CHeaderDecorator>::~CPooledObject<NEffectUpdateDecorator::CHeaderDecorator>
PUBLIC	??2?$CPooledObject@VCHeaderDecorator@NEffectUpdateDecorator@@@@SAPAXI@Z ; CPooledObject<NEffectUpdateDecorator::CHeaderDecorator>::operator new
PUBLIC	??3?$CPooledObject@VCHeaderDecorator@NEffectUpdateDecorator@@@@SAXPAX@Z ; CPooledObject<NEffectUpdateDecorator::CHeaderDecorator>::operator delete
PUBLIC	??_G?$CPooledObject@VCHeaderDecorator@NEffectUpdateDecorator@@@@UAEPAXI@Z ; CPooledObject<NEffectUpdateDecorator::CHeaderDecorator>::`scalar deleting destructor'
PUBLIC	??1CHeaderDecorator@NEffectUpdateDecorator@@UAE@XZ ; NEffectUpdateDecorator::CHeaderDecorator::~CHeaderDecorator
PUBLIC	?__Excute@CHeaderDecorator@NEffectUpdateDecorator@@MAEXABVCDecoratorData@2@@Z ; NEffectUpdateDecorator::CHeaderDecorator::__Excute
PUBLIC	?__Clone@CHeaderDecorator@NEffectUpdateDecorator@@MAEPAVCBaseDecorator@2@PAVCParticleInstance@@0@Z ; NEffectUpdateDecorator::CHeaderDecorator::__Clone
PUBLIC	??_GCHeaderDecorator@NEffectUpdateDecorator@@UAEPAXI@Z ; NEffectUpdateDecorator::CHeaderDecorator::`scalar deleting destructor'
PUBLIC	??1?$CPooledObject@VCNullDecorator@NEffectUpdateDecorator@@@@UAE@XZ ; CPooledObject<NEffectUpdateDecorator::CNullDecorator>::~CPooledObject<NEffectUpdateDecorator::CNullDecorator>
PUBLIC	??2?$CPooledObject@VCNullDecorator@NEffectUpdateDecorator@@@@SAPAXI@Z ; CPooledObject<NEffectUpdateDecorator::CNullDecorator>::operator new
PUBLIC	??3?$CPooledObject@VCNullDecorator@NEffectUpdateDecorator@@@@SAXPAX@Z ; CPooledObject<NEffectUpdateDecorator::CNullDecorator>::operator delete
PUBLIC	??_G?$CPooledObject@VCNullDecorator@NEffectUpdateDecorator@@@@UAEPAXI@Z ; CPooledObject<NEffectUpdateDecorator::CNullDecorator>::`scalar deleting destructor'
PUBLIC	??1CNullDecorator@NEffectUpdateDecorator@@UAE@XZ ; NEffectUpdateDecorator::CNullDecorator::~CNullDecorator
PUBLIC	?__Excute@CNullDecorator@NEffectUpdateDecorator@@MAEXABVCDecoratorData@2@@Z ; NEffectUpdateDecorator::CNullDecorator::__Excute
PUBLIC	?__Clone@CNullDecorator@NEffectUpdateDecorator@@MAEPAVCBaseDecorator@2@PAVCParticleInstance@@0@Z ; NEffectUpdateDecorator::CNullDecorator::__Clone
PUBLIC	??_GCNullDecorator@NEffectUpdateDecorator@@UAEPAXI@Z ; NEffectUpdateDecorator::CNullDecorator::`scalar deleting destructor'
PUBLIC	??1?$CPooledObject@VCTextureAnimationCWDecorator@NEffectUpdateDecorator@@@@UAE@XZ ; CPooledObject<NEffectUpdateDecorator::CTextureAnimationCWDecorator>::~CPooledObject<NEffectUpdateDecorator::CTextureAnimationCWDecorator>
PUBLIC	??2?$CPooledObject@VCTextureAnimationCWDecorator@NEffectUpdateDecorator@@@@SAPAXI@Z ; CPooledObject<NEffectUpdateDecorator::CTextureAnimationCWDecorator>::operator new
PUBLIC	??3?$CPooledObject@VCTextureAnimationCWDecorator@NEffectUpdateDecorator@@@@SAXPAX@Z ; CPooledObject<NEffectUpdateDecorator::CTextureAnimationCWDecorator>::operator delete
PUBLIC	??_G?$CPooledObject@VCTextureAnimationCWDecorator@NEffectUpdateDecorator@@@@UAEPAXI@Z ; CPooledObject<NEffectUpdateDecorator::CTextureAnimationCWDecorator>::`scalar deleting destructor'
PUBLIC	??1CTextureAnimationCWDecorator@NEffectUpdateDecorator@@UAE@XZ ; NEffectUpdateDecorator::CTextureAnimationCWDecorator::~CTextureAnimationCWDecorator
PUBLIC	?__Clone@CTextureAnimationCWDecorator@NEffectUpdateDecorator@@MAEPAVCBaseDecorator@2@PAVCParticleInstance@@0@Z ; NEffectUpdateDecorator::CTextureAnimationCWDecorator::__Clone
PUBLIC	?__Excute@CTextureAnimationCWDecorator@NEffectUpdateDecorator@@MAEXABVCDecoratorData@2@@Z ; NEffectUpdateDecorator::CTextureAnimationCWDecorator::__Excute
PUBLIC	??_GCTextureAnimationCWDecorator@NEffectUpdateDecorator@@UAEPAXI@Z ; NEffectUpdateDecorator::CTextureAnimationCWDecorator::`scalar deleting destructor'
PUBLIC	??1?$CPooledObject@VCTextureAnimationCCWDecorator@NEffectUpdateDecorator@@@@UAE@XZ ; CPooledObject<NEffectUpdateDecorator::CTextureAnimationCCWDecorator>::~CPooledObject<NEffectUpdateDecorator::CTextureAnimationCCWDecorator>
PUBLIC	??2?$CPooledObject@VCTextureAnimationCCWDecorator@NEffectUpdateDecorator@@@@SAPAXI@Z ; CPooledObject<NEffectUpdateDecorator::CTextureAnimationCCWDecorator>::operator new
PUBLIC	??3?$CPooledObject@VCTextureAnimationCCWDecorator@NEffectUpdateDecorator@@@@SAXPAX@Z ; CPooledObject<NEffectUpdateDecorator::CTextureAnimationCCWDecorator>::operator delete
PUBLIC	??_G?$CPooledObject@VCTextureAnimationCCWDecorator@NEffectUpdateDecorator@@@@UAEPAXI@Z ; CPooledObject<NEffectUpdateDecorator::CTextureAnimationCCWDecorator>::`scalar deleting destructor'
PUBLIC	??1CTextureAnimationCCWDecorator@NEffectUpdateDecorator@@UAE@XZ ; NEffectUpdateDecorator::CTextureAnimationCCWDecorator::~CTextureAnimationCCWDecorator
PUBLIC	?__Clone@CTextureAnimationCCWDecorator@NEffectUpdateDecorator@@MAEPAVCBaseDecorator@2@PAVCParticleInstance@@0@Z ; NEffectUpdateDecorator::CTextureAnimationCCWDecorator::__Clone
PUBLIC	?__Excute@CTextureAnimationCCWDecorator@NEffectUpdateDecorator@@MAEXABVCDecoratorData@2@@Z ; NEffectUpdateDecorator::CTextureAnimationCCWDecorator::__Excute
PUBLIC	??_GCTextureAnimationCCWDecorator@NEffectUpdateDecorator@@UAEPAXI@Z ; NEffectUpdateDecorator::CTextureAnimationCCWDecorator::`scalar deleting destructor'
PUBLIC	??1?$CPooledObject@VCTextureAnimationRandomDecorator@NEffectUpdateDecorator@@@@UAE@XZ ; CPooledObject<NEffectUpdateDecorator::CTextureAnimationRandomDecorator>::~CPooledObject<NEffectUpdateDecorator::CTextureAnimationRandomDecorator>
PUBLIC	??2?$CPooledObject@VCTextureAnimationRandomDecorator@NEffectUpdateDecorator@@@@SAPAXI@Z ; CPooledObject<NEffectUpdateDecorator::CTextureAnimationRandomDecorator>::operator new
PUBLIC	??3?$CPooledObject@VCTextureAnimationRandomDecorator@NEffectUpdateDecorator@@@@SAXPAX@Z ; CPooledObject<NEffectUpdateDecorator::CTextureAnimationRandomDecorator>::operator delete
PUBLIC	??_G?$CPooledObject@VCTextureAnimationRandomDecorator@NEffectUpdateDecorator@@@@UAEPAXI@Z ; CPooledObject<NEffectUpdateDecorator::CTextureAnimationRandomDecorator>::`scalar deleting destructor'
PUBLIC	??1CTextureAnimationRandomDecorator@NEffectUpdateDecorator@@UAE@XZ ; NEffectUpdateDecorator::CTextureAnimationRandomDecorator::~CTextureAnimationRandomDecorator
PUBLIC	?__Clone@CTextureAnimationRandomDecorator@NEffectUpdateDecorator@@MAEPAVCBaseDecorator@2@PAVCParticleInstance@@0@Z ; NEffectUpdateDecorator::CTextureAnimationRandomDecorator::__Clone
PUBLIC	?__Excute@CTextureAnimationRandomDecorator@NEffectUpdateDecorator@@MAEXABVCDecoratorData@2@@Z ; NEffectUpdateDecorator::CTextureAnimationRandomDecorator::__Excute
PUBLIC	??_GCTextureAnimationRandomDecorator@NEffectUpdateDecorator@@UAEPAXI@Z ; NEffectUpdateDecorator::CTextureAnimationRandomDecorator::`scalar deleting destructor'
PUBLIC	??1?$CPooledObject@VCAirResistanceDecorator@NEffectUpdateDecorator@@@@UAE@XZ ; CPooledObject<NEffectUpdateDecorator::CAirResistanceDecorator>::~CPooledObject<NEffectUpdateDecorator::CAirResistanceDecorator>
PUBLIC	??2?$CPooledObject@VCAirResistanceDecorator@NEffectUpdateDecorator@@@@SAPAXI@Z ; CPooledObject<NEffectUpdateDecorator::CAirResistanceDecorator>::operator new
PUBLIC	??3?$CPooledObject@VCAirResistanceDecorator@NEffectUpdateDecorator@@@@SAXPAX@Z ; CPooledObject<NEffectUpdateDecorator::CAirResistanceDecorator>::operator delete
PUBLIC	??_G?$CPooledObject@VCAirResistanceDecorator@NEffectUpdateDecorator@@@@UAEPAXI@Z ; CPooledObject<NEffectUpdateDecorator::CAirResistanceDecorator>::`scalar deleting destructor'
PUBLIC	??1CAirResistanceDecorator@NEffectUpdateDecorator@@UAE@XZ ; NEffectUpdateDecorator::CAirResistanceDecorator::~CAirResistanceDecorator
PUBLIC	??_GCAirResistanceDecorator@NEffectUpdateDecorator@@UAEPAXI@Z ; NEffectUpdateDecorator::CAirResistanceDecorator::`scalar deleting destructor'
PUBLIC	??1?$CPooledObject@VCGravityDecorator@NEffectUpdateDecorator@@@@UAE@XZ ; CPooledObject<NEffectUpdateDecorator::CGravityDecorator>::~CPooledObject<NEffectUpdateDecorator::CGravityDecorator>
PUBLIC	??2?$CPooledObject@VCGravityDecorator@NEffectUpdateDecorator@@@@SAPAXI@Z ; CPooledObject<NEffectUpdateDecorator::CGravityDecorator>::operator new
PUBLIC	??3?$CPooledObject@VCGravityDecorator@NEffectUpdateDecorator@@@@SAXPAX@Z ; CPooledObject<NEffectUpdateDecorator::CGravityDecorator>::operator delete
PUBLIC	??_G?$CPooledObject@VCGravityDecorator@NEffectUpdateDecorator@@@@UAEPAXI@Z ; CPooledObject<NEffectUpdateDecorator::CGravityDecorator>::`scalar deleting destructor'
PUBLIC	??1CGravityDecorator@NEffectUpdateDecorator@@UAE@XZ ; NEffectUpdateDecorator::CGravityDecorator::~CGravityDecorator
PUBLIC	??_GCGravityDecorator@NEffectUpdateDecorator@@UAEPAXI@Z ; NEffectUpdateDecorator::CGravityDecorator::`scalar deleting destructor'
PUBLIC	??1?$CPooledObject@VCRotationDecorator@NEffectUpdateDecorator@@@@UAE@XZ ; CPooledObject<NEffectUpdateDecorator::CRotationDecorator>::~CPooledObject<NEffectUpdateDecorator::CRotationDecorator>
PUBLIC	??2?$CPooledObject@VCRotationDecorator@NEffectUpdateDecorator@@@@SAPAXI@Z ; CPooledObject<NEffectUpdateDecorator::CRotationDecorator>::operator new
PUBLIC	??3?$CPooledObject@VCRotationDecorator@NEffectUpdateDecorator@@@@SAXPAX@Z ; CPooledObject<NEffectUpdateDecorator::CRotationDecorator>::operator delete
PUBLIC	??_G?$CPooledObject@VCRotationDecorator@NEffectUpdateDecorator@@@@UAEPAXI@Z ; CPooledObject<NEffectUpdateDecorator::CRotationDecorator>::`scalar deleting destructor'
PUBLIC	??1CRotationDecorator@NEffectUpdateDecorator@@UAE@XZ ; NEffectUpdateDecorator::CRotationDecorator::~CRotationDecorator
PUBLIC	??_GCRotationDecorator@NEffectUpdateDecorator@@UAEPAXI@Z ; NEffectUpdateDecorator::CRotationDecorator::`scalar deleting destructor'
PUBLIC	??1?$CDynamicPool@VCParticleSystemData@@@@UAE@XZ ; CDynamicPool<CParticleSystemData>::~CDynamicPool<CParticleSystemData>
PUBLIC	?Delete@?$CDynamicPool@VCParticleSystemData@@@@KAXPAVCParticleSystemData@@@Z ; CDynamicPool<CParticleSystemData>::Delete
PUBLIC	?_Xlength@?$vector@PAVCParticleSystemData@@V?$allocator@PAVCParticleSystemData@@@std@@@std@@CAXXZ ; std::vector<CParticleSystemData *,std::allocator<CParticleSystemData *> >::_Xlength
PUBLIC	??1?$_Tree@V?$_Tset_traits@MU?$less@M@std@@V?$allocator@M@2@$0A@@std@@@std@@QAE@XZ ; std::_Tree<std::_Tset_traits<float,std::less<float>,std::allocator<float>,0> >::~_Tree<std::_Tset_traits<float,std::less<float>,std::allocator<float>,0> >
PUBLIC	?_Insert_node@?$_Tree_val@U?$_Tree_simple_types@M@std@@@std@@QAEPAU?$_Tree_node@MPAX@2@U?$_Tree_id@PAU?$_Tree_node@MPAX@std@@@2@QAU32@@Z ; std::_Tree_val<std::_Tree_simple_types<float> >::_Insert_node
PUBLIC	??1?$set@MU?$less@M@std@@V?$allocator@M@2@@std@@QAE@XZ ; std::set<float,std::less<float>,std::allocator<float> >::~set<float,std::less<float>,std::allocator<float> >
PUBLIC	??$insert@$0A@$0A@@?$_Tree@V?$_Tset_traits@MU?$less@M@std@@V?$allocator@M@2@$0A@@std@@@std@@QAE?AU?$pair@V?$_Tree_const_iterator@V?$_Tree_val@U?$_Tree_simple_types@M@std@@@std@@@std@@_N@1@ABM@Z ; std::_Tree<std::_Tset_traits<float,std::less<float>,std::allocator<float>,0> >::insert<0,0>
PUBLIC	??1?$CPooledObject@V?$CTimeEventDecorator@M@NEffectUpdateDecorator@@@@UAE@XZ ; CPooledObject<NEffectUpdateDecorator::CTimeEventDecorator<float> >::~CPooledObject<NEffectUpdateDecorator::CTimeEventDecorator<float> >
PUBLIC	??2?$CPooledObject@V?$CTimeEventDecorator@M@NEffectUpdateDecorator@@@@SAPAXI@Z ; CPooledObject<NEffectUpdateDecorator::CTimeEventDecorator<float> >::operator new
PUBLIC	??3?$CPooledObject@V?$CTimeEventDecorator@M@NEffectUpdateDecorator@@@@SAXPAX@Z ; CPooledObject<NEffectUpdateDecorator::CTimeEventDecorator<float> >::operator delete
PUBLIC	??_G?$CPooledObject@V?$CTimeEventDecorator@M@NEffectUpdateDecorator@@@@UAEPAXI@Z ; CPooledObject<NEffectUpdateDecorator::CTimeEventDecorator<float> >::`scalar deleting destructor'
PUBLIC	??0?$CTimeEventDecorator@M@NEffectUpdateDecorator@@QAE@ABV?$vector@V?$CTimeEvent@M@@V?$allocator@V?$CTimeEvent@M@@@std@@@std@@PAM@Z ; NEffectUpdateDecorator::CTimeEventDecorator<float>::CTimeEventDecorator<float>
PUBLIC	??1?$CTimeEventDecorator@M@NEffectUpdateDecorator@@UAE@XZ ; NEffectUpdateDecorator::CTimeEventDecorator<float>::~CTimeEventDecorator<float>
PUBLIC	?__Clone@?$CTimeEventDecorator@M@NEffectUpdateDecorator@@MAEPAVCBaseDecorator@2@PAVCParticleInstance@@0@Z ; NEffectUpdateDecorator::CTimeEventDecorator<float>::__Clone
PUBLIC	?__Excute@?$CTimeEventDecorator@M@NEffectUpdateDecorator@@MAEXABVCDecoratorData@2@@Z ; NEffectUpdateDecorator::CTimeEventDecorator<float>::__Excute
PUBLIC	??_G?$CTimeEventDecorator@M@NEffectUpdateDecorator@@UAEPAXI@Z ; NEffectUpdateDecorator::CTimeEventDecorator<float>::`scalar deleting destructor'
PUBLIC	??1?$CPooledObject@V?$CTimeEventDecorator@UDWORDCOLOR@@@NEffectUpdateDecorator@@@@UAE@XZ ; CPooledObject<NEffectUpdateDecorator::CTimeEventDecorator<DWORDCOLOR> >::~CPooledObject<NEffectUpdateDecorator::CTimeEventDecorator<DWORDCOLOR> >
PUBLIC	??2?$CPooledObject@V?$CTimeEventDecorator@UDWORDCOLOR@@@NEffectUpdateDecorator@@@@SAPAXI@Z ; CPooledObject<NEffectUpdateDecorator::CTimeEventDecorator<DWORDCOLOR> >::operator new
PUBLIC	??3?$CPooledObject@V?$CTimeEventDecorator@UDWORDCOLOR@@@NEffectUpdateDecorator@@@@SAXPAX@Z ; CPooledObject<NEffectUpdateDecorator::CTimeEventDecorator<DWORDCOLOR> >::operator delete
PUBLIC	??_G?$CPooledObject@V?$CTimeEventDecorator@UDWORDCOLOR@@@NEffectUpdateDecorator@@@@UAEPAXI@Z ; CPooledObject<NEffectUpdateDecorator::CTimeEventDecorator<DWORDCOLOR> >::`scalar deleting destructor'
PUBLIC	??1?$CTimeEventDecorator@UDWORDCOLOR@@@NEffectUpdateDecorator@@UAE@XZ ; NEffectUpdateDecorator::CTimeEventDecorator<DWORDCOLOR>::~CTimeEventDecorator<DWORDCOLOR>
PUBLIC	?__Clone@?$CTimeEventDecorator@UDWORDCOLOR@@@NEffectUpdateDecorator@@MAEPAVCBaseDecorator@2@PAVCParticleInstance@@0@Z ; NEffectUpdateDecorator::CTimeEventDecorator<DWORDCOLOR>::__Clone
PUBLIC	?__Excute@?$CTimeEventDecorator@UDWORDCOLOR@@@NEffectUpdateDecorator@@MAEXABVCDecoratorData@2@@Z ; NEffectUpdateDecorator::CTimeEventDecorator<DWORDCOLOR>::__Excute
PUBLIC	??_G?$CTimeEventDecorator@UDWORDCOLOR@@@NEffectUpdateDecorator@@UAEPAXI@Z ; NEffectUpdateDecorator::CTimeEventDecorator<DWORDCOLOR>::`scalar deleting destructor'
PUBLIC	??1?$CDynamicPoolEx@V?$CTimeEventDecorator@UDWORDCOLOR@@@NEffectUpdateDecorator@@@@UAE@XZ ; CDynamicPoolEx<NEffectUpdateDecorator::CTimeEventDecorator<DWORDCOLOR> >::~CDynamicPoolEx<NEffectUpdateDecorator::CTimeEventDecorator<DWORDCOLOR> >
PUBLIC	?Delete@?$CDynamicPoolEx@V?$CTimeEventDecorator@UDWORDCOLOR@@@NEffectUpdateDecorator@@@@KAXPAV?$CTimeEventDecorator@UDWORDCOLOR@@@NEffectUpdateDecorator@@@Z ; CDynamicPoolEx<NEffectUpdateDecorator::CTimeEventDecorator<DWORDCOLOR> >::Delete
PUBLIC	?_Xlength@?$vector@PAV?$CTimeEventDecorator@UDWORDCOLOR@@@NEffectUpdateDecorator@@V?$allocator@PAV?$CTimeEventDecorator@UDWORDCOLOR@@@NEffectUpdateDecorator@@@std@@@std@@CAXXZ ; std::vector<NEffectUpdateDecorator::CTimeEventDecorator<DWORDCOLOR> *,std::allocator<NEffectUpdateDecorator::CTimeEventDecorator<DWORDCOLOR> *> >::_Xlength
PUBLIC	??1?$CDynamicPoolEx@V?$CTimeEventDecorator@M@NEffectUpdateDecorator@@@@UAE@XZ ; CDynamicPoolEx<NEffectUpdateDecorator::CTimeEventDecorator<float> >::~CDynamicPoolEx<NEffectUpdateDecorator::CTimeEventDecorator<float> >
PUBLIC	?Delete@?$CDynamicPoolEx@V?$CTimeEventDecorator@M@NEffectUpdateDecorator@@@@KAXPAV?$CTimeEventDecorator@M@NEffectUpdateDecorator@@@Z ; CDynamicPoolEx<NEffectUpdateDecorator::CTimeEventDecorator<float> >::Delete
PUBLIC	?_Xlength@?$vector@PAV?$CTimeEventDecorator@M@NEffectUpdateDecorator@@V?$allocator@PAV?$CTimeEventDecorator@M@NEffectUpdateDecorator@@@std@@@std@@CAXXZ ; std::vector<NEffectUpdateDecorator::CTimeEventDecorator<float> *,std::allocator<NEffectUpdateDecorator::CTimeEventDecorator<float> *> >::_Xlength
PUBLIC	??1?$CDynamicPoolEx@VCRotationDecorator@NEffectUpdateDecorator@@@@UAE@XZ ; CDynamicPoolEx<NEffectUpdateDecorator::CRotationDecorator>::~CDynamicPoolEx<NEffectUpdateDecorator::CRotationDecorator>
PUBLIC	?Delete@?$CDynamicPoolEx@VCRotationDecorator@NEffectUpdateDecorator@@@@KAXPAVCRotationDecorator@NEffectUpdateDecorator@@@Z ; CDynamicPoolEx<NEffectUpdateDecorator::CRotationDecorator>::Delete
PUBLIC	?_Xlength@?$vector@PAVCRotationDecorator@NEffectUpdateDecorator@@V?$allocator@PAVCRotationDecorator@NEffectUpdateDecorator@@@std@@@std@@CAXXZ ; std::vector<NEffectUpdateDecorator::CRotationDecorator *,std::allocator<NEffectUpdateDecorator::CRotationDecorator *> >::_Xlength
PUBLIC	??1?$CDynamicPoolEx@VCGravityDecorator@NEffectUpdateDecorator@@@@UAE@XZ ; CDynamicPoolEx<NEffectUpdateDecorator::CGravityDecorator>::~CDynamicPoolEx<NEffectUpdateDecorator::CGravityDecorator>
PUBLIC	?Delete@?$CDynamicPoolEx@VCGravityDecorator@NEffectUpdateDecorator@@@@KAXPAVCGravityDecorator@NEffectUpdateDecorator@@@Z ; CDynamicPoolEx<NEffectUpdateDecorator::CGravityDecorator>::Delete
PUBLIC	?_Xlength@?$vector@PAVCGravityDecorator@NEffectUpdateDecorator@@V?$allocator@PAVCGravityDecorator@NEffectUpdateDecorator@@@std@@@std@@CAXXZ ; std::vector<NEffectUpdateDecorator::CGravityDecorator *,std::allocator<NEffectUpdateDecorator::CGravityDecorator *> >::_Xlength
PUBLIC	??1?$CDynamicPoolEx@VCAirResistanceDecorator@NEffectUpdateDecorator@@@@UAE@XZ ; CDynamicPoolEx<NEffectUpdateDecorator::CAirResistanceDecorator>::~CDynamicPoolEx<NEffectUpdateDecorator::CAirResistanceDecorator>
PUBLIC	?Delete@?$CDynamicPoolEx@VCAirResistanceDecorator@NEffectUpdateDecorator@@@@KAXPAVCAirResistanceDecorator@NEffectUpdateDecorator@@@Z ; CDynamicPoolEx<NEffectUpdateDecorator::CAirResistanceDecorator>::Delete
PUBLIC	?_Xlength@?$vector@PAVCAirResistanceDecorator@NEffectUpdateDecorator@@V?$allocator@PAVCAirResistanceDecorator@NEffectUpdateDecorator@@@std@@@std@@CAXXZ ; std::vector<NEffectUpdateDecorator::CAirResistanceDecorator *,std::allocator<NEffectUpdateDecorator::CAirResistanceDecorator *> >::_Xlength
PUBLIC	??1?$CDynamicPoolEx@VCTextureAnimationRandomDecorator@NEffectUpdateDecorator@@@@UAE@XZ ; CDynamicPoolEx<NEffectUpdateDecorator::CTextureAnimationRandomDecorator>::~CDynamicPoolEx<NEffectUpdateDecorator::CTextureAnimationRandomDecorator>
PUBLIC	?Delete@?$CDynamicPoolEx@VCTextureAnimationRandomDecorator@NEffectUpdateDecorator@@@@KAXPAVCTextureAnimationRandomDecorator@NEffectUpdateDecorator@@@Z ; CDynamicPoolEx<NEffectUpdateDecorator::CTextureAnimationRandomDecorator>::Delete
PUBLIC	?_Xlength@?$vector@PAVCTextureAnimationRandomDecorator@NEffectUpdateDecorator@@V?$allocator@PAVCTextureAnimationRandomDecorator@NEffectUpdateDecorator@@@std@@@std@@CAXXZ ; std::vector<NEffectUpdateDecorator::CTextureAnimationRandomDecorator *,std::allocator<NEffectUpdateDecorator::CTextureAnimationRandomDecorator *> >::_Xlength
PUBLIC	??1?$CDynamicPoolEx@VCTextureAnimationCCWDecorator@NEffectUpdateDecorator@@@@UAE@XZ ; CDynamicPoolEx<NEffectUpdateDecorator::CTextureAnimationCCWDecorator>::~CDynamicPoolEx<NEffectUpdateDecorator::CTextureAnimationCCWDecorator>
PUBLIC	?Delete@?$CDynamicPoolEx@VCTextureAnimationCCWDecorator@NEffectUpdateDecorator@@@@KAXPAVCTextureAnimationCCWDecorator@NEffectUpdateDecorator@@@Z ; CDynamicPoolEx<NEffectUpdateDecorator::CTextureAnimationCCWDecorator>::Delete
PUBLIC	?_Xlength@?$vector@PAVCTextureAnimationCCWDecorator@NEffectUpdateDecorator@@V?$allocator@PAVCTextureAnimationCCWDecorator@NEffectUpdateDecorator@@@std@@@std@@CAXXZ ; std::vector<NEffectUpdateDecorator::CTextureAnimationCCWDecorator *,std::allocator<NEffectUpdateDecorator::CTextureAnimationCCWDecorator *> >::_Xlength
PUBLIC	??1?$CDynamicPoolEx@VCTextureAnimationCWDecorator@NEffectUpdateDecorator@@@@UAE@XZ ; CDynamicPoolEx<NEffectUpdateDecorator::CTextureAnimationCWDecorator>::~CDynamicPoolEx<NEffectUpdateDecorator::CTextureAnimationCWDecorator>
PUBLIC	?Delete@?$CDynamicPoolEx@VCTextureAnimationCWDecorator@NEffectUpdateDecorator@@@@KAXPAVCTextureAnimationCWDecorator@NEffectUpdateDecorator@@@Z ; CDynamicPoolEx<NEffectUpdateDecorator::CTextureAnimationCWDecorator>::Delete
PUBLIC	?_Xlength@?$vector@PAVCTextureAnimationCWDecorator@NEffectUpdateDecorator@@V?$allocator@PAVCTextureAnimationCWDecorator@NEffectUpdateDecorator@@@std@@@std@@CAXXZ ; std::vector<NEffectUpdateDecorator::CTextureAnimationCWDecorator *,std::allocator<NEffectUpdateDecorator::CTextureAnimationCWDecorator *> >::_Xlength
PUBLIC	??1?$CDynamicPoolEx@VCNullDecorator@NEffectUpdateDecorator@@@@UAE@XZ ; CDynamicPoolEx<NEffectUpdateDecorator::CNullDecorator>::~CDynamicPoolEx<NEffectUpdateDecorator::CNullDecorator>
PUBLIC	?Delete@?$CDynamicPoolEx@VCNullDecorator@NEffectUpdateDecorator@@@@KAXPAVCNullDecorator@NEffectUpdateDecorator@@@Z ; CDynamicPoolEx<NEffectUpdateDecorator::CNullDecorator>::Delete
PUBLIC	?_Xlength@?$vector@PAVCNullDecorator@NEffectUpdateDecorator@@V?$allocator@PAVCNullDecorator@NEffectUpdateDecorator@@@std@@@std@@CAXXZ ; std::vector<NEffectUpdateDecorator::CNullDecorator *,std::allocator<NEffectUpdateDecorator::CNullDecorator *> >::_Xlength
PUBLIC	??1?$CDynamicPoolEx@VCHeaderDecorator@NEffectUpdateDecorator@@@@UAE@XZ ; CDynamicPoolEx<NEffectUpdateDecorator::CHeaderDecorator>::~CDynamicPoolEx<NEffectUpdateDecorator::CHeaderDecorator>
PUBLIC	?Delete@?$CDynamicPoolEx@VCHeaderDecorator@NEffectUpdateDecorator@@@@KAXPAVCHeaderDecorator@NEffectUpdateDecorator@@@Z ; CDynamicPoolEx<NEffectUpdateDecorator::CHeaderDecorator>::Delete
PUBLIC	?_Xlength@?$vector@PAVCHeaderDecorator@NEffectUpdateDecorator@@V?$allocator@PAVCHeaderDecorator@NEffectUpdateDecorator@@@std@@@std@@CAXXZ ; std::vector<NEffectUpdateDecorator::CHeaderDecorator *,std::allocator<NEffectUpdateDecorator::CHeaderDecorator *> >::_Xlength
PUBLIC	??$_Emplace_reallocate@ABV?$CTimeEvent@UDWORDCOLOR@@@@@?$vector@V?$CTimeEvent@UDWORDCOLOR@@@@V?$allocator@V?$CTimeEvent@UDWORDCOLOR@@@@@std@@@std@@QAEPAV?$CTimeEvent@UDWORDCOLOR@@@@QAV2@ABV2@@Z ; std::vector<CTimeEvent<DWORDCOLOR>,std::allocator<CTimeEvent<DWORDCOLOR> > >::_Emplace_reallocate<CTimeEvent<DWORDCOLOR> const &>
PUBLIC	??$_Emplace_reallocate@ABV?$CTimeEvent@M@@@?$vector@V?$CTimeEvent@M@@V?$allocator@V?$CTimeEvent@M@@@std@@@std@@QAEPAV?$CTimeEvent@M@@QAV2@ABV2@@Z ; std::vector<CTimeEvent<float>,std::allocator<CTimeEvent<float> > >::_Emplace_reallocate<CTimeEvent<float> const &>
PUBLIC	??$_Emplace_reallocate@ABQAVCParticleSystemData@@@?$vector@PAVCParticleSystemData@@V?$allocator@PAVCParticleSystemData@@@std@@@std@@QAEPAPAVCParticleSystemData@@QAPAV2@ABQAV2@@Z ; std::vector<CParticleSystemData *,std::allocator<CParticleSystemData *> >::_Emplace_reallocate<CParticleSystemData * const &>
PUBLIC	??$_Emplace_reallocate@ABQAVCHeaderDecorator@NEffectUpdateDecorator@@@?$vector@PAVCHeaderDecorator@NEffectUpdateDecorator@@V?$allocator@PAVCHeaderDecorator@NEffectUpdateDecorator@@@std@@@std@@QAEPAPAVCHeaderDecorator@NEffectUpdateDecorator@@QAPAV23@ABQAV23@@Z ; std::vector<NEffectUpdateDecorator::CHeaderDecorator *,std::allocator<NEffectUpdateDecorator::CHeaderDecorator *> >::_Emplace_reallocate<NEffectUpdateDecorator::CHeaderDecorator * const &>
PUBLIC	??$_Emplace_reallocate@ABQAVCNullDecorator@NEffectUpdateDecorator@@@?$vector@PAVCNullDecorator@NEffectUpdateDecorator@@V?$allocator@PAVCNullDecorator@NEffectUpdateDecorator@@@std@@@std@@QAEPAPAVCNullDecorator@NEffectUpdateDecorator@@QAPAV23@ABQAV23@@Z ; std::vector<NEffectUpdateDecorator::CNullDecorator *,std::allocator<NEffectUpdateDecorator::CNullDecorator *> >::_Emplace_reallocate<NEffectUpdateDecorator::CNullDecorator * const &>
PUBLIC	??$_Emplace_reallocate@ABQAVCTextureAnimationCWDecorator@NEffectUpdateDecorator@@@?$vector@PAVCTextureAnimationCWDecorator@NEffectUpdateDecorator@@V?$allocator@PAVCTextureAnimationCWDecorator@NEffectUpdateDecorator@@@std@@@std@@QAEPAPAVCTextureAnimationCWDecorator@NEffectUpdateDecorator@@QAPAV23@ABQAV23@@Z ; std::vector<NEffectUpdateDecorator::CTextureAnimationCWDecorator *,std::allocator<NEffectUpdateDecorator::CTextureAnimationCWDecorator *> >::_Emplace_reallocate<NEffectUpdateDecorator::CTextureAnimationCWDecorator * const &>
PUBLIC	??$_Emplace_reallocate@ABQAVCTextureAnimationCCWDecorator@NEffectUpdateDecorator@@@?$vector@PAVCTextureAnimationCCWDecorator@NEffectUpdateDecorator@@V?$allocator@PAVCTextureAnimationCCWDecorator@NEffectUpdateDecorator@@@std@@@std@@QAEPAPAVCTextureAnimationCCWDecorator@NEffectUpdateDecorator@@QAPAV23@ABQAV23@@Z ; std::vector<NEffectUpdateDecorator::CTextureAnimationCCWDecorator *,std::allocator<NEffectUpdateDecorator::CTextureAnimationCCWDecorator *> >::_Emplace_reallocate<NEffectUpdateDecorator::CTextureAnimationCCWDecorator * const &>
PUBLIC	??$_Emplace_reallocate@ABQAVCTextureAnimationRandomDecorator@NEffectUpdateDecorator@@@?$vector@PAVCTextureAnimationRandomDecorator@NEffectUpdateDecorator@@V?$allocator@PAVCTextureAnimationRandomDecorator@NEffectUpdateDecorator@@@std@@@std@@QAEPAPAVCTextureAnimationRandomDecorator@NEffectUpdateDecorator@@QAPAV23@ABQAV23@@Z ; std::vector<NEffectUpdateDecorator::CTextureAnimationRandomDecorator *,std::allocator<NEffectUpdateDecorator::CTextureAnimationRandomDecorator *> >::_Emplace_reallocate<NEffectUpdateDecorator::CTextureAnimationRandomDecorator * const &>
PUBLIC	??$_Emplace_reallocate@ABQAVCAirResistanceDecorator@NEffectUpdateDecorator@@@?$vector@PAVCAirResistanceDecorator@NEffectUpdateDecorator@@V?$allocator@PAVCAirResistanceDecorator@NEffectUpdateDecorator@@@std@@@std@@QAEPAPAVCAirResistanceDecorator@NEffectUpdateDecorator@@QAPAV23@ABQAV23@@Z ; std::vector<NEffectUpdateDecorator::CAirResistanceDecorator *,std::allocator<NEffectUpdateDecorator::CAirResistanceDecorator *> >::_Emplace_reallocate<NEffectUpdateDecorator::CAirResistanceDecorator * const &>
PUBLIC	??$_Emplace_reallocate@ABQAVCGravityDecorator@NEffectUpdateDecorator@@@?$vector@PAVCGravityDecorator@NEffectUpdateDecorator@@V?$allocator@PAVCGravityDecorator@NEffectUpdateDecorator@@@std@@@std@@QAEPAPAVCGravityDecorator@NEffectUpdateDecorator@@QAPAV23@ABQAV23@@Z ; std::vector<NEffectUpdateDecorator::CGravityDecorator *,std::allocator<NEffectUpdateDecorator::CGravityDecorator *> >::_Emplace_reallocate<NEffectUpdateDecorator::CGravityDecorator * const &>
PUBLIC	??$_Emplace_reallocate@ABQAVCRotationDecorator@NEffectUpdateDecorator@@@?$vector@PAVCRotationDecorator@NEffectUpdateDecorator@@V?$allocator@PAVCRotationDecorator@NEffectUpdateDecorator@@@std@@@std@@QAEPAPAVCRotationDecorator@NEffectUpdateDecorator@@QAPAV23@ABQAV23@@Z ; std::vector<NEffectUpdateDecorator::CRotationDecorator *,std::allocator<NEffectUpdateDecorator::CRotationDecorator *> >::_Emplace_reallocate<NEffectUpdateDecorator::CRotationDecorator * const &>
PUBLIC	??$_Emplace_reallocate@ABQAV?$CTimeEventDecorator@M@NEffectUpdateDecorator@@@?$vector@PAV?$CTimeEventDecorator@M@NEffectUpdateDecorator@@V?$allocator@PAV?$CTimeEventDecorator@M@NEffectUpdateDecorator@@@std@@@std@@QAEPAPAV?$CTimeEventDecorator@M@NEffectUpdateDecorator@@QAPAV23@ABQAV23@@Z ; std::vector<NEffectUpdateDecorator::CTimeEventDecorator<float> *,std::allocator<NEffectUpdateDecorator::CTimeEventDecorator<float> *> >::_Emplace_reallocate<NEffectUpdateDecorator::CTimeEventDecorator<float> * const &>
PUBLIC	??$_Emplace_reallocate@ABQAV?$CTimeEventDecorator@UDWORDCOLOR@@@NEffectUpdateDecorator@@@?$vector@PAV?$CTimeEventDecorator@UDWORDCOLOR@@@NEffectUpdateDecorator@@V?$allocator@PAV?$CTimeEventDecorator@UDWORDCOLOR@@@NEffectUpdateDecorator@@@std@@@std@@QAEPAPAV?$CTimeEventDecorator@UDWORDCOLOR@@@NEffectUpdateDecorator@@QAPAV23@ABQAV23@@Z ; std::vector<NEffectUpdateDecorator::CTimeEventDecorator<DWORDCOLOR> *,std::allocator<NEffectUpdateDecorator::CTimeEventDecorator<DWORDCOLOR> *> >::_Emplace_reallocate<NEffectUpdateDecorator::CTimeEventDecorator<DWORDCOLOR> * const &>
PUBLIC	??$equal_range@V?$_Vector_iterator@V?$_Vector_val@U?$_Simple_types@V?$CTimeEvent@M@@@std@@@std@@@std@@M@std@@YA?AU?$pair@V?$_Vector_iterator@V?$_Vector_val@U?$_Simple_types@V?$CTimeEvent@M@@@std@@@std@@@std@@V12@@0@V?$_Vector_iterator@V?$_Vector_val@U?$_Simple_types@V?$CTimeEvent@M@@@std@@@std@@@0@0ABM@Z ; std::equal_range<std::_Vector_iterator<std::_Vector_val<std::_Simple_types<CTimeEvent<float> > > >,float>
PUBLIC	??$_Erase_tree@V?$allocator@U?$_Tree_node@MPAX@std@@@std@@@?$_Tree_val@U?$_Tree_simple_types@M@std@@@std@@QAEXAAV?$allocator@U?$_Tree_node@MPAX@std@@@1@PAU?$_Tree_node@MPAX@1@@Z ; std::_Tree_val<std::_Tree_simple_types<float> >::_Erase_tree<std::allocator<std::_Tree_node<float,void *> > >
PUBLIC	??1?$_Alloc_construct_ptr@V?$allocator@U?$_Tree_node@MPAX@std@@@std@@@std@@QAE@XZ ; std::_Alloc_construct_ptr<std::allocator<std::_Tree_node<float,void *> > >::~_Alloc_construct_ptr<std::allocator<std::_Tree_node<float,void *> > >
PUBLIC	??$_Copy_memmove@PAPAVCHeaderDecorator@NEffectUpdateDecorator@@PAPAV12@@std@@YAPAPAVCHeaderDecorator@NEffectUpdateDecorator@@PAPAV12@00@Z ; std::_Copy_memmove<NEffectUpdateDecorator::CHeaderDecorator * *,NEffectUpdateDecorator::CHeaderDecorator * *>
PUBLIC	??$_Copy_memmove@PAPAVCNullDecorator@NEffectUpdateDecorator@@PAPAV12@@std@@YAPAPAVCNullDecorator@NEffectUpdateDecorator@@PAPAV12@00@Z ; std::_Copy_memmove<NEffectUpdateDecorator::CNullDecorator * *,NEffectUpdateDecorator::CNullDecorator * *>
PUBLIC	??$_Copy_memmove@PAPAVCTextureAnimationCWDecorator@NEffectUpdateDecorator@@PAPAV12@@std@@YAPAPAVCTextureAnimationCWDecorator@NEffectUpdateDecorator@@PAPAV12@00@Z ; std::_Copy_memmove<NEffectUpdateDecorator::CTextureAnimationCWDecorator * *,NEffectUpdateDecorator::CTextureAnimationCWDecorator * *>
PUBLIC	??$_Copy_memmove@PAPAVCTextureAnimationCCWDecorator@NEffectUpdateDecorator@@PAPAV12@@std@@YAPAPAVCTextureAnimationCCWDecorator@NEffectUpdateDecorator@@PAPAV12@00@Z ; std::_Copy_memmove<NEffectUpdateDecorator::CTextureAnimationCCWDecorator * *,NEffectUpdateDecorator::CTextureAnimationCCWDecorator * *>
PUBLIC	??$_Copy_memmove@PAPAVCTextureAnimationRandomDecorator@NEffectUpdateDecorator@@PAPAV12@@std@@YAPAPAVCTextureAnimationRandomDecorator@NEffectUpdateDecorator@@PAPAV12@00@Z ; std::_Copy_memmove<NEffectUpdateDecorator::CTextureAnimationRandomDecorator * *,NEffectUpdateDecorator::CTextureAnimationRandomDecorator * *>
PUBLIC	??$_Copy_memmove@PAPAVCAirResistanceDecorator@NEffectUpdateDecorator@@PAPAV12@@std@@YAPAPAVCAirResistanceDecorator@NEffectUpdateDecorator@@PAPAV12@00@Z ; std::_Copy_memmove<NEffectUpdateDecorator::CAirResistanceDecorator * *,NEffectUpdateDecorator::CAirResistanceDecorator * *>
PUBLIC	??$_Copy_memmove@PAPAVCGravityDecorator@NEffectUpdateDecorator@@PAPAV12@@std@@YAPAPAVCGravityDecorator@NEffectUpdateDecorator@@PAPAV12@00@Z ; std::_Copy_memmove<NEffectUpdateDecorator::CGravityDecorator * *,NEffectUpdateDecorator::CGravityDecorator * *>
PUBLIC	??$_Copy_memmove@PAPAVCRotationDecorator@NEffectUpdateDecorator@@PAPAV12@@std@@YAPAPAVCRotationDecorator@NEffectUpdateDecorator@@PAPAV12@00@Z ; std::_Copy_memmove<NEffectUpdateDecorator::CRotationDecorator * *,NEffectUpdateDecorator::CRotationDecorator * *>
PUBLIC	??$_Copy_memmove@PAPAV?$CTimeEventDecorator@M@NEffectUpdateDecorator@@PAPAV12@@std@@YAPAPAV?$CTimeEventDecorator@M@NEffectUpdateDecorator@@PAPAV12@00@Z ; std::_Copy_memmove<NEffectUpdateDecorator::CTimeEventDecorator<float> * *,NEffectUpdateDecorator::CTimeEventDecorator<float> * *>
PUBLIC	??$_Copy_memmove@PAPAV?$CTimeEventDecorator@UDWORDCOLOR@@@NEffectUpdateDecorator@@PAPAV12@@std@@YAPAPAV?$CTimeEventDecorator@UDWORDCOLOR@@@NEffectUpdateDecorator@@PAPAV12@00@Z ; std::_Copy_memmove<NEffectUpdateDecorator::CTimeEventDecorator<DWORDCOLOR> * *,NEffectUpdateDecorator::CTimeEventDecorator<DWORDCOLOR> * *>
PUBLIC	??$_Copy_memmove@PAPAVCParticleSystemData@@PAPAV1@@std@@YAPAPAVCParticleSystemData@@PAPAV1@00@Z ; std::_Copy_memmove<CParticleSystemData * *,CParticleSystemData * *>
PUBLIC	??_ECHeaderDecorator@NEffectUpdateDecorator@@WM@AEPAXI@Z ; [thunk]:NEffectUpdateDecorator::CHeaderDecorator::`vector deleting destructor'
PUBLIC	??_ECNullDecorator@NEffectUpdateDecorator@@WM@AEPAXI@Z ; [thunk]:NEffectUpdateDecorator::CNullDecorator::`vector deleting destructor'
PUBLIC	??_E?$CTimeEventDecorator@M@NEffectUpdateDecorator@@WM@AEPAXI@Z ; [thunk]:NEffectUpdateDecorator::CTimeEventDecorator<float>::`vector deleting destructor'
PUBLIC	??_E?$CTimeEventDecorator@UDWORDCOLOR@@@NEffectUpdateDecorator@@WM@AEPAXI@Z ; [thunk]:NEffectUpdateDecorator::CTimeEventDecorator<DWORDCOLOR>::`vector deleting destructor'
PUBLIC	??_ECTextureAnimationCWDecorator@NEffectUpdateDecorator@@WM@AEPAXI@Z ; [thunk]:NEffectUpdateDecorator::CTextureAnimationCWDecorator::`vector deleting destructor'
PUBLIC	??_ECTextureAnimationCCWDecorator@NEffectUpdateDecorator@@WM@AEPAXI@Z ; [thunk]:NEffectUpdateDecorator::CTextureAnimationCCWDecorator::`vector deleting destructor'
PUBLIC	??_ECTextureAnimationRandomDecorator@NEffectUpdateDecorator@@WM@AEPAXI@Z ; [thunk]:NEffectUpdateDecorator::CTextureAnimationRandomDecorator::`vector deleting destructor'
PUBLIC	??_ECAirResistanceDecorator@NEffectUpdateDecorator@@WM@AEPAXI@Z ; [thunk]:NEffectUpdateDecorator::CAirResistanceDecorator::`vector deleting destructor'
PUBLIC	??_ECGravityDecorator@NEffectUpdateDecorator@@WM@AEPAXI@Z ; [thunk]:NEffectUpdateDecorator::CGravityDecorator::`vector deleting destructor'
PUBLIC	??_ECRotationDecorator@NEffectUpdateDecorator@@WM@AEPAXI@Z ; [thunk]:NEffectUpdateDecorator::CRotationDecorator::`vector deleting destructor'
PUBLIC	??_7exception@std@@6B@				; std::exception::`vftable'
PUBLIC	??_C@_0BC@EOODALEL@Unknown?5exception@		; `string'
PUBLIC	??_7bad_alloc@std@@6B@				; std::bad_alloc::`vftable'
PUBLIC	??_7bad_array_new_length@std@@6B@		; std::bad_array_new_length::`vftable'
PUBLIC	??_C@_0BF@KINCDENJ@bad?5array?5new?5length@	; `string'
PUBLIC	__TI3?AVbad_array_new_length@std@@
PUBLIC	__CTA3?AVbad_array_new_length@std@@
PUBLIC	??_R0?AVbad_array_new_length@std@@@8		; std::bad_array_new_length `RTTI Type Descriptor'
PUBLIC	__CT??_R0?AVbad_array_new_length@std@@@8??0bad_array_new_length@std@@QAE@ABV01@@Z12
PUBLIC	??_R0?AVbad_alloc@std@@@8			; std::bad_alloc `RTTI Type Descriptor'
PUBLIC	__CT??_R0?AVbad_alloc@std@@@8??0bad_alloc@std@@QAE@ABV01@@Z12
PUBLIC	??_R0?AVexception@std@@@8			; std::exception `RTTI Type Descriptor'
PUBLIC	__CT??_R0?AVexception@std@@@8??0exception@std@@QAE@ABV01@@Z12
PUBLIC	??_C@_0BA@JFNIOLAK@string?5too?5long@		; `string'
PUBLIC	??_C@_0BB@GCADKGJO@map?1set?5too?5long@		; `string'
PUBLIC	??_R4exception@std@@6B@				; std::exception::`RTTI Complete Object Locator'
PUBLIC	??_R3exception@std@@8				; std::exception::`RTTI Class Hierarchy Descriptor'
PUBLIC	??_R2exception@std@@8				; std::exception::`RTTI Base Class Array'
PUBLIC	??_R1A@?0A@EA@exception@std@@8			; std::exception::`RTTI Base Class Descriptor at (0,-1,0,64)'
PUBLIC	??_R4bad_alloc@std@@6B@				; std::bad_alloc::`RTTI Complete Object Locator'
PUBLIC	??_R3bad_alloc@std@@8				; std::bad_alloc::`RTTI Class Hierarchy Descriptor'
PUBLIC	??_R2bad_alloc@std@@8				; std::bad_alloc::`RTTI Base Class Array'
PUBLIC	??_R1A@?0A@EA@bad_alloc@std@@8			; std::bad_alloc::`RTTI Base Class Descriptor at (0,-1,0,64)'
PUBLIC	??_R4bad_array_new_length@std@@6B@		; std::bad_array_new_length::`RTTI Complete Object Locator'
PUBLIC	??_R3bad_array_new_length@std@@8		; std::bad_array_new_length::`RTTI Class Hierarchy Descriptor'
PUBLIC	??_R2bad_array_new_length@std@@8		; std::bad_array_new_length::`RTTI Base Class Array'
PUBLIC	??_R1A@?0A@EA@bad_array_new_length@std@@8	; std::bad_array_new_length::`RTTI Base Class Descriptor at (0,-1,0,64)'
PUBLIC	?ms_kPool@CParticleSystemData@@2V?$CDynamicPool@VCParticleSystemData@@@@A ; CParticleSystemData::ms_kPool
PUBLIC	??_7CParticleSystemData@@6B@			; CParticleSystemData::`vftable'
PUBLIC	??_7CBaseDecorator@NEffectUpdateDecorator@@6B@	; NEffectUpdateDecorator::CBaseDecorator::`vftable'
PUBLIC	?ms_kPool@?$CPooledObject@VCHeaderDecorator@NEffectUpdateDecorator@@@@1V?$CDynamicPoolEx@VCHeaderDecorator@NEffectUpdateDecorator@@@@A ; CPooledObject<NEffectUpdateDecorator::CHeaderDecorator>::ms_kPool
PUBLIC	??_7?$CPooledObject@VCHeaderDecorator@NEffectUpdateDecorator@@@@6B@ ; CPooledObject<NEffectUpdateDecorator::CHeaderDecorator>::`vftable'
PUBLIC	??_7CHeaderDecorator@NEffectUpdateDecorator@@6BCBaseDecorator@1@@ ; NEffectUpdateDecorator::CHeaderDecorator::`vftable'
PUBLIC	??_7CHeaderDecorator@NEffectUpdateDecorator@@6B?$CPooledObject@VCHeaderDecorator@NEffectUpdateDecorator@@@@@ ; NEffectUpdateDecorator::CHeaderDecorator::`vftable'
PUBLIC	?ms_kPool@?$CPooledObject@VCNullDecorator@NEffectUpdateDecorator@@@@1V?$CDynamicPoolEx@VCNullDecorator@NEffectUpdateDecorator@@@@A ; CPooledObject<NEffectUpdateDecorator::CNullDecorator>::ms_kPool
PUBLIC	??_7?$CPooledObject@VCNullDecorator@NEffectUpdateDecorator@@@@6B@ ; CPooledObject<NEffectUpdateDecorator::CNullDecorator>::`vftable'
PUBLIC	??_7CNullDecorator@NEffectUpdateDecorator@@6BCBaseDecorator@1@@ ; NEffectUpdateDecorator::CNullDecorator::`vftable'
PUBLIC	??_7CNullDecorator@NEffectUpdateDecorator@@6B?$CPooledObject@VCNullDecorator@NEffectUpdateDecorator@@@@@ ; NEffectUpdateDecorator::CNullDecorator::`vftable'
PUBLIC	?ms_kPool@?$CPooledObject@VCTextureAnimationCWDecorator@NEffectUpdateDecorator@@@@1V?$CDynamicPoolEx@VCTextureAnimationCWDecorator@NEffectUpdateDecorator@@@@A ; CPooledObject<NEffectUpdateDecorator::CTextureAnimationCWDecorator>::ms_kPool
PUBLIC	??_7?$CPooledObject@VCTextureAnimationCWDecorator@NEffectUpdateDecorator@@@@6B@ ; CPooledObject<NEffectUpdateDecorator::CTextureAnimationCWDecorator>::`vftable'
PUBLIC	??_7CTextureAnimationCWDecorator@NEffectUpdateDecorator@@6BCBaseDecorator@1@@ ; NEffectUpdateDecorator::CTextureAnimationCWDecorator::`vftable'
PUBLIC	??_7CTextureAnimationCWDecorator@NEffectUpdateDecorator@@6B?$CPooledObject@VCTextureAnimationCWDecorator@NEffectUpdateDecorator@@@@@ ; NEffectUpdateDecorator::CTextureAnimationCWDecorator::`vftable'
PUBLIC	?ms_kPool@?$CPooledObject@VCTextureAnimationCCWDecorator@NEffectUpdateDecorator@@@@1V?$CDynamicPoolEx@VCTextureAnimationCCWDecorator@NEffectUpdateDecorator@@@@A ; CPooledObject<NEffectUpdateDecorator::CTextureAnimationCCWDecorator>::ms_kPool
PUBLIC	??_7?$CPooledObject@VCTextureAnimationCCWDecorator@NEffectUpdateDecorator@@@@6B@ ; CPooledObject<NEffectUpdateDecorator::CTextureAnimationCCWDecorator>::`vftable'
PUBLIC	??_7CTextureAnimationCCWDecorator@NEffectUpdateDecorator@@6BCBaseDecorator@1@@ ; NEffectUpdateDecorator::CTextureAnimationCCWDecorator::`vftable'
PUBLIC	??_7CTextureAnimationCCWDecorator@NEffectUpdateDecorator@@6B?$CPooledObject@VCTextureAnimationCCWDecorator@NEffectUpdateDecorator@@@@@ ; NEffectUpdateDecorator::CTextureAnimationCCWDecorator::`vftable'
PUBLIC	?ms_kPool@?$CPooledObject@VCTextureAnimationRandomDecorator@NEffectUpdateDecorator@@@@1V?$CDynamicPoolEx@VCTextureAnimationRandomDecorator@NEffectUpdateDecorator@@@@A ; CPooledObject<NEffectUpdateDecorator::CTextureAnimationRandomDecorator>::ms_kPool
PUBLIC	??_7?$CPooledObject@VCTextureAnimationRandomDecorator@NEffectUpdateDecorator@@@@6B@ ; CPooledObject<NEffectUpdateDecorator::CTextureAnimationRandomDecorator>::`vftable'
PUBLIC	??_7CTextureAnimationRandomDecorator@NEffectUpdateDecorator@@6BCBaseDecorator@1@@ ; NEffectUpdateDecorator::CTextureAnimationRandomDecorator::`vftable'
PUBLIC	??_7CTextureAnimationRandomDecorator@NEffectUpdateDecorator@@6B?$CPooledObject@VCTextureAnimationRandomDecorator@NEffectUpdateDecorator@@@@@ ; NEffectUpdateDecorator::CTextureAnimationRandomDecorator::`vftable'
PUBLIC	?ms_kPool@?$CPooledObject@VCAirResistanceDecorator@NEffectUpdateDecorator@@@@1V?$CDynamicPoolEx@VCAirResistanceDecorator@NEffectUpdateDecorator@@@@A ; CPooledObject<NEffectUpdateDecorator::CAirResistanceDecorator>::ms_kPool
PUBLIC	??_7?$CPooledObject@VCAirResistanceDecorator@NEffectUpdateDecorator@@@@6B@ ; CPooledObject<NEffectUpdateDecorator::CAirResistanceDecorator>::`vftable'
PUBLIC	??_7CAirResistanceDecorator@NEffectUpdateDecorator@@6BCBaseDecorator@1@@ ; NEffectUpdateDecorator::CAirResistanceDecorator::`vftable'
PUBLIC	??_7CAirResistanceDecorator@NEffectUpdateDecorator@@6B?$CPooledObject@VCAirResistanceDecorator@NEffectUpdateDecorator@@@@@ ; NEffectUpdateDecorator::CAirResistanceDecorator::`vftable'
PUBLIC	?ms_kPool@?$CPooledObject@VCGravityDecorator@NEffectUpdateDecorator@@@@1V?$CDynamicPoolEx@VCGravityDecorator@NEffectUpdateDecorator@@@@A ; CPooledObject<NEffectUpdateDecorator::CGravityDecorator>::ms_kPool
PUBLIC	??_7?$CPooledObject@VCGravityDecorator@NEffectUpdateDecorator@@@@6B@ ; CPooledObject<NEffectUpdateDecorator::CGravityDecorator>::`vftable'
PUBLIC	??_7CGravityDecorator@NEffectUpdateDecorator@@6BCBaseDecorator@1@@ ; NEffectUpdateDecorator::CGravityDecorator::`vftable'
PUBLIC	??_7CGravityDecorator@NEffectUpdateDecorator@@6B?$CPooledObject@VCGravityDecorator@NEffectUpdateDecorator@@@@@ ; NEffectUpdateDecorator::CGravityDecorator::`vftable'
PUBLIC	?ms_kPool@?$CPooledObject@VCRotationDecorator@NEffectUpdateDecorator@@@@1V?$CDynamicPoolEx@VCRotationDecorator@NEffectUpdateDecorator@@@@A ; CPooledObject<NEffectUpdateDecorator::CRotationDecorator>::ms_kPool
PUBLIC	??_7?$CPooledObject@VCRotationDecorator@NEffectUpdateDecorator@@@@6B@ ; CPooledObject<NEffectUpdateDecorator::CRotationDecorator>::`vftable'
PUBLIC	??_7CRotationDecorator@NEffectUpdateDecorator@@6BCBaseDecorator@1@@ ; NEffectUpdateDecorator::CRotationDecorator::`vftable'
PUBLIC	??_7CRotationDecorator@NEffectUpdateDecorator@@6B?$CPooledObject@VCRotationDecorator@NEffectUpdateDecorator@@@@@ ; NEffectUpdateDecorator::CRotationDecorator::`vftable'
PUBLIC	??_C@_0BA@BHDCJGBH@emitterproperty@		; `string'
PUBLIC	??_C@_0BB@GFCINCLJ@maxemissioncount@		; `string'
PUBLIC	??_C@_0M@CMAFBHMP@cyclelength@			; `string'
PUBLIC	??_C@_0BA@HFAFNHAP@cycleloopenable@		; `string'
PUBLIC	??_C@_09HBCOMICA@loopcount@			; `string'
PUBLIC	??_C@_0N@CEDHOJLK@emittershape@			; `string'
PUBLIC	??_C@_0BE@NHCLCKPF@emitteradvancedtype@		; `string'
PUBLIC	??_C@_0N@JELCEBGI@emittingsize@			; `string'
PUBLIC	??_C@_0P@CFPFJLBH@emittingradius@		; `string'
PUBLIC	??_C@_0BI@JPHOPPGG@emitteremitfromedgeflag@	; `string'
PUBLIC	??_C@_0BC@DDGDKONG@emittingdirection@		; `string'
PUBLIC	??_C@_0BG@EOBNDMCN@timeeventemittingsize@	; `string'
PUBLIC	??_C@_0CB@BEJHCOPI@timeeventemittingangularvelocit@ ; `string'
PUBLIC	??_C@_0BM@EDKEOBKF@timeeventemittingdirectionx@	; `string'
PUBLIC	??_C@_0BM@FKLPNAOE@timeeventemittingdirectiony@	; `string'
PUBLIC	??_C@_0BM@HBJCIDCH@timeeventemittingdirectionz@	; `string'
PUBLIC	??_C@_0BK@JMDFAGCJ@timeeventemittingvelocity@	; `string'
PUBLIC	??_C@_0CA@KBEMNMAO@timeeventemissioncountpersecond@ ; `string'
PUBLIC	??_C@_0BC@IBAOECEB@timeeventlifetime@		; `string'
PUBLIC	??_C@_0P@NKCDAPOH@timeeventsizex@		; `string'
PUBLIC	??_C@_0P@MDDIDOKG@timeeventsizey@		; `string'
PUBLIC	??_C@_0BB@HGNFNICN@particleproperty@		; `string'
PUBLIC	??_C@_0N@BPEOGKBI@srcblendtype@			; `string'
PUBLIC	??_C@_0O@FMHKLBEP@destblendtype@		; `string'
PUBLIC	??_C@_0BD@DAMHAFBJ@coloroperationtype@		; `string'
PUBLIC	??_C@_0O@EJACNAIE@billboardtype@		; `string'
PUBLIC	??_C@_0N@HLMOOIDA@rotationtype@			; `string'
PUBLIC	??_C@_0O@FAOBKFID@rotationspeed@		; `string'
PUBLIC	??_C@_0BM@BGHFBHHG@rotationrandomstartingbegin@	; `string'
PUBLIC	??_C@_0BK@DKMEPDJP@rotationrandomstartingend@	; `string'
PUBLIC	??_C@_0N@JFNGIJMG@attachenable@			; `string'
PUBLIC	??_C@_0O@DFPNMBJD@stretchenable@		; `string'
PUBLIC	??_C@_0L@BIBLFGDP@texanitype@			; `string'
PUBLIC	??_C@_0M@PDIDMMDH@texanidelay@			; `string'
PUBLIC	??_C@_0BN@DIHGKMNJ@texanirandomstartframeenable@ ; `string'
PUBLIC	??_C@_07GFBFDLBM@gravity@			; `string'
PUBLIC	??_C@_0BB@BHFJHILP@timeeventgravity@		; `string'
PUBLIC	??_C@_0O@IJAIPGAL@airresistance@		; `string'
PUBLIC	??_C@_0BH@IPGEOMGJ@timeeventairresistance@	; `string'
PUBLIC	??_C@_0BA@GAPFNHG@timeeventscalex@		; `string'
PUBLIC	??_C@_0BA@BPBEGMDH@timeeventscaley@		; `string'
PUBLIC	??_C@_0BC@ICGDLNPI@timeeventcolorred@		; `string'
PUBLIC	??_C@_0BE@OFLANGNK@timeeventcolorgreen@		; `string'
PUBLIC	??_C@_0BD@KLGCJHDO@timeeventcolorblue@		; `string'
PUBLIC	??_C@_0P@KALIPJCI@timeeventalpha@		; `string'
PUBLIC	??_C@_0BC@KIMDBAHB@timeeventrotation@		; `string'
PUBLIC	??_C@_0N@HNMKMDCI@texturefiles@			; `string'
PUBLIC	?ms_kPool@?$CPooledObject@V?$CTimeEventDecorator@M@NEffectUpdateDecorator@@@@1V?$CDynamicPoolEx@V?$CTimeEventDecorator@M@NEffectUpdateDecorator@@@@A ; CPooledObject<NEffectUpdateDecorator::CTimeEventDecorator<float> >::ms_kPool
PUBLIC	??_7?$CPooledObject@V?$CTimeEventDecorator@M@NEffectUpdateDecorator@@@@6B@ ; CPooledObject<NEffectUpdateDecorator::CTimeEventDecorator<float> >::`vftable'
PUBLIC	??_7?$CTimeEventDecorator@M@NEffectUpdateDecorator@@6BCBaseDecorator@1@@ ; NEffectUpdateDecorator::CTimeEventDecorator<float>::`vftable'
PUBLIC	??_7?$CTimeEventDecorator@M@NEffectUpdateDecorator@@6B?$CPooledObject@V?$CTimeEventDecorator@M@NEffectUpdateDecorator@@@@@ ; NEffectUpdateDecorator::CTimeEventDecorator<float>::`vftable'
PUBLIC	?ms_kPool@?$CPooledObject@V?$CTimeEventDecorator@UDWORDCOLOR@@@NEffectUpdateDecorator@@@@1V?$CDynamicPoolEx@V?$CTimeEventDecorator@UDWORDCOLOR@@@NEffectUpdateDecorator@@@@A ; CPooledObject<NEffectUpdateDecorator::CTimeEventDecorator<DWORDCOLOR> >::ms_kPool
PUBLIC	??_7?$CPooledObject@V?$CTimeEventDecorator@UDWORDCOLOR@@@NEffectUpdateDecorator@@@@6B@ ; CPooledObject<NEffectUpdateDecorator::CTimeEventDecorator<DWORDCOLOR> >::`vftable'
PUBLIC	??_7?$CTimeEventDecorator@UDWORDCOLOR@@@NEffectUpdateDecorator@@6BCBaseDecorator@1@@ ; NEffectUpdateDecorator::CTimeEventDecorator<DWORDCOLOR>::`vftable'
PUBLIC	??_7?$CTimeEventDecorator@UDWORDCOLOR@@@NEffectUpdateDecorator@@6B?$CPooledObject@V?$CTimeEventDecorator@UDWORDCOLOR@@@NEffectUpdateDecorator@@@@@ ; NEffectUpdateDecorator::CTimeEventDecorator<DWORDCOLOR>::`vftable'
PUBLIC	??_C@_0BJ@DHFDPMIM@invalid?5vector?5subscript@	; `string'
PUBLIC	??_C@_0BA@FOIKENOD@vector?5too?5long@		; `string'
PUBLIC	??_R4CParticleSystemData@@6B@			; CParticleSystemData::`RTTI Complete Object Locator'
PUBLIC	??_R0?AVCParticleSystemData@@@8			; CParticleSystemData `RTTI Type Descriptor'
PUBLIC	??_R3CParticleSystemData@@8			; CParticleSystemData::`RTTI Class Hierarchy Descriptor'
PUBLIC	??_R2CParticleSystemData@@8			; CParticleSystemData::`RTTI Base Class Array'
PUBLIC	??_R1A@?0A@EA@CParticleSystemData@@8		; CParticleSystemData::`RTTI Base Class Descriptor at (0,-1,0,64)'
PUBLIC	??_R1A@?0A@EA@CEffectElementBase@@8		; CEffectElementBase::`RTTI Base Class Descriptor at (0,-1,0,64)'
PUBLIC	??_R0?AVCEffectElementBase@@@8			; CEffectElementBase `RTTI Type Descriptor'
PUBLIC	??_R3CEffectElementBase@@8			; CEffectElementBase::`RTTI Class Hierarchy Descriptor'
PUBLIC	??_R2CEffectElementBase@@8			; CEffectElementBase::`RTTI Base Class Array'
PUBLIC	??_R4CBaseDecorator@NEffectUpdateDecorator@@6B@	; NEffectUpdateDecorator::CBaseDecorator::`RTTI Complete Object Locator'
PUBLIC	??_R0?AVCBaseDecorator@NEffectUpdateDecorator@@@8 ; NEffectUpdateDecorator::CBaseDecorator `RTTI Type Descriptor'
PUBLIC	??_R3CBaseDecorator@NEffectUpdateDecorator@@8	; NEffectUpdateDecorator::CBaseDecorator::`RTTI Class Hierarchy Descriptor'
PUBLIC	??_R2CBaseDecorator@NEffectUpdateDecorator@@8	; NEffectUpdateDecorator::CBaseDecorator::`RTTI Base Class Array'
PUBLIC	??_R1A@?0A@EA@CBaseDecorator@NEffectUpdateDecorator@@8 ; NEffectUpdateDecorator::CBaseDecorator::`RTTI Base Class Descriptor at (0,-1,0,64)'
PUBLIC	??_R4CHeaderDecorator@NEffectUpdateDecorator@@6BCBaseDecorator@1@@ ; NEffectUpdateDecorator::CHeaderDecorator::`RTTI Complete Object Locator'
PUBLIC	??_R0?AVCHeaderDecorator@NEffectUpdateDecorator@@@8 ; NEffectUpdateDecorator::CHeaderDecorator `RTTI Type Descriptor'
PUBLIC	??_R3CHeaderDecorator@NEffectUpdateDecorator@@8	; NEffectUpdateDecorator::CHeaderDecorator::`RTTI Class Hierarchy Descriptor'
PUBLIC	??_R2CHeaderDecorator@NEffectUpdateDecorator@@8	; NEffectUpdateDecorator::CHeaderDecorator::`RTTI Base Class Array'
PUBLIC	??_R1A@?0A@EA@CHeaderDecorator@NEffectUpdateDecorator@@8 ; NEffectUpdateDecorator::CHeaderDecorator::`RTTI Base Class Descriptor at (0,-1,0,64)'
PUBLIC	??_R1M@?0A@EA@?$CPooledObject@VCHeaderDecorator@NEffectUpdateDecorator@@@@8 ; CPooledObject<NEffectUpdateDecorator::CHeaderDecorator>::`RTTI Base Class Descriptor at (12,-1,0,64)'
PUBLIC	??_R0?AV?$CPooledObject@VCHeaderDecorator@NEffectUpdateDecorator@@@@@8 ; CPooledObject<NEffectUpdateDecorator::CHeaderDecorator> `RTTI Type Descriptor'
PUBLIC	??_R3?$CPooledObject@VCHeaderDecorator@NEffectUpdateDecorator@@@@8 ; CPooledObject<NEffectUpdateDecorator::CHeaderDecorator>::`RTTI Class Hierarchy Descriptor'
PUBLIC	??_R2?$CPooledObject@VCHeaderDecorator@NEffectUpdateDecorator@@@@8 ; CPooledObject<NEffectUpdateDecorator::CHeaderDecorator>::`RTTI Base Class Array'
PUBLIC	??_R1A@?0A@EA@?$CPooledObject@VCHeaderDecorator@NEffectUpdateDecorator@@@@8 ; CPooledObject<NEffectUpdateDecorator::CHeaderDecorator>::`RTTI Base Class Descriptor at (0,-1,0,64)'
PUBLIC	??_R4CHeaderDecorator@NEffectUpdateDecorator@@6B?$CPooledObject@VCHeaderDecorator@NEffectUpdateDecorator@@@@@ ; NEffectUpdateDecorator::CHeaderDecorator::`RTTI Complete Object Locator'
PUBLIC	??_R4?$CPooledObject@VCHeaderDecorator@NEffectUpdateDecorator@@@@6B@ ; CPooledObject<NEffectUpdateDecorator::CHeaderDecorator>::`RTTI Complete Object Locator'
PUBLIC	??_R4CNullDecorator@NEffectUpdateDecorator@@6BCBaseDecorator@1@@ ; NEffectUpdateDecorator::CNullDecorator::`RTTI Complete Object Locator'
PUBLIC	??_R0?AVCNullDecorator@NEffectUpdateDecorator@@@8 ; NEffectUpdateDecorator::CNullDecorator `RTTI Type Descriptor'
PUBLIC	??_R3CNullDecorator@NEffectUpdateDecorator@@8	; NEffectUpdateDecorator::CNullDecorator::`RTTI Class Hierarchy Descriptor'
PUBLIC	??_R2CNullDecorator@NEffectUpdateDecorator@@8	; NEffectUpdateDecorator::CNullDecorator::`RTTI Base Class Array'
PUBLIC	??_R1A@?0A@EA@CNullDecorator@NEffectUpdateDecorator@@8 ; NEffectUpdateDecorator::CNullDecorator::`RTTI Base Class Descriptor at (0,-1,0,64)'
PUBLIC	??_R1M@?0A@EA@?$CPooledObject@VCNullDecorator@NEffectUpdateDecorator@@@@8 ; CPooledObject<NEffectUpdateDecorator::CNullDecorator>::`RTTI Base Class Descriptor at (12,-1,0,64)'
PUBLIC	??_R0?AV?$CPooledObject@VCNullDecorator@NEffectUpdateDecorator@@@@@8 ; CPooledObject<NEffectUpdateDecorator::CNullDecorator> `RTTI Type Descriptor'
PUBLIC	??_R3?$CPooledObject@VCNullDecorator@NEffectUpdateDecorator@@@@8 ; CPooledObject<NEffectUpdateDecorator::CNullDecorator>::`RTTI Class Hierarchy Descriptor'
PUBLIC	??_R2?$CPooledObject@VCNullDecorator@NEffectUpdateDecorator@@@@8 ; CPooledObject<NEffectUpdateDecorator::CNullDecorator>::`RTTI Base Class Array'
PUBLIC	??_R1A@?0A@EA@?$CPooledObject@VCNullDecorator@NEffectUpdateDecorator@@@@8 ; CPooledObject<NEffectUpdateDecorator::CNullDecorator>::`RTTI Base Class Descriptor at (0,-1,0,64)'
PUBLIC	??_R4CNullDecorator@NEffectUpdateDecorator@@6B?$CPooledObject@VCNullDecorator@NEffectUpdateDecorator@@@@@ ; NEffectUpdateDecorator::CNullDecorator::`RTTI Complete Object Locator'
PUBLIC	??_R4?$CPooledObject@VCNullDecorator@NEffectUpdateDecorator@@@@6B@ ; CPooledObject<NEffectUpdateDecorator::CNullDecorator>::`RTTI Complete Object Locator'
PUBLIC	??_R4?$CTimeEventDecorator@M@NEffectUpdateDecorator@@6BCBaseDecorator@1@@ ; NEffectUpdateDecorator::CTimeEventDecorator<float>::`RTTI Complete Object Locator'
PUBLIC	??_R0?AV?$CTimeEventDecorator@M@NEffectUpdateDecorator@@@8 ; NEffectUpdateDecorator::CTimeEventDecorator<float> `RTTI Type Descriptor'
PUBLIC	??_R3?$CTimeEventDecorator@M@NEffectUpdateDecorator@@8 ; NEffectUpdateDecorator::CTimeEventDecorator<float>::`RTTI Class Hierarchy Descriptor'
PUBLIC	??_R2?$CTimeEventDecorator@M@NEffectUpdateDecorator@@8 ; NEffectUpdateDecorator::CTimeEventDecorator<float>::`RTTI Base Class Array'
PUBLIC	??_R1A@?0A@EA@?$CTimeEventDecorator@M@NEffectUpdateDecorator@@8 ; NEffectUpdateDecorator::CTimeEventDecorator<float>::`RTTI Base Class Descriptor at (0,-1,0,64)'
PUBLIC	??_R1M@?0A@EA@?$CPooledObject@V?$CTimeEventDecorator@M@NEffectUpdateDecorator@@@@8 ; CPooledObject<NEffectUpdateDecorator::CTimeEventDecorator<float> >::`RTTI Base Class Descriptor at (12,-1,0,64)'
PUBLIC	??_R0?AV?$CPooledObject@V?$CTimeEventDecorator@M@NEffectUpdateDecorator@@@@@8 ; CPooledObject<NEffectUpdateDecorator::CTimeEventDecorator<float> > `RTTI Type Descriptor'
PUBLIC	??_R3?$CPooledObject@V?$CTimeEventDecorator@M@NEffectUpdateDecorator@@@@8 ; CPooledObject<NEffectUpdateDecorator::CTimeEventDecorator<float> >::`RTTI Class Hierarchy Descriptor'
PUBLIC	??_R2?$CPooledObject@V?$CTimeEventDecorator@M@NEffectUpdateDecorator@@@@8 ; CPooledObject<NEffectUpdateDecorator::CTimeEventDecorator<float> >::`RTTI Base Class Array'
PUBLIC	??_R1A@?0A@EA@?$CPooledObject@V?$CTimeEventDecorator@M@NEffectUpdateDecorator@@@@8 ; CPooledObject<NEffectUpdateDecorator::CTimeEventDecorator<float> >::`RTTI Base Class Descriptor at (0,-1,0,64)'
PUBLIC	??_R4?$CTimeEventDecorator@M@NEffectUpdateDecorator@@6B?$CPooledObject@V?$CTimeEventDecorator@M@NEffectUpdateDecorator@@@@@ ; NEffectUpdateDecorator::CTimeEventDecorator<float>::`RTTI Complete Object Locator'
PUBLIC	??_R4?$CTimeEventDecorator@UDWORDCOLOR@@@NEffectUpdateDecorator@@6BCBaseDecorator@1@@ ; NEffectUpdateDecorator::CTimeEventDecorator<DWORDCOLOR>::`RTTI Complete Object Locator'
PUBLIC	??_R0?AV?$CTimeEventDecorator@UDWORDCOLOR@@@NEffectUpdateDecorator@@@8 ; NEffectUpdateDecorator::CTimeEventDecorator<DWORDCOLOR> `RTTI Type Descriptor'
PUBLIC	??_R3?$CTimeEventDecorator@UDWORDCOLOR@@@NEffectUpdateDecorator@@8 ; NEffectUpdateDecorator::CTimeEventDecorator<DWORDCOLOR>::`RTTI Class Hierarchy Descriptor'
PUBLIC	??_R2?$CTimeEventDecorator@UDWORDCOLOR@@@NEffectUpdateDecorator@@8 ; NEffectUpdateDecorator::CTimeEventDecorator<DWORDCOLOR>::`RTTI Base Class Array'
PUBLIC	??_R1A@?0A@EA@?$CTimeEventDecorator@UDWORDCOLOR@@@NEffectUpdateDecorator@@8 ; NEffectUpdateDecorator::CTimeEventDecorator<DWORDCOLOR>::`RTTI Base Class Descriptor at (0,-1,0,64)'
PUBLIC	??_R1M@?0A@EA@?$CPooledObject@V?$CTimeEventDecorator@UDWORDCOLOR@@@NEffectUpdateDecorator@@@@8 ; CPooledObject<NEffectUpdateDecorator::CTimeEventDecorator<DWORDCOLOR> >::`RTTI Base Class Descriptor at (12,-1,0,64)'
PUBLIC	??_R0?AV?$CPooledObject@V?$CTimeEventDecorator@UDWORDCOLOR@@@NEffectUpdateDecorator@@@@@8 ; CPooledObject<NEffectUpdateDecorator::CTimeEventDecorator<DWORDCOLOR> > `RTTI Type Descriptor'
PUBLIC	??_R3?$CPooledObject@V?$CTimeEventDecorator@UDWORDCOLOR@@@NEffectUpdateDecorator@@@@8 ; CPooledObject<NEffectUpdateDecorator::CTimeEventDecorator<DWORDCOLOR> >::`RTTI Class Hierarchy Descriptor'
PUBLIC	??_R2?$CPooledObject@V?$CTimeEventDecorator@UDWORDCOLOR@@@NEffectUpdateDecorator@@@@8 ; CPooledObject<NEffectUpdateDecorator::CTimeEventDecorator<DWORDCOLOR> >::`RTTI Base Class Array'
PUBLIC	??_R1A@?0A@EA@?$CPooledObject@V?$CTimeEventDecorator@UDWORDCOLOR@@@NEffectUpdateDecorator@@@@8 ; CPooledObject<NEffectUpdateDecorator::CTimeEventDecorator<DWORDCOLOR> >::`RTTI Base Class Descriptor at (0,-1,0,64)'
PUBLIC	??_R4?$CTimeEventDecorator@UDWORDCOLOR@@@NEffectUpdateDecorator@@6B?$CPooledObject@V?$CTimeEventDecorator@UDWORDCOLOR@@@NEffectUpdateDecorator@@@@@ ; NEffectUpdateDecorator::CTimeEventDecorator<DWORDCOLOR>::`RTTI Complete Object Locator'
PUBLIC	??_R4CTextureAnimationCWDecorator@NEffectUpdateDecorator@@6BCBaseDecorator@1@@ ; NEffectUpdateDecorator::CTextureAnimationCWDecorator::`RTTI Complete Object Locator'
PUBLIC	??_R0?AVCTextureAnimationCWDecorator@NEffectUpdateDecorator@@@8 ; NEffectUpdateDecorator::CTextureAnimationCWDecorator `RTTI Type Descriptor'
PUBLIC	??_R3CTextureAnimationCWDecorator@NEffectUpdateDecorator@@8 ; NEffectUpdateDecorator::CTextureAnimationCWDecorator::`RTTI Class Hierarchy Descriptor'
PUBLIC	??_R2CTextureAnimationCWDecorator@NEffectUpdateDecorator@@8 ; NEffectUpdateDecorator::CTextureAnimationCWDecorator::`RTTI Base Class Array'
PUBLIC	??_R1A@?0A@EA@CTextureAnimationCWDecorator@NEffectUpdateDecorator@@8 ; NEffectUpdateDecorator::CTextureAnimationCWDecorator::`RTTI Base Class Descriptor at (0,-1,0,64)'
PUBLIC	??_R1M@?0A@EA@?$CPooledObject@VCTextureAnimationCWDecorator@NEffectUpdateDecorator@@@@8 ; CPooledObject<NEffectUpdateDecorator::CTextureAnimationCWDecorator>::`RTTI Base Class Descriptor at (12,-1,0,64)'
PUBLIC	??_R0?AV?$CPooledObject@VCTextureAnimationCWDecorator@NEffectUpdateDecorator@@@@@8 ; CPooledObject<NEffectUpdateDecorator::CTextureAnimationCWDecorator> `RTTI Type Descriptor'
PUBLIC	??_R3?$CPooledObject@VCTextureAnimationCWDecorator@NEffectUpdateDecorator@@@@8 ; CPooledObject<NEffectUpdateDecorator::CTextureAnimationCWDecorator>::`RTTI Class Hierarchy Descriptor'
PUBLIC	??_R2?$CPooledObject@VCTextureAnimationCWDecorator@NEffectUpdateDecorator@@@@8 ; CPooledObject<NEffectUpdateDecorator::CTextureAnimationCWDecorator>::`RTTI Base Class Array'
PUBLIC	??_R1A@?0A@EA@?$CPooledObject@VCTextureAnimationCWDecorator@NEffectUpdateDecorator@@@@8 ; CPooledObject<NEffectUpdateDecorator::CTextureAnimationCWDecorator>::`RTTI Base Class Descriptor at (0,-1,0,64)'
PUBLIC	??_R4CTextureAnimationCWDecorator@NEffectUpdateDecorator@@6B?$CPooledObject@VCTextureAnimationCWDecorator@NEffectUpdateDecorator@@@@@ ; NEffectUpdateDecorator::CTextureAnimationCWDecorator::`RTTI Complete Object Locator'
PUBLIC	??_R4?$CPooledObject@VCTextureAnimationCWDecorator@NEffectUpdateDecorator@@@@6B@ ; CPooledObject<NEffectUpdateDecorator::CTextureAnimationCWDecorator>::`RTTI Complete Object Locator'
PUBLIC	??_R4CTextureAnimationCCWDecorator@NEffectUpdateDecorator@@6BCBaseDecorator@1@@ ; NEffectUpdateDecorator::CTextureAnimationCCWDecorator::`RTTI Complete Object Locator'
PUBLIC	??_R0?AVCTextureAnimationCCWDecorator@NEffectUpdateDecorator@@@8 ; NEffectUpdateDecorator::CTextureAnimationCCWDecorator `RTTI Type Descriptor'
PUBLIC	??_R3CTextureAnimationCCWDecorator@NEffectUpdateDecorator@@8 ; NEffectUpdateDecorator::CTextureAnimationCCWDecorator::`RTTI Class Hierarchy Descriptor'
PUBLIC	??_R2CTextureAnimationCCWDecorator@NEffectUpdateDecorator@@8 ; NEffectUpdateDecorator::CTextureAnimationCCWDecorator::`RTTI Base Class Array'
PUBLIC	??_R1A@?0A@EA@CTextureAnimationCCWDecorator@NEffectUpdateDecorator@@8 ; NEffectUpdateDecorator::CTextureAnimationCCWDecorator::`RTTI Base Class Descriptor at (0,-1,0,64)'
PUBLIC	??_R1M@?0A@EA@?$CPooledObject@VCTextureAnimationCCWDecorator@NEffectUpdateDecorator@@@@8 ; CPooledObject<NEffectUpdateDecorator::CTextureAnimationCCWDecorator>::`RTTI Base Class Descriptor at (12,-1,0,64)'
PUBLIC	??_R0?AV?$CPooledObject@VCTextureAnimationCCWDecorator@NEffectUpdateDecorator@@@@@8 ; CPooledObject<NEffectUpdateDecorator::CTextureAnimationCCWDecorator> `RTTI Type Descriptor'
PUBLIC	??_R3?$CPooledObject@VCTextureAnimationCCWDecorator@NEffectUpdateDecorator@@@@8 ; CPooledObject<NEffectUpdateDecorator::CTextureAnimationCCWDecorator>::`RTTI Class Hierarchy Descriptor'
PUBLIC	??_R2?$CPooledObject@VCTextureAnimationCCWDecorator@NEffectUpdateDecorator@@@@8 ; CPooledObject<NEffectUpdateDecorator::CTextureAnimationCCWDecorator>::`RTTI Base Class Array'
PUBLIC	??_R1A@?0A@EA@?$CPooledObject@VCTextureAnimationCCWDecorator@NEffectUpdateDecorator@@@@8 ; CPooledObject<NEffectUpdateDecorator::CTextureAnimationCCWDecorator>::`RTTI Base Class Descriptor at (0,-1,0,64)'
PUBLIC	??_R4CTextureAnimationCCWDecorator@NEffectUpdateDecorator@@6B?$CPooledObject@VCTextureAnimationCCWDecorator@NEffectUpdateDecorator@@@@@ ; NEffectUpdateDecorator::CTextureAnimationCCWDecorator::`RTTI Complete Object Locator'
PUBLIC	??_R4?$CPooledObject@VCTextureAnimationCCWDecorator@NEffectUpdateDecorator@@@@6B@ ; CPooledObject<NEffectUpdateDecorator::CTextureAnimationCCWDecorator>::`RTTI Complete Object Locator'
PUBLIC	??_R4CTextureAnimationRandomDecorator@NEffectUpdateDecorator@@6BCBaseDecorator@1@@ ; NEffectUpdateDecorator::CTextureAnimationRandomDecorator::`RTTI Complete Object Locator'
PUBLIC	??_R0?AVCTextureAnimationRandomDecorator@NEffectUpdateDecorator@@@8 ; NEffectUpdateDecorator::CTextureAnimationRandomDecorator `RTTI Type Descriptor'
PUBLIC	??_R3CTextureAnimationRandomDecorator@NEffectUpdateDecorator@@8 ; NEffectUpdateDecorator::CTextureAnimationRandomDecorator::`RTTI Class Hierarchy Descriptor'
PUBLIC	??_R2CTextureAnimationRandomDecorator@NEffectUpdateDecorator@@8 ; NEffectUpdateDecorator::CTextureAnimationRandomDecorator::`RTTI Base Class Array'
PUBLIC	??_R1A@?0A@EA@CTextureAnimationRandomDecorator@NEffectUpdateDecorator@@8 ; NEffectUpdateDecorator::CTextureAnimationRandomDecorator::`RTTI Base Class Descriptor at (0,-1,0,64)'
PUBLIC	??_R1M@?0A@EA@?$CPooledObject@VCTextureAnimationRandomDecorator@NEffectUpdateDecorator@@@@8 ; CPooledObject<NEffectUpdateDecorator::CTextureAnimationRandomDecorator>::`RTTI Base Class Descriptor at (12,-1,0,64)'
PUBLIC	??_R0?AV?$CPooledObject@VCTextureAnimationRandomDecorator@NEffectUpdateDecorator@@@@@8 ; CPooledObject<NEffectUpdateDecorator::CTextureAnimationRandomDecorator> `RTTI Type Descriptor'
PUBLIC	??_R3?$CPooledObject@VCTextureAnimationRandomDecorator@NEffectUpdateDecorator@@@@8 ; CPooledObject<NEffectUpdateDecorator::CTextureAnimationRandomDecorator>::`RTTI Class Hierarchy Descriptor'
PUBLIC	??_R2?$CPooledObject@VCTextureAnimationRandomDecorator@NEffectUpdateDecorator@@@@8 ; CPooledObject<NEffectUpdateDecorator::CTextureAnimationRandomDecorator>::`RTTI Base Class Array'
PUBLIC	??_R1A@?0A@EA@?$CPooledObject@VCTextureAnimationRandomDecorator@NEffectUpdateDecorator@@@@8 ; CPooledObject<NEffectUpdateDecorator::CTextureAnimationRandomDecorator>::`RTTI Base Class Descriptor at (0,-1,0,64)'
PUBLIC	??_R4CTextureAnimationRandomDecorator@NEffectUpdateDecorator@@6B?$CPooledObject@VCTextureAnimationRandomDecorator@NEffectUpdateDecorator@@@@@ ; NEffectUpdateDecorator::CTextureAnimationRandomDecorator::`RTTI Complete Object Locator'
PUBLIC	??_R4?$CPooledObject@VCTextureAnimationRandomDecorator@NEffectUpdateDecorator@@@@6B@ ; CPooledObject<NEffectUpdateDecorator::CTextureAnimationRandomDecorator>::`RTTI Complete Object Locator'
PUBLIC	??_R4CAirResistanceDecorator@NEffectUpdateDecorator@@6BCBaseDecorator@1@@ ; NEffectUpdateDecorator::CAirResistanceDecorator::`RTTI Complete Object Locator'
PUBLIC	??_R0?AVCAirResistanceDecorator@NEffectUpdateDecorator@@@8 ; NEffectUpdateDecorator::CAirResistanceDecorator `RTTI Type Descriptor'
PUBLIC	??_R3CAirResistanceDecorator@NEffectUpdateDecorator@@8 ; NEffectUpdateDecorator::CAirResistanceDecorator::`RTTI Class Hierarchy Descriptor'
PUBLIC	??_R2CAirResistanceDecorator@NEffectUpdateDecorator@@8 ; NEffectUpdateDecorator::CAirResistanceDecorator::`RTTI Base Class Array'
PUBLIC	??_R1A@?0A@EA@CAirResistanceDecorator@NEffectUpdateDecorator@@8 ; NEffectUpdateDecorator::CAirResistanceDecorator::`RTTI Base Class Descriptor at (0,-1,0,64)'
PUBLIC	??_R1M@?0A@EA@?$CPooledObject@VCAirResistanceDecorator@NEffectUpdateDecorator@@@@8 ; CPooledObject<NEffectUpdateDecorator::CAirResistanceDecorator>::`RTTI Base Class Descriptor at (12,-1,0,64)'
PUBLIC	??_R0?AV?$CPooledObject@VCAirResistanceDecorator@NEffectUpdateDecorator@@@@@8 ; CPooledObject<NEffectUpdateDecorator::CAirResistanceDecorator> `RTTI Type Descriptor'
PUBLIC	??_R3?$CPooledObject@VCAirResistanceDecorator@NEffectUpdateDecorator@@@@8 ; CPooledObject<NEffectUpdateDecorator::CAirResistanceDecorator>::`RTTI Class Hierarchy Descriptor'
PUBLIC	??_R2?$CPooledObject@VCAirResistanceDecorator@NEffectUpdateDecorator@@@@8 ; CPooledObject<NEffectUpdateDecorator::CAirResistanceDecorator>::`RTTI Base Class Array'
PUBLIC	??_R1A@?0A@EA@?$CPooledObject@VCAirResistanceDecorator@NEffectUpdateDecorator@@@@8 ; CPooledObject<NEffectUpdateDecorator::CAirResistanceDecorator>::`RTTI Base Class Descriptor at (0,-1,0,64)'
PUBLIC	??_R4CAirResistanceDecorator@NEffectUpdateDecorator@@6B?$CPooledObject@VCAirResistanceDecorator@NEffectUpdateDecorator@@@@@ ; NEffectUpdateDecorator::CAirResistanceDecorator::`RTTI Complete Object Locator'
PUBLIC	??_R4?$CPooledObject@VCAirResistanceDecorator@NEffectUpdateDecorator@@@@6B@ ; CPooledObject<NEffectUpdateDecorator::CAirResistanceDecorator>::`RTTI Complete Object Locator'
PUBLIC	??_R4CGravityDecorator@NEffectUpdateDecorator@@6BCBaseDecorator@1@@ ; NEffectUpdateDecorator::CGravityDecorator::`RTTI Complete Object Locator'
PUBLIC	??_R0?AVCGravityDecorator@NEffectUpdateDecorator@@@8 ; NEffectUpdateDecorator::CGravityDecorator `RTTI Type Descriptor'
PUBLIC	??_R3CGravityDecorator@NEffectUpdateDecorator@@8 ; NEffectUpdateDecorator::CGravityDecorator::`RTTI Class Hierarchy Descriptor'
PUBLIC	??_R2CGravityDecorator@NEffectUpdateDecorator@@8 ; NEffectUpdateDecorator::CGravityDecorator::`RTTI Base Class Array'
PUBLIC	??_R1A@?0A@EA@CGravityDecorator@NEffectUpdateDecorator@@8 ; NEffectUpdateDecorator::CGravityDecorator::`RTTI Base Class Descriptor at (0,-1,0,64)'
PUBLIC	??_R1M@?0A@EA@?$CPooledObject@VCGravityDecorator@NEffectUpdateDecorator@@@@8 ; CPooledObject<NEffectUpdateDecorator::CGravityDecorator>::`RTTI Base Class Descriptor at (12,-1,0,64)'
PUBLIC	??_R0?AV?$CPooledObject@VCGravityDecorator@NEffectUpdateDecorator@@@@@8 ; CPooledObject<NEffectUpdateDecorator::CGravityDecorator> `RTTI Type Descriptor'
PUBLIC	??_R3?$CPooledObject@VCGravityDecorator@NEffectUpdateDecorator@@@@8 ; CPooledObject<NEffectUpdateDecorator::CGravityDecorator>::`RTTI Class Hierarchy Descriptor'
PUBLIC	??_R2?$CPooledObject@VCGravityDecorator@NEffectUpdateDecorator@@@@8 ; CPooledObject<NEffectUpdateDecorator::CGravityDecorator>::`RTTI Base Class Array'
PUBLIC	??_R1A@?0A@EA@?$CPooledObject@VCGravityDecorator@NEffectUpdateDecorator@@@@8 ; CPooledObject<NEffectUpdateDecorator::CGravityDecorator>::`RTTI Base Class Descriptor at (0,-1,0,64)'
PUBLIC	??_R4CGravityDecorator@NEffectUpdateDecorator@@6B?$CPooledObject@VCGravityDecorator@NEffectUpdateDecorator@@@@@ ; NEffectUpdateDecorator::CGravityDecorator::`RTTI Complete Object Locator'
PUBLIC	??_R4?$CPooledObject@VCGravityDecorator@NEffectUpdateDecorator@@@@6B@ ; CPooledObject<NEffectUpdateDecorator::CGravityDecorator>::`RTTI Complete Object Locator'
PUBLIC	??_R4CRotationDecorator@NEffectUpdateDecorator@@6BCBaseDecorator@1@@ ; NEffectUpdateDecorator::CRotationDecorator::`RTTI Complete Object Locator'
PUBLIC	??_R0?AVCRotationDecorator@NEffectUpdateDecorator@@@8 ; NEffectUpdateDecorator::CRotationDecorator `RTTI Type Descriptor'
PUBLIC	??_R3CRotationDecorator@NEffectUpdateDecorator@@8 ; NEffectUpdateDecorator::CRotationDecorator::`RTTI Class Hierarchy Descriptor'
PUBLIC	??_R2CRotationDecorator@NEffectUpdateDecorator@@8 ; NEffectUpdateDecorator::CRotationDecorator::`RTTI Base Class Array'
PUBLIC	??_R1A@?0A@EA@CRotationDecorator@NEffectUpdateDecorator@@8 ; NEffectUpdateDecorator::CRotationDecorator::`RTTI Base Class Descriptor at (0,-1,0,64)'
PUBLIC	??_R1M@?0A@EA@?$CPooledObject@VCRotationDecorator@NEffectUpdateDecorator@@@@8 ; CPooledObject<NEffectUpdateDecorator::CRotationDecorator>::`RTTI Base Class Descriptor at (12,-1,0,64)'
PUBLIC	??_R0?AV?$CPooledObject@VCRotationDecorator@NEffectUpdateDecorator@@@@@8 ; CPooledObject<NEffectUpdateDecorator::CRotationDecorator> `RTTI Type Descriptor'
PUBLIC	??_R3?$CPooledObject@VCRotationDecorator@NEffectUpdateDecorator@@@@8 ; CPooledObject<NEffectUpdateDecorator::CRotationDecorator>::`RTTI Class Hierarchy Descriptor'
PUBLIC	??_R2?$CPooledObject@VCRotationDecorator@NEffectUpdateDecorator@@@@8 ; CPooledObject<NEffectUpdateDecorator::CRotationDecorator>::`RTTI Base Class Array'
PUBLIC	??_R1A@?0A@EA@?$CPooledObject@VCRotationDecorator@NEffectUpdateDecorator@@@@8 ; CPooledObject<NEffectUpdateDecorator::CRotationDecorator>::`RTTI Base Class Descriptor at (0,-1,0,64)'
PUBLIC	??_R4CRotationDecorator@NEffectUpdateDecorator@@6B?$CPooledObject@VCRotationDecorator@NEffectUpdateDecorator@@@@@ ; NEffectUpdateDecorator::CRotationDecorator::`RTTI Complete Object Locator'
PUBLIC	??_R4?$CPooledObject@VCRotationDecorator@NEffectUpdateDecorator@@@@6B@ ; CPooledObject<NEffectUpdateDecorator::CRotationDecorator>::`RTTI Complete Object Locator'
PUBLIC	??_R4?$CPooledObject@V?$CTimeEventDecorator@M@NEffectUpdateDecorator@@@@6B@ ; CPooledObject<NEffectUpdateDecorator::CTimeEventDecorator<float> >::`RTTI Complete Object Locator'
PUBLIC	??_R4?$CPooledObject@V?$CTimeEventDecorator@UDWORDCOLOR@@@NEffectUpdateDecorator@@@@6B@ ; CPooledObject<NEffectUpdateDecorator::CTimeEventDecorator<DWORDCOLOR> >::`RTTI Complete Object Locator'
PUBLIC	__real@00000000
PUBLIC	__real@3eb0c6f7a0b5ed8d
PUBLIC	__real@3f000000
PUBLIC	__real@3f800000
PUBLIC	__real@437f0000
PUBLIC	__real@43800000
PUBLIC	__xmm@80000000800000008000000080000000
EXTRN	__purecall:PROC
EXTRN	??2@YAPAXI@Z:PROC				; operator new
EXTRN	??3@YAXPAX@Z:PROC				; operator delete
EXTRN	??3@YAXPAXI@Z:PROC				; operator delete
EXTRN	?__global_delete@@YAXPAXI@Z:PROC		; __global_delete
EXTRN	_atexit:PROC
EXTRN	___std_terminate:PROC
EXTRN	__invalid_parameter_noinfo_noreturn:PROC
EXTRN	___std_exception_copy:PROC
EXTRN	___std_exception_destroy:PROC
EXTRN	??_Eexception@std@@UAEPAXI@Z:PROC		; std::exception::`vector deleting destructor'
EXTRN	??_Ebad_alloc@std@@UAEPAXI@Z:PROC		; std::bad_alloc::`vector deleting destructor'
EXTRN	??_Ebad_array_new_length@std@@UAEPAXI@Z:PROC	; std::bad_array_new_length::`vector deleting destructor'
EXTRN	?_Xlength_error@std@@YAXPBD@Z:PROC		; std::_Xlength_error
EXTRN	?_Xout_of_range@std@@YAXPBD@Z:PROC		; std::_Xout_of_range
EXTRN	?GetOnlyPathName@@YAPBDPBD@Z:PROC		; GetOnlyPathName
EXTRN	?IsGlobalFileName@@YA_NPBD@Z:PROC		; IsGlobalFileName
EXTRN	?GetFileName@CTextFileLoader@@QAEPBDXZ:PROC	; CTextFileLoader::GetFileName
EXTRN	?SetChildNode@CTextFileLoader@@QAEHPBD@Z:PROC	; CTextFileLoader::SetChildNode
EXTRN	?SetParentNode@CTextFileLoader@@QAEHXZ:PROC	; CTextFileLoader::SetParentNode
EXTRN	?GetTokenVector@CTextFileLoader@@QAEHABV?$basic_string@DU?$char_traits@D@std@@V?$allocator@D@2@@std@@PAPAV?$vector@V?$basic_string@DU?$char_traits@D@std@@V?$allocator@D@2@@std@@V?$allocator@V?$basic_string@DU?$char_traits@D@std@@V?$allocator@D@2@@std@@@2@@3@@Z:PROC ; CTextFileLoader::GetTokenVector
EXTRN	?GetTokenBoolean@CTextFileLoader@@QAEHABV?$basic_string@DU?$char_traits@D@std@@V?$allocator@D@2@@std@@PAH@Z:PROC ; CTextFileLoader::GetTokenBoolean
EXTRN	?GetTokenByte@CTextFileLoader@@QAEHABV?$basic_string@DU?$char_traits@D@std@@V?$allocator@D@2@@std@@PAE@Z:PROC ; CTextFileLoader::GetTokenByte
EXTRN	?GetTokenWord@CTextFileLoader@@QAEHABV?$basic_string@DU?$char_traits@D@std@@V?$allocator@D@2@@std@@PAG@Z:PROC ; CTextFileLoader::GetTokenWord
EXTRN	?GetTokenInteger@CTextFileLoader@@QAEHABV?$basic_string@DU?$char_traits@D@std@@V?$allocator@D@2@@std@@PAH@Z:PROC ; CTextFileLoader::GetTokenInteger
EXTRN	?GetTokenDoubleWord@CTextFileLoader@@QAEHABV?$basic_string@DU?$char_traits@D@std@@V?$allocator@D@2@@std@@PAK@Z:PROC ; CTextFileLoader::GetTokenDoubleWord
EXTRN	?GetTokenFloat@CTextFileLoader@@QAEHABV?$basic_string@DU?$char_traits@D@std@@V?$allocator@D@2@@std@@PAM@Z:PROC ; CTextFileLoader::GetTokenFloat
EXTRN	?GetTokenPosition@CTextFileLoader@@QAEHABV?$basic_string@DU?$char_traits@D@std@@V?$allocator@D@2@@std@@PAUD3DXVECTOR3@@@Z:PROC ; CTextFileLoader::GetTokenPosition
EXTRN	?GetTokenTimeEventFloat@@YAHAAVCTextFileLoader@@PBDPAV?$vector@V?$CTimeEvent@M@@V?$allocator@V?$CTimeEvent@M@@@std@@@std@@@Z:PROC ; GetTokenTimeEventFloat
EXTRN	??0CEffectElementBase@@QAE@XZ:PROC		; CEffectElementBase::CEffectElementBase
EXTRN	??1CEffectElementBase@@UAE@XZ:PROC		; CEffectElementBase::~CEffectElementBase
EXTRN	?Clear@CEffectElementBase@@QAEXXZ:PROC		; CEffectElementBase::Clear
EXTRN	??0CEmitterProperty@@QAE@XZ:PROC		; CEmitterProperty::CEmitterProperty
EXTRN	??1CEmitterProperty@@UAE@XZ:PROC		; CEmitterProperty::~CEmitterProperty
EXTRN	?Clear@CEmitterProperty@@QAEXXZ:PROC		; CEmitterProperty::Clear
EXTRN	??0CParticleProperty@@QAE@XZ:PROC		; CParticleProperty::CParticleProperty
EXTRN	??1CParticleProperty@@UAE@XZ:PROC		; CParticleProperty::~CParticleProperty
EXTRN	?Clear@CParticleProperty@@QAEXXZ:PROC		; CParticleProperty::Clear
EXTRN	?InsertTexture@CParticleProperty@@QAEXPBD@Z:PROC ; CParticleProperty::InsertTexture
EXTRN	?SetTexture@CParticleProperty@@QAE_NPBD@Z:PROC	; CParticleProperty::SetTexture
EXTRN	??_ECParticleSystemData@@UAEPAXI@Z:PROC		; CParticleSystemData::`vector deleting destructor'
EXTRN	?random@@YAKXZ:PROC				; random
EXTRN	?random_range@@YAJJJ@Z:PROC			; random_range
EXTRN	??_ECBaseDecorator@NEffectUpdateDecorator@@UAEPAXI@Z:PROC ; NEffectUpdateDecorator::CBaseDecorator::`vector deleting destructor'
EXTRN	??_E?$CPooledObject@VCHeaderDecorator@NEffectUpdateDecorator@@@@UAEPAXI@Z:PROC ; CPooledObject<NEffectUpdateDecorator::CHeaderDecorator>::`vector deleting destructor'
EXTRN	??_ECHeaderDecorator@NEffectUpdateDecorator@@UAEPAXI@Z:PROC ; NEffectUpdateDecorator::CHeaderDecorator::`vector deleting destructor'
EXTRN	??_E?$CPooledObject@VCNullDecorator@NEffectUpdateDecorator@@@@UAEPAXI@Z:PROC ; CPooledObject<NEffectUpdateDecorator::CNullDecorator>::`vector deleting destructor'
EXTRN	??_ECNullDecorator@NEffectUpdateDecorator@@UAEPAXI@Z:PROC ; NEffectUpdateDecorator::CNullDecorator::`vector deleting destructor'
EXTRN	??_E?$CPooledObject@VCTextureAnimationCWDecorator@NEffectUpdateDecorator@@@@UAEPAXI@Z:PROC ; CPooledObject<NEffectUpdateDecorator::CTextureAnimationCWDecorator>::`vector deleting destructor'
EXTRN	??_ECTextureAnimationCWDecorator@NEffectUpdateDecorator@@UAEPAXI@Z:PROC ; NEffectUpdateDecorator::CTextureAnimationCWDecorator::`vector deleting destructor'
EXTRN	??_E?$CPooledObject@VCTextureAnimationCCWDecorator@NEffectUpdateDecorator@@@@UAEPAXI@Z:PROC ; CPooledObject<NEffectUpdateDecorator::CTextureAnimationCCWDecorator>::`vector deleting destructor'
EXTRN	??_ECTextureAnimationCCWDecorator@NEffectUpdateDecorator@@UAEPAXI@Z:PROC ; NEffectUpdateDecorator::CTextureAnimationCCWDecorator::`vector deleting destructor'
EXTRN	??_E?$CPooledObject@VCTextureAnimationRandomDecorator@NEffectUpdateDecorator@@@@UAEPAXI@Z:PROC ; CPooledObject<NEffectUpdateDecorator::CTextureAnimationRandomDecorator>::`vector deleting destructor'
EXTRN	??_ECTextureAnimationRandomDecorator@NEffectUpdateDecorator@@UAEPAXI@Z:PROC ; NEffectUpdateDecorator::CTextureAnimationRandomDecorator::`vector deleting destructor'
EXTRN	??_E?$CPooledObject@VCAirResistanceDecorator@NEffectUpdateDecorator@@@@UAEPAXI@Z:PROC ; CPooledObject<NEffectUpdateDecorator::CAirResistanceDecorator>::`vector deleting destructor'
EXTRN	?__Excute@CAirResistanceDecorator@NEffectUpdateDecorator@@MAEXABVCDecoratorData@2@@Z:PROC ; NEffectUpdateDecorator::CAirResistanceDecorator::__Excute
EXTRN	?__Clone@CAirResistanceDecorator@NEffectUpdateDecorator@@MAEPAVCBaseDecorator@2@PAVCParticleInstance@@0@Z:PROC ; NEffectUpdateDecorator::CAirResistanceDecorator::__Clone
EXTRN	??_ECAirResistanceDecorator@NEffectUpdateDecorator@@UAEPAXI@Z:PROC ; NEffectUpdateDecorator::CAirResistanceDecorator::`vector deleting destructor'
EXTRN	??_E?$CPooledObject@VCGravityDecorator@NEffectUpdateDecorator@@@@UAEPAXI@Z:PROC ; CPooledObject<NEffectUpdateDecorator::CGravityDecorator>::`vector deleting destructor'
EXTRN	?__Excute@CGravityDecorator@NEffectUpdateDecorator@@MAEXABVCDecoratorData@2@@Z:PROC ; NEffectUpdateDecorator::CGravityDecorator::__Excute
EXTRN	?__Clone@CGravityDecorator@NEffectUpdateDecorator@@MAEPAVCBaseDecorator@2@PAVCParticleInstance@@0@Z:PROC ; NEffectUpdateDecorator::CGravityDecorator::__Clone
EXTRN	??_ECGravityDecorator@NEffectUpdateDecorator@@UAEPAXI@Z:PROC ; NEffectUpdateDecorator::CGravityDecorator::`vector deleting destructor'
EXTRN	??_E?$CPooledObject@VCRotationDecorator@NEffectUpdateDecorator@@@@UAEPAXI@Z:PROC ; CPooledObject<NEffectUpdateDecorator::CRotationDecorator>::`vector deleting destructor'
EXTRN	?__Excute@CRotationDecorator@NEffectUpdateDecorator@@MAEXABVCDecoratorData@2@@Z:PROC ; NEffectUpdateDecorator::CRotationDecorator::__Excute
EXTRN	?__Clone@CRotationDecorator@NEffectUpdateDecorator@@MAEPAVCBaseDecorator@2@PAVCParticleInstance@@0@Z:PROC ; NEffectUpdateDecorator::CRotationDecorator::__Clone
EXTRN	??_ECRotationDecorator@NEffectUpdateDecorator@@UAEPAXI@Z:PROC ; NEffectUpdateDecorator::CRotationDecorator::`vector deleting destructor'
EXTRN	??_E?$CPooledObject@V?$CTimeEventDecorator@M@NEffectUpdateDecorator@@@@UAEPAXI@Z:PROC ; CPooledObject<NEffectUpdateDecorator::CTimeEventDecorator<float> >::`vector deleting destructor'
EXTRN	??_E?$CTimeEventDecorator@M@NEffectUpdateDecorator@@UAEPAXI@Z:PROC ; NEffectUpdateDecorator::CTimeEventDecorator<float>::`vector deleting destructor'
EXTRN	??_E?$CPooledObject@V?$CTimeEventDecorator@UDWORDCOLOR@@@NEffectUpdateDecorator@@@@UAEPAXI@Z:PROC ; CPooledObject<NEffectUpdateDecorator::CTimeEventDecorator<DWORDCOLOR> >::`vector deleting destructor'
EXTRN	??_E?$CTimeEventDecorator@UDWORDCOLOR@@@NEffectUpdateDecorator@@UAEPAXI@Z:PROC ; NEffectUpdateDecorator::CTimeEventDecorator<DWORDCOLOR>::`vector deleting destructor'
EXTRN	@__security_check_cookie@4:PROC
EXTRN	__CxxThrowException@8:PROC
EXTRN	___CxxFrameHandler3:PROC
EXTRN	__ftoui3:PROC
EXTRN	_memcpy:PROC
EXTRN	_memmove:PROC
EXTRN	___security_cookie:DWORD
EXTRN	__fltused:DWORD
CRT$XCU	SEGMENT
??ms_kPool$initializer$@CParticleSystemData@@2P6AXXZA@@3P6AXXZA DD FLAT:??__E?ms_kPool@CParticleSystemData@@2V?$CDynamicPool@VCParticleSystemData@@@@A@@YAXXZ ; ??ms_kPool$initializer$@CParticleSystemData@@2P6AXXZA@@3P6AXXZA
CRT$XCU	ENDS
;	COMDAT __xmm@80000000800000008000000080000000
CONST	SEGMENT
__xmm@80000000800000008000000080000000 DB 00H, 00H, 00H, 080H, 00H, 00H, 00H
	DB	080H, 00H, 00H, 00H, 080H, 00H, 00H, 00H, 080H
CONST	ENDS
;	COMDAT __real@43800000
CONST	SEGMENT
__real@43800000 DD 043800000r			; 256
CONST	ENDS
;	COMDAT __real@437f0000
CONST	SEGMENT
__real@437f0000 DD 0437f0000r			; 255
CONST	ENDS
;	COMDAT __real@3f800000
CONST	SEGMENT
__real@3f800000 DD 03f800000r			; 1
CONST	ENDS
;	COMDAT __real@3f000000
CONST	SEGMENT
__real@3f000000 DD 03f000000r			; 0.5
CONST	ENDS
;	COMDAT __real@3eb0c6f7a0b5ed8d
CONST	SEGMENT
__real@3eb0c6f7a0b5ed8d DQ 03eb0c6f7a0b5ed8dr	; 1e-06
CONST	ENDS
;	COMDAT __real@00000000
CONST	SEGMENT
__real@00000000 DD 000000000r			; 0
CONST	ENDS
;	COMDAT ??_R4?$CPooledObject@V?$CTimeEventDecorator@UDWORDCOLOR@@@NEffectUpdateDecorator@@@@6B@
rdata$r	SEGMENT
??_R4?$CPooledObject@V?$CTimeEventDecorator@UDWORDCOLOR@@@NEffectUpdateDecorator@@@@6B@ DD 00H ; CPooledObject<NEffectUpdateDecorator::CTimeEventDecorator<DWORDCOLOR> >::`RTTI Complete Object Locator'
	DD	00H
	DD	00H
	DD	FLAT:??_R0?AV?$CPooledObject@V?$CTimeEventDecorator@UDWORDCOLOR@@@NEffectUpdateDecorator@@@@@8
	DD	FLAT:??_R3?$CPooledObject@V?$CTimeEventDecorator@UDWORDCOLOR@@@NEffectUpdateDecorator@@@@8
rdata$r	ENDS
;	COMDAT ??_R4?$CPooledObject@V?$CTimeEventDecorator@M@NEffectUpdateDecorator@@@@6B@
rdata$r	SEGMENT
??_R4?$CPooledObject@V?$CTimeEventDecorator@M@NEffectUpdateDecorator@@@@6B@ DD 00H ; CPooledObject<NEffectUpdateDecorator::CTimeEventDecorator<float> >::`RTTI Complete Object Locator'
	DD	00H
	DD	00H
	DD	FLAT:??_R0?AV?$CPooledObject@V?$CTimeEventDecorator@M@NEffectUpdateDecorator@@@@@8
	DD	FLAT:??_R3?$CPooledObject@V?$CTimeEventDecorator@M@NEffectUpdateDecorator@@@@8
rdata$r	ENDS
;	COMDAT ??_R4?$CPooledObject@VCRotationDecorator@NEffectUpdateDecorator@@@@6B@
rdata$r	SEGMENT
??_R4?$CPooledObject@VCRotationDecorator@NEffectUpdateDecorator@@@@6B@ DD 00H ; CPooledObject<NEffectUpdateDecorator::CRotationDecorator>::`RTTI Complete Object Locator'
	DD	00H
	DD	00H
	DD	FLAT:??_R0?AV?$CPooledObject@VCRotationDecorator@NEffectUpdateDecorator@@@@@8
	DD	FLAT:??_R3?$CPooledObject@VCRotationDecorator@NEffectUpdateDecorator@@@@8
rdata$r	ENDS
;	COMDAT ??_R4CRotationDecorator@NEffectUpdateDecorator@@6B?$CPooledObject@VCRotationDecorator@NEffectUpdateDecorator@@@@@
rdata$r	SEGMENT
??_R4CRotationDecorator@NEffectUpdateDecorator@@6B?$CPooledObject@VCRotationDecorator@NEffectUpdateDecorator@@@@@ DD 00H ; NEffectUpdateDecorator::CRotationDecorator::`RTTI Complete Object Locator'
	DD	0cH
	DD	00H
	DD	FLAT:??_R0?AVCRotationDecorator@NEffectUpdateDecorator@@@8
	DD	FLAT:??_R3CRotationDecorator@NEffectUpdateDecorator@@8
rdata$r	ENDS
;	COMDAT ??_R1A@?0A@EA@?$CPooledObject@VCRotationDecorator@NEffectUpdateDecorator@@@@8
rdata$r	SEGMENT
??_R1A@?0A@EA@?$CPooledObject@VCRotationDecorator@NEffectUpdateDecorator@@@@8 DD FLAT:??_R0?AV?$CPooledObject@VCRotationDecorator@NEffectUpdateDecorator@@@@@8 ; CPooledObject<NEffectUpdateDecorator::CRotationDecorator>::`RTTI Base Class Descriptor at (0,-1,0,64)'
	DD	00H
	DD	00H
	DD	0ffffffffH
	DD	00H
	DD	040H
	DD	FLAT:??_R3?$CPooledObject@VCRotationDecorator@NEffectUpdateDecorator@@@@8
rdata$r	ENDS
;	COMDAT ??_R2?$CPooledObject@VCRotationDecorator@NEffectUpdateDecorator@@@@8
rdata$r	SEGMENT
??_R2?$CPooledObject@VCRotationDecorator@NEffectUpdateDecorator@@@@8 DD FLAT:??_R1A@?0A@EA@?$CPooledObject@VCRotationDecorator@NEffectUpdateDecorator@@@@8 ; CPooledObject<NEffectUpdateDecorator::CRotationDecorator>::`RTTI Base Class Array'
rdata$r	ENDS
;	COMDAT ??_R3?$CPooledObject@VCRotationDecorator@NEffectUpdateDecorator@@@@8
rdata$r	SEGMENT
??_R3?$CPooledObject@VCRotationDecorator@NEffectUpdateDecorator@@@@8 DD 00H ; CPooledObject<NEffectUpdateDecorator::CRotationDecorator>::`RTTI Class Hierarchy Descriptor'
	DD	00H
	DD	01H
	DD	FLAT:??_R2?$CPooledObject@VCRotationDecorator@NEffectUpdateDecorator@@@@8
rdata$r	ENDS
;	COMDAT ??_R0?AV?$CPooledObject@VCRotationDecorator@NEffectUpdateDecorator@@@@@8
data$rs	SEGMENT
??_R0?AV?$CPooledObject@VCRotationDecorator@NEffectUpdateDecorator@@@@@8 DD FLAT:??_7type_info@@6B@ ; CPooledObject<NEffectUpdateDecorator::CRotationDecorator> `RTTI Type Descriptor'
	DD	00H
	DB	'.?AV?$CPooledObject@VCRotationDecorator@NEffectUpdateDec'
	DB	'orator@@@@', 00H
data$rs	ENDS
;	COMDAT ??_R1M@?0A@EA@?$CPooledObject@VCRotationDecorator@NEffectUpdateDecorator@@@@8
rdata$r	SEGMENT
??_R1M@?0A@EA@?$CPooledObject@VCRotationDecorator@NEffectUpdateDecorator@@@@8 DD FLAT:??_R0?AV?$CPooledObject@VCRotationDecorator@NEffectUpdateDecorator@@@@@8 ; CPooledObject<NEffectUpdateDecorator::CRotationDecorator>::`RTTI Base Class Descriptor at (12,-1,0,64)'
	DD	00H
	DD	0cH
	DD	0ffffffffH
	DD	00H
	DD	040H
	DD	FLAT:??_R3?$CPooledObject@VCRotationDecorator@NEffectUpdateDecorator@@@@8
rdata$r	ENDS
;	COMDAT ??_R1A@?0A@EA@CRotationDecorator@NEffectUpdateDecorator@@8
rdata$r	SEGMENT
??_R1A@?0A@EA@CRotationDecorator@NEffectUpdateDecorator@@8 DD FLAT:??_R0?AVCRotationDecorator@NEffectUpdateDecorator@@@8 ; NEffectUpdateDecorator::CRotationDecorator::`RTTI Base Class Descriptor at (0,-1,0,64)'
	DD	02H
	DD	00H
	DD	0ffffffffH
	DD	00H
	DD	040H
	DD	FLAT:??_R3CRotationDecorator@NEffectUpdateDecorator@@8
rdata$r	ENDS
;	COMDAT ??_R2CRotationDecorator@NEffectUpdateDecorator@@8
rdata$r	SEGMENT
??_R2CRotationDecorator@NEffectUpdateDecorator@@8 DD FLAT:??_R1A@?0A@EA@CRotationDecorator@NEffectUpdateDecorator@@8 ; NEffectUpdateDecorator::CRotationDecorator::`RTTI Base Class Array'
	DD	FLAT:??_R1A@?0A@EA@CBaseDecorator@NEffectUpdateDecorator@@8
	DD	FLAT:??_R1M@?0A@EA@?$CPooledObject@VCRotationDecorator@NEffectUpdateDecorator@@@@8
rdata$r	ENDS
;	COMDAT ??_R3CRotationDecorator@NEffectUpdateDecorator@@8
rdata$r	SEGMENT
??_R3CRotationDecorator@NEffectUpdateDecorator@@8 DD 00H ; NEffectUpdateDecorator::CRotationDecorator::`RTTI Class Hierarchy Descriptor'
	DD	01H
	DD	03H
	DD	FLAT:??_R2CRotationDecorator@NEffectUpdateDecorator@@8
rdata$r	ENDS
;	COMDAT ??_R0?AVCRotationDecorator@NEffectUpdateDecorator@@@8
data$rs	SEGMENT
??_R0?AVCRotationDecorator@NEffectUpdateDecorator@@@8 DD FLAT:??_7type_info@@6B@ ; NEffectUpdateDecorator::CRotationDecorator `RTTI Type Descriptor'
	DD	00H
	DB	'.?AVCRotationDecorator@NEffectUpdateDecorator@@', 00H
data$rs	ENDS
;	COMDAT ??_R4CRotationDecorator@NEffectUpdateDecorator@@6BCBaseDecorator@1@@
rdata$r	SEGMENT
??_R4CRotationDecorator@NEffectUpdateDecorator@@6BCBaseDecorator@1@@ DD 00H ; NEffectUpdateDecorator::CRotationDecorator::`RTTI Complete Object Locator'
	DD	00H
	DD	00H
	DD	FLAT:??_R0?AVCRotationDecorator@NEffectUpdateDecorator@@@8
	DD	FLAT:??_R3CRotationDecorator@NEffectUpdateDecorator@@8
rdata$r	ENDS
;	COMDAT ??_R4?$CPooledObject@VCGravityDecorator@NEffectUpdateDecorator@@@@6B@
rdata$r	SEGMENT
??_R4?$CPooledObject@VCGravityDecorator@NEffectUpdateDecorator@@@@6B@ DD 00H ; CPooledObject<NEffectUpdateDecorator::CGravityDecorator>::`RTTI Complete Object Locator'
	DD	00H
	DD	00H
	DD	FLAT:??_R0?AV?$CPooledObject@VCGravityDecorator@NEffectUpdateDecorator@@@@@8
	DD	FLAT:??_R3?$CPooledObject@VCGravityDecorator@NEffectUpdateDecorator@@@@8
rdata$r	ENDS
;	COMDAT ??_R4CGravityDecorator@NEffectUpdateDecorator@@6B?$CPooledObject@VCGravityDecorator@NEffectUpdateDecorator@@@@@
rdata$r	SEGMENT
??_R4CGravityDecorator@NEffectUpdateDecorator@@6B?$CPooledObject@VCGravityDecorator@NEffectUpdateDecorator@@@@@ DD 00H ; NEffectUpdateDecorator::CGravityDecorator::`RTTI Complete Object Locator'
	DD	0cH
	DD	00H
	DD	FLAT:??_R0?AVCGravityDecorator@NEffectUpdateDecorator@@@8
	DD	FLAT:??_R3CGravityDecorator@NEffectUpdateDecorator@@8
rdata$r	ENDS
;	COMDAT ??_R1A@?0A@EA@?$CPooledObject@VCGravityDecorator@NEffectUpdateDecorator@@@@8
rdata$r	SEGMENT
??_R1A@?0A@EA@?$CPooledObject@VCGravityDecorator@NEffectUpdateDecorator@@@@8 DD FLAT:??_R0?AV?$CPooledObject@VCGravityDecorator@NEffectUpdateDecorator@@@@@8 ; CPooledObject<NEffectUpdateDecorator::CGravityDecorator>::`RTTI Base Class Descriptor at (0,-1,0,64)'
	DD	00H
	DD	00H
	DD	0ffffffffH
	DD	00H
	DD	040H
	DD	FLAT:??_R3?$CPooledObject@VCGravityDecorator@NEffectUpdateDecorator@@@@8
rdata$r	ENDS
;	COMDAT ??_R2?$CPooledObject@VCGravityDecorator@NEffectUpdateDecorator@@@@8
rdata$r	SEGMENT
??_R2?$CPooledObject@VCGravityDecorator@NEffectUpdateDecorator@@@@8 DD FLAT:??_R1A@?0A@EA@?$CPooledObject@VCGravityDecorator@NEffectUpdateDecorator@@@@8 ; CPooledObject<NEffectUpdateDecorator::CGravityDecorator>::`RTTI Base Class Array'
rdata$r	ENDS
;	COMDAT ??_R3?$CPooledObject@VCGravityDecorator@NEffectUpdateDecorator@@@@8
rdata$r	SEGMENT
??_R3?$CPooledObject@VCGravityDecorator@NEffectUpdateDecorator@@@@8 DD 00H ; CPooledObject<NEffectUpdateDecorator::CGravityDecorator>::`RTTI Class Hierarchy Descriptor'
	DD	00H
	DD	01H
	DD	FLAT:??_R2?$CPooledObject@VCGravityDecorator@NEffectUpdateDecorator@@@@8
rdata$r	ENDS
;	COMDAT ??_R0?AV?$CPooledObject@VCGravityDecorator@NEffectUpdateDecorator@@@@@8
data$rs	SEGMENT
??_R0?AV?$CPooledObject@VCGravityDecorator@NEffectUpdateDecorator@@@@@8 DD FLAT:??_7type_info@@6B@ ; CPooledObject<NEffectUpdateDecorator::CGravityDecorator> `RTTI Type Descriptor'
	DD	00H
	DB	'.?AV?$CPooledObject@VCGravityDecorator@NEffectUpdateDeco'
	DB	'rator@@@@', 00H
data$rs	ENDS
;	COMDAT ??_R1M@?0A@EA@?$CPooledObject@VCGravityDecorator@NEffectUpdateDecorator@@@@8
rdata$r	SEGMENT
??_R1M@?0A@EA@?$CPooledObject@VCGravityDecorator@NEffectUpdateDecorator@@@@8 DD FLAT:??_R0?AV?$CPooledObject@VCGravityDecorator@NEffectUpdateDecorator@@@@@8 ; CPooledObject<NEffectUpdateDecorator::CGravityDecorator>::`RTTI Base Class Descriptor at (12,-1,0,64)'
	DD	00H
	DD	0cH
	DD	0ffffffffH
	DD	00H
	DD	040H
	DD	FLAT:??_R3?$CPooledObject@VCGravityDecorator@NEffectUpdateDecorator@@@@8
rdata$r	ENDS
;	COMDAT ??_R1A@?0A@EA@CGravityDecorator@NEffectUpdateDecorator@@8
rdata$r	SEGMENT
??_R1A@?0A@EA@CGravityDecorator@NEffectUpdateDecorator@@8 DD FLAT:??_R0?AVCGravityDecorator@NEffectUpdateDecorator@@@8 ; NEffectUpdateDecorator::CGravityDecorator::`RTTI Base Class Descriptor at (0,-1,0,64)'
	DD	02H
	DD	00H
	DD	0ffffffffH
	DD	00H
	DD	040H
	DD	FLAT:??_R3CGravityDecorator@NEffectUpdateDecorator@@8
rdata$r	ENDS
;	COMDAT ??_R2CGravityDecorator@NEffectUpdateDecorator@@8
rdata$r	SEGMENT
??_R2CGravityDecorator@NEffectUpdateDecorator@@8 DD FLAT:??_R1A@?0A@EA@CGravityDecorator@NEffectUpdateDecorator@@8 ; NEffectUpdateDecorator::CGravityDecorator::`RTTI Base Class Array'
	DD	FLAT:??_R1A@?0A@EA@CBaseDecorator@NEffectUpdateDecorator@@8
	DD	FLAT:??_R1M@?0A@EA@?$CPooledObject@VCGravityDecorator@NEffectUpdateDecorator@@@@8
rdata$r	ENDS
;	COMDAT ??_R3CGravityDecorator@NEffectUpdateDecorator@@8
rdata$r	SEGMENT
??_R3CGravityDecorator@NEffectUpdateDecorator@@8 DD 00H	; NEffectUpdateDecorator::CGravityDecorator::`RTTI Class Hierarchy Descriptor'
	DD	01H
	DD	03H
	DD	FLAT:??_R2CGravityDecorator@NEffectUpdateDecorator@@8
rdata$r	ENDS
;	COMDAT ??_R0?AVCGravityDecorator@NEffectUpdateDecorator@@@8
data$rs	SEGMENT
??_R0?AVCGravityDecorator@NEffectUpdateDecorator@@@8 DD FLAT:??_7type_info@@6B@ ; NEffectUpdateDecorator::CGravityDecorator `RTTI Type Descriptor'
	DD	00H
	DB	'.?AVCGravityDecorator@NEffectUpdateDecorator@@', 00H
data$rs	ENDS
;	COMDAT ??_R4CGravityDecorator@NEffectUpdateDecorator@@6BCBaseDecorator@1@@
rdata$r	SEGMENT
??_R4CGravityDecorator@NEffectUpdateDecorator@@6BCBaseDecorator@1@@ DD 00H ; NEffectUpdateDecorator::CGravityDecorator::`RTTI Complete Object Locator'
	DD	00H
	DD	00H
	DD	FLAT:??_R0?AVCGravityDecorator@NEffectUpdateDecorator@@@8
	DD	FLAT:??_R3CGravityDecorator@NEffectUpdateDecorator@@8
rdata$r	ENDS
;	COMDAT ??_R4?$CPooledObject@VCAirResistanceDecorator@NEffectUpdateDecorator@@@@6B@
rdata$r	SEGMENT
??_R4?$CPooledObject@VCAirResistanceDecorator@NEffectUpdateDecorator@@@@6B@ DD 00H ; CPooledObject<NEffectUpdateDecorator::CAirResistanceDecorator>::`RTTI Complete Object Locator'
	DD	00H
	DD	00H
	DD	FLAT:??_R0?AV?$CPooledObject@VCAirResistanceDecorator@NEffectUpdateDecorator@@@@@8
	DD	FLAT:??_R3?$CPooledObject@VCAirResistanceDecorator@NEffectUpdateDecorator@@@@8
rdata$r	ENDS
;	COMDAT ??_R4CAirResistanceDecorator@NEffectUpdateDecorator@@6B?$CPooledObject@VCAirResistanceDecorator@NEffectUpdateDecorator@@@@@
rdata$r	SEGMENT
??_R4CAirResistanceDecorator@NEffectUpdateDecorator@@6B?$CPooledObject@VCAirResistanceDecorator@NEffectUpdateDecorator@@@@@ DD 00H ; NEffectUpdateDecorator::CAirResistanceDecorator::`RTTI Complete Object Locator'
	DD	0cH
	DD	00H
	DD	FLAT:??_R0?AVCAirResistanceDecorator@NEffectUpdateDecorator@@@8
	DD	FLAT:??_R3CAirResistanceDecorator@NEffectUpdateDecorator@@8
rdata$r	ENDS
;	COMDAT ??_R1A@?0A@EA@?$CPooledObject@VCAirResistanceDecorator@NEffectUpdateDecorator@@@@8
rdata$r	SEGMENT
??_R1A@?0A@EA@?$CPooledObject@VCAirResistanceDecorator@NEffectUpdateDecorator@@@@8 DD FLAT:??_R0?AV?$CPooledObject@VCAirResistanceDecorator@NEffectUpdateDecorator@@@@@8 ; CPooledObject<NEffectUpdateDecorator::CAirResistanceDecorator>::`RTTI Base Class Descriptor at (0,-1,0,64)'
	DD	00H
	DD	00H
	DD	0ffffffffH
	DD	00H
	DD	040H
	DD	FLAT:??_R3?$CPooledObject@VCAirResistanceDecorator@NEffectUpdateDecorator@@@@8
rdata$r	ENDS
;	COMDAT ??_R2?$CPooledObject@VCAirResistanceDecorator@NEffectUpdateDecorator@@@@8
rdata$r	SEGMENT
??_R2?$CPooledObject@VCAirResistanceDecorator@NEffectUpdateDecorator@@@@8 DD FLAT:??_R1A@?0A@EA@?$CPooledObject@VCAirResistanceDecorator@NEffectUpdateDecorator@@@@8 ; CPooledObject<NEffectUpdateDecorator::CAirResistanceDecorator>::`RTTI Base Class Array'
rdata$r	ENDS
;	COMDAT ??_R3?$CPooledObject@VCAirResistanceDecorator@NEffectUpdateDecorator@@@@8
rdata$r	SEGMENT
??_R3?$CPooledObject@VCAirResistanceDecorator@NEffectUpdateDecorator@@@@8 DD 00H ; CPooledObject<NEffectUpdateDecorator::CAirResistanceDecorator>::`RTTI Class Hierarchy Descriptor'
	DD	00H
	DD	01H
	DD	FLAT:??_R2?$CPooledObject@VCAirResistanceDecorator@NEffectUpdateDecorator@@@@8
rdata$r	ENDS
;	COMDAT ??_R0?AV?$CPooledObject@VCAirResistanceDecorator@NEffectUpdateDecorator@@@@@8
data$rs	SEGMENT
??_R0?AV?$CPooledObject@VCAirResistanceDecorator@NEffectUpdateDecorator@@@@@8 DD FLAT:??_7type_info@@6B@ ; CPooledObject<NEffectUpdateDecorator::CAirResistanceDecorator> `RTTI Type Descriptor'
	DD	00H
	DB	'.?AV?$CPooledObject@VCAirResistanceDecorator@NEffectUpda'
	DB	'teDecorator@@@@', 00H
data$rs	ENDS
;	COMDAT ??_R1M@?0A@EA@?$CPooledObject@VCAirResistanceDecorator@NEffectUpdateDecorator@@@@8
rdata$r	SEGMENT
??_R1M@?0A@EA@?$CPooledObject@VCAirResistanceDecorator@NEffectUpdateDecorator@@@@8 DD FLAT:??_R0?AV?$CPooledObject@VCAirResistanceDecorator@NEffectUpdateDecorator@@@@@8 ; CPooledObject<NEffectUpdateDecorator::CAirResistanceDecorator>::`RTTI Base Class Descriptor at (12,-1,0,64)'
	DD	00H
	DD	0cH
	DD	0ffffffffH
	DD	00H
	DD	040H
	DD	FLAT:??_R3?$CPooledObject@VCAirResistanceDecorator@NEffectUpdateDecorator@@@@8
rdata$r	ENDS
;	COMDAT ??_R1A@?0A@EA@CAirResistanceDecorator@NEffectUpdateDecorator@@8
rdata$r	SEGMENT
??_R1A@?0A@EA@CAirResistanceDecorator@NEffectUpdateDecorator@@8 DD FLAT:??_R0?AVCAirResistanceDecorator@NEffectUpdateDecorator@@@8 ; NEffectUpdateDecorator::CAirResistanceDecorator::`RTTI Base Class Descriptor at (0,-1,0,64)'
	DD	02H
	DD	00H
	DD	0ffffffffH
	DD	00H
	DD	040H
	DD	FLAT:??_R3CAirResistanceDecorator@NEffectUpdateDecorator@@8
rdata$r	ENDS
;	COMDAT ??_R2CAirResistanceDecorator@NEffectUpdateDecorator@@8
rdata$r	SEGMENT
??_R2CAirResistanceDecorator@NEffectUpdateDecorator@@8 DD FLAT:??_R1A@?0A@EA@CAirResistanceDecorator@NEffectUpdateDecorator@@8 ; NEffectUpdateDecorator::CAirResistanceDecorator::`RTTI Base Class Array'
	DD	FLAT:??_R1A@?0A@EA@CBaseDecorator@NEffectUpdateDecorator@@8
	DD	FLAT:??_R1M@?0A@EA@?$CPooledObject@VCAirResistanceDecorator@NEffectUpdateDecorator@@@@8
rdata$r	ENDS
;	COMDAT ??_R3CAirResistanceDecorator@NEffectUpdateDecorator@@8
rdata$r	SEGMENT
??_R3CAirResistanceDecorator@NEffectUpdateDecorator@@8 DD 00H ; NEffectUpdateDecorator::CAirResistanceDecorator::`RTTI Class Hierarchy Descriptor'
	DD	01H
	DD	03H
	DD	FLAT:??_R2CAirResistanceDecorator@NEffectUpdateDecorator@@8
rdata$r	ENDS
;	COMDAT ??_R0?AVCAirResistanceDecorator@NEffectUpdateDecorator@@@8
data$rs	SEGMENT
??_R0?AVCAirResistanceDecorator@NEffectUpdateDecorator@@@8 DD FLAT:??_7type_info@@6B@ ; NEffectUpdateDecorator::CAirResistanceDecorator `RTTI Type Descriptor'
	DD	00H
	DB	'.?AVCAirResistanceDecorator@NEffectUpdateDecorator@@', 00H
data$rs	ENDS
;	COMDAT ??_R4CAirResistanceDecorator@NEffectUpdateDecorator@@6BCBaseDecorator@1@@
rdata$r	SEGMENT
??_R4CAirResistanceDecorator@NEffectUpdateDecorator@@6BCBaseDecorator@1@@ DD 00H ; NEffectUpdateDecorator::CAirResistanceDecorator::`RTTI Complete Object Locator'
	DD	00H
	DD	00H
	DD	FLAT:??_R0?AVCAirResistanceDecorator@NEffectUpdateDecorator@@@8
	DD	FLAT:??_R3CAirResistanceDecorator@NEffectUpdateDecorator@@8
rdata$r	ENDS
;	COMDAT ??_R4?$CPooledObject@VCTextureAnimationRandomDecorator@NEffectUpdateDecorator@@@@6B@
rdata$r	SEGMENT
??_R4?$CPooledObject@VCTextureAnimationRandomDecorator@NEffectUpdateDecorator@@@@6B@ DD 00H ; CPooledObject<NEffectUpdateDecorator::CTextureAnimationRandomDecorator>::`RTTI Complete Object Locator'
	DD	00H
	DD	00H
	DD	FLAT:??_R0?AV?$CPooledObject@VCTextureAnimationRandomDecorator@NEffectUpdateDecorator@@@@@8
	DD	FLAT:??_R3?$CPooledObject@VCTextureAnimationRandomDecorator@NEffectUpdateDecorator@@@@8
rdata$r	ENDS
;	COMDAT ??_R4CTextureAnimationRandomDecorator@NEffectUpdateDecorator@@6B?$CPooledObject@VCTextureAnimationRandomDecorator@NEffectUpdateDecorator@@@@@
rdata$r	SEGMENT
??_R4CTextureAnimationRandomDecorator@NEffectUpdateDecorator@@6B?$CPooledObject@VCTextureAnimationRandomDecorator@NEffectUpdateDecorator@@@@@ DD 00H ; NEffectUpdateDecorator::CTextureAnimationRandomDecorator::`RTTI Complete Object Locator'
	DD	0cH
	DD	00H
	DD	FLAT:??_R0?AVCTextureAnimationRandomDecorator@NEffectUpdateDecorator@@@8
	DD	FLAT:??_R3CTextureAnimationRandomDecorator@NEffectUpdateDecorator@@8
rdata$r	ENDS
;	COMDAT ??_R1A@?0A@EA@?$CPooledObject@VCTextureAnimationRandomDecorator@NEffectUpdateDecorator@@@@8
rdata$r	SEGMENT
??_R1A@?0A@EA@?$CPooledObject@VCTextureAnimationRandomDecorator@NEffectUpdateDecorator@@@@8 DD FLAT:??_R0?AV?$CPooledObject@VCTextureAnimationRandomDecorator@NEffectUpdateDecorator@@@@@8 ; CPooledObject<NEffectUpdateDecorator::CTextureAnimationRandomDecorator>::`RTTI Base Class Descriptor at (0,-1,0,64)'
	DD	00H
	DD	00H
	DD	0ffffffffH
	DD	00H
	DD	040H
	DD	FLAT:??_R3?$CPooledObject@VCTextureAnimationRandomDecorator@NEffectUpdateDecorator@@@@8
rdata$r	ENDS
;	COMDAT ??_R2?$CPooledObject@VCTextureAnimationRandomDecorator@NEffectUpdateDecorator@@@@8
rdata$r	SEGMENT
??_R2?$CPooledObject@VCTextureAnimationRandomDecorator@NEffectUpdateDecorator@@@@8 DD FLAT:??_R1A@?0A@EA@?$CPooledObject@VCTextureAnimationRandomDecorator@NEffectUpdateDecorator@@@@8 ; CPooledObject<NEffectUpdateDecorator::CTextureAnimationRandomDecorator>::`RTTI Base Class Array'
rdata$r	ENDS
;	COMDAT ??_R3?$CPooledObject@VCTextureAnimationRandomDecorator@NEffectUpdateDecorator@@@@8
rdata$r	SEGMENT
??_R3?$CPooledObject@VCTextureAnimationRandomDecorator@NEffectUpdateDecorator@@@@8 DD 00H ; CPooledObject<NEffectUpdateDecorator::CTextureAnimationRandomDecorator>::`RTTI Class Hierarchy Descriptor'
	DD	00H
	DD	01H
	DD	FLAT:??_R2?$CPooledObject@VCTextureAnimationRandomDecorator@NEffectUpdateDecorator@@@@8
rdata$r	ENDS
;	COMDAT ??_R0?AV?$CPooledObject@VCTextureAnimationRandomDecorator@NEffectUpdateDecorator@@@@@8
data$rs	SEGMENT
??_R0?AV?$CPooledObject@VCTextureAnimationRandomDecorator@NEffectUpdateDecorator@@@@@8 DD FLAT:??_7type_info@@6B@ ; CPooledObject<NEffectUpdateDecorator::CTextureAnimationRandomDecorator> `RTTI Type Descriptor'
	DD	00H
	DB	'.?AV?$CPooledObject@VCTextureAnimationRandomDecorator@NE'
	DB	'ffectUpdateDecorator@@@@', 00H
data$rs	ENDS
;	COMDAT ??_R1M@?0A@EA@?$CPooledObject@VCTextureAnimationRandomDecorator@NEffectUpdateDecorator@@@@8
rdata$r	SEGMENT
??_R1M@?0A@EA@?$CPooledObject@VCTextureAnimationRandomDecorator@NEffectUpdateDecorator@@@@8 DD FLAT:??_R0?AV?$CPooledObject@VCTextureAnimationRandomDecorator@NEffectUpdateDecorator@@@@@8 ; CPooledObject<NEffectUpdateDecorator::CTextureAnimationRandomDecorator>::`RTTI Base Class Descriptor at (12,-1,0,64)'
	DD	00H
	DD	0cH
	DD	0ffffffffH
	DD	00H
	DD	040H
	DD	FLAT:??_R3?$CPooledObject@VCTextureAnimationRandomDecorator@NEffectUpdateDecorator@@@@8
rdata$r	ENDS
;	COMDAT ??_R1A@?0A@EA@CTextureAnimationRandomDecorator@NEffectUpdateDecorator@@8
rdata$r	SEGMENT
??_R1A@?0A@EA@CTextureAnimationRandomDecorator@NEffectUpdateDecorator@@8 DD FLAT:??_R0?AVCTextureAnimationRandomDecorator@NEffectUpdateDecorator@@@8 ; NEffectUpdateDecorator::CTextureAnimationRandomDecorator::`RTTI Base Class Descriptor at (0,-1,0,64)'
	DD	02H
	DD	00H
	DD	0ffffffffH
	DD	00H
	DD	040H
	DD	FLAT:??_R3CTextureAnimationRandomDecorator@NEffectUpdateDecorator@@8
rdata$r	ENDS
;	COMDAT ??_R2CTextureAnimationRandomDecorator@NEffectUpdateDecorator@@8
rdata$r	SEGMENT
??_R2CTextureAnimationRandomDecorator@NEffectUpdateDecorator@@8 DD FLAT:??_R1A@?0A@EA@CTextureAnimationRandomDecorator@NEffectUpdateDecorator@@8 ; NEffectUpdateDecorator::CTextureAnimationRandomDecorator::`RTTI Base Class Array'
	DD	FLAT:??_R1A@?0A@EA@CBaseDecorator@NEffectUpdateDecorator@@8
	DD	FLAT:??_R1M@?0A@EA@?$CPooledObject@VCTextureAnimationRandomDecorator@NEffectUpdateDecorator@@@@8
rdata$r	ENDS
;	COMDAT ??_R3CTextureAnimationRandomDecorator@NEffectUpdateDecorator@@8
rdata$r	SEGMENT
??_R3CTextureAnimationRandomDecorator@NEffectUpdateDecorator@@8 DD 00H ; NEffectUpdateDecorator::CTextureAnimationRandomDecorator::`RTTI Class Hierarchy Descriptor'
	DD	01H
	DD	03H
	DD	FLAT:??_R2CTextureAnimationRandomDecorator@NEffectUpdateDecorator@@8
rdata$r	ENDS
;	COMDAT ??_R0?AVCTextureAnimationRandomDecorator@NEffectUpdateDecorator@@@8
data$rs	SEGMENT
??_R0?AVCTextureAnimationRandomDecorator@NEffectUpdateDecorator@@@8 DD FLAT:??_7type_info@@6B@ ; NEffectUpdateDecorator::CTextureAnimationRandomDecorator `RTTI Type Descriptor'
	DD	00H
	DB	'.?AVCTextureAnimationRandomDecorator@NEffectUpdateDecora'
	DB	'tor@@', 00H
data$rs	ENDS
;	COMDAT ??_R4CTextureAnimationRandomDecorator@NEffectUpdateDecorator@@6BCBaseDecorator@1@@
rdata$r	SEGMENT
??_R4CTextureAnimationRandomDecorator@NEffectUpdateDecorator@@6BCBaseDecorator@1@@ DD 00H ; NEffectUpdateDecorator::CTextureAnimationRandomDecorator::`RTTI Complete Object Locator'
	DD	00H
	DD	00H
	DD	FLAT:??_R0?AVCTextureAnimationRandomDecorator@NEffectUpdateDecorator@@@8
	DD	FLAT:??_R3CTextureAnimationRandomDecorator@NEffectUpdateDecorator@@8
rdata$r	ENDS
;	COMDAT ??_R4?$CPooledObject@VCTextureAnimationCCWDecorator@NEffectUpdateDecorator@@@@6B@
rdata$r	SEGMENT
??_R4?$CPooledObject@VCTextureAnimationCCWDecorator@NEffectUpdateDecorator@@@@6B@ DD 00H ; CPooledObject<NEffectUpdateDecorator::CTextureAnimationCCWDecorator>::`RTTI Complete Object Locator'
	DD	00H
	DD	00H
	DD	FLAT:??_R0?AV?$CPooledObject@VCTextureAnimationCCWDecorator@NEffectUpdateDecorator@@@@@8
	DD	FLAT:??_R3?$CPooledObject@VCTextureAnimationCCWDecorator@NEffectUpdateDecorator@@@@8
rdata$r	ENDS
;	COMDAT ??_R4CTextureAnimationCCWDecorator@NEffectUpdateDecorator@@6B?$CPooledObject@VCTextureAnimationCCWDecorator@NEffectUpdateDecorator@@@@@
rdata$r	SEGMENT
??_R4CTextureAnimationCCWDecorator@NEffectUpdateDecorator@@6B?$CPooledObject@VCTextureAnimationCCWDecorator@NEffectUpdateDecorator@@@@@ DD 00H ; NEffectUpdateDecorator::CTextureAnimationCCWDecorator::`RTTI Complete Object Locator'
	DD	0cH
	DD	00H
	DD	FLAT:??_R0?AVCTextureAnimationCCWDecorator@NEffectUpdateDecorator@@@8
	DD	FLAT:??_R3CTextureAnimationCCWDecorator@NEffectUpdateDecorator@@8
rdata$r	ENDS
;	COMDAT ??_R1A@?0A@EA@?$CPooledObject@VCTextureAnimationCCWDecorator@NEffectUpdateDecorator@@@@8
rdata$r	SEGMENT
??_R1A@?0A@EA@?$CPooledObject@VCTextureAnimationCCWDecorator@NEffectUpdateDecorator@@@@8 DD FLAT:??_R0?AV?$CPooledObject@VCTextureAnimationCCWDecorator@NEffectUpdateDecorator@@@@@8 ; CPooledObject<NEffectUpdateDecorator::CTextureAnimationCCWDecorator>::`RTTI Base Class Descriptor at (0,-1,0,64)'
	DD	00H
	DD	00H
	DD	0ffffffffH
	DD	00H
	DD	040H
	DD	FLAT:??_R3?$CPooledObject@VCTextureAnimationCCWDecorator@NEffectUpdateDecorator@@@@8
rdata$r	ENDS
;	COMDAT ??_R2?$CPooledObject@VCTextureAnimationCCWDecorator@NEffectUpdateDecorator@@@@8
rdata$r	SEGMENT
??_R2?$CPooledObject@VCTextureAnimationCCWDecorator@NEffectUpdateDecorator@@@@8 DD FLAT:??_R1A@?0A@EA@?$CPooledObject@VCTextureAnimationCCWDecorator@NEffectUpdateDecorator@@@@8 ; CPooledObject<NEffectUpdateDecorator::CTextureAnimationCCWDecorator>::`RTTI Base Class Array'
rdata$r	ENDS
;	COMDAT ??_R3?$CPooledObject@VCTextureAnimationCCWDecorator@NEffectUpdateDecorator@@@@8
rdata$r	SEGMENT
??_R3?$CPooledObject@VCTextureAnimationCCWDecorator@NEffectUpdateDecorator@@@@8 DD 00H ; CPooledObject<NEffectUpdateDecorator::CTextureAnimationCCWDecorator>::`RTTI Class Hierarchy Descriptor'
	DD	00H
	DD	01H
	DD	FLAT:??_R2?$CPooledObject@VCTextureAnimationCCWDecorator@NEffectUpdateDecorator@@@@8
rdata$r	ENDS
;	COMDAT ??_R0?AV?$CPooledObject@VCTextureAnimationCCWDecorator@NEffectUpdateDecorator@@@@@8
data$rs	SEGMENT
??_R0?AV?$CPooledObject@VCTextureAnimationCCWDecorator@NEffectUpdateDecorator@@@@@8 DD FLAT:??_7type_info@@6B@ ; CPooledObject<NEffectUpdateDecorator::CTextureAnimationCCWDecorator> `RTTI Type Descriptor'
	DD	00H
	DB	'.?AV?$CPooledObject@VCTextureAnimationCCWDecorator@NEffe'
	DB	'ctUpdateDecorator@@@@', 00H
data$rs	ENDS
;	COMDAT ??_R1M@?0A@EA@?$CPooledObject@VCTextureAnimationCCWDecorator@NEffectUpdateDecorator@@@@8
rdata$r	SEGMENT
??_R1M@?0A@EA@?$CPooledObject@VCTextureAnimationCCWDecorator@NEffectUpdateDecorator@@@@8 DD FLAT:??_R0?AV?$CPooledObject@VCTextureAnimationCCWDecorator@NEffectUpdateDecorator@@@@@8 ; CPooledObject<NEffectUpdateDecorator::CTextureAnimationCCWDecorator>::`RTTI Base Class Descriptor at (12,-1,0,64)'
	DD	00H
	DD	0cH
	DD	0ffffffffH
	DD	00H
	DD	040H
	DD	FLAT:??_R3?$CPooledObject@VCTextureAnimationCCWDecorator@NEffectUpdateDecorator@@@@8
rdata$r	ENDS
;	COMDAT ??_R1A@?0A@EA@CTextureAnimationCCWDecorator@NEffectUpdateDecorator@@8
rdata$r	SEGMENT
??_R1A@?0A@EA@CTextureAnimationCCWDecorator@NEffectUpdateDecorator@@8 DD FLAT:??_R0?AVCTextureAnimationCCWDecorator@NEffectUpdateDecorator@@@8 ; NEffectUpdateDecorator::CTextureAnimationCCWDecorator::`RTTI Base Class Descriptor at (0,-1,0,64)'
	DD	02H
	DD	00H
	DD	0ffffffffH
	DD	00H
	DD	040H
	DD	FLAT:??_R3CTextureAnimationCCWDecorator@NEffectUpdateDecorator@@8
rdata$r	ENDS
;	COMDAT ??_R2CTextureAnimationCCWDecorator@NEffectUpdateDecorator@@8
rdata$r	SEGMENT
??_R2CTextureAnimationCCWDecorator@NEffectUpdateDecorator@@8 DD FLAT:??_R1A@?0A@EA@CTextureAnimationCCWDecorator@NEffectUpdateDecorator@@8 ; NEffectUpdateDecorator::CTextureAnimationCCWDecorator::`RTTI Base Class Array'
	DD	FLAT:??_R1A@?0A@EA@CBaseDecorator@NEffectUpdateDecorator@@8
	DD	FLAT:??_R1M@?0A@EA@?$CPooledObject@VCTextureAnimationCCWDecorator@NEffectUpdateDecorator@@@@8
rdata$r	ENDS
;	COMDAT ??_R3CTextureAnimationCCWDecorator@NEffectUpdateDecorator@@8
rdata$r	SEGMENT
??_R3CTextureAnimationCCWDecorator@NEffectUpdateDecorator@@8 DD 00H ; NEffectUpdateDecorator::CTextureAnimationCCWDecorator::`RTTI Class Hierarchy Descriptor'
	DD	01H
	DD	03H
	DD	FLAT:??_R2CTextureAnimationCCWDecorator@NEffectUpdateDecorator@@8
rdata$r	ENDS
;	COMDAT ??_R0?AVCTextureAnimationCCWDecorator@NEffectUpdateDecorator@@@8
data$rs	SEGMENT
??_R0?AVCTextureAnimationCCWDecorator@NEffectUpdateDecorator@@@8 DD FLAT:??_7type_info@@6B@ ; NEffectUpdateDecorator::CTextureAnimationCCWDecorator `RTTI Type Descriptor'
	DD	00H
	DB	'.?AVCTextureAnimationCCWDecorator@NEffectUpdateDecorator'
	DB	'@@', 00H
data$rs	ENDS
;	COMDAT ??_R4CTextureAnimationCCWDecorator@NEffectUpdateDecorator@@6BCBaseDecorator@1@@
rdata$r	SEGMENT
??_R4CTextureAnimationCCWDecorator@NEffectUpdateDecorator@@6BCBaseDecorator@1@@ DD 00H ; NEffectUpdateDecorator::CTextureAnimationCCWDecorator::`RTTI Complete Object Locator'
	DD	00H
	DD	00H
	DD	FLAT:??_R0?AVCTextureAnimationCCWDecorator@NEffectUpdateDecorator@@@8
	DD	FLAT:??_R3CTextureAnimationCCWDecorator@NEffectUpdateDecorator@@8
rdata$r	ENDS
;	COMDAT ??_R4?$CPooledObject@VCTextureAnimationCWDecorator@NEffectUpdateDecorator@@@@6B@
rdata$r	SEGMENT
??_R4?$CPooledObject@VCTextureAnimationCWDecorator@NEffectUpdateDecorator@@@@6B@ DD 00H ; CPooledObject<NEffectUpdateDecorator::CTextureAnimationCWDecorator>::`RTTI Complete Object Locator'
	DD	00H
	DD	00H
	DD	FLAT:??_R0?AV?$CPooledObject@VCTextureAnimationCWDecorator@NEffectUpdateDecorator@@@@@8
	DD	FLAT:??_R3?$CPooledObject@VCTextureAnimationCWDecorator@NEffectUpdateDecorator@@@@8
rdata$r	ENDS
;	COMDAT ??_R4CTextureAnimationCWDecorator@NEffectUpdateDecorator@@6B?$CPooledObject@VCTextureAnimationCWDecorator@NEffectUpdateDecorator@@@@@
rdata$r	SEGMENT
??_R4CTextureAnimationCWDecorator@NEffectUpdateDecorator@@6B?$CPooledObject@VCTextureAnimationCWDecorator@NEffectUpdateDecorator@@@@@ DD 00H ; NEffectUpdateDecorator::CTextureAnimationCWDecorator::`RTTI Complete Object Locator'
	DD	0cH
	DD	00H
	DD	FLAT:??_R0?AVCTextureAnimationCWDecorator@NEffectUpdateDecorator@@@8
	DD	FLAT:??_R3CTextureAnimationCWDecorator@NEffectUpdateDecorator@@8
rdata$r	ENDS
;	COMDAT ??_R1A@?0A@EA@?$CPooledObject@VCTextureAnimationCWDecorator@NEffectUpdateDecorator@@@@8
rdata$r	SEGMENT
??_R1A@?0A@EA@?$CPooledObject@VCTextureAnimationCWDecorator@NEffectUpdateDecorator@@@@8 DD FLAT:??_R0?AV?$CPooledObject@VCTextureAnimationCWDecorator@NEffectUpdateDecorator@@@@@8 ; CPooledObject<NEffectUpdateDecorator::CTextureAnimationCWDecorator>::`RTTI Base Class Descriptor at (0,-1,0,64)'
	DD	00H
	DD	00H
	DD	0ffffffffH
	DD	00H
	DD	040H
	DD	FLAT:??_R3?$CPooledObject@VCTextureAnimationCWDecorator@NEffectUpdateDecorator@@@@8
rdata$r	ENDS
;	COMDAT ??_R2?$CPooledObject@VCTextureAnimationCWDecorator@NEffectUpdateDecorator@@@@8
rdata$r	SEGMENT
??_R2?$CPooledObject@VCTextureAnimationCWDecorator@NEffectUpdateDecorator@@@@8 DD FLAT:??_R1A@?0A@EA@?$CPooledObject@VCTextureAnimationCWDecorator@NEffectUpdateDecorator@@@@8 ; CPooledObject<NEffectUpdateDecorator::CTextureAnimationCWDecorator>::`RTTI Base Class Array'
rdata$r	ENDS
;	COMDAT ??_R3?$CPooledObject@VCTextureAnimationCWDecorator@NEffectUpdateDecorator@@@@8
rdata$r	SEGMENT
??_R3?$CPooledObject@VCTextureAnimationCWDecorator@NEffectUpdateDecorator@@@@8 DD 00H ; CPooledObject<NEffectUpdateDecorator::CTextureAnimationCWDecorator>::`RTTI Class Hierarchy Descriptor'
	DD	00H
	DD	01H
	DD	FLAT:??_R2?$CPooledObject@VCTextureAnimationCWDecorator@NEffectUpdateDecorator@@@@8
rdata$r	ENDS
;	COMDAT ??_R0?AV?$CPooledObject@VCTextureAnimationCWDecorator@NEffectUpdateDecorator@@@@@8
data$rs	SEGMENT
??_R0?AV?$CPooledObject@VCTextureAnimationCWDecorator@NEffectUpdateDecorator@@@@@8 DD FLAT:??_7type_info@@6B@ ; CPooledObject<NEffectUpdateDecorator::CTextureAnimationCWDecorator> `RTTI Type Descriptor'
	DD	00H
	DB	'.?AV?$CPooledObject@VCTextureAnimationCWDecorator@NEffec'
	DB	'tUpdateDecorator@@@@', 00H
data$rs	ENDS
;	COMDAT ??_R1M@?0A@EA@?$CPooledObject@VCTextureAnimationCWDecorator@NEffectUpdateDecorator@@@@8
rdata$r	SEGMENT
??_R1M@?0A@EA@?$CPooledObject@VCTextureAnimationCWDecorator@NEffectUpdateDecorator@@@@8 DD FLAT:??_R0?AV?$CPooledObject@VCTextureAnimationCWDecorator@NEffectUpdateDecorator@@@@@8 ; CPooledObject<NEffectUpdateDecorator::CTextureAnimationCWDecorator>::`RTTI Base Class Descriptor at (12,-1,0,64)'
	DD	00H
	DD	0cH
	DD	0ffffffffH
	DD	00H
	DD	040H
	DD	FLAT:??_R3?$CPooledObject@VCTextureAnimationCWDecorator@NEffectUpdateDecorator@@@@8
rdata$r	ENDS
;	COMDAT ??_R1A@?0A@EA@CTextureAnimationCWDecorator@NEffectUpdateDecorator@@8
rdata$r	SEGMENT
??_R1A@?0A@EA@CTextureAnimationCWDecorator@NEffectUpdateDecorator@@8 DD FLAT:??_R0?AVCTextureAnimationCWDecorator@NEffectUpdateDecorator@@@8 ; NEffectUpdateDecorator::CTextureAnimationCWDecorator::`RTTI Base Class Descriptor at (0,-1,0,64)'
	DD	02H
	DD	00H
	DD	0ffffffffH
	DD	00H
	DD	040H
	DD	FLAT:??_R3CTextureAnimationCWDecorator@NEffectUpdateDecorator@@8
rdata$r	ENDS
;	COMDAT ??_R2CTextureAnimationCWDecorator@NEffectUpdateDecorator@@8
rdata$r	SEGMENT
??_R2CTextureAnimationCWDecorator@NEffectUpdateDecorator@@8 DD FLAT:??_R1A@?0A@EA@CTextureAnimationCWDecorator@NEffectUpdateDecorator@@8 ; NEffectUpdateDecorator::CTextureAnimationCWDecorator::`RTTI Base Class Array'
	DD	FLAT:??_R1A@?0A@EA@CBaseDecorator@NEffectUpdateDecorator@@8
	DD	FLAT:??_R1M@?0A@EA@?$CPooledObject@VCTextureAnimationCWDecorator@NEffectUpdateDecorator@@@@8
rdata$r	ENDS
;	COMDAT ??_R3CTextureAnimationCWDecorator@NEffectUpdateDecorator@@8
rdata$r	SEGMENT
??_R3CTextureAnimationCWDecorator@NEffectUpdateDecorator@@8 DD 00H ; NEffectUpdateDecorator::CTextureAnimationCWDecorator::`RTTI Class Hierarchy Descriptor'
	DD	01H
	DD	03H
	DD	FLAT:??_R2CTextureAnimationCWDecorator@NEffectUpdateDecorator@@8
rdata$r	ENDS
;	COMDAT ??_R0?AVCTextureAnimationCWDecorator@NEffectUpdateDecorator@@@8
data$rs	SEGMENT
??_R0?AVCTextureAnimationCWDecorator@NEffectUpdateDecorator@@@8 DD FLAT:??_7type_info@@6B@ ; NEffectUpdateDecorator::CTextureAnimationCWDecorator `RTTI Type Descriptor'
	DD	00H
	DB	'.?AVCTextureAnimationCWDecorator@NEffectUpdateDecorator@'
	DB	'@', 00H
data$rs	ENDS
;	COMDAT ??_R4CTextureAnimationCWDecorator@NEffectUpdateDecorator@@6BCBaseDecorator@1@@
rdata$r	SEGMENT
??_R4CTextureAnimationCWDecorator@NEffectUpdateDecorator@@6BCBaseDecorator@1@@ DD 00H ; NEffectUpdateDecorator::CTextureAnimationCWDecorator::`RTTI Complete Object Locator'
	DD	00H
	DD	00H
	DD	FLAT:??_R0?AVCTextureAnimationCWDecorator@NEffectUpdateDecorator@@@8
	DD	FLAT:??_R3CTextureAnimationCWDecorator@NEffectUpdateDecorator@@8
rdata$r	ENDS
;	COMDAT ??_R4?$CTimeEventDecorator@UDWORDCOLOR@@@NEffectUpdateDecorator@@6B?$CPooledObject@V?$CTimeEventDecorator@UDWORDCOLOR@@@NEffectUpdateDecorator@@@@@
rdata$r	SEGMENT
??_R4?$CTimeEventDecorator@UDWORDCOLOR@@@NEffectUpdateDecorator@@6B?$CPooledObject@V?$CTimeEventDecorator@UDWORDCOLOR@@@NEffectUpdateDecorator@@@@@ DD 00H ; NEffectUpdateDecorator::CTimeEventDecorator<DWORDCOLOR>::`RTTI Complete Object Locator'
	DD	0cH
	DD	00H
	DD	FLAT:??_R0?AV?$CTimeEventDecorator@UDWORDCOLOR@@@NEffectUpdateDecorator@@@8
	DD	FLAT:??_R3?$CTimeEventDecorator@UDWORDCOLOR@@@NEffectUpdateDecorator@@8
rdata$r	ENDS
;	COMDAT ??_R1A@?0A@EA@?$CPooledObject@V?$CTimeEventDecorator@UDWORDCOLOR@@@NEffectUpdateDecorator@@@@8
rdata$r	SEGMENT
??_R1A@?0A@EA@?$CPooledObject@V?$CTimeEventDecorator@UDWORDCOLOR@@@NEffectUpdateDecorator@@@@8 DD FLAT:??_R0?AV?$CPooledObject@V?$CTimeEventDecorator@UDWORDCOLOR@@@NEffectUpdateDecorator@@@@@8 ; CPooledObject<NEffectUpdateDecorator::CTimeEventDecorator<DWORDCOLOR> >::`RTTI Base Class Descriptor at (0,-1,0,64)'
	DD	00H
	DD	00H
	DD	0ffffffffH
	DD	00H
	DD	040H
	DD	FLAT:??_R3?$CPooledObject@V?$CTimeEventDecorator@UDWORDCOLOR@@@NEffectUpdateDecorator@@@@8
rdata$r	ENDS
;	COMDAT ??_R2?$CPooledObject@V?$CTimeEventDecorator@UDWORDCOLOR@@@NEffectUpdateDecorator@@@@8
rdata$r	SEGMENT
??_R2?$CPooledObject@V?$CTimeEventDecorator@UDWORDCOLOR@@@NEffectUpdateDecorator@@@@8 DD FLAT:??_R1A@?0A@EA@?$CPooledObject@V?$CTimeEventDecorator@UDWORDCOLOR@@@NEffectUpdateDecorator@@@@8 ; CPooledObject<NEffectUpdateDecorator::CTimeEventDecorator<DWORDCOLOR> >::`RTTI Base Class Array'
rdata$r	ENDS
;	COMDAT ??_R3?$CPooledObject@V?$CTimeEventDecorator@UDWORDCOLOR@@@NEffectUpdateDecorator@@@@8
rdata$r	SEGMENT
??_R3?$CPooledObject@V?$CTimeEventDecorator@UDWORDCOLOR@@@NEffectUpdateDecorator@@@@8 DD 00H ; CPooledObject<NEffectUpdateDecorator::CTimeEventDecorator<DWORDCOLOR> >::`RTTI Class Hierarchy Descriptor'
	DD	00H
	DD	01H
	DD	FLAT:??_R2?$CPooledObject@V?$CTimeEventDecorator@UDWORDCOLOR@@@NEffectUpdateDecorator@@@@8
rdata$r	ENDS
;	COMDAT ??_R0?AV?$CPooledObject@V?$CTimeEventDecorator@UDWORDCOLOR@@@NEffectUpdateDecorator@@@@@8
data$rs	SEGMENT
??_R0?AV?$CPooledObject@V?$CTimeEventDecorator@UDWORDCOLOR@@@NEffectUpdateDecorator@@@@@8 DD FLAT:??_7type_info@@6B@ ; CPooledObject<NEffectUpdateDecorator::CTimeEventDecorator<DWORDCOLOR> > `RTTI Type Descriptor'
	DD	00H
	DB	'.?AV?$CPooledObject@V?$CTimeEventDecorator@UDWORDCOLOR@@'
	DB	'@NEffectUpdateDecorator@@@@', 00H
data$rs	ENDS
;	COMDAT ??_R1M@?0A@EA@?$CPooledObject@V?$CTimeEventDecorator@UDWORDCOLOR@@@NEffectUpdateDecorator@@@@8
rdata$r	SEGMENT
??_R1M@?0A@EA@?$CPooledObject@V?$CTimeEventDecorator@UDWORDCOLOR@@@NEffectUpdateDecorator@@@@8 DD FLAT:??_R0?AV?$CPooledObject@V?$CTimeEventDecorator@UDWORDCOLOR@@@NEffectUpdateDecorator@@@@@8 ; CPooledObject<NEffectUpdateDecorator::CTimeEventDecorator<DWORDCOLOR> >::`RTTI Base Class Descriptor at (12,-1,0,64)'
	DD	00H
	DD	0cH
	DD	0ffffffffH
	DD	00H
	DD	040H
	DD	FLAT:??_R3?$CPooledObject@V?$CTimeEventDecorator@UDWORDCOLOR@@@NEffectUpdateDecorator@@@@8
rdata$r	ENDS
;	COMDAT ??_R1A@?0A@EA@?$CTimeEventDecorator@UDWORDCOLOR@@@NEffectUpdateDecorator@@8
rdata$r	SEGMENT
??_R1A@?0A@EA@?$CTimeEventDecorator@UDWORDCOLOR@@@NEffectUpdateDecorator@@8 DD FLAT:??_R0?AV?$CTimeEventDecorator@UDWORDCOLOR@@@NEffectUpdateDecorator@@@8 ; NEffectUpdateDecorator::CTimeEventDecorator<DWORDCOLOR>::`RTTI Base Class Descriptor at (0,-1,0,64)'
	DD	02H
	DD	00H
	DD	0ffffffffH
	DD	00H
	DD	040H
	DD	FLAT:??_R3?$CTimeEventDecorator@UDWORDCOLOR@@@NEffectUpdateDecorator@@8
rdata$r	ENDS
;	COMDAT ??_R2?$CTimeEventDecorator@UDWORDCOLOR@@@NEffectUpdateDecorator@@8
rdata$r	SEGMENT
??_R2?$CTimeEventDecorator@UDWORDCOLOR@@@NEffectUpdateDecorator@@8 DD FLAT:??_R1A@?0A@EA@?$CTimeEventDecorator@UDWORDCOLOR@@@NEffectUpdateDecorator@@8 ; NEffectUpdateDecorator::CTimeEventDecorator<DWORDCOLOR>::`RTTI Base Class Array'
	DD	FLAT:??_R1A@?0A@EA@CBaseDecorator@NEffectUpdateDecorator@@8
	DD	FLAT:??_R1M@?0A@EA@?$CPooledObject@V?$CTimeEventDecorator@UDWORDCOLOR@@@NEffectUpdateDecorator@@@@8
rdata$r	ENDS
;	COMDAT ??_R3?$CTimeEventDecorator@UDWORDCOLOR@@@NEffectUpdateDecorator@@8
rdata$r	SEGMENT
??_R3?$CTimeEventDecorator@UDWORDCOLOR@@@NEffectUpdateDecorator@@8 DD 00H ; NEffectUpdateDecorator::CTimeEventDecorator<DWORDCOLOR>::`RTTI Class Hierarchy Descriptor'
	DD	01H
	DD	03H
	DD	FLAT:??_R2?$CTimeEventDecorator@UDWORDCOLOR@@@NEffectUpdateDecorator@@8
rdata$r	ENDS
;	COMDAT ??_R0?AV?$CTimeEventDecorator@UDWORDCOLOR@@@NEffectUpdateDecorator@@@8
data$rs	SEGMENT
??_R0?AV?$CTimeEventDecorator@UDWORDCOLOR@@@NEffectUpdateDecorator@@@8 DD FLAT:??_7type_info@@6B@ ; NEffectUpdateDecorator::CTimeEventDecorator<DWORDCOLOR> `RTTI Type Descriptor'
	DD	00H
	DB	'.?AV?$CTimeEventDecorator@UDWORDCOLOR@@@NEffectUpdateDec'
	DB	'orator@@', 00H
data$rs	ENDS
;	COMDAT ??_R4?$CTimeEventDecorator@UDWORDCOLOR@@@NEffectUpdateDecorator@@6BCBaseDecorator@1@@
rdata$r	SEGMENT
??_R4?$CTimeEventDecorator@UDWORDCOLOR@@@NEffectUpdateDecorator@@6BCBaseDecorator@1@@ DD 00H ; NEffectUpdateDecorator::CTimeEventDecorator<DWORDCOLOR>::`RTTI Complete Object Locator'
	DD	00H
	DD	00H
	DD	FLAT:??_R0?AV?$CTimeEventDecorator@UDWORDCOLOR@@@NEffectUpdateDecorator@@@8
	DD	FLAT:??_R3?$CTimeEventDecorator@UDWORDCOLOR@@@NEffectUpdateDecorator@@8
rdata$r	ENDS
;	COMDAT ??_R4?$CTimeEventDecorator@M@NEffectUpdateDecorator@@6B?$CPooledObject@V?$CTimeEventDecorator@M@NEffectUpdateDecorator@@@@@
rdata$r	SEGMENT
??_R4?$CTimeEventDecorator@M@NEffectUpdateDecorator@@6B?$CPooledObject@V?$CTimeEventDecorator@M@NEffectUpdateDecorator@@@@@ DD 00H ; NEffectUpdateDecorator::CTimeEventDecorator<float>::`RTTI Complete Object Locator'
	DD	0cH
	DD	00H
	DD	FLAT:??_R0?AV?$CTimeEventDecorator@M@NEffectUpdateDecorator@@@8
	DD	FLAT:??_R3?$CTimeEventDecorator@M@NEffectUpdateDecorator@@8
rdata$r	ENDS
;	COMDAT ??_R1A@?0A@EA@?$CPooledObject@V?$CTimeEventDecorator@M@NEffectUpdateDecorator@@@@8
rdata$r	SEGMENT
??_R1A@?0A@EA@?$CPooledObject@V?$CTimeEventDecorator@M@NEffectUpdateDecorator@@@@8 DD FLAT:??_R0?AV?$CPooledObject@V?$CTimeEventDecorator@M@NEffectUpdateDecorator@@@@@8 ; CPooledObject<NEffectUpdateDecorator::CTimeEventDecorator<float> >::`RTTI Base Class Descriptor at (0,-1,0,64)'
	DD	00H
	DD	00H
	DD	0ffffffffH
	DD	00H
	DD	040H
	DD	FLAT:??_R3?$CPooledObject@V?$CTimeEventDecorator@M@NEffectUpdateDecorator@@@@8
rdata$r	ENDS
;	COMDAT ??_R2?$CPooledObject@V?$CTimeEventDecorator@M@NEffectUpdateDecorator@@@@8
rdata$r	SEGMENT
??_R2?$CPooledObject@V?$CTimeEventDecorator@M@NEffectUpdateDecorator@@@@8 DD FLAT:??_R1A@?0A@EA@?$CPooledObject@V?$CTimeEventDecorator@M@NEffectUpdateDecorator@@@@8 ; CPooledObject<NEffectUpdateDecorator::CTimeEventDecorator<float> >::`RTTI Base Class Array'
rdata$r	ENDS
;	COMDAT ??_R3?$CPooledObject@V?$CTimeEventDecorator@M@NEffectUpdateDecorator@@@@8
rdata$r	SEGMENT
??_R3?$CPooledObject@V?$CTimeEventDecorator@M@NEffectUpdateDecorator@@@@8 DD 00H ; CPooledObject<NEffectUpdateDecorator::CTimeEventDecorator<float> >::`RTTI Class Hierarchy Descriptor'
	DD	00H
	DD	01H
	DD	FLAT:??_R2?$CPooledObject@V?$CTimeEventDecorator@M@NEffectUpdateDecorator@@@@8
rdata$r	ENDS
;	COMDAT ??_R0?AV?$CPooledObject@V?$CTimeEventDecorator@M@NEffectUpdateDecorator@@@@@8
data$rs	SEGMENT
??_R0?AV?$CPooledObject@V?$CTimeEventDecorator@M@NEffectUpdateDecorator@@@@@8 DD FLAT:??_7type_info@@6B@ ; CPooledObject<NEffectUpdateDecorator::CTimeEventDecorator<float> > `RTTI Type Descriptor'
	DD	00H
	DB	'.?AV?$CPooledObject@V?$CTimeEventDecorator@M@NEffectUpda'
	DB	'teDecorator@@@@', 00H
data$rs	ENDS
;	COMDAT ??_R1M@?0A@EA@?$CPooledObject@V?$CTimeEventDecorator@M@NEffectUpdateDecorator@@@@8
rdata$r	SEGMENT
??_R1M@?0A@EA@?$CPooledObject@V?$CTimeEventDecorator@M@NEffectUpdateDecorator@@@@8 DD FLAT:??_R0?AV?$CPooledObject@V?$CTimeEventDecorator@M@NEffectUpdateDecorator@@@@@8 ; CPooledObject<NEffectUpdateDecorator::CTimeEventDecorator<float> >::`RTTI Base Class Descriptor at (12,-1,0,64)'
	DD	00H
	DD	0cH
	DD	0ffffffffH
	DD	00H
	DD	040H
	DD	FLAT:??_R3?$CPooledObject@V?$CTimeEventDecorator@M@NEffectUpdateDecorator@@@@8
rdata$r	ENDS
;	COMDAT ??_R1A@?0A@EA@?$CTimeEventDecorator@M@NEffectUpdateDecorator@@8
rdata$r	SEGMENT
??_R1A@?0A@EA@?$CTimeEventDecorator@M@NEffectUpdateDecorator@@8 DD FLAT:??_R0?AV?$CTimeEventDecorator@M@NEffectUpdateDecorator@@@8 ; NEffectUpdateDecorator::CTimeEventDecorator<float>::`RTTI Base Class Descriptor at (0,-1,0,64)'
	DD	02H
	DD	00H
	DD	0ffffffffH
	DD	00H
	DD	040H
	DD	FLAT:??_R3?$CTimeEventDecorator@M@NEffectUpdateDecorator@@8
rdata$r	ENDS
;	COMDAT ??_R2?$CTimeEventDecorator@M@NEffectUpdateDecorator@@8
rdata$r	SEGMENT
??_R2?$CTimeEventDecorator@M@NEffectUpdateDecorator@@8 DD FLAT:??_R1A@?0A@EA@?$CTimeEventDecorator@M@NEffectUpdateDecorator@@8 ; NEffectUpdateDecorator::CTimeEventDecorator<float>::`RTTI Base Class Array'
	DD	FLAT:??_R1A@?0A@EA@CBaseDecorator@NEffectUpdateDecorator@@8
	DD	FLAT:??_R1M@?0A@EA@?$CPooledObject@V?$CTimeEventDecorator@M@NEffectUpdateDecorator@@@@8
rdata$r	ENDS
;	COMDAT ??_R3?$CTimeEventDecorator@M@NEffectUpdateDecorator@@8
rdata$r	SEGMENT
??_R3?$CTimeEventDecorator@M@NEffectUpdateDecorator@@8 DD 00H ; NEffectUpdateDecorator::CTimeEventDecorator<float>::`RTTI Class Hierarchy Descriptor'
	DD	01H
	DD	03H
	DD	FLAT:??_R2?$CTimeEventDecorator@M@NEffectUpdateDecorator@@8
rdata$r	ENDS
;	COMDAT ??_R0?AV?$CTimeEventDecorator@M@NEffectUpdateDecorator@@@8
data$rs	SEGMENT
??_R0?AV?$CTimeEventDecorator@M@NEffectUpdateDecorator@@@8 DD FLAT:??_7type_info@@6B@ ; NEffectUpdateDecorator::CTimeEventDecorator<float> `RTTI Type Descriptor'
	DD	00H
	DB	'.?AV?$CTimeEventDecorator@M@NEffectUpdateDecorator@@', 00H
data$rs	ENDS
;	COMDAT ??_R4?$CTimeEventDecorator@M@NEffectUpdateDecorator@@6BCBaseDecorator@1@@
rdata$r	SEGMENT
??_R4?$CTimeEventDecorator@M@NEffectUpdateDecorator@@6BCBaseDecorator@1@@ DD 00H ; NEffectUpdateDecorator::CTimeEventDecorator<float>::`RTTI Complete Object Locator'
	DD	00H
	DD	00H
	DD	FLAT:??_R0?AV?$CTimeEventDecorator@M@NEffectUpdateDecorator@@@8
	DD	FLAT:??_R3?$CTimeEventDecorator@M@NEffectUpdateDecorator@@8
rdata$r	ENDS
;	COMDAT ??_R4?$CPooledObject@VCNullDecorator@NEffectUpdateDecorator@@@@6B@
rdata$r	SEGMENT
??_R4?$CPooledObject@VCNullDecorator@NEffectUpdateDecorator@@@@6B@ DD 00H ; CPooledObject<NEffectUpdateDecorator::CNullDecorator>::`RTTI Complete Object Locator'
	DD	00H
	DD	00H
	DD	FLAT:??_R0?AV?$CPooledObject@VCNullDecorator@NEffectUpdateDecorator@@@@@8
	DD	FLAT:??_R3?$CPooledObject@VCNullDecorator@NEffectUpdateDecorator@@@@8
rdata$r	ENDS
;	COMDAT ??_R4CNullDecorator@NEffectUpdateDecorator@@6B?$CPooledObject@VCNullDecorator@NEffectUpdateDecorator@@@@@
rdata$r	SEGMENT
??_R4CNullDecorator@NEffectUpdateDecorator@@6B?$CPooledObject@VCNullDecorator@NEffectUpdateDecorator@@@@@ DD 00H ; NEffectUpdateDecorator::CNullDecorator::`RTTI Complete Object Locator'
	DD	0cH
	DD	00H
	DD	FLAT:??_R0?AVCNullDecorator@NEffectUpdateDecorator@@@8
	DD	FLAT:??_R3CNullDecorator@NEffectUpdateDecorator@@8
rdata$r	ENDS
;	COMDAT ??_R1A@?0A@EA@?$CPooledObject@VCNullDecorator@NEffectUpdateDecorator@@@@8
rdata$r	SEGMENT
??_R1A@?0A@EA@?$CPooledObject@VCNullDecorator@NEffectUpdateDecorator@@@@8 DD FLAT:??_R0?AV?$CPooledObject@VCNullDecorator@NEffectUpdateDecorator@@@@@8 ; CPooledObject<NEffectUpdateDecorator::CNullDecorator>::`RTTI Base Class Descriptor at (0,-1,0,64)'
	DD	00H
	DD	00H
	DD	0ffffffffH
	DD	00H
	DD	040H
	DD	FLAT:??_R3?$CPooledObject@VCNullDecorator@NEffectUpdateDecorator@@@@8
rdata$r	ENDS
;	COMDAT ??_R2?$CPooledObject@VCNullDecorator@NEffectUpdateDecorator@@@@8
rdata$r	SEGMENT
??_R2?$CPooledObject@VCNullDecorator@NEffectUpdateDecorator@@@@8 DD FLAT:??_R1A@?0A@EA@?$CPooledObject@VCNullDecorator@NEffectUpdateDecorator@@@@8 ; CPooledObject<NEffectUpdateDecorator::CNullDecorator>::`RTTI Base Class Array'
rdata$r	ENDS
;	COMDAT ??_R3?$CPooledObject@VCNullDecorator@NEffectUpdateDecorator@@@@8
rdata$r	SEGMENT
??_R3?$CPooledObject@VCNullDecorator@NEffectUpdateDecorator@@@@8 DD 00H ; CPooledObject<NEffectUpdateDecorator::CNullDecorator>::`RTTI Class Hierarchy Descriptor'
	DD	00H
	DD	01H
	DD	FLAT:??_R2?$CPooledObject@VCNullDecorator@NEffectUpdateDecorator@@@@8
rdata$r	ENDS
;	COMDAT ??_R0?AV?$CPooledObject@VCNullDecorator@NEffectUpdateDecorator@@@@@8
data$rs	SEGMENT
??_R0?AV?$CPooledObject@VCNullDecorator@NEffectUpdateDecorator@@@@@8 DD FLAT:??_7type_info@@6B@ ; CPooledObject<NEffectUpdateDecorator::CNullDecorator> `RTTI Type Descriptor'
	DD	00H
	DB	'.?AV?$CPooledObject@VCNullDecorator@NEffectUpdateDecorat'
	DB	'or@@@@', 00H
data$rs	ENDS
;	COMDAT ??_R1M@?0A@EA@?$CPooledObject@VCNullDecorator@NEffectUpdateDecorator@@@@8
rdata$r	SEGMENT
??_R1M@?0A@EA@?$CPooledObject@VCNullDecorator@NEffectUpdateDecorator@@@@8 DD FLAT:??_R0?AV?$CPooledObject@VCNullDecorator@NEffectUpdateDecorator@@@@@8 ; CPooledObject<NEffectUpdateDecorator::CNullDecorator>::`RTTI Base Class Descriptor at (12,-1,0,64)'
	DD	00H
	DD	0cH
	DD	0ffffffffH
	DD	00H
	DD	040H
	DD	FLAT:??_R3?$CPooledObject@VCNullDecorator@NEffectUpdateDecorator@@@@8
rdata$r	ENDS
;	COMDAT ??_R1A@?0A@EA@CNullDecorator@NEffectUpdateDecorator@@8
rdata$r	SEGMENT
??_R1A@?0A@EA@CNullDecorator@NEffectUpdateDecorator@@8 DD FLAT:??_R0?AVCNullDecorator@NEffectUpdateDecorator@@@8 ; NEffectUpdateDecorator::CNullDecorator::`RTTI Base Class Descriptor at (0,-1,0,64)'
	DD	02H
	DD	00H
	DD	0ffffffffH
	DD	00H
	DD	040H
	DD	FLAT:??_R3CNullDecorator@NEffectUpdateDecorator@@8
rdata$r	ENDS
;	COMDAT ??_R2CNullDecorator@NEffectUpdateDecorator@@8
rdata$r	SEGMENT
??_R2CNullDecorator@NEffectUpdateDecorator@@8 DD FLAT:??_R1A@?0A@EA@CNullDecorator@NEffectUpdateDecorator@@8 ; NEffectUpdateDecorator::CNullDecorator::`RTTI Base Class Array'
	DD	FLAT:??_R1A@?0A@EA@CBaseDecorator@NEffectUpdateDecorator@@8
	DD	FLAT:??_R1M@?0A@EA@?$CPooledObject@VCNullDecorator@NEffectUpdateDecorator@@@@8
rdata$r	ENDS
;	COMDAT ??_R3CNullDecorator@NEffectUpdateDecorator@@8
rdata$r	SEGMENT
??_R3CNullDecorator@NEffectUpdateDecorator@@8 DD 00H	; NEffectUpdateDecorator::CNullDecorator::`RTTI Class Hierarchy Descriptor'
	DD	01H
	DD	03H
	DD	FLAT:??_R2CNullDecorator@NEffectUpdateDecorator@@8
rdata$r	ENDS
;	COMDAT ??_R0?AVCNullDecorator@NEffectUpdateDecorator@@@8
data$rs	SEGMENT
??_R0?AVCNullDecorator@NEffectUpdateDecorator@@@8 DD FLAT:??_7type_info@@6B@ ; NEffectUpdateDecorator::CNullDecorator `RTTI Type Descriptor'
	DD	00H
	DB	'.?AVCNullDecorator@NEffectUpdateDecorator@@', 00H
data$rs	ENDS
;	COMDAT ??_R4CNullDecorator@NEffectUpdateDecorator@@6BCBaseDecorator@1@@
rdata$r	SEGMENT
??_R4CNullDecorator@NEffectUpdateDecorator@@6BCBaseDecorator@1@@ DD 00H ; NEffectUpdateDecorator::CNullDecorator::`RTTI Complete Object Locator'
	DD	00H
	DD	00H
	DD	FLAT:??_R0?AVCNullDecorator@NEffectUpdateDecorator@@@8
	DD	FLAT:??_R3CNullDecorator@NEffectUpdateDecorator@@8
rdata$r	ENDS
;	COMDAT ??_R4?$CPooledObject@VCHeaderDecorator@NEffectUpdateDecorator@@@@6B@
rdata$r	SEGMENT
??_R4?$CPooledObject@VCHeaderDecorator@NEffectUpdateDecorator@@@@6B@ DD 00H ; CPooledObject<NEffectUpdateDecorator::CHeaderDecorator>::`RTTI Complete Object Locator'
	DD	00H
	DD	00H
	DD	FLAT:??_R0?AV?$CPooledObject@VCHeaderDecorator@NEffectUpdateDecorator@@@@@8
	DD	FLAT:??_R3?$CPooledObject@VCHeaderDecorator@NEffectUpdateDecorator@@@@8
rdata$r	ENDS
;	COMDAT ??_R4CHeaderDecorator@NEffectUpdateDecorator@@6B?$CPooledObject@VCHeaderDecorator@NEffectUpdateDecorator@@@@@
rdata$r	SEGMENT
??_R4CHeaderDecorator@NEffectUpdateDecorator@@6B?$CPooledObject@VCHeaderDecorator@NEffectUpdateDecorator@@@@@ DD 00H ; NEffectUpdateDecorator::CHeaderDecorator::`RTTI Complete Object Locator'
	DD	0cH
	DD	00H
	DD	FLAT:??_R0?AVCHeaderDecorator@NEffectUpdateDecorator@@@8
	DD	FLAT:??_R3CHeaderDecorator@NEffectUpdateDecorator@@8
rdata$r	ENDS
;	COMDAT ??_R1A@?0A@EA@?$CPooledObject@VCHeaderDecorator@NEffectUpdateDecorator@@@@8
rdata$r	SEGMENT
??_R1A@?0A@EA@?$CPooledObject@VCHeaderDecorator@NEffectUpdateDecorator@@@@8 DD FLAT:??_R0?AV?$CPooledObject@VCHeaderDecorator@NEffectUpdateDecorator@@@@@8 ; CPooledObject<NEffectUpdateDecorator::CHeaderDecorator>::`RTTI Base Class Descriptor at (0,-1,0,64)'
	DD	00H
	DD	00H
	DD	0ffffffffH
	DD	00H
	DD	040H
	DD	FLAT:??_R3?$CPooledObject@VCHeaderDecorator@NEffectUpdateDecorator@@@@8
rdata$r	ENDS
;	COMDAT ??_R2?$CPooledObject@VCHeaderDecorator@NEffectUpdateDecorator@@@@8
rdata$r	SEGMENT
??_R2?$CPooledObject@VCHeaderDecorator@NEffectUpdateDecorator@@@@8 DD FLAT:??_R1A@?0A@EA@?$CPooledObject@VCHeaderDecorator@NEffectUpdateDecorator@@@@8 ; CPooledObject<NEffectUpdateDecorator::CHeaderDecorator>::`RTTI Base Class Array'
rdata$r	ENDS
;	COMDAT ??_R3?$CPooledObject@VCHeaderDecorator@NEffectUpdateDecorator@@@@8
rdata$r	SEGMENT
??_R3?$CPooledObject@VCHeaderDecorator@NEffectUpdateDecorator@@@@8 DD 00H ; CPooledObject<NEffectUpdateDecorator::CHeaderDecorator>::`RTTI Class Hierarchy Descriptor'
	DD	00H
	DD	01H
	DD	FLAT:??_R2?$CPooledObject@VCHeaderDecorator@NEffectUpdateDecorator@@@@8
rdata$r	ENDS
;	COMDAT ??_R0?AV?$CPooledObject@VCHeaderDecorator@NEffectUpdateDecorator@@@@@8
data$rs	SEGMENT
??_R0?AV?$CPooledObject@VCHeaderDecorator@NEffectUpdateDecorator@@@@@8 DD FLAT:??_7type_info@@6B@ ; CPooledObject<NEffectUpdateDecorator::CHeaderDecorator> `RTTI Type Descriptor'
	DD	00H
	DB	'.?AV?$CPooledObject@VCHeaderDecorator@NEffectUpdateDecor'
	DB	'ator@@@@', 00H
data$rs	ENDS
;	COMDAT ??_R1M@?0A@EA@?$CPooledObject@VCHeaderDecorator@NEffectUpdateDecorator@@@@8
rdata$r	SEGMENT
??_R1M@?0A@EA@?$CPooledObject@VCHeaderDecorator@NEffectUpdateDecorator@@@@8 DD FLAT:??_R0?AV?$CPooledObject@VCHeaderDecorator@NEffectUpdateDecorator@@@@@8 ; CPooledObject<NEffectUpdateDecorator::CHeaderDecorator>::`RTTI Base Class Descriptor at (12,-1,0,64)'
	DD	00H
	DD	0cH
	DD	0ffffffffH
	DD	00H
	DD	040H
	DD	FLAT:??_R3?$CPooledObject@VCHeaderDecorator@NEffectUpdateDecorator@@@@8
rdata$r	ENDS
;	COMDAT ??_R1A@?0A@EA@CHeaderDecorator@NEffectUpdateDecorator@@8
rdata$r	SEGMENT
??_R1A@?0A@EA@CHeaderDecorator@NEffectUpdateDecorator@@8 DD FLAT:??_R0?AVCHeaderDecorator@NEffectUpdateDecorator@@@8 ; NEffectUpdateDecorator::CHeaderDecorator::`RTTI Base Class Descriptor at (0,-1,0,64)'
	DD	02H
	DD	00H
	DD	0ffffffffH
	DD	00H
	DD	040H
	DD	FLAT:??_R3CHeaderDecorator@NEffectUpdateDecorator@@8
rdata$r	ENDS
;	COMDAT ??_R2CHeaderDecorator@NEffectUpdateDecorator@@8
rdata$r	SEGMENT
??_R2CHeaderDecorator@NEffectUpdateDecorator@@8 DD FLAT:??_R1A@?0A@EA@CHeaderDecorator@NEffectUpdateDecorator@@8 ; NEffectUpdateDecorator::CHeaderDecorator::`RTTI Base Class Array'
	DD	FLAT:??_R1A@?0A@EA@CBaseDecorator@NEffectUpdateDecorator@@8
	DD	FLAT:??_R1M@?0A@EA@?$CPooledObject@VCHeaderDecorator@NEffectUpdateDecorator@@@@8
rdata$r	ENDS
;	COMDAT ??_R3CHeaderDecorator@NEffectUpdateDecorator@@8
rdata$r	SEGMENT
??_R3CHeaderDecorator@NEffectUpdateDecorator@@8 DD 00H	; NEffectUpdateDecorator::CHeaderDecorator::`RTTI Class Hierarchy Descriptor'
	DD	01H
	DD	03H
	DD	FLAT:??_R2CHeaderDecorator@NEffectUpdateDecorator@@8
rdata$r	ENDS
;	COMDAT ??_R0?AVCHeaderDecorator@NEffectUpdateDecorator@@@8
data$rs	SEGMENT
??_R0?AVCHeaderDecorator@NEffectUpdateDecorator@@@8 DD FLAT:??_7type_info@@6B@ ; NEffectUpdateDecorator::CHeaderDecorator `RTTI Type Descriptor'
	DD	00H
	DB	'.?AVCHeaderDecorator@NEffectUpdateDecorator@@', 00H
data$rs	ENDS
;	COMDAT ??_R4CHeaderDecorator@NEffectUpdateDecorator@@6BCBaseDecorator@1@@
rdata$r	SEGMENT
??_R4CHeaderDecorator@NEffectUpdateDecorator@@6BCBaseDecorator@1@@ DD 00H ; NEffectUpdateDecorator::CHeaderDecorator::`RTTI Complete Object Locator'
	DD	00H
	DD	00H
	DD	FLAT:??_R0?AVCHeaderDecorator@NEffectUpdateDecorator@@@8
	DD	FLAT:??_R3CHeaderDecorator@NEffectUpdateDecorator@@8
rdata$r	ENDS
;	COMDAT ??_R1A@?0A@EA@CBaseDecorator@NEffectUpdateDecorator@@8
rdata$r	SEGMENT
??_R1A@?0A@EA@CBaseDecorator@NEffectUpdateDecorator@@8 DD FLAT:??_R0?AVCBaseDecorator@NEffectUpdateDecorator@@@8 ; NEffectUpdateDecorator::CBaseDecorator::`RTTI Base Class Descriptor at (0,-1,0,64)'
	DD	00H
	DD	00H
	DD	0ffffffffH
	DD	00H
	DD	040H
	DD	FLAT:??_R3CBaseDecorator@NEffectUpdateDecorator@@8
rdata$r	ENDS
;	COMDAT ??_R2CBaseDecorator@NEffectUpdateDecorator@@8
rdata$r	SEGMENT
??_R2CBaseDecorator@NEffectUpdateDecorator@@8 DD FLAT:??_R1A@?0A@EA@CBaseDecorator@NEffectUpdateDecorator@@8 ; NEffectUpdateDecorator::CBaseDecorator::`RTTI Base Class Array'
rdata$r	ENDS
;	COMDAT ??_R3CBaseDecorator@NEffectUpdateDecorator@@8
rdata$r	SEGMENT
??_R3CBaseDecorator@NEffectUpdateDecorator@@8 DD 00H	; NEffectUpdateDecorator::CBaseDecorator::`RTTI Class Hierarchy Descriptor'
	DD	00H
	DD	01H
	DD	FLAT:??_R2CBaseDecorator@NEffectUpdateDecorator@@8
rdata$r	ENDS
;	COMDAT ??_R0?AVCBaseDecorator@NEffectUpdateDecorator@@@8
data$rs	SEGMENT
??_R0?AVCBaseDecorator@NEffectUpdateDecorator@@@8 DD FLAT:??_7type_info@@6B@ ; NEffectUpdateDecorator::CBaseDecorator `RTTI Type Descriptor'
	DD	00H
	DB	'.?AVCBaseDecorator@NEffectUpdateDecorator@@', 00H
data$rs	ENDS
;	COMDAT ??_R4CBaseDecorator@NEffectUpdateDecorator@@6B@
rdata$r	SEGMENT
??_R4CBaseDecorator@NEffectUpdateDecorator@@6B@ DD 00H	; NEffectUpdateDecorator::CBaseDecorator::`RTTI Complete Object Locator'
	DD	00H
	DD	00H
	DD	FLAT:??_R0?AVCBaseDecorator@NEffectUpdateDecorator@@@8
	DD	FLAT:??_R3CBaseDecorator@NEffectUpdateDecorator@@8
rdata$r	ENDS
;	COMDAT ??_R2CEffectElementBase@@8
rdata$r	SEGMENT
??_R2CEffectElementBase@@8 DD FLAT:??_R1A@?0A@EA@CEffectElementBase@@8 ; CEffectElementBase::`RTTI Base Class Array'
rdata$r	ENDS
;	COMDAT ??_R3CEffectElementBase@@8
rdata$r	SEGMENT
??_R3CEffectElementBase@@8 DD 00H			; CEffectElementBase::`RTTI Class Hierarchy Descriptor'
	DD	00H
	DD	01H
	DD	FLAT:??_R2CEffectElementBase@@8
rdata$r	ENDS
;	COMDAT ??_R0?AVCEffectElementBase@@@8
data$rs	SEGMENT
??_R0?AVCEffectElementBase@@@8 DD FLAT:??_7type_info@@6B@ ; CEffectElementBase `RTTI Type Descriptor'
	DD	00H
	DB	'.?AVCEffectElementBase@@', 00H
data$rs	ENDS
;	COMDAT ??_R1A@?0A@EA@CEffectElementBase@@8
rdata$r	SEGMENT
??_R1A@?0A@EA@CEffectElementBase@@8 DD FLAT:??_R0?AVCEffectElementBase@@@8 ; CEffectElementBase::`RTTI Base Class Descriptor at (0,-1,0,64)'
	DD	00H
	DD	00H
	DD	0ffffffffH
	DD	00H
	DD	040H
	DD	FLAT:??_R3CEffectElementBase@@8
rdata$r	ENDS
;	COMDAT ??_R1A@?0A@EA@CParticleSystemData@@8
rdata$r	SEGMENT
??_R1A@?0A@EA@CParticleSystemData@@8 DD FLAT:??_R0?AVCParticleSystemData@@@8 ; CParticleSystemData::`RTTI Base Class Descriptor at (0,-1,0,64)'
	DD	01H
	DD	00H
	DD	0ffffffffH
	DD	00H
	DD	040H
	DD	FLAT:??_R3CParticleSystemData@@8
rdata$r	ENDS
;	COMDAT ??_R2CParticleSystemData@@8
rdata$r	SEGMENT
??_R2CParticleSystemData@@8 DD FLAT:??_R1A@?0A@EA@CParticleSystemData@@8 ; CParticleSystemData::`RTTI Base Class Array'
	DD	FLAT:??_R1A@?0A@EA@CEffectElementBase@@8
rdata$r	ENDS
;	COMDAT ??_R3CParticleSystemData@@8
rdata$r	SEGMENT
??_R3CParticleSystemData@@8 DD 00H			; CParticleSystemData::`RTTI Class Hierarchy Descriptor'
	DD	00H
	DD	02H
	DD	FLAT:??_R2CParticleSystemData@@8
rdata$r	ENDS
;	COMDAT ??_R0?AVCParticleSystemData@@@8
data$rs	SEGMENT
??_R0?AVCParticleSystemData@@@8 DD FLAT:??_7type_info@@6B@ ; CParticleSystemData `RTTI Type Descriptor'
	DD	00H
	DB	'.?AVCParticleSystemData@@', 00H
data$rs	ENDS
;	COMDAT ??_R4CParticleSystemData@@6B@
rdata$r	SEGMENT
??_R4CParticleSystemData@@6B@ DD 00H			; CParticleSystemData::`RTTI Complete Object Locator'
	DD	00H
	DD	00H
	DD	FLAT:??_R0?AVCParticleSystemData@@@8
	DD	FLAT:??_R3CParticleSystemData@@8
rdata$r	ENDS
;	COMDAT ??_C@_0BA@FOIKENOD@vector?5too?5long@
CONST	SEGMENT
??_C@_0BA@FOIKENOD@vector?5too?5long@ DB 'vector too long', 00H ; `string'
CONST	ENDS
;	COMDAT ??_C@_0BJ@DHFDPMIM@invalid?5vector?5subscript@
CONST	SEGMENT
??_C@_0BJ@DHFDPMIM@invalid?5vector?5subscript@ DB 'invalid vector subscri'
	DB	'pt', 00H					; `string'
CONST	ENDS
;	COMDAT ??_7?$CTimeEventDecorator@UDWORDCOLOR@@@NEffectUpdateDecorator@@6B?$CPooledObject@V?$CTimeEventDecorator@UDWORDCOLOR@@@NEffectUpdateDecorator@@@@@
CONST	SEGMENT
??_7?$CTimeEventDecorator@UDWORDCOLOR@@@NEffectUpdateDecorator@@6B?$CPooledObject@V?$CTimeEventDecorator@UDWORDCOLOR@@@NEffectUpdateDecorator@@@@@ DD FLAT:??_R4?$CTimeEventDecorator@UDWORDCOLOR@@@NEffectUpdateDecorator@@6B?$CPooledObject@V?$CTimeEventDecorator@UDWORDCOLOR@@@NEffectUpdateDecorator@@@@@ ; NEffectUpdateDecorator::CTimeEventDecorator<DWORDCOLOR>::`vftable'
	DD	FLAT:??_E?$CTimeEventDecorator@UDWORDCOLOR@@@NEffectUpdateDecorator@@WM@AEPAXI@Z
CONST	ENDS
;	COMDAT ??_7?$CTimeEventDecorator@UDWORDCOLOR@@@NEffectUpdateDecorator@@6BCBaseDecorator@1@@
CONST	SEGMENT
??_7?$CTimeEventDecorator@UDWORDCOLOR@@@NEffectUpdateDecorator@@6BCBaseDecorator@1@@ DD FLAT:??_R4?$CTimeEventDecorator@UDWORDCOLOR@@@NEffectUpdateDecorator@@6BCBaseDecorator@1@@ ; NEffectUpdateDecorator::CTimeEventDecorator<DWORDCOLOR>::`vftable'
	DD	FLAT:??_E?$CTimeEventDecorator@UDWORDCOLOR@@@NEffectUpdateDecorator@@UAEPAXI@Z
	DD	FLAT:?__Excute@?$CTimeEventDecorator@UDWORDCOLOR@@@NEffectUpdateDecorator@@MAEXABVCDecoratorData@2@@Z
	DD	FLAT:?__Clone@?$CTimeEventDecorator@UDWORDCOLOR@@@NEffectUpdateDecorator@@MAEPAVCBaseDecorator@2@PAVCParticleInstance@@0@Z
CONST	ENDS
;	COMDAT ??_7?$CPooledObject@V?$CTimeEventDecorator@UDWORDCOLOR@@@NEffectUpdateDecorator@@@@6B@
CONST	SEGMENT
??_7?$CPooledObject@V?$CTimeEventDecorator@UDWORDCOLOR@@@NEffectUpdateDecorator@@@@6B@ DD FLAT:??_R4?$CPooledObject@V?$CTimeEventDecorator@UDWORDCOLOR@@@NEffectUpdateDecorator@@@@6B@ ; CPooledObject<NEffectUpdateDecorator::CTimeEventDecorator<DWORDCOLOR> >::`vftable'
	DD	FLAT:??_E?$CPooledObject@V?$CTimeEventDecorator@UDWORDCOLOR@@@NEffectUpdateDecorator@@@@UAEPAXI@Z
CONST	ENDS
;	COMDAT ?ms_kPool@?$CPooledObject@V?$CTimeEventDecorator@UDWORDCOLOR@@@NEffectUpdateDecorator@@@@1V?$CDynamicPoolEx@V?$CTimeEventDecorator@UDWORDCOLOR@@@NEffectUpdateDecorator@@@@A
_DATA	SEGMENT
?ms_kPool@?$CPooledObject@V?$CTimeEventDecorator@UDWORDCOLOR@@@NEffectUpdateDecorator@@@@1V?$CDynamicPoolEx@V?$CTimeEventDecorator@UDWORDCOLOR@@@NEffectUpdateDecorator@@@@A DD FLAT:??_7?$CDynamicPoolEx@V?$CTimeEventDecorator@UDWORDCOLOR@@@NEffectUpdateDecorator@@@@6B@ ; CPooledObject<NEffectUpdateDecorator::CTimeEventDecorator<DWORDCOLOR> >::ms_kPool
	DD	00H
	DD	00H
	DD	00H
	DD	00H
	DD	00H
	DD	00H
	DD	00H
	DD	00H
_DATA	ENDS
;	COMDAT ??_7?$CTimeEventDecorator@M@NEffectUpdateDecorator@@6B?$CPooledObject@V?$CTimeEventDecorator@M@NEffectUpdateDecorator@@@@@
CONST	SEGMENT
??_7?$CTimeEventDecorator@M@NEffectUpdateDecorator@@6B?$CPooledObject@V?$CTimeEventDecorator@M@NEffectUpdateDecorator@@@@@ DD FLAT:??_R4?$CTimeEventDecorator@M@NEffectUpdateDecorator@@6B?$CPooledObject@V?$CTimeEventDecorator@M@NEffectUpdateDecorator@@@@@ ; NEffectUpdateDecorator::CTimeEventDecorator<float>::`vftable'
	DD	FLAT:??_E?$CTimeEventDecorator@M@NEffectUpdateDecorator@@WM@AEPAXI@Z
CONST	ENDS
;	COMDAT ??_7?$CTimeEventDecorator@M@NEffectUpdateDecorator@@6BCBaseDecorator@1@@
CONST	SEGMENT
??_7?$CTimeEventDecorator@M@NEffectUpdateDecorator@@6BCBaseDecorator@1@@ DD FLAT:??_R4?$CTimeEventDecorator@M@NEffectUpdateDecorator@@6BCBaseDecorator@1@@ ; NEffectUpdateDecorator::CTimeEventDecorator<float>::`vftable'
	DD	FLAT:??_E?$CTimeEventDecorator@M@NEffectUpdateDecorator@@UAEPAXI@Z
	DD	FLAT:?__Excute@?$CTimeEventDecorator@M@NEffectUpdateDecorator@@MAEXABVCDecoratorData@2@@Z
	DD	FLAT:?__Clone@?$CTimeEventDecorator@M@NEffectUpdateDecorator@@MAEPAVCBaseDecorator@2@PAVCParticleInstance@@0@Z
CONST	ENDS
;	COMDAT ??_7?$CPooledObject@V?$CTimeEventDecorator@M@NEffectUpdateDecorator@@@@6B@
CONST	SEGMENT
??_7?$CPooledObject@V?$CTimeEventDecorator@M@NEffectUpdateDecorator@@@@6B@ DD FLAT:??_R4?$CPooledObject@V?$CTimeEventDecorator@M@NEffectUpdateDecorator@@@@6B@ ; CPooledObject<NEffectUpdateDecorator::CTimeEventDecorator<float> >::`vftable'
	DD	FLAT:??_E?$CPooledObject@V?$CTimeEventDecorator@M@NEffectUpdateDecorator@@@@UAEPAXI@Z
CONST	ENDS
;	COMDAT ?ms_kPool@?$CPooledObject@V?$CTimeEventDecorator@M@NEffectUpdateDecorator@@@@1V?$CDynamicPoolEx@V?$CTimeEventDecorator@M@NEffectUpdateDecorator@@@@A
_DATA	SEGMENT
?ms_kPool@?$CPooledObject@V?$CTimeEventDecorator@M@NEffectUpdateDecorator@@@@1V?$CDynamicPoolEx@V?$CTimeEventDecorator@M@NEffectUpdateDecorator@@@@A DD FLAT:??_7?$CDynamicPoolEx@V?$CTimeEventDecorator@M@NEffectUpdateDecorator@@@@6B@ ; CPooledObject<NEffectUpdateDecorator::CTimeEventDecorator<float> >::ms_kPool
	DD	00H
	DD	00H
	DD	00H
	DD	00H
	DD	00H
	DD	00H
	DD	00H
	DD	00H
_DATA	ENDS
;	COMDAT ??_C@_0N@HNMKMDCI@texturefiles@
CONST	SEGMENT
??_C@_0N@HNMKMDCI@texturefiles@ DB 'texturefiles', 00H	; `string'
CONST	ENDS
;	COMDAT ??_C@_0BC@KIMDBAHB@timeeventrotation@
CONST	SEGMENT
??_C@_0BC@KIMDBAHB@timeeventrotation@ DB 'timeeventrotation', 00H ; `string'
CONST	ENDS
;	COMDAT ??_C@_0P@KALIPJCI@timeeventalpha@
CONST	SEGMENT
??_C@_0P@KALIPJCI@timeeventalpha@ DB 'timeeventalpha', 00H ; `string'
CONST	ENDS
;	COMDAT ??_C@_0BD@KLGCJHDO@timeeventcolorblue@
CONST	SEGMENT
??_C@_0BD@KLGCJHDO@timeeventcolorblue@ DB 'timeeventcolorblue', 00H ; `string'
CONST	ENDS
;	COMDAT ??_C@_0BE@OFLANGNK@timeeventcolorgreen@
CONST	SEGMENT
??_C@_0BE@OFLANGNK@timeeventcolorgreen@ DB 'timeeventcolorgreen', 00H ; `string'
CONST	ENDS
;	COMDAT ??_C@_0BC@ICGDLNPI@timeeventcolorred@
CONST	SEGMENT
??_C@_0BC@ICGDLNPI@timeeventcolorred@ DB 'timeeventcolorred', 00H ; `string'
CONST	ENDS
;	COMDAT ??_C@_0BA@BPBEGMDH@timeeventscaley@
CONST	SEGMENT
??_C@_0BA@BPBEGMDH@timeeventscaley@ DB 'timeeventscaley', 00H ; `string'
CONST	ENDS
;	COMDAT ??_C@_0BA@GAPFNHG@timeeventscalex@
CONST	SEGMENT
??_C@_0BA@GAPFNHG@timeeventscalex@ DB 'timeeventscalex', 00H ; `string'
CONST	ENDS
;	COMDAT ??_C@_0BH@IPGEOMGJ@timeeventairresistance@
CONST	SEGMENT
??_C@_0BH@IPGEOMGJ@timeeventairresistance@ DB 'timeeventairresistance', 00H ; `string'
CONST	ENDS
;	COMDAT ??_C@_0O@IJAIPGAL@airresistance@
CONST	SEGMENT
??_C@_0O@IJAIPGAL@airresistance@ DB 'airresistance', 00H ; `string'
CONST	ENDS
;	COMDAT ??_C@_0BB@BHFJHILP@timeeventgravity@
CONST	SEGMENT
??_C@_0BB@BHFJHILP@timeeventgravity@ DB 'timeeventgravity', 00H ; `string'
CONST	ENDS
;	COMDAT ??_C@_07GFBFDLBM@gravity@
CONST	SEGMENT
??_C@_07GFBFDLBM@gravity@ DB 'gravity', 00H		; `string'
CONST	ENDS
;	COMDAT ??_C@_0BN@DIHGKMNJ@texanirandomstartframeenable@
CONST	SEGMENT
??_C@_0BN@DIHGKMNJ@texanirandomstartframeenable@ DB 'texanirandomstartfra'
	DB	'meenable', 00H				; `string'
CONST	ENDS
;	COMDAT ??_C@_0M@PDIDMMDH@texanidelay@
CONST	SEGMENT
??_C@_0M@PDIDMMDH@texanidelay@ DB 'texanidelay', 00H	; `string'
CONST	ENDS
;	COMDAT ??_C@_0L@BIBLFGDP@texanitype@
CONST	SEGMENT
??_C@_0L@BIBLFGDP@texanitype@ DB 'texanitype', 00H	; `string'
CONST	ENDS
;	COMDAT ??_C@_0O@DFPNMBJD@stretchenable@
CONST	SEGMENT
??_C@_0O@DFPNMBJD@stretchenable@ DB 'stretchenable', 00H ; `string'
CONST	ENDS
;	COMDAT ??_C@_0N@JFNGIJMG@attachenable@
CONST	SEGMENT
??_C@_0N@JFNGIJMG@attachenable@ DB 'attachenable', 00H	; `string'
CONST	ENDS
;	COMDAT ??_C@_0BK@DKMEPDJP@rotationrandomstartingend@
CONST	SEGMENT
??_C@_0BK@DKMEPDJP@rotationrandomstartingend@ DB 'rotationrandomstartinge'
	DB	'nd', 00H					; `string'
CONST	ENDS
;	COMDAT ??_C@_0BM@BGHFBHHG@rotationrandomstartingbegin@
CONST	SEGMENT
??_C@_0BM@BGHFBHHG@rotationrandomstartingbegin@ DB 'rotationrandomstartin'
	DB	'gbegin', 00H				; `string'
CONST	ENDS
;	COMDAT ??_C@_0O@FAOBKFID@rotationspeed@
CONST	SEGMENT
??_C@_0O@FAOBKFID@rotationspeed@ DB 'rotationspeed', 00H ; `string'
CONST	ENDS
;	COMDAT ??_C@_0N@HLMOOIDA@rotationtype@
CONST	SEGMENT
??_C@_0N@HLMOOIDA@rotationtype@ DB 'rotationtype', 00H	; `string'
CONST	ENDS
;	COMDAT ??_C@_0O@EJACNAIE@billboardtype@
CONST	SEGMENT
??_C@_0O@EJACNAIE@billboardtype@ DB 'billboardtype', 00H ; `string'
CONST	ENDS
;	COMDAT ??_C@_0BD@DAMHAFBJ@coloroperationtype@
CONST	SEGMENT
??_C@_0BD@DAMHAFBJ@coloroperationtype@ DB 'coloroperationtype', 00H ; `string'
CONST	ENDS
;	COMDAT ??_C@_0O@FMHKLBEP@destblendtype@
CONST	SEGMENT
??_C@_0O@FMHKLBEP@destblendtype@ DB 'destblendtype', 00H ; `string'
CONST	ENDS
;	COMDAT ??_C@_0N@BPEOGKBI@srcblendtype@
CONST	SEGMENT
??_C@_0N@BPEOGKBI@srcblendtype@ DB 'srcblendtype', 00H	; `string'
CONST	ENDS
;	COMDAT ??_C@_0BB@HGNFNICN@particleproperty@
CONST	SEGMENT
??_C@_0BB@HGNFNICN@particleproperty@ DB 'particleproperty', 00H ; `string'
CONST	ENDS
;	COMDAT ??_C@_0P@MDDIDOKG@timeeventsizey@
CONST	SEGMENT
??_C@_0P@MDDIDOKG@timeeventsizey@ DB 'timeeventsizey', 00H ; `string'
CONST	ENDS
;	COMDAT ??_C@_0P@NKCDAPOH@timeeventsizex@
CONST	SEGMENT
??_C@_0P@NKCDAPOH@timeeventsizex@ DB 'timeeventsizex', 00H ; `string'
CONST	ENDS
;	COMDAT ??_C@_0BC@IBAOECEB@timeeventlifetime@
CONST	SEGMENT
??_C@_0BC@IBAOECEB@timeeventlifetime@ DB 'timeeventlifetime', 00H ; `string'
CONST	ENDS
;	COMDAT ??_C@_0CA@KBEMNMAO@timeeventemissioncountpersecond@
CONST	SEGMENT
??_C@_0CA@KBEMNMAO@timeeventemissioncountpersecond@ DB 'timeeventemission'
	DB	'countpersecond', 00H			; `string'
CONST	ENDS
;	COMDAT ??_C@_0BK@JMDFAGCJ@timeeventemittingvelocity@
CONST	SEGMENT
??_C@_0BK@JMDFAGCJ@timeeventemittingvelocity@ DB 'timeeventemittingveloci'
	DB	'ty', 00H					; `string'
CONST	ENDS
;	COMDAT ??_C@_0BM@HBJCIDCH@timeeventemittingdirectionz@
CONST	SEGMENT
??_C@_0BM@HBJCIDCH@timeeventemittingdirectionz@ DB 'timeeventemittingdire'
	DB	'ctionz', 00H				; `string'
CONST	ENDS
;	COMDAT ??_C@_0BM@FKLPNAOE@timeeventemittingdirectiony@
CONST	SEGMENT
??_C@_0BM@FKLPNAOE@timeeventemittingdirectiony@ DB 'timeeventemittingdire'
	DB	'ctiony', 00H				; `string'
CONST	ENDS
;	COMDAT ??_C@_0BM@EDKEOBKF@timeeventemittingdirectionx@
CONST	SEGMENT
??_C@_0BM@EDKEOBKF@timeeventemittingdirectionx@ DB 'timeeventemittingdire'
	DB	'ctionx', 00H				; `string'
CONST	ENDS
;	COMDAT ??_C@_0CB@BEJHCOPI@timeeventemittingangularvelocit@
CONST	SEGMENT
??_C@_0CB@BEJHCOPI@timeeventemittingangularvelocit@ DB 'timeeventemitting'
	DB	'angularvelocity', 00H			; `string'
CONST	ENDS
;	COMDAT ??_C@_0BG@EOBNDMCN@timeeventemittingsize@
CONST	SEGMENT
??_C@_0BG@EOBNDMCN@timeeventemittingsize@ DB 'timeeventemittingsize', 00H ; `string'
CONST	ENDS
;	COMDAT ??_C@_0BC@DDGDKONG@emittingdirection@
CONST	SEGMENT
??_C@_0BC@DDGDKONG@emittingdirection@ DB 'emittingdirection', 00H ; `string'
CONST	ENDS
;	COMDAT ??_C@_0BI@JPHOPPGG@emitteremitfromedgeflag@
CONST	SEGMENT
??_C@_0BI@JPHOPPGG@emitteremitfromedgeflag@ DB 'emitteremitfromedgeflag', 00H ; `string'
CONST	ENDS
;	COMDAT ??_C@_0P@CFPFJLBH@emittingradius@
CONST	SEGMENT
??_C@_0P@CFPFJLBH@emittingradius@ DB 'emittingradius', 00H ; `string'
CONST	ENDS
;	COMDAT ??_C@_0N@JELCEBGI@emittingsize@
CONST	SEGMENT
??_C@_0N@JELCEBGI@emittingsize@ DB 'emittingsize', 00H	; `string'
CONST	ENDS
;	COMDAT ??_C@_0BE@NHCLCKPF@emitteradvancedtype@
CONST	SEGMENT
??_C@_0BE@NHCLCKPF@emitteradvancedtype@ DB 'emitteradvancedtype', 00H ; `string'
CONST	ENDS
;	COMDAT ??_C@_0N@CEDHOJLK@emittershape@
CONST	SEGMENT
??_C@_0N@CEDHOJLK@emittershape@ DB 'emittershape', 00H	; `string'
CONST	ENDS
;	COMDAT ??_C@_09HBCOMICA@loopcount@
CONST	SEGMENT
??_C@_09HBCOMICA@loopcount@ DB 'loopcount', 00H		; `string'
CONST	ENDS
;	COMDAT ??_C@_0BA@HFAFNHAP@cycleloopenable@
CONST	SEGMENT
??_C@_0BA@HFAFNHAP@cycleloopenable@ DB 'cycleloopenable', 00H ; `string'
CONST	ENDS
;	COMDAT ??_C@_0M@CMAFBHMP@cyclelength@
CONST	SEGMENT
??_C@_0M@CMAFBHMP@cyclelength@ DB 'cyclelength', 00H	; `string'
CONST	ENDS
;	COMDAT ??_C@_0BB@GFCINCLJ@maxemissioncount@
CONST	SEGMENT
??_C@_0BB@GFCINCLJ@maxemissioncount@ DB 'maxemissioncount', 00H ; `string'
CONST	ENDS
;	COMDAT ??_C@_0BA@BHDCJGBH@emitterproperty@
CONST	SEGMENT
??_C@_0BA@BHDCJGBH@emitterproperty@ DB 'emitterproperty', 00H ; `string'
CONST	ENDS
;	COMDAT ??_7CRotationDecorator@NEffectUpdateDecorator@@6B?$CPooledObject@VCRotationDecorator@NEffectUpdateDecorator@@@@@
CONST	SEGMENT
??_7CRotationDecorator@NEffectUpdateDecorator@@6B?$CPooledObject@VCRotationDecorator@NEffectUpdateDecorator@@@@@ DD FLAT:??_R4CRotationDecorator@NEffectUpdateDecorator@@6B?$CPooledObject@VCRotationDecorator@NEffectUpdateDecorator@@@@@ ; NEffectUpdateDecorator::CRotationDecorator::`vftable'
	DD	FLAT:??_ECRotationDecorator@NEffectUpdateDecorator@@WM@AEPAXI@Z
CONST	ENDS
;	COMDAT ??_7CRotationDecorator@NEffectUpdateDecorator@@6BCBaseDecorator@1@@
CONST	SEGMENT
??_7CRotationDecorator@NEffectUpdateDecorator@@6BCBaseDecorator@1@@ DD FLAT:??_R4CRotationDecorator@NEffectUpdateDecorator@@6BCBaseDecorator@1@@ ; NEffectUpdateDecorator::CRotationDecorator::`vftable'
	DD	FLAT:??_ECRotationDecorator@NEffectUpdateDecorator@@UAEPAXI@Z
	DD	FLAT:?__Excute@CRotationDecorator@NEffectUpdateDecorator@@MAEXABVCDecoratorData@2@@Z
	DD	FLAT:?__Clone@CRotationDecorator@NEffectUpdateDecorator@@MAEPAVCBaseDecorator@2@PAVCParticleInstance@@0@Z
CONST	ENDS
;	COMDAT ??_7?$CPooledObject@VCRotationDecorator@NEffectUpdateDecorator@@@@6B@
CONST	SEGMENT
??_7?$CPooledObject@VCRotationDecorator@NEffectUpdateDecorator@@@@6B@ DD FLAT:??_R4?$CPooledObject@VCRotationDecorator@NEffectUpdateDecorator@@@@6B@ ; CPooledObject<NEffectUpdateDecorator::CRotationDecorator>::`vftable'
	DD	FLAT:??_E?$CPooledObject@VCRotationDecorator@NEffectUpdateDecorator@@@@UAEPAXI@Z
CONST	ENDS
;	COMDAT ?ms_kPool@?$CPooledObject@VCRotationDecorator@NEffectUpdateDecorator@@@@1V?$CDynamicPoolEx@VCRotationDecorator@NEffectUpdateDecorator@@@@A
_DATA	SEGMENT
?ms_kPool@?$CPooledObject@VCRotationDecorator@NEffectUpdateDecorator@@@@1V?$CDynamicPoolEx@VCRotationDecorator@NEffectUpdateDecorator@@@@A DD FLAT:??_7?$CDynamicPoolEx@VCRotationDecorator@NEffectUpdateDecorator@@@@6B@ ; CPooledObject<NEffectUpdateDecorator::CRotationDecorator>::ms_kPool
	DD	00H
	DD	00H
	DD	00H
	DD	00H
	DD	00H
	DD	00H
	DD	00H
	DD	00H
_DATA	ENDS
;	COMDAT ??_7CGravityDecorator@NEffectUpdateDecorator@@6B?$CPooledObject@VCGravityDecorator@NEffectUpdateDecorator@@@@@
CONST	SEGMENT
??_7CGravityDecorator@NEffectUpdateDecorator@@6B?$CPooledObject@VCGravityDecorator@NEffectUpdateDecorator@@@@@ DD FLAT:??_R4CGravityDecorator@NEffectUpdateDecorator@@6B?$CPooledObject@VCGravityDecorator@NEffectUpdateDecorator@@@@@ ; NEffectUpdateDecorator::CGravityDecorator::`vftable'
	DD	FLAT:??_ECGravityDecorator@NEffectUpdateDecorator@@WM@AEPAXI@Z
CONST	ENDS
;	COMDAT ??_7CGravityDecorator@NEffectUpdateDecorator@@6BCBaseDecorator@1@@
CONST	SEGMENT
??_7CGravityDecorator@NEffectUpdateDecorator@@6BCBaseDecorator@1@@ DD FLAT:??_R4CGravityDecorator@NEffectUpdateDecorator@@6BCBaseDecorator@1@@ ; NEffectUpdateDecorator::CGravityDecorator::`vftable'
	DD	FLAT:??_ECGravityDecorator@NEffectUpdateDecorator@@UAEPAXI@Z
	DD	FLAT:?__Excute@CGravityDecorator@NEffectUpdateDecorator@@MAEXABVCDecoratorData@2@@Z
	DD	FLAT:?__Clone@CGravityDecorator@NEffectUpdateDecorator@@MAEPAVCBaseDecorator@2@PAVCParticleInstance@@0@Z
CONST	ENDS
;	COMDAT ??_7?$CPooledObject@VCGravityDecorator@NEffectUpdateDecorator@@@@6B@
CONST	SEGMENT
??_7?$CPooledObject@VCGravityDecorator@NEffectUpdateDecorator@@@@6B@ DD FLAT:??_R4?$CPooledObject@VCGravityDecorator@NEffectUpdateDecorator@@@@6B@ ; CPooledObject<NEffectUpdateDecorator::CGravityDecorator>::`vftable'
	DD	FLAT:??_E?$CPooledObject@VCGravityDecorator@NEffectUpdateDecorator@@@@UAEPAXI@Z
CONST	ENDS
;	COMDAT ?ms_kPool@?$CPooledObject@VCGravityDecorator@NEffectUpdateDecorator@@@@1V?$CDynamicPoolEx@VCGravityDecorator@NEffectUpdateDecorator@@@@A
_DATA	SEGMENT
?ms_kPool@?$CPooledObject@VCGravityDecorator@NEffectUpdateDecorator@@@@1V?$CDynamicPoolEx@VCGravityDecorator@NEffectUpdateDecorator@@@@A DD FLAT:??_7?$CDynamicPoolEx@VCGravityDecorator@NEffectUpdateDecorator@@@@6B@ ; CPooledObject<NEffectUpdateDecorator::CGravityDecorator>::ms_kPool
	DD	00H
	DD	00H
	DD	00H
	DD	00H
	DD	00H
	DD	00H
	DD	00H
	DD	00H
_DATA	ENDS
;	COMDAT ??_7CAirResistanceDecorator@NEffectUpdateDecorator@@6B?$CPooledObject@VCAirResistanceDecorator@NEffectUpdateDecorator@@@@@
CONST	SEGMENT
??_7CAirResistanceDecorator@NEffectUpdateDecorator@@6B?$CPooledObject@VCAirResistanceDecorator@NEffectUpdateDecorator@@@@@ DD FLAT:??_R4CAirResistanceDecorator@NEffectUpdateDecorator@@6B?$CPooledObject@VCAirResistanceDecorator@NEffectUpdateDecorator@@@@@ ; NEffectUpdateDecorator::CAirResistanceDecorator::`vftable'
	DD	FLAT:??_ECAirResistanceDecorator@NEffectUpdateDecorator@@WM@AEPAXI@Z
CONST	ENDS
;	COMDAT ??_7CAirResistanceDecorator@NEffectUpdateDecorator@@6BCBaseDecorator@1@@
CONST	SEGMENT
??_7CAirResistanceDecorator@NEffectUpdateDecorator@@6BCBaseDecorator@1@@ DD FLAT:??_R4CAirResistanceDecorator@NEffectUpdateDecorator@@6BCBaseDecorator@1@@ ; NEffectUpdateDecorator::CAirResistanceDecorator::`vftable'
	DD	FLAT:??_ECAirResistanceDecorator@NEffectUpdateDecorator@@UAEPAXI@Z
	DD	FLAT:?__Excute@CAirResistanceDecorator@NEffectUpdateDecorator@@MAEXABVCDecoratorData@2@@Z
	DD	FLAT:?__Clone@CAirResistanceDecorator@NEffectUpdateDecorator@@MAEPAVCBaseDecorator@2@PAVCParticleInstance@@0@Z
CONST	ENDS
;	COMDAT ??_7?$CPooledObject@VCAirResistanceDecorator@NEffectUpdateDecorator@@@@6B@
CONST	SEGMENT
??_7?$CPooledObject@VCAirResistanceDecorator@NEffectUpdateDecorator@@@@6B@ DD FLAT:??_R4?$CPooledObject@VCAirResistanceDecorator@NEffectUpdateDecorator@@@@6B@ ; CPooledObject<NEffectUpdateDecorator::CAirResistanceDecorator>::`vftable'
	DD	FLAT:??_E?$CPooledObject@VCAirResistanceDecorator@NEffectUpdateDecorator@@@@UAEPAXI@Z
CONST	ENDS
;	COMDAT ?ms_kPool@?$CPooledObject@VCAirResistanceDecorator@NEffectUpdateDecorator@@@@1V?$CDynamicPoolEx@VCAirResistanceDecorator@NEffectUpdateDecorator@@@@A
_DATA	SEGMENT
?ms_kPool@?$CPooledObject@VCAirResistanceDecorator@NEffectUpdateDecorator@@@@1V?$CDynamicPoolEx@VCAirResistanceDecorator@NEffectUpdateDecorator@@@@A DD FLAT:??_7?$CDynamicPoolEx@VCAirResistanceDecorator@NEffectUpdateDecorator@@@@6B@ ; CPooledObject<NEffectUpdateDecorator::CAirResistanceDecorator>::ms_kPool
	DD	00H
	DD	00H
	DD	00H
	DD	00H
	DD	00H
	DD	00H
	DD	00H
	DD	00H
_DATA	ENDS
;	COMDAT ??_7CTextureAnimationRandomDecorator@NEffectUpdateDecorator@@6B?$CPooledObject@VCTextureAnimationRandomDecorator@NEffectUpdateDecorator@@@@@
CONST	SEGMENT
??_7CTextureAnimationRandomDecorator@NEffectUpdateDecorator@@6B?$CPooledObject@VCTextureAnimationRandomDecorator@NEffectUpdateDecorator@@@@@ DD FLAT:??_R4CTextureAnimationRandomDecorator@NEffectUpdateDecorator@@6B?$CPooledObject@VCTextureAnimationRandomDecorator@NEffectUpdateDecorator@@@@@ ; NEffectUpdateDecorator::CTextureAnimationRandomDecorator::`vftable'
	DD	FLAT:??_ECTextureAnimationRandomDecorator@NEffectUpdateDecorator@@WM@AEPAXI@Z
CONST	ENDS
;	COMDAT ??_7CTextureAnimationRandomDecorator@NEffectUpdateDecorator@@6BCBaseDecorator@1@@
CONST	SEGMENT
??_7CTextureAnimationRandomDecorator@NEffectUpdateDecorator@@6BCBaseDecorator@1@@ DD FLAT:??_R4CTextureAnimationRandomDecorator@NEffectUpdateDecorator@@6BCBaseDecorator@1@@ ; NEffectUpdateDecorator::CTextureAnimationRandomDecorator::`vftable'
	DD	FLAT:??_ECTextureAnimationRandomDecorator@NEffectUpdateDecorator@@UAEPAXI@Z
	DD	FLAT:?__Excute@CTextureAnimationRandomDecorator@NEffectUpdateDecorator@@MAEXABVCDecoratorData@2@@Z
	DD	FLAT:?__Clone@CTextureAnimationRandomDecorator@NEffectUpdateDecorator@@MAEPAVCBaseDecorator@2@PAVCParticleInstance@@0@Z
CONST	ENDS
;	COMDAT ??_7?$CPooledObject@VCTextureAnimationRandomDecorator@NEffectUpdateDecorator@@@@6B@
CONST	SEGMENT
??_7?$CPooledObject@VCTextureAnimationRandomDecorator@NEffectUpdateDecorator@@@@6B@ DD FLAT:??_R4?$CPooledObject@VCTextureAnimationRandomDecorator@NEffectUpdateDecorator@@@@6B@ ; CPooledObject<NEffectUpdateDecorator::CTextureAnimationRandomDecorator>::`vftable'
	DD	FLAT:??_E?$CPooledObject@VCTextureAnimationRandomDecorator@NEffectUpdateDecorator@@@@UAEPAXI@Z
CONST	ENDS
;	COMDAT ?ms_kPool@?$CPooledObject@VCTextureAnimationRandomDecorator@NEffectUpdateDecorator@@@@1V?$CDynamicPoolEx@VCTextureAnimationRandomDecorator@NEffectUpdateDecorator@@@@A
_DATA	SEGMENT
?ms_kPool@?$CPooledObject@VCTextureAnimationRandomDecorator@NEffectUpdateDecorator@@@@1V?$CDynamicPoolEx@VCTextureAnimationRandomDecorator@NEffectUpdateDecorator@@@@A DD FLAT:??_7?$CDynamicPoolEx@VCTextureAnimationRandomDecorator@NEffectUpdateDecorator@@@@6B@ ; CPooledObject<NEffectUpdateDecorator::CTextureAnimationRandomDecorator>::ms_kPool
	DD	00H
	DD	00H
	DD	00H
	DD	00H
	DD	00H
	DD	00H
	DD	00H
	DD	00H
_DATA	ENDS
;	COMDAT ??_7CTextureAnimationCCWDecorator@NEffectUpdateDecorator@@6B?$CPooledObject@VCTextureAnimationCCWDecorator@NEffectUpdateDecorator@@@@@
CONST	SEGMENT
??_7CTextureAnimationCCWDecorator@NEffectUpdateDecorator@@6B?$CPooledObject@VCTextureAnimationCCWDecorator@NEffectUpdateDecorator@@@@@ DD FLAT:??_R4CTextureAnimationCCWDecorator@NEffectUpdateDecorator@@6B?$CPooledObject@VCTextureAnimationCCWDecorator@NEffectUpdateDecorator@@@@@ ; NEffectUpdateDecorator::CTextureAnimationCCWDecorator::`vftable'
	DD	FLAT:??_ECTextureAnimationCCWDecorator@NEffectUpdateDecorator@@WM@AEPAXI@Z
CONST	ENDS
;	COMDAT ??_7CTextureAnimationCCWDecorator@NEffectUpdateDecorator@@6BCBaseDecorator@1@@
CONST	SEGMENT
??_7CTextureAnimationCCWDecorator@NEffectUpdateDecorator@@6BCBaseDecorator@1@@ DD FLAT:??_R4CTextureAnimationCCWDecorator@NEffectUpdateDecorator@@6BCBaseDecorator@1@@ ; NEffectUpdateDecorator::CTextureAnimationCCWDecorator::`vftable'
	DD	FLAT:??_ECTextureAnimationCCWDecorator@NEffectUpdateDecorator@@UAEPAXI@Z
	DD	FLAT:?__Excute@CTextureAnimationCCWDecorator@NEffectUpdateDecorator@@MAEXABVCDecoratorData@2@@Z
	DD	FLAT:?__Clone@CTextureAnimationCCWDecorator@NEffectUpdateDecorator@@MAEPAVCBaseDecorator@2@PAVCParticleInstance@@0@Z
CONST	ENDS
;	COMDAT ??_7?$CPooledObject@VCTextureAnimationCCWDecorator@NEffectUpdateDecorator@@@@6B@
CONST	SEGMENT
??_7?$CPooledObject@VCTextureAnimationCCWDecorator@NEffectUpdateDecorator@@@@6B@ DD FLAT:??_R4?$CPooledObject@VCTextureAnimationCCWDecorator@NEffectUpdateDecorator@@@@6B@ ; CPooledObject<NEffectUpdateDecorator::CTextureAnimationCCWDecorator>::`vftable'
	DD	FLAT:??_E?$CPooledObject@VCTextureAnimationCCWDecorator@NEffectUpdateDecorator@@@@UAEPAXI@Z
CONST	ENDS
;	COMDAT ?ms_kPool@?$CPooledObject@VCTextureAnimationCCWDecorator@NEffectUpdateDecorator@@@@1V?$CDynamicPoolEx@VCTextureAnimationCCWDecorator@NEffectUpdateDecorator@@@@A
_DATA	SEGMENT
?ms_kPool@?$CPooledObject@VCTextureAnimationCCWDecorator@NEffectUpdateDecorator@@@@1V?$CDynamicPoolEx@VCTextureAnimationCCWDecorator@NEffectUpdateDecorator@@@@A DD FLAT:??_7?$CDynamicPoolEx@VCTextureAnimationCCWDecorator@NEffectUpdateDecorator@@@@6B@ ; CPooledObject<NEffectUpdateDecorator::CTextureAnimationCCWDecorator>::ms_kPool
	DD	00H
	DD	00H
	DD	00H
	DD	00H
	DD	00H
	DD	00H
	DD	00H
	DD	00H
_DATA	ENDS
;	COMDAT ??_7CTextureAnimationCWDecorator@NEffectUpdateDecorator@@6B?$CPooledObject@VCTextureAnimationCWDecorator@NEffectUpdateDecorator@@@@@
CONST	SEGMENT
??_7CTextureAnimationCWDecorator@NEffectUpdateDecorator@@6B?$CPooledObject@VCTextureAnimationCWDecorator@NEffectUpdateDecorator@@@@@ DD FLAT:??_R4CTextureAnimationCWDecorator@NEffectUpdateDecorator@@6B?$CPooledObject@VCTextureAnimationCWDecorator@NEffectUpdateDecorator@@@@@ ; NEffectUpdateDecorator::CTextureAnimationCWDecorator::`vftable'
	DD	FLAT:??_ECTextureAnimationCWDecorator@NEffectUpdateDecorator@@WM@AEPAXI@Z
CONST	ENDS
;	COMDAT ??_7CTextureAnimationCWDecorator@NEffectUpdateDecorator@@6BCBaseDecorator@1@@
CONST	SEGMENT
??_7CTextureAnimationCWDecorator@NEffectUpdateDecorator@@6BCBaseDecorator@1@@ DD FLAT:??_R4CTextureAnimationCWDecorator@NEffectUpdateDecorator@@6BCBaseDecorator@1@@ ; NEffectUpdateDecorator::CTextureAnimationCWDecorator::`vftable'
	DD	FLAT:??_ECTextureAnimationCWDecorator@NEffectUpdateDecorator@@UAEPAXI@Z
	DD	FLAT:?__Excute@CTextureAnimationCWDecorator@NEffectUpdateDecorator@@MAEXABVCDecoratorData@2@@Z
	DD	FLAT:?__Clone@CTextureAnimationCWDecorator@NEffectUpdateDecorator@@MAEPAVCBaseDecorator@2@PAVCParticleInstance@@0@Z
CONST	ENDS
;	COMDAT ??_7?$CPooledObject@VCTextureAnimationCWDecorator@NEffectUpdateDecorator@@@@6B@
CONST	SEGMENT
??_7?$CPooledObject@VCTextureAnimationCWDecorator@NEffectUpdateDecorator@@@@6B@ DD FLAT:??_R4?$CPooledObject@VCTextureAnimationCWDecorator@NEffectUpdateDecorator@@@@6B@ ; CPooledObject<NEffectUpdateDecorator::CTextureAnimationCWDecorator>::`vftable'
	DD	FLAT:??_E?$CPooledObject@VCTextureAnimationCWDecorator@NEffectUpdateDecorator@@@@UAEPAXI@Z
CONST	ENDS
;	COMDAT ?ms_kPool@?$CPooledObject@VCTextureAnimationCWDecorator@NEffectUpdateDecorator@@@@1V?$CDynamicPoolEx@VCTextureAnimationCWDecorator@NEffectUpdateDecorator@@@@A
_DATA	SEGMENT
?ms_kPool@?$CPooledObject@VCTextureAnimationCWDecorator@NEffectUpdateDecorator@@@@1V?$CDynamicPoolEx@VCTextureAnimationCWDecorator@NEffectUpdateDecorator@@@@A DD FLAT:??_7?$CDynamicPoolEx@VCTextureAnimationCWDecorator@NEffectUpdateDecorator@@@@6B@ ; CPooledObject<NEffectUpdateDecorator::CTextureAnimationCWDecorator>::ms_kPool
	DD	00H
	DD	00H
	DD	00H
	DD	00H
	DD	00H
	DD	00H
	DD	00H
	DD	00H
_DATA	ENDS
;	COMDAT ??_7CNullDecorator@NEffectUpdateDecorator@@6B?$CPooledObject@VCNullDecorator@NEffectUpdateDecorator@@@@@
CONST	SEGMENT
??_7CNullDecorator@NEffectUpdateDecorator@@6B?$CPooledObject@VCNullDecorator@NEffectUpdateDecorator@@@@@ DD FLAT:??_R4CNullDecorator@NEffectUpdateDecorator@@6B?$CPooledObject@VCNullDecorator@NEffectUpdateDecorator@@@@@ ; NEffectUpdateDecorator::CNullDecorator::`vftable'
	DD	FLAT:??_ECNullDecorator@NEffectUpdateDecorator@@WM@AEPAXI@Z
CONST	ENDS
;	COMDAT ??_7CNullDecorator@NEffectUpdateDecorator@@6BCBaseDecorator@1@@
CONST	SEGMENT
??_7CNullDecorator@NEffectUpdateDecorator@@6BCBaseDecorator@1@@ DD FLAT:??_R4CNullDecorator@NEffectUpdateDecorator@@6BCBaseDecorator@1@@ ; NEffectUpdateDecorator::CNullDecorator::`vftable'
	DD	FLAT:??_ECNullDecorator@NEffectUpdateDecorator@@UAEPAXI@Z
	DD	FLAT:?__Excute@CNullDecorator@NEffectUpdateDecorator@@MAEXABVCDecoratorData@2@@Z
	DD	FLAT:?__Clone@CNullDecorator@NEffectUpdateDecorator@@MAEPAVCBaseDecorator@2@PAVCParticleInstance@@0@Z
CONST	ENDS
;	COMDAT ??_7?$CPooledObject@VCNullDecorator@NEffectUpdateDecorator@@@@6B@
CONST	SEGMENT
??_7?$CPooledObject@VCNullDecorator@NEffectUpdateDecorator@@@@6B@ DD FLAT:??_R4?$CPooledObject@VCNullDecorator@NEffectUpdateDecorator@@@@6B@ ; CPooledObject<NEffectUpdateDecorator::CNullDecorator>::`vftable'
	DD	FLAT:??_E?$CPooledObject@VCNullDecorator@NEffectUpdateDecorator@@@@UAEPAXI@Z
CONST	ENDS
;	COMDAT ?ms_kPool@?$CPooledObject@VCNullDecorator@NEffectUpdateDecorator@@@@1V?$CDynamicPoolEx@VCNullDecorator@NEffectUpdateDecorator@@@@A
_DATA	SEGMENT
?ms_kPool@?$CPooledObject@VCNullDecorator@NEffectUpdateDecorator@@@@1V?$CDynamicPoolEx@VCNullDecorator@NEffectUpdateDecorator@@@@A DD FLAT:??_7?$CDynamicPoolEx@VCNullDecorator@NEffectUpdateDecorator@@@@6B@ ; CPooledObject<NEffectUpdateDecorator::CNullDecorator>::ms_kPool
	DD	00H
	DD	00H
	DD	00H
	DD	00H
	DD	00H
	DD	00H
	DD	00H
	DD	00H
_DATA	ENDS
;	COMDAT ??_7CHeaderDecorator@NEffectUpdateDecorator@@6B?$CPooledObject@VCHeaderDecorator@NEffectUpdateDecorator@@@@@
CONST	SEGMENT
??_7CHeaderDecorator@NEffectUpdateDecorator@@6B?$CPooledObject@VCHeaderDecorator@NEffectUpdateDecorator@@@@@ DD FLAT:??_R4CHeaderDecorator@NEffectUpdateDecorator@@6B?$CPooledObject@VCHeaderDecorator@NEffectUpdateDecorator@@@@@ ; NEffectUpdateDecorator::CHeaderDecorator::`vftable'
	DD	FLAT:??_ECHeaderDecorator@NEffectUpdateDecorator@@WM@AEPAXI@Z
CONST	ENDS
;	COMDAT ??_7CHeaderDecorator@NEffectUpdateDecorator@@6BCBaseDecorator@1@@
CONST	SEGMENT
??_7CHeaderDecorator@NEffectUpdateDecorator@@6BCBaseDecorator@1@@ DD FLAT:??_R4CHeaderDecorator@NEffectUpdateDecorator@@6BCBaseDecorator@1@@ ; NEffectUpdateDecorator::CHeaderDecorator::`vftable'
	DD	FLAT:??_ECHeaderDecorator@NEffectUpdateDecorator@@UAEPAXI@Z
	DD	FLAT:?__Excute@CHeaderDecorator@NEffectUpdateDecorator@@MAEXABVCDecoratorData@2@@Z
	DD	FLAT:?__Clone@CHeaderDecorator@NEffectUpdateDecorator@@MAEPAVCBaseDecorator@2@PAVCParticleInstance@@0@Z
CONST	ENDS
;	COMDAT ??_7?$CPooledObject@VCHeaderDecorator@NEffectUpdateDecorator@@@@6B@
CONST	SEGMENT
??_7?$CPooledObject@VCHeaderDecorator@NEffectUpdateDecorator@@@@6B@ DD FLAT:??_R4?$CPooledObject@VCHeaderDecorator@NEffectUpdateDecorator@@@@6B@ ; CPooledObject<NEffectUpdateDecorator::CHeaderDecorator>::`vftable'
	DD	FLAT:??_E?$CPooledObject@VCHeaderDecorator@NEffectUpdateDecorator@@@@UAEPAXI@Z
CONST	ENDS
;	COMDAT ?ms_kPool@?$CPooledObject@VCHeaderDecorator@NEffectUpdateDecorator@@@@1V?$CDynamicPoolEx@VCHeaderDecorator@NEffectUpdateDecorator@@@@A
_DATA	SEGMENT
?ms_kPool@?$CPooledObject@VCHeaderDecorator@NEffectUpdateDecorator@@@@1V?$CDynamicPoolEx@VCHeaderDecorator@NEffectUpdateDecorator@@@@A DD FLAT:??_7?$CDynamicPoolEx@VCHeaderDecorator@NEffectUpdateDecorator@@@@6B@ ; CPooledObject<NEffectUpdateDecorator::CHeaderDecorator>::ms_kPool
	DD	00H
	DD	00H
	DD	00H
	DD	00H
	DD	00H
	DD	00H
	DD	00H
	DD	00H
_DATA	ENDS
;	COMDAT ??_7CBaseDecorator@NEffectUpdateDecorator@@6B@
CONST	SEGMENT
??_7CBaseDecorator@NEffectUpdateDecorator@@6B@ DD FLAT:??_R4CBaseDecorator@NEffectUpdateDecorator@@6B@ ; NEffectUpdateDecorator::CBaseDecorator::`vftable'
	DD	FLAT:??_ECBaseDecorator@NEffectUpdateDecorator@@UAEPAXI@Z
	DD	FLAT:__purecall
	DD	FLAT:__purecall
CONST	ENDS
;	COMDAT ??_7CParticleSystemData@@6B@
CONST	SEGMENT
??_7CParticleSystemData@@6B@ DD FLAT:??_R4CParticleSystemData@@6B@ ; CParticleSystemData::`vftable'
	DD	FLAT:??_ECParticleSystemData@@UAEPAXI@Z
	DD	FLAT:?OnClear@CParticleSystemData@@MAEXXZ
	DD	FLAT:?OnIsData@CParticleSystemData@@MAE_NXZ
	DD	FLAT:?OnLoadScript@CParticleSystemData@@MAEHAAVCTextFileLoader@@@Z
CONST	ENDS
_DATA	SEGMENT
?ms_kPool@CParticleSystemData@@2V?$CDynamicPool@VCParticleSystemData@@@@A DD FLAT:??_7?$CDynamicPool@VCParticleSystemData@@@@6B@ ; CParticleSystemData::ms_kPool
	DD	00H
	DD	00H
	DD	00H
	DD	00H
	DD	00H
	DD	00H
	DD	00H
	DD	00H
_DATA	ENDS
;	COMDAT ??_R1A@?0A@EA@bad_array_new_length@std@@8
rdata$r	SEGMENT
??_R1A@?0A@EA@bad_array_new_length@std@@8 DD FLAT:??_R0?AVbad_array_new_length@std@@@8 ; std::bad_array_new_length::`RTTI Base Class Descriptor at (0,-1,0,64)'
	DD	02H
	DD	00H
	DD	0ffffffffH
	DD	00H
	DD	040H
	DD	FLAT:??_R3bad_array_new_length@std@@8
rdata$r	ENDS
;	COMDAT ??_R2bad_array_new_length@std@@8
rdata$r	SEGMENT
??_R2bad_array_new_length@std@@8 DD FLAT:??_R1A@?0A@EA@bad_array_new_length@std@@8 ; std::bad_array_new_length::`RTTI Base Class Array'
	DD	FLAT:??_R1A@?0A@EA@bad_alloc@std@@8
	DD	FLAT:??_R1A@?0A@EA@exception@std@@8
rdata$r	ENDS
;	COMDAT ??_R3bad_array_new_length@std@@8
rdata$r	SEGMENT
??_R3bad_array_new_length@std@@8 DD 00H			; std::bad_array_new_length::`RTTI Class Hierarchy Descriptor'
	DD	00H
	DD	03H
	DD	FLAT:??_R2bad_array_new_length@std@@8
rdata$r	ENDS
;	COMDAT ??_R4bad_array_new_length@std@@6B@
rdata$r	SEGMENT
??_R4bad_array_new_length@std@@6B@ DD 00H		; std::bad_array_new_length::`RTTI Complete Object Locator'
	DD	00H
	DD	00H
	DD	FLAT:??_R0?AVbad_array_new_length@std@@@8
	DD	FLAT:??_R3bad_array_new_length@std@@8
rdata$r	ENDS
;	COMDAT ??_R1A@?0A@EA@bad_alloc@std@@8
rdata$r	SEGMENT
??_R1A@?0A@EA@bad_alloc@std@@8 DD FLAT:??_R0?AVbad_alloc@std@@@8 ; std::bad_alloc::`RTTI Base Class Descriptor at (0,-1,0,64)'
	DD	01H
	DD	00H
	DD	0ffffffffH
	DD	00H
	DD	040H
	DD	FLAT:??_R3bad_alloc@std@@8
rdata$r	ENDS
;	COMDAT ??_R2bad_alloc@std@@8
rdata$r	SEGMENT
??_R2bad_alloc@std@@8 DD FLAT:??_R1A@?0A@EA@bad_alloc@std@@8 ; std::bad_alloc::`RTTI Base Class Array'
	DD	FLAT:??_R1A@?0A@EA@exception@std@@8
rdata$r	ENDS
;	COMDAT ??_R3bad_alloc@std@@8
rdata$r	SEGMENT
??_R3bad_alloc@std@@8 DD 00H				; std::bad_alloc::`RTTI Class Hierarchy Descriptor'
	DD	00H
	DD	02H
	DD	FLAT:??_R2bad_alloc@std@@8
rdata$r	ENDS
;	COMDAT ??_R4bad_alloc@std@@6B@
rdata$r	SEGMENT
??_R4bad_alloc@std@@6B@ DD 00H				; std::bad_alloc::`RTTI Complete Object Locator'
	DD	00H
	DD	00H
	DD	FLAT:??_R0?AVbad_alloc@std@@@8
	DD	FLAT:??_R3bad_alloc@std@@8
rdata$r	ENDS
;	COMDAT ??_R1A@?0A@EA@exception@std@@8
rdata$r	SEGMENT
??_R1A@?0A@EA@exception@std@@8 DD FLAT:??_R0?AVexception@std@@@8 ; std::exception::`RTTI Base Class Descriptor at (0,-1,0,64)'
	DD	00H
	DD	00H
	DD	0ffffffffH
	DD	00H
	DD	040H
	DD	FLAT:??_R3exception@std@@8
rdata$r	ENDS
;	COMDAT ??_R2exception@std@@8
rdata$r	SEGMENT
??_R2exception@std@@8 DD FLAT:??_R1A@?0A@EA@exception@std@@8 ; std::exception::`RTTI Base Class Array'
rdata$r	ENDS
;	COMDAT ??_R3exception@std@@8
rdata$r	SEGMENT
??_R3exception@std@@8 DD 00H				; std::exception::`RTTI Class Hierarchy Descriptor'
	DD	00H
	DD	01H
	DD	FLAT:??_R2exception@std@@8
rdata$r	ENDS
;	COMDAT ??_R4exception@std@@6B@
rdata$r	SEGMENT
??_R4exception@std@@6B@ DD 00H				; std::exception::`RTTI Complete Object Locator'
	DD	00H
	DD	00H
	DD	FLAT:??_R0?AVexception@std@@@8
	DD	FLAT:??_R3exception@std@@8
rdata$r	ENDS
;	COMDAT ??_C@_0BB@GCADKGJO@map?1set?5too?5long@
CONST	SEGMENT
??_C@_0BB@GCADKGJO@map?1set?5too?5long@ DB 'map/set too long', 00H ; `string'
CONST	ENDS
;	COMDAT ??_C@_0BA@JFNIOLAK@string?5too?5long@
CONST	SEGMENT
??_C@_0BA@JFNIOLAK@string?5too?5long@ DB 'string too long', 00H ; `string'
CONST	ENDS
;	COMDAT __CT??_R0?AVexception@std@@@8??0exception@std@@QAE@ABV01@@Z12
xdata$x	SEGMENT
__CT??_R0?AVexception@std@@@8??0exception@std@@QAE@ABV01@@Z12 DD 00H
	DD	FLAT:??_R0?AVexception@std@@@8
	DD	00H
	DD	0ffffffffH
	ORG $+4
	DD	0cH
	DD	FLAT:??0exception@std@@QAE@ABV01@@Z
xdata$x	ENDS
;	COMDAT ??_R0?AVexception@std@@@8
data$r	SEGMENT
??_R0?AVexception@std@@@8 DD FLAT:??_7type_info@@6B@	; std::exception `RTTI Type Descriptor'
	DD	00H
	DB	'.?AVexception@std@@', 00H
data$r	ENDS
;	COMDAT __CT??_R0?AVbad_alloc@std@@@8??0bad_alloc@std@@QAE@ABV01@@Z12
xdata$x	SEGMENT
__CT??_R0?AVbad_alloc@std@@@8??0bad_alloc@std@@QAE@ABV01@@Z12 DD 010H
	DD	FLAT:??_R0?AVbad_alloc@std@@@8
	DD	00H
	DD	0ffffffffH
	ORG $+4
	DD	0cH
	DD	FLAT:??0bad_alloc@std@@QAE@ABV01@@Z
xdata$x	ENDS
;	COMDAT ??_R0?AVbad_alloc@std@@@8
data$r	SEGMENT
??_R0?AVbad_alloc@std@@@8 DD FLAT:??_7type_info@@6B@	; std::bad_alloc `RTTI Type Descriptor'
	DD	00H
	DB	'.?AVbad_alloc@std@@', 00H
data$r	ENDS
;	COMDAT __CT??_R0?AVbad_array_new_length@std@@@8??0bad_array_new_length@std@@QAE@ABV01@@Z12
xdata$x	SEGMENT
__CT??_R0?AVbad_array_new_length@std@@@8??0bad_array_new_length@std@@QAE@ABV01@@Z12 DD 00H
	DD	FLAT:??_R0?AVbad_array_new_length@std@@@8
	DD	00H
	DD	0ffffffffH
	ORG $+4
	DD	0cH
	DD	FLAT:??0bad_array_new_length@std@@QAE@ABV01@@Z
xdata$x	ENDS
;	COMDAT ??_R0?AVbad_array_new_length@std@@@8
data$r	SEGMENT
??_R0?AVbad_array_new_length@std@@@8 DD FLAT:??_7type_info@@6B@ ; std::bad_array_new_length `RTTI Type Descriptor'
	DD	00H
	DB	'.?AVbad_array_new_length@std@@', 00H
data$r	ENDS
;	COMDAT __CTA3?AVbad_array_new_length@std@@
xdata$x	SEGMENT
__CTA3?AVbad_array_new_length@std@@ DD 03H
	DD	FLAT:__CT??_R0?AVbad_array_new_length@std@@@8??0bad_array_new_length@std@@QAE@ABV01@@Z12
	DD	FLAT:__CT??_R0?AVbad_alloc@std@@@8??0bad_alloc@std@@QAE@ABV01@@Z12
	DD	FLAT:__CT??_R0?AVexception@std@@@8??0exception@std@@QAE@ABV01@@Z12
xdata$x	ENDS
;	COMDAT __TI3?AVbad_array_new_length@std@@
xdata$x	SEGMENT
__TI3?AVbad_array_new_length@std@@ DD 00H
	DD	FLAT:??1bad_array_new_length@std@@UAE@XZ
	DD	00H
	DD	FLAT:__CTA3?AVbad_array_new_length@std@@
xdata$x	ENDS
;	COMDAT ??_C@_0BF@KINCDENJ@bad?5array?5new?5length@
CONST	SEGMENT
??_C@_0BF@KINCDENJ@bad?5array?5new?5length@ DB 'bad array new length', 00H ; `string'
CONST	ENDS
;	COMDAT ??_7bad_array_new_length@std@@6B@
CONST	SEGMENT
??_7bad_array_new_length@std@@6B@ DD FLAT:??_R4bad_array_new_length@std@@6B@ ; std::bad_array_new_length::`vftable'
	DD	FLAT:??_Ebad_array_new_length@std@@UAEPAXI@Z
	DD	FLAT:?what@exception@std@@UBEPBDXZ
CONST	ENDS
;	COMDAT ??_7bad_alloc@std@@6B@
CONST	SEGMENT
??_7bad_alloc@std@@6B@ DD FLAT:??_R4bad_alloc@std@@6B@	; std::bad_alloc::`vftable'
	DD	FLAT:??_Ebad_alloc@std@@UAEPAXI@Z
	DD	FLAT:?what@exception@std@@UBEPBDXZ
CONST	ENDS
;	COMDAT ??_C@_0BC@EOODALEL@Unknown?5exception@
CONST	SEGMENT
??_C@_0BC@EOODALEL@Unknown?5exception@ DB 'Unknown exception', 00H ; `string'
CONST	ENDS
;	COMDAT ??_7exception@std@@6B@
CONST	SEGMENT
??_7exception@std@@6B@ DD FLAT:??_R4exception@std@@6B@	; std::exception::`vftable'
	DD	FLAT:??_Eexception@std@@UAEPAXI@Z
	DD	FLAT:?what@exception@std@@UBEPBDXZ
CONST	ENDS
;	COMDAT xdata$x
xdata$x	SEGMENT
__unwindtable$??$?0ABM@?$_Tree_temp_node@V?$allocator@U?$_Tree_node@MPAX@std@@@std@@@std@@QAE@AAV?$allocator@U?$_Tree_node@MPAX@std@@@1@PAU?$_Tree_node@MPAX@1@ABM@Z DD 0ffffffffH
	DD	FLAT:__unwindfunclet$??$?0ABM@?$_Tree_temp_node@V?$allocator@U?$_Tree_node@MPAX@std@@@std@@@std@@QAE@AAV?$allocator@U?$_Tree_node@MPAX@std@@@1@PAU?$_Tree_node@MPAX@1@ABM@Z$1
__ehfuncinfo$??$?0ABM@?$_Tree_temp_node@V?$allocator@U?$_Tree_node@MPAX@std@@@std@@@std@@QAE@AAV?$allocator@U?$_Tree_node@MPAX@std@@@1@PAU?$_Tree_node@MPAX@1@ABM@Z DD 019930522H
	DD	01H
	DD	FLAT:__unwindtable$??$?0ABM@?$_Tree_temp_node@V?$allocator@U?$_Tree_node@MPAX@std@@@std@@@std@@QAE@AAV?$allocator@U?$_Tree_node@MPAX@std@@@1@PAU?$_Tree_node@MPAX@1@ABM@Z
	DD	2 DUP(00H)
	DD	2 DUP(00H)
	DD	00H
	DD	01H
xdata$x	ENDS
;	COMDAT xdata$x
xdata$x	SEGMENT
__unwindtable$??0?$_Tree_temp_node_alloc@V?$allocator@U?$_Tree_node@MPAX@std@@@std@@@std@@QAE@AAV?$allocator@U?$_Tree_node@MPAX@std@@@1@@Z DD 0ffffffffH
	DD	FLAT:__unwindfunclet$??0?$_Tree_temp_node_alloc@V?$allocator@U?$_Tree_node@MPAX@std@@@std@@@std@@QAE@AAV?$allocator@U?$_Tree_node@MPAX@std@@@1@@Z$0
__ehfuncinfo$??0?$_Tree_temp_node_alloc@V?$allocator@U?$_Tree_node@MPAX@std@@@std@@@std@@QAE@AAV?$allocator@U?$_Tree_node@MPAX@std@@@1@@Z DD 019930522H
	DD	01H
	DD	FLAT:__unwindtable$??0?$_Tree_temp_node_alloc@V?$allocator@U?$_Tree_node@MPAX@std@@@std@@@std@@QAE@AAV?$allocator@U?$_Tree_node@MPAX@std@@@1@@Z
	DD	2 DUP(00H)
	DD	2 DUP(00H)
	DD	00H
	DD	01H
xdata$x	ENDS
;	COMDAT xdata$x
xdata$x	SEGMENT
__unwindtable$??$_Emplace@ABM@?$_Tree@V?$_Tset_traits@MU?$less@M@std@@V?$allocator@M@2@$0A@@std@@@std@@IAE?AU?$pair@PAU?$_Tree_node@MPAX@std@@_N@1@ABM@Z DD 0ffffffffH
	DD	FLAT:__unwindfunclet$??$_Emplace@ABM@?$_Tree@V?$_Tset_traits@MU?$less@M@std@@V?$allocator@M@2@$0A@@std@@@std@@IAE?AU?$pair@PAU?$_Tree_node@MPAX@std@@_N@1@ABM@Z$2
__ehfuncinfo$??$_Emplace@ABM@?$_Tree@V?$_Tset_traits@MU?$less@M@std@@V?$allocator@M@2@$0A@@std@@@std@@IAE?AU?$pair@PAU?$_Tree_node@MPAX@std@@_N@1@ABM@Z DD 019930522H
	DD	01H
	DD	FLAT:__unwindtable$??$_Emplace@ABM@?$_Tree@V?$_Tset_traits@MU?$less@M@std@@V?$allocator@M@2@$0A@@std@@@std@@IAE?AU?$pair@PAU?$_Tree_node@MPAX@std@@_N@1@ABM@Z
	DD	2 DUP(00H)
	DD	2 DUP(00H)
	DD	00H
	DD	01H
xdata$x	ENDS
;	COMDAT xdata$x
xdata$x	SEGMENT
__ehfuncinfo$??3?$CPooledObject@V?$CTimeEventDecorator@UDWORDCOLOR@@@NEffectUpdateDecorator@@@@SAXPAX@Z DD 019930522H
	DD	00H
	DD	00H
	DD	2 DUP(00H)
	DD	2 DUP(00H)
	DD	00H
	DD	05H
xdata$x	ENDS
;	COMDAT xdata$x
xdata$x	SEGMENT
__ehfuncinfo$??3?$CPooledObject@V?$CTimeEventDecorator@M@NEffectUpdateDecorator@@@@SAXPAX@Z DD 019930522H
	DD	00H
	DD	00H
	DD	2 DUP(00H)
	DD	2 DUP(00H)
	DD	00H
	DD	05H
xdata$x	ENDS
;	COMDAT xdata$x
xdata$x	SEGMENT
__unwindtable$??$insert@$0A@$0A@@?$_Tree@V?$_Tset_traits@MU?$less@M@std@@V?$allocator@M@2@$0A@@std@@@std@@QAE?AU?$pair@V?$_Tree_const_iterator@V?$_Tree_val@U?$_Tree_simple_types@M@std@@@std@@@std@@_N@1@ABM@Z DD 0ffffffffH
	DD	FLAT:__unwindfunclet$??$insert@$0A@$0A@@?$_Tree@V?$_Tset_traits@MU?$less@M@std@@V?$allocator@M@2@$0A@@std@@@std@@QAE?AU?$pair@V?$_Tree_const_iterator@V?$_Tree_val@U?$_Tree_simple_types@M@std@@@std@@@std@@_N@1@ABM@Z$2
__ehfuncinfo$??$insert@$0A@$0A@@?$_Tree@V?$_Tset_traits@MU?$less@M@std@@V?$allocator@M@2@$0A@@std@@@std@@QAE?AU?$pair@V?$_Tree_const_iterator@V?$_Tree_val@U?$_Tree_simple_types@M@std@@@std@@@std@@_N@1@ABM@Z DD 019930522H
	DD	01H
	DD	FLAT:__unwindtable$??$insert@$0A@$0A@@?$_Tree@V?$_Tset_traits@MU?$less@M@std@@V?$allocator@M@2@$0A@@std@@@std@@QAE?AU?$pair@V?$_Tree_const_iterator@V?$_Tree_val@U?$_Tree_simple_types@M@std@@@std@@@std@@_N@1@ABM@Z
	DD	2 DUP(00H)
	DD	2 DUP(00H)
	DD	00H
	DD	01H
xdata$x	ENDS
;	COMDAT xdata$x
xdata$x	SEGMENT
__unwindtable$?Alloc@?$CDynamicPool@VCParticleSystemData@@@@QAEPAVCParticleSystemData@@XZ DD 0ffffffffH
	DD	FLAT:__unwindfunclet$?Alloc@?$CDynamicPool@VCParticleSystemData@@@@QAEPAVCParticleSystemData@@XZ$0
__ehfuncinfo$?Alloc@?$CDynamicPool@VCParticleSystemData@@@@QAEPAVCParticleSystemData@@XZ DD 019930522H
	DD	01H
	DD	FLAT:__unwindtable$?Alloc@?$CDynamicPool@VCParticleSystemData@@@@QAEPAVCParticleSystemData@@XZ
	DD	2 DUP(00H)
	DD	2 DUP(00H)
	DD	00H
	DD	01H
xdata$x	ENDS
;	COMDAT xdata$x
xdata$x	SEGMENT
__ehfuncinfo$??3?$CPooledObject@VCRotationDecorator@NEffectUpdateDecorator@@@@SAXPAX@Z DD 019930522H
	DD	00H
	DD	00H
	DD	2 DUP(00H)
	DD	2 DUP(00H)
	DD	00H
	DD	05H
xdata$x	ENDS
;	COMDAT xdata$x
xdata$x	SEGMENT
__ehfuncinfo$??3?$CPooledObject@VCGravityDecorator@NEffectUpdateDecorator@@@@SAXPAX@Z DD 019930522H
	DD	00H
	DD	00H
	DD	2 DUP(00H)
	DD	2 DUP(00H)
	DD	00H
	DD	05H
xdata$x	ENDS
;	COMDAT xdata$x
xdata$x	SEGMENT
__ehfuncinfo$??3?$CPooledObject@VCAirResistanceDecorator@NEffectUpdateDecorator@@@@SAXPAX@Z DD 019930522H
	DD	00H
	DD	00H
	DD	2 DUP(00H)
	DD	2 DUP(00H)
	DD	00H
	DD	05H
xdata$x	ENDS
;	COMDAT xdata$x
xdata$x	SEGMENT
__ehfuncinfo$??3?$CPooledObject@VCTextureAnimationRandomDecorator@NEffectUpdateDecorator@@@@SAXPAX@Z DD 019930522H
	DD	00H
	DD	00H
	DD	2 DUP(00H)
	DD	2 DUP(00H)
	DD	00H
	DD	05H
xdata$x	ENDS
;	COMDAT xdata$x
xdata$x	SEGMENT
__ehfuncinfo$??3?$CPooledObject@VCTextureAnimationCCWDecorator@NEffectUpdateDecorator@@@@SAXPAX@Z DD 019930522H
	DD	00H
	DD	00H
	DD	2 DUP(00H)
	DD	2 DUP(00H)
	DD	00H
	DD	05H
xdata$x	ENDS
;	COMDAT xdata$x
xdata$x	SEGMENT
__ehfuncinfo$??3?$CPooledObject@VCTextureAnimationCWDecorator@NEffectUpdateDecorator@@@@SAXPAX@Z DD 019930522H
	DD	00H
	DD	00H
	DD	2 DUP(00H)
	DD	2 DUP(00H)
	DD	00H
	DD	05H
xdata$x	ENDS
;	COMDAT xdata$x
xdata$x	SEGMENT
__ehfuncinfo$??3?$CPooledObject@VCNullDecorator@NEffectUpdateDecorator@@@@SAXPAX@Z DD 019930522H
	DD	00H
	DD	00H
	DD	2 DUP(00H)
	DD	2 DUP(00H)
	DD	00H
	DD	05H
xdata$x	ENDS
;	COMDAT xdata$x
xdata$x	SEGMENT
__ehfuncinfo$??3?$CPooledObject@VCHeaderDecorator@NEffectUpdateDecorator@@@@SAXPAX@Z DD 019930522H
	DD	00H
	DD	00H
	DD	2 DUP(00H)
	DD	2 DUP(00H)
	DD	00H
	DD	05H
xdata$x	ENDS
;	COMDAT xdata$x
xdata$x	SEGMENT
__unwindtable$?New@CParticleSystemData@@SAPAV1@XZ DD 0ffffffffH
	DD	FLAT:__unwindfunclet$?New@CParticleSystemData@@SAPAV1@XZ$0
__ehfuncinfo$?New@CParticleSystemData@@SAPAV1@XZ DD 019930522H
	DD	01H
	DD	FLAT:__unwindtable$?New@CParticleSystemData@@SAPAV1@XZ
	DD	2 DUP(00H)
	DD	2 DUP(00H)
	DD	00H
	DD	01H
xdata$x	ENDS
;	COMDAT xdata$x
xdata$x	SEGMENT
__ehfuncinfo$?OnLoadScript@CParticleSystemData@@MAEHAAVCTextFileLoader@@@Z DD 019930522H
	DD	03bH
	DD	FLAT:__unwindtable$?OnLoadScript@CParticleSystemData@@MAEHAAVCTextFileLoader@@@Z
	DD	2 DUP(00H)
	DD	2 DUP(00H)
	DD	00H
	DD	01H
__unwindtable$?OnLoadScript@CParticleSystemData@@MAEHAAVCTextFileLoader@@@Z DD 0ffffffffH
	DD	FLAT:__unwindfunclet$?OnLoadScript@CParticleSystemData@@MAEHAAVCTextFileLoader@@@Z$0
	DD	00H
	DD	FLAT:__unwindfunclet$?OnLoadScript@CParticleSystemData@@MAEHAAVCTextFileLoader@@@Z$1
	DD	0ffffffffH
	DD	00H
	DD	00H
	DD	FLAT:__unwindfunclet$?OnLoadScript@CParticleSystemData@@MAEHAAVCTextFileLoader@@@Z$2
	DD	00H
	DD	FLAT:__unwindfunclet$?OnLoadScript@CParticleSystemData@@MAEHAAVCTextFileLoader@@@Z$3
	DD	00H
	DD	FLAT:__unwindfunclet$?OnLoadScript@CParticleSystemData@@MAEHAAVCTextFileLoader@@@Z$4
	DD	00H
	DD	FLAT:__unwindfunclet$?OnLoadScript@CParticleSystemData@@MAEHAAVCTextFileLoader@@@Z$5
	DD	0ffffffffH
	DD	00H
	DD	00H
	DD	FLAT:__unwindfunclet$?OnLoadScript@CParticleSystemData@@MAEHAAVCTextFileLoader@@@Z$6
	DD	00H
	DD	FLAT:__unwindfunclet$?OnLoadScript@CParticleSystemData@@MAEHAAVCTextFileLoader@@@Z$7
	DD	00H
	DD	FLAT:__unwindfunclet$?OnLoadScript@CParticleSystemData@@MAEHAAVCTextFileLoader@@@Z$8
	DD	00H
	DD	FLAT:__unwindfunclet$?OnLoadScript@CParticleSystemData@@MAEHAAVCTextFileLoader@@@Z$9
	DD	00H
	DD	FLAT:__unwindfunclet$?OnLoadScript@CParticleSystemData@@MAEHAAVCTextFileLoader@@@Z$10
	DD	0ffffffffH
	DD	00H
	DD	0ffffffffH
	DD	00H
	DD	0ffffffffH
	DD	00H
	DD	0ffffffffH
	DD	FLAT:___std_terminate
	DD	0ffffffffH
	DD	FLAT:___std_terminate
	DD	0ffffffffH
	DD	FLAT:__unwindfunclet$?OnLoadScript@CParticleSystemData@@MAEHAAVCTextFileLoader@@@Z$11
	DD	012H
	DD	FLAT:__unwindfunclet$?OnLoadScript@CParticleSystemData@@MAEHAAVCTextFileLoader@@@Z$12
	DD	012H
	DD	FLAT:__unwindfunclet$?OnLoadScript@CParticleSystemData@@MAEHAAVCTextFileLoader@@@Z$13
	DD	012H
	DD	FLAT:__unwindfunclet$?OnLoadScript@CParticleSystemData@@MAEHAAVCTextFileLoader@@@Z$14
	DD	012H
	DD	FLAT:__unwindfunclet$?OnLoadScript@CParticleSystemData@@MAEHAAVCTextFileLoader@@@Z$15
	DD	0ffffffffH
	DD	00H
	DD	012H
	DD	FLAT:__unwindfunclet$?OnLoadScript@CParticleSystemData@@MAEHAAVCTextFileLoader@@@Z$16
	DD	0ffffffffH
	DD	00H
	DD	012H
	DD	FLAT:__unwindfunclet$?OnLoadScript@CParticleSystemData@@MAEHAAVCTextFileLoader@@@Z$17
	DD	0ffffffffH
	DD	00H
	DD	012H
	DD	FLAT:__unwindfunclet$?OnLoadScript@CParticleSystemData@@MAEHAAVCTextFileLoader@@@Z$18
	DD	0ffffffffH
	DD	00H
	DD	012H
	DD	FLAT:__unwindfunclet$?OnLoadScript@CParticleSystemData@@MAEHAAVCTextFileLoader@@@Z$19
	DD	0ffffffffH
	DD	00H
	DD	012H
	DD	FLAT:__unwindfunclet$?OnLoadScript@CParticleSystemData@@MAEHAAVCTextFileLoader@@@Z$20
	DD	012H
	DD	FLAT:__unwindfunclet$?OnLoadScript@CParticleSystemData@@MAEHAAVCTextFileLoader@@@Z$21
	DD	0ffffffffH
	DD	00H
	DD	012H
	DD	FLAT:__unwindfunclet$?OnLoadScript@CParticleSystemData@@MAEHAAVCTextFileLoader@@@Z$22
	DD	0ffffffffH
	DD	00H
	DD	012H
	DD	FLAT:__unwindfunclet$?OnLoadScript@CParticleSystemData@@MAEHAAVCTextFileLoader@@@Z$23
	DD	0ffffffffH
	DD	00H
	DD	012H
	DD	FLAT:__unwindfunclet$?OnLoadScript@CParticleSystemData@@MAEHAAVCTextFileLoader@@@Z$24
	DD	0ffffffffH
	DD	00H
	DD	012H
	DD	FLAT:__unwindfunclet$?OnLoadScript@CParticleSystemData@@MAEHAAVCTextFileLoader@@@Z$25
	DD	012H
	DD	FLAT:__unwindfunclet$?OnLoadScript@CParticleSystemData@@MAEHAAVCTextFileLoader@@@Z$26
	DD	0ffffffffH
	DD	00H
	DD	0ffffffffH
	DD	00H
	DD	012H
	DD	FLAT:__unwindfunclet$?OnLoadScript@CParticleSystemData@@MAEHAAVCTextFileLoader@@@Z$27
	DD	02dH
	DD	FLAT:__unwindfunclet$?OnLoadScript@CParticleSystemData@@MAEHAAVCTextFileLoader@@@Z$28
	DD	02eH
	DD	FLAT:__unwindfunclet$?OnLoadScript@CParticleSystemData@@MAEHAAVCTextFileLoader@@@Z$29
	DD	02fH
	DD	FLAT:__unwindfunclet$?OnLoadScript@CParticleSystemData@@MAEHAAVCTextFileLoader@@@Z$30
	DD	0ffffffffH
	DD	00H
	DD	0ffffffffH
	DD	00H
	DD	0ffffffffH
	DD	00H
	DD	0ffffffffH
	DD	00H
	DD	030H
	DD	FLAT:__unwindfunclet$?OnLoadScript@CParticleSystemData@@MAEHAAVCTextFileLoader@@@Z$31
	DD	0ffffffffH
	DD	00H
	DD	030H
	DD	FLAT:__unwindfunclet$?OnLoadScript@CParticleSystemData@@MAEHAAVCTextFileLoader@@@Z$32
	DD	0ffffffffH
	DD	FLAT:___std_terminate
	DD	030H
	DD	FLAT:__unwindfunclet$?OnLoadScript@CParticleSystemData@@MAEHAAVCTextFileLoader@@@Z$33
	DD	0ffffffffH
	DD	FLAT:___std_terminate
xdata$x	ENDS
;	COMDAT xdata$x
xdata$x	SEGMENT
__unwindtable$??0CParticleSystemData@@QAE@XZ DD 0ffffffffH
	DD	FLAT:__unwindfunclet$??0CParticleSystemData@@QAE@XZ$0
	DD	00H
	DD	FLAT:__unwindfunclet$??0CParticleSystemData@@QAE@XZ$1
__ehfuncinfo$??0CParticleSystemData@@QAE@XZ DD 019930522H
	DD	02H
	DD	FLAT:__unwindtable$??0CParticleSystemData@@QAE@XZ
	DD	2 DUP(00H)
	DD	2 DUP(00H)
	DD	00H
	DD	01H
xdata$x	ENDS
;	COMDAT xdata$x
xdata$x	SEGMENT
__ehfuncinfo$??1CGotoChild@CTextFileLoader@@QAE@XZ DD 019930522H
	DD	00H
	DD	00H
	DD	2 DUP(00H)
	DD	2 DUP(00H)
	DD	00H
	DD	05H
xdata$x	ENDS
;	COMDAT CRT$XCU
CRT$XCU	SEGMENT
??ms_kPool$initializer$@?$CPooledObject@VCHeaderDecorator@NEffectUpdateDecorator@@@@1P6AXXZA@@3P6AXXZA DD FLAT:??__E?ms_kPool@?$CPooledObject@VCHeaderDecorator@NEffectUpdateDecorator@@@@1V?$CDynamicPoolEx@VCHeaderDecorator@NEffectUpdateDecorator@@@@A@@YAXXZ ; ??ms_kPool$initializer$@?$CPooledObject@VCHeaderDecorator@NEffectUpdateDecorator@@@@1P6AXXZA@@3P6AXXZA
CRT$XCU	ENDS
;	COMDAT CRT$XCU
CRT$XCU	SEGMENT
??ms_kPool$initializer$@?$CPooledObject@VCNullDecorator@NEffectUpdateDecorator@@@@1P6AXXZA@@3P6AXXZA DD FLAT:??__E?ms_kPool@?$CPooledObject@VCNullDecorator@NEffectUpdateDecorator@@@@1V?$CDynamicPoolEx@VCNullDecorator@NEffectUpdateDecorator@@@@A@@YAXXZ ; ??ms_kPool$initializer$@?$CPooledObject@VCNullDecorator@NEffectUpdateDecorator@@@@1P6AXXZA@@3P6AXXZA
CRT$XCU	ENDS
;	COMDAT CRT$XCU
CRT$XCU	SEGMENT
??ms_kPool$initializer$@?$CPooledObject@VCTextureAnimationCWDecorator@NEffectUpdateDecorator@@@@1P6AXXZA@@3P6AXXZA DD FLAT:??__E?ms_kPool@?$CPooledObject@VCTextureAnimationCWDecorator@NEffectUpdateDecorator@@@@1V?$CDynamicPoolEx@VCTextureAnimationCWDecorator@NEffectUpdateDecorator@@@@A@@YAXXZ ; ??ms_kPool$initializer$@?$CPooledObject@VCTextureAnimationCWDecorator@NEffectUpdateDecorator@@@@1P6AXXZA@@3P6AXXZA
CRT$XCU	ENDS
;	COMDAT CRT$XCU
CRT$XCU	SEGMENT
??ms_kPool$initializer$@?$CPooledObject@VCTextureAnimationCCWDecorator@NEffectUpdateDecorator@@@@1P6AXXZA@@3P6AXXZA DD FLAT:??__E?ms_kPool@?$CPooledObject@VCTextureAnimationCCWDecorator@NEffectUpdateDecorator@@@@1V?$CDynamicPoolEx@VCTextureAnimationCCWDecorator@NEffectUpdateDecorator@@@@A@@YAXXZ ; ??ms_kPool$initializer$@?$CPooledObject@VCTextureAnimationCCWDecorator@NEffectUpdateDecorator@@@@1P6AXXZA@@3P6AXXZA
CRT$XCU	ENDS
;	COMDAT CRT$XCU
CRT$XCU	SEGMENT
??ms_kPool$initializer$@?$CPooledObject@VCTextureAnimationRandomDecorator@NEffectUpdateDecorator@@@@1P6AXXZA@@3P6AXXZA DD FLAT:??__E?ms_kPool@?$CPooledObject@VCTextureAnimationRandomDecorator@NEffectUpdateDecorator@@@@1V?$CDynamicPoolEx@VCTextureAnimationRandomDecorator@NEffectUpdateDecorator@@@@A@@YAXXZ ; ??ms_kPool$initializer$@?$CPooledObject@VCTextureAnimationRandomDecorator@NEffectUpdateDecorator@@@@1P6AXXZA@@3P6AXXZA
CRT$XCU	ENDS
;	COMDAT CRT$XCU
CRT$XCU	SEGMENT
??ms_kPool$initializer$@?$CPooledObject@VCAirResistanceDecorator@NEffectUpdateDecorator@@@@1P6AXXZA@@3P6AXXZA DD FLAT:??__E?ms_kPool@?$CPooledObject@VCAirResistanceDecorator@NEffectUpdateDecorator@@@@1V?$CDynamicPoolEx@VCAirResistanceDecorator@NEffectUpdateDecorator@@@@A@@YAXXZ ; ??ms_kPool$initializer$@?$CPooledObject@VCAirResistanceDecorator@NEffectUpdateDecorator@@@@1P6AXXZA@@3P6AXXZA
CRT$XCU	ENDS
;	COMDAT CRT$XCU
CRT$XCU	SEGMENT
??ms_kPool$initializer$@?$CPooledObject@VCGravityDecorator@NEffectUpdateDecorator@@@@1P6AXXZA@@3P6AXXZA DD FLAT:??__E?ms_kPool@?$CPooledObject@VCGravityDecorator@NEffectUpdateDecorator@@@@1V?$CDynamicPoolEx@VCGravityDecorator@NEffectUpdateDecorator@@@@A@@YAXXZ ; ??ms_kPool$initializer$@?$CPooledObject@VCGravityDecorator@NEffectUpdateDecorator@@@@1P6AXXZA@@3P6AXXZA
CRT$XCU	ENDS
;	COMDAT CRT$XCU
CRT$XCU	SEGMENT
??ms_kPool$initializer$@?$CPooledObject@VCRotationDecorator@NEffectUpdateDecorator@@@@1P6AXXZA@@3P6AXXZA DD FLAT:??__E?ms_kPool@?$CPooledObject@VCRotationDecorator@NEffectUpdateDecorator@@@@1V?$CDynamicPoolEx@VCRotationDecorator@NEffectUpdateDecorator@@@@A@@YAXXZ ; ??ms_kPool$initializer$@?$CPooledObject@VCRotationDecorator@NEffectUpdateDecorator@@@@1P6AXXZA@@3P6AXXZA
CRT$XCU	ENDS
;	COMDAT CRT$XCU
CRT$XCU	SEGMENT
??ms_kPool$initializer$@?$CPooledObject@V?$CTimeEventDecorator@M@NEffectUpdateDecorator@@@@1P6AXXZA@@3P6AXXZA DD FLAT:??__E?ms_kPool@?$CPooledObject@V?$CTimeEventDecorator@M@NEffectUpdateDecorator@@@@1V?$CDynamicPoolEx@V?$CTimeEventDecorator@M@NEffectUpdateDecorator@@@@A@@YAXXZ ; ??ms_kPool$initializer$@?$CPooledObject@V?$CTimeEventDecorator@M@NEffectUpdateDecorator@@@@1P6AXXZA@@3P6AXXZA
CRT$XCU	ENDS
;	COMDAT CRT$XCU
CRT$XCU	SEGMENT
??ms_kPool$initializer$@?$CPooledObject@V?$CTimeEventDecorator@UDWORDCOLOR@@@NEffectUpdateDecorator@@@@1P6AXXZA@@3P6AXXZA DD FLAT:??__E?ms_kPool@?$CPooledObject@V?$CTimeEventDecorator@UDWORDCOLOR@@@NEffectUpdateDecorator@@@@1V?$CDynamicPoolEx@V?$CTimeEventDecorator@UDWORDCOLOR@@@NEffectUpdateDecorator@@@@A@@YAXXZ ; ??ms_kPool$initializer$@?$CPooledObject@V?$CTimeEventDecorator@UDWORDCOLOR@@@NEffectUpdateDecorator@@@@1P6AXXZA@@3P6AXXZA
CRT$XCU	ENDS
; Function compile flags: /Odsp
;	COMDAT ??_ECRotationDecorator@NEffectUpdateDecorator@@WM@AEPAXI@Z
_TEXT	SEGMENT
??_ECRotationDecorator@NEffectUpdateDecorator@@WM@AEPAXI@Z PROC ; [thunk]:NEffectUpdateDecorator::CRotationDecorator::`vector deleting destructor', COMDAT
  00000	83 e9 0c	 sub	 ecx, 12			; 0000000cH
  00003	e9 00 00 00 00	 jmp	 ??_ECRotationDecorator@NEffectUpdateDecorator@@UAEPAXI@Z
??_ECRotationDecorator@NEffectUpdateDecorator@@WM@AEPAXI@Z ENDP ; [thunk]:NEffectUpdateDecorator::CRotationDecorator::`vector deleting destructor'
_TEXT	ENDS
; Function compile flags: /Odsp
;	COMDAT ??_ECGravityDecorator@NEffectUpdateDecorator@@WM@AEPAXI@Z
_TEXT	SEGMENT
??_ECGravityDecorator@NEffectUpdateDecorator@@WM@AEPAXI@Z PROC ; [thunk]:NEffectUpdateDecorator::CGravityDecorator::`vector deleting destructor', COMDAT
  00000	83 e9 0c	 sub	 ecx, 12			; 0000000cH
  00003	e9 00 00 00 00	 jmp	 ??_ECGravityDecorator@NEffectUpdateDecorator@@UAEPAXI@Z
??_ECGravityDecorator@NEffectUpdateDecorator@@WM@AEPAXI@Z ENDP ; [thunk]:NEffectUpdateDecorator::CGravityDecorator::`vector deleting destructor'
_TEXT	ENDS
; Function compile flags: /Odsp
;	COMDAT ??_ECAirResistanceDecorator@NEffectUpdateDecorator@@WM@AEPAXI@Z
_TEXT	SEGMENT
??_ECAirResistanceDecorator@NEffectUpdateDecorator@@WM@AEPAXI@Z PROC ; [thunk]:NEffectUpdateDecorator::CAirResistanceDecorator::`vector deleting destructor', COMDAT
  00000	83 e9 0c	 sub	 ecx, 12			; 0000000cH
  00003	e9 00 00 00 00	 jmp	 ??_ECAirResistanceDecorator@NEffectUpdateDecorator@@UAEPAXI@Z
??_ECAirResistanceDecorator@NEffectUpdateDecorator@@WM@AEPAXI@Z ENDP ; [thunk]:NEffectUpdateDecorator::CAirResistanceDecorator::`vector deleting destructor'
_TEXT	ENDS
; Function compile flags: /Odsp
;	COMDAT ??_ECTextureAnimationRandomDecorator@NEffectUpdateDecorator@@WM@AEPAXI@Z
_TEXT	SEGMENT
??_ECTextureAnimationRandomDecorator@NEffectUpdateDecorator@@WM@AEPAXI@Z PROC ; [thunk]:NEffectUpdateDecorator::CTextureAnimationRandomDecorator::`vector deleting destructor', COMDAT
  00000	83 e9 0c	 sub	 ecx, 12			; 0000000cH
  00003	e9 00 00 00 00	 jmp	 ??_ECTextureAnimationRandomDecorator@NEffectUpdateDecorator@@UAEPAXI@Z
??_ECTextureAnimationRandomDecorator@NEffectUpdateDecorator@@WM@AEPAXI@Z ENDP ; [thunk]:NEffectUpdateDecorator::CTextureAnimationRandomDecorator::`vector deleting destructor'
_TEXT	ENDS
; Function compile flags: /Odsp
;	COMDAT ??_ECTextureAnimationCCWDecorator@NEffectUpdateDecorator@@WM@AEPAXI@Z
_TEXT	SEGMENT
??_ECTextureAnimationCCWDecorator@NEffectUpdateDecorator@@WM@AEPAXI@Z PROC ; [thunk]:NEffectUpdateDecorator::CTextureAnimationCCWDecorator::`vector deleting destructor', COMDAT
  00000	83 e9 0c	 sub	 ecx, 12			; 0000000cH
  00003	e9 00 00 00 00	 jmp	 ??_ECTextureAnimationCCWDecorator@NEffectUpdateDecorator@@UAEPAXI@Z
??_ECTextureAnimationCCWDecorator@NEffectUpdateDecorator@@WM@AEPAXI@Z ENDP ; [thunk]:NEffectUpdateDecorator::CTextureAnimationCCWDecorator::`vector deleting destructor'
_TEXT	ENDS
; Function compile flags: /Odsp
;	COMDAT ??_ECTextureAnimationCWDecorator@NEffectUpdateDecorator@@WM@AEPAXI@Z
_TEXT	SEGMENT
??_ECTextureAnimationCWDecorator@NEffectUpdateDecorator@@WM@AEPAXI@Z PROC ; [thunk]:NEffectUpdateDecorator::CTextureAnimationCWDecorator::`vector deleting destructor', COMDAT
  00000	83 e9 0c	 sub	 ecx, 12			; 0000000cH
  00003	e9 00 00 00 00	 jmp	 ??_ECTextureAnimationCWDecorator@NEffectUpdateDecorator@@UAEPAXI@Z
??_ECTextureAnimationCWDecorator@NEffectUpdateDecorator@@WM@AEPAXI@Z ENDP ; [thunk]:NEffectUpdateDecorator::CTextureAnimationCWDecorator::`vector deleting destructor'
_TEXT	ENDS
; Function compile flags: /Odsp
;	COMDAT ??_E?$CTimeEventDecorator@UDWORDCOLOR@@@NEffectUpdateDecorator@@WM@AEPAXI@Z
_TEXT	SEGMENT
??_E?$CTimeEventDecorator@UDWORDCOLOR@@@NEffectUpdateDecorator@@WM@AEPAXI@Z PROC ; [thunk]:NEffectUpdateDecorator::CTimeEventDecorator<DWORDCOLOR>::`vector deleting destructor', COMDAT
  00000	83 e9 0c	 sub	 ecx, 12			; 0000000cH
  00003	e9 00 00 00 00	 jmp	 ??_E?$CTimeEventDecorator@UDWORDCOLOR@@@NEffectUpdateDecorator@@UAEPAXI@Z
??_E?$CTimeEventDecorator@UDWORDCOLOR@@@NEffectUpdateDecorator@@WM@AEPAXI@Z ENDP ; [thunk]:NEffectUpdateDecorator::CTimeEventDecorator<DWORDCOLOR>::`vector deleting destructor'
_TEXT	ENDS
; Function compile flags: /Odsp
;	COMDAT ??_E?$CTimeEventDecorator@M@NEffectUpdateDecorator@@WM@AEPAXI@Z
_TEXT	SEGMENT
??_E?$CTimeEventDecorator@M@NEffectUpdateDecorator@@WM@AEPAXI@Z PROC ; [thunk]:NEffectUpdateDecorator::CTimeEventDecorator<float>::`vector deleting destructor', COMDAT
  00000	83 e9 0c	 sub	 ecx, 12			; 0000000cH
  00003	e9 00 00 00 00	 jmp	 ??_E?$CTimeEventDecorator@M@NEffectUpdateDecorator@@UAEPAXI@Z
??_E?$CTimeEventDecorator@M@NEffectUpdateDecorator@@WM@AEPAXI@Z ENDP ; [thunk]:NEffectUpdateDecorator::CTimeEventDecorator<float>::`vector deleting destructor'
_TEXT	ENDS
; Function compile flags: /Odsp
;	COMDAT ??_ECNullDecorator@NEffectUpdateDecorator@@WM@AEPAXI@Z
_TEXT	SEGMENT
??_ECNullDecorator@NEffectUpdateDecorator@@WM@AEPAXI@Z PROC ; [thunk]:NEffectUpdateDecorator::CNullDecorator::`vector deleting destructor', COMDAT
  00000	83 e9 0c	 sub	 ecx, 12			; 0000000cH
  00003	e9 00 00 00 00	 jmp	 ??_ECNullDecorator@NEffectUpdateDecorator@@UAEPAXI@Z
??_ECNullDecorator@NEffectUpdateDecorator@@WM@AEPAXI@Z ENDP ; [thunk]:NEffectUpdateDecorator::CNullDecorator::`vector deleting destructor'
_TEXT	ENDS
; Function compile flags: /Odsp
;	COMDAT ??_ECHeaderDecorator@NEffectUpdateDecorator@@WM@AEPAXI@Z
_TEXT	SEGMENT
??_ECHeaderDecorator@NEffectUpdateDecorator@@WM@AEPAXI@Z PROC ; [thunk]:NEffectUpdateDecorator::CHeaderDecorator::`vector deleting destructor', COMDAT
  00000	83 e9 0c	 sub	 ecx, 12			; 0000000cH
  00003	e9 00 00 00 00	 jmp	 ??_ECHeaderDecorator@NEffectUpdateDecorator@@UAEPAXI@Z
??_ECHeaderDecorator@NEffectUpdateDecorator@@WM@AEPAXI@Z ENDP ; [thunk]:NEffectUpdateDecorator::CHeaderDecorator::`vector deleting destructor'
_TEXT	ENDS
; Function compile flags: /Ogtp
; File C:\Program Files (x86)\Microsoft Visual Studio\2019\Professional\VC\Tools\MSVC\14.29.30133\include\xutility
;	COMDAT ??$_Copy_memmove@PAPAVCParticleSystemData@@PAPAV1@@std@@YAPAPAVCParticleSystemData@@PAPAV1@00@Z
_TEXT	SEGMENT
__First$ = 8						; size = 4
__Last$ = 12						; size = 4
__Dest$ = 16						; size = 4
??$_Copy_memmove@PAPAVCParticleSystemData@@PAPAV1@@std@@YAPAPAVCParticleSystemData@@PAPAV1@00@Z PROC ; std::_Copy_memmove<CParticleSystemData * *,CParticleSystemData * *>, COMDAT

; 4159 : _OutCtgIt _Copy_memmove(_CtgIt _First, _CtgIt _Last, _OutCtgIt _Dest) {

  00000	55		 push	 ebp
  00001	8b ec		 mov	 ebp, esp

; 4160 :     auto _FirstPtr              = _To_address(_First);
; 4161 :     auto _LastPtr               = _To_address(_Last);
; 4162 :     auto _DestPtr               = _To_address(_Dest);
; 4163 :     const char* const _First_ch = const_cast<const char*>(reinterpret_cast<const volatile char*>(_FirstPtr));
; 4164 :     const char* const _Last_ch  = const_cast<const char*>(reinterpret_cast<const volatile char*>(_LastPtr));
; 4165 :     char* const _Dest_ch        = const_cast<char*>(reinterpret_cast<const volatile char*>(_DestPtr));
; 4166 :     const auto _Count           = static_cast<size_t>(_Last_ch - _First_ch);

  00003	8b 45 08	 mov	 eax, DWORD PTR __First$[ebp]
  00006	56		 push	 esi

; 4167 :     _CSTD memmove(_Dest_ch, _First_ch, _Count);

  00007	8b 75 10	 mov	 esi, DWORD PTR __Dest$[ebp]
  0000a	57		 push	 edi
  0000b	8b 7d 0c	 mov	 edi, DWORD PTR __Last$[ebp]
  0000e	2b f8		 sub	 edi, eax
  00010	57		 push	 edi
  00011	50		 push	 eax
  00012	56		 push	 esi
  00013	e8 00 00 00 00	 call	 _memmove
  00018	83 c4 0c	 add	 esp, 12			; 0000000cH

; 4168 :     if constexpr (is_pointer_v<_OutCtgIt>) {
; 4169 :         return reinterpret_cast<_OutCtgIt>(_Dest_ch + _Count);

  0001b	8d 04 37	 lea	 eax, DWORD PTR [edi+esi]
  0001e	5f		 pop	 edi
  0001f	5e		 pop	 esi

; 4170 :     } else {
; 4171 :         return _Dest + (_LastPtr - _FirstPtr);
; 4172 :     }
; 4173 : }

  00020	5d		 pop	 ebp
  00021	c3		 ret	 0
??$_Copy_memmove@PAPAVCParticleSystemData@@PAPAV1@@std@@YAPAPAVCParticleSystemData@@PAPAV1@00@Z ENDP ; std::_Copy_memmove<CParticleSystemData * *,CParticleSystemData * *>
_TEXT	ENDS
; Function compile flags: /Ogtp
; File C:\Program Files (x86)\Microsoft Visual Studio\2019\Professional\VC\Tools\MSVC\14.29.30133\include\xutility
;	COMDAT ??$_Copy_memmove@PAPAV?$CTimeEventDecorator@UDWORDCOLOR@@@NEffectUpdateDecorator@@PAPAV12@@std@@YAPAPAV?$CTimeEventDecorator@UDWORDCOLOR@@@NEffectUpdateDecorator@@PAPAV12@00@Z
_TEXT	SEGMENT
__First$ = 8						; size = 4
__Last$ = 12						; size = 4
__Dest$ = 16						; size = 4
??$_Copy_memmove@PAPAV?$CTimeEventDecorator@UDWORDCOLOR@@@NEffectUpdateDecorator@@PAPAV12@@std@@YAPAPAV?$CTimeEventDecorator@UDWORDCOLOR@@@NEffectUpdateDecorator@@PAPAV12@00@Z PROC ; std::_Copy_memmove<NEffectUpdateDecorator::CTimeEventDecorator<DWORDCOLOR> * *,NEffectUpdateDecorator::CTimeEventDecorator<DWORDCOLOR> * *>, COMDAT

; 4159 : _OutCtgIt _Copy_memmove(_CtgIt _First, _CtgIt _Last, _OutCtgIt _Dest) {

  00000	55		 push	 ebp
  00001	8b ec		 mov	 ebp, esp

; 4160 :     auto _FirstPtr              = _To_address(_First);
; 4161 :     auto _LastPtr               = _To_address(_Last);
; 4162 :     auto _DestPtr               = _To_address(_Dest);
; 4163 :     const char* const _First_ch = const_cast<const char*>(reinterpret_cast<const volatile char*>(_FirstPtr));
; 4164 :     const char* const _Last_ch  = const_cast<const char*>(reinterpret_cast<const volatile char*>(_LastPtr));
; 4165 :     char* const _Dest_ch        = const_cast<char*>(reinterpret_cast<const volatile char*>(_DestPtr));
; 4166 :     const auto _Count           = static_cast<size_t>(_Last_ch - _First_ch);

  00003	8b 45 08	 mov	 eax, DWORD PTR __First$[ebp]
  00006	56		 push	 esi

; 4167 :     _CSTD memmove(_Dest_ch, _First_ch, _Count);

  00007	8b 75 10	 mov	 esi, DWORD PTR __Dest$[ebp]
  0000a	57		 push	 edi
  0000b	8b 7d 0c	 mov	 edi, DWORD PTR __Last$[ebp]
  0000e	2b f8		 sub	 edi, eax
  00010	57		 push	 edi
  00011	50		 push	 eax
  00012	56		 push	 esi
  00013	e8 00 00 00 00	 call	 _memmove
  00018	83 c4 0c	 add	 esp, 12			; 0000000cH

; 4168 :     if constexpr (is_pointer_v<_OutCtgIt>) {
; 4169 :         return reinterpret_cast<_OutCtgIt>(_Dest_ch + _Count);

  0001b	8d 04 37	 lea	 eax, DWORD PTR [edi+esi]
  0001e	5f		 pop	 edi
  0001f	5e		 pop	 esi

; 4170 :     } else {
; 4171 :         return _Dest + (_LastPtr - _FirstPtr);
; 4172 :     }
; 4173 : }

  00020	5d		 pop	 ebp
  00021	c3		 ret	 0
??$_Copy_memmove@PAPAV?$CTimeEventDecorator@UDWORDCOLOR@@@NEffectUpdateDecorator@@PAPAV12@@std@@YAPAPAV?$CTimeEventDecorator@UDWORDCOLOR@@@NEffectUpdateDecorator@@PAPAV12@00@Z ENDP ; std::_Copy_memmove<NEffectUpdateDecorator::CTimeEventDecorator<DWORDCOLOR> * *,NEffectUpdateDecorator::CTimeEventDecorator<DWORDCOLOR> * *>
_TEXT	ENDS
; Function compile flags: /Ogtp
; File C:\Program Files (x86)\Microsoft Visual Studio\2019\Professional\VC\Tools\MSVC\14.29.30133\include\xutility
;	COMDAT ??$_Copy_memmove@PAPAV?$CTimeEventDecorator@M@NEffectUpdateDecorator@@PAPAV12@@std@@YAPAPAV?$CTimeEventDecorator@M@NEffectUpdateDecorator@@PAPAV12@00@Z
_TEXT	SEGMENT
__First$ = 8						; size = 4
__Last$ = 12						; size = 4
__Dest$ = 16						; size = 4
??$_Copy_memmove@PAPAV?$CTimeEventDecorator@M@NEffectUpdateDecorator@@PAPAV12@@std@@YAPAPAV?$CTimeEventDecorator@M@NEffectUpdateDecorator@@PAPAV12@00@Z PROC ; std::_Copy_memmove<NEffectUpdateDecorator::CTimeEventDecorator<float> * *,NEffectUpdateDecorator::CTimeEventDecorator<float> * *>, COMDAT

; 4159 : _OutCtgIt _Copy_memmove(_CtgIt _First, _CtgIt _Last, _OutCtgIt _Dest) {

  00000	55		 push	 ebp
  00001	8b ec		 mov	 ebp, esp

; 4160 :     auto _FirstPtr              = _To_address(_First);
; 4161 :     auto _LastPtr               = _To_address(_Last);
; 4162 :     auto _DestPtr               = _To_address(_Dest);
; 4163 :     const char* const _First_ch = const_cast<const char*>(reinterpret_cast<const volatile char*>(_FirstPtr));
; 4164 :     const char* const _Last_ch  = const_cast<const char*>(reinterpret_cast<const volatile char*>(_LastPtr));
; 4165 :     char* const _Dest_ch        = const_cast<char*>(reinterpret_cast<const volatile char*>(_DestPtr));
; 4166 :     const auto _Count           = static_cast<size_t>(_Last_ch - _First_ch);

  00003	8b 45 08	 mov	 eax, DWORD PTR __First$[ebp]
  00006	56		 push	 esi

; 4167 :     _CSTD memmove(_Dest_ch, _First_ch, _Count);

  00007	8b 75 10	 mov	 esi, DWORD PTR __Dest$[ebp]
  0000a	57		 push	 edi
  0000b	8b 7d 0c	 mov	 edi, DWORD PTR __Last$[ebp]
  0000e	2b f8		 sub	 edi, eax
  00010	57		 push	 edi
  00011	50		 push	 eax
  00012	56		 push	 esi
  00013	e8 00 00 00 00	 call	 _memmove
  00018	83 c4 0c	 add	 esp, 12			; 0000000cH

; 4168 :     if constexpr (is_pointer_v<_OutCtgIt>) {
; 4169 :         return reinterpret_cast<_OutCtgIt>(_Dest_ch + _Count);

  0001b	8d 04 37	 lea	 eax, DWORD PTR [edi+esi]
  0001e	5f		 pop	 edi
  0001f	5e		 pop	 esi

; 4170 :     } else {
; 4171 :         return _Dest + (_LastPtr - _FirstPtr);
; 4172 :     }
; 4173 : }

  00020	5d		 pop	 ebp
  00021	c3		 ret	 0
??$_Copy_memmove@PAPAV?$CTimeEventDecorator@M@NEffectUpdateDecorator@@PAPAV12@@std@@YAPAPAV?$CTimeEventDecorator@M@NEffectUpdateDecorator@@PAPAV12@00@Z ENDP ; std::_Copy_memmove<NEffectUpdateDecorator::CTimeEventDecorator<float> * *,NEffectUpdateDecorator::CTimeEventDecorator<float> * *>
_TEXT	ENDS
; Function compile flags: /Ogtp
; File C:\Program Files (x86)\Microsoft Visual Studio\2019\Professional\VC\Tools\MSVC\14.29.30133\include\xutility
;	COMDAT ??$_Copy_memmove@PAPAVCRotationDecorator@NEffectUpdateDecorator@@PAPAV12@@std@@YAPAPAVCRotationDecorator@NEffectUpdateDecorator@@PAPAV12@00@Z
_TEXT	SEGMENT
__First$ = 8						; size = 4
__Last$ = 12						; size = 4
__Dest$ = 16						; size = 4
??$_Copy_memmove@PAPAVCRotationDecorator@NEffectUpdateDecorator@@PAPAV12@@std@@YAPAPAVCRotationDecorator@NEffectUpdateDecorator@@PAPAV12@00@Z PROC ; std::_Copy_memmove<NEffectUpdateDecorator::CRotationDecorator * *,NEffectUpdateDecorator::CRotationDecorator * *>, COMDAT

; 4159 : _OutCtgIt _Copy_memmove(_CtgIt _First, _CtgIt _Last, _OutCtgIt _Dest) {

  00000	55		 push	 ebp
  00001	8b ec		 mov	 ebp, esp

; 4160 :     auto _FirstPtr              = _To_address(_First);
; 4161 :     auto _LastPtr               = _To_address(_Last);
; 4162 :     auto _DestPtr               = _To_address(_Dest);
; 4163 :     const char* const _First_ch = const_cast<const char*>(reinterpret_cast<const volatile char*>(_FirstPtr));
; 4164 :     const char* const _Last_ch  = const_cast<const char*>(reinterpret_cast<const volatile char*>(_LastPtr));
; 4165 :     char* const _Dest_ch        = const_cast<char*>(reinterpret_cast<const volatile char*>(_DestPtr));
; 4166 :     const auto _Count           = static_cast<size_t>(_Last_ch - _First_ch);

  00003	8b 45 08	 mov	 eax, DWORD PTR __First$[ebp]
  00006	56		 push	 esi

; 4167 :     _CSTD memmove(_Dest_ch, _First_ch, _Count);

  00007	8b 75 10	 mov	 esi, DWORD PTR __Dest$[ebp]
  0000a	57		 push	 edi
  0000b	8b 7d 0c	 mov	 edi, DWORD PTR __Last$[ebp]
  0000e	2b f8		 sub	 edi, eax
  00010	57		 push	 edi
  00011	50		 push	 eax
  00012	56		 push	 esi
  00013	e8 00 00 00 00	 call	 _memmove
  00018	83 c4 0c	 add	 esp, 12			; 0000000cH

; 4168 :     if constexpr (is_pointer_v<_OutCtgIt>) {
; 4169 :         return reinterpret_cast<_OutCtgIt>(_Dest_ch + _Count);

  0001b	8d 04 37	 lea	 eax, DWORD PTR [edi+esi]
  0001e	5f		 pop	 edi
  0001f	5e		 pop	 esi

; 4170 :     } else {
; 4171 :         return _Dest + (_LastPtr - _FirstPtr);
; 4172 :     }
; 4173 : }

  00020	5d		 pop	 ebp
